
flash_program.elf:     file format elf32-littlearm

Sections:
Idx Name          Size      VMA       LMA       File off  Algn
  0 .boot2        00000100  10000000  10000000  00010000  2**0
                  CONTENTS, ALLOC, LOAD, READONLY, DATA
  1 .text         00004a18  10000100  10000100  00010100  2**3
                  CONTENTS, ALLOC, LOAD, READONLY, CODE
  2 .rodata       0000041c  10004b18  10004b18  00014b18  2**3
                  CONTENTS, ALLOC, LOAD, READONLY, DATA
  3 .binary_info  00000024  10004f34  10004f34  00014f34  2**2
                  CONTENTS, ALLOC, LOAD, DATA
  4 .ram_vector_table 000000c0  20000000  20000000  00020bac  2**2
                  CONTENTS
  5 .data         00000aec  200000c0  10004f58  000200c0  2**4
                  CONTENTS, ALLOC, LOAD, CODE
  6 .uninitialized_data 00000000  20000bac  20000bac  00020c6c  2**0
                  CONTENTS
  7 .scratch_x    00000000  20040000  20040000  00020c6c  2**0
                  CONTENTS
  8 .scratch_y    00000000  20041000  20041000  00020c6c  2**0
                  CONTENTS
  9 .bss          000003f0  20000bac  20000bac  00020bac  2**2
                  ALLOC
 10 .heap         00000800  20000f9c  20000f9c  00020c6c  2**2
                  CONTENTS, READONLY
 11 .stack_dummy  00000800  20041000  20041000  00021480  2**5
                  CONTENTS, READONLY
 12 .ARM.attributes 00000028  00000000  00000000  00021c80  2**0
                  CONTENTS, READONLY
 13 .comment      00000079  00000000  00000000  00021ca8  2**0
                  CONTENTS, READONLY
 14 .debug_frame  000002e4  00000000  00000000  00021d24  2**2
                  CONTENTS, READONLY, DEBUGGING

flash_program.elf:     file format elf32-littlearm


Disassembly of section .text:

10000100 <__reset_start>:
10000100:	4827      	ldr	r0, [pc, #156]	; (100001a0 <__get_current_exception+0xa>)
10000102:	e000      	b.n	10000106 <__vector_entry>

10000104 <_entry_point>:
10000104:	2000      	movs	r0, #0

10000106 <__vector_entry>:
10000106:	4927      	ldr	r1, [pc, #156]	; (100001a4 <__get_current_exception+0xe>)
10000108:	6088      	str	r0, [r1, #8]
1000010a:	c806      	ldmia	r0!, {r1, r2}
1000010c:	f381 8808 	msr	MSP, r1
10000110:	4710      	bx	r2

10000112 <_reset_handler>:
10000112:	4825      	ldr	r0, [pc, #148]	; (100001a8 <__get_current_exception+0x12>)
10000114:	6800      	ldr	r0, [r0, #0]
10000116:	2800      	cmp	r0, #0
10000118:	d139      	bne.n	1000018e <wait_for_vector>
1000011a:	a412      	add	r4, pc, #72	; (adr r4, 10000164 <data_cpy_table>)
1000011c:	cc0e      	ldmia	r4!, {r1, r2, r3}
1000011e:	2900      	cmp	r1, #0
10000120:	d002      	beq.n	10000128 <_reset_handler+0x16>
10000122:	f000 f812 	bl	1000014a <data_cpy>
10000126:	e7f9      	b.n	1000011c <_reset_handler+0xa>
10000128:	4920      	ldr	r1, [pc, #128]	; (100001ac <__get_current_exception+0x16>)
1000012a:	4a21      	ldr	r2, [pc, #132]	; (100001b0 <__get_current_exception+0x1a>)
1000012c:	2000      	movs	r0, #0
1000012e:	e000      	b.n	10000132 <bss_fill_test>

10000130 <bss_fill_loop>:
10000130:	c101      	stmia	r1!, {r0}

10000132 <bss_fill_test>:
10000132:	4291      	cmp	r1, r2
10000134:	d1fc      	bne.n	10000130 <bss_fill_loop>

10000136 <platform_entry>:
10000136:	491f      	ldr	r1, [pc, #124]	; (100001b4 <__get_current_exception+0x1e>)
10000138:	4788      	blx	r1
1000013a:	491f      	ldr	r1, [pc, #124]	; (100001b8 <__get_current_exception+0x22>)
1000013c:	4788      	blx	r1
1000013e:	491f      	ldr	r1, [pc, #124]	; (100001bc <__get_current_exception+0x26>)
10000140:	4788      	blx	r1
10000142:	be00      	bkpt	0x0000
10000144:	e7fd      	b.n	10000142 <platform_entry+0xc>

10000146 <data_cpy_loop>:
10000146:	c901      	ldmia	r1!, {r0}
10000148:	c201      	stmia	r2!, {r0}

1000014a <data_cpy>:
1000014a:	429a      	cmp	r2, r3
1000014c:	d3fb      	bcc.n	10000146 <data_cpy_loop>
1000014e:	4770      	bx	lr

10000150 <binary_info_header>:
10000150:	7188ebf2 	.word	0x7188ebf2
10000154:	10004f34 	.word	0x10004f34
10000158:	10004f58 	.word	0x10004f58
1000015c:	10000164 	.word	0x10000164
10000160:	e71aa390 	.word	0xe71aa390

10000164 <data_cpy_table>:
10000164:	10004f58 	.word	0x10004f58
10000168:	200000c0 	.word	0x200000c0
1000016c:	20000bac 	.word	0x20000bac
10000170:	10005a44 	.word	0x10005a44
10000174:	20040000 	.word	0x20040000
10000178:	20040000 	.word	0x20040000
1000017c:	10005a44 	.word	0x10005a44
10000180:	20041000 	.word	0x20041000
10000184:	20041000 	.word	0x20041000
10000188:	00000000 	.word	0x00000000
1000018c:	4770      	bx	lr

1000018e <wait_for_vector>:
1000018e:	480c      	ldr	r0, [pc, #48]	; (100001c0 <__get_current_exception+0x2a>)
10000190:	f002 fe8e 	bl	10002eb0 <rom_func_lookup>
10000194:	4700      	bx	r0

10000196 <__get_current_exception>:
10000196:	f3ef 8005 	mrs	r0, IPSR
1000019a:	b2c0      	uxtb	r0, r0
1000019c:	4770      	bx	lr
1000019e:	0000      	.short	0x0000
100001a0:	10000200 	.word	0x10000200
100001a4:	e000ed00 	.word	0xe000ed00
100001a8:	d0000000 	.word	0xd0000000
100001ac:	20000bac 	.word	0x20000bac
100001b0:	20000f9c 	.word	0x20000f9c
100001b4:	10001041 	.word	0x10001041
100001b8:	1000036d 	.word	0x1000036d
100001bc:	10001161 	.word	0x10001161
100001c0:	00005657 	.word	0x00005657

100001c4 <__bi_46>:
100001c4:	50520006 5360b3ab 10004ea0              ..RP..`S.N..

100001d0 <__bi_34>:
100001d0:	50520006 02031c86 10004eb0              ..RP.....N..

100001dc <__bi_26>:
100001dc:	50520006 9da22254 10004ec0              ..RPT"...N..

100001e8 <__bi_18>:
100001e8:	50520005 68f465de 10005a44 00000000     ..RP.e.hDZ......
	...

10000200 <__reset_end>:
10000200:	20042000 	.word	0x20042000
10000204:	10000113 	.word	0x10000113
10000208:	100002c3 	.word	0x100002c3
1000020c:	100002c5 	.word	0x100002c5
10000210:	100002c1 	.word	0x100002c1
10000214:	100002c1 	.word	0x100002c1
10000218:	100002c1 	.word	0x100002c1
1000021c:	100002c1 	.word	0x100002c1
10000220:	100002c1 	.word	0x100002c1
10000224:	100002c1 	.word	0x100002c1
10000228:	100002c1 	.word	0x100002c1
1000022c:	100002c7 	.word	0x100002c7
10000230:	100002c1 	.word	0x100002c1
10000234:	100002c1 	.word	0x100002c1
10000238:	100002c9 	.word	0x100002c9
1000023c:	100002cb 	.word	0x100002cb
10000240:	100002cd 	.word	0x100002cd
10000244:	100002cd 	.word	0x100002cd
10000248:	100002cd 	.word	0x100002cd
1000024c:	100002cd 	.word	0x100002cd
10000250:	100002cd 	.word	0x100002cd
10000254:	100002cd 	.word	0x100002cd
10000258:	100002cd 	.word	0x100002cd
1000025c:	100002cd 	.word	0x100002cd
10000260:	100002cd 	.word	0x100002cd
10000264:	100002cd 	.word	0x100002cd
10000268:	100002cd 	.word	0x100002cd
1000026c:	100002cd 	.word	0x100002cd
10000270:	100002cd 	.word	0x100002cd
10000274:	100002cd 	.word	0x100002cd
10000278:	100002cd 	.word	0x100002cd
1000027c:	100002cd 	.word	0x100002cd
10000280:	100002cd 	.word	0x100002cd
10000284:	100002cd 	.word	0x100002cd
10000288:	100002cd 	.word	0x100002cd
1000028c:	100002cd 	.word	0x100002cd
10000290:	100002cd 	.word	0x100002cd
10000294:	100002cd 	.word	0x100002cd
10000298:	100002cd 	.word	0x100002cd
1000029c:	100002cd 	.word	0x100002cd
100002a0:	100002cd 	.word	0x100002cd
100002a4:	100002cd 	.word	0x100002cd
100002a8:	100002cd 	.word	0x100002cd
100002ac:	100002cd 	.word	0x100002cd
100002b0:	100002cd 	.word	0x100002cd
100002b4:	100002cd 	.word	0x100002cd
100002b8:	100002cd 	.word	0x100002cd
100002bc:	100002cd 	.word	0x100002cd

100002c0 <isr_invalid>:
100002c0:	be00      	bkpt	0x0000

100002c2 <isr_nmi>:
100002c2:	be00      	bkpt	0x0000

100002c4 <isr_hardfault>:
100002c4:	be00      	bkpt	0x0000

100002c6 <isr_svcall>:
100002c6:	be00      	bkpt	0x0000

100002c8 <isr_pendsv>:
100002c8:	be00      	bkpt	0x0000

100002ca <isr_systick>:
100002ca:	be00      	bkpt	0x0000

100002cc <__unhandled_user_irq>:
100002cc:	f7ff ff63 	bl	10000196 <__get_current_exception>
100002d0:	3810      	subs	r0, #16

100002d2 <unhandled_user_irq_num_in_r0>:
100002d2:	be00      	bkpt	0x0000

100002d4 <_init>:
100002d4:	b5f8      	push	{r3, r4, r5, r6, r7, lr}
100002d6:	46c0      	nop			; (mov r8, r8)

100002d8 <__do_global_dtors_aux>:
100002d8:	b510      	push	{r4, lr}
100002da:	4c06      	ldr	r4, [pc, #24]	; (100002f4 <__do_global_dtors_aux+0x1c>)
100002dc:	7823      	ldrb	r3, [r4, #0]
100002de:	2b00      	cmp	r3, #0
100002e0:	d107      	bne.n	100002f2 <__do_global_dtors_aux+0x1a>
100002e2:	4b05      	ldr	r3, [pc, #20]	; (100002f8 <__do_global_dtors_aux+0x20>)
100002e4:	2b00      	cmp	r3, #0
100002e6:	d002      	beq.n	100002ee <__do_global_dtors_aux+0x16>
100002e8:	4804      	ldr	r0, [pc, #16]	; (100002fc <__do_global_dtors_aux+0x24>)
100002ea:	e000      	b.n	100002ee <__do_global_dtors_aux+0x16>
100002ec:	bf00      	nop
100002ee:	2301      	movs	r3, #1
100002f0:	7023      	strb	r3, [r4, #0]
100002f2:	bd10      	pop	{r4, pc}
100002f4:	20000bac 	.word	0x20000bac
100002f8:	00000000 	.word	0x00000000
100002fc:	10004b18 	.word	0x10004b18

10000300 <frame_dummy>:
10000300:	4b04      	ldr	r3, [pc, #16]	; (10000314 <frame_dummy+0x14>)
10000302:	b510      	push	{r4, lr}
10000304:	2b00      	cmp	r3, #0
10000306:	d003      	beq.n	10000310 <frame_dummy+0x10>
10000308:	4903      	ldr	r1, [pc, #12]	; (10000318 <frame_dummy+0x18>)
1000030a:	4804      	ldr	r0, [pc, #16]	; (1000031c <frame_dummy+0x1c>)
1000030c:	e000      	b.n	10000310 <frame_dummy+0x10>
1000030e:	bf00      	nop
10000310:	bd10      	pop	{r4, pc}
10000312:	46c0      	nop			; (mov r8, r8)
10000314:	00000000 	.word	0x00000000
10000318:	20000bb0 	.word	0x20000bb0
1000031c:	10004b18 	.word	0x10004b18

10000320 <print_buf>:
10000320:	b5f0      	push	{r4, r5, r6, r7, lr}
10000322:	46c6      	mov	lr, r8
10000324:	0006      	movs	r6, r0
10000326:	000d      	movs	r5, r1
10000328:	b500      	push	{lr}
1000032a:	2900      	cmp	r1, #0
1000032c:	d018      	beq.n	10000360 <print_buf+0x40>
1000032e:	4b0e      	ldr	r3, [pc, #56]	; (10000368 <print_buf+0x48>)
10000330:	2400      	movs	r4, #0
10000332:	4698      	mov	r8, r3
10000334:	270f      	movs	r7, #15
10000336:	e005      	b.n	10000344 <print_buf+0x24>
10000338:	2020      	movs	r0, #32
1000033a:	3401      	adds	r4, #1
1000033c:	f003 fde8 	bl	10003f10 <__wrap_putchar>
10000340:	42a5      	cmp	r5, r4
10000342:	d00d      	beq.n	10000360 <print_buf+0x40>
10000344:	4640      	mov	r0, r8
10000346:	5d31      	ldrb	r1, [r6, r4]
10000348:	f003 fea0 	bl	1000408c <__wrap_printf>
1000034c:	003b      	movs	r3, r7
1000034e:	4023      	ands	r3, r4
10000350:	2b0f      	cmp	r3, #15
10000352:	d1f1      	bne.n	10000338 <print_buf+0x18>
10000354:	200a      	movs	r0, #10
10000356:	3401      	adds	r4, #1
10000358:	f003 fdda 	bl	10003f10 <__wrap_putchar>
1000035c:	42a5      	cmp	r5, r4
1000035e:	d1f1      	bne.n	10000344 <print_buf+0x24>
10000360:	bc04      	pop	{r2}
10000362:	4690      	mov	r8, r2
10000364:	bdf0      	pop	{r4, r5, r6, r7, pc}
10000366:	46c0      	nop			; (mov r8, r8)
10000368:	10004b18 	.word	0x10004b18

1000036c <main>:
1000036c:	b570      	push	{r4, r5, r6, lr}
1000036e:	b0c0      	sub	sp, #256	; 0x100
10000370:	f003 fe98 	bl	100040a4 <stdio_init_all>
10000374:	466c      	mov	r4, sp
10000376:	ad40      	add	r5, sp, #256	; 0x100
10000378:	f004 fa06 	bl	10004788 <rand>
1000037c:	1400      	asrs	r0, r0, #16
1000037e:	7020      	strb	r0, [r4, #0]
10000380:	3401      	adds	r4, #1
10000382:	42ac      	cmp	r4, r5
10000384:	d1f8      	bne.n	10000378 <main+0xc>
10000386:	4824      	ldr	r0, [pc, #144]	; (10000418 <main+0xac>)
10000388:	f003 fdd0 	bl	10003f2c <__wrap_puts>
1000038c:	2180      	movs	r1, #128	; 0x80
1000038e:	4668      	mov	r0, sp
10000390:	0049      	lsls	r1, r1, #1
10000392:	f7ff ffc5 	bl	10000320 <print_buf>
10000396:	4821      	ldr	r0, [pc, #132]	; (1000041c <main+0xb0>)
10000398:	f003 fdc8 	bl	10003f2c <__wrap_puts>
1000039c:	2180      	movs	r1, #128	; 0x80
1000039e:	2080      	movs	r0, #128	; 0x80
100003a0:	0149      	lsls	r1, r1, #5
100003a2:	02c0      	lsls	r0, r0, #11
100003a4:	f004 fba8 	bl	10004af8 <__flash_range_erase_veneer>
100003a8:	4d1d      	ldr	r5, [pc, #116]	; (10000420 <main+0xb4>)
100003aa:	2600      	movs	r6, #0
100003ac:	0028      	movs	r0, r5
100003ae:	f003 fdbd 	bl	10003f2c <__wrap_puts>
100003b2:	2180      	movs	r1, #128	; 0x80
100003b4:	4c1b      	ldr	r4, [pc, #108]	; (10000424 <main+0xb8>)
100003b6:	0049      	lsls	r1, r1, #1
100003b8:	6820      	ldr	r0, [r4, #0]
100003ba:	f7ff ffb1 	bl	10000320 <print_buf>
100003be:	481a      	ldr	r0, [pc, #104]	; (10000428 <main+0xbc>)
100003c0:	f003 fdb4 	bl	10003f2c <__wrap_puts>
100003c4:	2280      	movs	r2, #128	; 0x80
100003c6:	2080      	movs	r0, #128	; 0x80
100003c8:	0052      	lsls	r2, r2, #1
100003ca:	4669      	mov	r1, sp
100003cc:	02c0      	lsls	r0, r0, #11
100003ce:	f004 fb7b 	bl	10004ac8 <__flash_range_program_veneer>
100003d2:	0028      	movs	r0, r5
100003d4:	f003 fdaa 	bl	10003f2c <__wrap_puts>
100003d8:	2180      	movs	r1, #128	; 0x80
100003da:	6820      	ldr	r0, [r4, #0]
100003dc:	0049      	lsls	r1, r1, #1
100003de:	f7ff ff9f 	bl	10000320 <print_buf>
100003e2:	6820      	ldr	r0, [r4, #0]
100003e4:	466a      	mov	r2, sp
100003e6:	2402      	movs	r4, #2
100003e8:	2301      	movs	r3, #1
100003ea:	1e55      	subs	r5, r2, #1
100003ec:	3801      	subs	r0, #1
100003ee:	34ff      	adds	r4, #255	; 0xff
100003f0:	5ce9      	ldrb	r1, [r5, r3]
100003f2:	5cc2      	ldrb	r2, [r0, r3]
100003f4:	4291      	cmp	r1, r2
100003f6:	d000      	beq.n	100003fa <main+0x8e>
100003f8:	2601      	movs	r6, #1
100003fa:	3301      	adds	r3, #1
100003fc:	42a3      	cmp	r3, r4
100003fe:	d1f7      	bne.n	100003f0 <main+0x84>
10000400:	2e00      	cmp	r6, #0
10000402:	d005      	beq.n	10000410 <main+0xa4>
10000404:	4809      	ldr	r0, [pc, #36]	; (1000042c <main+0xc0>)
10000406:	f003 fd91 	bl	10003f2c <__wrap_puts>
1000040a:	2000      	movs	r0, #0
1000040c:	b040      	add	sp, #256	; 0x100
1000040e:	bd70      	pop	{r4, r5, r6, pc}
10000410:	4807      	ldr	r0, [pc, #28]	; (10000430 <main+0xc4>)
10000412:	f003 fd8b 	bl	10003f2c <__wrap_puts>
10000416:	e7f8      	b.n	1000040a <main+0x9e>
10000418:	10004b20 	.word	0x10004b20
1000041c:	10004b38 	.word	0x10004b38
10000420:	10004b54 	.word	0x10004b54
10000424:	200002c8 	.word	0x200002c8
10000428:	10004b74 	.word	0x10004b74
1000042c:	10004b94 	.word	0x10004b94
10000430:	10004ba8 	.word	0x10004ba8

10000434 <gpio_set_function>:
10000434:	4a09      	ldr	r2, [pc, #36]	; (1000045c <gpio_set_function+0x28>)
10000436:	0083      	lsls	r3, r0, #2
10000438:	4694      	mov	ip, r2
1000043a:	2240      	movs	r2, #64	; 0x40
1000043c:	4463      	add	r3, ip
1000043e:	b510      	push	{r4, lr}
10000440:	681c      	ldr	r4, [r3, #0]
10000442:	00c0      	lsls	r0, r0, #3
10000444:	4062      	eors	r2, r4
10000446:	24c0      	movs	r4, #192	; 0xc0
10000448:	4014      	ands	r4, r2
1000044a:	2280      	movs	r2, #128	; 0x80
1000044c:	0152      	lsls	r2, r2, #5
1000044e:	4313      	orrs	r3, r2
10000450:	601c      	str	r4, [r3, #0]
10000452:	4b03      	ldr	r3, [pc, #12]	; (10000460 <gpio_set_function+0x2c>)
10000454:	469c      	mov	ip, r3
10000456:	4460      	add	r0, ip
10000458:	6041      	str	r1, [r0, #4]
1000045a:	bd10      	pop	{r4, pc}
1000045c:	4001c004 	.word	0x4001c004
10000460:	40014000 	.word	0x40014000

10000464 <hw_claim_or_assert>:
10000464:	b5f8      	push	{r3, r4, r5, r6, r7, lr}
10000466:	46ce      	mov	lr, r9
10000468:	4647      	mov	r7, r8
1000046a:	4691      	mov	r9, r2
1000046c:	b580      	push	{r7, lr}
1000046e:	f3ef 8710 	mrs	r7, PRIMASK
10000472:	b672      	cpsid	i
10000474:	4e12      	ldr	r6, [pc, #72]	; (100004c0 <hw_claim_or_assert+0x5c>)
10000476:	6833      	ldr	r3, [r6, #0]
10000478:	2b00      	cmp	r3, #0
1000047a:	d0fc      	beq.n	10000476 <hw_claim_or_assert+0x12>
1000047c:	f3bf 8f5f 	dmb	sy
10000480:	08cb      	lsrs	r3, r1, #3
10000482:	5cc5      	ldrb	r5, [r0, r3]
10000484:	2407      	movs	r4, #7
10000486:	18c2      	adds	r2, r0, r3
10000488:	0028      	movs	r0, r5
1000048a:	2301      	movs	r3, #1
1000048c:	400c      	ands	r4, r1
1000048e:	4694      	mov	ip, r2
10000490:	40e0      	lsrs	r0, r4
10000492:	001a      	movs	r2, r3
10000494:	4002      	ands	r2, r0
10000496:	4690      	mov	r8, r2
10000498:	4203      	tst	r3, r0
1000049a:	d10d      	bne.n	100004b8 <hw_claim_or_assert+0x54>
1000049c:	40a3      	lsls	r3, r4
1000049e:	4662      	mov	r2, ip
100004a0:	432b      	orrs	r3, r5
100004a2:	7013      	strb	r3, [r2, #0]
100004a4:	f3bf 8f5f 	dmb	sy
100004a8:	4643      	mov	r3, r8
100004aa:	6033      	str	r3, [r6, #0]
100004ac:	f387 8810 	msr	PRIMASK, r7
100004b0:	bc0c      	pop	{r2, r3}
100004b2:	4690      	mov	r8, r2
100004b4:	4699      	mov	r9, r3
100004b6:	bdf8      	pop	{r3, r4, r5, r6, r7, pc}
100004b8:	4648      	mov	r0, r9
100004ba:	f000 fe53 	bl	10001164 <panic>
100004be:	46c0      	nop			; (mov r8, r8)
100004c0:	d000012c 	.word	0xd000012c

100004c4 <spin_locks_reset>:
100004c4:	2100      	movs	r1, #0
100004c6:	4b04      	ldr	r3, [pc, #16]	; (100004d8 <spin_locks_reset+0x14>)
100004c8:	4a04      	ldr	r2, [pc, #16]	; (100004dc <spin_locks_reset+0x18>)
100004ca:	f3bf 8f5f 	dmb	sy
100004ce:	c302      	stmia	r3!, {r1}
100004d0:	4293      	cmp	r3, r2
100004d2:	d1fa      	bne.n	100004ca <spin_locks_reset+0x6>
100004d4:	4770      	bx	lr
100004d6:	46c0      	nop			; (mov r8, r8)
100004d8:	d0000100 	.word	0xd0000100
100004dc:	d0000180 	.word	0xd0000180

100004e0 <next_striped_spin_lock_num>:
100004e0:	4a04      	ldr	r2, [pc, #16]	; (100004f4 <next_striped_spin_lock_num+0x14>)
100004e2:	7810      	ldrb	r0, [r2, #0]
100004e4:	1c43      	adds	r3, r0, #1
100004e6:	b2db      	uxtb	r3, r3
100004e8:	2b17      	cmp	r3, #23
100004ea:	d900      	bls.n	100004ee <next_striped_spin_lock_num+0xe>
100004ec:	2310      	movs	r3, #16
100004ee:	7013      	strb	r3, [r2, #0]
100004f0:	4770      	bx	lr
100004f2:	46c0      	nop			; (mov r8, r8)
100004f4:	200002cc 	.word	0x200002cc

100004f8 <running_on_fpga>:
100004f8:	4b02      	ldr	r3, [pc, #8]	; (10000504 <running_on_fpga+0xc>)
100004fa:	6818      	ldr	r0, [r3, #0]
100004fc:	0780      	lsls	r0, r0, #30
100004fe:	0fc0      	lsrs	r0, r0, #31
10000500:	4770      	bx	lr
10000502:	46c0      	nop			; (mov r8, r8)
10000504:	4006c000 	.word	0x4006c000

10000508 <uart_init>:
10000508:	b5f0      	push	{r4, r5, r6, r7, lr}
1000050a:	46c6      	mov	lr, r8
1000050c:	0005      	movs	r5, r0
1000050e:	b500      	push	{lr}
10000510:	2006      	movs	r0, #6
10000512:	000e      	movs	r6, r1
10000514:	f000 ffb4 	bl	10001480 <clock_get_hz>
10000518:	2800      	cmp	r0, #0
1000051a:	d04d      	beq.n	100005b8 <uart_init+0xb0>
1000051c:	4b29      	ldr	r3, [pc, #164]	; (100005c4 <uart_init+0xbc>)
1000051e:	492a      	ldr	r1, [pc, #168]	; (100005c8 <uart_init+0xc0>)
10000520:	18eb      	adds	r3, r5, r3
10000522:	425a      	negs	r2, r3
10000524:	4153      	adcs	r3, r2
10000526:	2280      	movs	r2, #128	; 0x80
10000528:	03d2      	lsls	r2, r2, #15
1000052a:	4694      	mov	ip, r2
1000052c:	425b      	negs	r3, r3
1000052e:	4013      	ands	r3, r2
10000530:	4a26      	ldr	r2, [pc, #152]	; (100005cc <uart_init+0xc4>)
10000532:	4463      	add	r3, ip
10000534:	6013      	str	r3, [r2, #0]
10000536:	4a26      	ldr	r2, [pc, #152]	; (100005d0 <uart_init+0xc8>)
10000538:	6013      	str	r3, [r2, #0]
1000053a:	001c      	movs	r4, r3
1000053c:	688a      	ldr	r2, [r1, #8]
1000053e:	4394      	bics	r4, r2
10000540:	d1fb      	bne.n	1000053a <uart_init+0x32>
10000542:	4b20      	ldr	r3, [pc, #128]	; (100005c4 <uart_init+0xbc>)
10000544:	2180      	movs	r1, #128	; 0x80
10000546:	18eb      	adds	r3, r5, r3
10000548:	425a      	negs	r2, r3
1000054a:	4153      	adcs	r3, r2
1000054c:	4a21      	ldr	r2, [pc, #132]	; (100005d4 <uart_init+0xcc>)
1000054e:	005b      	lsls	r3, r3, #1
10000550:	0049      	lsls	r1, r1, #1
10000552:	2006      	movs	r0, #6
10000554:	5299      	strh	r1, [r3, r2]
10000556:	f000 ff93 	bl	10001480 <clock_get_hz>
1000055a:	0031      	movs	r1, r6
1000055c:	00c0      	lsls	r0, r0, #3
1000055e:	f002 fd01 	bl	10002f64 <__wrap___aeabi_uidiv>
10000562:	267f      	movs	r6, #127	; 0x7f
10000564:	4b1c      	ldr	r3, [pc, #112]	; (100005d8 <uart_init+0xd0>)
10000566:	4006      	ands	r6, r0
10000568:	09c7      	lsrs	r7, r0, #7
1000056a:	3601      	adds	r6, #1
1000056c:	0876      	lsrs	r6, r6, #1
1000056e:	626f      	str	r7, [r5, #36]	; 0x24
10000570:	429f      	cmp	r7, r3
10000572:	d024      	beq.n	100005be <uart_init+0xb6>
10000574:	62ae      	str	r6, [r5, #40]	; 0x28
10000576:	232c      	movs	r3, #44	; 0x2c
10000578:	4698      	mov	r8, r3
1000057a:	2480      	movs	r4, #128	; 0x80
1000057c:	44a8      	add	r8, r5
1000057e:	4643      	mov	r3, r8
10000580:	01a4      	lsls	r4, r4, #6
10000582:	431c      	orrs	r4, r3
10000584:	2300      	movs	r3, #0
10000586:	2006      	movs	r0, #6
10000588:	6023      	str	r3, [r4, #0]
1000058a:	f000 ff79 	bl	10001480 <clock_get_hz>
1000058e:	01b9      	lsls	r1, r7, #6
10000590:	1989      	adds	r1, r1, r6
10000592:	0080      	lsls	r0, r0, #2
10000594:	f002 fce6 	bl	10002f64 <__wrap___aeabi_uidiv>
10000598:	2360      	movs	r3, #96	; 0x60
1000059a:	6aea      	ldr	r2, [r5, #44]	; 0x2c
1000059c:	4641      	mov	r1, r8
1000059e:	4053      	eors	r3, r2
100005a0:	226e      	movs	r2, #110	; 0x6e
100005a2:	401a      	ands	r2, r3
100005a4:	2380      	movs	r3, #128	; 0x80
100005a6:	015b      	lsls	r3, r3, #5
100005a8:	430b      	orrs	r3, r1
100005aa:	601a      	str	r2, [r3, #0]
100005ac:	4b0b      	ldr	r3, [pc, #44]	; (100005dc <uart_init+0xd4>)
100005ae:	632b      	str	r3, [r5, #48]	; 0x30
100005b0:	2310      	movs	r3, #16
100005b2:	6023      	str	r3, [r4, #0]
100005b4:	3b0d      	subs	r3, #13
100005b6:	64ab      	str	r3, [r5, #72]	; 0x48
100005b8:	bc04      	pop	{r2}
100005ba:	4690      	mov	r8, r2
100005bc:	bdf0      	pop	{r4, r5, r6, r7, pc}
100005be:	62ac      	str	r4, [r5, #40]	; 0x28
100005c0:	e7d9      	b.n	10000576 <uart_init+0x6e>
100005c2:	46c0      	nop			; (mov r8, r8)
100005c4:	bffc8000 	.word	0xbffc8000
100005c8:	4000c000 	.word	0x4000c000
100005cc:	4000e000 	.word	0x4000e000
100005d0:	4000f000 	.word	0x4000f000
100005d4:	20000d6c 	.word	0x20000d6c
100005d8:	0000ffff 	.word	0x0000ffff
100005dc:	00000301 	.word	0x00000301

100005e0 <timer_pool_entry_comparator>:
100005e0:	6883      	ldr	r3, [r0, #8]
100005e2:	480b      	ldr	r0, [pc, #44]	; (10000610 <timer_pool_entry_comparator+0x30>)
100005e4:	b510      	push	{r4, lr}
100005e6:	4684      	mov	ip, r0
100005e8:	4461      	add	r1, ip
100005ea:	4462      	add	r2, ip
100005ec:	0109      	lsls	r1, r1, #4
100005ee:	0112      	lsls	r2, r2, #4
100005f0:	189a      	adds	r2, r3, r2
100005f2:	1859      	adds	r1, r3, r1
100005f4:	6854      	ldr	r4, [r2, #4]
100005f6:	684b      	ldr	r3, [r1, #4]
100005f8:	2001      	movs	r0, #1
100005fa:	429c      	cmp	r4, r3
100005fc:	d801      	bhi.n	10000602 <timer_pool_entry_comparator+0x22>
100005fe:	d002      	beq.n	10000606 <timer_pool_entry_comparator+0x26>
10000600:	2000      	movs	r0, #0
10000602:	b2c0      	uxtb	r0, r0
10000604:	bd10      	pop	{r4, pc}
10000606:	6812      	ldr	r2, [r2, #0]
10000608:	680b      	ldr	r3, [r1, #0]
1000060a:	429a      	cmp	r2, r3
1000060c:	d8f9      	bhi.n	10000602 <timer_pool_entry_comparator+0x22>
1000060e:	e7f7      	b.n	10000600 <timer_pool_entry_comparator+0x20>
10000610:	0fffffff 	.word	0x0fffffff

10000614 <add_alarm_under_lock>:
10000614:	b5f0      	push	{r4, r5, r6, r7, lr}
10000616:	4657      	mov	r7, sl
10000618:	4645      	mov	r5, r8
1000061a:	46de      	mov	lr, fp
1000061c:	464e      	mov	r6, r9
1000061e:	b5e0      	push	{r5, r6, r7, lr}
10000620:	b083      	sub	sp, #12
10000622:	001f      	movs	r7, r3
10000624:	ab0f      	add	r3, sp, #60	; 0x3c
10000626:	781b      	ldrb	r3, [r3, #0]
10000628:	9c0e      	ldr	r4, [sp, #56]	; 0x38
1000062a:	0005      	movs	r5, r0
1000062c:	4692      	mov	sl, r2
1000062e:	9301      	str	r3, [sp, #4]
10000630:	2c00      	cmp	r4, #0
10000632:	d10d      	bne.n	10000650 <add_alarm_under_lock+0x3c>
10000634:	6802      	ldr	r2, [r0, #0]
10000636:	7b94      	ldrb	r4, [r2, #14]
10000638:	2c00      	cmp	r4, #0
1000063a:	d056      	beq.n	100006ea <add_alarm_under_lock+0xd6>
1000063c:	6811      	ldr	r1, [r2, #0]
1000063e:	0063      	lsls	r3, r4, #1
10000640:	468c      	mov	ip, r1
10000642:	191b      	adds	r3, r3, r4
10000644:	4463      	add	r3, ip
10000646:	3b03      	subs	r3, #3
10000648:	785b      	ldrb	r3, [r3, #1]
1000064a:	7393      	strb	r3, [r2, #14]
1000064c:	2b00      	cmp	r3, #0
1000064e:	d054      	beq.n	100006fa <add_alarm_under_lock+0xe6>
10000650:	68aa      	ldr	r2, [r5, #8]
10000652:	b2e3      	uxtb	r3, r4
10000654:	4694      	mov	ip, r2
10000656:	4652      	mov	r2, sl
10000658:	469b      	mov	fp, r3
1000065a:	4b38      	ldr	r3, [pc, #224]	; (1000073c <add_alarm_under_lock+0x128>)
1000065c:	682e      	ldr	r6, [r5, #0]
1000065e:	18e3      	adds	r3, r4, r3
10000660:	011b      	lsls	r3, r3, #4
10000662:	4463      	add	r3, ip
10000664:	601a      	str	r2, [r3, #0]
10000666:	9a0c      	ldr	r2, [sp, #48]	; 0x30
10000668:	605f      	str	r7, [r3, #4]
1000066a:	609a      	str	r2, [r3, #8]
1000066c:	9a0d      	ldr	r2, [sp, #52]	; 0x34
1000066e:	60da      	str	r2, [r3, #12]
10000670:	23d0      	movs	r3, #208	; 0xd0
10000672:	2280      	movs	r2, #128	; 0x80
10000674:	061b      	lsls	r3, r3, #24
10000676:	0312      	lsls	r2, r2, #12
10000678:	615a      	str	r2, [r3, #20]
1000067a:	0063      	lsls	r3, r4, #1
1000067c:	191b      	adds	r3, r3, r4
1000067e:	3b03      	subs	r3, #3
10000680:	4698      	mov	r8, r3
10000682:	2200      	movs	r2, #0
10000684:	6833      	ldr	r3, [r6, #0]
10000686:	4443      	add	r3, r8
10000688:	709a      	strb	r2, [r3, #2]
1000068a:	705a      	strb	r2, [r3, #1]
1000068c:	701a      	strb	r2, [r3, #0]
1000068e:	7b73      	ldrb	r3, [r6, #13]
10000690:	4699      	mov	r9, r3
10000692:	2b00      	cmp	r3, #0
10000694:	d017      	beq.n	100006c6 <add_alarm_under_lock+0xb2>
10000696:	465a      	mov	r2, fp
10000698:	0019      	movs	r1, r3
1000069a:	68b0      	ldr	r0, [r6, #8]
1000069c:	6873      	ldr	r3, [r6, #4]
1000069e:	4798      	blx	r3
100006a0:	6832      	ldr	r2, [r6, #0]
100006a2:	2800      	cmp	r0, #0
100006a4:	d12b      	bne.n	100006fe <add_alarm_under_lock+0xea>
100006a6:	4643      	mov	r3, r8
100006a8:	18d1      	adds	r1, r2, r3
100006aa:	464b      	mov	r3, r9
100006ac:	4658      	mov	r0, fp
100006ae:	005b      	lsls	r3, r3, #1
100006b0:	444b      	add	r3, r9
100006b2:	3b03      	subs	r3, #3
100006b4:	18d3      	adds	r3, r2, r3
100006b6:	7098      	strb	r0, [r3, #2]
100006b8:	4640      	mov	r0, r8
100006ba:	5c12      	ldrb	r2, [r2, r0]
100006bc:	2a00      	cmp	r2, #0
100006be:	d000      	beq.n	100006c2 <add_alarm_under_lock+0xae>
100006c0:	705a      	strb	r2, [r3, #1]
100006c2:	464b      	mov	r3, r9
100006c4:	700b      	strb	r3, [r1, #0]
100006c6:	465b      	mov	r3, fp
100006c8:	7373      	strb	r3, [r6, #13]
100006ca:	4652      	mov	r2, sl
100006cc:	003b      	movs	r3, r7
100006ce:	7d28      	ldrb	r0, [r5, #20]
100006d0:	f000 fa1a 	bl	10000b08 <hardware_alarm_set_target>
100006d4:	1e06      	subs	r6, r0, #0
100006d6:	d002      	beq.n	100006de <add_alarm_under_lock+0xca>
100006d8:	9b01      	ldr	r3, [sp, #4]
100006da:	2b00      	cmp	r3, #0
100006dc:	d026      	beq.n	1000072c <add_alarm_under_lock+0x118>
100006de:	9b10      	ldr	r3, [sp, #64]	; 0x40
100006e0:	2b00      	cmp	r3, #0
100006e2:	d028      	beq.n	10000736 <add_alarm_under_lock+0x122>
100006e4:	0020      	movs	r0, r4
100006e6:	701e      	strb	r6, [r3, #0]
100006e8:	e000      	b.n	100006ec <add_alarm_under_lock+0xd8>
100006ea:	2000      	movs	r0, #0
100006ec:	b003      	add	sp, #12
100006ee:	bc3c      	pop	{r2, r3, r4, r5}
100006f0:	4690      	mov	r8, r2
100006f2:	4699      	mov	r9, r3
100006f4:	46a2      	mov	sl, r4
100006f6:	46ab      	mov	fp, r5
100006f8:	bdf0      	pop	{r4, r5, r6, r7, pc}
100006fa:	73d3      	strb	r3, [r2, #15]
100006fc:	e7a8      	b.n	10000650 <add_alarm_under_lock+0x3c>
100006fe:	464b      	mov	r3, r9
10000700:	005b      	lsls	r3, r3, #1
10000702:	444b      	add	r3, r9
10000704:	3b03      	subs	r3, #3
10000706:	18d1      	adds	r1, r2, r3
10000708:	468c      	mov	ip, r1
1000070a:	4641      	mov	r1, r8
1000070c:	4648      	mov	r0, r9
1000070e:	1851      	adds	r1, r2, r1
10000710:	7088      	strb	r0, [r1, #2]
10000712:	5cd3      	ldrb	r3, [r2, r3]
10000714:	2b00      	cmp	r3, #0
10000716:	d000      	beq.n	1000071a <add_alarm_under_lock+0x106>
10000718:	704b      	strb	r3, [r1, #1]
1000071a:	465b      	mov	r3, fp
1000071c:	4662      	mov	r2, ip
1000071e:	7013      	strb	r3, [r2, #0]
10000720:	464b      	mov	r3, r9
10000722:	0020      	movs	r0, r4
10000724:	7373      	strb	r3, [r6, #13]
10000726:	45a1      	cmp	r9, r4
10000728:	d1e0      	bne.n	100006ec <add_alarm_under_lock+0xd8>
1000072a:	e7ce      	b.n	100006ca <add_alarm_under_lock+0xb6>
1000072c:	4659      	mov	r1, fp
1000072e:	6828      	ldr	r0, [r5, #0]
10000730:	f000 fc48 	bl	10000fc4 <ph_delete>
10000734:	e7d3      	b.n	100006de <add_alarm_under_lock+0xca>
10000736:	0020      	movs	r0, r4
10000738:	e7d8      	b.n	100006ec <add_alarm_under_lock+0xd8>
1000073a:	46c0      	nop			; (mov r8, r8)
1000073c:	0fffffff 	.word	0x0fffffff

10000740 <alarm_pool_alarm_callback>:
10000740:	b5f0      	push	{r4, r5, r6, r7, lr}
10000742:	46de      	mov	lr, fp
10000744:	464e      	mov	r6, r9
10000746:	4657      	mov	r7, sl
10000748:	4645      	mov	r5, r8
1000074a:	2300      	movs	r3, #0
1000074c:	b5e0      	push	{r5, r6, r7, lr}
1000074e:	b08d      	sub	sp, #52	; 0x34
10000750:	930a      	str	r3, [sp, #40]	; 0x28
10000752:	4b71      	ldr	r3, [pc, #452]	; (10000918 <alarm_pool_alarm_callback+0x1d8>)
10000754:	0082      	lsls	r2, r0, #2
10000756:	58d3      	ldr	r3, [r2, r3]
10000758:	900b      	str	r0, [sp, #44]	; 0x2c
1000075a:	4699      	mov	r9, r3
1000075c:	2300      	movs	r3, #0
1000075e:	469b      	mov	fp, r3
10000760:	464b      	mov	r3, r9
10000762:	9307      	str	r3, [sp, #28]
10000764:	f000 f980 	bl	10000a68 <time_us_64>
10000768:	9c07      	ldr	r4, [sp, #28]
1000076a:	0006      	movs	r6, r0
1000076c:	000f      	movs	r7, r1
1000076e:	6862      	ldr	r2, [r4, #4]
10000770:	f3ef 8510 	mrs	r5, PRIMASK
10000774:	b672      	cpsid	i
10000776:	6813      	ldr	r3, [r2, #0]
10000778:	2b00      	cmp	r3, #0
1000077a:	d0fc      	beq.n	10000776 <alarm_pool_alarm_callback+0x36>
1000077c:	0022      	movs	r2, r4
1000077e:	9407      	str	r4, [sp, #28]
10000780:	f3bf 8f5f 	dmb	sy
10000784:	6824      	ldr	r4, [r4, #0]
10000786:	7b63      	ldrb	r3, [r4, #13]
10000788:	4699      	mov	r9, r3
1000078a:	2b00      	cmp	r3, #0
1000078c:	d100      	bne.n	10000790 <alarm_pool_alarm_callback+0x50>
1000078e:	e070      	b.n	10000872 <alarm_pool_alarm_callback+0x132>
10000790:	6892      	ldr	r2, [r2, #8]
10000792:	4b62      	ldr	r3, [pc, #392]	; (1000091c <alarm_pool_alarm_callback+0x1dc>)
10000794:	4690      	mov	r8, r2
10000796:	444b      	add	r3, r9
10000798:	011b      	lsls	r3, r3, #4
1000079a:	4498      	add	r8, r3
1000079c:	4643      	mov	r3, r8
1000079e:	681a      	ldr	r2, [r3, #0]
100007a0:	685b      	ldr	r3, [r3, #4]
100007a2:	0010      	movs	r0, r2
100007a4:	0019      	movs	r1, r3
100007a6:	1b80      	subs	r0, r0, r6
100007a8:	41b9      	sbcs	r1, r7
100007aa:	2900      	cmp	r1, #0
100007ac:	dd68      	ble.n	10000880 <alarm_pool_alarm_callback+0x140>
100007ae:	980b      	ldr	r0, [sp, #44]	; 0x2c
100007b0:	f000 f9aa 	bl	10000b08 <hardware_alarm_set_target>
100007b4:	2300      	movs	r3, #0
100007b6:	2600      	movs	r6, #0
100007b8:	4698      	mov	r8, r3
100007ba:	2700      	movs	r7, #0
100007bc:	469a      	mov	sl, r3
100007be:	9c07      	ldr	r4, [sp, #28]
100007c0:	6863      	ldr	r3, [r4, #4]
100007c2:	f3bf 8f5f 	dmb	sy
100007c6:	465a      	mov	r2, fp
100007c8:	601a      	str	r2, [r3, #0]
100007ca:	f385 8810 	msr	PRIMASK, r5
100007ce:	4653      	mov	r3, sl
100007d0:	2b00      	cmp	r3, #0
100007d2:	d108      	bne.n	100007e6 <alarm_pool_alarm_callback+0xa6>
100007d4:	2800      	cmp	r0, #0
100007d6:	d1c5      	bne.n	10000764 <alarm_pool_alarm_callback+0x24>
100007d8:	b00d      	add	sp, #52	; 0x34
100007da:	bc3c      	pop	{r2, r3, r4, r5}
100007dc:	4690      	mov	r8, r2
100007de:	4699      	mov	r9, r3
100007e0:	46a2      	mov	sl, r4
100007e2:	46ab      	mov	fp, r5
100007e4:	bdf0      	pop	{r4, r5, r6, r7, pc}
100007e6:	23d0      	movs	r3, #208	; 0xd0
100007e8:	2280      	movs	r2, #128	; 0x80
100007ea:	2180      	movs	r1, #128	; 0x80
100007ec:	061b      	lsls	r3, r3, #24
100007ee:	0392      	lsls	r2, r2, #14
100007f0:	0309      	lsls	r1, r1, #12
100007f2:	615a      	str	r2, [r3, #20]
100007f4:	6199      	str	r1, [r3, #24]
100007f6:	619a      	str	r2, [r3, #24]
100007f8:	9b0a      	ldr	r3, [sp, #40]	; 0x28
100007fa:	4641      	mov	r1, r8
100007fc:	0218      	lsls	r0, r3, #8
100007fe:	464b      	mov	r3, r9
10000800:	4318      	orrs	r0, r3
10000802:	47d0      	blx	sl
10000804:	9008      	str	r0, [sp, #32]
10000806:	9109      	str	r1, [sp, #36]	; 0x24
10000808:	6862      	ldr	r2, [r4, #4]
1000080a:	f3ef 8510 	mrs	r5, PRIMASK
1000080e:	b672      	cpsid	i
10000810:	6813      	ldr	r3, [r2, #0]
10000812:	2b00      	cmp	r3, #0
10000814:	d0fc      	beq.n	10000810 <alarm_pool_alarm_callback+0xd0>
10000816:	9407      	str	r4, [sp, #28]
10000818:	f3bf 8f5f 	dmb	sy
1000081c:	9908      	ldr	r1, [sp, #32]
1000081e:	9a09      	ldr	r2, [sp, #36]	; 0x24
10000820:	2a00      	cmp	r2, #0
10000822:	db49      	blt.n	100008b8 <alarm_pool_alarm_callback+0x178>
10000824:	4311      	orrs	r1, r2
10000826:	d003      	beq.n	10000830 <alarm_pool_alarm_callback+0xf0>
10000828:	9b07      	ldr	r3, [sp, #28]
1000082a:	691b      	ldr	r3, [r3, #16]
1000082c:	2b00      	cmp	r3, #0
1000082e:	d15e      	bne.n	100008ee <alarm_pool_alarm_callback+0x1ae>
10000830:	9b07      	ldr	r3, [sp, #28]
10000832:	681b      	ldr	r3, [r3, #0]
10000834:	7bda      	ldrb	r2, [r3, #15]
10000836:	2a00      	cmp	r2, #0
10000838:	d007      	beq.n	1000084a <alarm_pool_alarm_callback+0x10a>
1000083a:	0051      	lsls	r1, r2, #1
1000083c:	188a      	adds	r2, r1, r2
1000083e:	6819      	ldr	r1, [r3, #0]
10000840:	468c      	mov	ip, r1
10000842:	4649      	mov	r1, r9
10000844:	4462      	add	r2, ip
10000846:	3a03      	subs	r2, #3
10000848:	7051      	strb	r1, [r2, #1]
1000084a:	464a      	mov	r2, r9
1000084c:	73da      	strb	r2, [r3, #15]
1000084e:	464b      	mov	r3, r9
10000850:	9a07      	ldr	r2, [sp, #28]
10000852:	3b01      	subs	r3, #1
10000854:	68d1      	ldr	r1, [r2, #12]
10000856:	5cca      	ldrb	r2, [r1, r3]
10000858:	3201      	adds	r2, #1
1000085a:	54ca      	strb	r2, [r1, r3]
1000085c:	465b      	mov	r3, fp
1000085e:	9a07      	ldr	r2, [sp, #28]
10000860:	6113      	str	r3, [r2, #16]
10000862:	6853      	ldr	r3, [r2, #4]
10000864:	f3bf 8f5f 	dmb	sy
10000868:	465a      	mov	r2, fp
1000086a:	601a      	str	r2, [r3, #0]
1000086c:	f385 8810 	msr	PRIMASK, r5
10000870:	e778      	b.n	10000764 <alarm_pool_alarm_callback+0x24>
10000872:	2300      	movs	r3, #0
10000874:	2600      	movs	r6, #0
10000876:	4698      	mov	r8, r3
10000878:	2700      	movs	r7, #0
1000087a:	469a      	mov	sl, r3
1000087c:	2000      	movs	r0, #0
1000087e:	e79e      	b.n	100007be <alarm_pool_alarm_callback+0x7e>
10000880:	2900      	cmp	r1, #0
10000882:	d102      	bne.n	1000088a <alarm_pool_alarm_callback+0x14a>
10000884:	2800      	cmp	r0, #0
10000886:	d000      	beq.n	1000088a <alarm_pool_alarm_callback+0x14a>
10000888:	e791      	b.n	100007ae <alarm_pool_alarm_callback+0x6e>
1000088a:	2101      	movs	r1, #1
1000088c:	0020      	movs	r0, r4
1000088e:	f000 fafb 	bl	10000e88 <ph_remove_head_reserve>
10000892:	4643      	mov	r3, r8
10000894:	681e      	ldr	r6, [r3, #0]
10000896:	685f      	ldr	r7, [r3, #4]
10000898:	689b      	ldr	r3, [r3, #8]
1000089a:	9a07      	ldr	r2, [sp, #28]
1000089c:	469a      	mov	sl, r3
1000089e:	4643      	mov	r3, r8
100008a0:	68db      	ldr	r3, [r3, #12]
100008a2:	4698      	mov	r8, r3
100008a4:	68d3      	ldr	r3, [r2, #12]
100008a6:	444b      	add	r3, r9
100008a8:	3b01      	subs	r3, #1
100008aa:	781b      	ldrb	r3, [r3, #0]
100008ac:	930a      	str	r3, [sp, #40]	; 0x28
100008ae:	021b      	lsls	r3, r3, #8
100008b0:	4303      	orrs	r3, r0
100008b2:	6113      	str	r3, [r2, #16]
100008b4:	2000      	movs	r0, #0
100008b6:	e782      	b.n	100007be <alarm_pool_alarm_callback+0x7e>
100008b8:	6923      	ldr	r3, [r4, #16]
100008ba:	2b00      	cmp	r3, #0
100008bc:	d0b8      	beq.n	10000830 <alarm_pool_alarm_callback+0xf0>
100008be:	0033      	movs	r3, r6
100008c0:	003c      	movs	r4, r7
100008c2:	1a5b      	subs	r3, r3, r1
100008c4:	4194      	sbcs	r4, r2
100008c6:	001a      	movs	r2, r3
100008c8:	0023      	movs	r3, r4
100008ca:	42a7      	cmp	r7, r4
100008cc:	d819      	bhi.n	10000902 <alarm_pool_alarm_callback+0x1c2>
100008ce:	429f      	cmp	r7, r3
100008d0:	d01b      	beq.n	1000090a <alarm_pool_alarm_callback+0x1ca>
100008d2:	4659      	mov	r1, fp
100008d4:	9104      	str	r1, [sp, #16]
100008d6:	2101      	movs	r1, #1
100008d8:	9103      	str	r1, [sp, #12]
100008da:	4649      	mov	r1, r9
100008dc:	9102      	str	r1, [sp, #8]
100008de:	4641      	mov	r1, r8
100008e0:	9101      	str	r1, [sp, #4]
100008e2:	4651      	mov	r1, sl
100008e4:	9807      	ldr	r0, [sp, #28]
100008e6:	9100      	str	r1, [sp, #0]
100008e8:	f7ff fe94 	bl	10000614 <add_alarm_under_lock>
100008ec:	e7b6      	b.n	1000085c <alarm_pool_alarm_callback+0x11c>
100008ee:	f000 f8bb 	bl	10000a68 <time_us_64>
100008f2:	9a08      	ldr	r2, [sp, #32]
100008f4:	9b09      	ldr	r3, [sp, #36]	; 0x24
100008f6:	0006      	movs	r6, r0
100008f8:	000f      	movs	r7, r1
100008fa:	1992      	adds	r2, r2, r6
100008fc:	417b      	adcs	r3, r7
100008fe:	4299      	cmp	r1, r3
10000900:	d9e5      	bls.n	100008ce <alarm_pool_alarm_callback+0x18e>
10000902:	2201      	movs	r2, #1
10000904:	4252      	negs	r2, r2
10000906:	17d3      	asrs	r3, r2, #31
10000908:	e7e3      	b.n	100008d2 <alarm_pool_alarm_callback+0x192>
1000090a:	4296      	cmp	r6, r2
1000090c:	d9e1      	bls.n	100008d2 <alarm_pool_alarm_callback+0x192>
1000090e:	2201      	movs	r2, #1
10000910:	4252      	negs	r2, r2
10000912:	17d3      	asrs	r3, r2, #31
10000914:	e7dd      	b.n	100008d2 <alarm_pool_alarm_callback+0x192>
10000916:	46c0      	nop			; (mov r8, r8)
10000918:	20000d48 	.word	0x20000d48
1000091c:	0fffffff 	.word	0x0fffffff

10000920 <alarm_pool_init_default>:
10000920:	b570      	push	{r4, r5, r6, lr}
10000922:	4c18      	ldr	r4, [pc, #96]	; (10000984 <alarm_pool_init_default+0x64>)
10000924:	6823      	ldr	r3, [r4, #0]
10000926:	2b00      	cmp	r3, #0
10000928:	d000      	beq.n	1000092c <alarm_pool_init_default+0xc>
1000092a:	bd70      	pop	{r4, r5, r6, pc}
1000092c:	2003      	movs	r0, #3
1000092e:	f000 f88f 	bl	10000a50 <hardware_alarm_claim>
10000932:	2003      	movs	r0, #3
10000934:	f000 f94a 	bl	10000bcc <hardware_alarm_cancel>
10000938:	4913      	ldr	r1, [pc, #76]	; (10000988 <alarm_pool_init_default+0x68>)
1000093a:	2003      	movs	r0, #3
1000093c:	f000 f89e 	bl	10000a7c <hardware_alarm_set_callback>
10000940:	2018      	movs	r0, #24
10000942:	f003 f9cb 	bl	10003cdc <__wrap_malloc>
10000946:	0005      	movs	r5, r0
10000948:	f7ff fdca 	bl	100004e0 <next_striped_spin_lock_num>
1000094c:	4b0f      	ldr	r3, [pc, #60]	; (1000098c <alarm_pool_init_default+0x6c>)
1000094e:	002a      	movs	r2, r5
10000950:	469c      	mov	ip, r3
10000952:	4460      	add	r0, ip
10000954:	0080      	lsls	r0, r0, #2
10000956:	490e      	ldr	r1, [pc, #56]	; (10000990 <alarm_pool_init_default+0x70>)
10000958:	6068      	str	r0, [r5, #4]
1000095a:	2010      	movs	r0, #16
1000095c:	f000 f99e 	bl	10000c9c <ph_create>
10000960:	2110      	movs	r1, #16
10000962:	6028      	str	r0, [r5, #0]
10000964:	2010      	movs	r0, #16
10000966:	f003 f9bd 	bl	10003ce4 <__wrap_calloc>
1000096a:	2101      	movs	r1, #1
1000096c:	60a8      	str	r0, [r5, #8]
1000096e:	2010      	movs	r0, #16
10000970:	f003 f9b8 	bl	10003ce4 <__wrap_calloc>
10000974:	2303      	movs	r3, #3
10000976:	752b      	strb	r3, [r5, #20]
10000978:	4b06      	ldr	r3, [pc, #24]	; (10000994 <alarm_pool_init_default+0x74>)
1000097a:	60e8      	str	r0, [r5, #12]
1000097c:	60dd      	str	r5, [r3, #12]
1000097e:	6025      	str	r5, [r4, #0]
10000980:	e7d3      	b.n	1000092a <alarm_pool_init_default+0xa>
10000982:	46c0      	nop			; (mov r8, r8)
10000984:	20000d34 	.word	0x20000d34
10000988:	10000741 	.word	0x10000741
1000098c:	34000040 	.word	0x34000040
10000990:	100005e1 	.word	0x100005e1
10000994:	20000d48 	.word	0x20000d48

10000998 <hardware_alarm_irq_handler>:
10000998:	b5f0      	push	{r4, r5, r6, r7, lr}
1000099a:	46d6      	mov	lr, sl
1000099c:	464f      	mov	r7, r9
1000099e:	4646      	mov	r6, r8
100009a0:	b5c0      	push	{r6, r7, lr}
100009a2:	f3ef 8305 	mrs	r3, IPSR
100009a6:	223f      	movs	r2, #63	; 0x3f
100009a8:	4013      	ands	r3, r2
100009aa:	0018      	movs	r0, r3
100009ac:	3810      	subs	r0, #16
100009ae:	f3ef 8c10 	mrs	ip, PRIMASK
100009b2:	b672      	cpsid	i
100009b4:	4d20      	ldr	r5, [pc, #128]	; (10000a38 <hardware_alarm_irq_handler+0xa0>)
100009b6:	682a      	ldr	r2, [r5, #0]
100009b8:	2a00      	cmp	r2, #0
100009ba:	d0fc      	beq.n	100009b6 <hardware_alarm_irq_handler+0x1e>
100009bc:	f3bf 8f5f 	dmb	sy
100009c0:	2201      	movs	r2, #1
100009c2:	0011      	movs	r1, r2
100009c4:	4081      	lsls	r1, r0
100009c6:	4c1d      	ldr	r4, [pc, #116]	; (10000a3c <hardware_alarm_irq_handler+0xa4>)
100009c8:	4688      	mov	r8, r1
100009ca:	6361      	str	r1, [r4, #52]	; 0x34
100009cc:	491c      	ldr	r1, [pc, #112]	; (10000a40 <hardware_alarm_irq_handler+0xa8>)
100009ce:	0017      	movs	r7, r2
100009d0:	780e      	ldrb	r6, [r1, #0]
100009d2:	468a      	mov	sl, r1
100009d4:	0031      	movs	r1, r6
100009d6:	40c1      	lsrs	r1, r0
100009d8:	400f      	ands	r7, r1
100009da:	420a      	tst	r2, r1
100009dc:	d015      	beq.n	10000a0a <hardware_alarm_irq_handler+0x72>
100009de:	4919      	ldr	r1, [pc, #100]	; (10000a44 <hardware_alarm_irq_handler+0xac>)
100009e0:	0082      	lsls	r2, r0, #2
100009e2:	6a64      	ldr	r4, [r4, #36]	; 0x24
100009e4:	5851      	ldr	r1, [r2, r1]
100009e6:	428c      	cmp	r4, r1
100009e8:	d319      	bcc.n	10000a1e <hardware_alarm_irq_handler+0x86>
100009ea:	4b17      	ldr	r3, [pc, #92]	; (10000a48 <hardware_alarm_irq_handler+0xb0>)
100009ec:	58d2      	ldr	r2, [r2, r3]
100009ee:	4643      	mov	r3, r8
100009f0:	439e      	bics	r6, r3
100009f2:	4653      	mov	r3, sl
100009f4:	701e      	strb	r6, [r3, #0]
100009f6:	f3bf 8f5f 	dmb	sy
100009fa:	2300      	movs	r3, #0
100009fc:	602b      	str	r3, [r5, #0]
100009fe:	f38c 8810 	msr	PRIMASK, ip
10000a02:	2a00      	cmp	r2, #0
10000a04:	d006      	beq.n	10000a14 <hardware_alarm_irq_handler+0x7c>
10000a06:	4790      	blx	r2
10000a08:	e004      	b.n	10000a14 <hardware_alarm_irq_handler+0x7c>
10000a0a:	f3bf 8f5f 	dmb	sy
10000a0e:	602f      	str	r7, [r5, #0]
10000a10:	f38c 8810 	msr	PRIMASK, ip
10000a14:	bc1c      	pop	{r2, r3, r4}
10000a16:	4690      	mov	r8, r2
10000a18:	4699      	mov	r9, r3
10000a1a:	46a2      	mov	sl, r4
10000a1c:	bdf0      	pop	{r4, r5, r6, r7, pc}
10000a1e:	4a0b      	ldr	r2, [pc, #44]	; (10000a4c <hardware_alarm_irq_handler+0xb4>)
10000a20:	009b      	lsls	r3, r3, #2
10000a22:	4690      	mov	r8, r2
10000a24:	4443      	add	r3, r8
10000a26:	681a      	ldr	r2, [r3, #0]
10000a28:	601a      	str	r2, [r3, #0]
10000a2a:	f3bf 8f5f 	dmb	sy
10000a2e:	2300      	movs	r3, #0
10000a30:	602b      	str	r3, [r5, #0]
10000a32:	f38c 8810 	msr	PRIMASK, ip
10000a36:	e7ed      	b.n	10000a14 <hardware_alarm_irq_handler+0x7c>
10000a38:	d0000128 	.word	0xd0000128
10000a3c:	40054000 	.word	0x40054000
10000a40:	20000d6b 	.word	0x20000d6b
10000a44:	20000d58 	.word	0x20000d58
10000a48:	20000bfc 	.word	0x20000bfc
10000a4c:	40053fd0 	.word	0x40053fd0

10000a50 <hardware_alarm_claim>:
10000a50:	b510      	push	{r4, lr}
10000a52:	0001      	movs	r1, r0
10000a54:	4a02      	ldr	r2, [pc, #8]	; (10000a60 <hardware_alarm_claim+0x10>)
10000a56:	4803      	ldr	r0, [pc, #12]	; (10000a64 <hardware_alarm_claim+0x14>)
10000a58:	f7ff fd04 	bl	10000464 <hw_claim_or_assert>
10000a5c:	bd10      	pop	{r4, pc}
10000a5e:	46c0      	nop			; (mov r8, r8)
10000a60:	10004bc0 	.word	0x10004bc0
10000a64:	20000d69 	.word	0x20000d69

10000a68 <time_us_64>:
10000a68:	4b03      	ldr	r3, [pc, #12]	; (10000a78 <time_us_64+0x10>)
10000a6a:	6a59      	ldr	r1, [r3, #36]	; 0x24
10000a6c:	000a      	movs	r2, r1
10000a6e:	6a98      	ldr	r0, [r3, #40]	; 0x28
10000a70:	6a59      	ldr	r1, [r3, #36]	; 0x24
10000a72:	428a      	cmp	r2, r1
10000a74:	d1fa      	bne.n	10000a6c <time_us_64+0x4>
10000a76:	4770      	bx	lr
10000a78:	40054000 	.word	0x40054000

10000a7c <hardware_alarm_set_callback>:
10000a7c:	b570      	push	{r4, r5, r6, lr}
10000a7e:	0004      	movs	r4, r0
10000a80:	000d      	movs	r5, r1
10000a82:	f3ef 8610 	mrs	r6, PRIMASK
10000a86:	b672      	cpsid	i
10000a88:	4a1a      	ldr	r2, [pc, #104]	; (10000af4 <hardware_alarm_set_callback+0x78>)
10000a8a:	6813      	ldr	r3, [r2, #0]
10000a8c:	2b00      	cmp	r3, #0
10000a8e:	d0fc      	beq.n	10000a8a <hardware_alarm_set_callback+0xe>
10000a90:	f3bf 8f5f 	dmb	sy
10000a94:	2d00      	cmp	r5, #0
10000a96:	d01b      	beq.n	10000ad0 <hardware_alarm_set_callback+0x54>
10000a98:	0020      	movs	r0, r4
10000a9a:	f000 fd4f 	bl	1000153c <irq_get_vtable_handler>
10000a9e:	4916      	ldr	r1, [pc, #88]	; (10000af8 <hardware_alarm_set_callback+0x7c>)
10000aa0:	4281      	cmp	r1, r0
10000aa2:	d00a      	beq.n	10000aba <hardware_alarm_set_callback+0x3e>
10000aa4:	0020      	movs	r0, r4
10000aa6:	f000 fd51 	bl	1000154c <irq_set_exclusive_handler>
10000aaa:	2101      	movs	r1, #1
10000aac:	0020      	movs	r0, r4
10000aae:	f000 fd33 	bl	10001518 <irq_set_enabled>
10000ab2:	2301      	movs	r3, #1
10000ab4:	40a3      	lsls	r3, r4
10000ab6:	4a11      	ldr	r2, [pc, #68]	; (10000afc <hardware_alarm_set_callback+0x80>)
10000ab8:	6013      	str	r3, [r2, #0]
10000aba:	4b11      	ldr	r3, [pc, #68]	; (10000b00 <hardware_alarm_set_callback+0x84>)
10000abc:	00a4      	lsls	r4, r4, #2
10000abe:	50e5      	str	r5, [r4, r3]
10000ac0:	f3bf 8f5f 	dmb	sy
10000ac4:	2200      	movs	r2, #0
10000ac6:	4b0b      	ldr	r3, [pc, #44]	; (10000af4 <hardware_alarm_set_callback+0x78>)
10000ac8:	601a      	str	r2, [r3, #0]
10000aca:	f386 8810 	msr	PRIMASK, r6
10000ace:	bd70      	pop	{r4, r5, r6, pc}
10000ad0:	4b0b      	ldr	r3, [pc, #44]	; (10000b00 <hardware_alarm_set_callback+0x84>)
10000ad2:	00a2      	lsls	r2, r4, #2
10000ad4:	50d5      	str	r5, [r2, r3]
10000ad6:	2201      	movs	r2, #1
10000ad8:	40a2      	lsls	r2, r4
10000ada:	490a      	ldr	r1, [pc, #40]	; (10000b04 <hardware_alarm_set_callback+0x88>)
10000adc:	0020      	movs	r0, r4
10000ade:	780b      	ldrb	r3, [r1, #0]
10000ae0:	4393      	bics	r3, r2
10000ae2:	700b      	strb	r3, [r1, #0]
10000ae4:	4904      	ldr	r1, [pc, #16]	; (10000af8 <hardware_alarm_set_callback+0x7c>)
10000ae6:	f000 fd5b 	bl	100015a0 <irq_remove_handler>
10000aea:	2100      	movs	r1, #0
10000aec:	0020      	movs	r0, r4
10000aee:	f000 fd13 	bl	10001518 <irq_set_enabled>
10000af2:	e7e5      	b.n	10000ac0 <hardware_alarm_set_callback+0x44>
10000af4:	d0000128 	.word	0xd0000128
10000af8:	10000999 	.word	0x10000999
10000afc:	40056038 	.word	0x40056038
10000b00:	20000bfc 	.word	0x20000bfc
10000b04:	20000d6b 	.word	0x20000d6b

10000b08 <hardware_alarm_set_target>:
10000b08:	b5f0      	push	{r4, r5, r6, r7, lr}
10000b0a:	46ce      	mov	lr, r9
10000b0c:	4647      	mov	r7, r8
10000b0e:	b580      	push	{r7, lr}
10000b10:	4c2a      	ldr	r4, [pc, #168]	; (10000bbc <hardware_alarm_set_target+0xb4>)
10000b12:	6a61      	ldr	r1, [r4, #36]	; 0x24
10000b14:	000d      	movs	r5, r1
10000b16:	6aa6      	ldr	r6, [r4, #40]	; 0x28
10000b18:	6a61      	ldr	r1, [r4, #36]	; 0x24
10000b1a:	42a9      	cmp	r1, r5
10000b1c:	d1fa      	bne.n	10000b14 <hardware_alarm_set_target+0xc>
10000b1e:	428b      	cmp	r3, r1
10000b20:	d807      	bhi.n	10000b32 <hardware_alarm_set_target+0x2a>
10000b22:	d004      	beq.n	10000b2e <hardware_alarm_set_target+0x26>
10000b24:	2001      	movs	r0, #1
10000b26:	bc0c      	pop	{r2, r3}
10000b28:	4690      	mov	r8, r2
10000b2a:	4699      	mov	r9, r3
10000b2c:	bdf0      	pop	{r4, r5, r6, r7, pc}
10000b2e:	42b2      	cmp	r2, r6
10000b30:	d9f8      	bls.n	10000b24 <hardware_alarm_set_target+0x1c>
10000b32:	f3ef 8810 	mrs	r8, PRIMASK
10000b36:	b672      	cpsid	i
10000b38:	4c21      	ldr	r4, [pc, #132]	; (10000bc0 <hardware_alarm_set_target+0xb8>)
10000b3a:	6821      	ldr	r1, [r4, #0]
10000b3c:	2900      	cmp	r1, #0
10000b3e:	d0fc      	beq.n	10000b3a <hardware_alarm_set_target+0x32>
10000b40:	f3bf 8f5f 	dmb	sy
10000b44:	2501      	movs	r5, #1
10000b46:	4085      	lsls	r5, r0
10000b48:	4c1c      	ldr	r4, [pc, #112]	; (10000bbc <hardware_alarm_set_target+0xb4>)
10000b4a:	4e1e      	ldr	r6, [pc, #120]	; (10000bc4 <hardware_alarm_set_target+0xbc>)
10000b4c:	6365      	str	r5, [r4, #52]	; 0x34
10000b4e:	b2e9      	uxtb	r1, r5
10000b50:	468c      	mov	ip, r1
10000b52:	7831      	ldrb	r1, [r6, #0]
10000b54:	4689      	mov	r9, r1
10000b56:	4661      	mov	r1, ip
10000b58:	464f      	mov	r7, r9
10000b5a:	4339      	orrs	r1, r7
10000b5c:	7031      	strb	r1, [r6, #0]
10000b5e:	1d01      	adds	r1, r0, #4
10000b60:	0089      	lsls	r1, r1, #2
10000b62:	510a      	str	r2, [r1, r4]
10000b64:	4918      	ldr	r1, [pc, #96]	; (10000bc8 <hardware_alarm_set_target+0xc0>)
10000b66:	0080      	lsls	r0, r0, #2
10000b68:	5043      	str	r3, [r0, r1]
10000b6a:	6a21      	ldr	r1, [r4, #32]
10000b6c:	2000      	movs	r0, #0
10000b6e:	4229      	tst	r1, r5
10000b70:	d00c      	beq.n	10000b8c <hardware_alarm_set_target+0x84>
10000b72:	0020      	movs	r0, r4
10000b74:	6a61      	ldr	r1, [r4, #36]	; 0x24
10000b76:	000c      	movs	r4, r1
10000b78:	6a87      	ldr	r7, [r0, #40]	; 0x28
10000b7a:	6a41      	ldr	r1, [r0, #36]	; 0x24
10000b7c:	42a1      	cmp	r1, r4
10000b7e:	d1fa      	bne.n	10000b76 <hardware_alarm_set_target+0x6e>
10000b80:	428b      	cmp	r3, r1
10000b82:	d802      	bhi.n	10000b8a <hardware_alarm_set_target+0x82>
10000b84:	d10a      	bne.n	10000b9c <hardware_alarm_set_target+0x94>
10000b86:	42ba      	cmp	r2, r7
10000b88:	d908      	bls.n	10000b9c <hardware_alarm_set_target+0x94>
10000b8a:	2000      	movs	r0, #0
10000b8c:	f3bf 8f5f 	dmb	sy
10000b90:	2200      	movs	r2, #0
10000b92:	4b0b      	ldr	r3, [pc, #44]	; (10000bc0 <hardware_alarm_set_target+0xb8>)
10000b94:	601a      	str	r2, [r3, #0]
10000b96:	f388 8810 	msr	PRIMASK, r8
10000b9a:	e7c4      	b.n	10000b26 <hardware_alarm_set_target+0x1e>
10000b9c:	4b07      	ldr	r3, [pc, #28]	; (10000bbc <hardware_alarm_set_target+0xb4>)
10000b9e:	464f      	mov	r7, r9
10000ba0:	621d      	str	r5, [r3, #32]
10000ba2:	635d      	str	r5, [r3, #52]	; 0x34
10000ba4:	4663      	mov	r3, ip
10000ba6:	439f      	bics	r7, r3
10000ba8:	2001      	movs	r0, #1
10000baa:	7037      	strb	r7, [r6, #0]
10000bac:	f3bf 8f5f 	dmb	sy
10000bb0:	2200      	movs	r2, #0
10000bb2:	4b03      	ldr	r3, [pc, #12]	; (10000bc0 <hardware_alarm_set_target+0xb8>)
10000bb4:	601a      	str	r2, [r3, #0]
10000bb6:	f388 8810 	msr	PRIMASK, r8
10000bba:	e7b4      	b.n	10000b26 <hardware_alarm_set_target+0x1e>
10000bbc:	40054000 	.word	0x40054000
10000bc0:	d0000128 	.word	0xd0000128
10000bc4:	20000d6b 	.word	0x20000d6b
10000bc8:	20000d58 	.word	0x20000d58

10000bcc <hardware_alarm_cancel>:
10000bcc:	b510      	push	{r4, lr}
10000bce:	f3ef 8410 	mrs	r4, PRIMASK
10000bd2:	b672      	cpsid	i
10000bd4:	490a      	ldr	r1, [pc, #40]	; (10000c00 <hardware_alarm_cancel+0x34>)
10000bd6:	680b      	ldr	r3, [r1, #0]
10000bd8:	2b00      	cmp	r3, #0
10000bda:	d0fc      	beq.n	10000bd6 <hardware_alarm_cancel+0xa>
10000bdc:	f3bf 8f5f 	dmb	sy
10000be0:	2301      	movs	r3, #1
10000be2:	4083      	lsls	r3, r0
10000be4:	4a07      	ldr	r2, [pc, #28]	; (10000c04 <hardware_alarm_cancel+0x38>)
10000be6:	4808      	ldr	r0, [pc, #32]	; (10000c08 <hardware_alarm_cancel+0x3c>)
10000be8:	6213      	str	r3, [r2, #32]
10000bea:	7802      	ldrb	r2, [r0, #0]
10000bec:	439a      	bics	r2, r3
10000bee:	7002      	strb	r2, [r0, #0]
10000bf0:	f3bf 8f5f 	dmb	sy
10000bf4:	2300      	movs	r3, #0
10000bf6:	600b      	str	r3, [r1, #0]
10000bf8:	f384 8810 	msr	PRIMASK, r4
10000bfc:	bd10      	pop	{r4, pc}
10000bfe:	46c0      	nop			; (mov r8, r8)
10000c00:	d0000128 	.word	0xd0000128
10000c04:	40054000 	.word	0x40054000
10000c08:	20000d6b 	.word	0x20000d6b

10000c0c <lock_init>:
10000c0c:	4b02      	ldr	r3, [pc, #8]	; (10000c18 <lock_init+0xc>)
10000c0e:	469c      	mov	ip, r3
10000c10:	4461      	add	r1, ip
10000c12:	0089      	lsls	r1, r1, #2
10000c14:	6001      	str	r1, [r0, #0]
10000c16:	4770      	bx	lr
10000c18:	34000040 	.word	0x34000040

10000c1c <mutex_init>:
10000c1c:	b510      	push	{r4, lr}
10000c1e:	0004      	movs	r4, r0
10000c20:	f7ff fc5e 	bl	100004e0 <next_striped_spin_lock_num>
10000c24:	0001      	movs	r1, r0
10000c26:	0020      	movs	r0, r4
10000c28:	f7ff fff0 	bl	10000c0c <lock_init>
10000c2c:	f3bf 8f5f 	dmb	sy
10000c30:	bd10      	pop	{r4, pc}
10000c32:	46c0      	nop			; (mov r8, r8)

10000c34 <ph_merge_nodes>:
10000c34:	b570      	push	{r4, r5, r6, lr}
10000c36:	0005      	movs	r5, r0
10000c38:	000e      	movs	r6, r1
10000c3a:	0014      	movs	r4, r2
10000c3c:	2900      	cmp	r1, #0
10000c3e:	d024      	beq.n	10000c8a <ph_merge_nodes+0x56>
10000c40:	2a00      	cmp	r2, #0
10000c42:	d024      	beq.n	10000c8e <ph_merge_nodes+0x5a>
10000c44:	6880      	ldr	r0, [r0, #8]
10000c46:	686b      	ldr	r3, [r5, #4]
10000c48:	4798      	blx	r3
10000c4a:	6829      	ldr	r1, [r5, #0]
10000c4c:	2800      	cmp	r0, #0
10000c4e:	d00e      	beq.n	10000c6e <ph_merge_nodes+0x3a>
10000c50:	0063      	lsls	r3, r4, #1
10000c52:	191b      	adds	r3, r3, r4
10000c54:	0072      	lsls	r2, r6, #1
10000c56:	3b03      	subs	r3, #3
10000c58:	1992      	adds	r2, r2, r6
10000c5a:	18cb      	adds	r3, r1, r3
10000c5c:	3a03      	subs	r2, #3
10000c5e:	709e      	strb	r6, [r3, #2]
10000c60:	1888      	adds	r0, r1, r2
10000c62:	5c8a      	ldrb	r2, [r1, r2]
10000c64:	2a00      	cmp	r2, #0
10000c66:	d114      	bne.n	10000c92 <ph_merge_nodes+0x5e>
10000c68:	7004      	strb	r4, [r0, #0]
10000c6a:	0030      	movs	r0, r6
10000c6c:	e00e      	b.n	10000c8c <ph_merge_nodes+0x58>
10000c6e:	0073      	lsls	r3, r6, #1
10000c70:	199b      	adds	r3, r3, r6
10000c72:	0062      	lsls	r2, r4, #1
10000c74:	3b03      	subs	r3, #3
10000c76:	1912      	adds	r2, r2, r4
10000c78:	18cb      	adds	r3, r1, r3
10000c7a:	3a03      	subs	r2, #3
10000c7c:	709c      	strb	r4, [r3, #2]
10000c7e:	1888      	adds	r0, r1, r2
10000c80:	5c8a      	ldrb	r2, [r1, r2]
10000c82:	2a00      	cmp	r2, #0
10000c84:	d000      	beq.n	10000c88 <ph_merge_nodes+0x54>
10000c86:	705a      	strb	r2, [r3, #1]
10000c88:	7006      	strb	r6, [r0, #0]
10000c8a:	0020      	movs	r0, r4
10000c8c:	bd70      	pop	{r4, r5, r6, pc}
10000c8e:	0008      	movs	r0, r1
10000c90:	e7fc      	b.n	10000c8c <ph_merge_nodes+0x58>
10000c92:	705a      	strb	r2, [r3, #1]
10000c94:	7004      	strb	r4, [r0, #0]
10000c96:	0030      	movs	r0, r6
10000c98:	e7f8      	b.n	10000c8c <ph_merge_nodes+0x58>
10000c9a:	46c0      	nop			; (mov r8, r8)

10000c9c <ph_create>:
10000c9c:	b5f0      	push	{r4, r5, r6, r7, lr}
10000c9e:	46c6      	mov	lr, r8
10000ca0:	0005      	movs	r5, r0
10000ca2:	000f      	movs	r7, r1
10000ca4:	b500      	push	{lr}
10000ca6:	2110      	movs	r1, #16
10000ca8:	2001      	movs	r0, #1
10000caa:	0016      	movs	r6, r2
10000cac:	f003 f81a 	bl	10003ce4 <__wrap_calloc>
10000cb0:	b2eb      	uxtb	r3, r5
10000cb2:	0004      	movs	r4, r0
10000cb4:	7303      	strb	r3, [r0, #12]
10000cb6:	2103      	movs	r1, #3
10000cb8:	6047      	str	r7, [r0, #4]
10000cba:	0028      	movs	r0, r5
10000cbc:	4698      	mov	r8, r3
10000cbe:	f003 f811 	bl	10003ce4 <__wrap_calloc>
10000cc2:	2300      	movs	r3, #0
10000cc4:	7363      	strb	r3, [r4, #13]
10000cc6:	3301      	adds	r3, #1
10000cc8:	73a3      	strb	r3, [r4, #14]
10000cca:	4643      	mov	r3, r8
10000ccc:	21ff      	movs	r1, #255	; 0xff
10000cce:	73e3      	strb	r3, [r4, #15]
10000cd0:	23fe      	movs	r3, #254	; 0xfe
10000cd2:	6020      	str	r0, [r4, #0]
10000cd4:	60a6      	str	r6, [r4, #8]
10000cd6:	4029      	ands	r1, r5
10000cd8:	422b      	tst	r3, r5
10000cda:	d006      	beq.n	10000cea <ph_create+0x4e>
10000cdc:	1c42      	adds	r2, r0, #1
10000cde:	3bfd      	subs	r3, #253	; 0xfd
10000ce0:	3301      	adds	r3, #1
10000ce2:	7013      	strb	r3, [r2, #0]
10000ce4:	3203      	adds	r2, #3
10000ce6:	428b      	cmp	r3, r1
10000ce8:	d3fa      	bcc.n	10000ce0 <ph_create+0x44>
10000cea:	004b      	lsls	r3, r1, #1
10000cec:	1859      	adds	r1, r3, r1
10000cee:	2300      	movs	r3, #0
10000cf0:	1840      	adds	r0, r0, r1
10000cf2:	3803      	subs	r0, #3
10000cf4:	7043      	strb	r3, [r0, #1]
10000cf6:	0020      	movs	r0, r4
10000cf8:	bc04      	pop	{r2}
10000cfa:	4690      	mov	r8, r2
10000cfc:	bdf0      	pop	{r4, r5, r6, r7, pc}
10000cfe:	46c0      	nop			; (mov r8, r8)

10000d00 <ph_merge_two_pass>:
10000d00:	b5f8      	push	{r3, r4, r5, r6, r7, lr}
10000d02:	46ce      	mov	lr, r9
10000d04:	4647      	mov	r7, r8
10000d06:	0006      	movs	r6, r0
10000d08:	000c      	movs	r4, r1
10000d0a:	b580      	push	{r7, lr}
10000d0c:	2900      	cmp	r1, #0
10000d0e:	d007      	beq.n	10000d20 <ph_merge_two_pass+0x20>
10000d10:	004d      	lsls	r5, r1, #1
10000d12:	6803      	ldr	r3, [r0, #0]
10000d14:	186d      	adds	r5, r5, r1
10000d16:	3d03      	subs	r5, #3
10000d18:	195a      	adds	r2, r3, r5
10000d1a:	7857      	ldrb	r7, [r2, #1]
10000d1c:	2f00      	cmp	r7, #0
10000d1e:	d104      	bne.n	10000d2a <ph_merge_two_pass+0x2a>
10000d20:	0020      	movs	r0, r4
10000d22:	bc0c      	pop	{r2, r3}
10000d24:	4690      	mov	r8, r2
10000d26:	4699      	mov	r9, r3
10000d28:	bdf8      	pop	{r3, r4, r5, r6, r7, pc}
10000d2a:	0079      	lsls	r1, r7, #1
10000d2c:	19c9      	adds	r1, r1, r7
10000d2e:	3903      	subs	r1, #3
10000d30:	4688      	mov	r8, r1
10000d32:	4443      	add	r3, r8
10000d34:	7859      	ldrb	r1, [r3, #1]
10000d36:	4689      	mov	r9, r1
10000d38:	2100      	movs	r1, #0
10000d3a:	7059      	strb	r1, [r3, #1]
10000d3c:	7051      	strb	r1, [r2, #1]
10000d3e:	6873      	ldr	r3, [r6, #4]
10000d40:	003a      	movs	r2, r7
10000d42:	0021      	movs	r1, r4
10000d44:	6880      	ldr	r0, [r0, #8]
10000d46:	4798      	blx	r3
10000d48:	6833      	ldr	r3, [r6, #0]
10000d4a:	2800      	cmp	r0, #0
10000d4c:	d014      	beq.n	10000d78 <ph_merge_two_pass+0x78>
10000d4e:	4642      	mov	r2, r8
10000d50:	189a      	adds	r2, r3, r2
10000d52:	7094      	strb	r4, [r2, #2]
10000d54:	1959      	adds	r1, r3, r5
10000d56:	5d5b      	ldrb	r3, [r3, r5]
10000d58:	2b00      	cmp	r3, #0
10000d5a:	d000      	beq.n	10000d5e <ph_merge_two_pass+0x5e>
10000d5c:	7053      	strb	r3, [r2, #1]
10000d5e:	700f      	strb	r7, [r1, #0]
10000d60:	0027      	movs	r7, r4
10000d62:	4649      	mov	r1, r9
10000d64:	0030      	movs	r0, r6
10000d66:	f7ff ffcb 	bl	10000d00 <ph_merge_two_pass>
10000d6a:	0039      	movs	r1, r7
10000d6c:	0002      	movs	r2, r0
10000d6e:	0030      	movs	r0, r6
10000d70:	f7ff ff60 	bl	10000c34 <ph_merge_nodes>
10000d74:	0004      	movs	r4, r0
10000d76:	e7d3      	b.n	10000d20 <ph_merge_two_pass+0x20>
10000d78:	4642      	mov	r2, r8
10000d7a:	4641      	mov	r1, r8
10000d7c:	195d      	adds	r5, r3, r5
10000d7e:	70af      	strb	r7, [r5, #2]
10000d80:	189a      	adds	r2, r3, r2
10000d82:	5c5b      	ldrb	r3, [r3, r1]
10000d84:	2b00      	cmp	r3, #0
10000d86:	d000      	beq.n	10000d8a <ph_merge_two_pass+0x8a>
10000d88:	706b      	strb	r3, [r5, #1]
10000d8a:	7014      	strb	r4, [r2, #0]
10000d8c:	e7e9      	b.n	10000d62 <ph_merge_two_pass+0x62>
10000d8e:	46c0      	nop			; (mov r8, r8)

10000d90 <ph_remove_any_head>:
10000d90:	b5f0      	push	{r4, r5, r6, r7, lr}
10000d92:	4657      	mov	r7, sl
10000d94:	4645      	mov	r5, r8
10000d96:	46de      	mov	lr, fp
10000d98:	464e      	mov	r6, r9
10000d9a:	b5e0      	push	{r5, r6, r7, lr}
10000d9c:	000d      	movs	r5, r1
10000d9e:	006b      	lsls	r3, r5, #1
10000da0:	6801      	ldr	r1, [r0, #0]
10000da2:	195b      	adds	r3, r3, r5
10000da4:	1edf      	subs	r7, r3, #3
10000da6:	0004      	movs	r4, r0
10000da8:	5dc8      	ldrb	r0, [r1, r7]
10000daa:	b083      	sub	sp, #12
10000dac:	9201      	str	r2, [sp, #4]
10000dae:	19ca      	adds	r2, r1, r7
10000db0:	2800      	cmp	r0, #0
10000db2:	d04c      	beq.n	10000e4e <ph_remove_any_head+0xbe>
10000db4:	0043      	lsls	r3, r0, #1
10000db6:	181b      	adds	r3, r3, r0
10000db8:	3b03      	subs	r3, #3
10000dba:	18cb      	adds	r3, r1, r3
10000dbc:	785e      	ldrb	r6, [r3, #1]
10000dbe:	46b4      	mov	ip, r6
10000dc0:	2e00      	cmp	r6, #0
10000dc2:	d116      	bne.n	10000df2 <ph_remove_any_head+0x62>
10000dc4:	9e01      	ldr	r6, [sp, #4]
10000dc6:	2e00      	cmp	r6, #0
10000dc8:	d13e      	bne.n	10000e48 <ph_remove_any_head+0xb8>
10000dca:	7be6      	ldrb	r6, [r4, #15]
10000dcc:	2e00      	cmp	r6, #0
10000dce:	d004      	beq.n	10000dda <ph_remove_any_head+0x4a>
10000dd0:	0073      	lsls	r3, r6, #1
10000dd2:	199b      	adds	r3, r3, r6
10000dd4:	18cb      	adds	r3, r1, r3
10000dd6:	3b03      	subs	r3, #3
10000dd8:	705d      	strb	r5, [r3, #1]
10000dda:	73e5      	strb	r5, [r4, #15]
10000ddc:	2800      	cmp	r0, #0
10000dde:	d12f      	bne.n	10000e40 <ph_remove_any_head+0xb0>
10000de0:	2300      	movs	r3, #0
10000de2:	7053      	strb	r3, [r2, #1]
10000de4:	b003      	add	sp, #12
10000de6:	bc3c      	pop	{r2, r3, r4, r5}
10000de8:	4690      	mov	r8, r2
10000dea:	4699      	mov	r9, r3
10000dec:	46a2      	mov	sl, r4
10000dee:	46ab      	mov	fp, r5
10000df0:	bdf0      	pop	{r4, r5, r6, r7, pc}
10000df2:	0072      	lsls	r2, r6, #1
10000df4:	4462      	add	r2, ip
10000df6:	3a03      	subs	r2, #3
10000df8:	1889      	adds	r1, r1, r2
10000dfa:	784a      	ldrb	r2, [r1, #1]
10000dfc:	4690      	mov	r8, r2
10000dfe:	2200      	movs	r2, #0
10000e00:	704a      	strb	r2, [r1, #1]
10000e02:	4691      	mov	r9, r2
10000e04:	705a      	strb	r2, [r3, #1]
10000e06:	0001      	movs	r1, r0
10000e08:	0032      	movs	r2, r6
10000e0a:	0020      	movs	r0, r4
10000e0c:	f7ff ff12 	bl	10000c34 <ph_merge_nodes>
10000e10:	4643      	mov	r3, r8
10000e12:	4682      	mov	sl, r0
10000e14:	2b00      	cmp	r3, #0
10000e16:	d007      	beq.n	10000e28 <ph_remove_any_head+0x98>
10000e18:	005b      	lsls	r3, r3, #1
10000e1a:	6821      	ldr	r1, [r4, #0]
10000e1c:	4443      	add	r3, r8
10000e1e:	3b03      	subs	r3, #3
10000e20:	18cb      	adds	r3, r1, r3
10000e22:	785a      	ldrb	r2, [r3, #1]
10000e24:	2a00      	cmp	r2, #0
10000e26:	d116      	bne.n	10000e56 <ph_remove_any_head+0xc6>
10000e28:	4642      	mov	r2, r8
10000e2a:	4651      	mov	r1, sl
10000e2c:	0020      	movs	r0, r4
10000e2e:	f7ff ff01 	bl	10000c34 <ph_merge_nodes>
10000e32:	6821      	ldr	r1, [r4, #0]
10000e34:	9b01      	ldr	r3, [sp, #4]
10000e36:	19ca      	adds	r2, r1, r7
10000e38:	2b00      	cmp	r3, #0
10000e3a:	d0c6      	beq.n	10000dca <ph_remove_any_head+0x3a>
10000e3c:	2800      	cmp	r0, #0
10000e3e:	d0cf      	beq.n	10000de0 <ph_remove_any_head+0x50>
10000e40:	0043      	lsls	r3, r0, #1
10000e42:	181b      	adds	r3, r3, r0
10000e44:	3b03      	subs	r3, #3
10000e46:	18cb      	adds	r3, r1, r3
10000e48:	2100      	movs	r1, #0
10000e4a:	7099      	strb	r1, [r3, #2]
10000e4c:	e7c8      	b.n	10000de0 <ph_remove_any_head+0x50>
10000e4e:	9b01      	ldr	r3, [sp, #4]
10000e50:	2b00      	cmp	r3, #0
10000e52:	d1c5      	bne.n	10000de0 <ph_remove_any_head+0x50>
10000e54:	e7b9      	b.n	10000dca <ph_remove_any_head+0x3a>
10000e56:	0050      	lsls	r0, r2, #1
10000e58:	1880      	adds	r0, r0, r2
10000e5a:	3803      	subs	r0, #3
10000e5c:	1809      	adds	r1, r1, r0
10000e5e:	7848      	ldrb	r0, [r1, #1]
10000e60:	4683      	mov	fp, r0
10000e62:	4648      	mov	r0, r9
10000e64:	7048      	strb	r0, [r1, #1]
10000e66:	7058      	strb	r0, [r3, #1]
10000e68:	4641      	mov	r1, r8
10000e6a:	0020      	movs	r0, r4
10000e6c:	f7ff fee2 	bl	10000c34 <ph_merge_nodes>
10000e70:	4659      	mov	r1, fp
10000e72:	4680      	mov	r8, r0
10000e74:	0020      	movs	r0, r4
10000e76:	f7ff ff43 	bl	10000d00 <ph_merge_two_pass>
10000e7a:	4641      	mov	r1, r8
10000e7c:	0002      	movs	r2, r0
10000e7e:	0020      	movs	r0, r4
10000e80:	f7ff fed8 	bl	10000c34 <ph_merge_nodes>
10000e84:	4680      	mov	r8, r0
10000e86:	e7cf      	b.n	10000e28 <ph_remove_any_head+0x98>

10000e88 <ph_remove_head_reserve>:
10000e88:	b5f0      	push	{r4, r5, r6, r7, lr}
10000e8a:	464e      	mov	r6, r9
10000e8c:	4645      	mov	r5, r8
10000e8e:	46de      	mov	lr, fp
10000e90:	4657      	mov	r7, sl
10000e92:	b5e0      	push	{r5, r6, r7, lr}
10000e94:	7b46      	ldrb	r6, [r0, #13]
10000e96:	0004      	movs	r4, r0
10000e98:	0075      	lsls	r5, r6, #1
10000e9a:	6800      	ldr	r0, [r0, #0]
10000e9c:	19ad      	adds	r5, r5, r6
10000e9e:	3d03      	subs	r5, #3
10000ea0:	b083      	sub	sp, #12
10000ea2:	9101      	str	r1, [sp, #4]
10000ea4:	5d41      	ldrb	r1, [r0, r5]
10000ea6:	1942      	adds	r2, r0, r5
10000ea8:	2900      	cmp	r1, #0
10000eaa:	d04e      	beq.n	10000f4a <ph_remove_head_reserve+0xc2>
10000eac:	004b      	lsls	r3, r1, #1
10000eae:	185b      	adds	r3, r3, r1
10000eb0:	3b03      	subs	r3, #3
10000eb2:	18c3      	adds	r3, r0, r3
10000eb4:	785f      	ldrb	r7, [r3, #1]
10000eb6:	46bc      	mov	ip, r7
10000eb8:	2f00      	cmp	r7, #0
10000eba:	d118      	bne.n	10000eee <ph_remove_head_reserve+0x66>
10000ebc:	9d01      	ldr	r5, [sp, #4]
10000ebe:	2d00      	cmp	r5, #0
10000ec0:	d140      	bne.n	10000f44 <ph_remove_head_reserve+0xbc>
10000ec2:	7be5      	ldrb	r5, [r4, #15]
10000ec4:	2d00      	cmp	r5, #0
10000ec6:	d004      	beq.n	10000ed2 <ph_remove_head_reserve+0x4a>
10000ec8:	006b      	lsls	r3, r5, #1
10000eca:	195b      	adds	r3, r3, r5
10000ecc:	18c3      	adds	r3, r0, r3
10000ece:	3b03      	subs	r3, #3
10000ed0:	705e      	strb	r6, [r3, #1]
10000ed2:	73e6      	strb	r6, [r4, #15]
10000ed4:	2900      	cmp	r1, #0
10000ed6:	d131      	bne.n	10000f3c <ph_remove_head_reserve+0xb4>
10000ed8:	2300      	movs	r3, #0
10000eda:	0030      	movs	r0, r6
10000edc:	7053      	strb	r3, [r2, #1]
10000ede:	7361      	strb	r1, [r4, #13]
10000ee0:	b003      	add	sp, #12
10000ee2:	bc3c      	pop	{r2, r3, r4, r5}
10000ee4:	4690      	mov	r8, r2
10000ee6:	4699      	mov	r9, r3
10000ee8:	46a2      	mov	sl, r4
10000eea:	46ab      	mov	fp, r5
10000eec:	bdf0      	pop	{r4, r5, r6, r7, pc}
10000eee:	007a      	lsls	r2, r7, #1
10000ef0:	4462      	add	r2, ip
10000ef2:	3a03      	subs	r2, #3
10000ef4:	1880      	adds	r0, r0, r2
10000ef6:	7842      	ldrb	r2, [r0, #1]
10000ef8:	4693      	mov	fp, r2
10000efa:	2200      	movs	r2, #0
10000efc:	7042      	strb	r2, [r0, #1]
10000efe:	4691      	mov	r9, r2
10000f00:	705a      	strb	r2, [r3, #1]
10000f02:	0020      	movs	r0, r4
10000f04:	003a      	movs	r2, r7
10000f06:	f7ff fe95 	bl	10000c34 <ph_merge_nodes>
10000f0a:	465b      	mov	r3, fp
10000f0c:	4680      	mov	r8, r0
10000f0e:	2b00      	cmp	r3, #0
10000f10:	d007      	beq.n	10000f22 <ph_remove_head_reserve+0x9a>
10000f12:	005b      	lsls	r3, r3, #1
10000f14:	6821      	ldr	r1, [r4, #0]
10000f16:	445b      	add	r3, fp
10000f18:	3b03      	subs	r3, #3
10000f1a:	18cb      	adds	r3, r1, r3
10000f1c:	785a      	ldrb	r2, [r3, #1]
10000f1e:	2a00      	cmp	r2, #0
10000f20:	d117      	bne.n	10000f52 <ph_remove_head_reserve+0xca>
10000f22:	465a      	mov	r2, fp
10000f24:	4641      	mov	r1, r8
10000f26:	0020      	movs	r0, r4
10000f28:	f7ff fe84 	bl	10000c34 <ph_merge_nodes>
10000f2c:	9b01      	ldr	r3, [sp, #4]
10000f2e:	0001      	movs	r1, r0
10000f30:	6820      	ldr	r0, [r4, #0]
10000f32:	1942      	adds	r2, r0, r5
10000f34:	2b00      	cmp	r3, #0
10000f36:	d0c4      	beq.n	10000ec2 <ph_remove_head_reserve+0x3a>
10000f38:	2900      	cmp	r1, #0
10000f3a:	d0cd      	beq.n	10000ed8 <ph_remove_head_reserve+0x50>
10000f3c:	004b      	lsls	r3, r1, #1
10000f3e:	185b      	adds	r3, r3, r1
10000f40:	3b03      	subs	r3, #3
10000f42:	18c3      	adds	r3, r0, r3
10000f44:	2000      	movs	r0, #0
10000f46:	7098      	strb	r0, [r3, #2]
10000f48:	e7c6      	b.n	10000ed8 <ph_remove_head_reserve+0x50>
10000f4a:	9b01      	ldr	r3, [sp, #4]
10000f4c:	2b00      	cmp	r3, #0
10000f4e:	d1c3      	bne.n	10000ed8 <ph_remove_head_reserve+0x50>
10000f50:	e7b7      	b.n	10000ec2 <ph_remove_head_reserve+0x3a>
10000f52:	0050      	lsls	r0, r2, #1
10000f54:	1880      	adds	r0, r0, r2
10000f56:	3803      	subs	r0, #3
10000f58:	1809      	adds	r1, r1, r0
10000f5a:	7848      	ldrb	r0, [r1, #1]
10000f5c:	4682      	mov	sl, r0
10000f5e:	4648      	mov	r0, r9
10000f60:	7048      	strb	r0, [r1, #1]
10000f62:	7058      	strb	r0, [r3, #1]
10000f64:	4659      	mov	r1, fp
10000f66:	0020      	movs	r0, r4
10000f68:	f7ff fe64 	bl	10000c34 <ph_merge_nodes>
10000f6c:	4653      	mov	r3, sl
10000f6e:	4683      	mov	fp, r0
10000f70:	2b00      	cmp	r3, #0
10000f72:	d007      	beq.n	10000f84 <ph_remove_head_reserve+0xfc>
10000f74:	005b      	lsls	r3, r3, #1
10000f76:	6821      	ldr	r1, [r4, #0]
10000f78:	4453      	add	r3, sl
10000f7a:	3b03      	subs	r3, #3
10000f7c:	18cb      	adds	r3, r1, r3
10000f7e:	785a      	ldrb	r2, [r3, #1]
10000f80:	2a00      	cmp	r2, #0
10000f82:	d106      	bne.n	10000f92 <ph_remove_head_reserve+0x10a>
10000f84:	4659      	mov	r1, fp
10000f86:	4652      	mov	r2, sl
10000f88:	0020      	movs	r0, r4
10000f8a:	f7ff fe53 	bl	10000c34 <ph_merge_nodes>
10000f8e:	4683      	mov	fp, r0
10000f90:	e7c7      	b.n	10000f22 <ph_remove_head_reserve+0x9a>
10000f92:	0050      	lsls	r0, r2, #1
10000f94:	1880      	adds	r0, r0, r2
10000f96:	3803      	subs	r0, #3
10000f98:	1809      	adds	r1, r1, r0
10000f9a:	4648      	mov	r0, r9
10000f9c:	784f      	ldrb	r7, [r1, #1]
10000f9e:	7048      	strb	r0, [r1, #1]
10000fa0:	7058      	strb	r0, [r3, #1]
10000fa2:	4651      	mov	r1, sl
10000fa4:	0020      	movs	r0, r4
10000fa6:	f7ff fe45 	bl	10000c34 <ph_merge_nodes>
10000faa:	0039      	movs	r1, r7
10000fac:	4681      	mov	r9, r0
10000fae:	0020      	movs	r0, r4
10000fb0:	f7ff fea6 	bl	10000d00 <ph_merge_two_pass>
10000fb4:	4649      	mov	r1, r9
10000fb6:	0002      	movs	r2, r0
10000fb8:	0020      	movs	r0, r4
10000fba:	f7ff fe3b 	bl	10000c34 <ph_merge_nodes>
10000fbe:	4682      	mov	sl, r0
10000fc0:	e7e0      	b.n	10000f84 <ph_remove_head_reserve+0xfc>
10000fc2:	46c0      	nop			; (mov r8, r8)

10000fc4 <ph_delete>:
10000fc4:	b570      	push	{r4, r5, r6, lr}
10000fc6:	0004      	movs	r4, r0
10000fc8:	2900      	cmp	r1, #0
10000fca:	d02c      	beq.n	10001026 <ph_delete+0x62>
10000fcc:	7b43      	ldrb	r3, [r0, #13]
10000fce:	428b      	cmp	r3, r1
10000fd0:	d02e      	beq.n	10001030 <ph_delete+0x6c>
10000fd2:	6805      	ldr	r5, [r0, #0]
10000fd4:	0048      	lsls	r0, r1, #1
10000fd6:	1840      	adds	r0, r0, r1
10000fd8:	3803      	subs	r0, #3
10000fda:	1828      	adds	r0, r5, r0
10000fdc:	7882      	ldrb	r2, [r0, #2]
10000fde:	2a00      	cmp	r2, #0
10000fe0:	d021      	beq.n	10001026 <ph_delete+0x62>
10000fe2:	0053      	lsls	r3, r2, #1
10000fe4:	189b      	adds	r3, r3, r2
10000fe6:	3b03      	subs	r3, #3
10000fe8:	5cea      	ldrb	r2, [r5, r3]
10000fea:	18ee      	adds	r6, r5, r3
10000fec:	428a      	cmp	r2, r1
10000fee:	d102      	bne.n	10000ff6 <ph_delete+0x32>
10000ff0:	e01b      	b.n	1000102a <ph_delete+0x66>
10000ff2:	2a00      	cmp	r2, #0
10000ff4:	d008      	beq.n	10001008 <ph_delete+0x44>
10000ff6:	0053      	lsls	r3, r2, #1
10000ff8:	189b      	adds	r3, r3, r2
10000ffa:	3b03      	subs	r3, #3
10000ffc:	18eb      	adds	r3, r5, r3
10000ffe:	785a      	ldrb	r2, [r3, #1]
10001000:	428a      	cmp	r2, r1
10001002:	d1f6      	bne.n	10000ff2 <ph_delete+0x2e>
10001004:	7842      	ldrb	r2, [r0, #1]
10001006:	705a      	strb	r2, [r3, #1]
10001008:	2300      	movs	r3, #0
1000100a:	2200      	movs	r2, #0
1000100c:	7083      	strb	r3, [r0, #2]
1000100e:	7043      	strb	r3, [r0, #1]
10001010:	0020      	movs	r0, r4
10001012:	f7ff febd 	bl	10000d90 <ph_remove_any_head>
10001016:	7b61      	ldrb	r1, [r4, #13]
10001018:	0002      	movs	r2, r0
1000101a:	0020      	movs	r0, r4
1000101c:	f7ff fe0a 	bl	10000c34 <ph_merge_nodes>
10001020:	7360      	strb	r0, [r4, #13]
10001022:	2001      	movs	r0, #1
10001024:	e000      	b.n	10001028 <ph_delete+0x64>
10001026:	2000      	movs	r0, #0
10001028:	bd70      	pop	{r4, r5, r6, pc}
1000102a:	7843      	ldrb	r3, [r0, #1]
1000102c:	7033      	strb	r3, [r6, #0]
1000102e:	e7eb      	b.n	10001008 <ph_delete+0x44>
10001030:	2200      	movs	r2, #0
10001032:	0019      	movs	r1, r3
10001034:	f7ff feac 	bl	10000d90 <ph_remove_any_head>
10001038:	7360      	strb	r0, [r4, #13]
1000103a:	2001      	movs	r0, #1
1000103c:	e7f4      	b.n	10001028 <ph_delete+0x64>
1000103e:	46c0      	nop			; (mov r8, r8)

10001040 <runtime_init>:
10001040:	4b2b      	ldr	r3, [pc, #172]	; (100010f0 <runtime_init+0xb0>)
10001042:	4a2c      	ldr	r2, [pc, #176]	; (100010f4 <runtime_init+0xb4>)
10001044:	b570      	push	{r4, r5, r6, lr}
10001046:	601a      	str	r2, [r3, #0]
10001048:	4a2b      	ldr	r2, [pc, #172]	; (100010f8 <runtime_init+0xb8>)
1000104a:	4b2c      	ldr	r3, [pc, #176]	; (100010fc <runtime_init+0xbc>)
1000104c:	492c      	ldr	r1, [pc, #176]	; (10001100 <runtime_init+0xc0>)
1000104e:	601a      	str	r2, [r3, #0]
10001050:	0010      	movs	r0, r2
10001052:	688b      	ldr	r3, [r1, #8]
10001054:	4398      	bics	r0, r3
10001056:	d1fb      	bne.n	10001050 <runtime_init+0x10>
10001058:	4c2a      	ldr	r4, [pc, #168]	; (10001104 <runtime_init+0xc4>)
1000105a:	4b2b      	ldr	r3, [pc, #172]	; (10001108 <runtime_init+0xc8>)
1000105c:	429c      	cmp	r4, r3
1000105e:	d209      	bcs.n	10001074 <runtime_init+0x34>
10001060:	3b01      	subs	r3, #1
10001062:	1b1d      	subs	r5, r3, r4
10001064:	08ad      	lsrs	r5, r5, #2
10001066:	3501      	adds	r5, #1
10001068:	00ad      	lsls	r5, r5, #2
1000106a:	192d      	adds	r5, r5, r4
1000106c:	cc08      	ldmia	r4!, {r3}
1000106e:	4798      	blx	r3
10001070:	42ac      	cmp	r4, r5
10001072:	d1fb      	bne.n	1000106c <runtime_init+0x2c>
10001074:	f000 f894 	bl	100011a0 <clocks_init>
10001078:	4a24      	ldr	r2, [pc, #144]	; (1000110c <runtime_init+0xcc>)
1000107a:	4b20      	ldr	r3, [pc, #128]	; (100010fc <runtime_init+0xbc>)
1000107c:	601a      	str	r2, [r3, #0]
1000107e:	4a20      	ldr	r2, [pc, #128]	; (10001100 <runtime_init+0xc0>)
10001080:	6893      	ldr	r3, [r2, #8]
10001082:	01db      	lsls	r3, r3, #7
10001084:	3380      	adds	r3, #128	; 0x80
10001086:	d1fb      	bne.n	10001080 <runtime_init+0x40>
10001088:	2240      	movs	r2, #64	; 0x40
1000108a:	4b21      	ldr	r3, [pc, #132]	; (10001110 <runtime_init+0xd0>)
1000108c:	4c21      	ldr	r4, [pc, #132]	; (10001114 <runtime_init+0xd4>)
1000108e:	679a      	str	r2, [r3, #120]	; 0x78
10001090:	675a      	str	r2, [r3, #116]	; 0x74
10001092:	671a      	str	r2, [r3, #112]	; 0x70
10001094:	66da      	str	r2, [r3, #108]	; 0x6c
10001096:	4b20      	ldr	r3, [pc, #128]	; (10001118 <runtime_init+0xd8>)
10001098:	429c      	cmp	r4, r3
1000109a:	d20b      	bcs.n	100010b4 <runtime_init+0x74>
1000109c:	3b01      	subs	r3, #1
1000109e:	1b1d      	subs	r5, r3, r4
100010a0:	08ed      	lsrs	r5, r5, #3
100010a2:	3501      	adds	r5, #1
100010a4:	00ed      	lsls	r5, r5, #3
100010a6:	192d      	adds	r5, r5, r4
100010a8:	0020      	movs	r0, r4
100010aa:	3408      	adds	r4, #8
100010ac:	f7ff fdb6 	bl	10000c1c <mutex_init>
100010b0:	42ac      	cmp	r4, r5
100010b2:	d1f9      	bne.n	100010a8 <runtime_init+0x68>
100010b4:	4c19      	ldr	r4, [pc, #100]	; (1000111c <runtime_init+0xdc>)
100010b6:	4d1a      	ldr	r5, [pc, #104]	; (10001120 <runtime_init+0xe0>)
100010b8:	68a1      	ldr	r1, [r4, #8]
100010ba:	22c0      	movs	r2, #192	; 0xc0
100010bc:	0028      	movs	r0, r5
100010be:	f002 fe23 	bl	10003d08 <__wrap___aeabi_memcpy>
100010c2:	60a5      	str	r5, [r4, #8]
100010c4:	f7ff f9fe 	bl	100004c4 <spin_locks_reset>
100010c8:	f000 fbaa 	bl	10001820 <irq_init_priorities>
100010cc:	f7ff fc28 	bl	10000920 <alarm_pool_init_default>
100010d0:	4c14      	ldr	r4, [pc, #80]	; (10001124 <runtime_init+0xe4>)
100010d2:	4b15      	ldr	r3, [pc, #84]	; (10001128 <runtime_init+0xe8>)
100010d4:	429c      	cmp	r4, r3
100010d6:	d209      	bcs.n	100010ec <runtime_init+0xac>
100010d8:	3b01      	subs	r3, #1
100010da:	1b1d      	subs	r5, r3, r4
100010dc:	08ad      	lsrs	r5, r5, #2
100010de:	3501      	adds	r5, #1
100010e0:	00ad      	lsls	r5, r5, #2
100010e2:	192d      	adds	r5, r5, r4
100010e4:	cc08      	ldmia	r4!, {r3}
100010e6:	4798      	blx	r3
100010e8:	42a5      	cmp	r5, r4
100010ea:	d1fb      	bne.n	100010e4 <runtime_init+0xa4>
100010ec:	bd70      	pop	{r4, r5, r6, pc}
100010ee:	46c0      	nop			; (mov r8, r8)
100010f0:	4000e000 	.word	0x4000e000
100010f4:	ffffcdbf 	.word	0xffffcdbf
100010f8:	003c7ffe 	.word	0x003c7ffe
100010fc:	4000f000 	.word	0x4000f000
10001100:	4000c000 	.word	0x4000c000
10001104:	20000b98 	.word	0x20000b98
10001108:	20000ba8 	.word	0x20000ba8
1000110c:	01ffffff 	.word	0x01ffffff
10001110:	4001f000 	.word	0x4001f000
10001114:	20000b90 	.word	0x20000b90
10001118:	20000b98 	.word	0x20000b98
1000111c:	e000ed00 	.word	0xe000ed00
10001120:	20000000 	.word	0x20000000
10001124:	20000ba8 	.word	0x20000ba8
10001128:	20000bac 	.word	0x20000bac

1000112c <_sbrk>:
1000112c:	4a09      	ldr	r2, [pc, #36]	; (10001154 <_sbrk+0x28>)
1000112e:	0003      	movs	r3, r0
10001130:	6810      	ldr	r0, [r2, #0]
10001132:	2800      	cmp	r0, #0
10001134:	d005      	beq.n	10001142 <_sbrk+0x16>
10001136:	4908      	ldr	r1, [pc, #32]	; (10001158 <_sbrk+0x2c>)
10001138:	18c3      	adds	r3, r0, r3
1000113a:	428b      	cmp	r3, r1
1000113c:	d207      	bcs.n	1000114e <_sbrk+0x22>
1000113e:	6013      	str	r3, [r2, #0]
10001140:	4770      	bx	lr
10001142:	4806      	ldr	r0, [pc, #24]	; (1000115c <_sbrk+0x30>)
10001144:	4904      	ldr	r1, [pc, #16]	; (10001158 <_sbrk+0x2c>)
10001146:	18c3      	adds	r3, r0, r3
10001148:	6010      	str	r0, [r2, #0]
1000114a:	428b      	cmp	r3, r1
1000114c:	d3f7      	bcc.n	1000113e <_sbrk+0x12>
1000114e:	2001      	movs	r0, #1
10001150:	4240      	negs	r0, r0
10001152:	e7f5      	b.n	10001140 <_sbrk+0x14>
10001154:	20000d40 	.word	0x20000d40
10001158:	20040000 	.word	0x20040000
1000115c:	20000f9c 	.word	0x20000f9c

10001160 <exit>:
10001160:	be00      	bkpt	0x0000
10001162:	e7fd      	b.n	10001160 <exit>

10001164 <panic>:
10001164:	b40f      	push	{r0, r1, r2, r3}
10001166:	b500      	push	{lr}
10001168:	4808      	ldr	r0, [pc, #32]	; (1000118c <panic+0x28>)
1000116a:	b083      	sub	sp, #12
1000116c:	f002 fede 	bl	10003f2c <__wrap_puts>
10001170:	9b04      	ldr	r3, [sp, #16]
10001172:	2b00      	cmp	r3, #0
10001174:	d007      	beq.n	10001186 <panic+0x22>
10001176:	a905      	add	r1, sp, #20
10001178:	0018      	movs	r0, r3
1000117a:	9101      	str	r1, [sp, #4]
1000117c:	f001 fe78 	bl	10002e70 <weak_raw_vprintf>
10001180:	4803      	ldr	r0, [pc, #12]	; (10001190 <panic+0x2c>)
10001182:	f002 fed3 	bl	10003f2c <__wrap_puts>
10001186:	be00      	bkpt	0x0000
10001188:	e7fd      	b.n	10001186 <panic+0x22>
1000118a:	46c0      	nop			; (mov r8, r8)
1000118c:	10004be4 	.word	0x10004be4
10001190:	10004bf4 	.word	0x10004bf4

10001194 <hard_assertion_failure>:
10001194:	b510      	push	{r4, lr}
10001196:	4801      	ldr	r0, [pc, #4]	; (1000119c <hard_assertion_failure+0x8>)
10001198:	f7ff ffe4 	bl	10001164 <panic>
1000119c:	10004bf8 	.word	0x10004bf8

100011a0 <clocks_init>:
100011a0:	b530      	push	{r4, r5, lr}
100011a2:	200c      	movs	r0, #12
100011a4:	b083      	sub	sp, #12
100011a6:	f000 f971 	bl	1000148c <watchdog_start_tick>
100011aa:	f7ff f9a5 	bl	100004f8 <running_on_fpga>
100011ae:	2800      	cmp	r0, #0
100011b0:	d00e      	beq.n	100011d0 <clocks_init+0x30>
100011b2:	4b9a      	ldr	r3, [pc, #616]	; (1000141c <clocks_init+0x27c>)
100011b4:	4a9a      	ldr	r2, [pc, #616]	; (10001420 <clocks_init+0x280>)
100011b6:	601a      	str	r2, [r3, #0]
100011b8:	605a      	str	r2, [r3, #4]
100011ba:	609a      	str	r2, [r3, #8]
100011bc:	60da      	str	r2, [r3, #12]
100011be:	611a      	str	r2, [r3, #16]
100011c0:	615a      	str	r2, [r3, #20]
100011c2:	619a      	str	r2, [r3, #24]
100011c4:	61da      	str	r2, [r3, #28]
100011c6:	621a      	str	r2, [r3, #32]
100011c8:	4a96      	ldr	r2, [pc, #600]	; (10001424 <clocks_init+0x284>)
100011ca:	625a      	str	r2, [r3, #36]	; 0x24
100011cc:	b003      	add	sp, #12
100011ce:	bd30      	pop	{r4, r5, pc}
100011d0:	4c95      	ldr	r4, [pc, #596]	; (10001428 <clocks_init+0x288>)
100011d2:	67a0      	str	r0, [r4, #120]	; 0x78
100011d4:	f000 f962 	bl	1000149c <xosc_init>
100011d8:	2201      	movs	r2, #1
100011da:	4b94      	ldr	r3, [pc, #592]	; (1000142c <clocks_init+0x28c>)
100011dc:	601a      	str	r2, [r3, #0]
100011de:	6c63      	ldr	r3, [r4, #68]	; 0x44
100011e0:	2b01      	cmp	r3, #1
100011e2:	d1fc      	bne.n	100011de <clocks_init+0x3e>
100011e4:	2203      	movs	r2, #3
100011e6:	4b92      	ldr	r3, [pc, #584]	; (10001430 <clocks_init+0x290>)
100011e8:	601a      	str	r2, [r3, #0]
100011ea:	4a8f      	ldr	r2, [pc, #572]	; (10001428 <clocks_init+0x288>)
100011ec:	6b93      	ldr	r3, [r2, #56]	; 0x38
100011ee:	2b01      	cmp	r3, #1
100011f0:	d1fc      	bne.n	100011ec <clocks_init+0x4c>
100011f2:	22c0      	movs	r2, #192	; 0xc0
100011f4:	4b8f      	ldr	r3, [pc, #572]	; (10001434 <clocks_init+0x294>)
100011f6:	0192      	lsls	r2, r2, #6
100011f8:	601a      	str	r2, [r3, #0]
100011fa:	4b8f      	ldr	r3, [pc, #572]	; (10001438 <clocks_init+0x298>)
100011fc:	498f      	ldr	r1, [pc, #572]	; (1000143c <clocks_init+0x29c>)
100011fe:	601a      	str	r2, [r3, #0]
10001200:	0010      	movs	r0, r2
10001202:	688b      	ldr	r3, [r1, #8]
10001204:	4398      	bics	r0, r3
10001206:	1e03      	subs	r3, r0, #0
10001208:	d1fa      	bne.n	10001200 <clocks_init+0x60>
1000120a:	2402      	movs	r4, #2
1000120c:	2101      	movs	r1, #1
1000120e:	4a8c      	ldr	r2, [pc, #560]	; (10001440 <clocks_init+0x2a0>)
10001210:	488c      	ldr	r0, [pc, #560]	; (10001444 <clocks_init+0x2a4>)
10001212:	3306      	adds	r3, #6
10001214:	9400      	str	r4, [sp, #0]
10001216:	f000 f955 	bl	100014c4 <pll_init>
1000121a:	2305      	movs	r3, #5
1000121c:	4a8a      	ldr	r2, [pc, #552]	; (10001448 <clocks_init+0x2a8>)
1000121e:	2101      	movs	r1, #1
10001220:	488a      	ldr	r0, [pc, #552]	; (1000144c <clocks_init+0x2ac>)
10001222:	9400      	str	r4, [sp, #0]
10001224:	f000 f94e 	bl	100014c4 <pll_init>
10001228:	4b89      	ldr	r3, [pc, #548]	; (10001450 <clocks_init+0x2b0>)
1000122a:	685a      	ldr	r2, [r3, #4]
1000122c:	2aff      	cmp	r2, #255	; 0xff
1000122e:	d802      	bhi.n	10001236 <clocks_init+0x96>
10001230:	2280      	movs	r2, #128	; 0x80
10001232:	0052      	lsls	r2, r2, #1
10001234:	605a      	str	r2, [r3, #4]
10001236:	2280      	movs	r2, #128	; 0x80
10001238:	4c78      	ldr	r4, [pc, #480]	; (1000141c <clocks_init+0x27c>)
1000123a:	4b7d      	ldr	r3, [pc, #500]	; (10001430 <clocks_init+0x290>)
1000123c:	6921      	ldr	r1, [r4, #16]
1000123e:	0112      	lsls	r2, r2, #4
10001240:	4d83      	ldr	r5, [pc, #524]	; (10001450 <clocks_init+0x2b0>)
10001242:	601a      	str	r2, [r3, #0]
10001244:	2900      	cmp	r1, #0
10001246:	d005      	beq.n	10001254 <clocks_init+0xb4>
10001248:	6960      	ldr	r0, [r4, #20]
1000124a:	f001 fe8b 	bl	10002f64 <__wrap___aeabi_uidiv>
1000124e:	3001      	adds	r0, #1
10001250:	3801      	subs	r0, #1
10001252:	d1fd      	bne.n	10001250 <clocks_init+0xb0>
10001254:	21e0      	movs	r1, #224	; 0xe0
10001256:	4b7e      	ldr	r3, [pc, #504]	; (10001450 <clocks_init+0x2b0>)
10001258:	2002      	movs	r0, #2
1000125a:	681a      	ldr	r2, [r3, #0]
1000125c:	4011      	ands	r1, r2
1000125e:	2280      	movs	r2, #128	; 0x80
10001260:	0152      	lsls	r2, r2, #5
10001262:	432a      	orrs	r2, r5
10001264:	6011      	str	r1, [r2, #0]
10001266:	6819      	ldr	r1, [r3, #0]
10001268:	4048      	eors	r0, r1
1000126a:	2103      	movs	r1, #3
1000126c:	4001      	ands	r1, r0
1000126e:	6011      	str	r1, [r2, #0]
10001270:	2104      	movs	r1, #4
10001272:	689a      	ldr	r2, [r3, #8]
10001274:	4211      	tst	r1, r2
10001276:	d0fc      	beq.n	10001272 <clocks_init+0xd2>
10001278:	2280      	movs	r2, #128	; 0x80
1000127a:	2180      	movs	r1, #128	; 0x80
1000127c:	0192      	lsls	r2, r2, #6
1000127e:	432a      	orrs	r2, r5
10001280:	0109      	lsls	r1, r1, #4
10001282:	6011      	str	r1, [r2, #0]
10001284:	2280      	movs	r2, #128	; 0x80
10001286:	0052      	lsls	r2, r2, #1
10001288:	605a      	str	r2, [r3, #4]
1000128a:	4b72      	ldr	r3, [pc, #456]	; (10001454 <clocks_init+0x2b4>)
1000128c:	6123      	str	r3, [r4, #16]
1000128e:	4b72      	ldr	r3, [pc, #456]	; (10001458 <clocks_init+0x2b8>)
10001290:	6859      	ldr	r1, [r3, #4]
10001292:	29ff      	cmp	r1, #255	; 0xff
10001294:	d800      	bhi.n	10001298 <clocks_init+0xf8>
10001296:	605a      	str	r2, [r3, #4]
10001298:	2203      	movs	r2, #3
1000129a:	486f      	ldr	r0, [pc, #444]	; (10001458 <clocks_init+0x2b8>)
1000129c:	4b63      	ldr	r3, [pc, #396]	; (1000142c <clocks_init+0x28c>)
1000129e:	2101      	movs	r1, #1
100012a0:	601a      	str	r2, [r3, #0]
100012a2:	0002      	movs	r2, r0
100012a4:	6893      	ldr	r3, [r2, #8]
100012a6:	4219      	tst	r1, r3
100012a8:	d0fc      	beq.n	100012a4 <clocks_init+0x104>
100012aa:	25e0      	movs	r5, #224	; 0xe0
100012ac:	6813      	ldr	r3, [r2, #0]
100012ae:	401d      	ands	r5, r3
100012b0:	2380      	movs	r3, #128	; 0x80
100012b2:	015b      	lsls	r3, r3, #5
100012b4:	4303      	orrs	r3, r0
100012b6:	601d      	str	r5, [r3, #0]
100012b8:	6812      	ldr	r2, [r2, #0]
100012ba:	404a      	eors	r2, r1
100012bc:	2103      	movs	r1, #3
100012be:	4011      	ands	r1, r2
100012c0:	6019      	str	r1, [r3, #0]
100012c2:	2102      	movs	r1, #2
100012c4:	4a64      	ldr	r2, [pc, #400]	; (10001458 <clocks_init+0x2b8>)
100012c6:	6893      	ldr	r3, [r2, #8]
100012c8:	4219      	tst	r1, r3
100012ca:	d0fc      	beq.n	100012c6 <clocks_init+0x126>
100012cc:	2380      	movs	r3, #128	; 0x80
100012ce:	2180      	movs	r1, #128	; 0x80
100012d0:	019b      	lsls	r3, r3, #6
100012d2:	4303      	orrs	r3, r0
100012d4:	0109      	lsls	r1, r1, #4
100012d6:	6019      	str	r1, [r3, #0]
100012d8:	2180      	movs	r1, #128	; 0x80
100012da:	4b60      	ldr	r3, [pc, #384]	; (1000145c <clocks_init+0x2bc>)
100012dc:	0049      	lsls	r1, r1, #1
100012de:	6051      	str	r1, [r2, #4]
100012e0:	6163      	str	r3, [r4, #20]
100012e2:	4b5f      	ldr	r3, [pc, #380]	; (10001460 <clocks_init+0x2c0>)
100012e4:	685a      	ldr	r2, [r3, #4]
100012e6:	2aff      	cmp	r2, #255	; 0xff
100012e8:	d800      	bhi.n	100012ec <clocks_init+0x14c>
100012ea:	6059      	str	r1, [r3, #4]
100012ec:	2280      	movs	r2, #128	; 0x80
100012ee:	4b5d      	ldr	r3, [pc, #372]	; (10001464 <clocks_init+0x2c4>)
100012f0:	69e1      	ldr	r1, [r4, #28]
100012f2:	0112      	lsls	r2, r2, #4
100012f4:	4d5a      	ldr	r5, [pc, #360]	; (10001460 <clocks_init+0x2c0>)
100012f6:	601a      	str	r2, [r3, #0]
100012f8:	2900      	cmp	r1, #0
100012fa:	d005      	beq.n	10001308 <clocks_init+0x168>
100012fc:	6960      	ldr	r0, [r4, #20]
100012fe:	f001 fe31 	bl	10002f64 <__wrap___aeabi_uidiv>
10001302:	3001      	adds	r0, #1
10001304:	3801      	subs	r0, #1
10001306:	d1fd      	bne.n	10001304 <clocks_init+0x164>
10001308:	22e0      	movs	r2, #224	; 0xe0
1000130a:	4955      	ldr	r1, [pc, #340]	; (10001460 <clocks_init+0x2c0>)
1000130c:	680b      	ldr	r3, [r1, #0]
1000130e:	401a      	ands	r2, r3
10001310:	2380      	movs	r3, #128	; 0x80
10001312:	015b      	lsls	r3, r3, #5
10001314:	432b      	orrs	r3, r5
10001316:	601a      	str	r2, [r3, #0]
10001318:	2380      	movs	r3, #128	; 0x80
1000131a:	2280      	movs	r2, #128	; 0x80
1000131c:	019b      	lsls	r3, r3, #6
1000131e:	432b      	orrs	r3, r5
10001320:	0112      	lsls	r2, r2, #4
10001322:	601a      	str	r2, [r3, #0]
10001324:	2280      	movs	r2, #128	; 0x80
10001326:	4b3e      	ldr	r3, [pc, #248]	; (10001420 <clocks_init+0x280>)
10001328:	0052      	lsls	r2, r2, #1
1000132a:	604a      	str	r2, [r1, #4]
1000132c:	61e3      	str	r3, [r4, #28]
1000132e:	4b4e      	ldr	r3, [pc, #312]	; (10001468 <clocks_init+0x2c8>)
10001330:	6859      	ldr	r1, [r3, #4]
10001332:	29ff      	cmp	r1, #255	; 0xff
10001334:	d800      	bhi.n	10001338 <clocks_init+0x198>
10001336:	605a      	str	r2, [r3, #4]
10001338:	2280      	movs	r2, #128	; 0x80
1000133a:	4b4c      	ldr	r3, [pc, #304]	; (1000146c <clocks_init+0x2cc>)
1000133c:	6a21      	ldr	r1, [r4, #32]
1000133e:	0112      	lsls	r2, r2, #4
10001340:	4d49      	ldr	r5, [pc, #292]	; (10001468 <clocks_init+0x2c8>)
10001342:	601a      	str	r2, [r3, #0]
10001344:	2900      	cmp	r1, #0
10001346:	d005      	beq.n	10001354 <clocks_init+0x1b4>
10001348:	6960      	ldr	r0, [r4, #20]
1000134a:	f001 fe0b 	bl	10002f64 <__wrap___aeabi_uidiv>
1000134e:	3001      	adds	r0, #1
10001350:	3801      	subs	r0, #1
10001352:	d1fd      	bne.n	10001350 <clocks_init+0x1b0>
10001354:	22e0      	movs	r2, #224	; 0xe0
10001356:	4944      	ldr	r1, [pc, #272]	; (10001468 <clocks_init+0x2c8>)
10001358:	680b      	ldr	r3, [r1, #0]
1000135a:	401a      	ands	r2, r3
1000135c:	2380      	movs	r3, #128	; 0x80
1000135e:	015b      	lsls	r3, r3, #5
10001360:	432b      	orrs	r3, r5
10001362:	601a      	str	r2, [r3, #0]
10001364:	2380      	movs	r3, #128	; 0x80
10001366:	2280      	movs	r2, #128	; 0x80
10001368:	019b      	lsls	r3, r3, #6
1000136a:	432b      	orrs	r3, r5
1000136c:	0112      	lsls	r2, r2, #4
1000136e:	601a      	str	r2, [r3, #0]
10001370:	2380      	movs	r3, #128	; 0x80
10001372:	2280      	movs	r2, #128	; 0x80
10001374:	005b      	lsls	r3, r3, #1
10001376:	604b      	str	r3, [r1, #4]
10001378:	4b29      	ldr	r3, [pc, #164]	; (10001420 <clocks_init+0x280>)
1000137a:	02d2      	lsls	r2, r2, #11
1000137c:	6223      	str	r3, [r4, #32]
1000137e:	4b3c      	ldr	r3, [pc, #240]	; (10001470 <clocks_init+0x2d0>)
10001380:	6859      	ldr	r1, [r3, #4]
10001382:	4291      	cmp	r1, r2
10001384:	d200      	bcs.n	10001388 <clocks_init+0x1e8>
10001386:	605a      	str	r2, [r3, #4]
10001388:	2280      	movs	r2, #128	; 0x80
1000138a:	4b3a      	ldr	r3, [pc, #232]	; (10001474 <clocks_init+0x2d4>)
1000138c:	6a61      	ldr	r1, [r4, #36]	; 0x24
1000138e:	0112      	lsls	r2, r2, #4
10001390:	4d37      	ldr	r5, [pc, #220]	; (10001470 <clocks_init+0x2d0>)
10001392:	601a      	str	r2, [r3, #0]
10001394:	2900      	cmp	r1, #0
10001396:	d005      	beq.n	100013a4 <clocks_init+0x204>
10001398:	6960      	ldr	r0, [r4, #20]
1000139a:	f001 fde3 	bl	10002f64 <__wrap___aeabi_uidiv>
1000139e:	3001      	adds	r0, #1
100013a0:	3801      	subs	r0, #1
100013a2:	d1fd      	bne.n	100013a0 <clocks_init+0x200>
100013a4:	22e0      	movs	r2, #224	; 0xe0
100013a6:	4932      	ldr	r1, [pc, #200]	; (10001470 <clocks_init+0x2d0>)
100013a8:	680b      	ldr	r3, [r1, #0]
100013aa:	401a      	ands	r2, r3
100013ac:	2380      	movs	r3, #128	; 0x80
100013ae:	015b      	lsls	r3, r3, #5
100013b0:	432b      	orrs	r3, r5
100013b2:	601a      	str	r2, [r3, #0]
100013b4:	2380      	movs	r3, #128	; 0x80
100013b6:	2280      	movs	r2, #128	; 0x80
100013b8:	019b      	lsls	r3, r3, #6
100013ba:	432b      	orrs	r3, r5
100013bc:	0112      	lsls	r2, r2, #4
100013be:	601a      	str	r2, [r3, #0]
100013c0:	2380      	movs	r3, #128	; 0x80
100013c2:	02db      	lsls	r3, r3, #11
100013c4:	604b      	str	r3, [r1, #4]
100013c6:	4b17      	ldr	r3, [pc, #92]	; (10001424 <clocks_init+0x284>)
100013c8:	6263      	str	r3, [r4, #36]	; 0x24
100013ca:	4b2b      	ldr	r3, [pc, #172]	; (10001478 <clocks_init+0x2d8>)
100013cc:	685a      	ldr	r2, [r3, #4]
100013ce:	2aff      	cmp	r2, #255	; 0xff
100013d0:	d802      	bhi.n	100013d8 <clocks_init+0x238>
100013d2:	2280      	movs	r2, #128	; 0x80
100013d4:	0052      	lsls	r2, r2, #1
100013d6:	605a      	str	r2, [r3, #4]
100013d8:	2280      	movs	r2, #128	; 0x80
100013da:	4b28      	ldr	r3, [pc, #160]	; (1000147c <clocks_init+0x2dc>)
100013dc:	69a1      	ldr	r1, [r4, #24]
100013de:	0112      	lsls	r2, r2, #4
100013e0:	4d25      	ldr	r5, [pc, #148]	; (10001478 <clocks_init+0x2d8>)
100013e2:	601a      	str	r2, [r3, #0]
100013e4:	2900      	cmp	r1, #0
100013e6:	d005      	beq.n	100013f4 <clocks_init+0x254>
100013e8:	6960      	ldr	r0, [r4, #20]
100013ea:	f001 fdbb 	bl	10002f64 <__wrap___aeabi_uidiv>
100013ee:	3001      	adds	r0, #1
100013f0:	3801      	subs	r0, #1
100013f2:	d1fd      	bne.n	100013f0 <clocks_init+0x250>
100013f4:	22e0      	movs	r2, #224	; 0xe0
100013f6:	4920      	ldr	r1, [pc, #128]	; (10001478 <clocks_init+0x2d8>)
100013f8:	680b      	ldr	r3, [r1, #0]
100013fa:	401a      	ands	r2, r3
100013fc:	2380      	movs	r3, #128	; 0x80
100013fe:	015b      	lsls	r3, r3, #5
10001400:	432b      	orrs	r3, r5
10001402:	601a      	str	r2, [r3, #0]
10001404:	2380      	movs	r3, #128	; 0x80
10001406:	2280      	movs	r2, #128	; 0x80
10001408:	019b      	lsls	r3, r3, #6
1000140a:	432b      	orrs	r3, r5
1000140c:	0112      	lsls	r2, r2, #4
1000140e:	601a      	str	r2, [r3, #0]
10001410:	2380      	movs	r3, #128	; 0x80
10001412:	005b      	lsls	r3, r3, #1
10001414:	604b      	str	r3, [r1, #4]
10001416:	4b11      	ldr	r3, [pc, #68]	; (1000145c <clocks_init+0x2bc>)
10001418:	61a3      	str	r3, [r4, #24]
1000141a:	e6d7      	b.n	100011cc <clocks_init+0x2c>
1000141c:	20000d0c 	.word	0x20000d0c
10001420:	02dc6c00 	.word	0x02dc6c00
10001424:	0000b71b 	.word	0x0000b71b
10001428:	40008000 	.word	0x40008000
1000142c:	4000b03c 	.word	0x4000b03c
10001430:	4000b030 	.word	0x4000b030
10001434:	4000e000 	.word	0x4000e000
10001438:	4000f000 	.word	0x4000f000
1000143c:	4000c000 	.word	0x4000c000
10001440:	59682f00 	.word	0x59682f00
10001444:	40028000 	.word	0x40028000
10001448:	1c9c3800 	.word	0x1c9c3800
1000144c:	4002c000 	.word	0x4002c000
10001450:	40008030 	.word	0x40008030
10001454:	00b71b00 	.word	0x00b71b00
10001458:	4000803c 	.word	0x4000803c
1000145c:	07735940 	.word	0x07735940
10001460:	40008054 	.word	0x40008054
10001464:	4000b054 	.word	0x4000b054
10001468:	40008060 	.word	0x40008060
1000146c:	4000b060 	.word	0x4000b060
10001470:	4000806c 	.word	0x4000806c
10001474:	4000b06c 	.word	0x4000b06c
10001478:	40008048 	.word	0x40008048
1000147c:	4000b048 	.word	0x4000b048

10001480 <clock_get_hz>:
10001480:	4b01      	ldr	r3, [pc, #4]	; (10001488 <clock_get_hz+0x8>)
10001482:	0080      	lsls	r0, r0, #2
10001484:	58c0      	ldr	r0, [r0, r3]
10001486:	4770      	bx	lr
10001488:	20000d0c 	.word	0x20000d0c

1000148c <watchdog_start_tick>:
1000148c:	2380      	movs	r3, #128	; 0x80
1000148e:	4a02      	ldr	r2, [pc, #8]	; (10001498 <watchdog_start_tick+0xc>)
10001490:	009b      	lsls	r3, r3, #2
10001492:	4303      	orrs	r3, r0
10001494:	62d3      	str	r3, [r2, #44]	; 0x2c
10001496:	4770      	bx	lr
10001498:	40058000 	.word	0x40058000

1000149c <xosc_init>:
1000149c:	23aa      	movs	r3, #170	; 0xaa
1000149e:	4a06      	ldr	r2, [pc, #24]	; (100014b8 <xosc_init+0x1c>)
100014a0:	011b      	lsls	r3, r3, #4
100014a2:	6013      	str	r3, [r2, #0]
100014a4:	232f      	movs	r3, #47	; 0x2f
100014a6:	4905      	ldr	r1, [pc, #20]	; (100014bc <xosc_init+0x20>)
100014a8:	60d3      	str	r3, [r2, #12]
100014aa:	4b05      	ldr	r3, [pc, #20]	; (100014c0 <xosc_init+0x24>)
100014ac:	6019      	str	r1, [r3, #0]
100014ae:	6853      	ldr	r3, [r2, #4]
100014b0:	2b00      	cmp	r3, #0
100014b2:	dafc      	bge.n	100014ae <xosc_init+0x12>
100014b4:	4770      	bx	lr
100014b6:	46c0      	nop			; (mov r8, r8)
100014b8:	40024000 	.word	0x40024000
100014bc:	00fab000 	.word	0x00fab000
100014c0:	40026000 	.word	0x40026000

100014c4 <pll_init>:
100014c4:	b5f8      	push	{r3, r4, r5, r6, r7, lr}
100014c6:	001d      	movs	r5, r3
100014c8:	ab06      	add	r3, sp, #24
100014ca:	781e      	ldrb	r6, [r3, #0]
100014cc:	2301      	movs	r3, #1
100014ce:	425b      	negs	r3, r3
100014d0:	6043      	str	r3, [r0, #4]
100014d2:	2300      	movs	r3, #0
100014d4:	0004      	movs	r4, r0
100014d6:	6083      	str	r3, [r0, #8]
100014d8:	6001      	str	r1, [r0, #0]
100014da:	200c      	movs	r0, #12
100014dc:	0017      	movs	r7, r2
100014de:	f001 fd41 	bl	10002f64 <__wrap___aeabi_uidiv>
100014e2:	0141      	lsls	r1, r0, #5
100014e4:	1a09      	subs	r1, r1, r0
100014e6:	018b      	lsls	r3, r1, #6
100014e8:	1a59      	subs	r1, r3, r1
100014ea:	00c9      	lsls	r1, r1, #3
100014ec:	1809      	adds	r1, r1, r0
100014ee:	0189      	lsls	r1, r1, #6
100014f0:	0038      	movs	r0, r7
100014f2:	f001 fd37 	bl	10002f64 <__wrap___aeabi_uidiv>
100014f6:	21c0      	movs	r1, #192	; 0xc0
100014f8:	1d23      	adds	r3, r4, #4
100014fa:	0189      	lsls	r1, r1, #6
100014fc:	4319      	orrs	r1, r3
100014fe:	2321      	movs	r3, #33	; 0x21
10001500:	60a0      	str	r0, [r4, #8]
10001502:	600b      	str	r3, [r1, #0]
10001504:	6822      	ldr	r2, [r4, #0]
10001506:	2a00      	cmp	r2, #0
10001508:	dafc      	bge.n	10001504 <pll_init+0x40>
1000150a:	2308      	movs	r3, #8
1000150c:	042d      	lsls	r5, r5, #16
1000150e:	0336      	lsls	r6, r6, #12
10001510:	432e      	orrs	r6, r5
10001512:	60e6      	str	r6, [r4, #12]
10001514:	600b      	str	r3, [r1, #0]
10001516:	bdf8      	pop	{r3, r4, r5, r6, r7, pc}

10001518 <irq_set_enabled>:
10001518:	2301      	movs	r3, #1
1000151a:	4083      	lsls	r3, r0
1000151c:	2900      	cmp	r1, #0
1000151e:	d004      	beq.n	1000152a <irq_set_enabled+0x12>
10001520:	4a03      	ldr	r2, [pc, #12]	; (10001530 <irq_set_enabled+0x18>)
10001522:	6013      	str	r3, [r2, #0]
10001524:	4a03      	ldr	r2, [pc, #12]	; (10001534 <irq_set_enabled+0x1c>)
10001526:	6013      	str	r3, [r2, #0]
10001528:	4770      	bx	lr
1000152a:	4a03      	ldr	r2, [pc, #12]	; (10001538 <irq_set_enabled+0x20>)
1000152c:	6013      	str	r3, [r2, #0]
1000152e:	e7fb      	b.n	10001528 <irq_set_enabled+0x10>
10001530:	e000e280 	.word	0xe000e280
10001534:	e000e100 	.word	0xe000e100
10001538:	e000e180 	.word	0xe000e180

1000153c <irq_get_vtable_handler>:
1000153c:	4b02      	ldr	r3, [pc, #8]	; (10001548 <irq_get_vtable_handler+0xc>)
1000153e:	3010      	adds	r0, #16
10001540:	689b      	ldr	r3, [r3, #8]
10001542:	0080      	lsls	r0, r0, #2
10001544:	58c0      	ldr	r0, [r0, r3]
10001546:	4770      	bx	lr
10001548:	e000ed00 	.word	0xe000ed00

1000154c <irq_set_exclusive_handler>:
1000154c:	b570      	push	{r4, r5, r6, lr}
1000154e:	000d      	movs	r5, r1
10001550:	f3ef 8610 	mrs	r6, PRIMASK
10001554:	b672      	cpsid	i
10001556:	4a0f      	ldr	r2, [pc, #60]	; (10001594 <irq_set_exclusive_handler+0x48>)
10001558:	6813      	ldr	r3, [r2, #0]
1000155a:	2b00      	cmp	r3, #0
1000155c:	d0fc      	beq.n	10001558 <irq_set_exclusive_handler+0xc>
1000155e:	f3bf 8f5f 	dmb	sy
10001562:	4b0d      	ldr	r3, [pc, #52]	; (10001598 <irq_set_exclusive_handler+0x4c>)
10001564:	3010      	adds	r0, #16
10001566:	689b      	ldr	r3, [r3, #8]
10001568:	0084      	lsls	r4, r0, #2
1000156a:	591b      	ldr	r3, [r3, r4]
1000156c:	4a0b      	ldr	r2, [pc, #44]	; (1000159c <irq_set_exclusive_handler+0x50>)
1000156e:	4293      	cmp	r3, r2
10001570:	d003      	beq.n	1000157a <irq_set_exclusive_handler+0x2e>
10001572:	429d      	cmp	r5, r3
10001574:	d001      	beq.n	1000157a <irq_set_exclusive_handler+0x2e>
10001576:	f7ff fe0d 	bl	10001194 <hard_assertion_failure>
1000157a:	4b07      	ldr	r3, [pc, #28]	; (10001598 <irq_set_exclusive_handler+0x4c>)
1000157c:	689b      	ldr	r3, [r3, #8]
1000157e:	511d      	str	r5, [r3, r4]
10001580:	f3bf 8f5f 	dmb	sy
10001584:	f3bf 8f5f 	dmb	sy
10001588:	2200      	movs	r2, #0
1000158a:	4b02      	ldr	r3, [pc, #8]	; (10001594 <irq_set_exclusive_handler+0x48>)
1000158c:	601a      	str	r2, [r3, #0]
1000158e:	f386 8810 	msr	PRIMASK, r6
10001592:	bd70      	pop	{r4, r5, r6, pc}
10001594:	d0000124 	.word	0xd0000124
10001598:	e000ed00 	.word	0xe000ed00
1000159c:	100002cd 	.word	0x100002cd

100015a0 <irq_remove_handler>:
100015a0:	b5f0      	push	{r4, r5, r6, r7, lr}
100015a2:	46de      	mov	lr, fp
100015a4:	4657      	mov	r7, sl
100015a6:	464e      	mov	r6, r9
100015a8:	4645      	mov	r5, r8
100015aa:	b5e0      	push	{r5, r6, r7, lr}
100015ac:	000c      	movs	r4, r1
100015ae:	b083      	sub	sp, #12
100015b0:	f3ef 8a10 	mrs	sl, PRIMASK
100015b4:	b672      	cpsid	i
100015b6:	4a5f      	ldr	r2, [pc, #380]	; (10001734 <irq_remove_handler+0x194>)
100015b8:	6813      	ldr	r3, [r2, #0]
100015ba:	2b00      	cmp	r3, #0
100015bc:	d0fc      	beq.n	100015b8 <irq_remove_handler+0x18>
100015be:	f3bf 8f5f 	dmb	sy
100015c2:	2210      	movs	r2, #16
100015c4:	4691      	mov	r9, r2
100015c6:	4481      	add	r9, r0
100015c8:	464a      	mov	r2, r9
100015ca:	4b5b      	ldr	r3, [pc, #364]	; (10001738 <irq_remove_handler+0x198>)
100015cc:	0096      	lsls	r6, r2, #2
100015ce:	689b      	ldr	r3, [r3, #8]
100015d0:	599d      	ldr	r5, [r3, r6]
100015d2:	4b5a      	ldr	r3, [pc, #360]	; (1000173c <irq_remove_handler+0x19c>)
100015d4:	4698      	mov	r8, r3
100015d6:	429d      	cmp	r5, r3
100015d8:	d005      	beq.n	100015e6 <irq_remove_handler+0x46>
100015da:	42a5      	cmp	r5, r4
100015dc:	d016      	beq.n	1000160c <irq_remove_handler+0x6c>
100015de:	4f58      	ldr	r7, [pc, #352]	; (10001740 <irq_remove_handler+0x1a0>)
100015e0:	1beb      	subs	r3, r5, r7
100015e2:	2b2f      	cmp	r3, #47	; 0x2f
100015e4:	d914      	bls.n	10001610 <irq_remove_handler+0x70>
100015e6:	4b54      	ldr	r3, [pc, #336]	; (10001738 <irq_remove_handler+0x198>)
100015e8:	689b      	ldr	r3, [r3, #8]
100015ea:	519d      	str	r5, [r3, r6]
100015ec:	f3bf 8f5f 	dmb	sy
100015f0:	f3bf 8f5f 	dmb	sy
100015f4:	2200      	movs	r2, #0
100015f6:	4b4f      	ldr	r3, [pc, #316]	; (10001734 <irq_remove_handler+0x194>)
100015f8:	601a      	str	r2, [r3, #0]
100015fa:	f38a 8810 	msr	PRIMASK, sl
100015fe:	b003      	add	sp, #12
10001600:	bc3c      	pop	{r2, r3, r4, r5}
10001602:	4690      	mov	r8, r2
10001604:	4699      	mov	r9, r3
10001606:	46a2      	mov	sl, r4
10001608:	46ab      	mov	fp, r5
1000160a:	bdf0      	pop	{r4, r5, r6, r7, pc}
1000160c:	001d      	movs	r5, r3
1000160e:	e7ea      	b.n	100015e6 <irq_remove_handler+0x46>
10001610:	2301      	movs	r3, #1
10001612:	4083      	lsls	r3, r0
10001614:	469b      	mov	fp, r3
10001616:	465a      	mov	r2, fp
10001618:	4b4a      	ldr	r3, [pc, #296]	; (10001744 <irq_remove_handler+0x1a4>)
1000161a:	681b      	ldr	r3, [r3, #0]
1000161c:	401a      	ands	r2, r3
1000161e:	9200      	str	r2, [sp, #0]
10001620:	465a      	mov	r2, fp
10001622:	4b49      	ldr	r3, [pc, #292]	; (10001748 <irq_remove_handler+0x1a8>)
10001624:	601a      	str	r2, [r3, #0]
10001626:	f3bf 8f5f 	dmb	sy
1000162a:	f7fe fdb4 	bl	10000196 <__get_current_exception>
1000162e:	9001      	str	r0, [sp, #4]
10001630:	2800      	cmp	r0, #0
10001632:	d003      	beq.n	1000163c <irq_remove_handler+0x9c>
10001634:	4581      	cmp	r9, r0
10001636:	d001      	beq.n	1000163c <irq_remove_handler+0x9c>
10001638:	f7ff fdac 	bl	10001194 <hard_assertion_failure>
1000163c:	2301      	movs	r3, #1
1000163e:	0029      	movs	r1, r5
10001640:	4399      	bics	r1, r3
10001642:	688b      	ldr	r3, [r1, #8]
10001644:	42a3      	cmp	r3, r4
10001646:	d069      	beq.n	1000171c <irq_remove_handler+0x17c>
10001648:	000a      	movs	r2, r1
1000164a:	e007      	b.n	1000165c <irq_remove_handler+0xbc>
1000164c:	0043      	lsls	r3, r0, #1
1000164e:	181b      	adds	r3, r3, r0
10001650:	009b      	lsls	r3, r3, #2
10001652:	18fb      	adds	r3, r7, r3
10001654:	6898      	ldr	r0, [r3, #8]
10001656:	42a0      	cmp	r0, r4
10001658:	d011      	beq.n	1000167e <irq_remove_handler+0xde>
1000165a:	001a      	movs	r2, r3
1000165c:	2006      	movs	r0, #6
1000165e:	5610      	ldrsb	r0, [r2, r0]
10001660:	2800      	cmp	r0, #0
10001662:	daf3      	bge.n	1000164c <irq_remove_handler+0xac>
10001664:	9b00      	ldr	r3, [sp, #0]
10001666:	2b00      	cmp	r3, #0
10001668:	d005      	beq.n	10001676 <irq_remove_handler+0xd6>
1000166a:	465a      	mov	r2, fp
1000166c:	4b37      	ldr	r3, [pc, #220]	; (1000174c <irq_remove_handler+0x1ac>)
1000166e:	601a      	str	r2, [r3, #0]
10001670:	4b34      	ldr	r3, [pc, #208]	; (10001744 <irq_remove_handler+0x1a4>)
10001672:	601a      	str	r2, [r3, #0]
10001674:	e7b7      	b.n	100015e6 <irq_remove_handler+0x46>
10001676:	465a      	mov	r2, fp
10001678:	4b33      	ldr	r3, [pc, #204]	; (10001748 <irq_remove_handler+0x1a8>)
1000167a:	601a      	str	r2, [r3, #0]
1000167c:	e7b3      	b.n	100015e6 <irq_remove_handler+0x46>
1000167e:	2006      	movs	r0, #6
10001680:	5618      	ldrsb	r0, [r3, r0]
10001682:	2800      	cmp	r0, #0
10001684:	db22      	blt.n	100016cc <irq_remove_handler+0x12c>
10001686:	0042      	lsls	r2, r0, #1
10001688:	1811      	adds	r1, r2, r0
1000168a:	0089      	lsls	r1, r1, #2
1000168c:	187c      	adds	r4, r7, r1
1000168e:	4688      	mov	r8, r1
10001690:	68a1      	ldr	r1, [r4, #8]
10001692:	6099      	str	r1, [r3, #8]
10001694:	79e1      	ldrb	r1, [r4, #7]
10001696:	71d9      	strb	r1, [r3, #7]
10001698:	2106      	movs	r1, #6
1000169a:	5661      	ldrsb	r1, [r4, r1]
1000169c:	7199      	strb	r1, [r3, #6]
1000169e:	79a1      	ldrb	r1, [r4, #6]
100016a0:	297f      	cmp	r1, #127	; 0x7f
100016a2:	d82b      	bhi.n	100016fc <irq_remove_handler+0x15c>
100016a4:	88a4      	ldrh	r4, [r4, #4]
100016a6:	1af9      	subs	r1, r7, r3
100016a8:	0564      	lsls	r4, r4, #21
100016aa:	1524      	asrs	r4, r4, #20
100016ac:	4444      	add	r4, r8
100016ae:	1909      	adds	r1, r1, r4
100016b0:	24e0      	movs	r4, #224	; 0xe0
100016b2:	0509      	lsls	r1, r1, #20
100016b4:	0d49      	lsrs	r1, r1, #21
100016b6:	0224      	lsls	r4, r4, #8
100016b8:	4321      	orrs	r1, r4
100016ba:	8099      	strh	r1, [r3, #4]
100016bc:	1812      	adds	r2, r2, r0
100016be:	4b24      	ldr	r3, [pc, #144]	; (10001750 <irq_remove_handler+0x1b0>)
100016c0:	0092      	lsls	r2, r2, #2
100016c2:	18bf      	adds	r7, r7, r2
100016c4:	781a      	ldrb	r2, [r3, #0]
100016c6:	7018      	strb	r0, [r3, #0]
100016c8:	71ba      	strb	r2, [r7, #6]
100016ca:	e7cb      	b.n	10001664 <irq_remove_handler+0xc4>
100016cc:	9801      	ldr	r0, [sp, #4]
100016ce:	2800      	cmp	r0, #0
100016d0:	d117      	bne.n	10001702 <irq_remove_handler+0x162>
100016d2:	30ff      	adds	r0, #255	; 0xff
100016d4:	7190      	strb	r0, [r2, #6]
100016d6:	481f      	ldr	r0, [pc, #124]	; (10001754 <irq_remove_handler+0x1b4>)
100016d8:	8090      	strh	r0, [r2, #4]
100016da:	4a1d      	ldr	r2, [pc, #116]	; (10001750 <irq_remove_handler+0x1b0>)
100016dc:	1bcf      	subs	r7, r1, r7
100016de:	7810      	ldrb	r0, [r2, #0]
100016e0:	10bf      	asrs	r7, r7, #2
100016e2:	7198      	strb	r0, [r3, #6]
100016e4:	00bb      	lsls	r3, r7, #2
100016e6:	19db      	adds	r3, r3, r7
100016e8:	0119      	lsls	r1, r3, #4
100016ea:	185b      	adds	r3, r3, r1
100016ec:	0219      	lsls	r1, r3, #8
100016ee:	185b      	adds	r3, r3, r1
100016f0:	0419      	lsls	r1, r3, #16
100016f2:	185b      	adds	r3, r3, r1
100016f4:	005b      	lsls	r3, r3, #1
100016f6:	19db      	adds	r3, r3, r7
100016f8:	7013      	strb	r3, [r2, #0]
100016fa:	e7b3      	b.n	10001664 <irq_remove_handler+0xc4>
100016fc:	21bd      	movs	r1, #189	; 0xbd
100016fe:	0209      	lsls	r1, r1, #8
10001700:	e7db      	b.n	100016ba <irq_remove_handler+0x11a>
10001702:	4a15      	ldr	r2, [pc, #84]	; (10001758 <irq_remove_handler+0x1b8>)
10001704:	4915      	ldr	r1, [pc, #84]	; (1000175c <irq_remove_handler+0x1bc>)
10001706:	1ad2      	subs	r2, r2, r3
10001708:	3a08      	subs	r2, #8
1000170a:	0250      	lsls	r0, r2, #9
1000170c:	0d40      	lsrs	r0, r0, #21
1000170e:	4301      	orrs	r1, r0
10001710:	8099      	strh	r1, [r3, #4]
10001712:	4913      	ldr	r1, [pc, #76]	; (10001760 <irq_remove_handler+0x1c0>)
10001714:	0852      	lsrs	r2, r2, #1
10001716:	430a      	orrs	r2, r1
10001718:	80da      	strh	r2, [r3, #6]
1000171a:	e7a3      	b.n	10001664 <irq_remove_handler+0xc4>
1000171c:	2006      	movs	r0, #6
1000171e:	5608      	ldrsb	r0, [r1, r0]
10001720:	000b      	movs	r3, r1
10001722:	2800      	cmp	r0, #0
10001724:	daaf      	bge.n	10001686 <irq_remove_handler+0xe6>
10001726:	9a01      	ldr	r2, [sp, #4]
10001728:	2a00      	cmp	r2, #0
1000172a:	d1ea      	bne.n	10001702 <irq_remove_handler+0x162>
1000172c:	000b      	movs	r3, r1
1000172e:	4645      	mov	r5, r8
10001730:	e7d3      	b.n	100016da <irq_remove_handler+0x13a>
10001732:	46c0      	nop			; (mov r8, r8)
10001734:	d0000124 	.word	0xd0000124
10001738:	e000ed00 	.word	0xe000ed00
1000173c:	100002cd 	.word	0x100002cd
10001740:	200002d0 	.word	0x200002d0
10001744:	e000e100 	.word	0xe000e100
10001748:	e000e180 	.word	0xe000e180
1000174c:	e000e280 	.word	0xe000e280
10001750:	20000d6a 	.word	0x20000d6a
10001754:	ffffbd00 	.word	0xffffbd00
10001758:	2000030a 	.word	0x2000030a
1000175c:	fffff000 	.word	0xfffff000
10001760:	fffff800 	.word	0xfffff800

10001764 <irq_add_tail_to_free_list>:
10001764:	b5f8      	push	{r3, r4, r5, r6, r7, lr}
10001766:	2501      	movs	r5, #1
10001768:	0004      	movs	r4, r0
1000176a:	4305      	orrs	r5, r0
1000176c:	f7fe fd13 	bl	10000196 <__get_current_exception>
10001770:	f3ef 8610 	mrs	r6, PRIMASK
10001774:	b672      	cpsid	i
10001776:	4a24      	ldr	r2, [pc, #144]	; (10001808 <irq_add_tail_to_free_list+0xa4>)
10001778:	6813      	ldr	r3, [r2, #0]
1000177a:	2b00      	cmp	r3, #0
1000177c:	d0fc      	beq.n	10001778 <irq_add_tail_to_free_list+0x14>
1000177e:	f3bf 8f5f 	dmb	sy
10001782:	4f22      	ldr	r7, [pc, #136]	; (1000180c <irq_add_tail_to_free_list+0xa8>)
10001784:	0080      	lsls	r0, r0, #2
10001786:	1be1      	subs	r1, r4, r7
10001788:	1089      	asrs	r1, r1, #2
1000178a:	008a      	lsls	r2, r1, #2
1000178c:	1852      	adds	r2, r2, r1
1000178e:	0113      	lsls	r3, r2, #4
10001790:	18d2      	adds	r2, r2, r3
10001792:	0213      	lsls	r3, r2, #8
10001794:	18d2      	adds	r2, r2, r3
10001796:	0413      	lsls	r3, r2, #16
10001798:	18d3      	adds	r3, r2, r3
1000179a:	4a1d      	ldr	r2, [pc, #116]	; (10001810 <irq_add_tail_to_free_list+0xac>)
1000179c:	005b      	lsls	r3, r3, #1
1000179e:	185b      	adds	r3, r3, r1
100017a0:	6891      	ldr	r1, [r2, #8]
100017a2:	5809      	ldr	r1, [r1, r0]
100017a4:	42a9      	cmp	r1, r5
100017a6:	d01c      	beq.n	100017e2 <irq_add_tail_to_free_list+0x7e>
100017a8:	2206      	movs	r2, #6
100017aa:	56ba      	ldrsb	r2, [r7, r2]
100017ac:	4293      	cmp	r3, r2
100017ae:	d01c      	beq.n	100017ea <irq_add_tail_to_free_list+0x86>
100017b0:	2212      	movs	r2, #18
100017b2:	56ba      	ldrsb	r2, [r7, r2]
100017b4:	4293      	cmp	r3, r2
100017b6:	d022      	beq.n	100017fe <irq_add_tail_to_free_list+0x9a>
100017b8:	221e      	movs	r2, #30
100017ba:	56ba      	ldrsb	r2, [r7, r2]
100017bc:	4293      	cmp	r3, r2
100017be:	d020      	beq.n	10001802 <irq_add_tail_to_free_list+0x9e>
100017c0:	222a      	movs	r2, #42	; 0x2a
100017c2:	56ba      	ldrsb	r2, [r7, r2]
100017c4:	2103      	movs	r1, #3
100017c6:	429a      	cmp	r2, r3
100017c8:	d010      	beq.n	100017ec <irq_add_tail_to_free_list+0x88>
100017ca:	4a12      	ldr	r2, [pc, #72]	; (10001814 <irq_add_tail_to_free_list+0xb0>)
100017cc:	7811      	ldrb	r1, [r2, #0]
100017ce:	7013      	strb	r3, [r2, #0]
100017d0:	71a1      	strb	r1, [r4, #6]
100017d2:	f3bf 8f5f 	dmb	sy
100017d6:	2200      	movs	r2, #0
100017d8:	4b0b      	ldr	r3, [pc, #44]	; (10001808 <irq_add_tail_to_free_list+0xa4>)
100017da:	601a      	str	r2, [r3, #0]
100017dc:	f386 8810 	msr	PRIMASK, r6
100017e0:	bdf8      	pop	{r3, r4, r5, r6, r7, pc}
100017e2:	6892      	ldr	r2, [r2, #8]
100017e4:	490c      	ldr	r1, [pc, #48]	; (10001818 <irq_add_tail_to_free_list+0xb4>)
100017e6:	5011      	str	r1, [r2, r0]
100017e8:	e7ef      	b.n	100017ca <irq_add_tail_to_free_list+0x66>
100017ea:	2100      	movs	r1, #0
100017ec:	004a      	lsls	r2, r1, #1
100017ee:	1852      	adds	r2, r2, r1
100017f0:	21ff      	movs	r1, #255	; 0xff
100017f2:	0092      	lsls	r2, r2, #2
100017f4:	18ba      	adds	r2, r7, r2
100017f6:	7191      	strb	r1, [r2, #6]
100017f8:	4908      	ldr	r1, [pc, #32]	; (1000181c <irq_add_tail_to_free_list+0xb8>)
100017fa:	8091      	strh	r1, [r2, #4]
100017fc:	e7e5      	b.n	100017ca <irq_add_tail_to_free_list+0x66>
100017fe:	2101      	movs	r1, #1
10001800:	e7f4      	b.n	100017ec <irq_add_tail_to_free_list+0x88>
10001802:	2102      	movs	r1, #2
10001804:	e7f2      	b.n	100017ec <irq_add_tail_to_free_list+0x88>
10001806:	46c0      	nop			; (mov r8, r8)
10001808:	d0000124 	.word	0xd0000124
1000180c:	200002d0 	.word	0x200002d0
10001810:	e000ed00 	.word	0xe000ed00
10001814:	20000d6a 	.word	0x20000d6a
10001818:	100002cd 	.word	0x100002cd
1000181c:	ffffbd00 	.word	0xffffbd00

10001820 <irq_init_priorities>:
10001820:	b5f0      	push	{r4, r5, r6, r7, lr}
10001822:	2200      	movs	r2, #0
10001824:	2403      	movs	r4, #3
10001826:	27ff      	movs	r7, #255	; 0xff
10001828:	2680      	movs	r6, #128	; 0x80
1000182a:	0020      	movs	r0, r4
1000182c:	003d      	movs	r5, r7
1000182e:	4b09      	ldr	r3, [pc, #36]	; (10001854 <irq_init_priorities+0x34>)
10001830:	0011      	movs	r1, r2
10001832:	469c      	mov	ip, r3
10001834:	4010      	ands	r0, r2
10001836:	00c0      	lsls	r0, r0, #3
10001838:	4085      	lsls	r5, r0
1000183a:	43a1      	bics	r1, r4
1000183c:	4461      	add	r1, ip
1000183e:	680b      	ldr	r3, [r1, #0]
10001840:	3201      	adds	r2, #1
10001842:	43ab      	bics	r3, r5
10001844:	0035      	movs	r5, r6
10001846:	4085      	lsls	r5, r0
10001848:	432b      	orrs	r3, r5
1000184a:	600b      	str	r3, [r1, #0]
1000184c:	2a20      	cmp	r2, #32
1000184e:	d1ec      	bne.n	1000182a <irq_init_priorities+0xa>
10001850:	bdf0      	pop	{r4, r5, r6, r7, pc}
10001852:	46c0      	nop			; (mov r8, r8)
10001854:	e000e400 	.word	0xe000e400

10001858 <_out_null>:
10001858:	4770      	bx	lr
1000185a:	46c0      	nop			; (mov r8, r8)

1000185c <_out_rev>:
1000185c:	b5f8      	push	{r3, r4, r5, r6, r7, lr}
1000185e:	4657      	mov	r7, sl
10001860:	464e      	mov	r6, r9
10001862:	46de      	mov	lr, fp
10001864:	4645      	mov	r5, r8
10001866:	b5e0      	push	{r5, r6, r7, lr}
10001868:	001f      	movs	r7, r3
1000186a:	9b0a      	ldr	r3, [sp, #40]	; 0x28
1000186c:	0005      	movs	r5, r0
1000186e:	469b      	mov	fp, r3
10001870:	9b0d      	ldr	r3, [sp, #52]	; 0x34
10001872:	000e      	movs	r6, r1
10001874:	4691      	mov	r9, r2
10001876:	4692      	mov	sl, r2
10001878:	079b      	lsls	r3, r3, #30
1000187a:	d118      	bne.n	100018ae <_out_rev+0x52>
1000187c:	9b0b      	ldr	r3, [sp, #44]	; 0x2c
1000187e:	9a0c      	ldr	r2, [sp, #48]	; 0x30
10001880:	4293      	cmp	r3, r2
10001882:	d214      	bcs.n	100018ae <_out_rev+0x52>
10001884:	0013      	movs	r3, r2
10001886:	9a0b      	ldr	r2, [sp, #44]	; 0x2c
10001888:	46b8      	mov	r8, r7
1000188a:	1a9b      	subs	r3, r3, r2
1000188c:	444b      	add	r3, r9
1000188e:	464c      	mov	r4, r9
10001890:	000f      	movs	r7, r1
10001892:	0006      	movs	r6, r0
10001894:	001d      	movs	r5, r3
10001896:	0022      	movs	r2, r4
10001898:	4643      	mov	r3, r8
1000189a:	3401      	adds	r4, #1
1000189c:	0039      	movs	r1, r7
1000189e:	2020      	movs	r0, #32
100018a0:	47b0      	blx	r6
100018a2:	42ac      	cmp	r4, r5
100018a4:	d1f7      	bne.n	10001896 <_out_rev+0x3a>
100018a6:	46aa      	mov	sl, r5
100018a8:	0035      	movs	r5, r6
100018aa:	003e      	movs	r6, r7
100018ac:	4647      	mov	r7, r8
100018ae:	9b0b      	ldr	r3, [sp, #44]	; 0x2c
100018b0:	2b00      	cmp	r3, #0
100018b2:	d038      	beq.n	10001926 <_out_rev+0xca>
100018b4:	449a      	add	sl, r3
100018b6:	001c      	movs	r4, r3
100018b8:	46d0      	mov	r8, sl
100018ba:	4653      	mov	r3, sl
100018bc:	1b1a      	subs	r2, r3, r4
100018be:	465b      	mov	r3, fp
100018c0:	3c01      	subs	r4, #1
100018c2:	5d18      	ldrb	r0, [r3, r4]
100018c4:	0031      	movs	r1, r6
100018c6:	003b      	movs	r3, r7
100018c8:	47a8      	blx	r5
100018ca:	2c00      	cmp	r4, #0
100018cc:	d1f5      	bne.n	100018ba <_out_rev+0x5e>
100018ce:	9b0d      	ldr	r3, [sp, #52]	; 0x34
100018d0:	079b      	lsls	r3, r3, #30
100018d2:	d521      	bpl.n	10001918 <_out_rev+0xbc>
100018d4:	4643      	mov	r3, r8
100018d6:	464a      	mov	r2, r9
100018d8:	1a9c      	subs	r4, r3, r2
100018da:	9b0c      	ldr	r3, [sp, #48]	; 0x30
100018dc:	42a3      	cmp	r3, r4
100018de:	d91b      	bls.n	10001918 <_out_rev+0xbc>
100018e0:	003a      	movs	r2, r7
100018e2:	469a      	mov	sl, r3
100018e4:	464f      	mov	r7, r9
100018e6:	4691      	mov	r9, r2
100018e8:	19e2      	adds	r2, r4, r7
100018ea:	464b      	mov	r3, r9
100018ec:	0031      	movs	r1, r6
100018ee:	2020      	movs	r0, #32
100018f0:	3401      	adds	r4, #1
100018f2:	47a8      	blx	r5
100018f4:	4554      	cmp	r4, sl
100018f6:	d3f7      	bcc.n	100018e8 <_out_rev+0x8c>
100018f8:	4643      	mov	r3, r8
100018fa:	990c      	ldr	r1, [sp, #48]	; 0x30
100018fc:	1bdb      	subs	r3, r3, r7
100018fe:	3301      	adds	r3, #1
10001900:	46b9      	mov	r9, r7
10001902:	2200      	movs	r2, #0
10001904:	4299      	cmp	r1, r3
10001906:	d303      	bcc.n	10001910 <_out_rev+0xb4>
10001908:	4643      	mov	r3, r8
1000190a:	1e4a      	subs	r2, r1, #1
1000190c:	444a      	add	r2, r9
1000190e:	1ad2      	subs	r2, r2, r3
10001910:	4643      	mov	r3, r8
10001912:	4690      	mov	r8, r2
10001914:	3301      	adds	r3, #1
10001916:	4498      	add	r8, r3
10001918:	4640      	mov	r0, r8
1000191a:	bc3c      	pop	{r2, r3, r4, r5}
1000191c:	4690      	mov	r8, r2
1000191e:	4699      	mov	r9, r3
10001920:	46a2      	mov	sl, r4
10001922:	46ab      	mov	fp, r5
10001924:	bdf8      	pop	{r3, r4, r5, r6, r7, pc}
10001926:	46d0      	mov	r8, sl
10001928:	e7d1      	b.n	100018ce <_out_rev+0x72>
1000192a:	46c0      	nop			; (mov r8, r8)

1000192c <_ntoa_format>:
1000192c:	b5f0      	push	{r4, r5, r6, r7, lr}
1000192e:	464f      	mov	r7, r9
10001930:	4646      	mov	r6, r8
10001932:	46d6      	mov	lr, sl
10001934:	b5c0      	push	{r6, r7, lr}
10001936:	b084      	sub	sp, #16
10001938:	4698      	mov	r8, r3
1000193a:	ab0e      	add	r3, sp, #56	; 0x38
1000193c:	781b      	ldrb	r3, [r3, #0]
1000193e:	9f12      	ldr	r7, [sp, #72]	; 0x48
10001940:	4699      	mov	r9, r3
10001942:	4694      	mov	ip, r2
10001944:	9c0d      	ldr	r4, [sp, #52]	; 0x34
10001946:	9b10      	ldr	r3, [sp, #64]	; 0x40
10001948:	9e11      	ldr	r6, [sp, #68]	; 0x44
1000194a:	07ba      	lsls	r2, r7, #30
1000194c:	d425      	bmi.n	1000199a <_ntoa_format+0x6e>
1000194e:	2e00      	cmp	r6, #0
10001950:	d169      	bne.n	10001a26 <_ntoa_format+0xfa>
10001952:	429c      	cmp	r4, r3
10001954:	d300      	bcc.n	10001958 <_ntoa_format+0x2c>
10001956:	e0c2      	b.n	10001ade <_ntoa_format+0x1b2>
10001958:	2201      	movs	r2, #1
1000195a:	403a      	ands	r2, r7
1000195c:	4692      	mov	sl, r2
1000195e:	2c1f      	cmp	r4, #31
10001960:	d900      	bls.n	10001964 <_ntoa_format+0x38>
10001962:	e0bb      	b.n	10001adc <_ntoa_format+0x1b0>
10001964:	9a0c      	ldr	r2, [sp, #48]	; 0x30
10001966:	1e55      	subs	r5, r2, #1
10001968:	2230      	movs	r2, #48	; 0x30
1000196a:	e001      	b.n	10001970 <_ntoa_format+0x44>
1000196c:	2c20      	cmp	r4, #32
1000196e:	d003      	beq.n	10001978 <_ntoa_format+0x4c>
10001970:	3401      	adds	r4, #1
10001972:	552a      	strb	r2, [r5, r4]
10001974:	42a3      	cmp	r3, r4
10001976:	d8f9      	bhi.n	1000196c <_ntoa_format+0x40>
10001978:	4652      	mov	r2, sl
1000197a:	2a00      	cmp	r2, #0
1000197c:	d00d      	beq.n	1000199a <_ntoa_format+0x6e>
1000197e:	42b4      	cmp	r4, r6
10001980:	d20b      	bcs.n	1000199a <_ntoa_format+0x6e>
10001982:	2c1f      	cmp	r4, #31
10001984:	d862      	bhi.n	10001a4c <_ntoa_format+0x120>
10001986:	9a0c      	ldr	r2, [sp, #48]	; 0x30
10001988:	1e55      	subs	r5, r2, #1
1000198a:	2230      	movs	r2, #48	; 0x30
1000198c:	e001      	b.n	10001992 <_ntoa_format+0x66>
1000198e:	2c20      	cmp	r4, #32
10001990:	d05c      	beq.n	10001a4c <_ntoa_format+0x120>
10001992:	3401      	adds	r4, #1
10001994:	552a      	strb	r2, [r5, r4]
10001996:	42b4      	cmp	r4, r6
10001998:	d1f9      	bne.n	1000198e <_ntoa_format+0x62>
1000199a:	06fa      	lsls	r2, r7, #27
1000199c:	d535      	bpl.n	10001a0a <_ntoa_format+0xde>
1000199e:	057a      	lsls	r2, r7, #21
100019a0:	d45d      	bmi.n	10001a5e <_ntoa_format+0x132>
100019a2:	2c00      	cmp	r4, #0
100019a4:	d157      	bne.n	10001a56 <_ntoa_format+0x12a>
100019a6:	9b0f      	ldr	r3, [sp, #60]	; 0x3c
100019a8:	2b10      	cmp	r3, #16
100019aa:	d100      	bne.n	100019ae <_ntoa_format+0x82>
100019ac:	e07c      	b.n	10001aa8 <_ntoa_format+0x17c>
100019ae:	9b0f      	ldr	r3, [sp, #60]	; 0x3c
100019b0:	2b02      	cmp	r3, #2
100019b2:	d100      	bne.n	100019b6 <_ntoa_format+0x8a>
100019b4:	e08d      	b.n	10001ad2 <_ntoa_format+0x1a6>
100019b6:	2330      	movs	r3, #48	; 0x30
100019b8:	9a0c      	ldr	r2, [sp, #48]	; 0x30
100019ba:	2401      	movs	r4, #1
100019bc:	7013      	strb	r3, [r2, #0]
100019be:	464b      	mov	r3, r9
100019c0:	2b00      	cmp	r3, #0
100019c2:	d027      	beq.n	10001a14 <_ntoa_format+0xe8>
100019c4:	232d      	movs	r3, #45	; 0x2d
100019c6:	9a0c      	ldr	r2, [sp, #48]	; 0x30
100019c8:	5513      	strb	r3, [r2, r4]
100019ca:	3401      	adds	r4, #1
100019cc:	9b0c      	ldr	r3, [sp, #48]	; 0x30
100019ce:	4662      	mov	r2, ip
100019d0:	9300      	str	r3, [sp, #0]
100019d2:	9703      	str	r7, [sp, #12]
100019d4:	4643      	mov	r3, r8
100019d6:	9602      	str	r6, [sp, #8]
100019d8:	9401      	str	r4, [sp, #4]
100019da:	f7ff ff3f 	bl	1000185c <_out_rev>
100019de:	b004      	add	sp, #16
100019e0:	bc1c      	pop	{r2, r3, r4}
100019e2:	4690      	mov	r8, r2
100019e4:	4699      	mov	r9, r3
100019e6:	46a2      	mov	sl, r4
100019e8:	bdf0      	pop	{r4, r5, r6, r7, pc}
100019ea:	06bb      	lsls	r3, r7, #26
100019ec:	d463      	bmi.n	10001ab6 <_ntoa_format+0x18a>
100019ee:	2c20      	cmp	r4, #32
100019f0:	d0ec      	beq.n	100019cc <_ntoa_format+0xa0>
100019f2:	9b0c      	ldr	r3, [sp, #48]	; 0x30
100019f4:	191a      	adds	r2, r3, r4
100019f6:	3401      	adds	r4, #1
100019f8:	2378      	movs	r3, #120	; 0x78
100019fa:	7013      	strb	r3, [r2, #0]
100019fc:	2c20      	cmp	r4, #32
100019fe:	d0e5      	beq.n	100019cc <_ntoa_format+0xa0>
10001a00:	2230      	movs	r2, #48	; 0x30
10001a02:	9b0c      	ldr	r3, [sp, #48]	; 0x30
10001a04:	191b      	adds	r3, r3, r4
10001a06:	701a      	strb	r2, [r3, #0]
10001a08:	3401      	adds	r4, #1
10001a0a:	2c20      	cmp	r4, #32
10001a0c:	d0de      	beq.n	100019cc <_ntoa_format+0xa0>
10001a0e:	464b      	mov	r3, r9
10001a10:	2b00      	cmp	r3, #0
10001a12:	d1d7      	bne.n	100019c4 <_ntoa_format+0x98>
10001a14:	077b      	lsls	r3, r7, #29
10001a16:	d435      	bmi.n	10001a84 <_ntoa_format+0x158>
10001a18:	073b      	lsls	r3, r7, #28
10001a1a:	d5d7      	bpl.n	100019cc <_ntoa_format+0xa0>
10001a1c:	2320      	movs	r3, #32
10001a1e:	9a0c      	ldr	r2, [sp, #48]	; 0x30
10001a20:	5513      	strb	r3, [r2, r4]
10001a22:	3401      	adds	r4, #1
10001a24:	e7d2      	b.n	100019cc <_ntoa_format+0xa0>
10001a26:	2201      	movs	r2, #1
10001a28:	0015      	movs	r5, r2
10001a2a:	403d      	ands	r5, r7
10001a2c:	46aa      	mov	sl, r5
10001a2e:	423a      	tst	r2, r7
10001a30:	d020      	beq.n	10001a74 <_ntoa_format+0x148>
10001a32:	464a      	mov	r2, r9
10001a34:	2a00      	cmp	r2, #0
10001a36:	d12a      	bne.n	10001a8e <_ntoa_format+0x162>
10001a38:	320c      	adds	r2, #12
10001a3a:	423a      	tst	r2, r7
10001a3c:	d127      	bne.n	10001a8e <_ntoa_format+0x162>
10001a3e:	429c      	cmp	r4, r3
10001a40:	d29d      	bcs.n	1000197e <_ntoa_format+0x52>
10001a42:	2c1f      	cmp	r4, #31
10001a44:	d800      	bhi.n	10001a48 <_ntoa_format+0x11c>
10001a46:	e78d      	b.n	10001964 <_ntoa_format+0x38>
10001a48:	2e20      	cmp	r6, #32
10001a4a:	d919      	bls.n	10001a80 <_ntoa_format+0x154>
10001a4c:	2420      	movs	r4, #32
10001a4e:	06fa      	lsls	r2, r7, #27
10001a50:	d5bc      	bpl.n	100019cc <_ntoa_format+0xa0>
10001a52:	057a      	lsls	r2, r7, #21
10001a54:	d403      	bmi.n	10001a5e <_ntoa_format+0x132>
10001a56:	42a3      	cmp	r3, r4
10001a58:	d01b      	beq.n	10001a92 <_ntoa_format+0x166>
10001a5a:	42a6      	cmp	r6, r4
10001a5c:	d019      	beq.n	10001a92 <_ntoa_format+0x166>
10001a5e:	9b0f      	ldr	r3, [sp, #60]	; 0x3c
10001a60:	2b10      	cmp	r3, #16
10001a62:	d0c2      	beq.n	100019ea <_ntoa_format+0xbe>
10001a64:	2b02      	cmp	r3, #2
10001a66:	d1c9      	bne.n	100019fc <_ntoa_format+0xd0>
10001a68:	2c20      	cmp	r4, #32
10001a6a:	d0af      	beq.n	100019cc <_ntoa_format+0xa0>
10001a6c:	9b0c      	ldr	r3, [sp, #48]	; 0x30
10001a6e:	191b      	adds	r3, r3, r4
10001a70:	3401      	adds	r4, #1
10001a72:	e040      	b.n	10001af6 <_ntoa_format+0x1ca>
10001a74:	429c      	cmp	r4, r3
10001a76:	d300      	bcc.n	10001a7a <_ntoa_format+0x14e>
10001a78:	e78f      	b.n	1000199a <_ntoa_format+0x6e>
10001a7a:	2c1f      	cmp	r4, #31
10001a7c:	d800      	bhi.n	10001a80 <_ntoa_format+0x154>
10001a7e:	e771      	b.n	10001964 <_ntoa_format+0x38>
10001a80:	2420      	movs	r4, #32
10001a82:	e78a      	b.n	1000199a <_ntoa_format+0x6e>
10001a84:	232b      	movs	r3, #43	; 0x2b
10001a86:	9a0c      	ldr	r2, [sp, #48]	; 0x30
10001a88:	5513      	strb	r3, [r2, r4]
10001a8a:	3401      	adds	r4, #1
10001a8c:	e79e      	b.n	100019cc <_ntoa_format+0xa0>
10001a8e:	3e01      	subs	r6, #1
10001a90:	e7d5      	b.n	10001a3e <_ntoa_format+0x112>
10001a92:	1e63      	subs	r3, r4, #1
10001a94:	2c01      	cmp	r4, #1
10001a96:	d100      	bne.n	10001a9a <_ntoa_format+0x16e>
10001a98:	e785      	b.n	100019a6 <_ntoa_format+0x7a>
10001a9a:	9a0f      	ldr	r2, [sp, #60]	; 0x3c
10001a9c:	2a10      	cmp	r2, #16
10001a9e:	d020      	beq.n	10001ae2 <_ntoa_format+0x1b6>
10001aa0:	2a02      	cmp	r2, #2
10001aa2:	d025      	beq.n	10001af0 <_ntoa_format+0x1c4>
10001aa4:	001c      	movs	r4, r3
10001aa6:	e7ab      	b.n	10001a00 <_ntoa_format+0xd4>
10001aa8:	06bb      	lsls	r3, r7, #26
10001aaa:	d40d      	bmi.n	10001ac8 <_ntoa_format+0x19c>
10001aac:	2378      	movs	r3, #120	; 0x78
10001aae:	9a0c      	ldr	r2, [sp, #48]	; 0x30
10001ab0:	2401      	movs	r4, #1
10001ab2:	7013      	strb	r3, [r2, #0]
10001ab4:	e7a4      	b.n	10001a00 <_ntoa_format+0xd4>
10001ab6:	2c20      	cmp	r4, #32
10001ab8:	d100      	bne.n	10001abc <_ntoa_format+0x190>
10001aba:	e787      	b.n	100019cc <_ntoa_format+0xa0>
10001abc:	2258      	movs	r2, #88	; 0x58
10001abe:	9b0c      	ldr	r3, [sp, #48]	; 0x30
10001ac0:	191b      	adds	r3, r3, r4
10001ac2:	701a      	strb	r2, [r3, #0]
10001ac4:	3401      	adds	r4, #1
10001ac6:	e799      	b.n	100019fc <_ntoa_format+0xd0>
10001ac8:	2358      	movs	r3, #88	; 0x58
10001aca:	9a0c      	ldr	r2, [sp, #48]	; 0x30
10001acc:	2401      	movs	r4, #1
10001ace:	7013      	strb	r3, [r2, #0]
10001ad0:	e796      	b.n	10001a00 <_ntoa_format+0xd4>
10001ad2:	9a0c      	ldr	r2, [sp, #48]	; 0x30
10001ad4:	3360      	adds	r3, #96	; 0x60
10001ad6:	2401      	movs	r4, #1
10001ad8:	7013      	strb	r3, [r2, #0]
10001ada:	e791      	b.n	10001a00 <_ntoa_format+0xd4>
10001adc:	2420      	movs	r4, #32
10001ade:	2600      	movs	r6, #0
10001ae0:	e75b      	b.n	1000199a <_ntoa_format+0x6e>
10001ae2:	3c02      	subs	r4, #2
10001ae4:	06ba      	lsls	r2, r7, #26
10001ae6:	d4e9      	bmi.n	10001abc <_ntoa_format+0x190>
10001ae8:	9a0c      	ldr	r2, [sp, #48]	; 0x30
10001aea:	1912      	adds	r2, r2, r4
10001aec:	001c      	movs	r4, r3
10001aee:	e783      	b.n	100019f8 <_ntoa_format+0xcc>
10001af0:	9a0c      	ldr	r2, [sp, #48]	; 0x30
10001af2:	4692      	mov	sl, r2
10001af4:	4453      	add	r3, sl
10001af6:	2262      	movs	r2, #98	; 0x62
10001af8:	701a      	strb	r2, [r3, #0]
10001afa:	e77f      	b.n	100019fc <_ntoa_format+0xd0>

10001afc <_out_char>:
10001afc:	b510      	push	{r4, lr}
10001afe:	2800      	cmp	r0, #0
10001b00:	d100      	bne.n	10001b04 <_out_char+0x8>
10001b02:	bd10      	pop	{r4, pc}
10001b04:	f002 fa04 	bl	10003f10 <__wrap_putchar>
10001b08:	e7fb      	b.n	10001b02 <_out_char+0x6>
10001b0a:	46c0      	nop			; (mov r8, r8)

10001b0c <_out_fct>:
10001b0c:	000b      	movs	r3, r1
10001b0e:	b510      	push	{r4, lr}
10001b10:	2800      	cmp	r0, #0
10001b12:	d002      	beq.n	10001b1a <_out_fct+0xe>
10001b14:	6849      	ldr	r1, [r1, #4]
10001b16:	681b      	ldr	r3, [r3, #0]
10001b18:	4798      	blx	r3
10001b1a:	bd10      	pop	{r4, pc}

10001b1c <_etoa>:
10001b1c:	b5f0      	push	{r4, r5, r6, r7, lr}
10001b1e:	46de      	mov	lr, fp
10001b20:	4657      	mov	r7, sl
10001b22:	464e      	mov	r6, r9
10001b24:	4645      	mov	r5, r8
10001b26:	b5e0      	push	{r5, r6, r7, lr}
10001b28:	b09b      	sub	sp, #108	; 0x6c
10001b2a:	469a      	mov	sl, r3
10001b2c:	9b24      	ldr	r3, [sp, #144]	; 0x90
10001b2e:	468b      	mov	fp, r1
10001b30:	4699      	mov	r9, r3
10001b32:	9b25      	ldr	r3, [sp, #148]	; 0x94
10001b34:	900b      	str	r0, [sp, #44]	; 0x2c
10001b36:	4698      	mov	r8, r3
10001b38:	920c      	str	r2, [sp, #48]	; 0x30
10001b3a:	4643      	mov	r3, r8
10001b3c:	464a      	mov	r2, r9
10001b3e:	4648      	mov	r0, r9
10001b40:	4641      	mov	r1, r8
10001b42:	f001 fccc 	bl	100034de <__wrap___aeabi_dcmpun>
10001b46:	2800      	cmp	r0, #0
10001b48:	d000      	beq.n	10001b4c <_etoa+0x30>
10001b4a:	e1a3      	b.n	10001e94 <_etoa+0x378>
10001b4c:	2201      	movs	r2, #1
10001b4e:	4648      	mov	r0, r9
10001b50:	4641      	mov	r1, r8
10001b52:	4be2      	ldr	r3, [pc, #904]	; (10001edc <_etoa+0x3c0>)
10001b54:	4252      	negs	r2, r2
10001b56:	f001 fcbd 	bl	100034d4 <__wrap___aeabi_dcmpgt>
10001b5a:	2800      	cmp	r0, #0
10001b5c:	d000      	beq.n	10001b60 <_etoa+0x44>
10001b5e:	e199      	b.n	10001e94 <_etoa+0x378>
10001b60:	2201      	movs	r2, #1
10001b62:	4648      	mov	r0, r9
10001b64:	4641      	mov	r1, r8
10001b66:	4bde      	ldr	r3, [pc, #888]	; (10001ee0 <_etoa+0x3c4>)
10001b68:	4252      	negs	r2, r2
10001b6a:	f001 fc9d 	bl	100034a8 <__wrap___aeabi_dcmplt>
10001b6e:	2800      	cmp	r0, #0
10001b70:	d000      	beq.n	10001b74 <_etoa+0x58>
10001b72:	e18f      	b.n	10001e94 <_etoa+0x378>
10001b74:	2200      	movs	r2, #0
10001b76:	2300      	movs	r3, #0
10001b78:	4648      	mov	r0, r9
10001b7a:	4641      	mov	r1, r8
10001b7c:	f001 fc94 	bl	100034a8 <__wrap___aeabi_dcmplt>
10001b80:	2800      	cmp	r0, #0
10001b82:	d000      	beq.n	10001b86 <_etoa+0x6a>
10001b84:	e1de      	b.n	10001f44 <_etoa+0x428>
10001b86:	464a      	mov	r2, r9
10001b88:	4643      	mov	r3, r8
10001b8a:	920a      	str	r2, [sp, #40]	; 0x28
10001b8c:	9309      	str	r3, [sp, #36]	; 0x24
10001b8e:	2380      	movs	r3, #128	; 0x80
10001b90:	9a28      	ldr	r2, [sp, #160]	; 0xa0
10001b92:	00db      	lsls	r3, r3, #3
10001b94:	401a      	ands	r2, r3
10001b96:	9211      	str	r2, [sp, #68]	; 0x44
10001b98:	9a28      	ldr	r2, [sp, #160]	; 0xa0
10001b9a:	421a      	tst	r2, r3
10001b9c:	d101      	bne.n	10001ba2 <_etoa+0x86>
10001b9e:	2306      	movs	r3, #6
10001ba0:	9326      	str	r3, [sp, #152]	; 0x98
10001ba2:	4bd0      	ldr	r3, [pc, #832]	; (10001ee4 <_etoa+0x3c8>)
10001ba4:	9f09      	ldr	r7, [sp, #36]	; 0x24
10001ba6:	469c      	mov	ip, r3
10001ba8:	0078      	lsls	r0, r7, #1
10001baa:	0d40      	lsrs	r0, r0, #21
10001bac:	4460      	add	r0, ip
10001bae:	f001 fca9 	bl	10003504 <__wrap___aeabi_i2d>
10001bb2:	4acd      	ldr	r2, [pc, #820]	; (10001ee8 <_etoa+0x3cc>)
10001bb4:	4bcd      	ldr	r3, [pc, #820]	; (10001eec <_etoa+0x3d0>)
10001bb6:	f001 fc35 	bl	10003424 <__wrap___aeabi_dmul>
10001bba:	4acd      	ldr	r2, [pc, #820]	; (10001ef0 <_etoa+0x3d4>)
10001bbc:	4bcd      	ldr	r3, [pc, #820]	; (10001ef4 <_etoa+0x3d8>)
10001bbe:	f001 fc1f 	bl	10003400 <__wrap___aeabi_dadd>
10001bc2:	033b      	lsls	r3, r7, #12
10001bc4:	4acc      	ldr	r2, [pc, #816]	; (10001ef8 <_etoa+0x3dc>)
10001bc6:	9e0a      	ldr	r6, [sp, #40]	; 0x28
10001bc8:	0b1b      	lsrs	r3, r3, #12
10001bca:	431a      	orrs	r2, r3
10001bcc:	0004      	movs	r4, r0
10001bce:	000d      	movs	r5, r1
10001bd0:	0030      	movs	r0, r6
10001bd2:	0011      	movs	r1, r2
10001bd4:	4bc9      	ldr	r3, [pc, #804]	; (10001efc <_etoa+0x3e0>)
10001bd6:	2200      	movs	r2, #0
10001bd8:	9709      	str	r7, [sp, #36]	; 0x24
10001bda:	f001 fc08 	bl	100033ee <__wrap___aeabi_dsub>
10001bde:	4ac8      	ldr	r2, [pc, #800]	; (10001f00 <_etoa+0x3e4>)
10001be0:	4bc8      	ldr	r3, [pc, #800]	; (10001f04 <_etoa+0x3e8>)
10001be2:	f001 fc1f 	bl	10003424 <__wrap___aeabi_dmul>
10001be6:	0002      	movs	r2, r0
10001be8:	000b      	movs	r3, r1
10001bea:	0020      	movs	r0, r4
10001bec:	0029      	movs	r1, r5
10001bee:	f001 fc07 	bl	10003400 <__wrap___aeabi_dadd>
10001bf2:	f001 fc9f 	bl	10003534 <__wrap___aeabi_d2iz>
10001bf6:	900d      	str	r0, [sp, #52]	; 0x34
10001bf8:	f001 fc84 	bl	10003504 <__wrap___aeabi_i2d>
10001bfc:	4ac2      	ldr	r2, [pc, #776]	; (10001f08 <_etoa+0x3ec>)
10001bfe:	4bc3      	ldr	r3, [pc, #780]	; (10001f0c <_etoa+0x3f0>)
10001c00:	0004      	movs	r4, r0
10001c02:	000d      	movs	r5, r1
10001c04:	f001 fc0e 	bl	10003424 <__wrap___aeabi_dmul>
10001c08:	2200      	movs	r2, #0
10001c0a:	4bc1      	ldr	r3, [pc, #772]	; (10001f10 <_etoa+0x3f4>)
10001c0c:	f001 fbf8 	bl	10003400 <__wrap___aeabi_dadd>
10001c10:	f001 fc90 	bl	10003534 <__wrap___aeabi_d2iz>
10001c14:	4abf      	ldr	r2, [pc, #764]	; (10001f14 <_etoa+0x3f8>)
10001c16:	0006      	movs	r6, r0
10001c18:	4bbf      	ldr	r3, [pc, #764]	; (10001f18 <_etoa+0x3fc>)
10001c1a:	0020      	movs	r0, r4
10001c1c:	0029      	movs	r1, r5
10001c1e:	f001 fc01 	bl	10003424 <__wrap___aeabi_dmul>
10001c22:	0004      	movs	r4, r0
10001c24:	0030      	movs	r0, r6
10001c26:	000d      	movs	r5, r1
10001c28:	9610      	str	r6, [sp, #64]	; 0x40
10001c2a:	f001 fc6b 	bl	10003504 <__wrap___aeabi_i2d>
10001c2e:	4abb      	ldr	r2, [pc, #748]	; (10001f1c <_etoa+0x400>)
10001c30:	4bbb      	ldr	r3, [pc, #748]	; (10001f20 <_etoa+0x404>)
10001c32:	f001 fbf7 	bl	10003424 <__wrap___aeabi_dmul>
10001c36:	0002      	movs	r2, r0
10001c38:	000b      	movs	r3, r1
10001c3a:	0020      	movs	r0, r4
10001c3c:	0029      	movs	r1, r5
10001c3e:	f001 fbd6 	bl	100033ee <__wrap___aeabi_dsub>
10001c42:	0002      	movs	r2, r0
10001c44:	000b      	movs	r3, r1
10001c46:	0006      	movs	r6, r0
10001c48:	000f      	movs	r7, r1
10001c4a:	f001 fbeb 	bl	10003424 <__wrap___aeabi_dmul>
10001c4e:	0032      	movs	r2, r6
10001c50:	0004      	movs	r4, r0
10001c52:	000d      	movs	r5, r1
10001c54:	003b      	movs	r3, r7
10001c56:	0030      	movs	r0, r6
10001c58:	0039      	movs	r1, r7
10001c5a:	f001 fbd1 	bl	10003400 <__wrap___aeabi_dadd>
10001c5e:	2200      	movs	r2, #0
10001c60:	900e      	str	r0, [sp, #56]	; 0x38
10001c62:	910f      	str	r1, [sp, #60]	; 0x3c
10001c64:	4baf      	ldr	r3, [pc, #700]	; (10001f24 <_etoa+0x408>)
10001c66:	0020      	movs	r0, r4
10001c68:	0029      	movs	r1, r5
10001c6a:	f001 fbd2 	bl	10003412 <__wrap___aeabi_ddiv>
10001c6e:	2200      	movs	r2, #0
10001c70:	4bad      	ldr	r3, [pc, #692]	; (10001f28 <_etoa+0x40c>)
10001c72:	f001 fbc5 	bl	10003400 <__wrap___aeabi_dadd>
10001c76:	0002      	movs	r2, r0
10001c78:	000b      	movs	r3, r1
10001c7a:	0020      	movs	r0, r4
10001c7c:	0029      	movs	r1, r5
10001c7e:	f001 fbc8 	bl	10003412 <__wrap___aeabi_ddiv>
10001c82:	2200      	movs	r2, #0
10001c84:	4ba9      	ldr	r3, [pc, #676]	; (10001f2c <_etoa+0x410>)
10001c86:	f001 fbbb 	bl	10003400 <__wrap___aeabi_dadd>
10001c8a:	0002      	movs	r2, r0
10001c8c:	000b      	movs	r3, r1
10001c8e:	0020      	movs	r0, r4
10001c90:	0029      	movs	r1, r5
10001c92:	f001 fbbe 	bl	10003412 <__wrap___aeabi_ddiv>
10001c96:	000d      	movs	r5, r1
10001c98:	2180      	movs	r1, #128	; 0x80
10001c9a:	0004      	movs	r4, r0
10001c9c:	0032      	movs	r2, r6
10001c9e:	003b      	movs	r3, r7
10001ca0:	2000      	movs	r0, #0
10001ca2:	05c9      	lsls	r1, r1, #23
10001ca4:	f001 fba3 	bl	100033ee <__wrap___aeabi_dsub>
10001ca8:	0002      	movs	r2, r0
10001caa:	000b      	movs	r3, r1
10001cac:	0020      	movs	r0, r4
10001cae:	0029      	movs	r1, r5
10001cb0:	f001 fba6 	bl	10003400 <__wrap___aeabi_dadd>
10001cb4:	0002      	movs	r2, r0
10001cb6:	000b      	movs	r3, r1
10001cb8:	980e      	ldr	r0, [sp, #56]	; 0x38
10001cba:	990f      	ldr	r1, [sp, #60]	; 0x3c
10001cbc:	f001 fba9 	bl	10003412 <__wrap___aeabi_ddiv>
10001cc0:	2200      	movs	r2, #0
10001cc2:	4b8d      	ldr	r3, [pc, #564]	; (10001ef8 <_etoa+0x3dc>)
10001cc4:	f001 fb9c 	bl	10003400 <__wrap___aeabi_dadd>
10001cc8:	9b10      	ldr	r3, [sp, #64]	; 0x40
10001cca:	4a99      	ldr	r2, [pc, #612]	; (10001f30 <_etoa+0x414>)
10001ccc:	001c      	movs	r4, r3
10001cce:	4694      	mov	ip, r2
10001cd0:	4464      	add	r4, ip
10001cd2:	2200      	movs	r2, #0
10001cd4:	0523      	lsls	r3, r4, #20
10001cd6:	f001 fba5 	bl	10003424 <__wrap___aeabi_dmul>
10001cda:	0006      	movs	r6, r0
10001cdc:	000f      	movs	r7, r1
10001cde:	0002      	movs	r2, r0
10001ce0:	000b      	movs	r3, r1
10001ce2:	980a      	ldr	r0, [sp, #40]	; 0x28
10001ce4:	9909      	ldr	r1, [sp, #36]	; 0x24
10001ce6:	f001 fbdf 	bl	100034a8 <__wrap___aeabi_dcmplt>
10001cea:	2800      	cmp	r0, #0
10001cec:	d00a      	beq.n	10001d04 <_etoa+0x1e8>
10001cee:	9b0d      	ldr	r3, [sp, #52]	; 0x34
10001cf0:	0030      	movs	r0, r6
10001cf2:	3b01      	subs	r3, #1
10001cf4:	0039      	movs	r1, r7
10001cf6:	930d      	str	r3, [sp, #52]	; 0x34
10001cf8:	2200      	movs	r2, #0
10001cfa:	4b8b      	ldr	r3, [pc, #556]	; (10001f28 <_etoa+0x40c>)
10001cfc:	f001 fb89 	bl	10003412 <__wrap___aeabi_ddiv>
10001d00:	0006      	movs	r6, r0
10001d02:	000f      	movs	r7, r1
10001d04:	9d0d      	ldr	r5, [sp, #52]	; 0x34
10001d06:	24c6      	movs	r4, #198	; 0xc6
10001d08:	002b      	movs	r3, r5
10001d0a:	3363      	adds	r3, #99	; 0x63
10001d0c:	429c      	cmp	r4, r3
10001d0e:	41a4      	sbcs	r4, r4
10001d10:	9b28      	ldr	r3, [sp, #160]	; 0xa0
10001d12:	4264      	negs	r4, r4
10001d14:	3404      	adds	r4, #4
10001d16:	051b      	lsls	r3, r3, #20
10001d18:	d51f      	bpl.n	10001d5a <_etoa+0x23e>
10001d1a:	4a86      	ldr	r2, [pc, #536]	; (10001f34 <_etoa+0x418>)
10001d1c:	4b86      	ldr	r3, [pc, #536]	; (10001f38 <_etoa+0x41c>)
10001d1e:	980a      	ldr	r0, [sp, #40]	; 0x28
10001d20:	9909      	ldr	r1, [sp, #36]	; 0x24
10001d22:	f001 fbcf 	bl	100034c4 <__wrap___aeabi_dcmpge>
10001d26:	2800      	cmp	r0, #0
10001d28:	d100      	bne.n	10001d2c <_etoa+0x210>
10001d2a:	e0cc      	b.n	10001ec6 <_etoa+0x3aa>
10001d2c:	2200      	movs	r2, #0
10001d2e:	4b83      	ldr	r3, [pc, #524]	; (10001f3c <_etoa+0x420>)
10001d30:	980a      	ldr	r0, [sp, #40]	; 0x28
10001d32:	9909      	ldr	r1, [sp, #36]	; 0x24
10001d34:	f001 fbb8 	bl	100034a8 <__wrap___aeabi_dcmplt>
10001d38:	2800      	cmp	r0, #0
10001d3a:	d100      	bne.n	10001d3e <_etoa+0x222>
10001d3c:	e0c3      	b.n	10001ec6 <_etoa+0x3aa>
10001d3e:	9a26      	ldr	r2, [sp, #152]	; 0x98
10001d40:	4295      	cmp	r5, r2
10001d42:	da00      	bge.n	10001d46 <_etoa+0x22a>
10001d44:	e10b      	b.n	10001f5e <_etoa+0x442>
10001d46:	2300      	movs	r3, #0
10001d48:	9326      	str	r3, [sp, #152]	; 0x98
10001d4a:	2380      	movs	r3, #128	; 0x80
10001d4c:	9a28      	ldr	r2, [sp, #160]	; 0xa0
10001d4e:	00db      	lsls	r3, r3, #3
10001d50:	431a      	orrs	r2, r3
10001d52:	2300      	movs	r3, #0
10001d54:	2400      	movs	r4, #0
10001d56:	9228      	str	r2, [sp, #160]	; 0xa0
10001d58:	930d      	str	r3, [sp, #52]	; 0x34
10001d5a:	9b27      	ldr	r3, [sp, #156]	; 0x9c
10001d5c:	2500      	movs	r5, #0
10001d5e:	42a3      	cmp	r3, r4
10001d60:	d900      	bls.n	10001d64 <_etoa+0x248>
10001d62:	1b1d      	subs	r5, r3, r4
10001d64:	2302      	movs	r3, #2
10001d66:	9a28      	ldr	r2, [sp, #160]	; 0xa0
10001d68:	401a      	ands	r2, r3
10001d6a:	9210      	str	r2, [sp, #64]	; 0x40
10001d6c:	9a28      	ldr	r2, [sp, #160]	; 0xa0
10001d6e:	4213      	tst	r3, r2
10001d70:	d003      	beq.n	10001d7a <_etoa+0x25e>
10001d72:	4263      	negs	r3, r4
10001d74:	4163      	adcs	r3, r4
10001d76:	425b      	negs	r3, r3
10001d78:	401d      	ands	r5, r3
10001d7a:	9b0d      	ldr	r3, [sp, #52]	; 0x34
10001d7c:	2b00      	cmp	r3, #0
10001d7e:	d007      	beq.n	10001d90 <_etoa+0x274>
10001d80:	980a      	ldr	r0, [sp, #40]	; 0x28
10001d82:	9909      	ldr	r1, [sp, #36]	; 0x24
10001d84:	0032      	movs	r2, r6
10001d86:	003b      	movs	r3, r7
10001d88:	f001 fb43 	bl	10003412 <__wrap___aeabi_ddiv>
10001d8c:	900a      	str	r0, [sp, #40]	; 0x28
10001d8e:	9109      	str	r1, [sp, #36]	; 0x24
10001d90:	2200      	movs	r2, #0
10001d92:	2300      	movs	r3, #0
10001d94:	4648      	mov	r0, r9
10001d96:	4641      	mov	r1, r8
10001d98:	f001 fb86 	bl	100034a8 <__wrap___aeabi_dcmplt>
10001d9c:	2800      	cmp	r0, #0
10001d9e:	d005      	beq.n	10001dac <_etoa+0x290>
10001da0:	2080      	movs	r0, #128	; 0x80
10001da2:	0600      	lsls	r0, r0, #24
10001da4:	4684      	mov	ip, r0
10001da6:	9909      	ldr	r1, [sp, #36]	; 0x24
10001da8:	4461      	add	r1, ip
10001daa:	9109      	str	r1, [sp, #36]	; 0x24
10001dac:	9a28      	ldr	r2, [sp, #160]	; 0xa0
10001dae:	4b64      	ldr	r3, [pc, #400]	; (10001f40 <_etoa+0x424>)
10001db0:	9e0b      	ldr	r6, [sp, #44]	; 0x2c
10001db2:	4013      	ands	r3, r2
10001db4:	9304      	str	r3, [sp, #16]
10001db6:	9b26      	ldr	r3, [sp, #152]	; 0x98
10001db8:	9a0a      	ldr	r2, [sp, #40]	; 0x28
10001dba:	9302      	str	r3, [sp, #8]
10001dbc:	9b09      	ldr	r3, [sp, #36]	; 0x24
10001dbe:	9503      	str	r5, [sp, #12]
10001dc0:	9200      	str	r2, [sp, #0]
10001dc2:	9301      	str	r3, [sp, #4]
10001dc4:	4659      	mov	r1, fp
10001dc6:	4653      	mov	r3, sl
10001dc8:	0030      	movs	r0, r6
10001dca:	9a0c      	ldr	r2, [sp, #48]	; 0x30
10001dcc:	f000 f8cc 	bl	10001f68 <_ftoa>
10001dd0:	0005      	movs	r5, r0
10001dd2:	2c00      	cmp	r4, #0
10001dd4:	d06f      	beq.n	10001eb6 <_etoa+0x39a>
10001dd6:	9b28      	ldr	r3, [sp, #160]	; 0xa0
10001dd8:	002a      	movs	r2, r5
10001dda:	0698      	lsls	r0, r3, #26
10001ddc:	231f      	movs	r3, #31
10001dde:	17c0      	asrs	r0, r0, #31
10001de0:	4398      	bics	r0, r3
10001de2:	1c6b      	adds	r3, r5, #1
10001de4:	4698      	mov	r8, r3
10001de6:	4659      	mov	r1, fp
10001de8:	4653      	mov	r3, sl
10001dea:	3065      	adds	r0, #101	; 0x65
10001dec:	47b0      	blx	r6
10001dee:	9b0d      	ldr	r3, [sp, #52]	; 0x34
10001df0:	2600      	movs	r6, #0
10001df2:	17da      	asrs	r2, r3, #31
10001df4:	189d      	adds	r5, r3, r2
10001df6:	0fdb      	lsrs	r3, r3, #31
10001df8:	4699      	mov	r9, r3
10001dfa:	4055      	eors	r5, r2
10001dfc:	3c01      	subs	r4, #1
10001dfe:	e001      	b.n	10001e04 <_etoa+0x2e8>
10001e00:	2e20      	cmp	r6, #32
10001e02:	d013      	beq.n	10001e2c <_etoa+0x310>
10001e04:	aa0a      	add	r2, sp, #40	; 0x28
10001e06:	4694      	mov	ip, r2
10001e08:	231f      	movs	r3, #31
10001e0a:	0028      	movs	r0, r5
10001e0c:	4463      	add	r3, ip
10001e0e:	210a      	movs	r1, #10
10001e10:	3601      	adds	r6, #1
10001e12:	199f      	adds	r7, r3, r6
10001e14:	f001 f8a6 	bl	10002f64 <__wrap___aeabi_uidiv>
10001e18:	3130      	adds	r1, #48	; 0x30
10001e1a:	7039      	strb	r1, [r7, #0]
10001e1c:	0028      	movs	r0, r5
10001e1e:	210a      	movs	r1, #10
10001e20:	f001 f8a0 	bl	10002f64 <__wrap___aeabi_uidiv>
10001e24:	002f      	movs	r7, r5
10001e26:	0005      	movs	r5, r0
10001e28:	2f09      	cmp	r7, #9
10001e2a:	d8e9      	bhi.n	10001e00 <_etoa+0x2e4>
10001e2c:	2305      	movs	r3, #5
10001e2e:	9306      	str	r3, [sp, #24]
10001e30:	2300      	movs	r3, #0
10001e32:	9304      	str	r3, [sp, #16]
10001e34:	330a      	adds	r3, #10
10001e36:	9303      	str	r3, [sp, #12]
10001e38:	464b      	mov	r3, r9
10001e3a:	9601      	str	r6, [sp, #4]
10001e3c:	9e0b      	ldr	r6, [sp, #44]	; 0x2c
10001e3e:	9302      	str	r3, [sp, #8]
10001e40:	ab12      	add	r3, sp, #72	; 0x48
10001e42:	9300      	str	r3, [sp, #0]
10001e44:	4642      	mov	r2, r8
10001e46:	4653      	mov	r3, sl
10001e48:	4659      	mov	r1, fp
10001e4a:	0030      	movs	r0, r6
10001e4c:	9405      	str	r4, [sp, #20]
10001e4e:	f7ff fd6d 	bl	1000192c <_ntoa_format>
10001e52:	9b10      	ldr	r3, [sp, #64]	; 0x40
10001e54:	0005      	movs	r5, r0
10001e56:	2b00      	cmp	r3, #0
10001e58:	d02d      	beq.n	10001eb6 <_etoa+0x39a>
10001e5a:	9b0c      	ldr	r3, [sp, #48]	; 0x30
10001e5c:	9a27      	ldr	r2, [sp, #156]	; 0x9c
10001e5e:	1ac4      	subs	r4, r0, r3
10001e60:	42a2      	cmp	r2, r4
10001e62:	d928      	bls.n	10001eb6 <_etoa+0x39a>
10001e64:	4681      	mov	r9, r0
10001e66:	465d      	mov	r5, fp
10001e68:	4698      	mov	r8, r3
10001e6a:	0017      	movs	r7, r2
10001e6c:	4643      	mov	r3, r8
10001e6e:	0029      	movs	r1, r5
10001e70:	191a      	adds	r2, r3, r4
10001e72:	2020      	movs	r0, #32
10001e74:	4653      	mov	r3, sl
10001e76:	3401      	adds	r4, #1
10001e78:	47b0      	blx	r6
10001e7a:	42a7      	cmp	r7, r4
10001e7c:	d8f6      	bhi.n	10001e6c <_etoa+0x350>
10001e7e:	464d      	mov	r5, r9
10001e80:	990c      	ldr	r1, [sp, #48]	; 0x30
10001e82:	9827      	ldr	r0, [sp, #156]	; 0x9c
10001e84:	1a6b      	subs	r3, r5, r1
10001e86:	3301      	adds	r3, #1
10001e88:	2200      	movs	r2, #0
10001e8a:	4298      	cmp	r0, r3
10001e8c:	d261      	bcs.n	10001f52 <_etoa+0x436>
10001e8e:	3501      	adds	r5, #1
10001e90:	1955      	adds	r5, r2, r5
10001e92:	e010      	b.n	10001eb6 <_etoa+0x39a>
10001e94:	9b28      	ldr	r3, [sp, #160]	; 0xa0
10001e96:	464a      	mov	r2, r9
10001e98:	9304      	str	r3, [sp, #16]
10001e9a:	9b27      	ldr	r3, [sp, #156]	; 0x9c
10001e9c:	4659      	mov	r1, fp
10001e9e:	9303      	str	r3, [sp, #12]
10001ea0:	9b26      	ldr	r3, [sp, #152]	; 0x98
10001ea2:	980b      	ldr	r0, [sp, #44]	; 0x2c
10001ea4:	9302      	str	r3, [sp, #8]
10001ea6:	4643      	mov	r3, r8
10001ea8:	9200      	str	r2, [sp, #0]
10001eaa:	9301      	str	r3, [sp, #4]
10001eac:	4653      	mov	r3, sl
10001eae:	9a0c      	ldr	r2, [sp, #48]	; 0x30
10001eb0:	f000 f85a 	bl	10001f68 <_ftoa>
10001eb4:	0005      	movs	r5, r0
10001eb6:	0028      	movs	r0, r5
10001eb8:	b01b      	add	sp, #108	; 0x6c
10001eba:	bc3c      	pop	{r2, r3, r4, r5}
10001ebc:	4690      	mov	r8, r2
10001ebe:	4699      	mov	r9, r3
10001ec0:	46a2      	mov	sl, r4
10001ec2:	46ab      	mov	fp, r5
10001ec4:	bdf0      	pop	{r4, r5, r6, r7, pc}
10001ec6:	9b26      	ldr	r3, [sp, #152]	; 0x98
10001ec8:	2b00      	cmp	r3, #0
10001eca:	d100      	bne.n	10001ece <_etoa+0x3b2>
10001ecc:	e745      	b.n	10001d5a <_etoa+0x23e>
10001ece:	9b11      	ldr	r3, [sp, #68]	; 0x44
10001ed0:	1e5a      	subs	r2, r3, #1
10001ed2:	4193      	sbcs	r3, r2
10001ed4:	9a26      	ldr	r2, [sp, #152]	; 0x98
10001ed6:	1ad3      	subs	r3, r2, r3
10001ed8:	9326      	str	r3, [sp, #152]	; 0x98
10001eda:	e73e      	b.n	10001d5a <_etoa+0x23e>
10001edc:	7fefffff 	.word	0x7fefffff
10001ee0:	ffefffff 	.word	0xffefffff
10001ee4:	fffffc01 	.word	0xfffffc01
10001ee8:	509f79fb 	.word	0x509f79fb
10001eec:	3fd34413 	.word	0x3fd34413
10001ef0:	8b60c8b3 	.word	0x8b60c8b3
10001ef4:	3fc68a28 	.word	0x3fc68a28
10001ef8:	3ff00000 	.word	0x3ff00000
10001efc:	3ff80000 	.word	0x3ff80000
10001f00:	636f4361 	.word	0x636f4361
10001f04:	3fd287a7 	.word	0x3fd287a7
10001f08:	0979a371 	.word	0x0979a371
10001f0c:	400a934f 	.word	0x400a934f
10001f10:	3fe00000 	.word	0x3fe00000
10001f14:	bbb55516 	.word	0xbbb55516
10001f18:	40026bb1 	.word	0x40026bb1
10001f1c:	fefa39ef 	.word	0xfefa39ef
10001f20:	3fe62e42 	.word	0x3fe62e42
10001f24:	402c0000 	.word	0x402c0000
10001f28:	40240000 	.word	0x40240000
10001f2c:	40180000 	.word	0x40180000
10001f30:	000003ff 	.word	0x000003ff
10001f34:	eb1c432d 	.word	0xeb1c432d
10001f38:	3f1a36e2 	.word	0x3f1a36e2
10001f3c:	412e8480 	.word	0x412e8480
10001f40:	fffff7ff 	.word	0xfffff7ff
10001f44:	464b      	mov	r3, r9
10001f46:	930a      	str	r3, [sp, #40]	; 0x28
10001f48:	2380      	movs	r3, #128	; 0x80
10001f4a:	061b      	lsls	r3, r3, #24
10001f4c:	4443      	add	r3, r8
10001f4e:	9309      	str	r3, [sp, #36]	; 0x24
10001f50:	e61d      	b.n	10001b8e <_etoa+0x72>
10001f52:	000a      	movs	r2, r1
10001f54:	4684      	mov	ip, r0
10001f56:	3a01      	subs	r2, #1
10001f58:	4462      	add	r2, ip
10001f5a:	1b52      	subs	r2, r2, r5
10001f5c:	e797      	b.n	10001e8e <_etoa+0x372>
10001f5e:	1b50      	subs	r0, r2, r5
10001f60:	1e43      	subs	r3, r0, #1
10001f62:	9326      	str	r3, [sp, #152]	; 0x98
10001f64:	e6f1      	b.n	10001d4a <_etoa+0x22e>
10001f66:	46c0      	nop			; (mov r8, r8)

10001f68 <_ftoa>:
10001f68:	b5f0      	push	{r4, r5, r6, r7, lr}
10001f6a:	464e      	mov	r6, r9
10001f6c:	46de      	mov	lr, fp
10001f6e:	4657      	mov	r7, sl
10001f70:	4645      	mov	r5, r8
10001f72:	b5e0      	push	{r5, r6, r7, lr}
10001f74:	b097      	sub	sp, #92	; 0x5c
10001f76:	4699      	mov	r9, r3
10001f78:	9e20      	ldr	r6, [sp, #128]	; 0x80
10001f7a:	9f21      	ldr	r7, [sp, #132]	; 0x84
10001f7c:	9b22      	ldr	r3, [sp, #136]	; 0x88
10001f7e:	4683      	mov	fp, r0
10001f80:	4698      	mov	r8, r3
10001f82:	9107      	str	r1, [sp, #28]
10001f84:	920c      	str	r2, [sp, #48]	; 0x30
10001f86:	003b      	movs	r3, r7
10001f88:	0032      	movs	r2, r6
10001f8a:	0030      	movs	r0, r6
10001f8c:	0039      	movs	r1, r7
10001f8e:	f001 faa6 	bl	100034de <__wrap___aeabi_dcmpun>
10001f92:	2800      	cmp	r0, #0
10001f94:	d000      	beq.n	10001f98 <_ftoa+0x30>
10001f96:	e1c1      	b.n	1000231c <_ftoa+0x3b4>
10001f98:	2201      	movs	r2, #1
10001f9a:	0030      	movs	r0, r6
10001f9c:	0039      	movs	r1, r7
10001f9e:	4bca      	ldr	r3, [pc, #808]	; (100022c8 <_ftoa+0x360>)
10001fa0:	4252      	negs	r2, r2
10001fa2:	f001 fa81 	bl	100034a8 <__wrap___aeabi_dcmplt>
10001fa6:	2800      	cmp	r0, #0
10001fa8:	d000      	beq.n	10001fac <_ftoa+0x44>
10001faa:	e0e0      	b.n	1000216e <_ftoa+0x206>
10001fac:	2201      	movs	r2, #1
10001fae:	0030      	movs	r0, r6
10001fb0:	0039      	movs	r1, r7
10001fb2:	4bc6      	ldr	r3, [pc, #792]	; (100022cc <_ftoa+0x364>)
10001fb4:	4252      	negs	r2, r2
10001fb6:	f001 fa8d 	bl	100034d4 <__wrap___aeabi_dcmpgt>
10001fba:	2800      	cmp	r0, #0
10001fbc:	d000      	beq.n	10001fc0 <_ftoa+0x58>
10001fbe:	e0b6      	b.n	1000212e <_ftoa+0x1c6>
10001fc0:	2200      	movs	r2, #0
10001fc2:	0030      	movs	r0, r6
10001fc4:	0039      	movs	r1, r7
10001fc6:	4bc2      	ldr	r3, [pc, #776]	; (100022d0 <_ftoa+0x368>)
10001fc8:	f001 fa84 	bl	100034d4 <__wrap___aeabi_dcmpgt>
10001fcc:	2800      	cmp	r0, #0
10001fce:	d000      	beq.n	10001fd2 <_ftoa+0x6a>
10001fd0:	e098      	b.n	10002104 <_ftoa+0x19c>
10001fd2:	2200      	movs	r2, #0
10001fd4:	0030      	movs	r0, r6
10001fd6:	0039      	movs	r1, r7
10001fd8:	4bbe      	ldr	r3, [pc, #760]	; (100022d4 <_ftoa+0x36c>)
10001fda:	f001 fa65 	bl	100034a8 <__wrap___aeabi_dcmplt>
10001fde:	2800      	cmp	r0, #0
10001fe0:	d000      	beq.n	10001fe4 <_ftoa+0x7c>
10001fe2:	e08f      	b.n	10002104 <_ftoa+0x19c>
10001fe4:	2200      	movs	r2, #0
10001fe6:	2300      	movs	r3, #0
10001fe8:	0030      	movs	r0, r6
10001fea:	0039      	movs	r1, r7
10001fec:	f001 fa5c 	bl	100034a8 <__wrap___aeabi_dcmplt>
10001ff0:	2800      	cmp	r0, #0
10001ff2:	d000      	beq.n	10001ff6 <_ftoa+0x8e>
10001ff4:	e0b0      	b.n	10002158 <_ftoa+0x1f0>
10001ff6:	2300      	movs	r3, #0
10001ff8:	930d      	str	r3, [sp, #52]	; 0x34
10001ffa:	9b24      	ldr	r3, [sp, #144]	; 0x90
10001ffc:	055b      	lsls	r3, r3, #21
10001ffe:	d401      	bmi.n	10002004 <_ftoa+0x9c>
10002000:	2306      	movs	r3, #6
10002002:	4698      	mov	r8, r3
10002004:	ab08      	add	r3, sp, #32
10002006:	469c      	mov	ip, r3
10002008:	2217      	movs	r2, #23
1000200a:	2400      	movs	r4, #0
1000200c:	2330      	movs	r3, #48	; 0x30
1000200e:	4641      	mov	r1, r8
10002010:	4462      	add	r2, ip
10002012:	e004      	b.n	1000201e <_ftoa+0xb6>
10002014:	3401      	adds	r4, #1
10002016:	5513      	strb	r3, [r2, r4]
10002018:	3901      	subs	r1, #1
1000201a:	2c20      	cmp	r4, #32
1000201c:	d001      	beq.n	10002022 <_ftoa+0xba>
1000201e:	2909      	cmp	r1, #9
10002020:	d8f8      	bhi.n	10002014 <_ftoa+0xac>
10002022:	4688      	mov	r8, r1
10002024:	0030      	movs	r0, r6
10002026:	0039      	movs	r1, r7
10002028:	f001 fa84 	bl	10003534 <__wrap___aeabi_d2iz>
1000202c:	4643      	mov	r3, r8
1000202e:	00da      	lsls	r2, r3, #3
10002030:	4ba9      	ldr	r3, [pc, #676]	; (100022d8 <_ftoa+0x370>)
10002032:	0005      	movs	r5, r0
10002034:	189b      	adds	r3, r3, r2
10002036:	681a      	ldr	r2, [r3, #0]
10002038:	685b      	ldr	r3, [r3, #4]
1000203a:	9208      	str	r2, [sp, #32]
1000203c:	9309      	str	r3, [sp, #36]	; 0x24
1000203e:	f001 fa61 	bl	10003504 <__wrap___aeabi_i2d>
10002042:	0002      	movs	r2, r0
10002044:	000b      	movs	r3, r1
10002046:	0030      	movs	r0, r6
10002048:	0039      	movs	r1, r7
1000204a:	f001 f9d0 	bl	100033ee <__wrap___aeabi_dsub>
1000204e:	9a08      	ldr	r2, [sp, #32]
10002050:	9b09      	ldr	r3, [sp, #36]	; 0x24
10002052:	f001 f9e7 	bl	10003424 <__wrap___aeabi_dmul>
10002056:	900a      	str	r0, [sp, #40]	; 0x28
10002058:	910b      	str	r1, [sp, #44]	; 0x2c
1000205a:	f001 fa8f 	bl	1000357c <__wrap___aeabi_d2uiz>
1000205e:	4682      	mov	sl, r0
10002060:	f001 fa4c 	bl	100034fc <__wrap___aeabi_ui2d>
10002064:	0002      	movs	r2, r0
10002066:	000b      	movs	r3, r1
10002068:	980a      	ldr	r0, [sp, #40]	; 0x28
1000206a:	990b      	ldr	r1, [sp, #44]	; 0x2c
1000206c:	f001 f9bf 	bl	100033ee <__wrap___aeabi_dsub>
10002070:	2200      	movs	r2, #0
10002072:	4b9a      	ldr	r3, [pc, #616]	; (100022dc <_ftoa+0x374>)
10002074:	900a      	str	r0, [sp, #40]	; 0x28
10002076:	910b      	str	r1, [sp, #44]	; 0x2c
10002078:	f001 fa2c 	bl	100034d4 <__wrap___aeabi_dcmpgt>
1000207c:	2800      	cmp	r0, #0
1000207e:	d100      	bne.n	10002082 <_ftoa+0x11a>
10002080:	e0c0      	b.n	10002204 <_ftoa+0x29c>
10002082:	2301      	movs	r3, #1
10002084:	469c      	mov	ip, r3
10002086:	44e2      	add	sl, ip
10002088:	4650      	mov	r0, sl
1000208a:	f001 fa37 	bl	100034fc <__wrap___aeabi_ui2d>
1000208e:	0002      	movs	r2, r0
10002090:	000b      	movs	r3, r1
10002092:	9808      	ldr	r0, [sp, #32]
10002094:	9909      	ldr	r1, [sp, #36]	; 0x24
10002096:	f001 fa0d 	bl	100034b4 <__wrap___aeabi_dcmple>
1000209a:	2800      	cmp	r0, #0
1000209c:	d002      	beq.n	100020a4 <_ftoa+0x13c>
1000209e:	2300      	movs	r3, #0
100020a0:	469a      	mov	sl, r3
100020a2:	3501      	adds	r5, #1
100020a4:	4643      	mov	r3, r8
100020a6:	2b00      	cmp	r3, #0
100020a8:	d069      	beq.n	1000217e <_ftoa+0x216>
100020aa:	ab08      	add	r3, sp, #32
100020ac:	2617      	movs	r6, #23
100020ae:	469c      	mov	ip, r3
100020b0:	9508      	str	r5, [sp, #32]
100020b2:	4466      	add	r6, ip
100020b4:	4655      	mov	r5, sl
100020b6:	e014      	b.n	100020e2 <_ftoa+0x17a>
100020b8:	2301      	movs	r3, #1
100020ba:	425b      	negs	r3, r3
100020bc:	4443      	add	r3, r8
100020be:	210a      	movs	r1, #10
100020c0:	0028      	movs	r0, r5
100020c2:	469a      	mov	sl, r3
100020c4:	f000 ff4e 	bl	10002f64 <__wrap___aeabi_uidiv>
100020c8:	3401      	adds	r4, #1
100020ca:	3130      	adds	r1, #48	; 0x30
100020cc:	1937      	adds	r7, r6, r4
100020ce:	7039      	strb	r1, [r7, #0]
100020d0:	0028      	movs	r0, r5
100020d2:	210a      	movs	r1, #10
100020d4:	f000 ff46 	bl	10002f64 <__wrap___aeabi_uidiv>
100020d8:	2d09      	cmp	r5, #9
100020da:	d800      	bhi.n	100020de <_ftoa+0x176>
100020dc:	e0d5      	b.n	1000228a <_ftoa+0x322>
100020de:	46d0      	mov	r8, sl
100020e0:	0005      	movs	r5, r0
100020e2:	2c20      	cmp	r4, #32
100020e4:	d1e8      	bne.n	100020b8 <_ftoa+0x150>
100020e6:	2303      	movs	r3, #3
100020e8:	9a24      	ldr	r2, [sp, #144]	; 0x90
100020ea:	4013      	ands	r3, r2
100020ec:	2b01      	cmp	r3, #1
100020ee:	d100      	bne.n	100020f2 <_ftoa+0x18a>
100020f0:	e100      	b.n	100022f4 <_ftoa+0x38c>
100020f2:	ab0e      	add	r3, sp, #56	; 0x38
100020f4:	4698      	mov	r8, r3
100020f6:	9b24      	ldr	r3, [sp, #144]	; 0x90
100020f8:	9401      	str	r4, [sp, #4]
100020fa:	9303      	str	r3, [sp, #12]
100020fc:	9b23      	ldr	r3, [sp, #140]	; 0x8c
100020fe:	9302      	str	r3, [sp, #8]
10002100:	4643      	mov	r3, r8
10002102:	e01e      	b.n	10002142 <_ftoa+0x1da>
10002104:	9b24      	ldr	r3, [sp, #144]	; 0x90
10002106:	4658      	mov	r0, fp
10002108:	9304      	str	r3, [sp, #16]
1000210a:	9b23      	ldr	r3, [sp, #140]	; 0x8c
1000210c:	9600      	str	r6, [sp, #0]
1000210e:	9701      	str	r7, [sp, #4]
10002110:	9303      	str	r3, [sp, #12]
10002112:	4643      	mov	r3, r8
10002114:	9a0c      	ldr	r2, [sp, #48]	; 0x30
10002116:	9302      	str	r3, [sp, #8]
10002118:	9907      	ldr	r1, [sp, #28]
1000211a:	464b      	mov	r3, r9
1000211c:	f7ff fcfe 	bl	10001b1c <_etoa>
10002120:	b017      	add	sp, #92	; 0x5c
10002122:	bc3c      	pop	{r2, r3, r4, r5}
10002124:	4690      	mov	r8, r2
10002126:	4699      	mov	r9, r3
10002128:	46a2      	mov	sl, r4
1000212a:	46ab      	mov	fp, r5
1000212c:	bdf0      	pop	{r4, r5, r6, r7, pc}
1000212e:	9b24      	ldr	r3, [sp, #144]	; 0x90
10002130:	075b      	lsls	r3, r3, #29
10002132:	d40e      	bmi.n	10002152 <_ftoa+0x1ea>
10002134:	2203      	movs	r2, #3
10002136:	4b6a      	ldr	r3, [pc, #424]	; (100022e0 <_ftoa+0x378>)
10002138:	9924      	ldr	r1, [sp, #144]	; 0x90
1000213a:	9201      	str	r2, [sp, #4]
1000213c:	9103      	str	r1, [sp, #12]
1000213e:	9923      	ldr	r1, [sp, #140]	; 0x8c
10002140:	9102      	str	r1, [sp, #8]
10002142:	9300      	str	r3, [sp, #0]
10002144:	4658      	mov	r0, fp
10002146:	464b      	mov	r3, r9
10002148:	9a0c      	ldr	r2, [sp, #48]	; 0x30
1000214a:	9907      	ldr	r1, [sp, #28]
1000214c:	f7ff fb86 	bl	1000185c <_out_rev>
10002150:	e7e6      	b.n	10002120 <_ftoa+0x1b8>
10002152:	2204      	movs	r2, #4
10002154:	4b63      	ldr	r3, [pc, #396]	; (100022e4 <_ftoa+0x37c>)
10002156:	e7ef      	b.n	10002138 <_ftoa+0x1d0>
10002158:	003b      	movs	r3, r7
1000215a:	0032      	movs	r2, r6
1000215c:	2000      	movs	r0, #0
1000215e:	2100      	movs	r1, #0
10002160:	f001 f945 	bl	100033ee <__wrap___aeabi_dsub>
10002164:	2301      	movs	r3, #1
10002166:	0006      	movs	r6, r0
10002168:	000f      	movs	r7, r1
1000216a:	930d      	str	r3, [sp, #52]	; 0x34
1000216c:	e745      	b.n	10001ffa <_ftoa+0x92>
1000216e:	9b24      	ldr	r3, [sp, #144]	; 0x90
10002170:	9303      	str	r3, [sp, #12]
10002172:	9b23      	ldr	r3, [sp, #140]	; 0x8c
10002174:	9302      	str	r3, [sp, #8]
10002176:	2304      	movs	r3, #4
10002178:	9301      	str	r3, [sp, #4]
1000217a:	4b5b      	ldr	r3, [pc, #364]	; (100022e8 <_ftoa+0x380>)
1000217c:	e7e1      	b.n	10002142 <_ftoa+0x1da>
1000217e:	0028      	movs	r0, r5
10002180:	f001 f9c0 	bl	10003504 <__wrap___aeabi_i2d>
10002184:	0002      	movs	r2, r0
10002186:	000b      	movs	r3, r1
10002188:	0030      	movs	r0, r6
1000218a:	0039      	movs	r1, r7
1000218c:	f001 f92f 	bl	100033ee <__wrap___aeabi_dsub>
10002190:	4b52      	ldr	r3, [pc, #328]	; (100022dc <_ftoa+0x374>)
10002192:	2200      	movs	r2, #0
10002194:	0006      	movs	r6, r0
10002196:	000f      	movs	r7, r1
10002198:	f001 f986 	bl	100034a8 <__wrap___aeabi_dcmplt>
1000219c:	ab0e      	add	r3, sp, #56	; 0x38
1000219e:	4698      	mov	r8, r3
100021a0:	2800      	cmp	r0, #0
100021a2:	d10a      	bne.n	100021ba <_ftoa+0x252>
100021a4:	2200      	movs	r2, #0
100021a6:	0030      	movs	r0, r6
100021a8:	0039      	movs	r1, r7
100021aa:	4b4c      	ldr	r3, [pc, #304]	; (100022dc <_ftoa+0x374>)
100021ac:	f001 f992 	bl	100034d4 <__wrap___aeabi_dcmpgt>
100021b0:	2800      	cmp	r0, #0
100021b2:	d102      	bne.n	100021ba <_ftoa+0x252>
100021b4:	07eb      	lsls	r3, r5, #31
100021b6:	d500      	bpl.n	100021ba <_ftoa+0x252>
100021b8:	3501      	adds	r5, #1
100021ba:	2c20      	cmp	r4, #32
100021bc:	d032      	beq.n	10002224 <_ftoa+0x2bc>
100021be:	aa08      	add	r2, sp, #32
100021c0:	4694      	mov	ip, r2
100021c2:	2317      	movs	r3, #23
100021c4:	0028      	movs	r0, r5
100021c6:	4463      	add	r3, ip
100021c8:	210a      	movs	r1, #10
100021ca:	3401      	adds	r4, #1
100021cc:	191e      	adds	r6, r3, r4
100021ce:	f000 fe9d 	bl	10002f0c <__wrap___aeabi_idiv>
100021d2:	3130      	adds	r1, #48	; 0x30
100021d4:	0028      	movs	r0, r5
100021d6:	7031      	strb	r1, [r6, #0]
100021d8:	210a      	movs	r1, #10
100021da:	f000 fe97 	bl	10002f0c <__wrap___aeabi_idiv>
100021de:	1e05      	subs	r5, r0, #0
100021e0:	d1eb      	bne.n	100021ba <_ftoa+0x252>
100021e2:	2303      	movs	r3, #3
100021e4:	9a24      	ldr	r2, [sp, #144]	; 0x90
100021e6:	4013      	ands	r3, r2
100021e8:	2b01      	cmp	r3, #1
100021ea:	d100      	bne.n	100021ee <_ftoa+0x286>
100021ec:	e091      	b.n	10002312 <_ftoa+0x3aa>
100021ee:	2c1f      	cmp	r4, #31
100021f0:	d900      	bls.n	100021f4 <_ftoa+0x28c>
100021f2:	e780      	b.n	100020f6 <_ftoa+0x18e>
100021f4:	9b0d      	ldr	r3, [sp, #52]	; 0x34
100021f6:	2b00      	cmp	r3, #0
100021f8:	d03b      	beq.n	10002272 <_ftoa+0x30a>
100021fa:	232d      	movs	r3, #45	; 0x2d
100021fc:	4642      	mov	r2, r8
100021fe:	5513      	strb	r3, [r2, r4]
10002200:	3401      	adds	r4, #1
10002202:	e778      	b.n	100020f6 <_ftoa+0x18e>
10002204:	2200      	movs	r2, #0
10002206:	980a      	ldr	r0, [sp, #40]	; 0x28
10002208:	990b      	ldr	r1, [sp, #44]	; 0x2c
1000220a:	4b34      	ldr	r3, [pc, #208]	; (100022dc <_ftoa+0x374>)
1000220c:	f001 f94c 	bl	100034a8 <__wrap___aeabi_dcmplt>
10002210:	2800      	cmp	r0, #0
10002212:	d000      	beq.n	10002216 <_ftoa+0x2ae>
10002214:	e746      	b.n	100020a4 <_ftoa+0x13c>
10002216:	4653      	mov	r3, sl
10002218:	2b00      	cmp	r3, #0
1000221a:	d167      	bne.n	100022ec <_ftoa+0x384>
1000221c:	2301      	movs	r3, #1
1000221e:	469c      	mov	ip, r3
10002220:	44e2      	add	sl, ip
10002222:	e73f      	b.n	100020a4 <_ftoa+0x13c>
10002224:	2303      	movs	r3, #3
10002226:	9a24      	ldr	r2, [sp, #144]	; 0x90
10002228:	4013      	ands	r3, r2
1000222a:	2b01      	cmp	r3, #1
1000222c:	d000      	beq.n	10002230 <_ftoa+0x2c8>
1000222e:	e762      	b.n	100020f6 <_ftoa+0x18e>
10002230:	9b23      	ldr	r3, [sp, #140]	; 0x8c
10002232:	2b00      	cmp	r3, #0
10002234:	d100      	bne.n	10002238 <_ftoa+0x2d0>
10002236:	e75e      	b.n	100020f6 <_ftoa+0x18e>
10002238:	9b0d      	ldr	r3, [sp, #52]	; 0x34
1000223a:	2b00      	cmp	r3, #0
1000223c:	d103      	bne.n	10002246 <_ftoa+0x2de>
1000223e:	9a24      	ldr	r2, [sp, #144]	; 0x90
10002240:	330c      	adds	r3, #12
10002242:	4213      	tst	r3, r2
10002244:	d002      	beq.n	1000224c <_ftoa+0x2e4>
10002246:	9b23      	ldr	r3, [sp, #140]	; 0x8c
10002248:	3b01      	subs	r3, #1
1000224a:	9323      	str	r3, [sp, #140]	; 0x8c
1000224c:	9b23      	ldr	r3, [sp, #140]	; 0x8c
1000224e:	429c      	cmp	r4, r3
10002250:	d2cd      	bcs.n	100021ee <_ftoa+0x286>
10002252:	ab08      	add	r3, sp, #32
10002254:	469c      	mov	ip, r3
10002256:	2217      	movs	r2, #23
10002258:	2330      	movs	r3, #48	; 0x30
1000225a:	4462      	add	r2, ip
1000225c:	2c1f      	cmp	r4, #31
1000225e:	d806      	bhi.n	1000226e <_ftoa+0x306>
10002260:	9923      	ldr	r1, [sp, #140]	; 0x8c
10002262:	3401      	adds	r4, #1
10002264:	5513      	strb	r3, [r2, r4]
10002266:	428c      	cmp	r4, r1
10002268:	d0c1      	beq.n	100021ee <_ftoa+0x286>
1000226a:	2c20      	cmp	r4, #32
1000226c:	d1f8      	bne.n	10002260 <_ftoa+0x2f8>
1000226e:	2420      	movs	r4, #32
10002270:	e741      	b.n	100020f6 <_ftoa+0x18e>
10002272:	9b24      	ldr	r3, [sp, #144]	; 0x90
10002274:	075b      	lsls	r3, r3, #29
10002276:	d421      	bmi.n	100022bc <_ftoa+0x354>
10002278:	9b24      	ldr	r3, [sp, #144]	; 0x90
1000227a:	071b      	lsls	r3, r3, #28
1000227c:	d400      	bmi.n	10002280 <_ftoa+0x318>
1000227e:	e73a      	b.n	100020f6 <_ftoa+0x18e>
10002280:	2320      	movs	r3, #32
10002282:	4642      	mov	r2, r8
10002284:	5513      	strb	r3, [r2, r4]
10002286:	3401      	adds	r4, #1
10002288:	e735      	b.n	100020f6 <_ftoa+0x18e>
1000228a:	4657      	mov	r7, sl
1000228c:	9d08      	ldr	r5, [sp, #32]
1000228e:	2c20      	cmp	r4, #32
10002290:	d037      	beq.n	10002302 <_ftoa+0x39a>
10002292:	0022      	movs	r2, r4
10002294:	2130      	movs	r1, #48	; 0x30
10002296:	4640      	mov	r0, r8
10002298:	2f00      	cmp	r7, #0
1000229a:	d008      	beq.n	100022ae <_ftoa+0x346>
1000229c:	3201      	adds	r2, #1
1000229e:	54b1      	strb	r1, [r6, r2]
100022a0:	2a20      	cmp	r2, #32
100022a2:	d043      	beq.n	1000232c <_ftoa+0x3c4>
100022a4:	43d3      	mvns	r3, r2
100022a6:	191b      	adds	r3, r3, r4
100022a8:	181b      	adds	r3, r3, r0
100022aa:	2b00      	cmp	r3, #0
100022ac:	d1f6      	bne.n	1000229c <_ftoa+0x334>
100022ae:	ab0e      	add	r3, sp, #56	; 0x38
100022b0:	4698      	mov	r8, r3
100022b2:	232e      	movs	r3, #46	; 0x2e
100022b4:	4641      	mov	r1, r8
100022b6:	1c54      	adds	r4, r2, #1
100022b8:	548b      	strb	r3, [r1, r2]
100022ba:	e77e      	b.n	100021ba <_ftoa+0x252>
100022bc:	232b      	movs	r3, #43	; 0x2b
100022be:	4642      	mov	r2, r8
100022c0:	5513      	strb	r3, [r2, r4]
100022c2:	3401      	adds	r4, #1
100022c4:	e717      	b.n	100020f6 <_ftoa+0x18e>
100022c6:	46c0      	nop			; (mov r8, r8)
100022c8:	ffefffff 	.word	0xffefffff
100022cc:	7fefffff 	.word	0x7fefffff
100022d0:	41cdcd65 	.word	0x41cdcd65
100022d4:	c1cdcd65 	.word	0xc1cdcd65
100022d8:	10004e00 	.word	0x10004e00
100022dc:	3fe00000 	.word	0x3fe00000
100022e0:	10004c04 	.word	0x10004c04
100022e4:	10004c08 	.word	0x10004c08
100022e8:	10004c14 	.word	0x10004c14
100022ec:	07db      	lsls	r3, r3, #31
100022ee:	d400      	bmi.n	100022f2 <_ftoa+0x38a>
100022f0:	e6d8      	b.n	100020a4 <_ftoa+0x13c>
100022f2:	e793      	b.n	1000221c <_ftoa+0x2b4>
100022f4:	9b23      	ldr	r3, [sp, #140]	; 0x8c
100022f6:	2b00      	cmp	r3, #0
100022f8:	d100      	bne.n	100022fc <_ftoa+0x394>
100022fa:	e6fa      	b.n	100020f2 <_ftoa+0x18a>
100022fc:	ab0e      	add	r3, sp, #56	; 0x38
100022fe:	4698      	mov	r8, r3
10002300:	e79a      	b.n	10002238 <_ftoa+0x2d0>
10002302:	2303      	movs	r3, #3
10002304:	9a24      	ldr	r2, [sp, #144]	; 0x90
10002306:	4013      	ands	r3, r2
10002308:	2b01      	cmp	r3, #1
1000230a:	d000      	beq.n	1000230e <_ftoa+0x3a6>
1000230c:	e6f1      	b.n	100020f2 <_ftoa+0x18a>
1000230e:	ab0e      	add	r3, sp, #56	; 0x38
10002310:	4698      	mov	r8, r3
10002312:	9b23      	ldr	r3, [sp, #140]	; 0x8c
10002314:	2b00      	cmp	r3, #0
10002316:	d100      	bne.n	1000231a <_ftoa+0x3b2>
10002318:	e769      	b.n	100021ee <_ftoa+0x286>
1000231a:	e78d      	b.n	10002238 <_ftoa+0x2d0>
1000231c:	9b24      	ldr	r3, [sp, #144]	; 0x90
1000231e:	9303      	str	r3, [sp, #12]
10002320:	9b23      	ldr	r3, [sp, #140]	; 0x8c
10002322:	9302      	str	r3, [sp, #8]
10002324:	2303      	movs	r3, #3
10002326:	9301      	str	r3, [sp, #4]
10002328:	4b06      	ldr	r3, [pc, #24]	; (10002344 <_ftoa+0x3dc>)
1000232a:	e70a      	b.n	10002142 <_ftoa+0x1da>
1000232c:	2303      	movs	r3, #3
1000232e:	9a24      	ldr	r2, [sp, #144]	; 0x90
10002330:	2420      	movs	r4, #32
10002332:	4013      	ands	r3, r2
10002334:	2b01      	cmp	r3, #1
10002336:	d000      	beq.n	1000233a <_ftoa+0x3d2>
10002338:	e6db      	b.n	100020f2 <_ftoa+0x18a>
1000233a:	9b23      	ldr	r3, [sp, #140]	; 0x8c
1000233c:	2420      	movs	r4, #32
1000233e:	2b00      	cmp	r3, #0
10002340:	d1dc      	bne.n	100022fc <_ftoa+0x394>
10002342:	e6d6      	b.n	100020f2 <_ftoa+0x18a>
10002344:	10004c10 	.word	0x10004c10

10002348 <_vsnprintf>:
10002348:	b5f0      	push	{r4, r5, r6, r7, lr}
1000234a:	46de      	mov	lr, fp
1000234c:	464e      	mov	r6, r9
1000234e:	4657      	mov	r7, sl
10002350:	4645      	mov	r5, r8
10002352:	b5e0      	push	{r5, r6, r7, lr}
10002354:	b09f      	sub	sp, #124	; 0x7c
10002356:	001c      	movs	r4, r3
10002358:	9b28      	ldr	r3, [sp, #160]	; 0xa0
1000235a:	4693      	mov	fp, r2
1000235c:	9309      	str	r3, [sp, #36]	; 0x24
1000235e:	4acf      	ldr	r2, [pc, #828]	; (1000269c <_vsnprintf+0x354>)
10002360:	4bcf      	ldr	r3, [pc, #828]	; (100026a0 <_vsnprintf+0x358>)
10002362:	4689      	mov	r9, r1
10002364:	9008      	str	r0, [sp, #32]
10002366:	601a      	str	r2, [r3, #0]
10002368:	2900      	cmp	r1, #0
1000236a:	d100      	bne.n	1000236e <_vsnprintf+0x26>
1000236c:	e216      	b.n	1000279c <_vsnprintf+0x454>
1000236e:	2300      	movs	r3, #0
10002370:	7820      	ldrb	r0, [r4, #0]
10002372:	469a      	mov	sl, r3
10002374:	2800      	cmp	r0, #0
10002376:	d100      	bne.n	1000237a <_vsnprintf+0x32>
10002378:	e218      	b.n	100027ac <_vsnprintf+0x464>
1000237a:	0026      	movs	r6, r4
1000237c:	001d      	movs	r5, r3
1000237e:	464c      	mov	r4, r9
10002380:	e00a      	b.n	10002398 <_vsnprintf+0x50>
10002382:	002a      	movs	r2, r5
10002384:	1c6f      	adds	r7, r5, #1
10002386:	465b      	mov	r3, fp
10002388:	9d08      	ldr	r5, [sp, #32]
1000238a:	0021      	movs	r1, r4
1000238c:	47a8      	blx	r5
1000238e:	003d      	movs	r5, r7
10002390:	3601      	adds	r6, #1
10002392:	7830      	ldrb	r0, [r6, #0]
10002394:	2800      	cmp	r0, #0
10002396:	d07a      	beq.n	1000248e <_vsnprintf+0x146>
10002398:	2825      	cmp	r0, #37	; 0x25
1000239a:	d1f2      	bne.n	10002382 <_vsnprintf+0x3a>
1000239c:	2310      	movs	r3, #16
1000239e:	469a      	mov	sl, r3
100023a0:	3b08      	subs	r3, #8
100023a2:	4699      	mov	r9, r3
100023a4:	3b04      	subs	r3, #4
100023a6:	4698      	mov	r8, r3
100023a8:	3b02      	subs	r3, #2
100023aa:	2100      	movs	r1, #0
100023ac:	469c      	mov	ip, r3
100023ae:	1c72      	adds	r2, r6, #1
100023b0:	7810      	ldrb	r0, [r2, #0]
100023b2:	0016      	movs	r6, r2
100023b4:	0003      	movs	r3, r0
100023b6:	3b20      	subs	r3, #32
100023b8:	b2db      	uxtb	r3, r3
100023ba:	2b10      	cmp	r3, #16
100023bc:	d803      	bhi.n	100023c6 <_vsnprintf+0x7e>
100023be:	4fb9      	ldr	r7, [pc, #740]	; (100026a4 <_vsnprintf+0x35c>)
100023c0:	009b      	lsls	r3, r3, #2
100023c2:	58fb      	ldr	r3, [r7, r3]
100023c4:	469f      	mov	pc, r3
100023c6:	0003      	movs	r3, r0
100023c8:	3b30      	subs	r3, #48	; 0x30
100023ca:	2b09      	cmp	r3, #9
100023cc:	d93c      	bls.n	10002448 <_vsnprintf+0x100>
100023ce:	2300      	movs	r3, #0
100023d0:	930a      	str	r3, [sp, #40]	; 0x28
100023d2:	282a      	cmp	r0, #42	; 0x2a
100023d4:	d100      	bne.n	100023d8 <_vsnprintf+0x90>
100023d6:	e071      	b.n	100024bc <_vsnprintf+0x174>
100023d8:	2300      	movs	r3, #0
100023da:	4698      	mov	r8, r3
100023dc:	282e      	cmp	r0, #46	; 0x2e
100023de:	d047      	beq.n	10002470 <_vsnprintf+0x128>
100023e0:	0003      	movs	r3, r0
100023e2:	3b68      	subs	r3, #104	; 0x68
100023e4:	b2db      	uxtb	r3, r3
100023e6:	2b12      	cmp	r3, #18
100023e8:	d81f      	bhi.n	1000242a <_vsnprintf+0xe2>
100023ea:	4aaf      	ldr	r2, [pc, #700]	; (100026a8 <_vsnprintf+0x360>)
100023ec:	009b      	lsls	r3, r3, #2
100023ee:	58d3      	ldr	r3, [r2, r3]
100023f0:	469f      	mov	pc, r3
100023f2:	2301      	movs	r3, #1
100023f4:	3201      	adds	r2, #1
100023f6:	4319      	orrs	r1, r3
100023f8:	e7da      	b.n	100023b0 <_vsnprintf+0x68>
100023fa:	4663      	mov	r3, ip
100023fc:	3201      	adds	r2, #1
100023fe:	4319      	orrs	r1, r3
10002400:	e7d6      	b.n	100023b0 <_vsnprintf+0x68>
10002402:	4643      	mov	r3, r8
10002404:	3201      	adds	r2, #1
10002406:	4319      	orrs	r1, r3
10002408:	e7d2      	b.n	100023b0 <_vsnprintf+0x68>
1000240a:	4653      	mov	r3, sl
1000240c:	3201      	adds	r2, #1
1000240e:	4319      	orrs	r1, r3
10002410:	e7ce      	b.n	100023b0 <_vsnprintf+0x68>
10002412:	464b      	mov	r3, r9
10002414:	3201      	adds	r2, #1
10002416:	4319      	orrs	r1, r3
10002418:	e7ca      	b.n	100023b0 <_vsnprintf+0x68>
1000241a:	7870      	ldrb	r0, [r6, #1]
1000241c:	286c      	cmp	r0, #108	; 0x6c
1000241e:	d100      	bne.n	10002422 <_vsnprintf+0xda>
10002420:	e2bf      	b.n	100029a2 <_vsnprintf+0x65a>
10002422:	2380      	movs	r3, #128	; 0x80
10002424:	005b      	lsls	r3, r3, #1
10002426:	4319      	orrs	r1, r3
10002428:	3601      	adds	r6, #1
1000242a:	0003      	movs	r3, r0
1000242c:	3b25      	subs	r3, #37	; 0x25
1000242e:	b2db      	uxtb	r3, r3
10002430:	2b53      	cmp	r3, #83	; 0x53
10002432:	d8a6      	bhi.n	10002382 <_vsnprintf+0x3a>
10002434:	4a9d      	ldr	r2, [pc, #628]	; (100026ac <_vsnprintf+0x364>)
10002436:	009b      	lsls	r3, r3, #2
10002438:	58d3      	ldr	r3, [r2, r3]
1000243a:	469f      	mov	pc, r3
1000243c:	2380      	movs	r3, #128	; 0x80
1000243e:	005b      	lsls	r3, r3, #1
10002440:	7870      	ldrb	r0, [r6, #1]
10002442:	4319      	orrs	r1, r3
10002444:	3601      	adds	r6, #1
10002446:	e7f0      	b.n	1000242a <_vsnprintf+0xe2>
10002448:	2700      	movs	r7, #0
1000244a:	0003      	movs	r3, r0
1000244c:	00b8      	lsls	r0, r7, #2
1000244e:	19c0      	adds	r0, r0, r7
10002450:	3601      	adds	r6, #1
10002452:	0040      	lsls	r0, r0, #1
10002454:	18c0      	adds	r0, r0, r3
10002456:	7833      	ldrb	r3, [r6, #0]
10002458:	3830      	subs	r0, #48	; 0x30
1000245a:	001a      	movs	r2, r3
1000245c:	3a30      	subs	r2, #48	; 0x30
1000245e:	0007      	movs	r7, r0
10002460:	2a09      	cmp	r2, #9
10002462:	d9f3      	bls.n	1000244c <_vsnprintf+0x104>
10002464:	900a      	str	r0, [sp, #40]	; 0x28
10002466:	0018      	movs	r0, r3
10002468:	2300      	movs	r3, #0
1000246a:	4698      	mov	r8, r3
1000246c:	282e      	cmp	r0, #46	; 0x2e
1000246e:	d1b7      	bne.n	100023e0 <_vsnprintf+0x98>
10002470:	2380      	movs	r3, #128	; 0x80
10002472:	7870      	ldrb	r0, [r6, #1]
10002474:	00db      	lsls	r3, r3, #3
10002476:	4319      	orrs	r1, r3
10002478:	0003      	movs	r3, r0
1000247a:	3b30      	subs	r3, #48	; 0x30
1000247c:	1c72      	adds	r2, r6, #1
1000247e:	2b09      	cmp	r3, #9
10002480:	d800      	bhi.n	10002484 <_vsnprintf+0x13c>
10002482:	e195      	b.n	100027b0 <_vsnprintf+0x468>
10002484:	282a      	cmp	r0, #42	; 0x2a
10002486:	d100      	bne.n	1000248a <_vsnprintf+0x142>
10002488:	e1a6      	b.n	100027d8 <_vsnprintf+0x490>
1000248a:	0016      	movs	r6, r2
1000248c:	e7a8      	b.n	100023e0 <_vsnprintf+0x98>
1000248e:	46a1      	mov	r9, r4
10002490:	46aa      	mov	sl, r5
10002492:	002c      	movs	r4, r5
10002494:	45d3      	cmp	fp, sl
10002496:	d803      	bhi.n	100024a0 <_vsnprintf+0x158>
10002498:	2301      	movs	r3, #1
1000249a:	425b      	negs	r3, r3
1000249c:	445b      	add	r3, fp
1000249e:	469a      	mov	sl, r3
100024a0:	465b      	mov	r3, fp
100024a2:	4652      	mov	r2, sl
100024a4:	4649      	mov	r1, r9
100024a6:	2000      	movs	r0, #0
100024a8:	9d08      	ldr	r5, [sp, #32]
100024aa:	47a8      	blx	r5
100024ac:	0020      	movs	r0, r4
100024ae:	b01f      	add	sp, #124	; 0x7c
100024b0:	bc3c      	pop	{r2, r3, r4, r5}
100024b2:	4690      	mov	r8, r2
100024b4:	4699      	mov	r9, r3
100024b6:	46a2      	mov	sl, r4
100024b8:	46ab      	mov	fp, r5
100024ba:	bdf0      	pop	{r4, r5, r6, r7, pc}
100024bc:	9b09      	ldr	r3, [sp, #36]	; 0x24
100024be:	cb40      	ldmia	r3!, {r6}
100024c0:	960a      	str	r6, [sp, #40]	; 0x28
100024c2:	2e00      	cmp	r6, #0
100024c4:	db03      	blt.n	100024ce <_vsnprintf+0x186>
100024c6:	7850      	ldrb	r0, [r2, #1]
100024c8:	9309      	str	r3, [sp, #36]	; 0x24
100024ca:	1c56      	adds	r6, r2, #1
100024cc:	e784      	b.n	100023d8 <_vsnprintf+0x90>
100024ce:	3828      	subs	r0, #40	; 0x28
100024d0:	4301      	orrs	r1, r0
100024d2:	4270      	negs	r0, r6
100024d4:	900a      	str	r0, [sp, #40]	; 0x28
100024d6:	9309      	str	r3, [sp, #36]	; 0x24
100024d8:	7850      	ldrb	r0, [r2, #1]
100024da:	1c56      	adds	r6, r2, #1
100024dc:	e77c      	b.n	100023d8 <_vsnprintf+0x90>
100024de:	2878      	cmp	r0, #120	; 0x78
100024e0:	d100      	bne.n	100024e4 <_vsnprintf+0x19c>
100024e2:	e1d4      	b.n	1000288e <_vsnprintf+0x546>
100024e4:	2858      	cmp	r0, #88	; 0x58
100024e6:	d100      	bne.n	100024ea <_vsnprintf+0x1a2>
100024e8:	e268      	b.n	100029bc <_vsnprintf+0x674>
100024ea:	286f      	cmp	r0, #111	; 0x6f
100024ec:	d100      	bne.n	100024f0 <_vsnprintf+0x1a8>
100024ee:	e352      	b.n	10002b96 <_vsnprintf+0x84e>
100024f0:	2862      	cmp	r0, #98	; 0x62
100024f2:	d100      	bne.n	100024f6 <_vsnprintf+0x1ae>
100024f4:	e1d8      	b.n	100028a8 <_vsnprintf+0x560>
100024f6:	2310      	movs	r3, #16
100024f8:	000a      	movs	r2, r1
100024fa:	439a      	bics	r2, r3
100024fc:	920b      	str	r2, [sp, #44]	; 0x2c
100024fe:	2869      	cmp	r0, #105	; 0x69
10002500:	d001      	beq.n	10002506 <_vsnprintf+0x1be>
10002502:	f000 fca2 	bl	10002e4a <_vsnprintf+0xb02>
10002506:	230a      	movs	r3, #10
10002508:	930c      	str	r3, [sp, #48]	; 0x30
1000250a:	054b      	lsls	r3, r1, #21
1000250c:	d400      	bmi.n	10002510 <_vsnprintf+0x1c8>
1000250e:	e1d5      	b.n	100028bc <_vsnprintf+0x574>
10002510:	2301      	movs	r3, #1
10002512:	9a0b      	ldr	r2, [sp, #44]	; 0x2c
10002514:	439a      	bics	r2, r3
10002516:	920b      	str	r2, [sp, #44]	; 0x2c
10002518:	2869      	cmp	r0, #105	; 0x69
1000251a:	d100      	bne.n	1000251e <_vsnprintf+0x1d6>
1000251c:	e1ce      	b.n	100028bc <_vsnprintf+0x574>
1000251e:	2864      	cmp	r0, #100	; 0x64
10002520:	d100      	bne.n	10002524 <_vsnprintf+0x1dc>
10002522:	e1cb      	b.n	100028bc <_vsnprintf+0x574>
10002524:	9a0b      	ldr	r2, [sp, #44]	; 0x2c
10002526:	2380      	movs	r3, #128	; 0x80
10002528:	0011      	movs	r1, r2
1000252a:	009b      	lsls	r3, r3, #2
1000252c:	4019      	ands	r1, r3
1000252e:	468a      	mov	sl, r1
10002530:	421a      	tst	r2, r3
10002532:	d000      	beq.n	10002536 <_vsnprintf+0x1ee>
10002534:	e332      	b.n	10002b9c <_vsnprintf+0x854>
10002536:	2380      	movs	r3, #128	; 0x80
10002538:	0011      	movs	r1, r2
1000253a:	005b      	lsls	r3, r3, #1
1000253c:	4019      	ands	r1, r3
1000253e:	4689      	mov	r9, r1
10002540:	421a      	tst	r2, r3
10002542:	d001      	beq.n	10002548 <_vsnprintf+0x200>
10002544:	f000 fc02 	bl	10002d4c <_vsnprintf+0xa04>
10002548:	0013      	movs	r3, r2
1000254a:	065b      	lsls	r3, r3, #25
1000254c:	d500      	bpl.n	10002550 <_vsnprintf+0x208>
1000254e:	e310      	b.n	10002b72 <_vsnprintf+0x82a>
10002550:	9b0b      	ldr	r3, [sp, #44]	; 0x2c
10002552:	061b      	lsls	r3, r3, #24
10002554:	d401      	bmi.n	1000255a <_vsnprintf+0x212>
10002556:	f000 fc6e 	bl	10002e36 <_vsnprintf+0xaee>
1000255a:	9b09      	ldr	r3, [sp, #36]	; 0x24
1000255c:	cb04      	ldmia	r3!, {r2}
1000255e:	0412      	lsls	r2, r2, #16
10002560:	0c12      	lsrs	r2, r2, #16
10002562:	4692      	mov	sl, r2
10002564:	9309      	str	r3, [sp, #36]	; 0x24
10002566:	4653      	mov	r3, sl
10002568:	2b00      	cmp	r3, #0
1000256a:	d000      	beq.n	1000256e <_vsnprintf+0x226>
1000256c:	e364      	b.n	10002c38 <_vsnprintf+0x8f0>
1000256e:	9a0b      	ldr	r2, [sp, #44]	; 0x2c
10002570:	3310      	adds	r3, #16
10002572:	0011      	movs	r1, r2
10002574:	4399      	bics	r1, r3
10002576:	910b      	str	r1, [sp, #44]	; 0x2c
10002578:	0552      	lsls	r2, r2, #21
1000257a:	d400      	bmi.n	1000257e <_vsnprintf+0x236>
1000257c:	e35c      	b.n	10002c38 <_vsnprintf+0x8f0>
1000257e:	2300      	movs	r3, #0
10002580:	4699      	mov	r9, r3
10002582:	9b0b      	ldr	r3, [sp, #44]	; 0x2c
10002584:	9306      	str	r3, [sp, #24]
10002586:	9b0a      	ldr	r3, [sp, #40]	; 0x28
10002588:	9305      	str	r3, [sp, #20]
1000258a:	4643      	mov	r3, r8
1000258c:	9304      	str	r3, [sp, #16]
1000258e:	9b0c      	ldr	r3, [sp, #48]	; 0x30
10002590:	9303      	str	r3, [sp, #12]
10002592:	2300      	movs	r3, #0
10002594:	e2de      	b.n	10002b54 <_vsnprintf+0x80c>
10002596:	7870      	ldrb	r0, [r6, #1]
10002598:	2868      	cmp	r0, #104	; 0x68
1000259a:	d100      	bne.n	1000259e <_vsnprintf+0x256>
1000259c:	e207      	b.n	100029ae <_vsnprintf+0x666>
1000259e:	2380      	movs	r3, #128	; 0x80
100025a0:	3601      	adds	r6, #1
100025a2:	4319      	orrs	r1, r3
100025a4:	e741      	b.n	1000242a <_vsnprintf+0xe2>
100025a6:	2380      	movs	r3, #128	; 0x80
100025a8:	009b      	lsls	r3, r3, #2
100025aa:	7870      	ldrb	r0, [r6, #1]
100025ac:	4319      	orrs	r1, r3
100025ae:	3601      	adds	r6, #1
100025b0:	e73b      	b.n	1000242a <_vsnprintf+0xe2>
100025b2:	2846      	cmp	r0, #70	; 0x46
100025b4:	d100      	bne.n	100025b8 <_vsnprintf+0x270>
100025b6:	e174      	b.n	100028a2 <_vsnprintf+0x55a>
100025b8:	2207      	movs	r2, #7
100025ba:	9b09      	ldr	r3, [sp, #36]	; 0x24
100025bc:	9104      	str	r1, [sp, #16]
100025be:	3307      	adds	r3, #7
100025c0:	4393      	bics	r3, r2
100025c2:	9a0a      	ldr	r2, [sp, #40]	; 0x28
100025c4:	0019      	movs	r1, r3
100025c6:	9203      	str	r2, [sp, #12]
100025c8:	4642      	mov	r2, r8
100025ca:	9202      	str	r2, [sp, #8]
100025cc:	c90c      	ldmia	r1!, {r2, r3}
100025ce:	9808      	ldr	r0, [sp, #32]
100025d0:	9200      	str	r2, [sp, #0]
100025d2:	9301      	str	r3, [sp, #4]
100025d4:	9109      	str	r1, [sp, #36]	; 0x24
100025d6:	002a      	movs	r2, r5
100025d8:	465b      	mov	r3, fp
100025da:	0021      	movs	r1, r4
100025dc:	f7ff fcc4 	bl	10001f68 <_ftoa>
100025e0:	3601      	adds	r6, #1
100025e2:	0005      	movs	r5, r0
100025e4:	e6d5      	b.n	10002392 <_vsnprintf+0x4a>
100025e6:	9b09      	ldr	r3, [sp, #36]	; 0x24
100025e8:	001a      	movs	r2, r3
100025ea:	ca08      	ldmia	r2!, {r3}
100025ec:	4691      	mov	r9, r2
100025ee:	2b00      	cmp	r3, #0
100025f0:	d100      	bne.n	100025f4 <_vsnprintf+0x2ac>
100025f2:	e105      	b.n	10002800 <_vsnprintf+0x4b8>
100025f4:	2221      	movs	r2, #33	; 0x21
100025f6:	4311      	orrs	r1, r2
100025f8:	468a      	mov	sl, r1
100025fa:	a80e      	add	r0, sp, #56	; 0x38
100025fc:	4684      	mov	ip, r0
100025fe:	211f      	movs	r1, #31
10002600:	4461      	add	r1, ip
10002602:	9509      	str	r5, [sp, #36]	; 0x24
10002604:	2200      	movs	r2, #0
10002606:	270f      	movs	r7, #15
10002608:	46a4      	mov	ip, r4
1000260a:	000d      	movs	r5, r1
1000260c:	e002      	b.n	10002614 <_vsnprintf+0x2cc>
1000260e:	2a20      	cmp	r2, #32
10002610:	d00c      	beq.n	1000262c <_vsnprintf+0x2e4>
10002612:	000b      	movs	r3, r1
10002614:	003c      	movs	r4, r7
10002616:	401c      	ands	r4, r3
10002618:	0020      	movs	r0, r4
1000261a:	3037      	adds	r0, #55	; 0x37
1000261c:	2c09      	cmp	r4, #9
1000261e:	d800      	bhi.n	10002622 <_vsnprintf+0x2da>
10002620:	3807      	subs	r0, #7
10002622:	3201      	adds	r2, #1
10002624:	54a8      	strb	r0, [r5, r2]
10002626:	0919      	lsrs	r1, r3, #4
10002628:	2b0f      	cmp	r3, #15
1000262a:	d8f0      	bhi.n	1000260e <_vsnprintf+0x2c6>
1000262c:	4664      	mov	r4, ip
1000262e:	9d09      	ldr	r5, [sp, #36]	; 0x24
10002630:	e0f0      	b.n	10002814 <_vsnprintf+0x4cc>
10002632:	078b      	lsls	r3, r1, #30
10002634:	d400      	bmi.n	10002638 <_vsnprintf+0x2f0>
10002636:	e1d1      	b.n	100029dc <_vsnprintf+0x694>
10002638:	9b09      	ldr	r3, [sp, #36]	; 0x24
1000263a:	002a      	movs	r2, r5
1000263c:	4699      	mov	r9, r3
1000263e:	1c6b      	adds	r3, r5, #1
10002640:	4698      	mov	r8, r3
10002642:	464b      	mov	r3, r9
10002644:	cb01      	ldmia	r3!, {r0}
10002646:	0021      	movs	r1, r4
10002648:	4699      	mov	r9, r3
1000264a:	9f08      	ldr	r7, [sp, #32]
1000264c:	465b      	mov	r3, fp
1000264e:	b2c0      	uxtb	r0, r0
10002650:	47b8      	blx	r7
10002652:	9b0a      	ldr	r3, [sp, #40]	; 0x28
10002654:	469c      	mov	ip, r3
10002656:	4465      	add	r5, ip
10002658:	2b01      	cmp	r3, #1
1000265a:	d800      	bhi.n	1000265e <_vsnprintf+0x316>
1000265c:	e290      	b.n	10002b80 <_vsnprintf+0x838>
1000265e:	46b2      	mov	sl, r6
10002660:	465e      	mov	r6, fp
10002662:	4647      	mov	r7, r8
10002664:	46a8      	mov	r8, r5
10002666:	9d08      	ldr	r5, [sp, #32]
10002668:	003a      	movs	r2, r7
1000266a:	0033      	movs	r3, r6
1000266c:	3701      	adds	r7, #1
1000266e:	0021      	movs	r1, r4
10002670:	2020      	movs	r0, #32
10002672:	47a8      	blx	r5
10002674:	4547      	cmp	r7, r8
10002676:	d1f7      	bne.n	10002668 <_vsnprintf+0x320>
10002678:	46b3      	mov	fp, r6
1000267a:	464b      	mov	r3, r9
1000267c:	4656      	mov	r6, sl
1000267e:	003d      	movs	r5, r7
10002680:	9309      	str	r3, [sp, #36]	; 0x24
10002682:	3601      	adds	r6, #1
10002684:	e685      	b.n	10002392 <_vsnprintf+0x4a>
10002686:	002a      	movs	r2, r5
10002688:	1c6f      	adds	r7, r5, #1
1000268a:	465b      	mov	r3, fp
1000268c:	9d08      	ldr	r5, [sp, #32]
1000268e:	0021      	movs	r1, r4
10002690:	2025      	movs	r0, #37	; 0x25
10002692:	47a8      	blx	r5
10002694:	3601      	adds	r6, #1
10002696:	003d      	movs	r5, r7
10002698:	e67b      	b.n	10002392 <_vsnprintf+0x4a>
1000269a:	46c0      	nop			; (mov r8, r8)
1000269c:	10002349 	.word	0x10002349
100026a0:	20000d44 	.word	0x20000d44
100026a4:	10004c1c 	.word	0x10004c1c
100026a8:	10004c60 	.word	0x10004c60
100026ac:	10004cac 	.word	0x10004cac
100026b0:	9b09      	ldr	r3, [sp, #36]	; 0x24
100026b2:	cb04      	ldmia	r3!, {r2}
100026b4:	4699      	mov	r9, r3
100026b6:	4643      	mov	r3, r8
100026b8:	9209      	str	r2, [sp, #36]	; 0x24
100026ba:	2b00      	cmp	r3, #0
100026bc:	d000      	beq.n	100026c0 <_vsnprintf+0x378>
100026be:	e097      	b.n	100027f0 <_vsnprintf+0x4a8>
100026c0:	7813      	ldrb	r3, [r2, #0]
100026c2:	469c      	mov	ip, r3
100026c4:	2b00      	cmp	r3, #0
100026c6:	d100      	bne.n	100026ca <_vsnprintf+0x382>
100026c8:	e3b3      	b.n	10002e32 <_vsnprintf+0xaea>
100026ca:	2302      	movs	r3, #2
100026cc:	425b      	negs	r3, r3
100026ce:	1c5a      	adds	r2, r3, #1
100026d0:	9b09      	ldr	r3, [sp, #36]	; 0x24
100026d2:	4692      	mov	sl, r2
100026d4:	0018      	movs	r0, r3
100026d6:	9f0a      	ldr	r7, [sp, #40]	; 0x28
100026d8:	920b      	str	r2, [sp, #44]	; 0x2c
100026da:	4450      	add	r0, sl
100026dc:	e002      	b.n	100026e4 <_vsnprintf+0x39c>
100026de:	4283      	cmp	r3, r0
100026e0:	d100      	bne.n	100026e4 <_vsnprintf+0x39c>
100026e2:	e169      	b.n	100029b8 <_vsnprintf+0x670>
100026e4:	785a      	ldrb	r2, [r3, #1]
100026e6:	3301      	adds	r3, #1
100026e8:	2a00      	cmp	r2, #0
100026ea:	d1f8      	bne.n	100026de <_vsnprintf+0x396>
100026ec:	9a09      	ldr	r2, [sp, #36]	; 0x24
100026ee:	970a      	str	r7, [sp, #40]	; 0x28
100026f0:	1a9b      	subs	r3, r3, r2
100026f2:	930b      	str	r3, [sp, #44]	; 0x2c
100026f4:	2380      	movs	r3, #128	; 0x80
100026f6:	000a      	movs	r2, r1
100026f8:	00db      	lsls	r3, r3, #3
100026fa:	401a      	ands	r2, r3
100026fc:	920c      	str	r2, [sp, #48]	; 0x30
100026fe:	4219      	tst	r1, r3
10002700:	d004      	beq.n	1000270c <_vsnprintf+0x3c4>
10002702:	9b0b      	ldr	r3, [sp, #44]	; 0x2c
10002704:	4543      	cmp	r3, r8
10002706:	d901      	bls.n	1000270c <_vsnprintf+0x3c4>
10002708:	4643      	mov	r3, r8
1000270a:	930b      	str	r3, [sp, #44]	; 0x2c
1000270c:	2302      	movs	r3, #2
1000270e:	001a      	movs	r2, r3
10002710:	400a      	ands	r2, r1
10002712:	920d      	str	r2, [sp, #52]	; 0x34
10002714:	420b      	tst	r3, r1
10002716:	d100      	bne.n	1000271a <_vsnprintf+0x3d2>
10002718:	e184      	b.n	10002a24 <_vsnprintf+0x6dc>
1000271a:	4660      	mov	r0, ip
1000271c:	2800      	cmp	r0, #0
1000271e:	d023      	beq.n	10002768 <_vsnprintf+0x420>
10002720:	9b0c      	ldr	r3, [sp, #48]	; 0x30
10002722:	2b00      	cmp	r3, #0
10002724:	d100      	bne.n	10002728 <_vsnprintf+0x3e0>
10002726:	e124      	b.n	10002972 <_vsnprintf+0x62a>
10002728:	44a8      	add	r8, r5
1000272a:	46c2      	mov	sl, r8
1000272c:	9b09      	ldr	r3, [sp, #36]	; 0x24
1000272e:	4657      	mov	r7, sl
10002730:	1b5b      	subs	r3, r3, r5
10002732:	4698      	mov	r8, r3
10002734:	9b08      	ldr	r3, [sp, #32]
10002736:	46b2      	mov	sl, r6
10002738:	002a      	movs	r2, r5
1000273a:	0026      	movs	r6, r4
1000273c:	465c      	mov	r4, fp
1000273e:	469b      	mov	fp, r3
10002740:	e009      	b.n	10002756 <_vsnprintf+0x40e>
10002742:	0023      	movs	r3, r4
10002744:	0031      	movs	r1, r6
10002746:	1c55      	adds	r5, r2, #1
10002748:	47d8      	blx	fp
1000274a:	4643      	mov	r3, r8
1000274c:	5d58      	ldrb	r0, [r3, r5]
1000274e:	2800      	cmp	r0, #0
10002750:	d100      	bne.n	10002754 <_vsnprintf+0x40c>
10002752:	e13f      	b.n	100029d4 <_vsnprintf+0x68c>
10002754:	002a      	movs	r2, r5
10002756:	4297      	cmp	r7, r2
10002758:	d1f3      	bne.n	10002742 <_vsnprintf+0x3fa>
1000275a:	46a3      	mov	fp, r4
1000275c:	003d      	movs	r5, r7
1000275e:	0034      	movs	r4, r6
10002760:	4656      	mov	r6, sl
10002762:	9b0d      	ldr	r3, [sp, #52]	; 0x34
10002764:	2b00      	cmp	r3, #0
10002766:	d069      	beq.n	1000283c <_vsnprintf+0x4f4>
10002768:	9b0b      	ldr	r3, [sp, #44]	; 0x2c
1000276a:	990a      	ldr	r1, [sp, #40]	; 0x28
1000276c:	46a8      	mov	r8, r5
1000276e:	4299      	cmp	r1, r3
10002770:	d964      	bls.n	1000283c <_vsnprintf+0x4f4>
10002772:	468c      	mov	ip, r1
10002774:	4465      	add	r5, ip
10002776:	1aed      	subs	r5, r5, r3
10002778:	9b08      	ldr	r3, [sp, #32]
1000277a:	4647      	mov	r7, r8
1000277c:	469a      	mov	sl, r3
1000277e:	46b0      	mov	r8, r6
10002780:	0026      	movs	r6, r4
10002782:	465c      	mov	r4, fp
10002784:	003a      	movs	r2, r7
10002786:	0023      	movs	r3, r4
10002788:	3701      	adds	r7, #1
1000278a:	0031      	movs	r1, r6
1000278c:	2020      	movs	r0, #32
1000278e:	47d0      	blx	sl
10002790:	42af      	cmp	r7, r5
10002792:	d1f7      	bne.n	10002784 <_vsnprintf+0x43c>
10002794:	46a3      	mov	fp, r4
10002796:	0034      	movs	r4, r6
10002798:	4646      	mov	r6, r8
1000279a:	e04f      	b.n	1000283c <_vsnprintf+0x4f4>
1000279c:	4bd2      	ldr	r3, [pc, #840]	; (10002ae8 <_vsnprintf+0x7a0>)
1000279e:	7820      	ldrb	r0, [r4, #0]
100027a0:	9308      	str	r3, [sp, #32]
100027a2:	2300      	movs	r3, #0
100027a4:	469a      	mov	sl, r3
100027a6:	2800      	cmp	r0, #0
100027a8:	d000      	beq.n	100027ac <_vsnprintf+0x464>
100027aa:	e5e6      	b.n	1000237a <_vsnprintf+0x32>
100027ac:	2400      	movs	r4, #0
100027ae:	e671      	b.n	10002494 <_vsnprintf+0x14c>
100027b0:	4643      	mov	r3, r8
100027b2:	0006      	movs	r6, r0
100027b4:	9f0a      	ldr	r7, [sp, #40]	; 0x28
100027b6:	0098      	lsls	r0, r3, #2
100027b8:	18c0      	adds	r0, r0, r3
100027ba:	3201      	adds	r2, #1
100027bc:	0040      	lsls	r0, r0, #1
100027be:	1980      	adds	r0, r0, r6
100027c0:	7816      	ldrb	r6, [r2, #0]
100027c2:	0003      	movs	r3, r0
100027c4:	0030      	movs	r0, r6
100027c6:	3830      	subs	r0, #48	; 0x30
100027c8:	3b30      	subs	r3, #48	; 0x30
100027ca:	2809      	cmp	r0, #9
100027cc:	d9f3      	bls.n	100027b6 <_vsnprintf+0x46e>
100027ce:	0030      	movs	r0, r6
100027d0:	4698      	mov	r8, r3
100027d2:	0016      	movs	r6, r2
100027d4:	970a      	str	r7, [sp, #40]	; 0x28
100027d6:	e603      	b.n	100023e0 <_vsnprintf+0x98>
100027d8:	9b09      	ldr	r3, [sp, #36]	; 0x24
100027da:	3602      	adds	r6, #2
100027dc:	cb04      	ldmia	r3!, {r2}
100027de:	4690      	mov	r8, r2
100027e0:	43d2      	mvns	r2, r2
100027e2:	4640      	mov	r0, r8
100027e4:	17d2      	asrs	r2, r2, #31
100027e6:	4010      	ands	r0, r2
100027e8:	4680      	mov	r8, r0
100027ea:	9309      	str	r3, [sp, #36]	; 0x24
100027ec:	7830      	ldrb	r0, [r6, #0]
100027ee:	e5f7      	b.n	100023e0 <_vsnprintf+0x98>
100027f0:	7813      	ldrb	r3, [r2, #0]
100027f2:	469c      	mov	ip, r3
100027f4:	2b00      	cmp	r3, #0
100027f6:	d100      	bne.n	100027fa <_vsnprintf+0x4b2>
100027f8:	e31a      	b.n	10002e30 <_vsnprintf+0xae8>
100027fa:	4643      	mov	r3, r8
100027fc:	3b01      	subs	r3, #1
100027fe:	e766      	b.n	100026ce <_vsnprintf+0x386>
10002800:	2210      	movs	r2, #16
10002802:	0008      	movs	r0, r1
10002804:	4390      	bics	r0, r2
10002806:	3211      	adds	r2, #17
10002808:	4310      	orrs	r0, r2
1000280a:	4682      	mov	sl, r0
1000280c:	2200      	movs	r2, #0
1000280e:	0549      	lsls	r1, r1, #21
10002810:	d400      	bmi.n	10002814 <_vsnprintf+0x4cc>
10002812:	e6f2      	b.n	100025fa <_vsnprintf+0x2b2>
10002814:	4653      	mov	r3, sl
10002816:	9306      	str	r3, [sp, #24]
10002818:	2308      	movs	r3, #8
1000281a:	9305      	str	r3, [sp, #20]
1000281c:	4643      	mov	r3, r8
1000281e:	9304      	str	r3, [sp, #16]
10002820:	2310      	movs	r3, #16
10002822:	9303      	str	r3, [sp, #12]
10002824:	2300      	movs	r3, #0
10002826:	9302      	str	r3, [sp, #8]
10002828:	ab16      	add	r3, sp, #88	; 0x58
1000282a:	9201      	str	r2, [sp, #4]
1000282c:	9300      	str	r3, [sp, #0]
1000282e:	002a      	movs	r2, r5
10002830:	465b      	mov	r3, fp
10002832:	0021      	movs	r1, r4
10002834:	9808      	ldr	r0, [sp, #32]
10002836:	f7ff f879 	bl	1000192c <_ntoa_format>
1000283a:	0005      	movs	r5, r0
1000283c:	464b      	mov	r3, r9
1000283e:	3601      	adds	r6, #1
10002840:	9309      	str	r3, [sp, #36]	; 0x24
10002842:	e5a6      	b.n	10002392 <_vsnprintf+0x4a>
10002844:	2320      	movs	r3, #32
10002846:	0002      	movs	r2, r0
10002848:	439a      	bics	r2, r3
1000284a:	2a47      	cmp	r2, #71	; 0x47
1000284c:	d104      	bne.n	10002858 <_vsnprintf+0x510>
1000284e:	2380      	movs	r3, #128	; 0x80
10002850:	011b      	lsls	r3, r3, #4
10002852:	4319      	orrs	r1, r3
10002854:	2302      	movs	r3, #2
10002856:	4398      	bics	r0, r3
10002858:	2845      	cmp	r0, #69	; 0x45
1000285a:	d101      	bne.n	10002860 <_vsnprintf+0x518>
1000285c:	2320      	movs	r3, #32
1000285e:	4319      	orrs	r1, r3
10002860:	2207      	movs	r2, #7
10002862:	9b09      	ldr	r3, [sp, #36]	; 0x24
10002864:	9104      	str	r1, [sp, #16]
10002866:	3307      	adds	r3, #7
10002868:	4393      	bics	r3, r2
1000286a:	9a0a      	ldr	r2, [sp, #40]	; 0x28
1000286c:	0019      	movs	r1, r3
1000286e:	9203      	str	r2, [sp, #12]
10002870:	4642      	mov	r2, r8
10002872:	9202      	str	r2, [sp, #8]
10002874:	c90c      	ldmia	r1!, {r2, r3}
10002876:	9808      	ldr	r0, [sp, #32]
10002878:	9200      	str	r2, [sp, #0]
1000287a:	9301      	str	r3, [sp, #4]
1000287c:	9109      	str	r1, [sp, #36]	; 0x24
1000287e:	002a      	movs	r2, r5
10002880:	465b      	mov	r3, fp
10002882:	0021      	movs	r1, r4
10002884:	f7ff f94a 	bl	10001b1c <_etoa>
10002888:	3601      	adds	r6, #1
1000288a:	0005      	movs	r5, r0
1000288c:	e581      	b.n	10002392 <_vsnprintf+0x4a>
1000288e:	2310      	movs	r3, #16
10002890:	930c      	str	r3, [sp, #48]	; 0x30
10002892:	230c      	movs	r3, #12
10002894:	000a      	movs	r2, r1
10002896:	439a      	bics	r2, r3
10002898:	920b      	str	r2, [sp, #44]	; 0x2c
1000289a:	054b      	lsls	r3, r1, #21
1000289c:	d400      	bmi.n	100028a0 <_vsnprintf+0x558>
1000289e:	e63b      	b.n	10002518 <_vsnprintf+0x1d0>
100028a0:	e636      	b.n	10002510 <_vsnprintf+0x1c8>
100028a2:	2320      	movs	r3, #32
100028a4:	4319      	orrs	r1, r3
100028a6:	e687      	b.n	100025b8 <_vsnprintf+0x270>
100028a8:	2302      	movs	r3, #2
100028aa:	930c      	str	r3, [sp, #48]	; 0x30
100028ac:	910b      	str	r1, [sp, #44]	; 0x2c
100028ae:	990b      	ldr	r1, [sp, #44]	; 0x2c
100028b0:	2864      	cmp	r0, #100	; 0x64
100028b2:	d1ee      	bne.n	10002892 <_vsnprintf+0x54a>
100028b4:	9b0b      	ldr	r3, [sp, #44]	; 0x2c
100028b6:	055b      	lsls	r3, r3, #21
100028b8:	d500      	bpl.n	100028bc <_vsnprintf+0x574>
100028ba:	e629      	b.n	10002510 <_vsnprintf+0x1c8>
100028bc:	9a0b      	ldr	r2, [sp, #44]	; 0x2c
100028be:	2380      	movs	r3, #128	; 0x80
100028c0:	0011      	movs	r1, r2
100028c2:	009b      	lsls	r3, r3, #2
100028c4:	4019      	ands	r1, r3
100028c6:	468a      	mov	sl, r1
100028c8:	421a      	tst	r2, r3
100028ca:	d000      	beq.n	100028ce <_vsnprintf+0x586>
100028cc:	e0ce      	b.n	10002a6c <_vsnprintf+0x724>
100028ce:	2380      	movs	r3, #128	; 0x80
100028d0:	0011      	movs	r1, r2
100028d2:	005b      	lsls	r3, r3, #1
100028d4:	4019      	ands	r1, r3
100028d6:	4689      	mov	r9, r1
100028d8:	421a      	tst	r2, r3
100028da:	d000      	beq.n	100028de <_vsnprintf+0x596>
100028dc:	e1db      	b.n	10002c96 <_vsnprintf+0x94e>
100028de:	0013      	movs	r3, r2
100028e0:	065b      	lsls	r3, r3, #25
100028e2:	d500      	bpl.n	100028e6 <_vsnprintf+0x59e>
100028e4:	e11d      	b.n	10002b22 <_vsnprintf+0x7da>
100028e6:	9b0b      	ldr	r3, [sp, #44]	; 0x2c
100028e8:	9909      	ldr	r1, [sp, #36]	; 0x24
100028ea:	061b      	lsls	r3, r3, #24
100028ec:	d400      	bmi.n	100028f0 <_vsnprintf+0x5a8>
100028ee:	e299      	b.n	10002e24 <_vsnprintf+0xadc>
100028f0:	c908      	ldmia	r1!, {r3}
100028f2:	b21b      	sxth	r3, r3
100028f4:	17d8      	asrs	r0, r3, #31
100028f6:	181a      	adds	r2, r3, r0
100028f8:	4042      	eors	r2, r0
100028fa:	b292      	uxth	r2, r2
100028fc:	9109      	str	r1, [sp, #36]	; 0x24
100028fe:	4692      	mov	sl, r2
10002900:	0fda      	lsrs	r2, r3, #31
10002902:	9212      	str	r2, [sp, #72]	; 0x48
10002904:	2b00      	cmp	r3, #0
10002906:	d109      	bne.n	1000291c <_vsnprintf+0x5d4>
10002908:	2380      	movs	r3, #128	; 0x80
1000290a:	2210      	movs	r2, #16
1000290c:	990b      	ldr	r1, [sp, #44]	; 0x2c
1000290e:	00db      	lsls	r3, r3, #3
10002910:	400b      	ands	r3, r1
10002912:	4391      	bics	r1, r2
10002914:	910b      	str	r1, [sp, #44]	; 0x2c
10002916:	2b00      	cmp	r3, #0
10002918:	d000      	beq.n	1000291c <_vsnprintf+0x5d4>
1000291a:	e112      	b.n	10002b42 <_vsnprintf+0x7fa>
1000291c:	9a0b      	ldr	r2, [sp, #44]	; 0x2c
1000291e:	2361      	movs	r3, #97	; 0x61
10002920:	0692      	lsls	r2, r2, #26
10002922:	d500      	bpl.n	10002926 <_vsnprintf+0x5de>
10002924:	2341      	movs	r3, #65	; 0x41
10002926:	a90e      	add	r1, sp, #56	; 0x38
10002928:	221f      	movs	r2, #31
1000292a:	468c      	mov	ip, r1
1000292c:	b2db      	uxtb	r3, r3
1000292e:	4462      	add	r2, ip
10002930:	3b0a      	subs	r3, #10
10002932:	4657      	mov	r7, sl
10002934:	9513      	str	r5, [sp, #76]	; 0x4c
10002936:	46a2      	mov	sl, r4
10002938:	464d      	mov	r5, r9
1000293a:	9c0c      	ldr	r4, [sp, #48]	; 0x30
1000293c:	46b1      	mov	r9, r6
1000293e:	930d      	str	r3, [sp, #52]	; 0x34
10002940:	0016      	movs	r6, r2
10002942:	e00a      	b.n	1000295a <_vsnprintf+0x612>
10002944:	3330      	adds	r3, #48	; 0x30
10002946:	b2db      	uxtb	r3, r3
10002948:	3501      	adds	r5, #1
1000294a:	5573      	strb	r3, [r6, r5]
1000294c:	42a7      	cmp	r7, r4
1000294e:	d200      	bcs.n	10002952 <_vsnprintf+0x60a>
10002950:	e11c      	b.n	10002b8c <_vsnprintf+0x844>
10002952:	2d20      	cmp	r5, #32
10002954:	d100      	bne.n	10002958 <_vsnprintf+0x610>
10002956:	e119      	b.n	10002b8c <_vsnprintf+0x844>
10002958:	0007      	movs	r7, r0
1000295a:	0021      	movs	r1, r4
1000295c:	0038      	movs	r0, r7
1000295e:	f000 fb01 	bl	10002f64 <__wrap___aeabi_uidiv>
10002962:	b2cb      	uxtb	r3, r1
10002964:	2909      	cmp	r1, #9
10002966:	d9ed      	bls.n	10002944 <_vsnprintf+0x5fc>
10002968:	9a0d      	ldr	r2, [sp, #52]	; 0x34
1000296a:	4694      	mov	ip, r2
1000296c:	4463      	add	r3, ip
1000296e:	b2db      	uxtb	r3, r3
10002970:	e7ea      	b.n	10002948 <_vsnprintf+0x600>
10002972:	9b09      	ldr	r3, [sp, #36]	; 0x24
10002974:	465f      	mov	r7, fp
10002976:	1b5b      	subs	r3, r3, r5
10002978:	4698      	mov	r8, r3
1000297a:	9b0a      	ldr	r3, [sp, #40]	; 0x28
1000297c:	46b3      	mov	fp, r6
1000297e:	469a      	mov	sl, r3
10002980:	0026      	movs	r6, r4
10002982:	9c08      	ldr	r4, [sp, #32]
10002984:	002a      	movs	r2, r5
10002986:	003b      	movs	r3, r7
10002988:	0031      	movs	r1, r6
1000298a:	47a0      	blx	r4
1000298c:	4643      	mov	r3, r8
1000298e:	3501      	adds	r5, #1
10002990:	5d58      	ldrb	r0, [r3, r5]
10002992:	2800      	cmp	r0, #0
10002994:	d1f6      	bne.n	10002984 <_vsnprintf+0x63c>
10002996:	4653      	mov	r3, sl
10002998:	0034      	movs	r4, r6
1000299a:	930a      	str	r3, [sp, #40]	; 0x28
1000299c:	465e      	mov	r6, fp
1000299e:	46bb      	mov	fp, r7
100029a0:	e6df      	b.n	10002762 <_vsnprintf+0x41a>
100029a2:	23c0      	movs	r3, #192	; 0xc0
100029a4:	009b      	lsls	r3, r3, #2
100029a6:	78b0      	ldrb	r0, [r6, #2]
100029a8:	4319      	orrs	r1, r3
100029aa:	3602      	adds	r6, #2
100029ac:	e53d      	b.n	1000242a <_vsnprintf+0xe2>
100029ae:	23c0      	movs	r3, #192	; 0xc0
100029b0:	78b0      	ldrb	r0, [r6, #2]
100029b2:	4319      	orrs	r1, r3
100029b4:	3602      	adds	r6, #2
100029b6:	e538      	b.n	1000242a <_vsnprintf+0xe2>
100029b8:	970a      	str	r7, [sp, #40]	; 0x28
100029ba:	e69b      	b.n	100026f4 <_vsnprintf+0x3ac>
100029bc:	230c      	movs	r3, #12
100029be:	000a      	movs	r2, r1
100029c0:	439a      	bics	r2, r3
100029c2:	3314      	adds	r3, #20
100029c4:	431a      	orrs	r2, r3
100029c6:	2310      	movs	r3, #16
100029c8:	920b      	str	r2, [sp, #44]	; 0x2c
100029ca:	930c      	str	r3, [sp, #48]	; 0x30
100029cc:	054b      	lsls	r3, r1, #21
100029ce:	d400      	bmi.n	100029d2 <_vsnprintf+0x68a>
100029d0:	e5a8      	b.n	10002524 <_vsnprintf+0x1dc>
100029d2:	e59d      	b.n	10002510 <_vsnprintf+0x1c8>
100029d4:	46a3      	mov	fp, r4
100029d6:	0034      	movs	r4, r6
100029d8:	4656      	mov	r6, sl
100029da:	e6c2      	b.n	10002762 <_vsnprintf+0x41a>
100029dc:	9a0a      	ldr	r2, [sp, #40]	; 0x28
100029de:	2a01      	cmp	r2, #1
100029e0:	d800      	bhi.n	100029e4 <_vsnprintf+0x69c>
100029e2:	e22e      	b.n	10002e42 <_vsnprintf+0xafa>
100029e4:	1e6b      	subs	r3, r5, #1
100029e6:	189f      	adds	r7, r3, r2
100029e8:	9b08      	ldr	r3, [sp, #32]
100029ea:	46b0      	mov	r8, r6
100029ec:	4699      	mov	r9, r3
100029ee:	0026      	movs	r6, r4
100029f0:	465c      	mov	r4, fp
100029f2:	002a      	movs	r2, r5
100029f4:	0023      	movs	r3, r4
100029f6:	3501      	adds	r5, #1
100029f8:	0031      	movs	r1, r6
100029fa:	2020      	movs	r0, #32
100029fc:	47c8      	blx	r9
100029fe:	42bd      	cmp	r5, r7
10002a00:	d1f7      	bne.n	100029f2 <_vsnprintf+0x6aa>
10002a02:	46a3      	mov	fp, r4
10002a04:	0034      	movs	r4, r6
10002a06:	4646      	mov	r6, r8
10002a08:	9b09      	ldr	r3, [sp, #36]	; 0x24
10002a0a:	003a      	movs	r2, r7
10002a0c:	cb01      	ldmia	r3!, {r0}
10002a0e:	0021      	movs	r1, r4
10002a10:	4698      	mov	r8, r3
10002a12:	1c7d      	adds	r5, r7, #1
10002a14:	465b      	mov	r3, fp
10002a16:	9f08      	ldr	r7, [sp, #32]
10002a18:	b2c0      	uxtb	r0, r0
10002a1a:	47b8      	blx	r7
10002a1c:	4643      	mov	r3, r8
10002a1e:	3601      	adds	r6, #1
10002a20:	9309      	str	r3, [sp, #36]	; 0x24
10002a22:	e4b6      	b.n	10002392 <_vsnprintf+0x4a>
10002a24:	9a0b      	ldr	r2, [sp, #44]	; 0x2c
10002a26:	980a      	ldr	r0, [sp, #40]	; 0x28
10002a28:	1c53      	adds	r3, r2, #1
10002a2a:	4290      	cmp	r0, r2
10002a2c:	d800      	bhi.n	10002a30 <_vsnprintf+0x6e8>
10002a2e:	e20a      	b.n	10002e46 <_vsnprintf+0xafe>
10002a30:	1943      	adds	r3, r0, r5
10002a32:	1a9b      	subs	r3, r3, r2
10002a34:	001f      	movs	r7, r3
10002a36:	9b08      	ldr	r3, [sp, #32]
10002a38:	46b2      	mov	sl, r6
10002a3a:	0026      	movs	r6, r4
10002a3c:	465c      	mov	r4, fp
10002a3e:	469b      	mov	fp, r3
10002a40:	002a      	movs	r2, r5
10002a42:	0023      	movs	r3, r4
10002a44:	3501      	adds	r5, #1
10002a46:	0031      	movs	r1, r6
10002a48:	2020      	movs	r0, #32
10002a4a:	47d8      	blx	fp
10002a4c:	42bd      	cmp	r5, r7
10002a4e:	d1f7      	bne.n	10002a40 <_vsnprintf+0x6f8>
10002a50:	9b0a      	ldr	r3, [sp, #40]	; 0x28
10002a52:	46a3      	mov	fp, r4
10002a54:	3301      	adds	r3, #1
10002a56:	930b      	str	r3, [sp, #44]	; 0x2c
10002a58:	9b09      	ldr	r3, [sp, #36]	; 0x24
10002a5a:	0034      	movs	r4, r6
10002a5c:	781b      	ldrb	r3, [r3, #0]
10002a5e:	4656      	mov	r6, sl
10002a60:	469c      	mov	ip, r3
10002a62:	4660      	mov	r0, ip
10002a64:	2800      	cmp	r0, #0
10002a66:	d000      	beq.n	10002a6a <_vsnprintf+0x722>
10002a68:	e65a      	b.n	10002720 <_vsnprintf+0x3d8>
10002a6a:	e6e7      	b.n	1000283c <_vsnprintf+0x4f4>
10002a6c:	2207      	movs	r2, #7
10002a6e:	9b09      	ldr	r3, [sp, #36]	; 0x24
10002a70:	3307      	adds	r3, #7
10002a72:	4393      	bics	r3, r2
10002a74:	3201      	adds	r2, #1
10002a76:	4694      	mov	ip, r2
10002a78:	449c      	add	ip, r3
10002a7a:	4662      	mov	r2, ip
10002a7c:	685f      	ldr	r7, [r3, #4]
10002a7e:	9209      	str	r2, [sp, #36]	; 0x24
10002a80:	681a      	ldr	r2, [r3, #0]
10002a82:	17fb      	asrs	r3, r7, #31
10002a84:	9310      	str	r3, [sp, #64]	; 0x40
10002a86:	9311      	str	r3, [sp, #68]	; 0x44
10002a88:	9810      	ldr	r0, [sp, #64]	; 0x40
10002a8a:	9911      	ldr	r1, [sp, #68]	; 0x44
10002a8c:	0003      	movs	r3, r0
10002a8e:	4053      	eors	r3, r2
10002a90:	930e      	str	r3, [sp, #56]	; 0x38
10002a92:	000b      	movs	r3, r1
10002a94:	407b      	eors	r3, r7
10002a96:	930f      	str	r3, [sp, #60]	; 0x3c
10002a98:	4694      	mov	ip, r2
10002a9a:	9a0e      	ldr	r2, [sp, #56]	; 0x38
10002a9c:	9b0f      	ldr	r3, [sp, #60]	; 0x3c
10002a9e:	1a12      	subs	r2, r2, r0
10002aa0:	418b      	sbcs	r3, r1
10002aa2:	920e      	str	r2, [sp, #56]	; 0x38
10002aa4:	930f      	str	r3, [sp, #60]	; 0x3c
10002aa6:	0ffb      	lsrs	r3, r7, #31
10002aa8:	4662      	mov	r2, ip
10002aaa:	9312      	str	r3, [sp, #72]	; 0x48
10002aac:	2300      	movs	r3, #0
10002aae:	433a      	orrs	r2, r7
10002ab0:	469a      	mov	sl, r3
10002ab2:	d03d      	beq.n	10002b30 <_vsnprintf+0x7e8>
10002ab4:	9a0b      	ldr	r2, [sp, #44]	; 0x2c
10002ab6:	2361      	movs	r3, #97	; 0x61
10002ab8:	0692      	lsls	r2, r2, #26
10002aba:	d500      	bpl.n	10002abe <_vsnprintf+0x776>
10002abc:	2341      	movs	r3, #65	; 0x41
10002abe:	2200      	movs	r2, #0
10002ac0:	b2db      	uxtb	r3, r3
10002ac2:	a90e      	add	r1, sp, #56	; 0x38
10002ac4:	3b0a      	subs	r3, #10
10002ac6:	468c      	mov	ip, r1
10002ac8:	4691      	mov	r9, r2
10002aca:	930d      	str	r3, [sp, #52]	; 0x34
10002acc:	4643      	mov	r3, r8
10002ace:	321f      	adds	r2, #31
10002ad0:	4462      	add	r2, ip
10002ad2:	9513      	str	r5, [sp, #76]	; 0x4c
10002ad4:	9615      	str	r6, [sp, #84]	; 0x54
10002ad6:	464d      	mov	r5, r9
10002ad8:	9e0e      	ldr	r6, [sp, #56]	; 0x38
10002ada:	9f0f      	ldr	r7, [sp, #60]	; 0x3c
10002adc:	46a1      	mov	r9, r4
10002ade:	4690      	mov	r8, r2
10002ae0:	9c0c      	ldr	r4, [sp, #48]	; 0x30
10002ae2:	9314      	str	r3, [sp, #80]	; 0x50
10002ae4:	e00f      	b.n	10002b06 <_vsnprintf+0x7be>
10002ae6:	46c0      	nop			; (mov r8, r8)
10002ae8:	10001859 	.word	0x10001859
10002aec:	3230      	adds	r2, #48	; 0x30
10002aee:	b2d2      	uxtb	r2, r2
10002af0:	4643      	mov	r3, r8
10002af2:	3501      	adds	r5, #1
10002af4:	555a      	strb	r2, [r3, r5]
10002af6:	45ba      	cmp	sl, r7
10002af8:	d100      	bne.n	10002afc <_vsnprintf+0x7b4>
10002afa:	e17c      	b.n	10002df6 <_vsnprintf+0xaae>
10002afc:	2d20      	cmp	r5, #32
10002afe:	d100      	bne.n	10002b02 <_vsnprintf+0x7ba>
10002b00:	e17c      	b.n	10002dfc <_vsnprintf+0xab4>
10002b02:	0006      	movs	r6, r0
10002b04:	000f      	movs	r7, r1
10002b06:	0022      	movs	r2, r4
10002b08:	2300      	movs	r3, #0
10002b0a:	0030      	movs	r0, r6
10002b0c:	0039      	movs	r1, r7
10002b0e:	f000 fa6f 	bl	10002ff0 <__wrap___aeabi_uldivmod>
10002b12:	b2d2      	uxtb	r2, r2
10002b14:	2a09      	cmp	r2, #9
10002b16:	d9e9      	bls.n	10002aec <_vsnprintf+0x7a4>
10002b18:	9b0d      	ldr	r3, [sp, #52]	; 0x34
10002b1a:	469c      	mov	ip, r3
10002b1c:	4462      	add	r2, ip
10002b1e:	b2d2      	uxtb	r2, r2
10002b20:	e7e6      	b.n	10002af0 <_vsnprintf+0x7a8>
10002b22:	23ff      	movs	r3, #255	; 0xff
10002b24:	9909      	ldr	r1, [sp, #36]	; 0x24
10002b26:	c904      	ldmia	r1!, {r2}
10002b28:	4013      	ands	r3, r2
10002b2a:	001a      	movs	r2, r3
10002b2c:	9109      	str	r1, [sp, #36]	; 0x24
10002b2e:	e6e6      	b.n	100028fe <_vsnprintf+0x5b6>
10002b30:	9a0b      	ldr	r2, [sp, #44]	; 0x2c
10002b32:	3310      	adds	r3, #16
10002b34:	0011      	movs	r1, r2
10002b36:	4399      	bics	r1, r3
10002b38:	910b      	str	r1, [sp, #44]	; 0x2c
10002b3a:	0552      	lsls	r2, r2, #21
10002b3c:	d5ba      	bpl.n	10002ab4 <_vsnprintf+0x76c>
10002b3e:	2300      	movs	r3, #0
10002b40:	4699      	mov	r9, r3
10002b42:	9b0b      	ldr	r3, [sp, #44]	; 0x2c
10002b44:	9306      	str	r3, [sp, #24]
10002b46:	9b0a      	ldr	r3, [sp, #40]	; 0x28
10002b48:	9305      	str	r3, [sp, #20]
10002b4a:	4643      	mov	r3, r8
10002b4c:	9304      	str	r3, [sp, #16]
10002b4e:	9b0c      	ldr	r3, [sp, #48]	; 0x30
10002b50:	9303      	str	r3, [sp, #12]
10002b52:	9b12      	ldr	r3, [sp, #72]	; 0x48
10002b54:	9302      	str	r3, [sp, #8]
10002b56:	464b      	mov	r3, r9
10002b58:	9301      	str	r3, [sp, #4]
10002b5a:	ab16      	add	r3, sp, #88	; 0x58
10002b5c:	002a      	movs	r2, r5
10002b5e:	9300      	str	r3, [sp, #0]
10002b60:	0021      	movs	r1, r4
10002b62:	465b      	mov	r3, fp
10002b64:	9808      	ldr	r0, [sp, #32]
10002b66:	f7fe fee1 	bl	1000192c <_ntoa_format>
10002b6a:	3601      	adds	r6, #1
10002b6c:	0005      	movs	r5, r0
10002b6e:	f7ff fc10 	bl	10002392 <_vsnprintf+0x4a>
10002b72:	22ff      	movs	r2, #255	; 0xff
10002b74:	9b09      	ldr	r3, [sp, #36]	; 0x24
10002b76:	cb02      	ldmia	r3!, {r1}
10002b78:	4011      	ands	r1, r2
10002b7a:	468a      	mov	sl, r1
10002b7c:	9309      	str	r3, [sp, #36]	; 0x24
10002b7e:	e4f2      	b.n	10002566 <_vsnprintf+0x21e>
10002b80:	464b      	mov	r3, r9
10002b82:	4645      	mov	r5, r8
10002b84:	9309      	str	r3, [sp, #36]	; 0x24
10002b86:	3601      	adds	r6, #1
10002b88:	f7ff fc03 	bl	10002392 <_vsnprintf+0x4a>
10002b8c:	464e      	mov	r6, r9
10002b8e:	4654      	mov	r4, sl
10002b90:	46a9      	mov	r9, r5
10002b92:	9d13      	ldr	r5, [sp, #76]	; 0x4c
10002b94:	e7d5      	b.n	10002b42 <_vsnprintf+0x7fa>
10002b96:	2308      	movs	r3, #8
10002b98:	930c      	str	r3, [sp, #48]	; 0x30
10002b9a:	e687      	b.n	100028ac <_vsnprintf+0x564>
10002b9c:	2207      	movs	r2, #7
10002b9e:	9b09      	ldr	r3, [sp, #36]	; 0x24
10002ba0:	3307      	adds	r3, #7
10002ba2:	4393      	bics	r3, r2
10002ba4:	3201      	adds	r2, #1
10002ba6:	4694      	mov	ip, r2
10002ba8:	449c      	add	ip, r3
10002baa:	4662      	mov	r2, ip
10002bac:	9209      	str	r2, [sp, #36]	; 0x24
10002bae:	681a      	ldr	r2, [r3, #0]
10002bb0:	685b      	ldr	r3, [r3, #4]
10002bb2:	0010      	movs	r0, r2
10002bb4:	469a      	mov	sl, r3
10002bb6:	0013      	movs	r3, r2
10002bb8:	4652      	mov	r2, sl
10002bba:	4313      	orrs	r3, r2
10002bbc:	d107      	bne.n	10002bce <_vsnprintf+0x886>
10002bbe:	9a0b      	ldr	r2, [sp, #44]	; 0x2c
10002bc0:	3310      	adds	r3, #16
10002bc2:	0011      	movs	r1, r2
10002bc4:	4399      	bics	r1, r3
10002bc6:	910b      	str	r1, [sp, #44]	; 0x2c
10002bc8:	0552      	lsls	r2, r2, #21
10002bca:	d500      	bpl.n	10002bce <_vsnprintf+0x886>
10002bcc:	e4d7      	b.n	1000257e <_vsnprintf+0x236>
10002bce:	9a0b      	ldr	r2, [sp, #44]	; 0x2c
10002bd0:	2361      	movs	r3, #97	; 0x61
10002bd2:	0692      	lsls	r2, r2, #26
10002bd4:	d500      	bpl.n	10002bd8 <_vsnprintf+0x890>
10002bd6:	2341      	movs	r3, #65	; 0x41
10002bd8:	2200      	movs	r2, #0
10002bda:	b2db      	uxtb	r3, r3
10002bdc:	a90e      	add	r1, sp, #56	; 0x38
10002bde:	3b0a      	subs	r3, #10
10002be0:	468c      	mov	ip, r1
10002be2:	4691      	mov	r9, r2
10002be4:	930d      	str	r3, [sp, #52]	; 0x34
10002be6:	4643      	mov	r3, r8
10002be8:	321f      	adds	r2, #31
10002bea:	4462      	add	r2, ip
10002bec:	4657      	mov	r7, sl
10002bee:	9512      	str	r5, [sp, #72]	; 0x48
10002bf0:	46a2      	mov	sl, r4
10002bf2:	464d      	mov	r5, r9
10002bf4:	0004      	movs	r4, r0
10002bf6:	46b1      	mov	r9, r6
10002bf8:	4690      	mov	r8, r2
10002bfa:	9e0c      	ldr	r6, [sp, #48]	; 0x30
10002bfc:	9313      	str	r3, [sp, #76]	; 0x4c
10002bfe:	e00d      	b.n	10002c1c <_vsnprintf+0x8d4>
10002c00:	3230      	adds	r2, #48	; 0x30
10002c02:	b2d2      	uxtb	r2, r2
10002c04:	4643      	mov	r3, r8
10002c06:	3501      	adds	r5, #1
10002c08:	555a      	strb	r2, [r3, r5]
10002c0a:	2300      	movs	r3, #0
10002c0c:	42bb      	cmp	r3, r7
10002c0e:	d100      	bne.n	10002c12 <_vsnprintf+0x8ca>
10002c10:	e0fd      	b.n	10002e0e <_vsnprintf+0xac6>
10002c12:	2d20      	cmp	r5, #32
10002c14:	d100      	bne.n	10002c18 <_vsnprintf+0x8d0>
10002c16:	e0fd      	b.n	10002e14 <_vsnprintf+0xacc>
10002c18:	0004      	movs	r4, r0
10002c1a:	000f      	movs	r7, r1
10002c1c:	0032      	movs	r2, r6
10002c1e:	2300      	movs	r3, #0
10002c20:	0020      	movs	r0, r4
10002c22:	0039      	movs	r1, r7
10002c24:	f000 f9e4 	bl	10002ff0 <__wrap___aeabi_uldivmod>
10002c28:	b2d2      	uxtb	r2, r2
10002c2a:	2a09      	cmp	r2, #9
10002c2c:	d9e8      	bls.n	10002c00 <_vsnprintf+0x8b8>
10002c2e:	9b0d      	ldr	r3, [sp, #52]	; 0x34
10002c30:	469c      	mov	ip, r3
10002c32:	4462      	add	r2, ip
10002c34:	b2d2      	uxtb	r2, r2
10002c36:	e7e5      	b.n	10002c04 <_vsnprintf+0x8bc>
10002c38:	9a0b      	ldr	r2, [sp, #44]	; 0x2c
10002c3a:	2361      	movs	r3, #97	; 0x61
10002c3c:	0692      	lsls	r2, r2, #26
10002c3e:	d500      	bpl.n	10002c42 <_vsnprintf+0x8fa>
10002c40:	2341      	movs	r3, #65	; 0x41
10002c42:	b2db      	uxtb	r3, r3
10002c44:	a90e      	add	r1, sp, #56	; 0x38
10002c46:	3b0a      	subs	r3, #10
10002c48:	221f      	movs	r2, #31
10002c4a:	468c      	mov	ip, r1
10002c4c:	930d      	str	r3, [sp, #52]	; 0x34
10002c4e:	0023      	movs	r3, r4
10002c50:	4462      	add	r2, ip
10002c52:	4654      	mov	r4, sl
10002c54:	9512      	str	r5, [sp, #72]	; 0x48
10002c56:	0017      	movs	r7, r2
10002c58:	464d      	mov	r5, r9
10002c5a:	469a      	mov	sl, r3
10002c5c:	46b1      	mov	r9, r6
10002c5e:	9e0c      	ldr	r6, [sp, #48]	; 0x30
10002c60:	e008      	b.n	10002c74 <_vsnprintf+0x92c>
10002c62:	3330      	adds	r3, #48	; 0x30
10002c64:	b2db      	uxtb	r3, r3
10002c66:	3501      	adds	r5, #1
10002c68:	557b      	strb	r3, [r7, r5]
10002c6a:	42b4      	cmp	r4, r6
10002c6c:	d30e      	bcc.n	10002c8c <_vsnprintf+0x944>
10002c6e:	2d20      	cmp	r5, #32
10002c70:	d00c      	beq.n	10002c8c <_vsnprintf+0x944>
10002c72:	0004      	movs	r4, r0
10002c74:	0031      	movs	r1, r6
10002c76:	0020      	movs	r0, r4
10002c78:	f000 f974 	bl	10002f64 <__wrap___aeabi_uidiv>
10002c7c:	b2cb      	uxtb	r3, r1
10002c7e:	2909      	cmp	r1, #9
10002c80:	d9ef      	bls.n	10002c62 <_vsnprintf+0x91a>
10002c82:	9a0d      	ldr	r2, [sp, #52]	; 0x34
10002c84:	4694      	mov	ip, r2
10002c86:	4463      	add	r3, ip
10002c88:	b2db      	uxtb	r3, r3
10002c8a:	e7ec      	b.n	10002c66 <_vsnprintf+0x91e>
10002c8c:	464e      	mov	r6, r9
10002c8e:	4654      	mov	r4, sl
10002c90:	46a9      	mov	r9, r5
10002c92:	9d12      	ldr	r5, [sp, #72]	; 0x48
10002c94:	e475      	b.n	10002582 <_vsnprintf+0x23a>
10002c96:	9b09      	ldr	r3, [sp, #36]	; 0x24
10002c98:	001a      	movs	r2, r3
10002c9a:	ca08      	ldmia	r2!, {r3}
10002c9c:	17d9      	asrs	r1, r3, #31
10002c9e:	9213      	str	r2, [sp, #76]	; 0x4c
10002ca0:	185a      	adds	r2, r3, r1
10002ca2:	404a      	eors	r2, r1
10002ca4:	4691      	mov	r9, r2
10002ca6:	0fda      	lsrs	r2, r3, #31
10002ca8:	9212      	str	r2, [sp, #72]	; 0x48
10002caa:	2b00      	cmp	r3, #0
10002cac:	d108      	bne.n	10002cc0 <_vsnprintf+0x978>
10002cae:	2380      	movs	r3, #128	; 0x80
10002cb0:	2210      	movs	r2, #16
10002cb2:	990b      	ldr	r1, [sp, #44]	; 0x2c
10002cb4:	00db      	lsls	r3, r3, #3
10002cb6:	400b      	ands	r3, r1
10002cb8:	4391      	bics	r1, r2
10002cba:	910b      	str	r1, [sp, #44]	; 0x2c
10002cbc:	2b00      	cmp	r3, #0
10002cbe:	d12b      	bne.n	10002d18 <_vsnprintf+0x9d0>
10002cc0:	9a0b      	ldr	r2, [sp, #44]	; 0x2c
10002cc2:	2361      	movs	r3, #97	; 0x61
10002cc4:	0692      	lsls	r2, r2, #26
10002cc6:	d500      	bpl.n	10002cca <_vsnprintf+0x982>
10002cc8:	2341      	movs	r3, #65	; 0x41
10002cca:	aa0e      	add	r2, sp, #56	; 0x38
10002ccc:	271f      	movs	r7, #31
10002cce:	4694      	mov	ip, r2
10002cd0:	b2db      	uxtb	r3, r3
10002cd2:	3b0a      	subs	r3, #10
10002cd4:	950d      	str	r5, [sp, #52]	; 0x34
10002cd6:	4467      	add	r7, ip
10002cd8:	4655      	mov	r5, sl
10002cda:	9309      	str	r3, [sp, #36]	; 0x24
10002cdc:	46a2      	mov	sl, r4
10002cde:	464c      	mov	r4, r9
10002ce0:	46b1      	mov	r9, r6
10002ce2:	9e0c      	ldr	r6, [sp, #48]	; 0x30
10002ce4:	e008      	b.n	10002cf8 <_vsnprintf+0x9b0>
10002ce6:	3330      	adds	r3, #48	; 0x30
10002ce8:	b2db      	uxtb	r3, r3
10002cea:	3501      	adds	r5, #1
10002cec:	557b      	strb	r3, [r7, r5]
10002cee:	42b4      	cmp	r4, r6
10002cf0:	d30e      	bcc.n	10002d10 <_vsnprintf+0x9c8>
10002cf2:	2d20      	cmp	r5, #32
10002cf4:	d00c      	beq.n	10002d10 <_vsnprintf+0x9c8>
10002cf6:	0004      	movs	r4, r0
10002cf8:	0031      	movs	r1, r6
10002cfa:	0020      	movs	r0, r4
10002cfc:	f000 f932 	bl	10002f64 <__wrap___aeabi_uidiv>
10002d00:	b2cb      	uxtb	r3, r1
10002d02:	2909      	cmp	r1, #9
10002d04:	d9ef      	bls.n	10002ce6 <_vsnprintf+0x99e>
10002d06:	9a09      	ldr	r2, [sp, #36]	; 0x24
10002d08:	4694      	mov	ip, r2
10002d0a:	4463      	add	r3, ip
10002d0c:	b2db      	uxtb	r3, r3
10002d0e:	e7ec      	b.n	10002cea <_vsnprintf+0x9a2>
10002d10:	464e      	mov	r6, r9
10002d12:	4654      	mov	r4, sl
10002d14:	46aa      	mov	sl, r5
10002d16:	9d0d      	ldr	r5, [sp, #52]	; 0x34
10002d18:	9b0b      	ldr	r3, [sp, #44]	; 0x2c
10002d1a:	002a      	movs	r2, r5
10002d1c:	9306      	str	r3, [sp, #24]
10002d1e:	9b0a      	ldr	r3, [sp, #40]	; 0x28
10002d20:	0021      	movs	r1, r4
10002d22:	9305      	str	r3, [sp, #20]
10002d24:	4643      	mov	r3, r8
10002d26:	9304      	str	r3, [sp, #16]
10002d28:	9b0c      	ldr	r3, [sp, #48]	; 0x30
10002d2a:	9808      	ldr	r0, [sp, #32]
10002d2c:	9303      	str	r3, [sp, #12]
10002d2e:	9b12      	ldr	r3, [sp, #72]	; 0x48
10002d30:	3601      	adds	r6, #1
10002d32:	9302      	str	r3, [sp, #8]
10002d34:	4653      	mov	r3, sl
10002d36:	9301      	str	r3, [sp, #4]
10002d38:	ab16      	add	r3, sp, #88	; 0x58
10002d3a:	9300      	str	r3, [sp, #0]
10002d3c:	465b      	mov	r3, fp
10002d3e:	f7fe fdf5 	bl	1000192c <_ntoa_format>
10002d42:	9b13      	ldr	r3, [sp, #76]	; 0x4c
10002d44:	0005      	movs	r5, r0
10002d46:	9309      	str	r3, [sp, #36]	; 0x24
10002d48:	f7ff fb23 	bl	10002392 <_vsnprintf+0x4a>
10002d4c:	9b09      	ldr	r3, [sp, #36]	; 0x24
10002d4e:	cb04      	ldmia	r3!, {r2}
10002d50:	4691      	mov	r9, r2
10002d52:	9312      	str	r3, [sp, #72]	; 0x48
10002d54:	2a00      	cmp	r2, #0
10002d56:	d108      	bne.n	10002d6a <_vsnprintf+0xa22>
10002d58:	2380      	movs	r3, #128	; 0x80
10002d5a:	2210      	movs	r2, #16
10002d5c:	990b      	ldr	r1, [sp, #44]	; 0x2c
10002d5e:	00db      	lsls	r3, r3, #3
10002d60:	400b      	ands	r3, r1
10002d62:	4391      	bics	r1, r2
10002d64:	910b      	str	r1, [sp, #44]	; 0x2c
10002d66:	2b00      	cmp	r3, #0
10002d68:	d12b      	bne.n	10002dc2 <_vsnprintf+0xa7a>
10002d6a:	9a0b      	ldr	r2, [sp, #44]	; 0x2c
10002d6c:	2361      	movs	r3, #97	; 0x61
10002d6e:	0692      	lsls	r2, r2, #26
10002d70:	d500      	bpl.n	10002d74 <_vsnprintf+0xa2c>
10002d72:	2341      	movs	r3, #65	; 0x41
10002d74:	aa0e      	add	r2, sp, #56	; 0x38
10002d76:	271f      	movs	r7, #31
10002d78:	4694      	mov	ip, r2
10002d7a:	b2db      	uxtb	r3, r3
10002d7c:	3b0a      	subs	r3, #10
10002d7e:	950d      	str	r5, [sp, #52]	; 0x34
10002d80:	4467      	add	r7, ip
10002d82:	4655      	mov	r5, sl
10002d84:	9309      	str	r3, [sp, #36]	; 0x24
10002d86:	46a2      	mov	sl, r4
10002d88:	464c      	mov	r4, r9
10002d8a:	46b1      	mov	r9, r6
10002d8c:	9e0c      	ldr	r6, [sp, #48]	; 0x30
10002d8e:	e008      	b.n	10002da2 <_vsnprintf+0xa5a>
10002d90:	3330      	adds	r3, #48	; 0x30
10002d92:	b2db      	uxtb	r3, r3
10002d94:	3501      	adds	r5, #1
10002d96:	557b      	strb	r3, [r7, r5]
10002d98:	42b4      	cmp	r4, r6
10002d9a:	d30e      	bcc.n	10002dba <_vsnprintf+0xa72>
10002d9c:	2d20      	cmp	r5, #32
10002d9e:	d00c      	beq.n	10002dba <_vsnprintf+0xa72>
10002da0:	0004      	movs	r4, r0
10002da2:	0031      	movs	r1, r6
10002da4:	0020      	movs	r0, r4
10002da6:	f000 f8dd 	bl	10002f64 <__wrap___aeabi_uidiv>
10002daa:	b2cb      	uxtb	r3, r1
10002dac:	2909      	cmp	r1, #9
10002dae:	d9ef      	bls.n	10002d90 <_vsnprintf+0xa48>
10002db0:	9a09      	ldr	r2, [sp, #36]	; 0x24
10002db2:	4694      	mov	ip, r2
10002db4:	4463      	add	r3, ip
10002db6:	b2db      	uxtb	r3, r3
10002db8:	e7ec      	b.n	10002d94 <_vsnprintf+0xa4c>
10002dba:	464e      	mov	r6, r9
10002dbc:	4654      	mov	r4, sl
10002dbe:	46aa      	mov	sl, r5
10002dc0:	9d0d      	ldr	r5, [sp, #52]	; 0x34
10002dc2:	9b0b      	ldr	r3, [sp, #44]	; 0x2c
10002dc4:	002a      	movs	r2, r5
10002dc6:	9306      	str	r3, [sp, #24]
10002dc8:	9b0a      	ldr	r3, [sp, #40]	; 0x28
10002dca:	0021      	movs	r1, r4
10002dcc:	9305      	str	r3, [sp, #20]
10002dce:	4643      	mov	r3, r8
10002dd0:	9304      	str	r3, [sp, #16]
10002dd2:	9b0c      	ldr	r3, [sp, #48]	; 0x30
10002dd4:	9808      	ldr	r0, [sp, #32]
10002dd6:	9303      	str	r3, [sp, #12]
10002dd8:	2300      	movs	r3, #0
10002dda:	9302      	str	r3, [sp, #8]
10002ddc:	4653      	mov	r3, sl
10002dde:	9301      	str	r3, [sp, #4]
10002de0:	ab16      	add	r3, sp, #88	; 0x58
10002de2:	9300      	str	r3, [sp, #0]
10002de4:	465b      	mov	r3, fp
10002de6:	f7fe fda1 	bl	1000192c <_ntoa_format>
10002dea:	9b12      	ldr	r3, [sp, #72]	; 0x48
10002dec:	0005      	movs	r5, r0
10002dee:	9309      	str	r3, [sp, #36]	; 0x24
10002df0:	3601      	adds	r6, #1
10002df2:	f7ff face 	bl	10002392 <_vsnprintf+0x4a>
10002df6:	42b4      	cmp	r4, r6
10002df8:	d800      	bhi.n	10002dfc <_vsnprintf+0xab4>
10002dfa:	e67f      	b.n	10002afc <_vsnprintf+0x7b4>
10002dfc:	9b14      	ldr	r3, [sp, #80]	; 0x50
10002dfe:	464c      	mov	r4, r9
10002e00:	960e      	str	r6, [sp, #56]	; 0x38
10002e02:	970f      	str	r7, [sp, #60]	; 0x3c
10002e04:	46a9      	mov	r9, r5
10002e06:	4698      	mov	r8, r3
10002e08:	9e15      	ldr	r6, [sp, #84]	; 0x54
10002e0a:	9d13      	ldr	r5, [sp, #76]	; 0x4c
10002e0c:	e699      	b.n	10002b42 <_vsnprintf+0x7fa>
10002e0e:	42a6      	cmp	r6, r4
10002e10:	d800      	bhi.n	10002e14 <_vsnprintf+0xacc>
10002e12:	e6fe      	b.n	10002c12 <_vsnprintf+0x8ca>
10002e14:	9b13      	ldr	r3, [sp, #76]	; 0x4c
10002e16:	464e      	mov	r6, r9
10002e18:	4698      	mov	r8, r3
10002e1a:	46a9      	mov	r9, r5
10002e1c:	4654      	mov	r4, sl
10002e1e:	9d12      	ldr	r5, [sp, #72]	; 0x48
10002e20:	f7ff fbaf 	bl	10002582 <_vsnprintf+0x23a>
10002e24:	c908      	ldmia	r1!, {r3}
10002e26:	17d8      	asrs	r0, r3, #31
10002e28:	181a      	adds	r2, r3, r0
10002e2a:	4042      	eors	r2, r0
10002e2c:	9109      	str	r1, [sp, #36]	; 0x24
10002e2e:	e566      	b.n	100028fe <_vsnprintf+0x5b6>
10002e30:	2300      	movs	r3, #0
10002e32:	930b      	str	r3, [sp, #44]	; 0x2c
10002e34:	e45e      	b.n	100026f4 <_vsnprintf+0x3ac>
10002e36:	9b09      	ldr	r3, [sp, #36]	; 0x24
10002e38:	cb04      	ldmia	r3!, {r2}
10002e3a:	4692      	mov	sl, r2
10002e3c:	9309      	str	r3, [sp, #36]	; 0x24
10002e3e:	f7ff fb92 	bl	10002566 <_vsnprintf+0x21e>
10002e42:	002f      	movs	r7, r5
10002e44:	e5e0      	b.n	10002a08 <_vsnprintf+0x6c0>
10002e46:	930b      	str	r3, [sp, #44]	; 0x2c
10002e48:	e60b      	b.n	10002a62 <_vsnprintf+0x71a>
10002e4a:	3b06      	subs	r3, #6
10002e4c:	930c      	str	r3, [sp, #48]	; 0x30
10002e4e:	e52e      	b.n	100028ae <_vsnprintf+0x566>

10002e50 <vfctprintf>:
10002e50:	b500      	push	{lr}
10002e52:	b085      	sub	sp, #20
10002e54:	9103      	str	r1, [sp, #12]
10002e56:	2101      	movs	r1, #1
10002e58:	9002      	str	r0, [sp, #8]
10002e5a:	9300      	str	r3, [sp, #0]
10002e5c:	4803      	ldr	r0, [pc, #12]	; (10002e6c <vfctprintf+0x1c>)
10002e5e:	0013      	movs	r3, r2
10002e60:	424a      	negs	r2, r1
10002e62:	a902      	add	r1, sp, #8
10002e64:	f7ff fa70 	bl	10002348 <_vsnprintf>
10002e68:	b005      	add	sp, #20
10002e6a:	bd00      	pop	{pc}
10002e6c:	10001b0d 	.word	0x10001b0d

10002e70 <weak_raw_vprintf>:
10002e70:	b510      	push	{r4, lr}
10002e72:	4a09      	ldr	r2, [pc, #36]	; (10002e98 <weak_raw_vprintf+0x28>)
10002e74:	0003      	movs	r3, r0
10002e76:	6814      	ldr	r4, [r2, #0]
10002e78:	b084      	sub	sp, #16
10002e7a:	2c00      	cmp	r4, #0
10002e7c:	d008      	beq.n	10002e90 <weak_raw_vprintf+0x20>
10002e7e:	2201      	movs	r2, #1
10002e80:	9100      	str	r1, [sp, #0]
10002e82:	4806      	ldr	r0, [pc, #24]	; (10002e9c <weak_raw_vprintf+0x2c>)
10002e84:	4252      	negs	r2, r2
10002e86:	a903      	add	r1, sp, #12
10002e88:	47a0      	blx	r4
10002e8a:	2001      	movs	r0, #1
10002e8c:	b004      	add	sp, #16
10002e8e:	bd10      	pop	{r4, pc}
10002e90:	f001 f84c 	bl	10003f2c <__wrap_puts>
10002e94:	2000      	movs	r0, #0
10002e96:	e7f9      	b.n	10002e8c <weak_raw_vprintf+0x1c>
10002e98:	20000d44 	.word	0x20000d44
10002e9c:	10001afd 	.word	0x10001afd

10002ea0 <__aeabi_bits_init>:
10002ea0:	4801      	ldr	r0, [pc, #4]	; (10002ea8 <__aeabi_bits_init+0x8>)
10002ea2:	2104      	movs	r1, #4
10002ea4:	4b01      	ldr	r3, [pc, #4]	; (10002eac <__aeabi_bits_init+0xc>)
10002ea6:	4718      	bx	r3
10002ea8:	20000320 	.word	0x20000320
10002eac:	10002ed1 	.word	0x10002ed1

10002eb0 <rom_func_lookup>:
10002eb0:	2314      	movs	r3, #20
10002eb2:	b510      	push	{r4, lr}
10002eb4:	0001      	movs	r1, r0
10002eb6:	8818      	ldrh	r0, [r3, #0]
10002eb8:	3304      	adds	r3, #4
10002eba:	881b      	ldrh	r3, [r3, #0]
10002ebc:	4798      	blx	r3
10002ebe:	bd10      	pop	{r4, pc}

10002ec0 <rom_data_lookup>:
10002ec0:	2316      	movs	r3, #22
10002ec2:	b510      	push	{r4, lr}
10002ec4:	0001      	movs	r1, r0
10002ec6:	8818      	ldrh	r0, [r3, #0]
10002ec8:	3302      	adds	r3, #2
10002eca:	881b      	ldrh	r3, [r3, #0]
10002ecc:	4798      	blx	r3
10002ece:	bd10      	pop	{r4, pc}

10002ed0 <rom_funcs_lookup>:
10002ed0:	b5f0      	push	{r4, r5, r6, r7, lr}
10002ed2:	46c6      	mov	lr, r8
10002ed4:	b500      	push	{lr}
10002ed6:	2900      	cmp	r1, #0
10002ed8:	d016      	beq.n	10002f08 <rom_funcs_lookup+0x38>
10002eda:	2314      	movs	r3, #20
10002edc:	0004      	movs	r4, r0
10002ede:	2501      	movs	r5, #1
10002ee0:	4698      	mov	r8, r3
10002ee2:	2718      	movs	r7, #24
10002ee4:	0089      	lsls	r1, r1, #2
10002ee6:	1846      	adds	r6, r0, r1
10002ee8:	4643      	mov	r3, r8
10002eea:	6821      	ldr	r1, [r4, #0]
10002eec:	8818      	ldrh	r0, [r3, #0]
10002eee:	883b      	ldrh	r3, [r7, #0]
10002ef0:	4798      	blx	r3
10002ef2:	c401      	stmia	r4!, {r0}
10002ef4:	1e43      	subs	r3, r0, #1
10002ef6:	4198      	sbcs	r0, r3
10002ef8:	4240      	negs	r0, r0
10002efa:	4005      	ands	r5, r0
10002efc:	42a6      	cmp	r6, r4
10002efe:	d1f3      	bne.n	10002ee8 <rom_funcs_lookup+0x18>
10002f00:	0028      	movs	r0, r5
10002f02:	bc04      	pop	{r2}
10002f04:	4690      	mov	r8, r2
10002f06:	bdf0      	pop	{r4, r5, r6, r7, pc}
10002f08:	2501      	movs	r5, #1
10002f0a:	e7f9      	b.n	10002f00 <rom_funcs_lookup+0x30>

10002f0c <__wrap___aeabi_idiv>:
10002f0c:	4a14      	ldr	r2, [pc, #80]	; (10002f60 <divmod_s32s32_savestate+0x20>)
10002f0e:	6f93      	ldr	r3, [r2, #120]	; 0x78
10002f10:	089b      	lsrs	r3, r3, #2
10002f12:	d215      	bcs.n	10002f40 <divmod_s32s32_savestate>

10002f14 <divmod_s32s32_unsafe>:
10002f14:	6690      	str	r0, [r2, #104]	; 0x68
10002f16:	66d1      	str	r1, [r2, #108]	; 0x6c
10002f18:	2900      	cmp	r1, #0
10002f1a:	d005      	beq.n	10002f28 <divmod_s32s32_unsafe+0x14>
10002f1c:	e7ff      	b.n	10002f1e <divmod_s32s32_unsafe+0xa>
10002f1e:	e7ff      	b.n	10002f20 <divmod_s32s32_unsafe+0xc>
10002f20:	e7ff      	b.n	10002f22 <divmod_s32s32_unsafe+0xe>
10002f22:	6f51      	ldr	r1, [r2, #116]	; 0x74
10002f24:	6f10      	ldr	r0, [r2, #112]	; 0x70
10002f26:	4770      	bx	lr
10002f28:	b504      	push	{r2, lr}
10002f2a:	2180      	movs	r1, #128	; 0x80
10002f2c:	0609      	lsls	r1, r1, #24
10002f2e:	17c2      	asrs	r2, r0, #31
10002f30:	4051      	eors	r1, r2
10002f32:	2800      	cmp	r0, #0
10002f34:	d000      	beq.n	10002f38 <divmod_s32s32_unsafe+0x24>
10002f36:	43c8      	mvns	r0, r1
10002f38:	f001 fdce 	bl	10004ad8 <____aeabi_idiv0_veneer>
10002f3c:	2100      	movs	r1, #0
10002f3e:	bd04      	pop	{r2, pc}

10002f40 <divmod_s32s32_savestate>:
10002f40:	6f93      	ldr	r3, [r2, #120]	; 0x78
10002f42:	085b      	lsrs	r3, r3, #1
10002f44:	d3fd      	bcc.n	10002f42 <divmod_s32s32_savestate+0x2>
10002f46:	b5f0      	push	{r4, r5, r6, r7, lr}
10002f48:	6e94      	ldr	r4, [r2, #104]	; 0x68
10002f4a:	6ed5      	ldr	r5, [r2, #108]	; 0x6c
10002f4c:	6f57      	ldr	r7, [r2, #116]	; 0x74
10002f4e:	6f16      	ldr	r6, [r2, #112]	; 0x70
10002f50:	f7ff ffe0 	bl	10002f14 <divmod_s32s32_unsafe>
10002f54:	6694      	str	r4, [r2, #104]	; 0x68
10002f56:	66d5      	str	r5, [r2, #108]	; 0x6c
10002f58:	6757      	str	r7, [r2, #116]	; 0x74
10002f5a:	6716      	str	r6, [r2, #112]	; 0x70
10002f5c:	bdf0      	pop	{r4, r5, r6, r7, pc}
10002f5e:	0000      	.short	0x0000
10002f60:	d0000000 	.word	0xd0000000

10002f64 <__wrap___aeabi_uidiv>:
10002f64:	4a13      	ldr	r2, [pc, #76]	; (10002fb4 <divmod_u32u32_savestate+0x20>)
10002f66:	6f93      	ldr	r3, [r2, #120]	; 0x78
10002f68:	089b      	lsrs	r3, r3, #2
10002f6a:	d213      	bcs.n	10002f94 <divmod_u32u32_savestate>

10002f6c <divmod_u32u32_unsafe>:
10002f6c:	6610      	str	r0, [r2, #96]	; 0x60
10002f6e:	6651      	str	r1, [r2, #100]	; 0x64
10002f70:	2900      	cmp	r1, #0
10002f72:	d005      	beq.n	10002f80 <divmod_u32u32_unsafe+0x14>
10002f74:	e7ff      	b.n	10002f76 <divmod_u32u32_unsafe+0xa>
10002f76:	e7ff      	b.n	10002f78 <divmod_u32u32_unsafe+0xc>
10002f78:	e7ff      	b.n	10002f7a <divmod_u32u32_unsafe+0xe>
10002f7a:	6f51      	ldr	r1, [r2, #116]	; 0x74
10002f7c:	6f10      	ldr	r0, [r2, #112]	; 0x70
10002f7e:	4770      	bx	lr
10002f80:	b504      	push	{r2, lr}
10002f82:	2800      	cmp	r0, #0
10002f84:	d001      	beq.n	10002f8a <divmod_u32u32_unsafe+0x1e>
10002f86:	2000      	movs	r0, #0
10002f88:	43c0      	mvns	r0, r0
10002f8a:	f001 fda5 	bl	10004ad8 <____aeabi_idiv0_veneer>
10002f8e:	2100      	movs	r1, #0
10002f90:	bd04      	pop	{r2, pc}
10002f92:	46c0      	nop			; (mov r8, r8)

10002f94 <divmod_u32u32_savestate>:
10002f94:	6f93      	ldr	r3, [r2, #120]	; 0x78
10002f96:	085b      	lsrs	r3, r3, #1
10002f98:	d3fd      	bcc.n	10002f96 <divmod_u32u32_savestate+0x2>
10002f9a:	b5f0      	push	{r4, r5, r6, r7, lr}
10002f9c:	6e94      	ldr	r4, [r2, #104]	; 0x68
10002f9e:	6ed5      	ldr	r5, [r2, #108]	; 0x6c
10002fa0:	6f57      	ldr	r7, [r2, #116]	; 0x74
10002fa2:	6f16      	ldr	r6, [r2, #112]	; 0x70
10002fa4:	f7ff ffe2 	bl	10002f6c <divmod_u32u32_unsafe>
10002fa8:	6694      	str	r4, [r2, #104]	; 0x68
10002faa:	66d5      	str	r5, [r2, #108]	; 0x6c
10002fac:	6757      	str	r7, [r2, #116]	; 0x74
10002fae:	6716      	str	r6, [r2, #112]	; 0x70
10002fb0:	bdf0      	pop	{r4, r5, r6, r7, pc}
10002fb2:	0000      	.short	0x0000
10002fb4:	d0000000 	.word	0xd0000000

10002fb8 <__wrap___aeabi_ldivmod>:
10002fb8:	4694      	mov	ip, r2
10002fba:	4a4e      	ldr	r2, [pc, #312]	; (100030f4 <udiv0+0x1a>)
10002fbc:	6f92      	ldr	r2, [r2, #120]	; 0x78
10002fbe:	0892      	lsrs	r2, r2, #2
10002fc0:	4662      	mov	r2, ip
10002fc2:	d201      	bcs.n	10002fc8 <divmod_s64s64_savestate>
10002fc4:	e030      	b.n	10003028 <divmod_s64s64_unsafe>
10002fc6:	46c0      	nop			; (mov r8, r8)

10002fc8 <divmod_s64s64_savestate>:
10002fc8:	b5f0      	push	{r4, r5, r6, r7, lr}
10002fca:	4e4a      	ldr	r6, [pc, #296]	; (100030f4 <udiv0+0x1a>)
10002fcc:	6fb5      	ldr	r5, [r6, #120]	; 0x78
10002fce:	086d      	lsrs	r5, r5, #1
10002fd0:	d3fc      	bcc.n	10002fcc <divmod_s64s64_savestate+0x4>
10002fd2:	6e34      	ldr	r4, [r6, #96]	; 0x60
10002fd4:	6e75      	ldr	r5, [r6, #100]	; 0x64
10002fd6:	6f77      	ldr	r7, [r6, #116]	; 0x74
10002fd8:	6f36      	ldr	r6, [r6, #112]	; 0x70
10002fda:	f000 f825 	bl	10003028 <divmod_s64s64_unsafe>
10002fde:	4694      	mov	ip, r2
10002fe0:	4a44      	ldr	r2, [pc, #272]	; (100030f4 <udiv0+0x1a>)
10002fe2:	6614      	str	r4, [r2, #96]	; 0x60
10002fe4:	6655      	str	r5, [r2, #100]	; 0x64
10002fe6:	6757      	str	r7, [r2, #116]	; 0x74
10002fe8:	6716      	str	r6, [r2, #112]	; 0x70
10002fea:	4662      	mov	r2, ip
10002fec:	bdf0      	pop	{r4, r5, r6, r7, pc}
10002fee:	46c0      	nop			; (mov r8, r8)

10002ff0 <__wrap___aeabi_uldivmod>:
10002ff0:	4694      	mov	ip, r2
10002ff2:	4a40      	ldr	r2, [pc, #256]	; (100030f4 <udiv0+0x1a>)
10002ff4:	6f92      	ldr	r2, [r2, #120]	; 0x78
10002ff6:	0892      	lsrs	r2, r2, #2
10002ff8:	4662      	mov	r2, ip
10002ffa:	d201      	bcs.n	10003000 <divmod_u64u64_savestate>
10002ffc:	e058      	b.n	100030b0 <divmod_u64u64_unsafe>
10002ffe:	46c0      	nop			; (mov r8, r8)

10003000 <divmod_u64u64_savestate>:
10003000:	b5f0      	push	{r4, r5, r6, r7, lr}
10003002:	4e3c      	ldr	r6, [pc, #240]	; (100030f4 <udiv0+0x1a>)
10003004:	6fb5      	ldr	r5, [r6, #120]	; 0x78
10003006:	086d      	lsrs	r5, r5, #1
10003008:	d3fc      	bcc.n	10003004 <divmod_u64u64_savestate+0x4>
1000300a:	6e34      	ldr	r4, [r6, #96]	; 0x60
1000300c:	6e75      	ldr	r5, [r6, #100]	; 0x64
1000300e:	6f77      	ldr	r7, [r6, #116]	; 0x74
10003010:	6f36      	ldr	r6, [r6, #112]	; 0x70
10003012:	f000 f84d 	bl	100030b0 <divmod_u64u64_unsafe>
10003016:	4694      	mov	ip, r2
10003018:	4a36      	ldr	r2, [pc, #216]	; (100030f4 <udiv0+0x1a>)
1000301a:	6614      	str	r4, [r2, #96]	; 0x60
1000301c:	6655      	str	r5, [r2, #100]	; 0x64
1000301e:	6757      	str	r7, [r2, #116]	; 0x74
10003020:	6716      	str	r6, [r2, #112]	; 0x70
10003022:	4662      	mov	r2, ip
10003024:	bdf0      	pop	{r4, r5, r6, r7, pc}
10003026:	46c0      	nop			; (mov r8, r8)

10003028 <divmod_s64s64_unsafe>:
10003028:	2b00      	cmp	r3, #0
1000302a:	db24      	blt.n	10003076 <l41_1+0x26>
1000302c:	d011      	beq.n	10003052 <l41_1+0x2>
1000302e:	2900      	cmp	r1, #0
10003030:	da3e      	bge.n	100030b0 <divmod_u64u64_unsafe>
10003032:	b500      	push	{lr}
10003034:	43c9      	mvns	r1, r1
10003036:	4240      	negs	r0, r0
10003038:	d100      	bne.n	1000303c <l39_1>
1000303a:	3101      	adds	r1, #1

1000303c <l39_1>:
1000303c:	f000 f838 	bl	100030b0 <divmod_u64u64_unsafe>
10003040:	43c9      	mvns	r1, r1
10003042:	4240      	negs	r0, r0
10003044:	d100      	bne.n	10003048 <l40_1>
10003046:	3101      	adds	r1, #1

10003048 <l40_1>:
10003048:	43db      	mvns	r3, r3
1000304a:	4252      	negs	r2, r2
1000304c:	d100      	bne.n	10003050 <l41_1>
1000304e:	3301      	adds	r3, #1

10003050 <l41_1>:
10003050:	bd00      	pop	{pc}
10003052:	2a00      	cmp	r2, #0
10003054:	d1eb      	bne.n	1000302e <divmod_s64s64_unsafe+0x6>
10003056:	2800      	cmp	r0, #0
10003058:	d101      	bne.n	1000305e <l41_1+0xe>
1000305a:	2900      	cmp	r1, #0
1000305c:	d005      	beq.n	1000306a <l41_1+0x1a>
1000305e:	2000      	movs	r0, #0
10003060:	0fc9      	lsrs	r1, r1, #31
10003062:	07c9      	lsls	r1, r1, #31
10003064:	d101      	bne.n	1000306a <l41_1+0x1a>
10003066:	43c0      	mvns	r0, r0
10003068:	0841      	lsrs	r1, r0, #1
1000306a:	b500      	push	{lr}
1000306c:	f001 fd24 	bl	10004ab8 <____aeabi_ldiv0_veneer>
10003070:	2200      	movs	r2, #0
10003072:	2300      	movs	r3, #0
10003074:	bd00      	pop	{pc}
10003076:	b500      	push	{lr}
10003078:	2900      	cmp	r1, #0
1000307a:	db0a      	blt.n	10003092 <l43_1+0x2>
1000307c:	43db      	mvns	r3, r3
1000307e:	4252      	negs	r2, r2
10003080:	d100      	bne.n	10003084 <l42_1>
10003082:	3301      	adds	r3, #1

10003084 <l42_1>:
10003084:	f000 f814 	bl	100030b0 <divmod_u64u64_unsafe>
10003088:	43c9      	mvns	r1, r1
1000308a:	4240      	negs	r0, r0
1000308c:	d100      	bne.n	10003090 <l43_1>
1000308e:	3101      	adds	r1, #1

10003090 <l43_1>:
10003090:	bd00      	pop	{pc}
10003092:	43c9      	mvns	r1, r1
10003094:	4240      	negs	r0, r0
10003096:	d100      	bne.n	1000309a <l44_1>
10003098:	3101      	adds	r1, #1

1000309a <l44_1>:
1000309a:	43db      	mvns	r3, r3
1000309c:	4252      	negs	r2, r2
1000309e:	d100      	bne.n	100030a2 <l45_1>
100030a0:	3301      	adds	r3, #1

100030a2 <l45_1>:
100030a2:	f000 f805 	bl	100030b0 <divmod_u64u64_unsafe>
100030a6:	43db      	mvns	r3, r3
100030a8:	4252      	negs	r2, r2
100030aa:	d100      	bne.n	100030ae <l46_1>
100030ac:	3301      	adds	r3, #1

100030ae <l46_1>:
100030ae:	bd00      	pop	{pc}

100030b0 <divmod_u64u64_unsafe>:
100030b0:	2900      	cmp	r1, #0
100030b2:	d123      	bne.n	100030fc <y64>
100030b4:	2b00      	cmp	r3, #0
100030b6:	d118      	bne.n	100030ea <udiv0+0x10>
100030b8:	2a00      	cmp	r2, #0
100030ba:	d00c      	beq.n	100030d6 <divmod_u64u64_unsafe+0x26>
100030bc:	46bc      	mov	ip, r7
100030be:	4f0d      	ldr	r7, [pc, #52]	; (100030f4 <udiv0+0x1a>)
100030c0:	6638      	str	r0, [r7, #96]	; 0x60
100030c2:	667a      	str	r2, [r7, #100]	; 0x64
100030c4:	2100      	movs	r1, #0
100030c6:	2300      	movs	r3, #0
100030c8:	e7ff      	b.n	100030ca <divmod_u64u64_unsafe+0x1a>
100030ca:	e7ff      	b.n	100030cc <divmod_u64u64_unsafe+0x1c>
100030cc:	e7ff      	b.n	100030ce <divmod_u64u64_unsafe+0x1e>
100030ce:	6f7a      	ldr	r2, [r7, #116]	; 0x74
100030d0:	6f38      	ldr	r0, [r7, #112]	; 0x70
100030d2:	4667      	mov	r7, ip
100030d4:	4770      	bx	lr
100030d6:	2800      	cmp	r0, #0
100030d8:	d001      	beq.n	100030de <udiv0+0x4>

100030da <udiv0>:
100030da:	4807      	ldr	r0, [pc, #28]	; (100030f8 <udiv0+0x1e>)
100030dc:	0001      	movs	r1, r0
100030de:	b500      	push	{lr}
100030e0:	f001 fcea 	bl	10004ab8 <____aeabi_ldiv0_veneer>
100030e4:	2200      	movs	r2, #0
100030e6:	2300      	movs	r3, #0
100030e8:	bd00      	pop	{pc}
100030ea:	0002      	movs	r2, r0
100030ec:	000b      	movs	r3, r1
100030ee:	2000      	movs	r0, #0
100030f0:	2100      	movs	r1, #0
100030f2:	4770      	bx	lr
100030f4:	d0000000 	.word	0xd0000000
100030f8:	ffffffff 	.word	0xffffffff

100030fc <y64>:
100030fc:	2b00      	cmp	r3, #0
100030fe:	d000      	beq.n	10003102 <y64+0x6>
10003100:	e0bd      	b.n	1000327e <y64_x48>
10003102:	0c13      	lsrs	r3, r2, #16
10003104:	d126      	bne.n	10003154 <y64_x32>
10003106:	2a00      	cmp	r2, #0
10003108:	d0e7      	beq.n	100030da <udiv0>
1000310a:	b480      	push	{r7}
1000310c:	4f10      	ldr	r7, [pc, #64]	; (10003150 <y64+0x54>)
1000310e:	6639      	str	r1, [r7, #96]	; 0x60
10003110:	667a      	str	r2, [r7, #100]	; 0x64
10003112:	e7ff      	b.n	10003114 <y64+0x18>
10003114:	e7ff      	b.n	10003116 <y64+0x1a>
10003116:	b430      	push	{r4, r5}
10003118:	0c04      	lsrs	r4, r0, #16
1000311a:	6f7b      	ldr	r3, [r7, #116]	; 0x74
1000311c:	6f39      	ldr	r1, [r7, #112]	; 0x70
1000311e:	041b      	lsls	r3, r3, #16
10003120:	4323      	orrs	r3, r4
10003122:	663b      	str	r3, [r7, #96]	; 0x60
10003124:	e7ff      	b.n	10003126 <y64+0x2a>
10003126:	e7ff      	b.n	10003128 <y64+0x2c>
10003128:	e7ff      	b.n	1000312a <y64+0x2e>
1000312a:	46c0      	nop			; (mov r8, r8)
1000312c:	b284      	uxth	r4, r0
1000312e:	6f7b      	ldr	r3, [r7, #116]	; 0x74
10003130:	6f3d      	ldr	r5, [r7, #112]	; 0x70
10003132:	041b      	lsls	r3, r3, #16
10003134:	4323      	orrs	r3, r4
10003136:	663b      	str	r3, [r7, #96]	; 0x60
10003138:	e7ff      	b.n	1000313a <y64+0x3e>
1000313a:	e7ff      	b.n	1000313c <y64+0x40>
1000313c:	46c0      	nop			; (mov r8, r8)
1000313e:	2300      	movs	r3, #0
10003140:	042c      	lsls	r4, r5, #16
10003142:	0c2d      	lsrs	r5, r5, #16
10003144:	6f7a      	ldr	r2, [r7, #116]	; 0x74
10003146:	6f38      	ldr	r0, [r7, #112]	; 0x70
10003148:	1900      	adds	r0, r0, r4
1000314a:	4169      	adcs	r1, r5
1000314c:	bcb0      	pop	{r4, r5, r7}
1000314e:	4770      	bx	lr
10003150:	d0000000 	.word	0xd0000000

10003154 <y64_x32>:
10003154:	b5f0      	push	{r4, r5, r6, r7, lr}
10003156:	4694      	mov	ip, r2
10003158:	2500      	movs	r5, #0
1000315a:	0e14      	lsrs	r4, r2, #24
1000315c:	d101      	bne.n	10003162 <y64_x32+0xe>
1000315e:	0212      	lsls	r2, r2, #8
10003160:	3508      	adds	r5, #8
10003162:	0f14      	lsrs	r4, r2, #28
10003164:	d101      	bne.n	1000316a <y64_x32+0x16>
10003166:	0112      	lsls	r2, r2, #4
10003168:	3504      	adds	r5, #4
1000316a:	0f94      	lsrs	r4, r2, #30
1000316c:	d101      	bne.n	10003172 <y64_x32+0x1e>
1000316e:	0092      	lsls	r2, r2, #2
10003170:	3502      	adds	r5, #2
10003172:	0fd4      	lsrs	r4, r2, #31
10003174:	d101      	bne.n	1000317a <y64_x32+0x26>
10003176:	0052      	lsls	r2, r2, #1
10003178:	3501      	adds	r5, #1
1000317a:	0bd4      	lsrs	r4, r2, #15
1000317c:	3401      	adds	r4, #1
1000317e:	4f25      	ldr	r7, [pc, #148]	; (10003214 <y64_x32+0xc0>)
10003180:	667c      	str	r4, [r7, #100]	; 0x64
10003182:	4c25      	ldr	r4, [pc, #148]	; (10003218 <y64_x32+0xc4>)
10003184:	663c      	str	r4, [r7, #96]	; 0x60
10003186:	0c0e      	lsrs	r6, r1, #16
10003188:	b293      	uxth	r3, r2
1000318a:	e7ff      	b.n	1000318c <y64_x32+0x38>
1000318c:	e7ff      	b.n	1000318e <y64_x32+0x3a>
1000318e:	e7ff      	b.n	10003190 <y64_x32+0x3c>
10003190:	6f3c      	ldr	r4, [r7, #112]	; 0x70
10003192:	4366      	muls	r6, r4
10003194:	0c36      	lsrs	r6, r6, #16
10003196:	0377      	lsls	r7, r6, #13
10003198:	46be      	mov	lr, r7
1000319a:	4373      	muls	r3, r6
1000319c:	0bdf      	lsrs	r7, r3, #15
1000319e:	045b      	lsls	r3, r3, #17
100031a0:	1ac0      	subs	r0, r0, r3
100031a2:	41b9      	sbcs	r1, r7
100031a4:	0c13      	lsrs	r3, r2, #16
100031a6:	4373      	muls	r3, r6
100031a8:	18db      	adds	r3, r3, r3
100031aa:	1ac9      	subs	r1, r1, r3
100031ac:	08ce      	lsrs	r6, r1, #3
100031ae:	4366      	muls	r6, r4
100031b0:	0c36      	lsrs	r6, r6, #16
100031b2:	44b6      	add	lr, r6
100031b4:	b293      	uxth	r3, r2
100031b6:	4373      	muls	r3, r6
100031b8:	0f1f      	lsrs	r7, r3, #28
100031ba:	011b      	lsls	r3, r3, #4
100031bc:	1ac0      	subs	r0, r0, r3
100031be:	41b9      	sbcs	r1, r7
100031c0:	0c13      	lsrs	r3, r2, #16
100031c2:	4373      	muls	r3, r6
100031c4:	0b1f      	lsrs	r7, r3, #12
100031c6:	051b      	lsls	r3, r3, #20
100031c8:	1ac0      	subs	r0, r0, r3
100031ca:	41b9      	sbcs	r1, r7
100031cc:	0d86      	lsrs	r6, r0, #22
100031ce:	028f      	lsls	r7, r1, #10
100031d0:	433e      	orrs	r6, r7
100031d2:	4366      	muls	r6, r4
100031d4:	0c36      	lsrs	r6, r6, #16
100031d6:	2d09      	cmp	r5, #9
100031d8:	db24      	blt.n	10003224 <last0>
100031da:	0a52      	lsrs	r2, r2, #9
100031dc:	4372      	muls	r2, r6
100031de:	1a80      	subs	r0, r0, r2
100031e0:	0377      	lsls	r7, r6, #13
100031e2:	0a46      	lsrs	r6, r0, #9
100031e4:	4366      	muls	r6, r4
100031e6:	0c36      	lsrs	r6, r6, #16
100031e8:	2316      	movs	r3, #22
100031ea:	1b5b      	subs	r3, r3, r5
100031ec:	40de      	lsrs	r6, r3
100031ee:	40df      	lsrs	r7, r3
100031f0:	19bf      	adds	r7, r7, r6
100031f2:	4664      	mov	r4, ip
100031f4:	4366      	muls	r6, r4
100031f6:	1b82      	subs	r2, r0, r6
100031f8:	4670      	mov	r0, lr
100031fa:	3504      	adds	r5, #4
100031fc:	3306      	adds	r3, #6
100031fe:	0001      	movs	r1, r0
10003200:	40d9      	lsrs	r1, r3
10003202:	40a8      	lsls	r0, r5
10003204:	19c0      	adds	r0, r0, r7
10003206:	d300      	bcc.n	1000320a <y64_x32+0xb6>
10003208:	3101      	adds	r1, #1
1000320a:	42a2      	cmp	r2, r4
1000320c:	d206      	bcs.n	1000321c <y64_x32+0xc8>
1000320e:	2300      	movs	r3, #0
10003210:	bdf0      	pop	{r4, r5, r6, r7, pc}
10003212:	0000      	.short	0x0000
10003214:	d0000000 	.word	0xd0000000
10003218:	ffffffff 	.word	0xffffffff
1000321c:	1b12      	subs	r2, r2, r4
1000321e:	3001      	adds	r0, #1
10003220:	d3f3      	bcc.n	1000320a <y64_x32+0xb6>
10003222:	e7f1      	b.n	10003208 <y64_x32+0xb4>

10003224 <last0>:
10003224:	2709      	movs	r7, #9
10003226:	1b7f      	subs	r7, r7, r5
10003228:	40fe      	lsrs	r6, r7
1000322a:	4664      	mov	r4, ip
1000322c:	b2a2      	uxth	r2, r4
1000322e:	4372      	muls	r2, r6
10003230:	1a80      	subs	r0, r0, r2
10003232:	d200      	bcs.n	10003236 <last0+0x12>
10003234:	3901      	subs	r1, #1
10003236:	0c22      	lsrs	r2, r4, #16
10003238:	4372      	muls	r2, r6
1000323a:	0c13      	lsrs	r3, r2, #16
1000323c:	0412      	lsls	r2, r2, #16
1000323e:	1a82      	subs	r2, r0, r2
10003240:	4199      	sbcs	r1, r3
10003242:	000b      	movs	r3, r1
10003244:	4670      	mov	r0, lr
10003246:	3504      	adds	r5, #4
10003248:	3713      	adds	r7, #19
1000324a:	0001      	movs	r1, r0
1000324c:	40f9      	lsrs	r1, r7
1000324e:	40a8      	lsls	r0, r5
10003250:	1980      	adds	r0, r0, r6
10003252:	d300      	bcc.n	10003256 <last0+0x32>
10003254:	3101      	adds	r1, #1
10003256:	2b00      	cmp	r3, #0
10003258:	d102      	bne.n	10003260 <last0+0x3c>
1000325a:	42a2      	cmp	r2, r4
1000325c:	d20a      	bcs.n	10003274 <last0+0x50>
1000325e:	bdf0      	pop	{r4, r5, r6, r7, pc}
10003260:	3001      	adds	r0, #1
10003262:	d300      	bcc.n	10003266 <last0+0x42>
10003264:	3101      	adds	r1, #1
10003266:	1b12      	subs	r2, r2, r4
10003268:	d2fa      	bcs.n	10003260 <last0+0x3c>
1000326a:	3b01      	subs	r3, #1
1000326c:	d1f8      	bne.n	10003260 <last0+0x3c>
1000326e:	42a2      	cmp	r2, r4
10003270:	d200      	bcs.n	10003274 <last0+0x50>
10003272:	bdf0      	pop	{r4, r5, r6, r7, pc}
10003274:	3001      	adds	r0, #1
10003276:	d300      	bcc.n	1000327a <last0+0x56>
10003278:	3101      	adds	r1, #1
1000327a:	1b12      	subs	r2, r2, r4
1000327c:	e7f7      	b.n	1000326e <last0+0x4a>

1000327e <y64_x48>:
1000327e:	b5f0      	push	{r4, r5, r6, r7, lr}
10003280:	0c1c      	lsrs	r4, r3, #16
10003282:	d000      	beq.n	10003286 <y64_x48+0x8>
10003284:	e080      	b.n	10003388 <y64_x64>
10003286:	b40c      	push	{r2, r3}
10003288:	2500      	movs	r5, #0
1000328a:	0a1c      	lsrs	r4, r3, #8
1000328c:	d104      	bne.n	10003298 <y64_x48+0x1a>
1000328e:	021b      	lsls	r3, r3, #8
10003290:	0e16      	lsrs	r6, r2, #24
10003292:	4333      	orrs	r3, r6
10003294:	0212      	lsls	r2, r2, #8
10003296:	3508      	adds	r5, #8
10003298:	0b1c      	lsrs	r4, r3, #12
1000329a:	d104      	bne.n	100032a6 <y64_x48+0x28>
1000329c:	011b      	lsls	r3, r3, #4
1000329e:	0f16      	lsrs	r6, r2, #28
100032a0:	4333      	orrs	r3, r6
100032a2:	0112      	lsls	r2, r2, #4
100032a4:	3504      	adds	r5, #4
100032a6:	0b9c      	lsrs	r4, r3, #14
100032a8:	d104      	bne.n	100032b4 <y64_x48+0x36>
100032aa:	009b      	lsls	r3, r3, #2
100032ac:	0f96      	lsrs	r6, r2, #30
100032ae:	4333      	orrs	r3, r6
100032b0:	0092      	lsls	r2, r2, #2
100032b2:	3502      	adds	r5, #2
100032b4:	0bdc      	lsrs	r4, r3, #15
100032b6:	d102      	bne.n	100032be <y64_x48+0x40>
100032b8:	1892      	adds	r2, r2, r2
100032ba:	415b      	adcs	r3, r3
100032bc:	3501      	adds	r5, #1
100032be:	001c      	movs	r4, r3
100032c0:	1897      	adds	r7, r2, r2
100032c2:	4164      	adcs	r4, r4
100032c4:	3401      	adds	r4, #1
100032c6:	4f46      	ldr	r7, [pc, #280]	; (100033e0 <y64_x64+0x58>)
100032c8:	667c      	str	r4, [r7, #100]	; 0x64
100032ca:	4c46      	ldr	r4, [pc, #280]	; (100033e4 <y64_x64+0x5c>)
100032cc:	663c      	str	r4, [r7, #96]	; 0x60
100032ce:	0c0e      	lsrs	r6, r1, #16
100032d0:	e7ff      	b.n	100032d2 <y64_x48+0x54>
100032d2:	e7ff      	b.n	100032d4 <y64_x48+0x56>
100032d4:	e7ff      	b.n	100032d6 <y64_x48+0x58>
100032d6:	46c0      	nop			; (mov r8, r8)
100032d8:	6f3c      	ldr	r4, [r7, #112]	; 0x70
100032da:	4366      	muls	r6, r4
100032dc:	0c36      	lsrs	r6, r6, #16
100032de:	0377      	lsls	r7, r6, #13
100032e0:	46be      	mov	lr, r7
100032e2:	b297      	uxth	r7, r2
100032e4:	4377      	muls	r7, r6
100032e6:	1bc0      	subs	r0, r0, r7
100032e8:	d200      	bcs.n	100032ec <y64_x48+0x6e>
100032ea:	3901      	subs	r1, #1
100032ec:	1bc0      	subs	r0, r0, r7
100032ee:	d200      	bcs.n	100032f2 <y64_x48+0x74>
100032f0:	3901      	subs	r1, #1
100032f2:	b29f      	uxth	r7, r3
100032f4:	4377      	muls	r7, r6
100032f6:	1bc9      	subs	r1, r1, r7
100032f8:	1bc9      	subs	r1, r1, r7
100032fa:	0c17      	lsrs	r7, r2, #16
100032fc:	4377      	muls	r7, r6
100032fe:	047e      	lsls	r6, r7, #17
10003300:	0bff      	lsrs	r7, r7, #15
10003302:	1b80      	subs	r0, r0, r6
10003304:	41b9      	sbcs	r1, r7
10003306:	08ce      	lsrs	r6, r1, #3
10003308:	4366      	muls	r6, r4
1000330a:	0c36      	lsrs	r6, r6, #16
1000330c:	2d0c      	cmp	r5, #12
1000330e:	db33      	blt.n	10003378 <last1>
10003310:	44b6      	add	lr, r6
10003312:	0b12      	lsrs	r2, r2, #12
10003314:	051f      	lsls	r7, r3, #20
10003316:	433a      	orrs	r2, r7
10003318:	0b1b      	lsrs	r3, r3, #12
1000331a:	b297      	uxth	r7, r2
1000331c:	4377      	muls	r7, r6
1000331e:	1bc0      	subs	r0, r0, r7
10003320:	d200      	bcs.n	10003324 <y64_x48+0xa6>
10003322:	3901      	subs	r1, #1
10003324:	b29f      	uxth	r7, r3
10003326:	4377      	muls	r7, r6
10003328:	1bc9      	subs	r1, r1, r7
1000332a:	0c17      	lsrs	r7, r2, #16
1000332c:	4377      	muls	r7, r6
1000332e:	043e      	lsls	r6, r7, #16
10003330:	0c3f      	lsrs	r7, r7, #16
10003332:	1b80      	subs	r0, r0, r6
10003334:	41b9      	sbcs	r1, r7
10003336:	0d86      	lsrs	r6, r0, #22
10003338:	028f      	lsls	r7, r1, #10
1000333a:	433e      	orrs	r6, r7
1000333c:	4366      	muls	r6, r4
1000333e:	2729      	movs	r7, #41	; 0x29
10003340:	1b7f      	subs	r7, r7, r5
10003342:	40fe      	lsrs	r6, r7
10003344:	3d0c      	subs	r5, #12
10003346:	4677      	mov	r7, lr
10003348:	40af      	lsls	r7, r5
1000334a:	19bf      	adds	r7, r7, r6
1000334c:	bc30      	pop	{r4, r5}
1000334e:	b2a2      	uxth	r2, r4
10003350:	b2ab      	uxth	r3, r5
10003352:	4372      	muls	r2, r6
10003354:	4373      	muls	r3, r6
10003356:	1a80      	subs	r0, r0, r2
10003358:	4199      	sbcs	r1, r3
1000335a:	0c22      	lsrs	r2, r4, #16
1000335c:	4372      	muls	r2, r6
1000335e:	0c13      	lsrs	r3, r2, #16
10003360:	0412      	lsls	r2, r2, #16
10003362:	1a80      	subs	r0, r0, r2
10003364:	4199      	sbcs	r1, r3
10003366:	0002      	movs	r2, r0
10003368:	000b      	movs	r3, r1
1000336a:	3701      	adds	r7, #1
1000336c:	1b00      	subs	r0, r0, r4
1000336e:	41a9      	sbcs	r1, r5
10003370:	d2f9      	bcs.n	10003366 <y64_x48+0xe8>
10003372:	1e78      	subs	r0, r7, #1
10003374:	2100      	movs	r1, #0
10003376:	bdf0      	pop	{r4, r5, r6, r7, pc}

10003378 <last1>:
10003378:	270c      	movs	r7, #12
1000337a:	1b7f      	subs	r7, r7, r5
1000337c:	40fe      	lsrs	r6, r7
1000337e:	4677      	mov	r7, lr
10003380:	0b7f      	lsrs	r7, r7, #13
10003382:	40af      	lsls	r7, r5
10003384:	19ff      	adds	r7, r7, r7
10003386:	e7e0      	b.n	1000334a <y64_x48+0xcc>

10003388 <y64_x64>:
10003388:	2400      	movs	r4, #0
1000338a:	1c5d      	adds	r5, r3, #1
1000338c:	d007      	beq.n	1000339e <y64_x64+0x16>
1000338e:	4f14      	ldr	r7, [pc, #80]	; (100033e0 <y64_x64+0x58>)
10003390:	667d      	str	r5, [r7, #100]	; 0x64
10003392:	6639      	str	r1, [r7, #96]	; 0x60
10003394:	e7ff      	b.n	10003396 <y64_x64+0xe>
10003396:	e7ff      	b.n	10003398 <y64_x64+0x10>
10003398:	e7ff      	b.n	1000339a <y64_x64+0x12>
1000339a:	e7ff      	b.n	1000339c <y64_x64+0x14>
1000339c:	6f3c      	ldr	r4, [r7, #112]	; 0x70
1000339e:	b295      	uxth	r5, r2
100033a0:	b29e      	uxth	r6, r3
100033a2:	4365      	muls	r5, r4
100033a4:	4366      	muls	r6, r4
100033a6:	1b40      	subs	r0, r0, r5
100033a8:	41b1      	sbcs	r1, r6
100033aa:	0c15      	lsrs	r5, r2, #16
100033ac:	0c1e      	lsrs	r6, r3, #16
100033ae:	4365      	muls	r5, r4
100033b0:	4366      	muls	r6, r4
100033b2:	0436      	lsls	r6, r6, #16
100033b4:	0c2f      	lsrs	r7, r5, #16
100033b6:	433e      	orrs	r6, r7
100033b8:	042d      	lsls	r5, r5, #16
100033ba:	1b40      	subs	r0, r0, r5
100033bc:	41b1      	sbcs	r1, r6
100033be:	4299      	cmp	r1, r3
100033c0:	d204      	bcs.n	100033cc <y64_x64+0x44>
100033c2:	0002      	movs	r2, r0
100033c4:	000b      	movs	r3, r1
100033c6:	0020      	movs	r0, r4
100033c8:	2100      	movs	r1, #0
100033ca:	bdf0      	pop	{r4, r5, r6, r7, pc}
100033cc:	d101      	bne.n	100033d2 <y64_x64+0x4a>
100033ce:	4290      	cmp	r0, r2
100033d0:	d3f7      	bcc.n	100033c2 <y64_x64+0x3a>
100033d2:	1a80      	subs	r0, r0, r2
100033d4:	4199      	sbcs	r1, r3
100033d6:	3401      	adds	r4, #1
100033d8:	4299      	cmp	r1, r3
100033da:	d3f2      	bcc.n	100033c2 <y64_x64+0x3a>
100033dc:	e7f6      	b.n	100033cc <y64_x64+0x44>
100033de:	0000      	.short	0x0000
100033e0:	d0000000 	.word	0xd0000000
100033e4:	ffffffff 	.word	0xffffffff

100033e8 <__wrap___aeabi_drsub>:
100033e8:	4048      	eors	r0, r1
100033ea:	4041      	eors	r1, r0
100033ec:	4048      	eors	r0, r1

100033ee <__wrap___aeabi_dsub>:
100033ee:	b418      	push	{r3, r4}
100033f0:	4b11      	ldr	r3, [pc, #68]	; (10003438 <__wrap___aeabi_dmul+0x14>)
100033f2:	685b      	ldr	r3, [r3, #4]
100033f4:	46fc      	mov	ip, pc
100033f6:	9301      	str	r3, [sp, #4]
100033f8:	bd08      	pop	{r3, pc}
100033fa:	df04      	.short	0xdf04
100033fc:	10003673 	.word	0x10003673

10003400 <__wrap___aeabi_dadd>:
10003400:	b418      	push	{r3, r4}
10003402:	4b0d      	ldr	r3, [pc, #52]	; (10003438 <__wrap___aeabi_dmul+0x14>)
10003404:	681b      	ldr	r3, [r3, #0]
10003406:	46fc      	mov	ip, pc
10003408:	9301      	str	r3, [sp, #4]
1000340a:	bd08      	pop	{r3, pc}
1000340c:	367ddf00 	.word	0x367ddf00
10003410:	1000      	.short	0x1000

10003412 <__wrap___aeabi_ddiv>:
10003412:	b418      	push	{r3, r4}
10003414:	4b08      	ldr	r3, [pc, #32]	; (10003438 <__wrap___aeabi_dmul+0x14>)
10003416:	68db      	ldr	r3, [r3, #12]
10003418:	46fc      	mov	ip, pc
1000341a:	9301      	str	r3, [sp, #4]
1000341c:	bd08      	pop	{r3, pc}
1000341e:	df0c      	.short	0xdf0c
10003420:	10003935 	.word	0x10003935

10003424 <__wrap___aeabi_dmul>:
10003424:	b418      	push	{r3, r4}
10003426:	4b04      	ldr	r3, [pc, #16]	; (10003438 <__wrap___aeabi_dmul+0x14>)
10003428:	689b      	ldr	r3, [r3, #8]
1000342a:	46fc      	mov	ip, pc
1000342c:	9301      	str	r3, [sp, #4]
1000342e:	bd08      	pop	{r3, pc}
10003430:	37d9df08 	.word	0x37d9df08
10003434:	00001000 	.word	0x00001000
10003438:	20000d70 	.word	0x20000d70

1000343c <__wrap___aeabi_cdrcmple>:
1000343c:	b5ff      	push	{r0, r1, r2, r3, r4, r5, r6, r7, lr}
1000343e:	4050      	eors	r0, r2
10003440:	4042      	eors	r2, r0
10003442:	4050      	eors	r0, r2
10003444:	4059      	eors	r1, r3
10003446:	404b      	eors	r3, r1
10003448:	4059      	eors	r1, r3
1000344a:	e000      	b.n	1000344e <__aeabi_dfcmple_guts>

1000344c <__wrap___aeabi_cdcmpeq>:
1000344c:	b5ff      	push	{r0, r1, r2, r3, r4, r5, r6, r7, lr}

1000344e <__aeabi_dfcmple_guts>:
1000344e:	4f15      	ldr	r7, [pc, #84]	; (100034a4 <__aeabi_dfcmple_guts+0x56>)
10003450:	004c      	lsls	r4, r1, #1
10003452:	0d64      	lsrs	r4, r4, #21
10003454:	d003      	beq.n	1000345e <__aeabi_dfcmple_guts+0x10>
10003456:	42bc      	cmp	r4, r7
10003458:	d104      	bne.n	10003464 <__aeabi_dfcmple_guts+0x16>
1000345a:	030c      	lsls	r4, r1, #12
1000345c:	d814      	bhi.n	10003488 <__aeabi_dfcmple_guts+0x3a>
1000345e:	2000      	movs	r0, #0
10003460:	0d09      	lsrs	r1, r1, #20
10003462:	0509      	lsls	r1, r1, #20
10003464:	005c      	lsls	r4, r3, #1
10003466:	0d64      	lsrs	r4, r4, #21
10003468:	d003      	beq.n	10003472 <__aeabi_dfcmple_guts+0x24>
1000346a:	42bc      	cmp	r4, r7
1000346c:	d104      	bne.n	10003478 <__aeabi_dfcmple_guts+0x2a>
1000346e:	031c      	lsls	r4, r3, #12
10003470:	d80a      	bhi.n	10003488 <__aeabi_dfcmple_guts+0x3a>
10003472:	2200      	movs	r2, #0
10003474:	0d1b      	lsrs	r3, r3, #20
10003476:	051b      	lsls	r3, r3, #20
10003478:	2601      	movs	r6, #1
1000347a:	404b      	eors	r3, r1
1000347c:	d409      	bmi.n	10003492 <__aeabi_dfcmple_guts+0x44>
1000347e:	404b      	eors	r3, r1
10003480:	d503      	bpl.n	1000348a <__aeabi_dfcmple_guts+0x3c>
10003482:	428b      	cmp	r3, r1
10003484:	d100      	bne.n	10003488 <__aeabi_dfcmple_guts+0x3a>
10003486:	4282      	cmp	r2, r0
10003488:	bdff      	pop	{r0, r1, r2, r3, r4, r5, r6, r7, pc}
1000348a:	4299      	cmp	r1, r3
1000348c:	d1fc      	bne.n	10003488 <__aeabi_dfcmple_guts+0x3a>
1000348e:	4290      	cmp	r0, r2
10003490:	bdff      	pop	{r0, r1, r2, r3, r4, r5, r6, r7, pc}
10003492:	430b      	orrs	r3, r1
10003494:	18db      	adds	r3, r3, r3
10003496:	4303      	orrs	r3, r0
10003498:	4313      	orrs	r3, r2
1000349a:	d0f5      	beq.n	10003488 <__aeabi_dfcmple_guts+0x3a>
1000349c:	43c9      	mvns	r1, r1
1000349e:	1849      	adds	r1, r1, r1
100034a0:	bdff      	pop	{r0, r1, r2, r3, r4, r5, r6, r7, pc}
100034a2:	0000      	.short	0x0000
100034a4:	000007ff 	.word	0x000007ff

100034a8 <__wrap___aeabi_dcmplt>:
100034a8:	b500      	push	{lr}
100034aa:	f7ff ffcf 	bl	1000344c <__wrap___aeabi_cdcmpeq>
100034ae:	4180      	sbcs	r0, r0
100034b0:	bd00      	pop	{pc}
100034b2:	46c0      	nop			; (mov r8, r8)

100034b4 <__wrap___aeabi_dcmple>:
100034b4:	b500      	push	{lr}
100034b6:	f7ff ffc9 	bl	1000344c <__wrap___aeabi_cdcmpeq>
100034ba:	d901      	bls.n	100034c0 <__wrap___aeabi_dcmple+0xc>
100034bc:	2000      	movs	r0, #0
100034be:	bd00      	pop	{pc}
100034c0:	2001      	movs	r0, #1
100034c2:	bd00      	pop	{pc}

100034c4 <__wrap___aeabi_dcmpge>:
100034c4:	b500      	push	{lr}
100034c6:	f7ff ffb9 	bl	1000343c <__wrap___aeabi_cdrcmple>
100034ca:	d901      	bls.n	100034d0 <__wrap___aeabi_dcmpge+0xc>
100034cc:	2000      	movs	r0, #0
100034ce:	bd00      	pop	{pc}
100034d0:	2001      	movs	r0, #1
100034d2:	bd00      	pop	{pc}

100034d4 <__wrap___aeabi_dcmpgt>:
100034d4:	b500      	push	{lr}
100034d6:	f7ff ffb1 	bl	1000343c <__wrap___aeabi_cdrcmple>
100034da:	4180      	sbcs	r0, r0
100034dc:	bd00      	pop	{pc}

100034de <__wrap___aeabi_dcmpun>:
100034de:	2001      	movs	r0, #1
100034e0:	0540      	lsls	r0, r0, #21
100034e2:	004a      	lsls	r2, r1, #1
100034e4:	1812      	adds	r2, r2, r0
100034e6:	d804      	bhi.n	100034f2 <__wrap___aeabi_dcmpun+0x14>
100034e8:	005a      	lsls	r2, r3, #1
100034ea:	1812      	adds	r2, r2, r0
100034ec:	d801      	bhi.n	100034f2 <__wrap___aeabi_dcmpun+0x14>
100034ee:	2000      	movs	r0, #0
100034f0:	4770      	bx	lr
100034f2:	2001      	movs	r0, #1
100034f4:	4770      	bx	lr
100034f6:	2000      	movs	r0, #0
100034f8:	4770      	bx	lr
	...

100034fc <__wrap___aeabi_ui2d>:
100034fc:	2100      	movs	r1, #0
100034fe:	2800      	cmp	r0, #0
10003500:	d105      	bne.n	1000350e <__wrap___aeabi_i2d+0xa>
10003502:	4770      	bx	lr

10003504 <__wrap___aeabi_i2d>:
10003504:	17c1      	asrs	r1, r0, #31
10003506:	4048      	eors	r0, r1
10003508:	1a40      	subs	r0, r0, r1
1000350a:	d0fa      	beq.n	10003502 <__wrap___aeabi_ui2d+0x6>
1000350c:	07c9      	lsls	r1, r1, #31
1000350e:	b513      	push	{r0, r1, r4, lr}
10003510:	4b06      	ldr	r3, [pc, #24]	; (1000352c <__wrap___aeabi_i2d+0x28>)
10003512:	681b      	ldr	r3, [r3, #0]
10003514:	4798      	blx	r3
10003516:	bc0c      	pop	{r2, r3}
10003518:	1c44      	adds	r4, r0, #1
1000351a:	40a2      	lsls	r2, r4
1000351c:	0510      	lsls	r0, r2, #20
1000351e:	0b12      	lsrs	r2, r2, #12
10003520:	4903      	ldr	r1, [pc, #12]	; (10003530 <__wrap___aeabi_i2d+0x2c>)
10003522:	1b09      	subs	r1, r1, r4
10003524:	0509      	lsls	r1, r1, #20
10003526:	4319      	orrs	r1, r3
10003528:	4311      	orrs	r1, r2
1000352a:	bd10      	pop	{r4, pc}
1000352c:	20000f70 	.word	0x20000f70
10003530:	0000041f 	.word	0x0000041f

10003534 <__wrap___aeabi_d2iz>:
10003534:	b510      	push	{r4, lr}
10003536:	004c      	lsls	r4, r1, #1
10003538:	0d62      	lsrs	r2, r4, #21
1000353a:	2380      	movs	r3, #128	; 0x80
1000353c:	18d2      	adds	r2, r2, r3
1000353e:	00db      	lsls	r3, r3, #3
10003540:	1ad2      	subs	r2, r2, r3
10003542:	055b      	lsls	r3, r3, #21
10003544:	2a7e      	cmp	r2, #126	; 0x7e
10003546:	dd10      	ble.n	1000356a <__wrap___aeabi_d2iz+0x36>
10003548:	3a9e      	subs	r2, #158	; 0x9e
1000354a:	da13      	bge.n	10003574 <__wrap___aeabi_d2iz+0x40>
1000354c:	17cc      	asrs	r4, r1, #31
1000354e:	0309      	lsls	r1, r1, #12
10003550:	0849      	lsrs	r1, r1, #1
10003552:	4319      	orrs	r1, r3
10003554:	4252      	negs	r2, r2
10003556:	40d1      	lsrs	r1, r2
10003558:	0064      	lsls	r4, r4, #1
1000355a:	3401      	adds	r4, #1
1000355c:	3215      	adds	r2, #21
1000355e:	2a20      	cmp	r2, #32
10003560:	da05      	bge.n	1000356e <__wrap___aeabi_d2iz+0x3a>
10003562:	40d0      	lsrs	r0, r2
10003564:	4308      	orrs	r0, r1
10003566:	4360      	muls	r0, r4
10003568:	bd10      	pop	{r4, pc}
1000356a:	2000      	movs	r0, #0
1000356c:	bd10      	pop	{r4, pc}
1000356e:	4608      	mov	r0, r1
10003570:	4360      	muls	r0, r4
10003572:	bd10      	pop	{r4, pc}
10003574:	0fc8      	lsrs	r0, r1, #31
10003576:	18c0      	adds	r0, r0, r3
10003578:	3801      	subs	r0, #1
1000357a:	bd10      	pop	{r4, pc}

1000357c <__wrap___aeabi_d2uiz>:
1000357c:	b418      	push	{r3, r4}
1000357e:	4b04      	ldr	r3, [pc, #16]	; (10003590 <__wrap___aeabi_d2uiz+0x14>)
10003580:	6a5b      	ldr	r3, [r3, #36]	; 0x24
10003582:	46fc      	mov	ip, pc
10003584:	9301      	str	r3, [sp, #4]
10003586:	bd08      	pop	{r3, pc}
10003588:	3b61df24 	.word	0x3b61df24
1000358c:	00001000 	.word	0x00001000
10003590:	20000d70 	.word	0x20000d70

10003594 <__aeabi_double_init>:
10003594:	2313      	movs	r3, #19
10003596:	b570      	push	{r4, r5, r6, lr}
10003598:	781d      	ldrb	r5, [r3, #0]
1000359a:	2d01      	cmp	r5, #1
1000359c:	d010      	beq.n	100035c0 <__aeabi_double_init+0x2c>
1000359e:	dd0b      	ble.n	100035b8 <__aeabi_double_init+0x24>
100035a0:	4824      	ldr	r0, [pc, #144]	; (10003634 <__aeabi_double_init+0xa0>)
100035a2:	f7ff fc8d 	bl	10002ec0 <rom_data_lookup>
100035a6:	4c24      	ldr	r4, [pc, #144]	; (10003638 <__aeabi_double_init+0xa4>)
100035a8:	0001      	movs	r1, r0
100035aa:	2280      	movs	r2, #128	; 0x80
100035ac:	0020      	movs	r0, r4
100035ae:	f000 fbab 	bl	10003d08 <__wrap___aeabi_memcpy>
100035b2:	2d02      	cmp	r5, #2
100035b4:	d001      	beq.n	100035ba <__aeabi_double_init+0x26>
100035b6:	bd70      	pop	{r4, r5, r6, pc}
100035b8:	4c1f      	ldr	r4, [pc, #124]	; (10003638 <__aeabi_double_init+0xa4>)
100035ba:	4a20      	ldr	r2, [pc, #128]	; (1000363c <__aeabi_double_init+0xa8>)
100035bc:	64a2      	str	r2, [r4, #72]	; 0x48
100035be:	e7fa      	b.n	100035b6 <__aeabi_double_init+0x22>
100035c0:	002e      	movs	r6, r5
100035c2:	4c1d      	ldr	r4, [pc, #116]	; (10003638 <__aeabi_double_init+0xa4>)
100035c4:	4a1d      	ldr	r2, [pc, #116]	; (1000363c <__aeabi_double_init+0xa8>)
100035c6:	08a3      	lsrs	r3, r4, #2
100035c8:	425b      	negs	r3, r3
100035ca:	401e      	ands	r6, r3
100035cc:	421d      	tst	r5, r3
100035ce:	d02f      	beq.n	10003630 <__aeabi_double_init+0x9c>
100035d0:	0033      	movs	r3, r6
100035d2:	6022      	str	r2, [r4, #0]
100035d4:	2020      	movs	r0, #32
100035d6:	00b1      	lsls	r1, r6, #2
100035d8:	1861      	adds	r1, r4, r1
100035da:	1b80      	subs	r0, r0, r6
100035dc:	600a      	str	r2, [r1, #0]
100035de:	604a      	str	r2, [r1, #4]
100035e0:	608a      	str	r2, [r1, #8]
100035e2:	60ca      	str	r2, [r1, #12]
100035e4:	610a      	str	r2, [r1, #16]
100035e6:	614a      	str	r2, [r1, #20]
100035e8:	618a      	str	r2, [r1, #24]
100035ea:	61ca      	str	r2, [r1, #28]
100035ec:	620a      	str	r2, [r1, #32]
100035ee:	624a      	str	r2, [r1, #36]	; 0x24
100035f0:	628a      	str	r2, [r1, #40]	; 0x28
100035f2:	62ca      	str	r2, [r1, #44]	; 0x2c
100035f4:	630a      	str	r2, [r1, #48]	; 0x30
100035f6:	634a      	str	r2, [r1, #52]	; 0x34
100035f8:	638a      	str	r2, [r1, #56]	; 0x38
100035fa:	63ca      	str	r2, [r1, #60]	; 0x3c
100035fc:	640a      	str	r2, [r1, #64]	; 0x40
100035fe:	644a      	str	r2, [r1, #68]	; 0x44
10003600:	648a      	str	r2, [r1, #72]	; 0x48
10003602:	64ca      	str	r2, [r1, #76]	; 0x4c
10003604:	650a      	str	r2, [r1, #80]	; 0x50
10003606:	654a      	str	r2, [r1, #84]	; 0x54
10003608:	658a      	str	r2, [r1, #88]	; 0x58
1000360a:	65ca      	str	r2, [r1, #92]	; 0x5c
1000360c:	660a      	str	r2, [r1, #96]	; 0x60
1000360e:	664a      	str	r2, [r1, #100]	; 0x64
10003610:	668a      	str	r2, [r1, #104]	; 0x68
10003612:	66ca      	str	r2, [r1, #108]	; 0x6c
10003614:	670a      	str	r2, [r1, #112]	; 0x70
10003616:	674a      	str	r2, [r1, #116]	; 0x74
10003618:	0840      	lsrs	r0, r0, #1
1000361a:	2810      	cmp	r0, #16
1000361c:	d103      	bne.n	10003626 <__aeabi_double_init+0x92>
1000361e:	678a      	str	r2, [r1, #120]	; 0x78
10003620:	67ca      	str	r2, [r1, #124]	; 0x7c
10003622:	64a2      	str	r2, [r4, #72]	; 0x48
10003624:	e7c7      	b.n	100035b6 <__aeabi_double_init+0x22>
10003626:	331e      	adds	r3, #30
10003628:	009b      	lsls	r3, r3, #2
1000362a:	50e2      	str	r2, [r4, r3]
1000362c:	64a2      	str	r2, [r4, #72]	; 0x48
1000362e:	e7c2      	b.n	100035b6 <__aeabi_double_init+0x22>
10003630:	2300      	movs	r3, #0
10003632:	e7cf      	b.n	100035d4 <__aeabi_double_init+0x40>
10003634:	00004453 	.word	0x00004453
10003638:	20000d70 	.word	0x20000d70
1000363c:	10003641 	.word	0x10003641

10003640 <double_table_shim_on_use_helper>:
10003640:	b507      	push	{r0, r1, r2, lr}
10003642:	4660      	mov	r0, ip
10003644:	8801      	ldrh	r1, [r0, #0]
10003646:	0a0a      	lsrs	r2, r1, #8
10003648:	3002      	adds	r0, #2
1000364a:	2adf      	cmp	r2, #223	; 0xdf
1000364c:	d1fa      	bne.n	10003644 <double_table_shim_on_use_helper+0x4>
1000364e:	b2c9      	uxtb	r1, r1
10003650:	0882      	lsrs	r2, r0, #2
10003652:	d304      	bcc.n	1000365e <double_table_shim_on_use_helper+0x1e>
10003654:	8802      	ldrh	r2, [r0, #0]
10003656:	8840      	ldrh	r0, [r0, #2]
10003658:	0400      	lsls	r0, r0, #16
1000365a:	4310      	orrs	r0, r2
1000365c:	e000      	b.n	10003660 <double_table_shim_on_use_helper+0x20>
1000365e:	6800      	ldr	r0, [r0, #0]
10003660:	4a01      	ldr	r2, [pc, #4]	; (10003668 <double_table_shim_on_use_helper+0x28>)
10003662:	5050      	str	r0, [r2, r1]
10003664:	9003      	str	r0, [sp, #12]
10003666:	bd07      	pop	{r0, r1, r2, pc}
10003668:	20000d70 	.word	0x20000d70

1000366c <drsub_shim>:
1000366c:	b40f      	push	{r0, r1, r2, r3}
1000366e:	bc03      	pop	{r0, r1}
10003670:	bc0c      	pop	{r2, r3}

10003672 <dsub_shim>:
10003672:	b5f0      	push	{r4, r5, r6, r7, lr}
10003674:	2401      	movs	r4, #1
10003676:	07e4      	lsls	r4, r4, #31
10003678:	4063      	eors	r3, r4
1000367a:	e000      	b.n	1000367e <da_entry>

1000367c <dadd_shim>:
1000367c:	b5f0      	push	{r4, r5, r6, r7, lr}

1000367e <da_entry>:
1000367e:	0d0c      	lsrs	r4, r1, #20
10003680:	0fcf      	lsrs	r7, r1, #31
10003682:	1e66      	subs	r6, r4, #1
10003684:	0536      	lsls	r6, r6, #20
10003686:	1b89      	subs	r1, r1, r6
10003688:	0564      	lsls	r4, r4, #21
1000368a:	d303      	bcc.n	10003694 <l7_1>
1000368c:	43c9      	mvns	r1, r1
1000368e:	4240      	negs	r0, r0
10003690:	d300      	bcc.n	10003694 <l7_1>
10003692:	3101      	adds	r1, #1

10003694 <l7_1>:
10003694:	0d64      	lsrs	r4, r4, #21
10003696:	d003      	beq.n	100036a0 <l7_2>
10003698:	1c66      	adds	r6, r4, #1
1000369a:	0af6      	lsrs	r6, r6, #11
1000369c:	d007      	beq.n	100036ae <l7_3>
1000369e:	1be4      	subs	r4, r4, r7

100036a0 <l7_2>:
100036a0:	2000      	movs	r0, #0
100036a2:	007f      	lsls	r7, r7, #1
100036a4:	1c79      	adds	r1, r7, #1
100036a6:	0789      	lsls	r1, r1, #30
100036a8:	1289      	asrs	r1, r1, #10
100036aa:	3c80      	subs	r4, #128	; 0x80
100036ac:	0324      	lsls	r4, r4, #12

100036ae <l7_3>:
100036ae:	0d1d      	lsrs	r5, r3, #20
100036b0:	0fdf      	lsrs	r7, r3, #31
100036b2:	1e6e      	subs	r6, r5, #1
100036b4:	0536      	lsls	r6, r6, #20
100036b6:	1b9b      	subs	r3, r3, r6
100036b8:	056d      	lsls	r5, r5, #21
100036ba:	d303      	bcc.n	100036c4 <l8_1>
100036bc:	43db      	mvns	r3, r3
100036be:	4252      	negs	r2, r2
100036c0:	d300      	bcc.n	100036c4 <l8_1>
100036c2:	3301      	adds	r3, #1

100036c4 <l8_1>:
100036c4:	0d6d      	lsrs	r5, r5, #21
100036c6:	d003      	beq.n	100036d0 <l8_2>
100036c8:	1c6e      	adds	r6, r5, #1
100036ca:	0af6      	lsrs	r6, r6, #11
100036cc:	d007      	beq.n	100036de <l8_3>
100036ce:	1bed      	subs	r5, r5, r7

100036d0 <l8_2>:
100036d0:	2200      	movs	r2, #0
100036d2:	007f      	lsls	r7, r7, #1
100036d4:	1c7b      	adds	r3, r7, #1
100036d6:	079b      	lsls	r3, r3, #30
100036d8:	129b      	asrs	r3, r3, #10
100036da:	3d80      	subs	r5, #128	; 0x80
100036dc:	032d      	lsls	r5, r5, #12

100036de <l8_3>:
100036de:	1b2f      	subs	r7, r5, r4
100036e0:	1b66      	subs	r6, r4, r5
100036e2:	d458      	bmi.n	10003796 <da_ygtx>
100036e4:	46a4      	mov	ip, r4
100036e6:	2e20      	cmp	r6, #32
100036e8:	da46      	bge.n	10003778 <da_xrgty>
100036ea:	3720      	adds	r7, #32
100036ec:	0014      	movs	r4, r2
100036ee:	40bc      	lsls	r4, r7

100036f0 <da_xgty0>:
100036f0:	001d      	movs	r5, r3
100036f2:	40bd      	lsls	r5, r7
100036f4:	40f2      	lsrs	r2, r6
100036f6:	4133      	asrs	r3, r6
100036f8:	432a      	orrs	r2, r5

100036fa <da_add>:
100036fa:	1880      	adds	r0, r0, r2
100036fc:	4159      	adcs	r1, r3

100036fe <da_pack>:
100036fe:	0fcb      	lsrs	r3, r1, #31
10003700:	d005      	beq.n	1000370e <da_pack+0x10>
10003702:	43c9      	mvns	r1, r1
10003704:	43c0      	mvns	r0, r0
10003706:	2200      	movs	r2, #0
10003708:	4264      	negs	r4, r4
1000370a:	4150      	adcs	r0, r2
1000370c:	4151      	adcs	r1, r2
1000370e:	4662      	mov	r2, ip
10003710:	0d4d      	lsrs	r5, r1, #21
10003712:	d128      	bne.n	10003766 <da_0>
10003714:	0d0d      	lsrs	r5, r1, #20
10003716:	d107      	bne.n	10003728 <da_1>
10003718:	2800      	cmp	r0, #0
1000371a:	d01f      	beq.n	1000375c <da_5>

1000371c <da_2>:
1000371c:	1924      	adds	r4, r4, r4
1000371e:	4140      	adcs	r0, r0
10003720:	4149      	adcs	r1, r1
10003722:	3a01      	subs	r2, #1
10003724:	0d0d      	lsrs	r5, r1, #20
10003726:	d0f9      	beq.n	1000371c <da_2>

10003728 <da_1>:
10003728:	0064      	lsls	r4, r4, #1
1000372a:	d306      	bcc.n	1000373a <da_3>

1000372c <da_4>:
1000372c:	3001      	adds	r0, #1
1000372e:	d300      	bcc.n	10003732 <da_4+0x6>
10003730:	3101      	adds	r1, #1
10003732:	2c00      	cmp	r4, #0
10003734:	d101      	bne.n	1000373a <da_3>
10003736:	0840      	lsrs	r0, r0, #1
10003738:	0040      	lsls	r0, r0, #1

1000373a <da_3>:
1000373a:	3a01      	subs	r2, #1
1000373c:	d40b      	bmi.n	10003756 <da_6>
1000373e:	1c94      	adds	r4, r2, #2
10003740:	0ae4      	lsrs	r4, r4, #11
10003742:	d104      	bne.n	1000374e <da_7>
10003744:	0512      	lsls	r2, r2, #20
10003746:	4411      	add	r1, r2
10003748:	07db      	lsls	r3, r3, #31
1000374a:	4419      	add	r1, r3
1000374c:	bdf0      	pop	{r4, r5, r6, r7, pc}

1000374e <da_7>:
1000374e:	07d9      	lsls	r1, r3, #31
10003750:	4b20      	ldr	r3, [pc, #128]	; (100037d4 <da_xmgty+0x4>)
10003752:	4319      	orrs	r1, r3
10003754:	e000      	b.n	10003758 <da_6+0x2>

10003756 <da_6>:
10003756:	07d9      	lsls	r1, r3, #31
10003758:	2000      	movs	r0, #0
1000375a:	bdf0      	pop	{r4, r5, r6, r7, pc}

1000375c <da_5>:
1000375c:	2900      	cmp	r1, #0
1000375e:	d1dd      	bne.n	1000371c <da_2>
10003760:	2c00      	cmp	r4, #0
10003762:	d1db      	bne.n	1000371c <da_2>
10003764:	bdf0      	pop	{r4, r5, r6, r7, pc}

10003766 <da_0>:
10003766:	3201      	adds	r2, #1
10003768:	07c6      	lsls	r6, r0, #31
1000376a:	0840      	lsrs	r0, r0, #1
1000376c:	07cd      	lsls	r5, r1, #31
1000376e:	4328      	orrs	r0, r5
10003770:	0849      	lsrs	r1, r1, #1
10003772:	2e00      	cmp	r6, #0
10003774:	d0e1      	beq.n	1000373a <da_3>
10003776:	e7d9      	b.n	1000372c <da_4>

10003778 <da_xrgty>:
10003778:	2e3c      	cmp	r6, #60	; 0x3c
1000377a:	da29      	bge.n	100037d0 <da_xmgty>
1000377c:	3e20      	subs	r6, #32
1000377e:	3740      	adds	r7, #64	; 0x40
10003780:	0014      	movs	r4, r2
10003782:	40bc      	lsls	r4, r7
10003784:	d000      	beq.n	10003788 <da_xrgty+0x10>
10003786:	2401      	movs	r4, #1
10003788:	40f2      	lsrs	r2, r6
1000378a:	4314      	orrs	r4, r2
1000378c:	001a      	movs	r2, r3
1000378e:	40bb      	lsls	r3, r7
10003790:	431c      	orrs	r4, r3
10003792:	17d3      	asrs	r3, r2, #31
10003794:	e7ac      	b.n	100036f0 <da_xgty0>

10003796 <da_ygtx>:
10003796:	46ac      	mov	ip, r5
10003798:	2f20      	cmp	r7, #32
1000379a:	da08      	bge.n	100037ae <da_yrgtx>
1000379c:	3620      	adds	r6, #32
1000379e:	0004      	movs	r4, r0
100037a0:	40b4      	lsls	r4, r6

100037a2 <da_ygtx0>:
100037a2:	000d      	movs	r5, r1
100037a4:	40b5      	lsls	r5, r6
100037a6:	40f8      	lsrs	r0, r7
100037a8:	4139      	asrs	r1, r7
100037aa:	4328      	orrs	r0, r5
100037ac:	e7a5      	b.n	100036fa <da_add>

100037ae <da_yrgtx>:
100037ae:	2f3c      	cmp	r7, #60	; 0x3c
100037b0:	da0c      	bge.n	100037cc <da_ymgtx>
100037b2:	3f20      	subs	r7, #32
100037b4:	3640      	adds	r6, #64	; 0x40
100037b6:	0004      	movs	r4, r0
100037b8:	40b4      	lsls	r4, r6
100037ba:	d000      	beq.n	100037be <da_yrgtx+0x10>
100037bc:	2401      	movs	r4, #1
100037be:	40f8      	lsrs	r0, r7
100037c0:	4304      	orrs	r4, r0
100037c2:	0008      	movs	r0, r1
100037c4:	40b1      	lsls	r1, r6
100037c6:	430c      	orrs	r4, r1
100037c8:	17c1      	asrs	r1, r0, #31
100037ca:	e7ea      	b.n	100037a2 <da_ygtx0>

100037cc <da_ymgtx>:
100037cc:	0010      	movs	r0, r2
100037ce:	0019      	movs	r1, r3

100037d0 <da_xmgty>:
100037d0:	2400      	movs	r4, #0
100037d2:	e794      	b.n	100036fe <da_pack>
100037d4:	7ff00000 	.word	0x7ff00000

100037d8 <dmul_shim>:
100037d8:	b5f0      	push	{r4, r5, r6, r7, lr}
100037da:	0d0c      	lsrs	r4, r1, #20
100037dc:	1e66      	subs	r6, r4, #1
100037de:	0536      	lsls	r6, r6, #20
100037e0:	1b89      	subs	r1, r1, r6
100037e2:	0ae6      	lsrs	r6, r4, #11
100037e4:	0564      	lsls	r4, r4, #21
100037e6:	0d64      	lsrs	r4, r4, #21
100037e8:	d002      	beq.n	100037f0 <l11_1>
100037ea:	1c65      	adds	r5, r4, #1
100037ec:	0aed      	lsrs	r5, r5, #11
100037ee:	d004      	beq.n	100037fa <l11_2>

100037f0 <l11_1>:
100037f0:	2000      	movs	r0, #0
100037f2:	2101      	movs	r1, #1
100037f4:	0509      	lsls	r1, r1, #20
100037f6:	3c80      	subs	r4, #128	; 0x80
100037f8:	0324      	lsls	r4, r4, #12

100037fa <l11_2>:
100037fa:	46a4      	mov	ip, r4
100037fc:	0d1c      	lsrs	r4, r3, #20
100037fe:	1e67      	subs	r7, r4, #1
10003800:	053f      	lsls	r7, r7, #20
10003802:	1bdb      	subs	r3, r3, r7
10003804:	0ae7      	lsrs	r7, r4, #11
10003806:	0564      	lsls	r4, r4, #21
10003808:	0d64      	lsrs	r4, r4, #21
1000380a:	d002      	beq.n	10003812 <l12_1>
1000380c:	1c65      	adds	r5, r4, #1
1000380e:	0aed      	lsrs	r5, r5, #11
10003810:	d004      	beq.n	1000381c <l12_2>

10003812 <l12_1>:
10003812:	2200      	movs	r2, #0
10003814:	2301      	movs	r3, #1
10003816:	051b      	lsls	r3, r3, #20
10003818:	3c80      	subs	r4, #128	; 0x80
1000381a:	0324      	lsls	r4, r4, #12

1000381c <l12_2>:
1000381c:	4077      	eors	r7, r6
1000381e:	4464      	add	r4, ip
10003820:	b497      	push	{r0, r1, r2, r4, r7}
10003822:	b284      	uxth	r4, r0
10003824:	b296      	uxth	r6, r2
10003826:	4374      	muls	r4, r6
10003828:	0c07      	lsrs	r7, r0, #16
1000382a:	437e      	muls	r6, r7
1000382c:	0c15      	lsrs	r5, r2, #16
1000382e:	436f      	muls	r7, r5
10003830:	b280      	uxth	r0, r0
10003832:	4368      	muls	r0, r5
10003834:	1836      	adds	r6, r6, r0
10003836:	d302      	bcc.n	1000383e <l13_1>
10003838:	2001      	movs	r0, #1
1000383a:	0400      	lsls	r0, r0, #16
1000383c:	183f      	adds	r7, r7, r0

1000383e <l13_1>:
1000383e:	0430      	lsls	r0, r6, #16
10003840:	0c35      	lsrs	r5, r6, #16
10003842:	1900      	adds	r0, r0, r4
10003844:	417d      	adcs	r5, r7
10003846:	4684      	mov	ip, r0
10003848:	b288      	uxth	r0, r1
1000384a:	b29a      	uxth	r2, r3
1000384c:	4350      	muls	r0, r2
1000384e:	0c0c      	lsrs	r4, r1, #16
10003850:	4362      	muls	r2, r4
10003852:	0c1f      	lsrs	r7, r3, #16
10003854:	437c      	muls	r4, r7
10003856:	b28e      	uxth	r6, r1
10003858:	437e      	muls	r6, r7
1000385a:	1992      	adds	r2, r2, r6
1000385c:	d302      	bcc.n	10003864 <l14_1>
1000385e:	2601      	movs	r6, #1
10003860:	0436      	lsls	r6, r6, #16
10003862:	19a4      	adds	r4, r4, r6

10003864 <l14_1>:
10003864:	0416      	lsls	r6, r2, #16
10003866:	0c17      	lsrs	r7, r2, #16
10003868:	1836      	adds	r6, r6, r0
1000386a:	4167      	adcs	r7, r4
1000386c:	bc01      	pop	{r0}
1000386e:	b281      	uxth	r1, r0
10003870:	b29a      	uxth	r2, r3
10003872:	4351      	muls	r1, r2
10003874:	0c04      	lsrs	r4, r0, #16
10003876:	4362      	muls	r2, r4
10003878:	0c1b      	lsrs	r3, r3, #16
1000387a:	435c      	muls	r4, r3
1000387c:	b280      	uxth	r0, r0
1000387e:	4358      	muls	r0, r3
10003880:	1812      	adds	r2, r2, r0
10003882:	d302      	bcc.n	1000388a <l15_1>
10003884:	2001      	movs	r0, #1
10003886:	0400      	lsls	r0, r0, #16
10003888:	1824      	adds	r4, r4, r0

1000388a <l15_1>:
1000388a:	0410      	lsls	r0, r2, #16
1000388c:	0c13      	lsrs	r3, r2, #16
1000388e:	1840      	adds	r0, r0, r1
10003890:	4163      	adcs	r3, r4
10003892:	182d      	adds	r5, r5, r0
10003894:	415e      	adcs	r6, r3
10003896:	2000      	movs	r0, #0
10003898:	4147      	adcs	r7, r0
1000389a:	bc06      	pop	{r1, r2}
1000389c:	b288      	uxth	r0, r1
1000389e:	b293      	uxth	r3, r2
100038a0:	4358      	muls	r0, r3
100038a2:	0c0c      	lsrs	r4, r1, #16
100038a4:	4363      	muls	r3, r4
100038a6:	0c12      	lsrs	r2, r2, #16
100038a8:	4354      	muls	r4, r2
100038aa:	b289      	uxth	r1, r1
100038ac:	4351      	muls	r1, r2
100038ae:	185b      	adds	r3, r3, r1
100038b0:	d302      	bcc.n	100038b8 <l16_1>
100038b2:	2101      	movs	r1, #1
100038b4:	0409      	lsls	r1, r1, #16
100038b6:	1864      	adds	r4, r4, r1

100038b8 <l16_1>:
100038b8:	0419      	lsls	r1, r3, #16
100038ba:	0c1a      	lsrs	r2, r3, #16
100038bc:	1809      	adds	r1, r1, r0
100038be:	4162      	adcs	r2, r4
100038c0:	186d      	adds	r5, r5, r1
100038c2:	4156      	adcs	r6, r2
100038c4:	2000      	movs	r0, #0
100038c6:	4147      	adcs	r7, r0
100038c8:	bc18      	pop	{r3, r4}
100038ca:	02f9      	lsls	r1, r7, #11
100038cc:	0d72      	lsrs	r2, r6, #21
100038ce:	4311      	orrs	r1, r2
100038d0:	02f0      	lsls	r0, r6, #11
100038d2:	0d6a      	lsrs	r2, r5, #21
100038d4:	4310      	orrs	r0, r2
100038d6:	02ed      	lsls	r5, r5, #11
100038d8:	0d0a      	lsrs	r2, r1, #20
100038da:	d103      	bne.n	100038e4 <l16_1+0x2c>
100038dc:	196d      	adds	r5, r5, r5
100038de:	4140      	adcs	r0, r0
100038e0:	4149      	adcs	r1, r1
100038e2:	3b01      	subs	r3, #1
100038e4:	4e12      	ldr	r6, [pc, #72]	; (10003930 <dm_1+0xa>)
100038e6:	1b9b      	subs	r3, r3, r6
100038e8:	0076      	lsls	r6, r6, #1
100038ea:	42b3      	cmp	r3, r6
100038ec:	d20e      	bcs.n	1000390c <dm_0>
100038ee:	006d      	lsls	r5, r5, #1
100038f0:	d307      	bcc.n	10003902 <l16_1+0x4a>
100038f2:	3001      	adds	r0, #1
100038f4:	2600      	movs	r6, #0
100038f6:	4171      	adcs	r1, r6
100038f8:	4666      	mov	r6, ip
100038fa:	4335      	orrs	r5, r6
100038fc:	d101      	bne.n	10003902 <l16_1+0x4a>
100038fe:	0840      	lsrs	r0, r0, #1
10003900:	0040      	lsls	r0, r0, #1
10003902:	051b      	lsls	r3, r3, #20
10003904:	18c9      	adds	r1, r1, r3

10003906 <dm_2>:
10003906:	07e4      	lsls	r4, r4, #31
10003908:	4421      	add	r1, r4
1000390a:	bdf0      	pop	{r4, r5, r6, r7, pc}

1000390c <dm_0>:
1000390c:	da0b      	bge.n	10003926 <dm_1>
1000390e:	3301      	adds	r3, #1
10003910:	d106      	bne.n	10003920 <dm_0+0x14>
10003912:	3001      	adds	r0, #1
10003914:	d104      	bne.n	10003920 <dm_0+0x14>
10003916:	3101      	adds	r1, #1
10003918:	0d4f      	lsrs	r7, r1, #21
1000391a:	d001      	beq.n	10003920 <dm_0+0x14>
1000391c:	0849      	lsrs	r1, r1, #1
1000391e:	e7f2      	b.n	10003906 <dm_2>
10003920:	07e1      	lsls	r1, r4, #31
10003922:	2000      	movs	r0, #0
10003924:	bdf0      	pop	{r4, r5, r6, r7, pc}

10003926 <dm_1>:
10003926:	3601      	adds	r6, #1
10003928:	0531      	lsls	r1, r6, #20
1000392a:	2000      	movs	r0, #0
1000392c:	e7eb      	b.n	10003906 <dm_2>
1000392e:	0000      	.short	0x0000
10003930:	000003ff 	.word	0x000003ff

10003934 <ddiv_shim>:
10003934:	b5f0      	push	{r4, r5, r6, r7, lr}

10003936 <ddiv0>:
10003936:	0d1c      	lsrs	r4, r3, #20
10003938:	1e67      	subs	r7, r4, #1
1000393a:	053f      	lsls	r7, r7, #20
1000393c:	1bdb      	subs	r3, r3, r7
1000393e:	0ae7      	lsrs	r7, r4, #11
10003940:	0564      	lsls	r4, r4, #21
10003942:	0d64      	lsrs	r4, r4, #21
10003944:	d002      	beq.n	1000394c <l19_1>
10003946:	1c66      	adds	r6, r4, #1
10003948:	0af6      	lsrs	r6, r6, #11
1000394a:	d004      	beq.n	10003956 <l19_2>

1000394c <l19_1>:
1000394c:	2200      	movs	r2, #0
1000394e:	2301      	movs	r3, #1
10003950:	051b      	lsls	r3, r3, #20
10003952:	3c80      	subs	r4, #128	; 0x80
10003954:	0324      	lsls	r4, r4, #12

10003956 <l19_2>:
10003956:	25d0      	movs	r5, #208	; 0xd0
10003958:	062d      	lsls	r5, r5, #24
1000395a:	2600      	movs	r6, #0
1000395c:	43f6      	mvns	r6, r6
1000395e:	662e      	str	r6, [r5, #96]	; 0x60
10003960:	091e      	lsrs	r6, r3, #4
10003962:	666e      	str	r6, [r5, #100]	; 0x64
10003964:	0fce      	lsrs	r6, r1, #31
10003966:	19f6      	adds	r6, r6, r7
10003968:	46b4      	mov	ip, r6
1000396a:	0049      	lsls	r1, r1, #1
1000396c:	0d4f      	lsrs	r7, r1, #21
1000396e:	d002      	beq.n	10003976 <l19_2+0x20>
10003970:	1c7e      	adds	r6, r7, #1
10003972:	0af6      	lsrs	r6, r6, #11
10003974:	d003      	beq.n	1000397e <l19_2+0x28>
10003976:	2000      	movs	r0, #0
10003978:	2100      	movs	r1, #0
1000397a:	3f40      	subs	r7, #64	; 0x40
1000397c:	033f      	lsls	r7, r7, #12
1000397e:	1b3e      	subs	r6, r7, r4
10003980:	00b6      	lsls	r6, r6, #2
10003982:	44b4      	add	ip, r6
10003984:	3f01      	subs	r7, #1
10003986:	057f      	lsls	r7, r7, #21
10003988:	1bc9      	subs	r1, r1, r7
1000398a:	0849      	lsrs	r1, r1, #1
1000398c:	6f2e      	ldr	r6, [r5, #112]	; 0x70
1000398e:	3601      	adds	r6, #1
10003990:	0876      	lsrs	r6, r6, #1
10003992:	029c      	lsls	r4, r3, #10
10003994:	0d95      	lsrs	r5, r2, #22
10003996:	4325      	orrs	r5, r4
10003998:	4375      	muls	r5, r6
1000399a:	13ed      	asrs	r5, r5, #15
1000399c:	4375      	muls	r5, r6
1000399e:	13ad      	asrs	r5, r5, #14
100039a0:	3501      	adds	r5, #1
100039a2:	106d      	asrs	r5, r5, #1
100039a4:	03f6      	lsls	r6, r6, #15
100039a6:	1b76      	subs	r6, r6, r5
100039a8:	b40c      	push	{r2, r3}
100039aa:	02cc      	lsls	r4, r1, #11
100039ac:	0d45      	lsrs	r5, r0, #21
100039ae:	432c      	orrs	r4, r5
100039b0:	b2a2      	uxth	r2, r4
100039b2:	b2b3      	uxth	r3, r6
100039b4:	435a      	muls	r2, r3
100039b6:	0c27      	lsrs	r7, r4, #16
100039b8:	437b      	muls	r3, r7
100039ba:	0c35      	lsrs	r5, r6, #16
100039bc:	436f      	muls	r7, r5
100039be:	b2a4      	uxth	r4, r4
100039c0:	436c      	muls	r4, r5
100039c2:	191b      	adds	r3, r3, r4
100039c4:	d302      	bcc.n	100039cc <l20_1>
100039c6:	2401      	movs	r4, #1
100039c8:	0424      	lsls	r4, r4, #16
100039ca:	193f      	adds	r7, r7, r4

100039cc <l20_1>:
100039cc:	041c      	lsls	r4, r3, #16
100039ce:	0c1d      	lsrs	r5, r3, #16
100039d0:	18a4      	adds	r4, r4, r2
100039d2:	417d      	adcs	r5, r7
100039d4:	1924      	adds	r4, r4, r4
100039d6:	416d      	adcs	r5, r5
100039d8:	9a00      	ldr	r2, [sp, #0]
100039da:	b291      	uxth	r1, r2
100039dc:	b2ac      	uxth	r4, r5
100039de:	4361      	muls	r1, r4
100039e0:	0c17      	lsrs	r7, r2, #16
100039e2:	437c      	muls	r4, r7
100039e4:	0c2b      	lsrs	r3, r5, #16
100039e6:	435f      	muls	r7, r3
100039e8:	b292      	uxth	r2, r2
100039ea:	435a      	muls	r2, r3
100039ec:	18a4      	adds	r4, r4, r2
100039ee:	d302      	bcc.n	100039f6 <l21_1>
100039f0:	2201      	movs	r2, #1
100039f2:	0412      	lsls	r2, r2, #16
100039f4:	18bf      	adds	r7, r7, r2

100039f6 <l21_1>:
100039f6:	0422      	lsls	r2, r4, #16
100039f8:	0c23      	lsrs	r3, r4, #16
100039fa:	1852      	adds	r2, r2, r1
100039fc:	417b      	adcs	r3, r7
100039fe:	9c01      	ldr	r4, [sp, #4]
10003a00:	436c      	muls	r4, r5
10003a02:	191b      	adds	r3, r3, r4
10003a04:	0e52      	lsrs	r2, r2, #25
10003a06:	01d9      	lsls	r1, r3, #7
10003a08:	430a      	orrs	r2, r1
10003a0a:	0144      	lsls	r4, r0, #5
10003a0c:	1aa0      	subs	r0, r4, r2
10003a0e:	b281      	uxth	r1, r0
10003a10:	b2b2      	uxth	r2, r6
10003a12:	4351      	muls	r1, r2
10003a14:	1403      	asrs	r3, r0, #16
10003a16:	435a      	muls	r2, r3
10003a18:	0c36      	lsrs	r6, r6, #16
10003a1a:	4373      	muls	r3, r6
10003a1c:	b287      	uxth	r7, r0
10003a1e:	4377      	muls	r7, r6
10003a20:	17d6      	asrs	r6, r2, #31
10003a22:	19d2      	adds	r2, r2, r7
10003a24:	2700      	movs	r7, #0
10003a26:	417e      	adcs	r6, r7
10003a28:	0436      	lsls	r6, r6, #16
10003a2a:	199b      	adds	r3, r3, r6
10003a2c:	0417      	lsls	r7, r2, #16
10003a2e:	0c16      	lsrs	r6, r2, #16
10003a30:	187f      	adds	r7, r7, r1
10003a32:	415e      	adcs	r6, r3
10003a34:	1673      	asrs	r3, r6, #25
10003a36:	18ed      	adds	r5, r5, r3
10003a38:	01f3      	lsls	r3, r6, #7
10003a3a:	2600      	movs	r6, #0
10003a3c:	3380      	adds	r3, #128	; 0x80
10003a3e:	4175      	adcs	r5, r6
10003a40:	0fa9      	lsrs	r1, r5, #30
10003a42:	d106      	bne.n	10003a52 <dd_0>
10003a44:	0064      	lsls	r4, r4, #1
10003a46:	0a69      	lsrs	r1, r5, #9
10003a48:	05e8      	lsls	r0, r5, #23
10003a4a:	0a5b      	lsrs	r3, r3, #9
10003a4c:	4318      	orrs	r0, r3
10003a4e:	d209      	bcs.n	10003a64 <dd_1>
10003a50:	e02f      	b.n	10003ab2 <dd_2>

10003a52 <dd_0>:
10003a52:	2204      	movs	r2, #4
10003a54:	4494      	add	ip, r2
10003a56:	3380      	adds	r3, #128	; 0x80
10003a58:	4175      	adcs	r5, r6
10003a5a:	0aa9      	lsrs	r1, r5, #10
10003a5c:	05a8      	lsls	r0, r5, #22
10003a5e:	0a9b      	lsrs	r3, r3, #10
10003a60:	4318      	orrs	r0, r3
10003a62:	d326      	bcc.n	10003ab2 <dd_2>

10003a64 <dd_1>:
10003a64:	4140      	adcs	r0, r0
10003a66:	4149      	adcs	r1, r1
10003a68:	0424      	lsls	r4, r4, #16
10003a6a:	9a00      	ldr	r2, [sp, #0]
10003a6c:	9b01      	ldr	r3, [sp, #4]
10003a6e:	000d      	movs	r5, r1
10003a70:	4355      	muls	r5, r2
10003a72:	1b64      	subs	r4, r4, r5
10003a74:	4343      	muls	r3, r0
10003a76:	1ae4      	subs	r4, r4, r3
10003a78:	b295      	uxth	r5, r2
10003a7a:	b286      	uxth	r6, r0
10003a7c:	4375      	muls	r5, r6
10003a7e:	0c17      	lsrs	r7, r2, #16
10003a80:	437e      	muls	r6, r7
10003a82:	0c03      	lsrs	r3, r0, #16
10003a84:	435f      	muls	r7, r3
10003a86:	b292      	uxth	r2, r2
10003a88:	435a      	muls	r2, r3
10003a8a:	18b6      	adds	r6, r6, r2
10003a8c:	d302      	bcc.n	10003a94 <l23_1>
10003a8e:	2201      	movs	r2, #1
10003a90:	0412      	lsls	r2, r2, #16
10003a92:	18bf      	adds	r7, r7, r2

10003a94 <l23_1>:
10003a94:	0432      	lsls	r2, r6, #16
10003a96:	0c33      	lsrs	r3, r6, #16
10003a98:	1952      	adds	r2, r2, r5
10003a9a:	417b      	adcs	r3, r7
10003a9c:	4252      	negs	r2, r2
10003a9e:	419c      	sbcs	r4, r3
10003aa0:	2c00      	cmp	r4, #0
10003aa2:	d402      	bmi.n	10003aaa <l23_1+0x16>
10003aa4:	2200      	movs	r2, #0
10003aa6:	3001      	adds	r0, #1
10003aa8:	4151      	adcs	r1, r2
10003aaa:	0840      	lsrs	r0, r0, #1
10003aac:	07ca      	lsls	r2, r1, #31
10003aae:	4310      	orrs	r0, r2
10003ab0:	0849      	lsrs	r1, r1, #1

10003ab2 <dd_2>:
10003ab2:	b002      	add	sp, #8
10003ab4:	4662      	mov	r2, ip
10003ab6:	07d7      	lsls	r7, r2, #31
10003ab8:	1092      	asrs	r2, r2, #2
10003aba:	4b08      	ldr	r3, [pc, #32]	; (10003adc <dd_4+0x6>)
10003abc:	18d2      	adds	r2, r2, r3
10003abe:	4b08      	ldr	r3, [pc, #32]	; (10003ae0 <dd_4+0xa>)
10003ac0:	429a      	cmp	r2, r3
10003ac2:	d203      	bcs.n	10003acc <dd_3>
10003ac4:	0512      	lsls	r2, r2, #20
10003ac6:	1889      	adds	r1, r1, r2

10003ac8 <dd_5>:
10003ac8:	19c9      	adds	r1, r1, r7
10003aca:	bdf0      	pop	{r4, r5, r6, r7, pc}

10003acc <dd_3>:
10003acc:	2000      	movs	r0, #0
10003ace:	2a00      	cmp	r2, #0
10003ad0:	dc01      	bgt.n	10003ad6 <dd_4>
10003ad2:	0039      	movs	r1, r7
10003ad4:	bdf0      	pop	{r4, r5, r6, r7, pc}

10003ad6 <dd_4>:
10003ad6:	3301      	adds	r3, #1
10003ad8:	0519      	lsls	r1, r3, #20
10003ada:	e7f5      	b.n	10003ac8 <dd_5>
10003adc:	000003fd 	.word	0x000003fd
10003ae0:	000007fe 	.word	0x000007fe

10003ae4 <dcordic_rot_step>:
10003ae4:	4662      	mov	r2, ip
10003ae6:	ca18      	ldmia	r2!, {r3, r4}
10003ae8:	4694      	mov	ip, r2
10003aea:	2900      	cmp	r1, #0
10003aec:	da1a      	bge.n	10003b24 <dcordic_rot_step+0x40>
10003aee:	18c0      	adds	r0, r0, r3
10003af0:	4161      	adcs	r1, r4
10003af2:	465b      	mov	r3, fp
10003af4:	413b      	asrs	r3, r7
10003af6:	465c      	mov	r4, fp
10003af8:	40b4      	lsls	r4, r6
10003afa:	4652      	mov	r2, sl
10003afc:	40fa      	lsrs	r2, r7
10003afe:	4322      	orrs	r2, r4
10003b00:	4644      	mov	r4, r8
10003b02:	464d      	mov	r5, r9
10003b04:	4162      	adcs	r2, r4
10003b06:	416b      	adcs	r3, r5
10003b08:	4690      	mov	r8, r2
10003b0a:	4699      	mov	r9, r3
10003b0c:	462b      	mov	r3, r5
10003b0e:	40b3      	lsls	r3, r6
10003b10:	413d      	asrs	r5, r7
10003b12:	40fc      	lsrs	r4, r7
10003b14:	431c      	orrs	r4, r3
10003b16:	4652      	mov	r2, sl
10003b18:	465b      	mov	r3, fp
10003b1a:	41a2      	sbcs	r2, r4
10003b1c:	41ab      	sbcs	r3, r5
10003b1e:	4692      	mov	sl, r2
10003b20:	469b      	mov	fp, r3
10003b22:	4770      	bx	lr
10003b24:	1ac0      	subs	r0, r0, r3
10003b26:	41a1      	sbcs	r1, r4
10003b28:	464b      	mov	r3, r9
10003b2a:	413b      	asrs	r3, r7
10003b2c:	464c      	mov	r4, r9
10003b2e:	40b4      	lsls	r4, r6
10003b30:	4642      	mov	r2, r8
10003b32:	40fa      	lsrs	r2, r7
10003b34:	4322      	orrs	r2, r4
10003b36:	4654      	mov	r4, sl
10003b38:	465d      	mov	r5, fp
10003b3a:	4162      	adcs	r2, r4
10003b3c:	416b      	adcs	r3, r5
10003b3e:	4692      	mov	sl, r2
10003b40:	469b      	mov	fp, r3
10003b42:	462b      	mov	r3, r5
10003b44:	40b3      	lsls	r3, r6
10003b46:	413d      	asrs	r5, r7
10003b48:	40fc      	lsrs	r4, r7
10003b4a:	431c      	orrs	r4, r3
10003b4c:	4642      	mov	r2, r8
10003b4e:	464b      	mov	r3, r9
10003b50:	41a2      	sbcs	r2, r4
10003b52:	41ab      	sbcs	r3, r5
10003b54:	4690      	mov	r8, r2
10003b56:	4699      	mov	r9, r3
10003b58:	4770      	bx	lr

10003b5a <ret_dzero>:
10003b5a:	2000      	movs	r0, #0
10003b5c:	2100      	movs	r1, #0
10003b5e:	4770      	bx	lr

10003b60 <double2uint_shim>:
10003b60:	2200      	movs	r2, #0

10003b62 <double2ufix_shim>:
10003b62:	b500      	push	{lr}
10003b64:	3220      	adds	r2, #32
10003b66:	f000 f804 	bl	10003b72 <double2ufix64_shim>
10003b6a:	0008      	movs	r0, r1
10003b6c:	bd00      	pop	{pc}
	...

10003b70 <double2uint64_shim>:
10003b70:	2200      	movs	r2, #0

10003b72 <double2ufix64_shim>:
10003b72:	150b      	asrs	r3, r1, #20
10003b74:	d4f1      	bmi.n	10003b5a <ret_dzero>

10003b76 <d2fix>:
10003b76:	b510      	push	{r4, lr}
10003b78:	4694      	mov	ip, r2
10003b7a:	f000 f82f 	bl	10003bdc <dunpacks>
10003b7e:	1414      	asrs	r4, r2, #16
10003b80:	3401      	adds	r4, #1
10003b82:	da00      	bge.n	10003b86 <d2fix+0x10>
10003b84:	2100      	movs	r1, #0
10003b86:	17cb      	asrs	r3, r1, #31
10003b88:	4c13      	ldr	r4, [pc, #76]	; (10003bd8 <d2fix_a+0x4c>)
10003b8a:	4720      	bx	r4

10003b8c <d2fix_a>:
10003b8c:	4462      	add	r2, ip
10003b8e:	3a34      	subs	r2, #52	; 0x34
10003b90:	d40c      	bmi.n	10003bac <d2fix_a+0x20>
10003b92:	2a0c      	cmp	r2, #12
10003b94:	da07      	bge.n	10003ba6 <d2fix_a+0x1a>
10003b96:	0004      	movs	r4, r0
10003b98:	4091      	lsls	r1, r2
10003b9a:	4090      	lsls	r0, r2
10003b9c:	4252      	negs	r2, r2
10003b9e:	3220      	adds	r2, #32
10003ba0:	40d4      	lsrs	r4, r2
10003ba2:	4321      	orrs	r1, r4
10003ba4:	bd10      	pop	{r4, pc}
10003ba6:	43d8      	mvns	r0, r3
10003ba8:	43d9      	mvns	r1, r3
10003baa:	bd10      	pop	{r4, pc}
10003bac:	3220      	adds	r2, #32
10003bae:	d407      	bmi.n	10003bc0 <d2fix_a+0x34>
10003bb0:	460c      	mov	r4, r1
10003bb2:	4094      	lsls	r4, r2
10003bb4:	4252      	negs	r2, r2
10003bb6:	3220      	adds	r2, #32
10003bb8:	4111      	asrs	r1, r2
10003bba:	40d0      	lsrs	r0, r2
10003bbc:	4320      	orrs	r0, r4
10003bbe:	bd10      	pop	{r4, pc}
10003bc0:	0008      	movs	r0, r1
10003bc2:	17c9      	asrs	r1, r1, #31
10003bc4:	3220      	adds	r2, #32
10003bc6:	d403      	bmi.n	10003bd0 <d2fix_a+0x44>
10003bc8:	4252      	negs	r2, r2
10003bca:	3220      	adds	r2, #32
10003bcc:	4110      	asrs	r0, r2
10003bce:	bd10      	pop	{r4, pc}
10003bd0:	0018      	movs	r0, r3
10003bd2:	0019      	movs	r1, r3
10003bd4:	bd10      	pop	{r4, pc}
10003bd6:	0000      	.short	0x0000
10003bd8:	10003b8d 	.word	0x10003b8d

10003bdc <dunpacks>:
10003bdc:	0d0a      	lsrs	r2, r1, #20
10003bde:	0fcc      	lsrs	r4, r1, #31
10003be0:	1e53      	subs	r3, r2, #1
10003be2:	051b      	lsls	r3, r3, #20
10003be4:	1ac9      	subs	r1, r1, r3
10003be6:	0552      	lsls	r2, r2, #21
10003be8:	d303      	bcc.n	10003bf2 <l60_1>
10003bea:	43c9      	mvns	r1, r1
10003bec:	4240      	negs	r0, r0
10003bee:	d300      	bcc.n	10003bf2 <l60_1>
10003bf0:	3101      	adds	r1, #1

10003bf2 <l60_1>:
10003bf2:	0d52      	lsrs	r2, r2, #21
10003bf4:	d003      	beq.n	10003bfe <l60_2>
10003bf6:	1c53      	adds	r3, r2, #1
10003bf8:	0adb      	lsrs	r3, r3, #11
10003bfa:	d007      	beq.n	10003c0c <l60_3>
10003bfc:	1b12      	subs	r2, r2, r4

10003bfe <l60_2>:
10003bfe:	2000      	movs	r0, #0
10003c00:	0064      	lsls	r4, r4, #1
10003c02:	1c61      	adds	r1, r4, #1
10003c04:	0789      	lsls	r1, r1, #30
10003c06:	1289      	asrs	r1, r1, #10
10003c08:	3a80      	subs	r2, #128	; 0x80
10003c0a:	0312      	lsls	r2, r2, #12

10003c0c <l60_3>:
10003c0c:	4b01      	ldr	r3, [pc, #4]	; (10003c14 <l60_3+0x8>)
10003c0e:	1ad2      	subs	r2, r2, r3
10003c10:	4770      	bx	lr
10003c12:	0000      	.short	0x0000
10003c14:	000003ff 	.word	0x000003ff

10003c18 <__wrap___aeabi_lmul>:
10003c18:	4351      	muls	r1, r2
10003c1a:	4343      	muls	r3, r0
10003c1c:	18c9      	adds	r1, r1, r3
10003c1e:	468c      	mov	ip, r1
10003c20:	0c11      	lsrs	r1, r2, #16
10003c22:	b283      	uxth	r3, r0
10003c24:	434b      	muls	r3, r1
10003c26:	b410      	push	{r4}
10003c28:	0c04      	lsrs	r4, r0, #16
10003c2a:	4361      	muls	r1, r4
10003c2c:	b292      	uxth	r2, r2
10003c2e:	b280      	uxth	r0, r0
10003c30:	4350      	muls	r0, r2
10003c32:	4362      	muls	r2, r4
10003c34:	041c      	lsls	r4, r3, #16
10003c36:	0c1b      	lsrs	r3, r3, #16
10003c38:	1900      	adds	r0, r0, r4
10003c3a:	bc10      	pop	{r4}
10003c3c:	4159      	adcs	r1, r3
10003c3e:	0413      	lsls	r3, r2, #16
10003c40:	0c12      	lsrs	r2, r2, #16
10003c42:	18c0      	adds	r0, r0, r3
10003c44:	4151      	adcs	r1, r2
10003c46:	4461      	add	r1, ip
10003c48:	4770      	bx	lr
	...

10003c4c <__aeabi_float_init>:
10003c4c:	2313      	movs	r3, #19
10003c4e:	b510      	push	{r4, lr}
10003c50:	4812      	ldr	r0, [pc, #72]	; (10003c9c <__aeabi_float_init+0x50>)
10003c52:	781c      	ldrb	r4, [r3, #0]
10003c54:	f7ff f934 	bl	10002ec0 <rom_data_lookup>
10003c58:	0001      	movs	r1, r0
10003c5a:	2c01      	cmp	r4, #1
10003c5c:	d00a      	beq.n	10003c74 <__aeabi_float_init+0x28>
10003c5e:	dd03      	ble.n	10003c68 <__aeabi_float_init+0x1c>
10003c60:	2280      	movs	r2, #128	; 0x80
10003c62:	480f      	ldr	r0, [pc, #60]	; (10003ca0 <__aeabi_float_init+0x54>)
10003c64:	f000 f850 	bl	10003d08 <__wrap___aeabi_memcpy>
10003c68:	480e      	ldr	r0, [pc, #56]	; (10003ca4 <__aeabi_float_init+0x58>)
10003c6a:	f7ff f921 	bl	10002eb0 <rom_func_lookup>
10003c6e:	4b0e      	ldr	r3, [pc, #56]	; (10003ca8 <__aeabi_float_init+0x5c>)
10003c70:	6018      	str	r0, [r3, #0]
10003c72:	bd10      	pop	{r4, pc}
10003c74:	4c0a      	ldr	r4, [pc, #40]	; (10003ca0 <__aeabi_float_init+0x54>)
10003c76:	2254      	movs	r2, #84	; 0x54
10003c78:	0020      	movs	r0, r4
10003c7a:	f000 f845 	bl	10003d08 <__wrap___aeabi_memcpy>
10003c7e:	4b0b      	ldr	r3, [pc, #44]	; (10003cac <__aeabi_float_init+0x60>)
10003c80:	6563      	str	r3, [r4, #84]	; 0x54
10003c82:	65a3      	str	r3, [r4, #88]	; 0x58
10003c84:	65e3      	str	r3, [r4, #92]	; 0x5c
10003c86:	6623      	str	r3, [r4, #96]	; 0x60
10003c88:	6663      	str	r3, [r4, #100]	; 0x64
10003c8a:	66a3      	str	r3, [r4, #104]	; 0x68
10003c8c:	66e3      	str	r3, [r4, #108]	; 0x6c
10003c8e:	6723      	str	r3, [r4, #112]	; 0x70
10003c90:	6763      	str	r3, [r4, #116]	; 0x74
10003c92:	67a3      	str	r3, [r4, #120]	; 0x78
10003c94:	67e3      	str	r3, [r4, #124]	; 0x7c
10003c96:	6223      	str	r3, [r4, #32]
10003c98:	61e3      	str	r3, [r4, #28]
10003c9a:	e7e5      	b.n	10003c68 <__aeabi_float_init+0x1c>
10003c9c:	00004653 	.word	0x00004653
10003ca0:	20000e70 	.word	0x20000e70
10003ca4:	0000334c 	.word	0x0000334c
10003ca8:	20000f70 	.word	0x20000f70
10003cac:	10003cb1 	.word	0x10003cb1

10003cb0 <float_table_shim_on_use_helper>:
10003cb0:	b507      	push	{r0, r1, r2, lr}
10003cb2:	4660      	mov	r0, ip
10003cb4:	8801      	ldrh	r1, [r0, #0]
10003cb6:	0a0a      	lsrs	r2, r1, #8
10003cb8:	3002      	adds	r0, #2
10003cba:	2adf      	cmp	r2, #223	; 0xdf
10003cbc:	d1fa      	bne.n	10003cb4 <float_table_shim_on_use_helper+0x4>
10003cbe:	b2c9      	uxtb	r1, r1
10003cc0:	0882      	lsrs	r2, r0, #2
10003cc2:	d304      	bcc.n	10003cce <float_table_shim_on_use_helper+0x1e>
10003cc4:	8802      	ldrh	r2, [r0, #0]
10003cc6:	8840      	ldrh	r0, [r0, #2]
10003cc8:	0400      	lsls	r0, r0, #16
10003cca:	4310      	orrs	r0, r2
10003ccc:	e000      	b.n	10003cd0 <float_table_shim_on_use_helper+0x20>
10003cce:	6800      	ldr	r0, [r0, #0]
10003cd0:	4a01      	ldr	r2, [pc, #4]	; (10003cd8 <float_table_shim_on_use_helper+0x28>)
10003cd2:	5050      	str	r0, [r2, r1]
10003cd4:	9003      	str	r0, [sp, #12]
10003cd6:	bd07      	pop	{r0, r1, r2, pc}
10003cd8:	20000e70 	.word	0x20000e70

10003cdc <__wrap_malloc>:
10003cdc:	b510      	push	{r4, lr}
10003cde:	f000 fa79 	bl	100041d4 <malloc>
10003ce2:	bd10      	pop	{r4, pc}

10003ce4 <__wrap_calloc>:
10003ce4:	b510      	push	{r4, lr}
10003ce6:	f000 fa3b 	bl	10004160 <calloc>
10003cea:	bd10      	pop	{r4, pc}

10003cec <__aeabi_mem_init>:
10003cec:	4801      	ldr	r0, [pc, #4]	; (10003cf4 <__aeabi_mem_init+0x8>)
10003cee:	2104      	movs	r1, #4
10003cf0:	4b01      	ldr	r3, [pc, #4]	; (10003cf8 <__aeabi_mem_init+0xc>)
10003cf2:	4718      	bx	r3
10003cf4:	20000330 	.word	0x20000330
10003cf8:	10002ed1 	.word	0x10002ed1

10003cfc <__wrap_memset>:
10003cfc:	4b01      	ldr	r3, [pc, #4]	; (10003d04 <__wrap_memset+0x8>)
10003cfe:	681b      	ldr	r3, [r3, #0]
10003d00:	4718      	bx	r3
10003d02:	0000      	.short	0x0000
10003d04:	20000330 	.word	0x20000330

10003d08 <__wrap___aeabi_memcpy>:
10003d08:	4b01      	ldr	r3, [pc, #4]	; (10003d10 <__wrap___aeabi_memcpy+0x8>)
10003d0a:	685b      	ldr	r3, [r3, #4]
10003d0c:	4718      	bx	r3
10003d0e:	0000      	.short	0x0000
10003d10:	20000330 	.word	0x20000330

10003d14 <stdio_out_chars_crlf.part.0>:
10003d14:	b5f8      	push	{r3, r4, r5, r6, r7, lr}
10003d16:	4647      	mov	r7, r8
10003d18:	46ce      	mov	lr, r9
10003d1a:	000d      	movs	r5, r1
10003d1c:	b580      	push	{r7, lr}
10003d1e:	0016      	movs	r6, r2
10003d20:	0007      	movs	r7, r0
10003d22:	2a00      	cmp	r2, #0
10003d24:	dd20      	ble.n	10003d68 <stdio_out_chars_crlf.part.0+0x54>
10003d26:	1e4b      	subs	r3, r1, #1
10003d28:	4698      	mov	r8, r3
10003d2a:	4b1a      	ldr	r3, [pc, #104]	; (10003d94 <stdio_out_chars_crlf.part.0+0x80>)
10003d2c:	2400      	movs	r4, #0
10003d2e:	2000      	movs	r0, #0
10003d30:	4699      	mov	r9, r3
10003d32:	2c00      	cmp	r4, #0
10003d34:	d02b      	beq.n	10003d8e <stdio_out_chars_crlf.part.0+0x7a>
10003d36:	4643      	mov	r3, r8
10003d38:	5d1b      	ldrb	r3, [r3, r4]
10003d3a:	3b0d      	subs	r3, #13
10003d3c:	425a      	negs	r2, r3
10003d3e:	4153      	adcs	r3, r2
10003d40:	b2db      	uxtb	r3, r3
10003d42:	5d2a      	ldrb	r2, [r5, r4]
10003d44:	2a0a      	cmp	r2, #10
10003d46:	d013      	beq.n	10003d70 <stdio_out_chars_crlf.part.0+0x5c>
10003d48:	3401      	adds	r4, #1
10003d4a:	42a6      	cmp	r6, r4
10003d4c:	dcf1      	bgt.n	10003d32 <stdio_out_chars_crlf.part.0+0x1e>
10003d4e:	4286      	cmp	r6, r0
10003d50:	dd03      	ble.n	10003d5a <stdio_out_chars_crlf.part.0+0x46>
10003d52:	1a31      	subs	r1, r6, r0
10003d54:	683b      	ldr	r3, [r7, #0]
10003d56:	1828      	adds	r0, r5, r0
10003d58:	4798      	blx	r3
10003d5a:	19ad      	adds	r5, r5, r6
10003d5c:	3d01      	subs	r5, #1
10003d5e:	782b      	ldrb	r3, [r5, #0]
10003d60:	3b0d      	subs	r3, #13
10003d62:	425a      	negs	r2, r3
10003d64:	4153      	adcs	r3, r2
10003d66:	743b      	strb	r3, [r7, #16]
10003d68:	bc0c      	pop	{r2, r3}
10003d6a:	4690      	mov	r8, r2
10003d6c:	4699      	mov	r9, r3
10003d6e:	bdf8      	pop	{r3, r4, r5, r6, r7, pc}
10003d70:	2b00      	cmp	r3, #0
10003d72:	d1e9      	bne.n	10003d48 <stdio_out_chars_crlf.part.0+0x34>
10003d74:	42a0      	cmp	r0, r4
10003d76:	da03      	bge.n	10003d80 <stdio_out_chars_crlf.part.0+0x6c>
10003d78:	1a21      	subs	r1, r4, r0
10003d7a:	683b      	ldr	r3, [r7, #0]
10003d7c:	1828      	adds	r0, r5, r0
10003d7e:	4798      	blx	r3
10003d80:	4648      	mov	r0, r9
10003d82:	2102      	movs	r1, #2
10003d84:	683b      	ldr	r3, [r7, #0]
10003d86:	3401      	adds	r4, #1
10003d88:	4798      	blx	r3
10003d8a:	0020      	movs	r0, r4
10003d8c:	e7dd      	b.n	10003d4a <stdio_out_chars_crlf.part.0+0x36>
10003d8e:	7c3b      	ldrb	r3, [r7, #16]
10003d90:	e7d7      	b.n	10003d42 <stdio_out_chars_crlf.part.0+0x2e>
10003d92:	46c0      	nop			; (mov r8, r8)
10003d94:	10004ef0 	.word	0x10004ef0

10003d98 <stdio_buffered_printer>:
10003d98:	b5f8      	push	{r3, r4, r5, r6, r7, lr}
10003d9a:	4647      	mov	r7, r8
10003d9c:	46ce      	mov	lr, r9
10003d9e:	000c      	movs	r4, r1
10003da0:	6809      	ldr	r1, [r1, #0]
10003da2:	b580      	push	{r7, lr}
10003da4:	0007      	movs	r7, r0
10003da6:	2980      	cmp	r1, #128	; 0x80
10003da8:	d007      	beq.n	10003dba <stdio_buffered_printer+0x22>
10003daa:	1c4b      	adds	r3, r1, #1
10003dac:	6023      	str	r3, [r4, #0]
10003dae:	1864      	adds	r4, r4, r1
10003db0:	7127      	strb	r7, [r4, #4]
10003db2:	bc0c      	pop	{r2, r3}
10003db4:	4690      	mov	r8, r2
10003db6:	4699      	mov	r9, r3
10003db8:	bdf8      	pop	{r3, r4, r5, r6, r7, pc}
10003dba:	4b13      	ldr	r3, [pc, #76]	; (10003e08 <stdio_buffered_printer+0x70>)
10003dbc:	681d      	ldr	r5, [r3, #0]
10003dbe:	2d00      	cmp	r5, #0
10003dc0:	d01b      	beq.n	10003dfa <stdio_buffered_printer+0x62>
10003dc2:	4b12      	ldr	r3, [pc, #72]	; (10003e0c <stdio_buffered_printer+0x74>)
10003dc4:	4698      	mov	r8, r3
10003dc6:	1d23      	adds	r3, r4, #4
10003dc8:	4699      	mov	r9, r3
10003dca:	e002      	b.n	10003dd2 <stdio_buffered_printer+0x3a>
10003dcc:	68ed      	ldr	r5, [r5, #12]
10003dce:	2d00      	cmp	r5, #0
10003dd0:	d013      	beq.n	10003dfa <stdio_buffered_printer+0x62>
10003dd2:	682e      	ldr	r6, [r5, #0]
10003dd4:	2e00      	cmp	r6, #0
10003dd6:	d0f9      	beq.n	10003dcc <stdio_buffered_printer+0x34>
10003dd8:	4643      	mov	r3, r8
10003dda:	681b      	ldr	r3, [r3, #0]
10003ddc:	2b00      	cmp	r3, #0
10003dde:	d001      	beq.n	10003de4 <stdio_buffered_printer+0x4c>
10003de0:	429d      	cmp	r5, r3
10003de2:	d1f3      	bne.n	10003dcc <stdio_buffered_printer+0x34>
10003de4:	7c6b      	ldrb	r3, [r5, #17]
10003de6:	6822      	ldr	r2, [r4, #0]
10003de8:	2b00      	cmp	r3, #0
10003dea:	d009      	beq.n	10003e00 <stdio_buffered_printer+0x68>
10003dec:	0028      	movs	r0, r5
10003dee:	4649      	mov	r1, r9
10003df0:	f7ff ff90 	bl	10003d14 <stdio_out_chars_crlf.part.0>
10003df4:	68ed      	ldr	r5, [r5, #12]
10003df6:	2d00      	cmp	r5, #0
10003df8:	d1eb      	bne.n	10003dd2 <stdio_buffered_printer+0x3a>
10003dfa:	2301      	movs	r3, #1
10003dfc:	2100      	movs	r1, #0
10003dfe:	e7d5      	b.n	10003dac <stdio_buffered_printer+0x14>
10003e00:	0011      	movs	r1, r2
10003e02:	4648      	mov	r0, r9
10003e04:	47b0      	blx	r6
10003e06:	e7e1      	b.n	10003dcc <stdio_buffered_printer+0x34>
10003e08:	20000d38 	.word	0x20000d38
10003e0c:	20000d3c 	.word	0x20000d3c

10003e10 <stdio_put_string>:
10003e10:	b5f0      	push	{r4, r5, r6, r7, lr}
10003e12:	4657      	mov	r7, sl
10003e14:	4645      	mov	r5, r8
10003e16:	46de      	mov	lr, fp
10003e18:	464e      	mov	r6, r9
10003e1a:	23d0      	movs	r3, #208	; 0xd0
10003e1c:	b5e0      	push	{r5, r6, r7, lr}
10003e1e:	061b      	lsls	r3, r3, #24
10003e20:	681c      	ldr	r4, [r3, #0]
10003e22:	4b37      	ldr	r3, [pc, #220]	; (10003f00 <stdio_put_string+0xf0>)
10003e24:	b083      	sub	sp, #12
10003e26:	0007      	movs	r7, r0
10003e28:	000d      	movs	r5, r1
10003e2a:	0018      	movs	r0, r3
10003e2c:	a901      	add	r1, sp, #4
10003e2e:	4690      	mov	r8, r2
10003e30:	469a      	mov	sl, r3
10003e32:	f000 fe59 	bl	10004ae8 <__mutex_try_enter_veneer>
10003e36:	4681      	mov	r9, r0
10003e38:	2800      	cmp	r0, #0
10003e3a:	d107      	bne.n	10003e4c <stdio_put_string+0x3c>
10003e3c:	9b01      	ldr	r3, [sp, #4]
10003e3e:	429c      	cmp	r4, r3
10003e40:	d004      	beq.n	10003e4c <stdio_put_string+0x3c>
10003e42:	4650      	mov	r0, sl
10003e44:	f000 fe60 	bl	10004b08 <__mutex_enter_blocking_veneer>
10003e48:	2301      	movs	r3, #1
10003e4a:	4699      	mov	r9, r3
10003e4c:	1c6b      	adds	r3, r5, #1
10003e4e:	d103      	bne.n	10003e58 <stdio_put_string+0x48>
10003e50:	0038      	movs	r0, r7
10003e52:	f000 fcc5 	bl	100047e0 <strlen>
10003e56:	0005      	movs	r5, r0
10003e58:	4b2a      	ldr	r3, [pc, #168]	; (10003f04 <stdio_put_string+0xf4>)
10003e5a:	681c      	ldr	r4, [r3, #0]
10003e5c:	2c00      	cmp	r4, #0
10003e5e:	d02f      	beq.n	10003ec0 <stdio_put_string+0xb0>
10003e60:	230a      	movs	r3, #10
10003e62:	4e29      	ldr	r6, [pc, #164]	; (10003f08 <stdio_put_string+0xf8>)
10003e64:	469b      	mov	fp, r3
10003e66:	e002      	b.n	10003e6e <stdio_put_string+0x5e>
10003e68:	68e4      	ldr	r4, [r4, #12]
10003e6a:	2c00      	cmp	r4, #0
10003e6c:	d028      	beq.n	10003ec0 <stdio_put_string+0xb0>
10003e6e:	6822      	ldr	r2, [r4, #0]
10003e70:	2a00      	cmp	r2, #0
10003e72:	d0f9      	beq.n	10003e68 <stdio_put_string+0x58>
10003e74:	6833      	ldr	r3, [r6, #0]
10003e76:	2b00      	cmp	r3, #0
10003e78:	d001      	beq.n	10003e7e <stdio_put_string+0x6e>
10003e7a:	42a3      	cmp	r3, r4
10003e7c:	d1f4      	bne.n	10003e68 <stdio_put_string+0x58>
10003e7e:	7c63      	ldrb	r3, [r4, #17]
10003e80:	2b00      	cmp	r3, #0
10003e82:	d02a      	beq.n	10003eda <stdio_put_string+0xca>
10003e84:	002a      	movs	r2, r5
10003e86:	0039      	movs	r1, r7
10003e88:	0020      	movs	r0, r4
10003e8a:	f7ff ff43 	bl	10003d14 <stdio_out_chars_crlf.part.0>
10003e8e:	4643      	mov	r3, r8
10003e90:	2b00      	cmp	r3, #0
10003e92:	d0e9      	beq.n	10003e68 <stdio_put_string+0x58>
10003e94:	466b      	mov	r3, sp
10003e96:	465a      	mov	r2, fp
10003e98:	711a      	strb	r2, [r3, #4]
10003e9a:	7c63      	ldrb	r3, [r4, #17]
10003e9c:	2b00      	cmp	r3, #0
10003e9e:	d020      	beq.n	10003ee2 <stdio_put_string+0xd2>
10003ea0:	7c23      	ldrb	r3, [r4, #16]
10003ea2:	2b00      	cmp	r3, #0
10003ea4:	d026      	beq.n	10003ef4 <stdio_put_string+0xe4>
10003ea6:	2101      	movs	r1, #1
10003ea8:	6823      	ldr	r3, [r4, #0]
10003eaa:	a801      	add	r0, sp, #4
10003eac:	4798      	blx	r3
10003eae:	466b      	mov	r3, sp
10003eb0:	791b      	ldrb	r3, [r3, #4]
10003eb2:	3b0d      	subs	r3, #13
10003eb4:	425a      	negs	r2, r3
10003eb6:	4153      	adcs	r3, r2
10003eb8:	7423      	strb	r3, [r4, #16]
10003eba:	68e4      	ldr	r4, [r4, #12]
10003ebc:	2c00      	cmp	r4, #0
10003ebe:	d1d6      	bne.n	10003e6e <stdio_put_string+0x5e>
10003ec0:	464b      	mov	r3, r9
10003ec2:	2b00      	cmp	r3, #0
10003ec4:	d112      	bne.n	10003eec <stdio_put_string+0xdc>
10003ec6:	1e68      	subs	r0, r5, #1
10003ec8:	4185      	sbcs	r5, r0
10003eca:	b2e8      	uxtb	r0, r5
10003ecc:	b003      	add	sp, #12
10003ece:	bc3c      	pop	{r2, r3, r4, r5}
10003ed0:	4690      	mov	r8, r2
10003ed2:	4699      	mov	r9, r3
10003ed4:	46a2      	mov	sl, r4
10003ed6:	46ab      	mov	fp, r5
10003ed8:	bdf0      	pop	{r4, r5, r6, r7, pc}
10003eda:	0029      	movs	r1, r5
10003edc:	0038      	movs	r0, r7
10003ede:	4790      	blx	r2
10003ee0:	e7d5      	b.n	10003e8e <stdio_put_string+0x7e>
10003ee2:	2101      	movs	r1, #1
10003ee4:	6823      	ldr	r3, [r4, #0]
10003ee6:	a801      	add	r0, sp, #4
10003ee8:	4798      	blx	r3
10003eea:	e7bd      	b.n	10003e68 <stdio_put_string+0x58>
10003eec:	4650      	mov	r0, sl
10003eee:	f000 fddb 	bl	10004aa8 <__mutex_exit_veneer>
10003ef2:	e7e8      	b.n	10003ec6 <stdio_put_string+0xb6>
10003ef4:	2102      	movs	r1, #2
10003ef6:	4805      	ldr	r0, [pc, #20]	; (10003f0c <stdio_put_string+0xfc>)
10003ef8:	6823      	ldr	r3, [r4, #0]
10003efa:	4798      	blx	r3
10003efc:	e7d7      	b.n	10003eae <stdio_put_string+0x9e>
10003efe:	46c0      	nop			; (mov r8, r8)
10003f00:	20000b90 	.word	0x20000b90
10003f04:	20000d38 	.word	0x20000d38
10003f08:	20000d3c 	.word	0x20000d3c
10003f0c:	10004ef0 	.word	0x10004ef0

10003f10 <__wrap_putchar>:
10003f10:	b510      	push	{r4, lr}
10003f12:	b082      	sub	sp, #8
10003f14:	466b      	mov	r3, sp
10003f16:	0004      	movs	r4, r0
10003f18:	2200      	movs	r2, #0
10003f1a:	1dd8      	adds	r0, r3, #7
10003f1c:	2101      	movs	r1, #1
10003f1e:	7004      	strb	r4, [r0, #0]
10003f20:	f7ff ff76 	bl	10003e10 <stdio_put_string>
10003f24:	0020      	movs	r0, r4
10003f26:	b002      	add	sp, #8
10003f28:	bd10      	pop	{r4, pc}
10003f2a:	46c0      	nop			; (mov r8, r8)

10003f2c <__wrap_puts>:
10003f2c:	b570      	push	{r4, r5, r6, lr}
10003f2e:	0004      	movs	r4, r0
10003f30:	f000 fc56 	bl	100047e0 <strlen>
10003f34:	2201      	movs	r2, #1
10003f36:	0001      	movs	r1, r0
10003f38:	0005      	movs	r5, r0
10003f3a:	0020      	movs	r0, r4
10003f3c:	f7ff ff68 	bl	10003e10 <stdio_put_string>
10003f40:	4b08      	ldr	r3, [pc, #32]	; (10003f64 <__wrap_puts+0x38>)
10003f42:	681c      	ldr	r4, [r3, #0]
10003f44:	2c00      	cmp	r4, #0
10003f46:	d006      	beq.n	10003f56 <__wrap_puts+0x2a>
10003f48:	6863      	ldr	r3, [r4, #4]
10003f4a:	2b00      	cmp	r3, #0
10003f4c:	d005      	beq.n	10003f5a <__wrap_puts+0x2e>
10003f4e:	4798      	blx	r3
10003f50:	68e4      	ldr	r4, [r4, #12]
10003f52:	2c00      	cmp	r4, #0
10003f54:	d1f8      	bne.n	10003f48 <__wrap_puts+0x1c>
10003f56:	0028      	movs	r0, r5
10003f58:	bd70      	pop	{r4, r5, r6, pc}
10003f5a:	68e4      	ldr	r4, [r4, #12]
10003f5c:	2c00      	cmp	r4, #0
10003f5e:	d1f3      	bne.n	10003f48 <__wrap_puts+0x1c>
10003f60:	e7f9      	b.n	10003f56 <__wrap_puts+0x2a>
10003f62:	46c0      	nop			; (mov r8, r8)
10003f64:	20000d38 	.word	0x20000d38

10003f68 <stdio_set_driver_enabled>:
10003f68:	4a0d      	ldr	r2, [pc, #52]	; (10003fa0 <stdio_set_driver_enabled+0x38>)
10003f6a:	6813      	ldr	r3, [r2, #0]
10003f6c:	2b00      	cmp	r3, #0
10003f6e:	d013      	beq.n	10003f98 <stdio_set_driver_enabled+0x30>
10003f70:	4283      	cmp	r3, r0
10003f72:	d102      	bne.n	10003f7a <stdio_set_driver_enabled+0x12>
10003f74:	e009      	b.n	10003f8a <stdio_set_driver_enabled+0x22>
10003f76:	4298      	cmp	r0, r3
10003f78:	d008      	beq.n	10003f8c <stdio_set_driver_enabled+0x24>
10003f7a:	001a      	movs	r2, r3
10003f7c:	68db      	ldr	r3, [r3, #12]
10003f7e:	2b00      	cmp	r3, #0
10003f80:	d1f9      	bne.n	10003f76 <stdio_set_driver_enabled+0xe>
10003f82:	2900      	cmp	r1, #0
10003f84:	d000      	beq.n	10003f88 <stdio_set_driver_enabled+0x20>
10003f86:	60d0      	str	r0, [r2, #12]
10003f88:	4770      	bx	lr
10003f8a:	001a      	movs	r2, r3
10003f8c:	2900      	cmp	r1, #0
10003f8e:	d1fb      	bne.n	10003f88 <stdio_set_driver_enabled+0x20>
10003f90:	68db      	ldr	r3, [r3, #12]
10003f92:	60d3      	str	r3, [r2, #12]
10003f94:	60c1      	str	r1, [r0, #12]
10003f96:	e7f7      	b.n	10003f88 <stdio_set_driver_enabled+0x20>
10003f98:	2900      	cmp	r1, #0
10003f9a:	d0f5      	beq.n	10003f88 <stdio_set_driver_enabled+0x20>
10003f9c:	6010      	str	r0, [r2, #0]
10003f9e:	e7f3      	b.n	10003f88 <stdio_set_driver_enabled+0x20>
10003fa0:	20000d38 	.word	0x20000d38

10003fa4 <__wrap_vprintf>:
10003fa4:	b5f0      	push	{r4, r5, r6, r7, lr}
10003fa6:	4646      	mov	r6, r8
10003fa8:	46d6      	mov	lr, sl
10003faa:	464f      	mov	r7, r9
10003fac:	23d0      	movs	r3, #208	; 0xd0
10003fae:	b5c0      	push	{r6, r7, lr}
10003fb0:	061b      	lsls	r3, r3, #24
10003fb2:	681f      	ldr	r7, [r3, #0]
10003fb4:	4b31      	ldr	r3, [pc, #196]	; (1000407c <__wrap_vprintf+0xd8>)
10003fb6:	b0a2      	sub	sp, #136	; 0x88
10003fb8:	0004      	movs	r4, r0
10003fba:	000d      	movs	r5, r1
10003fbc:	0018      	movs	r0, r3
10003fbe:	a901      	add	r1, sp, #4
10003fc0:	4698      	mov	r8, r3
10003fc2:	f000 fd91 	bl	10004ae8 <__mutex_try_enter_veneer>
10003fc6:	1e06      	subs	r6, r0, #0
10003fc8:	d106      	bne.n	10003fd8 <__wrap_vprintf+0x34>
10003fca:	9b01      	ldr	r3, [sp, #4]
10003fcc:	429f      	cmp	r7, r3
10003fce:	d003      	beq.n	10003fd8 <__wrap_vprintf+0x34>
10003fd0:	4640      	mov	r0, r8
10003fd2:	f000 fd99 	bl	10004b08 <__mutex_enter_blocking_veneer>
10003fd6:	3601      	adds	r6, #1
10003fd8:	2284      	movs	r2, #132	; 0x84
10003fda:	2100      	movs	r1, #0
10003fdc:	a801      	add	r0, sp, #4
10003fde:	f7ff fe8d 	bl	10003cfc <__wrap_memset>
10003fe2:	002b      	movs	r3, r5
10003fe4:	0022      	movs	r2, r4
10003fe6:	4826      	ldr	r0, [pc, #152]	; (10004080 <__wrap_vprintf+0xdc>)
10003fe8:	a901      	add	r1, sp, #4
10003fea:	f7fe ff31 	bl	10002e50 <vfctprintf>
10003fee:	9b01      	ldr	r3, [sp, #4]
10003ff0:	0007      	movs	r7, r0
10003ff2:	2b00      	cmp	r3, #0
10003ff4:	d115      	bne.n	10004022 <__wrap_vprintf+0x7e>
10003ff6:	4b23      	ldr	r3, [pc, #140]	; (10004084 <__wrap_vprintf+0xe0>)
10003ff8:	681c      	ldr	r4, [r3, #0]
10003ffa:	2c00      	cmp	r4, #0
10003ffc:	d006      	beq.n	1000400c <__wrap_vprintf+0x68>
10003ffe:	6863      	ldr	r3, [r4, #4]
10004000:	2b00      	cmp	r3, #0
10004002:	d00c      	beq.n	1000401e <__wrap_vprintf+0x7a>
10004004:	4798      	blx	r3
10004006:	68e4      	ldr	r4, [r4, #12]
10004008:	2c00      	cmp	r4, #0
1000400a:	d1f8      	bne.n	10003ffe <__wrap_vprintf+0x5a>
1000400c:	2e00      	cmp	r6, #0
1000400e:	d12f      	bne.n	10004070 <__wrap_vprintf+0xcc>
10004010:	0038      	movs	r0, r7
10004012:	b022      	add	sp, #136	; 0x88
10004014:	bc1c      	pop	{r2, r3, r4}
10004016:	4690      	mov	r8, r2
10004018:	4699      	mov	r9, r3
1000401a:	46a2      	mov	sl, r4
1000401c:	bdf0      	pop	{r4, r5, r6, r7, pc}
1000401e:	68e4      	ldr	r4, [r4, #12]
10004020:	e7eb      	b.n	10003ffa <__wrap_vprintf+0x56>
10004022:	4b18      	ldr	r3, [pc, #96]	; (10004084 <__wrap_vprintf+0xe0>)
10004024:	681d      	ldr	r5, [r3, #0]
10004026:	469a      	mov	sl, r3
10004028:	2d00      	cmp	r5, #0
1000402a:	d025      	beq.n	10004078 <__wrap_vprintf+0xd4>
1000402c:	4b16      	ldr	r3, [pc, #88]	; (10004088 <__wrap_vprintf+0xe4>)
1000402e:	4699      	mov	r9, r3
10004030:	e002      	b.n	10004038 <__wrap_vprintf+0x94>
10004032:	68ed      	ldr	r5, [r5, #12]
10004034:	2d00      	cmp	r5, #0
10004036:	d013      	beq.n	10004060 <__wrap_vprintf+0xbc>
10004038:	682c      	ldr	r4, [r5, #0]
1000403a:	2c00      	cmp	r4, #0
1000403c:	d0f9      	beq.n	10004032 <__wrap_vprintf+0x8e>
1000403e:	464b      	mov	r3, r9
10004040:	681b      	ldr	r3, [r3, #0]
10004042:	2b00      	cmp	r3, #0
10004044:	d001      	beq.n	1000404a <__wrap_vprintf+0xa6>
10004046:	429d      	cmp	r5, r3
10004048:	d1f3      	bne.n	10004032 <__wrap_vprintf+0x8e>
1000404a:	7c6b      	ldrb	r3, [r5, #17]
1000404c:	9a01      	ldr	r2, [sp, #4]
1000404e:	2b00      	cmp	r3, #0
10004050:	d00a      	beq.n	10004068 <__wrap_vprintf+0xc4>
10004052:	0028      	movs	r0, r5
10004054:	a902      	add	r1, sp, #8
10004056:	f7ff fe5d 	bl	10003d14 <stdio_out_chars_crlf.part.0>
1000405a:	68ed      	ldr	r5, [r5, #12]
1000405c:	2d00      	cmp	r5, #0
1000405e:	d1eb      	bne.n	10004038 <__wrap_vprintf+0x94>
10004060:	4653      	mov	r3, sl
10004062:	9501      	str	r5, [sp, #4]
10004064:	681c      	ldr	r4, [r3, #0]
10004066:	e7c8      	b.n	10003ffa <__wrap_vprintf+0x56>
10004068:	0011      	movs	r1, r2
1000406a:	a802      	add	r0, sp, #8
1000406c:	47a0      	blx	r4
1000406e:	e7e0      	b.n	10004032 <__wrap_vprintf+0x8e>
10004070:	4640      	mov	r0, r8
10004072:	f000 fd19 	bl	10004aa8 <__mutex_exit_veneer>
10004076:	e7cb      	b.n	10004010 <__wrap_vprintf+0x6c>
10004078:	9501      	str	r5, [sp, #4]
1000407a:	e7c7      	b.n	1000400c <__wrap_vprintf+0x68>
1000407c:	20000b90 	.word	0x20000b90
10004080:	10003d99 	.word	0x10003d99
10004084:	20000d38 	.word	0x20000d38
10004088:	20000d3c 	.word	0x20000d3c

1000408c <__wrap_printf>:
1000408c:	b40f      	push	{r0, r1, r2, r3}
1000408e:	b500      	push	{lr}
10004090:	b083      	sub	sp, #12
10004092:	a904      	add	r1, sp, #16
10004094:	c901      	ldmia	r1!, {r0}
10004096:	9101      	str	r1, [sp, #4]
10004098:	f7ff ff84 	bl	10003fa4 <__wrap_vprintf>
1000409c:	b003      	add	sp, #12
1000409e:	bc08      	pop	{r3}
100040a0:	b004      	add	sp, #16
100040a2:	4718      	bx	r3

100040a4 <stdio_init_all>:
100040a4:	b510      	push	{r4, lr}
100040a6:	f000 f83b 	bl	10004120 <stdio_uart_init>
100040aa:	bd10      	pop	{r4, pc}

100040ac <stdio_uart_out_chars>:
100040ac:	b5f0      	push	{r4, r5, r6, r7, lr}
100040ae:	2900      	cmp	r1, #0
100040b0:	d010      	beq.n	100040d4 <stdio_uart_out_chars+0x28>
100040b2:	1845      	adds	r5, r0, r1
100040b4:	270d      	movs	r7, #13
100040b6:	2120      	movs	r1, #32
100040b8:	4b09      	ldr	r3, [pc, #36]	; (100040e0 <stdio_uart_out_chars+0x34>)
100040ba:	4a0a      	ldr	r2, [pc, #40]	; (100040e4 <stdio_uart_out_chars+0x38>)
100040bc:	2600      	movs	r6, #0
100040be:	5f9e      	ldrsh	r6, [r3, r6]
100040c0:	7804      	ldrb	r4, [r0, #0]
100040c2:	42a6      	cmp	r6, r4
100040c4:	d007      	beq.n	100040d6 <stdio_uart_out_chars+0x2a>
100040c6:	6993      	ldr	r3, [r2, #24]
100040c8:	4219      	tst	r1, r3
100040ca:	d1fc      	bne.n	100040c6 <stdio_uart_out_chars+0x1a>
100040cc:	3001      	adds	r0, #1
100040ce:	6014      	str	r4, [r2, #0]
100040d0:	42a8      	cmp	r0, r5
100040d2:	d1f5      	bne.n	100040c0 <stdio_uart_out_chars+0x14>
100040d4:	bdf0      	pop	{r4, r5, r6, r7, pc}
100040d6:	6993      	ldr	r3, [r2, #24]
100040d8:	4219      	tst	r1, r3
100040da:	d1fc      	bne.n	100040d6 <stdio_uart_out_chars+0x2a>
100040dc:	6017      	str	r7, [r2, #0]
100040de:	e7f2      	b.n	100040c6 <stdio_uart_out_chars+0x1a>
100040e0:	20000d6c 	.word	0x20000d6c
100040e4:	40034000 	.word	0x40034000

100040e8 <stdio_uart_in_chars>:
100040e8:	b530      	push	{r4, r5, lr}
100040ea:	0005      	movs	r5, r0
100040ec:	2000      	movs	r0, #0
100040ee:	2900      	cmp	r1, #0
100040f0:	dd10      	ble.n	10004114 <stdio_uart_in_chars+0x2c>
100040f2:	2410      	movs	r4, #16
100040f4:	4a09      	ldr	r2, [pc, #36]	; (1000411c <stdio_uart_in_chars+0x34>)
100040f6:	3d01      	subs	r5, #1
100040f8:	6993      	ldr	r3, [r2, #24]
100040fa:	421c      	tst	r4, r3
100040fc:	d108      	bne.n	10004110 <stdio_uart_in_chars+0x28>
100040fe:	3001      	adds	r0, #1
10004100:	6993      	ldr	r3, [r2, #24]
10004102:	421c      	tst	r4, r3
10004104:	d1fc      	bne.n	10004100 <stdio_uart_in_chars+0x18>
10004106:	6813      	ldr	r3, [r2, #0]
10004108:	542b      	strb	r3, [r5, r0]
1000410a:	4281      	cmp	r1, r0
1000410c:	d1f4      	bne.n	100040f8 <stdio_uart_in_chars+0x10>
1000410e:	bd30      	pop	{r4, r5, pc}
10004110:	2800      	cmp	r0, #0
10004112:	d1fc      	bne.n	1000410e <stdio_uart_in_chars+0x26>
10004114:	2003      	movs	r0, #3
10004116:	4240      	negs	r0, r0
10004118:	e7f9      	b.n	1000410e <stdio_uart_in_chars+0x26>
1000411a:	46c0      	nop			; (mov r8, r8)
1000411c:	40034000 	.word	0x40034000

10004120 <stdio_uart_init>:
10004120:	21e1      	movs	r1, #225	; 0xe1
10004122:	b510      	push	{r4, lr}
10004124:	4b0a      	ldr	r3, [pc, #40]	; (10004150 <stdio_uart_init+0x30>)
10004126:	0249      	lsls	r1, r1, #9
10004128:	781b      	ldrb	r3, [r3, #0]
1000412a:	4b0a      	ldr	r3, [pc, #40]	; (10004154 <stdio_uart_init+0x34>)
1000412c:	480a      	ldr	r0, [pc, #40]	; (10004158 <stdio_uart_init+0x38>)
1000412e:	781b      	ldrb	r3, [r3, #0]
10004130:	f7fc f9ea 	bl	10000508 <uart_init>
10004134:	2102      	movs	r1, #2
10004136:	2000      	movs	r0, #0
10004138:	f7fc f97c 	bl	10000434 <gpio_set_function>
1000413c:	2102      	movs	r1, #2
1000413e:	2001      	movs	r0, #1
10004140:	f7fc f978 	bl	10000434 <gpio_set_function>
10004144:	2101      	movs	r1, #1
10004146:	4805      	ldr	r0, [pc, #20]	; (1000415c <stdio_uart_init+0x3c>)
10004148:	f7ff ff0e 	bl	10003f68 <stdio_set_driver_enabled>
1000414c:	bd10      	pop	{r4, pc}
1000414e:	46c0      	nop			; (mov r8, r8)
10004150:	10004f50 	.word	0x10004f50
10004154:	10004f54 	.word	0x10004f54
10004158:	40034000 	.word	0x40034000
1000415c:	20000340 	.word	0x20000340

10004160 <calloc>:
10004160:	0003      	movs	r3, r0
10004162:	b510      	push	{r4, lr}
10004164:	000a      	movs	r2, r1
10004166:	4903      	ldr	r1, [pc, #12]	; (10004174 <calloc+0x14>)
10004168:	6808      	ldr	r0, [r1, #0]
1000416a:	0019      	movs	r1, r3
1000416c:	f000 f804 	bl	10004178 <_calloc_r>
10004170:	bd10      	pop	{r4, pc}
10004172:	46c0      	nop			; (mov r8, r8)
10004174:	20000354 	.word	0x20000354

10004178 <_calloc_r>:
10004178:	b510      	push	{r4, lr}
1000417a:	4351      	muls	r1, r2
1000417c:	f000 f834 	bl	100041e8 <_malloc_r>
10004180:	1e04      	subs	r4, r0, #0
10004182:	d00e      	beq.n	100041a2 <_calloc_r+0x2a>
10004184:	0003      	movs	r3, r0
10004186:	3b08      	subs	r3, #8
10004188:	685a      	ldr	r2, [r3, #4]
1000418a:	2303      	movs	r3, #3
1000418c:	439a      	bics	r2, r3
1000418e:	3a04      	subs	r2, #4
10004190:	2a24      	cmp	r2, #36	; 0x24
10004192:	d815      	bhi.n	100041c0 <_calloc_r+0x48>
10004194:	0003      	movs	r3, r0
10004196:	2a13      	cmp	r2, #19
10004198:	d805      	bhi.n	100041a6 <_calloc_r+0x2e>
1000419a:	2200      	movs	r2, #0
1000419c:	601a      	str	r2, [r3, #0]
1000419e:	605a      	str	r2, [r3, #4]
100041a0:	609a      	str	r2, [r3, #8]
100041a2:	0020      	movs	r0, r4
100041a4:	bd10      	pop	{r4, pc}
100041a6:	2100      	movs	r1, #0
100041a8:	3308      	adds	r3, #8
100041aa:	6001      	str	r1, [r0, #0]
100041ac:	6041      	str	r1, [r0, #4]
100041ae:	2a1b      	cmp	r2, #27
100041b0:	d9f3      	bls.n	1000419a <_calloc_r+0x22>
100041b2:	6081      	str	r1, [r0, #8]
100041b4:	60c1      	str	r1, [r0, #12]
100041b6:	2a24      	cmp	r2, #36	; 0x24
100041b8:	d006      	beq.n	100041c8 <_calloc_r+0x50>
100041ba:	0003      	movs	r3, r0
100041bc:	3310      	adds	r3, #16
100041be:	e7ec      	b.n	1000419a <_calloc_r+0x22>
100041c0:	2100      	movs	r1, #0
100041c2:	f7ff fd9b 	bl	10003cfc <__wrap_memset>
100041c6:	e7ec      	b.n	100041a2 <_calloc_r+0x2a>
100041c8:	0003      	movs	r3, r0
100041ca:	6101      	str	r1, [r0, #16]
100041cc:	3318      	adds	r3, #24
100041ce:	6141      	str	r1, [r0, #20]
100041d0:	e7e3      	b.n	1000419a <_calloc_r+0x22>
100041d2:	46c0      	nop			; (mov r8, r8)

100041d4 <malloc>:
100041d4:	b510      	push	{r4, lr}
100041d6:	4b03      	ldr	r3, [pc, #12]	; (100041e4 <malloc+0x10>)
100041d8:	0001      	movs	r1, r0
100041da:	6818      	ldr	r0, [r3, #0]
100041dc:	f000 f804 	bl	100041e8 <_malloc_r>
100041e0:	bd10      	pop	{r4, pc}
100041e2:	46c0      	nop			; (mov r8, r8)
100041e4:	20000354 	.word	0x20000354

100041e8 <_malloc_r>:
100041e8:	b5f0      	push	{r4, r5, r6, r7, lr}
100041ea:	464e      	mov	r6, r9
100041ec:	4645      	mov	r5, r8
100041ee:	46de      	mov	lr, fp
100041f0:	4657      	mov	r7, sl
100041f2:	b5e0      	push	{r5, r6, r7, lr}
100041f4:	000d      	movs	r5, r1
100041f6:	350b      	adds	r5, #11
100041f8:	0006      	movs	r6, r0
100041fa:	b083      	sub	sp, #12
100041fc:	2d16      	cmp	r5, #22
100041fe:	d822      	bhi.n	10004246 <_malloc_r+0x5e>
10004200:	2910      	cmp	r1, #16
10004202:	d900      	bls.n	10004206 <_malloc_r+0x1e>
10004204:	e0b2      	b.n	1000436c <_malloc_r+0x184>
10004206:	f000 faaf 	bl	10004768 <__malloc_lock>
1000420a:	2510      	movs	r5, #16
1000420c:	2002      	movs	r0, #2
1000420e:	2318      	movs	r3, #24
10004210:	4fcb      	ldr	r7, [pc, #812]	; (10004540 <_malloc_r+0x358>)
10004212:	18fb      	adds	r3, r7, r3
10004214:	001a      	movs	r2, r3
10004216:	685c      	ldr	r4, [r3, #4]
10004218:	3a08      	subs	r2, #8
1000421a:	4294      	cmp	r4, r2
1000421c:	d100      	bne.n	10004220 <_malloc_r+0x38>
1000421e:	e0b5      	b.n	1000438c <_malloc_r+0x1a4>
10004220:	2303      	movs	r3, #3
10004222:	6862      	ldr	r2, [r4, #4]
10004224:	439a      	bics	r2, r3
10004226:	0013      	movs	r3, r2
10004228:	68e2      	ldr	r2, [r4, #12]
1000422a:	68a1      	ldr	r1, [r4, #8]
1000422c:	60ca      	str	r2, [r1, #12]
1000422e:	6091      	str	r1, [r2, #8]
10004230:	2201      	movs	r2, #1
10004232:	18e3      	adds	r3, r4, r3
10004234:	6859      	ldr	r1, [r3, #4]
10004236:	0030      	movs	r0, r6
10004238:	430a      	orrs	r2, r1
1000423a:	605a      	str	r2, [r3, #4]
1000423c:	f000 fa9c 	bl	10004778 <__malloc_unlock>
10004240:	0020      	movs	r0, r4
10004242:	3008      	adds	r0, #8
10004244:	e095      	b.n	10004372 <_malloc_r+0x18a>
10004246:	2307      	movs	r3, #7
10004248:	439d      	bics	r5, r3
1000424a:	d500      	bpl.n	1000424e <_malloc_r+0x66>
1000424c:	e08e      	b.n	1000436c <_malloc_r+0x184>
1000424e:	42a9      	cmp	r1, r5
10004250:	d900      	bls.n	10004254 <_malloc_r+0x6c>
10004252:	e08b      	b.n	1000436c <_malloc_r+0x184>
10004254:	f000 fa88 	bl	10004768 <__malloc_lock>
10004258:	23fc      	movs	r3, #252	; 0xfc
1000425a:	005b      	lsls	r3, r3, #1
1000425c:	429d      	cmp	r5, r3
1000425e:	d200      	bcs.n	10004262 <_malloc_r+0x7a>
10004260:	e1a5      	b.n	100045ae <_malloc_r+0x3c6>
10004262:	0a68      	lsrs	r0, r5, #9
10004264:	d100      	bne.n	10004268 <_malloc_r+0x80>
10004266:	e08b      	b.n	10004380 <_malloc_r+0x198>
10004268:	2804      	cmp	r0, #4
1000426a:	d900      	bls.n	1000426e <_malloc_r+0x86>
1000426c:	e178      	b.n	10004560 <_malloc_r+0x378>
1000426e:	2338      	movs	r3, #56	; 0x38
10004270:	4698      	mov	r8, r3
10004272:	09a8      	lsrs	r0, r5, #6
10004274:	4480      	add	r8, r0
10004276:	3039      	adds	r0, #57	; 0x39
10004278:	00c1      	lsls	r1, r0, #3
1000427a:	4fb1      	ldr	r7, [pc, #708]	; (10004540 <_malloc_r+0x358>)
1000427c:	1879      	adds	r1, r7, r1
1000427e:	684c      	ldr	r4, [r1, #4]
10004280:	3908      	subs	r1, #8
10004282:	42a1      	cmp	r1, r4
10004284:	d00e      	beq.n	100042a4 <_malloc_r+0xbc>
10004286:	2303      	movs	r3, #3
10004288:	469c      	mov	ip, r3
1000428a:	e004      	b.n	10004296 <_malloc_r+0xae>
1000428c:	2a00      	cmp	r2, #0
1000428e:	dacb      	bge.n	10004228 <_malloc_r+0x40>
10004290:	68e4      	ldr	r4, [r4, #12]
10004292:	42a1      	cmp	r1, r4
10004294:	d006      	beq.n	100042a4 <_malloc_r+0xbc>
10004296:	4662      	mov	r2, ip
10004298:	6863      	ldr	r3, [r4, #4]
1000429a:	4393      	bics	r3, r2
1000429c:	1b5a      	subs	r2, r3, r5
1000429e:	2a0f      	cmp	r2, #15
100042a0:	ddf4      	ble.n	1000428c <_malloc_r+0xa4>
100042a2:	4640      	mov	r0, r8
100042a4:	003a      	movs	r2, r7
100042a6:	693c      	ldr	r4, [r7, #16]
100042a8:	3208      	adds	r2, #8
100042aa:	4294      	cmp	r4, r2
100042ac:	d100      	bne.n	100042b0 <_malloc_r+0xc8>
100042ae:	e078      	b.n	100043a2 <_malloc_r+0x1ba>
100042b0:	2303      	movs	r3, #3
100042b2:	6861      	ldr	r1, [r4, #4]
100042b4:	4399      	bics	r1, r3
100042b6:	4689      	mov	r9, r1
100042b8:	000b      	movs	r3, r1
100042ba:	1b49      	subs	r1, r1, r5
100042bc:	290f      	cmp	r1, #15
100042be:	dd00      	ble.n	100042c2 <_malloc_r+0xda>
100042c0:	e179      	b.n	100045b6 <_malloc_r+0x3ce>
100042c2:	617a      	str	r2, [r7, #20]
100042c4:	613a      	str	r2, [r7, #16]
100042c6:	2900      	cmp	r1, #0
100042c8:	dab2      	bge.n	10004230 <_malloc_r+0x48>
100042ca:	2280      	movs	r2, #128	; 0x80
100042cc:	0092      	lsls	r2, r2, #2
100042ce:	4591      	cmp	r9, r2
100042d0:	d300      	bcc.n	100042d4 <_malloc_r+0xec>
100042d2:	e10e      	b.n	100044f2 <_malloc_r+0x30a>
100042d4:	0959      	lsrs	r1, r3, #5
100042d6:	08da      	lsrs	r2, r3, #3
100042d8:	2301      	movs	r3, #1
100042da:	408b      	lsls	r3, r1
100042dc:	00d2      	lsls	r2, r2, #3
100042de:	6879      	ldr	r1, [r7, #4]
100042e0:	19d2      	adds	r2, r2, r7
100042e2:	430b      	orrs	r3, r1
100042e4:	6891      	ldr	r1, [r2, #8]
100042e6:	607b      	str	r3, [r7, #4]
100042e8:	60e2      	str	r2, [r4, #12]
100042ea:	60a1      	str	r1, [r4, #8]
100042ec:	6094      	str	r4, [r2, #8]
100042ee:	60cc      	str	r4, [r1, #12]
100042f0:	2101      	movs	r1, #1
100042f2:	1082      	asrs	r2, r0, #2
100042f4:	4091      	lsls	r1, r2
100042f6:	4299      	cmp	r1, r3
100042f8:	d859      	bhi.n	100043ae <_malloc_r+0x1c6>
100042fa:	420b      	tst	r3, r1
100042fc:	d105      	bne.n	1000430a <_malloc_r+0x122>
100042fe:	2203      	movs	r2, #3
10004300:	4390      	bics	r0, r2
10004302:	0049      	lsls	r1, r1, #1
10004304:	3004      	adds	r0, #4
10004306:	420b      	tst	r3, r1
10004308:	d0fb      	beq.n	10004302 <_malloc_r+0x11a>
1000430a:	2303      	movs	r3, #3
1000430c:	4698      	mov	r8, r3
1000430e:	00c3      	lsls	r3, r0, #3
10004310:	4699      	mov	r9, r3
10004312:	44b9      	add	r9, r7
10004314:	46cc      	mov	ip, r9
10004316:	4682      	mov	sl, r0
10004318:	4663      	mov	r3, ip
1000431a:	68dc      	ldr	r4, [r3, #12]
1000431c:	45a4      	cmp	ip, r4
1000431e:	d107      	bne.n	10004330 <_malloc_r+0x148>
10004320:	e12a      	b.n	10004578 <_malloc_r+0x390>
10004322:	2a00      	cmp	r2, #0
10004324:	db00      	blt.n	10004328 <_malloc_r+0x140>
10004326:	e133      	b.n	10004590 <_malloc_r+0x3a8>
10004328:	68e4      	ldr	r4, [r4, #12]
1000432a:	45a4      	cmp	ip, r4
1000432c:	d100      	bne.n	10004330 <_malloc_r+0x148>
1000432e:	e123      	b.n	10004578 <_malloc_r+0x390>
10004330:	4642      	mov	r2, r8
10004332:	6863      	ldr	r3, [r4, #4]
10004334:	4393      	bics	r3, r2
10004336:	1b5a      	subs	r2, r3, r5
10004338:	2a0f      	cmp	r2, #15
1000433a:	ddf2      	ble.n	10004322 <_malloc_r+0x13a>
1000433c:	2001      	movs	r0, #1
1000433e:	4680      	mov	r8, r0
10004340:	1961      	adds	r1, r4, r5
10004342:	4305      	orrs	r5, r0
10004344:	6065      	str	r5, [r4, #4]
10004346:	68a0      	ldr	r0, [r4, #8]
10004348:	68e5      	ldr	r5, [r4, #12]
1000434a:	3708      	adds	r7, #8
1000434c:	60c5      	str	r5, [r0, #12]
1000434e:	60a8      	str	r0, [r5, #8]
10004350:	4640      	mov	r0, r8
10004352:	4310      	orrs	r0, r2
10004354:	60f9      	str	r1, [r7, #12]
10004356:	60b9      	str	r1, [r7, #8]
10004358:	6048      	str	r0, [r1, #4]
1000435a:	60cf      	str	r7, [r1, #12]
1000435c:	0030      	movs	r0, r6
1000435e:	608f      	str	r7, [r1, #8]
10004360:	50e2      	str	r2, [r4, r3]
10004362:	f000 fa09 	bl	10004778 <__malloc_unlock>
10004366:	0020      	movs	r0, r4
10004368:	3008      	adds	r0, #8
1000436a:	e002      	b.n	10004372 <_malloc_r+0x18a>
1000436c:	230c      	movs	r3, #12
1000436e:	2000      	movs	r0, #0
10004370:	6033      	str	r3, [r6, #0]
10004372:	b003      	add	sp, #12
10004374:	bc3c      	pop	{r2, r3, r4, r5}
10004376:	4690      	mov	r8, r2
10004378:	4699      	mov	r9, r3
1000437a:	46a2      	mov	sl, r4
1000437c:	46ab      	mov	fp, r5
1000437e:	bdf0      	pop	{r4, r5, r6, r7, pc}
10004380:	2180      	movs	r1, #128	; 0x80
10004382:	233f      	movs	r3, #63	; 0x3f
10004384:	2040      	movs	r0, #64	; 0x40
10004386:	4698      	mov	r8, r3
10004388:	0089      	lsls	r1, r1, #2
1000438a:	e776      	b.n	1000427a <_malloc_r+0x92>
1000438c:	68dc      	ldr	r4, [r3, #12]
1000438e:	3002      	adds	r0, #2
10004390:	42a3      	cmp	r3, r4
10004392:	d000      	beq.n	10004396 <_malloc_r+0x1ae>
10004394:	e744      	b.n	10004220 <_malloc_r+0x38>
10004396:	003a      	movs	r2, r7
10004398:	693c      	ldr	r4, [r7, #16]
1000439a:	3208      	adds	r2, #8
1000439c:	4294      	cmp	r4, r2
1000439e:	d000      	beq.n	100043a2 <_malloc_r+0x1ba>
100043a0:	e786      	b.n	100042b0 <_malloc_r+0xc8>
100043a2:	2101      	movs	r1, #1
100043a4:	687b      	ldr	r3, [r7, #4]
100043a6:	1082      	asrs	r2, r0, #2
100043a8:	4091      	lsls	r1, r2
100043aa:	4299      	cmp	r1, r3
100043ac:	d9a5      	bls.n	100042fa <_malloc_r+0x112>
100043ae:	2303      	movs	r3, #3
100043b0:	68bc      	ldr	r4, [r7, #8]
100043b2:	6862      	ldr	r2, [r4, #4]
100043b4:	439a      	bics	r2, r3
100043b6:	4691      	mov	r9, r2
100043b8:	4295      	cmp	r5, r2
100043ba:	d803      	bhi.n	100043c4 <_malloc_r+0x1dc>
100043bc:	1b53      	subs	r3, r2, r5
100043be:	2b0f      	cmp	r3, #15
100043c0:	dd00      	ble.n	100043c4 <_malloc_r+0x1dc>
100043c2:	e088      	b.n	100044d6 <_malloc_r+0x2ee>
100043c4:	0023      	movs	r3, r4
100043c6:	444b      	add	r3, r9
100043c8:	4a5e      	ldr	r2, [pc, #376]	; (10004544 <_malloc_r+0x35c>)
100043ca:	9301      	str	r3, [sp, #4]
100043cc:	4b5e      	ldr	r3, [pc, #376]	; (10004548 <_malloc_r+0x360>)
100043ce:	4693      	mov	fp, r2
100043d0:	681b      	ldr	r3, [r3, #0]
100043d2:	6812      	ldr	r2, [r2, #0]
100043d4:	18eb      	adds	r3, r5, r3
100043d6:	3201      	adds	r2, #1
100043d8:	d100      	bne.n	100043dc <_malloc_r+0x1f4>
100043da:	e13b      	b.n	10004654 <_malloc_r+0x46c>
100043dc:	4a5b      	ldr	r2, [pc, #364]	; (1000454c <_malloc_r+0x364>)
100043de:	4694      	mov	ip, r2
100043e0:	4463      	add	r3, ip
100043e2:	0b1b      	lsrs	r3, r3, #12
100043e4:	031b      	lsls	r3, r3, #12
100043e6:	9300      	str	r3, [sp, #0]
100043e8:	0030      	movs	r0, r6
100043ea:	9900      	ldr	r1, [sp, #0]
100043ec:	f000 f9e6 	bl	100047bc <_sbrk_r>
100043f0:	0003      	movs	r3, r0
100043f2:	4680      	mov	r8, r0
100043f4:	3301      	adds	r3, #1
100043f6:	d100      	bne.n	100043fa <_malloc_r+0x212>
100043f8:	e0f8      	b.n	100045ec <_malloc_r+0x404>
100043fa:	9b01      	ldr	r3, [sp, #4]
100043fc:	4283      	cmp	r3, r0
100043fe:	d900      	bls.n	10004402 <_malloc_r+0x21a>
10004400:	e0f2      	b.n	100045e8 <_malloc_r+0x400>
10004402:	4b53      	ldr	r3, [pc, #332]	; (10004550 <_malloc_r+0x368>)
10004404:	0019      	movs	r1, r3
10004406:	469a      	mov	sl, r3
10004408:	6809      	ldr	r1, [r1, #0]
1000440a:	9b00      	ldr	r3, [sp, #0]
1000440c:	468c      	mov	ip, r1
1000440e:	4651      	mov	r1, sl
10004410:	4463      	add	r3, ip
10004412:	600b      	str	r3, [r1, #0]
10004414:	9901      	ldr	r1, [sp, #4]
10004416:	001a      	movs	r2, r3
10004418:	4281      	cmp	r1, r0
1000441a:	d100      	bne.n	1000441e <_malloc_r+0x236>
1000441c:	e150      	b.n	100046c0 <_malloc_r+0x4d8>
1000441e:	465b      	mov	r3, fp
10004420:	681b      	ldr	r3, [r3, #0]
10004422:	3301      	adds	r3, #1
10004424:	d100      	bne.n	10004428 <_malloc_r+0x240>
10004426:	e155      	b.n	100046d4 <_malloc_r+0x4ec>
10004428:	4643      	mov	r3, r8
1000442a:	9901      	ldr	r1, [sp, #4]
1000442c:	1a5b      	subs	r3, r3, r1
1000442e:	189a      	adds	r2, r3, r2
10004430:	4653      	mov	r3, sl
10004432:	601a      	str	r2, [r3, #0]
10004434:	2307      	movs	r3, #7
10004436:	4642      	mov	r2, r8
10004438:	4641      	mov	r1, r8
1000443a:	401a      	ands	r2, r3
1000443c:	9201      	str	r2, [sp, #4]
1000443e:	4219      	tst	r1, r3
10004440:	d100      	bne.n	10004444 <_malloc_r+0x25c>
10004442:	e111      	b.n	10004668 <_malloc_r+0x480>
10004444:	2308      	movs	r3, #8
10004446:	4698      	mov	r8, r3
10004448:	1a88      	subs	r0, r1, r2
1000444a:	4b42      	ldr	r3, [pc, #264]	; (10004554 <_malloc_r+0x36c>)
1000444c:	9900      	ldr	r1, [sp, #0]
1000444e:	4480      	add	r8, r0
10004450:	4441      	add	r1, r8
10004452:	1a9b      	subs	r3, r3, r2
10004454:	1a5b      	subs	r3, r3, r1
10004456:	051b      	lsls	r3, r3, #20
10004458:	0d1b      	lsrs	r3, r3, #20
1000445a:	9100      	str	r1, [sp, #0]
1000445c:	0030      	movs	r0, r6
1000445e:	0019      	movs	r1, r3
10004460:	469b      	mov	fp, r3
10004462:	f000 f9ab 	bl	100047bc <_sbrk_r>
10004466:	1c43      	adds	r3, r0, #1
10004468:	d100      	bne.n	1000446c <_malloc_r+0x284>
1000446a:	e14f      	b.n	1000470c <_malloc_r+0x524>
1000446c:	4643      	mov	r3, r8
1000446e:	1ac0      	subs	r0, r0, r3
10004470:	0003      	movs	r3, r0
10004472:	445b      	add	r3, fp
10004474:	9300      	str	r3, [sp, #0]
10004476:	4653      	mov	r3, sl
10004478:	4652      	mov	r2, sl
1000447a:	681b      	ldr	r3, [r3, #0]
1000447c:	2101      	movs	r1, #1
1000447e:	445b      	add	r3, fp
10004480:	6013      	str	r3, [r2, #0]
10004482:	4642      	mov	r2, r8
10004484:	4640      	mov	r0, r8
10004486:	60ba      	str	r2, [r7, #8]
10004488:	9a00      	ldr	r2, [sp, #0]
1000448a:	430a      	orrs	r2, r1
1000448c:	6042      	str	r2, [r0, #4]
1000448e:	42bc      	cmp	r4, r7
10004490:	d100      	bne.n	10004494 <_malloc_r+0x2ac>
10004492:	e123      	b.n	100046dc <_malloc_r+0x4f4>
10004494:	464a      	mov	r2, r9
10004496:	2a0f      	cmp	r2, #15
10004498:	d800      	bhi.n	1000449c <_malloc_r+0x2b4>
1000449a:	e121      	b.n	100046e0 <_malloc_r+0x4f8>
1000449c:	2007      	movs	r0, #7
1000449e:	3a0c      	subs	r2, #12
100044a0:	4382      	bics	r2, r0
100044a2:	6860      	ldr	r0, [r4, #4]
100044a4:	4001      	ands	r1, r0
100044a6:	2005      	movs	r0, #5
100044a8:	4311      	orrs	r1, r2
100044aa:	6061      	str	r1, [r4, #4]
100044ac:	18a1      	adds	r1, r4, r2
100044ae:	6048      	str	r0, [r1, #4]
100044b0:	6088      	str	r0, [r1, #8]
100044b2:	2a0f      	cmp	r2, #15
100044b4:	d900      	bls.n	100044b8 <_malloc_r+0x2d0>
100044b6:	e134      	b.n	10004722 <_malloc_r+0x53a>
100044b8:	4642      	mov	r2, r8
100044ba:	4644      	mov	r4, r8
100044bc:	6852      	ldr	r2, [r2, #4]
100044be:	4926      	ldr	r1, [pc, #152]	; (10004558 <_malloc_r+0x370>)
100044c0:	6808      	ldr	r0, [r1, #0]
100044c2:	4298      	cmp	r0, r3
100044c4:	d200      	bcs.n	100044c8 <_malloc_r+0x2e0>
100044c6:	600b      	str	r3, [r1, #0]
100044c8:	4924      	ldr	r1, [pc, #144]	; (1000455c <_malloc_r+0x374>)
100044ca:	6808      	ldr	r0, [r1, #0]
100044cc:	4298      	cmp	r0, r3
100044ce:	d300      	bcc.n	100044d2 <_malloc_r+0x2ea>
100044d0:	e08e      	b.n	100045f0 <_malloc_r+0x408>
100044d2:	600b      	str	r3, [r1, #0]
100044d4:	e08c      	b.n	100045f0 <_malloc_r+0x408>
100044d6:	2201      	movs	r2, #1
100044d8:	0029      	movs	r1, r5
100044da:	4313      	orrs	r3, r2
100044dc:	4311      	orrs	r1, r2
100044de:	1965      	adds	r5, r4, r5
100044e0:	6061      	str	r1, [r4, #4]
100044e2:	0030      	movs	r0, r6
100044e4:	60bd      	str	r5, [r7, #8]
100044e6:	606b      	str	r3, [r5, #4]
100044e8:	f000 f946 	bl	10004778 <__malloc_unlock>
100044ec:	0020      	movs	r0, r4
100044ee:	3008      	adds	r0, #8
100044f0:	e73f      	b.n	10004372 <_malloc_r+0x18a>
100044f2:	0a5a      	lsrs	r2, r3, #9
100044f4:	2a04      	cmp	r2, #4
100044f6:	d971      	bls.n	100045dc <_malloc_r+0x3f4>
100044f8:	2a14      	cmp	r2, #20
100044fa:	d900      	bls.n	100044fe <_malloc_r+0x316>
100044fc:	e0c4      	b.n	10004688 <_malloc_r+0x4a0>
100044fe:	0011      	movs	r1, r2
10004500:	325c      	adds	r2, #92	; 0x5c
10004502:	315b      	adds	r1, #91	; 0x5b
10004504:	00d2      	lsls	r2, r2, #3
10004506:	2308      	movs	r3, #8
10004508:	425b      	negs	r3, r3
1000450a:	469c      	mov	ip, r3
1000450c:	18ba      	adds	r2, r7, r2
1000450e:	4494      	add	ip, r2
10004510:	4663      	mov	r3, ip
10004512:	689a      	ldr	r2, [r3, #8]
10004514:	2303      	movs	r3, #3
10004516:	4698      	mov	r8, r3
10004518:	4594      	cmp	ip, r2
1000451a:	d100      	bne.n	1000451e <_malloc_r+0x336>
1000451c:	e09d      	b.n	1000465a <_malloc_r+0x472>
1000451e:	4643      	mov	r3, r8
10004520:	6851      	ldr	r1, [r2, #4]
10004522:	4399      	bics	r1, r3
10004524:	4549      	cmp	r1, r9
10004526:	d902      	bls.n	1000452e <_malloc_r+0x346>
10004528:	6892      	ldr	r2, [r2, #8]
1000452a:	4594      	cmp	ip, r2
1000452c:	d1f7      	bne.n	1000451e <_malloc_r+0x336>
1000452e:	68d3      	ldr	r3, [r2, #12]
10004530:	469c      	mov	ip, r3
10004532:	687b      	ldr	r3, [r7, #4]
10004534:	4661      	mov	r1, ip
10004536:	60a2      	str	r2, [r4, #8]
10004538:	60e1      	str	r1, [r4, #12]
1000453a:	608c      	str	r4, [r1, #8]
1000453c:	60d4      	str	r4, [r2, #12]
1000453e:	e6d7      	b.n	100042f0 <_malloc_r+0x108>
10004540:	20000780 	.word	0x20000780
10004544:	20000b88 	.word	0x20000b88
10004548:	20000bf8 	.word	0x20000bf8
1000454c:	0000100f 	.word	0x0000100f
10004550:	20000bc8 	.word	0x20000bc8
10004554:	00001008 	.word	0x00001008
10004558:	20000bf0 	.word	0x20000bf0
1000455c:	20000bf4 	.word	0x20000bf4
10004560:	2814      	cmp	r0, #20
10004562:	d952      	bls.n	1000460a <_malloc_r+0x422>
10004564:	2854      	cmp	r0, #84	; 0x54
10004566:	d900      	bls.n	1000456a <_malloc_r+0x382>
10004568:	e096      	b.n	10004698 <_malloc_r+0x4b0>
1000456a:	236e      	movs	r3, #110	; 0x6e
1000456c:	4698      	mov	r8, r3
1000456e:	0b28      	lsrs	r0, r5, #12
10004570:	4480      	add	r8, r0
10004572:	306f      	adds	r0, #111	; 0x6f
10004574:	00c1      	lsls	r1, r0, #3
10004576:	e680      	b.n	1000427a <_malloc_r+0x92>
10004578:	2308      	movs	r3, #8
1000457a:	469b      	mov	fp, r3
1000457c:	3b07      	subs	r3, #7
1000457e:	44dc      	add	ip, fp
10004580:	469b      	mov	fp, r3
10004582:	44da      	add	sl, fp
10004584:	4643      	mov	r3, r8
10004586:	4652      	mov	r2, sl
10004588:	4213      	tst	r3, r2
1000458a:	d000      	beq.n	1000458e <_malloc_r+0x3a6>
1000458c:	e6c4      	b.n	10004318 <_malloc_r+0x130>
1000458e:	e04c      	b.n	1000462a <_malloc_r+0x442>
10004590:	2201      	movs	r2, #1
10004592:	18e3      	adds	r3, r4, r3
10004594:	6859      	ldr	r1, [r3, #4]
10004596:	0030      	movs	r0, r6
10004598:	430a      	orrs	r2, r1
1000459a:	605a      	str	r2, [r3, #4]
1000459c:	68e3      	ldr	r3, [r4, #12]
1000459e:	68a2      	ldr	r2, [r4, #8]
100045a0:	60d3      	str	r3, [r2, #12]
100045a2:	609a      	str	r2, [r3, #8]
100045a4:	f000 f8e8 	bl	10004778 <__malloc_unlock>
100045a8:	0020      	movs	r0, r4
100045aa:	3008      	adds	r0, #8
100045ac:	e6e1      	b.n	10004372 <_malloc_r+0x18a>
100045ae:	002b      	movs	r3, r5
100045b0:	08e8      	lsrs	r0, r5, #3
100045b2:	3308      	adds	r3, #8
100045b4:	e62c      	b.n	10004210 <_malloc_r+0x28>
100045b6:	2301      	movs	r3, #1
100045b8:	1960      	adds	r0, r4, r5
100045ba:	431d      	orrs	r5, r3
100045bc:	6065      	str	r5, [r4, #4]
100045be:	6178      	str	r0, [r7, #20]
100045c0:	6138      	str	r0, [r7, #16]
100045c2:	60c2      	str	r2, [r0, #12]
100045c4:	6082      	str	r2, [r0, #8]
100045c6:	001a      	movs	r2, r3
100045c8:	464b      	mov	r3, r9
100045ca:	430a      	orrs	r2, r1
100045cc:	6042      	str	r2, [r0, #4]
100045ce:	0030      	movs	r0, r6
100045d0:	50e1      	str	r1, [r4, r3]
100045d2:	f000 f8d1 	bl	10004778 <__malloc_unlock>
100045d6:	0020      	movs	r0, r4
100045d8:	3008      	adds	r0, #8
100045da:	e6ca      	b.n	10004372 <_malloc_r+0x18a>
100045dc:	099a      	lsrs	r2, r3, #6
100045de:	0011      	movs	r1, r2
100045e0:	3239      	adds	r2, #57	; 0x39
100045e2:	3138      	adds	r1, #56	; 0x38
100045e4:	00d2      	lsls	r2, r2, #3
100045e6:	e78e      	b.n	10004506 <_malloc_r+0x31e>
100045e8:	42bc      	cmp	r4, r7
100045ea:	d060      	beq.n	100046ae <_malloc_r+0x4c6>
100045ec:	68bc      	ldr	r4, [r7, #8]
100045ee:	6862      	ldr	r2, [r4, #4]
100045f0:	2303      	movs	r3, #3
100045f2:	439a      	bics	r2, r3
100045f4:	1b53      	subs	r3, r2, r5
100045f6:	4295      	cmp	r5, r2
100045f8:	d802      	bhi.n	10004600 <_malloc_r+0x418>
100045fa:	2b0f      	cmp	r3, #15
100045fc:	dd00      	ble.n	10004600 <_malloc_r+0x418>
100045fe:	e76a      	b.n	100044d6 <_malloc_r+0x2ee>
10004600:	0030      	movs	r0, r6
10004602:	f000 f8b9 	bl	10004778 <__malloc_unlock>
10004606:	2000      	movs	r0, #0
10004608:	e6b3      	b.n	10004372 <_malloc_r+0x18a>
1000460a:	235b      	movs	r3, #91	; 0x5b
1000460c:	4698      	mov	r8, r3
1000460e:	4480      	add	r8, r0
10004610:	305c      	adds	r0, #92	; 0x5c
10004612:	00c1      	lsls	r1, r0, #3
10004614:	e631      	b.n	1000427a <_malloc_r+0x92>
10004616:	2308      	movs	r3, #8
10004618:	425b      	negs	r3, r3
1000461a:	469c      	mov	ip, r3
1000461c:	44e1      	add	r9, ip
1000461e:	464b      	mov	r3, r9
10004620:	689b      	ldr	r3, [r3, #8]
10004622:	3801      	subs	r0, #1
10004624:	454b      	cmp	r3, r9
10004626:	d000      	beq.n	1000462a <_malloc_r+0x442>
10004628:	e098      	b.n	1000475c <_malloc_r+0x574>
1000462a:	4643      	mov	r3, r8
1000462c:	4203      	tst	r3, r0
1000462e:	d1f2      	bne.n	10004616 <_malloc_r+0x42e>
10004630:	687b      	ldr	r3, [r7, #4]
10004632:	438b      	bics	r3, r1
10004634:	607b      	str	r3, [r7, #4]
10004636:	0049      	lsls	r1, r1, #1
10004638:	4299      	cmp	r1, r3
1000463a:	d900      	bls.n	1000463e <_malloc_r+0x456>
1000463c:	e6b7      	b.n	100043ae <_malloc_r+0x1c6>
1000463e:	2900      	cmp	r1, #0
10004640:	d104      	bne.n	1000464c <_malloc_r+0x464>
10004642:	e6b4      	b.n	100043ae <_malloc_r+0x1c6>
10004644:	2204      	movs	r2, #4
10004646:	4694      	mov	ip, r2
10004648:	0049      	lsls	r1, r1, #1
1000464a:	44e2      	add	sl, ip
1000464c:	420b      	tst	r3, r1
1000464e:	d0f9      	beq.n	10004644 <_malloc_r+0x45c>
10004650:	4650      	mov	r0, sl
10004652:	e65c      	b.n	1000430e <_malloc_r+0x126>
10004654:	3310      	adds	r3, #16
10004656:	9300      	str	r3, [sp, #0]
10004658:	e6c6      	b.n	100043e8 <_malloc_r+0x200>
1000465a:	1089      	asrs	r1, r1, #2
1000465c:	3b02      	subs	r3, #2
1000465e:	408b      	lsls	r3, r1
10004660:	6879      	ldr	r1, [r7, #4]
10004662:	430b      	orrs	r3, r1
10004664:	607b      	str	r3, [r7, #4]
10004666:	e765      	b.n	10004534 <_malloc_r+0x34c>
10004668:	9b00      	ldr	r3, [sp, #0]
1000466a:	0030      	movs	r0, r6
1000466c:	4443      	add	r3, r8
1000466e:	425b      	negs	r3, r3
10004670:	051b      	lsls	r3, r3, #20
10004672:	0d1b      	lsrs	r3, r3, #20
10004674:	0019      	movs	r1, r3
10004676:	469b      	mov	fp, r3
10004678:	f000 f8a0 	bl	100047bc <_sbrk_r>
1000467c:	1c43      	adds	r3, r0, #1
1000467e:	d000      	beq.n	10004682 <_malloc_r+0x49a>
10004680:	e6f4      	b.n	1000446c <_malloc_r+0x284>
10004682:	2300      	movs	r3, #0
10004684:	469b      	mov	fp, r3
10004686:	e6f6      	b.n	10004476 <_malloc_r+0x28e>
10004688:	2a54      	cmp	r2, #84	; 0x54
1000468a:	d82b      	bhi.n	100046e4 <_malloc_r+0x4fc>
1000468c:	0b1a      	lsrs	r2, r3, #12
1000468e:	0011      	movs	r1, r2
10004690:	326f      	adds	r2, #111	; 0x6f
10004692:	316e      	adds	r1, #110	; 0x6e
10004694:	00d2      	lsls	r2, r2, #3
10004696:	e736      	b.n	10004506 <_malloc_r+0x31e>
10004698:	23aa      	movs	r3, #170	; 0xaa
1000469a:	005b      	lsls	r3, r3, #1
1000469c:	4298      	cmp	r0, r3
1000469e:	d82b      	bhi.n	100046f8 <_malloc_r+0x510>
100046a0:	3bdd      	subs	r3, #221	; 0xdd
100046a2:	4698      	mov	r8, r3
100046a4:	0be8      	lsrs	r0, r5, #15
100046a6:	4480      	add	r8, r0
100046a8:	3078      	adds	r0, #120	; 0x78
100046aa:	00c1      	lsls	r1, r0, #3
100046ac:	e5e5      	b.n	1000427a <_malloc_r+0x92>
100046ae:	4b2c      	ldr	r3, [pc, #176]	; (10004760 <_malloc_r+0x578>)
100046b0:	9a00      	ldr	r2, [sp, #0]
100046b2:	469a      	mov	sl, r3
100046b4:	681b      	ldr	r3, [r3, #0]
100046b6:	469c      	mov	ip, r3
100046b8:	4653      	mov	r3, sl
100046ba:	4462      	add	r2, ip
100046bc:	601a      	str	r2, [r3, #0]
100046be:	e6ae      	b.n	1000441e <_malloc_r+0x236>
100046c0:	0509      	lsls	r1, r1, #20
100046c2:	d000      	beq.n	100046c6 <_malloc_r+0x4de>
100046c4:	e6ab      	b.n	1000441e <_malloc_r+0x236>
100046c6:	9a00      	ldr	r2, [sp, #0]
100046c8:	68bc      	ldr	r4, [r7, #8]
100046ca:	444a      	add	r2, r9
100046cc:	3101      	adds	r1, #1
100046ce:	430a      	orrs	r2, r1
100046d0:	6062      	str	r2, [r4, #4]
100046d2:	e6f4      	b.n	100044be <_malloc_r+0x2d6>
100046d4:	465b      	mov	r3, fp
100046d6:	4642      	mov	r2, r8
100046d8:	601a      	str	r2, [r3, #0]
100046da:	e6ab      	b.n	10004434 <_malloc_r+0x24c>
100046dc:	4644      	mov	r4, r8
100046de:	e6ee      	b.n	100044be <_malloc_r+0x2d6>
100046e0:	6041      	str	r1, [r0, #4]
100046e2:	e78d      	b.n	10004600 <_malloc_r+0x418>
100046e4:	21aa      	movs	r1, #170	; 0xaa
100046e6:	0049      	lsls	r1, r1, #1
100046e8:	428a      	cmp	r2, r1
100046ea:	d824      	bhi.n	10004736 <_malloc_r+0x54e>
100046ec:	0bda      	lsrs	r2, r3, #15
100046ee:	0011      	movs	r1, r2
100046f0:	3278      	adds	r2, #120	; 0x78
100046f2:	3177      	adds	r1, #119	; 0x77
100046f4:	00d2      	lsls	r2, r2, #3
100046f6:	e706      	b.n	10004506 <_malloc_r+0x31e>
100046f8:	4b1a      	ldr	r3, [pc, #104]	; (10004764 <_malloc_r+0x57c>)
100046fa:	4298      	cmp	r0, r3
100046fc:	d824      	bhi.n	10004748 <_malloc_r+0x560>
100046fe:	237c      	movs	r3, #124	; 0x7c
10004700:	4698      	mov	r8, r3
10004702:	0ca8      	lsrs	r0, r5, #18
10004704:	4480      	add	r8, r0
10004706:	307d      	adds	r0, #125	; 0x7d
10004708:	00c1      	lsls	r1, r0, #3
1000470a:	e5b6      	b.n	1000427a <_malloc_r+0x92>
1000470c:	9a00      	ldr	r2, [sp, #0]
1000470e:	9b01      	ldr	r3, [sp, #4]
10004710:	4694      	mov	ip, r2
10004712:	4642      	mov	r2, r8
10004714:	3b08      	subs	r3, #8
10004716:	4463      	add	r3, ip
10004718:	1a9b      	subs	r3, r3, r2
1000471a:	9300      	str	r3, [sp, #0]
1000471c:	2300      	movs	r3, #0
1000471e:	469b      	mov	fp, r3
10004720:	e6a9      	b.n	10004476 <_malloc_r+0x28e>
10004722:	0021      	movs	r1, r4
10004724:	0030      	movs	r0, r6
10004726:	3108      	adds	r1, #8
10004728:	f000 f8d6 	bl	100048d8 <_free_r>
1000472c:	4653      	mov	r3, sl
1000472e:	68bc      	ldr	r4, [r7, #8]
10004730:	681b      	ldr	r3, [r3, #0]
10004732:	6862      	ldr	r2, [r4, #4]
10004734:	e6c3      	b.n	100044be <_malloc_r+0x2d6>
10004736:	490b      	ldr	r1, [pc, #44]	; (10004764 <_malloc_r+0x57c>)
10004738:	428a      	cmp	r2, r1
1000473a:	d80b      	bhi.n	10004754 <_malloc_r+0x56c>
1000473c:	0c9a      	lsrs	r2, r3, #18
1000473e:	0011      	movs	r1, r2
10004740:	327d      	adds	r2, #125	; 0x7d
10004742:	317c      	adds	r1, #124	; 0x7c
10004744:	00d2      	lsls	r2, r2, #3
10004746:	e6de      	b.n	10004506 <_malloc_r+0x31e>
10004748:	21fe      	movs	r1, #254	; 0xfe
1000474a:	237e      	movs	r3, #126	; 0x7e
1000474c:	207f      	movs	r0, #127	; 0x7f
1000474e:	4698      	mov	r8, r3
10004750:	0089      	lsls	r1, r1, #2
10004752:	e592      	b.n	1000427a <_malloc_r+0x92>
10004754:	22fe      	movs	r2, #254	; 0xfe
10004756:	217e      	movs	r1, #126	; 0x7e
10004758:	0092      	lsls	r2, r2, #2
1000475a:	e6d4      	b.n	10004506 <_malloc_r+0x31e>
1000475c:	687b      	ldr	r3, [r7, #4]
1000475e:	e76a      	b.n	10004636 <_malloc_r+0x44e>
10004760:	20000bc8 	.word	0x20000bc8
10004764:	00000554 	.word	0x00000554

10004768 <__malloc_lock>:
10004768:	b510      	push	{r4, lr}
1000476a:	4802      	ldr	r0, [pc, #8]	; (10004774 <__malloc_lock+0xc>)
1000476c:	f000 f996 	bl	10004a9c <__retarget_lock_acquire_recursive>
10004770:	bd10      	pop	{r4, pc}
10004772:	46c0      	nop			; (mov r8, r8)
10004774:	20000f84 	.word	0x20000f84

10004778 <__malloc_unlock>:
10004778:	b510      	push	{r4, lr}
1000477a:	4802      	ldr	r0, [pc, #8]	; (10004784 <__malloc_unlock+0xc>)
1000477c:	f000 f990 	bl	10004aa0 <__retarget_lock_release_recursive>
10004780:	bd10      	pop	{r4, pc}
10004782:	46c0      	nop			; (mov r8, r8)
10004784:	20000f84 	.word	0x20000f84

10004788 <rand>:
10004788:	4b09      	ldr	r3, [pc, #36]	; (100047b0 <rand+0x28>)
1000478a:	b510      	push	{r4, lr}
1000478c:	681c      	ldr	r4, [r3, #0]
1000478e:	4a09      	ldr	r2, [pc, #36]	; (100047b4 <rand+0x2c>)
10004790:	34a8      	adds	r4, #168	; 0xa8
10004792:	6820      	ldr	r0, [r4, #0]
10004794:	6861      	ldr	r1, [r4, #4]
10004796:	4b08      	ldr	r3, [pc, #32]	; (100047b8 <rand+0x30>)
10004798:	f7ff fa3e 	bl	10003c18 <__wrap___aeabi_lmul>
1000479c:	2201      	movs	r2, #1
1000479e:	2300      	movs	r3, #0
100047a0:	1880      	adds	r0, r0, r2
100047a2:	4159      	adcs	r1, r3
100047a4:	6020      	str	r0, [r4, #0]
100047a6:	6061      	str	r1, [r4, #4]
100047a8:	0048      	lsls	r0, r1, #1
100047aa:	0840      	lsrs	r0, r0, #1
100047ac:	bd10      	pop	{r4, pc}
100047ae:	46c0      	nop			; (mov r8, r8)
100047b0:	20000354 	.word	0x20000354
100047b4:	4c957f2d 	.word	0x4c957f2d
100047b8:	5851f42d 	.word	0x5851f42d

100047bc <_sbrk_r>:
100047bc:	2300      	movs	r3, #0
100047be:	b570      	push	{r4, r5, r6, lr}
100047c0:	4d06      	ldr	r5, [pc, #24]	; (100047dc <_sbrk_r+0x20>)
100047c2:	0004      	movs	r4, r0
100047c4:	0008      	movs	r0, r1
100047c6:	602b      	str	r3, [r5, #0]
100047c8:	f7fc fcb0 	bl	1000112c <_sbrk>
100047cc:	1c43      	adds	r3, r0, #1
100047ce:	d000      	beq.n	100047d2 <_sbrk_r+0x16>
100047d0:	bd70      	pop	{r4, r5, r6, pc}
100047d2:	682b      	ldr	r3, [r5, #0]
100047d4:	2b00      	cmp	r3, #0
100047d6:	d0fb      	beq.n	100047d0 <_sbrk_r+0x14>
100047d8:	6023      	str	r3, [r4, #0]
100047da:	e7f9      	b.n	100047d0 <_sbrk_r+0x14>
100047dc:	20000f98 	.word	0x20000f98

100047e0 <strlen>:
100047e0:	b510      	push	{r4, lr}
100047e2:	0783      	lsls	r3, r0, #30
100047e4:	d00a      	beq.n	100047fc <strlen+0x1c>
100047e6:	0003      	movs	r3, r0
100047e8:	2103      	movs	r1, #3
100047ea:	e002      	b.n	100047f2 <strlen+0x12>
100047ec:	3301      	adds	r3, #1
100047ee:	420b      	tst	r3, r1
100047f0:	d005      	beq.n	100047fe <strlen+0x1e>
100047f2:	781a      	ldrb	r2, [r3, #0]
100047f4:	2a00      	cmp	r2, #0
100047f6:	d1f9      	bne.n	100047ec <strlen+0xc>
100047f8:	1a18      	subs	r0, r3, r0
100047fa:	bd10      	pop	{r4, pc}
100047fc:	0003      	movs	r3, r0
100047fe:	6819      	ldr	r1, [r3, #0]
10004800:	4a0c      	ldr	r2, [pc, #48]	; (10004834 <strlen+0x54>)
10004802:	4c0d      	ldr	r4, [pc, #52]	; (10004838 <strlen+0x58>)
10004804:	188a      	adds	r2, r1, r2
10004806:	438a      	bics	r2, r1
10004808:	4222      	tst	r2, r4
1000480a:	d10f      	bne.n	1000482c <strlen+0x4c>
1000480c:	6859      	ldr	r1, [r3, #4]
1000480e:	4a09      	ldr	r2, [pc, #36]	; (10004834 <strlen+0x54>)
10004810:	3304      	adds	r3, #4
10004812:	188a      	adds	r2, r1, r2
10004814:	438a      	bics	r2, r1
10004816:	4222      	tst	r2, r4
10004818:	d108      	bne.n	1000482c <strlen+0x4c>
1000481a:	6859      	ldr	r1, [r3, #4]
1000481c:	4a05      	ldr	r2, [pc, #20]	; (10004834 <strlen+0x54>)
1000481e:	3304      	adds	r3, #4
10004820:	188a      	adds	r2, r1, r2
10004822:	438a      	bics	r2, r1
10004824:	4222      	tst	r2, r4
10004826:	d0f1      	beq.n	1000480c <strlen+0x2c>
10004828:	e000      	b.n	1000482c <strlen+0x4c>
1000482a:	3301      	adds	r3, #1
1000482c:	781a      	ldrb	r2, [r3, #0]
1000482e:	2a00      	cmp	r2, #0
10004830:	d1fb      	bne.n	1000482a <strlen+0x4a>
10004832:	e7e1      	b.n	100047f8 <strlen+0x18>
10004834:	fefefeff 	.word	0xfefefeff
10004838:	80808080 	.word	0x80808080

1000483c <_malloc_trim_r>:
1000483c:	b5f8      	push	{r3, r4, r5, r6, r7, lr}
1000483e:	000c      	movs	r4, r1
10004840:	0005      	movs	r5, r0
10004842:	f7ff ff91 	bl	10004768 <__malloc_lock>
10004846:	4f20      	ldr	r7, [pc, #128]	; (100048c8 <_malloc_trim_r+0x8c>)
10004848:	68bb      	ldr	r3, [r7, #8]
1000484a:	685e      	ldr	r6, [r3, #4]
1000484c:	2303      	movs	r3, #3
1000484e:	439e      	bics	r6, r3
10004850:	4b1e      	ldr	r3, [pc, #120]	; (100048cc <_malloc_trim_r+0x90>)
10004852:	1b34      	subs	r4, r6, r4
10004854:	469c      	mov	ip, r3
10004856:	4464      	add	r4, ip
10004858:	0b24      	lsrs	r4, r4, #12
1000485a:	3c01      	subs	r4, #1
1000485c:	3311      	adds	r3, #17
1000485e:	0324      	lsls	r4, r4, #12
10004860:	429c      	cmp	r4, r3
10004862:	db07      	blt.n	10004874 <_malloc_trim_r+0x38>
10004864:	2100      	movs	r1, #0
10004866:	0028      	movs	r0, r5
10004868:	f7ff ffa8 	bl	100047bc <_sbrk_r>
1000486c:	68bb      	ldr	r3, [r7, #8]
1000486e:	199b      	adds	r3, r3, r6
10004870:	4298      	cmp	r0, r3
10004872:	d004      	beq.n	1000487e <_malloc_trim_r+0x42>
10004874:	0028      	movs	r0, r5
10004876:	f7ff ff7f 	bl	10004778 <__malloc_unlock>
1000487a:	2000      	movs	r0, #0
1000487c:	bdf8      	pop	{r3, r4, r5, r6, r7, pc}
1000487e:	0028      	movs	r0, r5
10004880:	4261      	negs	r1, r4
10004882:	f7ff ff9b 	bl	100047bc <_sbrk_r>
10004886:	1c43      	adds	r3, r0, #1
10004888:	d00d      	beq.n	100048a6 <_malloc_trim_r+0x6a>
1000488a:	2201      	movs	r2, #1
1000488c:	68bb      	ldr	r3, [r7, #8]
1000488e:	1b36      	subs	r6, r6, r4
10004890:	4316      	orrs	r6, r2
10004892:	605e      	str	r6, [r3, #4]
10004894:	4b0e      	ldr	r3, [pc, #56]	; (100048d0 <_malloc_trim_r+0x94>)
10004896:	0028      	movs	r0, r5
10004898:	681a      	ldr	r2, [r3, #0]
1000489a:	1b14      	subs	r4, r2, r4
1000489c:	601c      	str	r4, [r3, #0]
1000489e:	f7ff ff6b 	bl	10004778 <__malloc_unlock>
100048a2:	2001      	movs	r0, #1
100048a4:	e7ea      	b.n	1000487c <_malloc_trim_r+0x40>
100048a6:	2100      	movs	r1, #0
100048a8:	0028      	movs	r0, r5
100048aa:	f7ff ff87 	bl	100047bc <_sbrk_r>
100048ae:	68ba      	ldr	r2, [r7, #8]
100048b0:	1a83      	subs	r3, r0, r2
100048b2:	2b0f      	cmp	r3, #15
100048b4:	ddde      	ble.n	10004874 <_malloc_trim_r+0x38>
100048b6:	4907      	ldr	r1, [pc, #28]	; (100048d4 <_malloc_trim_r+0x98>)
100048b8:	6809      	ldr	r1, [r1, #0]
100048ba:	1a40      	subs	r0, r0, r1
100048bc:	4904      	ldr	r1, [pc, #16]	; (100048d0 <_malloc_trim_r+0x94>)
100048be:	6008      	str	r0, [r1, #0]
100048c0:	2101      	movs	r1, #1
100048c2:	430b      	orrs	r3, r1
100048c4:	6053      	str	r3, [r2, #4]
100048c6:	e7d5      	b.n	10004874 <_malloc_trim_r+0x38>
100048c8:	20000780 	.word	0x20000780
100048cc:	00000fef 	.word	0x00000fef
100048d0:	20000bc8 	.word	0x20000bc8
100048d4:	20000b88 	.word	0x20000b88

100048d8 <_free_r>:
100048d8:	b5f0      	push	{r4, r5, r6, r7, lr}
100048da:	46c6      	mov	lr, r8
100048dc:	0005      	movs	r5, r0
100048de:	000c      	movs	r4, r1
100048e0:	b500      	push	{lr}
100048e2:	2900      	cmp	r1, #0
100048e4:	d04f      	beq.n	10004986 <_free_r+0xae>
100048e6:	f7ff ff3f 	bl	10004768 <__malloc_lock>
100048ea:	0021      	movs	r1, r4
100048ec:	3908      	subs	r1, #8
100048ee:	684c      	ldr	r4, [r1, #4]
100048f0:	2601      	movs	r6, #1
100048f2:	0022      	movs	r2, r4
100048f4:	2003      	movs	r0, #3
100048f6:	43b2      	bics	r2, r6
100048f8:	188f      	adds	r7, r1, r2
100048fa:	687b      	ldr	r3, [r7, #4]
100048fc:	4383      	bics	r3, r0
100048fe:	4862      	ldr	r0, [pc, #392]	; (10004a88 <_free_r+0x1b0>)
10004900:	4698      	mov	r8, r3
10004902:	6883      	ldr	r3, [r0, #8]
10004904:	42bb      	cmp	r3, r7
10004906:	d06b      	beq.n	100049e0 <_free_r+0x108>
10004908:	4643      	mov	r3, r8
1000490a:	607b      	str	r3, [r7, #4]
1000490c:	4226      	tst	r6, r4
1000490e:	d11e      	bne.n	1000494e <_free_r+0x76>
10004910:	2308      	movs	r3, #8
10004912:	469c      	mov	ip, r3
10004914:	680c      	ldr	r4, [r1, #0]
10004916:	4484      	add	ip, r0
10004918:	1b09      	subs	r1, r1, r4
1000491a:	1912      	adds	r2, r2, r4
1000491c:	688c      	ldr	r4, [r1, #8]
1000491e:	4564      	cmp	r4, ip
10004920:	d04f      	beq.n	100049c2 <_free_r+0xea>
10004922:	68cb      	ldr	r3, [r1, #12]
10004924:	60e3      	str	r3, [r4, #12]
10004926:	609c      	str	r4, [r3, #8]
10004928:	4643      	mov	r3, r8
1000492a:	18fc      	adds	r4, r7, r3
1000492c:	6864      	ldr	r4, [r4, #4]
1000492e:	4234      	tst	r4, r6
10004930:	d111      	bne.n	10004956 <_free_r+0x7e>
10004932:	68bb      	ldr	r3, [r7, #8]
10004934:	4c55      	ldr	r4, [pc, #340]	; (10004a8c <_free_r+0x1b4>)
10004936:	4442      	add	r2, r8
10004938:	42a3      	cmp	r3, r4
1000493a:	d100      	bne.n	1000493e <_free_r+0x66>
1000493c:	e07f      	b.n	10004a3e <_free_r+0x166>
1000493e:	68fc      	ldr	r4, [r7, #12]
10004940:	60dc      	str	r4, [r3, #12]
10004942:	60a3      	str	r3, [r4, #8]
10004944:	2301      	movs	r3, #1
10004946:	4313      	orrs	r3, r2
10004948:	604b      	str	r3, [r1, #4]
1000494a:	508a      	str	r2, [r1, r2]
1000494c:	e006      	b.n	1000495c <_free_r+0x84>
1000494e:	18fc      	adds	r4, r7, r3
10004950:	6864      	ldr	r4, [r4, #4]
10004952:	4234      	tst	r4, r6
10004954:	d0ed      	beq.n	10004932 <_free_r+0x5a>
10004956:	4316      	orrs	r6, r2
10004958:	604e      	str	r6, [r1, #4]
1000495a:	603a      	str	r2, [r7, #0]
1000495c:	2380      	movs	r3, #128	; 0x80
1000495e:	009b      	lsls	r3, r3, #2
10004960:	429a      	cmp	r2, r3
10004962:	d213      	bcs.n	1000498c <_free_r+0xb4>
10004964:	0954      	lsrs	r4, r2, #5
10004966:	08d3      	lsrs	r3, r2, #3
10004968:	2201      	movs	r2, #1
1000496a:	40a2      	lsls	r2, r4
1000496c:	6844      	ldr	r4, [r0, #4]
1000496e:	00db      	lsls	r3, r3, #3
10004970:	4322      	orrs	r2, r4
10004972:	6042      	str	r2, [r0, #4]
10004974:	1818      	adds	r0, r3, r0
10004976:	6883      	ldr	r3, [r0, #8]
10004978:	60c8      	str	r0, [r1, #12]
1000497a:	608b      	str	r3, [r1, #8]
1000497c:	6081      	str	r1, [r0, #8]
1000497e:	60d9      	str	r1, [r3, #12]
10004980:	0028      	movs	r0, r5
10004982:	f7ff fef9 	bl	10004778 <__malloc_unlock>
10004986:	bc04      	pop	{r2}
10004988:	4690      	mov	r8, r2
1000498a:	bdf0      	pop	{r4, r5, r6, r7, pc}
1000498c:	0a53      	lsrs	r3, r2, #9
1000498e:	2b04      	cmp	r3, #4
10004990:	d83f      	bhi.n	10004a12 <_free_r+0x13a>
10004992:	0994      	lsrs	r4, r2, #6
10004994:	0026      	movs	r6, r4
10004996:	3439      	adds	r4, #57	; 0x39
10004998:	3638      	adds	r6, #56	; 0x38
1000499a:	00e4      	lsls	r4, r4, #3
1000499c:	1904      	adds	r4, r0, r4
1000499e:	6823      	ldr	r3, [r4, #0]
100049a0:	3c08      	subs	r4, #8
100049a2:	2703      	movs	r7, #3
100049a4:	429c      	cmp	r4, r3
100049a6:	d043      	beq.n	10004a30 <_free_r+0x158>
100049a8:	6858      	ldr	r0, [r3, #4]
100049aa:	43b8      	bics	r0, r7
100049ac:	4290      	cmp	r0, r2
100049ae:	d902      	bls.n	100049b6 <_free_r+0xde>
100049b0:	689b      	ldr	r3, [r3, #8]
100049b2:	429c      	cmp	r4, r3
100049b4:	d1f8      	bne.n	100049a8 <_free_r+0xd0>
100049b6:	68dc      	ldr	r4, [r3, #12]
100049b8:	60cc      	str	r4, [r1, #12]
100049ba:	608b      	str	r3, [r1, #8]
100049bc:	60a1      	str	r1, [r4, #8]
100049be:	60d9      	str	r1, [r3, #12]
100049c0:	e7de      	b.n	10004980 <_free_r+0xa8>
100049c2:	4643      	mov	r3, r8
100049c4:	18f8      	adds	r0, r7, r3
100049c6:	6840      	ldr	r0, [r0, #4]
100049c8:	4230      	tst	r0, r6
100049ca:	d158      	bne.n	10004a7e <_free_r+0x1a6>
100049cc:	0013      	movs	r3, r2
100049ce:	68b8      	ldr	r0, [r7, #8]
100049d0:	68fa      	ldr	r2, [r7, #12]
100049d2:	4443      	add	r3, r8
100049d4:	431e      	orrs	r6, r3
100049d6:	60c2      	str	r2, [r0, #12]
100049d8:	6090      	str	r0, [r2, #8]
100049da:	604e      	str	r6, [r1, #4]
100049dc:	50cb      	str	r3, [r1, r3]
100049de:	e7cf      	b.n	10004980 <_free_r+0xa8>
100049e0:	0013      	movs	r3, r2
100049e2:	4443      	add	r3, r8
100049e4:	4226      	tst	r6, r4
100049e6:	d106      	bne.n	100049f6 <_free_r+0x11e>
100049e8:	680a      	ldr	r2, [r1, #0]
100049ea:	1a89      	subs	r1, r1, r2
100049ec:	688c      	ldr	r4, [r1, #8]
100049ee:	189b      	adds	r3, r3, r2
100049f0:	68ca      	ldr	r2, [r1, #12]
100049f2:	60e2      	str	r2, [r4, #12]
100049f4:	6094      	str	r4, [r2, #8]
100049f6:	2201      	movs	r2, #1
100049f8:	431a      	orrs	r2, r3
100049fa:	604a      	str	r2, [r1, #4]
100049fc:	4a24      	ldr	r2, [pc, #144]	; (10004a90 <_free_r+0x1b8>)
100049fe:	6081      	str	r1, [r0, #8]
10004a00:	6812      	ldr	r2, [r2, #0]
10004a02:	429a      	cmp	r2, r3
10004a04:	d8bc      	bhi.n	10004980 <_free_r+0xa8>
10004a06:	4b23      	ldr	r3, [pc, #140]	; (10004a94 <_free_r+0x1bc>)
10004a08:	0028      	movs	r0, r5
10004a0a:	6819      	ldr	r1, [r3, #0]
10004a0c:	f7ff ff16 	bl	1000483c <_malloc_trim_r>
10004a10:	e7b6      	b.n	10004980 <_free_r+0xa8>
10004a12:	2b14      	cmp	r3, #20
10004a14:	d907      	bls.n	10004a26 <_free_r+0x14e>
10004a16:	2b54      	cmp	r3, #84	; 0x54
10004a18:	d81a      	bhi.n	10004a50 <_free_r+0x178>
10004a1a:	0b14      	lsrs	r4, r2, #12
10004a1c:	0026      	movs	r6, r4
10004a1e:	346f      	adds	r4, #111	; 0x6f
10004a20:	366e      	adds	r6, #110	; 0x6e
10004a22:	00e4      	lsls	r4, r4, #3
10004a24:	e7ba      	b.n	1000499c <_free_r+0xc4>
10004a26:	001e      	movs	r6, r3
10004a28:	335c      	adds	r3, #92	; 0x5c
10004a2a:	365b      	adds	r6, #91	; 0x5b
10004a2c:	00dc      	lsls	r4, r3, #3
10004a2e:	e7b5      	b.n	1000499c <_free_r+0xc4>
10004a30:	2201      	movs	r2, #1
10004a32:	10b6      	asrs	r6, r6, #2
10004a34:	40b2      	lsls	r2, r6
10004a36:	6846      	ldr	r6, [r0, #4]
10004a38:	4332      	orrs	r2, r6
10004a3a:	6042      	str	r2, [r0, #4]
10004a3c:	e7bc      	b.n	100049b8 <_free_r+0xe0>
10004a3e:	60d9      	str	r1, [r3, #12]
10004a40:	6099      	str	r1, [r3, #8]
10004a42:	60cb      	str	r3, [r1, #12]
10004a44:	608b      	str	r3, [r1, #8]
10004a46:	2301      	movs	r3, #1
10004a48:	4313      	orrs	r3, r2
10004a4a:	604b      	str	r3, [r1, #4]
10004a4c:	508a      	str	r2, [r1, r2]
10004a4e:	e797      	b.n	10004980 <_free_r+0xa8>
10004a50:	24aa      	movs	r4, #170	; 0xaa
10004a52:	0064      	lsls	r4, r4, #1
10004a54:	42a3      	cmp	r3, r4
10004a56:	d805      	bhi.n	10004a64 <_free_r+0x18c>
10004a58:	0bd4      	lsrs	r4, r2, #15
10004a5a:	0026      	movs	r6, r4
10004a5c:	3478      	adds	r4, #120	; 0x78
10004a5e:	3677      	adds	r6, #119	; 0x77
10004a60:	00e4      	lsls	r4, r4, #3
10004a62:	e79b      	b.n	1000499c <_free_r+0xc4>
10004a64:	4c0c      	ldr	r4, [pc, #48]	; (10004a98 <_free_r+0x1c0>)
10004a66:	42a3      	cmp	r3, r4
10004a68:	d805      	bhi.n	10004a76 <_free_r+0x19e>
10004a6a:	0c94      	lsrs	r4, r2, #18
10004a6c:	0026      	movs	r6, r4
10004a6e:	347d      	adds	r4, #125	; 0x7d
10004a70:	367c      	adds	r6, #124	; 0x7c
10004a72:	00e4      	lsls	r4, r4, #3
10004a74:	e792      	b.n	1000499c <_free_r+0xc4>
10004a76:	24fe      	movs	r4, #254	; 0xfe
10004a78:	267e      	movs	r6, #126	; 0x7e
10004a7a:	00a4      	lsls	r4, r4, #2
10004a7c:	e78e      	b.n	1000499c <_free_r+0xc4>
10004a7e:	0033      	movs	r3, r6
10004a80:	4313      	orrs	r3, r2
10004a82:	604b      	str	r3, [r1, #4]
10004a84:	603a      	str	r2, [r7, #0]
10004a86:	e77b      	b.n	10004980 <_free_r+0xa8>
10004a88:	20000780 	.word	0x20000780
10004a8c:	20000788 	.word	0x20000788
10004a90:	20000b8c 	.word	0x20000b8c
10004a94:	20000bf8 	.word	0x20000bf8
10004a98:	00000554 	.word	0x00000554

10004a9c <__retarget_lock_acquire_recursive>:
10004a9c:	4770      	bx	lr
10004a9e:	46c0      	nop			; (mov r8, r8)

10004aa0 <__retarget_lock_release_recursive>:
10004aa0:	4770      	bx	lr
10004aa2:	46c0      	nop			; (mov r8, r8)

10004aa4 <_fini>:
10004aa4:	b5f8      	push	{r3, r4, r5, r6, r7, lr}
10004aa6:	46c0      	nop			; (mov r8, r8)

10004aa8 <__mutex_exit_veneer>:
10004aa8:	b401      	push	{r0}
10004aaa:	4802      	ldr	r0, [pc, #8]	; (10004ab4 <__mutex_exit_veneer+0xc>)
10004aac:	4684      	mov	ip, r0
10004aae:	bc01      	pop	{r0}
10004ab0:	4760      	bx	ip
10004ab2:	bf00      	nop
10004ab4:	2000015d 	.word	0x2000015d

10004ab8 <____aeabi_ldiv0_veneer>:
10004ab8:	b401      	push	{r0}
10004aba:	4802      	ldr	r0, [pc, #8]	; (10004ac4 <____aeabi_ldiv0_veneer+0xc>)
10004abc:	4684      	mov	ip, r0
10004abe:	bc01      	pop	{r0}
10004ac0:	4760      	bx	ip
10004ac2:	bf00      	nop
10004ac4:	200002a5 	.word	0x200002a5

10004ac8 <__flash_range_program_veneer>:
10004ac8:	b401      	push	{r0}
10004aca:	4802      	ldr	r0, [pc, #8]	; (10004ad4 <__flash_range_program_veneer+0xc>)
10004acc:	4684      	mov	ip, r0
10004ace:	bc01      	pop	{r0}
10004ad0:	4760      	bx	ip
10004ad2:	bf00      	nop
10004ad4:	20000235 	.word	0x20000235

10004ad8 <____aeabi_idiv0_veneer>:
10004ad8:	b401      	push	{r0}
10004ada:	4802      	ldr	r0, [pc, #8]	; (10004ae4 <____aeabi_idiv0_veneer+0xc>)
10004adc:	4684      	mov	ip, r0
10004ade:	bc01      	pop	{r0}
10004ae0:	4760      	bx	ip
10004ae2:	bf00      	nop
10004ae4:	200002a5 	.word	0x200002a5

10004ae8 <__mutex_try_enter_veneer>:
10004ae8:	b401      	push	{r0}
10004aea:	4802      	ldr	r0, [pc, #8]	; (10004af4 <__mutex_try_enter_veneer+0xc>)
10004aec:	4684      	mov	ip, r0
10004aee:	bc01      	pop	{r0}
10004af0:	4760      	bx	ip
10004af2:	bf00      	nop
10004af4:	20000111 	.word	0x20000111

10004af8 <__flash_range_erase_veneer>:
10004af8:	b401      	push	{r0}
10004afa:	4802      	ldr	r0, [pc, #8]	; (10004b04 <__flash_range_erase_veneer+0xc>)
10004afc:	4684      	mov	ip, r0
10004afe:	bc01      	pop	{r0}
10004b00:	4760      	bx	ip
10004b02:	bf00      	nop
10004b04:	200001c5 	.word	0x200001c5

10004b08 <__mutex_enter_blocking_veneer>:
10004b08:	b401      	push	{r0}
10004b0a:	4802      	ldr	r0, [pc, #8]	; (10004b14 <__mutex_enter_blocking_veneer+0xc>)
10004b0c:	4684      	mov	ip, r0
10004b0e:	bc01      	pop	{r0}
10004b10:	4760      	bx	ip
10004b12:	bf00      	nop
10004b14:	200000c1 	.word	0x200000c1

Disassembly of section .data:

200000c0 <mutex_enter_blocking>:
200000c0:	b510      	push	{r4, lr}
200000c2:	6802      	ldr	r2, [r0, #0]
200000c4:	2400      	movs	r4, #0
200000c6:	f3ef 8110 	mrs	r1, PRIMASK
200000ca:	b672      	cpsid	i
200000cc:	6813      	ldr	r3, [r2, #0]
200000ce:	2b00      	cmp	r3, #0
200000d0:	d0fc      	beq.n	200000cc <mutex_enter_blocking+0xc>
200000d2:	f3bf 8f5f 	dmb	sy
200000d6:	7903      	ldrb	r3, [r0, #4]
200000d8:	2b00      	cmp	r3, #0
200000da:	d00b      	beq.n	200000f4 <mutex_enter_blocking+0x34>
200000dc:	6803      	ldr	r3, [r0, #0]
200000de:	f3bf 8f5f 	dmb	sy
200000e2:	601c      	str	r4, [r3, #0]
200000e4:	f381 8810 	msr	PRIMASK, r1
200000e8:	bf20      	wfe
200000ea:	6802      	ldr	r2, [r0, #0]
200000ec:	f3ef 8110 	mrs	r1, PRIMASK
200000f0:	b672      	cpsid	i
200000f2:	e7eb      	b.n	200000cc <mutex_enter_blocking+0xc>
200000f4:	2201      	movs	r2, #1
200000f6:	7102      	strb	r2, [r0, #4]
200000f8:	22d0      	movs	r2, #208	; 0xd0
200000fa:	0612      	lsls	r2, r2, #24
200000fc:	6812      	ldr	r2, [r2, #0]
200000fe:	7142      	strb	r2, [r0, #5]
20000100:	6802      	ldr	r2, [r0, #0]
20000102:	f3bf 8f5f 	dmb	sy
20000106:	6013      	str	r3, [r2, #0]
20000108:	f381 8810 	msr	PRIMASK, r1
2000010c:	bd10      	pop	{r4, pc}
2000010e:	46c0      	nop			; (mov r8, r8)

20000110 <mutex_try_enter>:
20000110:	0003      	movs	r3, r0
20000112:	b510      	push	{r4, lr}
20000114:	6800      	ldr	r0, [r0, #0]
20000116:	f3ef 8410 	mrs	r4, PRIMASK
2000011a:	b672      	cpsid	i
2000011c:	6802      	ldr	r2, [r0, #0]
2000011e:	2a00      	cmp	r2, #0
20000120:	d0fc      	beq.n	2000011c <mutex_try_enter+0xc>
20000122:	f3bf 8f5f 	dmb	sy
20000126:	791a      	ldrb	r2, [r3, #4]
20000128:	2a00      	cmp	r2, #0
2000012a:	d00d      	beq.n	20000148 <mutex_try_enter+0x38>
2000012c:	2900      	cmp	r1, #0
2000012e:	d013      	beq.n	20000158 <mutex_try_enter+0x48>
20000130:	2205      	movs	r2, #5
20000132:	2000      	movs	r0, #0
20000134:	569a      	ldrsb	r2, [r3, r2]
20000136:	600a      	str	r2, [r1, #0]
20000138:	681b      	ldr	r3, [r3, #0]
2000013a:	f3bf 8f5f 	dmb	sy
2000013e:	2200      	movs	r2, #0
20000140:	601a      	str	r2, [r3, #0]
20000142:	f384 8810 	msr	PRIMASK, r4
20000146:	bd10      	pop	{r4, pc}
20000148:	3201      	adds	r2, #1
2000014a:	711a      	strb	r2, [r3, #4]
2000014c:	22d0      	movs	r2, #208	; 0xd0
2000014e:	0612      	lsls	r2, r2, #24
20000150:	6812      	ldr	r2, [r2, #0]
20000152:	2001      	movs	r0, #1
20000154:	715a      	strb	r2, [r3, #5]
20000156:	e7ef      	b.n	20000138 <mutex_try_enter+0x28>
20000158:	2000      	movs	r0, #0
2000015a:	e7ed      	b.n	20000138 <mutex_try_enter+0x28>

2000015c <mutex_exit>:
2000015c:	6802      	ldr	r2, [r0, #0]
2000015e:	f3ef 8110 	mrs	r1, PRIMASK
20000162:	b672      	cpsid	i
20000164:	6813      	ldr	r3, [r2, #0]
20000166:	2b00      	cmp	r3, #0
20000168:	d0fc      	beq.n	20000164 <mutex_exit+0x8>
2000016a:	f3bf 8f5f 	dmb	sy
2000016e:	2300      	movs	r3, #0
20000170:	7103      	strb	r3, [r0, #4]
20000172:	bf40      	sev
20000174:	6802      	ldr	r2, [r0, #0]
20000176:	f3bf 8f5f 	dmb	sy
2000017a:	6013      	str	r3, [r2, #0]
2000017c:	f381 8810 	msr	PRIMASK, r1
20000180:	4770      	bx	lr
20000182:	46c0      	nop			; (mov r8, r8)

20000184 <flash_init_boot2_copyout>:
20000184:	4808      	ldr	r0, [pc, #32]	; (200001a8 <flash_init_boot2_copyout+0x24>)
20000186:	b510      	push	{r4, lr}
20000188:	7803      	ldrb	r3, [r0, #0]
2000018a:	2b00      	cmp	r3, #0
2000018c:	d10a      	bne.n	200001a4 <flash_init_boot2_copyout+0x20>
2000018e:	2380      	movs	r3, #128	; 0x80
20000190:	4906      	ldr	r1, [pc, #24]	; (200001ac <flash_init_boot2_copyout+0x28>)
20000192:	4a07      	ldr	r2, [pc, #28]	; (200001b0 <flash_init_boot2_copyout+0x2c>)
20000194:	055b      	lsls	r3, r3, #21
20000196:	681c      	ldr	r4, [r3, #0]
20000198:	50cc      	str	r4, [r1, r3]
2000019a:	3304      	adds	r3, #4
2000019c:	4293      	cmp	r3, r2
2000019e:	d1fa      	bne.n	20000196 <flash_init_boot2_copyout+0x12>
200001a0:	2301      	movs	r3, #1
200001a2:	7003      	strb	r3, [r0, #0]
200001a4:	bd10      	pop	{r4, pc}
200001a6:	46c0      	nop			; (mov r8, r8)
200001a8:	20000d68 	.word	0x20000d68
200001ac:	10000c0c 	.word	0x10000c0c
200001b0:	10000100 	.word	0x10000100

200001b4 <flash_enable_xip_via_boot2>:
200001b4:	b510      	push	{r4, lr}
200001b6:	4b02      	ldr	r3, [pc, #8]	; (200001c0 <flash_enable_xip_via_boot2+0xc>)
200001b8:	3301      	adds	r3, #1
200001ba:	4798      	blx	r3
200001bc:	bd10      	pop	{r4, pc}
200001be:	46c0      	nop			; (mov r8, r8)
200001c0:	20000c0c 	.word	0x20000c0c

200001c4 <flash_range_erase>:
200001c4:	b5f8      	push	{r3, r4, r5, r6, r7, lr}
200001c6:	46ce      	mov	lr, r9
200001c8:	4647      	mov	r7, r8
200001ca:	2380      	movs	r3, #128	; 0x80
200001cc:	1842      	adds	r2, r0, r1
200001ce:	0004      	movs	r4, r0
200001d0:	000d      	movs	r5, r1
200001d2:	b580      	push	{r7, lr}
200001d4:	039b      	lsls	r3, r3, #14
200001d6:	429a      	cmp	r2, r3
200001d8:	d820      	bhi.n	2000021c <flash_range_erase+0x58>
200001da:	4812      	ldr	r0, [pc, #72]	; (20000224 <flash_range_erase+0x60>)
200001dc:	f000 f864 	bl	200002a8 <__rom_func_lookup_veneer>
200001e0:	4681      	mov	r9, r0
200001e2:	4811      	ldr	r0, [pc, #68]	; (20000228 <flash_range_erase+0x64>)
200001e4:	f000 f860 	bl	200002a8 <__rom_func_lookup_veneer>
200001e8:	4680      	mov	r8, r0
200001ea:	4810      	ldr	r0, [pc, #64]	; (2000022c <flash_range_erase+0x68>)
200001ec:	f000 f85c 	bl	200002a8 <__rom_func_lookup_veneer>
200001f0:	0007      	movs	r7, r0
200001f2:	480f      	ldr	r0, [pc, #60]	; (20000230 <flash_range_erase+0x6c>)
200001f4:	f000 f858 	bl	200002a8 <__rom_func_lookup_veneer>
200001f8:	0006      	movs	r6, r0
200001fa:	f7ff ffc3 	bl	20000184 <flash_init_boot2_copyout>
200001fe:	47c8      	blx	r9
20000200:	47c0      	blx	r8
20000202:	2280      	movs	r2, #128	; 0x80
20000204:	0029      	movs	r1, r5
20000206:	23d8      	movs	r3, #216	; 0xd8
20000208:	0020      	movs	r0, r4
2000020a:	0252      	lsls	r2, r2, #9
2000020c:	47b8      	blx	r7
2000020e:	47b0      	blx	r6
20000210:	f7ff ffd0 	bl	200001b4 <flash_enable_xip_via_boot2>
20000214:	bc0c      	pop	{r2, r3}
20000216:	4690      	mov	r8, r2
20000218:	4699      	mov	r9, r3
2000021a:	bdf8      	pop	{r3, r4, r5, r6, r7, pc}
2000021c:	f000 f84c 	bl	200002b8 <__hard_assertion_failure_veneer>
20000220:	e7db      	b.n	200001da <flash_range_erase+0x16>
20000222:	46c0      	nop			; (mov r8, r8)
20000224:	00004649 	.word	0x00004649
20000228:	00005845 	.word	0x00005845
2000022c:	00004552 	.word	0x00004552
20000230:	00004346 	.word	0x00004346

20000234 <flash_range_program>:
20000234:	b5f0      	push	{r4, r5, r6, r7, lr}
20000236:	2380      	movs	r3, #128	; 0x80
20000238:	4646      	mov	r6, r8
2000023a:	46d6      	mov	lr, sl
2000023c:	464f      	mov	r7, r9
2000023e:	0015      	movs	r5, r2
20000240:	1882      	adds	r2, r0, r2
20000242:	0004      	movs	r4, r0
20000244:	4688      	mov	r8, r1
20000246:	b5c0      	push	{r6, r7, lr}
20000248:	039b      	lsls	r3, r3, #14
2000024a:	429a      	cmp	r2, r3
2000024c:	d81f      	bhi.n	2000028e <flash_range_program+0x5a>
2000024e:	4811      	ldr	r0, [pc, #68]	; (20000294 <flash_range_program+0x60>)
20000250:	f000 f82a 	bl	200002a8 <__rom_func_lookup_veneer>
20000254:	4682      	mov	sl, r0
20000256:	4810      	ldr	r0, [pc, #64]	; (20000298 <flash_range_program+0x64>)
20000258:	f000 f826 	bl	200002a8 <__rom_func_lookup_veneer>
2000025c:	4681      	mov	r9, r0
2000025e:	480f      	ldr	r0, [pc, #60]	; (2000029c <flash_range_program+0x68>)
20000260:	f000 f822 	bl	200002a8 <__rom_func_lookup_veneer>
20000264:	0007      	movs	r7, r0
20000266:	480e      	ldr	r0, [pc, #56]	; (200002a0 <flash_range_program+0x6c>)
20000268:	f000 f81e 	bl	200002a8 <__rom_func_lookup_veneer>
2000026c:	0006      	movs	r6, r0
2000026e:	f7ff ff89 	bl	20000184 <flash_init_boot2_copyout>
20000272:	47d0      	blx	sl
20000274:	47c8      	blx	r9
20000276:	002a      	movs	r2, r5
20000278:	4641      	mov	r1, r8
2000027a:	0020      	movs	r0, r4
2000027c:	47b8      	blx	r7
2000027e:	47b0      	blx	r6
20000280:	f7ff ff98 	bl	200001b4 <flash_enable_xip_via_boot2>
20000284:	bc1c      	pop	{r2, r3, r4}
20000286:	4690      	mov	r8, r2
20000288:	4699      	mov	r9, r3
2000028a:	46a2      	mov	sl, r4
2000028c:	bdf0      	pop	{r4, r5, r6, r7, pc}
2000028e:	f000 f813 	bl	200002b8 <__hard_assertion_failure_veneer>
20000292:	e7dc      	b.n	2000024e <flash_range_program+0x1a>
20000294:	00004649 	.word	0x00004649
20000298:	00005845 	.word	0x00005845
2000029c:	00005052 	.word	0x00005052
200002a0:	00004346 	.word	0x00004346

200002a4 <__aeabi_idiv0>:
200002a4:	4770      	bx	lr
200002a6:	46c0      	nop			; (mov r8, r8)

200002a8 <__rom_func_lookup_veneer>:
200002a8:	b401      	push	{r0}
200002aa:	4802      	ldr	r0, [pc, #8]	; (200002b4 <__rom_func_lookup_veneer+0xc>)
200002ac:	4684      	mov	ip, r0
200002ae:	bc01      	pop	{r0}
200002b0:	4760      	bx	ip
200002b2:	bf00      	nop
200002b4:	10002eb1 	.word	0x10002eb1

200002b8 <__hard_assertion_failure_veneer>:
200002b8:	b401      	push	{r0}
200002ba:	4802      	ldr	r0, [pc, #8]	; (200002c4 <__hard_assertion_failure_veneer+0xc>)
200002bc:	4684      	mov	ip, r0
200002be:	bc01      	pop	{r0}
200002c0:	4760      	bx	ip
200002c2:	bf00      	nop
200002c4:	10001195 	.word	0x10001195

200002c8 <flash_target_contents>:
200002c8:	10040000                                ....

200002cc <striped_spin_lock_num>:
200002cc:	00000010                                ....

200002d0 <irq_handler_chain_slots>:
200002d0:	00000000 	.word	0x00000000
200002d4:	00010000 	.word	0x00010000
	...
200002e0:	00020000 	.word	0x00020000
	...
200002ec:	00030000 	.word	0x00030000
	...
200002f8:	00ff0000 	.word	0x00ff0000
200002fc:	00000000 	.word	0x00000000

20000300 <irq_handler_chain_first_slot>:
20000300:	b500      	push	{lr}
20000302:	6848      	ldr	r0, [r1, #4]
20000304:	3101      	adds	r1, #1
20000306:	468e      	mov	lr, r1
20000308:	4700      	bx	r0

2000030a <irq_handler_chain_remove_tail>:
2000030a:	4670      	mov	r0, lr
2000030c:	3809      	subs	r0, #9
2000030e:	4901      	ldr	r1, [pc, #4]	; (20000314 <irq_handler_chain_remove_tail+0xa>)
20000310:	4788      	blx	r1
20000312:	bd00      	pop	{pc}
20000314:	10001765 	.word	0x10001765
	...

20000320 <aeabi_bits_funcs>:
20000320:	00003350 	.word	0x00003350
20000324:	0000334c 	.word	0x0000334c
20000328:	00003354 	.word	0x00003354
2000032c:	00003352 	.word	0x00003352

20000330 <aeabi_bits_funcs_end>:
20000330:	0000534d 	.word	0x0000534d
20000334:	0000434d 	.word	0x0000434d
20000338:	00003453 	.word	0x00003453
2000033c:	00003443 	.word	0x00003443

20000340 <stdio_uart>:
20000340:	100040ad 00000000 100040e9 00000000     .@.......@......
20000350:	00000100                                ....

20000354 <_impure_ptr>:
20000354:	20000358                                X.. 

20000358 <impure_data>:
20000358:	00000000 20000644 200006ac 20000714     ....D.. ... ... 
	...
20000400:	00000001 00000000 abcd330e e66d1234     .........3..4.m.
20000410:	0005deec 0000000b 00000000 00000000     ................
	...

20000780 <__malloc_av_>:
	...
20000788:	20000780 20000780 20000788 20000788     ... ... ... ... 
20000798:	20000790 20000790 20000798 20000798     ... ... ... ... 
200007a8:	200007a0 200007a0 200007a8 200007a8     ... ... ... ... 
200007b8:	200007b0 200007b0 200007b8 200007b8     ... ... ... ... 
200007c8:	200007c0 200007c0 200007c8 200007c8     ... ... ... ... 
200007d8:	200007d0 200007d0 200007d8 200007d8     ... ... ... ... 
200007e8:	200007e0 200007e0 200007e8 200007e8     ... ... ... ... 
200007f8:	200007f0 200007f0 200007f8 200007f8     ... ... ... ... 
20000808:	20000800 20000800 20000808 20000808     ... ... ... ... 
20000818:	20000810 20000810 20000818 20000818     ... ... ... ... 
20000828:	20000820 20000820 20000828 20000828      ..  .. (.. (.. 
20000838:	20000830 20000830 20000838 20000838     0.. 0.. 8.. 8.. 
20000848:	20000840 20000840 20000848 20000848     @.. @.. H.. H.. 
20000858:	20000850 20000850 20000858 20000858     P.. P.. X.. X.. 
20000868:	20000860 20000860 20000868 20000868     `.. `.. h.. h.. 
20000878:	20000870 20000870 20000878 20000878     p.. p.. x.. x.. 
20000888:	20000880 20000880 20000888 20000888     ... ... ... ... 
20000898:	20000890 20000890 20000898 20000898     ... ... ... ... 
200008a8:	200008a0 200008a0 200008a8 200008a8     ... ... ... ... 
200008b8:	200008b0 200008b0 200008b8 200008b8     ... ... ... ... 
200008c8:	200008c0 200008c0 200008c8 200008c8     ... ... ... ... 
200008d8:	200008d0 200008d0 200008d8 200008d8     ... ... ... ... 
200008e8:	200008e0 200008e0 200008e8 200008e8     ... ... ... ... 
200008f8:	200008f0 200008f0 200008f8 200008f8     ... ... ... ... 
20000908:	20000900 20000900 20000908 20000908     ... ... ... ... 
20000918:	20000910 20000910 20000918 20000918     ... ... ... ... 
20000928:	20000920 20000920 20000928 20000928      ..  .. (.. (.. 
20000938:	20000930 20000930 20000938 20000938     0.. 0.. 8.. 8.. 
20000948:	20000940 20000940 20000948 20000948     @.. @.. H.. H.. 
20000958:	20000950 20000950 20000958 20000958     P.. P.. X.. X.. 
20000968:	20000960 20000960 20000968 20000968     `.. `.. h.. h.. 
20000978:	20000970 20000970 20000978 20000978     p.. p.. x.. x.. 
20000988:	20000980 20000980 20000988 20000988     ... ... ... ... 
20000998:	20000990 20000990 20000998 20000998     ... ... ... ... 
200009a8:	200009a0 200009a0 200009a8 200009a8     ... ... ... ... 
200009b8:	200009b0 200009b0 200009b8 200009b8     ... ... ... ... 
200009c8:	200009c0 200009c0 200009c8 200009c8     ... ... ... ... 
200009d8:	200009d0 200009d0 200009d8 200009d8     ... ... ... ... 
200009e8:	200009e0 200009e0 200009e8 200009e8     ... ... ... ... 
200009f8:	200009f0 200009f0 200009f8 200009f8     ... ... ... ... 
20000a08:	20000a00 20000a00 20000a08 20000a08     ... ... ... ... 
20000a18:	20000a10 20000a10 20000a18 20000a18     ... ... ... ... 
20000a28:	20000a20 20000a20 20000a28 20000a28      ..  .. (.. (.. 
20000a38:	20000a30 20000a30 20000a38 20000a38     0.. 0.. 8.. 8.. 
20000a48:	20000a40 20000a40 20000a48 20000a48     @.. @.. H.. H.. 
20000a58:	20000a50 20000a50 20000a58 20000a58     P.. P.. X.. X.. 
20000a68:	20000a60 20000a60 20000a68 20000a68     `.. `.. h.. h.. 
20000a78:	20000a70 20000a70 20000a78 20000a78     p.. p.. x.. x.. 
20000a88:	20000a80 20000a80 20000a88 20000a88     ... ... ... ... 
20000a98:	20000a90 20000a90 20000a98 20000a98     ... ... ... ... 
20000aa8:	20000aa0 20000aa0 20000aa8 20000aa8     ... ... ... ... 
20000ab8:	20000ab0 20000ab0 20000ab8 20000ab8     ... ... ... ... 
20000ac8:	20000ac0 20000ac0 20000ac8 20000ac8     ... ... ... ... 
20000ad8:	20000ad0 20000ad0 20000ad8 20000ad8     ... ... ... ... 
20000ae8:	20000ae0 20000ae0 20000ae8 20000ae8     ... ... ... ... 
20000af8:	20000af0 20000af0 20000af8 20000af8     ... ... ... ... 
20000b08:	20000b00 20000b00 20000b08 20000b08     ... ... ... ... 
20000b18:	20000b10 20000b10 20000b18 20000b18     ... ... ... ... 
20000b28:	20000b20 20000b20 20000b28 20000b28      ..  .. (.. (.. 
20000b38:	20000b30 20000b30 20000b38 20000b38     0.. 0.. 8.. 8.. 
20000b48:	20000b40 20000b40 20000b48 20000b48     @.. @.. H.. H.. 
20000b58:	20000b50 20000b50 20000b58 20000b58     P.. P.. X.. X.. 
20000b68:	20000b60 20000b60 20000b68 20000b68     `.. `.. h.. h.. 
20000b78:	20000b70 20000b70 20000b78 20000b78     p.. p.. x.. x.. 

20000b88 <__malloc_sbrk_base>:
20000b88:	ffffffff                                ....

20000b8c <__malloc_trim_threshold>:
20000b8c:	00020000                                ....

20000b90 <print_mutex>:
	...

20000b98 <__mutex_array_end>:
20000b98:	10003ced 	.word	0x10003ced
20000b9c:	10002ea1 	.word	0x10002ea1
20000ba0:	10003595 	.word	0x10003595
20000ba4:	10003c4d 	.word	0x10003c4d

20000ba8 <__frame_dummy_init_array_entry>:
20000ba8:	10000301                                ....
