
narrow_io_write.elf:     file format elf32-littlearm

Sections:
Idx Name          Size      VMA       LMA       File off  Algn
  0 .boot2        00000100  10000000  10000000  00010000  2**0
                  CONTENTS, ALLOC, LOAD, READONLY, DATA
  1 .text         00004938  10000100  10000100  00010100  2**3
                  CONTENTS, ALLOC, LOAD, READONLY, CODE
  2 .rodata       000004cc  10004a38  10004a38  00014a38  2**3
                  CONTENTS, ALLOC, LOAD, READONLY, DATA
  3 .binary_info  00000024  10004f04  10004f04  00014f04  2**2
                  CONTENTS, ALLOC, LOAD, DATA
  4 .ram_vector_table 000000c0  20000000  20000000  00020a6c  2**2
                  CONTENTS
  5 .data         000009ac  200000c0  10004f28  000200c0  2**4
                  CONTENTS, ALLOC, LOAD, CODE
  6 .uninitialized_data 00000000  20000a6c  20000a6c  00020b2c  2**0
                  CONTENTS
  7 .scratch_x    00000000  20040000  20040000  00020b2c  2**0
                  CONTENTS
  8 .scratch_y    00000000  20041000  20041000  00020b2c  2**0
                  CONTENTS
  9 .bss          000002f0  20000a6c  20000a6c  00020a6c  2**2
                  ALLOC
 10 .heap         00000800  20000d5c  20000d5c  00020b2c  2**2
                  CONTENTS, READONLY
 11 .stack_dummy  00000800  20041000  20041000  00021340  2**5
                  CONTENTS, READONLY
 12 .ARM.attributes 00000028  00000000  00000000  00021b40  2**0
                  CONTENTS, READONLY
 13 .comment      00000079  00000000  00000000  00021b68  2**0
                  CONTENTS, READONLY
 14 .debug_frame  000002ac  00000000  00000000  00021be4  2**2
                  CONTENTS, READONLY, DEBUGGING

narrow_io_write.elf:     file format elf32-littlearm


Disassembly of section .text:

10000100 <__reset_start>:
10000100:	4827      	ldr	r0, [pc, #156]	; (100001a0 <__get_current_exception+0xa>)
10000102:	e000      	b.n	10000106 <__vector_entry>

10000104 <_entry_point>:
10000104:	2000      	movs	r0, #0

10000106 <__vector_entry>:
10000106:	4927      	ldr	r1, [pc, #156]	; (100001a4 <__get_current_exception+0xe>)
10000108:	6088      	str	r0, [r1, #8]
1000010a:	c806      	ldmia	r0!, {r1, r2}
1000010c:	f381 8808 	msr	MSP, r1
10000110:	4710      	bx	r2

10000112 <_reset_handler>:
10000112:	4825      	ldr	r0, [pc, #148]	; (100001a8 <__get_current_exception+0x12>)
10000114:	6800      	ldr	r0, [r0, #0]
10000116:	2800      	cmp	r0, #0
10000118:	d139      	bne.n	1000018e <wait_for_vector>
1000011a:	a412      	add	r4, pc, #72	; (adr r4, 10000164 <data_cpy_table>)
1000011c:	cc0e      	ldmia	r4!, {r1, r2, r3}
1000011e:	2900      	cmp	r1, #0
10000120:	d002      	beq.n	10000128 <_reset_handler+0x16>
10000122:	f000 f812 	bl	1000014a <data_cpy>
10000126:	e7f9      	b.n	1000011c <_reset_handler+0xa>
10000128:	4920      	ldr	r1, [pc, #128]	; (100001ac <__get_current_exception+0x16>)
1000012a:	4a21      	ldr	r2, [pc, #132]	; (100001b0 <__get_current_exception+0x1a>)
1000012c:	2000      	movs	r0, #0
1000012e:	e000      	b.n	10000132 <bss_fill_test>

10000130 <bss_fill_loop>:
10000130:	c101      	stmia	r1!, {r0}

10000132 <bss_fill_test>:
10000132:	4291      	cmp	r1, r2
10000134:	d1fc      	bne.n	10000130 <bss_fill_loop>

10000136 <platform_entry>:
10000136:	491f      	ldr	r1, [pc, #124]	; (100001b4 <__get_current_exception+0x1e>)
10000138:	4788      	blx	r1
1000013a:	491f      	ldr	r1, [pc, #124]	; (100001b8 <__get_current_exception+0x22>)
1000013c:	4788      	blx	r1
1000013e:	491f      	ldr	r1, [pc, #124]	; (100001bc <__get_current_exception+0x26>)
10000140:	4788      	blx	r1
10000142:	be00      	bkpt	0x0000
10000144:	e7fd      	b.n	10000142 <platform_entry+0xc>

10000146 <data_cpy_loop>:
10000146:	c901      	ldmia	r1!, {r0}
10000148:	c201      	stmia	r2!, {r0}

1000014a <data_cpy>:
1000014a:	429a      	cmp	r2, r3
1000014c:	d3fb      	bcc.n	10000146 <data_cpy_loop>
1000014e:	4770      	bx	lr

10000150 <binary_info_header>:
10000150:	7188ebf2 	.word	0x7188ebf2
10000154:	10004f04 	.word	0x10004f04
10000158:	10004f28 	.word	0x10004f28
1000015c:	10000164 	.word	0x10000164
10000160:	e71aa390 	.word	0xe71aa390

10000164 <data_cpy_table>:
10000164:	10004f28 	.word	0x10004f28
10000168:	200000c0 	.word	0x200000c0
1000016c:	20000a6c 	.word	0x20000a6c
10000170:	100058d4 	.word	0x100058d4
10000174:	20040000 	.word	0x20040000
10000178:	20040000 	.word	0x20040000
1000017c:	100058d4 	.word	0x100058d4
10000180:	20041000 	.word	0x20041000
10000184:	20041000 	.word	0x20041000
10000188:	00000000 	.word	0x00000000
1000018c:	4770      	bx	lr

1000018e <wait_for_vector>:
1000018e:	480c      	ldr	r0, [pc, #48]	; (100001c0 <__get_current_exception+0x2a>)
10000190:	f002 fe62 	bl	10002e58 <rom_func_lookup>
10000194:	4700      	bx	r0

10000196 <__get_current_exception>:
10000196:	f3ef 8005 	mrs	r0, IPSR
1000019a:	b2c0      	uxtb	r0, r0
1000019c:	4770      	bx	lr
1000019e:	0000      	.short	0x0000
100001a0:	10000200 	.word	0x10000200
100001a4:	e000ed00 	.word	0xe000ed00
100001a8:	d0000000 	.word	0xd0000000
100001ac:	20000a6c 	.word	0x20000a6c
100001b0:	20000d5c 	.word	0x20000d5c
100001b4:	10000fe9 	.word	0x10000fe9
100001b8:	10000321 	.word	0x10000321
100001bc:	10001109 	.word	0x10001109
100001c0:	00005657 	.word	0x00005657

100001c4 <__bi_46>:
100001c4:	50520006 5360b3ab 10004e70              ..RP..`SpN..

100001d0 <__bi_34>:
100001d0:	50520006 02031c86 10004e80              ..RP.....N..

100001dc <__bi_26>:
100001dc:	50520006 9da22254 10004e90              ..RPT"...N..

100001e8 <__bi_18>:
100001e8:	50520005 68f465de 100058d4 00000000     ..RP.e.h.X......
	...

10000200 <__reset_end>:
10000200:	20042000 	.word	0x20042000
10000204:	10000113 	.word	0x10000113
10000208:	100002c3 	.word	0x100002c3
1000020c:	100002c5 	.word	0x100002c5
10000210:	100002c1 	.word	0x100002c1
10000214:	100002c1 	.word	0x100002c1
10000218:	100002c1 	.word	0x100002c1
1000021c:	100002c1 	.word	0x100002c1
10000220:	100002c1 	.word	0x100002c1
10000224:	100002c1 	.word	0x100002c1
10000228:	100002c1 	.word	0x100002c1
1000022c:	100002c7 	.word	0x100002c7
10000230:	100002c1 	.word	0x100002c1
10000234:	100002c1 	.word	0x100002c1
10000238:	100002c9 	.word	0x100002c9
1000023c:	100002cb 	.word	0x100002cb
10000240:	100002cd 	.word	0x100002cd
10000244:	100002cd 	.word	0x100002cd
10000248:	100002cd 	.word	0x100002cd
1000024c:	100002cd 	.word	0x100002cd
10000250:	100002cd 	.word	0x100002cd
10000254:	100002cd 	.word	0x100002cd
10000258:	100002cd 	.word	0x100002cd
1000025c:	100002cd 	.word	0x100002cd
10000260:	100002cd 	.word	0x100002cd
10000264:	100002cd 	.word	0x100002cd
10000268:	100002cd 	.word	0x100002cd
1000026c:	100002cd 	.word	0x100002cd
10000270:	100002cd 	.word	0x100002cd
10000274:	100002cd 	.word	0x100002cd
10000278:	100002cd 	.word	0x100002cd
1000027c:	100002cd 	.word	0x100002cd
10000280:	100002cd 	.word	0x100002cd
10000284:	100002cd 	.word	0x100002cd
10000288:	100002cd 	.word	0x100002cd
1000028c:	100002cd 	.word	0x100002cd
10000290:	100002cd 	.word	0x100002cd
10000294:	100002cd 	.word	0x100002cd
10000298:	100002cd 	.word	0x100002cd
1000029c:	100002cd 	.word	0x100002cd
100002a0:	100002cd 	.word	0x100002cd
100002a4:	100002cd 	.word	0x100002cd
100002a8:	100002cd 	.word	0x100002cd
100002ac:	100002cd 	.word	0x100002cd
100002b0:	100002cd 	.word	0x100002cd
100002b4:	100002cd 	.word	0x100002cd
100002b8:	100002cd 	.word	0x100002cd
100002bc:	100002cd 	.word	0x100002cd

100002c0 <isr_invalid>:
100002c0:	be00      	bkpt	0x0000

100002c2 <isr_nmi>:
100002c2:	be00      	bkpt	0x0000

100002c4 <isr_hardfault>:
100002c4:	be00      	bkpt	0x0000

100002c6 <isr_svcall>:
100002c6:	be00      	bkpt	0x0000

100002c8 <isr_pendsv>:
100002c8:	be00      	bkpt	0x0000

100002ca <isr_systick>:
100002ca:	be00      	bkpt	0x0000

100002cc <__unhandled_user_irq>:
100002cc:	f7ff ff63 	bl	10000196 <__get_current_exception>
100002d0:	3810      	subs	r0, #16

100002d2 <unhandled_user_irq_num_in_r0>:
100002d2:	be00      	bkpt	0x0000

100002d4 <_init>:
100002d4:	b5f8      	push	{r3, r4, r5, r6, r7, lr}
100002d6:	46c0      	nop			; (mov r8, r8)

100002d8 <__do_global_dtors_aux>:
100002d8:	b510      	push	{r4, lr}
100002da:	4c06      	ldr	r4, [pc, #24]	; (100002f4 <__do_global_dtors_aux+0x1c>)
100002dc:	7823      	ldrb	r3, [r4, #0]
100002de:	2b00      	cmp	r3, #0
100002e0:	d107      	bne.n	100002f2 <__do_global_dtors_aux+0x1a>
100002e2:	4b05      	ldr	r3, [pc, #20]	; (100002f8 <__do_global_dtors_aux+0x20>)
100002e4:	2b00      	cmp	r3, #0
100002e6:	d002      	beq.n	100002ee <__do_global_dtors_aux+0x16>
100002e8:	4804      	ldr	r0, [pc, #16]	; (100002fc <__do_global_dtors_aux+0x24>)
100002ea:	e000      	b.n	100002ee <__do_global_dtors_aux+0x16>
100002ec:	bf00      	nop
100002ee:	2301      	movs	r3, #1
100002f0:	7023      	strb	r3, [r4, #0]
100002f2:	bd10      	pop	{r4, pc}
100002f4:	20000a6c 	.word	0x20000a6c
100002f8:	00000000 	.word	0x00000000
100002fc:	10004a38 	.word	0x10004a38

10000300 <frame_dummy>:
10000300:	4b04      	ldr	r3, [pc, #16]	; (10000314 <frame_dummy+0x14>)
10000302:	b510      	push	{r4, lr}
10000304:	2b00      	cmp	r3, #0
10000306:	d003      	beq.n	10000310 <frame_dummy+0x10>
10000308:	4903      	ldr	r1, [pc, #12]	; (10000318 <frame_dummy+0x18>)
1000030a:	4804      	ldr	r0, [pc, #16]	; (1000031c <frame_dummy+0x1c>)
1000030c:	e000      	b.n	10000310 <frame_dummy+0x10>
1000030e:	bf00      	nop
10000310:	bd10      	pop	{r4, pc}
10000312:	46c0      	nop			; (mov r8, r8)
10000314:	00000000 	.word	0x00000000
10000318:	20000a70 	.word	0x20000a70
1000031c:	10004a38 	.word	0x10004a38

10000320 <main>:
10000320:	b530      	push	{r4, r5, lr}
10000322:	b083      	sub	sp, #12
10000324:	f003 fe78 	bl	10004018 <stdio_init_all>
10000328:	481c      	ldr	r0, [pc, #112]	; (1000039c <main+0x7c>)
1000032a:	4c1d      	ldr	r4, [pc, #116]	; (100003a0 <main+0x80>)
1000032c:	f003 fdb8 	bl	10003ea0 <__wrap_puts>
10000330:	4b1c      	ldr	r3, [pc, #112]	; (100003a4 <main+0x84>)
10000332:	481d      	ldr	r0, [pc, #116]	; (100003a8 <main+0x88>)
10000334:	6023      	str	r3, [r4, #0]
10000336:	6821      	ldr	r1, [r4, #0]
10000338:	f003 fe62 	bl	10004000 <__wrap_printf>
1000033c:	481b      	ldr	r0, [pc, #108]	; (100003ac <main+0x8c>)
1000033e:	f003 fdaf 	bl	10003ea0 <__wrap_puts>
10000342:	4d1b      	ldr	r5, [pc, #108]	; (100003b0 <main+0x90>)
10000344:	4b1b      	ldr	r3, [pc, #108]	; (100003b4 <main+0x94>)
10000346:	481c      	ldr	r0, [pc, #112]	; (100003b8 <main+0x98>)
10000348:	7821      	ldrb	r1, [r4, #0]
1000034a:	782a      	ldrb	r2, [r5, #0]
1000034c:	781b      	ldrb	r3, [r3, #0]
1000034e:	7800      	ldrb	r0, [r0, #0]
10000350:	b2d2      	uxtb	r2, r2
10000352:	b2c9      	uxtb	r1, r1
10000354:	b2db      	uxtb	r3, r3
10000356:	9000      	str	r0, [sp, #0]
10000358:	4818      	ldr	r0, [pc, #96]	; (100003bc <main+0x9c>)
1000035a:	f003 fe51 	bl	10004000 <__wrap_printf>
1000035e:	4818      	ldr	r0, [pc, #96]	; (100003c0 <main+0xa0>)
10000360:	f003 fd9e 	bl	10003ea0 <__wrap_puts>
10000364:	23a5      	movs	r3, #165	; 0xa5
10000366:	7023      	strb	r3, [r4, #0]
10000368:	6821      	ldr	r1, [r4, #0]
1000036a:	4816      	ldr	r0, [pc, #88]	; (100003c4 <main+0xa4>)
1000036c:	f003 fe48 	bl	10004000 <__wrap_printf>
10000370:	4815      	ldr	r0, [pc, #84]	; (100003c8 <main+0xa8>)
10000372:	f003 fd95 	bl	10003ea0 <__wrap_puts>
10000376:	233c      	movs	r3, #60	; 0x3c
10000378:	702b      	strb	r3, [r5, #0]
1000037a:	6821      	ldr	r1, [r4, #0]
1000037c:	4813      	ldr	r0, [pc, #76]	; (100003cc <main+0xac>)
1000037e:	f003 fe3f 	bl	10004000 <__wrap_printf>
10000382:	4813      	ldr	r0, [pc, #76]	; (100003d0 <main+0xb0>)
10000384:	f003 fd8c 	bl	10003ea0 <__wrap_puts>
10000388:	4b12      	ldr	r3, [pc, #72]	; (100003d4 <main+0xb4>)
1000038a:	4813      	ldr	r0, [pc, #76]	; (100003d8 <main+0xb8>)
1000038c:	8023      	strh	r3, [r4, #0]
1000038e:	6821      	ldr	r1, [r4, #0]
10000390:	f003 fe36 	bl	10004000 <__wrap_printf>
10000394:	2000      	movs	r0, #0
10000396:	b003      	add	sp, #12
10000398:	bd30      	pop	{r4, r5, pc}
1000039a:	46c0      	nop			; (mov r8, r8)
1000039c:	10004a38 	.word	0x10004a38
100003a0:	4005800c 	.word	0x4005800c
100003a4:	deadbeef 	.word	0xdeadbeef
100003a8:	10004a50 	.word	0x10004a50
100003ac:	10004a70 	.word	0x10004a70
100003b0:	4005800d 	.word	0x4005800d
100003b4:	4005800e 	.word	0x4005800e
100003b8:	4005800f 	.word	0x4005800f
100003bc:	10004a90 	.word	0x10004a90
100003c0:	10004abc 	.word	0x10004abc
100003c4:	10004ae4 	.word	0x10004ae4
100003c8:	10004b04 	.word	0x10004b04
100003cc:	10004b28 	.word	0x10004b28
100003d0:	10004b48 	.word	0x10004b48
100003d4:	fffff00d 	.word	0xfffff00d
100003d8:	10004b6c 	.word	0x10004b6c

100003dc <gpio_set_function>:
100003dc:	4a09      	ldr	r2, [pc, #36]	; (10000404 <gpio_set_function+0x28>)
100003de:	0083      	lsls	r3, r0, #2
100003e0:	4694      	mov	ip, r2
100003e2:	2240      	movs	r2, #64	; 0x40
100003e4:	4463      	add	r3, ip
100003e6:	b510      	push	{r4, lr}
100003e8:	681c      	ldr	r4, [r3, #0]
100003ea:	00c0      	lsls	r0, r0, #3
100003ec:	4062      	eors	r2, r4
100003ee:	24c0      	movs	r4, #192	; 0xc0
100003f0:	4014      	ands	r4, r2
100003f2:	2280      	movs	r2, #128	; 0x80
100003f4:	0152      	lsls	r2, r2, #5
100003f6:	4313      	orrs	r3, r2
100003f8:	601c      	str	r4, [r3, #0]
100003fa:	4b03      	ldr	r3, [pc, #12]	; (10000408 <gpio_set_function+0x2c>)
100003fc:	469c      	mov	ip, r3
100003fe:	4460      	add	r0, ip
10000400:	6041      	str	r1, [r0, #4]
10000402:	bd10      	pop	{r4, pc}
10000404:	4001c004 	.word	0x4001c004
10000408:	40014000 	.word	0x40014000

1000040c <hw_claim_or_assert>:
1000040c:	b5f8      	push	{r3, r4, r5, r6, r7, lr}
1000040e:	46ce      	mov	lr, r9
10000410:	4647      	mov	r7, r8
10000412:	4691      	mov	r9, r2
10000414:	b580      	push	{r7, lr}
10000416:	f3ef 8710 	mrs	r7, PRIMASK
1000041a:	b672      	cpsid	i
1000041c:	4e12      	ldr	r6, [pc, #72]	; (10000468 <hw_claim_or_assert+0x5c>)
1000041e:	6833      	ldr	r3, [r6, #0]
10000420:	2b00      	cmp	r3, #0
10000422:	d0fc      	beq.n	1000041e <hw_claim_or_assert+0x12>
10000424:	f3bf 8f5f 	dmb	sy
10000428:	08cb      	lsrs	r3, r1, #3
1000042a:	5cc5      	ldrb	r5, [r0, r3]
1000042c:	2407      	movs	r4, #7
1000042e:	18c2      	adds	r2, r0, r3
10000430:	0028      	movs	r0, r5
10000432:	2301      	movs	r3, #1
10000434:	400c      	ands	r4, r1
10000436:	4694      	mov	ip, r2
10000438:	40e0      	lsrs	r0, r4
1000043a:	001a      	movs	r2, r3
1000043c:	4002      	ands	r2, r0
1000043e:	4690      	mov	r8, r2
10000440:	4203      	tst	r3, r0
10000442:	d10d      	bne.n	10000460 <hw_claim_or_assert+0x54>
10000444:	40a3      	lsls	r3, r4
10000446:	4662      	mov	r2, ip
10000448:	432b      	orrs	r3, r5
1000044a:	7013      	strb	r3, [r2, #0]
1000044c:	f3bf 8f5f 	dmb	sy
10000450:	4643      	mov	r3, r8
10000452:	6033      	str	r3, [r6, #0]
10000454:	f387 8810 	msr	PRIMASK, r7
10000458:	bc0c      	pop	{r2, r3}
1000045a:	4690      	mov	r8, r2
1000045c:	4699      	mov	r9, r3
1000045e:	bdf8      	pop	{r3, r4, r5, r6, r7, pc}
10000460:	4648      	mov	r0, r9
10000462:	f000 fe53 	bl	1000110c <panic>
10000466:	46c0      	nop			; (mov r8, r8)
10000468:	d000012c 	.word	0xd000012c

1000046c <spin_locks_reset>:
1000046c:	2100      	movs	r1, #0
1000046e:	4b04      	ldr	r3, [pc, #16]	; (10000480 <spin_locks_reset+0x14>)
10000470:	4a04      	ldr	r2, [pc, #16]	; (10000484 <spin_locks_reset+0x18>)
10000472:	f3bf 8f5f 	dmb	sy
10000476:	c302      	stmia	r3!, {r1}
10000478:	4293      	cmp	r3, r2
1000047a:	d1fa      	bne.n	10000472 <spin_locks_reset+0x6>
1000047c:	4770      	bx	lr
1000047e:	46c0      	nop			; (mov r8, r8)
10000480:	d0000100 	.word	0xd0000100
10000484:	d0000180 	.word	0xd0000180

10000488 <next_striped_spin_lock_num>:
10000488:	4a04      	ldr	r2, [pc, #16]	; (1000049c <next_striped_spin_lock_num+0x14>)
1000048a:	7810      	ldrb	r0, [r2, #0]
1000048c:	1c43      	adds	r3, r0, #1
1000048e:	b2db      	uxtb	r3, r3
10000490:	2b17      	cmp	r3, #23
10000492:	d900      	bls.n	10000496 <next_striped_spin_lock_num+0xe>
10000494:	2310      	movs	r3, #16
10000496:	7013      	strb	r3, [r2, #0]
10000498:	4770      	bx	lr
1000049a:	46c0      	nop			; (mov r8, r8)
1000049c:	20000188 	.word	0x20000188

100004a0 <running_on_fpga>:
100004a0:	4b02      	ldr	r3, [pc, #8]	; (100004ac <running_on_fpga+0xc>)
100004a2:	6818      	ldr	r0, [r3, #0]
100004a4:	0780      	lsls	r0, r0, #30
100004a6:	0fc0      	lsrs	r0, r0, #31
100004a8:	4770      	bx	lr
100004aa:	46c0      	nop			; (mov r8, r8)
100004ac:	4006c000 	.word	0x4006c000

100004b0 <uart_init>:
100004b0:	b5f0      	push	{r4, r5, r6, r7, lr}
100004b2:	46c6      	mov	lr, r8
100004b4:	0005      	movs	r5, r0
100004b6:	b500      	push	{lr}
100004b8:	2006      	movs	r0, #6
100004ba:	000e      	movs	r6, r1
100004bc:	f000 ffb4 	bl	10001428 <clock_get_hz>
100004c0:	2800      	cmp	r0, #0
100004c2:	d04d      	beq.n	10000560 <uart_init+0xb0>
100004c4:	4b29      	ldr	r3, [pc, #164]	; (1000056c <uart_init+0xbc>)
100004c6:	492a      	ldr	r1, [pc, #168]	; (10000570 <uart_init+0xc0>)
100004c8:	18eb      	adds	r3, r5, r3
100004ca:	425a      	negs	r2, r3
100004cc:	4153      	adcs	r3, r2
100004ce:	2280      	movs	r2, #128	; 0x80
100004d0:	03d2      	lsls	r2, r2, #15
100004d2:	4694      	mov	ip, r2
100004d4:	425b      	negs	r3, r3
100004d6:	4013      	ands	r3, r2
100004d8:	4a26      	ldr	r2, [pc, #152]	; (10000574 <uart_init+0xc4>)
100004da:	4463      	add	r3, ip
100004dc:	6013      	str	r3, [r2, #0]
100004de:	4a26      	ldr	r2, [pc, #152]	; (10000578 <uart_init+0xc8>)
100004e0:	6013      	str	r3, [r2, #0]
100004e2:	001c      	movs	r4, r3
100004e4:	688a      	ldr	r2, [r1, #8]
100004e6:	4394      	bics	r4, r2
100004e8:	d1fb      	bne.n	100004e2 <uart_init+0x32>
100004ea:	4b20      	ldr	r3, [pc, #128]	; (1000056c <uart_init+0xbc>)
100004ec:	2180      	movs	r1, #128	; 0x80
100004ee:	18eb      	adds	r3, r5, r3
100004f0:	425a      	negs	r2, r3
100004f2:	4153      	adcs	r3, r2
100004f4:	4a21      	ldr	r2, [pc, #132]	; (1000057c <uart_init+0xcc>)
100004f6:	005b      	lsls	r3, r3, #1
100004f8:	0049      	lsls	r1, r1, #1
100004fa:	2006      	movs	r0, #6
100004fc:	5299      	strh	r1, [r3, r2]
100004fe:	f000 ff93 	bl	10001428 <clock_get_hz>
10000502:	0031      	movs	r1, r6
10000504:	00c0      	lsls	r0, r0, #3
10000506:	f002 fd01 	bl	10002f0c <__wrap___aeabi_uidiv>
1000050a:	267f      	movs	r6, #127	; 0x7f
1000050c:	4b1c      	ldr	r3, [pc, #112]	; (10000580 <uart_init+0xd0>)
1000050e:	4006      	ands	r6, r0
10000510:	09c7      	lsrs	r7, r0, #7
10000512:	3601      	adds	r6, #1
10000514:	0876      	lsrs	r6, r6, #1
10000516:	626f      	str	r7, [r5, #36]	; 0x24
10000518:	429f      	cmp	r7, r3
1000051a:	d024      	beq.n	10000566 <uart_init+0xb6>
1000051c:	62ae      	str	r6, [r5, #40]	; 0x28
1000051e:	232c      	movs	r3, #44	; 0x2c
10000520:	4698      	mov	r8, r3
10000522:	2480      	movs	r4, #128	; 0x80
10000524:	44a8      	add	r8, r5
10000526:	4643      	mov	r3, r8
10000528:	01a4      	lsls	r4, r4, #6
1000052a:	431c      	orrs	r4, r3
1000052c:	2300      	movs	r3, #0
1000052e:	2006      	movs	r0, #6
10000530:	6023      	str	r3, [r4, #0]
10000532:	f000 ff79 	bl	10001428 <clock_get_hz>
10000536:	01b9      	lsls	r1, r7, #6
10000538:	1989      	adds	r1, r1, r6
1000053a:	0080      	lsls	r0, r0, #2
1000053c:	f002 fce6 	bl	10002f0c <__wrap___aeabi_uidiv>
10000540:	2360      	movs	r3, #96	; 0x60
10000542:	6aea      	ldr	r2, [r5, #44]	; 0x2c
10000544:	4641      	mov	r1, r8
10000546:	4053      	eors	r3, r2
10000548:	226e      	movs	r2, #110	; 0x6e
1000054a:	401a      	ands	r2, r3
1000054c:	2380      	movs	r3, #128	; 0x80
1000054e:	015b      	lsls	r3, r3, #5
10000550:	430b      	orrs	r3, r1
10000552:	601a      	str	r2, [r3, #0]
10000554:	4b0b      	ldr	r3, [pc, #44]	; (10000584 <uart_init+0xd4>)
10000556:	632b      	str	r3, [r5, #48]	; 0x30
10000558:	2310      	movs	r3, #16
1000055a:	6023      	str	r3, [r4, #0]
1000055c:	3b0d      	subs	r3, #13
1000055e:	64ab      	str	r3, [r5, #72]	; 0x48
10000560:	bc04      	pop	{r2}
10000562:	4690      	mov	r8, r2
10000564:	bdf0      	pop	{r4, r5, r6, r7, pc}
10000566:	62ac      	str	r4, [r5, #40]	; 0x28
10000568:	e7d9      	b.n	1000051e <uart_init+0x6e>
1000056a:	46c0      	nop			; (mov r8, r8)
1000056c:	bffc8000 	.word	0xbffc8000
10000570:	4000c000 	.word	0x4000c000
10000574:	4000e000 	.word	0x4000e000
10000578:	4000f000 	.word	0x4000f000
1000057c:	20000b2c 	.word	0x20000b2c
10000580:	0000ffff 	.word	0x0000ffff
10000584:	00000301 	.word	0x00000301

10000588 <timer_pool_entry_comparator>:
10000588:	6883      	ldr	r3, [r0, #8]
1000058a:	480b      	ldr	r0, [pc, #44]	; (100005b8 <timer_pool_entry_comparator+0x30>)
1000058c:	b510      	push	{r4, lr}
1000058e:	4684      	mov	ip, r0
10000590:	4461      	add	r1, ip
10000592:	4462      	add	r2, ip
10000594:	0109      	lsls	r1, r1, #4
10000596:	0112      	lsls	r2, r2, #4
10000598:	189a      	adds	r2, r3, r2
1000059a:	1859      	adds	r1, r3, r1
1000059c:	6854      	ldr	r4, [r2, #4]
1000059e:	684b      	ldr	r3, [r1, #4]
100005a0:	2001      	movs	r0, #1
100005a2:	429c      	cmp	r4, r3
100005a4:	d801      	bhi.n	100005aa <timer_pool_entry_comparator+0x22>
100005a6:	d002      	beq.n	100005ae <timer_pool_entry_comparator+0x26>
100005a8:	2000      	movs	r0, #0
100005aa:	b2c0      	uxtb	r0, r0
100005ac:	bd10      	pop	{r4, pc}
100005ae:	6812      	ldr	r2, [r2, #0]
100005b0:	680b      	ldr	r3, [r1, #0]
100005b2:	429a      	cmp	r2, r3
100005b4:	d8f9      	bhi.n	100005aa <timer_pool_entry_comparator+0x22>
100005b6:	e7f7      	b.n	100005a8 <timer_pool_entry_comparator+0x20>
100005b8:	0fffffff 	.word	0x0fffffff

100005bc <add_alarm_under_lock>:
100005bc:	b5f0      	push	{r4, r5, r6, r7, lr}
100005be:	4657      	mov	r7, sl
100005c0:	4645      	mov	r5, r8
100005c2:	46de      	mov	lr, fp
100005c4:	464e      	mov	r6, r9
100005c6:	b5e0      	push	{r5, r6, r7, lr}
100005c8:	b083      	sub	sp, #12
100005ca:	001f      	movs	r7, r3
100005cc:	ab0f      	add	r3, sp, #60	; 0x3c
100005ce:	781b      	ldrb	r3, [r3, #0]
100005d0:	9c0e      	ldr	r4, [sp, #56]	; 0x38
100005d2:	0005      	movs	r5, r0
100005d4:	4692      	mov	sl, r2
100005d6:	9301      	str	r3, [sp, #4]
100005d8:	2c00      	cmp	r4, #0
100005da:	d10d      	bne.n	100005f8 <add_alarm_under_lock+0x3c>
100005dc:	6802      	ldr	r2, [r0, #0]
100005de:	7b94      	ldrb	r4, [r2, #14]
100005e0:	2c00      	cmp	r4, #0
100005e2:	d056      	beq.n	10000692 <add_alarm_under_lock+0xd6>
100005e4:	6811      	ldr	r1, [r2, #0]
100005e6:	0063      	lsls	r3, r4, #1
100005e8:	468c      	mov	ip, r1
100005ea:	191b      	adds	r3, r3, r4
100005ec:	4463      	add	r3, ip
100005ee:	3b03      	subs	r3, #3
100005f0:	785b      	ldrb	r3, [r3, #1]
100005f2:	7393      	strb	r3, [r2, #14]
100005f4:	2b00      	cmp	r3, #0
100005f6:	d054      	beq.n	100006a2 <add_alarm_under_lock+0xe6>
100005f8:	68aa      	ldr	r2, [r5, #8]
100005fa:	b2e3      	uxtb	r3, r4
100005fc:	4694      	mov	ip, r2
100005fe:	4652      	mov	r2, sl
10000600:	469b      	mov	fp, r3
10000602:	4b38      	ldr	r3, [pc, #224]	; (100006e4 <add_alarm_under_lock+0x128>)
10000604:	682e      	ldr	r6, [r5, #0]
10000606:	18e3      	adds	r3, r4, r3
10000608:	011b      	lsls	r3, r3, #4
1000060a:	4463      	add	r3, ip
1000060c:	601a      	str	r2, [r3, #0]
1000060e:	9a0c      	ldr	r2, [sp, #48]	; 0x30
10000610:	605f      	str	r7, [r3, #4]
10000612:	609a      	str	r2, [r3, #8]
10000614:	9a0d      	ldr	r2, [sp, #52]	; 0x34
10000616:	60da      	str	r2, [r3, #12]
10000618:	23d0      	movs	r3, #208	; 0xd0
1000061a:	2280      	movs	r2, #128	; 0x80
1000061c:	061b      	lsls	r3, r3, #24
1000061e:	0312      	lsls	r2, r2, #12
10000620:	615a      	str	r2, [r3, #20]
10000622:	0063      	lsls	r3, r4, #1
10000624:	191b      	adds	r3, r3, r4
10000626:	3b03      	subs	r3, #3
10000628:	4698      	mov	r8, r3
1000062a:	2200      	movs	r2, #0
1000062c:	6833      	ldr	r3, [r6, #0]
1000062e:	4443      	add	r3, r8
10000630:	709a      	strb	r2, [r3, #2]
10000632:	705a      	strb	r2, [r3, #1]
10000634:	701a      	strb	r2, [r3, #0]
10000636:	7b73      	ldrb	r3, [r6, #13]
10000638:	4699      	mov	r9, r3
1000063a:	2b00      	cmp	r3, #0
1000063c:	d017      	beq.n	1000066e <add_alarm_under_lock+0xb2>
1000063e:	465a      	mov	r2, fp
10000640:	0019      	movs	r1, r3
10000642:	68b0      	ldr	r0, [r6, #8]
10000644:	6873      	ldr	r3, [r6, #4]
10000646:	4798      	blx	r3
10000648:	6832      	ldr	r2, [r6, #0]
1000064a:	2800      	cmp	r0, #0
1000064c:	d12b      	bne.n	100006a6 <add_alarm_under_lock+0xea>
1000064e:	4643      	mov	r3, r8
10000650:	18d1      	adds	r1, r2, r3
10000652:	464b      	mov	r3, r9
10000654:	4658      	mov	r0, fp
10000656:	005b      	lsls	r3, r3, #1
10000658:	444b      	add	r3, r9
1000065a:	3b03      	subs	r3, #3
1000065c:	18d3      	adds	r3, r2, r3
1000065e:	7098      	strb	r0, [r3, #2]
10000660:	4640      	mov	r0, r8
10000662:	5c12      	ldrb	r2, [r2, r0]
10000664:	2a00      	cmp	r2, #0
10000666:	d000      	beq.n	1000066a <add_alarm_under_lock+0xae>
10000668:	705a      	strb	r2, [r3, #1]
1000066a:	464b      	mov	r3, r9
1000066c:	700b      	strb	r3, [r1, #0]
1000066e:	465b      	mov	r3, fp
10000670:	7373      	strb	r3, [r6, #13]
10000672:	4652      	mov	r2, sl
10000674:	003b      	movs	r3, r7
10000676:	7d28      	ldrb	r0, [r5, #20]
10000678:	f000 fa1a 	bl	10000ab0 <hardware_alarm_set_target>
1000067c:	1e06      	subs	r6, r0, #0
1000067e:	d002      	beq.n	10000686 <add_alarm_under_lock+0xca>
10000680:	9b01      	ldr	r3, [sp, #4]
10000682:	2b00      	cmp	r3, #0
10000684:	d026      	beq.n	100006d4 <add_alarm_under_lock+0x118>
10000686:	9b10      	ldr	r3, [sp, #64]	; 0x40
10000688:	2b00      	cmp	r3, #0
1000068a:	d028      	beq.n	100006de <add_alarm_under_lock+0x122>
1000068c:	0020      	movs	r0, r4
1000068e:	701e      	strb	r6, [r3, #0]
10000690:	e000      	b.n	10000694 <add_alarm_under_lock+0xd8>
10000692:	2000      	movs	r0, #0
10000694:	b003      	add	sp, #12
10000696:	bc3c      	pop	{r2, r3, r4, r5}
10000698:	4690      	mov	r8, r2
1000069a:	4699      	mov	r9, r3
1000069c:	46a2      	mov	sl, r4
1000069e:	46ab      	mov	fp, r5
100006a0:	bdf0      	pop	{r4, r5, r6, r7, pc}
100006a2:	73d3      	strb	r3, [r2, #15]
100006a4:	e7a8      	b.n	100005f8 <add_alarm_under_lock+0x3c>
100006a6:	464b      	mov	r3, r9
100006a8:	005b      	lsls	r3, r3, #1
100006aa:	444b      	add	r3, r9
100006ac:	3b03      	subs	r3, #3
100006ae:	18d1      	adds	r1, r2, r3
100006b0:	468c      	mov	ip, r1
100006b2:	4641      	mov	r1, r8
100006b4:	4648      	mov	r0, r9
100006b6:	1851      	adds	r1, r2, r1
100006b8:	7088      	strb	r0, [r1, #2]
100006ba:	5cd3      	ldrb	r3, [r2, r3]
100006bc:	2b00      	cmp	r3, #0
100006be:	d000      	beq.n	100006c2 <add_alarm_under_lock+0x106>
100006c0:	704b      	strb	r3, [r1, #1]
100006c2:	465b      	mov	r3, fp
100006c4:	4662      	mov	r2, ip
100006c6:	7013      	strb	r3, [r2, #0]
100006c8:	464b      	mov	r3, r9
100006ca:	0020      	movs	r0, r4
100006cc:	7373      	strb	r3, [r6, #13]
100006ce:	45a1      	cmp	r9, r4
100006d0:	d1e0      	bne.n	10000694 <add_alarm_under_lock+0xd8>
100006d2:	e7ce      	b.n	10000672 <add_alarm_under_lock+0xb6>
100006d4:	4659      	mov	r1, fp
100006d6:	6828      	ldr	r0, [r5, #0]
100006d8:	f000 fc48 	bl	10000f6c <ph_delete>
100006dc:	e7d3      	b.n	10000686 <add_alarm_under_lock+0xca>
100006de:	0020      	movs	r0, r4
100006e0:	e7d8      	b.n	10000694 <add_alarm_under_lock+0xd8>
100006e2:	46c0      	nop			; (mov r8, r8)
100006e4:	0fffffff 	.word	0x0fffffff

100006e8 <alarm_pool_alarm_callback>:
100006e8:	b5f0      	push	{r4, r5, r6, r7, lr}
100006ea:	46de      	mov	lr, fp
100006ec:	464e      	mov	r6, r9
100006ee:	4657      	mov	r7, sl
100006f0:	4645      	mov	r5, r8
100006f2:	2300      	movs	r3, #0
100006f4:	b5e0      	push	{r5, r6, r7, lr}
100006f6:	b08d      	sub	sp, #52	; 0x34
100006f8:	930a      	str	r3, [sp, #40]	; 0x28
100006fa:	4b71      	ldr	r3, [pc, #452]	; (100008c0 <alarm_pool_alarm_callback+0x1d8>)
100006fc:	0082      	lsls	r2, r0, #2
100006fe:	58d3      	ldr	r3, [r2, r3]
10000700:	900b      	str	r0, [sp, #44]	; 0x2c
10000702:	4699      	mov	r9, r3
10000704:	2300      	movs	r3, #0
10000706:	469b      	mov	fp, r3
10000708:	464b      	mov	r3, r9
1000070a:	9307      	str	r3, [sp, #28]
1000070c:	f000 f980 	bl	10000a10 <time_us_64>
10000710:	9c07      	ldr	r4, [sp, #28]
10000712:	0006      	movs	r6, r0
10000714:	000f      	movs	r7, r1
10000716:	6862      	ldr	r2, [r4, #4]
10000718:	f3ef 8510 	mrs	r5, PRIMASK
1000071c:	b672      	cpsid	i
1000071e:	6813      	ldr	r3, [r2, #0]
10000720:	2b00      	cmp	r3, #0
10000722:	d0fc      	beq.n	1000071e <alarm_pool_alarm_callback+0x36>
10000724:	0022      	movs	r2, r4
10000726:	9407      	str	r4, [sp, #28]
10000728:	f3bf 8f5f 	dmb	sy
1000072c:	6824      	ldr	r4, [r4, #0]
1000072e:	7b63      	ldrb	r3, [r4, #13]
10000730:	4699      	mov	r9, r3
10000732:	2b00      	cmp	r3, #0
10000734:	d100      	bne.n	10000738 <alarm_pool_alarm_callback+0x50>
10000736:	e070      	b.n	1000081a <alarm_pool_alarm_callback+0x132>
10000738:	6892      	ldr	r2, [r2, #8]
1000073a:	4b62      	ldr	r3, [pc, #392]	; (100008c4 <alarm_pool_alarm_callback+0x1dc>)
1000073c:	4690      	mov	r8, r2
1000073e:	444b      	add	r3, r9
10000740:	011b      	lsls	r3, r3, #4
10000742:	4498      	add	r8, r3
10000744:	4643      	mov	r3, r8
10000746:	681a      	ldr	r2, [r3, #0]
10000748:	685b      	ldr	r3, [r3, #4]
1000074a:	0010      	movs	r0, r2
1000074c:	0019      	movs	r1, r3
1000074e:	1b80      	subs	r0, r0, r6
10000750:	41b9      	sbcs	r1, r7
10000752:	2900      	cmp	r1, #0
10000754:	dd68      	ble.n	10000828 <alarm_pool_alarm_callback+0x140>
10000756:	980b      	ldr	r0, [sp, #44]	; 0x2c
10000758:	f000 f9aa 	bl	10000ab0 <hardware_alarm_set_target>
1000075c:	2300      	movs	r3, #0
1000075e:	2600      	movs	r6, #0
10000760:	4698      	mov	r8, r3
10000762:	2700      	movs	r7, #0
10000764:	469a      	mov	sl, r3
10000766:	9c07      	ldr	r4, [sp, #28]
10000768:	6863      	ldr	r3, [r4, #4]
1000076a:	f3bf 8f5f 	dmb	sy
1000076e:	465a      	mov	r2, fp
10000770:	601a      	str	r2, [r3, #0]
10000772:	f385 8810 	msr	PRIMASK, r5
10000776:	4653      	mov	r3, sl
10000778:	2b00      	cmp	r3, #0
1000077a:	d108      	bne.n	1000078e <alarm_pool_alarm_callback+0xa6>
1000077c:	2800      	cmp	r0, #0
1000077e:	d1c5      	bne.n	1000070c <alarm_pool_alarm_callback+0x24>
10000780:	b00d      	add	sp, #52	; 0x34
10000782:	bc3c      	pop	{r2, r3, r4, r5}
10000784:	4690      	mov	r8, r2
10000786:	4699      	mov	r9, r3
10000788:	46a2      	mov	sl, r4
1000078a:	46ab      	mov	fp, r5
1000078c:	bdf0      	pop	{r4, r5, r6, r7, pc}
1000078e:	23d0      	movs	r3, #208	; 0xd0
10000790:	2280      	movs	r2, #128	; 0x80
10000792:	2180      	movs	r1, #128	; 0x80
10000794:	061b      	lsls	r3, r3, #24
10000796:	0392      	lsls	r2, r2, #14
10000798:	0309      	lsls	r1, r1, #12
1000079a:	615a      	str	r2, [r3, #20]
1000079c:	6199      	str	r1, [r3, #24]
1000079e:	619a      	str	r2, [r3, #24]
100007a0:	9b0a      	ldr	r3, [sp, #40]	; 0x28
100007a2:	4641      	mov	r1, r8
100007a4:	0218      	lsls	r0, r3, #8
100007a6:	464b      	mov	r3, r9
100007a8:	4318      	orrs	r0, r3
100007aa:	47d0      	blx	sl
100007ac:	9008      	str	r0, [sp, #32]
100007ae:	9109      	str	r1, [sp, #36]	; 0x24
100007b0:	6862      	ldr	r2, [r4, #4]
100007b2:	f3ef 8510 	mrs	r5, PRIMASK
100007b6:	b672      	cpsid	i
100007b8:	6813      	ldr	r3, [r2, #0]
100007ba:	2b00      	cmp	r3, #0
100007bc:	d0fc      	beq.n	100007b8 <alarm_pool_alarm_callback+0xd0>
100007be:	9407      	str	r4, [sp, #28]
100007c0:	f3bf 8f5f 	dmb	sy
100007c4:	9908      	ldr	r1, [sp, #32]
100007c6:	9a09      	ldr	r2, [sp, #36]	; 0x24
100007c8:	2a00      	cmp	r2, #0
100007ca:	db49      	blt.n	10000860 <alarm_pool_alarm_callback+0x178>
100007cc:	4311      	orrs	r1, r2
100007ce:	d003      	beq.n	100007d8 <alarm_pool_alarm_callback+0xf0>
100007d0:	9b07      	ldr	r3, [sp, #28]
100007d2:	691b      	ldr	r3, [r3, #16]
100007d4:	2b00      	cmp	r3, #0
100007d6:	d15e      	bne.n	10000896 <alarm_pool_alarm_callback+0x1ae>
100007d8:	9b07      	ldr	r3, [sp, #28]
100007da:	681b      	ldr	r3, [r3, #0]
100007dc:	7bda      	ldrb	r2, [r3, #15]
100007de:	2a00      	cmp	r2, #0
100007e0:	d007      	beq.n	100007f2 <alarm_pool_alarm_callback+0x10a>
100007e2:	0051      	lsls	r1, r2, #1
100007e4:	188a      	adds	r2, r1, r2
100007e6:	6819      	ldr	r1, [r3, #0]
100007e8:	468c      	mov	ip, r1
100007ea:	4649      	mov	r1, r9
100007ec:	4462      	add	r2, ip
100007ee:	3a03      	subs	r2, #3
100007f0:	7051      	strb	r1, [r2, #1]
100007f2:	464a      	mov	r2, r9
100007f4:	73da      	strb	r2, [r3, #15]
100007f6:	464b      	mov	r3, r9
100007f8:	9a07      	ldr	r2, [sp, #28]
100007fa:	3b01      	subs	r3, #1
100007fc:	68d1      	ldr	r1, [r2, #12]
100007fe:	5cca      	ldrb	r2, [r1, r3]
10000800:	3201      	adds	r2, #1
10000802:	54ca      	strb	r2, [r1, r3]
10000804:	465b      	mov	r3, fp
10000806:	9a07      	ldr	r2, [sp, #28]
10000808:	6113      	str	r3, [r2, #16]
1000080a:	6853      	ldr	r3, [r2, #4]
1000080c:	f3bf 8f5f 	dmb	sy
10000810:	465a      	mov	r2, fp
10000812:	601a      	str	r2, [r3, #0]
10000814:	f385 8810 	msr	PRIMASK, r5
10000818:	e778      	b.n	1000070c <alarm_pool_alarm_callback+0x24>
1000081a:	2300      	movs	r3, #0
1000081c:	2600      	movs	r6, #0
1000081e:	4698      	mov	r8, r3
10000820:	2700      	movs	r7, #0
10000822:	469a      	mov	sl, r3
10000824:	2000      	movs	r0, #0
10000826:	e79e      	b.n	10000766 <alarm_pool_alarm_callback+0x7e>
10000828:	2900      	cmp	r1, #0
1000082a:	d102      	bne.n	10000832 <alarm_pool_alarm_callback+0x14a>
1000082c:	2800      	cmp	r0, #0
1000082e:	d000      	beq.n	10000832 <alarm_pool_alarm_callback+0x14a>
10000830:	e791      	b.n	10000756 <alarm_pool_alarm_callback+0x6e>
10000832:	2101      	movs	r1, #1
10000834:	0020      	movs	r0, r4
10000836:	f000 fafb 	bl	10000e30 <ph_remove_head_reserve>
1000083a:	4643      	mov	r3, r8
1000083c:	681e      	ldr	r6, [r3, #0]
1000083e:	685f      	ldr	r7, [r3, #4]
10000840:	689b      	ldr	r3, [r3, #8]
10000842:	9a07      	ldr	r2, [sp, #28]
10000844:	469a      	mov	sl, r3
10000846:	4643      	mov	r3, r8
10000848:	68db      	ldr	r3, [r3, #12]
1000084a:	4698      	mov	r8, r3
1000084c:	68d3      	ldr	r3, [r2, #12]
1000084e:	444b      	add	r3, r9
10000850:	3b01      	subs	r3, #1
10000852:	781b      	ldrb	r3, [r3, #0]
10000854:	930a      	str	r3, [sp, #40]	; 0x28
10000856:	021b      	lsls	r3, r3, #8
10000858:	4303      	orrs	r3, r0
1000085a:	6113      	str	r3, [r2, #16]
1000085c:	2000      	movs	r0, #0
1000085e:	e782      	b.n	10000766 <alarm_pool_alarm_callback+0x7e>
10000860:	6923      	ldr	r3, [r4, #16]
10000862:	2b00      	cmp	r3, #0
10000864:	d0b8      	beq.n	100007d8 <alarm_pool_alarm_callback+0xf0>
10000866:	0033      	movs	r3, r6
10000868:	003c      	movs	r4, r7
1000086a:	1a5b      	subs	r3, r3, r1
1000086c:	4194      	sbcs	r4, r2
1000086e:	001a      	movs	r2, r3
10000870:	0023      	movs	r3, r4
10000872:	42a7      	cmp	r7, r4
10000874:	d819      	bhi.n	100008aa <alarm_pool_alarm_callback+0x1c2>
10000876:	429f      	cmp	r7, r3
10000878:	d01b      	beq.n	100008b2 <alarm_pool_alarm_callback+0x1ca>
1000087a:	4659      	mov	r1, fp
1000087c:	9104      	str	r1, [sp, #16]
1000087e:	2101      	movs	r1, #1
10000880:	9103      	str	r1, [sp, #12]
10000882:	4649      	mov	r1, r9
10000884:	9102      	str	r1, [sp, #8]
10000886:	4641      	mov	r1, r8
10000888:	9101      	str	r1, [sp, #4]
1000088a:	4651      	mov	r1, sl
1000088c:	9807      	ldr	r0, [sp, #28]
1000088e:	9100      	str	r1, [sp, #0]
10000890:	f7ff fe94 	bl	100005bc <add_alarm_under_lock>
10000894:	e7b6      	b.n	10000804 <alarm_pool_alarm_callback+0x11c>
10000896:	f000 f8bb 	bl	10000a10 <time_us_64>
1000089a:	9a08      	ldr	r2, [sp, #32]
1000089c:	9b09      	ldr	r3, [sp, #36]	; 0x24
1000089e:	0006      	movs	r6, r0
100008a0:	000f      	movs	r7, r1
100008a2:	1992      	adds	r2, r2, r6
100008a4:	417b      	adcs	r3, r7
100008a6:	4299      	cmp	r1, r3
100008a8:	d9e5      	bls.n	10000876 <alarm_pool_alarm_callback+0x18e>
100008aa:	2201      	movs	r2, #1
100008ac:	4252      	negs	r2, r2
100008ae:	17d3      	asrs	r3, r2, #31
100008b0:	e7e3      	b.n	1000087a <alarm_pool_alarm_callback+0x192>
100008b2:	4296      	cmp	r6, r2
100008b4:	d9e1      	bls.n	1000087a <alarm_pool_alarm_callback+0x192>
100008b6:	2201      	movs	r2, #1
100008b8:	4252      	negs	r2, r2
100008ba:	17d3      	asrs	r3, r2, #31
100008bc:	e7dd      	b.n	1000087a <alarm_pool_alarm_callback+0x192>
100008be:	46c0      	nop			; (mov r8, r8)
100008c0:	20000b08 	.word	0x20000b08
100008c4:	0fffffff 	.word	0x0fffffff

100008c8 <alarm_pool_init_default>:
100008c8:	b570      	push	{r4, r5, r6, lr}
100008ca:	4c18      	ldr	r4, [pc, #96]	; (1000092c <alarm_pool_init_default+0x64>)
100008cc:	6823      	ldr	r3, [r4, #0]
100008ce:	2b00      	cmp	r3, #0
100008d0:	d000      	beq.n	100008d4 <alarm_pool_init_default+0xc>
100008d2:	bd70      	pop	{r4, r5, r6, pc}
100008d4:	2003      	movs	r0, #3
100008d6:	f000 f88f 	bl	100009f8 <hardware_alarm_claim>
100008da:	2003      	movs	r0, #3
100008dc:	f000 f94a 	bl	10000b74 <hardware_alarm_cancel>
100008e0:	4913      	ldr	r1, [pc, #76]	; (10000930 <alarm_pool_init_default+0x68>)
100008e2:	2003      	movs	r0, #3
100008e4:	f000 f89e 	bl	10000a24 <hardware_alarm_set_callback>
100008e8:	2018      	movs	r0, #24
100008ea:	f003 f9b1 	bl	10003c50 <__wrap_malloc>
100008ee:	0005      	movs	r5, r0
100008f0:	f7ff fdca 	bl	10000488 <next_striped_spin_lock_num>
100008f4:	4b0f      	ldr	r3, [pc, #60]	; (10000934 <alarm_pool_init_default+0x6c>)
100008f6:	002a      	movs	r2, r5
100008f8:	469c      	mov	ip, r3
100008fa:	4460      	add	r0, ip
100008fc:	0080      	lsls	r0, r0, #2
100008fe:	490e      	ldr	r1, [pc, #56]	; (10000938 <alarm_pool_init_default+0x70>)
10000900:	6068      	str	r0, [r5, #4]
10000902:	2010      	movs	r0, #16
10000904:	f000 f99e 	bl	10000c44 <ph_create>
10000908:	2110      	movs	r1, #16
1000090a:	6028      	str	r0, [r5, #0]
1000090c:	2010      	movs	r0, #16
1000090e:	f003 f9a3 	bl	10003c58 <__wrap_calloc>
10000912:	2101      	movs	r1, #1
10000914:	60a8      	str	r0, [r5, #8]
10000916:	2010      	movs	r0, #16
10000918:	f003 f99e 	bl	10003c58 <__wrap_calloc>
1000091c:	2303      	movs	r3, #3
1000091e:	752b      	strb	r3, [r5, #20]
10000920:	4b06      	ldr	r3, [pc, #24]	; (1000093c <alarm_pool_init_default+0x74>)
10000922:	60e8      	str	r0, [r5, #12]
10000924:	60dd      	str	r5, [r3, #12]
10000926:	6025      	str	r5, [r4, #0]
10000928:	e7d3      	b.n	100008d2 <alarm_pool_init_default+0xa>
1000092a:	46c0      	nop			; (mov r8, r8)
1000092c:	20000af4 	.word	0x20000af4
10000930:	100006e9 	.word	0x100006e9
10000934:	34000040 	.word	0x34000040
10000938:	10000589 	.word	0x10000589
1000093c:	20000b08 	.word	0x20000b08

10000940 <hardware_alarm_irq_handler>:
10000940:	b5f0      	push	{r4, r5, r6, r7, lr}
10000942:	46d6      	mov	lr, sl
10000944:	464f      	mov	r7, r9
10000946:	4646      	mov	r6, r8
10000948:	b5c0      	push	{r6, r7, lr}
1000094a:	f3ef 8305 	mrs	r3, IPSR
1000094e:	223f      	movs	r2, #63	; 0x3f
10000950:	4013      	ands	r3, r2
10000952:	0018      	movs	r0, r3
10000954:	3810      	subs	r0, #16
10000956:	f3ef 8c10 	mrs	ip, PRIMASK
1000095a:	b672      	cpsid	i
1000095c:	4d20      	ldr	r5, [pc, #128]	; (100009e0 <hardware_alarm_irq_handler+0xa0>)
1000095e:	682a      	ldr	r2, [r5, #0]
10000960:	2a00      	cmp	r2, #0
10000962:	d0fc      	beq.n	1000095e <hardware_alarm_irq_handler+0x1e>
10000964:	f3bf 8f5f 	dmb	sy
10000968:	2201      	movs	r2, #1
1000096a:	0011      	movs	r1, r2
1000096c:	4081      	lsls	r1, r0
1000096e:	4c1d      	ldr	r4, [pc, #116]	; (100009e4 <hardware_alarm_irq_handler+0xa4>)
10000970:	4688      	mov	r8, r1
10000972:	6361      	str	r1, [r4, #52]	; 0x34
10000974:	491c      	ldr	r1, [pc, #112]	; (100009e8 <hardware_alarm_irq_handler+0xa8>)
10000976:	0017      	movs	r7, r2
10000978:	780e      	ldrb	r6, [r1, #0]
1000097a:	468a      	mov	sl, r1
1000097c:	0031      	movs	r1, r6
1000097e:	40c1      	lsrs	r1, r0
10000980:	400f      	ands	r7, r1
10000982:	420a      	tst	r2, r1
10000984:	d015      	beq.n	100009b2 <hardware_alarm_irq_handler+0x72>
10000986:	4919      	ldr	r1, [pc, #100]	; (100009ec <hardware_alarm_irq_handler+0xac>)
10000988:	0082      	lsls	r2, r0, #2
1000098a:	6a64      	ldr	r4, [r4, #36]	; 0x24
1000098c:	5851      	ldr	r1, [r2, r1]
1000098e:	428c      	cmp	r4, r1
10000990:	d319      	bcc.n	100009c6 <hardware_alarm_irq_handler+0x86>
10000992:	4b17      	ldr	r3, [pc, #92]	; (100009f0 <hardware_alarm_irq_handler+0xb0>)
10000994:	58d2      	ldr	r2, [r2, r3]
10000996:	4643      	mov	r3, r8
10000998:	439e      	bics	r6, r3
1000099a:	4653      	mov	r3, sl
1000099c:	701e      	strb	r6, [r3, #0]
1000099e:	f3bf 8f5f 	dmb	sy
100009a2:	2300      	movs	r3, #0
100009a4:	602b      	str	r3, [r5, #0]
100009a6:	f38c 8810 	msr	PRIMASK, ip
100009aa:	2a00      	cmp	r2, #0
100009ac:	d006      	beq.n	100009bc <hardware_alarm_irq_handler+0x7c>
100009ae:	4790      	blx	r2
100009b0:	e004      	b.n	100009bc <hardware_alarm_irq_handler+0x7c>
100009b2:	f3bf 8f5f 	dmb	sy
100009b6:	602f      	str	r7, [r5, #0]
100009b8:	f38c 8810 	msr	PRIMASK, ip
100009bc:	bc1c      	pop	{r2, r3, r4}
100009be:	4690      	mov	r8, r2
100009c0:	4699      	mov	r9, r3
100009c2:	46a2      	mov	sl, r4
100009c4:	bdf0      	pop	{r4, r5, r6, r7, pc}
100009c6:	4a0b      	ldr	r2, [pc, #44]	; (100009f4 <hardware_alarm_irq_handler+0xb4>)
100009c8:	009b      	lsls	r3, r3, #2
100009ca:	4690      	mov	r8, r2
100009cc:	4443      	add	r3, r8
100009ce:	681a      	ldr	r2, [r3, #0]
100009d0:	601a      	str	r2, [r3, #0]
100009d2:	f3bf 8f5f 	dmb	sy
100009d6:	2300      	movs	r3, #0
100009d8:	602b      	str	r3, [r5, #0]
100009da:	f38c 8810 	msr	PRIMASK, ip
100009de:	e7ed      	b.n	100009bc <hardware_alarm_irq_handler+0x7c>
100009e0:	d0000128 	.word	0xd0000128
100009e4:	40054000 	.word	0x40054000
100009e8:	20000b2a 	.word	0x20000b2a
100009ec:	20000b18 	.word	0x20000b18
100009f0:	20000abc 	.word	0x20000abc
100009f4:	40053fd0 	.word	0x40053fd0

100009f8 <hardware_alarm_claim>:
100009f8:	b510      	push	{r4, lr}
100009fa:	0001      	movs	r1, r0
100009fc:	4a02      	ldr	r2, [pc, #8]	; (10000a08 <hardware_alarm_claim+0x10>)
100009fe:	4803      	ldr	r0, [pc, #12]	; (10000a0c <hardware_alarm_claim+0x14>)
10000a00:	f7ff fd04 	bl	1000040c <hw_claim_or_assert>
10000a04:	bd10      	pop	{r4, pc}
10000a06:	46c0      	nop			; (mov r8, r8)
10000a08:	10004b8c 	.word	0x10004b8c
10000a0c:	20000b28 	.word	0x20000b28

10000a10 <time_us_64>:
10000a10:	4b03      	ldr	r3, [pc, #12]	; (10000a20 <time_us_64+0x10>)
10000a12:	6a59      	ldr	r1, [r3, #36]	; 0x24
10000a14:	000a      	movs	r2, r1
10000a16:	6a98      	ldr	r0, [r3, #40]	; 0x28
10000a18:	6a59      	ldr	r1, [r3, #36]	; 0x24
10000a1a:	428a      	cmp	r2, r1
10000a1c:	d1fa      	bne.n	10000a14 <time_us_64+0x4>
10000a1e:	4770      	bx	lr
10000a20:	40054000 	.word	0x40054000

10000a24 <hardware_alarm_set_callback>:
10000a24:	b570      	push	{r4, r5, r6, lr}
10000a26:	0004      	movs	r4, r0
10000a28:	000d      	movs	r5, r1
10000a2a:	f3ef 8610 	mrs	r6, PRIMASK
10000a2e:	b672      	cpsid	i
10000a30:	4a1a      	ldr	r2, [pc, #104]	; (10000a9c <hardware_alarm_set_callback+0x78>)
10000a32:	6813      	ldr	r3, [r2, #0]
10000a34:	2b00      	cmp	r3, #0
10000a36:	d0fc      	beq.n	10000a32 <hardware_alarm_set_callback+0xe>
10000a38:	f3bf 8f5f 	dmb	sy
10000a3c:	2d00      	cmp	r5, #0
10000a3e:	d01b      	beq.n	10000a78 <hardware_alarm_set_callback+0x54>
10000a40:	0020      	movs	r0, r4
10000a42:	f000 fd4f 	bl	100014e4 <irq_get_vtable_handler>
10000a46:	4916      	ldr	r1, [pc, #88]	; (10000aa0 <hardware_alarm_set_callback+0x7c>)
10000a48:	4281      	cmp	r1, r0
10000a4a:	d00a      	beq.n	10000a62 <hardware_alarm_set_callback+0x3e>
10000a4c:	0020      	movs	r0, r4
10000a4e:	f000 fd51 	bl	100014f4 <irq_set_exclusive_handler>
10000a52:	2101      	movs	r1, #1
10000a54:	0020      	movs	r0, r4
10000a56:	f000 fd33 	bl	100014c0 <irq_set_enabled>
10000a5a:	2301      	movs	r3, #1
10000a5c:	40a3      	lsls	r3, r4
10000a5e:	4a11      	ldr	r2, [pc, #68]	; (10000aa4 <hardware_alarm_set_callback+0x80>)
10000a60:	6013      	str	r3, [r2, #0]
10000a62:	4b11      	ldr	r3, [pc, #68]	; (10000aa8 <hardware_alarm_set_callback+0x84>)
10000a64:	00a4      	lsls	r4, r4, #2
10000a66:	50e5      	str	r5, [r4, r3]
10000a68:	f3bf 8f5f 	dmb	sy
10000a6c:	2200      	movs	r2, #0
10000a6e:	4b0b      	ldr	r3, [pc, #44]	; (10000a9c <hardware_alarm_set_callback+0x78>)
10000a70:	601a      	str	r2, [r3, #0]
10000a72:	f386 8810 	msr	PRIMASK, r6
10000a76:	bd70      	pop	{r4, r5, r6, pc}
10000a78:	4b0b      	ldr	r3, [pc, #44]	; (10000aa8 <hardware_alarm_set_callback+0x84>)
10000a7a:	00a2      	lsls	r2, r4, #2
10000a7c:	50d5      	str	r5, [r2, r3]
10000a7e:	2201      	movs	r2, #1
10000a80:	40a2      	lsls	r2, r4
10000a82:	490a      	ldr	r1, [pc, #40]	; (10000aac <hardware_alarm_set_callback+0x88>)
10000a84:	0020      	movs	r0, r4
10000a86:	780b      	ldrb	r3, [r1, #0]
10000a88:	4393      	bics	r3, r2
10000a8a:	700b      	strb	r3, [r1, #0]
10000a8c:	4904      	ldr	r1, [pc, #16]	; (10000aa0 <hardware_alarm_set_callback+0x7c>)
10000a8e:	f000 fd5b 	bl	10001548 <irq_remove_handler>
10000a92:	2100      	movs	r1, #0
10000a94:	0020      	movs	r0, r4
10000a96:	f000 fd13 	bl	100014c0 <irq_set_enabled>
10000a9a:	e7e5      	b.n	10000a68 <hardware_alarm_set_callback+0x44>
10000a9c:	d0000128 	.word	0xd0000128
10000aa0:	10000941 	.word	0x10000941
10000aa4:	40056038 	.word	0x40056038
10000aa8:	20000abc 	.word	0x20000abc
10000aac:	20000b2a 	.word	0x20000b2a

10000ab0 <hardware_alarm_set_target>:
10000ab0:	b5f0      	push	{r4, r5, r6, r7, lr}
10000ab2:	46ce      	mov	lr, r9
10000ab4:	4647      	mov	r7, r8
10000ab6:	b580      	push	{r7, lr}
10000ab8:	4c2a      	ldr	r4, [pc, #168]	; (10000b64 <hardware_alarm_set_target+0xb4>)
10000aba:	6a61      	ldr	r1, [r4, #36]	; 0x24
10000abc:	000d      	movs	r5, r1
10000abe:	6aa6      	ldr	r6, [r4, #40]	; 0x28
10000ac0:	6a61      	ldr	r1, [r4, #36]	; 0x24
10000ac2:	42a9      	cmp	r1, r5
10000ac4:	d1fa      	bne.n	10000abc <hardware_alarm_set_target+0xc>
10000ac6:	428b      	cmp	r3, r1
10000ac8:	d807      	bhi.n	10000ada <hardware_alarm_set_target+0x2a>
10000aca:	d004      	beq.n	10000ad6 <hardware_alarm_set_target+0x26>
10000acc:	2001      	movs	r0, #1
10000ace:	bc0c      	pop	{r2, r3}
10000ad0:	4690      	mov	r8, r2
10000ad2:	4699      	mov	r9, r3
10000ad4:	bdf0      	pop	{r4, r5, r6, r7, pc}
10000ad6:	42b2      	cmp	r2, r6
10000ad8:	d9f8      	bls.n	10000acc <hardware_alarm_set_target+0x1c>
10000ada:	f3ef 8810 	mrs	r8, PRIMASK
10000ade:	b672      	cpsid	i
10000ae0:	4c21      	ldr	r4, [pc, #132]	; (10000b68 <hardware_alarm_set_target+0xb8>)
10000ae2:	6821      	ldr	r1, [r4, #0]
10000ae4:	2900      	cmp	r1, #0
10000ae6:	d0fc      	beq.n	10000ae2 <hardware_alarm_set_target+0x32>
10000ae8:	f3bf 8f5f 	dmb	sy
10000aec:	2501      	movs	r5, #1
10000aee:	4085      	lsls	r5, r0
10000af0:	4c1c      	ldr	r4, [pc, #112]	; (10000b64 <hardware_alarm_set_target+0xb4>)
10000af2:	4e1e      	ldr	r6, [pc, #120]	; (10000b6c <hardware_alarm_set_target+0xbc>)
10000af4:	6365      	str	r5, [r4, #52]	; 0x34
10000af6:	b2e9      	uxtb	r1, r5
10000af8:	468c      	mov	ip, r1
10000afa:	7831      	ldrb	r1, [r6, #0]
10000afc:	4689      	mov	r9, r1
10000afe:	4661      	mov	r1, ip
10000b00:	464f      	mov	r7, r9
10000b02:	4339      	orrs	r1, r7
10000b04:	7031      	strb	r1, [r6, #0]
10000b06:	1d01      	adds	r1, r0, #4
10000b08:	0089      	lsls	r1, r1, #2
10000b0a:	510a      	str	r2, [r1, r4]
10000b0c:	4918      	ldr	r1, [pc, #96]	; (10000b70 <hardware_alarm_set_target+0xc0>)
10000b0e:	0080      	lsls	r0, r0, #2
10000b10:	5043      	str	r3, [r0, r1]
10000b12:	6a21      	ldr	r1, [r4, #32]
10000b14:	2000      	movs	r0, #0
10000b16:	4229      	tst	r1, r5
10000b18:	d00c      	beq.n	10000b34 <hardware_alarm_set_target+0x84>
10000b1a:	0020      	movs	r0, r4
10000b1c:	6a61      	ldr	r1, [r4, #36]	; 0x24
10000b1e:	000c      	movs	r4, r1
10000b20:	6a87      	ldr	r7, [r0, #40]	; 0x28
10000b22:	6a41      	ldr	r1, [r0, #36]	; 0x24
10000b24:	42a1      	cmp	r1, r4
10000b26:	d1fa      	bne.n	10000b1e <hardware_alarm_set_target+0x6e>
10000b28:	428b      	cmp	r3, r1
10000b2a:	d802      	bhi.n	10000b32 <hardware_alarm_set_target+0x82>
10000b2c:	d10a      	bne.n	10000b44 <hardware_alarm_set_target+0x94>
10000b2e:	42ba      	cmp	r2, r7
10000b30:	d908      	bls.n	10000b44 <hardware_alarm_set_target+0x94>
10000b32:	2000      	movs	r0, #0
10000b34:	f3bf 8f5f 	dmb	sy
10000b38:	2200      	movs	r2, #0
10000b3a:	4b0b      	ldr	r3, [pc, #44]	; (10000b68 <hardware_alarm_set_target+0xb8>)
10000b3c:	601a      	str	r2, [r3, #0]
10000b3e:	f388 8810 	msr	PRIMASK, r8
10000b42:	e7c4      	b.n	10000ace <hardware_alarm_set_target+0x1e>
10000b44:	4b07      	ldr	r3, [pc, #28]	; (10000b64 <hardware_alarm_set_target+0xb4>)
10000b46:	464f      	mov	r7, r9
10000b48:	621d      	str	r5, [r3, #32]
10000b4a:	635d      	str	r5, [r3, #52]	; 0x34
10000b4c:	4663      	mov	r3, ip
10000b4e:	439f      	bics	r7, r3
10000b50:	2001      	movs	r0, #1
10000b52:	7037      	strb	r7, [r6, #0]
10000b54:	f3bf 8f5f 	dmb	sy
10000b58:	2200      	movs	r2, #0
10000b5a:	4b03      	ldr	r3, [pc, #12]	; (10000b68 <hardware_alarm_set_target+0xb8>)
10000b5c:	601a      	str	r2, [r3, #0]
10000b5e:	f388 8810 	msr	PRIMASK, r8
10000b62:	e7b4      	b.n	10000ace <hardware_alarm_set_target+0x1e>
10000b64:	40054000 	.word	0x40054000
10000b68:	d0000128 	.word	0xd0000128
10000b6c:	20000b2a 	.word	0x20000b2a
10000b70:	20000b18 	.word	0x20000b18

10000b74 <hardware_alarm_cancel>:
10000b74:	b510      	push	{r4, lr}
10000b76:	f3ef 8410 	mrs	r4, PRIMASK
10000b7a:	b672      	cpsid	i
10000b7c:	490a      	ldr	r1, [pc, #40]	; (10000ba8 <hardware_alarm_cancel+0x34>)
10000b7e:	680b      	ldr	r3, [r1, #0]
10000b80:	2b00      	cmp	r3, #0
10000b82:	d0fc      	beq.n	10000b7e <hardware_alarm_cancel+0xa>
10000b84:	f3bf 8f5f 	dmb	sy
10000b88:	2301      	movs	r3, #1
10000b8a:	4083      	lsls	r3, r0
10000b8c:	4a07      	ldr	r2, [pc, #28]	; (10000bac <hardware_alarm_cancel+0x38>)
10000b8e:	4808      	ldr	r0, [pc, #32]	; (10000bb0 <hardware_alarm_cancel+0x3c>)
10000b90:	6213      	str	r3, [r2, #32]
10000b92:	7802      	ldrb	r2, [r0, #0]
10000b94:	439a      	bics	r2, r3
10000b96:	7002      	strb	r2, [r0, #0]
10000b98:	f3bf 8f5f 	dmb	sy
10000b9c:	2300      	movs	r3, #0
10000b9e:	600b      	str	r3, [r1, #0]
10000ba0:	f384 8810 	msr	PRIMASK, r4
10000ba4:	bd10      	pop	{r4, pc}
10000ba6:	46c0      	nop			; (mov r8, r8)
10000ba8:	d0000128 	.word	0xd0000128
10000bac:	40054000 	.word	0x40054000
10000bb0:	20000b2a 	.word	0x20000b2a

10000bb4 <lock_init>:
10000bb4:	4b02      	ldr	r3, [pc, #8]	; (10000bc0 <lock_init+0xc>)
10000bb6:	469c      	mov	ip, r3
10000bb8:	4461      	add	r1, ip
10000bba:	0089      	lsls	r1, r1, #2
10000bbc:	6001      	str	r1, [r0, #0]
10000bbe:	4770      	bx	lr
10000bc0:	34000040 	.word	0x34000040

10000bc4 <mutex_init>:
10000bc4:	b510      	push	{r4, lr}
10000bc6:	0004      	movs	r4, r0
10000bc8:	f7ff fc5e 	bl	10000488 <next_striped_spin_lock_num>
10000bcc:	0001      	movs	r1, r0
10000bce:	0020      	movs	r0, r4
10000bd0:	f7ff fff0 	bl	10000bb4 <lock_init>
10000bd4:	f3bf 8f5f 	dmb	sy
10000bd8:	bd10      	pop	{r4, pc}
10000bda:	46c0      	nop			; (mov r8, r8)

10000bdc <ph_merge_nodes>:
10000bdc:	b570      	push	{r4, r5, r6, lr}
10000bde:	0005      	movs	r5, r0
10000be0:	000e      	movs	r6, r1
10000be2:	0014      	movs	r4, r2
10000be4:	2900      	cmp	r1, #0
10000be6:	d024      	beq.n	10000c32 <ph_merge_nodes+0x56>
10000be8:	2a00      	cmp	r2, #0
10000bea:	d024      	beq.n	10000c36 <ph_merge_nodes+0x5a>
10000bec:	6880      	ldr	r0, [r0, #8]
10000bee:	686b      	ldr	r3, [r5, #4]
10000bf0:	4798      	blx	r3
10000bf2:	6829      	ldr	r1, [r5, #0]
10000bf4:	2800      	cmp	r0, #0
10000bf6:	d00e      	beq.n	10000c16 <ph_merge_nodes+0x3a>
10000bf8:	0063      	lsls	r3, r4, #1
10000bfa:	191b      	adds	r3, r3, r4
10000bfc:	0072      	lsls	r2, r6, #1
10000bfe:	3b03      	subs	r3, #3
10000c00:	1992      	adds	r2, r2, r6
10000c02:	18cb      	adds	r3, r1, r3
10000c04:	3a03      	subs	r2, #3
10000c06:	709e      	strb	r6, [r3, #2]
10000c08:	1888      	adds	r0, r1, r2
10000c0a:	5c8a      	ldrb	r2, [r1, r2]
10000c0c:	2a00      	cmp	r2, #0
10000c0e:	d114      	bne.n	10000c3a <ph_merge_nodes+0x5e>
10000c10:	7004      	strb	r4, [r0, #0]
10000c12:	0030      	movs	r0, r6
10000c14:	e00e      	b.n	10000c34 <ph_merge_nodes+0x58>
10000c16:	0073      	lsls	r3, r6, #1
10000c18:	199b      	adds	r3, r3, r6
10000c1a:	0062      	lsls	r2, r4, #1
10000c1c:	3b03      	subs	r3, #3
10000c1e:	1912      	adds	r2, r2, r4
10000c20:	18cb      	adds	r3, r1, r3
10000c22:	3a03      	subs	r2, #3
10000c24:	709c      	strb	r4, [r3, #2]
10000c26:	1888      	adds	r0, r1, r2
10000c28:	5c8a      	ldrb	r2, [r1, r2]
10000c2a:	2a00      	cmp	r2, #0
10000c2c:	d000      	beq.n	10000c30 <ph_merge_nodes+0x54>
10000c2e:	705a      	strb	r2, [r3, #1]
10000c30:	7006      	strb	r6, [r0, #0]
10000c32:	0020      	movs	r0, r4
10000c34:	bd70      	pop	{r4, r5, r6, pc}
10000c36:	0008      	movs	r0, r1
10000c38:	e7fc      	b.n	10000c34 <ph_merge_nodes+0x58>
10000c3a:	705a      	strb	r2, [r3, #1]
10000c3c:	7004      	strb	r4, [r0, #0]
10000c3e:	0030      	movs	r0, r6
10000c40:	e7f8      	b.n	10000c34 <ph_merge_nodes+0x58>
10000c42:	46c0      	nop			; (mov r8, r8)

10000c44 <ph_create>:
10000c44:	b5f0      	push	{r4, r5, r6, r7, lr}
10000c46:	46c6      	mov	lr, r8
10000c48:	0005      	movs	r5, r0
10000c4a:	000f      	movs	r7, r1
10000c4c:	b500      	push	{lr}
10000c4e:	2110      	movs	r1, #16
10000c50:	2001      	movs	r0, #1
10000c52:	0016      	movs	r6, r2
10000c54:	f003 f800 	bl	10003c58 <__wrap_calloc>
10000c58:	b2eb      	uxtb	r3, r5
10000c5a:	0004      	movs	r4, r0
10000c5c:	7303      	strb	r3, [r0, #12]
10000c5e:	2103      	movs	r1, #3
10000c60:	6047      	str	r7, [r0, #4]
10000c62:	0028      	movs	r0, r5
10000c64:	4698      	mov	r8, r3
10000c66:	f002 fff7 	bl	10003c58 <__wrap_calloc>
10000c6a:	2300      	movs	r3, #0
10000c6c:	7363      	strb	r3, [r4, #13]
10000c6e:	3301      	adds	r3, #1
10000c70:	73a3      	strb	r3, [r4, #14]
10000c72:	4643      	mov	r3, r8
10000c74:	21ff      	movs	r1, #255	; 0xff
10000c76:	73e3      	strb	r3, [r4, #15]
10000c78:	23fe      	movs	r3, #254	; 0xfe
10000c7a:	6020      	str	r0, [r4, #0]
10000c7c:	60a6      	str	r6, [r4, #8]
10000c7e:	4029      	ands	r1, r5
10000c80:	422b      	tst	r3, r5
10000c82:	d006      	beq.n	10000c92 <ph_create+0x4e>
10000c84:	1c42      	adds	r2, r0, #1
10000c86:	3bfd      	subs	r3, #253	; 0xfd
10000c88:	3301      	adds	r3, #1
10000c8a:	7013      	strb	r3, [r2, #0]
10000c8c:	3203      	adds	r2, #3
10000c8e:	428b      	cmp	r3, r1
10000c90:	d3fa      	bcc.n	10000c88 <ph_create+0x44>
10000c92:	004b      	lsls	r3, r1, #1
10000c94:	1859      	adds	r1, r3, r1
10000c96:	2300      	movs	r3, #0
10000c98:	1840      	adds	r0, r0, r1
10000c9a:	3803      	subs	r0, #3
10000c9c:	7043      	strb	r3, [r0, #1]
10000c9e:	0020      	movs	r0, r4
10000ca0:	bc04      	pop	{r2}
10000ca2:	4690      	mov	r8, r2
10000ca4:	bdf0      	pop	{r4, r5, r6, r7, pc}
10000ca6:	46c0      	nop			; (mov r8, r8)

10000ca8 <ph_merge_two_pass>:
10000ca8:	b5f8      	push	{r3, r4, r5, r6, r7, lr}
10000caa:	46ce      	mov	lr, r9
10000cac:	4647      	mov	r7, r8
10000cae:	0006      	movs	r6, r0
10000cb0:	000c      	movs	r4, r1
10000cb2:	b580      	push	{r7, lr}
10000cb4:	2900      	cmp	r1, #0
10000cb6:	d007      	beq.n	10000cc8 <ph_merge_two_pass+0x20>
10000cb8:	004d      	lsls	r5, r1, #1
10000cba:	6803      	ldr	r3, [r0, #0]
10000cbc:	186d      	adds	r5, r5, r1
10000cbe:	3d03      	subs	r5, #3
10000cc0:	195a      	adds	r2, r3, r5
10000cc2:	7857      	ldrb	r7, [r2, #1]
10000cc4:	2f00      	cmp	r7, #0
10000cc6:	d104      	bne.n	10000cd2 <ph_merge_two_pass+0x2a>
10000cc8:	0020      	movs	r0, r4
10000cca:	bc0c      	pop	{r2, r3}
10000ccc:	4690      	mov	r8, r2
10000cce:	4699      	mov	r9, r3
10000cd0:	bdf8      	pop	{r3, r4, r5, r6, r7, pc}
10000cd2:	0079      	lsls	r1, r7, #1
10000cd4:	19c9      	adds	r1, r1, r7
10000cd6:	3903      	subs	r1, #3
10000cd8:	4688      	mov	r8, r1
10000cda:	4443      	add	r3, r8
10000cdc:	7859      	ldrb	r1, [r3, #1]
10000cde:	4689      	mov	r9, r1
10000ce0:	2100      	movs	r1, #0
10000ce2:	7059      	strb	r1, [r3, #1]
10000ce4:	7051      	strb	r1, [r2, #1]
10000ce6:	6873      	ldr	r3, [r6, #4]
10000ce8:	003a      	movs	r2, r7
10000cea:	0021      	movs	r1, r4
10000cec:	6880      	ldr	r0, [r0, #8]
10000cee:	4798      	blx	r3
10000cf0:	6833      	ldr	r3, [r6, #0]
10000cf2:	2800      	cmp	r0, #0
10000cf4:	d014      	beq.n	10000d20 <ph_merge_two_pass+0x78>
10000cf6:	4642      	mov	r2, r8
10000cf8:	189a      	adds	r2, r3, r2
10000cfa:	7094      	strb	r4, [r2, #2]
10000cfc:	1959      	adds	r1, r3, r5
10000cfe:	5d5b      	ldrb	r3, [r3, r5]
10000d00:	2b00      	cmp	r3, #0
10000d02:	d000      	beq.n	10000d06 <ph_merge_two_pass+0x5e>
10000d04:	7053      	strb	r3, [r2, #1]
10000d06:	700f      	strb	r7, [r1, #0]
10000d08:	0027      	movs	r7, r4
10000d0a:	4649      	mov	r1, r9
10000d0c:	0030      	movs	r0, r6
10000d0e:	f7ff ffcb 	bl	10000ca8 <ph_merge_two_pass>
10000d12:	0039      	movs	r1, r7
10000d14:	0002      	movs	r2, r0
10000d16:	0030      	movs	r0, r6
10000d18:	f7ff ff60 	bl	10000bdc <ph_merge_nodes>
10000d1c:	0004      	movs	r4, r0
10000d1e:	e7d3      	b.n	10000cc8 <ph_merge_two_pass+0x20>
10000d20:	4642      	mov	r2, r8
10000d22:	4641      	mov	r1, r8
10000d24:	195d      	adds	r5, r3, r5
10000d26:	70af      	strb	r7, [r5, #2]
10000d28:	189a      	adds	r2, r3, r2
10000d2a:	5c5b      	ldrb	r3, [r3, r1]
10000d2c:	2b00      	cmp	r3, #0
10000d2e:	d000      	beq.n	10000d32 <ph_merge_two_pass+0x8a>
10000d30:	706b      	strb	r3, [r5, #1]
10000d32:	7014      	strb	r4, [r2, #0]
10000d34:	e7e9      	b.n	10000d0a <ph_merge_two_pass+0x62>
10000d36:	46c0      	nop			; (mov r8, r8)

10000d38 <ph_remove_any_head>:
10000d38:	b5f0      	push	{r4, r5, r6, r7, lr}
10000d3a:	4657      	mov	r7, sl
10000d3c:	4645      	mov	r5, r8
10000d3e:	46de      	mov	lr, fp
10000d40:	464e      	mov	r6, r9
10000d42:	b5e0      	push	{r5, r6, r7, lr}
10000d44:	000d      	movs	r5, r1
10000d46:	006b      	lsls	r3, r5, #1
10000d48:	6801      	ldr	r1, [r0, #0]
10000d4a:	195b      	adds	r3, r3, r5
10000d4c:	1edf      	subs	r7, r3, #3
10000d4e:	0004      	movs	r4, r0
10000d50:	5dc8      	ldrb	r0, [r1, r7]
10000d52:	b083      	sub	sp, #12
10000d54:	9201      	str	r2, [sp, #4]
10000d56:	19ca      	adds	r2, r1, r7
10000d58:	2800      	cmp	r0, #0
10000d5a:	d04c      	beq.n	10000df6 <ph_remove_any_head+0xbe>
10000d5c:	0043      	lsls	r3, r0, #1
10000d5e:	181b      	adds	r3, r3, r0
10000d60:	3b03      	subs	r3, #3
10000d62:	18cb      	adds	r3, r1, r3
10000d64:	785e      	ldrb	r6, [r3, #1]
10000d66:	46b4      	mov	ip, r6
10000d68:	2e00      	cmp	r6, #0
10000d6a:	d116      	bne.n	10000d9a <ph_remove_any_head+0x62>
10000d6c:	9e01      	ldr	r6, [sp, #4]
10000d6e:	2e00      	cmp	r6, #0
10000d70:	d13e      	bne.n	10000df0 <ph_remove_any_head+0xb8>
10000d72:	7be6      	ldrb	r6, [r4, #15]
10000d74:	2e00      	cmp	r6, #0
10000d76:	d004      	beq.n	10000d82 <ph_remove_any_head+0x4a>
10000d78:	0073      	lsls	r3, r6, #1
10000d7a:	199b      	adds	r3, r3, r6
10000d7c:	18cb      	adds	r3, r1, r3
10000d7e:	3b03      	subs	r3, #3
10000d80:	705d      	strb	r5, [r3, #1]
10000d82:	73e5      	strb	r5, [r4, #15]
10000d84:	2800      	cmp	r0, #0
10000d86:	d12f      	bne.n	10000de8 <ph_remove_any_head+0xb0>
10000d88:	2300      	movs	r3, #0
10000d8a:	7053      	strb	r3, [r2, #1]
10000d8c:	b003      	add	sp, #12
10000d8e:	bc3c      	pop	{r2, r3, r4, r5}
10000d90:	4690      	mov	r8, r2
10000d92:	4699      	mov	r9, r3
10000d94:	46a2      	mov	sl, r4
10000d96:	46ab      	mov	fp, r5
10000d98:	bdf0      	pop	{r4, r5, r6, r7, pc}
10000d9a:	0072      	lsls	r2, r6, #1
10000d9c:	4462      	add	r2, ip
10000d9e:	3a03      	subs	r2, #3
10000da0:	1889      	adds	r1, r1, r2
10000da2:	784a      	ldrb	r2, [r1, #1]
10000da4:	4690      	mov	r8, r2
10000da6:	2200      	movs	r2, #0
10000da8:	704a      	strb	r2, [r1, #1]
10000daa:	4691      	mov	r9, r2
10000dac:	705a      	strb	r2, [r3, #1]
10000dae:	0001      	movs	r1, r0
10000db0:	0032      	movs	r2, r6
10000db2:	0020      	movs	r0, r4
10000db4:	f7ff ff12 	bl	10000bdc <ph_merge_nodes>
10000db8:	4643      	mov	r3, r8
10000dba:	4682      	mov	sl, r0
10000dbc:	2b00      	cmp	r3, #0
10000dbe:	d007      	beq.n	10000dd0 <ph_remove_any_head+0x98>
10000dc0:	005b      	lsls	r3, r3, #1
10000dc2:	6821      	ldr	r1, [r4, #0]
10000dc4:	4443      	add	r3, r8
10000dc6:	3b03      	subs	r3, #3
10000dc8:	18cb      	adds	r3, r1, r3
10000dca:	785a      	ldrb	r2, [r3, #1]
10000dcc:	2a00      	cmp	r2, #0
10000dce:	d116      	bne.n	10000dfe <ph_remove_any_head+0xc6>
10000dd0:	4642      	mov	r2, r8
10000dd2:	4651      	mov	r1, sl
10000dd4:	0020      	movs	r0, r4
10000dd6:	f7ff ff01 	bl	10000bdc <ph_merge_nodes>
10000dda:	6821      	ldr	r1, [r4, #0]
10000ddc:	9b01      	ldr	r3, [sp, #4]
10000dde:	19ca      	adds	r2, r1, r7
10000de0:	2b00      	cmp	r3, #0
10000de2:	d0c6      	beq.n	10000d72 <ph_remove_any_head+0x3a>
10000de4:	2800      	cmp	r0, #0
10000de6:	d0cf      	beq.n	10000d88 <ph_remove_any_head+0x50>
10000de8:	0043      	lsls	r3, r0, #1
10000dea:	181b      	adds	r3, r3, r0
10000dec:	3b03      	subs	r3, #3
10000dee:	18cb      	adds	r3, r1, r3
10000df0:	2100      	movs	r1, #0
10000df2:	7099      	strb	r1, [r3, #2]
10000df4:	e7c8      	b.n	10000d88 <ph_remove_any_head+0x50>
10000df6:	9b01      	ldr	r3, [sp, #4]
10000df8:	2b00      	cmp	r3, #0
10000dfa:	d1c5      	bne.n	10000d88 <ph_remove_any_head+0x50>
10000dfc:	e7b9      	b.n	10000d72 <ph_remove_any_head+0x3a>
10000dfe:	0050      	lsls	r0, r2, #1
10000e00:	1880      	adds	r0, r0, r2
10000e02:	3803      	subs	r0, #3
10000e04:	1809      	adds	r1, r1, r0
10000e06:	7848      	ldrb	r0, [r1, #1]
10000e08:	4683      	mov	fp, r0
10000e0a:	4648      	mov	r0, r9
10000e0c:	7048      	strb	r0, [r1, #1]
10000e0e:	7058      	strb	r0, [r3, #1]
10000e10:	4641      	mov	r1, r8
10000e12:	0020      	movs	r0, r4
10000e14:	f7ff fee2 	bl	10000bdc <ph_merge_nodes>
10000e18:	4659      	mov	r1, fp
10000e1a:	4680      	mov	r8, r0
10000e1c:	0020      	movs	r0, r4
10000e1e:	f7ff ff43 	bl	10000ca8 <ph_merge_two_pass>
10000e22:	4641      	mov	r1, r8
10000e24:	0002      	movs	r2, r0
10000e26:	0020      	movs	r0, r4
10000e28:	f7ff fed8 	bl	10000bdc <ph_merge_nodes>
10000e2c:	4680      	mov	r8, r0
10000e2e:	e7cf      	b.n	10000dd0 <ph_remove_any_head+0x98>

10000e30 <ph_remove_head_reserve>:
10000e30:	b5f0      	push	{r4, r5, r6, r7, lr}
10000e32:	464e      	mov	r6, r9
10000e34:	4645      	mov	r5, r8
10000e36:	46de      	mov	lr, fp
10000e38:	4657      	mov	r7, sl
10000e3a:	b5e0      	push	{r5, r6, r7, lr}
10000e3c:	7b46      	ldrb	r6, [r0, #13]
10000e3e:	0004      	movs	r4, r0
10000e40:	0075      	lsls	r5, r6, #1
10000e42:	6800      	ldr	r0, [r0, #0]
10000e44:	19ad      	adds	r5, r5, r6
10000e46:	3d03      	subs	r5, #3
10000e48:	b083      	sub	sp, #12
10000e4a:	9101      	str	r1, [sp, #4]
10000e4c:	5d41      	ldrb	r1, [r0, r5]
10000e4e:	1942      	adds	r2, r0, r5
10000e50:	2900      	cmp	r1, #0
10000e52:	d04e      	beq.n	10000ef2 <ph_remove_head_reserve+0xc2>
10000e54:	004b      	lsls	r3, r1, #1
10000e56:	185b      	adds	r3, r3, r1
10000e58:	3b03      	subs	r3, #3
10000e5a:	18c3      	adds	r3, r0, r3
10000e5c:	785f      	ldrb	r7, [r3, #1]
10000e5e:	46bc      	mov	ip, r7
10000e60:	2f00      	cmp	r7, #0
10000e62:	d118      	bne.n	10000e96 <ph_remove_head_reserve+0x66>
10000e64:	9d01      	ldr	r5, [sp, #4]
10000e66:	2d00      	cmp	r5, #0
10000e68:	d140      	bne.n	10000eec <ph_remove_head_reserve+0xbc>
10000e6a:	7be5      	ldrb	r5, [r4, #15]
10000e6c:	2d00      	cmp	r5, #0
10000e6e:	d004      	beq.n	10000e7a <ph_remove_head_reserve+0x4a>
10000e70:	006b      	lsls	r3, r5, #1
10000e72:	195b      	adds	r3, r3, r5
10000e74:	18c3      	adds	r3, r0, r3
10000e76:	3b03      	subs	r3, #3
10000e78:	705e      	strb	r6, [r3, #1]
10000e7a:	73e6      	strb	r6, [r4, #15]
10000e7c:	2900      	cmp	r1, #0
10000e7e:	d131      	bne.n	10000ee4 <ph_remove_head_reserve+0xb4>
10000e80:	2300      	movs	r3, #0
10000e82:	0030      	movs	r0, r6
10000e84:	7053      	strb	r3, [r2, #1]
10000e86:	7361      	strb	r1, [r4, #13]
10000e88:	b003      	add	sp, #12
10000e8a:	bc3c      	pop	{r2, r3, r4, r5}
10000e8c:	4690      	mov	r8, r2
10000e8e:	4699      	mov	r9, r3
10000e90:	46a2      	mov	sl, r4
10000e92:	46ab      	mov	fp, r5
10000e94:	bdf0      	pop	{r4, r5, r6, r7, pc}
10000e96:	007a      	lsls	r2, r7, #1
10000e98:	4462      	add	r2, ip
10000e9a:	3a03      	subs	r2, #3
10000e9c:	1880      	adds	r0, r0, r2
10000e9e:	7842      	ldrb	r2, [r0, #1]
10000ea0:	4693      	mov	fp, r2
10000ea2:	2200      	movs	r2, #0
10000ea4:	7042      	strb	r2, [r0, #1]
10000ea6:	4691      	mov	r9, r2
10000ea8:	705a      	strb	r2, [r3, #1]
10000eaa:	0020      	movs	r0, r4
10000eac:	003a      	movs	r2, r7
10000eae:	f7ff fe95 	bl	10000bdc <ph_merge_nodes>
10000eb2:	465b      	mov	r3, fp
10000eb4:	4680      	mov	r8, r0
10000eb6:	2b00      	cmp	r3, #0
10000eb8:	d007      	beq.n	10000eca <ph_remove_head_reserve+0x9a>
10000eba:	005b      	lsls	r3, r3, #1
10000ebc:	6821      	ldr	r1, [r4, #0]
10000ebe:	445b      	add	r3, fp
10000ec0:	3b03      	subs	r3, #3
10000ec2:	18cb      	adds	r3, r1, r3
10000ec4:	785a      	ldrb	r2, [r3, #1]
10000ec6:	2a00      	cmp	r2, #0
10000ec8:	d117      	bne.n	10000efa <ph_remove_head_reserve+0xca>
10000eca:	465a      	mov	r2, fp
10000ecc:	4641      	mov	r1, r8
10000ece:	0020      	movs	r0, r4
10000ed0:	f7ff fe84 	bl	10000bdc <ph_merge_nodes>
10000ed4:	9b01      	ldr	r3, [sp, #4]
10000ed6:	0001      	movs	r1, r0
10000ed8:	6820      	ldr	r0, [r4, #0]
10000eda:	1942      	adds	r2, r0, r5
10000edc:	2b00      	cmp	r3, #0
10000ede:	d0c4      	beq.n	10000e6a <ph_remove_head_reserve+0x3a>
10000ee0:	2900      	cmp	r1, #0
10000ee2:	d0cd      	beq.n	10000e80 <ph_remove_head_reserve+0x50>
10000ee4:	004b      	lsls	r3, r1, #1
10000ee6:	185b      	adds	r3, r3, r1
10000ee8:	3b03      	subs	r3, #3
10000eea:	18c3      	adds	r3, r0, r3
10000eec:	2000      	movs	r0, #0
10000eee:	7098      	strb	r0, [r3, #2]
10000ef0:	e7c6      	b.n	10000e80 <ph_remove_head_reserve+0x50>
10000ef2:	9b01      	ldr	r3, [sp, #4]
10000ef4:	2b00      	cmp	r3, #0
10000ef6:	d1c3      	bne.n	10000e80 <ph_remove_head_reserve+0x50>
10000ef8:	e7b7      	b.n	10000e6a <ph_remove_head_reserve+0x3a>
10000efa:	0050      	lsls	r0, r2, #1
10000efc:	1880      	adds	r0, r0, r2
10000efe:	3803      	subs	r0, #3
10000f00:	1809      	adds	r1, r1, r0
10000f02:	7848      	ldrb	r0, [r1, #1]
10000f04:	4682      	mov	sl, r0
10000f06:	4648      	mov	r0, r9
10000f08:	7048      	strb	r0, [r1, #1]
10000f0a:	7058      	strb	r0, [r3, #1]
10000f0c:	4659      	mov	r1, fp
10000f0e:	0020      	movs	r0, r4
10000f10:	f7ff fe64 	bl	10000bdc <ph_merge_nodes>
10000f14:	4653      	mov	r3, sl
10000f16:	4683      	mov	fp, r0
10000f18:	2b00      	cmp	r3, #0
10000f1a:	d007      	beq.n	10000f2c <ph_remove_head_reserve+0xfc>
10000f1c:	005b      	lsls	r3, r3, #1
10000f1e:	6821      	ldr	r1, [r4, #0]
10000f20:	4453      	add	r3, sl
10000f22:	3b03      	subs	r3, #3
10000f24:	18cb      	adds	r3, r1, r3
10000f26:	785a      	ldrb	r2, [r3, #1]
10000f28:	2a00      	cmp	r2, #0
10000f2a:	d106      	bne.n	10000f3a <ph_remove_head_reserve+0x10a>
10000f2c:	4659      	mov	r1, fp
10000f2e:	4652      	mov	r2, sl
10000f30:	0020      	movs	r0, r4
10000f32:	f7ff fe53 	bl	10000bdc <ph_merge_nodes>
10000f36:	4683      	mov	fp, r0
10000f38:	e7c7      	b.n	10000eca <ph_remove_head_reserve+0x9a>
10000f3a:	0050      	lsls	r0, r2, #1
10000f3c:	1880      	adds	r0, r0, r2
10000f3e:	3803      	subs	r0, #3
10000f40:	1809      	adds	r1, r1, r0
10000f42:	4648      	mov	r0, r9
10000f44:	784f      	ldrb	r7, [r1, #1]
10000f46:	7048      	strb	r0, [r1, #1]
10000f48:	7058      	strb	r0, [r3, #1]
10000f4a:	4651      	mov	r1, sl
10000f4c:	0020      	movs	r0, r4
10000f4e:	f7ff fe45 	bl	10000bdc <ph_merge_nodes>
10000f52:	0039      	movs	r1, r7
10000f54:	4681      	mov	r9, r0
10000f56:	0020      	movs	r0, r4
10000f58:	f7ff fea6 	bl	10000ca8 <ph_merge_two_pass>
10000f5c:	4649      	mov	r1, r9
10000f5e:	0002      	movs	r2, r0
10000f60:	0020      	movs	r0, r4
10000f62:	f7ff fe3b 	bl	10000bdc <ph_merge_nodes>
10000f66:	4682      	mov	sl, r0
10000f68:	e7e0      	b.n	10000f2c <ph_remove_head_reserve+0xfc>
10000f6a:	46c0      	nop			; (mov r8, r8)

10000f6c <ph_delete>:
10000f6c:	b570      	push	{r4, r5, r6, lr}
10000f6e:	0004      	movs	r4, r0
10000f70:	2900      	cmp	r1, #0
10000f72:	d02c      	beq.n	10000fce <ph_delete+0x62>
10000f74:	7b43      	ldrb	r3, [r0, #13]
10000f76:	428b      	cmp	r3, r1
10000f78:	d02e      	beq.n	10000fd8 <ph_delete+0x6c>
10000f7a:	6805      	ldr	r5, [r0, #0]
10000f7c:	0048      	lsls	r0, r1, #1
10000f7e:	1840      	adds	r0, r0, r1
10000f80:	3803      	subs	r0, #3
10000f82:	1828      	adds	r0, r5, r0
10000f84:	7882      	ldrb	r2, [r0, #2]
10000f86:	2a00      	cmp	r2, #0
10000f88:	d021      	beq.n	10000fce <ph_delete+0x62>
10000f8a:	0053      	lsls	r3, r2, #1
10000f8c:	189b      	adds	r3, r3, r2
10000f8e:	3b03      	subs	r3, #3
10000f90:	5cea      	ldrb	r2, [r5, r3]
10000f92:	18ee      	adds	r6, r5, r3
10000f94:	428a      	cmp	r2, r1
10000f96:	d102      	bne.n	10000f9e <ph_delete+0x32>
10000f98:	e01b      	b.n	10000fd2 <ph_delete+0x66>
10000f9a:	2a00      	cmp	r2, #0
10000f9c:	d008      	beq.n	10000fb0 <ph_delete+0x44>
10000f9e:	0053      	lsls	r3, r2, #1
10000fa0:	189b      	adds	r3, r3, r2
10000fa2:	3b03      	subs	r3, #3
10000fa4:	18eb      	adds	r3, r5, r3
10000fa6:	785a      	ldrb	r2, [r3, #1]
10000fa8:	428a      	cmp	r2, r1
10000faa:	d1f6      	bne.n	10000f9a <ph_delete+0x2e>
10000fac:	7842      	ldrb	r2, [r0, #1]
10000fae:	705a      	strb	r2, [r3, #1]
10000fb0:	2300      	movs	r3, #0
10000fb2:	2200      	movs	r2, #0
10000fb4:	7083      	strb	r3, [r0, #2]
10000fb6:	7043      	strb	r3, [r0, #1]
10000fb8:	0020      	movs	r0, r4
10000fba:	f7ff febd 	bl	10000d38 <ph_remove_any_head>
10000fbe:	7b61      	ldrb	r1, [r4, #13]
10000fc0:	0002      	movs	r2, r0
10000fc2:	0020      	movs	r0, r4
10000fc4:	f7ff fe0a 	bl	10000bdc <ph_merge_nodes>
10000fc8:	7360      	strb	r0, [r4, #13]
10000fca:	2001      	movs	r0, #1
10000fcc:	e000      	b.n	10000fd0 <ph_delete+0x64>
10000fce:	2000      	movs	r0, #0
10000fd0:	bd70      	pop	{r4, r5, r6, pc}
10000fd2:	7843      	ldrb	r3, [r0, #1]
10000fd4:	7033      	strb	r3, [r6, #0]
10000fd6:	e7eb      	b.n	10000fb0 <ph_delete+0x44>
10000fd8:	2200      	movs	r2, #0
10000fda:	0019      	movs	r1, r3
10000fdc:	f7ff feac 	bl	10000d38 <ph_remove_any_head>
10000fe0:	7360      	strb	r0, [r4, #13]
10000fe2:	2001      	movs	r0, #1
10000fe4:	e7f4      	b.n	10000fd0 <ph_delete+0x64>
10000fe6:	46c0      	nop			; (mov r8, r8)

10000fe8 <runtime_init>:
10000fe8:	4b2b      	ldr	r3, [pc, #172]	; (10001098 <runtime_init+0xb0>)
10000fea:	4a2c      	ldr	r2, [pc, #176]	; (1000109c <runtime_init+0xb4>)
10000fec:	b570      	push	{r4, r5, r6, lr}
10000fee:	601a      	str	r2, [r3, #0]
10000ff0:	4a2b      	ldr	r2, [pc, #172]	; (100010a0 <runtime_init+0xb8>)
10000ff2:	4b2c      	ldr	r3, [pc, #176]	; (100010a4 <runtime_init+0xbc>)
10000ff4:	492c      	ldr	r1, [pc, #176]	; (100010a8 <runtime_init+0xc0>)
10000ff6:	601a      	str	r2, [r3, #0]
10000ff8:	0010      	movs	r0, r2
10000ffa:	688b      	ldr	r3, [r1, #8]
10000ffc:	4398      	bics	r0, r3
10000ffe:	d1fb      	bne.n	10000ff8 <runtime_init+0x10>
10001000:	4c2a      	ldr	r4, [pc, #168]	; (100010ac <runtime_init+0xc4>)
10001002:	4b2b      	ldr	r3, [pc, #172]	; (100010b0 <runtime_init+0xc8>)
10001004:	429c      	cmp	r4, r3
10001006:	d209      	bcs.n	1000101c <runtime_init+0x34>
10001008:	3b01      	subs	r3, #1
1000100a:	1b1d      	subs	r5, r3, r4
1000100c:	08ad      	lsrs	r5, r5, #2
1000100e:	3501      	adds	r5, #1
10001010:	00ad      	lsls	r5, r5, #2
10001012:	192d      	adds	r5, r5, r4
10001014:	cc08      	ldmia	r4!, {r3}
10001016:	4798      	blx	r3
10001018:	42ac      	cmp	r4, r5
1000101a:	d1fb      	bne.n	10001014 <runtime_init+0x2c>
1000101c:	f000 f894 	bl	10001148 <clocks_init>
10001020:	4a24      	ldr	r2, [pc, #144]	; (100010b4 <runtime_init+0xcc>)
10001022:	4b20      	ldr	r3, [pc, #128]	; (100010a4 <runtime_init+0xbc>)
10001024:	601a      	str	r2, [r3, #0]
10001026:	4a20      	ldr	r2, [pc, #128]	; (100010a8 <runtime_init+0xc0>)
10001028:	6893      	ldr	r3, [r2, #8]
1000102a:	01db      	lsls	r3, r3, #7
1000102c:	3380      	adds	r3, #128	; 0x80
1000102e:	d1fb      	bne.n	10001028 <runtime_init+0x40>
10001030:	2240      	movs	r2, #64	; 0x40
10001032:	4b21      	ldr	r3, [pc, #132]	; (100010b8 <runtime_init+0xd0>)
10001034:	4c21      	ldr	r4, [pc, #132]	; (100010bc <runtime_init+0xd4>)
10001036:	679a      	str	r2, [r3, #120]	; 0x78
10001038:	675a      	str	r2, [r3, #116]	; 0x74
1000103a:	671a      	str	r2, [r3, #112]	; 0x70
1000103c:	66da      	str	r2, [r3, #108]	; 0x6c
1000103e:	4b20      	ldr	r3, [pc, #128]	; (100010c0 <runtime_init+0xd8>)
10001040:	429c      	cmp	r4, r3
10001042:	d20b      	bcs.n	1000105c <runtime_init+0x74>
10001044:	3b01      	subs	r3, #1
10001046:	1b1d      	subs	r5, r3, r4
10001048:	08ed      	lsrs	r5, r5, #3
1000104a:	3501      	adds	r5, #1
1000104c:	00ed      	lsls	r5, r5, #3
1000104e:	192d      	adds	r5, r5, r4
10001050:	0020      	movs	r0, r4
10001052:	3408      	adds	r4, #8
10001054:	f7ff fdb6 	bl	10000bc4 <mutex_init>
10001058:	42ac      	cmp	r4, r5
1000105a:	d1f9      	bne.n	10001050 <runtime_init+0x68>
1000105c:	4c19      	ldr	r4, [pc, #100]	; (100010c4 <runtime_init+0xdc>)
1000105e:	4d1a      	ldr	r5, [pc, #104]	; (100010c8 <runtime_init+0xe0>)
10001060:	68a1      	ldr	r1, [r4, #8]
10001062:	22c0      	movs	r2, #192	; 0xc0
10001064:	0028      	movs	r0, r5
10001066:	f002 fe09 	bl	10003c7c <__wrap___aeabi_memcpy>
1000106a:	60a5      	str	r5, [r4, #8]
1000106c:	f7ff f9fe 	bl	1000046c <spin_locks_reset>
10001070:	f000 fbaa 	bl	100017c8 <irq_init_priorities>
10001074:	f7ff fc28 	bl	100008c8 <alarm_pool_init_default>
10001078:	4c14      	ldr	r4, [pc, #80]	; (100010cc <runtime_init+0xe4>)
1000107a:	4b15      	ldr	r3, [pc, #84]	; (100010d0 <runtime_init+0xe8>)
1000107c:	429c      	cmp	r4, r3
1000107e:	d209      	bcs.n	10001094 <runtime_init+0xac>
10001080:	3b01      	subs	r3, #1
10001082:	1b1d      	subs	r5, r3, r4
10001084:	08ad      	lsrs	r5, r5, #2
10001086:	3501      	adds	r5, #1
10001088:	00ad      	lsls	r5, r5, #2
1000108a:	192d      	adds	r5, r5, r4
1000108c:	cc08      	ldmia	r4!, {r3}
1000108e:	4798      	blx	r3
10001090:	42a5      	cmp	r5, r4
10001092:	d1fb      	bne.n	1000108c <runtime_init+0xa4>
10001094:	bd70      	pop	{r4, r5, r6, pc}
10001096:	46c0      	nop			; (mov r8, r8)
10001098:	4000e000 	.word	0x4000e000
1000109c:	ffffcdbf 	.word	0xffffcdbf
100010a0:	003c7ffe 	.word	0x003c7ffe
100010a4:	4000f000 	.word	0x4000f000
100010a8:	4000c000 	.word	0x4000c000
100010ac:	20000a58 	.word	0x20000a58
100010b0:	20000a68 	.word	0x20000a68
100010b4:	01ffffff 	.word	0x01ffffff
100010b8:	4001f000 	.word	0x4001f000
100010bc:	20000a50 	.word	0x20000a50
100010c0:	20000a58 	.word	0x20000a58
100010c4:	e000ed00 	.word	0xe000ed00
100010c8:	20000000 	.word	0x20000000
100010cc:	20000a68 	.word	0x20000a68
100010d0:	20000a6c 	.word	0x20000a6c

100010d4 <_sbrk>:
100010d4:	4a09      	ldr	r2, [pc, #36]	; (100010fc <_sbrk+0x28>)
100010d6:	0003      	movs	r3, r0
100010d8:	6810      	ldr	r0, [r2, #0]
100010da:	2800      	cmp	r0, #0
100010dc:	d005      	beq.n	100010ea <_sbrk+0x16>
100010de:	4908      	ldr	r1, [pc, #32]	; (10001100 <_sbrk+0x2c>)
100010e0:	18c3      	adds	r3, r0, r3
100010e2:	428b      	cmp	r3, r1
100010e4:	d207      	bcs.n	100010f6 <_sbrk+0x22>
100010e6:	6013      	str	r3, [r2, #0]
100010e8:	4770      	bx	lr
100010ea:	4806      	ldr	r0, [pc, #24]	; (10001104 <_sbrk+0x30>)
100010ec:	4904      	ldr	r1, [pc, #16]	; (10001100 <_sbrk+0x2c>)
100010ee:	18c3      	adds	r3, r0, r3
100010f0:	6010      	str	r0, [r2, #0]
100010f2:	428b      	cmp	r3, r1
100010f4:	d3f7      	bcc.n	100010e6 <_sbrk+0x12>
100010f6:	2001      	movs	r0, #1
100010f8:	4240      	negs	r0, r0
100010fa:	e7f5      	b.n	100010e8 <_sbrk+0x14>
100010fc:	20000b00 	.word	0x20000b00
10001100:	20040000 	.word	0x20040000
10001104:	20000d5c 	.word	0x20000d5c

10001108 <exit>:
10001108:	be00      	bkpt	0x0000
1000110a:	e7fd      	b.n	10001108 <exit>

1000110c <panic>:
1000110c:	b40f      	push	{r0, r1, r2, r3}
1000110e:	b500      	push	{lr}
10001110:	4808      	ldr	r0, [pc, #32]	; (10001134 <panic+0x28>)
10001112:	b083      	sub	sp, #12
10001114:	f002 fec4 	bl	10003ea0 <__wrap_puts>
10001118:	9b04      	ldr	r3, [sp, #16]
1000111a:	2b00      	cmp	r3, #0
1000111c:	d007      	beq.n	1000112e <panic+0x22>
1000111e:	a905      	add	r1, sp, #20
10001120:	0018      	movs	r0, r3
10001122:	9101      	str	r1, [sp, #4]
10001124:	f001 fe78 	bl	10002e18 <weak_raw_vprintf>
10001128:	4803      	ldr	r0, [pc, #12]	; (10001138 <panic+0x2c>)
1000112a:	f002 feb9 	bl	10003ea0 <__wrap_puts>
1000112e:	be00      	bkpt	0x0000
10001130:	e7fd      	b.n	1000112e <panic+0x22>
10001132:	46c0      	nop			; (mov r8, r8)
10001134:	10004bb0 	.word	0x10004bb0
10001138:	10004b00 	.word	0x10004b00

1000113c <hard_assertion_failure>:
1000113c:	b510      	push	{r4, lr}
1000113e:	4801      	ldr	r0, [pc, #4]	; (10001144 <hard_assertion_failure+0x8>)
10001140:	f7ff ffe4 	bl	1000110c <panic>
10001144:	10004bc0 	.word	0x10004bc0

10001148 <clocks_init>:
10001148:	b530      	push	{r4, r5, lr}
1000114a:	200c      	movs	r0, #12
1000114c:	b083      	sub	sp, #12
1000114e:	f000 f971 	bl	10001434 <watchdog_start_tick>
10001152:	f7ff f9a5 	bl	100004a0 <running_on_fpga>
10001156:	2800      	cmp	r0, #0
10001158:	d00e      	beq.n	10001178 <clocks_init+0x30>
1000115a:	4b9a      	ldr	r3, [pc, #616]	; (100013c4 <clocks_init+0x27c>)
1000115c:	4a9a      	ldr	r2, [pc, #616]	; (100013c8 <clocks_init+0x280>)
1000115e:	601a      	str	r2, [r3, #0]
10001160:	605a      	str	r2, [r3, #4]
10001162:	609a      	str	r2, [r3, #8]
10001164:	60da      	str	r2, [r3, #12]
10001166:	611a      	str	r2, [r3, #16]
10001168:	615a      	str	r2, [r3, #20]
1000116a:	619a      	str	r2, [r3, #24]
1000116c:	61da      	str	r2, [r3, #28]
1000116e:	621a      	str	r2, [r3, #32]
10001170:	4a96      	ldr	r2, [pc, #600]	; (100013cc <clocks_init+0x284>)
10001172:	625a      	str	r2, [r3, #36]	; 0x24
10001174:	b003      	add	sp, #12
10001176:	bd30      	pop	{r4, r5, pc}
10001178:	4c95      	ldr	r4, [pc, #596]	; (100013d0 <clocks_init+0x288>)
1000117a:	67a0      	str	r0, [r4, #120]	; 0x78
1000117c:	f000 f962 	bl	10001444 <xosc_init>
10001180:	2201      	movs	r2, #1
10001182:	4b94      	ldr	r3, [pc, #592]	; (100013d4 <clocks_init+0x28c>)
10001184:	601a      	str	r2, [r3, #0]
10001186:	6c63      	ldr	r3, [r4, #68]	; 0x44
10001188:	2b01      	cmp	r3, #1
1000118a:	d1fc      	bne.n	10001186 <clocks_init+0x3e>
1000118c:	2203      	movs	r2, #3
1000118e:	4b92      	ldr	r3, [pc, #584]	; (100013d8 <clocks_init+0x290>)
10001190:	601a      	str	r2, [r3, #0]
10001192:	4a8f      	ldr	r2, [pc, #572]	; (100013d0 <clocks_init+0x288>)
10001194:	6b93      	ldr	r3, [r2, #56]	; 0x38
10001196:	2b01      	cmp	r3, #1
10001198:	d1fc      	bne.n	10001194 <clocks_init+0x4c>
1000119a:	22c0      	movs	r2, #192	; 0xc0
1000119c:	4b8f      	ldr	r3, [pc, #572]	; (100013dc <clocks_init+0x294>)
1000119e:	0192      	lsls	r2, r2, #6
100011a0:	601a      	str	r2, [r3, #0]
100011a2:	4b8f      	ldr	r3, [pc, #572]	; (100013e0 <clocks_init+0x298>)
100011a4:	498f      	ldr	r1, [pc, #572]	; (100013e4 <clocks_init+0x29c>)
100011a6:	601a      	str	r2, [r3, #0]
100011a8:	0010      	movs	r0, r2
100011aa:	688b      	ldr	r3, [r1, #8]
100011ac:	4398      	bics	r0, r3
100011ae:	1e03      	subs	r3, r0, #0
100011b0:	d1fa      	bne.n	100011a8 <clocks_init+0x60>
100011b2:	2402      	movs	r4, #2
100011b4:	2101      	movs	r1, #1
100011b6:	4a8c      	ldr	r2, [pc, #560]	; (100013e8 <clocks_init+0x2a0>)
100011b8:	488c      	ldr	r0, [pc, #560]	; (100013ec <clocks_init+0x2a4>)
100011ba:	3306      	adds	r3, #6
100011bc:	9400      	str	r4, [sp, #0]
100011be:	f000 f955 	bl	1000146c <pll_init>
100011c2:	2305      	movs	r3, #5
100011c4:	4a8a      	ldr	r2, [pc, #552]	; (100013f0 <clocks_init+0x2a8>)
100011c6:	2101      	movs	r1, #1
100011c8:	488a      	ldr	r0, [pc, #552]	; (100013f4 <clocks_init+0x2ac>)
100011ca:	9400      	str	r4, [sp, #0]
100011cc:	f000 f94e 	bl	1000146c <pll_init>
100011d0:	4b89      	ldr	r3, [pc, #548]	; (100013f8 <clocks_init+0x2b0>)
100011d2:	685a      	ldr	r2, [r3, #4]
100011d4:	2aff      	cmp	r2, #255	; 0xff
100011d6:	d802      	bhi.n	100011de <clocks_init+0x96>
100011d8:	2280      	movs	r2, #128	; 0x80
100011da:	0052      	lsls	r2, r2, #1
100011dc:	605a      	str	r2, [r3, #4]
100011de:	2280      	movs	r2, #128	; 0x80
100011e0:	4c78      	ldr	r4, [pc, #480]	; (100013c4 <clocks_init+0x27c>)
100011e2:	4b7d      	ldr	r3, [pc, #500]	; (100013d8 <clocks_init+0x290>)
100011e4:	6921      	ldr	r1, [r4, #16]
100011e6:	0112      	lsls	r2, r2, #4
100011e8:	4d83      	ldr	r5, [pc, #524]	; (100013f8 <clocks_init+0x2b0>)
100011ea:	601a      	str	r2, [r3, #0]
100011ec:	2900      	cmp	r1, #0
100011ee:	d005      	beq.n	100011fc <clocks_init+0xb4>
100011f0:	6960      	ldr	r0, [r4, #20]
100011f2:	f001 fe8b 	bl	10002f0c <__wrap___aeabi_uidiv>
100011f6:	3001      	adds	r0, #1
100011f8:	3801      	subs	r0, #1
100011fa:	d1fd      	bne.n	100011f8 <clocks_init+0xb0>
100011fc:	21e0      	movs	r1, #224	; 0xe0
100011fe:	4b7e      	ldr	r3, [pc, #504]	; (100013f8 <clocks_init+0x2b0>)
10001200:	2002      	movs	r0, #2
10001202:	681a      	ldr	r2, [r3, #0]
10001204:	4011      	ands	r1, r2
10001206:	2280      	movs	r2, #128	; 0x80
10001208:	0152      	lsls	r2, r2, #5
1000120a:	432a      	orrs	r2, r5
1000120c:	6011      	str	r1, [r2, #0]
1000120e:	6819      	ldr	r1, [r3, #0]
10001210:	4048      	eors	r0, r1
10001212:	2103      	movs	r1, #3
10001214:	4001      	ands	r1, r0
10001216:	6011      	str	r1, [r2, #0]
10001218:	2104      	movs	r1, #4
1000121a:	689a      	ldr	r2, [r3, #8]
1000121c:	4211      	tst	r1, r2
1000121e:	d0fc      	beq.n	1000121a <clocks_init+0xd2>
10001220:	2280      	movs	r2, #128	; 0x80
10001222:	2180      	movs	r1, #128	; 0x80
10001224:	0192      	lsls	r2, r2, #6
10001226:	432a      	orrs	r2, r5
10001228:	0109      	lsls	r1, r1, #4
1000122a:	6011      	str	r1, [r2, #0]
1000122c:	2280      	movs	r2, #128	; 0x80
1000122e:	0052      	lsls	r2, r2, #1
10001230:	605a      	str	r2, [r3, #4]
10001232:	4b72      	ldr	r3, [pc, #456]	; (100013fc <clocks_init+0x2b4>)
10001234:	6123      	str	r3, [r4, #16]
10001236:	4b72      	ldr	r3, [pc, #456]	; (10001400 <clocks_init+0x2b8>)
10001238:	6859      	ldr	r1, [r3, #4]
1000123a:	29ff      	cmp	r1, #255	; 0xff
1000123c:	d800      	bhi.n	10001240 <clocks_init+0xf8>
1000123e:	605a      	str	r2, [r3, #4]
10001240:	2203      	movs	r2, #3
10001242:	486f      	ldr	r0, [pc, #444]	; (10001400 <clocks_init+0x2b8>)
10001244:	4b63      	ldr	r3, [pc, #396]	; (100013d4 <clocks_init+0x28c>)
10001246:	2101      	movs	r1, #1
10001248:	601a      	str	r2, [r3, #0]
1000124a:	0002      	movs	r2, r0
1000124c:	6893      	ldr	r3, [r2, #8]
1000124e:	4219      	tst	r1, r3
10001250:	d0fc      	beq.n	1000124c <clocks_init+0x104>
10001252:	25e0      	movs	r5, #224	; 0xe0
10001254:	6813      	ldr	r3, [r2, #0]
10001256:	401d      	ands	r5, r3
10001258:	2380      	movs	r3, #128	; 0x80
1000125a:	015b      	lsls	r3, r3, #5
1000125c:	4303      	orrs	r3, r0
1000125e:	601d      	str	r5, [r3, #0]
10001260:	6812      	ldr	r2, [r2, #0]
10001262:	404a      	eors	r2, r1
10001264:	2103      	movs	r1, #3
10001266:	4011      	ands	r1, r2
10001268:	6019      	str	r1, [r3, #0]
1000126a:	2102      	movs	r1, #2
1000126c:	4a64      	ldr	r2, [pc, #400]	; (10001400 <clocks_init+0x2b8>)
1000126e:	6893      	ldr	r3, [r2, #8]
10001270:	4219      	tst	r1, r3
10001272:	d0fc      	beq.n	1000126e <clocks_init+0x126>
10001274:	2380      	movs	r3, #128	; 0x80
10001276:	2180      	movs	r1, #128	; 0x80
10001278:	019b      	lsls	r3, r3, #6
1000127a:	4303      	orrs	r3, r0
1000127c:	0109      	lsls	r1, r1, #4
1000127e:	6019      	str	r1, [r3, #0]
10001280:	2180      	movs	r1, #128	; 0x80
10001282:	4b60      	ldr	r3, [pc, #384]	; (10001404 <clocks_init+0x2bc>)
10001284:	0049      	lsls	r1, r1, #1
10001286:	6051      	str	r1, [r2, #4]
10001288:	6163      	str	r3, [r4, #20]
1000128a:	4b5f      	ldr	r3, [pc, #380]	; (10001408 <clocks_init+0x2c0>)
1000128c:	685a      	ldr	r2, [r3, #4]
1000128e:	2aff      	cmp	r2, #255	; 0xff
10001290:	d800      	bhi.n	10001294 <clocks_init+0x14c>
10001292:	6059      	str	r1, [r3, #4]
10001294:	2280      	movs	r2, #128	; 0x80
10001296:	4b5d      	ldr	r3, [pc, #372]	; (1000140c <clocks_init+0x2c4>)
10001298:	69e1      	ldr	r1, [r4, #28]
1000129a:	0112      	lsls	r2, r2, #4
1000129c:	4d5a      	ldr	r5, [pc, #360]	; (10001408 <clocks_init+0x2c0>)
1000129e:	601a      	str	r2, [r3, #0]
100012a0:	2900      	cmp	r1, #0
100012a2:	d005      	beq.n	100012b0 <clocks_init+0x168>
100012a4:	6960      	ldr	r0, [r4, #20]
100012a6:	f001 fe31 	bl	10002f0c <__wrap___aeabi_uidiv>
100012aa:	3001      	adds	r0, #1
100012ac:	3801      	subs	r0, #1
100012ae:	d1fd      	bne.n	100012ac <clocks_init+0x164>
100012b0:	22e0      	movs	r2, #224	; 0xe0
100012b2:	4955      	ldr	r1, [pc, #340]	; (10001408 <clocks_init+0x2c0>)
100012b4:	680b      	ldr	r3, [r1, #0]
100012b6:	401a      	ands	r2, r3
100012b8:	2380      	movs	r3, #128	; 0x80
100012ba:	015b      	lsls	r3, r3, #5
100012bc:	432b      	orrs	r3, r5
100012be:	601a      	str	r2, [r3, #0]
100012c0:	2380      	movs	r3, #128	; 0x80
100012c2:	2280      	movs	r2, #128	; 0x80
100012c4:	019b      	lsls	r3, r3, #6
100012c6:	432b      	orrs	r3, r5
100012c8:	0112      	lsls	r2, r2, #4
100012ca:	601a      	str	r2, [r3, #0]
100012cc:	2280      	movs	r2, #128	; 0x80
100012ce:	4b3e      	ldr	r3, [pc, #248]	; (100013c8 <clocks_init+0x280>)
100012d0:	0052      	lsls	r2, r2, #1
100012d2:	604a      	str	r2, [r1, #4]
100012d4:	61e3      	str	r3, [r4, #28]
100012d6:	4b4e      	ldr	r3, [pc, #312]	; (10001410 <clocks_init+0x2c8>)
100012d8:	6859      	ldr	r1, [r3, #4]
100012da:	29ff      	cmp	r1, #255	; 0xff
100012dc:	d800      	bhi.n	100012e0 <clocks_init+0x198>
100012de:	605a      	str	r2, [r3, #4]
100012e0:	2280      	movs	r2, #128	; 0x80
100012e2:	4b4c      	ldr	r3, [pc, #304]	; (10001414 <clocks_init+0x2cc>)
100012e4:	6a21      	ldr	r1, [r4, #32]
100012e6:	0112      	lsls	r2, r2, #4
100012e8:	4d49      	ldr	r5, [pc, #292]	; (10001410 <clocks_init+0x2c8>)
100012ea:	601a      	str	r2, [r3, #0]
100012ec:	2900      	cmp	r1, #0
100012ee:	d005      	beq.n	100012fc <clocks_init+0x1b4>
100012f0:	6960      	ldr	r0, [r4, #20]
100012f2:	f001 fe0b 	bl	10002f0c <__wrap___aeabi_uidiv>
100012f6:	3001      	adds	r0, #1
100012f8:	3801      	subs	r0, #1
100012fa:	d1fd      	bne.n	100012f8 <clocks_init+0x1b0>
100012fc:	22e0      	movs	r2, #224	; 0xe0
100012fe:	4944      	ldr	r1, [pc, #272]	; (10001410 <clocks_init+0x2c8>)
10001300:	680b      	ldr	r3, [r1, #0]
10001302:	401a      	ands	r2, r3
10001304:	2380      	movs	r3, #128	; 0x80
10001306:	015b      	lsls	r3, r3, #5
10001308:	432b      	orrs	r3, r5
1000130a:	601a      	str	r2, [r3, #0]
1000130c:	2380      	movs	r3, #128	; 0x80
1000130e:	2280      	movs	r2, #128	; 0x80
10001310:	019b      	lsls	r3, r3, #6
10001312:	432b      	orrs	r3, r5
10001314:	0112      	lsls	r2, r2, #4
10001316:	601a      	str	r2, [r3, #0]
10001318:	2380      	movs	r3, #128	; 0x80
1000131a:	2280      	movs	r2, #128	; 0x80
1000131c:	005b      	lsls	r3, r3, #1
1000131e:	604b      	str	r3, [r1, #4]
10001320:	4b29      	ldr	r3, [pc, #164]	; (100013c8 <clocks_init+0x280>)
10001322:	02d2      	lsls	r2, r2, #11
10001324:	6223      	str	r3, [r4, #32]
10001326:	4b3c      	ldr	r3, [pc, #240]	; (10001418 <clocks_init+0x2d0>)
10001328:	6859      	ldr	r1, [r3, #4]
1000132a:	4291      	cmp	r1, r2
1000132c:	d200      	bcs.n	10001330 <clocks_init+0x1e8>
1000132e:	605a      	str	r2, [r3, #4]
10001330:	2280      	movs	r2, #128	; 0x80
10001332:	4b3a      	ldr	r3, [pc, #232]	; (1000141c <clocks_init+0x2d4>)
10001334:	6a61      	ldr	r1, [r4, #36]	; 0x24
10001336:	0112      	lsls	r2, r2, #4
10001338:	4d37      	ldr	r5, [pc, #220]	; (10001418 <clocks_init+0x2d0>)
1000133a:	601a      	str	r2, [r3, #0]
1000133c:	2900      	cmp	r1, #0
1000133e:	d005      	beq.n	1000134c <clocks_init+0x204>
10001340:	6960      	ldr	r0, [r4, #20]
10001342:	f001 fde3 	bl	10002f0c <__wrap___aeabi_uidiv>
10001346:	3001      	adds	r0, #1
10001348:	3801      	subs	r0, #1
1000134a:	d1fd      	bne.n	10001348 <clocks_init+0x200>
1000134c:	22e0      	movs	r2, #224	; 0xe0
1000134e:	4932      	ldr	r1, [pc, #200]	; (10001418 <clocks_init+0x2d0>)
10001350:	680b      	ldr	r3, [r1, #0]
10001352:	401a      	ands	r2, r3
10001354:	2380      	movs	r3, #128	; 0x80
10001356:	015b      	lsls	r3, r3, #5
10001358:	432b      	orrs	r3, r5
1000135a:	601a      	str	r2, [r3, #0]
1000135c:	2380      	movs	r3, #128	; 0x80
1000135e:	2280      	movs	r2, #128	; 0x80
10001360:	019b      	lsls	r3, r3, #6
10001362:	432b      	orrs	r3, r5
10001364:	0112      	lsls	r2, r2, #4
10001366:	601a      	str	r2, [r3, #0]
10001368:	2380      	movs	r3, #128	; 0x80
1000136a:	02db      	lsls	r3, r3, #11
1000136c:	604b      	str	r3, [r1, #4]
1000136e:	4b17      	ldr	r3, [pc, #92]	; (100013cc <clocks_init+0x284>)
10001370:	6263      	str	r3, [r4, #36]	; 0x24
10001372:	4b2b      	ldr	r3, [pc, #172]	; (10001420 <clocks_init+0x2d8>)
10001374:	685a      	ldr	r2, [r3, #4]
10001376:	2aff      	cmp	r2, #255	; 0xff
10001378:	d802      	bhi.n	10001380 <clocks_init+0x238>
1000137a:	2280      	movs	r2, #128	; 0x80
1000137c:	0052      	lsls	r2, r2, #1
1000137e:	605a      	str	r2, [r3, #4]
10001380:	2280      	movs	r2, #128	; 0x80
10001382:	4b28      	ldr	r3, [pc, #160]	; (10001424 <clocks_init+0x2dc>)
10001384:	69a1      	ldr	r1, [r4, #24]
10001386:	0112      	lsls	r2, r2, #4
10001388:	4d25      	ldr	r5, [pc, #148]	; (10001420 <clocks_init+0x2d8>)
1000138a:	601a      	str	r2, [r3, #0]
1000138c:	2900      	cmp	r1, #0
1000138e:	d005      	beq.n	1000139c <clocks_init+0x254>
10001390:	6960      	ldr	r0, [r4, #20]
10001392:	f001 fdbb 	bl	10002f0c <__wrap___aeabi_uidiv>
10001396:	3001      	adds	r0, #1
10001398:	3801      	subs	r0, #1
1000139a:	d1fd      	bne.n	10001398 <clocks_init+0x250>
1000139c:	22e0      	movs	r2, #224	; 0xe0
1000139e:	4920      	ldr	r1, [pc, #128]	; (10001420 <clocks_init+0x2d8>)
100013a0:	680b      	ldr	r3, [r1, #0]
100013a2:	401a      	ands	r2, r3
100013a4:	2380      	movs	r3, #128	; 0x80
100013a6:	015b      	lsls	r3, r3, #5
100013a8:	432b      	orrs	r3, r5
100013aa:	601a      	str	r2, [r3, #0]
100013ac:	2380      	movs	r3, #128	; 0x80
100013ae:	2280      	movs	r2, #128	; 0x80
100013b0:	019b      	lsls	r3, r3, #6
100013b2:	432b      	orrs	r3, r5
100013b4:	0112      	lsls	r2, r2, #4
100013b6:	601a      	str	r2, [r3, #0]
100013b8:	2380      	movs	r3, #128	; 0x80
100013ba:	005b      	lsls	r3, r3, #1
100013bc:	604b      	str	r3, [r1, #4]
100013be:	4b11      	ldr	r3, [pc, #68]	; (10001404 <clocks_init+0x2bc>)
100013c0:	61a3      	str	r3, [r4, #24]
100013c2:	e6d7      	b.n	10001174 <clocks_init+0x2c>
100013c4:	20000acc 	.word	0x20000acc
100013c8:	02dc6c00 	.word	0x02dc6c00
100013cc:	0000b71b 	.word	0x0000b71b
100013d0:	40008000 	.word	0x40008000
100013d4:	4000b03c 	.word	0x4000b03c
100013d8:	4000b030 	.word	0x4000b030
100013dc:	4000e000 	.word	0x4000e000
100013e0:	4000f000 	.word	0x4000f000
100013e4:	4000c000 	.word	0x4000c000
100013e8:	59682f00 	.word	0x59682f00
100013ec:	40028000 	.word	0x40028000
100013f0:	1c9c3800 	.word	0x1c9c3800
100013f4:	4002c000 	.word	0x4002c000
100013f8:	40008030 	.word	0x40008030
100013fc:	00b71b00 	.word	0x00b71b00
10001400:	4000803c 	.word	0x4000803c
10001404:	07735940 	.word	0x07735940
10001408:	40008054 	.word	0x40008054
1000140c:	4000b054 	.word	0x4000b054
10001410:	40008060 	.word	0x40008060
10001414:	4000b060 	.word	0x4000b060
10001418:	4000806c 	.word	0x4000806c
1000141c:	4000b06c 	.word	0x4000b06c
10001420:	40008048 	.word	0x40008048
10001424:	4000b048 	.word	0x4000b048

10001428 <clock_get_hz>:
10001428:	4b01      	ldr	r3, [pc, #4]	; (10001430 <clock_get_hz+0x8>)
1000142a:	0080      	lsls	r0, r0, #2
1000142c:	58c0      	ldr	r0, [r0, r3]
1000142e:	4770      	bx	lr
10001430:	20000acc 	.word	0x20000acc

10001434 <watchdog_start_tick>:
10001434:	2380      	movs	r3, #128	; 0x80
10001436:	4a02      	ldr	r2, [pc, #8]	; (10001440 <watchdog_start_tick+0xc>)
10001438:	009b      	lsls	r3, r3, #2
1000143a:	4303      	orrs	r3, r0
1000143c:	62d3      	str	r3, [r2, #44]	; 0x2c
1000143e:	4770      	bx	lr
10001440:	40058000 	.word	0x40058000

10001444 <xosc_init>:
10001444:	23aa      	movs	r3, #170	; 0xaa
10001446:	4a06      	ldr	r2, [pc, #24]	; (10001460 <xosc_init+0x1c>)
10001448:	011b      	lsls	r3, r3, #4
1000144a:	6013      	str	r3, [r2, #0]
1000144c:	232f      	movs	r3, #47	; 0x2f
1000144e:	4905      	ldr	r1, [pc, #20]	; (10001464 <xosc_init+0x20>)
10001450:	60d3      	str	r3, [r2, #12]
10001452:	4b05      	ldr	r3, [pc, #20]	; (10001468 <xosc_init+0x24>)
10001454:	6019      	str	r1, [r3, #0]
10001456:	6853      	ldr	r3, [r2, #4]
10001458:	2b00      	cmp	r3, #0
1000145a:	dafc      	bge.n	10001456 <xosc_init+0x12>
1000145c:	4770      	bx	lr
1000145e:	46c0      	nop			; (mov r8, r8)
10001460:	40024000 	.word	0x40024000
10001464:	00fab000 	.word	0x00fab000
10001468:	40026000 	.word	0x40026000

1000146c <pll_init>:
1000146c:	b5f8      	push	{r3, r4, r5, r6, r7, lr}
1000146e:	001d      	movs	r5, r3
10001470:	ab06      	add	r3, sp, #24
10001472:	781e      	ldrb	r6, [r3, #0]
10001474:	2301      	movs	r3, #1
10001476:	425b      	negs	r3, r3
10001478:	6043      	str	r3, [r0, #4]
1000147a:	2300      	movs	r3, #0
1000147c:	0004      	movs	r4, r0
1000147e:	6083      	str	r3, [r0, #8]
10001480:	6001      	str	r1, [r0, #0]
10001482:	200c      	movs	r0, #12
10001484:	0017      	movs	r7, r2
10001486:	f001 fd41 	bl	10002f0c <__wrap___aeabi_uidiv>
1000148a:	0141      	lsls	r1, r0, #5
1000148c:	1a09      	subs	r1, r1, r0
1000148e:	018b      	lsls	r3, r1, #6
10001490:	1a59      	subs	r1, r3, r1
10001492:	00c9      	lsls	r1, r1, #3
10001494:	1809      	adds	r1, r1, r0
10001496:	0189      	lsls	r1, r1, #6
10001498:	0038      	movs	r0, r7
1000149a:	f001 fd37 	bl	10002f0c <__wrap___aeabi_uidiv>
1000149e:	21c0      	movs	r1, #192	; 0xc0
100014a0:	1d23      	adds	r3, r4, #4
100014a2:	0189      	lsls	r1, r1, #6
100014a4:	4319      	orrs	r1, r3
100014a6:	2321      	movs	r3, #33	; 0x21
100014a8:	60a0      	str	r0, [r4, #8]
100014aa:	600b      	str	r3, [r1, #0]
100014ac:	6822      	ldr	r2, [r4, #0]
100014ae:	2a00      	cmp	r2, #0
100014b0:	dafc      	bge.n	100014ac <pll_init+0x40>
100014b2:	2308      	movs	r3, #8
100014b4:	042d      	lsls	r5, r5, #16
100014b6:	0336      	lsls	r6, r6, #12
100014b8:	432e      	orrs	r6, r5
100014ba:	60e6      	str	r6, [r4, #12]
100014bc:	600b      	str	r3, [r1, #0]
100014be:	bdf8      	pop	{r3, r4, r5, r6, r7, pc}

100014c0 <irq_set_enabled>:
100014c0:	2301      	movs	r3, #1
100014c2:	4083      	lsls	r3, r0
100014c4:	2900      	cmp	r1, #0
100014c6:	d004      	beq.n	100014d2 <irq_set_enabled+0x12>
100014c8:	4a03      	ldr	r2, [pc, #12]	; (100014d8 <irq_set_enabled+0x18>)
100014ca:	6013      	str	r3, [r2, #0]
100014cc:	4a03      	ldr	r2, [pc, #12]	; (100014dc <irq_set_enabled+0x1c>)
100014ce:	6013      	str	r3, [r2, #0]
100014d0:	4770      	bx	lr
100014d2:	4a03      	ldr	r2, [pc, #12]	; (100014e0 <irq_set_enabled+0x20>)
100014d4:	6013      	str	r3, [r2, #0]
100014d6:	e7fb      	b.n	100014d0 <irq_set_enabled+0x10>
100014d8:	e000e280 	.word	0xe000e280
100014dc:	e000e100 	.word	0xe000e100
100014e0:	e000e180 	.word	0xe000e180

100014e4 <irq_get_vtable_handler>:
100014e4:	4b02      	ldr	r3, [pc, #8]	; (100014f0 <irq_get_vtable_handler+0xc>)
100014e6:	3010      	adds	r0, #16
100014e8:	689b      	ldr	r3, [r3, #8]
100014ea:	0080      	lsls	r0, r0, #2
100014ec:	58c0      	ldr	r0, [r0, r3]
100014ee:	4770      	bx	lr
100014f0:	e000ed00 	.word	0xe000ed00

100014f4 <irq_set_exclusive_handler>:
100014f4:	b570      	push	{r4, r5, r6, lr}
100014f6:	000d      	movs	r5, r1
100014f8:	f3ef 8610 	mrs	r6, PRIMASK
100014fc:	b672      	cpsid	i
100014fe:	4a0f      	ldr	r2, [pc, #60]	; (1000153c <irq_set_exclusive_handler+0x48>)
10001500:	6813      	ldr	r3, [r2, #0]
10001502:	2b00      	cmp	r3, #0
10001504:	d0fc      	beq.n	10001500 <irq_set_exclusive_handler+0xc>
10001506:	f3bf 8f5f 	dmb	sy
1000150a:	4b0d      	ldr	r3, [pc, #52]	; (10001540 <irq_set_exclusive_handler+0x4c>)
1000150c:	3010      	adds	r0, #16
1000150e:	689b      	ldr	r3, [r3, #8]
10001510:	0084      	lsls	r4, r0, #2
10001512:	591b      	ldr	r3, [r3, r4]
10001514:	4a0b      	ldr	r2, [pc, #44]	; (10001544 <irq_set_exclusive_handler+0x50>)
10001516:	4293      	cmp	r3, r2
10001518:	d003      	beq.n	10001522 <irq_set_exclusive_handler+0x2e>
1000151a:	429d      	cmp	r5, r3
1000151c:	d001      	beq.n	10001522 <irq_set_exclusive_handler+0x2e>
1000151e:	f7ff fe0d 	bl	1000113c <hard_assertion_failure>
10001522:	4b07      	ldr	r3, [pc, #28]	; (10001540 <irq_set_exclusive_handler+0x4c>)
10001524:	689b      	ldr	r3, [r3, #8]
10001526:	511d      	str	r5, [r3, r4]
10001528:	f3bf 8f5f 	dmb	sy
1000152c:	f3bf 8f5f 	dmb	sy
10001530:	2200      	movs	r2, #0
10001532:	4b02      	ldr	r3, [pc, #8]	; (1000153c <irq_set_exclusive_handler+0x48>)
10001534:	601a      	str	r2, [r3, #0]
10001536:	f386 8810 	msr	PRIMASK, r6
1000153a:	bd70      	pop	{r4, r5, r6, pc}
1000153c:	d0000124 	.word	0xd0000124
10001540:	e000ed00 	.word	0xe000ed00
10001544:	100002cd 	.word	0x100002cd

10001548 <irq_remove_handler>:
10001548:	b5f0      	push	{r4, r5, r6, r7, lr}
1000154a:	46de      	mov	lr, fp
1000154c:	4657      	mov	r7, sl
1000154e:	464e      	mov	r6, r9
10001550:	4645      	mov	r5, r8
10001552:	b5e0      	push	{r5, r6, r7, lr}
10001554:	000c      	movs	r4, r1
10001556:	b083      	sub	sp, #12
10001558:	f3ef 8a10 	mrs	sl, PRIMASK
1000155c:	b672      	cpsid	i
1000155e:	4a5f      	ldr	r2, [pc, #380]	; (100016dc <irq_remove_handler+0x194>)
10001560:	6813      	ldr	r3, [r2, #0]
10001562:	2b00      	cmp	r3, #0
10001564:	d0fc      	beq.n	10001560 <irq_remove_handler+0x18>
10001566:	f3bf 8f5f 	dmb	sy
1000156a:	2210      	movs	r2, #16
1000156c:	4691      	mov	r9, r2
1000156e:	4481      	add	r9, r0
10001570:	464a      	mov	r2, r9
10001572:	4b5b      	ldr	r3, [pc, #364]	; (100016e0 <irq_remove_handler+0x198>)
10001574:	0096      	lsls	r6, r2, #2
10001576:	689b      	ldr	r3, [r3, #8]
10001578:	599d      	ldr	r5, [r3, r6]
1000157a:	4b5a      	ldr	r3, [pc, #360]	; (100016e4 <irq_remove_handler+0x19c>)
1000157c:	4698      	mov	r8, r3
1000157e:	429d      	cmp	r5, r3
10001580:	d005      	beq.n	1000158e <irq_remove_handler+0x46>
10001582:	42a5      	cmp	r5, r4
10001584:	d016      	beq.n	100015b4 <irq_remove_handler+0x6c>
10001586:	4f58      	ldr	r7, [pc, #352]	; (100016e8 <irq_remove_handler+0x1a0>)
10001588:	1beb      	subs	r3, r5, r7
1000158a:	2b2f      	cmp	r3, #47	; 0x2f
1000158c:	d914      	bls.n	100015b8 <irq_remove_handler+0x70>
1000158e:	4b54      	ldr	r3, [pc, #336]	; (100016e0 <irq_remove_handler+0x198>)
10001590:	689b      	ldr	r3, [r3, #8]
10001592:	519d      	str	r5, [r3, r6]
10001594:	f3bf 8f5f 	dmb	sy
10001598:	f3bf 8f5f 	dmb	sy
1000159c:	2200      	movs	r2, #0
1000159e:	4b4f      	ldr	r3, [pc, #316]	; (100016dc <irq_remove_handler+0x194>)
100015a0:	601a      	str	r2, [r3, #0]
100015a2:	f38a 8810 	msr	PRIMASK, sl
100015a6:	b003      	add	sp, #12
100015a8:	bc3c      	pop	{r2, r3, r4, r5}
100015aa:	4690      	mov	r8, r2
100015ac:	4699      	mov	r9, r3
100015ae:	46a2      	mov	sl, r4
100015b0:	46ab      	mov	fp, r5
100015b2:	bdf0      	pop	{r4, r5, r6, r7, pc}
100015b4:	001d      	movs	r5, r3
100015b6:	e7ea      	b.n	1000158e <irq_remove_handler+0x46>
100015b8:	2301      	movs	r3, #1
100015ba:	4083      	lsls	r3, r0
100015bc:	469b      	mov	fp, r3
100015be:	465a      	mov	r2, fp
100015c0:	4b4a      	ldr	r3, [pc, #296]	; (100016ec <irq_remove_handler+0x1a4>)
100015c2:	681b      	ldr	r3, [r3, #0]
100015c4:	401a      	ands	r2, r3
100015c6:	9200      	str	r2, [sp, #0]
100015c8:	465a      	mov	r2, fp
100015ca:	4b49      	ldr	r3, [pc, #292]	; (100016f0 <irq_remove_handler+0x1a8>)
100015cc:	601a      	str	r2, [r3, #0]
100015ce:	f3bf 8f5f 	dmb	sy
100015d2:	f7fe fde0 	bl	10000196 <__get_current_exception>
100015d6:	9001      	str	r0, [sp, #4]
100015d8:	2800      	cmp	r0, #0
100015da:	d003      	beq.n	100015e4 <irq_remove_handler+0x9c>
100015dc:	4581      	cmp	r9, r0
100015de:	d001      	beq.n	100015e4 <irq_remove_handler+0x9c>
100015e0:	f7ff fdac 	bl	1000113c <hard_assertion_failure>
100015e4:	2301      	movs	r3, #1
100015e6:	0029      	movs	r1, r5
100015e8:	4399      	bics	r1, r3
100015ea:	688b      	ldr	r3, [r1, #8]
100015ec:	42a3      	cmp	r3, r4
100015ee:	d069      	beq.n	100016c4 <irq_remove_handler+0x17c>
100015f0:	000a      	movs	r2, r1
100015f2:	e007      	b.n	10001604 <irq_remove_handler+0xbc>
100015f4:	0043      	lsls	r3, r0, #1
100015f6:	181b      	adds	r3, r3, r0
100015f8:	009b      	lsls	r3, r3, #2
100015fa:	18fb      	adds	r3, r7, r3
100015fc:	6898      	ldr	r0, [r3, #8]
100015fe:	42a0      	cmp	r0, r4
10001600:	d011      	beq.n	10001626 <irq_remove_handler+0xde>
10001602:	001a      	movs	r2, r3
10001604:	2006      	movs	r0, #6
10001606:	5610      	ldrsb	r0, [r2, r0]
10001608:	2800      	cmp	r0, #0
1000160a:	daf3      	bge.n	100015f4 <irq_remove_handler+0xac>
1000160c:	9b00      	ldr	r3, [sp, #0]
1000160e:	2b00      	cmp	r3, #0
10001610:	d005      	beq.n	1000161e <irq_remove_handler+0xd6>
10001612:	465a      	mov	r2, fp
10001614:	4b37      	ldr	r3, [pc, #220]	; (100016f4 <irq_remove_handler+0x1ac>)
10001616:	601a      	str	r2, [r3, #0]
10001618:	4b34      	ldr	r3, [pc, #208]	; (100016ec <irq_remove_handler+0x1a4>)
1000161a:	601a      	str	r2, [r3, #0]
1000161c:	e7b7      	b.n	1000158e <irq_remove_handler+0x46>
1000161e:	465a      	mov	r2, fp
10001620:	4b33      	ldr	r3, [pc, #204]	; (100016f0 <irq_remove_handler+0x1a8>)
10001622:	601a      	str	r2, [r3, #0]
10001624:	e7b3      	b.n	1000158e <irq_remove_handler+0x46>
10001626:	2006      	movs	r0, #6
10001628:	5618      	ldrsb	r0, [r3, r0]
1000162a:	2800      	cmp	r0, #0
1000162c:	db22      	blt.n	10001674 <irq_remove_handler+0x12c>
1000162e:	0042      	lsls	r2, r0, #1
10001630:	1811      	adds	r1, r2, r0
10001632:	0089      	lsls	r1, r1, #2
10001634:	187c      	adds	r4, r7, r1
10001636:	4688      	mov	r8, r1
10001638:	68a1      	ldr	r1, [r4, #8]
1000163a:	6099      	str	r1, [r3, #8]
1000163c:	79e1      	ldrb	r1, [r4, #7]
1000163e:	71d9      	strb	r1, [r3, #7]
10001640:	2106      	movs	r1, #6
10001642:	5661      	ldrsb	r1, [r4, r1]
10001644:	7199      	strb	r1, [r3, #6]
10001646:	79a1      	ldrb	r1, [r4, #6]
10001648:	297f      	cmp	r1, #127	; 0x7f
1000164a:	d82b      	bhi.n	100016a4 <irq_remove_handler+0x15c>
1000164c:	88a4      	ldrh	r4, [r4, #4]
1000164e:	1af9      	subs	r1, r7, r3
10001650:	0564      	lsls	r4, r4, #21
10001652:	1524      	asrs	r4, r4, #20
10001654:	4444      	add	r4, r8
10001656:	1909      	adds	r1, r1, r4
10001658:	24e0      	movs	r4, #224	; 0xe0
1000165a:	0509      	lsls	r1, r1, #20
1000165c:	0d49      	lsrs	r1, r1, #21
1000165e:	0224      	lsls	r4, r4, #8
10001660:	4321      	orrs	r1, r4
10001662:	8099      	strh	r1, [r3, #4]
10001664:	1812      	adds	r2, r2, r0
10001666:	4b24      	ldr	r3, [pc, #144]	; (100016f8 <irq_remove_handler+0x1b0>)
10001668:	0092      	lsls	r2, r2, #2
1000166a:	18bf      	adds	r7, r7, r2
1000166c:	781a      	ldrb	r2, [r3, #0]
1000166e:	7018      	strb	r0, [r3, #0]
10001670:	71ba      	strb	r2, [r7, #6]
10001672:	e7cb      	b.n	1000160c <irq_remove_handler+0xc4>
10001674:	9801      	ldr	r0, [sp, #4]
10001676:	2800      	cmp	r0, #0
10001678:	d117      	bne.n	100016aa <irq_remove_handler+0x162>
1000167a:	30ff      	adds	r0, #255	; 0xff
1000167c:	7190      	strb	r0, [r2, #6]
1000167e:	481f      	ldr	r0, [pc, #124]	; (100016fc <irq_remove_handler+0x1b4>)
10001680:	8090      	strh	r0, [r2, #4]
10001682:	4a1d      	ldr	r2, [pc, #116]	; (100016f8 <irq_remove_handler+0x1b0>)
10001684:	1bcf      	subs	r7, r1, r7
10001686:	7810      	ldrb	r0, [r2, #0]
10001688:	10bf      	asrs	r7, r7, #2
1000168a:	7198      	strb	r0, [r3, #6]
1000168c:	00bb      	lsls	r3, r7, #2
1000168e:	19db      	adds	r3, r3, r7
10001690:	0119      	lsls	r1, r3, #4
10001692:	185b      	adds	r3, r3, r1
10001694:	0219      	lsls	r1, r3, #8
10001696:	185b      	adds	r3, r3, r1
10001698:	0419      	lsls	r1, r3, #16
1000169a:	185b      	adds	r3, r3, r1
1000169c:	005b      	lsls	r3, r3, #1
1000169e:	19db      	adds	r3, r3, r7
100016a0:	7013      	strb	r3, [r2, #0]
100016a2:	e7b3      	b.n	1000160c <irq_remove_handler+0xc4>
100016a4:	21bd      	movs	r1, #189	; 0xbd
100016a6:	0209      	lsls	r1, r1, #8
100016a8:	e7db      	b.n	10001662 <irq_remove_handler+0x11a>
100016aa:	4a15      	ldr	r2, [pc, #84]	; (10001700 <irq_remove_handler+0x1b8>)
100016ac:	4915      	ldr	r1, [pc, #84]	; (10001704 <irq_remove_handler+0x1bc>)
100016ae:	1ad2      	subs	r2, r2, r3
100016b0:	3a08      	subs	r2, #8
100016b2:	0250      	lsls	r0, r2, #9
100016b4:	0d40      	lsrs	r0, r0, #21
100016b6:	4301      	orrs	r1, r0
100016b8:	8099      	strh	r1, [r3, #4]
100016ba:	4913      	ldr	r1, [pc, #76]	; (10001708 <irq_remove_handler+0x1c0>)
100016bc:	0852      	lsrs	r2, r2, #1
100016be:	430a      	orrs	r2, r1
100016c0:	80da      	strh	r2, [r3, #6]
100016c2:	e7a3      	b.n	1000160c <irq_remove_handler+0xc4>
100016c4:	2006      	movs	r0, #6
100016c6:	5608      	ldrsb	r0, [r1, r0]
100016c8:	000b      	movs	r3, r1
100016ca:	2800      	cmp	r0, #0
100016cc:	daaf      	bge.n	1000162e <irq_remove_handler+0xe6>
100016ce:	9a01      	ldr	r2, [sp, #4]
100016d0:	2a00      	cmp	r2, #0
100016d2:	d1ea      	bne.n	100016aa <irq_remove_handler+0x162>
100016d4:	000b      	movs	r3, r1
100016d6:	4645      	mov	r5, r8
100016d8:	e7d3      	b.n	10001682 <irq_remove_handler+0x13a>
100016da:	46c0      	nop			; (mov r8, r8)
100016dc:	d0000124 	.word	0xd0000124
100016e0:	e000ed00 	.word	0xe000ed00
100016e4:	100002cd 	.word	0x100002cd
100016e8:	2000018c 	.word	0x2000018c
100016ec:	e000e100 	.word	0xe000e100
100016f0:	e000e180 	.word	0xe000e180
100016f4:	e000e280 	.word	0xe000e280
100016f8:	20000b29 	.word	0x20000b29
100016fc:	ffffbd00 	.word	0xffffbd00
10001700:	200001c6 	.word	0x200001c6
10001704:	fffff000 	.word	0xfffff000
10001708:	fffff800 	.word	0xfffff800

1000170c <irq_add_tail_to_free_list>:
1000170c:	b5f8      	push	{r3, r4, r5, r6, r7, lr}
1000170e:	2501      	movs	r5, #1
10001710:	0004      	movs	r4, r0
10001712:	4305      	orrs	r5, r0
10001714:	f7fe fd3f 	bl	10000196 <__get_current_exception>
10001718:	f3ef 8610 	mrs	r6, PRIMASK
1000171c:	b672      	cpsid	i
1000171e:	4a24      	ldr	r2, [pc, #144]	; (100017b0 <irq_add_tail_to_free_list+0xa4>)
10001720:	6813      	ldr	r3, [r2, #0]
10001722:	2b00      	cmp	r3, #0
10001724:	d0fc      	beq.n	10001720 <irq_add_tail_to_free_list+0x14>
10001726:	f3bf 8f5f 	dmb	sy
1000172a:	4f22      	ldr	r7, [pc, #136]	; (100017b4 <irq_add_tail_to_free_list+0xa8>)
1000172c:	0080      	lsls	r0, r0, #2
1000172e:	1be1      	subs	r1, r4, r7
10001730:	1089      	asrs	r1, r1, #2
10001732:	008a      	lsls	r2, r1, #2
10001734:	1852      	adds	r2, r2, r1
10001736:	0113      	lsls	r3, r2, #4
10001738:	18d2      	adds	r2, r2, r3
1000173a:	0213      	lsls	r3, r2, #8
1000173c:	18d2      	adds	r2, r2, r3
1000173e:	0413      	lsls	r3, r2, #16
10001740:	18d3      	adds	r3, r2, r3
10001742:	4a1d      	ldr	r2, [pc, #116]	; (100017b8 <irq_add_tail_to_free_list+0xac>)
10001744:	005b      	lsls	r3, r3, #1
10001746:	185b      	adds	r3, r3, r1
10001748:	6891      	ldr	r1, [r2, #8]
1000174a:	5809      	ldr	r1, [r1, r0]
1000174c:	42a9      	cmp	r1, r5
1000174e:	d01c      	beq.n	1000178a <irq_add_tail_to_free_list+0x7e>
10001750:	2206      	movs	r2, #6
10001752:	56ba      	ldrsb	r2, [r7, r2]
10001754:	4293      	cmp	r3, r2
10001756:	d01c      	beq.n	10001792 <irq_add_tail_to_free_list+0x86>
10001758:	2212      	movs	r2, #18
1000175a:	56ba      	ldrsb	r2, [r7, r2]
1000175c:	4293      	cmp	r3, r2
1000175e:	d022      	beq.n	100017a6 <irq_add_tail_to_free_list+0x9a>
10001760:	221e      	movs	r2, #30
10001762:	56ba      	ldrsb	r2, [r7, r2]
10001764:	4293      	cmp	r3, r2
10001766:	d020      	beq.n	100017aa <irq_add_tail_to_free_list+0x9e>
10001768:	222a      	movs	r2, #42	; 0x2a
1000176a:	56ba      	ldrsb	r2, [r7, r2]
1000176c:	2103      	movs	r1, #3
1000176e:	429a      	cmp	r2, r3
10001770:	d010      	beq.n	10001794 <irq_add_tail_to_free_list+0x88>
10001772:	4a12      	ldr	r2, [pc, #72]	; (100017bc <irq_add_tail_to_free_list+0xb0>)
10001774:	7811      	ldrb	r1, [r2, #0]
10001776:	7013      	strb	r3, [r2, #0]
10001778:	71a1      	strb	r1, [r4, #6]
1000177a:	f3bf 8f5f 	dmb	sy
1000177e:	2200      	movs	r2, #0
10001780:	4b0b      	ldr	r3, [pc, #44]	; (100017b0 <irq_add_tail_to_free_list+0xa4>)
10001782:	601a      	str	r2, [r3, #0]
10001784:	f386 8810 	msr	PRIMASK, r6
10001788:	bdf8      	pop	{r3, r4, r5, r6, r7, pc}
1000178a:	6892      	ldr	r2, [r2, #8]
1000178c:	490c      	ldr	r1, [pc, #48]	; (100017c0 <irq_add_tail_to_free_list+0xb4>)
1000178e:	5011      	str	r1, [r2, r0]
10001790:	e7ef      	b.n	10001772 <irq_add_tail_to_free_list+0x66>
10001792:	2100      	movs	r1, #0
10001794:	004a      	lsls	r2, r1, #1
10001796:	1852      	adds	r2, r2, r1
10001798:	21ff      	movs	r1, #255	; 0xff
1000179a:	0092      	lsls	r2, r2, #2
1000179c:	18ba      	adds	r2, r7, r2
1000179e:	7191      	strb	r1, [r2, #6]
100017a0:	4908      	ldr	r1, [pc, #32]	; (100017c4 <irq_add_tail_to_free_list+0xb8>)
100017a2:	8091      	strh	r1, [r2, #4]
100017a4:	e7e5      	b.n	10001772 <irq_add_tail_to_free_list+0x66>
100017a6:	2101      	movs	r1, #1
100017a8:	e7f4      	b.n	10001794 <irq_add_tail_to_free_list+0x88>
100017aa:	2102      	movs	r1, #2
100017ac:	e7f2      	b.n	10001794 <irq_add_tail_to_free_list+0x88>
100017ae:	46c0      	nop			; (mov r8, r8)
100017b0:	d0000124 	.word	0xd0000124
100017b4:	2000018c 	.word	0x2000018c
100017b8:	e000ed00 	.word	0xe000ed00
100017bc:	20000b29 	.word	0x20000b29
100017c0:	100002cd 	.word	0x100002cd
100017c4:	ffffbd00 	.word	0xffffbd00

100017c8 <irq_init_priorities>:
100017c8:	b5f0      	push	{r4, r5, r6, r7, lr}
100017ca:	2200      	movs	r2, #0
100017cc:	2403      	movs	r4, #3
100017ce:	27ff      	movs	r7, #255	; 0xff
100017d0:	2680      	movs	r6, #128	; 0x80
100017d2:	0020      	movs	r0, r4
100017d4:	003d      	movs	r5, r7
100017d6:	4b09      	ldr	r3, [pc, #36]	; (100017fc <irq_init_priorities+0x34>)
100017d8:	0011      	movs	r1, r2
100017da:	469c      	mov	ip, r3
100017dc:	4010      	ands	r0, r2
100017de:	00c0      	lsls	r0, r0, #3
100017e0:	4085      	lsls	r5, r0
100017e2:	43a1      	bics	r1, r4
100017e4:	4461      	add	r1, ip
100017e6:	680b      	ldr	r3, [r1, #0]
100017e8:	3201      	adds	r2, #1
100017ea:	43ab      	bics	r3, r5
100017ec:	0035      	movs	r5, r6
100017ee:	4085      	lsls	r5, r0
100017f0:	432b      	orrs	r3, r5
100017f2:	600b      	str	r3, [r1, #0]
100017f4:	2a20      	cmp	r2, #32
100017f6:	d1ec      	bne.n	100017d2 <irq_init_priorities+0xa>
100017f8:	bdf0      	pop	{r4, r5, r6, r7, pc}
100017fa:	46c0      	nop			; (mov r8, r8)
100017fc:	e000e400 	.word	0xe000e400

10001800 <_out_null>:
10001800:	4770      	bx	lr
10001802:	46c0      	nop			; (mov r8, r8)

10001804 <_out_rev>:
10001804:	b5f8      	push	{r3, r4, r5, r6, r7, lr}
10001806:	4657      	mov	r7, sl
10001808:	464e      	mov	r6, r9
1000180a:	46de      	mov	lr, fp
1000180c:	4645      	mov	r5, r8
1000180e:	b5e0      	push	{r5, r6, r7, lr}
10001810:	001f      	movs	r7, r3
10001812:	9b0a      	ldr	r3, [sp, #40]	; 0x28
10001814:	0005      	movs	r5, r0
10001816:	469b      	mov	fp, r3
10001818:	9b0d      	ldr	r3, [sp, #52]	; 0x34
1000181a:	000e      	movs	r6, r1
1000181c:	4691      	mov	r9, r2
1000181e:	4692      	mov	sl, r2
10001820:	079b      	lsls	r3, r3, #30
10001822:	d118      	bne.n	10001856 <_out_rev+0x52>
10001824:	9b0b      	ldr	r3, [sp, #44]	; 0x2c
10001826:	9a0c      	ldr	r2, [sp, #48]	; 0x30
10001828:	4293      	cmp	r3, r2
1000182a:	d214      	bcs.n	10001856 <_out_rev+0x52>
1000182c:	0013      	movs	r3, r2
1000182e:	9a0b      	ldr	r2, [sp, #44]	; 0x2c
10001830:	46b8      	mov	r8, r7
10001832:	1a9b      	subs	r3, r3, r2
10001834:	444b      	add	r3, r9
10001836:	464c      	mov	r4, r9
10001838:	000f      	movs	r7, r1
1000183a:	0006      	movs	r6, r0
1000183c:	001d      	movs	r5, r3
1000183e:	0022      	movs	r2, r4
10001840:	4643      	mov	r3, r8
10001842:	3401      	adds	r4, #1
10001844:	0039      	movs	r1, r7
10001846:	2020      	movs	r0, #32
10001848:	47b0      	blx	r6
1000184a:	42ac      	cmp	r4, r5
1000184c:	d1f7      	bne.n	1000183e <_out_rev+0x3a>
1000184e:	46aa      	mov	sl, r5
10001850:	0035      	movs	r5, r6
10001852:	003e      	movs	r6, r7
10001854:	4647      	mov	r7, r8
10001856:	9b0b      	ldr	r3, [sp, #44]	; 0x2c
10001858:	2b00      	cmp	r3, #0
1000185a:	d038      	beq.n	100018ce <_out_rev+0xca>
1000185c:	449a      	add	sl, r3
1000185e:	001c      	movs	r4, r3
10001860:	46d0      	mov	r8, sl
10001862:	4653      	mov	r3, sl
10001864:	1b1a      	subs	r2, r3, r4
10001866:	465b      	mov	r3, fp
10001868:	3c01      	subs	r4, #1
1000186a:	5d18      	ldrb	r0, [r3, r4]
1000186c:	0031      	movs	r1, r6
1000186e:	003b      	movs	r3, r7
10001870:	47a8      	blx	r5
10001872:	2c00      	cmp	r4, #0
10001874:	d1f5      	bne.n	10001862 <_out_rev+0x5e>
10001876:	9b0d      	ldr	r3, [sp, #52]	; 0x34
10001878:	079b      	lsls	r3, r3, #30
1000187a:	d521      	bpl.n	100018c0 <_out_rev+0xbc>
1000187c:	4643      	mov	r3, r8
1000187e:	464a      	mov	r2, r9
10001880:	1a9c      	subs	r4, r3, r2
10001882:	9b0c      	ldr	r3, [sp, #48]	; 0x30
10001884:	42a3      	cmp	r3, r4
10001886:	d91b      	bls.n	100018c0 <_out_rev+0xbc>
10001888:	003a      	movs	r2, r7
1000188a:	469a      	mov	sl, r3
1000188c:	464f      	mov	r7, r9
1000188e:	4691      	mov	r9, r2
10001890:	19e2      	adds	r2, r4, r7
10001892:	464b      	mov	r3, r9
10001894:	0031      	movs	r1, r6
10001896:	2020      	movs	r0, #32
10001898:	3401      	adds	r4, #1
1000189a:	47a8      	blx	r5
1000189c:	4554      	cmp	r4, sl
1000189e:	d3f7      	bcc.n	10001890 <_out_rev+0x8c>
100018a0:	4643      	mov	r3, r8
100018a2:	990c      	ldr	r1, [sp, #48]	; 0x30
100018a4:	1bdb      	subs	r3, r3, r7
100018a6:	3301      	adds	r3, #1
100018a8:	46b9      	mov	r9, r7
100018aa:	2200      	movs	r2, #0
100018ac:	4299      	cmp	r1, r3
100018ae:	d303      	bcc.n	100018b8 <_out_rev+0xb4>
100018b0:	4643      	mov	r3, r8
100018b2:	1e4a      	subs	r2, r1, #1
100018b4:	444a      	add	r2, r9
100018b6:	1ad2      	subs	r2, r2, r3
100018b8:	4643      	mov	r3, r8
100018ba:	4690      	mov	r8, r2
100018bc:	3301      	adds	r3, #1
100018be:	4498      	add	r8, r3
100018c0:	4640      	mov	r0, r8
100018c2:	bc3c      	pop	{r2, r3, r4, r5}
100018c4:	4690      	mov	r8, r2
100018c6:	4699      	mov	r9, r3
100018c8:	46a2      	mov	sl, r4
100018ca:	46ab      	mov	fp, r5
100018cc:	bdf8      	pop	{r3, r4, r5, r6, r7, pc}
100018ce:	46d0      	mov	r8, sl
100018d0:	e7d1      	b.n	10001876 <_out_rev+0x72>
100018d2:	46c0      	nop			; (mov r8, r8)

100018d4 <_ntoa_format>:
100018d4:	b5f0      	push	{r4, r5, r6, r7, lr}
100018d6:	464f      	mov	r7, r9
100018d8:	4646      	mov	r6, r8
100018da:	46d6      	mov	lr, sl
100018dc:	b5c0      	push	{r6, r7, lr}
100018de:	b084      	sub	sp, #16
100018e0:	4698      	mov	r8, r3
100018e2:	ab0e      	add	r3, sp, #56	; 0x38
100018e4:	781b      	ldrb	r3, [r3, #0]
100018e6:	9f12      	ldr	r7, [sp, #72]	; 0x48
100018e8:	4699      	mov	r9, r3
100018ea:	4694      	mov	ip, r2
100018ec:	9c0d      	ldr	r4, [sp, #52]	; 0x34
100018ee:	9b10      	ldr	r3, [sp, #64]	; 0x40
100018f0:	9e11      	ldr	r6, [sp, #68]	; 0x44
100018f2:	07ba      	lsls	r2, r7, #30
100018f4:	d425      	bmi.n	10001942 <_ntoa_format+0x6e>
100018f6:	2e00      	cmp	r6, #0
100018f8:	d169      	bne.n	100019ce <_ntoa_format+0xfa>
100018fa:	429c      	cmp	r4, r3
100018fc:	d300      	bcc.n	10001900 <_ntoa_format+0x2c>
100018fe:	e0c2      	b.n	10001a86 <_ntoa_format+0x1b2>
10001900:	2201      	movs	r2, #1
10001902:	403a      	ands	r2, r7
10001904:	4692      	mov	sl, r2
10001906:	2c1f      	cmp	r4, #31
10001908:	d900      	bls.n	1000190c <_ntoa_format+0x38>
1000190a:	e0bb      	b.n	10001a84 <_ntoa_format+0x1b0>
1000190c:	9a0c      	ldr	r2, [sp, #48]	; 0x30
1000190e:	1e55      	subs	r5, r2, #1
10001910:	2230      	movs	r2, #48	; 0x30
10001912:	e001      	b.n	10001918 <_ntoa_format+0x44>
10001914:	2c20      	cmp	r4, #32
10001916:	d003      	beq.n	10001920 <_ntoa_format+0x4c>
10001918:	3401      	adds	r4, #1
1000191a:	552a      	strb	r2, [r5, r4]
1000191c:	42a3      	cmp	r3, r4
1000191e:	d8f9      	bhi.n	10001914 <_ntoa_format+0x40>
10001920:	4652      	mov	r2, sl
10001922:	2a00      	cmp	r2, #0
10001924:	d00d      	beq.n	10001942 <_ntoa_format+0x6e>
10001926:	42b4      	cmp	r4, r6
10001928:	d20b      	bcs.n	10001942 <_ntoa_format+0x6e>
1000192a:	2c1f      	cmp	r4, #31
1000192c:	d862      	bhi.n	100019f4 <_ntoa_format+0x120>
1000192e:	9a0c      	ldr	r2, [sp, #48]	; 0x30
10001930:	1e55      	subs	r5, r2, #1
10001932:	2230      	movs	r2, #48	; 0x30
10001934:	e001      	b.n	1000193a <_ntoa_format+0x66>
10001936:	2c20      	cmp	r4, #32
10001938:	d05c      	beq.n	100019f4 <_ntoa_format+0x120>
1000193a:	3401      	adds	r4, #1
1000193c:	552a      	strb	r2, [r5, r4]
1000193e:	42b4      	cmp	r4, r6
10001940:	d1f9      	bne.n	10001936 <_ntoa_format+0x62>
10001942:	06fa      	lsls	r2, r7, #27
10001944:	d535      	bpl.n	100019b2 <_ntoa_format+0xde>
10001946:	057a      	lsls	r2, r7, #21
10001948:	d45d      	bmi.n	10001a06 <_ntoa_format+0x132>
1000194a:	2c00      	cmp	r4, #0
1000194c:	d157      	bne.n	100019fe <_ntoa_format+0x12a>
1000194e:	9b0f      	ldr	r3, [sp, #60]	; 0x3c
10001950:	2b10      	cmp	r3, #16
10001952:	d100      	bne.n	10001956 <_ntoa_format+0x82>
10001954:	e07c      	b.n	10001a50 <_ntoa_format+0x17c>
10001956:	9b0f      	ldr	r3, [sp, #60]	; 0x3c
10001958:	2b02      	cmp	r3, #2
1000195a:	d100      	bne.n	1000195e <_ntoa_format+0x8a>
1000195c:	e08d      	b.n	10001a7a <_ntoa_format+0x1a6>
1000195e:	2330      	movs	r3, #48	; 0x30
10001960:	9a0c      	ldr	r2, [sp, #48]	; 0x30
10001962:	2401      	movs	r4, #1
10001964:	7013      	strb	r3, [r2, #0]
10001966:	464b      	mov	r3, r9
10001968:	2b00      	cmp	r3, #0
1000196a:	d027      	beq.n	100019bc <_ntoa_format+0xe8>
1000196c:	232d      	movs	r3, #45	; 0x2d
1000196e:	9a0c      	ldr	r2, [sp, #48]	; 0x30
10001970:	5513      	strb	r3, [r2, r4]
10001972:	3401      	adds	r4, #1
10001974:	9b0c      	ldr	r3, [sp, #48]	; 0x30
10001976:	4662      	mov	r2, ip
10001978:	9300      	str	r3, [sp, #0]
1000197a:	9703      	str	r7, [sp, #12]
1000197c:	4643      	mov	r3, r8
1000197e:	9602      	str	r6, [sp, #8]
10001980:	9401      	str	r4, [sp, #4]
10001982:	f7ff ff3f 	bl	10001804 <_out_rev>
10001986:	b004      	add	sp, #16
10001988:	bc1c      	pop	{r2, r3, r4}
1000198a:	4690      	mov	r8, r2
1000198c:	4699      	mov	r9, r3
1000198e:	46a2      	mov	sl, r4
10001990:	bdf0      	pop	{r4, r5, r6, r7, pc}
10001992:	06bb      	lsls	r3, r7, #26
10001994:	d463      	bmi.n	10001a5e <_ntoa_format+0x18a>
10001996:	2c20      	cmp	r4, #32
10001998:	d0ec      	beq.n	10001974 <_ntoa_format+0xa0>
1000199a:	9b0c      	ldr	r3, [sp, #48]	; 0x30
1000199c:	191a      	adds	r2, r3, r4
1000199e:	3401      	adds	r4, #1
100019a0:	2378      	movs	r3, #120	; 0x78
100019a2:	7013      	strb	r3, [r2, #0]
100019a4:	2c20      	cmp	r4, #32
100019a6:	d0e5      	beq.n	10001974 <_ntoa_format+0xa0>
100019a8:	2230      	movs	r2, #48	; 0x30
100019aa:	9b0c      	ldr	r3, [sp, #48]	; 0x30
100019ac:	191b      	adds	r3, r3, r4
100019ae:	701a      	strb	r2, [r3, #0]
100019b0:	3401      	adds	r4, #1
100019b2:	2c20      	cmp	r4, #32
100019b4:	d0de      	beq.n	10001974 <_ntoa_format+0xa0>
100019b6:	464b      	mov	r3, r9
100019b8:	2b00      	cmp	r3, #0
100019ba:	d1d7      	bne.n	1000196c <_ntoa_format+0x98>
100019bc:	077b      	lsls	r3, r7, #29
100019be:	d435      	bmi.n	10001a2c <_ntoa_format+0x158>
100019c0:	073b      	lsls	r3, r7, #28
100019c2:	d5d7      	bpl.n	10001974 <_ntoa_format+0xa0>
100019c4:	2320      	movs	r3, #32
100019c6:	9a0c      	ldr	r2, [sp, #48]	; 0x30
100019c8:	5513      	strb	r3, [r2, r4]
100019ca:	3401      	adds	r4, #1
100019cc:	e7d2      	b.n	10001974 <_ntoa_format+0xa0>
100019ce:	2201      	movs	r2, #1
100019d0:	0015      	movs	r5, r2
100019d2:	403d      	ands	r5, r7
100019d4:	46aa      	mov	sl, r5
100019d6:	423a      	tst	r2, r7
100019d8:	d020      	beq.n	10001a1c <_ntoa_format+0x148>
100019da:	464a      	mov	r2, r9
100019dc:	2a00      	cmp	r2, #0
100019de:	d12a      	bne.n	10001a36 <_ntoa_format+0x162>
100019e0:	320c      	adds	r2, #12
100019e2:	423a      	tst	r2, r7
100019e4:	d127      	bne.n	10001a36 <_ntoa_format+0x162>
100019e6:	429c      	cmp	r4, r3
100019e8:	d29d      	bcs.n	10001926 <_ntoa_format+0x52>
100019ea:	2c1f      	cmp	r4, #31
100019ec:	d800      	bhi.n	100019f0 <_ntoa_format+0x11c>
100019ee:	e78d      	b.n	1000190c <_ntoa_format+0x38>
100019f0:	2e20      	cmp	r6, #32
100019f2:	d919      	bls.n	10001a28 <_ntoa_format+0x154>
100019f4:	2420      	movs	r4, #32
100019f6:	06fa      	lsls	r2, r7, #27
100019f8:	d5bc      	bpl.n	10001974 <_ntoa_format+0xa0>
100019fa:	057a      	lsls	r2, r7, #21
100019fc:	d403      	bmi.n	10001a06 <_ntoa_format+0x132>
100019fe:	42a3      	cmp	r3, r4
10001a00:	d01b      	beq.n	10001a3a <_ntoa_format+0x166>
10001a02:	42a6      	cmp	r6, r4
10001a04:	d019      	beq.n	10001a3a <_ntoa_format+0x166>
10001a06:	9b0f      	ldr	r3, [sp, #60]	; 0x3c
10001a08:	2b10      	cmp	r3, #16
10001a0a:	d0c2      	beq.n	10001992 <_ntoa_format+0xbe>
10001a0c:	2b02      	cmp	r3, #2
10001a0e:	d1c9      	bne.n	100019a4 <_ntoa_format+0xd0>
10001a10:	2c20      	cmp	r4, #32
10001a12:	d0af      	beq.n	10001974 <_ntoa_format+0xa0>
10001a14:	9b0c      	ldr	r3, [sp, #48]	; 0x30
10001a16:	191b      	adds	r3, r3, r4
10001a18:	3401      	adds	r4, #1
10001a1a:	e040      	b.n	10001a9e <_ntoa_format+0x1ca>
10001a1c:	429c      	cmp	r4, r3
10001a1e:	d300      	bcc.n	10001a22 <_ntoa_format+0x14e>
10001a20:	e78f      	b.n	10001942 <_ntoa_format+0x6e>
10001a22:	2c1f      	cmp	r4, #31
10001a24:	d800      	bhi.n	10001a28 <_ntoa_format+0x154>
10001a26:	e771      	b.n	1000190c <_ntoa_format+0x38>
10001a28:	2420      	movs	r4, #32
10001a2a:	e78a      	b.n	10001942 <_ntoa_format+0x6e>
10001a2c:	232b      	movs	r3, #43	; 0x2b
10001a2e:	9a0c      	ldr	r2, [sp, #48]	; 0x30
10001a30:	5513      	strb	r3, [r2, r4]
10001a32:	3401      	adds	r4, #1
10001a34:	e79e      	b.n	10001974 <_ntoa_format+0xa0>
10001a36:	3e01      	subs	r6, #1
10001a38:	e7d5      	b.n	100019e6 <_ntoa_format+0x112>
10001a3a:	1e63      	subs	r3, r4, #1
10001a3c:	2c01      	cmp	r4, #1
10001a3e:	d100      	bne.n	10001a42 <_ntoa_format+0x16e>
10001a40:	e785      	b.n	1000194e <_ntoa_format+0x7a>
10001a42:	9a0f      	ldr	r2, [sp, #60]	; 0x3c
10001a44:	2a10      	cmp	r2, #16
10001a46:	d020      	beq.n	10001a8a <_ntoa_format+0x1b6>
10001a48:	2a02      	cmp	r2, #2
10001a4a:	d025      	beq.n	10001a98 <_ntoa_format+0x1c4>
10001a4c:	001c      	movs	r4, r3
10001a4e:	e7ab      	b.n	100019a8 <_ntoa_format+0xd4>
10001a50:	06bb      	lsls	r3, r7, #26
10001a52:	d40d      	bmi.n	10001a70 <_ntoa_format+0x19c>
10001a54:	2378      	movs	r3, #120	; 0x78
10001a56:	9a0c      	ldr	r2, [sp, #48]	; 0x30
10001a58:	2401      	movs	r4, #1
10001a5a:	7013      	strb	r3, [r2, #0]
10001a5c:	e7a4      	b.n	100019a8 <_ntoa_format+0xd4>
10001a5e:	2c20      	cmp	r4, #32
10001a60:	d100      	bne.n	10001a64 <_ntoa_format+0x190>
10001a62:	e787      	b.n	10001974 <_ntoa_format+0xa0>
10001a64:	2258      	movs	r2, #88	; 0x58
10001a66:	9b0c      	ldr	r3, [sp, #48]	; 0x30
10001a68:	191b      	adds	r3, r3, r4
10001a6a:	701a      	strb	r2, [r3, #0]
10001a6c:	3401      	adds	r4, #1
10001a6e:	e799      	b.n	100019a4 <_ntoa_format+0xd0>
10001a70:	2358      	movs	r3, #88	; 0x58
10001a72:	9a0c      	ldr	r2, [sp, #48]	; 0x30
10001a74:	2401      	movs	r4, #1
10001a76:	7013      	strb	r3, [r2, #0]
10001a78:	e796      	b.n	100019a8 <_ntoa_format+0xd4>
10001a7a:	9a0c      	ldr	r2, [sp, #48]	; 0x30
10001a7c:	3360      	adds	r3, #96	; 0x60
10001a7e:	2401      	movs	r4, #1
10001a80:	7013      	strb	r3, [r2, #0]
10001a82:	e791      	b.n	100019a8 <_ntoa_format+0xd4>
10001a84:	2420      	movs	r4, #32
10001a86:	2600      	movs	r6, #0
10001a88:	e75b      	b.n	10001942 <_ntoa_format+0x6e>
10001a8a:	3c02      	subs	r4, #2
10001a8c:	06ba      	lsls	r2, r7, #26
10001a8e:	d4e9      	bmi.n	10001a64 <_ntoa_format+0x190>
10001a90:	9a0c      	ldr	r2, [sp, #48]	; 0x30
10001a92:	1912      	adds	r2, r2, r4
10001a94:	001c      	movs	r4, r3
10001a96:	e783      	b.n	100019a0 <_ntoa_format+0xcc>
10001a98:	9a0c      	ldr	r2, [sp, #48]	; 0x30
10001a9a:	4692      	mov	sl, r2
10001a9c:	4453      	add	r3, sl
10001a9e:	2262      	movs	r2, #98	; 0x62
10001aa0:	701a      	strb	r2, [r3, #0]
10001aa2:	e77f      	b.n	100019a4 <_ntoa_format+0xd0>

10001aa4 <_out_char>:
10001aa4:	b510      	push	{r4, lr}
10001aa6:	2800      	cmp	r0, #0
10001aa8:	d100      	bne.n	10001aac <_out_char+0x8>
10001aaa:	bd10      	pop	{r4, pc}
10001aac:	f002 f9ea 	bl	10003e84 <__wrap_putchar>
10001ab0:	e7fb      	b.n	10001aaa <_out_char+0x6>
10001ab2:	46c0      	nop			; (mov r8, r8)

10001ab4 <_out_fct>:
10001ab4:	000b      	movs	r3, r1
10001ab6:	b510      	push	{r4, lr}
10001ab8:	2800      	cmp	r0, #0
10001aba:	d002      	beq.n	10001ac2 <_out_fct+0xe>
10001abc:	6849      	ldr	r1, [r1, #4]
10001abe:	681b      	ldr	r3, [r3, #0]
10001ac0:	4798      	blx	r3
10001ac2:	bd10      	pop	{r4, pc}

10001ac4 <_etoa>:
10001ac4:	b5f0      	push	{r4, r5, r6, r7, lr}
10001ac6:	46de      	mov	lr, fp
10001ac8:	4657      	mov	r7, sl
10001aca:	464e      	mov	r6, r9
10001acc:	4645      	mov	r5, r8
10001ace:	b5e0      	push	{r5, r6, r7, lr}
10001ad0:	b09b      	sub	sp, #108	; 0x6c
10001ad2:	469a      	mov	sl, r3
10001ad4:	9b24      	ldr	r3, [sp, #144]	; 0x90
10001ad6:	468b      	mov	fp, r1
10001ad8:	4699      	mov	r9, r3
10001ada:	9b25      	ldr	r3, [sp, #148]	; 0x94
10001adc:	900b      	str	r0, [sp, #44]	; 0x2c
10001ade:	4698      	mov	r8, r3
10001ae0:	920c      	str	r2, [sp, #48]	; 0x30
10001ae2:	4643      	mov	r3, r8
10001ae4:	464a      	mov	r2, r9
10001ae6:	4648      	mov	r0, r9
10001ae8:	4641      	mov	r1, r8
10001aea:	f001 fccc 	bl	10003486 <__wrap___aeabi_dcmpun>
10001aee:	2800      	cmp	r0, #0
10001af0:	d000      	beq.n	10001af4 <_etoa+0x30>
10001af2:	e1a3      	b.n	10001e3c <_etoa+0x378>
10001af4:	2201      	movs	r2, #1
10001af6:	4648      	mov	r0, r9
10001af8:	4641      	mov	r1, r8
10001afa:	4be2      	ldr	r3, [pc, #904]	; (10001e84 <_etoa+0x3c0>)
10001afc:	4252      	negs	r2, r2
10001afe:	f001 fcbd 	bl	1000347c <__wrap___aeabi_dcmpgt>
10001b02:	2800      	cmp	r0, #0
10001b04:	d000      	beq.n	10001b08 <_etoa+0x44>
10001b06:	e199      	b.n	10001e3c <_etoa+0x378>
10001b08:	2201      	movs	r2, #1
10001b0a:	4648      	mov	r0, r9
10001b0c:	4641      	mov	r1, r8
10001b0e:	4bde      	ldr	r3, [pc, #888]	; (10001e88 <_etoa+0x3c4>)
10001b10:	4252      	negs	r2, r2
10001b12:	f001 fc9d 	bl	10003450 <__wrap___aeabi_dcmplt>
10001b16:	2800      	cmp	r0, #0
10001b18:	d000      	beq.n	10001b1c <_etoa+0x58>
10001b1a:	e18f      	b.n	10001e3c <_etoa+0x378>
10001b1c:	2200      	movs	r2, #0
10001b1e:	2300      	movs	r3, #0
10001b20:	4648      	mov	r0, r9
10001b22:	4641      	mov	r1, r8
10001b24:	f001 fc94 	bl	10003450 <__wrap___aeabi_dcmplt>
10001b28:	2800      	cmp	r0, #0
10001b2a:	d000      	beq.n	10001b2e <_etoa+0x6a>
10001b2c:	e1de      	b.n	10001eec <_etoa+0x428>
10001b2e:	464a      	mov	r2, r9
10001b30:	4643      	mov	r3, r8
10001b32:	920a      	str	r2, [sp, #40]	; 0x28
10001b34:	9309      	str	r3, [sp, #36]	; 0x24
10001b36:	2380      	movs	r3, #128	; 0x80
10001b38:	9a28      	ldr	r2, [sp, #160]	; 0xa0
10001b3a:	00db      	lsls	r3, r3, #3
10001b3c:	401a      	ands	r2, r3
10001b3e:	9211      	str	r2, [sp, #68]	; 0x44
10001b40:	9a28      	ldr	r2, [sp, #160]	; 0xa0
10001b42:	421a      	tst	r2, r3
10001b44:	d101      	bne.n	10001b4a <_etoa+0x86>
10001b46:	2306      	movs	r3, #6
10001b48:	9326      	str	r3, [sp, #152]	; 0x98
10001b4a:	4bd0      	ldr	r3, [pc, #832]	; (10001e8c <_etoa+0x3c8>)
10001b4c:	9f09      	ldr	r7, [sp, #36]	; 0x24
10001b4e:	469c      	mov	ip, r3
10001b50:	0078      	lsls	r0, r7, #1
10001b52:	0d40      	lsrs	r0, r0, #21
10001b54:	4460      	add	r0, ip
10001b56:	f001 fca9 	bl	100034ac <__wrap___aeabi_i2d>
10001b5a:	4acd      	ldr	r2, [pc, #820]	; (10001e90 <_etoa+0x3cc>)
10001b5c:	4bcd      	ldr	r3, [pc, #820]	; (10001e94 <_etoa+0x3d0>)
10001b5e:	f001 fc35 	bl	100033cc <__wrap___aeabi_dmul>
10001b62:	4acd      	ldr	r2, [pc, #820]	; (10001e98 <_etoa+0x3d4>)
10001b64:	4bcd      	ldr	r3, [pc, #820]	; (10001e9c <_etoa+0x3d8>)
10001b66:	f001 fc1f 	bl	100033a8 <__wrap___aeabi_dadd>
10001b6a:	033b      	lsls	r3, r7, #12
10001b6c:	4acc      	ldr	r2, [pc, #816]	; (10001ea0 <_etoa+0x3dc>)
10001b6e:	9e0a      	ldr	r6, [sp, #40]	; 0x28
10001b70:	0b1b      	lsrs	r3, r3, #12
10001b72:	431a      	orrs	r2, r3
10001b74:	0004      	movs	r4, r0
10001b76:	000d      	movs	r5, r1
10001b78:	0030      	movs	r0, r6
10001b7a:	0011      	movs	r1, r2
10001b7c:	4bc9      	ldr	r3, [pc, #804]	; (10001ea4 <_etoa+0x3e0>)
10001b7e:	2200      	movs	r2, #0
10001b80:	9709      	str	r7, [sp, #36]	; 0x24
10001b82:	f001 fc08 	bl	10003396 <__wrap___aeabi_dsub>
10001b86:	4ac8      	ldr	r2, [pc, #800]	; (10001ea8 <_etoa+0x3e4>)
10001b88:	4bc8      	ldr	r3, [pc, #800]	; (10001eac <_etoa+0x3e8>)
10001b8a:	f001 fc1f 	bl	100033cc <__wrap___aeabi_dmul>
10001b8e:	0002      	movs	r2, r0
10001b90:	000b      	movs	r3, r1
10001b92:	0020      	movs	r0, r4
10001b94:	0029      	movs	r1, r5
10001b96:	f001 fc07 	bl	100033a8 <__wrap___aeabi_dadd>
10001b9a:	f001 fc9f 	bl	100034dc <__wrap___aeabi_d2iz>
10001b9e:	900d      	str	r0, [sp, #52]	; 0x34
10001ba0:	f001 fc84 	bl	100034ac <__wrap___aeabi_i2d>
10001ba4:	4ac2      	ldr	r2, [pc, #776]	; (10001eb0 <_etoa+0x3ec>)
10001ba6:	4bc3      	ldr	r3, [pc, #780]	; (10001eb4 <_etoa+0x3f0>)
10001ba8:	0004      	movs	r4, r0
10001baa:	000d      	movs	r5, r1
10001bac:	f001 fc0e 	bl	100033cc <__wrap___aeabi_dmul>
10001bb0:	2200      	movs	r2, #0
10001bb2:	4bc1      	ldr	r3, [pc, #772]	; (10001eb8 <_etoa+0x3f4>)
10001bb4:	f001 fbf8 	bl	100033a8 <__wrap___aeabi_dadd>
10001bb8:	f001 fc90 	bl	100034dc <__wrap___aeabi_d2iz>
10001bbc:	4abf      	ldr	r2, [pc, #764]	; (10001ebc <_etoa+0x3f8>)
10001bbe:	0006      	movs	r6, r0
10001bc0:	4bbf      	ldr	r3, [pc, #764]	; (10001ec0 <_etoa+0x3fc>)
10001bc2:	0020      	movs	r0, r4
10001bc4:	0029      	movs	r1, r5
10001bc6:	f001 fc01 	bl	100033cc <__wrap___aeabi_dmul>
10001bca:	0004      	movs	r4, r0
10001bcc:	0030      	movs	r0, r6
10001bce:	000d      	movs	r5, r1
10001bd0:	9610      	str	r6, [sp, #64]	; 0x40
10001bd2:	f001 fc6b 	bl	100034ac <__wrap___aeabi_i2d>
10001bd6:	4abb      	ldr	r2, [pc, #748]	; (10001ec4 <_etoa+0x400>)
10001bd8:	4bbb      	ldr	r3, [pc, #748]	; (10001ec8 <_etoa+0x404>)
10001bda:	f001 fbf7 	bl	100033cc <__wrap___aeabi_dmul>
10001bde:	0002      	movs	r2, r0
10001be0:	000b      	movs	r3, r1
10001be2:	0020      	movs	r0, r4
10001be4:	0029      	movs	r1, r5
10001be6:	f001 fbd6 	bl	10003396 <__wrap___aeabi_dsub>
10001bea:	0002      	movs	r2, r0
10001bec:	000b      	movs	r3, r1
10001bee:	0006      	movs	r6, r0
10001bf0:	000f      	movs	r7, r1
10001bf2:	f001 fbeb 	bl	100033cc <__wrap___aeabi_dmul>
10001bf6:	0032      	movs	r2, r6
10001bf8:	0004      	movs	r4, r0
10001bfa:	000d      	movs	r5, r1
10001bfc:	003b      	movs	r3, r7
10001bfe:	0030      	movs	r0, r6
10001c00:	0039      	movs	r1, r7
10001c02:	f001 fbd1 	bl	100033a8 <__wrap___aeabi_dadd>
10001c06:	2200      	movs	r2, #0
10001c08:	900e      	str	r0, [sp, #56]	; 0x38
10001c0a:	910f      	str	r1, [sp, #60]	; 0x3c
10001c0c:	4baf      	ldr	r3, [pc, #700]	; (10001ecc <_etoa+0x408>)
10001c0e:	0020      	movs	r0, r4
10001c10:	0029      	movs	r1, r5
10001c12:	f001 fbd2 	bl	100033ba <__wrap___aeabi_ddiv>
10001c16:	2200      	movs	r2, #0
10001c18:	4bad      	ldr	r3, [pc, #692]	; (10001ed0 <_etoa+0x40c>)
10001c1a:	f001 fbc5 	bl	100033a8 <__wrap___aeabi_dadd>
10001c1e:	0002      	movs	r2, r0
10001c20:	000b      	movs	r3, r1
10001c22:	0020      	movs	r0, r4
10001c24:	0029      	movs	r1, r5
10001c26:	f001 fbc8 	bl	100033ba <__wrap___aeabi_ddiv>
10001c2a:	2200      	movs	r2, #0
10001c2c:	4ba9      	ldr	r3, [pc, #676]	; (10001ed4 <_etoa+0x410>)
10001c2e:	f001 fbbb 	bl	100033a8 <__wrap___aeabi_dadd>
10001c32:	0002      	movs	r2, r0
10001c34:	000b      	movs	r3, r1
10001c36:	0020      	movs	r0, r4
10001c38:	0029      	movs	r1, r5
10001c3a:	f001 fbbe 	bl	100033ba <__wrap___aeabi_ddiv>
10001c3e:	000d      	movs	r5, r1
10001c40:	2180      	movs	r1, #128	; 0x80
10001c42:	0004      	movs	r4, r0
10001c44:	0032      	movs	r2, r6
10001c46:	003b      	movs	r3, r7
10001c48:	2000      	movs	r0, #0
10001c4a:	05c9      	lsls	r1, r1, #23
10001c4c:	f001 fba3 	bl	10003396 <__wrap___aeabi_dsub>
10001c50:	0002      	movs	r2, r0
10001c52:	000b      	movs	r3, r1
10001c54:	0020      	movs	r0, r4
10001c56:	0029      	movs	r1, r5
10001c58:	f001 fba6 	bl	100033a8 <__wrap___aeabi_dadd>
10001c5c:	0002      	movs	r2, r0
10001c5e:	000b      	movs	r3, r1
10001c60:	980e      	ldr	r0, [sp, #56]	; 0x38
10001c62:	990f      	ldr	r1, [sp, #60]	; 0x3c
10001c64:	f001 fba9 	bl	100033ba <__wrap___aeabi_ddiv>
10001c68:	2200      	movs	r2, #0
10001c6a:	4b8d      	ldr	r3, [pc, #564]	; (10001ea0 <_etoa+0x3dc>)
10001c6c:	f001 fb9c 	bl	100033a8 <__wrap___aeabi_dadd>
10001c70:	9b10      	ldr	r3, [sp, #64]	; 0x40
10001c72:	4a99      	ldr	r2, [pc, #612]	; (10001ed8 <_etoa+0x414>)
10001c74:	001c      	movs	r4, r3
10001c76:	4694      	mov	ip, r2
10001c78:	4464      	add	r4, ip
10001c7a:	2200      	movs	r2, #0
10001c7c:	0523      	lsls	r3, r4, #20
10001c7e:	f001 fba5 	bl	100033cc <__wrap___aeabi_dmul>
10001c82:	0006      	movs	r6, r0
10001c84:	000f      	movs	r7, r1
10001c86:	0002      	movs	r2, r0
10001c88:	000b      	movs	r3, r1
10001c8a:	980a      	ldr	r0, [sp, #40]	; 0x28
10001c8c:	9909      	ldr	r1, [sp, #36]	; 0x24
10001c8e:	f001 fbdf 	bl	10003450 <__wrap___aeabi_dcmplt>
10001c92:	2800      	cmp	r0, #0
10001c94:	d00a      	beq.n	10001cac <_etoa+0x1e8>
10001c96:	9b0d      	ldr	r3, [sp, #52]	; 0x34
10001c98:	0030      	movs	r0, r6
10001c9a:	3b01      	subs	r3, #1
10001c9c:	0039      	movs	r1, r7
10001c9e:	930d      	str	r3, [sp, #52]	; 0x34
10001ca0:	2200      	movs	r2, #0
10001ca2:	4b8b      	ldr	r3, [pc, #556]	; (10001ed0 <_etoa+0x40c>)
10001ca4:	f001 fb89 	bl	100033ba <__wrap___aeabi_ddiv>
10001ca8:	0006      	movs	r6, r0
10001caa:	000f      	movs	r7, r1
10001cac:	9d0d      	ldr	r5, [sp, #52]	; 0x34
10001cae:	24c6      	movs	r4, #198	; 0xc6
10001cb0:	002b      	movs	r3, r5
10001cb2:	3363      	adds	r3, #99	; 0x63
10001cb4:	429c      	cmp	r4, r3
10001cb6:	41a4      	sbcs	r4, r4
10001cb8:	9b28      	ldr	r3, [sp, #160]	; 0xa0
10001cba:	4264      	negs	r4, r4
10001cbc:	3404      	adds	r4, #4
10001cbe:	051b      	lsls	r3, r3, #20
10001cc0:	d51f      	bpl.n	10001d02 <_etoa+0x23e>
10001cc2:	4a86      	ldr	r2, [pc, #536]	; (10001edc <_etoa+0x418>)
10001cc4:	4b86      	ldr	r3, [pc, #536]	; (10001ee0 <_etoa+0x41c>)
10001cc6:	980a      	ldr	r0, [sp, #40]	; 0x28
10001cc8:	9909      	ldr	r1, [sp, #36]	; 0x24
10001cca:	f001 fbcf 	bl	1000346c <__wrap___aeabi_dcmpge>
10001cce:	2800      	cmp	r0, #0
10001cd0:	d100      	bne.n	10001cd4 <_etoa+0x210>
10001cd2:	e0cc      	b.n	10001e6e <_etoa+0x3aa>
10001cd4:	2200      	movs	r2, #0
10001cd6:	4b83      	ldr	r3, [pc, #524]	; (10001ee4 <_etoa+0x420>)
10001cd8:	980a      	ldr	r0, [sp, #40]	; 0x28
10001cda:	9909      	ldr	r1, [sp, #36]	; 0x24
10001cdc:	f001 fbb8 	bl	10003450 <__wrap___aeabi_dcmplt>
10001ce0:	2800      	cmp	r0, #0
10001ce2:	d100      	bne.n	10001ce6 <_etoa+0x222>
10001ce4:	e0c3      	b.n	10001e6e <_etoa+0x3aa>
10001ce6:	9a26      	ldr	r2, [sp, #152]	; 0x98
10001ce8:	4295      	cmp	r5, r2
10001cea:	da00      	bge.n	10001cee <_etoa+0x22a>
10001cec:	e10b      	b.n	10001f06 <_etoa+0x442>
10001cee:	2300      	movs	r3, #0
10001cf0:	9326      	str	r3, [sp, #152]	; 0x98
10001cf2:	2380      	movs	r3, #128	; 0x80
10001cf4:	9a28      	ldr	r2, [sp, #160]	; 0xa0
10001cf6:	00db      	lsls	r3, r3, #3
10001cf8:	431a      	orrs	r2, r3
10001cfa:	2300      	movs	r3, #0
10001cfc:	2400      	movs	r4, #0
10001cfe:	9228      	str	r2, [sp, #160]	; 0xa0
10001d00:	930d      	str	r3, [sp, #52]	; 0x34
10001d02:	9b27      	ldr	r3, [sp, #156]	; 0x9c
10001d04:	2500      	movs	r5, #0
10001d06:	42a3      	cmp	r3, r4
10001d08:	d900      	bls.n	10001d0c <_etoa+0x248>
10001d0a:	1b1d      	subs	r5, r3, r4
10001d0c:	2302      	movs	r3, #2
10001d0e:	9a28      	ldr	r2, [sp, #160]	; 0xa0
10001d10:	401a      	ands	r2, r3
10001d12:	9210      	str	r2, [sp, #64]	; 0x40
10001d14:	9a28      	ldr	r2, [sp, #160]	; 0xa0
10001d16:	4213      	tst	r3, r2
10001d18:	d003      	beq.n	10001d22 <_etoa+0x25e>
10001d1a:	4263      	negs	r3, r4
10001d1c:	4163      	adcs	r3, r4
10001d1e:	425b      	negs	r3, r3
10001d20:	401d      	ands	r5, r3
10001d22:	9b0d      	ldr	r3, [sp, #52]	; 0x34
10001d24:	2b00      	cmp	r3, #0
10001d26:	d007      	beq.n	10001d38 <_etoa+0x274>
10001d28:	980a      	ldr	r0, [sp, #40]	; 0x28
10001d2a:	9909      	ldr	r1, [sp, #36]	; 0x24
10001d2c:	0032      	movs	r2, r6
10001d2e:	003b      	movs	r3, r7
10001d30:	f001 fb43 	bl	100033ba <__wrap___aeabi_ddiv>
10001d34:	900a      	str	r0, [sp, #40]	; 0x28
10001d36:	9109      	str	r1, [sp, #36]	; 0x24
10001d38:	2200      	movs	r2, #0
10001d3a:	2300      	movs	r3, #0
10001d3c:	4648      	mov	r0, r9
10001d3e:	4641      	mov	r1, r8
10001d40:	f001 fb86 	bl	10003450 <__wrap___aeabi_dcmplt>
10001d44:	2800      	cmp	r0, #0
10001d46:	d005      	beq.n	10001d54 <_etoa+0x290>
10001d48:	2080      	movs	r0, #128	; 0x80
10001d4a:	0600      	lsls	r0, r0, #24
10001d4c:	4684      	mov	ip, r0
10001d4e:	9909      	ldr	r1, [sp, #36]	; 0x24
10001d50:	4461      	add	r1, ip
10001d52:	9109      	str	r1, [sp, #36]	; 0x24
10001d54:	9a28      	ldr	r2, [sp, #160]	; 0xa0
10001d56:	4b64      	ldr	r3, [pc, #400]	; (10001ee8 <_etoa+0x424>)
10001d58:	9e0b      	ldr	r6, [sp, #44]	; 0x2c
10001d5a:	4013      	ands	r3, r2
10001d5c:	9304      	str	r3, [sp, #16]
10001d5e:	9b26      	ldr	r3, [sp, #152]	; 0x98
10001d60:	9a0a      	ldr	r2, [sp, #40]	; 0x28
10001d62:	9302      	str	r3, [sp, #8]
10001d64:	9b09      	ldr	r3, [sp, #36]	; 0x24
10001d66:	9503      	str	r5, [sp, #12]
10001d68:	9200      	str	r2, [sp, #0]
10001d6a:	9301      	str	r3, [sp, #4]
10001d6c:	4659      	mov	r1, fp
10001d6e:	4653      	mov	r3, sl
10001d70:	0030      	movs	r0, r6
10001d72:	9a0c      	ldr	r2, [sp, #48]	; 0x30
10001d74:	f000 f8cc 	bl	10001f10 <_ftoa>
10001d78:	0005      	movs	r5, r0
10001d7a:	2c00      	cmp	r4, #0
10001d7c:	d06f      	beq.n	10001e5e <_etoa+0x39a>
10001d7e:	9b28      	ldr	r3, [sp, #160]	; 0xa0
10001d80:	002a      	movs	r2, r5
10001d82:	0698      	lsls	r0, r3, #26
10001d84:	231f      	movs	r3, #31
10001d86:	17c0      	asrs	r0, r0, #31
10001d88:	4398      	bics	r0, r3
10001d8a:	1c6b      	adds	r3, r5, #1
10001d8c:	4698      	mov	r8, r3
10001d8e:	4659      	mov	r1, fp
10001d90:	4653      	mov	r3, sl
10001d92:	3065      	adds	r0, #101	; 0x65
10001d94:	47b0      	blx	r6
10001d96:	9b0d      	ldr	r3, [sp, #52]	; 0x34
10001d98:	2600      	movs	r6, #0
10001d9a:	17da      	asrs	r2, r3, #31
10001d9c:	189d      	adds	r5, r3, r2
10001d9e:	0fdb      	lsrs	r3, r3, #31
10001da0:	4699      	mov	r9, r3
10001da2:	4055      	eors	r5, r2
10001da4:	3c01      	subs	r4, #1
10001da6:	e001      	b.n	10001dac <_etoa+0x2e8>
10001da8:	2e20      	cmp	r6, #32
10001daa:	d013      	beq.n	10001dd4 <_etoa+0x310>
10001dac:	aa0a      	add	r2, sp, #40	; 0x28
10001dae:	4694      	mov	ip, r2
10001db0:	231f      	movs	r3, #31
10001db2:	0028      	movs	r0, r5
10001db4:	4463      	add	r3, ip
10001db6:	210a      	movs	r1, #10
10001db8:	3601      	adds	r6, #1
10001dba:	199f      	adds	r7, r3, r6
10001dbc:	f001 f8a6 	bl	10002f0c <__wrap___aeabi_uidiv>
10001dc0:	3130      	adds	r1, #48	; 0x30
10001dc2:	7039      	strb	r1, [r7, #0]
10001dc4:	0028      	movs	r0, r5
10001dc6:	210a      	movs	r1, #10
10001dc8:	f001 f8a0 	bl	10002f0c <__wrap___aeabi_uidiv>
10001dcc:	002f      	movs	r7, r5
10001dce:	0005      	movs	r5, r0
10001dd0:	2f09      	cmp	r7, #9
10001dd2:	d8e9      	bhi.n	10001da8 <_etoa+0x2e4>
10001dd4:	2305      	movs	r3, #5
10001dd6:	9306      	str	r3, [sp, #24]
10001dd8:	2300      	movs	r3, #0
10001dda:	9304      	str	r3, [sp, #16]
10001ddc:	330a      	adds	r3, #10
10001dde:	9303      	str	r3, [sp, #12]
10001de0:	464b      	mov	r3, r9
10001de2:	9601      	str	r6, [sp, #4]
10001de4:	9e0b      	ldr	r6, [sp, #44]	; 0x2c
10001de6:	9302      	str	r3, [sp, #8]
10001de8:	ab12      	add	r3, sp, #72	; 0x48
10001dea:	9300      	str	r3, [sp, #0]
10001dec:	4642      	mov	r2, r8
10001dee:	4653      	mov	r3, sl
10001df0:	4659      	mov	r1, fp
10001df2:	0030      	movs	r0, r6
10001df4:	9405      	str	r4, [sp, #20]
10001df6:	f7ff fd6d 	bl	100018d4 <_ntoa_format>
10001dfa:	9b10      	ldr	r3, [sp, #64]	; 0x40
10001dfc:	0005      	movs	r5, r0
10001dfe:	2b00      	cmp	r3, #0
10001e00:	d02d      	beq.n	10001e5e <_etoa+0x39a>
10001e02:	9b0c      	ldr	r3, [sp, #48]	; 0x30
10001e04:	9a27      	ldr	r2, [sp, #156]	; 0x9c
10001e06:	1ac4      	subs	r4, r0, r3
10001e08:	42a2      	cmp	r2, r4
10001e0a:	d928      	bls.n	10001e5e <_etoa+0x39a>
10001e0c:	4681      	mov	r9, r0
10001e0e:	465d      	mov	r5, fp
10001e10:	4698      	mov	r8, r3
10001e12:	0017      	movs	r7, r2
10001e14:	4643      	mov	r3, r8
10001e16:	0029      	movs	r1, r5
10001e18:	191a      	adds	r2, r3, r4
10001e1a:	2020      	movs	r0, #32
10001e1c:	4653      	mov	r3, sl
10001e1e:	3401      	adds	r4, #1
10001e20:	47b0      	blx	r6
10001e22:	42a7      	cmp	r7, r4
10001e24:	d8f6      	bhi.n	10001e14 <_etoa+0x350>
10001e26:	464d      	mov	r5, r9
10001e28:	990c      	ldr	r1, [sp, #48]	; 0x30
10001e2a:	9827      	ldr	r0, [sp, #156]	; 0x9c
10001e2c:	1a6b      	subs	r3, r5, r1
10001e2e:	3301      	adds	r3, #1
10001e30:	2200      	movs	r2, #0
10001e32:	4298      	cmp	r0, r3
10001e34:	d261      	bcs.n	10001efa <_etoa+0x436>
10001e36:	3501      	adds	r5, #1
10001e38:	1955      	adds	r5, r2, r5
10001e3a:	e010      	b.n	10001e5e <_etoa+0x39a>
10001e3c:	9b28      	ldr	r3, [sp, #160]	; 0xa0
10001e3e:	464a      	mov	r2, r9
10001e40:	9304      	str	r3, [sp, #16]
10001e42:	9b27      	ldr	r3, [sp, #156]	; 0x9c
10001e44:	4659      	mov	r1, fp
10001e46:	9303      	str	r3, [sp, #12]
10001e48:	9b26      	ldr	r3, [sp, #152]	; 0x98
10001e4a:	980b      	ldr	r0, [sp, #44]	; 0x2c
10001e4c:	9302      	str	r3, [sp, #8]
10001e4e:	4643      	mov	r3, r8
10001e50:	9200      	str	r2, [sp, #0]
10001e52:	9301      	str	r3, [sp, #4]
10001e54:	4653      	mov	r3, sl
10001e56:	9a0c      	ldr	r2, [sp, #48]	; 0x30
10001e58:	f000 f85a 	bl	10001f10 <_ftoa>
10001e5c:	0005      	movs	r5, r0
10001e5e:	0028      	movs	r0, r5
10001e60:	b01b      	add	sp, #108	; 0x6c
10001e62:	bc3c      	pop	{r2, r3, r4, r5}
10001e64:	4690      	mov	r8, r2
10001e66:	4699      	mov	r9, r3
10001e68:	46a2      	mov	sl, r4
10001e6a:	46ab      	mov	fp, r5
10001e6c:	bdf0      	pop	{r4, r5, r6, r7, pc}
10001e6e:	9b26      	ldr	r3, [sp, #152]	; 0x98
10001e70:	2b00      	cmp	r3, #0
10001e72:	d100      	bne.n	10001e76 <_etoa+0x3b2>
10001e74:	e745      	b.n	10001d02 <_etoa+0x23e>
10001e76:	9b11      	ldr	r3, [sp, #68]	; 0x44
10001e78:	1e5a      	subs	r2, r3, #1
10001e7a:	4193      	sbcs	r3, r2
10001e7c:	9a26      	ldr	r2, [sp, #152]	; 0x98
10001e7e:	1ad3      	subs	r3, r2, r3
10001e80:	9326      	str	r3, [sp, #152]	; 0x98
10001e82:	e73e      	b.n	10001d02 <_etoa+0x23e>
10001e84:	7fefffff 	.word	0x7fefffff
10001e88:	ffefffff 	.word	0xffefffff
10001e8c:	fffffc01 	.word	0xfffffc01
10001e90:	509f79fb 	.word	0x509f79fb
10001e94:	3fd34413 	.word	0x3fd34413
10001e98:	8b60c8b3 	.word	0x8b60c8b3
10001e9c:	3fc68a28 	.word	0x3fc68a28
10001ea0:	3ff00000 	.word	0x3ff00000
10001ea4:	3ff80000 	.word	0x3ff80000
10001ea8:	636f4361 	.word	0x636f4361
10001eac:	3fd287a7 	.word	0x3fd287a7
10001eb0:	0979a371 	.word	0x0979a371
10001eb4:	400a934f 	.word	0x400a934f
10001eb8:	3fe00000 	.word	0x3fe00000
10001ebc:	bbb55516 	.word	0xbbb55516
10001ec0:	40026bb1 	.word	0x40026bb1
10001ec4:	fefa39ef 	.word	0xfefa39ef
10001ec8:	3fe62e42 	.word	0x3fe62e42
10001ecc:	402c0000 	.word	0x402c0000
10001ed0:	40240000 	.word	0x40240000
10001ed4:	40180000 	.word	0x40180000
10001ed8:	000003ff 	.word	0x000003ff
10001edc:	eb1c432d 	.word	0xeb1c432d
10001ee0:	3f1a36e2 	.word	0x3f1a36e2
10001ee4:	412e8480 	.word	0x412e8480
10001ee8:	fffff7ff 	.word	0xfffff7ff
10001eec:	464b      	mov	r3, r9
10001eee:	930a      	str	r3, [sp, #40]	; 0x28
10001ef0:	2380      	movs	r3, #128	; 0x80
10001ef2:	061b      	lsls	r3, r3, #24
10001ef4:	4443      	add	r3, r8
10001ef6:	9309      	str	r3, [sp, #36]	; 0x24
10001ef8:	e61d      	b.n	10001b36 <_etoa+0x72>
10001efa:	000a      	movs	r2, r1
10001efc:	4684      	mov	ip, r0
10001efe:	3a01      	subs	r2, #1
10001f00:	4462      	add	r2, ip
10001f02:	1b52      	subs	r2, r2, r5
10001f04:	e797      	b.n	10001e36 <_etoa+0x372>
10001f06:	1b50      	subs	r0, r2, r5
10001f08:	1e43      	subs	r3, r0, #1
10001f0a:	9326      	str	r3, [sp, #152]	; 0x98
10001f0c:	e6f1      	b.n	10001cf2 <_etoa+0x22e>
10001f0e:	46c0      	nop			; (mov r8, r8)

10001f10 <_ftoa>:
10001f10:	b5f0      	push	{r4, r5, r6, r7, lr}
10001f12:	464e      	mov	r6, r9
10001f14:	46de      	mov	lr, fp
10001f16:	4657      	mov	r7, sl
10001f18:	4645      	mov	r5, r8
10001f1a:	b5e0      	push	{r5, r6, r7, lr}
10001f1c:	b097      	sub	sp, #92	; 0x5c
10001f1e:	4699      	mov	r9, r3
10001f20:	9e20      	ldr	r6, [sp, #128]	; 0x80
10001f22:	9f21      	ldr	r7, [sp, #132]	; 0x84
10001f24:	9b22      	ldr	r3, [sp, #136]	; 0x88
10001f26:	4683      	mov	fp, r0
10001f28:	4698      	mov	r8, r3
10001f2a:	9107      	str	r1, [sp, #28]
10001f2c:	920c      	str	r2, [sp, #48]	; 0x30
10001f2e:	003b      	movs	r3, r7
10001f30:	0032      	movs	r2, r6
10001f32:	0030      	movs	r0, r6
10001f34:	0039      	movs	r1, r7
10001f36:	f001 faa6 	bl	10003486 <__wrap___aeabi_dcmpun>
10001f3a:	2800      	cmp	r0, #0
10001f3c:	d000      	beq.n	10001f40 <_ftoa+0x30>
10001f3e:	e1c1      	b.n	100022c4 <_ftoa+0x3b4>
10001f40:	2201      	movs	r2, #1
10001f42:	0030      	movs	r0, r6
10001f44:	0039      	movs	r1, r7
10001f46:	4bca      	ldr	r3, [pc, #808]	; (10002270 <_ftoa+0x360>)
10001f48:	4252      	negs	r2, r2
10001f4a:	f001 fa81 	bl	10003450 <__wrap___aeabi_dcmplt>
10001f4e:	2800      	cmp	r0, #0
10001f50:	d000      	beq.n	10001f54 <_ftoa+0x44>
10001f52:	e0e0      	b.n	10002116 <_ftoa+0x206>
10001f54:	2201      	movs	r2, #1
10001f56:	0030      	movs	r0, r6
10001f58:	0039      	movs	r1, r7
10001f5a:	4bc6      	ldr	r3, [pc, #792]	; (10002274 <_ftoa+0x364>)
10001f5c:	4252      	negs	r2, r2
10001f5e:	f001 fa8d 	bl	1000347c <__wrap___aeabi_dcmpgt>
10001f62:	2800      	cmp	r0, #0
10001f64:	d000      	beq.n	10001f68 <_ftoa+0x58>
10001f66:	e0b6      	b.n	100020d6 <_ftoa+0x1c6>
10001f68:	2200      	movs	r2, #0
10001f6a:	0030      	movs	r0, r6
10001f6c:	0039      	movs	r1, r7
10001f6e:	4bc2      	ldr	r3, [pc, #776]	; (10002278 <_ftoa+0x368>)
10001f70:	f001 fa84 	bl	1000347c <__wrap___aeabi_dcmpgt>
10001f74:	2800      	cmp	r0, #0
10001f76:	d000      	beq.n	10001f7a <_ftoa+0x6a>
10001f78:	e098      	b.n	100020ac <_ftoa+0x19c>
10001f7a:	2200      	movs	r2, #0
10001f7c:	0030      	movs	r0, r6
10001f7e:	0039      	movs	r1, r7
10001f80:	4bbe      	ldr	r3, [pc, #760]	; (1000227c <_ftoa+0x36c>)
10001f82:	f001 fa65 	bl	10003450 <__wrap___aeabi_dcmplt>
10001f86:	2800      	cmp	r0, #0
10001f88:	d000      	beq.n	10001f8c <_ftoa+0x7c>
10001f8a:	e08f      	b.n	100020ac <_ftoa+0x19c>
10001f8c:	2200      	movs	r2, #0
10001f8e:	2300      	movs	r3, #0
10001f90:	0030      	movs	r0, r6
10001f92:	0039      	movs	r1, r7
10001f94:	f001 fa5c 	bl	10003450 <__wrap___aeabi_dcmplt>
10001f98:	2800      	cmp	r0, #0
10001f9a:	d000      	beq.n	10001f9e <_ftoa+0x8e>
10001f9c:	e0b0      	b.n	10002100 <_ftoa+0x1f0>
10001f9e:	2300      	movs	r3, #0
10001fa0:	930d      	str	r3, [sp, #52]	; 0x34
10001fa2:	9b24      	ldr	r3, [sp, #144]	; 0x90
10001fa4:	055b      	lsls	r3, r3, #21
10001fa6:	d401      	bmi.n	10001fac <_ftoa+0x9c>
10001fa8:	2306      	movs	r3, #6
10001faa:	4698      	mov	r8, r3
10001fac:	ab08      	add	r3, sp, #32
10001fae:	469c      	mov	ip, r3
10001fb0:	2217      	movs	r2, #23
10001fb2:	2400      	movs	r4, #0
10001fb4:	2330      	movs	r3, #48	; 0x30
10001fb6:	4641      	mov	r1, r8
10001fb8:	4462      	add	r2, ip
10001fba:	e004      	b.n	10001fc6 <_ftoa+0xb6>
10001fbc:	3401      	adds	r4, #1
10001fbe:	5513      	strb	r3, [r2, r4]
10001fc0:	3901      	subs	r1, #1
10001fc2:	2c20      	cmp	r4, #32
10001fc4:	d001      	beq.n	10001fca <_ftoa+0xba>
10001fc6:	2909      	cmp	r1, #9
10001fc8:	d8f8      	bhi.n	10001fbc <_ftoa+0xac>
10001fca:	4688      	mov	r8, r1
10001fcc:	0030      	movs	r0, r6
10001fce:	0039      	movs	r1, r7
10001fd0:	f001 fa84 	bl	100034dc <__wrap___aeabi_d2iz>
10001fd4:	4643      	mov	r3, r8
10001fd6:	00da      	lsls	r2, r3, #3
10001fd8:	4ba9      	ldr	r3, [pc, #676]	; (10002280 <_ftoa+0x370>)
10001fda:	0005      	movs	r5, r0
10001fdc:	189b      	adds	r3, r3, r2
10001fde:	681a      	ldr	r2, [r3, #0]
10001fe0:	685b      	ldr	r3, [r3, #4]
10001fe2:	9208      	str	r2, [sp, #32]
10001fe4:	9309      	str	r3, [sp, #36]	; 0x24
10001fe6:	f001 fa61 	bl	100034ac <__wrap___aeabi_i2d>
10001fea:	0002      	movs	r2, r0
10001fec:	000b      	movs	r3, r1
10001fee:	0030      	movs	r0, r6
10001ff0:	0039      	movs	r1, r7
10001ff2:	f001 f9d0 	bl	10003396 <__wrap___aeabi_dsub>
10001ff6:	9a08      	ldr	r2, [sp, #32]
10001ff8:	9b09      	ldr	r3, [sp, #36]	; 0x24
10001ffa:	f001 f9e7 	bl	100033cc <__wrap___aeabi_dmul>
10001ffe:	900a      	str	r0, [sp, #40]	; 0x28
10002000:	910b      	str	r1, [sp, #44]	; 0x2c
10002002:	f001 fa8f 	bl	10003524 <__wrap___aeabi_d2uiz>
10002006:	4682      	mov	sl, r0
10002008:	f001 fa4c 	bl	100034a4 <__wrap___aeabi_ui2d>
1000200c:	0002      	movs	r2, r0
1000200e:	000b      	movs	r3, r1
10002010:	980a      	ldr	r0, [sp, #40]	; 0x28
10002012:	990b      	ldr	r1, [sp, #44]	; 0x2c
10002014:	f001 f9bf 	bl	10003396 <__wrap___aeabi_dsub>
10002018:	2200      	movs	r2, #0
1000201a:	4b9a      	ldr	r3, [pc, #616]	; (10002284 <_ftoa+0x374>)
1000201c:	900a      	str	r0, [sp, #40]	; 0x28
1000201e:	910b      	str	r1, [sp, #44]	; 0x2c
10002020:	f001 fa2c 	bl	1000347c <__wrap___aeabi_dcmpgt>
10002024:	2800      	cmp	r0, #0
10002026:	d100      	bne.n	1000202a <_ftoa+0x11a>
10002028:	e0c0      	b.n	100021ac <_ftoa+0x29c>
1000202a:	2301      	movs	r3, #1
1000202c:	469c      	mov	ip, r3
1000202e:	44e2      	add	sl, ip
10002030:	4650      	mov	r0, sl
10002032:	f001 fa37 	bl	100034a4 <__wrap___aeabi_ui2d>
10002036:	0002      	movs	r2, r0
10002038:	000b      	movs	r3, r1
1000203a:	9808      	ldr	r0, [sp, #32]
1000203c:	9909      	ldr	r1, [sp, #36]	; 0x24
1000203e:	f001 fa0d 	bl	1000345c <__wrap___aeabi_dcmple>
10002042:	2800      	cmp	r0, #0
10002044:	d002      	beq.n	1000204c <_ftoa+0x13c>
10002046:	2300      	movs	r3, #0
10002048:	469a      	mov	sl, r3
1000204a:	3501      	adds	r5, #1
1000204c:	4643      	mov	r3, r8
1000204e:	2b00      	cmp	r3, #0
10002050:	d069      	beq.n	10002126 <_ftoa+0x216>
10002052:	ab08      	add	r3, sp, #32
10002054:	2617      	movs	r6, #23
10002056:	469c      	mov	ip, r3
10002058:	9508      	str	r5, [sp, #32]
1000205a:	4466      	add	r6, ip
1000205c:	4655      	mov	r5, sl
1000205e:	e014      	b.n	1000208a <_ftoa+0x17a>
10002060:	2301      	movs	r3, #1
10002062:	425b      	negs	r3, r3
10002064:	4443      	add	r3, r8
10002066:	210a      	movs	r1, #10
10002068:	0028      	movs	r0, r5
1000206a:	469a      	mov	sl, r3
1000206c:	f000 ff4e 	bl	10002f0c <__wrap___aeabi_uidiv>
10002070:	3401      	adds	r4, #1
10002072:	3130      	adds	r1, #48	; 0x30
10002074:	1937      	adds	r7, r6, r4
10002076:	7039      	strb	r1, [r7, #0]
10002078:	0028      	movs	r0, r5
1000207a:	210a      	movs	r1, #10
1000207c:	f000 ff46 	bl	10002f0c <__wrap___aeabi_uidiv>
10002080:	2d09      	cmp	r5, #9
10002082:	d800      	bhi.n	10002086 <_ftoa+0x176>
10002084:	e0d5      	b.n	10002232 <_ftoa+0x322>
10002086:	46d0      	mov	r8, sl
10002088:	0005      	movs	r5, r0
1000208a:	2c20      	cmp	r4, #32
1000208c:	d1e8      	bne.n	10002060 <_ftoa+0x150>
1000208e:	2303      	movs	r3, #3
10002090:	9a24      	ldr	r2, [sp, #144]	; 0x90
10002092:	4013      	ands	r3, r2
10002094:	2b01      	cmp	r3, #1
10002096:	d100      	bne.n	1000209a <_ftoa+0x18a>
10002098:	e100      	b.n	1000229c <_ftoa+0x38c>
1000209a:	ab0e      	add	r3, sp, #56	; 0x38
1000209c:	4698      	mov	r8, r3
1000209e:	9b24      	ldr	r3, [sp, #144]	; 0x90
100020a0:	9401      	str	r4, [sp, #4]
100020a2:	9303      	str	r3, [sp, #12]
100020a4:	9b23      	ldr	r3, [sp, #140]	; 0x8c
100020a6:	9302      	str	r3, [sp, #8]
100020a8:	4643      	mov	r3, r8
100020aa:	e01e      	b.n	100020ea <_ftoa+0x1da>
100020ac:	9b24      	ldr	r3, [sp, #144]	; 0x90
100020ae:	4658      	mov	r0, fp
100020b0:	9304      	str	r3, [sp, #16]
100020b2:	9b23      	ldr	r3, [sp, #140]	; 0x8c
100020b4:	9600      	str	r6, [sp, #0]
100020b6:	9701      	str	r7, [sp, #4]
100020b8:	9303      	str	r3, [sp, #12]
100020ba:	4643      	mov	r3, r8
100020bc:	9a0c      	ldr	r2, [sp, #48]	; 0x30
100020be:	9302      	str	r3, [sp, #8]
100020c0:	9907      	ldr	r1, [sp, #28]
100020c2:	464b      	mov	r3, r9
100020c4:	f7ff fcfe 	bl	10001ac4 <_etoa>
100020c8:	b017      	add	sp, #92	; 0x5c
100020ca:	bc3c      	pop	{r2, r3, r4, r5}
100020cc:	4690      	mov	r8, r2
100020ce:	4699      	mov	r9, r3
100020d0:	46a2      	mov	sl, r4
100020d2:	46ab      	mov	fp, r5
100020d4:	bdf0      	pop	{r4, r5, r6, r7, pc}
100020d6:	9b24      	ldr	r3, [sp, #144]	; 0x90
100020d8:	075b      	lsls	r3, r3, #29
100020da:	d40e      	bmi.n	100020fa <_ftoa+0x1ea>
100020dc:	2203      	movs	r2, #3
100020de:	4b6a      	ldr	r3, [pc, #424]	; (10002288 <_ftoa+0x378>)
100020e0:	9924      	ldr	r1, [sp, #144]	; 0x90
100020e2:	9201      	str	r2, [sp, #4]
100020e4:	9103      	str	r1, [sp, #12]
100020e6:	9923      	ldr	r1, [sp, #140]	; 0x8c
100020e8:	9102      	str	r1, [sp, #8]
100020ea:	9300      	str	r3, [sp, #0]
100020ec:	4658      	mov	r0, fp
100020ee:	464b      	mov	r3, r9
100020f0:	9a0c      	ldr	r2, [sp, #48]	; 0x30
100020f2:	9907      	ldr	r1, [sp, #28]
100020f4:	f7ff fb86 	bl	10001804 <_out_rev>
100020f8:	e7e6      	b.n	100020c8 <_ftoa+0x1b8>
100020fa:	2204      	movs	r2, #4
100020fc:	4b63      	ldr	r3, [pc, #396]	; (1000228c <_ftoa+0x37c>)
100020fe:	e7ef      	b.n	100020e0 <_ftoa+0x1d0>
10002100:	003b      	movs	r3, r7
10002102:	0032      	movs	r2, r6
10002104:	2000      	movs	r0, #0
10002106:	2100      	movs	r1, #0
10002108:	f001 f945 	bl	10003396 <__wrap___aeabi_dsub>
1000210c:	2301      	movs	r3, #1
1000210e:	0006      	movs	r6, r0
10002110:	000f      	movs	r7, r1
10002112:	930d      	str	r3, [sp, #52]	; 0x34
10002114:	e745      	b.n	10001fa2 <_ftoa+0x92>
10002116:	9b24      	ldr	r3, [sp, #144]	; 0x90
10002118:	9303      	str	r3, [sp, #12]
1000211a:	9b23      	ldr	r3, [sp, #140]	; 0x8c
1000211c:	9302      	str	r3, [sp, #8]
1000211e:	2304      	movs	r3, #4
10002120:	9301      	str	r3, [sp, #4]
10002122:	4b5b      	ldr	r3, [pc, #364]	; (10002290 <_ftoa+0x380>)
10002124:	e7e1      	b.n	100020ea <_ftoa+0x1da>
10002126:	0028      	movs	r0, r5
10002128:	f001 f9c0 	bl	100034ac <__wrap___aeabi_i2d>
1000212c:	0002      	movs	r2, r0
1000212e:	000b      	movs	r3, r1
10002130:	0030      	movs	r0, r6
10002132:	0039      	movs	r1, r7
10002134:	f001 f92f 	bl	10003396 <__wrap___aeabi_dsub>
10002138:	4b52      	ldr	r3, [pc, #328]	; (10002284 <_ftoa+0x374>)
1000213a:	2200      	movs	r2, #0
1000213c:	0006      	movs	r6, r0
1000213e:	000f      	movs	r7, r1
10002140:	f001 f986 	bl	10003450 <__wrap___aeabi_dcmplt>
10002144:	ab0e      	add	r3, sp, #56	; 0x38
10002146:	4698      	mov	r8, r3
10002148:	2800      	cmp	r0, #0
1000214a:	d10a      	bne.n	10002162 <_ftoa+0x252>
1000214c:	2200      	movs	r2, #0
1000214e:	0030      	movs	r0, r6
10002150:	0039      	movs	r1, r7
10002152:	4b4c      	ldr	r3, [pc, #304]	; (10002284 <_ftoa+0x374>)
10002154:	f001 f992 	bl	1000347c <__wrap___aeabi_dcmpgt>
10002158:	2800      	cmp	r0, #0
1000215a:	d102      	bne.n	10002162 <_ftoa+0x252>
1000215c:	07eb      	lsls	r3, r5, #31
1000215e:	d500      	bpl.n	10002162 <_ftoa+0x252>
10002160:	3501      	adds	r5, #1
10002162:	2c20      	cmp	r4, #32
10002164:	d032      	beq.n	100021cc <_ftoa+0x2bc>
10002166:	aa08      	add	r2, sp, #32
10002168:	4694      	mov	ip, r2
1000216a:	2317      	movs	r3, #23
1000216c:	0028      	movs	r0, r5
1000216e:	4463      	add	r3, ip
10002170:	210a      	movs	r1, #10
10002172:	3401      	adds	r4, #1
10002174:	191e      	adds	r6, r3, r4
10002176:	f000 fe9d 	bl	10002eb4 <__wrap___aeabi_idiv>
1000217a:	3130      	adds	r1, #48	; 0x30
1000217c:	0028      	movs	r0, r5
1000217e:	7031      	strb	r1, [r6, #0]
10002180:	210a      	movs	r1, #10
10002182:	f000 fe97 	bl	10002eb4 <__wrap___aeabi_idiv>
10002186:	1e05      	subs	r5, r0, #0
10002188:	d1eb      	bne.n	10002162 <_ftoa+0x252>
1000218a:	2303      	movs	r3, #3
1000218c:	9a24      	ldr	r2, [sp, #144]	; 0x90
1000218e:	4013      	ands	r3, r2
10002190:	2b01      	cmp	r3, #1
10002192:	d100      	bne.n	10002196 <_ftoa+0x286>
10002194:	e091      	b.n	100022ba <_ftoa+0x3aa>
10002196:	2c1f      	cmp	r4, #31
10002198:	d900      	bls.n	1000219c <_ftoa+0x28c>
1000219a:	e780      	b.n	1000209e <_ftoa+0x18e>
1000219c:	9b0d      	ldr	r3, [sp, #52]	; 0x34
1000219e:	2b00      	cmp	r3, #0
100021a0:	d03b      	beq.n	1000221a <_ftoa+0x30a>
100021a2:	232d      	movs	r3, #45	; 0x2d
100021a4:	4642      	mov	r2, r8
100021a6:	5513      	strb	r3, [r2, r4]
100021a8:	3401      	adds	r4, #1
100021aa:	e778      	b.n	1000209e <_ftoa+0x18e>
100021ac:	2200      	movs	r2, #0
100021ae:	980a      	ldr	r0, [sp, #40]	; 0x28
100021b0:	990b      	ldr	r1, [sp, #44]	; 0x2c
100021b2:	4b34      	ldr	r3, [pc, #208]	; (10002284 <_ftoa+0x374>)
100021b4:	f001 f94c 	bl	10003450 <__wrap___aeabi_dcmplt>
100021b8:	2800      	cmp	r0, #0
100021ba:	d000      	beq.n	100021be <_ftoa+0x2ae>
100021bc:	e746      	b.n	1000204c <_ftoa+0x13c>
100021be:	4653      	mov	r3, sl
100021c0:	2b00      	cmp	r3, #0
100021c2:	d167      	bne.n	10002294 <_ftoa+0x384>
100021c4:	2301      	movs	r3, #1
100021c6:	469c      	mov	ip, r3
100021c8:	44e2      	add	sl, ip
100021ca:	e73f      	b.n	1000204c <_ftoa+0x13c>
100021cc:	2303      	movs	r3, #3
100021ce:	9a24      	ldr	r2, [sp, #144]	; 0x90
100021d0:	4013      	ands	r3, r2
100021d2:	2b01      	cmp	r3, #1
100021d4:	d000      	beq.n	100021d8 <_ftoa+0x2c8>
100021d6:	e762      	b.n	1000209e <_ftoa+0x18e>
100021d8:	9b23      	ldr	r3, [sp, #140]	; 0x8c
100021da:	2b00      	cmp	r3, #0
100021dc:	d100      	bne.n	100021e0 <_ftoa+0x2d0>
100021de:	e75e      	b.n	1000209e <_ftoa+0x18e>
100021e0:	9b0d      	ldr	r3, [sp, #52]	; 0x34
100021e2:	2b00      	cmp	r3, #0
100021e4:	d103      	bne.n	100021ee <_ftoa+0x2de>
100021e6:	9a24      	ldr	r2, [sp, #144]	; 0x90
100021e8:	330c      	adds	r3, #12
100021ea:	4213      	tst	r3, r2
100021ec:	d002      	beq.n	100021f4 <_ftoa+0x2e4>
100021ee:	9b23      	ldr	r3, [sp, #140]	; 0x8c
100021f0:	3b01      	subs	r3, #1
100021f2:	9323      	str	r3, [sp, #140]	; 0x8c
100021f4:	9b23      	ldr	r3, [sp, #140]	; 0x8c
100021f6:	429c      	cmp	r4, r3
100021f8:	d2cd      	bcs.n	10002196 <_ftoa+0x286>
100021fa:	ab08      	add	r3, sp, #32
100021fc:	469c      	mov	ip, r3
100021fe:	2217      	movs	r2, #23
10002200:	2330      	movs	r3, #48	; 0x30
10002202:	4462      	add	r2, ip
10002204:	2c1f      	cmp	r4, #31
10002206:	d806      	bhi.n	10002216 <_ftoa+0x306>
10002208:	9923      	ldr	r1, [sp, #140]	; 0x8c
1000220a:	3401      	adds	r4, #1
1000220c:	5513      	strb	r3, [r2, r4]
1000220e:	428c      	cmp	r4, r1
10002210:	d0c1      	beq.n	10002196 <_ftoa+0x286>
10002212:	2c20      	cmp	r4, #32
10002214:	d1f8      	bne.n	10002208 <_ftoa+0x2f8>
10002216:	2420      	movs	r4, #32
10002218:	e741      	b.n	1000209e <_ftoa+0x18e>
1000221a:	9b24      	ldr	r3, [sp, #144]	; 0x90
1000221c:	075b      	lsls	r3, r3, #29
1000221e:	d421      	bmi.n	10002264 <_ftoa+0x354>
10002220:	9b24      	ldr	r3, [sp, #144]	; 0x90
10002222:	071b      	lsls	r3, r3, #28
10002224:	d400      	bmi.n	10002228 <_ftoa+0x318>
10002226:	e73a      	b.n	1000209e <_ftoa+0x18e>
10002228:	2320      	movs	r3, #32
1000222a:	4642      	mov	r2, r8
1000222c:	5513      	strb	r3, [r2, r4]
1000222e:	3401      	adds	r4, #1
10002230:	e735      	b.n	1000209e <_ftoa+0x18e>
10002232:	4657      	mov	r7, sl
10002234:	9d08      	ldr	r5, [sp, #32]
10002236:	2c20      	cmp	r4, #32
10002238:	d037      	beq.n	100022aa <_ftoa+0x39a>
1000223a:	0022      	movs	r2, r4
1000223c:	2130      	movs	r1, #48	; 0x30
1000223e:	4640      	mov	r0, r8
10002240:	2f00      	cmp	r7, #0
10002242:	d008      	beq.n	10002256 <_ftoa+0x346>
10002244:	3201      	adds	r2, #1
10002246:	54b1      	strb	r1, [r6, r2]
10002248:	2a20      	cmp	r2, #32
1000224a:	d043      	beq.n	100022d4 <_ftoa+0x3c4>
1000224c:	43d3      	mvns	r3, r2
1000224e:	191b      	adds	r3, r3, r4
10002250:	181b      	adds	r3, r3, r0
10002252:	2b00      	cmp	r3, #0
10002254:	d1f6      	bne.n	10002244 <_ftoa+0x334>
10002256:	ab0e      	add	r3, sp, #56	; 0x38
10002258:	4698      	mov	r8, r3
1000225a:	232e      	movs	r3, #46	; 0x2e
1000225c:	4641      	mov	r1, r8
1000225e:	1c54      	adds	r4, r2, #1
10002260:	548b      	strb	r3, [r1, r2]
10002262:	e77e      	b.n	10002162 <_ftoa+0x252>
10002264:	232b      	movs	r3, #43	; 0x2b
10002266:	4642      	mov	r2, r8
10002268:	5513      	strb	r3, [r2, r4]
1000226a:	3401      	adds	r4, #1
1000226c:	e717      	b.n	1000209e <_ftoa+0x18e>
1000226e:	46c0      	nop			; (mov r8, r8)
10002270:	ffefffff 	.word	0xffefffff
10002274:	7fefffff 	.word	0x7fefffff
10002278:	41cdcd65 	.word	0x41cdcd65
1000227c:	c1cdcd65 	.word	0xc1cdcd65
10002280:	10004dc8 	.word	0x10004dc8
10002284:	3fe00000 	.word	0x3fe00000
10002288:	10004bcc 	.word	0x10004bcc
1000228c:	10004bd0 	.word	0x10004bd0
10002290:	10004bdc 	.word	0x10004bdc
10002294:	07db      	lsls	r3, r3, #31
10002296:	d400      	bmi.n	1000229a <_ftoa+0x38a>
10002298:	e6d8      	b.n	1000204c <_ftoa+0x13c>
1000229a:	e793      	b.n	100021c4 <_ftoa+0x2b4>
1000229c:	9b23      	ldr	r3, [sp, #140]	; 0x8c
1000229e:	2b00      	cmp	r3, #0
100022a0:	d100      	bne.n	100022a4 <_ftoa+0x394>
100022a2:	e6fa      	b.n	1000209a <_ftoa+0x18a>
100022a4:	ab0e      	add	r3, sp, #56	; 0x38
100022a6:	4698      	mov	r8, r3
100022a8:	e79a      	b.n	100021e0 <_ftoa+0x2d0>
100022aa:	2303      	movs	r3, #3
100022ac:	9a24      	ldr	r2, [sp, #144]	; 0x90
100022ae:	4013      	ands	r3, r2
100022b0:	2b01      	cmp	r3, #1
100022b2:	d000      	beq.n	100022b6 <_ftoa+0x3a6>
100022b4:	e6f1      	b.n	1000209a <_ftoa+0x18a>
100022b6:	ab0e      	add	r3, sp, #56	; 0x38
100022b8:	4698      	mov	r8, r3
100022ba:	9b23      	ldr	r3, [sp, #140]	; 0x8c
100022bc:	2b00      	cmp	r3, #0
100022be:	d100      	bne.n	100022c2 <_ftoa+0x3b2>
100022c0:	e769      	b.n	10002196 <_ftoa+0x286>
100022c2:	e78d      	b.n	100021e0 <_ftoa+0x2d0>
100022c4:	9b24      	ldr	r3, [sp, #144]	; 0x90
100022c6:	9303      	str	r3, [sp, #12]
100022c8:	9b23      	ldr	r3, [sp, #140]	; 0x8c
100022ca:	9302      	str	r3, [sp, #8]
100022cc:	2303      	movs	r3, #3
100022ce:	9301      	str	r3, [sp, #4]
100022d0:	4b06      	ldr	r3, [pc, #24]	; (100022ec <_ftoa+0x3dc>)
100022d2:	e70a      	b.n	100020ea <_ftoa+0x1da>
100022d4:	2303      	movs	r3, #3
100022d6:	9a24      	ldr	r2, [sp, #144]	; 0x90
100022d8:	2420      	movs	r4, #32
100022da:	4013      	ands	r3, r2
100022dc:	2b01      	cmp	r3, #1
100022de:	d000      	beq.n	100022e2 <_ftoa+0x3d2>
100022e0:	e6db      	b.n	1000209a <_ftoa+0x18a>
100022e2:	9b23      	ldr	r3, [sp, #140]	; 0x8c
100022e4:	2420      	movs	r4, #32
100022e6:	2b00      	cmp	r3, #0
100022e8:	d1dc      	bne.n	100022a4 <_ftoa+0x394>
100022ea:	e6d6      	b.n	1000209a <_ftoa+0x18a>
100022ec:	10004bd8 	.word	0x10004bd8

100022f0 <_vsnprintf>:
100022f0:	b5f0      	push	{r4, r5, r6, r7, lr}
100022f2:	46de      	mov	lr, fp
100022f4:	464e      	mov	r6, r9
100022f6:	4657      	mov	r7, sl
100022f8:	4645      	mov	r5, r8
100022fa:	b5e0      	push	{r5, r6, r7, lr}
100022fc:	b09f      	sub	sp, #124	; 0x7c
100022fe:	001c      	movs	r4, r3
10002300:	9b28      	ldr	r3, [sp, #160]	; 0xa0
10002302:	4693      	mov	fp, r2
10002304:	9309      	str	r3, [sp, #36]	; 0x24
10002306:	4acf      	ldr	r2, [pc, #828]	; (10002644 <_vsnprintf+0x354>)
10002308:	4bcf      	ldr	r3, [pc, #828]	; (10002648 <_vsnprintf+0x358>)
1000230a:	4689      	mov	r9, r1
1000230c:	9008      	str	r0, [sp, #32]
1000230e:	601a      	str	r2, [r3, #0]
10002310:	2900      	cmp	r1, #0
10002312:	d100      	bne.n	10002316 <_vsnprintf+0x26>
10002314:	e216      	b.n	10002744 <_vsnprintf+0x454>
10002316:	2300      	movs	r3, #0
10002318:	7820      	ldrb	r0, [r4, #0]
1000231a:	469a      	mov	sl, r3
1000231c:	2800      	cmp	r0, #0
1000231e:	d100      	bne.n	10002322 <_vsnprintf+0x32>
10002320:	e218      	b.n	10002754 <_vsnprintf+0x464>
10002322:	0026      	movs	r6, r4
10002324:	001d      	movs	r5, r3
10002326:	464c      	mov	r4, r9
10002328:	e00a      	b.n	10002340 <_vsnprintf+0x50>
1000232a:	002a      	movs	r2, r5
1000232c:	1c6f      	adds	r7, r5, #1
1000232e:	465b      	mov	r3, fp
10002330:	9d08      	ldr	r5, [sp, #32]
10002332:	0021      	movs	r1, r4
10002334:	47a8      	blx	r5
10002336:	003d      	movs	r5, r7
10002338:	3601      	adds	r6, #1
1000233a:	7830      	ldrb	r0, [r6, #0]
1000233c:	2800      	cmp	r0, #0
1000233e:	d07a      	beq.n	10002436 <_vsnprintf+0x146>
10002340:	2825      	cmp	r0, #37	; 0x25
10002342:	d1f2      	bne.n	1000232a <_vsnprintf+0x3a>
10002344:	2310      	movs	r3, #16
10002346:	469a      	mov	sl, r3
10002348:	3b08      	subs	r3, #8
1000234a:	4699      	mov	r9, r3
1000234c:	3b04      	subs	r3, #4
1000234e:	4698      	mov	r8, r3
10002350:	3b02      	subs	r3, #2
10002352:	2100      	movs	r1, #0
10002354:	469c      	mov	ip, r3
10002356:	1c72      	adds	r2, r6, #1
10002358:	7810      	ldrb	r0, [r2, #0]
1000235a:	0016      	movs	r6, r2
1000235c:	0003      	movs	r3, r0
1000235e:	3b20      	subs	r3, #32
10002360:	b2db      	uxtb	r3, r3
10002362:	2b10      	cmp	r3, #16
10002364:	d803      	bhi.n	1000236e <_vsnprintf+0x7e>
10002366:	4fb9      	ldr	r7, [pc, #740]	; (1000264c <_vsnprintf+0x35c>)
10002368:	009b      	lsls	r3, r3, #2
1000236a:	58fb      	ldr	r3, [r7, r3]
1000236c:	469f      	mov	pc, r3
1000236e:	0003      	movs	r3, r0
10002370:	3b30      	subs	r3, #48	; 0x30
10002372:	2b09      	cmp	r3, #9
10002374:	d93c      	bls.n	100023f0 <_vsnprintf+0x100>
10002376:	2300      	movs	r3, #0
10002378:	930a      	str	r3, [sp, #40]	; 0x28
1000237a:	282a      	cmp	r0, #42	; 0x2a
1000237c:	d100      	bne.n	10002380 <_vsnprintf+0x90>
1000237e:	e071      	b.n	10002464 <_vsnprintf+0x174>
10002380:	2300      	movs	r3, #0
10002382:	4698      	mov	r8, r3
10002384:	282e      	cmp	r0, #46	; 0x2e
10002386:	d047      	beq.n	10002418 <_vsnprintf+0x128>
10002388:	0003      	movs	r3, r0
1000238a:	3b68      	subs	r3, #104	; 0x68
1000238c:	b2db      	uxtb	r3, r3
1000238e:	2b12      	cmp	r3, #18
10002390:	d81f      	bhi.n	100023d2 <_vsnprintf+0xe2>
10002392:	4aaf      	ldr	r2, [pc, #700]	; (10002650 <_vsnprintf+0x360>)
10002394:	009b      	lsls	r3, r3, #2
10002396:	58d3      	ldr	r3, [r2, r3]
10002398:	469f      	mov	pc, r3
1000239a:	2301      	movs	r3, #1
1000239c:	3201      	adds	r2, #1
1000239e:	4319      	orrs	r1, r3
100023a0:	e7da      	b.n	10002358 <_vsnprintf+0x68>
100023a2:	4663      	mov	r3, ip
100023a4:	3201      	adds	r2, #1
100023a6:	4319      	orrs	r1, r3
100023a8:	e7d6      	b.n	10002358 <_vsnprintf+0x68>
100023aa:	4643      	mov	r3, r8
100023ac:	3201      	adds	r2, #1
100023ae:	4319      	orrs	r1, r3
100023b0:	e7d2      	b.n	10002358 <_vsnprintf+0x68>
100023b2:	4653      	mov	r3, sl
100023b4:	3201      	adds	r2, #1
100023b6:	4319      	orrs	r1, r3
100023b8:	e7ce      	b.n	10002358 <_vsnprintf+0x68>
100023ba:	464b      	mov	r3, r9
100023bc:	3201      	adds	r2, #1
100023be:	4319      	orrs	r1, r3
100023c0:	e7ca      	b.n	10002358 <_vsnprintf+0x68>
100023c2:	7870      	ldrb	r0, [r6, #1]
100023c4:	286c      	cmp	r0, #108	; 0x6c
100023c6:	d100      	bne.n	100023ca <_vsnprintf+0xda>
100023c8:	e2bf      	b.n	1000294a <_vsnprintf+0x65a>
100023ca:	2380      	movs	r3, #128	; 0x80
100023cc:	005b      	lsls	r3, r3, #1
100023ce:	4319      	orrs	r1, r3
100023d0:	3601      	adds	r6, #1
100023d2:	0003      	movs	r3, r0
100023d4:	3b25      	subs	r3, #37	; 0x25
100023d6:	b2db      	uxtb	r3, r3
100023d8:	2b53      	cmp	r3, #83	; 0x53
100023da:	d8a6      	bhi.n	1000232a <_vsnprintf+0x3a>
100023dc:	4a9d      	ldr	r2, [pc, #628]	; (10002654 <_vsnprintf+0x364>)
100023de:	009b      	lsls	r3, r3, #2
100023e0:	58d3      	ldr	r3, [r2, r3]
100023e2:	469f      	mov	pc, r3
100023e4:	2380      	movs	r3, #128	; 0x80
100023e6:	005b      	lsls	r3, r3, #1
100023e8:	7870      	ldrb	r0, [r6, #1]
100023ea:	4319      	orrs	r1, r3
100023ec:	3601      	adds	r6, #1
100023ee:	e7f0      	b.n	100023d2 <_vsnprintf+0xe2>
100023f0:	2700      	movs	r7, #0
100023f2:	0003      	movs	r3, r0
100023f4:	00b8      	lsls	r0, r7, #2
100023f6:	19c0      	adds	r0, r0, r7
100023f8:	3601      	adds	r6, #1
100023fa:	0040      	lsls	r0, r0, #1
100023fc:	18c0      	adds	r0, r0, r3
100023fe:	7833      	ldrb	r3, [r6, #0]
10002400:	3830      	subs	r0, #48	; 0x30
10002402:	001a      	movs	r2, r3
10002404:	3a30      	subs	r2, #48	; 0x30
10002406:	0007      	movs	r7, r0
10002408:	2a09      	cmp	r2, #9
1000240a:	d9f3      	bls.n	100023f4 <_vsnprintf+0x104>
1000240c:	900a      	str	r0, [sp, #40]	; 0x28
1000240e:	0018      	movs	r0, r3
10002410:	2300      	movs	r3, #0
10002412:	4698      	mov	r8, r3
10002414:	282e      	cmp	r0, #46	; 0x2e
10002416:	d1b7      	bne.n	10002388 <_vsnprintf+0x98>
10002418:	2380      	movs	r3, #128	; 0x80
1000241a:	7870      	ldrb	r0, [r6, #1]
1000241c:	00db      	lsls	r3, r3, #3
1000241e:	4319      	orrs	r1, r3
10002420:	0003      	movs	r3, r0
10002422:	3b30      	subs	r3, #48	; 0x30
10002424:	1c72      	adds	r2, r6, #1
10002426:	2b09      	cmp	r3, #9
10002428:	d800      	bhi.n	1000242c <_vsnprintf+0x13c>
1000242a:	e195      	b.n	10002758 <_vsnprintf+0x468>
1000242c:	282a      	cmp	r0, #42	; 0x2a
1000242e:	d100      	bne.n	10002432 <_vsnprintf+0x142>
10002430:	e1a6      	b.n	10002780 <_vsnprintf+0x490>
10002432:	0016      	movs	r6, r2
10002434:	e7a8      	b.n	10002388 <_vsnprintf+0x98>
10002436:	46a1      	mov	r9, r4
10002438:	46aa      	mov	sl, r5
1000243a:	002c      	movs	r4, r5
1000243c:	45d3      	cmp	fp, sl
1000243e:	d803      	bhi.n	10002448 <_vsnprintf+0x158>
10002440:	2301      	movs	r3, #1
10002442:	425b      	negs	r3, r3
10002444:	445b      	add	r3, fp
10002446:	469a      	mov	sl, r3
10002448:	465b      	mov	r3, fp
1000244a:	4652      	mov	r2, sl
1000244c:	4649      	mov	r1, r9
1000244e:	2000      	movs	r0, #0
10002450:	9d08      	ldr	r5, [sp, #32]
10002452:	47a8      	blx	r5
10002454:	0020      	movs	r0, r4
10002456:	b01f      	add	sp, #124	; 0x7c
10002458:	bc3c      	pop	{r2, r3, r4, r5}
1000245a:	4690      	mov	r8, r2
1000245c:	4699      	mov	r9, r3
1000245e:	46a2      	mov	sl, r4
10002460:	46ab      	mov	fp, r5
10002462:	bdf0      	pop	{r4, r5, r6, r7, pc}
10002464:	9b09      	ldr	r3, [sp, #36]	; 0x24
10002466:	cb40      	ldmia	r3!, {r6}
10002468:	960a      	str	r6, [sp, #40]	; 0x28
1000246a:	2e00      	cmp	r6, #0
1000246c:	db03      	blt.n	10002476 <_vsnprintf+0x186>
1000246e:	7850      	ldrb	r0, [r2, #1]
10002470:	9309      	str	r3, [sp, #36]	; 0x24
10002472:	1c56      	adds	r6, r2, #1
10002474:	e784      	b.n	10002380 <_vsnprintf+0x90>
10002476:	3828      	subs	r0, #40	; 0x28
10002478:	4301      	orrs	r1, r0
1000247a:	4270      	negs	r0, r6
1000247c:	900a      	str	r0, [sp, #40]	; 0x28
1000247e:	9309      	str	r3, [sp, #36]	; 0x24
10002480:	7850      	ldrb	r0, [r2, #1]
10002482:	1c56      	adds	r6, r2, #1
10002484:	e77c      	b.n	10002380 <_vsnprintf+0x90>
10002486:	2878      	cmp	r0, #120	; 0x78
10002488:	d100      	bne.n	1000248c <_vsnprintf+0x19c>
1000248a:	e1d4      	b.n	10002836 <_vsnprintf+0x546>
1000248c:	2858      	cmp	r0, #88	; 0x58
1000248e:	d100      	bne.n	10002492 <_vsnprintf+0x1a2>
10002490:	e268      	b.n	10002964 <_vsnprintf+0x674>
10002492:	286f      	cmp	r0, #111	; 0x6f
10002494:	d100      	bne.n	10002498 <_vsnprintf+0x1a8>
10002496:	e352      	b.n	10002b3e <_vsnprintf+0x84e>
10002498:	2862      	cmp	r0, #98	; 0x62
1000249a:	d100      	bne.n	1000249e <_vsnprintf+0x1ae>
1000249c:	e1d8      	b.n	10002850 <_vsnprintf+0x560>
1000249e:	2310      	movs	r3, #16
100024a0:	000a      	movs	r2, r1
100024a2:	439a      	bics	r2, r3
100024a4:	920b      	str	r2, [sp, #44]	; 0x2c
100024a6:	2869      	cmp	r0, #105	; 0x69
100024a8:	d001      	beq.n	100024ae <_vsnprintf+0x1be>
100024aa:	f000 fca2 	bl	10002df2 <_vsnprintf+0xb02>
100024ae:	230a      	movs	r3, #10
100024b0:	930c      	str	r3, [sp, #48]	; 0x30
100024b2:	054b      	lsls	r3, r1, #21
100024b4:	d400      	bmi.n	100024b8 <_vsnprintf+0x1c8>
100024b6:	e1d5      	b.n	10002864 <_vsnprintf+0x574>
100024b8:	2301      	movs	r3, #1
100024ba:	9a0b      	ldr	r2, [sp, #44]	; 0x2c
100024bc:	439a      	bics	r2, r3
100024be:	920b      	str	r2, [sp, #44]	; 0x2c
100024c0:	2869      	cmp	r0, #105	; 0x69
100024c2:	d100      	bne.n	100024c6 <_vsnprintf+0x1d6>
100024c4:	e1ce      	b.n	10002864 <_vsnprintf+0x574>
100024c6:	2864      	cmp	r0, #100	; 0x64
100024c8:	d100      	bne.n	100024cc <_vsnprintf+0x1dc>
100024ca:	e1cb      	b.n	10002864 <_vsnprintf+0x574>
100024cc:	9a0b      	ldr	r2, [sp, #44]	; 0x2c
100024ce:	2380      	movs	r3, #128	; 0x80
100024d0:	0011      	movs	r1, r2
100024d2:	009b      	lsls	r3, r3, #2
100024d4:	4019      	ands	r1, r3
100024d6:	468a      	mov	sl, r1
100024d8:	421a      	tst	r2, r3
100024da:	d000      	beq.n	100024de <_vsnprintf+0x1ee>
100024dc:	e332      	b.n	10002b44 <_vsnprintf+0x854>
100024de:	2380      	movs	r3, #128	; 0x80
100024e0:	0011      	movs	r1, r2
100024e2:	005b      	lsls	r3, r3, #1
100024e4:	4019      	ands	r1, r3
100024e6:	4689      	mov	r9, r1
100024e8:	421a      	tst	r2, r3
100024ea:	d001      	beq.n	100024f0 <_vsnprintf+0x200>
100024ec:	f000 fc02 	bl	10002cf4 <_vsnprintf+0xa04>
100024f0:	0013      	movs	r3, r2
100024f2:	065b      	lsls	r3, r3, #25
100024f4:	d500      	bpl.n	100024f8 <_vsnprintf+0x208>
100024f6:	e310      	b.n	10002b1a <_vsnprintf+0x82a>
100024f8:	9b0b      	ldr	r3, [sp, #44]	; 0x2c
100024fa:	061b      	lsls	r3, r3, #24
100024fc:	d401      	bmi.n	10002502 <_vsnprintf+0x212>
100024fe:	f000 fc6e 	bl	10002dde <_vsnprintf+0xaee>
10002502:	9b09      	ldr	r3, [sp, #36]	; 0x24
10002504:	cb04      	ldmia	r3!, {r2}
10002506:	0412      	lsls	r2, r2, #16
10002508:	0c12      	lsrs	r2, r2, #16
1000250a:	4692      	mov	sl, r2
1000250c:	9309      	str	r3, [sp, #36]	; 0x24
1000250e:	4653      	mov	r3, sl
10002510:	2b00      	cmp	r3, #0
10002512:	d000      	beq.n	10002516 <_vsnprintf+0x226>
10002514:	e364      	b.n	10002be0 <_vsnprintf+0x8f0>
10002516:	9a0b      	ldr	r2, [sp, #44]	; 0x2c
10002518:	3310      	adds	r3, #16
1000251a:	0011      	movs	r1, r2
1000251c:	4399      	bics	r1, r3
1000251e:	910b      	str	r1, [sp, #44]	; 0x2c
10002520:	0552      	lsls	r2, r2, #21
10002522:	d400      	bmi.n	10002526 <_vsnprintf+0x236>
10002524:	e35c      	b.n	10002be0 <_vsnprintf+0x8f0>
10002526:	2300      	movs	r3, #0
10002528:	4699      	mov	r9, r3
1000252a:	9b0b      	ldr	r3, [sp, #44]	; 0x2c
1000252c:	9306      	str	r3, [sp, #24]
1000252e:	9b0a      	ldr	r3, [sp, #40]	; 0x28
10002530:	9305      	str	r3, [sp, #20]
10002532:	4643      	mov	r3, r8
10002534:	9304      	str	r3, [sp, #16]
10002536:	9b0c      	ldr	r3, [sp, #48]	; 0x30
10002538:	9303      	str	r3, [sp, #12]
1000253a:	2300      	movs	r3, #0
1000253c:	e2de      	b.n	10002afc <_vsnprintf+0x80c>
1000253e:	7870      	ldrb	r0, [r6, #1]
10002540:	2868      	cmp	r0, #104	; 0x68
10002542:	d100      	bne.n	10002546 <_vsnprintf+0x256>
10002544:	e207      	b.n	10002956 <_vsnprintf+0x666>
10002546:	2380      	movs	r3, #128	; 0x80
10002548:	3601      	adds	r6, #1
1000254a:	4319      	orrs	r1, r3
1000254c:	e741      	b.n	100023d2 <_vsnprintf+0xe2>
1000254e:	2380      	movs	r3, #128	; 0x80
10002550:	009b      	lsls	r3, r3, #2
10002552:	7870      	ldrb	r0, [r6, #1]
10002554:	4319      	orrs	r1, r3
10002556:	3601      	adds	r6, #1
10002558:	e73b      	b.n	100023d2 <_vsnprintf+0xe2>
1000255a:	2846      	cmp	r0, #70	; 0x46
1000255c:	d100      	bne.n	10002560 <_vsnprintf+0x270>
1000255e:	e174      	b.n	1000284a <_vsnprintf+0x55a>
10002560:	2207      	movs	r2, #7
10002562:	9b09      	ldr	r3, [sp, #36]	; 0x24
10002564:	9104      	str	r1, [sp, #16]
10002566:	3307      	adds	r3, #7
10002568:	4393      	bics	r3, r2
1000256a:	9a0a      	ldr	r2, [sp, #40]	; 0x28
1000256c:	0019      	movs	r1, r3
1000256e:	9203      	str	r2, [sp, #12]
10002570:	4642      	mov	r2, r8
10002572:	9202      	str	r2, [sp, #8]
10002574:	c90c      	ldmia	r1!, {r2, r3}
10002576:	9808      	ldr	r0, [sp, #32]
10002578:	9200      	str	r2, [sp, #0]
1000257a:	9301      	str	r3, [sp, #4]
1000257c:	9109      	str	r1, [sp, #36]	; 0x24
1000257e:	002a      	movs	r2, r5
10002580:	465b      	mov	r3, fp
10002582:	0021      	movs	r1, r4
10002584:	f7ff fcc4 	bl	10001f10 <_ftoa>
10002588:	3601      	adds	r6, #1
1000258a:	0005      	movs	r5, r0
1000258c:	e6d5      	b.n	1000233a <_vsnprintf+0x4a>
1000258e:	9b09      	ldr	r3, [sp, #36]	; 0x24
10002590:	001a      	movs	r2, r3
10002592:	ca08      	ldmia	r2!, {r3}
10002594:	4691      	mov	r9, r2
10002596:	2b00      	cmp	r3, #0
10002598:	d100      	bne.n	1000259c <_vsnprintf+0x2ac>
1000259a:	e105      	b.n	100027a8 <_vsnprintf+0x4b8>
1000259c:	2221      	movs	r2, #33	; 0x21
1000259e:	4311      	orrs	r1, r2
100025a0:	468a      	mov	sl, r1
100025a2:	a80e      	add	r0, sp, #56	; 0x38
100025a4:	4684      	mov	ip, r0
100025a6:	211f      	movs	r1, #31
100025a8:	4461      	add	r1, ip
100025aa:	9509      	str	r5, [sp, #36]	; 0x24
100025ac:	2200      	movs	r2, #0
100025ae:	270f      	movs	r7, #15
100025b0:	46a4      	mov	ip, r4
100025b2:	000d      	movs	r5, r1
100025b4:	e002      	b.n	100025bc <_vsnprintf+0x2cc>
100025b6:	2a20      	cmp	r2, #32
100025b8:	d00c      	beq.n	100025d4 <_vsnprintf+0x2e4>
100025ba:	000b      	movs	r3, r1
100025bc:	003c      	movs	r4, r7
100025be:	401c      	ands	r4, r3
100025c0:	0020      	movs	r0, r4
100025c2:	3037      	adds	r0, #55	; 0x37
100025c4:	2c09      	cmp	r4, #9
100025c6:	d800      	bhi.n	100025ca <_vsnprintf+0x2da>
100025c8:	3807      	subs	r0, #7
100025ca:	3201      	adds	r2, #1
100025cc:	54a8      	strb	r0, [r5, r2]
100025ce:	0919      	lsrs	r1, r3, #4
100025d0:	2b0f      	cmp	r3, #15
100025d2:	d8f0      	bhi.n	100025b6 <_vsnprintf+0x2c6>
100025d4:	4664      	mov	r4, ip
100025d6:	9d09      	ldr	r5, [sp, #36]	; 0x24
100025d8:	e0f0      	b.n	100027bc <_vsnprintf+0x4cc>
100025da:	078b      	lsls	r3, r1, #30
100025dc:	d400      	bmi.n	100025e0 <_vsnprintf+0x2f0>
100025de:	e1d1      	b.n	10002984 <_vsnprintf+0x694>
100025e0:	9b09      	ldr	r3, [sp, #36]	; 0x24
100025e2:	002a      	movs	r2, r5
100025e4:	4699      	mov	r9, r3
100025e6:	1c6b      	adds	r3, r5, #1
100025e8:	4698      	mov	r8, r3
100025ea:	464b      	mov	r3, r9
100025ec:	cb01      	ldmia	r3!, {r0}
100025ee:	0021      	movs	r1, r4
100025f0:	4699      	mov	r9, r3
100025f2:	9f08      	ldr	r7, [sp, #32]
100025f4:	465b      	mov	r3, fp
100025f6:	b2c0      	uxtb	r0, r0
100025f8:	47b8      	blx	r7
100025fa:	9b0a      	ldr	r3, [sp, #40]	; 0x28
100025fc:	469c      	mov	ip, r3
100025fe:	4465      	add	r5, ip
10002600:	2b01      	cmp	r3, #1
10002602:	d800      	bhi.n	10002606 <_vsnprintf+0x316>
10002604:	e290      	b.n	10002b28 <_vsnprintf+0x838>
10002606:	46b2      	mov	sl, r6
10002608:	465e      	mov	r6, fp
1000260a:	4647      	mov	r7, r8
1000260c:	46a8      	mov	r8, r5
1000260e:	9d08      	ldr	r5, [sp, #32]
10002610:	003a      	movs	r2, r7
10002612:	0033      	movs	r3, r6
10002614:	3701      	adds	r7, #1
10002616:	0021      	movs	r1, r4
10002618:	2020      	movs	r0, #32
1000261a:	47a8      	blx	r5
1000261c:	4547      	cmp	r7, r8
1000261e:	d1f7      	bne.n	10002610 <_vsnprintf+0x320>
10002620:	46b3      	mov	fp, r6
10002622:	464b      	mov	r3, r9
10002624:	4656      	mov	r6, sl
10002626:	003d      	movs	r5, r7
10002628:	9309      	str	r3, [sp, #36]	; 0x24
1000262a:	3601      	adds	r6, #1
1000262c:	e685      	b.n	1000233a <_vsnprintf+0x4a>
1000262e:	002a      	movs	r2, r5
10002630:	1c6f      	adds	r7, r5, #1
10002632:	465b      	mov	r3, fp
10002634:	9d08      	ldr	r5, [sp, #32]
10002636:	0021      	movs	r1, r4
10002638:	2025      	movs	r0, #37	; 0x25
1000263a:	47a8      	blx	r5
1000263c:	3601      	adds	r6, #1
1000263e:	003d      	movs	r5, r7
10002640:	e67b      	b.n	1000233a <_vsnprintf+0x4a>
10002642:	46c0      	nop			; (mov r8, r8)
10002644:	100022f1 	.word	0x100022f1
10002648:	20000b04 	.word	0x20000b04
1000264c:	10004be4 	.word	0x10004be4
10002650:	10004c28 	.word	0x10004c28
10002654:	10004c74 	.word	0x10004c74
10002658:	9b09      	ldr	r3, [sp, #36]	; 0x24
1000265a:	cb04      	ldmia	r3!, {r2}
1000265c:	4699      	mov	r9, r3
1000265e:	4643      	mov	r3, r8
10002660:	9209      	str	r2, [sp, #36]	; 0x24
10002662:	2b00      	cmp	r3, #0
10002664:	d000      	beq.n	10002668 <_vsnprintf+0x378>
10002666:	e097      	b.n	10002798 <_vsnprintf+0x4a8>
10002668:	7813      	ldrb	r3, [r2, #0]
1000266a:	469c      	mov	ip, r3
1000266c:	2b00      	cmp	r3, #0
1000266e:	d100      	bne.n	10002672 <_vsnprintf+0x382>
10002670:	e3b3      	b.n	10002dda <_vsnprintf+0xaea>
10002672:	2302      	movs	r3, #2
10002674:	425b      	negs	r3, r3
10002676:	1c5a      	adds	r2, r3, #1
10002678:	9b09      	ldr	r3, [sp, #36]	; 0x24
1000267a:	4692      	mov	sl, r2
1000267c:	0018      	movs	r0, r3
1000267e:	9f0a      	ldr	r7, [sp, #40]	; 0x28
10002680:	920b      	str	r2, [sp, #44]	; 0x2c
10002682:	4450      	add	r0, sl
10002684:	e002      	b.n	1000268c <_vsnprintf+0x39c>
10002686:	4283      	cmp	r3, r0
10002688:	d100      	bne.n	1000268c <_vsnprintf+0x39c>
1000268a:	e169      	b.n	10002960 <_vsnprintf+0x670>
1000268c:	785a      	ldrb	r2, [r3, #1]
1000268e:	3301      	adds	r3, #1
10002690:	2a00      	cmp	r2, #0
10002692:	d1f8      	bne.n	10002686 <_vsnprintf+0x396>
10002694:	9a09      	ldr	r2, [sp, #36]	; 0x24
10002696:	970a      	str	r7, [sp, #40]	; 0x28
10002698:	1a9b      	subs	r3, r3, r2
1000269a:	930b      	str	r3, [sp, #44]	; 0x2c
1000269c:	2380      	movs	r3, #128	; 0x80
1000269e:	000a      	movs	r2, r1
100026a0:	00db      	lsls	r3, r3, #3
100026a2:	401a      	ands	r2, r3
100026a4:	920c      	str	r2, [sp, #48]	; 0x30
100026a6:	4219      	tst	r1, r3
100026a8:	d004      	beq.n	100026b4 <_vsnprintf+0x3c4>
100026aa:	9b0b      	ldr	r3, [sp, #44]	; 0x2c
100026ac:	4543      	cmp	r3, r8
100026ae:	d901      	bls.n	100026b4 <_vsnprintf+0x3c4>
100026b0:	4643      	mov	r3, r8
100026b2:	930b      	str	r3, [sp, #44]	; 0x2c
100026b4:	2302      	movs	r3, #2
100026b6:	001a      	movs	r2, r3
100026b8:	400a      	ands	r2, r1
100026ba:	920d      	str	r2, [sp, #52]	; 0x34
100026bc:	420b      	tst	r3, r1
100026be:	d100      	bne.n	100026c2 <_vsnprintf+0x3d2>
100026c0:	e184      	b.n	100029cc <_vsnprintf+0x6dc>
100026c2:	4660      	mov	r0, ip
100026c4:	2800      	cmp	r0, #0
100026c6:	d023      	beq.n	10002710 <_vsnprintf+0x420>
100026c8:	9b0c      	ldr	r3, [sp, #48]	; 0x30
100026ca:	2b00      	cmp	r3, #0
100026cc:	d100      	bne.n	100026d0 <_vsnprintf+0x3e0>
100026ce:	e124      	b.n	1000291a <_vsnprintf+0x62a>
100026d0:	44a8      	add	r8, r5
100026d2:	46c2      	mov	sl, r8
100026d4:	9b09      	ldr	r3, [sp, #36]	; 0x24
100026d6:	4657      	mov	r7, sl
100026d8:	1b5b      	subs	r3, r3, r5
100026da:	4698      	mov	r8, r3
100026dc:	9b08      	ldr	r3, [sp, #32]
100026de:	46b2      	mov	sl, r6
100026e0:	002a      	movs	r2, r5
100026e2:	0026      	movs	r6, r4
100026e4:	465c      	mov	r4, fp
100026e6:	469b      	mov	fp, r3
100026e8:	e009      	b.n	100026fe <_vsnprintf+0x40e>
100026ea:	0023      	movs	r3, r4
100026ec:	0031      	movs	r1, r6
100026ee:	1c55      	adds	r5, r2, #1
100026f0:	47d8      	blx	fp
100026f2:	4643      	mov	r3, r8
100026f4:	5d58      	ldrb	r0, [r3, r5]
100026f6:	2800      	cmp	r0, #0
100026f8:	d100      	bne.n	100026fc <_vsnprintf+0x40c>
100026fa:	e13f      	b.n	1000297c <_vsnprintf+0x68c>
100026fc:	002a      	movs	r2, r5
100026fe:	4297      	cmp	r7, r2
10002700:	d1f3      	bne.n	100026ea <_vsnprintf+0x3fa>
10002702:	46a3      	mov	fp, r4
10002704:	003d      	movs	r5, r7
10002706:	0034      	movs	r4, r6
10002708:	4656      	mov	r6, sl
1000270a:	9b0d      	ldr	r3, [sp, #52]	; 0x34
1000270c:	2b00      	cmp	r3, #0
1000270e:	d069      	beq.n	100027e4 <_vsnprintf+0x4f4>
10002710:	9b0b      	ldr	r3, [sp, #44]	; 0x2c
10002712:	990a      	ldr	r1, [sp, #40]	; 0x28
10002714:	46a8      	mov	r8, r5
10002716:	4299      	cmp	r1, r3
10002718:	d964      	bls.n	100027e4 <_vsnprintf+0x4f4>
1000271a:	468c      	mov	ip, r1
1000271c:	4465      	add	r5, ip
1000271e:	1aed      	subs	r5, r5, r3
10002720:	9b08      	ldr	r3, [sp, #32]
10002722:	4647      	mov	r7, r8
10002724:	469a      	mov	sl, r3
10002726:	46b0      	mov	r8, r6
10002728:	0026      	movs	r6, r4
1000272a:	465c      	mov	r4, fp
1000272c:	003a      	movs	r2, r7
1000272e:	0023      	movs	r3, r4
10002730:	3701      	adds	r7, #1
10002732:	0031      	movs	r1, r6
10002734:	2020      	movs	r0, #32
10002736:	47d0      	blx	sl
10002738:	42af      	cmp	r7, r5
1000273a:	d1f7      	bne.n	1000272c <_vsnprintf+0x43c>
1000273c:	46a3      	mov	fp, r4
1000273e:	0034      	movs	r4, r6
10002740:	4646      	mov	r6, r8
10002742:	e04f      	b.n	100027e4 <_vsnprintf+0x4f4>
10002744:	4bd2      	ldr	r3, [pc, #840]	; (10002a90 <_vsnprintf+0x7a0>)
10002746:	7820      	ldrb	r0, [r4, #0]
10002748:	9308      	str	r3, [sp, #32]
1000274a:	2300      	movs	r3, #0
1000274c:	469a      	mov	sl, r3
1000274e:	2800      	cmp	r0, #0
10002750:	d000      	beq.n	10002754 <_vsnprintf+0x464>
10002752:	e5e6      	b.n	10002322 <_vsnprintf+0x32>
10002754:	2400      	movs	r4, #0
10002756:	e671      	b.n	1000243c <_vsnprintf+0x14c>
10002758:	4643      	mov	r3, r8
1000275a:	0006      	movs	r6, r0
1000275c:	9f0a      	ldr	r7, [sp, #40]	; 0x28
1000275e:	0098      	lsls	r0, r3, #2
10002760:	18c0      	adds	r0, r0, r3
10002762:	3201      	adds	r2, #1
10002764:	0040      	lsls	r0, r0, #1
10002766:	1980      	adds	r0, r0, r6
10002768:	7816      	ldrb	r6, [r2, #0]
1000276a:	0003      	movs	r3, r0
1000276c:	0030      	movs	r0, r6
1000276e:	3830      	subs	r0, #48	; 0x30
10002770:	3b30      	subs	r3, #48	; 0x30
10002772:	2809      	cmp	r0, #9
10002774:	d9f3      	bls.n	1000275e <_vsnprintf+0x46e>
10002776:	0030      	movs	r0, r6
10002778:	4698      	mov	r8, r3
1000277a:	0016      	movs	r6, r2
1000277c:	970a      	str	r7, [sp, #40]	; 0x28
1000277e:	e603      	b.n	10002388 <_vsnprintf+0x98>
10002780:	9b09      	ldr	r3, [sp, #36]	; 0x24
10002782:	3602      	adds	r6, #2
10002784:	cb04      	ldmia	r3!, {r2}
10002786:	4690      	mov	r8, r2
10002788:	43d2      	mvns	r2, r2
1000278a:	4640      	mov	r0, r8
1000278c:	17d2      	asrs	r2, r2, #31
1000278e:	4010      	ands	r0, r2
10002790:	4680      	mov	r8, r0
10002792:	9309      	str	r3, [sp, #36]	; 0x24
10002794:	7830      	ldrb	r0, [r6, #0]
10002796:	e5f7      	b.n	10002388 <_vsnprintf+0x98>
10002798:	7813      	ldrb	r3, [r2, #0]
1000279a:	469c      	mov	ip, r3
1000279c:	2b00      	cmp	r3, #0
1000279e:	d100      	bne.n	100027a2 <_vsnprintf+0x4b2>
100027a0:	e31a      	b.n	10002dd8 <_vsnprintf+0xae8>
100027a2:	4643      	mov	r3, r8
100027a4:	3b01      	subs	r3, #1
100027a6:	e766      	b.n	10002676 <_vsnprintf+0x386>
100027a8:	2210      	movs	r2, #16
100027aa:	0008      	movs	r0, r1
100027ac:	4390      	bics	r0, r2
100027ae:	3211      	adds	r2, #17
100027b0:	4310      	orrs	r0, r2
100027b2:	4682      	mov	sl, r0
100027b4:	2200      	movs	r2, #0
100027b6:	0549      	lsls	r1, r1, #21
100027b8:	d400      	bmi.n	100027bc <_vsnprintf+0x4cc>
100027ba:	e6f2      	b.n	100025a2 <_vsnprintf+0x2b2>
100027bc:	4653      	mov	r3, sl
100027be:	9306      	str	r3, [sp, #24]
100027c0:	2308      	movs	r3, #8
100027c2:	9305      	str	r3, [sp, #20]
100027c4:	4643      	mov	r3, r8
100027c6:	9304      	str	r3, [sp, #16]
100027c8:	2310      	movs	r3, #16
100027ca:	9303      	str	r3, [sp, #12]
100027cc:	2300      	movs	r3, #0
100027ce:	9302      	str	r3, [sp, #8]
100027d0:	ab16      	add	r3, sp, #88	; 0x58
100027d2:	9201      	str	r2, [sp, #4]
100027d4:	9300      	str	r3, [sp, #0]
100027d6:	002a      	movs	r2, r5
100027d8:	465b      	mov	r3, fp
100027da:	0021      	movs	r1, r4
100027dc:	9808      	ldr	r0, [sp, #32]
100027de:	f7ff f879 	bl	100018d4 <_ntoa_format>
100027e2:	0005      	movs	r5, r0
100027e4:	464b      	mov	r3, r9
100027e6:	3601      	adds	r6, #1
100027e8:	9309      	str	r3, [sp, #36]	; 0x24
100027ea:	e5a6      	b.n	1000233a <_vsnprintf+0x4a>
100027ec:	2320      	movs	r3, #32
100027ee:	0002      	movs	r2, r0
100027f0:	439a      	bics	r2, r3
100027f2:	2a47      	cmp	r2, #71	; 0x47
100027f4:	d104      	bne.n	10002800 <_vsnprintf+0x510>
100027f6:	2380      	movs	r3, #128	; 0x80
100027f8:	011b      	lsls	r3, r3, #4
100027fa:	4319      	orrs	r1, r3
100027fc:	2302      	movs	r3, #2
100027fe:	4398      	bics	r0, r3
10002800:	2845      	cmp	r0, #69	; 0x45
10002802:	d101      	bne.n	10002808 <_vsnprintf+0x518>
10002804:	2320      	movs	r3, #32
10002806:	4319      	orrs	r1, r3
10002808:	2207      	movs	r2, #7
1000280a:	9b09      	ldr	r3, [sp, #36]	; 0x24
1000280c:	9104      	str	r1, [sp, #16]
1000280e:	3307      	adds	r3, #7
10002810:	4393      	bics	r3, r2
10002812:	9a0a      	ldr	r2, [sp, #40]	; 0x28
10002814:	0019      	movs	r1, r3
10002816:	9203      	str	r2, [sp, #12]
10002818:	4642      	mov	r2, r8
1000281a:	9202      	str	r2, [sp, #8]
1000281c:	c90c      	ldmia	r1!, {r2, r3}
1000281e:	9808      	ldr	r0, [sp, #32]
10002820:	9200      	str	r2, [sp, #0]
10002822:	9301      	str	r3, [sp, #4]
10002824:	9109      	str	r1, [sp, #36]	; 0x24
10002826:	002a      	movs	r2, r5
10002828:	465b      	mov	r3, fp
1000282a:	0021      	movs	r1, r4
1000282c:	f7ff f94a 	bl	10001ac4 <_etoa>
10002830:	3601      	adds	r6, #1
10002832:	0005      	movs	r5, r0
10002834:	e581      	b.n	1000233a <_vsnprintf+0x4a>
10002836:	2310      	movs	r3, #16
10002838:	930c      	str	r3, [sp, #48]	; 0x30
1000283a:	230c      	movs	r3, #12
1000283c:	000a      	movs	r2, r1
1000283e:	439a      	bics	r2, r3
10002840:	920b      	str	r2, [sp, #44]	; 0x2c
10002842:	054b      	lsls	r3, r1, #21
10002844:	d400      	bmi.n	10002848 <_vsnprintf+0x558>
10002846:	e63b      	b.n	100024c0 <_vsnprintf+0x1d0>
10002848:	e636      	b.n	100024b8 <_vsnprintf+0x1c8>
1000284a:	2320      	movs	r3, #32
1000284c:	4319      	orrs	r1, r3
1000284e:	e687      	b.n	10002560 <_vsnprintf+0x270>
10002850:	2302      	movs	r3, #2
10002852:	930c      	str	r3, [sp, #48]	; 0x30
10002854:	910b      	str	r1, [sp, #44]	; 0x2c
10002856:	990b      	ldr	r1, [sp, #44]	; 0x2c
10002858:	2864      	cmp	r0, #100	; 0x64
1000285a:	d1ee      	bne.n	1000283a <_vsnprintf+0x54a>
1000285c:	9b0b      	ldr	r3, [sp, #44]	; 0x2c
1000285e:	055b      	lsls	r3, r3, #21
10002860:	d500      	bpl.n	10002864 <_vsnprintf+0x574>
10002862:	e629      	b.n	100024b8 <_vsnprintf+0x1c8>
10002864:	9a0b      	ldr	r2, [sp, #44]	; 0x2c
10002866:	2380      	movs	r3, #128	; 0x80
10002868:	0011      	movs	r1, r2
1000286a:	009b      	lsls	r3, r3, #2
1000286c:	4019      	ands	r1, r3
1000286e:	468a      	mov	sl, r1
10002870:	421a      	tst	r2, r3
10002872:	d000      	beq.n	10002876 <_vsnprintf+0x586>
10002874:	e0ce      	b.n	10002a14 <_vsnprintf+0x724>
10002876:	2380      	movs	r3, #128	; 0x80
10002878:	0011      	movs	r1, r2
1000287a:	005b      	lsls	r3, r3, #1
1000287c:	4019      	ands	r1, r3
1000287e:	4689      	mov	r9, r1
10002880:	421a      	tst	r2, r3
10002882:	d000      	beq.n	10002886 <_vsnprintf+0x596>
10002884:	e1db      	b.n	10002c3e <_vsnprintf+0x94e>
10002886:	0013      	movs	r3, r2
10002888:	065b      	lsls	r3, r3, #25
1000288a:	d500      	bpl.n	1000288e <_vsnprintf+0x59e>
1000288c:	e11d      	b.n	10002aca <_vsnprintf+0x7da>
1000288e:	9b0b      	ldr	r3, [sp, #44]	; 0x2c
10002890:	9909      	ldr	r1, [sp, #36]	; 0x24
10002892:	061b      	lsls	r3, r3, #24
10002894:	d400      	bmi.n	10002898 <_vsnprintf+0x5a8>
10002896:	e299      	b.n	10002dcc <_vsnprintf+0xadc>
10002898:	c908      	ldmia	r1!, {r3}
1000289a:	b21b      	sxth	r3, r3
1000289c:	17d8      	asrs	r0, r3, #31
1000289e:	181a      	adds	r2, r3, r0
100028a0:	4042      	eors	r2, r0
100028a2:	b292      	uxth	r2, r2
100028a4:	9109      	str	r1, [sp, #36]	; 0x24
100028a6:	4692      	mov	sl, r2
100028a8:	0fda      	lsrs	r2, r3, #31
100028aa:	9212      	str	r2, [sp, #72]	; 0x48
100028ac:	2b00      	cmp	r3, #0
100028ae:	d109      	bne.n	100028c4 <_vsnprintf+0x5d4>
100028b0:	2380      	movs	r3, #128	; 0x80
100028b2:	2210      	movs	r2, #16
100028b4:	990b      	ldr	r1, [sp, #44]	; 0x2c
100028b6:	00db      	lsls	r3, r3, #3
100028b8:	400b      	ands	r3, r1
100028ba:	4391      	bics	r1, r2
100028bc:	910b      	str	r1, [sp, #44]	; 0x2c
100028be:	2b00      	cmp	r3, #0
100028c0:	d000      	beq.n	100028c4 <_vsnprintf+0x5d4>
100028c2:	e112      	b.n	10002aea <_vsnprintf+0x7fa>
100028c4:	9a0b      	ldr	r2, [sp, #44]	; 0x2c
100028c6:	2361      	movs	r3, #97	; 0x61
100028c8:	0692      	lsls	r2, r2, #26
100028ca:	d500      	bpl.n	100028ce <_vsnprintf+0x5de>
100028cc:	2341      	movs	r3, #65	; 0x41
100028ce:	a90e      	add	r1, sp, #56	; 0x38
100028d0:	221f      	movs	r2, #31
100028d2:	468c      	mov	ip, r1
100028d4:	b2db      	uxtb	r3, r3
100028d6:	4462      	add	r2, ip
100028d8:	3b0a      	subs	r3, #10
100028da:	4657      	mov	r7, sl
100028dc:	9513      	str	r5, [sp, #76]	; 0x4c
100028de:	46a2      	mov	sl, r4
100028e0:	464d      	mov	r5, r9
100028e2:	9c0c      	ldr	r4, [sp, #48]	; 0x30
100028e4:	46b1      	mov	r9, r6
100028e6:	930d      	str	r3, [sp, #52]	; 0x34
100028e8:	0016      	movs	r6, r2
100028ea:	e00a      	b.n	10002902 <_vsnprintf+0x612>
100028ec:	3330      	adds	r3, #48	; 0x30
100028ee:	b2db      	uxtb	r3, r3
100028f0:	3501      	adds	r5, #1
100028f2:	5573      	strb	r3, [r6, r5]
100028f4:	42a7      	cmp	r7, r4
100028f6:	d200      	bcs.n	100028fa <_vsnprintf+0x60a>
100028f8:	e11c      	b.n	10002b34 <_vsnprintf+0x844>
100028fa:	2d20      	cmp	r5, #32
100028fc:	d100      	bne.n	10002900 <_vsnprintf+0x610>
100028fe:	e119      	b.n	10002b34 <_vsnprintf+0x844>
10002900:	0007      	movs	r7, r0
10002902:	0021      	movs	r1, r4
10002904:	0038      	movs	r0, r7
10002906:	f000 fb01 	bl	10002f0c <__wrap___aeabi_uidiv>
1000290a:	b2cb      	uxtb	r3, r1
1000290c:	2909      	cmp	r1, #9
1000290e:	d9ed      	bls.n	100028ec <_vsnprintf+0x5fc>
10002910:	9a0d      	ldr	r2, [sp, #52]	; 0x34
10002912:	4694      	mov	ip, r2
10002914:	4463      	add	r3, ip
10002916:	b2db      	uxtb	r3, r3
10002918:	e7ea      	b.n	100028f0 <_vsnprintf+0x600>
1000291a:	9b09      	ldr	r3, [sp, #36]	; 0x24
1000291c:	465f      	mov	r7, fp
1000291e:	1b5b      	subs	r3, r3, r5
10002920:	4698      	mov	r8, r3
10002922:	9b0a      	ldr	r3, [sp, #40]	; 0x28
10002924:	46b3      	mov	fp, r6
10002926:	469a      	mov	sl, r3
10002928:	0026      	movs	r6, r4
1000292a:	9c08      	ldr	r4, [sp, #32]
1000292c:	002a      	movs	r2, r5
1000292e:	003b      	movs	r3, r7
10002930:	0031      	movs	r1, r6
10002932:	47a0      	blx	r4
10002934:	4643      	mov	r3, r8
10002936:	3501      	adds	r5, #1
10002938:	5d58      	ldrb	r0, [r3, r5]
1000293a:	2800      	cmp	r0, #0
1000293c:	d1f6      	bne.n	1000292c <_vsnprintf+0x63c>
1000293e:	4653      	mov	r3, sl
10002940:	0034      	movs	r4, r6
10002942:	930a      	str	r3, [sp, #40]	; 0x28
10002944:	465e      	mov	r6, fp
10002946:	46bb      	mov	fp, r7
10002948:	e6df      	b.n	1000270a <_vsnprintf+0x41a>
1000294a:	23c0      	movs	r3, #192	; 0xc0
1000294c:	009b      	lsls	r3, r3, #2
1000294e:	78b0      	ldrb	r0, [r6, #2]
10002950:	4319      	orrs	r1, r3
10002952:	3602      	adds	r6, #2
10002954:	e53d      	b.n	100023d2 <_vsnprintf+0xe2>
10002956:	23c0      	movs	r3, #192	; 0xc0
10002958:	78b0      	ldrb	r0, [r6, #2]
1000295a:	4319      	orrs	r1, r3
1000295c:	3602      	adds	r6, #2
1000295e:	e538      	b.n	100023d2 <_vsnprintf+0xe2>
10002960:	970a      	str	r7, [sp, #40]	; 0x28
10002962:	e69b      	b.n	1000269c <_vsnprintf+0x3ac>
10002964:	230c      	movs	r3, #12
10002966:	000a      	movs	r2, r1
10002968:	439a      	bics	r2, r3
1000296a:	3314      	adds	r3, #20
1000296c:	431a      	orrs	r2, r3
1000296e:	2310      	movs	r3, #16
10002970:	920b      	str	r2, [sp, #44]	; 0x2c
10002972:	930c      	str	r3, [sp, #48]	; 0x30
10002974:	054b      	lsls	r3, r1, #21
10002976:	d400      	bmi.n	1000297a <_vsnprintf+0x68a>
10002978:	e5a8      	b.n	100024cc <_vsnprintf+0x1dc>
1000297a:	e59d      	b.n	100024b8 <_vsnprintf+0x1c8>
1000297c:	46a3      	mov	fp, r4
1000297e:	0034      	movs	r4, r6
10002980:	4656      	mov	r6, sl
10002982:	e6c2      	b.n	1000270a <_vsnprintf+0x41a>
10002984:	9a0a      	ldr	r2, [sp, #40]	; 0x28
10002986:	2a01      	cmp	r2, #1
10002988:	d800      	bhi.n	1000298c <_vsnprintf+0x69c>
1000298a:	e22e      	b.n	10002dea <_vsnprintf+0xafa>
1000298c:	1e6b      	subs	r3, r5, #1
1000298e:	189f      	adds	r7, r3, r2
10002990:	9b08      	ldr	r3, [sp, #32]
10002992:	46b0      	mov	r8, r6
10002994:	4699      	mov	r9, r3
10002996:	0026      	movs	r6, r4
10002998:	465c      	mov	r4, fp
1000299a:	002a      	movs	r2, r5
1000299c:	0023      	movs	r3, r4
1000299e:	3501      	adds	r5, #1
100029a0:	0031      	movs	r1, r6
100029a2:	2020      	movs	r0, #32
100029a4:	47c8      	blx	r9
100029a6:	42bd      	cmp	r5, r7
100029a8:	d1f7      	bne.n	1000299a <_vsnprintf+0x6aa>
100029aa:	46a3      	mov	fp, r4
100029ac:	0034      	movs	r4, r6
100029ae:	4646      	mov	r6, r8
100029b0:	9b09      	ldr	r3, [sp, #36]	; 0x24
100029b2:	003a      	movs	r2, r7
100029b4:	cb01      	ldmia	r3!, {r0}
100029b6:	0021      	movs	r1, r4
100029b8:	4698      	mov	r8, r3
100029ba:	1c7d      	adds	r5, r7, #1
100029bc:	465b      	mov	r3, fp
100029be:	9f08      	ldr	r7, [sp, #32]
100029c0:	b2c0      	uxtb	r0, r0
100029c2:	47b8      	blx	r7
100029c4:	4643      	mov	r3, r8
100029c6:	3601      	adds	r6, #1
100029c8:	9309      	str	r3, [sp, #36]	; 0x24
100029ca:	e4b6      	b.n	1000233a <_vsnprintf+0x4a>
100029cc:	9a0b      	ldr	r2, [sp, #44]	; 0x2c
100029ce:	980a      	ldr	r0, [sp, #40]	; 0x28
100029d0:	1c53      	adds	r3, r2, #1
100029d2:	4290      	cmp	r0, r2
100029d4:	d800      	bhi.n	100029d8 <_vsnprintf+0x6e8>
100029d6:	e20a      	b.n	10002dee <_vsnprintf+0xafe>
100029d8:	1943      	adds	r3, r0, r5
100029da:	1a9b      	subs	r3, r3, r2
100029dc:	001f      	movs	r7, r3
100029de:	9b08      	ldr	r3, [sp, #32]
100029e0:	46b2      	mov	sl, r6
100029e2:	0026      	movs	r6, r4
100029e4:	465c      	mov	r4, fp
100029e6:	469b      	mov	fp, r3
100029e8:	002a      	movs	r2, r5
100029ea:	0023      	movs	r3, r4
100029ec:	3501      	adds	r5, #1
100029ee:	0031      	movs	r1, r6
100029f0:	2020      	movs	r0, #32
100029f2:	47d8      	blx	fp
100029f4:	42bd      	cmp	r5, r7
100029f6:	d1f7      	bne.n	100029e8 <_vsnprintf+0x6f8>
100029f8:	9b0a      	ldr	r3, [sp, #40]	; 0x28
100029fa:	46a3      	mov	fp, r4
100029fc:	3301      	adds	r3, #1
100029fe:	930b      	str	r3, [sp, #44]	; 0x2c
10002a00:	9b09      	ldr	r3, [sp, #36]	; 0x24
10002a02:	0034      	movs	r4, r6
10002a04:	781b      	ldrb	r3, [r3, #0]
10002a06:	4656      	mov	r6, sl
10002a08:	469c      	mov	ip, r3
10002a0a:	4660      	mov	r0, ip
10002a0c:	2800      	cmp	r0, #0
10002a0e:	d000      	beq.n	10002a12 <_vsnprintf+0x722>
10002a10:	e65a      	b.n	100026c8 <_vsnprintf+0x3d8>
10002a12:	e6e7      	b.n	100027e4 <_vsnprintf+0x4f4>
10002a14:	2207      	movs	r2, #7
10002a16:	9b09      	ldr	r3, [sp, #36]	; 0x24
10002a18:	3307      	adds	r3, #7
10002a1a:	4393      	bics	r3, r2
10002a1c:	3201      	adds	r2, #1
10002a1e:	4694      	mov	ip, r2
10002a20:	449c      	add	ip, r3
10002a22:	4662      	mov	r2, ip
10002a24:	685f      	ldr	r7, [r3, #4]
10002a26:	9209      	str	r2, [sp, #36]	; 0x24
10002a28:	681a      	ldr	r2, [r3, #0]
10002a2a:	17fb      	asrs	r3, r7, #31
10002a2c:	9310      	str	r3, [sp, #64]	; 0x40
10002a2e:	9311      	str	r3, [sp, #68]	; 0x44
10002a30:	9810      	ldr	r0, [sp, #64]	; 0x40
10002a32:	9911      	ldr	r1, [sp, #68]	; 0x44
10002a34:	0003      	movs	r3, r0
10002a36:	4053      	eors	r3, r2
10002a38:	930e      	str	r3, [sp, #56]	; 0x38
10002a3a:	000b      	movs	r3, r1
10002a3c:	407b      	eors	r3, r7
10002a3e:	930f      	str	r3, [sp, #60]	; 0x3c
10002a40:	4694      	mov	ip, r2
10002a42:	9a0e      	ldr	r2, [sp, #56]	; 0x38
10002a44:	9b0f      	ldr	r3, [sp, #60]	; 0x3c
10002a46:	1a12      	subs	r2, r2, r0
10002a48:	418b      	sbcs	r3, r1
10002a4a:	920e      	str	r2, [sp, #56]	; 0x38
10002a4c:	930f      	str	r3, [sp, #60]	; 0x3c
10002a4e:	0ffb      	lsrs	r3, r7, #31
10002a50:	4662      	mov	r2, ip
10002a52:	9312      	str	r3, [sp, #72]	; 0x48
10002a54:	2300      	movs	r3, #0
10002a56:	433a      	orrs	r2, r7
10002a58:	469a      	mov	sl, r3
10002a5a:	d03d      	beq.n	10002ad8 <_vsnprintf+0x7e8>
10002a5c:	9a0b      	ldr	r2, [sp, #44]	; 0x2c
10002a5e:	2361      	movs	r3, #97	; 0x61
10002a60:	0692      	lsls	r2, r2, #26
10002a62:	d500      	bpl.n	10002a66 <_vsnprintf+0x776>
10002a64:	2341      	movs	r3, #65	; 0x41
10002a66:	2200      	movs	r2, #0
10002a68:	b2db      	uxtb	r3, r3
10002a6a:	a90e      	add	r1, sp, #56	; 0x38
10002a6c:	3b0a      	subs	r3, #10
10002a6e:	468c      	mov	ip, r1
10002a70:	4691      	mov	r9, r2
10002a72:	930d      	str	r3, [sp, #52]	; 0x34
10002a74:	4643      	mov	r3, r8
10002a76:	321f      	adds	r2, #31
10002a78:	4462      	add	r2, ip
10002a7a:	9513      	str	r5, [sp, #76]	; 0x4c
10002a7c:	9615      	str	r6, [sp, #84]	; 0x54
10002a7e:	464d      	mov	r5, r9
10002a80:	9e0e      	ldr	r6, [sp, #56]	; 0x38
10002a82:	9f0f      	ldr	r7, [sp, #60]	; 0x3c
10002a84:	46a1      	mov	r9, r4
10002a86:	4690      	mov	r8, r2
10002a88:	9c0c      	ldr	r4, [sp, #48]	; 0x30
10002a8a:	9314      	str	r3, [sp, #80]	; 0x50
10002a8c:	e00f      	b.n	10002aae <_vsnprintf+0x7be>
10002a8e:	46c0      	nop			; (mov r8, r8)
10002a90:	10001801 	.word	0x10001801
10002a94:	3230      	adds	r2, #48	; 0x30
10002a96:	b2d2      	uxtb	r2, r2
10002a98:	4643      	mov	r3, r8
10002a9a:	3501      	adds	r5, #1
10002a9c:	555a      	strb	r2, [r3, r5]
10002a9e:	45ba      	cmp	sl, r7
10002aa0:	d100      	bne.n	10002aa4 <_vsnprintf+0x7b4>
10002aa2:	e17c      	b.n	10002d9e <_vsnprintf+0xaae>
10002aa4:	2d20      	cmp	r5, #32
10002aa6:	d100      	bne.n	10002aaa <_vsnprintf+0x7ba>
10002aa8:	e17c      	b.n	10002da4 <_vsnprintf+0xab4>
10002aaa:	0006      	movs	r6, r0
10002aac:	000f      	movs	r7, r1
10002aae:	0022      	movs	r2, r4
10002ab0:	2300      	movs	r3, #0
10002ab2:	0030      	movs	r0, r6
10002ab4:	0039      	movs	r1, r7
10002ab6:	f000 fa6f 	bl	10002f98 <__wrap___aeabi_uldivmod>
10002aba:	b2d2      	uxtb	r2, r2
10002abc:	2a09      	cmp	r2, #9
10002abe:	d9e9      	bls.n	10002a94 <_vsnprintf+0x7a4>
10002ac0:	9b0d      	ldr	r3, [sp, #52]	; 0x34
10002ac2:	469c      	mov	ip, r3
10002ac4:	4462      	add	r2, ip
10002ac6:	b2d2      	uxtb	r2, r2
10002ac8:	e7e6      	b.n	10002a98 <_vsnprintf+0x7a8>
10002aca:	23ff      	movs	r3, #255	; 0xff
10002acc:	9909      	ldr	r1, [sp, #36]	; 0x24
10002ace:	c904      	ldmia	r1!, {r2}
10002ad0:	4013      	ands	r3, r2
10002ad2:	001a      	movs	r2, r3
10002ad4:	9109      	str	r1, [sp, #36]	; 0x24
10002ad6:	e6e6      	b.n	100028a6 <_vsnprintf+0x5b6>
10002ad8:	9a0b      	ldr	r2, [sp, #44]	; 0x2c
10002ada:	3310      	adds	r3, #16
10002adc:	0011      	movs	r1, r2
10002ade:	4399      	bics	r1, r3
10002ae0:	910b      	str	r1, [sp, #44]	; 0x2c
10002ae2:	0552      	lsls	r2, r2, #21
10002ae4:	d5ba      	bpl.n	10002a5c <_vsnprintf+0x76c>
10002ae6:	2300      	movs	r3, #0
10002ae8:	4699      	mov	r9, r3
10002aea:	9b0b      	ldr	r3, [sp, #44]	; 0x2c
10002aec:	9306      	str	r3, [sp, #24]
10002aee:	9b0a      	ldr	r3, [sp, #40]	; 0x28
10002af0:	9305      	str	r3, [sp, #20]
10002af2:	4643      	mov	r3, r8
10002af4:	9304      	str	r3, [sp, #16]
10002af6:	9b0c      	ldr	r3, [sp, #48]	; 0x30
10002af8:	9303      	str	r3, [sp, #12]
10002afa:	9b12      	ldr	r3, [sp, #72]	; 0x48
10002afc:	9302      	str	r3, [sp, #8]
10002afe:	464b      	mov	r3, r9
10002b00:	9301      	str	r3, [sp, #4]
10002b02:	ab16      	add	r3, sp, #88	; 0x58
10002b04:	002a      	movs	r2, r5
10002b06:	9300      	str	r3, [sp, #0]
10002b08:	0021      	movs	r1, r4
10002b0a:	465b      	mov	r3, fp
10002b0c:	9808      	ldr	r0, [sp, #32]
10002b0e:	f7fe fee1 	bl	100018d4 <_ntoa_format>
10002b12:	3601      	adds	r6, #1
10002b14:	0005      	movs	r5, r0
10002b16:	f7ff fc10 	bl	1000233a <_vsnprintf+0x4a>
10002b1a:	22ff      	movs	r2, #255	; 0xff
10002b1c:	9b09      	ldr	r3, [sp, #36]	; 0x24
10002b1e:	cb02      	ldmia	r3!, {r1}
10002b20:	4011      	ands	r1, r2
10002b22:	468a      	mov	sl, r1
10002b24:	9309      	str	r3, [sp, #36]	; 0x24
10002b26:	e4f2      	b.n	1000250e <_vsnprintf+0x21e>
10002b28:	464b      	mov	r3, r9
10002b2a:	4645      	mov	r5, r8
10002b2c:	9309      	str	r3, [sp, #36]	; 0x24
10002b2e:	3601      	adds	r6, #1
10002b30:	f7ff fc03 	bl	1000233a <_vsnprintf+0x4a>
10002b34:	464e      	mov	r6, r9
10002b36:	4654      	mov	r4, sl
10002b38:	46a9      	mov	r9, r5
10002b3a:	9d13      	ldr	r5, [sp, #76]	; 0x4c
10002b3c:	e7d5      	b.n	10002aea <_vsnprintf+0x7fa>
10002b3e:	2308      	movs	r3, #8
10002b40:	930c      	str	r3, [sp, #48]	; 0x30
10002b42:	e687      	b.n	10002854 <_vsnprintf+0x564>
10002b44:	2207      	movs	r2, #7
10002b46:	9b09      	ldr	r3, [sp, #36]	; 0x24
10002b48:	3307      	adds	r3, #7
10002b4a:	4393      	bics	r3, r2
10002b4c:	3201      	adds	r2, #1
10002b4e:	4694      	mov	ip, r2
10002b50:	449c      	add	ip, r3
10002b52:	4662      	mov	r2, ip
10002b54:	9209      	str	r2, [sp, #36]	; 0x24
10002b56:	681a      	ldr	r2, [r3, #0]
10002b58:	685b      	ldr	r3, [r3, #4]
10002b5a:	0010      	movs	r0, r2
10002b5c:	469a      	mov	sl, r3
10002b5e:	0013      	movs	r3, r2
10002b60:	4652      	mov	r2, sl
10002b62:	4313      	orrs	r3, r2
10002b64:	d107      	bne.n	10002b76 <_vsnprintf+0x886>
10002b66:	9a0b      	ldr	r2, [sp, #44]	; 0x2c
10002b68:	3310      	adds	r3, #16
10002b6a:	0011      	movs	r1, r2
10002b6c:	4399      	bics	r1, r3
10002b6e:	910b      	str	r1, [sp, #44]	; 0x2c
10002b70:	0552      	lsls	r2, r2, #21
10002b72:	d500      	bpl.n	10002b76 <_vsnprintf+0x886>
10002b74:	e4d7      	b.n	10002526 <_vsnprintf+0x236>
10002b76:	9a0b      	ldr	r2, [sp, #44]	; 0x2c
10002b78:	2361      	movs	r3, #97	; 0x61
10002b7a:	0692      	lsls	r2, r2, #26
10002b7c:	d500      	bpl.n	10002b80 <_vsnprintf+0x890>
10002b7e:	2341      	movs	r3, #65	; 0x41
10002b80:	2200      	movs	r2, #0
10002b82:	b2db      	uxtb	r3, r3
10002b84:	a90e      	add	r1, sp, #56	; 0x38
10002b86:	3b0a      	subs	r3, #10
10002b88:	468c      	mov	ip, r1
10002b8a:	4691      	mov	r9, r2
10002b8c:	930d      	str	r3, [sp, #52]	; 0x34
10002b8e:	4643      	mov	r3, r8
10002b90:	321f      	adds	r2, #31
10002b92:	4462      	add	r2, ip
10002b94:	4657      	mov	r7, sl
10002b96:	9512      	str	r5, [sp, #72]	; 0x48
10002b98:	46a2      	mov	sl, r4
10002b9a:	464d      	mov	r5, r9
10002b9c:	0004      	movs	r4, r0
10002b9e:	46b1      	mov	r9, r6
10002ba0:	4690      	mov	r8, r2
10002ba2:	9e0c      	ldr	r6, [sp, #48]	; 0x30
10002ba4:	9313      	str	r3, [sp, #76]	; 0x4c
10002ba6:	e00d      	b.n	10002bc4 <_vsnprintf+0x8d4>
10002ba8:	3230      	adds	r2, #48	; 0x30
10002baa:	b2d2      	uxtb	r2, r2
10002bac:	4643      	mov	r3, r8
10002bae:	3501      	adds	r5, #1
10002bb0:	555a      	strb	r2, [r3, r5]
10002bb2:	2300      	movs	r3, #0
10002bb4:	42bb      	cmp	r3, r7
10002bb6:	d100      	bne.n	10002bba <_vsnprintf+0x8ca>
10002bb8:	e0fd      	b.n	10002db6 <_vsnprintf+0xac6>
10002bba:	2d20      	cmp	r5, #32
10002bbc:	d100      	bne.n	10002bc0 <_vsnprintf+0x8d0>
10002bbe:	e0fd      	b.n	10002dbc <_vsnprintf+0xacc>
10002bc0:	0004      	movs	r4, r0
10002bc2:	000f      	movs	r7, r1
10002bc4:	0032      	movs	r2, r6
10002bc6:	2300      	movs	r3, #0
10002bc8:	0020      	movs	r0, r4
10002bca:	0039      	movs	r1, r7
10002bcc:	f000 f9e4 	bl	10002f98 <__wrap___aeabi_uldivmod>
10002bd0:	b2d2      	uxtb	r2, r2
10002bd2:	2a09      	cmp	r2, #9
10002bd4:	d9e8      	bls.n	10002ba8 <_vsnprintf+0x8b8>
10002bd6:	9b0d      	ldr	r3, [sp, #52]	; 0x34
10002bd8:	469c      	mov	ip, r3
10002bda:	4462      	add	r2, ip
10002bdc:	b2d2      	uxtb	r2, r2
10002bde:	e7e5      	b.n	10002bac <_vsnprintf+0x8bc>
10002be0:	9a0b      	ldr	r2, [sp, #44]	; 0x2c
10002be2:	2361      	movs	r3, #97	; 0x61
10002be4:	0692      	lsls	r2, r2, #26
10002be6:	d500      	bpl.n	10002bea <_vsnprintf+0x8fa>
10002be8:	2341      	movs	r3, #65	; 0x41
10002bea:	b2db      	uxtb	r3, r3
10002bec:	a90e      	add	r1, sp, #56	; 0x38
10002bee:	3b0a      	subs	r3, #10
10002bf0:	221f      	movs	r2, #31
10002bf2:	468c      	mov	ip, r1
10002bf4:	930d      	str	r3, [sp, #52]	; 0x34
10002bf6:	0023      	movs	r3, r4
10002bf8:	4462      	add	r2, ip
10002bfa:	4654      	mov	r4, sl
10002bfc:	9512      	str	r5, [sp, #72]	; 0x48
10002bfe:	0017      	movs	r7, r2
10002c00:	464d      	mov	r5, r9
10002c02:	469a      	mov	sl, r3
10002c04:	46b1      	mov	r9, r6
10002c06:	9e0c      	ldr	r6, [sp, #48]	; 0x30
10002c08:	e008      	b.n	10002c1c <_vsnprintf+0x92c>
10002c0a:	3330      	adds	r3, #48	; 0x30
10002c0c:	b2db      	uxtb	r3, r3
10002c0e:	3501      	adds	r5, #1
10002c10:	557b      	strb	r3, [r7, r5]
10002c12:	42b4      	cmp	r4, r6
10002c14:	d30e      	bcc.n	10002c34 <_vsnprintf+0x944>
10002c16:	2d20      	cmp	r5, #32
10002c18:	d00c      	beq.n	10002c34 <_vsnprintf+0x944>
10002c1a:	0004      	movs	r4, r0
10002c1c:	0031      	movs	r1, r6
10002c1e:	0020      	movs	r0, r4
10002c20:	f000 f974 	bl	10002f0c <__wrap___aeabi_uidiv>
10002c24:	b2cb      	uxtb	r3, r1
10002c26:	2909      	cmp	r1, #9
10002c28:	d9ef      	bls.n	10002c0a <_vsnprintf+0x91a>
10002c2a:	9a0d      	ldr	r2, [sp, #52]	; 0x34
10002c2c:	4694      	mov	ip, r2
10002c2e:	4463      	add	r3, ip
10002c30:	b2db      	uxtb	r3, r3
10002c32:	e7ec      	b.n	10002c0e <_vsnprintf+0x91e>
10002c34:	464e      	mov	r6, r9
10002c36:	4654      	mov	r4, sl
10002c38:	46a9      	mov	r9, r5
10002c3a:	9d12      	ldr	r5, [sp, #72]	; 0x48
10002c3c:	e475      	b.n	1000252a <_vsnprintf+0x23a>
10002c3e:	9b09      	ldr	r3, [sp, #36]	; 0x24
10002c40:	001a      	movs	r2, r3
10002c42:	ca08      	ldmia	r2!, {r3}
10002c44:	17d9      	asrs	r1, r3, #31
10002c46:	9213      	str	r2, [sp, #76]	; 0x4c
10002c48:	185a      	adds	r2, r3, r1
10002c4a:	404a      	eors	r2, r1
10002c4c:	4691      	mov	r9, r2
10002c4e:	0fda      	lsrs	r2, r3, #31
10002c50:	9212      	str	r2, [sp, #72]	; 0x48
10002c52:	2b00      	cmp	r3, #0
10002c54:	d108      	bne.n	10002c68 <_vsnprintf+0x978>
10002c56:	2380      	movs	r3, #128	; 0x80
10002c58:	2210      	movs	r2, #16
10002c5a:	990b      	ldr	r1, [sp, #44]	; 0x2c
10002c5c:	00db      	lsls	r3, r3, #3
10002c5e:	400b      	ands	r3, r1
10002c60:	4391      	bics	r1, r2
10002c62:	910b      	str	r1, [sp, #44]	; 0x2c
10002c64:	2b00      	cmp	r3, #0
10002c66:	d12b      	bne.n	10002cc0 <_vsnprintf+0x9d0>
10002c68:	9a0b      	ldr	r2, [sp, #44]	; 0x2c
10002c6a:	2361      	movs	r3, #97	; 0x61
10002c6c:	0692      	lsls	r2, r2, #26
10002c6e:	d500      	bpl.n	10002c72 <_vsnprintf+0x982>
10002c70:	2341      	movs	r3, #65	; 0x41
10002c72:	aa0e      	add	r2, sp, #56	; 0x38
10002c74:	271f      	movs	r7, #31
10002c76:	4694      	mov	ip, r2
10002c78:	b2db      	uxtb	r3, r3
10002c7a:	3b0a      	subs	r3, #10
10002c7c:	950d      	str	r5, [sp, #52]	; 0x34
10002c7e:	4467      	add	r7, ip
10002c80:	4655      	mov	r5, sl
10002c82:	9309      	str	r3, [sp, #36]	; 0x24
10002c84:	46a2      	mov	sl, r4
10002c86:	464c      	mov	r4, r9
10002c88:	46b1      	mov	r9, r6
10002c8a:	9e0c      	ldr	r6, [sp, #48]	; 0x30
10002c8c:	e008      	b.n	10002ca0 <_vsnprintf+0x9b0>
10002c8e:	3330      	adds	r3, #48	; 0x30
10002c90:	b2db      	uxtb	r3, r3
10002c92:	3501      	adds	r5, #1
10002c94:	557b      	strb	r3, [r7, r5]
10002c96:	42b4      	cmp	r4, r6
10002c98:	d30e      	bcc.n	10002cb8 <_vsnprintf+0x9c8>
10002c9a:	2d20      	cmp	r5, #32
10002c9c:	d00c      	beq.n	10002cb8 <_vsnprintf+0x9c8>
10002c9e:	0004      	movs	r4, r0
10002ca0:	0031      	movs	r1, r6
10002ca2:	0020      	movs	r0, r4
10002ca4:	f000 f932 	bl	10002f0c <__wrap___aeabi_uidiv>
10002ca8:	b2cb      	uxtb	r3, r1
10002caa:	2909      	cmp	r1, #9
10002cac:	d9ef      	bls.n	10002c8e <_vsnprintf+0x99e>
10002cae:	9a09      	ldr	r2, [sp, #36]	; 0x24
10002cb0:	4694      	mov	ip, r2
10002cb2:	4463      	add	r3, ip
10002cb4:	b2db      	uxtb	r3, r3
10002cb6:	e7ec      	b.n	10002c92 <_vsnprintf+0x9a2>
10002cb8:	464e      	mov	r6, r9
10002cba:	4654      	mov	r4, sl
10002cbc:	46aa      	mov	sl, r5
10002cbe:	9d0d      	ldr	r5, [sp, #52]	; 0x34
10002cc0:	9b0b      	ldr	r3, [sp, #44]	; 0x2c
10002cc2:	002a      	movs	r2, r5
10002cc4:	9306      	str	r3, [sp, #24]
10002cc6:	9b0a      	ldr	r3, [sp, #40]	; 0x28
10002cc8:	0021      	movs	r1, r4
10002cca:	9305      	str	r3, [sp, #20]
10002ccc:	4643      	mov	r3, r8
10002cce:	9304      	str	r3, [sp, #16]
10002cd0:	9b0c      	ldr	r3, [sp, #48]	; 0x30
10002cd2:	9808      	ldr	r0, [sp, #32]
10002cd4:	9303      	str	r3, [sp, #12]
10002cd6:	9b12      	ldr	r3, [sp, #72]	; 0x48
10002cd8:	3601      	adds	r6, #1
10002cda:	9302      	str	r3, [sp, #8]
10002cdc:	4653      	mov	r3, sl
10002cde:	9301      	str	r3, [sp, #4]
10002ce0:	ab16      	add	r3, sp, #88	; 0x58
10002ce2:	9300      	str	r3, [sp, #0]
10002ce4:	465b      	mov	r3, fp
10002ce6:	f7fe fdf5 	bl	100018d4 <_ntoa_format>
10002cea:	9b13      	ldr	r3, [sp, #76]	; 0x4c
10002cec:	0005      	movs	r5, r0
10002cee:	9309      	str	r3, [sp, #36]	; 0x24
10002cf0:	f7ff fb23 	bl	1000233a <_vsnprintf+0x4a>
10002cf4:	9b09      	ldr	r3, [sp, #36]	; 0x24
10002cf6:	cb04      	ldmia	r3!, {r2}
10002cf8:	4691      	mov	r9, r2
10002cfa:	9312      	str	r3, [sp, #72]	; 0x48
10002cfc:	2a00      	cmp	r2, #0
10002cfe:	d108      	bne.n	10002d12 <_vsnprintf+0xa22>
10002d00:	2380      	movs	r3, #128	; 0x80
10002d02:	2210      	movs	r2, #16
10002d04:	990b      	ldr	r1, [sp, #44]	; 0x2c
10002d06:	00db      	lsls	r3, r3, #3
10002d08:	400b      	ands	r3, r1
10002d0a:	4391      	bics	r1, r2
10002d0c:	910b      	str	r1, [sp, #44]	; 0x2c
10002d0e:	2b00      	cmp	r3, #0
10002d10:	d12b      	bne.n	10002d6a <_vsnprintf+0xa7a>
10002d12:	9a0b      	ldr	r2, [sp, #44]	; 0x2c
10002d14:	2361      	movs	r3, #97	; 0x61
10002d16:	0692      	lsls	r2, r2, #26
10002d18:	d500      	bpl.n	10002d1c <_vsnprintf+0xa2c>
10002d1a:	2341      	movs	r3, #65	; 0x41
10002d1c:	aa0e      	add	r2, sp, #56	; 0x38
10002d1e:	271f      	movs	r7, #31
10002d20:	4694      	mov	ip, r2
10002d22:	b2db      	uxtb	r3, r3
10002d24:	3b0a      	subs	r3, #10
10002d26:	950d      	str	r5, [sp, #52]	; 0x34
10002d28:	4467      	add	r7, ip
10002d2a:	4655      	mov	r5, sl
10002d2c:	9309      	str	r3, [sp, #36]	; 0x24
10002d2e:	46a2      	mov	sl, r4
10002d30:	464c      	mov	r4, r9
10002d32:	46b1      	mov	r9, r6
10002d34:	9e0c      	ldr	r6, [sp, #48]	; 0x30
10002d36:	e008      	b.n	10002d4a <_vsnprintf+0xa5a>
10002d38:	3330      	adds	r3, #48	; 0x30
10002d3a:	b2db      	uxtb	r3, r3
10002d3c:	3501      	adds	r5, #1
10002d3e:	557b      	strb	r3, [r7, r5]
10002d40:	42b4      	cmp	r4, r6
10002d42:	d30e      	bcc.n	10002d62 <_vsnprintf+0xa72>
10002d44:	2d20      	cmp	r5, #32
10002d46:	d00c      	beq.n	10002d62 <_vsnprintf+0xa72>
10002d48:	0004      	movs	r4, r0
10002d4a:	0031      	movs	r1, r6
10002d4c:	0020      	movs	r0, r4
10002d4e:	f000 f8dd 	bl	10002f0c <__wrap___aeabi_uidiv>
10002d52:	b2cb      	uxtb	r3, r1
10002d54:	2909      	cmp	r1, #9
10002d56:	d9ef      	bls.n	10002d38 <_vsnprintf+0xa48>
10002d58:	9a09      	ldr	r2, [sp, #36]	; 0x24
10002d5a:	4694      	mov	ip, r2
10002d5c:	4463      	add	r3, ip
10002d5e:	b2db      	uxtb	r3, r3
10002d60:	e7ec      	b.n	10002d3c <_vsnprintf+0xa4c>
10002d62:	464e      	mov	r6, r9
10002d64:	4654      	mov	r4, sl
10002d66:	46aa      	mov	sl, r5
10002d68:	9d0d      	ldr	r5, [sp, #52]	; 0x34
10002d6a:	9b0b      	ldr	r3, [sp, #44]	; 0x2c
10002d6c:	002a      	movs	r2, r5
10002d6e:	9306      	str	r3, [sp, #24]
10002d70:	9b0a      	ldr	r3, [sp, #40]	; 0x28
10002d72:	0021      	movs	r1, r4
10002d74:	9305      	str	r3, [sp, #20]
10002d76:	4643      	mov	r3, r8
10002d78:	9304      	str	r3, [sp, #16]
10002d7a:	9b0c      	ldr	r3, [sp, #48]	; 0x30
10002d7c:	9808      	ldr	r0, [sp, #32]
10002d7e:	9303      	str	r3, [sp, #12]
10002d80:	2300      	movs	r3, #0
10002d82:	9302      	str	r3, [sp, #8]
10002d84:	4653      	mov	r3, sl
10002d86:	9301      	str	r3, [sp, #4]
10002d88:	ab16      	add	r3, sp, #88	; 0x58
10002d8a:	9300      	str	r3, [sp, #0]
10002d8c:	465b      	mov	r3, fp
10002d8e:	f7fe fda1 	bl	100018d4 <_ntoa_format>
10002d92:	9b12      	ldr	r3, [sp, #72]	; 0x48
10002d94:	0005      	movs	r5, r0
10002d96:	9309      	str	r3, [sp, #36]	; 0x24
10002d98:	3601      	adds	r6, #1
10002d9a:	f7ff face 	bl	1000233a <_vsnprintf+0x4a>
10002d9e:	42b4      	cmp	r4, r6
10002da0:	d800      	bhi.n	10002da4 <_vsnprintf+0xab4>
10002da2:	e67f      	b.n	10002aa4 <_vsnprintf+0x7b4>
10002da4:	9b14      	ldr	r3, [sp, #80]	; 0x50
10002da6:	464c      	mov	r4, r9
10002da8:	960e      	str	r6, [sp, #56]	; 0x38
10002daa:	970f      	str	r7, [sp, #60]	; 0x3c
10002dac:	46a9      	mov	r9, r5
10002dae:	4698      	mov	r8, r3
10002db0:	9e15      	ldr	r6, [sp, #84]	; 0x54
10002db2:	9d13      	ldr	r5, [sp, #76]	; 0x4c
10002db4:	e699      	b.n	10002aea <_vsnprintf+0x7fa>
10002db6:	42a6      	cmp	r6, r4
10002db8:	d800      	bhi.n	10002dbc <_vsnprintf+0xacc>
10002dba:	e6fe      	b.n	10002bba <_vsnprintf+0x8ca>
10002dbc:	9b13      	ldr	r3, [sp, #76]	; 0x4c
10002dbe:	464e      	mov	r6, r9
10002dc0:	4698      	mov	r8, r3
10002dc2:	46a9      	mov	r9, r5
10002dc4:	4654      	mov	r4, sl
10002dc6:	9d12      	ldr	r5, [sp, #72]	; 0x48
10002dc8:	f7ff fbaf 	bl	1000252a <_vsnprintf+0x23a>
10002dcc:	c908      	ldmia	r1!, {r3}
10002dce:	17d8      	asrs	r0, r3, #31
10002dd0:	181a      	adds	r2, r3, r0
10002dd2:	4042      	eors	r2, r0
10002dd4:	9109      	str	r1, [sp, #36]	; 0x24
10002dd6:	e566      	b.n	100028a6 <_vsnprintf+0x5b6>
10002dd8:	2300      	movs	r3, #0
10002dda:	930b      	str	r3, [sp, #44]	; 0x2c
10002ddc:	e45e      	b.n	1000269c <_vsnprintf+0x3ac>
10002dde:	9b09      	ldr	r3, [sp, #36]	; 0x24
10002de0:	cb04      	ldmia	r3!, {r2}
10002de2:	4692      	mov	sl, r2
10002de4:	9309      	str	r3, [sp, #36]	; 0x24
10002de6:	f7ff fb92 	bl	1000250e <_vsnprintf+0x21e>
10002dea:	002f      	movs	r7, r5
10002dec:	e5e0      	b.n	100029b0 <_vsnprintf+0x6c0>
10002dee:	930b      	str	r3, [sp, #44]	; 0x2c
10002df0:	e60b      	b.n	10002a0a <_vsnprintf+0x71a>
10002df2:	3b06      	subs	r3, #6
10002df4:	930c      	str	r3, [sp, #48]	; 0x30
10002df6:	e52e      	b.n	10002856 <_vsnprintf+0x566>

10002df8 <vfctprintf>:
10002df8:	b500      	push	{lr}
10002dfa:	b085      	sub	sp, #20
10002dfc:	9103      	str	r1, [sp, #12]
10002dfe:	2101      	movs	r1, #1
10002e00:	9002      	str	r0, [sp, #8]
10002e02:	9300      	str	r3, [sp, #0]
10002e04:	4803      	ldr	r0, [pc, #12]	; (10002e14 <vfctprintf+0x1c>)
10002e06:	0013      	movs	r3, r2
10002e08:	424a      	negs	r2, r1
10002e0a:	a902      	add	r1, sp, #8
10002e0c:	f7ff fa70 	bl	100022f0 <_vsnprintf>
10002e10:	b005      	add	sp, #20
10002e12:	bd00      	pop	{pc}
10002e14:	10001ab5 	.word	0x10001ab5

10002e18 <weak_raw_vprintf>:
10002e18:	b510      	push	{r4, lr}
10002e1a:	4a09      	ldr	r2, [pc, #36]	; (10002e40 <weak_raw_vprintf+0x28>)
10002e1c:	0003      	movs	r3, r0
10002e1e:	6814      	ldr	r4, [r2, #0]
10002e20:	b084      	sub	sp, #16
10002e22:	2c00      	cmp	r4, #0
10002e24:	d008      	beq.n	10002e38 <weak_raw_vprintf+0x20>
10002e26:	2201      	movs	r2, #1
10002e28:	9100      	str	r1, [sp, #0]
10002e2a:	4806      	ldr	r0, [pc, #24]	; (10002e44 <weak_raw_vprintf+0x2c>)
10002e2c:	4252      	negs	r2, r2
10002e2e:	a903      	add	r1, sp, #12
10002e30:	47a0      	blx	r4
10002e32:	2001      	movs	r0, #1
10002e34:	b004      	add	sp, #16
10002e36:	bd10      	pop	{r4, pc}
10002e38:	f001 f832 	bl	10003ea0 <__wrap_puts>
10002e3c:	2000      	movs	r0, #0
10002e3e:	e7f9      	b.n	10002e34 <weak_raw_vprintf+0x1c>
10002e40:	20000b04 	.word	0x20000b04
10002e44:	10001aa5 	.word	0x10001aa5

10002e48 <__aeabi_bits_init>:
10002e48:	4801      	ldr	r0, [pc, #4]	; (10002e50 <__aeabi_bits_init+0x8>)
10002e4a:	2104      	movs	r1, #4
10002e4c:	4b01      	ldr	r3, [pc, #4]	; (10002e54 <__aeabi_bits_init+0xc>)
10002e4e:	4718      	bx	r3
10002e50:	200001e0 	.word	0x200001e0
10002e54:	10002e79 	.word	0x10002e79

10002e58 <rom_func_lookup>:
10002e58:	2314      	movs	r3, #20
10002e5a:	b510      	push	{r4, lr}
10002e5c:	0001      	movs	r1, r0
10002e5e:	8818      	ldrh	r0, [r3, #0]
10002e60:	3304      	adds	r3, #4
10002e62:	881b      	ldrh	r3, [r3, #0]
10002e64:	4798      	blx	r3
10002e66:	bd10      	pop	{r4, pc}

10002e68 <rom_data_lookup>:
10002e68:	2316      	movs	r3, #22
10002e6a:	b510      	push	{r4, lr}
10002e6c:	0001      	movs	r1, r0
10002e6e:	8818      	ldrh	r0, [r3, #0]
10002e70:	3302      	adds	r3, #2
10002e72:	881b      	ldrh	r3, [r3, #0]
10002e74:	4798      	blx	r3
10002e76:	bd10      	pop	{r4, pc}

10002e78 <rom_funcs_lookup>:
10002e78:	b5f0      	push	{r4, r5, r6, r7, lr}
10002e7a:	46c6      	mov	lr, r8
10002e7c:	b500      	push	{lr}
10002e7e:	2900      	cmp	r1, #0
10002e80:	d016      	beq.n	10002eb0 <rom_funcs_lookup+0x38>
10002e82:	2314      	movs	r3, #20
10002e84:	0004      	movs	r4, r0
10002e86:	2501      	movs	r5, #1
10002e88:	4698      	mov	r8, r3
10002e8a:	2718      	movs	r7, #24
10002e8c:	0089      	lsls	r1, r1, #2
10002e8e:	1846      	adds	r6, r0, r1
10002e90:	4643      	mov	r3, r8
10002e92:	6821      	ldr	r1, [r4, #0]
10002e94:	8818      	ldrh	r0, [r3, #0]
10002e96:	883b      	ldrh	r3, [r7, #0]
10002e98:	4798      	blx	r3
10002e9a:	c401      	stmia	r4!, {r0}
10002e9c:	1e43      	subs	r3, r0, #1
10002e9e:	4198      	sbcs	r0, r3
10002ea0:	4240      	negs	r0, r0
10002ea2:	4005      	ands	r5, r0
10002ea4:	42a6      	cmp	r6, r4
10002ea6:	d1f3      	bne.n	10002e90 <rom_funcs_lookup+0x18>
10002ea8:	0028      	movs	r0, r5
10002eaa:	bc04      	pop	{r2}
10002eac:	4690      	mov	r8, r2
10002eae:	bdf0      	pop	{r4, r5, r6, r7, pc}
10002eb0:	2501      	movs	r5, #1
10002eb2:	e7f9      	b.n	10002ea8 <rom_funcs_lookup+0x30>

10002eb4 <__wrap___aeabi_idiv>:
10002eb4:	4a14      	ldr	r2, [pc, #80]	; (10002f08 <divmod_s32s32_savestate+0x20>)
10002eb6:	6f93      	ldr	r3, [r2, #120]	; 0x78
10002eb8:	089b      	lsrs	r3, r3, #2
10002eba:	d215      	bcs.n	10002ee8 <divmod_s32s32_savestate>

10002ebc <divmod_s32s32_unsafe>:
10002ebc:	6690      	str	r0, [r2, #104]	; 0x68
10002ebe:	66d1      	str	r1, [r2, #108]	; 0x6c
10002ec0:	2900      	cmp	r1, #0
10002ec2:	d005      	beq.n	10002ed0 <divmod_s32s32_unsafe+0x14>
10002ec4:	e7ff      	b.n	10002ec6 <divmod_s32s32_unsafe+0xa>
10002ec6:	e7ff      	b.n	10002ec8 <divmod_s32s32_unsafe+0xc>
10002ec8:	e7ff      	b.n	10002eca <divmod_s32s32_unsafe+0xe>
10002eca:	6f51      	ldr	r1, [r2, #116]	; 0x74
10002ecc:	6f10      	ldr	r0, [r2, #112]	; 0x70
10002ece:	4770      	bx	lr
10002ed0:	b504      	push	{r2, lr}
10002ed2:	2180      	movs	r1, #128	; 0x80
10002ed4:	0609      	lsls	r1, r1, #24
10002ed6:	17c2      	asrs	r2, r0, #31
10002ed8:	4051      	eors	r1, r2
10002eda:	2800      	cmp	r0, #0
10002edc:	d000      	beq.n	10002ee0 <divmod_s32s32_unsafe+0x24>
10002ede:	43c8      	mvns	r0, r1
10002ee0:	f001 fd92 	bl	10004a08 <____aeabi_idiv0_veneer>
10002ee4:	2100      	movs	r1, #0
10002ee6:	bd04      	pop	{r2, pc}

10002ee8 <divmod_s32s32_savestate>:
10002ee8:	6f93      	ldr	r3, [r2, #120]	; 0x78
10002eea:	085b      	lsrs	r3, r3, #1
10002eec:	d3fd      	bcc.n	10002eea <divmod_s32s32_savestate+0x2>
10002eee:	b5f0      	push	{r4, r5, r6, r7, lr}
10002ef0:	6e94      	ldr	r4, [r2, #104]	; 0x68
10002ef2:	6ed5      	ldr	r5, [r2, #108]	; 0x6c
10002ef4:	6f57      	ldr	r7, [r2, #116]	; 0x74
10002ef6:	6f16      	ldr	r6, [r2, #112]	; 0x70
10002ef8:	f7ff ffe0 	bl	10002ebc <divmod_s32s32_unsafe>
10002efc:	6694      	str	r4, [r2, #104]	; 0x68
10002efe:	66d5      	str	r5, [r2, #108]	; 0x6c
10002f00:	6757      	str	r7, [r2, #116]	; 0x74
10002f02:	6716      	str	r6, [r2, #112]	; 0x70
10002f04:	bdf0      	pop	{r4, r5, r6, r7, pc}
10002f06:	0000      	.short	0x0000
10002f08:	d0000000 	.word	0xd0000000

10002f0c <__wrap___aeabi_uidiv>:
10002f0c:	4a13      	ldr	r2, [pc, #76]	; (10002f5c <divmod_u32u32_savestate+0x20>)
10002f0e:	6f93      	ldr	r3, [r2, #120]	; 0x78
10002f10:	089b      	lsrs	r3, r3, #2
10002f12:	d213      	bcs.n	10002f3c <divmod_u32u32_savestate>

10002f14 <divmod_u32u32_unsafe>:
10002f14:	6610      	str	r0, [r2, #96]	; 0x60
10002f16:	6651      	str	r1, [r2, #100]	; 0x64
10002f18:	2900      	cmp	r1, #0
10002f1a:	d005      	beq.n	10002f28 <divmod_u32u32_unsafe+0x14>
10002f1c:	e7ff      	b.n	10002f1e <divmod_u32u32_unsafe+0xa>
10002f1e:	e7ff      	b.n	10002f20 <divmod_u32u32_unsafe+0xc>
10002f20:	e7ff      	b.n	10002f22 <divmod_u32u32_unsafe+0xe>
10002f22:	6f51      	ldr	r1, [r2, #116]	; 0x74
10002f24:	6f10      	ldr	r0, [r2, #112]	; 0x70
10002f26:	4770      	bx	lr
10002f28:	b504      	push	{r2, lr}
10002f2a:	2800      	cmp	r0, #0
10002f2c:	d001      	beq.n	10002f32 <divmod_u32u32_unsafe+0x1e>
10002f2e:	2000      	movs	r0, #0
10002f30:	43c0      	mvns	r0, r0
10002f32:	f001 fd69 	bl	10004a08 <____aeabi_idiv0_veneer>
10002f36:	2100      	movs	r1, #0
10002f38:	bd04      	pop	{r2, pc}
10002f3a:	46c0      	nop			; (mov r8, r8)

10002f3c <divmod_u32u32_savestate>:
10002f3c:	6f93      	ldr	r3, [r2, #120]	; 0x78
10002f3e:	085b      	lsrs	r3, r3, #1
10002f40:	d3fd      	bcc.n	10002f3e <divmod_u32u32_savestate+0x2>
10002f42:	b5f0      	push	{r4, r5, r6, r7, lr}
10002f44:	6e94      	ldr	r4, [r2, #104]	; 0x68
10002f46:	6ed5      	ldr	r5, [r2, #108]	; 0x6c
10002f48:	6f57      	ldr	r7, [r2, #116]	; 0x74
10002f4a:	6f16      	ldr	r6, [r2, #112]	; 0x70
10002f4c:	f7ff ffe2 	bl	10002f14 <divmod_u32u32_unsafe>
10002f50:	6694      	str	r4, [r2, #104]	; 0x68
10002f52:	66d5      	str	r5, [r2, #108]	; 0x6c
10002f54:	6757      	str	r7, [r2, #116]	; 0x74
10002f56:	6716      	str	r6, [r2, #112]	; 0x70
10002f58:	bdf0      	pop	{r4, r5, r6, r7, pc}
10002f5a:	0000      	.short	0x0000
10002f5c:	d0000000 	.word	0xd0000000

10002f60 <__wrap___aeabi_ldivmod>:
10002f60:	4694      	mov	ip, r2
10002f62:	4a4e      	ldr	r2, [pc, #312]	; (1000309c <udiv0+0x1a>)
10002f64:	6f92      	ldr	r2, [r2, #120]	; 0x78
10002f66:	0892      	lsrs	r2, r2, #2
10002f68:	4662      	mov	r2, ip
10002f6a:	d201      	bcs.n	10002f70 <divmod_s64s64_savestate>
10002f6c:	e030      	b.n	10002fd0 <divmod_s64s64_unsafe>
10002f6e:	46c0      	nop			; (mov r8, r8)

10002f70 <divmod_s64s64_savestate>:
10002f70:	b5f0      	push	{r4, r5, r6, r7, lr}
10002f72:	4e4a      	ldr	r6, [pc, #296]	; (1000309c <udiv0+0x1a>)
10002f74:	6fb5      	ldr	r5, [r6, #120]	; 0x78
10002f76:	086d      	lsrs	r5, r5, #1
10002f78:	d3fc      	bcc.n	10002f74 <divmod_s64s64_savestate+0x4>
10002f7a:	6e34      	ldr	r4, [r6, #96]	; 0x60
10002f7c:	6e75      	ldr	r5, [r6, #100]	; 0x64
10002f7e:	6f77      	ldr	r7, [r6, #116]	; 0x74
10002f80:	6f36      	ldr	r6, [r6, #112]	; 0x70
10002f82:	f000 f825 	bl	10002fd0 <divmod_s64s64_unsafe>
10002f86:	4694      	mov	ip, r2
10002f88:	4a44      	ldr	r2, [pc, #272]	; (1000309c <udiv0+0x1a>)
10002f8a:	6614      	str	r4, [r2, #96]	; 0x60
10002f8c:	6655      	str	r5, [r2, #100]	; 0x64
10002f8e:	6757      	str	r7, [r2, #116]	; 0x74
10002f90:	6716      	str	r6, [r2, #112]	; 0x70
10002f92:	4662      	mov	r2, ip
10002f94:	bdf0      	pop	{r4, r5, r6, r7, pc}
10002f96:	46c0      	nop			; (mov r8, r8)

10002f98 <__wrap___aeabi_uldivmod>:
10002f98:	4694      	mov	ip, r2
10002f9a:	4a40      	ldr	r2, [pc, #256]	; (1000309c <udiv0+0x1a>)
10002f9c:	6f92      	ldr	r2, [r2, #120]	; 0x78
10002f9e:	0892      	lsrs	r2, r2, #2
10002fa0:	4662      	mov	r2, ip
10002fa2:	d201      	bcs.n	10002fa8 <divmod_u64u64_savestate>
10002fa4:	e058      	b.n	10003058 <divmod_u64u64_unsafe>
10002fa6:	46c0      	nop			; (mov r8, r8)

10002fa8 <divmod_u64u64_savestate>:
10002fa8:	b5f0      	push	{r4, r5, r6, r7, lr}
10002faa:	4e3c      	ldr	r6, [pc, #240]	; (1000309c <udiv0+0x1a>)
10002fac:	6fb5      	ldr	r5, [r6, #120]	; 0x78
10002fae:	086d      	lsrs	r5, r5, #1
10002fb0:	d3fc      	bcc.n	10002fac <divmod_u64u64_savestate+0x4>
10002fb2:	6e34      	ldr	r4, [r6, #96]	; 0x60
10002fb4:	6e75      	ldr	r5, [r6, #100]	; 0x64
10002fb6:	6f77      	ldr	r7, [r6, #116]	; 0x74
10002fb8:	6f36      	ldr	r6, [r6, #112]	; 0x70
10002fba:	f000 f84d 	bl	10003058 <divmod_u64u64_unsafe>
10002fbe:	4694      	mov	ip, r2
10002fc0:	4a36      	ldr	r2, [pc, #216]	; (1000309c <udiv0+0x1a>)
10002fc2:	6614      	str	r4, [r2, #96]	; 0x60
10002fc4:	6655      	str	r5, [r2, #100]	; 0x64
10002fc6:	6757      	str	r7, [r2, #116]	; 0x74
10002fc8:	6716      	str	r6, [r2, #112]	; 0x70
10002fca:	4662      	mov	r2, ip
10002fcc:	bdf0      	pop	{r4, r5, r6, r7, pc}
10002fce:	46c0      	nop			; (mov r8, r8)

10002fd0 <divmod_s64s64_unsafe>:
10002fd0:	2b00      	cmp	r3, #0
10002fd2:	db24      	blt.n	1000301e <l41_1+0x26>
10002fd4:	d011      	beq.n	10002ffa <l41_1+0x2>
10002fd6:	2900      	cmp	r1, #0
10002fd8:	da3e      	bge.n	10003058 <divmod_u64u64_unsafe>
10002fda:	b500      	push	{lr}
10002fdc:	43c9      	mvns	r1, r1
10002fde:	4240      	negs	r0, r0
10002fe0:	d100      	bne.n	10002fe4 <l39_1>
10002fe2:	3101      	adds	r1, #1

10002fe4 <l39_1>:
10002fe4:	f000 f838 	bl	10003058 <divmod_u64u64_unsafe>
10002fe8:	43c9      	mvns	r1, r1
10002fea:	4240      	negs	r0, r0
10002fec:	d100      	bne.n	10002ff0 <l40_1>
10002fee:	3101      	adds	r1, #1

10002ff0 <l40_1>:
10002ff0:	43db      	mvns	r3, r3
10002ff2:	4252      	negs	r2, r2
10002ff4:	d100      	bne.n	10002ff8 <l41_1>
10002ff6:	3301      	adds	r3, #1

10002ff8 <l41_1>:
10002ff8:	bd00      	pop	{pc}
10002ffa:	2a00      	cmp	r2, #0
10002ffc:	d1eb      	bne.n	10002fd6 <divmod_s64s64_unsafe+0x6>
10002ffe:	2800      	cmp	r0, #0
10003000:	d101      	bne.n	10003006 <l41_1+0xe>
10003002:	2900      	cmp	r1, #0
10003004:	d005      	beq.n	10003012 <l41_1+0x1a>
10003006:	2000      	movs	r0, #0
10003008:	0fc9      	lsrs	r1, r1, #31
1000300a:	07c9      	lsls	r1, r1, #31
1000300c:	d101      	bne.n	10003012 <l41_1+0x1a>
1000300e:	43c0      	mvns	r0, r0
10003010:	0841      	lsrs	r1, r0, #1
10003012:	b500      	push	{lr}
10003014:	f001 fcf0 	bl	100049f8 <____aeabi_ldiv0_veneer>
10003018:	2200      	movs	r2, #0
1000301a:	2300      	movs	r3, #0
1000301c:	bd00      	pop	{pc}
1000301e:	b500      	push	{lr}
10003020:	2900      	cmp	r1, #0
10003022:	db0a      	blt.n	1000303a <l43_1+0x2>
10003024:	43db      	mvns	r3, r3
10003026:	4252      	negs	r2, r2
10003028:	d100      	bne.n	1000302c <l42_1>
1000302a:	3301      	adds	r3, #1

1000302c <l42_1>:
1000302c:	f000 f814 	bl	10003058 <divmod_u64u64_unsafe>
10003030:	43c9      	mvns	r1, r1
10003032:	4240      	negs	r0, r0
10003034:	d100      	bne.n	10003038 <l43_1>
10003036:	3101      	adds	r1, #1

10003038 <l43_1>:
10003038:	bd00      	pop	{pc}
1000303a:	43c9      	mvns	r1, r1
1000303c:	4240      	negs	r0, r0
1000303e:	d100      	bne.n	10003042 <l44_1>
10003040:	3101      	adds	r1, #1

10003042 <l44_1>:
10003042:	43db      	mvns	r3, r3
10003044:	4252      	negs	r2, r2
10003046:	d100      	bne.n	1000304a <l45_1>
10003048:	3301      	adds	r3, #1

1000304a <l45_1>:
1000304a:	f000 f805 	bl	10003058 <divmod_u64u64_unsafe>
1000304e:	43db      	mvns	r3, r3
10003050:	4252      	negs	r2, r2
10003052:	d100      	bne.n	10003056 <l46_1>
10003054:	3301      	adds	r3, #1

10003056 <l46_1>:
10003056:	bd00      	pop	{pc}

10003058 <divmod_u64u64_unsafe>:
10003058:	2900      	cmp	r1, #0
1000305a:	d123      	bne.n	100030a4 <y64>
1000305c:	2b00      	cmp	r3, #0
1000305e:	d118      	bne.n	10003092 <udiv0+0x10>
10003060:	2a00      	cmp	r2, #0
10003062:	d00c      	beq.n	1000307e <divmod_u64u64_unsafe+0x26>
10003064:	46bc      	mov	ip, r7
10003066:	4f0d      	ldr	r7, [pc, #52]	; (1000309c <udiv0+0x1a>)
10003068:	6638      	str	r0, [r7, #96]	; 0x60
1000306a:	667a      	str	r2, [r7, #100]	; 0x64
1000306c:	2100      	movs	r1, #0
1000306e:	2300      	movs	r3, #0
10003070:	e7ff      	b.n	10003072 <divmod_u64u64_unsafe+0x1a>
10003072:	e7ff      	b.n	10003074 <divmod_u64u64_unsafe+0x1c>
10003074:	e7ff      	b.n	10003076 <divmod_u64u64_unsafe+0x1e>
10003076:	6f7a      	ldr	r2, [r7, #116]	; 0x74
10003078:	6f38      	ldr	r0, [r7, #112]	; 0x70
1000307a:	4667      	mov	r7, ip
1000307c:	4770      	bx	lr
1000307e:	2800      	cmp	r0, #0
10003080:	d001      	beq.n	10003086 <udiv0+0x4>

10003082 <udiv0>:
10003082:	4807      	ldr	r0, [pc, #28]	; (100030a0 <udiv0+0x1e>)
10003084:	0001      	movs	r1, r0
10003086:	b500      	push	{lr}
10003088:	f001 fcb6 	bl	100049f8 <____aeabi_ldiv0_veneer>
1000308c:	2200      	movs	r2, #0
1000308e:	2300      	movs	r3, #0
10003090:	bd00      	pop	{pc}
10003092:	0002      	movs	r2, r0
10003094:	000b      	movs	r3, r1
10003096:	2000      	movs	r0, #0
10003098:	2100      	movs	r1, #0
1000309a:	4770      	bx	lr
1000309c:	d0000000 	.word	0xd0000000
100030a0:	ffffffff 	.word	0xffffffff

100030a4 <y64>:
100030a4:	2b00      	cmp	r3, #0
100030a6:	d000      	beq.n	100030aa <y64+0x6>
100030a8:	e0bd      	b.n	10003226 <y64_x48>
100030aa:	0c13      	lsrs	r3, r2, #16
100030ac:	d126      	bne.n	100030fc <y64_x32>
100030ae:	2a00      	cmp	r2, #0
100030b0:	d0e7      	beq.n	10003082 <udiv0>
100030b2:	b480      	push	{r7}
100030b4:	4f10      	ldr	r7, [pc, #64]	; (100030f8 <y64+0x54>)
100030b6:	6639      	str	r1, [r7, #96]	; 0x60
100030b8:	667a      	str	r2, [r7, #100]	; 0x64
100030ba:	e7ff      	b.n	100030bc <y64+0x18>
100030bc:	e7ff      	b.n	100030be <y64+0x1a>
100030be:	b430      	push	{r4, r5}
100030c0:	0c04      	lsrs	r4, r0, #16
100030c2:	6f7b      	ldr	r3, [r7, #116]	; 0x74
100030c4:	6f39      	ldr	r1, [r7, #112]	; 0x70
100030c6:	041b      	lsls	r3, r3, #16
100030c8:	4323      	orrs	r3, r4
100030ca:	663b      	str	r3, [r7, #96]	; 0x60
100030cc:	e7ff      	b.n	100030ce <y64+0x2a>
100030ce:	e7ff      	b.n	100030d0 <y64+0x2c>
100030d0:	e7ff      	b.n	100030d2 <y64+0x2e>
100030d2:	46c0      	nop			; (mov r8, r8)
100030d4:	b284      	uxth	r4, r0
100030d6:	6f7b      	ldr	r3, [r7, #116]	; 0x74
100030d8:	6f3d      	ldr	r5, [r7, #112]	; 0x70
100030da:	041b      	lsls	r3, r3, #16
100030dc:	4323      	orrs	r3, r4
100030de:	663b      	str	r3, [r7, #96]	; 0x60
100030e0:	e7ff      	b.n	100030e2 <y64+0x3e>
100030e2:	e7ff      	b.n	100030e4 <y64+0x40>
100030e4:	46c0      	nop			; (mov r8, r8)
100030e6:	2300      	movs	r3, #0
100030e8:	042c      	lsls	r4, r5, #16
100030ea:	0c2d      	lsrs	r5, r5, #16
100030ec:	6f7a      	ldr	r2, [r7, #116]	; 0x74
100030ee:	6f38      	ldr	r0, [r7, #112]	; 0x70
100030f0:	1900      	adds	r0, r0, r4
100030f2:	4169      	adcs	r1, r5
100030f4:	bcb0      	pop	{r4, r5, r7}
100030f6:	4770      	bx	lr
100030f8:	d0000000 	.word	0xd0000000

100030fc <y64_x32>:
100030fc:	b5f0      	push	{r4, r5, r6, r7, lr}
100030fe:	4694      	mov	ip, r2
10003100:	2500      	movs	r5, #0
10003102:	0e14      	lsrs	r4, r2, #24
10003104:	d101      	bne.n	1000310a <y64_x32+0xe>
10003106:	0212      	lsls	r2, r2, #8
10003108:	3508      	adds	r5, #8
1000310a:	0f14      	lsrs	r4, r2, #28
1000310c:	d101      	bne.n	10003112 <y64_x32+0x16>
1000310e:	0112      	lsls	r2, r2, #4
10003110:	3504      	adds	r5, #4
10003112:	0f94      	lsrs	r4, r2, #30
10003114:	d101      	bne.n	1000311a <y64_x32+0x1e>
10003116:	0092      	lsls	r2, r2, #2
10003118:	3502      	adds	r5, #2
1000311a:	0fd4      	lsrs	r4, r2, #31
1000311c:	d101      	bne.n	10003122 <y64_x32+0x26>
1000311e:	0052      	lsls	r2, r2, #1
10003120:	3501      	adds	r5, #1
10003122:	0bd4      	lsrs	r4, r2, #15
10003124:	3401      	adds	r4, #1
10003126:	4f25      	ldr	r7, [pc, #148]	; (100031bc <y64_x32+0xc0>)
10003128:	667c      	str	r4, [r7, #100]	; 0x64
1000312a:	4c25      	ldr	r4, [pc, #148]	; (100031c0 <y64_x32+0xc4>)
1000312c:	663c      	str	r4, [r7, #96]	; 0x60
1000312e:	0c0e      	lsrs	r6, r1, #16
10003130:	b293      	uxth	r3, r2
10003132:	e7ff      	b.n	10003134 <y64_x32+0x38>
10003134:	e7ff      	b.n	10003136 <y64_x32+0x3a>
10003136:	e7ff      	b.n	10003138 <y64_x32+0x3c>
10003138:	6f3c      	ldr	r4, [r7, #112]	; 0x70
1000313a:	4366      	muls	r6, r4
1000313c:	0c36      	lsrs	r6, r6, #16
1000313e:	0377      	lsls	r7, r6, #13
10003140:	46be      	mov	lr, r7
10003142:	4373      	muls	r3, r6
10003144:	0bdf      	lsrs	r7, r3, #15
10003146:	045b      	lsls	r3, r3, #17
10003148:	1ac0      	subs	r0, r0, r3
1000314a:	41b9      	sbcs	r1, r7
1000314c:	0c13      	lsrs	r3, r2, #16
1000314e:	4373      	muls	r3, r6
10003150:	18db      	adds	r3, r3, r3
10003152:	1ac9      	subs	r1, r1, r3
10003154:	08ce      	lsrs	r6, r1, #3
10003156:	4366      	muls	r6, r4
10003158:	0c36      	lsrs	r6, r6, #16
1000315a:	44b6      	add	lr, r6
1000315c:	b293      	uxth	r3, r2
1000315e:	4373      	muls	r3, r6
10003160:	0f1f      	lsrs	r7, r3, #28
10003162:	011b      	lsls	r3, r3, #4
10003164:	1ac0      	subs	r0, r0, r3
10003166:	41b9      	sbcs	r1, r7
10003168:	0c13      	lsrs	r3, r2, #16
1000316a:	4373      	muls	r3, r6
1000316c:	0b1f      	lsrs	r7, r3, #12
1000316e:	051b      	lsls	r3, r3, #20
10003170:	1ac0      	subs	r0, r0, r3
10003172:	41b9      	sbcs	r1, r7
10003174:	0d86      	lsrs	r6, r0, #22
10003176:	028f      	lsls	r7, r1, #10
10003178:	433e      	orrs	r6, r7
1000317a:	4366      	muls	r6, r4
1000317c:	0c36      	lsrs	r6, r6, #16
1000317e:	2d09      	cmp	r5, #9
10003180:	db24      	blt.n	100031cc <last0>
10003182:	0a52      	lsrs	r2, r2, #9
10003184:	4372      	muls	r2, r6
10003186:	1a80      	subs	r0, r0, r2
10003188:	0377      	lsls	r7, r6, #13
1000318a:	0a46      	lsrs	r6, r0, #9
1000318c:	4366      	muls	r6, r4
1000318e:	0c36      	lsrs	r6, r6, #16
10003190:	2316      	movs	r3, #22
10003192:	1b5b      	subs	r3, r3, r5
10003194:	40de      	lsrs	r6, r3
10003196:	40df      	lsrs	r7, r3
10003198:	19bf      	adds	r7, r7, r6
1000319a:	4664      	mov	r4, ip
1000319c:	4366      	muls	r6, r4
1000319e:	1b82      	subs	r2, r0, r6
100031a0:	4670      	mov	r0, lr
100031a2:	3504      	adds	r5, #4
100031a4:	3306      	adds	r3, #6
100031a6:	0001      	movs	r1, r0
100031a8:	40d9      	lsrs	r1, r3
100031aa:	40a8      	lsls	r0, r5
100031ac:	19c0      	adds	r0, r0, r7
100031ae:	d300      	bcc.n	100031b2 <y64_x32+0xb6>
100031b0:	3101      	adds	r1, #1
100031b2:	42a2      	cmp	r2, r4
100031b4:	d206      	bcs.n	100031c4 <y64_x32+0xc8>
100031b6:	2300      	movs	r3, #0
100031b8:	bdf0      	pop	{r4, r5, r6, r7, pc}
100031ba:	0000      	.short	0x0000
100031bc:	d0000000 	.word	0xd0000000
100031c0:	ffffffff 	.word	0xffffffff
100031c4:	1b12      	subs	r2, r2, r4
100031c6:	3001      	adds	r0, #1
100031c8:	d3f3      	bcc.n	100031b2 <y64_x32+0xb6>
100031ca:	e7f1      	b.n	100031b0 <y64_x32+0xb4>

100031cc <last0>:
100031cc:	2709      	movs	r7, #9
100031ce:	1b7f      	subs	r7, r7, r5
100031d0:	40fe      	lsrs	r6, r7
100031d2:	4664      	mov	r4, ip
100031d4:	b2a2      	uxth	r2, r4
100031d6:	4372      	muls	r2, r6
100031d8:	1a80      	subs	r0, r0, r2
100031da:	d200      	bcs.n	100031de <last0+0x12>
100031dc:	3901      	subs	r1, #1
100031de:	0c22      	lsrs	r2, r4, #16
100031e0:	4372      	muls	r2, r6
100031e2:	0c13      	lsrs	r3, r2, #16
100031e4:	0412      	lsls	r2, r2, #16
100031e6:	1a82      	subs	r2, r0, r2
100031e8:	4199      	sbcs	r1, r3
100031ea:	000b      	movs	r3, r1
100031ec:	4670      	mov	r0, lr
100031ee:	3504      	adds	r5, #4
100031f0:	3713      	adds	r7, #19
100031f2:	0001      	movs	r1, r0
100031f4:	40f9      	lsrs	r1, r7
100031f6:	40a8      	lsls	r0, r5
100031f8:	1980      	adds	r0, r0, r6
100031fa:	d300      	bcc.n	100031fe <last0+0x32>
100031fc:	3101      	adds	r1, #1
100031fe:	2b00      	cmp	r3, #0
10003200:	d102      	bne.n	10003208 <last0+0x3c>
10003202:	42a2      	cmp	r2, r4
10003204:	d20a      	bcs.n	1000321c <last0+0x50>
10003206:	bdf0      	pop	{r4, r5, r6, r7, pc}
10003208:	3001      	adds	r0, #1
1000320a:	d300      	bcc.n	1000320e <last0+0x42>
1000320c:	3101      	adds	r1, #1
1000320e:	1b12      	subs	r2, r2, r4
10003210:	d2fa      	bcs.n	10003208 <last0+0x3c>
10003212:	3b01      	subs	r3, #1
10003214:	d1f8      	bne.n	10003208 <last0+0x3c>
10003216:	42a2      	cmp	r2, r4
10003218:	d200      	bcs.n	1000321c <last0+0x50>
1000321a:	bdf0      	pop	{r4, r5, r6, r7, pc}
1000321c:	3001      	adds	r0, #1
1000321e:	d300      	bcc.n	10003222 <last0+0x56>
10003220:	3101      	adds	r1, #1
10003222:	1b12      	subs	r2, r2, r4
10003224:	e7f7      	b.n	10003216 <last0+0x4a>

10003226 <y64_x48>:
10003226:	b5f0      	push	{r4, r5, r6, r7, lr}
10003228:	0c1c      	lsrs	r4, r3, #16
1000322a:	d000      	beq.n	1000322e <y64_x48+0x8>
1000322c:	e080      	b.n	10003330 <y64_x64>
1000322e:	b40c      	push	{r2, r3}
10003230:	2500      	movs	r5, #0
10003232:	0a1c      	lsrs	r4, r3, #8
10003234:	d104      	bne.n	10003240 <y64_x48+0x1a>
10003236:	021b      	lsls	r3, r3, #8
10003238:	0e16      	lsrs	r6, r2, #24
1000323a:	4333      	orrs	r3, r6
1000323c:	0212      	lsls	r2, r2, #8
1000323e:	3508      	adds	r5, #8
10003240:	0b1c      	lsrs	r4, r3, #12
10003242:	d104      	bne.n	1000324e <y64_x48+0x28>
10003244:	011b      	lsls	r3, r3, #4
10003246:	0f16      	lsrs	r6, r2, #28
10003248:	4333      	orrs	r3, r6
1000324a:	0112      	lsls	r2, r2, #4
1000324c:	3504      	adds	r5, #4
1000324e:	0b9c      	lsrs	r4, r3, #14
10003250:	d104      	bne.n	1000325c <y64_x48+0x36>
10003252:	009b      	lsls	r3, r3, #2
10003254:	0f96      	lsrs	r6, r2, #30
10003256:	4333      	orrs	r3, r6
10003258:	0092      	lsls	r2, r2, #2
1000325a:	3502      	adds	r5, #2
1000325c:	0bdc      	lsrs	r4, r3, #15
1000325e:	d102      	bne.n	10003266 <y64_x48+0x40>
10003260:	1892      	adds	r2, r2, r2
10003262:	415b      	adcs	r3, r3
10003264:	3501      	adds	r5, #1
10003266:	001c      	movs	r4, r3
10003268:	1897      	adds	r7, r2, r2
1000326a:	4164      	adcs	r4, r4
1000326c:	3401      	adds	r4, #1
1000326e:	4f46      	ldr	r7, [pc, #280]	; (10003388 <y64_x64+0x58>)
10003270:	667c      	str	r4, [r7, #100]	; 0x64
10003272:	4c46      	ldr	r4, [pc, #280]	; (1000338c <y64_x64+0x5c>)
10003274:	663c      	str	r4, [r7, #96]	; 0x60
10003276:	0c0e      	lsrs	r6, r1, #16
10003278:	e7ff      	b.n	1000327a <y64_x48+0x54>
1000327a:	e7ff      	b.n	1000327c <y64_x48+0x56>
1000327c:	e7ff      	b.n	1000327e <y64_x48+0x58>
1000327e:	46c0      	nop			; (mov r8, r8)
10003280:	6f3c      	ldr	r4, [r7, #112]	; 0x70
10003282:	4366      	muls	r6, r4
10003284:	0c36      	lsrs	r6, r6, #16
10003286:	0377      	lsls	r7, r6, #13
10003288:	46be      	mov	lr, r7
1000328a:	b297      	uxth	r7, r2
1000328c:	4377      	muls	r7, r6
1000328e:	1bc0      	subs	r0, r0, r7
10003290:	d200      	bcs.n	10003294 <y64_x48+0x6e>
10003292:	3901      	subs	r1, #1
10003294:	1bc0      	subs	r0, r0, r7
10003296:	d200      	bcs.n	1000329a <y64_x48+0x74>
10003298:	3901      	subs	r1, #1
1000329a:	b29f      	uxth	r7, r3
1000329c:	4377      	muls	r7, r6
1000329e:	1bc9      	subs	r1, r1, r7
100032a0:	1bc9      	subs	r1, r1, r7
100032a2:	0c17      	lsrs	r7, r2, #16
100032a4:	4377      	muls	r7, r6
100032a6:	047e      	lsls	r6, r7, #17
100032a8:	0bff      	lsrs	r7, r7, #15
100032aa:	1b80      	subs	r0, r0, r6
100032ac:	41b9      	sbcs	r1, r7
100032ae:	08ce      	lsrs	r6, r1, #3
100032b0:	4366      	muls	r6, r4
100032b2:	0c36      	lsrs	r6, r6, #16
100032b4:	2d0c      	cmp	r5, #12
100032b6:	db33      	blt.n	10003320 <last1>
100032b8:	44b6      	add	lr, r6
100032ba:	0b12      	lsrs	r2, r2, #12
100032bc:	051f      	lsls	r7, r3, #20
100032be:	433a      	orrs	r2, r7
100032c0:	0b1b      	lsrs	r3, r3, #12
100032c2:	b297      	uxth	r7, r2
100032c4:	4377      	muls	r7, r6
100032c6:	1bc0      	subs	r0, r0, r7
100032c8:	d200      	bcs.n	100032cc <y64_x48+0xa6>
100032ca:	3901      	subs	r1, #1
100032cc:	b29f      	uxth	r7, r3
100032ce:	4377      	muls	r7, r6
100032d0:	1bc9      	subs	r1, r1, r7
100032d2:	0c17      	lsrs	r7, r2, #16
100032d4:	4377      	muls	r7, r6
100032d6:	043e      	lsls	r6, r7, #16
100032d8:	0c3f      	lsrs	r7, r7, #16
100032da:	1b80      	subs	r0, r0, r6
100032dc:	41b9      	sbcs	r1, r7
100032de:	0d86      	lsrs	r6, r0, #22
100032e0:	028f      	lsls	r7, r1, #10
100032e2:	433e      	orrs	r6, r7
100032e4:	4366      	muls	r6, r4
100032e6:	2729      	movs	r7, #41	; 0x29
100032e8:	1b7f      	subs	r7, r7, r5
100032ea:	40fe      	lsrs	r6, r7
100032ec:	3d0c      	subs	r5, #12
100032ee:	4677      	mov	r7, lr
100032f0:	40af      	lsls	r7, r5
100032f2:	19bf      	adds	r7, r7, r6
100032f4:	bc30      	pop	{r4, r5}
100032f6:	b2a2      	uxth	r2, r4
100032f8:	b2ab      	uxth	r3, r5
100032fa:	4372      	muls	r2, r6
100032fc:	4373      	muls	r3, r6
100032fe:	1a80      	subs	r0, r0, r2
10003300:	4199      	sbcs	r1, r3
10003302:	0c22      	lsrs	r2, r4, #16
10003304:	4372      	muls	r2, r6
10003306:	0c13      	lsrs	r3, r2, #16
10003308:	0412      	lsls	r2, r2, #16
1000330a:	1a80      	subs	r0, r0, r2
1000330c:	4199      	sbcs	r1, r3
1000330e:	0002      	movs	r2, r0
10003310:	000b      	movs	r3, r1
10003312:	3701      	adds	r7, #1
10003314:	1b00      	subs	r0, r0, r4
10003316:	41a9      	sbcs	r1, r5
10003318:	d2f9      	bcs.n	1000330e <y64_x48+0xe8>
1000331a:	1e78      	subs	r0, r7, #1
1000331c:	2100      	movs	r1, #0
1000331e:	bdf0      	pop	{r4, r5, r6, r7, pc}

10003320 <last1>:
10003320:	270c      	movs	r7, #12
10003322:	1b7f      	subs	r7, r7, r5
10003324:	40fe      	lsrs	r6, r7
10003326:	4677      	mov	r7, lr
10003328:	0b7f      	lsrs	r7, r7, #13
1000332a:	40af      	lsls	r7, r5
1000332c:	19ff      	adds	r7, r7, r7
1000332e:	e7e0      	b.n	100032f2 <y64_x48+0xcc>

10003330 <y64_x64>:
10003330:	2400      	movs	r4, #0
10003332:	1c5d      	adds	r5, r3, #1
10003334:	d007      	beq.n	10003346 <y64_x64+0x16>
10003336:	4f14      	ldr	r7, [pc, #80]	; (10003388 <y64_x64+0x58>)
10003338:	667d      	str	r5, [r7, #100]	; 0x64
1000333a:	6639      	str	r1, [r7, #96]	; 0x60
1000333c:	e7ff      	b.n	1000333e <y64_x64+0xe>
1000333e:	e7ff      	b.n	10003340 <y64_x64+0x10>
10003340:	e7ff      	b.n	10003342 <y64_x64+0x12>
10003342:	e7ff      	b.n	10003344 <y64_x64+0x14>
10003344:	6f3c      	ldr	r4, [r7, #112]	; 0x70
10003346:	b295      	uxth	r5, r2
10003348:	b29e      	uxth	r6, r3
1000334a:	4365      	muls	r5, r4
1000334c:	4366      	muls	r6, r4
1000334e:	1b40      	subs	r0, r0, r5
10003350:	41b1      	sbcs	r1, r6
10003352:	0c15      	lsrs	r5, r2, #16
10003354:	0c1e      	lsrs	r6, r3, #16
10003356:	4365      	muls	r5, r4
10003358:	4366      	muls	r6, r4
1000335a:	0436      	lsls	r6, r6, #16
1000335c:	0c2f      	lsrs	r7, r5, #16
1000335e:	433e      	orrs	r6, r7
10003360:	042d      	lsls	r5, r5, #16
10003362:	1b40      	subs	r0, r0, r5
10003364:	41b1      	sbcs	r1, r6
10003366:	4299      	cmp	r1, r3
10003368:	d204      	bcs.n	10003374 <y64_x64+0x44>
1000336a:	0002      	movs	r2, r0
1000336c:	000b      	movs	r3, r1
1000336e:	0020      	movs	r0, r4
10003370:	2100      	movs	r1, #0
10003372:	bdf0      	pop	{r4, r5, r6, r7, pc}
10003374:	d101      	bne.n	1000337a <y64_x64+0x4a>
10003376:	4290      	cmp	r0, r2
10003378:	d3f7      	bcc.n	1000336a <y64_x64+0x3a>
1000337a:	1a80      	subs	r0, r0, r2
1000337c:	4199      	sbcs	r1, r3
1000337e:	3401      	adds	r4, #1
10003380:	4299      	cmp	r1, r3
10003382:	d3f2      	bcc.n	1000336a <y64_x64+0x3a>
10003384:	e7f6      	b.n	10003374 <y64_x64+0x44>
10003386:	0000      	.short	0x0000
10003388:	d0000000 	.word	0xd0000000
1000338c:	ffffffff 	.word	0xffffffff

10003390 <__wrap___aeabi_drsub>:
10003390:	4048      	eors	r0, r1
10003392:	4041      	eors	r1, r0
10003394:	4048      	eors	r0, r1

10003396 <__wrap___aeabi_dsub>:
10003396:	b418      	push	{r3, r4}
10003398:	4b11      	ldr	r3, [pc, #68]	; (100033e0 <__wrap___aeabi_dmul+0x14>)
1000339a:	685b      	ldr	r3, [r3, #4]
1000339c:	46fc      	mov	ip, pc
1000339e:	9301      	str	r3, [sp, #4]
100033a0:	bd08      	pop	{r3, pc}
100033a2:	df04      	.short	0xdf04
100033a4:	1000361b 	.word	0x1000361b

100033a8 <__wrap___aeabi_dadd>:
100033a8:	b418      	push	{r3, r4}
100033aa:	4b0d      	ldr	r3, [pc, #52]	; (100033e0 <__wrap___aeabi_dmul+0x14>)
100033ac:	681b      	ldr	r3, [r3, #0]
100033ae:	46fc      	mov	ip, pc
100033b0:	9301      	str	r3, [sp, #4]
100033b2:	bd08      	pop	{r3, pc}
100033b4:	3625df00 	.word	0x3625df00
100033b8:	1000      	.short	0x1000

100033ba <__wrap___aeabi_ddiv>:
100033ba:	b418      	push	{r3, r4}
100033bc:	4b08      	ldr	r3, [pc, #32]	; (100033e0 <__wrap___aeabi_dmul+0x14>)
100033be:	68db      	ldr	r3, [r3, #12]
100033c0:	46fc      	mov	ip, pc
100033c2:	9301      	str	r3, [sp, #4]
100033c4:	bd08      	pop	{r3, pc}
100033c6:	df0c      	.short	0xdf0c
100033c8:	100038dd 	.word	0x100038dd

100033cc <__wrap___aeabi_dmul>:
100033cc:	b418      	push	{r3, r4}
100033ce:	4b04      	ldr	r3, [pc, #16]	; (100033e0 <__wrap___aeabi_dmul+0x14>)
100033d0:	689b      	ldr	r3, [r3, #8]
100033d2:	46fc      	mov	ip, pc
100033d4:	9301      	str	r3, [sp, #4]
100033d6:	bd08      	pop	{r3, pc}
100033d8:	3781df08 	.word	0x3781df08
100033dc:	00001000 	.word	0x00001000
100033e0:	20000b30 	.word	0x20000b30

100033e4 <__wrap___aeabi_cdrcmple>:
100033e4:	b5ff      	push	{r0, r1, r2, r3, r4, r5, r6, r7, lr}
100033e6:	4050      	eors	r0, r2
100033e8:	4042      	eors	r2, r0
100033ea:	4050      	eors	r0, r2
100033ec:	4059      	eors	r1, r3
100033ee:	404b      	eors	r3, r1
100033f0:	4059      	eors	r1, r3
100033f2:	e000      	b.n	100033f6 <__aeabi_dfcmple_guts>

100033f4 <__wrap___aeabi_cdcmpeq>:
100033f4:	b5ff      	push	{r0, r1, r2, r3, r4, r5, r6, r7, lr}

100033f6 <__aeabi_dfcmple_guts>:
100033f6:	4f15      	ldr	r7, [pc, #84]	; (1000344c <__aeabi_dfcmple_guts+0x56>)
100033f8:	004c      	lsls	r4, r1, #1
100033fa:	0d64      	lsrs	r4, r4, #21
100033fc:	d003      	beq.n	10003406 <__aeabi_dfcmple_guts+0x10>
100033fe:	42bc      	cmp	r4, r7
10003400:	d104      	bne.n	1000340c <__aeabi_dfcmple_guts+0x16>
10003402:	030c      	lsls	r4, r1, #12
10003404:	d814      	bhi.n	10003430 <__aeabi_dfcmple_guts+0x3a>
10003406:	2000      	movs	r0, #0
10003408:	0d09      	lsrs	r1, r1, #20
1000340a:	0509      	lsls	r1, r1, #20
1000340c:	005c      	lsls	r4, r3, #1
1000340e:	0d64      	lsrs	r4, r4, #21
10003410:	d003      	beq.n	1000341a <__aeabi_dfcmple_guts+0x24>
10003412:	42bc      	cmp	r4, r7
10003414:	d104      	bne.n	10003420 <__aeabi_dfcmple_guts+0x2a>
10003416:	031c      	lsls	r4, r3, #12
10003418:	d80a      	bhi.n	10003430 <__aeabi_dfcmple_guts+0x3a>
1000341a:	2200      	movs	r2, #0
1000341c:	0d1b      	lsrs	r3, r3, #20
1000341e:	051b      	lsls	r3, r3, #20
10003420:	2601      	movs	r6, #1
10003422:	404b      	eors	r3, r1
10003424:	d409      	bmi.n	1000343a <__aeabi_dfcmple_guts+0x44>
10003426:	404b      	eors	r3, r1
10003428:	d503      	bpl.n	10003432 <__aeabi_dfcmple_guts+0x3c>
1000342a:	428b      	cmp	r3, r1
1000342c:	d100      	bne.n	10003430 <__aeabi_dfcmple_guts+0x3a>
1000342e:	4282      	cmp	r2, r0
10003430:	bdff      	pop	{r0, r1, r2, r3, r4, r5, r6, r7, pc}
10003432:	4299      	cmp	r1, r3
10003434:	d1fc      	bne.n	10003430 <__aeabi_dfcmple_guts+0x3a>
10003436:	4290      	cmp	r0, r2
10003438:	bdff      	pop	{r0, r1, r2, r3, r4, r5, r6, r7, pc}
1000343a:	430b      	orrs	r3, r1
1000343c:	18db      	adds	r3, r3, r3
1000343e:	4303      	orrs	r3, r0
10003440:	4313      	orrs	r3, r2
10003442:	d0f5      	beq.n	10003430 <__aeabi_dfcmple_guts+0x3a>
10003444:	43c9      	mvns	r1, r1
10003446:	1849      	adds	r1, r1, r1
10003448:	bdff      	pop	{r0, r1, r2, r3, r4, r5, r6, r7, pc}
1000344a:	0000      	.short	0x0000
1000344c:	000007ff 	.word	0x000007ff

10003450 <__wrap___aeabi_dcmplt>:
10003450:	b500      	push	{lr}
10003452:	f7ff ffcf 	bl	100033f4 <__wrap___aeabi_cdcmpeq>
10003456:	4180      	sbcs	r0, r0
10003458:	bd00      	pop	{pc}
1000345a:	46c0      	nop			; (mov r8, r8)

1000345c <__wrap___aeabi_dcmple>:
1000345c:	b500      	push	{lr}
1000345e:	f7ff ffc9 	bl	100033f4 <__wrap___aeabi_cdcmpeq>
10003462:	d901      	bls.n	10003468 <__wrap___aeabi_dcmple+0xc>
10003464:	2000      	movs	r0, #0
10003466:	bd00      	pop	{pc}
10003468:	2001      	movs	r0, #1
1000346a:	bd00      	pop	{pc}

1000346c <__wrap___aeabi_dcmpge>:
1000346c:	b500      	push	{lr}
1000346e:	f7ff ffb9 	bl	100033e4 <__wrap___aeabi_cdrcmple>
10003472:	d901      	bls.n	10003478 <__wrap___aeabi_dcmpge+0xc>
10003474:	2000      	movs	r0, #0
10003476:	bd00      	pop	{pc}
10003478:	2001      	movs	r0, #1
1000347a:	bd00      	pop	{pc}

1000347c <__wrap___aeabi_dcmpgt>:
1000347c:	b500      	push	{lr}
1000347e:	f7ff ffb1 	bl	100033e4 <__wrap___aeabi_cdrcmple>
10003482:	4180      	sbcs	r0, r0
10003484:	bd00      	pop	{pc}

10003486 <__wrap___aeabi_dcmpun>:
10003486:	2001      	movs	r0, #1
10003488:	0540      	lsls	r0, r0, #21
1000348a:	004a      	lsls	r2, r1, #1
1000348c:	1812      	adds	r2, r2, r0
1000348e:	d804      	bhi.n	1000349a <__wrap___aeabi_dcmpun+0x14>
10003490:	005a      	lsls	r2, r3, #1
10003492:	1812      	adds	r2, r2, r0
10003494:	d801      	bhi.n	1000349a <__wrap___aeabi_dcmpun+0x14>
10003496:	2000      	movs	r0, #0
10003498:	4770      	bx	lr
1000349a:	2001      	movs	r0, #1
1000349c:	4770      	bx	lr
1000349e:	2000      	movs	r0, #0
100034a0:	4770      	bx	lr
	...

100034a4 <__wrap___aeabi_ui2d>:
100034a4:	2100      	movs	r1, #0
100034a6:	2800      	cmp	r0, #0
100034a8:	d105      	bne.n	100034b6 <__wrap___aeabi_i2d+0xa>
100034aa:	4770      	bx	lr

100034ac <__wrap___aeabi_i2d>:
100034ac:	17c1      	asrs	r1, r0, #31
100034ae:	4048      	eors	r0, r1
100034b0:	1a40      	subs	r0, r0, r1
100034b2:	d0fa      	beq.n	100034aa <__wrap___aeabi_ui2d+0x6>
100034b4:	07c9      	lsls	r1, r1, #31
100034b6:	b513      	push	{r0, r1, r4, lr}
100034b8:	4b06      	ldr	r3, [pc, #24]	; (100034d4 <__wrap___aeabi_i2d+0x28>)
100034ba:	681b      	ldr	r3, [r3, #0]
100034bc:	4798      	blx	r3
100034be:	bc0c      	pop	{r2, r3}
100034c0:	1c44      	adds	r4, r0, #1
100034c2:	40a2      	lsls	r2, r4
100034c4:	0510      	lsls	r0, r2, #20
100034c6:	0b12      	lsrs	r2, r2, #12
100034c8:	4903      	ldr	r1, [pc, #12]	; (100034d8 <__wrap___aeabi_i2d+0x2c>)
100034ca:	1b09      	subs	r1, r1, r4
100034cc:	0509      	lsls	r1, r1, #20
100034ce:	4319      	orrs	r1, r3
100034d0:	4311      	orrs	r1, r2
100034d2:	bd10      	pop	{r4, pc}
100034d4:	20000d30 	.word	0x20000d30
100034d8:	0000041f 	.word	0x0000041f

100034dc <__wrap___aeabi_d2iz>:
100034dc:	b510      	push	{r4, lr}
100034de:	004c      	lsls	r4, r1, #1
100034e0:	0d62      	lsrs	r2, r4, #21
100034e2:	2380      	movs	r3, #128	; 0x80
100034e4:	18d2      	adds	r2, r2, r3
100034e6:	00db      	lsls	r3, r3, #3
100034e8:	1ad2      	subs	r2, r2, r3
100034ea:	055b      	lsls	r3, r3, #21
100034ec:	2a7e      	cmp	r2, #126	; 0x7e
100034ee:	dd10      	ble.n	10003512 <__wrap___aeabi_d2iz+0x36>
100034f0:	3a9e      	subs	r2, #158	; 0x9e
100034f2:	da13      	bge.n	1000351c <__wrap___aeabi_d2iz+0x40>
100034f4:	17cc      	asrs	r4, r1, #31
100034f6:	0309      	lsls	r1, r1, #12
100034f8:	0849      	lsrs	r1, r1, #1
100034fa:	4319      	orrs	r1, r3
100034fc:	4252      	negs	r2, r2
100034fe:	40d1      	lsrs	r1, r2
10003500:	0064      	lsls	r4, r4, #1
10003502:	3401      	adds	r4, #1
10003504:	3215      	adds	r2, #21
10003506:	2a20      	cmp	r2, #32
10003508:	da05      	bge.n	10003516 <__wrap___aeabi_d2iz+0x3a>
1000350a:	40d0      	lsrs	r0, r2
1000350c:	4308      	orrs	r0, r1
1000350e:	4360      	muls	r0, r4
10003510:	bd10      	pop	{r4, pc}
10003512:	2000      	movs	r0, #0
10003514:	bd10      	pop	{r4, pc}
10003516:	4608      	mov	r0, r1
10003518:	4360      	muls	r0, r4
1000351a:	bd10      	pop	{r4, pc}
1000351c:	0fc8      	lsrs	r0, r1, #31
1000351e:	18c0      	adds	r0, r0, r3
10003520:	3801      	subs	r0, #1
10003522:	bd10      	pop	{r4, pc}

10003524 <__wrap___aeabi_d2uiz>:
10003524:	b418      	push	{r3, r4}
10003526:	4b04      	ldr	r3, [pc, #16]	; (10003538 <__wrap___aeabi_d2uiz+0x14>)
10003528:	6a5b      	ldr	r3, [r3, #36]	; 0x24
1000352a:	46fc      	mov	ip, pc
1000352c:	9301      	str	r3, [sp, #4]
1000352e:	bd08      	pop	{r3, pc}
10003530:	3b09df24 	.word	0x3b09df24
10003534:	00001000 	.word	0x00001000
10003538:	20000b30 	.word	0x20000b30

1000353c <__aeabi_double_init>:
1000353c:	2313      	movs	r3, #19
1000353e:	b570      	push	{r4, r5, r6, lr}
10003540:	781d      	ldrb	r5, [r3, #0]
10003542:	2d01      	cmp	r5, #1
10003544:	d010      	beq.n	10003568 <__aeabi_double_init+0x2c>
10003546:	dd0b      	ble.n	10003560 <__aeabi_double_init+0x24>
10003548:	4824      	ldr	r0, [pc, #144]	; (100035dc <__aeabi_double_init+0xa0>)
1000354a:	f7ff fc8d 	bl	10002e68 <rom_data_lookup>
1000354e:	4c24      	ldr	r4, [pc, #144]	; (100035e0 <__aeabi_double_init+0xa4>)
10003550:	0001      	movs	r1, r0
10003552:	2280      	movs	r2, #128	; 0x80
10003554:	0020      	movs	r0, r4
10003556:	f000 fb91 	bl	10003c7c <__wrap___aeabi_memcpy>
1000355a:	2d02      	cmp	r5, #2
1000355c:	d001      	beq.n	10003562 <__aeabi_double_init+0x26>
1000355e:	bd70      	pop	{r4, r5, r6, pc}
10003560:	4c1f      	ldr	r4, [pc, #124]	; (100035e0 <__aeabi_double_init+0xa4>)
10003562:	4a20      	ldr	r2, [pc, #128]	; (100035e4 <__aeabi_double_init+0xa8>)
10003564:	64a2      	str	r2, [r4, #72]	; 0x48
10003566:	e7fa      	b.n	1000355e <__aeabi_double_init+0x22>
10003568:	002e      	movs	r6, r5
1000356a:	4c1d      	ldr	r4, [pc, #116]	; (100035e0 <__aeabi_double_init+0xa4>)
1000356c:	4a1d      	ldr	r2, [pc, #116]	; (100035e4 <__aeabi_double_init+0xa8>)
1000356e:	08a3      	lsrs	r3, r4, #2
10003570:	425b      	negs	r3, r3
10003572:	401e      	ands	r6, r3
10003574:	421d      	tst	r5, r3
10003576:	d02f      	beq.n	100035d8 <__aeabi_double_init+0x9c>
10003578:	0033      	movs	r3, r6
1000357a:	6022      	str	r2, [r4, #0]
1000357c:	2020      	movs	r0, #32
1000357e:	00b1      	lsls	r1, r6, #2
10003580:	1861      	adds	r1, r4, r1
10003582:	1b80      	subs	r0, r0, r6
10003584:	600a      	str	r2, [r1, #0]
10003586:	604a      	str	r2, [r1, #4]
10003588:	608a      	str	r2, [r1, #8]
1000358a:	60ca      	str	r2, [r1, #12]
1000358c:	610a      	str	r2, [r1, #16]
1000358e:	614a      	str	r2, [r1, #20]
10003590:	618a      	str	r2, [r1, #24]
10003592:	61ca      	str	r2, [r1, #28]
10003594:	620a      	str	r2, [r1, #32]
10003596:	624a      	str	r2, [r1, #36]	; 0x24
10003598:	628a      	str	r2, [r1, #40]	; 0x28
1000359a:	62ca      	str	r2, [r1, #44]	; 0x2c
1000359c:	630a      	str	r2, [r1, #48]	; 0x30
1000359e:	634a      	str	r2, [r1, #52]	; 0x34
100035a0:	638a      	str	r2, [r1, #56]	; 0x38
100035a2:	63ca      	str	r2, [r1, #60]	; 0x3c
100035a4:	640a      	str	r2, [r1, #64]	; 0x40
100035a6:	644a      	str	r2, [r1, #68]	; 0x44
100035a8:	648a      	str	r2, [r1, #72]	; 0x48
100035aa:	64ca      	str	r2, [r1, #76]	; 0x4c
100035ac:	650a      	str	r2, [r1, #80]	; 0x50
100035ae:	654a      	str	r2, [r1, #84]	; 0x54
100035b0:	658a      	str	r2, [r1, #88]	; 0x58
100035b2:	65ca      	str	r2, [r1, #92]	; 0x5c
100035b4:	660a      	str	r2, [r1, #96]	; 0x60
100035b6:	664a      	str	r2, [r1, #100]	; 0x64
100035b8:	668a      	str	r2, [r1, #104]	; 0x68
100035ba:	66ca      	str	r2, [r1, #108]	; 0x6c
100035bc:	670a      	str	r2, [r1, #112]	; 0x70
100035be:	674a      	str	r2, [r1, #116]	; 0x74
100035c0:	0840      	lsrs	r0, r0, #1
100035c2:	2810      	cmp	r0, #16
100035c4:	d103      	bne.n	100035ce <__aeabi_double_init+0x92>
100035c6:	678a      	str	r2, [r1, #120]	; 0x78
100035c8:	67ca      	str	r2, [r1, #124]	; 0x7c
100035ca:	64a2      	str	r2, [r4, #72]	; 0x48
100035cc:	e7c7      	b.n	1000355e <__aeabi_double_init+0x22>
100035ce:	331e      	adds	r3, #30
100035d0:	009b      	lsls	r3, r3, #2
100035d2:	50e2      	str	r2, [r4, r3]
100035d4:	64a2      	str	r2, [r4, #72]	; 0x48
100035d6:	e7c2      	b.n	1000355e <__aeabi_double_init+0x22>
100035d8:	2300      	movs	r3, #0
100035da:	e7cf      	b.n	1000357c <__aeabi_double_init+0x40>
100035dc:	00004453 	.word	0x00004453
100035e0:	20000b30 	.word	0x20000b30
100035e4:	100035e9 	.word	0x100035e9

100035e8 <double_table_shim_on_use_helper>:
100035e8:	b507      	push	{r0, r1, r2, lr}
100035ea:	4660      	mov	r0, ip
100035ec:	8801      	ldrh	r1, [r0, #0]
100035ee:	0a0a      	lsrs	r2, r1, #8
100035f0:	3002      	adds	r0, #2
100035f2:	2adf      	cmp	r2, #223	; 0xdf
100035f4:	d1fa      	bne.n	100035ec <double_table_shim_on_use_helper+0x4>
100035f6:	b2c9      	uxtb	r1, r1
100035f8:	0882      	lsrs	r2, r0, #2
100035fa:	d304      	bcc.n	10003606 <double_table_shim_on_use_helper+0x1e>
100035fc:	8802      	ldrh	r2, [r0, #0]
100035fe:	8840      	ldrh	r0, [r0, #2]
10003600:	0400      	lsls	r0, r0, #16
10003602:	4310      	orrs	r0, r2
10003604:	e000      	b.n	10003608 <double_table_shim_on_use_helper+0x20>
10003606:	6800      	ldr	r0, [r0, #0]
10003608:	4a01      	ldr	r2, [pc, #4]	; (10003610 <double_table_shim_on_use_helper+0x28>)
1000360a:	5050      	str	r0, [r2, r1]
1000360c:	9003      	str	r0, [sp, #12]
1000360e:	bd07      	pop	{r0, r1, r2, pc}
10003610:	20000b30 	.word	0x20000b30

10003614 <drsub_shim>:
10003614:	b40f      	push	{r0, r1, r2, r3}
10003616:	bc03      	pop	{r0, r1}
10003618:	bc0c      	pop	{r2, r3}

1000361a <dsub_shim>:
1000361a:	b5f0      	push	{r4, r5, r6, r7, lr}
1000361c:	2401      	movs	r4, #1
1000361e:	07e4      	lsls	r4, r4, #31
10003620:	4063      	eors	r3, r4
10003622:	e000      	b.n	10003626 <da_entry>

10003624 <dadd_shim>:
10003624:	b5f0      	push	{r4, r5, r6, r7, lr}

10003626 <da_entry>:
10003626:	0d0c      	lsrs	r4, r1, #20
10003628:	0fcf      	lsrs	r7, r1, #31
1000362a:	1e66      	subs	r6, r4, #1
1000362c:	0536      	lsls	r6, r6, #20
1000362e:	1b89      	subs	r1, r1, r6
10003630:	0564      	lsls	r4, r4, #21
10003632:	d303      	bcc.n	1000363c <l7_1>
10003634:	43c9      	mvns	r1, r1
10003636:	4240      	negs	r0, r0
10003638:	d300      	bcc.n	1000363c <l7_1>
1000363a:	3101      	adds	r1, #1

1000363c <l7_1>:
1000363c:	0d64      	lsrs	r4, r4, #21
1000363e:	d003      	beq.n	10003648 <l7_2>
10003640:	1c66      	adds	r6, r4, #1
10003642:	0af6      	lsrs	r6, r6, #11
10003644:	d007      	beq.n	10003656 <l7_3>
10003646:	1be4      	subs	r4, r4, r7

10003648 <l7_2>:
10003648:	2000      	movs	r0, #0
1000364a:	007f      	lsls	r7, r7, #1
1000364c:	1c79      	adds	r1, r7, #1
1000364e:	0789      	lsls	r1, r1, #30
10003650:	1289      	asrs	r1, r1, #10
10003652:	3c80      	subs	r4, #128	; 0x80
10003654:	0324      	lsls	r4, r4, #12

10003656 <l7_3>:
10003656:	0d1d      	lsrs	r5, r3, #20
10003658:	0fdf      	lsrs	r7, r3, #31
1000365a:	1e6e      	subs	r6, r5, #1
1000365c:	0536      	lsls	r6, r6, #20
1000365e:	1b9b      	subs	r3, r3, r6
10003660:	056d      	lsls	r5, r5, #21
10003662:	d303      	bcc.n	1000366c <l8_1>
10003664:	43db      	mvns	r3, r3
10003666:	4252      	negs	r2, r2
10003668:	d300      	bcc.n	1000366c <l8_1>
1000366a:	3301      	adds	r3, #1

1000366c <l8_1>:
1000366c:	0d6d      	lsrs	r5, r5, #21
1000366e:	d003      	beq.n	10003678 <l8_2>
10003670:	1c6e      	adds	r6, r5, #1
10003672:	0af6      	lsrs	r6, r6, #11
10003674:	d007      	beq.n	10003686 <l8_3>
10003676:	1bed      	subs	r5, r5, r7

10003678 <l8_2>:
10003678:	2200      	movs	r2, #0
1000367a:	007f      	lsls	r7, r7, #1
1000367c:	1c7b      	adds	r3, r7, #1
1000367e:	079b      	lsls	r3, r3, #30
10003680:	129b      	asrs	r3, r3, #10
10003682:	3d80      	subs	r5, #128	; 0x80
10003684:	032d      	lsls	r5, r5, #12

10003686 <l8_3>:
10003686:	1b2f      	subs	r7, r5, r4
10003688:	1b66      	subs	r6, r4, r5
1000368a:	d458      	bmi.n	1000373e <da_ygtx>
1000368c:	46a4      	mov	ip, r4
1000368e:	2e20      	cmp	r6, #32
10003690:	da46      	bge.n	10003720 <da_xrgty>
10003692:	3720      	adds	r7, #32
10003694:	0014      	movs	r4, r2
10003696:	40bc      	lsls	r4, r7

10003698 <da_xgty0>:
10003698:	001d      	movs	r5, r3
1000369a:	40bd      	lsls	r5, r7
1000369c:	40f2      	lsrs	r2, r6
1000369e:	4133      	asrs	r3, r6
100036a0:	432a      	orrs	r2, r5

100036a2 <da_add>:
100036a2:	1880      	adds	r0, r0, r2
100036a4:	4159      	adcs	r1, r3

100036a6 <da_pack>:
100036a6:	0fcb      	lsrs	r3, r1, #31
100036a8:	d005      	beq.n	100036b6 <da_pack+0x10>
100036aa:	43c9      	mvns	r1, r1
100036ac:	43c0      	mvns	r0, r0
100036ae:	2200      	movs	r2, #0
100036b0:	4264      	negs	r4, r4
100036b2:	4150      	adcs	r0, r2
100036b4:	4151      	adcs	r1, r2
100036b6:	4662      	mov	r2, ip
100036b8:	0d4d      	lsrs	r5, r1, #21
100036ba:	d128      	bne.n	1000370e <da_0>
100036bc:	0d0d      	lsrs	r5, r1, #20
100036be:	d107      	bne.n	100036d0 <da_1>
100036c0:	2800      	cmp	r0, #0
100036c2:	d01f      	beq.n	10003704 <da_5>

100036c4 <da_2>:
100036c4:	1924      	adds	r4, r4, r4
100036c6:	4140      	adcs	r0, r0
100036c8:	4149      	adcs	r1, r1
100036ca:	3a01      	subs	r2, #1
100036cc:	0d0d      	lsrs	r5, r1, #20
100036ce:	d0f9      	beq.n	100036c4 <da_2>

100036d0 <da_1>:
100036d0:	0064      	lsls	r4, r4, #1
100036d2:	d306      	bcc.n	100036e2 <da_3>

100036d4 <da_4>:
100036d4:	3001      	adds	r0, #1
100036d6:	d300      	bcc.n	100036da <da_4+0x6>
100036d8:	3101      	adds	r1, #1
100036da:	2c00      	cmp	r4, #0
100036dc:	d101      	bne.n	100036e2 <da_3>
100036de:	0840      	lsrs	r0, r0, #1
100036e0:	0040      	lsls	r0, r0, #1

100036e2 <da_3>:
100036e2:	3a01      	subs	r2, #1
100036e4:	d40b      	bmi.n	100036fe <da_6>
100036e6:	1c94      	adds	r4, r2, #2
100036e8:	0ae4      	lsrs	r4, r4, #11
100036ea:	d104      	bne.n	100036f6 <da_7>
100036ec:	0512      	lsls	r2, r2, #20
100036ee:	4411      	add	r1, r2
100036f0:	07db      	lsls	r3, r3, #31
100036f2:	4419      	add	r1, r3
100036f4:	bdf0      	pop	{r4, r5, r6, r7, pc}

100036f6 <da_7>:
100036f6:	07d9      	lsls	r1, r3, #31
100036f8:	4b20      	ldr	r3, [pc, #128]	; (1000377c <da_xmgty+0x4>)
100036fa:	4319      	orrs	r1, r3
100036fc:	e000      	b.n	10003700 <da_6+0x2>

100036fe <da_6>:
100036fe:	07d9      	lsls	r1, r3, #31
10003700:	2000      	movs	r0, #0
10003702:	bdf0      	pop	{r4, r5, r6, r7, pc}

10003704 <da_5>:
10003704:	2900      	cmp	r1, #0
10003706:	d1dd      	bne.n	100036c4 <da_2>
10003708:	2c00      	cmp	r4, #0
1000370a:	d1db      	bne.n	100036c4 <da_2>
1000370c:	bdf0      	pop	{r4, r5, r6, r7, pc}

1000370e <da_0>:
1000370e:	3201      	adds	r2, #1
10003710:	07c6      	lsls	r6, r0, #31
10003712:	0840      	lsrs	r0, r0, #1
10003714:	07cd      	lsls	r5, r1, #31
10003716:	4328      	orrs	r0, r5
10003718:	0849      	lsrs	r1, r1, #1
1000371a:	2e00      	cmp	r6, #0
1000371c:	d0e1      	beq.n	100036e2 <da_3>
1000371e:	e7d9      	b.n	100036d4 <da_4>

10003720 <da_xrgty>:
10003720:	2e3c      	cmp	r6, #60	; 0x3c
10003722:	da29      	bge.n	10003778 <da_xmgty>
10003724:	3e20      	subs	r6, #32
10003726:	3740      	adds	r7, #64	; 0x40
10003728:	0014      	movs	r4, r2
1000372a:	40bc      	lsls	r4, r7
1000372c:	d000      	beq.n	10003730 <da_xrgty+0x10>
1000372e:	2401      	movs	r4, #1
10003730:	40f2      	lsrs	r2, r6
10003732:	4314      	orrs	r4, r2
10003734:	001a      	movs	r2, r3
10003736:	40bb      	lsls	r3, r7
10003738:	431c      	orrs	r4, r3
1000373a:	17d3      	asrs	r3, r2, #31
1000373c:	e7ac      	b.n	10003698 <da_xgty0>

1000373e <da_ygtx>:
1000373e:	46ac      	mov	ip, r5
10003740:	2f20      	cmp	r7, #32
10003742:	da08      	bge.n	10003756 <da_yrgtx>
10003744:	3620      	adds	r6, #32
10003746:	0004      	movs	r4, r0
10003748:	40b4      	lsls	r4, r6

1000374a <da_ygtx0>:
1000374a:	000d      	movs	r5, r1
1000374c:	40b5      	lsls	r5, r6
1000374e:	40f8      	lsrs	r0, r7
10003750:	4139      	asrs	r1, r7
10003752:	4328      	orrs	r0, r5
10003754:	e7a5      	b.n	100036a2 <da_add>

10003756 <da_yrgtx>:
10003756:	2f3c      	cmp	r7, #60	; 0x3c
10003758:	da0c      	bge.n	10003774 <da_ymgtx>
1000375a:	3f20      	subs	r7, #32
1000375c:	3640      	adds	r6, #64	; 0x40
1000375e:	0004      	movs	r4, r0
10003760:	40b4      	lsls	r4, r6
10003762:	d000      	beq.n	10003766 <da_yrgtx+0x10>
10003764:	2401      	movs	r4, #1
10003766:	40f8      	lsrs	r0, r7
10003768:	4304      	orrs	r4, r0
1000376a:	0008      	movs	r0, r1
1000376c:	40b1      	lsls	r1, r6
1000376e:	430c      	orrs	r4, r1
10003770:	17c1      	asrs	r1, r0, #31
10003772:	e7ea      	b.n	1000374a <da_ygtx0>

10003774 <da_ymgtx>:
10003774:	0010      	movs	r0, r2
10003776:	0019      	movs	r1, r3

10003778 <da_xmgty>:
10003778:	2400      	movs	r4, #0
1000377a:	e794      	b.n	100036a6 <da_pack>
1000377c:	7ff00000 	.word	0x7ff00000

10003780 <dmul_shim>:
10003780:	b5f0      	push	{r4, r5, r6, r7, lr}
10003782:	0d0c      	lsrs	r4, r1, #20
10003784:	1e66      	subs	r6, r4, #1
10003786:	0536      	lsls	r6, r6, #20
10003788:	1b89      	subs	r1, r1, r6
1000378a:	0ae6      	lsrs	r6, r4, #11
1000378c:	0564      	lsls	r4, r4, #21
1000378e:	0d64      	lsrs	r4, r4, #21
10003790:	d002      	beq.n	10003798 <l11_1>
10003792:	1c65      	adds	r5, r4, #1
10003794:	0aed      	lsrs	r5, r5, #11
10003796:	d004      	beq.n	100037a2 <l11_2>

10003798 <l11_1>:
10003798:	2000      	movs	r0, #0
1000379a:	2101      	movs	r1, #1
1000379c:	0509      	lsls	r1, r1, #20
1000379e:	3c80      	subs	r4, #128	; 0x80
100037a0:	0324      	lsls	r4, r4, #12

100037a2 <l11_2>:
100037a2:	46a4      	mov	ip, r4
100037a4:	0d1c      	lsrs	r4, r3, #20
100037a6:	1e67      	subs	r7, r4, #1
100037a8:	053f      	lsls	r7, r7, #20
100037aa:	1bdb      	subs	r3, r3, r7
100037ac:	0ae7      	lsrs	r7, r4, #11
100037ae:	0564      	lsls	r4, r4, #21
100037b0:	0d64      	lsrs	r4, r4, #21
100037b2:	d002      	beq.n	100037ba <l12_1>
100037b4:	1c65      	adds	r5, r4, #1
100037b6:	0aed      	lsrs	r5, r5, #11
100037b8:	d004      	beq.n	100037c4 <l12_2>

100037ba <l12_1>:
100037ba:	2200      	movs	r2, #0
100037bc:	2301      	movs	r3, #1
100037be:	051b      	lsls	r3, r3, #20
100037c0:	3c80      	subs	r4, #128	; 0x80
100037c2:	0324      	lsls	r4, r4, #12

100037c4 <l12_2>:
100037c4:	4077      	eors	r7, r6
100037c6:	4464      	add	r4, ip
100037c8:	b497      	push	{r0, r1, r2, r4, r7}
100037ca:	b284      	uxth	r4, r0
100037cc:	b296      	uxth	r6, r2
100037ce:	4374      	muls	r4, r6
100037d0:	0c07      	lsrs	r7, r0, #16
100037d2:	437e      	muls	r6, r7
100037d4:	0c15      	lsrs	r5, r2, #16
100037d6:	436f      	muls	r7, r5
100037d8:	b280      	uxth	r0, r0
100037da:	4368      	muls	r0, r5
100037dc:	1836      	adds	r6, r6, r0
100037de:	d302      	bcc.n	100037e6 <l13_1>
100037e0:	2001      	movs	r0, #1
100037e2:	0400      	lsls	r0, r0, #16
100037e4:	183f      	adds	r7, r7, r0

100037e6 <l13_1>:
100037e6:	0430      	lsls	r0, r6, #16
100037e8:	0c35      	lsrs	r5, r6, #16
100037ea:	1900      	adds	r0, r0, r4
100037ec:	417d      	adcs	r5, r7
100037ee:	4684      	mov	ip, r0
100037f0:	b288      	uxth	r0, r1
100037f2:	b29a      	uxth	r2, r3
100037f4:	4350      	muls	r0, r2
100037f6:	0c0c      	lsrs	r4, r1, #16
100037f8:	4362      	muls	r2, r4
100037fa:	0c1f      	lsrs	r7, r3, #16
100037fc:	437c      	muls	r4, r7
100037fe:	b28e      	uxth	r6, r1
10003800:	437e      	muls	r6, r7
10003802:	1992      	adds	r2, r2, r6
10003804:	d302      	bcc.n	1000380c <l14_1>
10003806:	2601      	movs	r6, #1
10003808:	0436      	lsls	r6, r6, #16
1000380a:	19a4      	adds	r4, r4, r6

1000380c <l14_1>:
1000380c:	0416      	lsls	r6, r2, #16
1000380e:	0c17      	lsrs	r7, r2, #16
10003810:	1836      	adds	r6, r6, r0
10003812:	4167      	adcs	r7, r4
10003814:	bc01      	pop	{r0}
10003816:	b281      	uxth	r1, r0
10003818:	b29a      	uxth	r2, r3
1000381a:	4351      	muls	r1, r2
1000381c:	0c04      	lsrs	r4, r0, #16
1000381e:	4362      	muls	r2, r4
10003820:	0c1b      	lsrs	r3, r3, #16
10003822:	435c      	muls	r4, r3
10003824:	b280      	uxth	r0, r0
10003826:	4358      	muls	r0, r3
10003828:	1812      	adds	r2, r2, r0
1000382a:	d302      	bcc.n	10003832 <l15_1>
1000382c:	2001      	movs	r0, #1
1000382e:	0400      	lsls	r0, r0, #16
10003830:	1824      	adds	r4, r4, r0

10003832 <l15_1>:
10003832:	0410      	lsls	r0, r2, #16
10003834:	0c13      	lsrs	r3, r2, #16
10003836:	1840      	adds	r0, r0, r1
10003838:	4163      	adcs	r3, r4
1000383a:	182d      	adds	r5, r5, r0
1000383c:	415e      	adcs	r6, r3
1000383e:	2000      	movs	r0, #0
10003840:	4147      	adcs	r7, r0
10003842:	bc06      	pop	{r1, r2}
10003844:	b288      	uxth	r0, r1
10003846:	b293      	uxth	r3, r2
10003848:	4358      	muls	r0, r3
1000384a:	0c0c      	lsrs	r4, r1, #16
1000384c:	4363      	muls	r3, r4
1000384e:	0c12      	lsrs	r2, r2, #16
10003850:	4354      	muls	r4, r2
10003852:	b289      	uxth	r1, r1
10003854:	4351      	muls	r1, r2
10003856:	185b      	adds	r3, r3, r1
10003858:	d302      	bcc.n	10003860 <l16_1>
1000385a:	2101      	movs	r1, #1
1000385c:	0409      	lsls	r1, r1, #16
1000385e:	1864      	adds	r4, r4, r1

10003860 <l16_1>:
10003860:	0419      	lsls	r1, r3, #16
10003862:	0c1a      	lsrs	r2, r3, #16
10003864:	1809      	adds	r1, r1, r0
10003866:	4162      	adcs	r2, r4
10003868:	186d      	adds	r5, r5, r1
1000386a:	4156      	adcs	r6, r2
1000386c:	2000      	movs	r0, #0
1000386e:	4147      	adcs	r7, r0
10003870:	bc18      	pop	{r3, r4}
10003872:	02f9      	lsls	r1, r7, #11
10003874:	0d72      	lsrs	r2, r6, #21
10003876:	4311      	orrs	r1, r2
10003878:	02f0      	lsls	r0, r6, #11
1000387a:	0d6a      	lsrs	r2, r5, #21
1000387c:	4310      	orrs	r0, r2
1000387e:	02ed      	lsls	r5, r5, #11
10003880:	0d0a      	lsrs	r2, r1, #20
10003882:	d103      	bne.n	1000388c <l16_1+0x2c>
10003884:	196d      	adds	r5, r5, r5
10003886:	4140      	adcs	r0, r0
10003888:	4149      	adcs	r1, r1
1000388a:	3b01      	subs	r3, #1
1000388c:	4e12      	ldr	r6, [pc, #72]	; (100038d8 <dm_1+0xa>)
1000388e:	1b9b      	subs	r3, r3, r6
10003890:	0076      	lsls	r6, r6, #1
10003892:	42b3      	cmp	r3, r6
10003894:	d20e      	bcs.n	100038b4 <dm_0>
10003896:	006d      	lsls	r5, r5, #1
10003898:	d307      	bcc.n	100038aa <l16_1+0x4a>
1000389a:	3001      	adds	r0, #1
1000389c:	2600      	movs	r6, #0
1000389e:	4171      	adcs	r1, r6
100038a0:	4666      	mov	r6, ip
100038a2:	4335      	orrs	r5, r6
100038a4:	d101      	bne.n	100038aa <l16_1+0x4a>
100038a6:	0840      	lsrs	r0, r0, #1
100038a8:	0040      	lsls	r0, r0, #1
100038aa:	051b      	lsls	r3, r3, #20
100038ac:	18c9      	adds	r1, r1, r3

100038ae <dm_2>:
100038ae:	07e4      	lsls	r4, r4, #31
100038b0:	4421      	add	r1, r4
100038b2:	bdf0      	pop	{r4, r5, r6, r7, pc}

100038b4 <dm_0>:
100038b4:	da0b      	bge.n	100038ce <dm_1>
100038b6:	3301      	adds	r3, #1
100038b8:	d106      	bne.n	100038c8 <dm_0+0x14>
100038ba:	3001      	adds	r0, #1
100038bc:	d104      	bne.n	100038c8 <dm_0+0x14>
100038be:	3101      	adds	r1, #1
100038c0:	0d4f      	lsrs	r7, r1, #21
100038c2:	d001      	beq.n	100038c8 <dm_0+0x14>
100038c4:	0849      	lsrs	r1, r1, #1
100038c6:	e7f2      	b.n	100038ae <dm_2>
100038c8:	07e1      	lsls	r1, r4, #31
100038ca:	2000      	movs	r0, #0
100038cc:	bdf0      	pop	{r4, r5, r6, r7, pc}

100038ce <dm_1>:
100038ce:	3601      	adds	r6, #1
100038d0:	0531      	lsls	r1, r6, #20
100038d2:	2000      	movs	r0, #0
100038d4:	e7eb      	b.n	100038ae <dm_2>
100038d6:	0000      	.short	0x0000
100038d8:	000003ff 	.word	0x000003ff

100038dc <ddiv_shim>:
100038dc:	b5f0      	push	{r4, r5, r6, r7, lr}

100038de <ddiv0>:
100038de:	0d1c      	lsrs	r4, r3, #20
100038e0:	1e67      	subs	r7, r4, #1
100038e2:	053f      	lsls	r7, r7, #20
100038e4:	1bdb      	subs	r3, r3, r7
100038e6:	0ae7      	lsrs	r7, r4, #11
100038e8:	0564      	lsls	r4, r4, #21
100038ea:	0d64      	lsrs	r4, r4, #21
100038ec:	d002      	beq.n	100038f4 <l19_1>
100038ee:	1c66      	adds	r6, r4, #1
100038f0:	0af6      	lsrs	r6, r6, #11
100038f2:	d004      	beq.n	100038fe <l19_2>

100038f4 <l19_1>:
100038f4:	2200      	movs	r2, #0
100038f6:	2301      	movs	r3, #1
100038f8:	051b      	lsls	r3, r3, #20
100038fa:	3c80      	subs	r4, #128	; 0x80
100038fc:	0324      	lsls	r4, r4, #12

100038fe <l19_2>:
100038fe:	25d0      	movs	r5, #208	; 0xd0
10003900:	062d      	lsls	r5, r5, #24
10003902:	2600      	movs	r6, #0
10003904:	43f6      	mvns	r6, r6
10003906:	662e      	str	r6, [r5, #96]	; 0x60
10003908:	091e      	lsrs	r6, r3, #4
1000390a:	666e      	str	r6, [r5, #100]	; 0x64
1000390c:	0fce      	lsrs	r6, r1, #31
1000390e:	19f6      	adds	r6, r6, r7
10003910:	46b4      	mov	ip, r6
10003912:	0049      	lsls	r1, r1, #1
10003914:	0d4f      	lsrs	r7, r1, #21
10003916:	d002      	beq.n	1000391e <l19_2+0x20>
10003918:	1c7e      	adds	r6, r7, #1
1000391a:	0af6      	lsrs	r6, r6, #11
1000391c:	d003      	beq.n	10003926 <l19_2+0x28>
1000391e:	2000      	movs	r0, #0
10003920:	2100      	movs	r1, #0
10003922:	3f40      	subs	r7, #64	; 0x40
10003924:	033f      	lsls	r7, r7, #12
10003926:	1b3e      	subs	r6, r7, r4
10003928:	00b6      	lsls	r6, r6, #2
1000392a:	44b4      	add	ip, r6
1000392c:	3f01      	subs	r7, #1
1000392e:	057f      	lsls	r7, r7, #21
10003930:	1bc9      	subs	r1, r1, r7
10003932:	0849      	lsrs	r1, r1, #1
10003934:	6f2e      	ldr	r6, [r5, #112]	; 0x70
10003936:	3601      	adds	r6, #1
10003938:	0876      	lsrs	r6, r6, #1
1000393a:	029c      	lsls	r4, r3, #10
1000393c:	0d95      	lsrs	r5, r2, #22
1000393e:	4325      	orrs	r5, r4
10003940:	4375      	muls	r5, r6
10003942:	13ed      	asrs	r5, r5, #15
10003944:	4375      	muls	r5, r6
10003946:	13ad      	asrs	r5, r5, #14
10003948:	3501      	adds	r5, #1
1000394a:	106d      	asrs	r5, r5, #1
1000394c:	03f6      	lsls	r6, r6, #15
1000394e:	1b76      	subs	r6, r6, r5
10003950:	b40c      	push	{r2, r3}
10003952:	02cc      	lsls	r4, r1, #11
10003954:	0d45      	lsrs	r5, r0, #21
10003956:	432c      	orrs	r4, r5
10003958:	b2a2      	uxth	r2, r4
1000395a:	b2b3      	uxth	r3, r6
1000395c:	435a      	muls	r2, r3
1000395e:	0c27      	lsrs	r7, r4, #16
10003960:	437b      	muls	r3, r7
10003962:	0c35      	lsrs	r5, r6, #16
10003964:	436f      	muls	r7, r5
10003966:	b2a4      	uxth	r4, r4
10003968:	436c      	muls	r4, r5
1000396a:	191b      	adds	r3, r3, r4
1000396c:	d302      	bcc.n	10003974 <l20_1>
1000396e:	2401      	movs	r4, #1
10003970:	0424      	lsls	r4, r4, #16
10003972:	193f      	adds	r7, r7, r4

10003974 <l20_1>:
10003974:	041c      	lsls	r4, r3, #16
10003976:	0c1d      	lsrs	r5, r3, #16
10003978:	18a4      	adds	r4, r4, r2
1000397a:	417d      	adcs	r5, r7
1000397c:	1924      	adds	r4, r4, r4
1000397e:	416d      	adcs	r5, r5
10003980:	9a00      	ldr	r2, [sp, #0]
10003982:	b291      	uxth	r1, r2
10003984:	b2ac      	uxth	r4, r5
10003986:	4361      	muls	r1, r4
10003988:	0c17      	lsrs	r7, r2, #16
1000398a:	437c      	muls	r4, r7
1000398c:	0c2b      	lsrs	r3, r5, #16
1000398e:	435f      	muls	r7, r3
10003990:	b292      	uxth	r2, r2
10003992:	435a      	muls	r2, r3
10003994:	18a4      	adds	r4, r4, r2
10003996:	d302      	bcc.n	1000399e <l21_1>
10003998:	2201      	movs	r2, #1
1000399a:	0412      	lsls	r2, r2, #16
1000399c:	18bf      	adds	r7, r7, r2

1000399e <l21_1>:
1000399e:	0422      	lsls	r2, r4, #16
100039a0:	0c23      	lsrs	r3, r4, #16
100039a2:	1852      	adds	r2, r2, r1
100039a4:	417b      	adcs	r3, r7
100039a6:	9c01      	ldr	r4, [sp, #4]
100039a8:	436c      	muls	r4, r5
100039aa:	191b      	adds	r3, r3, r4
100039ac:	0e52      	lsrs	r2, r2, #25
100039ae:	01d9      	lsls	r1, r3, #7
100039b0:	430a      	orrs	r2, r1
100039b2:	0144      	lsls	r4, r0, #5
100039b4:	1aa0      	subs	r0, r4, r2
100039b6:	b281      	uxth	r1, r0
100039b8:	b2b2      	uxth	r2, r6
100039ba:	4351      	muls	r1, r2
100039bc:	1403      	asrs	r3, r0, #16
100039be:	435a      	muls	r2, r3
100039c0:	0c36      	lsrs	r6, r6, #16
100039c2:	4373      	muls	r3, r6
100039c4:	b287      	uxth	r7, r0
100039c6:	4377      	muls	r7, r6
100039c8:	17d6      	asrs	r6, r2, #31
100039ca:	19d2      	adds	r2, r2, r7
100039cc:	2700      	movs	r7, #0
100039ce:	417e      	adcs	r6, r7
100039d0:	0436      	lsls	r6, r6, #16
100039d2:	199b      	adds	r3, r3, r6
100039d4:	0417      	lsls	r7, r2, #16
100039d6:	0c16      	lsrs	r6, r2, #16
100039d8:	187f      	adds	r7, r7, r1
100039da:	415e      	adcs	r6, r3
100039dc:	1673      	asrs	r3, r6, #25
100039de:	18ed      	adds	r5, r5, r3
100039e0:	01f3      	lsls	r3, r6, #7
100039e2:	2600      	movs	r6, #0
100039e4:	3380      	adds	r3, #128	; 0x80
100039e6:	4175      	adcs	r5, r6
100039e8:	0fa9      	lsrs	r1, r5, #30
100039ea:	d106      	bne.n	100039fa <dd_0>
100039ec:	0064      	lsls	r4, r4, #1
100039ee:	0a69      	lsrs	r1, r5, #9
100039f0:	05e8      	lsls	r0, r5, #23
100039f2:	0a5b      	lsrs	r3, r3, #9
100039f4:	4318      	orrs	r0, r3
100039f6:	d209      	bcs.n	10003a0c <dd_1>
100039f8:	e02f      	b.n	10003a5a <dd_2>

100039fa <dd_0>:
100039fa:	2204      	movs	r2, #4
100039fc:	4494      	add	ip, r2
100039fe:	3380      	adds	r3, #128	; 0x80
10003a00:	4175      	adcs	r5, r6
10003a02:	0aa9      	lsrs	r1, r5, #10
10003a04:	05a8      	lsls	r0, r5, #22
10003a06:	0a9b      	lsrs	r3, r3, #10
10003a08:	4318      	orrs	r0, r3
10003a0a:	d326      	bcc.n	10003a5a <dd_2>

10003a0c <dd_1>:
10003a0c:	4140      	adcs	r0, r0
10003a0e:	4149      	adcs	r1, r1
10003a10:	0424      	lsls	r4, r4, #16
10003a12:	9a00      	ldr	r2, [sp, #0]
10003a14:	9b01      	ldr	r3, [sp, #4]
10003a16:	000d      	movs	r5, r1
10003a18:	4355      	muls	r5, r2
10003a1a:	1b64      	subs	r4, r4, r5
10003a1c:	4343      	muls	r3, r0
10003a1e:	1ae4      	subs	r4, r4, r3
10003a20:	b295      	uxth	r5, r2
10003a22:	b286      	uxth	r6, r0
10003a24:	4375      	muls	r5, r6
10003a26:	0c17      	lsrs	r7, r2, #16
10003a28:	437e      	muls	r6, r7
10003a2a:	0c03      	lsrs	r3, r0, #16
10003a2c:	435f      	muls	r7, r3
10003a2e:	b292      	uxth	r2, r2
10003a30:	435a      	muls	r2, r3
10003a32:	18b6      	adds	r6, r6, r2
10003a34:	d302      	bcc.n	10003a3c <l23_1>
10003a36:	2201      	movs	r2, #1
10003a38:	0412      	lsls	r2, r2, #16
10003a3a:	18bf      	adds	r7, r7, r2

10003a3c <l23_1>:
10003a3c:	0432      	lsls	r2, r6, #16
10003a3e:	0c33      	lsrs	r3, r6, #16
10003a40:	1952      	adds	r2, r2, r5
10003a42:	417b      	adcs	r3, r7
10003a44:	4252      	negs	r2, r2
10003a46:	419c      	sbcs	r4, r3
10003a48:	2c00      	cmp	r4, #0
10003a4a:	d402      	bmi.n	10003a52 <l23_1+0x16>
10003a4c:	2200      	movs	r2, #0
10003a4e:	3001      	adds	r0, #1
10003a50:	4151      	adcs	r1, r2
10003a52:	0840      	lsrs	r0, r0, #1
10003a54:	07ca      	lsls	r2, r1, #31
10003a56:	4310      	orrs	r0, r2
10003a58:	0849      	lsrs	r1, r1, #1

10003a5a <dd_2>:
10003a5a:	b002      	add	sp, #8
10003a5c:	4662      	mov	r2, ip
10003a5e:	07d7      	lsls	r7, r2, #31
10003a60:	1092      	asrs	r2, r2, #2
10003a62:	4b08      	ldr	r3, [pc, #32]	; (10003a84 <dd_4+0x6>)
10003a64:	18d2      	adds	r2, r2, r3
10003a66:	4b08      	ldr	r3, [pc, #32]	; (10003a88 <dd_4+0xa>)
10003a68:	429a      	cmp	r2, r3
10003a6a:	d203      	bcs.n	10003a74 <dd_3>
10003a6c:	0512      	lsls	r2, r2, #20
10003a6e:	1889      	adds	r1, r1, r2

10003a70 <dd_5>:
10003a70:	19c9      	adds	r1, r1, r7
10003a72:	bdf0      	pop	{r4, r5, r6, r7, pc}

10003a74 <dd_3>:
10003a74:	2000      	movs	r0, #0
10003a76:	2a00      	cmp	r2, #0
10003a78:	dc01      	bgt.n	10003a7e <dd_4>
10003a7a:	0039      	movs	r1, r7
10003a7c:	bdf0      	pop	{r4, r5, r6, r7, pc}

10003a7e <dd_4>:
10003a7e:	3301      	adds	r3, #1
10003a80:	0519      	lsls	r1, r3, #20
10003a82:	e7f5      	b.n	10003a70 <dd_5>
10003a84:	000003fd 	.word	0x000003fd
10003a88:	000007fe 	.word	0x000007fe

10003a8c <dcordic_rot_step>:
10003a8c:	4662      	mov	r2, ip
10003a8e:	ca18      	ldmia	r2!, {r3, r4}
10003a90:	4694      	mov	ip, r2
10003a92:	2900      	cmp	r1, #0
10003a94:	da1a      	bge.n	10003acc <dcordic_rot_step+0x40>
10003a96:	18c0      	adds	r0, r0, r3
10003a98:	4161      	adcs	r1, r4
10003a9a:	465b      	mov	r3, fp
10003a9c:	413b      	asrs	r3, r7
10003a9e:	465c      	mov	r4, fp
10003aa0:	40b4      	lsls	r4, r6
10003aa2:	4652      	mov	r2, sl
10003aa4:	40fa      	lsrs	r2, r7
10003aa6:	4322      	orrs	r2, r4
10003aa8:	4644      	mov	r4, r8
10003aaa:	464d      	mov	r5, r9
10003aac:	4162      	adcs	r2, r4
10003aae:	416b      	adcs	r3, r5
10003ab0:	4690      	mov	r8, r2
10003ab2:	4699      	mov	r9, r3
10003ab4:	462b      	mov	r3, r5
10003ab6:	40b3      	lsls	r3, r6
10003ab8:	413d      	asrs	r5, r7
10003aba:	40fc      	lsrs	r4, r7
10003abc:	431c      	orrs	r4, r3
10003abe:	4652      	mov	r2, sl
10003ac0:	465b      	mov	r3, fp
10003ac2:	41a2      	sbcs	r2, r4
10003ac4:	41ab      	sbcs	r3, r5
10003ac6:	4692      	mov	sl, r2
10003ac8:	469b      	mov	fp, r3
10003aca:	4770      	bx	lr
10003acc:	1ac0      	subs	r0, r0, r3
10003ace:	41a1      	sbcs	r1, r4
10003ad0:	464b      	mov	r3, r9
10003ad2:	413b      	asrs	r3, r7
10003ad4:	464c      	mov	r4, r9
10003ad6:	40b4      	lsls	r4, r6
10003ad8:	4642      	mov	r2, r8
10003ada:	40fa      	lsrs	r2, r7
10003adc:	4322      	orrs	r2, r4
10003ade:	4654      	mov	r4, sl
10003ae0:	465d      	mov	r5, fp
10003ae2:	4162      	adcs	r2, r4
10003ae4:	416b      	adcs	r3, r5
10003ae6:	4692      	mov	sl, r2
10003ae8:	469b      	mov	fp, r3
10003aea:	462b      	mov	r3, r5
10003aec:	40b3      	lsls	r3, r6
10003aee:	413d      	asrs	r5, r7
10003af0:	40fc      	lsrs	r4, r7
10003af2:	431c      	orrs	r4, r3
10003af4:	4642      	mov	r2, r8
10003af6:	464b      	mov	r3, r9
10003af8:	41a2      	sbcs	r2, r4
10003afa:	41ab      	sbcs	r3, r5
10003afc:	4690      	mov	r8, r2
10003afe:	4699      	mov	r9, r3
10003b00:	4770      	bx	lr

10003b02 <ret_dzero>:
10003b02:	2000      	movs	r0, #0
10003b04:	2100      	movs	r1, #0
10003b06:	4770      	bx	lr

10003b08 <double2uint_shim>:
10003b08:	2200      	movs	r2, #0

10003b0a <double2ufix_shim>:
10003b0a:	b500      	push	{lr}
10003b0c:	3220      	adds	r2, #32
10003b0e:	f000 f804 	bl	10003b1a <double2ufix64_shim>
10003b12:	0008      	movs	r0, r1
10003b14:	bd00      	pop	{pc}
	...

10003b18 <double2uint64_shim>:
10003b18:	2200      	movs	r2, #0

10003b1a <double2ufix64_shim>:
10003b1a:	150b      	asrs	r3, r1, #20
10003b1c:	d4f1      	bmi.n	10003b02 <ret_dzero>

10003b1e <d2fix>:
10003b1e:	b510      	push	{r4, lr}
10003b20:	4694      	mov	ip, r2
10003b22:	f000 f82f 	bl	10003b84 <dunpacks>
10003b26:	1414      	asrs	r4, r2, #16
10003b28:	3401      	adds	r4, #1
10003b2a:	da00      	bge.n	10003b2e <d2fix+0x10>
10003b2c:	2100      	movs	r1, #0
10003b2e:	17cb      	asrs	r3, r1, #31
10003b30:	4c13      	ldr	r4, [pc, #76]	; (10003b80 <d2fix_a+0x4c>)
10003b32:	4720      	bx	r4

10003b34 <d2fix_a>:
10003b34:	4462      	add	r2, ip
10003b36:	3a34      	subs	r2, #52	; 0x34
10003b38:	d40c      	bmi.n	10003b54 <d2fix_a+0x20>
10003b3a:	2a0c      	cmp	r2, #12
10003b3c:	da07      	bge.n	10003b4e <d2fix_a+0x1a>
10003b3e:	0004      	movs	r4, r0
10003b40:	4091      	lsls	r1, r2
10003b42:	4090      	lsls	r0, r2
10003b44:	4252      	negs	r2, r2
10003b46:	3220      	adds	r2, #32
10003b48:	40d4      	lsrs	r4, r2
10003b4a:	4321      	orrs	r1, r4
10003b4c:	bd10      	pop	{r4, pc}
10003b4e:	43d8      	mvns	r0, r3
10003b50:	43d9      	mvns	r1, r3
10003b52:	bd10      	pop	{r4, pc}
10003b54:	3220      	adds	r2, #32
10003b56:	d407      	bmi.n	10003b68 <d2fix_a+0x34>
10003b58:	460c      	mov	r4, r1
10003b5a:	4094      	lsls	r4, r2
10003b5c:	4252      	negs	r2, r2
10003b5e:	3220      	adds	r2, #32
10003b60:	4111      	asrs	r1, r2
10003b62:	40d0      	lsrs	r0, r2
10003b64:	4320      	orrs	r0, r4
10003b66:	bd10      	pop	{r4, pc}
10003b68:	0008      	movs	r0, r1
10003b6a:	17c9      	asrs	r1, r1, #31
10003b6c:	3220      	adds	r2, #32
10003b6e:	d403      	bmi.n	10003b78 <d2fix_a+0x44>
10003b70:	4252      	negs	r2, r2
10003b72:	3220      	adds	r2, #32
10003b74:	4110      	asrs	r0, r2
10003b76:	bd10      	pop	{r4, pc}
10003b78:	0018      	movs	r0, r3
10003b7a:	0019      	movs	r1, r3
10003b7c:	bd10      	pop	{r4, pc}
10003b7e:	0000      	.short	0x0000
10003b80:	10003b35 	.word	0x10003b35

10003b84 <dunpacks>:
10003b84:	0d0a      	lsrs	r2, r1, #20
10003b86:	0fcc      	lsrs	r4, r1, #31
10003b88:	1e53      	subs	r3, r2, #1
10003b8a:	051b      	lsls	r3, r3, #20
10003b8c:	1ac9      	subs	r1, r1, r3
10003b8e:	0552      	lsls	r2, r2, #21
10003b90:	d303      	bcc.n	10003b9a <l60_1>
10003b92:	43c9      	mvns	r1, r1
10003b94:	4240      	negs	r0, r0
10003b96:	d300      	bcc.n	10003b9a <l60_1>
10003b98:	3101      	adds	r1, #1

10003b9a <l60_1>:
10003b9a:	0d52      	lsrs	r2, r2, #21
10003b9c:	d003      	beq.n	10003ba6 <l60_2>
10003b9e:	1c53      	adds	r3, r2, #1
10003ba0:	0adb      	lsrs	r3, r3, #11
10003ba2:	d007      	beq.n	10003bb4 <l60_3>
10003ba4:	1b12      	subs	r2, r2, r4

10003ba6 <l60_2>:
10003ba6:	2000      	movs	r0, #0
10003ba8:	0064      	lsls	r4, r4, #1
10003baa:	1c61      	adds	r1, r4, #1
10003bac:	0789      	lsls	r1, r1, #30
10003bae:	1289      	asrs	r1, r1, #10
10003bb0:	3a80      	subs	r2, #128	; 0x80
10003bb2:	0312      	lsls	r2, r2, #12

10003bb4 <l60_3>:
10003bb4:	4b01      	ldr	r3, [pc, #4]	; (10003bbc <l60_3+0x8>)
10003bb6:	1ad2      	subs	r2, r2, r3
10003bb8:	4770      	bx	lr
10003bba:	0000      	.short	0x0000
10003bbc:	000003ff 	.word	0x000003ff

10003bc0 <__aeabi_float_init>:
10003bc0:	2313      	movs	r3, #19
10003bc2:	b510      	push	{r4, lr}
10003bc4:	4812      	ldr	r0, [pc, #72]	; (10003c10 <__aeabi_float_init+0x50>)
10003bc6:	781c      	ldrb	r4, [r3, #0]
10003bc8:	f7ff f94e 	bl	10002e68 <rom_data_lookup>
10003bcc:	0001      	movs	r1, r0
10003bce:	2c01      	cmp	r4, #1
10003bd0:	d00a      	beq.n	10003be8 <__aeabi_float_init+0x28>
10003bd2:	dd03      	ble.n	10003bdc <__aeabi_float_init+0x1c>
10003bd4:	2280      	movs	r2, #128	; 0x80
10003bd6:	480f      	ldr	r0, [pc, #60]	; (10003c14 <__aeabi_float_init+0x54>)
10003bd8:	f000 f850 	bl	10003c7c <__wrap___aeabi_memcpy>
10003bdc:	480e      	ldr	r0, [pc, #56]	; (10003c18 <__aeabi_float_init+0x58>)
10003bde:	f7ff f93b 	bl	10002e58 <rom_func_lookup>
10003be2:	4b0e      	ldr	r3, [pc, #56]	; (10003c1c <__aeabi_float_init+0x5c>)
10003be4:	6018      	str	r0, [r3, #0]
10003be6:	bd10      	pop	{r4, pc}
10003be8:	4c0a      	ldr	r4, [pc, #40]	; (10003c14 <__aeabi_float_init+0x54>)
10003bea:	2254      	movs	r2, #84	; 0x54
10003bec:	0020      	movs	r0, r4
10003bee:	f000 f845 	bl	10003c7c <__wrap___aeabi_memcpy>
10003bf2:	4b0b      	ldr	r3, [pc, #44]	; (10003c20 <__aeabi_float_init+0x60>)
10003bf4:	6563      	str	r3, [r4, #84]	; 0x54
10003bf6:	65a3      	str	r3, [r4, #88]	; 0x58
10003bf8:	65e3      	str	r3, [r4, #92]	; 0x5c
10003bfa:	6623      	str	r3, [r4, #96]	; 0x60
10003bfc:	6663      	str	r3, [r4, #100]	; 0x64
10003bfe:	66a3      	str	r3, [r4, #104]	; 0x68
10003c00:	66e3      	str	r3, [r4, #108]	; 0x6c
10003c02:	6723      	str	r3, [r4, #112]	; 0x70
10003c04:	6763      	str	r3, [r4, #116]	; 0x74
10003c06:	67a3      	str	r3, [r4, #120]	; 0x78
10003c08:	67e3      	str	r3, [r4, #124]	; 0x7c
10003c0a:	6223      	str	r3, [r4, #32]
10003c0c:	61e3      	str	r3, [r4, #28]
10003c0e:	e7e5      	b.n	10003bdc <__aeabi_float_init+0x1c>
10003c10:	00004653 	.word	0x00004653
10003c14:	20000c30 	.word	0x20000c30
10003c18:	0000334c 	.word	0x0000334c
10003c1c:	20000d30 	.word	0x20000d30
10003c20:	10003c25 	.word	0x10003c25

10003c24 <float_table_shim_on_use_helper>:
10003c24:	b507      	push	{r0, r1, r2, lr}
10003c26:	4660      	mov	r0, ip
10003c28:	8801      	ldrh	r1, [r0, #0]
10003c2a:	0a0a      	lsrs	r2, r1, #8
10003c2c:	3002      	adds	r0, #2
10003c2e:	2adf      	cmp	r2, #223	; 0xdf
10003c30:	d1fa      	bne.n	10003c28 <float_table_shim_on_use_helper+0x4>
10003c32:	b2c9      	uxtb	r1, r1
10003c34:	0882      	lsrs	r2, r0, #2
10003c36:	d304      	bcc.n	10003c42 <float_table_shim_on_use_helper+0x1e>
10003c38:	8802      	ldrh	r2, [r0, #0]
10003c3a:	8840      	ldrh	r0, [r0, #2]
10003c3c:	0400      	lsls	r0, r0, #16
10003c3e:	4310      	orrs	r0, r2
10003c40:	e000      	b.n	10003c44 <float_table_shim_on_use_helper+0x20>
10003c42:	6800      	ldr	r0, [r0, #0]
10003c44:	4a01      	ldr	r2, [pc, #4]	; (10003c4c <float_table_shim_on_use_helper+0x28>)
10003c46:	5050      	str	r0, [r2, r1]
10003c48:	9003      	str	r0, [sp, #12]
10003c4a:	bd07      	pop	{r0, r1, r2, pc}
10003c4c:	20000c30 	.word	0x20000c30

10003c50 <__wrap_malloc>:
10003c50:	b510      	push	{r4, lr}
10003c52:	f000 fa79 	bl	10004148 <malloc>
10003c56:	bd10      	pop	{r4, pc}

10003c58 <__wrap_calloc>:
10003c58:	b510      	push	{r4, lr}
10003c5a:	f000 fa3b 	bl	100040d4 <calloc>
10003c5e:	bd10      	pop	{r4, pc}

10003c60 <__aeabi_mem_init>:
10003c60:	4801      	ldr	r0, [pc, #4]	; (10003c68 <__aeabi_mem_init+0x8>)
10003c62:	2104      	movs	r1, #4
10003c64:	4b01      	ldr	r3, [pc, #4]	; (10003c6c <__aeabi_mem_init+0xc>)
10003c66:	4718      	bx	r3
10003c68:	200001f0 	.word	0x200001f0
10003c6c:	10002e79 	.word	0x10002e79

10003c70 <__wrap_memset>:
10003c70:	4b01      	ldr	r3, [pc, #4]	; (10003c78 <__wrap_memset+0x8>)
10003c72:	681b      	ldr	r3, [r3, #0]
10003c74:	4718      	bx	r3
10003c76:	0000      	.short	0x0000
10003c78:	200001f0 	.word	0x200001f0

10003c7c <__wrap___aeabi_memcpy>:
10003c7c:	4b01      	ldr	r3, [pc, #4]	; (10003c84 <__wrap___aeabi_memcpy+0x8>)
10003c7e:	685b      	ldr	r3, [r3, #4]
10003c80:	4718      	bx	r3
10003c82:	0000      	.short	0x0000
10003c84:	200001f0 	.word	0x200001f0

10003c88 <stdio_out_chars_crlf.part.0>:
10003c88:	b5f8      	push	{r3, r4, r5, r6, r7, lr}
10003c8a:	4647      	mov	r7, r8
10003c8c:	46ce      	mov	lr, r9
10003c8e:	000d      	movs	r5, r1
10003c90:	b580      	push	{r7, lr}
10003c92:	0016      	movs	r6, r2
10003c94:	0007      	movs	r7, r0
10003c96:	2a00      	cmp	r2, #0
10003c98:	dd20      	ble.n	10003cdc <stdio_out_chars_crlf.part.0+0x54>
10003c9a:	1e4b      	subs	r3, r1, #1
10003c9c:	4698      	mov	r8, r3
10003c9e:	4b1a      	ldr	r3, [pc, #104]	; (10003d08 <stdio_out_chars_crlf.part.0+0x80>)
10003ca0:	2400      	movs	r4, #0
10003ca2:	2000      	movs	r0, #0
10003ca4:	4699      	mov	r9, r3
10003ca6:	2c00      	cmp	r4, #0
10003ca8:	d02b      	beq.n	10003d02 <stdio_out_chars_crlf.part.0+0x7a>
10003caa:	4643      	mov	r3, r8
10003cac:	5d1b      	ldrb	r3, [r3, r4]
10003cae:	3b0d      	subs	r3, #13
10003cb0:	425a      	negs	r2, r3
10003cb2:	4153      	adcs	r3, r2
10003cb4:	b2db      	uxtb	r3, r3
10003cb6:	5d2a      	ldrb	r2, [r5, r4]
10003cb8:	2a0a      	cmp	r2, #10
10003cba:	d013      	beq.n	10003ce4 <stdio_out_chars_crlf.part.0+0x5c>
10003cbc:	3401      	adds	r4, #1
10003cbe:	42a6      	cmp	r6, r4
10003cc0:	dcf1      	bgt.n	10003ca6 <stdio_out_chars_crlf.part.0+0x1e>
10003cc2:	4286      	cmp	r6, r0
10003cc4:	dd03      	ble.n	10003cce <stdio_out_chars_crlf.part.0+0x46>
10003cc6:	1a31      	subs	r1, r6, r0
10003cc8:	683b      	ldr	r3, [r7, #0]
10003cca:	1828      	adds	r0, r5, r0
10003ccc:	4798      	blx	r3
10003cce:	19ad      	adds	r5, r5, r6
10003cd0:	3d01      	subs	r5, #1
10003cd2:	782b      	ldrb	r3, [r5, #0]
10003cd4:	3b0d      	subs	r3, #13
10003cd6:	425a      	negs	r2, r3
10003cd8:	4153      	adcs	r3, r2
10003cda:	743b      	strb	r3, [r7, #16]
10003cdc:	bc0c      	pop	{r2, r3}
10003cde:	4690      	mov	r8, r2
10003ce0:	4699      	mov	r9, r3
10003ce2:	bdf8      	pop	{r3, r4, r5, r6, r7, pc}
10003ce4:	2b00      	cmp	r3, #0
10003ce6:	d1e9      	bne.n	10003cbc <stdio_out_chars_crlf.part.0+0x34>
10003ce8:	42a0      	cmp	r0, r4
10003cea:	da03      	bge.n	10003cf4 <stdio_out_chars_crlf.part.0+0x6c>
10003cec:	1a21      	subs	r1, r4, r0
10003cee:	683b      	ldr	r3, [r7, #0]
10003cf0:	1828      	adds	r0, r5, r0
10003cf2:	4798      	blx	r3
10003cf4:	4648      	mov	r0, r9
10003cf6:	2102      	movs	r1, #2
10003cf8:	683b      	ldr	r3, [r7, #0]
10003cfa:	3401      	adds	r4, #1
10003cfc:	4798      	blx	r3
10003cfe:	0020      	movs	r0, r4
10003d00:	e7dd      	b.n	10003cbe <stdio_out_chars_crlf.part.0+0x36>
10003d02:	7c3b      	ldrb	r3, [r7, #16]
10003d04:	e7d7      	b.n	10003cb6 <stdio_out_chars_crlf.part.0+0x2e>
10003d06:	46c0      	nop			; (mov r8, r8)
10003d08:	10004ec0 	.word	0x10004ec0

10003d0c <stdio_buffered_printer>:
10003d0c:	b5f8      	push	{r3, r4, r5, r6, r7, lr}
10003d0e:	4647      	mov	r7, r8
10003d10:	46ce      	mov	lr, r9
10003d12:	000c      	movs	r4, r1
10003d14:	6809      	ldr	r1, [r1, #0]
10003d16:	b580      	push	{r7, lr}
10003d18:	0007      	movs	r7, r0
10003d1a:	2980      	cmp	r1, #128	; 0x80
10003d1c:	d007      	beq.n	10003d2e <stdio_buffered_printer+0x22>
10003d1e:	1c4b      	adds	r3, r1, #1
10003d20:	6023      	str	r3, [r4, #0]
10003d22:	1864      	adds	r4, r4, r1
10003d24:	7127      	strb	r7, [r4, #4]
10003d26:	bc0c      	pop	{r2, r3}
10003d28:	4690      	mov	r8, r2
10003d2a:	4699      	mov	r9, r3
10003d2c:	bdf8      	pop	{r3, r4, r5, r6, r7, pc}
10003d2e:	4b13      	ldr	r3, [pc, #76]	; (10003d7c <stdio_buffered_printer+0x70>)
10003d30:	681d      	ldr	r5, [r3, #0]
10003d32:	2d00      	cmp	r5, #0
10003d34:	d01b      	beq.n	10003d6e <stdio_buffered_printer+0x62>
10003d36:	4b12      	ldr	r3, [pc, #72]	; (10003d80 <stdio_buffered_printer+0x74>)
10003d38:	4698      	mov	r8, r3
10003d3a:	1d23      	adds	r3, r4, #4
10003d3c:	4699      	mov	r9, r3
10003d3e:	e002      	b.n	10003d46 <stdio_buffered_printer+0x3a>
10003d40:	68ed      	ldr	r5, [r5, #12]
10003d42:	2d00      	cmp	r5, #0
10003d44:	d013      	beq.n	10003d6e <stdio_buffered_printer+0x62>
10003d46:	682e      	ldr	r6, [r5, #0]
10003d48:	2e00      	cmp	r6, #0
10003d4a:	d0f9      	beq.n	10003d40 <stdio_buffered_printer+0x34>
10003d4c:	4643      	mov	r3, r8
10003d4e:	681b      	ldr	r3, [r3, #0]
10003d50:	2b00      	cmp	r3, #0
10003d52:	d001      	beq.n	10003d58 <stdio_buffered_printer+0x4c>
10003d54:	429d      	cmp	r5, r3
10003d56:	d1f3      	bne.n	10003d40 <stdio_buffered_printer+0x34>
10003d58:	7c6b      	ldrb	r3, [r5, #17]
10003d5a:	6822      	ldr	r2, [r4, #0]
10003d5c:	2b00      	cmp	r3, #0
10003d5e:	d009      	beq.n	10003d74 <stdio_buffered_printer+0x68>
10003d60:	0028      	movs	r0, r5
10003d62:	4649      	mov	r1, r9
10003d64:	f7ff ff90 	bl	10003c88 <stdio_out_chars_crlf.part.0>
10003d68:	68ed      	ldr	r5, [r5, #12]
10003d6a:	2d00      	cmp	r5, #0
10003d6c:	d1eb      	bne.n	10003d46 <stdio_buffered_printer+0x3a>
10003d6e:	2301      	movs	r3, #1
10003d70:	2100      	movs	r1, #0
10003d72:	e7d5      	b.n	10003d20 <stdio_buffered_printer+0x14>
10003d74:	0011      	movs	r1, r2
10003d76:	4648      	mov	r0, r9
10003d78:	47b0      	blx	r6
10003d7a:	e7e1      	b.n	10003d40 <stdio_buffered_printer+0x34>
10003d7c:	20000af8 	.word	0x20000af8
10003d80:	20000afc 	.word	0x20000afc

10003d84 <stdio_put_string>:
10003d84:	b5f0      	push	{r4, r5, r6, r7, lr}
10003d86:	4657      	mov	r7, sl
10003d88:	4645      	mov	r5, r8
10003d8a:	46de      	mov	lr, fp
10003d8c:	464e      	mov	r6, r9
10003d8e:	23d0      	movs	r3, #208	; 0xd0
10003d90:	b5e0      	push	{r5, r6, r7, lr}
10003d92:	061b      	lsls	r3, r3, #24
10003d94:	681c      	ldr	r4, [r3, #0]
10003d96:	4b37      	ldr	r3, [pc, #220]	; (10003e74 <stdio_put_string+0xf0>)
10003d98:	b083      	sub	sp, #12
10003d9a:	0007      	movs	r7, r0
10003d9c:	000d      	movs	r5, r1
10003d9e:	0018      	movs	r0, r3
10003da0:	a901      	add	r1, sp, #4
10003da2:	4690      	mov	r8, r2
10003da4:	469a      	mov	sl, r3
10003da6:	f000 fe37 	bl	10004a18 <__mutex_try_enter_veneer>
10003daa:	4681      	mov	r9, r0
10003dac:	2800      	cmp	r0, #0
10003dae:	d107      	bne.n	10003dc0 <stdio_put_string+0x3c>
10003db0:	9b01      	ldr	r3, [sp, #4]
10003db2:	429c      	cmp	r4, r3
10003db4:	d004      	beq.n	10003dc0 <stdio_put_string+0x3c>
10003db6:	4650      	mov	r0, sl
10003db8:	f000 fe36 	bl	10004a28 <__mutex_enter_blocking_veneer>
10003dbc:	2301      	movs	r3, #1
10003dbe:	4699      	mov	r9, r3
10003dc0:	1c6b      	adds	r3, r5, #1
10003dc2:	d103      	bne.n	10003dcc <stdio_put_string+0x48>
10003dc4:	0038      	movs	r0, r7
10003dc6:	f000 fcab 	bl	10004720 <strlen>
10003dca:	0005      	movs	r5, r0
10003dcc:	4b2a      	ldr	r3, [pc, #168]	; (10003e78 <stdio_put_string+0xf4>)
10003dce:	681c      	ldr	r4, [r3, #0]
10003dd0:	2c00      	cmp	r4, #0
10003dd2:	d02f      	beq.n	10003e34 <stdio_put_string+0xb0>
10003dd4:	230a      	movs	r3, #10
10003dd6:	4e29      	ldr	r6, [pc, #164]	; (10003e7c <stdio_put_string+0xf8>)
10003dd8:	469b      	mov	fp, r3
10003dda:	e002      	b.n	10003de2 <stdio_put_string+0x5e>
10003ddc:	68e4      	ldr	r4, [r4, #12]
10003dde:	2c00      	cmp	r4, #0
10003de0:	d028      	beq.n	10003e34 <stdio_put_string+0xb0>
10003de2:	6822      	ldr	r2, [r4, #0]
10003de4:	2a00      	cmp	r2, #0
10003de6:	d0f9      	beq.n	10003ddc <stdio_put_string+0x58>
10003de8:	6833      	ldr	r3, [r6, #0]
10003dea:	2b00      	cmp	r3, #0
10003dec:	d001      	beq.n	10003df2 <stdio_put_string+0x6e>
10003dee:	42a3      	cmp	r3, r4
10003df0:	d1f4      	bne.n	10003ddc <stdio_put_string+0x58>
10003df2:	7c63      	ldrb	r3, [r4, #17]
10003df4:	2b00      	cmp	r3, #0
10003df6:	d02a      	beq.n	10003e4e <stdio_put_string+0xca>
10003df8:	002a      	movs	r2, r5
10003dfa:	0039      	movs	r1, r7
10003dfc:	0020      	movs	r0, r4
10003dfe:	f7ff ff43 	bl	10003c88 <stdio_out_chars_crlf.part.0>
10003e02:	4643      	mov	r3, r8
10003e04:	2b00      	cmp	r3, #0
10003e06:	d0e9      	beq.n	10003ddc <stdio_put_string+0x58>
10003e08:	466b      	mov	r3, sp
10003e0a:	465a      	mov	r2, fp
10003e0c:	711a      	strb	r2, [r3, #4]
10003e0e:	7c63      	ldrb	r3, [r4, #17]
10003e10:	2b00      	cmp	r3, #0
10003e12:	d020      	beq.n	10003e56 <stdio_put_string+0xd2>
10003e14:	7c23      	ldrb	r3, [r4, #16]
10003e16:	2b00      	cmp	r3, #0
10003e18:	d026      	beq.n	10003e68 <stdio_put_string+0xe4>
10003e1a:	2101      	movs	r1, #1
10003e1c:	6823      	ldr	r3, [r4, #0]
10003e1e:	a801      	add	r0, sp, #4
10003e20:	4798      	blx	r3
10003e22:	466b      	mov	r3, sp
10003e24:	791b      	ldrb	r3, [r3, #4]
10003e26:	3b0d      	subs	r3, #13
10003e28:	425a      	negs	r2, r3
10003e2a:	4153      	adcs	r3, r2
10003e2c:	7423      	strb	r3, [r4, #16]
10003e2e:	68e4      	ldr	r4, [r4, #12]
10003e30:	2c00      	cmp	r4, #0
10003e32:	d1d6      	bne.n	10003de2 <stdio_put_string+0x5e>
10003e34:	464b      	mov	r3, r9
10003e36:	2b00      	cmp	r3, #0
10003e38:	d112      	bne.n	10003e60 <stdio_put_string+0xdc>
10003e3a:	1e68      	subs	r0, r5, #1
10003e3c:	4185      	sbcs	r5, r0
10003e3e:	b2e8      	uxtb	r0, r5
10003e40:	b003      	add	sp, #12
10003e42:	bc3c      	pop	{r2, r3, r4, r5}
10003e44:	4690      	mov	r8, r2
10003e46:	4699      	mov	r9, r3
10003e48:	46a2      	mov	sl, r4
10003e4a:	46ab      	mov	fp, r5
10003e4c:	bdf0      	pop	{r4, r5, r6, r7, pc}
10003e4e:	0029      	movs	r1, r5
10003e50:	0038      	movs	r0, r7
10003e52:	4790      	blx	r2
10003e54:	e7d5      	b.n	10003e02 <stdio_put_string+0x7e>
10003e56:	2101      	movs	r1, #1
10003e58:	6823      	ldr	r3, [r4, #0]
10003e5a:	a801      	add	r0, sp, #4
10003e5c:	4798      	blx	r3
10003e5e:	e7bd      	b.n	10003ddc <stdio_put_string+0x58>
10003e60:	4650      	mov	r0, sl
10003e62:	f000 fdc1 	bl	100049e8 <__mutex_exit_veneer>
10003e66:	e7e8      	b.n	10003e3a <stdio_put_string+0xb6>
10003e68:	2102      	movs	r1, #2
10003e6a:	4805      	ldr	r0, [pc, #20]	; (10003e80 <stdio_put_string+0xfc>)
10003e6c:	6823      	ldr	r3, [r4, #0]
10003e6e:	4798      	blx	r3
10003e70:	e7d7      	b.n	10003e22 <stdio_put_string+0x9e>
10003e72:	46c0      	nop			; (mov r8, r8)
10003e74:	20000a50 	.word	0x20000a50
10003e78:	20000af8 	.word	0x20000af8
10003e7c:	20000afc 	.word	0x20000afc
10003e80:	10004ec0 	.word	0x10004ec0

10003e84 <__wrap_putchar>:
10003e84:	b510      	push	{r4, lr}
10003e86:	b082      	sub	sp, #8
10003e88:	466b      	mov	r3, sp
10003e8a:	0004      	movs	r4, r0
10003e8c:	2200      	movs	r2, #0
10003e8e:	1dd8      	adds	r0, r3, #7
10003e90:	2101      	movs	r1, #1
10003e92:	7004      	strb	r4, [r0, #0]
10003e94:	f7ff ff76 	bl	10003d84 <stdio_put_string>
10003e98:	0020      	movs	r0, r4
10003e9a:	b002      	add	sp, #8
10003e9c:	bd10      	pop	{r4, pc}
10003e9e:	46c0      	nop			; (mov r8, r8)

10003ea0 <__wrap_puts>:
10003ea0:	b570      	push	{r4, r5, r6, lr}
10003ea2:	0004      	movs	r4, r0
10003ea4:	f000 fc3c 	bl	10004720 <strlen>
10003ea8:	2201      	movs	r2, #1
10003eaa:	0001      	movs	r1, r0
10003eac:	0005      	movs	r5, r0
10003eae:	0020      	movs	r0, r4
10003eb0:	f7ff ff68 	bl	10003d84 <stdio_put_string>
10003eb4:	4b08      	ldr	r3, [pc, #32]	; (10003ed8 <__wrap_puts+0x38>)
10003eb6:	681c      	ldr	r4, [r3, #0]
10003eb8:	2c00      	cmp	r4, #0
10003eba:	d006      	beq.n	10003eca <__wrap_puts+0x2a>
10003ebc:	6863      	ldr	r3, [r4, #4]
10003ebe:	2b00      	cmp	r3, #0
10003ec0:	d005      	beq.n	10003ece <__wrap_puts+0x2e>
10003ec2:	4798      	blx	r3
10003ec4:	68e4      	ldr	r4, [r4, #12]
10003ec6:	2c00      	cmp	r4, #0
10003ec8:	d1f8      	bne.n	10003ebc <__wrap_puts+0x1c>
10003eca:	0028      	movs	r0, r5
10003ecc:	bd70      	pop	{r4, r5, r6, pc}
10003ece:	68e4      	ldr	r4, [r4, #12]
10003ed0:	2c00      	cmp	r4, #0
10003ed2:	d1f3      	bne.n	10003ebc <__wrap_puts+0x1c>
10003ed4:	e7f9      	b.n	10003eca <__wrap_puts+0x2a>
10003ed6:	46c0      	nop			; (mov r8, r8)
10003ed8:	20000af8 	.word	0x20000af8

10003edc <stdio_set_driver_enabled>:
10003edc:	4a0d      	ldr	r2, [pc, #52]	; (10003f14 <stdio_set_driver_enabled+0x38>)
10003ede:	6813      	ldr	r3, [r2, #0]
10003ee0:	2b00      	cmp	r3, #0
10003ee2:	d013      	beq.n	10003f0c <stdio_set_driver_enabled+0x30>
10003ee4:	4283      	cmp	r3, r0
10003ee6:	d102      	bne.n	10003eee <stdio_set_driver_enabled+0x12>
10003ee8:	e009      	b.n	10003efe <stdio_set_driver_enabled+0x22>
10003eea:	4298      	cmp	r0, r3
10003eec:	d008      	beq.n	10003f00 <stdio_set_driver_enabled+0x24>
10003eee:	001a      	movs	r2, r3
10003ef0:	68db      	ldr	r3, [r3, #12]
10003ef2:	2b00      	cmp	r3, #0
10003ef4:	d1f9      	bne.n	10003eea <stdio_set_driver_enabled+0xe>
10003ef6:	2900      	cmp	r1, #0
10003ef8:	d000      	beq.n	10003efc <stdio_set_driver_enabled+0x20>
10003efa:	60d0      	str	r0, [r2, #12]
10003efc:	4770      	bx	lr
10003efe:	001a      	movs	r2, r3
10003f00:	2900      	cmp	r1, #0
10003f02:	d1fb      	bne.n	10003efc <stdio_set_driver_enabled+0x20>
10003f04:	68db      	ldr	r3, [r3, #12]
10003f06:	60d3      	str	r3, [r2, #12]
10003f08:	60c1      	str	r1, [r0, #12]
10003f0a:	e7f7      	b.n	10003efc <stdio_set_driver_enabled+0x20>
10003f0c:	2900      	cmp	r1, #0
10003f0e:	d0f5      	beq.n	10003efc <stdio_set_driver_enabled+0x20>
10003f10:	6010      	str	r0, [r2, #0]
10003f12:	e7f3      	b.n	10003efc <stdio_set_driver_enabled+0x20>
10003f14:	20000af8 	.word	0x20000af8

10003f18 <__wrap_vprintf>:
10003f18:	b5f0      	push	{r4, r5, r6, r7, lr}
10003f1a:	4646      	mov	r6, r8
10003f1c:	46d6      	mov	lr, sl
10003f1e:	464f      	mov	r7, r9
10003f20:	23d0      	movs	r3, #208	; 0xd0
10003f22:	b5c0      	push	{r6, r7, lr}
10003f24:	061b      	lsls	r3, r3, #24
10003f26:	681f      	ldr	r7, [r3, #0]
10003f28:	4b31      	ldr	r3, [pc, #196]	; (10003ff0 <__wrap_vprintf+0xd8>)
10003f2a:	b0a2      	sub	sp, #136	; 0x88
10003f2c:	0004      	movs	r4, r0
10003f2e:	000d      	movs	r5, r1
10003f30:	0018      	movs	r0, r3
10003f32:	a901      	add	r1, sp, #4
10003f34:	4698      	mov	r8, r3
10003f36:	f000 fd6f 	bl	10004a18 <__mutex_try_enter_veneer>
10003f3a:	1e06      	subs	r6, r0, #0
10003f3c:	d106      	bne.n	10003f4c <__wrap_vprintf+0x34>
10003f3e:	9b01      	ldr	r3, [sp, #4]
10003f40:	429f      	cmp	r7, r3
10003f42:	d003      	beq.n	10003f4c <__wrap_vprintf+0x34>
10003f44:	4640      	mov	r0, r8
10003f46:	f000 fd6f 	bl	10004a28 <__mutex_enter_blocking_veneer>
10003f4a:	3601      	adds	r6, #1
10003f4c:	2284      	movs	r2, #132	; 0x84
10003f4e:	2100      	movs	r1, #0
10003f50:	a801      	add	r0, sp, #4
10003f52:	f7ff fe8d 	bl	10003c70 <__wrap_memset>
10003f56:	002b      	movs	r3, r5
10003f58:	0022      	movs	r2, r4
10003f5a:	4826      	ldr	r0, [pc, #152]	; (10003ff4 <__wrap_vprintf+0xdc>)
10003f5c:	a901      	add	r1, sp, #4
10003f5e:	f7fe ff4b 	bl	10002df8 <vfctprintf>
10003f62:	9b01      	ldr	r3, [sp, #4]
10003f64:	0007      	movs	r7, r0
10003f66:	2b00      	cmp	r3, #0
10003f68:	d115      	bne.n	10003f96 <__wrap_vprintf+0x7e>
10003f6a:	4b23      	ldr	r3, [pc, #140]	; (10003ff8 <__wrap_vprintf+0xe0>)
10003f6c:	681c      	ldr	r4, [r3, #0]
10003f6e:	2c00      	cmp	r4, #0
10003f70:	d006      	beq.n	10003f80 <__wrap_vprintf+0x68>
10003f72:	6863      	ldr	r3, [r4, #4]
10003f74:	2b00      	cmp	r3, #0
10003f76:	d00c      	beq.n	10003f92 <__wrap_vprintf+0x7a>
10003f78:	4798      	blx	r3
10003f7a:	68e4      	ldr	r4, [r4, #12]
10003f7c:	2c00      	cmp	r4, #0
10003f7e:	d1f8      	bne.n	10003f72 <__wrap_vprintf+0x5a>
10003f80:	2e00      	cmp	r6, #0
10003f82:	d12f      	bne.n	10003fe4 <__wrap_vprintf+0xcc>
10003f84:	0038      	movs	r0, r7
10003f86:	b022      	add	sp, #136	; 0x88
10003f88:	bc1c      	pop	{r2, r3, r4}
10003f8a:	4690      	mov	r8, r2
10003f8c:	4699      	mov	r9, r3
10003f8e:	46a2      	mov	sl, r4
10003f90:	bdf0      	pop	{r4, r5, r6, r7, pc}
10003f92:	68e4      	ldr	r4, [r4, #12]
10003f94:	e7eb      	b.n	10003f6e <__wrap_vprintf+0x56>
10003f96:	4b18      	ldr	r3, [pc, #96]	; (10003ff8 <__wrap_vprintf+0xe0>)
10003f98:	681d      	ldr	r5, [r3, #0]
10003f9a:	469a      	mov	sl, r3
10003f9c:	2d00      	cmp	r5, #0
10003f9e:	d025      	beq.n	10003fec <__wrap_vprintf+0xd4>
10003fa0:	4b16      	ldr	r3, [pc, #88]	; (10003ffc <__wrap_vprintf+0xe4>)
10003fa2:	4699      	mov	r9, r3
10003fa4:	e002      	b.n	10003fac <__wrap_vprintf+0x94>
10003fa6:	68ed      	ldr	r5, [r5, #12]
10003fa8:	2d00      	cmp	r5, #0
10003faa:	d013      	beq.n	10003fd4 <__wrap_vprintf+0xbc>
10003fac:	682c      	ldr	r4, [r5, #0]
10003fae:	2c00      	cmp	r4, #0
10003fb0:	d0f9      	beq.n	10003fa6 <__wrap_vprintf+0x8e>
10003fb2:	464b      	mov	r3, r9
10003fb4:	681b      	ldr	r3, [r3, #0]
10003fb6:	2b00      	cmp	r3, #0
10003fb8:	d001      	beq.n	10003fbe <__wrap_vprintf+0xa6>
10003fba:	429d      	cmp	r5, r3
10003fbc:	d1f3      	bne.n	10003fa6 <__wrap_vprintf+0x8e>
10003fbe:	7c6b      	ldrb	r3, [r5, #17]
10003fc0:	9a01      	ldr	r2, [sp, #4]
10003fc2:	2b00      	cmp	r3, #0
10003fc4:	d00a      	beq.n	10003fdc <__wrap_vprintf+0xc4>
10003fc6:	0028      	movs	r0, r5
10003fc8:	a902      	add	r1, sp, #8
10003fca:	f7ff fe5d 	bl	10003c88 <stdio_out_chars_crlf.part.0>
10003fce:	68ed      	ldr	r5, [r5, #12]
10003fd0:	2d00      	cmp	r5, #0
10003fd2:	d1eb      	bne.n	10003fac <__wrap_vprintf+0x94>
10003fd4:	4653      	mov	r3, sl
10003fd6:	9501      	str	r5, [sp, #4]
10003fd8:	681c      	ldr	r4, [r3, #0]
10003fda:	e7c8      	b.n	10003f6e <__wrap_vprintf+0x56>
10003fdc:	0011      	movs	r1, r2
10003fde:	a802      	add	r0, sp, #8
10003fe0:	47a0      	blx	r4
10003fe2:	e7e0      	b.n	10003fa6 <__wrap_vprintf+0x8e>
10003fe4:	4640      	mov	r0, r8
10003fe6:	f000 fcff 	bl	100049e8 <__mutex_exit_veneer>
10003fea:	e7cb      	b.n	10003f84 <__wrap_vprintf+0x6c>
10003fec:	9501      	str	r5, [sp, #4]
10003fee:	e7c7      	b.n	10003f80 <__wrap_vprintf+0x68>
10003ff0:	20000a50 	.word	0x20000a50
10003ff4:	10003d0d 	.word	0x10003d0d
10003ff8:	20000af8 	.word	0x20000af8
10003ffc:	20000afc 	.word	0x20000afc

10004000 <__wrap_printf>:
10004000:	b40f      	push	{r0, r1, r2, r3}
10004002:	b500      	push	{lr}
10004004:	b083      	sub	sp, #12
10004006:	a904      	add	r1, sp, #16
10004008:	c901      	ldmia	r1!, {r0}
1000400a:	9101      	str	r1, [sp, #4]
1000400c:	f7ff ff84 	bl	10003f18 <__wrap_vprintf>
10004010:	b003      	add	sp, #12
10004012:	bc08      	pop	{r3}
10004014:	b004      	add	sp, #16
10004016:	4718      	bx	r3

10004018 <stdio_init_all>:
10004018:	b510      	push	{r4, lr}
1000401a:	f000 f83b 	bl	10004094 <stdio_uart_init>
1000401e:	bd10      	pop	{r4, pc}

10004020 <stdio_uart_out_chars>:
10004020:	b5f0      	push	{r4, r5, r6, r7, lr}
10004022:	2900      	cmp	r1, #0
10004024:	d010      	beq.n	10004048 <stdio_uart_out_chars+0x28>
10004026:	1845      	adds	r5, r0, r1
10004028:	270d      	movs	r7, #13
1000402a:	2120      	movs	r1, #32
1000402c:	4b09      	ldr	r3, [pc, #36]	; (10004054 <stdio_uart_out_chars+0x34>)
1000402e:	4a0a      	ldr	r2, [pc, #40]	; (10004058 <stdio_uart_out_chars+0x38>)
10004030:	2600      	movs	r6, #0
10004032:	5f9e      	ldrsh	r6, [r3, r6]
10004034:	7804      	ldrb	r4, [r0, #0]
10004036:	42a6      	cmp	r6, r4
10004038:	d007      	beq.n	1000404a <stdio_uart_out_chars+0x2a>
1000403a:	6993      	ldr	r3, [r2, #24]
1000403c:	4219      	tst	r1, r3
1000403e:	d1fc      	bne.n	1000403a <stdio_uart_out_chars+0x1a>
10004040:	3001      	adds	r0, #1
10004042:	6014      	str	r4, [r2, #0]
10004044:	42a8      	cmp	r0, r5
10004046:	d1f5      	bne.n	10004034 <stdio_uart_out_chars+0x14>
10004048:	bdf0      	pop	{r4, r5, r6, r7, pc}
1000404a:	6993      	ldr	r3, [r2, #24]
1000404c:	4219      	tst	r1, r3
1000404e:	d1fc      	bne.n	1000404a <stdio_uart_out_chars+0x2a>
10004050:	6017      	str	r7, [r2, #0]
10004052:	e7f2      	b.n	1000403a <stdio_uart_out_chars+0x1a>
10004054:	20000b2c 	.word	0x20000b2c
10004058:	40034000 	.word	0x40034000

1000405c <stdio_uart_in_chars>:
1000405c:	b530      	push	{r4, r5, lr}
1000405e:	0005      	movs	r5, r0
10004060:	2000      	movs	r0, #0
10004062:	2900      	cmp	r1, #0
10004064:	dd10      	ble.n	10004088 <stdio_uart_in_chars+0x2c>
10004066:	2410      	movs	r4, #16
10004068:	4a09      	ldr	r2, [pc, #36]	; (10004090 <stdio_uart_in_chars+0x34>)
1000406a:	3d01      	subs	r5, #1
1000406c:	6993      	ldr	r3, [r2, #24]
1000406e:	421c      	tst	r4, r3
10004070:	d108      	bne.n	10004084 <stdio_uart_in_chars+0x28>
10004072:	3001      	adds	r0, #1
10004074:	6993      	ldr	r3, [r2, #24]
10004076:	421c      	tst	r4, r3
10004078:	d1fc      	bne.n	10004074 <stdio_uart_in_chars+0x18>
1000407a:	6813      	ldr	r3, [r2, #0]
1000407c:	542b      	strb	r3, [r5, r0]
1000407e:	4281      	cmp	r1, r0
10004080:	d1f4      	bne.n	1000406c <stdio_uart_in_chars+0x10>
10004082:	bd30      	pop	{r4, r5, pc}
10004084:	2800      	cmp	r0, #0
10004086:	d1fc      	bne.n	10004082 <stdio_uart_in_chars+0x26>
10004088:	2003      	movs	r0, #3
1000408a:	4240      	negs	r0, r0
1000408c:	e7f9      	b.n	10004082 <stdio_uart_in_chars+0x26>
1000408e:	46c0      	nop			; (mov r8, r8)
10004090:	40034000 	.word	0x40034000

10004094 <stdio_uart_init>:
10004094:	21e1      	movs	r1, #225	; 0xe1
10004096:	b510      	push	{r4, lr}
10004098:	4b0a      	ldr	r3, [pc, #40]	; (100040c4 <stdio_uart_init+0x30>)
1000409a:	0249      	lsls	r1, r1, #9
1000409c:	781b      	ldrb	r3, [r3, #0]
1000409e:	4b0a      	ldr	r3, [pc, #40]	; (100040c8 <stdio_uart_init+0x34>)
100040a0:	480a      	ldr	r0, [pc, #40]	; (100040cc <stdio_uart_init+0x38>)
100040a2:	781b      	ldrb	r3, [r3, #0]
100040a4:	f7fc fa04 	bl	100004b0 <uart_init>
100040a8:	2102      	movs	r1, #2
100040aa:	2000      	movs	r0, #0
100040ac:	f7fc f996 	bl	100003dc <gpio_set_function>
100040b0:	2102      	movs	r1, #2
100040b2:	2001      	movs	r0, #1
100040b4:	f7fc f992 	bl	100003dc <gpio_set_function>
100040b8:	2101      	movs	r1, #1
100040ba:	4805      	ldr	r0, [pc, #20]	; (100040d0 <stdio_uart_init+0x3c>)
100040bc:	f7ff ff0e 	bl	10003edc <stdio_set_driver_enabled>
100040c0:	bd10      	pop	{r4, pc}
100040c2:	46c0      	nop			; (mov r8, r8)
100040c4:	10004f20 	.word	0x10004f20
100040c8:	10004f24 	.word	0x10004f24
100040cc:	40034000 	.word	0x40034000
100040d0:	20000200 	.word	0x20000200

100040d4 <calloc>:
100040d4:	0003      	movs	r3, r0
100040d6:	b510      	push	{r4, lr}
100040d8:	000a      	movs	r2, r1
100040da:	4903      	ldr	r1, [pc, #12]	; (100040e8 <calloc+0x14>)
100040dc:	6808      	ldr	r0, [r1, #0]
100040de:	0019      	movs	r1, r3
100040e0:	f000 f804 	bl	100040ec <_calloc_r>
100040e4:	bd10      	pop	{r4, pc}
100040e6:	46c0      	nop			; (mov r8, r8)
100040e8:	20000214 	.word	0x20000214

100040ec <_calloc_r>:
100040ec:	b510      	push	{r4, lr}
100040ee:	4351      	muls	r1, r2
100040f0:	f000 f834 	bl	1000415c <_malloc_r>
100040f4:	1e04      	subs	r4, r0, #0
100040f6:	d00e      	beq.n	10004116 <_calloc_r+0x2a>
100040f8:	0003      	movs	r3, r0
100040fa:	3b08      	subs	r3, #8
100040fc:	685a      	ldr	r2, [r3, #4]
100040fe:	2303      	movs	r3, #3
10004100:	439a      	bics	r2, r3
10004102:	3a04      	subs	r2, #4
10004104:	2a24      	cmp	r2, #36	; 0x24
10004106:	d815      	bhi.n	10004134 <_calloc_r+0x48>
10004108:	0003      	movs	r3, r0
1000410a:	2a13      	cmp	r2, #19
1000410c:	d805      	bhi.n	1000411a <_calloc_r+0x2e>
1000410e:	2200      	movs	r2, #0
10004110:	601a      	str	r2, [r3, #0]
10004112:	605a      	str	r2, [r3, #4]
10004114:	609a      	str	r2, [r3, #8]
10004116:	0020      	movs	r0, r4
10004118:	bd10      	pop	{r4, pc}
1000411a:	2100      	movs	r1, #0
1000411c:	3308      	adds	r3, #8
1000411e:	6001      	str	r1, [r0, #0]
10004120:	6041      	str	r1, [r0, #4]
10004122:	2a1b      	cmp	r2, #27
10004124:	d9f3      	bls.n	1000410e <_calloc_r+0x22>
10004126:	6081      	str	r1, [r0, #8]
10004128:	60c1      	str	r1, [r0, #12]
1000412a:	2a24      	cmp	r2, #36	; 0x24
1000412c:	d006      	beq.n	1000413c <_calloc_r+0x50>
1000412e:	0003      	movs	r3, r0
10004130:	3310      	adds	r3, #16
10004132:	e7ec      	b.n	1000410e <_calloc_r+0x22>
10004134:	2100      	movs	r1, #0
10004136:	f7ff fd9b 	bl	10003c70 <__wrap_memset>
1000413a:	e7ec      	b.n	10004116 <_calloc_r+0x2a>
1000413c:	0003      	movs	r3, r0
1000413e:	6101      	str	r1, [r0, #16]
10004140:	3318      	adds	r3, #24
10004142:	6141      	str	r1, [r0, #20]
10004144:	e7e3      	b.n	1000410e <_calloc_r+0x22>
10004146:	46c0      	nop			; (mov r8, r8)

10004148 <malloc>:
10004148:	b510      	push	{r4, lr}
1000414a:	4b03      	ldr	r3, [pc, #12]	; (10004158 <malloc+0x10>)
1000414c:	0001      	movs	r1, r0
1000414e:	6818      	ldr	r0, [r3, #0]
10004150:	f000 f804 	bl	1000415c <_malloc_r>
10004154:	bd10      	pop	{r4, pc}
10004156:	46c0      	nop			; (mov r8, r8)
10004158:	20000214 	.word	0x20000214

1000415c <_malloc_r>:
1000415c:	b5f0      	push	{r4, r5, r6, r7, lr}
1000415e:	464e      	mov	r6, r9
10004160:	4645      	mov	r5, r8
10004162:	46de      	mov	lr, fp
10004164:	4657      	mov	r7, sl
10004166:	b5e0      	push	{r5, r6, r7, lr}
10004168:	000d      	movs	r5, r1
1000416a:	350b      	adds	r5, #11
1000416c:	0006      	movs	r6, r0
1000416e:	b083      	sub	sp, #12
10004170:	2d16      	cmp	r5, #22
10004172:	d822      	bhi.n	100041ba <_malloc_r+0x5e>
10004174:	2910      	cmp	r1, #16
10004176:	d900      	bls.n	1000417a <_malloc_r+0x1e>
10004178:	e0b2      	b.n	100042e0 <_malloc_r+0x184>
1000417a:	f000 faaf 	bl	100046dc <__malloc_lock>
1000417e:	2510      	movs	r5, #16
10004180:	2002      	movs	r0, #2
10004182:	2318      	movs	r3, #24
10004184:	4fcb      	ldr	r7, [pc, #812]	; (100044b4 <_malloc_r+0x358>)
10004186:	18fb      	adds	r3, r7, r3
10004188:	001a      	movs	r2, r3
1000418a:	685c      	ldr	r4, [r3, #4]
1000418c:	3a08      	subs	r2, #8
1000418e:	4294      	cmp	r4, r2
10004190:	d100      	bne.n	10004194 <_malloc_r+0x38>
10004192:	e0b5      	b.n	10004300 <_malloc_r+0x1a4>
10004194:	2303      	movs	r3, #3
10004196:	6862      	ldr	r2, [r4, #4]
10004198:	439a      	bics	r2, r3
1000419a:	0013      	movs	r3, r2
1000419c:	68e2      	ldr	r2, [r4, #12]
1000419e:	68a1      	ldr	r1, [r4, #8]
100041a0:	60ca      	str	r2, [r1, #12]
100041a2:	6091      	str	r1, [r2, #8]
100041a4:	2201      	movs	r2, #1
100041a6:	18e3      	adds	r3, r4, r3
100041a8:	6859      	ldr	r1, [r3, #4]
100041aa:	0030      	movs	r0, r6
100041ac:	430a      	orrs	r2, r1
100041ae:	605a      	str	r2, [r3, #4]
100041b0:	f000 fa9c 	bl	100046ec <__malloc_unlock>
100041b4:	0020      	movs	r0, r4
100041b6:	3008      	adds	r0, #8
100041b8:	e095      	b.n	100042e6 <_malloc_r+0x18a>
100041ba:	2307      	movs	r3, #7
100041bc:	439d      	bics	r5, r3
100041be:	d500      	bpl.n	100041c2 <_malloc_r+0x66>
100041c0:	e08e      	b.n	100042e0 <_malloc_r+0x184>
100041c2:	42a9      	cmp	r1, r5
100041c4:	d900      	bls.n	100041c8 <_malloc_r+0x6c>
100041c6:	e08b      	b.n	100042e0 <_malloc_r+0x184>
100041c8:	f000 fa88 	bl	100046dc <__malloc_lock>
100041cc:	23fc      	movs	r3, #252	; 0xfc
100041ce:	005b      	lsls	r3, r3, #1
100041d0:	429d      	cmp	r5, r3
100041d2:	d200      	bcs.n	100041d6 <_malloc_r+0x7a>
100041d4:	e1a5      	b.n	10004522 <_malloc_r+0x3c6>
100041d6:	0a68      	lsrs	r0, r5, #9
100041d8:	d100      	bne.n	100041dc <_malloc_r+0x80>
100041da:	e08b      	b.n	100042f4 <_malloc_r+0x198>
100041dc:	2804      	cmp	r0, #4
100041de:	d900      	bls.n	100041e2 <_malloc_r+0x86>
100041e0:	e178      	b.n	100044d4 <_malloc_r+0x378>
100041e2:	2338      	movs	r3, #56	; 0x38
100041e4:	4698      	mov	r8, r3
100041e6:	09a8      	lsrs	r0, r5, #6
100041e8:	4480      	add	r8, r0
100041ea:	3039      	adds	r0, #57	; 0x39
100041ec:	00c1      	lsls	r1, r0, #3
100041ee:	4fb1      	ldr	r7, [pc, #708]	; (100044b4 <_malloc_r+0x358>)
100041f0:	1879      	adds	r1, r7, r1
100041f2:	684c      	ldr	r4, [r1, #4]
100041f4:	3908      	subs	r1, #8
100041f6:	42a1      	cmp	r1, r4
100041f8:	d00e      	beq.n	10004218 <_malloc_r+0xbc>
100041fa:	2303      	movs	r3, #3
100041fc:	469c      	mov	ip, r3
100041fe:	e004      	b.n	1000420a <_malloc_r+0xae>
10004200:	2a00      	cmp	r2, #0
10004202:	dacb      	bge.n	1000419c <_malloc_r+0x40>
10004204:	68e4      	ldr	r4, [r4, #12]
10004206:	42a1      	cmp	r1, r4
10004208:	d006      	beq.n	10004218 <_malloc_r+0xbc>
1000420a:	4662      	mov	r2, ip
1000420c:	6863      	ldr	r3, [r4, #4]
1000420e:	4393      	bics	r3, r2
10004210:	1b5a      	subs	r2, r3, r5
10004212:	2a0f      	cmp	r2, #15
10004214:	ddf4      	ble.n	10004200 <_malloc_r+0xa4>
10004216:	4640      	mov	r0, r8
10004218:	003a      	movs	r2, r7
1000421a:	693c      	ldr	r4, [r7, #16]
1000421c:	3208      	adds	r2, #8
1000421e:	4294      	cmp	r4, r2
10004220:	d100      	bne.n	10004224 <_malloc_r+0xc8>
10004222:	e078      	b.n	10004316 <_malloc_r+0x1ba>
10004224:	2303      	movs	r3, #3
10004226:	6861      	ldr	r1, [r4, #4]
10004228:	4399      	bics	r1, r3
1000422a:	4689      	mov	r9, r1
1000422c:	000b      	movs	r3, r1
1000422e:	1b49      	subs	r1, r1, r5
10004230:	290f      	cmp	r1, #15
10004232:	dd00      	ble.n	10004236 <_malloc_r+0xda>
10004234:	e179      	b.n	1000452a <_malloc_r+0x3ce>
10004236:	617a      	str	r2, [r7, #20]
10004238:	613a      	str	r2, [r7, #16]
1000423a:	2900      	cmp	r1, #0
1000423c:	dab2      	bge.n	100041a4 <_malloc_r+0x48>
1000423e:	2280      	movs	r2, #128	; 0x80
10004240:	0092      	lsls	r2, r2, #2
10004242:	4591      	cmp	r9, r2
10004244:	d300      	bcc.n	10004248 <_malloc_r+0xec>
10004246:	e10e      	b.n	10004466 <_malloc_r+0x30a>
10004248:	0959      	lsrs	r1, r3, #5
1000424a:	08da      	lsrs	r2, r3, #3
1000424c:	2301      	movs	r3, #1
1000424e:	408b      	lsls	r3, r1
10004250:	00d2      	lsls	r2, r2, #3
10004252:	6879      	ldr	r1, [r7, #4]
10004254:	19d2      	adds	r2, r2, r7
10004256:	430b      	orrs	r3, r1
10004258:	6891      	ldr	r1, [r2, #8]
1000425a:	607b      	str	r3, [r7, #4]
1000425c:	60e2      	str	r2, [r4, #12]
1000425e:	60a1      	str	r1, [r4, #8]
10004260:	6094      	str	r4, [r2, #8]
10004262:	60cc      	str	r4, [r1, #12]
10004264:	2101      	movs	r1, #1
10004266:	1082      	asrs	r2, r0, #2
10004268:	4091      	lsls	r1, r2
1000426a:	4299      	cmp	r1, r3
1000426c:	d859      	bhi.n	10004322 <_malloc_r+0x1c6>
1000426e:	420b      	tst	r3, r1
10004270:	d105      	bne.n	1000427e <_malloc_r+0x122>
10004272:	2203      	movs	r2, #3
10004274:	4390      	bics	r0, r2
10004276:	0049      	lsls	r1, r1, #1
10004278:	3004      	adds	r0, #4
1000427a:	420b      	tst	r3, r1
1000427c:	d0fb      	beq.n	10004276 <_malloc_r+0x11a>
1000427e:	2303      	movs	r3, #3
10004280:	4698      	mov	r8, r3
10004282:	00c3      	lsls	r3, r0, #3
10004284:	4699      	mov	r9, r3
10004286:	44b9      	add	r9, r7
10004288:	46cc      	mov	ip, r9
1000428a:	4682      	mov	sl, r0
1000428c:	4663      	mov	r3, ip
1000428e:	68dc      	ldr	r4, [r3, #12]
10004290:	45a4      	cmp	ip, r4
10004292:	d107      	bne.n	100042a4 <_malloc_r+0x148>
10004294:	e12a      	b.n	100044ec <_malloc_r+0x390>
10004296:	2a00      	cmp	r2, #0
10004298:	db00      	blt.n	1000429c <_malloc_r+0x140>
1000429a:	e133      	b.n	10004504 <_malloc_r+0x3a8>
1000429c:	68e4      	ldr	r4, [r4, #12]
1000429e:	45a4      	cmp	ip, r4
100042a0:	d100      	bne.n	100042a4 <_malloc_r+0x148>
100042a2:	e123      	b.n	100044ec <_malloc_r+0x390>
100042a4:	4642      	mov	r2, r8
100042a6:	6863      	ldr	r3, [r4, #4]
100042a8:	4393      	bics	r3, r2
100042aa:	1b5a      	subs	r2, r3, r5
100042ac:	2a0f      	cmp	r2, #15
100042ae:	ddf2      	ble.n	10004296 <_malloc_r+0x13a>
100042b0:	2001      	movs	r0, #1
100042b2:	4680      	mov	r8, r0
100042b4:	1961      	adds	r1, r4, r5
100042b6:	4305      	orrs	r5, r0
100042b8:	6065      	str	r5, [r4, #4]
100042ba:	68a0      	ldr	r0, [r4, #8]
100042bc:	68e5      	ldr	r5, [r4, #12]
100042be:	3708      	adds	r7, #8
100042c0:	60c5      	str	r5, [r0, #12]
100042c2:	60a8      	str	r0, [r5, #8]
100042c4:	4640      	mov	r0, r8
100042c6:	4310      	orrs	r0, r2
100042c8:	60f9      	str	r1, [r7, #12]
100042ca:	60b9      	str	r1, [r7, #8]
100042cc:	6048      	str	r0, [r1, #4]
100042ce:	60cf      	str	r7, [r1, #12]
100042d0:	0030      	movs	r0, r6
100042d2:	608f      	str	r7, [r1, #8]
100042d4:	50e2      	str	r2, [r4, r3]
100042d6:	f000 fa09 	bl	100046ec <__malloc_unlock>
100042da:	0020      	movs	r0, r4
100042dc:	3008      	adds	r0, #8
100042de:	e002      	b.n	100042e6 <_malloc_r+0x18a>
100042e0:	230c      	movs	r3, #12
100042e2:	2000      	movs	r0, #0
100042e4:	6033      	str	r3, [r6, #0]
100042e6:	b003      	add	sp, #12
100042e8:	bc3c      	pop	{r2, r3, r4, r5}
100042ea:	4690      	mov	r8, r2
100042ec:	4699      	mov	r9, r3
100042ee:	46a2      	mov	sl, r4
100042f0:	46ab      	mov	fp, r5
100042f2:	bdf0      	pop	{r4, r5, r6, r7, pc}
100042f4:	2180      	movs	r1, #128	; 0x80
100042f6:	233f      	movs	r3, #63	; 0x3f
100042f8:	2040      	movs	r0, #64	; 0x40
100042fa:	4698      	mov	r8, r3
100042fc:	0089      	lsls	r1, r1, #2
100042fe:	e776      	b.n	100041ee <_malloc_r+0x92>
10004300:	68dc      	ldr	r4, [r3, #12]
10004302:	3002      	adds	r0, #2
10004304:	42a3      	cmp	r3, r4
10004306:	d000      	beq.n	1000430a <_malloc_r+0x1ae>
10004308:	e744      	b.n	10004194 <_malloc_r+0x38>
1000430a:	003a      	movs	r2, r7
1000430c:	693c      	ldr	r4, [r7, #16]
1000430e:	3208      	adds	r2, #8
10004310:	4294      	cmp	r4, r2
10004312:	d000      	beq.n	10004316 <_malloc_r+0x1ba>
10004314:	e786      	b.n	10004224 <_malloc_r+0xc8>
10004316:	2101      	movs	r1, #1
10004318:	687b      	ldr	r3, [r7, #4]
1000431a:	1082      	asrs	r2, r0, #2
1000431c:	4091      	lsls	r1, r2
1000431e:	4299      	cmp	r1, r3
10004320:	d9a5      	bls.n	1000426e <_malloc_r+0x112>
10004322:	2303      	movs	r3, #3
10004324:	68bc      	ldr	r4, [r7, #8]
10004326:	6862      	ldr	r2, [r4, #4]
10004328:	439a      	bics	r2, r3
1000432a:	4691      	mov	r9, r2
1000432c:	4295      	cmp	r5, r2
1000432e:	d803      	bhi.n	10004338 <_malloc_r+0x1dc>
10004330:	1b53      	subs	r3, r2, r5
10004332:	2b0f      	cmp	r3, #15
10004334:	dd00      	ble.n	10004338 <_malloc_r+0x1dc>
10004336:	e088      	b.n	1000444a <_malloc_r+0x2ee>
10004338:	0023      	movs	r3, r4
1000433a:	444b      	add	r3, r9
1000433c:	4a5e      	ldr	r2, [pc, #376]	; (100044b8 <_malloc_r+0x35c>)
1000433e:	9301      	str	r3, [sp, #4]
10004340:	4b5e      	ldr	r3, [pc, #376]	; (100044bc <_malloc_r+0x360>)
10004342:	4693      	mov	fp, r2
10004344:	681b      	ldr	r3, [r3, #0]
10004346:	6812      	ldr	r2, [r2, #0]
10004348:	18eb      	adds	r3, r5, r3
1000434a:	3201      	adds	r2, #1
1000434c:	d100      	bne.n	10004350 <_malloc_r+0x1f4>
1000434e:	e13b      	b.n	100045c8 <_malloc_r+0x46c>
10004350:	4a5b      	ldr	r2, [pc, #364]	; (100044c0 <_malloc_r+0x364>)
10004352:	4694      	mov	ip, r2
10004354:	4463      	add	r3, ip
10004356:	0b1b      	lsrs	r3, r3, #12
10004358:	031b      	lsls	r3, r3, #12
1000435a:	9300      	str	r3, [sp, #0]
1000435c:	0030      	movs	r0, r6
1000435e:	9900      	ldr	r1, [sp, #0]
10004360:	f000 f9cc 	bl	100046fc <_sbrk_r>
10004364:	0003      	movs	r3, r0
10004366:	4680      	mov	r8, r0
10004368:	3301      	adds	r3, #1
1000436a:	d100      	bne.n	1000436e <_malloc_r+0x212>
1000436c:	e0f8      	b.n	10004560 <_malloc_r+0x404>
1000436e:	9b01      	ldr	r3, [sp, #4]
10004370:	4283      	cmp	r3, r0
10004372:	d900      	bls.n	10004376 <_malloc_r+0x21a>
10004374:	e0f2      	b.n	1000455c <_malloc_r+0x400>
10004376:	4b53      	ldr	r3, [pc, #332]	; (100044c4 <_malloc_r+0x368>)
10004378:	0019      	movs	r1, r3
1000437a:	469a      	mov	sl, r3
1000437c:	6809      	ldr	r1, [r1, #0]
1000437e:	9b00      	ldr	r3, [sp, #0]
10004380:	468c      	mov	ip, r1
10004382:	4651      	mov	r1, sl
10004384:	4463      	add	r3, ip
10004386:	600b      	str	r3, [r1, #0]
10004388:	9901      	ldr	r1, [sp, #4]
1000438a:	001a      	movs	r2, r3
1000438c:	4281      	cmp	r1, r0
1000438e:	d100      	bne.n	10004392 <_malloc_r+0x236>
10004390:	e150      	b.n	10004634 <_malloc_r+0x4d8>
10004392:	465b      	mov	r3, fp
10004394:	681b      	ldr	r3, [r3, #0]
10004396:	3301      	adds	r3, #1
10004398:	d100      	bne.n	1000439c <_malloc_r+0x240>
1000439a:	e155      	b.n	10004648 <_malloc_r+0x4ec>
1000439c:	4643      	mov	r3, r8
1000439e:	9901      	ldr	r1, [sp, #4]
100043a0:	1a5b      	subs	r3, r3, r1
100043a2:	189a      	adds	r2, r3, r2
100043a4:	4653      	mov	r3, sl
100043a6:	601a      	str	r2, [r3, #0]
100043a8:	2307      	movs	r3, #7
100043aa:	4642      	mov	r2, r8
100043ac:	4641      	mov	r1, r8
100043ae:	401a      	ands	r2, r3
100043b0:	9201      	str	r2, [sp, #4]
100043b2:	4219      	tst	r1, r3
100043b4:	d100      	bne.n	100043b8 <_malloc_r+0x25c>
100043b6:	e111      	b.n	100045dc <_malloc_r+0x480>
100043b8:	2308      	movs	r3, #8
100043ba:	4698      	mov	r8, r3
100043bc:	1a88      	subs	r0, r1, r2
100043be:	4b42      	ldr	r3, [pc, #264]	; (100044c8 <_malloc_r+0x36c>)
100043c0:	9900      	ldr	r1, [sp, #0]
100043c2:	4480      	add	r8, r0
100043c4:	4441      	add	r1, r8
100043c6:	1a9b      	subs	r3, r3, r2
100043c8:	1a5b      	subs	r3, r3, r1
100043ca:	051b      	lsls	r3, r3, #20
100043cc:	0d1b      	lsrs	r3, r3, #20
100043ce:	9100      	str	r1, [sp, #0]
100043d0:	0030      	movs	r0, r6
100043d2:	0019      	movs	r1, r3
100043d4:	469b      	mov	fp, r3
100043d6:	f000 f991 	bl	100046fc <_sbrk_r>
100043da:	1c43      	adds	r3, r0, #1
100043dc:	d100      	bne.n	100043e0 <_malloc_r+0x284>
100043de:	e14f      	b.n	10004680 <_malloc_r+0x524>
100043e0:	4643      	mov	r3, r8
100043e2:	1ac0      	subs	r0, r0, r3
100043e4:	0003      	movs	r3, r0
100043e6:	445b      	add	r3, fp
100043e8:	9300      	str	r3, [sp, #0]
100043ea:	4653      	mov	r3, sl
100043ec:	4652      	mov	r2, sl
100043ee:	681b      	ldr	r3, [r3, #0]
100043f0:	2101      	movs	r1, #1
100043f2:	445b      	add	r3, fp
100043f4:	6013      	str	r3, [r2, #0]
100043f6:	4642      	mov	r2, r8
100043f8:	4640      	mov	r0, r8
100043fa:	60ba      	str	r2, [r7, #8]
100043fc:	9a00      	ldr	r2, [sp, #0]
100043fe:	430a      	orrs	r2, r1
10004400:	6042      	str	r2, [r0, #4]
10004402:	42bc      	cmp	r4, r7
10004404:	d100      	bne.n	10004408 <_malloc_r+0x2ac>
10004406:	e123      	b.n	10004650 <_malloc_r+0x4f4>
10004408:	464a      	mov	r2, r9
1000440a:	2a0f      	cmp	r2, #15
1000440c:	d800      	bhi.n	10004410 <_malloc_r+0x2b4>
1000440e:	e121      	b.n	10004654 <_malloc_r+0x4f8>
10004410:	2007      	movs	r0, #7
10004412:	3a0c      	subs	r2, #12
10004414:	4382      	bics	r2, r0
10004416:	6860      	ldr	r0, [r4, #4]
10004418:	4001      	ands	r1, r0
1000441a:	2005      	movs	r0, #5
1000441c:	4311      	orrs	r1, r2
1000441e:	6061      	str	r1, [r4, #4]
10004420:	18a1      	adds	r1, r4, r2
10004422:	6048      	str	r0, [r1, #4]
10004424:	6088      	str	r0, [r1, #8]
10004426:	2a0f      	cmp	r2, #15
10004428:	d900      	bls.n	1000442c <_malloc_r+0x2d0>
1000442a:	e134      	b.n	10004696 <_malloc_r+0x53a>
1000442c:	4642      	mov	r2, r8
1000442e:	4644      	mov	r4, r8
10004430:	6852      	ldr	r2, [r2, #4]
10004432:	4926      	ldr	r1, [pc, #152]	; (100044cc <_malloc_r+0x370>)
10004434:	6808      	ldr	r0, [r1, #0]
10004436:	4298      	cmp	r0, r3
10004438:	d200      	bcs.n	1000443c <_malloc_r+0x2e0>
1000443a:	600b      	str	r3, [r1, #0]
1000443c:	4924      	ldr	r1, [pc, #144]	; (100044d0 <_malloc_r+0x374>)
1000443e:	6808      	ldr	r0, [r1, #0]
10004440:	4298      	cmp	r0, r3
10004442:	d300      	bcc.n	10004446 <_malloc_r+0x2ea>
10004444:	e08e      	b.n	10004564 <_malloc_r+0x408>
10004446:	600b      	str	r3, [r1, #0]
10004448:	e08c      	b.n	10004564 <_malloc_r+0x408>
1000444a:	2201      	movs	r2, #1
1000444c:	0029      	movs	r1, r5
1000444e:	4313      	orrs	r3, r2
10004450:	4311      	orrs	r1, r2
10004452:	1965      	adds	r5, r4, r5
10004454:	6061      	str	r1, [r4, #4]
10004456:	0030      	movs	r0, r6
10004458:	60bd      	str	r5, [r7, #8]
1000445a:	606b      	str	r3, [r5, #4]
1000445c:	f000 f946 	bl	100046ec <__malloc_unlock>
10004460:	0020      	movs	r0, r4
10004462:	3008      	adds	r0, #8
10004464:	e73f      	b.n	100042e6 <_malloc_r+0x18a>
10004466:	0a5a      	lsrs	r2, r3, #9
10004468:	2a04      	cmp	r2, #4
1000446a:	d971      	bls.n	10004550 <_malloc_r+0x3f4>
1000446c:	2a14      	cmp	r2, #20
1000446e:	d900      	bls.n	10004472 <_malloc_r+0x316>
10004470:	e0c4      	b.n	100045fc <_malloc_r+0x4a0>
10004472:	0011      	movs	r1, r2
10004474:	325c      	adds	r2, #92	; 0x5c
10004476:	315b      	adds	r1, #91	; 0x5b
10004478:	00d2      	lsls	r2, r2, #3
1000447a:	2308      	movs	r3, #8
1000447c:	425b      	negs	r3, r3
1000447e:	469c      	mov	ip, r3
10004480:	18ba      	adds	r2, r7, r2
10004482:	4494      	add	ip, r2
10004484:	4663      	mov	r3, ip
10004486:	689a      	ldr	r2, [r3, #8]
10004488:	2303      	movs	r3, #3
1000448a:	4698      	mov	r8, r3
1000448c:	4594      	cmp	ip, r2
1000448e:	d100      	bne.n	10004492 <_malloc_r+0x336>
10004490:	e09d      	b.n	100045ce <_malloc_r+0x472>
10004492:	4643      	mov	r3, r8
10004494:	6851      	ldr	r1, [r2, #4]
10004496:	4399      	bics	r1, r3
10004498:	4549      	cmp	r1, r9
1000449a:	d902      	bls.n	100044a2 <_malloc_r+0x346>
1000449c:	6892      	ldr	r2, [r2, #8]
1000449e:	4594      	cmp	ip, r2
100044a0:	d1f7      	bne.n	10004492 <_malloc_r+0x336>
100044a2:	68d3      	ldr	r3, [r2, #12]
100044a4:	469c      	mov	ip, r3
100044a6:	687b      	ldr	r3, [r7, #4]
100044a8:	4661      	mov	r1, ip
100044aa:	60a2      	str	r2, [r4, #8]
100044ac:	60e1      	str	r1, [r4, #12]
100044ae:	608c      	str	r4, [r1, #8]
100044b0:	60d4      	str	r4, [r2, #12]
100044b2:	e6d7      	b.n	10004264 <_malloc_r+0x108>
100044b4:	20000640 	.word	0x20000640
100044b8:	20000a48 	.word	0x20000a48
100044bc:	20000ab8 	.word	0x20000ab8
100044c0:	0000100f 	.word	0x0000100f
100044c4:	20000a88 	.word	0x20000a88
100044c8:	00001008 	.word	0x00001008
100044cc:	20000ab0 	.word	0x20000ab0
100044d0:	20000ab4 	.word	0x20000ab4
100044d4:	2814      	cmp	r0, #20
100044d6:	d952      	bls.n	1000457e <_malloc_r+0x422>
100044d8:	2854      	cmp	r0, #84	; 0x54
100044da:	d900      	bls.n	100044de <_malloc_r+0x382>
100044dc:	e096      	b.n	1000460c <_malloc_r+0x4b0>
100044de:	236e      	movs	r3, #110	; 0x6e
100044e0:	4698      	mov	r8, r3
100044e2:	0b28      	lsrs	r0, r5, #12
100044e4:	4480      	add	r8, r0
100044e6:	306f      	adds	r0, #111	; 0x6f
100044e8:	00c1      	lsls	r1, r0, #3
100044ea:	e680      	b.n	100041ee <_malloc_r+0x92>
100044ec:	2308      	movs	r3, #8
100044ee:	469b      	mov	fp, r3
100044f0:	3b07      	subs	r3, #7
100044f2:	44dc      	add	ip, fp
100044f4:	469b      	mov	fp, r3
100044f6:	44da      	add	sl, fp
100044f8:	4643      	mov	r3, r8
100044fa:	4652      	mov	r2, sl
100044fc:	4213      	tst	r3, r2
100044fe:	d000      	beq.n	10004502 <_malloc_r+0x3a6>
10004500:	e6c4      	b.n	1000428c <_malloc_r+0x130>
10004502:	e04c      	b.n	1000459e <_malloc_r+0x442>
10004504:	2201      	movs	r2, #1
10004506:	18e3      	adds	r3, r4, r3
10004508:	6859      	ldr	r1, [r3, #4]
1000450a:	0030      	movs	r0, r6
1000450c:	430a      	orrs	r2, r1
1000450e:	605a      	str	r2, [r3, #4]
10004510:	68e3      	ldr	r3, [r4, #12]
10004512:	68a2      	ldr	r2, [r4, #8]
10004514:	60d3      	str	r3, [r2, #12]
10004516:	609a      	str	r2, [r3, #8]
10004518:	f000 f8e8 	bl	100046ec <__malloc_unlock>
1000451c:	0020      	movs	r0, r4
1000451e:	3008      	adds	r0, #8
10004520:	e6e1      	b.n	100042e6 <_malloc_r+0x18a>
10004522:	002b      	movs	r3, r5
10004524:	08e8      	lsrs	r0, r5, #3
10004526:	3308      	adds	r3, #8
10004528:	e62c      	b.n	10004184 <_malloc_r+0x28>
1000452a:	2301      	movs	r3, #1
1000452c:	1960      	adds	r0, r4, r5
1000452e:	431d      	orrs	r5, r3
10004530:	6065      	str	r5, [r4, #4]
10004532:	6178      	str	r0, [r7, #20]
10004534:	6138      	str	r0, [r7, #16]
10004536:	60c2      	str	r2, [r0, #12]
10004538:	6082      	str	r2, [r0, #8]
1000453a:	001a      	movs	r2, r3
1000453c:	464b      	mov	r3, r9
1000453e:	430a      	orrs	r2, r1
10004540:	6042      	str	r2, [r0, #4]
10004542:	0030      	movs	r0, r6
10004544:	50e1      	str	r1, [r4, r3]
10004546:	f000 f8d1 	bl	100046ec <__malloc_unlock>
1000454a:	0020      	movs	r0, r4
1000454c:	3008      	adds	r0, #8
1000454e:	e6ca      	b.n	100042e6 <_malloc_r+0x18a>
10004550:	099a      	lsrs	r2, r3, #6
10004552:	0011      	movs	r1, r2
10004554:	3239      	adds	r2, #57	; 0x39
10004556:	3138      	adds	r1, #56	; 0x38
10004558:	00d2      	lsls	r2, r2, #3
1000455a:	e78e      	b.n	1000447a <_malloc_r+0x31e>
1000455c:	42bc      	cmp	r4, r7
1000455e:	d060      	beq.n	10004622 <_malloc_r+0x4c6>
10004560:	68bc      	ldr	r4, [r7, #8]
10004562:	6862      	ldr	r2, [r4, #4]
10004564:	2303      	movs	r3, #3
10004566:	439a      	bics	r2, r3
10004568:	1b53      	subs	r3, r2, r5
1000456a:	4295      	cmp	r5, r2
1000456c:	d802      	bhi.n	10004574 <_malloc_r+0x418>
1000456e:	2b0f      	cmp	r3, #15
10004570:	dd00      	ble.n	10004574 <_malloc_r+0x418>
10004572:	e76a      	b.n	1000444a <_malloc_r+0x2ee>
10004574:	0030      	movs	r0, r6
10004576:	f000 f8b9 	bl	100046ec <__malloc_unlock>
1000457a:	2000      	movs	r0, #0
1000457c:	e6b3      	b.n	100042e6 <_malloc_r+0x18a>
1000457e:	235b      	movs	r3, #91	; 0x5b
10004580:	4698      	mov	r8, r3
10004582:	4480      	add	r8, r0
10004584:	305c      	adds	r0, #92	; 0x5c
10004586:	00c1      	lsls	r1, r0, #3
10004588:	e631      	b.n	100041ee <_malloc_r+0x92>
1000458a:	2308      	movs	r3, #8
1000458c:	425b      	negs	r3, r3
1000458e:	469c      	mov	ip, r3
10004590:	44e1      	add	r9, ip
10004592:	464b      	mov	r3, r9
10004594:	689b      	ldr	r3, [r3, #8]
10004596:	3801      	subs	r0, #1
10004598:	454b      	cmp	r3, r9
1000459a:	d000      	beq.n	1000459e <_malloc_r+0x442>
1000459c:	e098      	b.n	100046d0 <_malloc_r+0x574>
1000459e:	4643      	mov	r3, r8
100045a0:	4203      	tst	r3, r0
100045a2:	d1f2      	bne.n	1000458a <_malloc_r+0x42e>
100045a4:	687b      	ldr	r3, [r7, #4]
100045a6:	438b      	bics	r3, r1
100045a8:	607b      	str	r3, [r7, #4]
100045aa:	0049      	lsls	r1, r1, #1
100045ac:	4299      	cmp	r1, r3
100045ae:	d900      	bls.n	100045b2 <_malloc_r+0x456>
100045b0:	e6b7      	b.n	10004322 <_malloc_r+0x1c6>
100045b2:	2900      	cmp	r1, #0
100045b4:	d104      	bne.n	100045c0 <_malloc_r+0x464>
100045b6:	e6b4      	b.n	10004322 <_malloc_r+0x1c6>
100045b8:	2204      	movs	r2, #4
100045ba:	4694      	mov	ip, r2
100045bc:	0049      	lsls	r1, r1, #1
100045be:	44e2      	add	sl, ip
100045c0:	420b      	tst	r3, r1
100045c2:	d0f9      	beq.n	100045b8 <_malloc_r+0x45c>
100045c4:	4650      	mov	r0, sl
100045c6:	e65c      	b.n	10004282 <_malloc_r+0x126>
100045c8:	3310      	adds	r3, #16
100045ca:	9300      	str	r3, [sp, #0]
100045cc:	e6c6      	b.n	1000435c <_malloc_r+0x200>
100045ce:	1089      	asrs	r1, r1, #2
100045d0:	3b02      	subs	r3, #2
100045d2:	408b      	lsls	r3, r1
100045d4:	6879      	ldr	r1, [r7, #4]
100045d6:	430b      	orrs	r3, r1
100045d8:	607b      	str	r3, [r7, #4]
100045da:	e765      	b.n	100044a8 <_malloc_r+0x34c>
100045dc:	9b00      	ldr	r3, [sp, #0]
100045de:	0030      	movs	r0, r6
100045e0:	4443      	add	r3, r8
100045e2:	425b      	negs	r3, r3
100045e4:	051b      	lsls	r3, r3, #20
100045e6:	0d1b      	lsrs	r3, r3, #20
100045e8:	0019      	movs	r1, r3
100045ea:	469b      	mov	fp, r3
100045ec:	f000 f886 	bl	100046fc <_sbrk_r>
100045f0:	1c43      	adds	r3, r0, #1
100045f2:	d000      	beq.n	100045f6 <_malloc_r+0x49a>
100045f4:	e6f4      	b.n	100043e0 <_malloc_r+0x284>
100045f6:	2300      	movs	r3, #0
100045f8:	469b      	mov	fp, r3
100045fa:	e6f6      	b.n	100043ea <_malloc_r+0x28e>
100045fc:	2a54      	cmp	r2, #84	; 0x54
100045fe:	d82b      	bhi.n	10004658 <_malloc_r+0x4fc>
10004600:	0b1a      	lsrs	r2, r3, #12
10004602:	0011      	movs	r1, r2
10004604:	326f      	adds	r2, #111	; 0x6f
10004606:	316e      	adds	r1, #110	; 0x6e
10004608:	00d2      	lsls	r2, r2, #3
1000460a:	e736      	b.n	1000447a <_malloc_r+0x31e>
1000460c:	23aa      	movs	r3, #170	; 0xaa
1000460e:	005b      	lsls	r3, r3, #1
10004610:	4298      	cmp	r0, r3
10004612:	d82b      	bhi.n	1000466c <_malloc_r+0x510>
10004614:	3bdd      	subs	r3, #221	; 0xdd
10004616:	4698      	mov	r8, r3
10004618:	0be8      	lsrs	r0, r5, #15
1000461a:	4480      	add	r8, r0
1000461c:	3078      	adds	r0, #120	; 0x78
1000461e:	00c1      	lsls	r1, r0, #3
10004620:	e5e5      	b.n	100041ee <_malloc_r+0x92>
10004622:	4b2c      	ldr	r3, [pc, #176]	; (100046d4 <_malloc_r+0x578>)
10004624:	9a00      	ldr	r2, [sp, #0]
10004626:	469a      	mov	sl, r3
10004628:	681b      	ldr	r3, [r3, #0]
1000462a:	469c      	mov	ip, r3
1000462c:	4653      	mov	r3, sl
1000462e:	4462      	add	r2, ip
10004630:	601a      	str	r2, [r3, #0]
10004632:	e6ae      	b.n	10004392 <_malloc_r+0x236>
10004634:	0509      	lsls	r1, r1, #20
10004636:	d000      	beq.n	1000463a <_malloc_r+0x4de>
10004638:	e6ab      	b.n	10004392 <_malloc_r+0x236>
1000463a:	9a00      	ldr	r2, [sp, #0]
1000463c:	68bc      	ldr	r4, [r7, #8]
1000463e:	444a      	add	r2, r9
10004640:	3101      	adds	r1, #1
10004642:	430a      	orrs	r2, r1
10004644:	6062      	str	r2, [r4, #4]
10004646:	e6f4      	b.n	10004432 <_malloc_r+0x2d6>
10004648:	465b      	mov	r3, fp
1000464a:	4642      	mov	r2, r8
1000464c:	601a      	str	r2, [r3, #0]
1000464e:	e6ab      	b.n	100043a8 <_malloc_r+0x24c>
10004650:	4644      	mov	r4, r8
10004652:	e6ee      	b.n	10004432 <_malloc_r+0x2d6>
10004654:	6041      	str	r1, [r0, #4]
10004656:	e78d      	b.n	10004574 <_malloc_r+0x418>
10004658:	21aa      	movs	r1, #170	; 0xaa
1000465a:	0049      	lsls	r1, r1, #1
1000465c:	428a      	cmp	r2, r1
1000465e:	d824      	bhi.n	100046aa <_malloc_r+0x54e>
10004660:	0bda      	lsrs	r2, r3, #15
10004662:	0011      	movs	r1, r2
10004664:	3278      	adds	r2, #120	; 0x78
10004666:	3177      	adds	r1, #119	; 0x77
10004668:	00d2      	lsls	r2, r2, #3
1000466a:	e706      	b.n	1000447a <_malloc_r+0x31e>
1000466c:	4b1a      	ldr	r3, [pc, #104]	; (100046d8 <_malloc_r+0x57c>)
1000466e:	4298      	cmp	r0, r3
10004670:	d824      	bhi.n	100046bc <_malloc_r+0x560>
10004672:	237c      	movs	r3, #124	; 0x7c
10004674:	4698      	mov	r8, r3
10004676:	0ca8      	lsrs	r0, r5, #18
10004678:	4480      	add	r8, r0
1000467a:	307d      	adds	r0, #125	; 0x7d
1000467c:	00c1      	lsls	r1, r0, #3
1000467e:	e5b6      	b.n	100041ee <_malloc_r+0x92>
10004680:	9a00      	ldr	r2, [sp, #0]
10004682:	9b01      	ldr	r3, [sp, #4]
10004684:	4694      	mov	ip, r2
10004686:	4642      	mov	r2, r8
10004688:	3b08      	subs	r3, #8
1000468a:	4463      	add	r3, ip
1000468c:	1a9b      	subs	r3, r3, r2
1000468e:	9300      	str	r3, [sp, #0]
10004690:	2300      	movs	r3, #0
10004692:	469b      	mov	fp, r3
10004694:	e6a9      	b.n	100043ea <_malloc_r+0x28e>
10004696:	0021      	movs	r1, r4
10004698:	0030      	movs	r0, r6
1000469a:	3108      	adds	r1, #8
1000469c:	f000 f8bc 	bl	10004818 <_free_r>
100046a0:	4653      	mov	r3, sl
100046a2:	68bc      	ldr	r4, [r7, #8]
100046a4:	681b      	ldr	r3, [r3, #0]
100046a6:	6862      	ldr	r2, [r4, #4]
100046a8:	e6c3      	b.n	10004432 <_malloc_r+0x2d6>
100046aa:	490b      	ldr	r1, [pc, #44]	; (100046d8 <_malloc_r+0x57c>)
100046ac:	428a      	cmp	r2, r1
100046ae:	d80b      	bhi.n	100046c8 <_malloc_r+0x56c>
100046b0:	0c9a      	lsrs	r2, r3, #18
100046b2:	0011      	movs	r1, r2
100046b4:	327d      	adds	r2, #125	; 0x7d
100046b6:	317c      	adds	r1, #124	; 0x7c
100046b8:	00d2      	lsls	r2, r2, #3
100046ba:	e6de      	b.n	1000447a <_malloc_r+0x31e>
100046bc:	21fe      	movs	r1, #254	; 0xfe
100046be:	237e      	movs	r3, #126	; 0x7e
100046c0:	207f      	movs	r0, #127	; 0x7f
100046c2:	4698      	mov	r8, r3
100046c4:	0089      	lsls	r1, r1, #2
100046c6:	e592      	b.n	100041ee <_malloc_r+0x92>
100046c8:	22fe      	movs	r2, #254	; 0xfe
100046ca:	217e      	movs	r1, #126	; 0x7e
100046cc:	0092      	lsls	r2, r2, #2
100046ce:	e6d4      	b.n	1000447a <_malloc_r+0x31e>
100046d0:	687b      	ldr	r3, [r7, #4]
100046d2:	e76a      	b.n	100045aa <_malloc_r+0x44e>
100046d4:	20000a88 	.word	0x20000a88
100046d8:	00000554 	.word	0x00000554

100046dc <__malloc_lock>:
100046dc:	b510      	push	{r4, lr}
100046de:	4802      	ldr	r0, [pc, #8]	; (100046e8 <__malloc_lock+0xc>)
100046e0:	f000 f97c 	bl	100049dc <__retarget_lock_acquire_recursive>
100046e4:	bd10      	pop	{r4, pc}
100046e6:	46c0      	nop			; (mov r8, r8)
100046e8:	20000d44 	.word	0x20000d44

100046ec <__malloc_unlock>:
100046ec:	b510      	push	{r4, lr}
100046ee:	4802      	ldr	r0, [pc, #8]	; (100046f8 <__malloc_unlock+0xc>)
100046f0:	f000 f976 	bl	100049e0 <__retarget_lock_release_recursive>
100046f4:	bd10      	pop	{r4, pc}
100046f6:	46c0      	nop			; (mov r8, r8)
100046f8:	20000d44 	.word	0x20000d44

100046fc <_sbrk_r>:
100046fc:	2300      	movs	r3, #0
100046fe:	b570      	push	{r4, r5, r6, lr}
10004700:	4d06      	ldr	r5, [pc, #24]	; (1000471c <_sbrk_r+0x20>)
10004702:	0004      	movs	r4, r0
10004704:	0008      	movs	r0, r1
10004706:	602b      	str	r3, [r5, #0]
10004708:	f7fc fce4 	bl	100010d4 <_sbrk>
1000470c:	1c43      	adds	r3, r0, #1
1000470e:	d000      	beq.n	10004712 <_sbrk_r+0x16>
10004710:	bd70      	pop	{r4, r5, r6, pc}
10004712:	682b      	ldr	r3, [r5, #0]
10004714:	2b00      	cmp	r3, #0
10004716:	d0fb      	beq.n	10004710 <_sbrk_r+0x14>
10004718:	6023      	str	r3, [r4, #0]
1000471a:	e7f9      	b.n	10004710 <_sbrk_r+0x14>
1000471c:	20000d58 	.word	0x20000d58

10004720 <strlen>:
10004720:	b510      	push	{r4, lr}
10004722:	0783      	lsls	r3, r0, #30
10004724:	d00a      	beq.n	1000473c <strlen+0x1c>
10004726:	0003      	movs	r3, r0
10004728:	2103      	movs	r1, #3
1000472a:	e002      	b.n	10004732 <strlen+0x12>
1000472c:	3301      	adds	r3, #1
1000472e:	420b      	tst	r3, r1
10004730:	d005      	beq.n	1000473e <strlen+0x1e>
10004732:	781a      	ldrb	r2, [r3, #0]
10004734:	2a00      	cmp	r2, #0
10004736:	d1f9      	bne.n	1000472c <strlen+0xc>
10004738:	1a18      	subs	r0, r3, r0
1000473a:	bd10      	pop	{r4, pc}
1000473c:	0003      	movs	r3, r0
1000473e:	6819      	ldr	r1, [r3, #0]
10004740:	4a0c      	ldr	r2, [pc, #48]	; (10004774 <strlen+0x54>)
10004742:	4c0d      	ldr	r4, [pc, #52]	; (10004778 <strlen+0x58>)
10004744:	188a      	adds	r2, r1, r2
10004746:	438a      	bics	r2, r1
10004748:	4222      	tst	r2, r4
1000474a:	d10f      	bne.n	1000476c <strlen+0x4c>
1000474c:	6859      	ldr	r1, [r3, #4]
1000474e:	4a09      	ldr	r2, [pc, #36]	; (10004774 <strlen+0x54>)
10004750:	3304      	adds	r3, #4
10004752:	188a      	adds	r2, r1, r2
10004754:	438a      	bics	r2, r1
10004756:	4222      	tst	r2, r4
10004758:	d108      	bne.n	1000476c <strlen+0x4c>
1000475a:	6859      	ldr	r1, [r3, #4]
1000475c:	4a05      	ldr	r2, [pc, #20]	; (10004774 <strlen+0x54>)
1000475e:	3304      	adds	r3, #4
10004760:	188a      	adds	r2, r1, r2
10004762:	438a      	bics	r2, r1
10004764:	4222      	tst	r2, r4
10004766:	d0f1      	beq.n	1000474c <strlen+0x2c>
10004768:	e000      	b.n	1000476c <strlen+0x4c>
1000476a:	3301      	adds	r3, #1
1000476c:	781a      	ldrb	r2, [r3, #0]
1000476e:	2a00      	cmp	r2, #0
10004770:	d1fb      	bne.n	1000476a <strlen+0x4a>
10004772:	e7e1      	b.n	10004738 <strlen+0x18>
10004774:	fefefeff 	.word	0xfefefeff
10004778:	80808080 	.word	0x80808080

1000477c <_malloc_trim_r>:
1000477c:	b5f8      	push	{r3, r4, r5, r6, r7, lr}
1000477e:	000c      	movs	r4, r1
10004780:	0005      	movs	r5, r0
10004782:	f7ff ffab 	bl	100046dc <__malloc_lock>
10004786:	4f20      	ldr	r7, [pc, #128]	; (10004808 <_malloc_trim_r+0x8c>)
10004788:	68bb      	ldr	r3, [r7, #8]
1000478a:	685e      	ldr	r6, [r3, #4]
1000478c:	2303      	movs	r3, #3
1000478e:	439e      	bics	r6, r3
10004790:	4b1e      	ldr	r3, [pc, #120]	; (1000480c <_malloc_trim_r+0x90>)
10004792:	1b34      	subs	r4, r6, r4
10004794:	469c      	mov	ip, r3
10004796:	4464      	add	r4, ip
10004798:	0b24      	lsrs	r4, r4, #12
1000479a:	3c01      	subs	r4, #1
1000479c:	3311      	adds	r3, #17
1000479e:	0324      	lsls	r4, r4, #12
100047a0:	429c      	cmp	r4, r3
100047a2:	db07      	blt.n	100047b4 <_malloc_trim_r+0x38>
100047a4:	2100      	movs	r1, #0
100047a6:	0028      	movs	r0, r5
100047a8:	f7ff ffa8 	bl	100046fc <_sbrk_r>
100047ac:	68bb      	ldr	r3, [r7, #8]
100047ae:	199b      	adds	r3, r3, r6
100047b0:	4298      	cmp	r0, r3
100047b2:	d004      	beq.n	100047be <_malloc_trim_r+0x42>
100047b4:	0028      	movs	r0, r5
100047b6:	f7ff ff99 	bl	100046ec <__malloc_unlock>
100047ba:	2000      	movs	r0, #0
100047bc:	bdf8      	pop	{r3, r4, r5, r6, r7, pc}
100047be:	0028      	movs	r0, r5
100047c0:	4261      	negs	r1, r4
100047c2:	f7ff ff9b 	bl	100046fc <_sbrk_r>
100047c6:	1c43      	adds	r3, r0, #1
100047c8:	d00d      	beq.n	100047e6 <_malloc_trim_r+0x6a>
100047ca:	2201      	movs	r2, #1
100047cc:	68bb      	ldr	r3, [r7, #8]
100047ce:	1b36      	subs	r6, r6, r4
100047d0:	4316      	orrs	r6, r2
100047d2:	605e      	str	r6, [r3, #4]
100047d4:	4b0e      	ldr	r3, [pc, #56]	; (10004810 <_malloc_trim_r+0x94>)
100047d6:	0028      	movs	r0, r5
100047d8:	681a      	ldr	r2, [r3, #0]
100047da:	1b14      	subs	r4, r2, r4
100047dc:	601c      	str	r4, [r3, #0]
100047de:	f7ff ff85 	bl	100046ec <__malloc_unlock>
100047e2:	2001      	movs	r0, #1
100047e4:	e7ea      	b.n	100047bc <_malloc_trim_r+0x40>
100047e6:	2100      	movs	r1, #0
100047e8:	0028      	movs	r0, r5
100047ea:	f7ff ff87 	bl	100046fc <_sbrk_r>
100047ee:	68ba      	ldr	r2, [r7, #8]
100047f0:	1a83      	subs	r3, r0, r2
100047f2:	2b0f      	cmp	r3, #15
100047f4:	ddde      	ble.n	100047b4 <_malloc_trim_r+0x38>
100047f6:	4907      	ldr	r1, [pc, #28]	; (10004814 <_malloc_trim_r+0x98>)
100047f8:	6809      	ldr	r1, [r1, #0]
100047fa:	1a40      	subs	r0, r0, r1
100047fc:	4904      	ldr	r1, [pc, #16]	; (10004810 <_malloc_trim_r+0x94>)
100047fe:	6008      	str	r0, [r1, #0]
10004800:	2101      	movs	r1, #1
10004802:	430b      	orrs	r3, r1
10004804:	6053      	str	r3, [r2, #4]
10004806:	e7d5      	b.n	100047b4 <_malloc_trim_r+0x38>
10004808:	20000640 	.word	0x20000640
1000480c:	00000fef 	.word	0x00000fef
10004810:	20000a88 	.word	0x20000a88
10004814:	20000a48 	.word	0x20000a48

10004818 <_free_r>:
10004818:	b5f0      	push	{r4, r5, r6, r7, lr}
1000481a:	46c6      	mov	lr, r8
1000481c:	0005      	movs	r5, r0
1000481e:	000c      	movs	r4, r1
10004820:	b500      	push	{lr}
10004822:	2900      	cmp	r1, #0
10004824:	d04f      	beq.n	100048c6 <_free_r+0xae>
10004826:	f7ff ff59 	bl	100046dc <__malloc_lock>
1000482a:	0021      	movs	r1, r4
1000482c:	3908      	subs	r1, #8
1000482e:	684c      	ldr	r4, [r1, #4]
10004830:	2601      	movs	r6, #1
10004832:	0022      	movs	r2, r4
10004834:	2003      	movs	r0, #3
10004836:	43b2      	bics	r2, r6
10004838:	188f      	adds	r7, r1, r2
1000483a:	687b      	ldr	r3, [r7, #4]
1000483c:	4383      	bics	r3, r0
1000483e:	4862      	ldr	r0, [pc, #392]	; (100049c8 <_free_r+0x1b0>)
10004840:	4698      	mov	r8, r3
10004842:	6883      	ldr	r3, [r0, #8]
10004844:	42bb      	cmp	r3, r7
10004846:	d06b      	beq.n	10004920 <_free_r+0x108>
10004848:	4643      	mov	r3, r8
1000484a:	607b      	str	r3, [r7, #4]
1000484c:	4226      	tst	r6, r4
1000484e:	d11e      	bne.n	1000488e <_free_r+0x76>
10004850:	2308      	movs	r3, #8
10004852:	469c      	mov	ip, r3
10004854:	680c      	ldr	r4, [r1, #0]
10004856:	4484      	add	ip, r0
10004858:	1b09      	subs	r1, r1, r4
1000485a:	1912      	adds	r2, r2, r4
1000485c:	688c      	ldr	r4, [r1, #8]
1000485e:	4564      	cmp	r4, ip
10004860:	d04f      	beq.n	10004902 <_free_r+0xea>
10004862:	68cb      	ldr	r3, [r1, #12]
10004864:	60e3      	str	r3, [r4, #12]
10004866:	609c      	str	r4, [r3, #8]
10004868:	4643      	mov	r3, r8
1000486a:	18fc      	adds	r4, r7, r3
1000486c:	6864      	ldr	r4, [r4, #4]
1000486e:	4234      	tst	r4, r6
10004870:	d111      	bne.n	10004896 <_free_r+0x7e>
10004872:	68bb      	ldr	r3, [r7, #8]
10004874:	4c55      	ldr	r4, [pc, #340]	; (100049cc <_free_r+0x1b4>)
10004876:	4442      	add	r2, r8
10004878:	42a3      	cmp	r3, r4
1000487a:	d100      	bne.n	1000487e <_free_r+0x66>
1000487c:	e07f      	b.n	1000497e <_free_r+0x166>
1000487e:	68fc      	ldr	r4, [r7, #12]
10004880:	60dc      	str	r4, [r3, #12]
10004882:	60a3      	str	r3, [r4, #8]
10004884:	2301      	movs	r3, #1
10004886:	4313      	orrs	r3, r2
10004888:	604b      	str	r3, [r1, #4]
1000488a:	508a      	str	r2, [r1, r2]
1000488c:	e006      	b.n	1000489c <_free_r+0x84>
1000488e:	18fc      	adds	r4, r7, r3
10004890:	6864      	ldr	r4, [r4, #4]
10004892:	4234      	tst	r4, r6
10004894:	d0ed      	beq.n	10004872 <_free_r+0x5a>
10004896:	4316      	orrs	r6, r2
10004898:	604e      	str	r6, [r1, #4]
1000489a:	603a      	str	r2, [r7, #0]
1000489c:	2380      	movs	r3, #128	; 0x80
1000489e:	009b      	lsls	r3, r3, #2
100048a0:	429a      	cmp	r2, r3
100048a2:	d213      	bcs.n	100048cc <_free_r+0xb4>
100048a4:	0954      	lsrs	r4, r2, #5
100048a6:	08d3      	lsrs	r3, r2, #3
100048a8:	2201      	movs	r2, #1
100048aa:	40a2      	lsls	r2, r4
100048ac:	6844      	ldr	r4, [r0, #4]
100048ae:	00db      	lsls	r3, r3, #3
100048b0:	4322      	orrs	r2, r4
100048b2:	6042      	str	r2, [r0, #4]
100048b4:	1818      	adds	r0, r3, r0
100048b6:	6883      	ldr	r3, [r0, #8]
100048b8:	60c8      	str	r0, [r1, #12]
100048ba:	608b      	str	r3, [r1, #8]
100048bc:	6081      	str	r1, [r0, #8]
100048be:	60d9      	str	r1, [r3, #12]
100048c0:	0028      	movs	r0, r5
100048c2:	f7ff ff13 	bl	100046ec <__malloc_unlock>
100048c6:	bc04      	pop	{r2}
100048c8:	4690      	mov	r8, r2
100048ca:	bdf0      	pop	{r4, r5, r6, r7, pc}
100048cc:	0a53      	lsrs	r3, r2, #9
100048ce:	2b04      	cmp	r3, #4
100048d0:	d83f      	bhi.n	10004952 <_free_r+0x13a>
100048d2:	0994      	lsrs	r4, r2, #6
100048d4:	0026      	movs	r6, r4
100048d6:	3439      	adds	r4, #57	; 0x39
100048d8:	3638      	adds	r6, #56	; 0x38
100048da:	00e4      	lsls	r4, r4, #3
100048dc:	1904      	adds	r4, r0, r4
100048de:	6823      	ldr	r3, [r4, #0]
100048e0:	3c08      	subs	r4, #8
100048e2:	2703      	movs	r7, #3
100048e4:	429c      	cmp	r4, r3
100048e6:	d043      	beq.n	10004970 <_free_r+0x158>
100048e8:	6858      	ldr	r0, [r3, #4]
100048ea:	43b8      	bics	r0, r7
100048ec:	4290      	cmp	r0, r2
100048ee:	d902      	bls.n	100048f6 <_free_r+0xde>
100048f0:	689b      	ldr	r3, [r3, #8]
100048f2:	429c      	cmp	r4, r3
100048f4:	d1f8      	bne.n	100048e8 <_free_r+0xd0>
100048f6:	68dc      	ldr	r4, [r3, #12]
100048f8:	60cc      	str	r4, [r1, #12]
100048fa:	608b      	str	r3, [r1, #8]
100048fc:	60a1      	str	r1, [r4, #8]
100048fe:	60d9      	str	r1, [r3, #12]
10004900:	e7de      	b.n	100048c0 <_free_r+0xa8>
10004902:	4643      	mov	r3, r8
10004904:	18f8      	adds	r0, r7, r3
10004906:	6840      	ldr	r0, [r0, #4]
10004908:	4230      	tst	r0, r6
1000490a:	d158      	bne.n	100049be <_free_r+0x1a6>
1000490c:	0013      	movs	r3, r2
1000490e:	68b8      	ldr	r0, [r7, #8]
10004910:	68fa      	ldr	r2, [r7, #12]
10004912:	4443      	add	r3, r8
10004914:	431e      	orrs	r6, r3
10004916:	60c2      	str	r2, [r0, #12]
10004918:	6090      	str	r0, [r2, #8]
1000491a:	604e      	str	r6, [r1, #4]
1000491c:	50cb      	str	r3, [r1, r3]
1000491e:	e7cf      	b.n	100048c0 <_free_r+0xa8>
10004920:	0013      	movs	r3, r2
10004922:	4443      	add	r3, r8
10004924:	4226      	tst	r6, r4
10004926:	d106      	bne.n	10004936 <_free_r+0x11e>
10004928:	680a      	ldr	r2, [r1, #0]
1000492a:	1a89      	subs	r1, r1, r2
1000492c:	688c      	ldr	r4, [r1, #8]
1000492e:	189b      	adds	r3, r3, r2
10004930:	68ca      	ldr	r2, [r1, #12]
10004932:	60e2      	str	r2, [r4, #12]
10004934:	6094      	str	r4, [r2, #8]
10004936:	2201      	movs	r2, #1
10004938:	431a      	orrs	r2, r3
1000493a:	604a      	str	r2, [r1, #4]
1000493c:	4a24      	ldr	r2, [pc, #144]	; (100049d0 <_free_r+0x1b8>)
1000493e:	6081      	str	r1, [r0, #8]
10004940:	6812      	ldr	r2, [r2, #0]
10004942:	429a      	cmp	r2, r3
10004944:	d8bc      	bhi.n	100048c0 <_free_r+0xa8>
10004946:	4b23      	ldr	r3, [pc, #140]	; (100049d4 <_free_r+0x1bc>)
10004948:	0028      	movs	r0, r5
1000494a:	6819      	ldr	r1, [r3, #0]
1000494c:	f7ff ff16 	bl	1000477c <_malloc_trim_r>
10004950:	e7b6      	b.n	100048c0 <_free_r+0xa8>
10004952:	2b14      	cmp	r3, #20
10004954:	d907      	bls.n	10004966 <_free_r+0x14e>
10004956:	2b54      	cmp	r3, #84	; 0x54
10004958:	d81a      	bhi.n	10004990 <_free_r+0x178>
1000495a:	0b14      	lsrs	r4, r2, #12
1000495c:	0026      	movs	r6, r4
1000495e:	346f      	adds	r4, #111	; 0x6f
10004960:	366e      	adds	r6, #110	; 0x6e
10004962:	00e4      	lsls	r4, r4, #3
10004964:	e7ba      	b.n	100048dc <_free_r+0xc4>
10004966:	001e      	movs	r6, r3
10004968:	335c      	adds	r3, #92	; 0x5c
1000496a:	365b      	adds	r6, #91	; 0x5b
1000496c:	00dc      	lsls	r4, r3, #3
1000496e:	e7b5      	b.n	100048dc <_free_r+0xc4>
10004970:	2201      	movs	r2, #1
10004972:	10b6      	asrs	r6, r6, #2
10004974:	40b2      	lsls	r2, r6
10004976:	6846      	ldr	r6, [r0, #4]
10004978:	4332      	orrs	r2, r6
1000497a:	6042      	str	r2, [r0, #4]
1000497c:	e7bc      	b.n	100048f8 <_free_r+0xe0>
1000497e:	60d9      	str	r1, [r3, #12]
10004980:	6099      	str	r1, [r3, #8]
10004982:	60cb      	str	r3, [r1, #12]
10004984:	608b      	str	r3, [r1, #8]
10004986:	2301      	movs	r3, #1
10004988:	4313      	orrs	r3, r2
1000498a:	604b      	str	r3, [r1, #4]
1000498c:	508a      	str	r2, [r1, r2]
1000498e:	e797      	b.n	100048c0 <_free_r+0xa8>
10004990:	24aa      	movs	r4, #170	; 0xaa
10004992:	0064      	lsls	r4, r4, #1
10004994:	42a3      	cmp	r3, r4
10004996:	d805      	bhi.n	100049a4 <_free_r+0x18c>
10004998:	0bd4      	lsrs	r4, r2, #15
1000499a:	0026      	movs	r6, r4
1000499c:	3478      	adds	r4, #120	; 0x78
1000499e:	3677      	adds	r6, #119	; 0x77
100049a0:	00e4      	lsls	r4, r4, #3
100049a2:	e79b      	b.n	100048dc <_free_r+0xc4>
100049a4:	4c0c      	ldr	r4, [pc, #48]	; (100049d8 <_free_r+0x1c0>)
100049a6:	42a3      	cmp	r3, r4
100049a8:	d805      	bhi.n	100049b6 <_free_r+0x19e>
100049aa:	0c94      	lsrs	r4, r2, #18
100049ac:	0026      	movs	r6, r4
100049ae:	347d      	adds	r4, #125	; 0x7d
100049b0:	367c      	adds	r6, #124	; 0x7c
100049b2:	00e4      	lsls	r4, r4, #3
100049b4:	e792      	b.n	100048dc <_free_r+0xc4>
100049b6:	24fe      	movs	r4, #254	; 0xfe
100049b8:	267e      	movs	r6, #126	; 0x7e
100049ba:	00a4      	lsls	r4, r4, #2
100049bc:	e78e      	b.n	100048dc <_free_r+0xc4>
100049be:	0033      	movs	r3, r6
100049c0:	4313      	orrs	r3, r2
100049c2:	604b      	str	r3, [r1, #4]
100049c4:	603a      	str	r2, [r7, #0]
100049c6:	e77b      	b.n	100048c0 <_free_r+0xa8>
100049c8:	20000640 	.word	0x20000640
100049cc:	20000648 	.word	0x20000648
100049d0:	20000a4c 	.word	0x20000a4c
100049d4:	20000ab8 	.word	0x20000ab8
100049d8:	00000554 	.word	0x00000554

100049dc <__retarget_lock_acquire_recursive>:
100049dc:	4770      	bx	lr
100049de:	46c0      	nop			; (mov r8, r8)

100049e0 <__retarget_lock_release_recursive>:
100049e0:	4770      	bx	lr
100049e2:	46c0      	nop			; (mov r8, r8)

100049e4 <_fini>:
100049e4:	b5f8      	push	{r3, r4, r5, r6, r7, lr}
100049e6:	46c0      	nop			; (mov r8, r8)

100049e8 <__mutex_exit_veneer>:
100049e8:	b401      	push	{r0}
100049ea:	4802      	ldr	r0, [pc, #8]	; (100049f4 <__mutex_exit_veneer+0xc>)
100049ec:	4684      	mov	ip, r0
100049ee:	bc01      	pop	{r0}
100049f0:	4760      	bx	ip
100049f2:	bf00      	nop
100049f4:	2000015d 	.word	0x2000015d

100049f8 <____aeabi_ldiv0_veneer>:
100049f8:	b401      	push	{r0}
100049fa:	4802      	ldr	r0, [pc, #8]	; (10004a04 <____aeabi_ldiv0_veneer+0xc>)
100049fc:	4684      	mov	ip, r0
100049fe:	bc01      	pop	{r0}
10004a00:	4760      	bx	ip
10004a02:	bf00      	nop
10004a04:	20000185 	.word	0x20000185

10004a08 <____aeabi_idiv0_veneer>:
10004a08:	b401      	push	{r0}
10004a0a:	4802      	ldr	r0, [pc, #8]	; (10004a14 <____aeabi_idiv0_veneer+0xc>)
10004a0c:	4684      	mov	ip, r0
10004a0e:	bc01      	pop	{r0}
10004a10:	4760      	bx	ip
10004a12:	bf00      	nop
10004a14:	20000185 	.word	0x20000185

10004a18 <__mutex_try_enter_veneer>:
10004a18:	b401      	push	{r0}
10004a1a:	4802      	ldr	r0, [pc, #8]	; (10004a24 <__mutex_try_enter_veneer+0xc>)
10004a1c:	4684      	mov	ip, r0
10004a1e:	bc01      	pop	{r0}
10004a20:	4760      	bx	ip
10004a22:	bf00      	nop
10004a24:	20000111 	.word	0x20000111

10004a28 <__mutex_enter_blocking_veneer>:
10004a28:	b401      	push	{r0}
10004a2a:	4802      	ldr	r0, [pc, #8]	; (10004a34 <__mutex_enter_blocking_veneer+0xc>)
10004a2c:	4684      	mov	ip, r0
10004a2e:	bc01      	pop	{r0}
10004a30:	4760      	bx	ip
10004a32:	bf00      	nop
10004a34:	200000c1 	.word	0x200000c1

Disassembly of section .data:

200000c0 <mutex_enter_blocking>:
200000c0:	b510      	push	{r4, lr}
200000c2:	6802      	ldr	r2, [r0, #0]
200000c4:	2400      	movs	r4, #0
200000c6:	f3ef 8110 	mrs	r1, PRIMASK
200000ca:	b672      	cpsid	i
200000cc:	6813      	ldr	r3, [r2, #0]
200000ce:	2b00      	cmp	r3, #0
200000d0:	d0fc      	beq.n	200000cc <mutex_enter_blocking+0xc>
200000d2:	f3bf 8f5f 	dmb	sy
200000d6:	7903      	ldrb	r3, [r0, #4]
200000d8:	2b00      	cmp	r3, #0
200000da:	d00b      	beq.n	200000f4 <mutex_enter_blocking+0x34>
200000dc:	6803      	ldr	r3, [r0, #0]
200000de:	f3bf 8f5f 	dmb	sy
200000e2:	601c      	str	r4, [r3, #0]
200000e4:	f381 8810 	msr	PRIMASK, r1
200000e8:	bf20      	wfe
200000ea:	6802      	ldr	r2, [r0, #0]
200000ec:	f3ef 8110 	mrs	r1, PRIMASK
200000f0:	b672      	cpsid	i
200000f2:	e7eb      	b.n	200000cc <mutex_enter_blocking+0xc>
200000f4:	2201      	movs	r2, #1
200000f6:	7102      	strb	r2, [r0, #4]
200000f8:	22d0      	movs	r2, #208	; 0xd0
200000fa:	0612      	lsls	r2, r2, #24
200000fc:	6812      	ldr	r2, [r2, #0]
200000fe:	7142      	strb	r2, [r0, #5]
20000100:	6802      	ldr	r2, [r0, #0]
20000102:	f3bf 8f5f 	dmb	sy
20000106:	6013      	str	r3, [r2, #0]
20000108:	f381 8810 	msr	PRIMASK, r1
2000010c:	bd10      	pop	{r4, pc}
2000010e:	46c0      	nop			; (mov r8, r8)

20000110 <mutex_try_enter>:
20000110:	0003      	movs	r3, r0
20000112:	b510      	push	{r4, lr}
20000114:	6800      	ldr	r0, [r0, #0]
20000116:	f3ef 8410 	mrs	r4, PRIMASK
2000011a:	b672      	cpsid	i
2000011c:	6802      	ldr	r2, [r0, #0]
2000011e:	2a00      	cmp	r2, #0
20000120:	d0fc      	beq.n	2000011c <mutex_try_enter+0xc>
20000122:	f3bf 8f5f 	dmb	sy
20000126:	791a      	ldrb	r2, [r3, #4]
20000128:	2a00      	cmp	r2, #0
2000012a:	d00d      	beq.n	20000148 <mutex_try_enter+0x38>
2000012c:	2900      	cmp	r1, #0
2000012e:	d013      	beq.n	20000158 <mutex_try_enter+0x48>
20000130:	2205      	movs	r2, #5
20000132:	2000      	movs	r0, #0
20000134:	569a      	ldrsb	r2, [r3, r2]
20000136:	600a      	str	r2, [r1, #0]
20000138:	681b      	ldr	r3, [r3, #0]
2000013a:	f3bf 8f5f 	dmb	sy
2000013e:	2200      	movs	r2, #0
20000140:	601a      	str	r2, [r3, #0]
20000142:	f384 8810 	msr	PRIMASK, r4
20000146:	bd10      	pop	{r4, pc}
20000148:	3201      	adds	r2, #1
2000014a:	711a      	strb	r2, [r3, #4]
2000014c:	22d0      	movs	r2, #208	; 0xd0
2000014e:	0612      	lsls	r2, r2, #24
20000150:	6812      	ldr	r2, [r2, #0]
20000152:	2001      	movs	r0, #1
20000154:	715a      	strb	r2, [r3, #5]
20000156:	e7ef      	b.n	20000138 <mutex_try_enter+0x28>
20000158:	2000      	movs	r0, #0
2000015a:	e7ed      	b.n	20000138 <mutex_try_enter+0x28>

2000015c <mutex_exit>:
2000015c:	6802      	ldr	r2, [r0, #0]
2000015e:	f3ef 8110 	mrs	r1, PRIMASK
20000162:	b672      	cpsid	i
20000164:	6813      	ldr	r3, [r2, #0]
20000166:	2b00      	cmp	r3, #0
20000168:	d0fc      	beq.n	20000164 <mutex_exit+0x8>
2000016a:	f3bf 8f5f 	dmb	sy
2000016e:	2300      	movs	r3, #0
20000170:	7103      	strb	r3, [r0, #4]
20000172:	bf40      	sev
20000174:	6802      	ldr	r2, [r0, #0]
20000176:	f3bf 8f5f 	dmb	sy
2000017a:	6013      	str	r3, [r2, #0]
2000017c:	f381 8810 	msr	PRIMASK, r1
20000180:	4770      	bx	lr
20000182:	46c0      	nop			; (mov r8, r8)

20000184 <__aeabi_idiv0>:
20000184:	4770      	bx	lr
20000186:	46c0      	nop			; (mov r8, r8)

20000188 <striped_spin_lock_num>:
20000188:	0010 0000                                   ....

2000018c <irq_handler_chain_slots>:
2000018c:	00000000 	.word	0x00000000
20000190:	00010000 	.word	0x00010000
	...
2000019c:	00020000 	.word	0x00020000
	...
200001a8:	00030000 	.word	0x00030000
	...
200001b4:	00ff0000 	.word	0x00ff0000
200001b8:	00000000 	.word	0x00000000

200001bc <irq_handler_chain_first_slot>:
200001bc:	b500      	push	{lr}
200001be:	6848      	ldr	r0, [r1, #4]
200001c0:	3101      	adds	r1, #1
200001c2:	468e      	mov	lr, r1
200001c4:	4700      	bx	r0

200001c6 <irq_handler_chain_remove_tail>:
200001c6:	4670      	mov	r0, lr
200001c8:	3809      	subs	r0, #9
200001ca:	4901      	ldr	r1, [pc, #4]	; (200001d0 <irq_handler_chain_remove_tail+0xa>)
200001cc:	4788      	blx	r1
200001ce:	bd00      	pop	{pc}
200001d0:	1000170d 	.word	0x1000170d
	...

200001e0 <aeabi_bits_funcs>:
200001e0:	00003350 	.word	0x00003350
200001e4:	0000334c 	.word	0x0000334c
200001e8:	00003354 	.word	0x00003354
200001ec:	00003352 	.word	0x00003352

200001f0 <aeabi_bits_funcs_end>:
200001f0:	0000534d 	.word	0x0000534d
200001f4:	0000434d 	.word	0x0000434d
200001f8:	00003453 	.word	0x00003453
200001fc:	00003443 	.word	0x00003443

20000200 <stdio_uart>:
20000200:	10004021 00000000 1000405d 00000000     !@......]@......
20000210:	00000100                                ....

20000214 <_impure_ptr>:
20000214:	20000218                                ... 

20000218 <impure_data>:
20000218:	00000000 20000504 2000056c 200005d4     ....... l.. ... 
	...
200002c0:	00000001 00000000 abcd330e e66d1234     .........3..4.m.
200002d0:	0005deec 0000000b 00000000 00000000     ................
	...

20000640 <__malloc_av_>:
	...
20000648:	20000640 20000640 20000648 20000648     @.. @.. H.. H.. 
20000658:	20000650 20000650 20000658 20000658     P.. P.. X.. X.. 
20000668:	20000660 20000660 20000668 20000668     `.. `.. h.. h.. 
20000678:	20000670 20000670 20000678 20000678     p.. p.. x.. x.. 
20000688:	20000680 20000680 20000688 20000688     ... ... ... ... 
20000698:	20000690 20000690 20000698 20000698     ... ... ... ... 
200006a8:	200006a0 200006a0 200006a8 200006a8     ... ... ... ... 
200006b8:	200006b0 200006b0 200006b8 200006b8     ... ... ... ... 
200006c8:	200006c0 200006c0 200006c8 200006c8     ... ... ... ... 
200006d8:	200006d0 200006d0 200006d8 200006d8     ... ... ... ... 
200006e8:	200006e0 200006e0 200006e8 200006e8     ... ... ... ... 
200006f8:	200006f0 200006f0 200006f8 200006f8     ... ... ... ... 
20000708:	20000700 20000700 20000708 20000708     ... ... ... ... 
20000718:	20000710 20000710 20000718 20000718     ... ... ... ... 
20000728:	20000720 20000720 20000728 20000728      ..  .. (.. (.. 
20000738:	20000730 20000730 20000738 20000738     0.. 0.. 8.. 8.. 
20000748:	20000740 20000740 20000748 20000748     @.. @.. H.. H.. 
20000758:	20000750 20000750 20000758 20000758     P.. P.. X.. X.. 
20000768:	20000760 20000760 20000768 20000768     `.. `.. h.. h.. 
20000778:	20000770 20000770 20000778 20000778     p.. p.. x.. x.. 
20000788:	20000780 20000780 20000788 20000788     ... ... ... ... 
20000798:	20000790 20000790 20000798 20000798     ... ... ... ... 
200007a8:	200007a0 200007a0 200007a8 200007a8     ... ... ... ... 
200007b8:	200007b0 200007b0 200007b8 200007b8     ... ... ... ... 
200007c8:	200007c0 200007c0 200007c8 200007c8     ... ... ... ... 
200007d8:	200007d0 200007d0 200007d8 200007d8     ... ... ... ... 
200007e8:	200007e0 200007e0 200007e8 200007e8     ... ... ... ... 
200007f8:	200007f0 200007f0 200007f8 200007f8     ... ... ... ... 
20000808:	20000800 20000800 20000808 20000808     ... ... ... ... 
20000818:	20000810 20000810 20000818 20000818     ... ... ... ... 
20000828:	20000820 20000820 20000828 20000828      ..  .. (.. (.. 
20000838:	20000830 20000830 20000838 20000838     0.. 0.. 8.. 8.. 
20000848:	20000840 20000840 20000848 20000848     @.. @.. H.. H.. 
20000858:	20000850 20000850 20000858 20000858     P.. P.. X.. X.. 
20000868:	20000860 20000860 20000868 20000868     `.. `.. h.. h.. 
20000878:	20000870 20000870 20000878 20000878     p.. p.. x.. x.. 
20000888:	20000880 20000880 20000888 20000888     ... ... ... ... 
20000898:	20000890 20000890 20000898 20000898     ... ... ... ... 
200008a8:	200008a0 200008a0 200008a8 200008a8     ... ... ... ... 
200008b8:	200008b0 200008b0 200008b8 200008b8     ... ... ... ... 
200008c8:	200008c0 200008c0 200008c8 200008c8     ... ... ... ... 
200008d8:	200008d0 200008d0 200008d8 200008d8     ... ... ... ... 
200008e8:	200008e0 200008e0 200008e8 200008e8     ... ... ... ... 
200008f8:	200008f0 200008f0 200008f8 200008f8     ... ... ... ... 
20000908:	20000900 20000900 20000908 20000908     ... ... ... ... 
20000918:	20000910 20000910 20000918 20000918     ... ... ... ... 
20000928:	20000920 20000920 20000928 20000928      ..  .. (.. (.. 
20000938:	20000930 20000930 20000938 20000938     0.. 0.. 8.. 8.. 
20000948:	20000940 20000940 20000948 20000948     @.. @.. H.. H.. 
20000958:	20000950 20000950 20000958 20000958     P.. P.. X.. X.. 
20000968:	20000960 20000960 20000968 20000968     `.. `.. h.. h.. 
20000978:	20000970 20000970 20000978 20000978     p.. p.. x.. x.. 
20000988:	20000980 20000980 20000988 20000988     ... ... ... ... 
20000998:	20000990 20000990 20000998 20000998     ... ... ... ... 
200009a8:	200009a0 200009a0 200009a8 200009a8     ... ... ... ... 
200009b8:	200009b0 200009b0 200009b8 200009b8     ... ... ... ... 
200009c8:	200009c0 200009c0 200009c8 200009c8     ... ... ... ... 
200009d8:	200009d0 200009d0 200009d8 200009d8     ... ... ... ... 
200009e8:	200009e0 200009e0 200009e8 200009e8     ... ... ... ... 
200009f8:	200009f0 200009f0 200009f8 200009f8     ... ... ... ... 
20000a08:	20000a00 20000a00 20000a08 20000a08     ... ... ... ... 
20000a18:	20000a10 20000a10 20000a18 20000a18     ... ... ... ... 
20000a28:	20000a20 20000a20 20000a28 20000a28      ..  .. (.. (.. 
20000a38:	20000a30 20000a30 20000a38 20000a38     0.. 0.. 8.. 8.. 

20000a48 <__malloc_sbrk_base>:
20000a48:	ffffffff                                ....

20000a4c <__malloc_trim_threshold>:
20000a4c:	00020000                                ....

20000a50 <print_mutex>:
	...

20000a58 <__mutex_array_end>:
20000a58:	10003c61 	.word	0x10003c61
20000a5c:	10002e49 	.word	0x10002e49
20000a60:	1000353d 	.word	0x1000353d
20000a64:	10003bc1 	.word	0x10003bc1

20000a68 <__frame_dummy_init_array_entry>:
20000a68:	10000301                                ....
