
hello_7segment.elf:     file format elf32-littlearm

Sections:
Idx Name          Size      VMA       LMA       File off  Algn
  0 .boot2        00000100  10000000  10000000  00010000  2**0
                  CONTENTS, ALLOC, LOAD, READONLY, DATA
  1 .text         00002858  10000100  10000100  00010100  2**3
                  CONTENTS, ALLOC, LOAD, READONLY, CODE
  2 .rodata       0000014c  10002958  10002958  00012958  2**2
                  CONTENTS, ALLOC, LOAD, READONLY, DATA
  3 .binary_info  00000024  10002aa4  10002aa4  00012aa4  2**2
                  CONTENTS, ALLOC, LOAD, DATA
  4 .ram_vector_table 000000c0  20000000  20000000  00020a8c  2**2
                  CONTENTS
  5 .data         000009cc  200000c0  10002ac8  000200c0  2**4
                  CONTENTS, ALLOC, LOAD, CODE
  6 .uninitialized_data 00000000  20000a8c  20000a8c  00020b4c  2**0
                  CONTENTS
  7 .scratch_x    00000000  20040000  20040000  00020b4c  2**0
                  CONTENTS
  8 .scratch_y    00000000  20041000  20041000  00020b4c  2**0
                  CONTENTS
  9 .bss          000002f0  20000a8c  20000a8c  00020a8c  2**2
                  ALLOC
 10 .heap         00000800  20000d7c  20000d7c  00020b4c  2**2
                  CONTENTS, READONLY
 11 .stack_dummy  00000800  20041000  20041000  00021360  2**5
                  CONTENTS, READONLY
 12 .ARM.attributes 00000028  00000000  00000000  00021b60  2**0
                  CONTENTS, READONLY
 13 .comment      00000079  00000000  00000000  00021b88  2**0
                  CONTENTS, READONLY
 14 .debug_frame  000002ac  00000000  00000000  00021c04  2**2
                  CONTENTS, READONLY, DEBUGGING

hello_7segment.elf:     file format elf32-littlearm


Disassembly of section .text:

10000100 <__reset_start>:
10000100:	4827      	ldr	r0, [pc, #156]	; (100001a0 <__get_current_exception+0xa>)
10000102:	e000      	b.n	10000106 <__vector_entry>

10000104 <_entry_point>:
10000104:	2000      	movs	r0, #0

10000106 <__vector_entry>:
10000106:	4927      	ldr	r1, [pc, #156]	; (100001a4 <__get_current_exception+0xe>)
10000108:	6088      	str	r0, [r1, #8]
1000010a:	c806      	ldmia	r0!, {r1, r2}
1000010c:	f381 8808 	msr	MSP, r1
10000110:	4710      	bx	r2

10000112 <_reset_handler>:
10000112:	4825      	ldr	r0, [pc, #148]	; (100001a8 <__get_current_exception+0x12>)
10000114:	6800      	ldr	r0, [r0, #0]
10000116:	2800      	cmp	r0, #0
10000118:	d139      	bne.n	1000018e <wait_for_vector>
1000011a:	a412      	add	r4, pc, #72	; (adr r4, 10000164 <data_cpy_table>)
1000011c:	cc0e      	ldmia	r4!, {r1, r2, r3}
1000011e:	2900      	cmp	r1, #0
10000120:	d002      	beq.n	10000128 <_reset_handler+0x16>
10000122:	f000 f812 	bl	1000014a <data_cpy>
10000126:	e7f9      	b.n	1000011c <_reset_handler+0xa>
10000128:	4920      	ldr	r1, [pc, #128]	; (100001ac <__get_current_exception+0x16>)
1000012a:	4a21      	ldr	r2, [pc, #132]	; (100001b0 <__get_current_exception+0x1a>)
1000012c:	2000      	movs	r0, #0
1000012e:	e000      	b.n	10000132 <bss_fill_test>

10000130 <bss_fill_loop>:
10000130:	c101      	stmia	r1!, {r0}

10000132 <bss_fill_test>:
10000132:	4291      	cmp	r1, r2
10000134:	d1fc      	bne.n	10000130 <bss_fill_loop>

10000136 <platform_entry>:
10000136:	491f      	ldr	r1, [pc, #124]	; (100001b4 <__get_current_exception+0x1e>)
10000138:	4788      	blx	r1
1000013a:	491f      	ldr	r1, [pc, #124]	; (100001b8 <__get_current_exception+0x22>)
1000013c:	4788      	blx	r1
1000013e:	491f      	ldr	r1, [pc, #124]	; (100001bc <__get_current_exception+0x26>)
10000140:	4788      	blx	r1
10000142:	be00      	bkpt	0x0000
10000144:	e7fd      	b.n	10000142 <platform_entry+0xc>

10000146 <data_cpy_loop>:
10000146:	c901      	ldmia	r1!, {r0}
10000148:	c201      	stmia	r2!, {r0}

1000014a <data_cpy>:
1000014a:	429a      	cmp	r2, r3
1000014c:	d3fb      	bcc.n	10000146 <data_cpy_loop>
1000014e:	4770      	bx	lr

10000150 <binary_info_header>:
10000150:	7188ebf2 	.word	0x7188ebf2
10000154:	10002aa4 	.word	0x10002aa4
10000158:	10002ac8 	.word	0x10002ac8
1000015c:	10000164 	.word	0x10000164
10000160:	e71aa390 	.word	0xe71aa390

10000164 <data_cpy_table>:
10000164:	10002ac8 	.word	0x10002ac8
10000168:	200000c0 	.word	0x200000c0
1000016c:	20000a8c 	.word	0x20000a8c
10000170:	10003494 	.word	0x10003494
10000174:	20040000 	.word	0x20040000
10000178:	20040000 	.word	0x20040000
1000017c:	10003494 	.word	0x10003494
10000180:	20041000 	.word	0x20041000
10000184:	20041000 	.word	0x20041000
10000188:	00000000 	.word	0x00000000
1000018c:	4770      	bx	lr

1000018e <wait_for_vector>:
1000018e:	480c      	ldr	r0, [pc, #48]	; (100001c0 <__get_current_exception+0x2a>)
10000190:	f001 fc8c 	bl	10001aac <rom_func_lookup>
10000194:	4700      	bx	r0

10000196 <__get_current_exception>:
10000196:	f3ef 8005 	mrs	r0, IPSR
1000019a:	b2c0      	uxtb	r0, r0
1000019c:	4770      	bx	lr
1000019e:	0000      	.short	0x0000
100001a0:	10000200 	.word	0x10000200
100001a4:	e000ed00 	.word	0xe000ed00
100001a8:	d0000000 	.word	0xd0000000
100001ac:	20000a8c 	.word	0x20000a8c
100001b0:	20000d7c 	.word	0x20000d7c
100001b4:	10001245 	.word	0x10001245
100001b8:	10000321 	.word	0x10000321
100001bc:	10001365 	.word	0x10001365
100001c0:	00005657 	.word	0x00005657

100001c4 <__bi_46>:
100001c4:	50520006 5360b3ab 10002a20              ..RP..`S *..

100001d0 <__bi_34>:
100001d0:	50520006 02031c86 10002a10              ..RP.....*..

100001dc <__bi_26>:
100001dc:	50520006 9da22254 10002a30              ..RPT"..0*..

100001e8 <__bi_18>:
100001e8:	50520005 68f465de 10003494 00000000     ..RP.e.h.4......
	...

10000200 <__reset_end>:
10000200:	20042000 	.word	0x20042000
10000204:	10000113 	.word	0x10000113
10000208:	100002c3 	.word	0x100002c3
1000020c:	100002c5 	.word	0x100002c5
10000210:	100002c1 	.word	0x100002c1
10000214:	100002c1 	.word	0x100002c1
10000218:	100002c1 	.word	0x100002c1
1000021c:	100002c1 	.word	0x100002c1
10000220:	100002c1 	.word	0x100002c1
10000224:	100002c1 	.word	0x100002c1
10000228:	100002c1 	.word	0x100002c1
1000022c:	100002c7 	.word	0x100002c7
10000230:	100002c1 	.word	0x100002c1
10000234:	100002c1 	.word	0x100002c1
10000238:	100002c9 	.word	0x100002c9
1000023c:	100002cb 	.word	0x100002cb
10000240:	100002cd 	.word	0x100002cd
10000244:	100002cd 	.word	0x100002cd
10000248:	100002cd 	.word	0x100002cd
1000024c:	100002cd 	.word	0x100002cd
10000250:	100002cd 	.word	0x100002cd
10000254:	100002cd 	.word	0x100002cd
10000258:	100002cd 	.word	0x100002cd
1000025c:	100002cd 	.word	0x100002cd
10000260:	100002cd 	.word	0x100002cd
10000264:	100002cd 	.word	0x100002cd
10000268:	100002cd 	.word	0x100002cd
1000026c:	100002cd 	.word	0x100002cd
10000270:	100002cd 	.word	0x100002cd
10000274:	100002cd 	.word	0x100002cd
10000278:	100002cd 	.word	0x100002cd
1000027c:	100002cd 	.word	0x100002cd
10000280:	100002cd 	.word	0x100002cd
10000284:	100002cd 	.word	0x100002cd
10000288:	100002cd 	.word	0x100002cd
1000028c:	100002cd 	.word	0x100002cd
10000290:	100002cd 	.word	0x100002cd
10000294:	100002cd 	.word	0x100002cd
10000298:	100002cd 	.word	0x100002cd
1000029c:	100002cd 	.word	0x100002cd
100002a0:	100002cd 	.word	0x100002cd
100002a4:	100002cd 	.word	0x100002cd
100002a8:	100002cd 	.word	0x100002cd
100002ac:	100002cd 	.word	0x100002cd
100002b0:	100002cd 	.word	0x100002cd
100002b4:	100002cd 	.word	0x100002cd
100002b8:	100002cd 	.word	0x100002cd
100002bc:	100002cd 	.word	0x100002cd

100002c0 <isr_invalid>:
100002c0:	be00      	bkpt	0x0000

100002c2 <isr_nmi>:
100002c2:	be00      	bkpt	0x0000

100002c4 <isr_hardfault>:
100002c4:	be00      	bkpt	0x0000

100002c6 <isr_svcall>:
100002c6:	be00      	bkpt	0x0000

100002c8 <isr_pendsv>:
100002c8:	be00      	bkpt	0x0000

100002ca <isr_systick>:
100002ca:	be00      	bkpt	0x0000

100002cc <__unhandled_user_irq>:
100002cc:	f7ff ff63 	bl	10000196 <__get_current_exception>
100002d0:	3810      	subs	r0, #16

100002d2 <unhandled_user_irq_num_in_r0>:
100002d2:	be00      	bkpt	0x0000

100002d4 <_init>:
100002d4:	b5f8      	push	{r3, r4, r5, r6, r7, lr}
100002d6:	46c0      	nop			; (mov r8, r8)

100002d8 <__do_global_dtors_aux>:
100002d8:	b510      	push	{r4, lr}
100002da:	4c06      	ldr	r4, [pc, #24]	; (100002f4 <__do_global_dtors_aux+0x1c>)
100002dc:	7823      	ldrb	r3, [r4, #0]
100002de:	2b00      	cmp	r3, #0
100002e0:	d107      	bne.n	100002f2 <__do_global_dtors_aux+0x1a>
100002e2:	4b05      	ldr	r3, [pc, #20]	; (100002f8 <__do_global_dtors_aux+0x20>)
100002e4:	2b00      	cmp	r3, #0
100002e6:	d002      	beq.n	100002ee <__do_global_dtors_aux+0x16>
100002e8:	4804      	ldr	r0, [pc, #16]	; (100002fc <__do_global_dtors_aux+0x24>)
100002ea:	e000      	b.n	100002ee <__do_global_dtors_aux+0x16>
100002ec:	bf00      	nop
100002ee:	2301      	movs	r3, #1
100002f0:	7023      	strb	r3, [r4, #0]
100002f2:	bd10      	pop	{r4, pc}
100002f4:	20000a8c 	.word	0x20000a8c
100002f8:	00000000 	.word	0x00000000
100002fc:	10002958 	.word	0x10002958

10000300 <frame_dummy>:
10000300:	4b04      	ldr	r3, [pc, #16]	; (10000314 <frame_dummy+0x14>)
10000302:	b510      	push	{r4, lr}
10000304:	2b00      	cmp	r3, #0
10000306:	d003      	beq.n	10000310 <frame_dummy+0x10>
10000308:	4903      	ldr	r1, [pc, #12]	; (10000318 <frame_dummy+0x18>)
1000030a:	4804      	ldr	r0, [pc, #16]	; (1000031c <frame_dummy+0x1c>)
1000030c:	e000      	b.n	10000310 <frame_dummy+0x10>
1000030e:	bf00      	nop
10000310:	bd10      	pop	{r4, pc}
10000312:	46c0      	nop			; (mov r8, r8)
10000314:	00000000 	.word	0x00000000
10000318:	20000a90 	.word	0x20000a90
1000031c:	10002958 	.word	0x10002958

10000320 <main>:
10000320:	b5f0      	push	{r4, r5, r6, r7, lr}
10000322:	46c6      	mov	lr, r8
10000324:	b500      	push	{lr}
10000326:	f001 fe0f 	bl	10001f48 <stdio_init_all>
1000032a:	25d0      	movs	r5, #208	; 0xd0
1000032c:	481e      	ldr	r0, [pc, #120]	; (100003a8 <main+0x88>)
1000032e:	f001 fdcf 	bl	10001ed0 <__wrap_puts>
10000332:	2402      	movs	r4, #2
10000334:	2601      	movs	r6, #1
10000336:	062d      	lsls	r5, r5, #24
10000338:	0020      	movs	r0, r4
1000033a:	f000 f87b 	bl	10000434 <gpio_init>
1000033e:	0033      	movs	r3, r6
10000340:	40a3      	lsls	r3, r4
10000342:	0020      	movs	r0, r4
10000344:	2101      	movs	r1, #1
10000346:	626b      	str	r3, [r5, #36]	; 0x24
10000348:	3401      	adds	r4, #1
1000034a:	f000 f861 	bl	10000410 <gpio_set_outover>
1000034e:	2c09      	cmp	r4, #9
10000350:	d1f2      	bne.n	10000338 <main+0x18>
10000352:	2009      	movs	r0, #9
10000354:	f000 f86e 	bl	10000434 <gpio_init>
10000358:	2380      	movs	r3, #128	; 0x80
1000035a:	26d0      	movs	r6, #208	; 0xd0
1000035c:	009b      	lsls	r3, r3, #2
1000035e:	62ab      	str	r3, [r5, #40]	; 0x28
10000360:	2200      	movs	r2, #0
10000362:	2101      	movs	r1, #1
10000364:	2009      	movs	r0, #9
10000366:	f000 f83b 	bl	100003e0 <gpio_set_pulls>
1000036a:	4b10      	ldr	r3, [pc, #64]	; (100003ac <main+0x8c>)
1000036c:	2500      	movs	r5, #0
1000036e:	4698      	mov	r8, r3
10000370:	2701      	movs	r7, #1
10000372:	0636      	lsls	r6, r6, #24
10000374:	e00b      	b.n	1000038e <main+0x6e>
10000376:	2d09      	cmp	r5, #9
10000378:	d013      	beq.n	100003a2 <main+0x82>
1000037a:	3501      	adds	r5, #1
1000037c:	4642      	mov	r2, r8
1000037e:	00ab      	lsls	r3, r5, #2
10000380:	58d4      	ldr	r4, [r2, r3]
10000382:	20fa      	movs	r0, #250	; 0xfa
10000384:	00a4      	lsls	r4, r4, #2
10000386:	6174      	str	r4, [r6, #20]
10000388:	f000 fba4 	bl	10000ad4 <sleep_ms>
1000038c:	61b4      	str	r4, [r6, #24]
1000038e:	6873      	ldr	r3, [r6, #4]
10000390:	0a5b      	lsrs	r3, r3, #9
10000392:	421f      	tst	r7, r3
10000394:	d0ef      	beq.n	10000376 <main+0x56>
10000396:	2d00      	cmp	r5, #0
10000398:	d001      	beq.n	1000039e <main+0x7e>
1000039a:	3d01      	subs	r5, #1
1000039c:	e7ee      	b.n	1000037c <main+0x5c>
1000039e:	2509      	movs	r5, #9
100003a0:	e7ec      	b.n	1000037c <main+0x5c>
100003a2:	2500      	movs	r5, #0
100003a4:	e7ea      	b.n	1000037c <main+0x5c>
100003a6:	46c0      	nop			; (mov r8, r8)
100003a8:	10002958 	.word	0x10002958
100003ac:	20000188 	.word	0x20000188

100003b0 <gpio_set_function>:
100003b0:	4a09      	ldr	r2, [pc, #36]	; (100003d8 <gpio_set_function+0x28>)
100003b2:	0083      	lsls	r3, r0, #2
100003b4:	4694      	mov	ip, r2
100003b6:	2240      	movs	r2, #64	; 0x40
100003b8:	4463      	add	r3, ip
100003ba:	b510      	push	{r4, lr}
100003bc:	681c      	ldr	r4, [r3, #0]
100003be:	00c0      	lsls	r0, r0, #3
100003c0:	4062      	eors	r2, r4
100003c2:	24c0      	movs	r4, #192	; 0xc0
100003c4:	4014      	ands	r4, r2
100003c6:	2280      	movs	r2, #128	; 0x80
100003c8:	0152      	lsls	r2, r2, #5
100003ca:	4313      	orrs	r3, r2
100003cc:	601c      	str	r4, [r3, #0]
100003ce:	4b03      	ldr	r3, [pc, #12]	; (100003dc <gpio_set_function+0x2c>)
100003d0:	469c      	mov	ip, r3
100003d2:	4460      	add	r0, ip
100003d4:	6041      	str	r1, [r0, #4]
100003d6:	bd10      	pop	{r4, pc}
100003d8:	4001c004 	.word	0x4001c004
100003dc:	40014000 	.word	0x40014000

100003e0 <gpio_set_pulls>:
100003e0:	4b0a      	ldr	r3, [pc, #40]	; (1000040c <gpio_set_pulls+0x2c>)
100003e2:	0080      	lsls	r0, r0, #2
100003e4:	469c      	mov	ip, r3
100003e6:	2304      	movs	r3, #4
100003e8:	4460      	add	r0, ip
100003ea:	2900      	cmp	r1, #0
100003ec:	d001      	beq.n	100003f2 <gpio_set_pulls+0x12>
100003ee:	2108      	movs	r1, #8
100003f0:	230c      	movs	r3, #12
100003f2:	2a00      	cmp	r2, #0
100003f4:	d100      	bne.n	100003f8 <gpio_set_pulls+0x18>
100003f6:	000b      	movs	r3, r1
100003f8:	6802      	ldr	r2, [r0, #0]
100003fa:	4053      	eors	r3, r2
100003fc:	220c      	movs	r2, #12
100003fe:	401a      	ands	r2, r3
10000400:	2380      	movs	r3, #128	; 0x80
10000402:	015b      	lsls	r3, r3, #5
10000404:	4318      	orrs	r0, r3
10000406:	6002      	str	r2, [r0, #0]
10000408:	4770      	bx	lr
1000040a:	46c0      	nop			; (mov r8, r8)
1000040c:	4001c004 	.word	0x4001c004

10000410 <gpio_set_outover>:
10000410:	4b07      	ldr	r3, [pc, #28]	; (10000430 <gpio_set_outover+0x20>)
10000412:	00c0      	lsls	r0, r0, #3
10000414:	469c      	mov	ip, r3
10000416:	4460      	add	r0, ip
10000418:	6803      	ldr	r3, [r0, #0]
1000041a:	0209      	lsls	r1, r1, #8
1000041c:	4059      	eors	r1, r3
1000041e:	23c0      	movs	r3, #192	; 0xc0
10000420:	009b      	lsls	r3, r3, #2
10000422:	4019      	ands	r1, r3
10000424:	2380      	movs	r3, #128	; 0x80
10000426:	015b      	lsls	r3, r3, #5
10000428:	4318      	orrs	r0, r3
1000042a:	6001      	str	r1, [r0, #0]
1000042c:	4770      	bx	lr
1000042e:	46c0      	nop			; (mov r8, r8)
10000430:	40014004 	.word	0x40014004

10000434 <gpio_init>:
10000434:	2301      	movs	r3, #1
10000436:	22d0      	movs	r2, #208	; 0xd0
10000438:	4083      	lsls	r3, r0
1000043a:	0612      	lsls	r2, r2, #24
1000043c:	6293      	str	r3, [r2, #40]	; 0x28
1000043e:	6193      	str	r3, [r2, #24]
10000440:	4a09      	ldr	r2, [pc, #36]	; (10000468 <gpio_init+0x34>)
10000442:	0083      	lsls	r3, r0, #2
10000444:	4694      	mov	ip, r2
10000446:	2240      	movs	r2, #64	; 0x40
10000448:	4463      	add	r3, ip
1000044a:	6819      	ldr	r1, [r3, #0]
1000044c:	00c0      	lsls	r0, r0, #3
1000044e:	404a      	eors	r2, r1
10000450:	21c0      	movs	r1, #192	; 0xc0
10000452:	4011      	ands	r1, r2
10000454:	2280      	movs	r2, #128	; 0x80
10000456:	0152      	lsls	r2, r2, #5
10000458:	4313      	orrs	r3, r2
1000045a:	6019      	str	r1, [r3, #0]
1000045c:	4b03      	ldr	r3, [pc, #12]	; (1000046c <gpio_init+0x38>)
1000045e:	469c      	mov	ip, r3
10000460:	2305      	movs	r3, #5
10000462:	4460      	add	r0, ip
10000464:	6043      	str	r3, [r0, #4]
10000466:	4770      	bx	lr
10000468:	4001c004 	.word	0x4001c004
1000046c:	40014000 	.word	0x40014000

10000470 <hw_claim_or_assert>:
10000470:	b5f8      	push	{r3, r4, r5, r6, r7, lr}
10000472:	46ce      	mov	lr, r9
10000474:	4647      	mov	r7, r8
10000476:	4691      	mov	r9, r2
10000478:	b580      	push	{r7, lr}
1000047a:	f3ef 8710 	mrs	r7, PRIMASK
1000047e:	b672      	cpsid	i
10000480:	4e12      	ldr	r6, [pc, #72]	; (100004cc <hw_claim_or_assert+0x5c>)
10000482:	6833      	ldr	r3, [r6, #0]
10000484:	2b00      	cmp	r3, #0
10000486:	d0fc      	beq.n	10000482 <hw_claim_or_assert+0x12>
10000488:	f3bf 8f5f 	dmb	sy
1000048c:	08cb      	lsrs	r3, r1, #3
1000048e:	5cc5      	ldrb	r5, [r0, r3]
10000490:	2407      	movs	r4, #7
10000492:	18c2      	adds	r2, r0, r3
10000494:	0028      	movs	r0, r5
10000496:	2301      	movs	r3, #1
10000498:	400c      	ands	r4, r1
1000049a:	4694      	mov	ip, r2
1000049c:	40e0      	lsrs	r0, r4
1000049e:	001a      	movs	r2, r3
100004a0:	4002      	ands	r2, r0
100004a2:	4690      	mov	r8, r2
100004a4:	4203      	tst	r3, r0
100004a6:	d10d      	bne.n	100004c4 <hw_claim_or_assert+0x54>
100004a8:	40a3      	lsls	r3, r4
100004aa:	4662      	mov	r2, ip
100004ac:	432b      	orrs	r3, r5
100004ae:	7013      	strb	r3, [r2, #0]
100004b0:	f3bf 8f5f 	dmb	sy
100004b4:	4643      	mov	r3, r8
100004b6:	6033      	str	r3, [r6, #0]
100004b8:	f387 8810 	msr	PRIMASK, r7
100004bc:	bc0c      	pop	{r2, r3}
100004be:	4690      	mov	r8, r2
100004c0:	4699      	mov	r9, r3
100004c2:	bdf8      	pop	{r3, r4, r5, r6, r7, pc}
100004c4:	4648      	mov	r0, r9
100004c6:	f000 ff4f 	bl	10001368 <panic>
100004ca:	46c0      	nop			; (mov r8, r8)
100004cc:	d000012c 	.word	0xd000012c

100004d0 <spin_locks_reset>:
100004d0:	2100      	movs	r1, #0
100004d2:	4b04      	ldr	r3, [pc, #16]	; (100004e4 <spin_locks_reset+0x14>)
100004d4:	4a04      	ldr	r2, [pc, #16]	; (100004e8 <spin_locks_reset+0x18>)
100004d6:	f3bf 8f5f 	dmb	sy
100004da:	c302      	stmia	r3!, {r1}
100004dc:	4293      	cmp	r3, r2
100004de:	d1fa      	bne.n	100004d6 <spin_locks_reset+0x6>
100004e0:	4770      	bx	lr
100004e2:	46c0      	nop			; (mov r8, r8)
100004e4:	d0000100 	.word	0xd0000100
100004e8:	d0000180 	.word	0xd0000180

100004ec <next_striped_spin_lock_num>:
100004ec:	4a04      	ldr	r2, [pc, #16]	; (10000500 <next_striped_spin_lock_num+0x14>)
100004ee:	7810      	ldrb	r0, [r2, #0]
100004f0:	1c43      	adds	r3, r0, #1
100004f2:	b2db      	uxtb	r3, r3
100004f4:	2b17      	cmp	r3, #23
100004f6:	d900      	bls.n	100004fa <next_striped_spin_lock_num+0xe>
100004f8:	2310      	movs	r3, #16
100004fa:	7013      	strb	r3, [r2, #0]
100004fc:	4770      	bx	lr
100004fe:	46c0      	nop			; (mov r8, r8)
10000500:	200001b0 	.word	0x200001b0

10000504 <running_on_fpga>:
10000504:	4b02      	ldr	r3, [pc, #8]	; (10000510 <running_on_fpga+0xc>)
10000506:	6818      	ldr	r0, [r3, #0]
10000508:	0780      	lsls	r0, r0, #30
1000050a:	0fc0      	lsrs	r0, r0, #31
1000050c:	4770      	bx	lr
1000050e:	46c0      	nop			; (mov r8, r8)
10000510:	4006c000 	.word	0x4006c000

10000514 <uart_init>:
10000514:	b5f0      	push	{r4, r5, r6, r7, lr}
10000516:	46c6      	mov	lr, r8
10000518:	0005      	movs	r5, r0
1000051a:	b500      	push	{lr}
1000051c:	2006      	movs	r0, #6
1000051e:	000e      	movs	r6, r1
10000520:	f001 f8b0 	bl	10001684 <clock_get_hz>
10000524:	2800      	cmp	r0, #0
10000526:	d04d      	beq.n	100005c4 <uart_init+0xb0>
10000528:	4b29      	ldr	r3, [pc, #164]	; (100005d0 <uart_init+0xbc>)
1000052a:	492a      	ldr	r1, [pc, #168]	; (100005d4 <uart_init+0xc0>)
1000052c:	18eb      	adds	r3, r5, r3
1000052e:	425a      	negs	r2, r3
10000530:	4153      	adcs	r3, r2
10000532:	2280      	movs	r2, #128	; 0x80
10000534:	03d2      	lsls	r2, r2, #15
10000536:	4694      	mov	ip, r2
10000538:	425b      	negs	r3, r3
1000053a:	4013      	ands	r3, r2
1000053c:	4a26      	ldr	r2, [pc, #152]	; (100005d8 <uart_init+0xc4>)
1000053e:	4463      	add	r3, ip
10000540:	6013      	str	r3, [r2, #0]
10000542:	4a26      	ldr	r2, [pc, #152]	; (100005dc <uart_init+0xc8>)
10000544:	6013      	str	r3, [r2, #0]
10000546:	001c      	movs	r4, r3
10000548:	688a      	ldr	r2, [r1, #8]
1000054a:	4394      	bics	r4, r2
1000054c:	d1fb      	bne.n	10000546 <uart_init+0x32>
1000054e:	4b20      	ldr	r3, [pc, #128]	; (100005d0 <uart_init+0xbc>)
10000550:	2180      	movs	r1, #128	; 0x80
10000552:	18eb      	adds	r3, r5, r3
10000554:	425a      	negs	r2, r3
10000556:	4153      	adcs	r3, r2
10000558:	4a21      	ldr	r2, [pc, #132]	; (100005e0 <uart_init+0xcc>)
1000055a:	005b      	lsls	r3, r3, #1
1000055c:	0049      	lsls	r1, r1, #1
1000055e:	2006      	movs	r0, #6
10000560:	5299      	strh	r1, [r3, r2]
10000562:	f001 f88f 	bl	10001684 <clock_get_hz>
10000566:	0031      	movs	r1, r6
10000568:	00c0      	lsls	r0, r0, #3
1000056a:	f001 facd 	bl	10001b08 <__wrap___aeabi_uidiv>
1000056e:	267f      	movs	r6, #127	; 0x7f
10000570:	4b1c      	ldr	r3, [pc, #112]	; (100005e4 <uart_init+0xd0>)
10000572:	4006      	ands	r6, r0
10000574:	09c7      	lsrs	r7, r0, #7
10000576:	3601      	adds	r6, #1
10000578:	0876      	lsrs	r6, r6, #1
1000057a:	626f      	str	r7, [r5, #36]	; 0x24
1000057c:	429f      	cmp	r7, r3
1000057e:	d024      	beq.n	100005ca <uart_init+0xb6>
10000580:	62ae      	str	r6, [r5, #40]	; 0x28
10000582:	232c      	movs	r3, #44	; 0x2c
10000584:	4698      	mov	r8, r3
10000586:	2480      	movs	r4, #128	; 0x80
10000588:	44a8      	add	r8, r5
1000058a:	4643      	mov	r3, r8
1000058c:	01a4      	lsls	r4, r4, #6
1000058e:	431c      	orrs	r4, r3
10000590:	2300      	movs	r3, #0
10000592:	2006      	movs	r0, #6
10000594:	6023      	str	r3, [r4, #0]
10000596:	f001 f875 	bl	10001684 <clock_get_hz>
1000059a:	01b9      	lsls	r1, r7, #6
1000059c:	1989      	adds	r1, r1, r6
1000059e:	0080      	lsls	r0, r0, #2
100005a0:	f001 fab2 	bl	10001b08 <__wrap___aeabi_uidiv>
100005a4:	2360      	movs	r3, #96	; 0x60
100005a6:	6aea      	ldr	r2, [r5, #44]	; 0x2c
100005a8:	4641      	mov	r1, r8
100005aa:	4053      	eors	r3, r2
100005ac:	226e      	movs	r2, #110	; 0x6e
100005ae:	401a      	ands	r2, r3
100005b0:	2380      	movs	r3, #128	; 0x80
100005b2:	015b      	lsls	r3, r3, #5
100005b4:	430b      	orrs	r3, r1
100005b6:	601a      	str	r2, [r3, #0]
100005b8:	4b0b      	ldr	r3, [pc, #44]	; (100005e8 <uart_init+0xd4>)
100005ba:	632b      	str	r3, [r5, #48]	; 0x30
100005bc:	2310      	movs	r3, #16
100005be:	6023      	str	r3, [r4, #0]
100005c0:	3b0d      	subs	r3, #13
100005c2:	64ab      	str	r3, [r5, #72]	; 0x48
100005c4:	bc04      	pop	{r2}
100005c6:	4690      	mov	r8, r2
100005c8:	bdf0      	pop	{r4, r5, r6, r7, pc}
100005ca:	62ac      	str	r4, [r5, #40]	; 0x28
100005cc:	e7d9      	b.n	10000582 <uart_init+0x6e>
100005ce:	46c0      	nop			; (mov r8, r8)
100005d0:	bffc8000 	.word	0xbffc8000
100005d4:	4000c000 	.word	0x4000c000
100005d8:	4000e000 	.word	0x4000e000
100005dc:	4000f000 	.word	0x4000f000
100005e0:	20000b4c 	.word	0x20000b4c
100005e4:	0000ffff 	.word	0x0000ffff
100005e8:	00000301 	.word	0x00000301

100005ec <timer_pool_entry_comparator>:
100005ec:	6883      	ldr	r3, [r0, #8]
100005ee:	480b      	ldr	r0, [pc, #44]	; (1000061c <timer_pool_entry_comparator+0x30>)
100005f0:	b510      	push	{r4, lr}
100005f2:	4684      	mov	ip, r0
100005f4:	4461      	add	r1, ip
100005f6:	4462      	add	r2, ip
100005f8:	0109      	lsls	r1, r1, #4
100005fa:	0112      	lsls	r2, r2, #4
100005fc:	189a      	adds	r2, r3, r2
100005fe:	1859      	adds	r1, r3, r1
10000600:	6854      	ldr	r4, [r2, #4]
10000602:	684b      	ldr	r3, [r1, #4]
10000604:	2001      	movs	r0, #1
10000606:	429c      	cmp	r4, r3
10000608:	d801      	bhi.n	1000060e <timer_pool_entry_comparator+0x22>
1000060a:	d002      	beq.n	10000612 <timer_pool_entry_comparator+0x26>
1000060c:	2000      	movs	r0, #0
1000060e:	b2c0      	uxtb	r0, r0
10000610:	bd10      	pop	{r4, pc}
10000612:	6812      	ldr	r2, [r2, #0]
10000614:	680b      	ldr	r3, [r1, #0]
10000616:	429a      	cmp	r2, r3
10000618:	d8f9      	bhi.n	1000060e <timer_pool_entry_comparator+0x22>
1000061a:	e7f7      	b.n	1000060c <timer_pool_entry_comparator+0x20>
1000061c:	0fffffff 	.word	0x0fffffff

10000620 <sev_callback>:
10000620:	bf40      	sev
10000622:	2000      	movs	r0, #0
10000624:	2100      	movs	r1, #0
10000626:	4770      	bx	lr

10000628 <add_alarm_under_lock>:
10000628:	b5f0      	push	{r4, r5, r6, r7, lr}
1000062a:	4657      	mov	r7, sl
1000062c:	4645      	mov	r5, r8
1000062e:	46de      	mov	lr, fp
10000630:	464e      	mov	r6, r9
10000632:	b5e0      	push	{r5, r6, r7, lr}
10000634:	b083      	sub	sp, #12
10000636:	001f      	movs	r7, r3
10000638:	ab0f      	add	r3, sp, #60	; 0x3c
1000063a:	781b      	ldrb	r3, [r3, #0]
1000063c:	9c0e      	ldr	r4, [sp, #56]	; 0x38
1000063e:	0005      	movs	r5, r0
10000640:	4692      	mov	sl, r2
10000642:	9301      	str	r3, [sp, #4]
10000644:	2c00      	cmp	r4, #0
10000646:	d10d      	bne.n	10000664 <add_alarm_under_lock+0x3c>
10000648:	6802      	ldr	r2, [r0, #0]
1000064a:	7b94      	ldrb	r4, [r2, #14]
1000064c:	2c00      	cmp	r4, #0
1000064e:	d056      	beq.n	100006fe <add_alarm_under_lock+0xd6>
10000650:	6811      	ldr	r1, [r2, #0]
10000652:	0063      	lsls	r3, r4, #1
10000654:	468c      	mov	ip, r1
10000656:	191b      	adds	r3, r3, r4
10000658:	4463      	add	r3, ip
1000065a:	3b03      	subs	r3, #3
1000065c:	785b      	ldrb	r3, [r3, #1]
1000065e:	7393      	strb	r3, [r2, #14]
10000660:	2b00      	cmp	r3, #0
10000662:	d054      	beq.n	1000070e <add_alarm_under_lock+0xe6>
10000664:	68aa      	ldr	r2, [r5, #8]
10000666:	b2e3      	uxtb	r3, r4
10000668:	4694      	mov	ip, r2
1000066a:	4652      	mov	r2, sl
1000066c:	469b      	mov	fp, r3
1000066e:	4b38      	ldr	r3, [pc, #224]	; (10000750 <add_alarm_under_lock+0x128>)
10000670:	682e      	ldr	r6, [r5, #0]
10000672:	18e3      	adds	r3, r4, r3
10000674:	011b      	lsls	r3, r3, #4
10000676:	4463      	add	r3, ip
10000678:	601a      	str	r2, [r3, #0]
1000067a:	9a0c      	ldr	r2, [sp, #48]	; 0x30
1000067c:	605f      	str	r7, [r3, #4]
1000067e:	609a      	str	r2, [r3, #8]
10000680:	9a0d      	ldr	r2, [sp, #52]	; 0x34
10000682:	60da      	str	r2, [r3, #12]
10000684:	23d0      	movs	r3, #208	; 0xd0
10000686:	2280      	movs	r2, #128	; 0x80
10000688:	061b      	lsls	r3, r3, #24
1000068a:	0312      	lsls	r2, r2, #12
1000068c:	615a      	str	r2, [r3, #20]
1000068e:	0063      	lsls	r3, r4, #1
10000690:	191b      	adds	r3, r3, r4
10000692:	3b03      	subs	r3, #3
10000694:	4698      	mov	r8, r3
10000696:	2200      	movs	r2, #0
10000698:	6833      	ldr	r3, [r6, #0]
1000069a:	4443      	add	r3, r8
1000069c:	709a      	strb	r2, [r3, #2]
1000069e:	705a      	strb	r2, [r3, #1]
100006a0:	701a      	strb	r2, [r3, #0]
100006a2:	7b73      	ldrb	r3, [r6, #13]
100006a4:	4699      	mov	r9, r3
100006a6:	2b00      	cmp	r3, #0
100006a8:	d017      	beq.n	100006da <add_alarm_under_lock+0xb2>
100006aa:	465a      	mov	r2, fp
100006ac:	0019      	movs	r1, r3
100006ae:	68b0      	ldr	r0, [r6, #8]
100006b0:	6873      	ldr	r3, [r6, #4]
100006b2:	4798      	blx	r3
100006b4:	6832      	ldr	r2, [r6, #0]
100006b6:	2800      	cmp	r0, #0
100006b8:	d12b      	bne.n	10000712 <add_alarm_under_lock+0xea>
100006ba:	4643      	mov	r3, r8
100006bc:	18d1      	adds	r1, r2, r3
100006be:	464b      	mov	r3, r9
100006c0:	4658      	mov	r0, fp
100006c2:	005b      	lsls	r3, r3, #1
100006c4:	444b      	add	r3, r9
100006c6:	3b03      	subs	r3, #3
100006c8:	18d3      	adds	r3, r2, r3
100006ca:	7098      	strb	r0, [r3, #2]
100006cc:	4640      	mov	r0, r8
100006ce:	5c12      	ldrb	r2, [r2, r0]
100006d0:	2a00      	cmp	r2, #0
100006d2:	d000      	beq.n	100006d6 <add_alarm_under_lock+0xae>
100006d4:	705a      	strb	r2, [r3, #1]
100006d6:	464b      	mov	r3, r9
100006d8:	700b      	strb	r3, [r1, #0]
100006da:	465b      	mov	r3, fp
100006dc:	7373      	strb	r3, [r6, #13]
100006de:	4652      	mov	r2, sl
100006e0:	003b      	movs	r3, r7
100006e2:	7d28      	ldrb	r0, [r5, #20]
100006e4:	f000 fb12 	bl	10000d0c <hardware_alarm_set_target>
100006e8:	1e06      	subs	r6, r0, #0
100006ea:	d002      	beq.n	100006f2 <add_alarm_under_lock+0xca>
100006ec:	9b01      	ldr	r3, [sp, #4]
100006ee:	2b00      	cmp	r3, #0
100006f0:	d026      	beq.n	10000740 <add_alarm_under_lock+0x118>
100006f2:	9b10      	ldr	r3, [sp, #64]	; 0x40
100006f4:	2b00      	cmp	r3, #0
100006f6:	d028      	beq.n	1000074a <add_alarm_under_lock+0x122>
100006f8:	0020      	movs	r0, r4
100006fa:	701e      	strb	r6, [r3, #0]
100006fc:	e000      	b.n	10000700 <add_alarm_under_lock+0xd8>
100006fe:	2000      	movs	r0, #0
10000700:	b003      	add	sp, #12
10000702:	bc3c      	pop	{r2, r3, r4, r5}
10000704:	4690      	mov	r8, r2
10000706:	4699      	mov	r9, r3
10000708:	46a2      	mov	sl, r4
1000070a:	46ab      	mov	fp, r5
1000070c:	bdf0      	pop	{r4, r5, r6, r7, pc}
1000070e:	73d3      	strb	r3, [r2, #15]
10000710:	e7a8      	b.n	10000664 <add_alarm_under_lock+0x3c>
10000712:	464b      	mov	r3, r9
10000714:	005b      	lsls	r3, r3, #1
10000716:	444b      	add	r3, r9
10000718:	3b03      	subs	r3, #3
1000071a:	18d1      	adds	r1, r2, r3
1000071c:	468c      	mov	ip, r1
1000071e:	4641      	mov	r1, r8
10000720:	4648      	mov	r0, r9
10000722:	1851      	adds	r1, r2, r1
10000724:	7088      	strb	r0, [r1, #2]
10000726:	5cd3      	ldrb	r3, [r2, r3]
10000728:	2b00      	cmp	r3, #0
1000072a:	d000      	beq.n	1000072e <add_alarm_under_lock+0x106>
1000072c:	704b      	strb	r3, [r1, #1]
1000072e:	465b      	mov	r3, fp
10000730:	4662      	mov	r2, ip
10000732:	7013      	strb	r3, [r2, #0]
10000734:	464b      	mov	r3, r9
10000736:	0020      	movs	r0, r4
10000738:	7373      	strb	r3, [r6, #13]
1000073a:	45a1      	cmp	r9, r4
1000073c:	d1e0      	bne.n	10000700 <add_alarm_under_lock+0xd8>
1000073e:	e7ce      	b.n	100006de <add_alarm_under_lock+0xb6>
10000740:	4659      	mov	r1, fp
10000742:	6828      	ldr	r0, [r5, #0]
10000744:	f000 fd40 	bl	100011c8 <ph_delete>
10000748:	e7d3      	b.n	100006f2 <add_alarm_under_lock+0xca>
1000074a:	0020      	movs	r0, r4
1000074c:	e7d8      	b.n	10000700 <add_alarm_under_lock+0xd8>
1000074e:	46c0      	nop			; (mov r8, r8)
10000750:	0fffffff 	.word	0x0fffffff

10000754 <alarm_pool_alarm_callback>:
10000754:	b5f0      	push	{r4, r5, r6, r7, lr}
10000756:	46de      	mov	lr, fp
10000758:	464e      	mov	r6, r9
1000075a:	4657      	mov	r7, sl
1000075c:	4645      	mov	r5, r8
1000075e:	2300      	movs	r3, #0
10000760:	b5e0      	push	{r5, r6, r7, lr}
10000762:	b08d      	sub	sp, #52	; 0x34
10000764:	930a      	str	r3, [sp, #40]	; 0x28
10000766:	4b71      	ldr	r3, [pc, #452]	; (1000092c <alarm_pool_alarm_callback+0x1d8>)
10000768:	0082      	lsls	r2, r0, #2
1000076a:	58d3      	ldr	r3, [r2, r3]
1000076c:	900b      	str	r0, [sp, #44]	; 0x2c
1000076e:	4699      	mov	r9, r3
10000770:	2300      	movs	r3, #0
10000772:	469b      	mov	fp, r3
10000774:	464b      	mov	r3, r9
10000776:	9307      	str	r3, [sp, #28]
10000778:	f000 fa68 	bl	10000c4c <time_us_64>
1000077c:	9c07      	ldr	r4, [sp, #28]
1000077e:	0006      	movs	r6, r0
10000780:	000f      	movs	r7, r1
10000782:	6862      	ldr	r2, [r4, #4]
10000784:	f3ef 8510 	mrs	r5, PRIMASK
10000788:	b672      	cpsid	i
1000078a:	6813      	ldr	r3, [r2, #0]
1000078c:	2b00      	cmp	r3, #0
1000078e:	d0fc      	beq.n	1000078a <alarm_pool_alarm_callback+0x36>
10000790:	0022      	movs	r2, r4
10000792:	9407      	str	r4, [sp, #28]
10000794:	f3bf 8f5f 	dmb	sy
10000798:	6824      	ldr	r4, [r4, #0]
1000079a:	7b63      	ldrb	r3, [r4, #13]
1000079c:	4699      	mov	r9, r3
1000079e:	2b00      	cmp	r3, #0
100007a0:	d100      	bne.n	100007a4 <alarm_pool_alarm_callback+0x50>
100007a2:	e070      	b.n	10000886 <alarm_pool_alarm_callback+0x132>
100007a4:	6892      	ldr	r2, [r2, #8]
100007a6:	4b62      	ldr	r3, [pc, #392]	; (10000930 <alarm_pool_alarm_callback+0x1dc>)
100007a8:	4690      	mov	r8, r2
100007aa:	444b      	add	r3, r9
100007ac:	011b      	lsls	r3, r3, #4
100007ae:	4498      	add	r8, r3
100007b0:	4643      	mov	r3, r8
100007b2:	681a      	ldr	r2, [r3, #0]
100007b4:	685b      	ldr	r3, [r3, #4]
100007b6:	0010      	movs	r0, r2
100007b8:	0019      	movs	r1, r3
100007ba:	1b80      	subs	r0, r0, r6
100007bc:	41b9      	sbcs	r1, r7
100007be:	2900      	cmp	r1, #0
100007c0:	dd68      	ble.n	10000894 <alarm_pool_alarm_callback+0x140>
100007c2:	980b      	ldr	r0, [sp, #44]	; 0x2c
100007c4:	f000 faa2 	bl	10000d0c <hardware_alarm_set_target>
100007c8:	2300      	movs	r3, #0
100007ca:	2600      	movs	r6, #0
100007cc:	4698      	mov	r8, r3
100007ce:	2700      	movs	r7, #0
100007d0:	469a      	mov	sl, r3
100007d2:	9c07      	ldr	r4, [sp, #28]
100007d4:	6863      	ldr	r3, [r4, #4]
100007d6:	f3bf 8f5f 	dmb	sy
100007da:	465a      	mov	r2, fp
100007dc:	601a      	str	r2, [r3, #0]
100007de:	f385 8810 	msr	PRIMASK, r5
100007e2:	4653      	mov	r3, sl
100007e4:	2b00      	cmp	r3, #0
100007e6:	d108      	bne.n	100007fa <alarm_pool_alarm_callback+0xa6>
100007e8:	2800      	cmp	r0, #0
100007ea:	d1c5      	bne.n	10000778 <alarm_pool_alarm_callback+0x24>
100007ec:	b00d      	add	sp, #52	; 0x34
100007ee:	bc3c      	pop	{r2, r3, r4, r5}
100007f0:	4690      	mov	r8, r2
100007f2:	4699      	mov	r9, r3
100007f4:	46a2      	mov	sl, r4
100007f6:	46ab      	mov	fp, r5
100007f8:	bdf0      	pop	{r4, r5, r6, r7, pc}
100007fa:	23d0      	movs	r3, #208	; 0xd0
100007fc:	2280      	movs	r2, #128	; 0x80
100007fe:	2180      	movs	r1, #128	; 0x80
10000800:	061b      	lsls	r3, r3, #24
10000802:	0392      	lsls	r2, r2, #14
10000804:	0309      	lsls	r1, r1, #12
10000806:	615a      	str	r2, [r3, #20]
10000808:	6199      	str	r1, [r3, #24]
1000080a:	619a      	str	r2, [r3, #24]
1000080c:	9b0a      	ldr	r3, [sp, #40]	; 0x28
1000080e:	4641      	mov	r1, r8
10000810:	0218      	lsls	r0, r3, #8
10000812:	464b      	mov	r3, r9
10000814:	4318      	orrs	r0, r3
10000816:	47d0      	blx	sl
10000818:	9008      	str	r0, [sp, #32]
1000081a:	9109      	str	r1, [sp, #36]	; 0x24
1000081c:	6862      	ldr	r2, [r4, #4]
1000081e:	f3ef 8510 	mrs	r5, PRIMASK
10000822:	b672      	cpsid	i
10000824:	6813      	ldr	r3, [r2, #0]
10000826:	2b00      	cmp	r3, #0
10000828:	d0fc      	beq.n	10000824 <alarm_pool_alarm_callback+0xd0>
1000082a:	9407      	str	r4, [sp, #28]
1000082c:	f3bf 8f5f 	dmb	sy
10000830:	9908      	ldr	r1, [sp, #32]
10000832:	9a09      	ldr	r2, [sp, #36]	; 0x24
10000834:	2a00      	cmp	r2, #0
10000836:	db49      	blt.n	100008cc <alarm_pool_alarm_callback+0x178>
10000838:	4311      	orrs	r1, r2
1000083a:	d003      	beq.n	10000844 <alarm_pool_alarm_callback+0xf0>
1000083c:	9b07      	ldr	r3, [sp, #28]
1000083e:	691b      	ldr	r3, [r3, #16]
10000840:	2b00      	cmp	r3, #0
10000842:	d15e      	bne.n	10000902 <alarm_pool_alarm_callback+0x1ae>
10000844:	9b07      	ldr	r3, [sp, #28]
10000846:	681b      	ldr	r3, [r3, #0]
10000848:	7bda      	ldrb	r2, [r3, #15]
1000084a:	2a00      	cmp	r2, #0
1000084c:	d007      	beq.n	1000085e <alarm_pool_alarm_callback+0x10a>
1000084e:	0051      	lsls	r1, r2, #1
10000850:	188a      	adds	r2, r1, r2
10000852:	6819      	ldr	r1, [r3, #0]
10000854:	468c      	mov	ip, r1
10000856:	4649      	mov	r1, r9
10000858:	4462      	add	r2, ip
1000085a:	3a03      	subs	r2, #3
1000085c:	7051      	strb	r1, [r2, #1]
1000085e:	464a      	mov	r2, r9
10000860:	73da      	strb	r2, [r3, #15]
10000862:	464b      	mov	r3, r9
10000864:	9a07      	ldr	r2, [sp, #28]
10000866:	3b01      	subs	r3, #1
10000868:	68d1      	ldr	r1, [r2, #12]
1000086a:	5cca      	ldrb	r2, [r1, r3]
1000086c:	3201      	adds	r2, #1
1000086e:	54ca      	strb	r2, [r1, r3]
10000870:	465b      	mov	r3, fp
10000872:	9a07      	ldr	r2, [sp, #28]
10000874:	6113      	str	r3, [r2, #16]
10000876:	6853      	ldr	r3, [r2, #4]
10000878:	f3bf 8f5f 	dmb	sy
1000087c:	465a      	mov	r2, fp
1000087e:	601a      	str	r2, [r3, #0]
10000880:	f385 8810 	msr	PRIMASK, r5
10000884:	e778      	b.n	10000778 <alarm_pool_alarm_callback+0x24>
10000886:	2300      	movs	r3, #0
10000888:	2600      	movs	r6, #0
1000088a:	4698      	mov	r8, r3
1000088c:	2700      	movs	r7, #0
1000088e:	469a      	mov	sl, r3
10000890:	2000      	movs	r0, #0
10000892:	e79e      	b.n	100007d2 <alarm_pool_alarm_callback+0x7e>
10000894:	2900      	cmp	r1, #0
10000896:	d102      	bne.n	1000089e <alarm_pool_alarm_callback+0x14a>
10000898:	2800      	cmp	r0, #0
1000089a:	d000      	beq.n	1000089e <alarm_pool_alarm_callback+0x14a>
1000089c:	e791      	b.n	100007c2 <alarm_pool_alarm_callback+0x6e>
1000089e:	2101      	movs	r1, #1
100008a0:	0020      	movs	r0, r4
100008a2:	f000 fbf3 	bl	1000108c <ph_remove_head_reserve>
100008a6:	4643      	mov	r3, r8
100008a8:	681e      	ldr	r6, [r3, #0]
100008aa:	685f      	ldr	r7, [r3, #4]
100008ac:	689b      	ldr	r3, [r3, #8]
100008ae:	9a07      	ldr	r2, [sp, #28]
100008b0:	469a      	mov	sl, r3
100008b2:	4643      	mov	r3, r8
100008b4:	68db      	ldr	r3, [r3, #12]
100008b6:	4698      	mov	r8, r3
100008b8:	68d3      	ldr	r3, [r2, #12]
100008ba:	444b      	add	r3, r9
100008bc:	3b01      	subs	r3, #1
100008be:	781b      	ldrb	r3, [r3, #0]
100008c0:	930a      	str	r3, [sp, #40]	; 0x28
100008c2:	021b      	lsls	r3, r3, #8
100008c4:	4303      	orrs	r3, r0
100008c6:	6113      	str	r3, [r2, #16]
100008c8:	2000      	movs	r0, #0
100008ca:	e782      	b.n	100007d2 <alarm_pool_alarm_callback+0x7e>
100008cc:	6923      	ldr	r3, [r4, #16]
100008ce:	2b00      	cmp	r3, #0
100008d0:	d0b8      	beq.n	10000844 <alarm_pool_alarm_callback+0xf0>
100008d2:	0033      	movs	r3, r6
100008d4:	003c      	movs	r4, r7
100008d6:	1a5b      	subs	r3, r3, r1
100008d8:	4194      	sbcs	r4, r2
100008da:	001a      	movs	r2, r3
100008dc:	0023      	movs	r3, r4
100008de:	42a7      	cmp	r7, r4
100008e0:	d819      	bhi.n	10000916 <alarm_pool_alarm_callback+0x1c2>
100008e2:	429f      	cmp	r7, r3
100008e4:	d01b      	beq.n	1000091e <alarm_pool_alarm_callback+0x1ca>
100008e6:	4659      	mov	r1, fp
100008e8:	9104      	str	r1, [sp, #16]
100008ea:	2101      	movs	r1, #1
100008ec:	9103      	str	r1, [sp, #12]
100008ee:	4649      	mov	r1, r9
100008f0:	9102      	str	r1, [sp, #8]
100008f2:	4641      	mov	r1, r8
100008f4:	9101      	str	r1, [sp, #4]
100008f6:	4651      	mov	r1, sl
100008f8:	9807      	ldr	r0, [sp, #28]
100008fa:	9100      	str	r1, [sp, #0]
100008fc:	f7ff fe94 	bl	10000628 <add_alarm_under_lock>
10000900:	e7b6      	b.n	10000870 <alarm_pool_alarm_callback+0x11c>
10000902:	f000 f9a3 	bl	10000c4c <time_us_64>
10000906:	9a08      	ldr	r2, [sp, #32]
10000908:	9b09      	ldr	r3, [sp, #36]	; 0x24
1000090a:	0006      	movs	r6, r0
1000090c:	000f      	movs	r7, r1
1000090e:	1992      	adds	r2, r2, r6
10000910:	417b      	adcs	r3, r7
10000912:	4299      	cmp	r1, r3
10000914:	d9e5      	bls.n	100008e2 <alarm_pool_alarm_callback+0x18e>
10000916:	2201      	movs	r2, #1
10000918:	4252      	negs	r2, r2
1000091a:	17d3      	asrs	r3, r2, #31
1000091c:	e7e3      	b.n	100008e6 <alarm_pool_alarm_callback+0x192>
1000091e:	4296      	cmp	r6, r2
10000920:	d9e1      	bls.n	100008e6 <alarm_pool_alarm_callback+0x192>
10000922:	2201      	movs	r2, #1
10000924:	4252      	negs	r2, r2
10000926:	17d3      	asrs	r3, r2, #31
10000928:	e7dd      	b.n	100008e6 <alarm_pool_alarm_callback+0x192>
1000092a:	46c0      	nop			; (mov r8, r8)
1000092c:	20000b28 	.word	0x20000b28
10000930:	0fffffff 	.word	0x0fffffff

10000934 <alarm_pool_add_alarm_at.constprop.0>:
10000934:	b5f8      	push	{r3, r4, r5, r6, r7, lr}
10000936:	4657      	mov	r7, sl
10000938:	464e      	mov	r6, r9
1000093a:	46de      	mov	lr, fp
1000093c:	4645      	mov	r5, r8
1000093e:	4691      	mov	r9, r2
10000940:	b5e0      	push	{r5, r6, r7, lr}
10000942:	0004      	movs	r4, r0
10000944:	469a      	mov	sl, r3
10000946:	6842      	ldr	r2, [r0, #4]
10000948:	f3ef 8810 	mrs	r8, PRIMASK
1000094c:	b672      	cpsid	i
1000094e:	6813      	ldr	r3, [r2, #0]
10000950:	2b00      	cmp	r3, #0
10000952:	d0fc      	beq.n	1000094e <alarm_pool_add_alarm_at.constprop.0+0x1a>
10000954:	f3bf 8f5f 	dmb	sy
10000958:	6826      	ldr	r6, [r4, #0]
1000095a:	7bb5      	ldrb	r5, [r6, #14]
1000095c:	2d00      	cmp	r5, #0
1000095e:	d040      	beq.n	100009e2 <alarm_pool_add_alarm_at.constprop.0+0xae>
10000960:	006f      	lsls	r7, r5, #1
10000962:	6833      	ldr	r3, [r6, #0]
10000964:	197f      	adds	r7, r7, r5
10000966:	3f03      	subs	r7, #3
10000968:	19db      	adds	r3, r3, r7
1000096a:	785b      	ldrb	r3, [r3, #1]
1000096c:	73b3      	strb	r3, [r6, #14]
1000096e:	2b00      	cmp	r3, #0
10000970:	d100      	bne.n	10000974 <alarm_pool_add_alarm_at.constprop.0+0x40>
10000972:	73f3      	strb	r3, [r6, #15]
10000974:	4b37      	ldr	r3, [pc, #220]	; (10000a54 <alarm_pool_add_alarm_at.constprop.0+0x120>)
10000976:	2200      	movs	r2, #0
10000978:	18e9      	adds	r1, r5, r3
1000097a:	68a3      	ldr	r3, [r4, #8]
1000097c:	0109      	lsls	r1, r1, #4
1000097e:	469c      	mov	ip, r3
10000980:	464b      	mov	r3, r9
10000982:	4461      	add	r1, ip
10000984:	600b      	str	r3, [r1, #0]
10000986:	4653      	mov	r3, sl
10000988:	604b      	str	r3, [r1, #4]
1000098a:	4b33      	ldr	r3, [pc, #204]	; (10000a58 <alarm_pool_add_alarm_at.constprop.0+0x124>)
1000098c:	60ca      	str	r2, [r1, #12]
1000098e:	608b      	str	r3, [r1, #8]
10000990:	23d0      	movs	r3, #208	; 0xd0
10000992:	2180      	movs	r1, #128	; 0x80
10000994:	061b      	lsls	r3, r3, #24
10000996:	0309      	lsls	r1, r1, #12
10000998:	6159      	str	r1, [r3, #20]
1000099a:	6833      	ldr	r3, [r6, #0]
1000099c:	19db      	adds	r3, r3, r7
1000099e:	709a      	strb	r2, [r3, #2]
100009a0:	705a      	strb	r2, [r3, #1]
100009a2:	701a      	strb	r2, [r3, #0]
100009a4:	7b73      	ldrb	r3, [r6, #13]
100009a6:	469b      	mov	fp, r3
100009a8:	2b00      	cmp	r3, #0
100009aa:	d035      	beq.n	10000a18 <alarm_pool_add_alarm_at.constprop.0+0xe4>
100009ac:	002a      	movs	r2, r5
100009ae:	0019      	movs	r1, r3
100009b0:	68b0      	ldr	r0, [r6, #8]
100009b2:	6873      	ldr	r3, [r6, #4]
100009b4:	4798      	blx	r3
100009b6:	6832      	ldr	r2, [r6, #0]
100009b8:	2800      	cmp	r0, #0
100009ba:	d020      	beq.n	100009fe <alarm_pool_add_alarm_at.constprop.0+0xca>
100009bc:	465b      	mov	r3, fp
100009be:	4658      	mov	r0, fp
100009c0:	005b      	lsls	r3, r3, #1
100009c2:	445b      	add	r3, fp
100009c4:	19d7      	adds	r7, r2, r7
100009c6:	3b03      	subs	r3, #3
100009c8:	70b8      	strb	r0, [r7, #2]
100009ca:	18d1      	adds	r1, r2, r3
100009cc:	5cd3      	ldrb	r3, [r2, r3]
100009ce:	2b00      	cmp	r3, #0
100009d0:	d000      	beq.n	100009d4 <alarm_pool_add_alarm_at.constprop.0+0xa0>
100009d2:	707b      	strb	r3, [r7, #1]
100009d4:	465b      	mov	r3, fp
100009d6:	700d      	strb	r5, [r1, #0]
100009d8:	7373      	strb	r3, [r6, #13]
100009da:	455d      	cmp	r5, fp
100009dc:	d01d      	beq.n	10000a1a <alarm_pool_add_alarm_at.constprop.0+0xe6>
100009de:	2600      	movs	r6, #0
100009e0:	e026      	b.n	10000a30 <alarm_pool_add_alarm_at.constprop.0+0xfc>
100009e2:	6863      	ldr	r3, [r4, #4]
100009e4:	f3bf 8f5f 	dmb	sy
100009e8:	601d      	str	r5, [r3, #0]
100009ea:	f388 8810 	msr	PRIMASK, r8
100009ee:	2001      	movs	r0, #1
100009f0:	4240      	negs	r0, r0
100009f2:	bc3c      	pop	{r2, r3, r4, r5}
100009f4:	4690      	mov	r8, r2
100009f6:	4699      	mov	r9, r3
100009f8:	46a2      	mov	sl, r4
100009fa:	46ab      	mov	fp, r5
100009fc:	bdf8      	pop	{r3, r4, r5, r6, r7, pc}
100009fe:	465b      	mov	r3, fp
10000a00:	005b      	lsls	r3, r3, #1
10000a02:	445b      	add	r3, fp
10000a04:	3b03      	subs	r3, #3
10000a06:	18d3      	adds	r3, r2, r3
10000a08:	709d      	strb	r5, [r3, #2]
10000a0a:	19d1      	adds	r1, r2, r7
10000a0c:	5dd2      	ldrb	r2, [r2, r7]
10000a0e:	2a00      	cmp	r2, #0
10000a10:	d000      	beq.n	10000a14 <alarm_pool_add_alarm_at.constprop.0+0xe0>
10000a12:	705a      	strb	r2, [r3, #1]
10000a14:	465b      	mov	r3, fp
10000a16:	700b      	strb	r3, [r1, #0]
10000a18:	7375      	strb	r5, [r6, #13]
10000a1a:	464a      	mov	r2, r9
10000a1c:	4653      	mov	r3, sl
10000a1e:	7d20      	ldrb	r0, [r4, #20]
10000a20:	f000 f974 	bl	10000d0c <hardware_alarm_set_target>
10000a24:	1e06      	subs	r6, r0, #0
10000a26:	d0da      	beq.n	100009de <alarm_pool_add_alarm_at.constprop.0+0xaa>
10000a28:	0029      	movs	r1, r5
10000a2a:	6820      	ldr	r0, [r4, #0]
10000a2c:	f000 fbcc 	bl	100011c8 <ph_delete>
10000a30:	68e3      	ldr	r3, [r4, #12]
10000a32:	6862      	ldr	r2, [r4, #4]
10000a34:	195b      	adds	r3, r3, r5
10000a36:	3b01      	subs	r3, #1
10000a38:	781b      	ldrb	r3, [r3, #0]
10000a3a:	f3bf 8f5f 	dmb	sy
10000a3e:	2100      	movs	r1, #0
10000a40:	6011      	str	r1, [r2, #0]
10000a42:	f388 8810 	msr	PRIMASK, r8
10000a46:	2000      	movs	r0, #0
10000a48:	2e00      	cmp	r6, #0
10000a4a:	d1d2      	bne.n	100009f2 <alarm_pool_add_alarm_at.constprop.0+0xbe>
10000a4c:	0218      	lsls	r0, r3, #8
10000a4e:	4328      	orrs	r0, r5
10000a50:	e7cf      	b.n	100009f2 <alarm_pool_add_alarm_at.constprop.0+0xbe>
10000a52:	46c0      	nop			; (mov r8, r8)
10000a54:	0fffffff 	.word	0x0fffffff
10000a58:	10000621 	.word	0x10000621

10000a5c <alarm_pool_init_default>:
10000a5c:	b570      	push	{r4, r5, r6, lr}
10000a5e:	4c18      	ldr	r4, [pc, #96]	; (10000ac0 <alarm_pool_init_default+0x64>)
10000a60:	6823      	ldr	r3, [r4, #0]
10000a62:	2b00      	cmp	r3, #0
10000a64:	d000      	beq.n	10000a68 <alarm_pool_init_default+0xc>
10000a66:	bd70      	pop	{r4, r5, r6, pc}
10000a68:	2003      	movs	r0, #3
10000a6a:	f000 f8e3 	bl	10000c34 <hardware_alarm_claim>
10000a6e:	2003      	movs	r0, #3
10000a70:	f000 f9ae 	bl	10000dd0 <hardware_alarm_cancel>
10000a74:	4913      	ldr	r1, [pc, #76]	; (10000ac4 <alarm_pool_init_default+0x68>)
10000a76:	2003      	movs	r0, #3
10000a78:	f000 f902 	bl	10000c80 <hardware_alarm_set_callback>
10000a7c:	2018      	movs	r0, #24
10000a7e:	f001 f93b 	bl	10001cf8 <__wrap_malloc>
10000a82:	0005      	movs	r5, r0
10000a84:	f7ff fd32 	bl	100004ec <next_striped_spin_lock_num>
10000a88:	4b0f      	ldr	r3, [pc, #60]	; (10000ac8 <alarm_pool_init_default+0x6c>)
10000a8a:	002a      	movs	r2, r5
10000a8c:	469c      	mov	ip, r3
10000a8e:	4460      	add	r0, ip
10000a90:	0080      	lsls	r0, r0, #2
10000a92:	490e      	ldr	r1, [pc, #56]	; (10000acc <alarm_pool_init_default+0x70>)
10000a94:	6068      	str	r0, [r5, #4]
10000a96:	2010      	movs	r0, #16
10000a98:	f000 fa02 	bl	10000ea0 <ph_create>
10000a9c:	2110      	movs	r1, #16
10000a9e:	6028      	str	r0, [r5, #0]
10000aa0:	2010      	movs	r0, #16
10000aa2:	f001 f92d 	bl	10001d00 <__wrap_calloc>
10000aa6:	2101      	movs	r1, #1
10000aa8:	60a8      	str	r0, [r5, #8]
10000aaa:	2010      	movs	r0, #16
10000aac:	f001 f928 	bl	10001d00 <__wrap_calloc>
10000ab0:	2303      	movs	r3, #3
10000ab2:	752b      	strb	r3, [r5, #20]
10000ab4:	4b06      	ldr	r3, [pc, #24]	; (10000ad0 <alarm_pool_init_default+0x74>)
10000ab6:	60e8      	str	r0, [r5, #12]
10000ab8:	60dd      	str	r5, [r3, #12]
10000aba:	6025      	str	r5, [r4, #0]
10000abc:	e7d3      	b.n	10000a66 <alarm_pool_init_default+0xa>
10000abe:	46c0      	nop			; (mov r8, r8)
10000ac0:	20000b14 	.word	0x20000b14
10000ac4:	10000755 	.word	0x10000755
10000ac8:	34000040 	.word	0x34000040
10000acc:	100005ed 	.word	0x100005ed
10000ad0:	20000b28 	.word	0x20000b28

10000ad4 <sleep_ms>:
10000ad4:	b5f8      	push	{r3, r4, r5, r6, r7, lr}
10000ad6:	0004      	movs	r4, r0
10000ad8:	f000 f8b8 	bl	10000c4c <time_us_64>
10000adc:	22fa      	movs	r2, #250	; 0xfa
10000ade:	0006      	movs	r6, r0
10000ae0:	000f      	movs	r7, r1
10000ae2:	0020      	movs	r0, r4
10000ae4:	2300      	movs	r3, #0
10000ae6:	2100      	movs	r1, #0
10000ae8:	0092      	lsls	r2, r2, #2
10000aea:	f001 f8a3 	bl	10001c34 <__wrap___aeabi_lmul>
10000aee:	1980      	adds	r0, r0, r6
10000af0:	4179      	adcs	r1, r7
10000af2:	0004      	movs	r4, r0
10000af4:	000d      	movs	r5, r1
10000af6:	428f      	cmp	r7, r1
10000af8:	d82f      	bhi.n	10000b5a <sleep_ms+0x86>
10000afa:	d02c      	beq.n	10000b56 <sleep_ms+0x82>
10000afc:	2606      	movs	r6, #6
10000afe:	4276      	negs	r6, r6
10000b00:	17f7      	asrs	r7, r6, #31
10000b02:	1936      	adds	r6, r6, r4
10000b04:	416f      	adcs	r7, r5
10000b06:	42af      	cmp	r7, r5
10000b08:	d92e      	bls.n	10000b68 <sleep_ms+0x94>
10000b0a:	2600      	movs	r6, #0
10000b0c:	2700      	movs	r7, #0
10000b0e:	f000 f89d 	bl	10000c4c <time_us_64>
10000b12:	0032      	movs	r2, r6
10000b14:	003b      	movs	r3, r7
10000b16:	1a12      	subs	r2, r2, r0
10000b18:	418b      	sbcs	r3, r1
10000b1a:	2b00      	cmp	r3, #0
10000b1c:	dc07      	bgt.n	10000b2e <sleep_ms+0x5a>
10000b1e:	d004      	beq.n	10000b2a <sleep_ms+0x56>
10000b20:	0029      	movs	r1, r5
10000b22:	0020      	movs	r0, r4
10000b24:	f000 f89c 	bl	10000c60 <busy_wait_until>
10000b28:	bdf8      	pop	{r3, r4, r5, r6, r7, pc}
10000b2a:	2a00      	cmp	r2, #0
10000b2c:	d0f8      	beq.n	10000b20 <sleep_ms+0x4c>
10000b2e:	4b11      	ldr	r3, [pc, #68]	; (10000b74 <sleep_ms+0xa0>)
10000b30:	0032      	movs	r2, r6
10000b32:	6818      	ldr	r0, [r3, #0]
10000b34:	003b      	movs	r3, r7
10000b36:	f7ff fefd 	bl	10000934 <alarm_pool_add_alarm_at.constprop.0>
10000b3a:	2800      	cmp	r0, #0
10000b3c:	dbf0      	blt.n	10000b20 <sleep_ms+0x4c>
10000b3e:	0038      	movs	r0, r7
10000b40:	4a0d      	ldr	r2, [pc, #52]	; (10000b78 <sleep_ms+0xa4>)
10000b42:	6a53      	ldr	r3, [r2, #36]	; 0x24
10000b44:	4298      	cmp	r0, r3
10000b46:	d804      	bhi.n	10000b52 <sleep_ms+0x7e>
10000b48:	6a91      	ldr	r1, [r2, #40]	; 0x28
10000b4a:	428e      	cmp	r6, r1
10000b4c:	d9e8      	bls.n	10000b20 <sleep_ms+0x4c>
10000b4e:	4298      	cmp	r0, r3
10000b50:	d1e6      	bne.n	10000b20 <sleep_ms+0x4c>
10000b52:	bf20      	wfe
10000b54:	e7f5      	b.n	10000b42 <sleep_ms+0x6e>
10000b56:	4286      	cmp	r6, r0
10000b58:	d9d0      	bls.n	10000afc <sleep_ms+0x28>
10000b5a:	2401      	movs	r4, #1
10000b5c:	4264      	negs	r4, r4
10000b5e:	17e5      	asrs	r5, r4, #31
10000b60:	2607      	movs	r6, #7
10000b62:	4276      	negs	r6, r6
10000b64:	17f7      	asrs	r7, r6, #31
10000b66:	e7d2      	b.n	10000b0e <sleep_ms+0x3a>
10000b68:	42af      	cmp	r7, r5
10000b6a:	d1d0      	bne.n	10000b0e <sleep_ms+0x3a>
10000b6c:	42a6      	cmp	r6, r4
10000b6e:	d8cc      	bhi.n	10000b0a <sleep_ms+0x36>
10000b70:	e7cd      	b.n	10000b0e <sleep_ms+0x3a>
10000b72:	46c0      	nop			; (mov r8, r8)
10000b74:	20000b14 	.word	0x20000b14
10000b78:	40054000 	.word	0x40054000

10000b7c <hardware_alarm_irq_handler>:
10000b7c:	b5f0      	push	{r4, r5, r6, r7, lr}
10000b7e:	46d6      	mov	lr, sl
10000b80:	464f      	mov	r7, r9
10000b82:	4646      	mov	r6, r8
10000b84:	b5c0      	push	{r6, r7, lr}
10000b86:	f3ef 8305 	mrs	r3, IPSR
10000b8a:	223f      	movs	r2, #63	; 0x3f
10000b8c:	4013      	ands	r3, r2
10000b8e:	0018      	movs	r0, r3
10000b90:	3810      	subs	r0, #16
10000b92:	f3ef 8c10 	mrs	ip, PRIMASK
10000b96:	b672      	cpsid	i
10000b98:	4d20      	ldr	r5, [pc, #128]	; (10000c1c <hardware_alarm_irq_handler+0xa0>)
10000b9a:	682a      	ldr	r2, [r5, #0]
10000b9c:	2a00      	cmp	r2, #0
10000b9e:	d0fc      	beq.n	10000b9a <hardware_alarm_irq_handler+0x1e>
10000ba0:	f3bf 8f5f 	dmb	sy
10000ba4:	2201      	movs	r2, #1
10000ba6:	0011      	movs	r1, r2
10000ba8:	4081      	lsls	r1, r0
10000baa:	4c1d      	ldr	r4, [pc, #116]	; (10000c20 <hardware_alarm_irq_handler+0xa4>)
10000bac:	4688      	mov	r8, r1
10000bae:	6361      	str	r1, [r4, #52]	; 0x34
10000bb0:	491c      	ldr	r1, [pc, #112]	; (10000c24 <hardware_alarm_irq_handler+0xa8>)
10000bb2:	0017      	movs	r7, r2
10000bb4:	780e      	ldrb	r6, [r1, #0]
10000bb6:	468a      	mov	sl, r1
10000bb8:	0031      	movs	r1, r6
10000bba:	40c1      	lsrs	r1, r0
10000bbc:	400f      	ands	r7, r1
10000bbe:	420a      	tst	r2, r1
10000bc0:	d015      	beq.n	10000bee <hardware_alarm_irq_handler+0x72>
10000bc2:	4919      	ldr	r1, [pc, #100]	; (10000c28 <hardware_alarm_irq_handler+0xac>)
10000bc4:	0082      	lsls	r2, r0, #2
10000bc6:	6a64      	ldr	r4, [r4, #36]	; 0x24
10000bc8:	5851      	ldr	r1, [r2, r1]
10000bca:	428c      	cmp	r4, r1
10000bcc:	d319      	bcc.n	10000c02 <hardware_alarm_irq_handler+0x86>
10000bce:	4b17      	ldr	r3, [pc, #92]	; (10000c2c <hardware_alarm_irq_handler+0xb0>)
10000bd0:	58d2      	ldr	r2, [r2, r3]
10000bd2:	4643      	mov	r3, r8
10000bd4:	439e      	bics	r6, r3
10000bd6:	4653      	mov	r3, sl
10000bd8:	701e      	strb	r6, [r3, #0]
10000bda:	f3bf 8f5f 	dmb	sy
10000bde:	2300      	movs	r3, #0
10000be0:	602b      	str	r3, [r5, #0]
10000be2:	f38c 8810 	msr	PRIMASK, ip
10000be6:	2a00      	cmp	r2, #0
10000be8:	d006      	beq.n	10000bf8 <hardware_alarm_irq_handler+0x7c>
10000bea:	4790      	blx	r2
10000bec:	e004      	b.n	10000bf8 <hardware_alarm_irq_handler+0x7c>
10000bee:	f3bf 8f5f 	dmb	sy
10000bf2:	602f      	str	r7, [r5, #0]
10000bf4:	f38c 8810 	msr	PRIMASK, ip
10000bf8:	bc1c      	pop	{r2, r3, r4}
10000bfa:	4690      	mov	r8, r2
10000bfc:	4699      	mov	r9, r3
10000bfe:	46a2      	mov	sl, r4
10000c00:	bdf0      	pop	{r4, r5, r6, r7, pc}
10000c02:	4a0b      	ldr	r2, [pc, #44]	; (10000c30 <hardware_alarm_irq_handler+0xb4>)
10000c04:	009b      	lsls	r3, r3, #2
10000c06:	4690      	mov	r8, r2
10000c08:	4443      	add	r3, r8
10000c0a:	681a      	ldr	r2, [r3, #0]
10000c0c:	601a      	str	r2, [r3, #0]
10000c0e:	f3bf 8f5f 	dmb	sy
10000c12:	2300      	movs	r3, #0
10000c14:	602b      	str	r3, [r5, #0]
10000c16:	f38c 8810 	msr	PRIMASK, ip
10000c1a:	e7ed      	b.n	10000bf8 <hardware_alarm_irq_handler+0x7c>
10000c1c:	d0000128 	.word	0xd0000128
10000c20:	40054000 	.word	0x40054000
10000c24:	20000b4a 	.word	0x20000b4a
10000c28:	20000b38 	.word	0x20000b38
10000c2c:	20000adc 	.word	0x20000adc
10000c30:	40053fd0 	.word	0x40053fd0

10000c34 <hardware_alarm_claim>:
10000c34:	b510      	push	{r4, lr}
10000c36:	0001      	movs	r1, r0
10000c38:	4a02      	ldr	r2, [pc, #8]	; (10000c44 <hardware_alarm_claim+0x10>)
10000c3a:	4803      	ldr	r0, [pc, #12]	; (10000c48 <hardware_alarm_claim+0x14>)
10000c3c:	f7ff fc18 	bl	10000470 <hw_claim_or_assert>
10000c40:	bd10      	pop	{r4, pc}
10000c42:	46c0      	nop			; (mov r8, r8)
10000c44:	10002988 	.word	0x10002988
10000c48:	20000b48 	.word	0x20000b48

10000c4c <time_us_64>:
10000c4c:	4b03      	ldr	r3, [pc, #12]	; (10000c5c <time_us_64+0x10>)
10000c4e:	6a59      	ldr	r1, [r3, #36]	; 0x24
10000c50:	000a      	movs	r2, r1
10000c52:	6a98      	ldr	r0, [r3, #40]	; 0x28
10000c54:	6a59      	ldr	r1, [r3, #36]	; 0x24
10000c56:	428a      	cmp	r2, r1
10000c58:	d1fa      	bne.n	10000c50 <time_us_64+0x4>
10000c5a:	4770      	bx	lr
10000c5c:	40054000 	.word	0x40054000

10000c60 <busy_wait_until>:
10000c60:	4a06      	ldr	r2, [pc, #24]	; (10000c7c <busy_wait_until+0x1c>)
10000c62:	6a53      	ldr	r3, [r2, #36]	; 0x24
10000c64:	4299      	cmp	r1, r3
10000c66:	d8fc      	bhi.n	10000c62 <busy_wait_until+0x2>
10000c68:	d107      	bne.n	10000c7a <busy_wait_until+0x1a>
10000c6a:	4b04      	ldr	r3, [pc, #16]	; (10000c7c <busy_wait_until+0x1c>)
10000c6c:	e002      	b.n	10000c74 <busy_wait_until+0x14>
10000c6e:	6a5a      	ldr	r2, [r3, #36]	; 0x24
10000c70:	4291      	cmp	r1, r2
10000c72:	d102      	bne.n	10000c7a <busy_wait_until+0x1a>
10000c74:	6a9a      	ldr	r2, [r3, #40]	; 0x28
10000c76:	4282      	cmp	r2, r0
10000c78:	d3f9      	bcc.n	10000c6e <busy_wait_until+0xe>
10000c7a:	4770      	bx	lr
10000c7c:	40054000 	.word	0x40054000

10000c80 <hardware_alarm_set_callback>:
10000c80:	b570      	push	{r4, r5, r6, lr}
10000c82:	0004      	movs	r4, r0
10000c84:	000d      	movs	r5, r1
10000c86:	f3ef 8610 	mrs	r6, PRIMASK
10000c8a:	b672      	cpsid	i
10000c8c:	4a1a      	ldr	r2, [pc, #104]	; (10000cf8 <hardware_alarm_set_callback+0x78>)
10000c8e:	6813      	ldr	r3, [r2, #0]
10000c90:	2b00      	cmp	r3, #0
10000c92:	d0fc      	beq.n	10000c8e <hardware_alarm_set_callback+0xe>
10000c94:	f3bf 8f5f 	dmb	sy
10000c98:	2d00      	cmp	r5, #0
10000c9a:	d01b      	beq.n	10000cd4 <hardware_alarm_set_callback+0x54>
10000c9c:	0020      	movs	r0, r4
10000c9e:	f000 fd4f 	bl	10001740 <irq_get_vtable_handler>
10000ca2:	4916      	ldr	r1, [pc, #88]	; (10000cfc <hardware_alarm_set_callback+0x7c>)
10000ca4:	4281      	cmp	r1, r0
10000ca6:	d00a      	beq.n	10000cbe <hardware_alarm_set_callback+0x3e>
10000ca8:	0020      	movs	r0, r4
10000caa:	f000 fd51 	bl	10001750 <irq_set_exclusive_handler>
10000cae:	2101      	movs	r1, #1
10000cb0:	0020      	movs	r0, r4
10000cb2:	f000 fd33 	bl	1000171c <irq_set_enabled>
10000cb6:	2301      	movs	r3, #1
10000cb8:	40a3      	lsls	r3, r4
10000cba:	4a11      	ldr	r2, [pc, #68]	; (10000d00 <hardware_alarm_set_callback+0x80>)
10000cbc:	6013      	str	r3, [r2, #0]
10000cbe:	4b11      	ldr	r3, [pc, #68]	; (10000d04 <hardware_alarm_set_callback+0x84>)
10000cc0:	00a4      	lsls	r4, r4, #2
10000cc2:	50e5      	str	r5, [r4, r3]
10000cc4:	f3bf 8f5f 	dmb	sy
10000cc8:	2200      	movs	r2, #0
10000cca:	4b0b      	ldr	r3, [pc, #44]	; (10000cf8 <hardware_alarm_set_callback+0x78>)
10000ccc:	601a      	str	r2, [r3, #0]
10000cce:	f386 8810 	msr	PRIMASK, r6
10000cd2:	bd70      	pop	{r4, r5, r6, pc}
10000cd4:	4b0b      	ldr	r3, [pc, #44]	; (10000d04 <hardware_alarm_set_callback+0x84>)
10000cd6:	00a2      	lsls	r2, r4, #2
10000cd8:	50d5      	str	r5, [r2, r3]
10000cda:	2201      	movs	r2, #1
10000cdc:	40a2      	lsls	r2, r4
10000cde:	490a      	ldr	r1, [pc, #40]	; (10000d08 <hardware_alarm_set_callback+0x88>)
10000ce0:	0020      	movs	r0, r4
10000ce2:	780b      	ldrb	r3, [r1, #0]
10000ce4:	4393      	bics	r3, r2
10000ce6:	700b      	strb	r3, [r1, #0]
10000ce8:	4904      	ldr	r1, [pc, #16]	; (10000cfc <hardware_alarm_set_callback+0x7c>)
10000cea:	f000 fd5b 	bl	100017a4 <irq_remove_handler>
10000cee:	2100      	movs	r1, #0
10000cf0:	0020      	movs	r0, r4
10000cf2:	f000 fd13 	bl	1000171c <irq_set_enabled>
10000cf6:	e7e5      	b.n	10000cc4 <hardware_alarm_set_callback+0x44>
10000cf8:	d0000128 	.word	0xd0000128
10000cfc:	10000b7d 	.word	0x10000b7d
10000d00:	40056038 	.word	0x40056038
10000d04:	20000adc 	.word	0x20000adc
10000d08:	20000b4a 	.word	0x20000b4a

10000d0c <hardware_alarm_set_target>:
10000d0c:	b5f0      	push	{r4, r5, r6, r7, lr}
10000d0e:	46ce      	mov	lr, r9
10000d10:	4647      	mov	r7, r8
10000d12:	b580      	push	{r7, lr}
10000d14:	4c2a      	ldr	r4, [pc, #168]	; (10000dc0 <hardware_alarm_set_target+0xb4>)
10000d16:	6a61      	ldr	r1, [r4, #36]	; 0x24
10000d18:	000d      	movs	r5, r1
10000d1a:	6aa6      	ldr	r6, [r4, #40]	; 0x28
10000d1c:	6a61      	ldr	r1, [r4, #36]	; 0x24
10000d1e:	42a9      	cmp	r1, r5
10000d20:	d1fa      	bne.n	10000d18 <hardware_alarm_set_target+0xc>
10000d22:	428b      	cmp	r3, r1
10000d24:	d807      	bhi.n	10000d36 <hardware_alarm_set_target+0x2a>
10000d26:	d004      	beq.n	10000d32 <hardware_alarm_set_target+0x26>
10000d28:	2001      	movs	r0, #1
10000d2a:	bc0c      	pop	{r2, r3}
10000d2c:	4690      	mov	r8, r2
10000d2e:	4699      	mov	r9, r3
10000d30:	bdf0      	pop	{r4, r5, r6, r7, pc}
10000d32:	42b2      	cmp	r2, r6
10000d34:	d9f8      	bls.n	10000d28 <hardware_alarm_set_target+0x1c>
10000d36:	f3ef 8810 	mrs	r8, PRIMASK
10000d3a:	b672      	cpsid	i
10000d3c:	4c21      	ldr	r4, [pc, #132]	; (10000dc4 <hardware_alarm_set_target+0xb8>)
10000d3e:	6821      	ldr	r1, [r4, #0]
10000d40:	2900      	cmp	r1, #0
10000d42:	d0fc      	beq.n	10000d3e <hardware_alarm_set_target+0x32>
10000d44:	f3bf 8f5f 	dmb	sy
10000d48:	2501      	movs	r5, #1
10000d4a:	4085      	lsls	r5, r0
10000d4c:	4c1c      	ldr	r4, [pc, #112]	; (10000dc0 <hardware_alarm_set_target+0xb4>)
10000d4e:	4e1e      	ldr	r6, [pc, #120]	; (10000dc8 <hardware_alarm_set_target+0xbc>)
10000d50:	6365      	str	r5, [r4, #52]	; 0x34
10000d52:	b2e9      	uxtb	r1, r5
10000d54:	468c      	mov	ip, r1
10000d56:	7831      	ldrb	r1, [r6, #0]
10000d58:	4689      	mov	r9, r1
10000d5a:	4661      	mov	r1, ip
10000d5c:	464f      	mov	r7, r9
10000d5e:	4339      	orrs	r1, r7
10000d60:	7031      	strb	r1, [r6, #0]
10000d62:	1d01      	adds	r1, r0, #4
10000d64:	0089      	lsls	r1, r1, #2
10000d66:	510a      	str	r2, [r1, r4]
10000d68:	4918      	ldr	r1, [pc, #96]	; (10000dcc <hardware_alarm_set_target+0xc0>)
10000d6a:	0080      	lsls	r0, r0, #2
10000d6c:	5043      	str	r3, [r0, r1]
10000d6e:	6a21      	ldr	r1, [r4, #32]
10000d70:	2000      	movs	r0, #0
10000d72:	4229      	tst	r1, r5
10000d74:	d00c      	beq.n	10000d90 <hardware_alarm_set_target+0x84>
10000d76:	0020      	movs	r0, r4
10000d78:	6a61      	ldr	r1, [r4, #36]	; 0x24
10000d7a:	000c      	movs	r4, r1
10000d7c:	6a87      	ldr	r7, [r0, #40]	; 0x28
10000d7e:	6a41      	ldr	r1, [r0, #36]	; 0x24
10000d80:	42a1      	cmp	r1, r4
10000d82:	d1fa      	bne.n	10000d7a <hardware_alarm_set_target+0x6e>
10000d84:	428b      	cmp	r3, r1
10000d86:	d802      	bhi.n	10000d8e <hardware_alarm_set_target+0x82>
10000d88:	d10a      	bne.n	10000da0 <hardware_alarm_set_target+0x94>
10000d8a:	42ba      	cmp	r2, r7
10000d8c:	d908      	bls.n	10000da0 <hardware_alarm_set_target+0x94>
10000d8e:	2000      	movs	r0, #0
10000d90:	f3bf 8f5f 	dmb	sy
10000d94:	2200      	movs	r2, #0
10000d96:	4b0b      	ldr	r3, [pc, #44]	; (10000dc4 <hardware_alarm_set_target+0xb8>)
10000d98:	601a      	str	r2, [r3, #0]
10000d9a:	f388 8810 	msr	PRIMASK, r8
10000d9e:	e7c4      	b.n	10000d2a <hardware_alarm_set_target+0x1e>
10000da0:	4b07      	ldr	r3, [pc, #28]	; (10000dc0 <hardware_alarm_set_target+0xb4>)
10000da2:	464f      	mov	r7, r9
10000da4:	621d      	str	r5, [r3, #32]
10000da6:	635d      	str	r5, [r3, #52]	; 0x34
10000da8:	4663      	mov	r3, ip
10000daa:	439f      	bics	r7, r3
10000dac:	2001      	movs	r0, #1
10000dae:	7037      	strb	r7, [r6, #0]
10000db0:	f3bf 8f5f 	dmb	sy
10000db4:	2200      	movs	r2, #0
10000db6:	4b03      	ldr	r3, [pc, #12]	; (10000dc4 <hardware_alarm_set_target+0xb8>)
10000db8:	601a      	str	r2, [r3, #0]
10000dba:	f388 8810 	msr	PRIMASK, r8
10000dbe:	e7b4      	b.n	10000d2a <hardware_alarm_set_target+0x1e>
10000dc0:	40054000 	.word	0x40054000
10000dc4:	d0000128 	.word	0xd0000128
10000dc8:	20000b4a 	.word	0x20000b4a
10000dcc:	20000b38 	.word	0x20000b38

10000dd0 <hardware_alarm_cancel>:
10000dd0:	b510      	push	{r4, lr}
10000dd2:	f3ef 8410 	mrs	r4, PRIMASK
10000dd6:	b672      	cpsid	i
10000dd8:	490a      	ldr	r1, [pc, #40]	; (10000e04 <hardware_alarm_cancel+0x34>)
10000dda:	680b      	ldr	r3, [r1, #0]
10000ddc:	2b00      	cmp	r3, #0
10000dde:	d0fc      	beq.n	10000dda <hardware_alarm_cancel+0xa>
10000de0:	f3bf 8f5f 	dmb	sy
10000de4:	2301      	movs	r3, #1
10000de6:	4083      	lsls	r3, r0
10000de8:	4a07      	ldr	r2, [pc, #28]	; (10000e08 <hardware_alarm_cancel+0x38>)
10000dea:	4808      	ldr	r0, [pc, #32]	; (10000e0c <hardware_alarm_cancel+0x3c>)
10000dec:	6213      	str	r3, [r2, #32]
10000dee:	7802      	ldrb	r2, [r0, #0]
10000df0:	439a      	bics	r2, r3
10000df2:	7002      	strb	r2, [r0, #0]
10000df4:	f3bf 8f5f 	dmb	sy
10000df8:	2300      	movs	r3, #0
10000dfa:	600b      	str	r3, [r1, #0]
10000dfc:	f384 8810 	msr	PRIMASK, r4
10000e00:	bd10      	pop	{r4, pc}
10000e02:	46c0      	nop			; (mov r8, r8)
10000e04:	d0000128 	.word	0xd0000128
10000e08:	40054000 	.word	0x40054000
10000e0c:	20000b4a 	.word	0x20000b4a

10000e10 <lock_init>:
10000e10:	4b02      	ldr	r3, [pc, #8]	; (10000e1c <lock_init+0xc>)
10000e12:	469c      	mov	ip, r3
10000e14:	4461      	add	r1, ip
10000e16:	0089      	lsls	r1, r1, #2
10000e18:	6001      	str	r1, [r0, #0]
10000e1a:	4770      	bx	lr
10000e1c:	34000040 	.word	0x34000040

10000e20 <mutex_init>:
10000e20:	b510      	push	{r4, lr}
10000e22:	0004      	movs	r4, r0
10000e24:	f7ff fb62 	bl	100004ec <next_striped_spin_lock_num>
10000e28:	0001      	movs	r1, r0
10000e2a:	0020      	movs	r0, r4
10000e2c:	f7ff fff0 	bl	10000e10 <lock_init>
10000e30:	f3bf 8f5f 	dmb	sy
10000e34:	bd10      	pop	{r4, pc}
10000e36:	46c0      	nop			; (mov r8, r8)

10000e38 <ph_merge_nodes>:
10000e38:	b570      	push	{r4, r5, r6, lr}
10000e3a:	0005      	movs	r5, r0
10000e3c:	000e      	movs	r6, r1
10000e3e:	0014      	movs	r4, r2
10000e40:	2900      	cmp	r1, #0
10000e42:	d024      	beq.n	10000e8e <ph_merge_nodes+0x56>
10000e44:	2a00      	cmp	r2, #0
10000e46:	d024      	beq.n	10000e92 <ph_merge_nodes+0x5a>
10000e48:	6880      	ldr	r0, [r0, #8]
10000e4a:	686b      	ldr	r3, [r5, #4]
10000e4c:	4798      	blx	r3
10000e4e:	6829      	ldr	r1, [r5, #0]
10000e50:	2800      	cmp	r0, #0
10000e52:	d00e      	beq.n	10000e72 <ph_merge_nodes+0x3a>
10000e54:	0063      	lsls	r3, r4, #1
10000e56:	191b      	adds	r3, r3, r4
10000e58:	0072      	lsls	r2, r6, #1
10000e5a:	3b03      	subs	r3, #3
10000e5c:	1992      	adds	r2, r2, r6
10000e5e:	18cb      	adds	r3, r1, r3
10000e60:	3a03      	subs	r2, #3
10000e62:	709e      	strb	r6, [r3, #2]
10000e64:	1888      	adds	r0, r1, r2
10000e66:	5c8a      	ldrb	r2, [r1, r2]
10000e68:	2a00      	cmp	r2, #0
10000e6a:	d114      	bne.n	10000e96 <ph_merge_nodes+0x5e>
10000e6c:	7004      	strb	r4, [r0, #0]
10000e6e:	0030      	movs	r0, r6
10000e70:	e00e      	b.n	10000e90 <ph_merge_nodes+0x58>
10000e72:	0073      	lsls	r3, r6, #1
10000e74:	199b      	adds	r3, r3, r6
10000e76:	0062      	lsls	r2, r4, #1
10000e78:	3b03      	subs	r3, #3
10000e7a:	1912      	adds	r2, r2, r4
10000e7c:	18cb      	adds	r3, r1, r3
10000e7e:	3a03      	subs	r2, #3
10000e80:	709c      	strb	r4, [r3, #2]
10000e82:	1888      	adds	r0, r1, r2
10000e84:	5c8a      	ldrb	r2, [r1, r2]
10000e86:	2a00      	cmp	r2, #0
10000e88:	d000      	beq.n	10000e8c <ph_merge_nodes+0x54>
10000e8a:	705a      	strb	r2, [r3, #1]
10000e8c:	7006      	strb	r6, [r0, #0]
10000e8e:	0020      	movs	r0, r4
10000e90:	bd70      	pop	{r4, r5, r6, pc}
10000e92:	0008      	movs	r0, r1
10000e94:	e7fc      	b.n	10000e90 <ph_merge_nodes+0x58>
10000e96:	705a      	strb	r2, [r3, #1]
10000e98:	7004      	strb	r4, [r0, #0]
10000e9a:	0030      	movs	r0, r6
10000e9c:	e7f8      	b.n	10000e90 <ph_merge_nodes+0x58>
10000e9e:	46c0      	nop			; (mov r8, r8)

10000ea0 <ph_create>:
10000ea0:	b5f0      	push	{r4, r5, r6, r7, lr}
10000ea2:	46c6      	mov	lr, r8
10000ea4:	0005      	movs	r5, r0
10000ea6:	000f      	movs	r7, r1
10000ea8:	b500      	push	{lr}
10000eaa:	2110      	movs	r1, #16
10000eac:	2001      	movs	r0, #1
10000eae:	0016      	movs	r6, r2
10000eb0:	f000 ff26 	bl	10001d00 <__wrap_calloc>
10000eb4:	b2eb      	uxtb	r3, r5
10000eb6:	0004      	movs	r4, r0
10000eb8:	7303      	strb	r3, [r0, #12]
10000eba:	2103      	movs	r1, #3
10000ebc:	6047      	str	r7, [r0, #4]
10000ebe:	0028      	movs	r0, r5
10000ec0:	4698      	mov	r8, r3
10000ec2:	f000 ff1d 	bl	10001d00 <__wrap_calloc>
10000ec6:	2300      	movs	r3, #0
10000ec8:	7363      	strb	r3, [r4, #13]
10000eca:	3301      	adds	r3, #1
10000ecc:	73a3      	strb	r3, [r4, #14]
10000ece:	4643      	mov	r3, r8
10000ed0:	21ff      	movs	r1, #255	; 0xff
10000ed2:	73e3      	strb	r3, [r4, #15]
10000ed4:	23fe      	movs	r3, #254	; 0xfe
10000ed6:	6020      	str	r0, [r4, #0]
10000ed8:	60a6      	str	r6, [r4, #8]
10000eda:	4029      	ands	r1, r5
10000edc:	422b      	tst	r3, r5
10000ede:	d006      	beq.n	10000eee <ph_create+0x4e>
10000ee0:	1c42      	adds	r2, r0, #1
10000ee2:	3bfd      	subs	r3, #253	; 0xfd
10000ee4:	3301      	adds	r3, #1
10000ee6:	7013      	strb	r3, [r2, #0]
10000ee8:	3203      	adds	r2, #3
10000eea:	428b      	cmp	r3, r1
10000eec:	d3fa      	bcc.n	10000ee4 <ph_create+0x44>
10000eee:	004b      	lsls	r3, r1, #1
10000ef0:	1859      	adds	r1, r3, r1
10000ef2:	2300      	movs	r3, #0
10000ef4:	1840      	adds	r0, r0, r1
10000ef6:	3803      	subs	r0, #3
10000ef8:	7043      	strb	r3, [r0, #1]
10000efa:	0020      	movs	r0, r4
10000efc:	bc04      	pop	{r2}
10000efe:	4690      	mov	r8, r2
10000f00:	bdf0      	pop	{r4, r5, r6, r7, pc}
10000f02:	46c0      	nop			; (mov r8, r8)

10000f04 <ph_merge_two_pass>:
10000f04:	b5f8      	push	{r3, r4, r5, r6, r7, lr}
10000f06:	46ce      	mov	lr, r9
10000f08:	4647      	mov	r7, r8
10000f0a:	0006      	movs	r6, r0
10000f0c:	000c      	movs	r4, r1
10000f0e:	b580      	push	{r7, lr}
10000f10:	2900      	cmp	r1, #0
10000f12:	d007      	beq.n	10000f24 <ph_merge_two_pass+0x20>
10000f14:	004d      	lsls	r5, r1, #1
10000f16:	6803      	ldr	r3, [r0, #0]
10000f18:	186d      	adds	r5, r5, r1
10000f1a:	3d03      	subs	r5, #3
10000f1c:	195a      	adds	r2, r3, r5
10000f1e:	7857      	ldrb	r7, [r2, #1]
10000f20:	2f00      	cmp	r7, #0
10000f22:	d104      	bne.n	10000f2e <ph_merge_two_pass+0x2a>
10000f24:	0020      	movs	r0, r4
10000f26:	bc0c      	pop	{r2, r3}
10000f28:	4690      	mov	r8, r2
10000f2a:	4699      	mov	r9, r3
10000f2c:	bdf8      	pop	{r3, r4, r5, r6, r7, pc}
10000f2e:	0079      	lsls	r1, r7, #1
10000f30:	19c9      	adds	r1, r1, r7
10000f32:	3903      	subs	r1, #3
10000f34:	4688      	mov	r8, r1
10000f36:	4443      	add	r3, r8
10000f38:	7859      	ldrb	r1, [r3, #1]
10000f3a:	4689      	mov	r9, r1
10000f3c:	2100      	movs	r1, #0
10000f3e:	7059      	strb	r1, [r3, #1]
10000f40:	7051      	strb	r1, [r2, #1]
10000f42:	6873      	ldr	r3, [r6, #4]
10000f44:	003a      	movs	r2, r7
10000f46:	0021      	movs	r1, r4
10000f48:	6880      	ldr	r0, [r0, #8]
10000f4a:	4798      	blx	r3
10000f4c:	6833      	ldr	r3, [r6, #0]
10000f4e:	2800      	cmp	r0, #0
10000f50:	d014      	beq.n	10000f7c <ph_merge_two_pass+0x78>
10000f52:	4642      	mov	r2, r8
10000f54:	189a      	adds	r2, r3, r2
10000f56:	7094      	strb	r4, [r2, #2]
10000f58:	1959      	adds	r1, r3, r5
10000f5a:	5d5b      	ldrb	r3, [r3, r5]
10000f5c:	2b00      	cmp	r3, #0
10000f5e:	d000      	beq.n	10000f62 <ph_merge_two_pass+0x5e>
10000f60:	7053      	strb	r3, [r2, #1]
10000f62:	700f      	strb	r7, [r1, #0]
10000f64:	0027      	movs	r7, r4
10000f66:	4649      	mov	r1, r9
10000f68:	0030      	movs	r0, r6
10000f6a:	f7ff ffcb 	bl	10000f04 <ph_merge_two_pass>
10000f6e:	0039      	movs	r1, r7
10000f70:	0002      	movs	r2, r0
10000f72:	0030      	movs	r0, r6
10000f74:	f7ff ff60 	bl	10000e38 <ph_merge_nodes>
10000f78:	0004      	movs	r4, r0
10000f7a:	e7d3      	b.n	10000f24 <ph_merge_two_pass+0x20>
10000f7c:	4642      	mov	r2, r8
10000f7e:	4641      	mov	r1, r8
10000f80:	195d      	adds	r5, r3, r5
10000f82:	70af      	strb	r7, [r5, #2]
10000f84:	189a      	adds	r2, r3, r2
10000f86:	5c5b      	ldrb	r3, [r3, r1]
10000f88:	2b00      	cmp	r3, #0
10000f8a:	d000      	beq.n	10000f8e <ph_merge_two_pass+0x8a>
10000f8c:	706b      	strb	r3, [r5, #1]
10000f8e:	7014      	strb	r4, [r2, #0]
10000f90:	e7e9      	b.n	10000f66 <ph_merge_two_pass+0x62>
10000f92:	46c0      	nop			; (mov r8, r8)

10000f94 <ph_remove_any_head>:
10000f94:	b5f0      	push	{r4, r5, r6, r7, lr}
10000f96:	4657      	mov	r7, sl
10000f98:	4645      	mov	r5, r8
10000f9a:	46de      	mov	lr, fp
10000f9c:	464e      	mov	r6, r9
10000f9e:	b5e0      	push	{r5, r6, r7, lr}
10000fa0:	000d      	movs	r5, r1
10000fa2:	006b      	lsls	r3, r5, #1
10000fa4:	6801      	ldr	r1, [r0, #0]
10000fa6:	195b      	adds	r3, r3, r5
10000fa8:	1edf      	subs	r7, r3, #3
10000faa:	0004      	movs	r4, r0
10000fac:	5dc8      	ldrb	r0, [r1, r7]
10000fae:	b083      	sub	sp, #12
10000fb0:	9201      	str	r2, [sp, #4]
10000fb2:	19ca      	adds	r2, r1, r7
10000fb4:	2800      	cmp	r0, #0
10000fb6:	d04c      	beq.n	10001052 <ph_remove_any_head+0xbe>
10000fb8:	0043      	lsls	r3, r0, #1
10000fba:	181b      	adds	r3, r3, r0
10000fbc:	3b03      	subs	r3, #3
10000fbe:	18cb      	adds	r3, r1, r3
10000fc0:	785e      	ldrb	r6, [r3, #1]
10000fc2:	46b4      	mov	ip, r6
10000fc4:	2e00      	cmp	r6, #0
10000fc6:	d116      	bne.n	10000ff6 <ph_remove_any_head+0x62>
10000fc8:	9e01      	ldr	r6, [sp, #4]
10000fca:	2e00      	cmp	r6, #0
10000fcc:	d13e      	bne.n	1000104c <ph_remove_any_head+0xb8>
10000fce:	7be6      	ldrb	r6, [r4, #15]
10000fd0:	2e00      	cmp	r6, #0
10000fd2:	d004      	beq.n	10000fde <ph_remove_any_head+0x4a>
10000fd4:	0073      	lsls	r3, r6, #1
10000fd6:	199b      	adds	r3, r3, r6
10000fd8:	18cb      	adds	r3, r1, r3
10000fda:	3b03      	subs	r3, #3
10000fdc:	705d      	strb	r5, [r3, #1]
10000fde:	73e5      	strb	r5, [r4, #15]
10000fe0:	2800      	cmp	r0, #0
10000fe2:	d12f      	bne.n	10001044 <ph_remove_any_head+0xb0>
10000fe4:	2300      	movs	r3, #0
10000fe6:	7053      	strb	r3, [r2, #1]
10000fe8:	b003      	add	sp, #12
10000fea:	bc3c      	pop	{r2, r3, r4, r5}
10000fec:	4690      	mov	r8, r2
10000fee:	4699      	mov	r9, r3
10000ff0:	46a2      	mov	sl, r4
10000ff2:	46ab      	mov	fp, r5
10000ff4:	bdf0      	pop	{r4, r5, r6, r7, pc}
10000ff6:	0072      	lsls	r2, r6, #1
10000ff8:	4462      	add	r2, ip
10000ffa:	3a03      	subs	r2, #3
10000ffc:	1889      	adds	r1, r1, r2
10000ffe:	784a      	ldrb	r2, [r1, #1]
10001000:	4690      	mov	r8, r2
10001002:	2200      	movs	r2, #0
10001004:	704a      	strb	r2, [r1, #1]
10001006:	4691      	mov	r9, r2
10001008:	705a      	strb	r2, [r3, #1]
1000100a:	0001      	movs	r1, r0
1000100c:	0032      	movs	r2, r6
1000100e:	0020      	movs	r0, r4
10001010:	f7ff ff12 	bl	10000e38 <ph_merge_nodes>
10001014:	4643      	mov	r3, r8
10001016:	4682      	mov	sl, r0
10001018:	2b00      	cmp	r3, #0
1000101a:	d007      	beq.n	1000102c <ph_remove_any_head+0x98>
1000101c:	005b      	lsls	r3, r3, #1
1000101e:	6821      	ldr	r1, [r4, #0]
10001020:	4443      	add	r3, r8
10001022:	3b03      	subs	r3, #3
10001024:	18cb      	adds	r3, r1, r3
10001026:	785a      	ldrb	r2, [r3, #1]
10001028:	2a00      	cmp	r2, #0
1000102a:	d116      	bne.n	1000105a <ph_remove_any_head+0xc6>
1000102c:	4642      	mov	r2, r8
1000102e:	4651      	mov	r1, sl
10001030:	0020      	movs	r0, r4
10001032:	f7ff ff01 	bl	10000e38 <ph_merge_nodes>
10001036:	6821      	ldr	r1, [r4, #0]
10001038:	9b01      	ldr	r3, [sp, #4]
1000103a:	19ca      	adds	r2, r1, r7
1000103c:	2b00      	cmp	r3, #0
1000103e:	d0c6      	beq.n	10000fce <ph_remove_any_head+0x3a>
10001040:	2800      	cmp	r0, #0
10001042:	d0cf      	beq.n	10000fe4 <ph_remove_any_head+0x50>
10001044:	0043      	lsls	r3, r0, #1
10001046:	181b      	adds	r3, r3, r0
10001048:	3b03      	subs	r3, #3
1000104a:	18cb      	adds	r3, r1, r3
1000104c:	2100      	movs	r1, #0
1000104e:	7099      	strb	r1, [r3, #2]
10001050:	e7c8      	b.n	10000fe4 <ph_remove_any_head+0x50>
10001052:	9b01      	ldr	r3, [sp, #4]
10001054:	2b00      	cmp	r3, #0
10001056:	d1c5      	bne.n	10000fe4 <ph_remove_any_head+0x50>
10001058:	e7b9      	b.n	10000fce <ph_remove_any_head+0x3a>
1000105a:	0050      	lsls	r0, r2, #1
1000105c:	1880      	adds	r0, r0, r2
1000105e:	3803      	subs	r0, #3
10001060:	1809      	adds	r1, r1, r0
10001062:	7848      	ldrb	r0, [r1, #1]
10001064:	4683      	mov	fp, r0
10001066:	4648      	mov	r0, r9
10001068:	7048      	strb	r0, [r1, #1]
1000106a:	7058      	strb	r0, [r3, #1]
1000106c:	4641      	mov	r1, r8
1000106e:	0020      	movs	r0, r4
10001070:	f7ff fee2 	bl	10000e38 <ph_merge_nodes>
10001074:	4659      	mov	r1, fp
10001076:	4680      	mov	r8, r0
10001078:	0020      	movs	r0, r4
1000107a:	f7ff ff43 	bl	10000f04 <ph_merge_two_pass>
1000107e:	4641      	mov	r1, r8
10001080:	0002      	movs	r2, r0
10001082:	0020      	movs	r0, r4
10001084:	f7ff fed8 	bl	10000e38 <ph_merge_nodes>
10001088:	4680      	mov	r8, r0
1000108a:	e7cf      	b.n	1000102c <ph_remove_any_head+0x98>

1000108c <ph_remove_head_reserve>:
1000108c:	b5f0      	push	{r4, r5, r6, r7, lr}
1000108e:	464e      	mov	r6, r9
10001090:	4645      	mov	r5, r8
10001092:	46de      	mov	lr, fp
10001094:	4657      	mov	r7, sl
10001096:	b5e0      	push	{r5, r6, r7, lr}
10001098:	7b46      	ldrb	r6, [r0, #13]
1000109a:	0004      	movs	r4, r0
1000109c:	0075      	lsls	r5, r6, #1
1000109e:	6800      	ldr	r0, [r0, #0]
100010a0:	19ad      	adds	r5, r5, r6
100010a2:	3d03      	subs	r5, #3
100010a4:	b083      	sub	sp, #12
100010a6:	9101      	str	r1, [sp, #4]
100010a8:	5d41      	ldrb	r1, [r0, r5]
100010aa:	1942      	adds	r2, r0, r5
100010ac:	2900      	cmp	r1, #0
100010ae:	d04e      	beq.n	1000114e <ph_remove_head_reserve+0xc2>
100010b0:	004b      	lsls	r3, r1, #1
100010b2:	185b      	adds	r3, r3, r1
100010b4:	3b03      	subs	r3, #3
100010b6:	18c3      	adds	r3, r0, r3
100010b8:	785f      	ldrb	r7, [r3, #1]
100010ba:	46bc      	mov	ip, r7
100010bc:	2f00      	cmp	r7, #0
100010be:	d118      	bne.n	100010f2 <ph_remove_head_reserve+0x66>
100010c0:	9d01      	ldr	r5, [sp, #4]
100010c2:	2d00      	cmp	r5, #0
100010c4:	d140      	bne.n	10001148 <ph_remove_head_reserve+0xbc>
100010c6:	7be5      	ldrb	r5, [r4, #15]
100010c8:	2d00      	cmp	r5, #0
100010ca:	d004      	beq.n	100010d6 <ph_remove_head_reserve+0x4a>
100010cc:	006b      	lsls	r3, r5, #1
100010ce:	195b      	adds	r3, r3, r5
100010d0:	18c3      	adds	r3, r0, r3
100010d2:	3b03      	subs	r3, #3
100010d4:	705e      	strb	r6, [r3, #1]
100010d6:	73e6      	strb	r6, [r4, #15]
100010d8:	2900      	cmp	r1, #0
100010da:	d131      	bne.n	10001140 <ph_remove_head_reserve+0xb4>
100010dc:	2300      	movs	r3, #0
100010de:	0030      	movs	r0, r6
100010e0:	7053      	strb	r3, [r2, #1]
100010e2:	7361      	strb	r1, [r4, #13]
100010e4:	b003      	add	sp, #12
100010e6:	bc3c      	pop	{r2, r3, r4, r5}
100010e8:	4690      	mov	r8, r2
100010ea:	4699      	mov	r9, r3
100010ec:	46a2      	mov	sl, r4
100010ee:	46ab      	mov	fp, r5
100010f0:	bdf0      	pop	{r4, r5, r6, r7, pc}
100010f2:	007a      	lsls	r2, r7, #1
100010f4:	4462      	add	r2, ip
100010f6:	3a03      	subs	r2, #3
100010f8:	1880      	adds	r0, r0, r2
100010fa:	7842      	ldrb	r2, [r0, #1]
100010fc:	4693      	mov	fp, r2
100010fe:	2200      	movs	r2, #0
10001100:	7042      	strb	r2, [r0, #1]
10001102:	4691      	mov	r9, r2
10001104:	705a      	strb	r2, [r3, #1]
10001106:	0020      	movs	r0, r4
10001108:	003a      	movs	r2, r7
1000110a:	f7ff fe95 	bl	10000e38 <ph_merge_nodes>
1000110e:	465b      	mov	r3, fp
10001110:	4680      	mov	r8, r0
10001112:	2b00      	cmp	r3, #0
10001114:	d007      	beq.n	10001126 <ph_remove_head_reserve+0x9a>
10001116:	005b      	lsls	r3, r3, #1
10001118:	6821      	ldr	r1, [r4, #0]
1000111a:	445b      	add	r3, fp
1000111c:	3b03      	subs	r3, #3
1000111e:	18cb      	adds	r3, r1, r3
10001120:	785a      	ldrb	r2, [r3, #1]
10001122:	2a00      	cmp	r2, #0
10001124:	d117      	bne.n	10001156 <ph_remove_head_reserve+0xca>
10001126:	465a      	mov	r2, fp
10001128:	4641      	mov	r1, r8
1000112a:	0020      	movs	r0, r4
1000112c:	f7ff fe84 	bl	10000e38 <ph_merge_nodes>
10001130:	9b01      	ldr	r3, [sp, #4]
10001132:	0001      	movs	r1, r0
10001134:	6820      	ldr	r0, [r4, #0]
10001136:	1942      	adds	r2, r0, r5
10001138:	2b00      	cmp	r3, #0
1000113a:	d0c4      	beq.n	100010c6 <ph_remove_head_reserve+0x3a>
1000113c:	2900      	cmp	r1, #0
1000113e:	d0cd      	beq.n	100010dc <ph_remove_head_reserve+0x50>
10001140:	004b      	lsls	r3, r1, #1
10001142:	185b      	adds	r3, r3, r1
10001144:	3b03      	subs	r3, #3
10001146:	18c3      	adds	r3, r0, r3
10001148:	2000      	movs	r0, #0
1000114a:	7098      	strb	r0, [r3, #2]
1000114c:	e7c6      	b.n	100010dc <ph_remove_head_reserve+0x50>
1000114e:	9b01      	ldr	r3, [sp, #4]
10001150:	2b00      	cmp	r3, #0
10001152:	d1c3      	bne.n	100010dc <ph_remove_head_reserve+0x50>
10001154:	e7b7      	b.n	100010c6 <ph_remove_head_reserve+0x3a>
10001156:	0050      	lsls	r0, r2, #1
10001158:	1880      	adds	r0, r0, r2
1000115a:	3803      	subs	r0, #3
1000115c:	1809      	adds	r1, r1, r0
1000115e:	7848      	ldrb	r0, [r1, #1]
10001160:	4682      	mov	sl, r0
10001162:	4648      	mov	r0, r9
10001164:	7048      	strb	r0, [r1, #1]
10001166:	7058      	strb	r0, [r3, #1]
10001168:	4659      	mov	r1, fp
1000116a:	0020      	movs	r0, r4
1000116c:	f7ff fe64 	bl	10000e38 <ph_merge_nodes>
10001170:	4653      	mov	r3, sl
10001172:	4683      	mov	fp, r0
10001174:	2b00      	cmp	r3, #0
10001176:	d007      	beq.n	10001188 <ph_remove_head_reserve+0xfc>
10001178:	005b      	lsls	r3, r3, #1
1000117a:	6821      	ldr	r1, [r4, #0]
1000117c:	4453      	add	r3, sl
1000117e:	3b03      	subs	r3, #3
10001180:	18cb      	adds	r3, r1, r3
10001182:	785a      	ldrb	r2, [r3, #1]
10001184:	2a00      	cmp	r2, #0
10001186:	d106      	bne.n	10001196 <ph_remove_head_reserve+0x10a>
10001188:	4659      	mov	r1, fp
1000118a:	4652      	mov	r2, sl
1000118c:	0020      	movs	r0, r4
1000118e:	f7ff fe53 	bl	10000e38 <ph_merge_nodes>
10001192:	4683      	mov	fp, r0
10001194:	e7c7      	b.n	10001126 <ph_remove_head_reserve+0x9a>
10001196:	0050      	lsls	r0, r2, #1
10001198:	1880      	adds	r0, r0, r2
1000119a:	3803      	subs	r0, #3
1000119c:	1809      	adds	r1, r1, r0
1000119e:	4648      	mov	r0, r9
100011a0:	784f      	ldrb	r7, [r1, #1]
100011a2:	7048      	strb	r0, [r1, #1]
100011a4:	7058      	strb	r0, [r3, #1]
100011a6:	4651      	mov	r1, sl
100011a8:	0020      	movs	r0, r4
100011aa:	f7ff fe45 	bl	10000e38 <ph_merge_nodes>
100011ae:	0039      	movs	r1, r7
100011b0:	4681      	mov	r9, r0
100011b2:	0020      	movs	r0, r4
100011b4:	f7ff fea6 	bl	10000f04 <ph_merge_two_pass>
100011b8:	4649      	mov	r1, r9
100011ba:	0002      	movs	r2, r0
100011bc:	0020      	movs	r0, r4
100011be:	f7ff fe3b 	bl	10000e38 <ph_merge_nodes>
100011c2:	4682      	mov	sl, r0
100011c4:	e7e0      	b.n	10001188 <ph_remove_head_reserve+0xfc>
100011c6:	46c0      	nop			; (mov r8, r8)

100011c8 <ph_delete>:
100011c8:	b570      	push	{r4, r5, r6, lr}
100011ca:	0004      	movs	r4, r0
100011cc:	2900      	cmp	r1, #0
100011ce:	d02c      	beq.n	1000122a <ph_delete+0x62>
100011d0:	7b43      	ldrb	r3, [r0, #13]
100011d2:	428b      	cmp	r3, r1
100011d4:	d02e      	beq.n	10001234 <ph_delete+0x6c>
100011d6:	6805      	ldr	r5, [r0, #0]
100011d8:	0048      	lsls	r0, r1, #1
100011da:	1840      	adds	r0, r0, r1
100011dc:	3803      	subs	r0, #3
100011de:	1828      	adds	r0, r5, r0
100011e0:	7882      	ldrb	r2, [r0, #2]
100011e2:	2a00      	cmp	r2, #0
100011e4:	d021      	beq.n	1000122a <ph_delete+0x62>
100011e6:	0053      	lsls	r3, r2, #1
100011e8:	189b      	adds	r3, r3, r2
100011ea:	3b03      	subs	r3, #3
100011ec:	5cea      	ldrb	r2, [r5, r3]
100011ee:	18ee      	adds	r6, r5, r3
100011f0:	428a      	cmp	r2, r1
100011f2:	d102      	bne.n	100011fa <ph_delete+0x32>
100011f4:	e01b      	b.n	1000122e <ph_delete+0x66>
100011f6:	2a00      	cmp	r2, #0
100011f8:	d008      	beq.n	1000120c <ph_delete+0x44>
100011fa:	0053      	lsls	r3, r2, #1
100011fc:	189b      	adds	r3, r3, r2
100011fe:	3b03      	subs	r3, #3
10001200:	18eb      	adds	r3, r5, r3
10001202:	785a      	ldrb	r2, [r3, #1]
10001204:	428a      	cmp	r2, r1
10001206:	d1f6      	bne.n	100011f6 <ph_delete+0x2e>
10001208:	7842      	ldrb	r2, [r0, #1]
1000120a:	705a      	strb	r2, [r3, #1]
1000120c:	2300      	movs	r3, #0
1000120e:	2200      	movs	r2, #0
10001210:	7083      	strb	r3, [r0, #2]
10001212:	7043      	strb	r3, [r0, #1]
10001214:	0020      	movs	r0, r4
10001216:	f7ff febd 	bl	10000f94 <ph_remove_any_head>
1000121a:	7b61      	ldrb	r1, [r4, #13]
1000121c:	0002      	movs	r2, r0
1000121e:	0020      	movs	r0, r4
10001220:	f7ff fe0a 	bl	10000e38 <ph_merge_nodes>
10001224:	7360      	strb	r0, [r4, #13]
10001226:	2001      	movs	r0, #1
10001228:	e000      	b.n	1000122c <ph_delete+0x64>
1000122a:	2000      	movs	r0, #0
1000122c:	bd70      	pop	{r4, r5, r6, pc}
1000122e:	7843      	ldrb	r3, [r0, #1]
10001230:	7033      	strb	r3, [r6, #0]
10001232:	e7eb      	b.n	1000120c <ph_delete+0x44>
10001234:	2200      	movs	r2, #0
10001236:	0019      	movs	r1, r3
10001238:	f7ff feac 	bl	10000f94 <ph_remove_any_head>
1000123c:	7360      	strb	r0, [r4, #13]
1000123e:	2001      	movs	r0, #1
10001240:	e7f4      	b.n	1000122c <ph_delete+0x64>
10001242:	46c0      	nop			; (mov r8, r8)

10001244 <runtime_init>:
10001244:	4b2b      	ldr	r3, [pc, #172]	; (100012f4 <runtime_init+0xb0>)
10001246:	4a2c      	ldr	r2, [pc, #176]	; (100012f8 <runtime_init+0xb4>)
10001248:	b570      	push	{r4, r5, r6, lr}
1000124a:	601a      	str	r2, [r3, #0]
1000124c:	4a2b      	ldr	r2, [pc, #172]	; (100012fc <runtime_init+0xb8>)
1000124e:	4b2c      	ldr	r3, [pc, #176]	; (10001300 <runtime_init+0xbc>)
10001250:	492c      	ldr	r1, [pc, #176]	; (10001304 <runtime_init+0xc0>)
10001252:	601a      	str	r2, [r3, #0]
10001254:	0010      	movs	r0, r2
10001256:	688b      	ldr	r3, [r1, #8]
10001258:	4398      	bics	r0, r3
1000125a:	d1fb      	bne.n	10001254 <runtime_init+0x10>
1000125c:	4c2a      	ldr	r4, [pc, #168]	; (10001308 <runtime_init+0xc4>)
1000125e:	4b2b      	ldr	r3, [pc, #172]	; (1000130c <runtime_init+0xc8>)
10001260:	429c      	cmp	r4, r3
10001262:	d209      	bcs.n	10001278 <runtime_init+0x34>
10001264:	3b01      	subs	r3, #1
10001266:	1b1d      	subs	r5, r3, r4
10001268:	08ad      	lsrs	r5, r5, #2
1000126a:	3501      	adds	r5, #1
1000126c:	00ad      	lsls	r5, r5, #2
1000126e:	192d      	adds	r5, r5, r4
10001270:	cc08      	ldmia	r4!, {r3}
10001272:	4798      	blx	r3
10001274:	42ac      	cmp	r4, r5
10001276:	d1fb      	bne.n	10001270 <runtime_init+0x2c>
10001278:	f000 f894 	bl	100013a4 <clocks_init>
1000127c:	4a24      	ldr	r2, [pc, #144]	; (10001310 <runtime_init+0xcc>)
1000127e:	4b20      	ldr	r3, [pc, #128]	; (10001300 <runtime_init+0xbc>)
10001280:	601a      	str	r2, [r3, #0]
10001282:	4a20      	ldr	r2, [pc, #128]	; (10001304 <runtime_init+0xc0>)
10001284:	6893      	ldr	r3, [r2, #8]
10001286:	01db      	lsls	r3, r3, #7
10001288:	3380      	adds	r3, #128	; 0x80
1000128a:	d1fb      	bne.n	10001284 <runtime_init+0x40>
1000128c:	2240      	movs	r2, #64	; 0x40
1000128e:	4b21      	ldr	r3, [pc, #132]	; (10001314 <runtime_init+0xd0>)
10001290:	4c21      	ldr	r4, [pc, #132]	; (10001318 <runtime_init+0xd4>)
10001292:	679a      	str	r2, [r3, #120]	; 0x78
10001294:	675a      	str	r2, [r3, #116]	; 0x74
10001296:	671a      	str	r2, [r3, #112]	; 0x70
10001298:	66da      	str	r2, [r3, #108]	; 0x6c
1000129a:	4b20      	ldr	r3, [pc, #128]	; (1000131c <runtime_init+0xd8>)
1000129c:	429c      	cmp	r4, r3
1000129e:	d20b      	bcs.n	100012b8 <runtime_init+0x74>
100012a0:	3b01      	subs	r3, #1
100012a2:	1b1d      	subs	r5, r3, r4
100012a4:	08ed      	lsrs	r5, r5, #3
100012a6:	3501      	adds	r5, #1
100012a8:	00ed      	lsls	r5, r5, #3
100012aa:	192d      	adds	r5, r5, r4
100012ac:	0020      	movs	r0, r4
100012ae:	3408      	adds	r4, #8
100012b0:	f7ff fdb6 	bl	10000e20 <mutex_init>
100012b4:	42ac      	cmp	r4, r5
100012b6:	d1f9      	bne.n	100012ac <runtime_init+0x68>
100012b8:	4c19      	ldr	r4, [pc, #100]	; (10001320 <runtime_init+0xdc>)
100012ba:	4d1a      	ldr	r5, [pc, #104]	; (10001324 <runtime_init+0xe0>)
100012bc:	68a1      	ldr	r1, [r4, #8]
100012be:	22c0      	movs	r2, #192	; 0xc0
100012c0:	0028      	movs	r0, r5
100012c2:	f000 fd2f 	bl	10001d24 <__wrap___aeabi_memcpy>
100012c6:	60a5      	str	r5, [r4, #8]
100012c8:	f7ff f902 	bl	100004d0 <spin_locks_reset>
100012cc:	f000 fbaa 	bl	10001a24 <irq_init_priorities>
100012d0:	f7ff fbc4 	bl	10000a5c <alarm_pool_init_default>
100012d4:	4c14      	ldr	r4, [pc, #80]	; (10001328 <runtime_init+0xe4>)
100012d6:	4b15      	ldr	r3, [pc, #84]	; (1000132c <runtime_init+0xe8>)
100012d8:	429c      	cmp	r4, r3
100012da:	d209      	bcs.n	100012f0 <runtime_init+0xac>
100012dc:	3b01      	subs	r3, #1
100012de:	1b1d      	subs	r5, r3, r4
100012e0:	08ad      	lsrs	r5, r5, #2
100012e2:	3501      	adds	r5, #1
100012e4:	00ad      	lsls	r5, r5, #2
100012e6:	192d      	adds	r5, r5, r4
100012e8:	cc08      	ldmia	r4!, {r3}
100012ea:	4798      	blx	r3
100012ec:	42a5      	cmp	r5, r4
100012ee:	d1fb      	bne.n	100012e8 <runtime_init+0xa4>
100012f0:	bd70      	pop	{r4, r5, r6, pc}
100012f2:	46c0      	nop			; (mov r8, r8)
100012f4:	4000e000 	.word	0x4000e000
100012f8:	ffffcdbf 	.word	0xffffcdbf
100012fc:	003c7ffe 	.word	0x003c7ffe
10001300:	4000f000 	.word	0x4000f000
10001304:	4000c000 	.word	0x4000c000
10001308:	20000a78 	.word	0x20000a78
1000130c:	20000a88 	.word	0x20000a88
10001310:	01ffffff 	.word	0x01ffffff
10001314:	4001f000 	.word	0x4001f000
10001318:	20000a70 	.word	0x20000a70
1000131c:	20000a78 	.word	0x20000a78
10001320:	e000ed00 	.word	0xe000ed00
10001324:	20000000 	.word	0x20000000
10001328:	20000a88 	.word	0x20000a88
1000132c:	20000a8c 	.word	0x20000a8c

10001330 <_sbrk>:
10001330:	4a09      	ldr	r2, [pc, #36]	; (10001358 <_sbrk+0x28>)
10001332:	0003      	movs	r3, r0
10001334:	6810      	ldr	r0, [r2, #0]
10001336:	2800      	cmp	r0, #0
10001338:	d005      	beq.n	10001346 <_sbrk+0x16>
1000133a:	4908      	ldr	r1, [pc, #32]	; (1000135c <_sbrk+0x2c>)
1000133c:	18c3      	adds	r3, r0, r3
1000133e:	428b      	cmp	r3, r1
10001340:	d207      	bcs.n	10001352 <_sbrk+0x22>
10001342:	6013      	str	r3, [r2, #0]
10001344:	4770      	bx	lr
10001346:	4806      	ldr	r0, [pc, #24]	; (10001360 <_sbrk+0x30>)
10001348:	4904      	ldr	r1, [pc, #16]	; (1000135c <_sbrk+0x2c>)
1000134a:	18c3      	adds	r3, r0, r3
1000134c:	6010      	str	r0, [r2, #0]
1000134e:	428b      	cmp	r3, r1
10001350:	d3f7      	bcc.n	10001342 <_sbrk+0x12>
10001352:	2001      	movs	r0, #1
10001354:	4240      	negs	r0, r0
10001356:	e7f5      	b.n	10001344 <_sbrk+0x14>
10001358:	20000b20 	.word	0x20000b20
1000135c:	20040000 	.word	0x20040000
10001360:	20000d7c 	.word	0x20000d7c

10001364 <exit>:
10001364:	be00      	bkpt	0x0000
10001366:	e7fd      	b.n	10001364 <exit>

10001368 <panic>:
10001368:	b40f      	push	{r0, r1, r2, r3}
1000136a:	b500      	push	{lr}
1000136c:	4808      	ldr	r0, [pc, #32]	; (10001390 <panic+0x28>)
1000136e:	b083      	sub	sp, #12
10001370:	f000 fdae 	bl	10001ed0 <__wrap_puts>
10001374:	9b04      	ldr	r3, [sp, #16]
10001376:	2b00      	cmp	r3, #0
10001378:	d007      	beq.n	1000138a <panic+0x22>
1000137a:	a905      	add	r1, sp, #20
1000137c:	0018      	movs	r0, r3
1000137e:	9101      	str	r1, [sp, #4]
10001380:	f000 fb74 	bl	10001a6c <weak_raw_vprintf>
10001384:	4803      	ldr	r0, [pc, #12]	; (10001394 <panic+0x2c>)
10001386:	f000 fda3 	bl	10001ed0 <__wrap_puts>
1000138a:	be00      	bkpt	0x0000
1000138c:	e7fd      	b.n	1000138a <panic+0x22>
1000138e:	46c0      	nop			; (mov r8, r8)
10001390:	100029ac 	.word	0x100029ac
10001394:	100029bc 	.word	0x100029bc

10001398 <hard_assertion_failure>:
10001398:	b510      	push	{r4, lr}
1000139a:	4801      	ldr	r0, [pc, #4]	; (100013a0 <hard_assertion_failure+0x8>)
1000139c:	f7ff ffe4 	bl	10001368 <panic>
100013a0:	100029c0 	.word	0x100029c0

100013a4 <clocks_init>:
100013a4:	b530      	push	{r4, r5, lr}
100013a6:	200c      	movs	r0, #12
100013a8:	b083      	sub	sp, #12
100013aa:	f000 f971 	bl	10001690 <watchdog_start_tick>
100013ae:	f7ff f8a9 	bl	10000504 <running_on_fpga>
100013b2:	2800      	cmp	r0, #0
100013b4:	d00e      	beq.n	100013d4 <clocks_init+0x30>
100013b6:	4b9a      	ldr	r3, [pc, #616]	; (10001620 <clocks_init+0x27c>)
100013b8:	4a9a      	ldr	r2, [pc, #616]	; (10001624 <clocks_init+0x280>)
100013ba:	601a      	str	r2, [r3, #0]
100013bc:	605a      	str	r2, [r3, #4]
100013be:	609a      	str	r2, [r3, #8]
100013c0:	60da      	str	r2, [r3, #12]
100013c2:	611a      	str	r2, [r3, #16]
100013c4:	615a      	str	r2, [r3, #20]
100013c6:	619a      	str	r2, [r3, #24]
100013c8:	61da      	str	r2, [r3, #28]
100013ca:	621a      	str	r2, [r3, #32]
100013cc:	4a96      	ldr	r2, [pc, #600]	; (10001628 <clocks_init+0x284>)
100013ce:	625a      	str	r2, [r3, #36]	; 0x24
100013d0:	b003      	add	sp, #12
100013d2:	bd30      	pop	{r4, r5, pc}
100013d4:	4c95      	ldr	r4, [pc, #596]	; (1000162c <clocks_init+0x288>)
100013d6:	67a0      	str	r0, [r4, #120]	; 0x78
100013d8:	f000 f962 	bl	100016a0 <xosc_init>
100013dc:	2201      	movs	r2, #1
100013de:	4b94      	ldr	r3, [pc, #592]	; (10001630 <clocks_init+0x28c>)
100013e0:	601a      	str	r2, [r3, #0]
100013e2:	6c63      	ldr	r3, [r4, #68]	; 0x44
100013e4:	2b01      	cmp	r3, #1
100013e6:	d1fc      	bne.n	100013e2 <clocks_init+0x3e>
100013e8:	2203      	movs	r2, #3
100013ea:	4b92      	ldr	r3, [pc, #584]	; (10001634 <clocks_init+0x290>)
100013ec:	601a      	str	r2, [r3, #0]
100013ee:	4a8f      	ldr	r2, [pc, #572]	; (1000162c <clocks_init+0x288>)
100013f0:	6b93      	ldr	r3, [r2, #56]	; 0x38
100013f2:	2b01      	cmp	r3, #1
100013f4:	d1fc      	bne.n	100013f0 <clocks_init+0x4c>
100013f6:	22c0      	movs	r2, #192	; 0xc0
100013f8:	4b8f      	ldr	r3, [pc, #572]	; (10001638 <clocks_init+0x294>)
100013fa:	0192      	lsls	r2, r2, #6
100013fc:	601a      	str	r2, [r3, #0]
100013fe:	4b8f      	ldr	r3, [pc, #572]	; (1000163c <clocks_init+0x298>)
10001400:	498f      	ldr	r1, [pc, #572]	; (10001640 <clocks_init+0x29c>)
10001402:	601a      	str	r2, [r3, #0]
10001404:	0010      	movs	r0, r2
10001406:	688b      	ldr	r3, [r1, #8]
10001408:	4398      	bics	r0, r3
1000140a:	1e03      	subs	r3, r0, #0
1000140c:	d1fa      	bne.n	10001404 <clocks_init+0x60>
1000140e:	2402      	movs	r4, #2
10001410:	2101      	movs	r1, #1
10001412:	4a8c      	ldr	r2, [pc, #560]	; (10001644 <clocks_init+0x2a0>)
10001414:	488c      	ldr	r0, [pc, #560]	; (10001648 <clocks_init+0x2a4>)
10001416:	3306      	adds	r3, #6
10001418:	9400      	str	r4, [sp, #0]
1000141a:	f000 f955 	bl	100016c8 <pll_init>
1000141e:	2305      	movs	r3, #5
10001420:	4a8a      	ldr	r2, [pc, #552]	; (1000164c <clocks_init+0x2a8>)
10001422:	2101      	movs	r1, #1
10001424:	488a      	ldr	r0, [pc, #552]	; (10001650 <clocks_init+0x2ac>)
10001426:	9400      	str	r4, [sp, #0]
10001428:	f000 f94e 	bl	100016c8 <pll_init>
1000142c:	4b89      	ldr	r3, [pc, #548]	; (10001654 <clocks_init+0x2b0>)
1000142e:	685a      	ldr	r2, [r3, #4]
10001430:	2aff      	cmp	r2, #255	; 0xff
10001432:	d802      	bhi.n	1000143a <clocks_init+0x96>
10001434:	2280      	movs	r2, #128	; 0x80
10001436:	0052      	lsls	r2, r2, #1
10001438:	605a      	str	r2, [r3, #4]
1000143a:	2280      	movs	r2, #128	; 0x80
1000143c:	4c78      	ldr	r4, [pc, #480]	; (10001620 <clocks_init+0x27c>)
1000143e:	4b7d      	ldr	r3, [pc, #500]	; (10001634 <clocks_init+0x290>)
10001440:	6921      	ldr	r1, [r4, #16]
10001442:	0112      	lsls	r2, r2, #4
10001444:	4d83      	ldr	r5, [pc, #524]	; (10001654 <clocks_init+0x2b0>)
10001446:	601a      	str	r2, [r3, #0]
10001448:	2900      	cmp	r1, #0
1000144a:	d005      	beq.n	10001458 <clocks_init+0xb4>
1000144c:	6960      	ldr	r0, [r4, #20]
1000144e:	f000 fb5b 	bl	10001b08 <__wrap___aeabi_uidiv>
10001452:	3001      	adds	r0, #1
10001454:	3801      	subs	r0, #1
10001456:	d1fd      	bne.n	10001454 <clocks_init+0xb0>
10001458:	21e0      	movs	r1, #224	; 0xe0
1000145a:	4b7e      	ldr	r3, [pc, #504]	; (10001654 <clocks_init+0x2b0>)
1000145c:	2002      	movs	r0, #2
1000145e:	681a      	ldr	r2, [r3, #0]
10001460:	4011      	ands	r1, r2
10001462:	2280      	movs	r2, #128	; 0x80
10001464:	0152      	lsls	r2, r2, #5
10001466:	432a      	orrs	r2, r5
10001468:	6011      	str	r1, [r2, #0]
1000146a:	6819      	ldr	r1, [r3, #0]
1000146c:	4048      	eors	r0, r1
1000146e:	2103      	movs	r1, #3
10001470:	4001      	ands	r1, r0
10001472:	6011      	str	r1, [r2, #0]
10001474:	2104      	movs	r1, #4
10001476:	689a      	ldr	r2, [r3, #8]
10001478:	4211      	tst	r1, r2
1000147a:	d0fc      	beq.n	10001476 <clocks_init+0xd2>
1000147c:	2280      	movs	r2, #128	; 0x80
1000147e:	2180      	movs	r1, #128	; 0x80
10001480:	0192      	lsls	r2, r2, #6
10001482:	432a      	orrs	r2, r5
10001484:	0109      	lsls	r1, r1, #4
10001486:	6011      	str	r1, [r2, #0]
10001488:	2280      	movs	r2, #128	; 0x80
1000148a:	0052      	lsls	r2, r2, #1
1000148c:	605a      	str	r2, [r3, #4]
1000148e:	4b72      	ldr	r3, [pc, #456]	; (10001658 <clocks_init+0x2b4>)
10001490:	6123      	str	r3, [r4, #16]
10001492:	4b72      	ldr	r3, [pc, #456]	; (1000165c <clocks_init+0x2b8>)
10001494:	6859      	ldr	r1, [r3, #4]
10001496:	29ff      	cmp	r1, #255	; 0xff
10001498:	d800      	bhi.n	1000149c <clocks_init+0xf8>
1000149a:	605a      	str	r2, [r3, #4]
1000149c:	2203      	movs	r2, #3
1000149e:	486f      	ldr	r0, [pc, #444]	; (1000165c <clocks_init+0x2b8>)
100014a0:	4b63      	ldr	r3, [pc, #396]	; (10001630 <clocks_init+0x28c>)
100014a2:	2101      	movs	r1, #1
100014a4:	601a      	str	r2, [r3, #0]
100014a6:	0002      	movs	r2, r0
100014a8:	6893      	ldr	r3, [r2, #8]
100014aa:	4219      	tst	r1, r3
100014ac:	d0fc      	beq.n	100014a8 <clocks_init+0x104>
100014ae:	25e0      	movs	r5, #224	; 0xe0
100014b0:	6813      	ldr	r3, [r2, #0]
100014b2:	401d      	ands	r5, r3
100014b4:	2380      	movs	r3, #128	; 0x80
100014b6:	015b      	lsls	r3, r3, #5
100014b8:	4303      	orrs	r3, r0
100014ba:	601d      	str	r5, [r3, #0]
100014bc:	6812      	ldr	r2, [r2, #0]
100014be:	404a      	eors	r2, r1
100014c0:	2103      	movs	r1, #3
100014c2:	4011      	ands	r1, r2
100014c4:	6019      	str	r1, [r3, #0]
100014c6:	2102      	movs	r1, #2
100014c8:	4a64      	ldr	r2, [pc, #400]	; (1000165c <clocks_init+0x2b8>)
100014ca:	6893      	ldr	r3, [r2, #8]
100014cc:	4219      	tst	r1, r3
100014ce:	d0fc      	beq.n	100014ca <clocks_init+0x126>
100014d0:	2380      	movs	r3, #128	; 0x80
100014d2:	2180      	movs	r1, #128	; 0x80
100014d4:	019b      	lsls	r3, r3, #6
100014d6:	4303      	orrs	r3, r0
100014d8:	0109      	lsls	r1, r1, #4
100014da:	6019      	str	r1, [r3, #0]
100014dc:	2180      	movs	r1, #128	; 0x80
100014de:	4b60      	ldr	r3, [pc, #384]	; (10001660 <clocks_init+0x2bc>)
100014e0:	0049      	lsls	r1, r1, #1
100014e2:	6051      	str	r1, [r2, #4]
100014e4:	6163      	str	r3, [r4, #20]
100014e6:	4b5f      	ldr	r3, [pc, #380]	; (10001664 <clocks_init+0x2c0>)
100014e8:	685a      	ldr	r2, [r3, #4]
100014ea:	2aff      	cmp	r2, #255	; 0xff
100014ec:	d800      	bhi.n	100014f0 <clocks_init+0x14c>
100014ee:	6059      	str	r1, [r3, #4]
100014f0:	2280      	movs	r2, #128	; 0x80
100014f2:	4b5d      	ldr	r3, [pc, #372]	; (10001668 <clocks_init+0x2c4>)
100014f4:	69e1      	ldr	r1, [r4, #28]
100014f6:	0112      	lsls	r2, r2, #4
100014f8:	4d5a      	ldr	r5, [pc, #360]	; (10001664 <clocks_init+0x2c0>)
100014fa:	601a      	str	r2, [r3, #0]
100014fc:	2900      	cmp	r1, #0
100014fe:	d005      	beq.n	1000150c <clocks_init+0x168>
10001500:	6960      	ldr	r0, [r4, #20]
10001502:	f000 fb01 	bl	10001b08 <__wrap___aeabi_uidiv>
10001506:	3001      	adds	r0, #1
10001508:	3801      	subs	r0, #1
1000150a:	d1fd      	bne.n	10001508 <clocks_init+0x164>
1000150c:	22e0      	movs	r2, #224	; 0xe0
1000150e:	4955      	ldr	r1, [pc, #340]	; (10001664 <clocks_init+0x2c0>)
10001510:	680b      	ldr	r3, [r1, #0]
10001512:	401a      	ands	r2, r3
10001514:	2380      	movs	r3, #128	; 0x80
10001516:	015b      	lsls	r3, r3, #5
10001518:	432b      	orrs	r3, r5
1000151a:	601a      	str	r2, [r3, #0]
1000151c:	2380      	movs	r3, #128	; 0x80
1000151e:	2280      	movs	r2, #128	; 0x80
10001520:	019b      	lsls	r3, r3, #6
10001522:	432b      	orrs	r3, r5
10001524:	0112      	lsls	r2, r2, #4
10001526:	601a      	str	r2, [r3, #0]
10001528:	2280      	movs	r2, #128	; 0x80
1000152a:	4b3e      	ldr	r3, [pc, #248]	; (10001624 <clocks_init+0x280>)
1000152c:	0052      	lsls	r2, r2, #1
1000152e:	604a      	str	r2, [r1, #4]
10001530:	61e3      	str	r3, [r4, #28]
10001532:	4b4e      	ldr	r3, [pc, #312]	; (1000166c <clocks_init+0x2c8>)
10001534:	6859      	ldr	r1, [r3, #4]
10001536:	29ff      	cmp	r1, #255	; 0xff
10001538:	d800      	bhi.n	1000153c <clocks_init+0x198>
1000153a:	605a      	str	r2, [r3, #4]
1000153c:	2280      	movs	r2, #128	; 0x80
1000153e:	4b4c      	ldr	r3, [pc, #304]	; (10001670 <clocks_init+0x2cc>)
10001540:	6a21      	ldr	r1, [r4, #32]
10001542:	0112      	lsls	r2, r2, #4
10001544:	4d49      	ldr	r5, [pc, #292]	; (1000166c <clocks_init+0x2c8>)
10001546:	601a      	str	r2, [r3, #0]
10001548:	2900      	cmp	r1, #0
1000154a:	d005      	beq.n	10001558 <clocks_init+0x1b4>
1000154c:	6960      	ldr	r0, [r4, #20]
1000154e:	f000 fadb 	bl	10001b08 <__wrap___aeabi_uidiv>
10001552:	3001      	adds	r0, #1
10001554:	3801      	subs	r0, #1
10001556:	d1fd      	bne.n	10001554 <clocks_init+0x1b0>
10001558:	22e0      	movs	r2, #224	; 0xe0
1000155a:	4944      	ldr	r1, [pc, #272]	; (1000166c <clocks_init+0x2c8>)
1000155c:	680b      	ldr	r3, [r1, #0]
1000155e:	401a      	ands	r2, r3
10001560:	2380      	movs	r3, #128	; 0x80
10001562:	015b      	lsls	r3, r3, #5
10001564:	432b      	orrs	r3, r5
10001566:	601a      	str	r2, [r3, #0]
10001568:	2380      	movs	r3, #128	; 0x80
1000156a:	2280      	movs	r2, #128	; 0x80
1000156c:	019b      	lsls	r3, r3, #6
1000156e:	432b      	orrs	r3, r5
10001570:	0112      	lsls	r2, r2, #4
10001572:	601a      	str	r2, [r3, #0]
10001574:	2380      	movs	r3, #128	; 0x80
10001576:	2280      	movs	r2, #128	; 0x80
10001578:	005b      	lsls	r3, r3, #1
1000157a:	604b      	str	r3, [r1, #4]
1000157c:	4b29      	ldr	r3, [pc, #164]	; (10001624 <clocks_init+0x280>)
1000157e:	02d2      	lsls	r2, r2, #11
10001580:	6223      	str	r3, [r4, #32]
10001582:	4b3c      	ldr	r3, [pc, #240]	; (10001674 <clocks_init+0x2d0>)
10001584:	6859      	ldr	r1, [r3, #4]
10001586:	4291      	cmp	r1, r2
10001588:	d200      	bcs.n	1000158c <clocks_init+0x1e8>
1000158a:	605a      	str	r2, [r3, #4]
1000158c:	2280      	movs	r2, #128	; 0x80
1000158e:	4b3a      	ldr	r3, [pc, #232]	; (10001678 <clocks_init+0x2d4>)
10001590:	6a61      	ldr	r1, [r4, #36]	; 0x24
10001592:	0112      	lsls	r2, r2, #4
10001594:	4d37      	ldr	r5, [pc, #220]	; (10001674 <clocks_init+0x2d0>)
10001596:	601a      	str	r2, [r3, #0]
10001598:	2900      	cmp	r1, #0
1000159a:	d005      	beq.n	100015a8 <clocks_init+0x204>
1000159c:	6960      	ldr	r0, [r4, #20]
1000159e:	f000 fab3 	bl	10001b08 <__wrap___aeabi_uidiv>
100015a2:	3001      	adds	r0, #1
100015a4:	3801      	subs	r0, #1
100015a6:	d1fd      	bne.n	100015a4 <clocks_init+0x200>
100015a8:	22e0      	movs	r2, #224	; 0xe0
100015aa:	4932      	ldr	r1, [pc, #200]	; (10001674 <clocks_init+0x2d0>)
100015ac:	680b      	ldr	r3, [r1, #0]
100015ae:	401a      	ands	r2, r3
100015b0:	2380      	movs	r3, #128	; 0x80
100015b2:	015b      	lsls	r3, r3, #5
100015b4:	432b      	orrs	r3, r5
100015b6:	601a      	str	r2, [r3, #0]
100015b8:	2380      	movs	r3, #128	; 0x80
100015ba:	2280      	movs	r2, #128	; 0x80
100015bc:	019b      	lsls	r3, r3, #6
100015be:	432b      	orrs	r3, r5
100015c0:	0112      	lsls	r2, r2, #4
100015c2:	601a      	str	r2, [r3, #0]
100015c4:	2380      	movs	r3, #128	; 0x80
100015c6:	02db      	lsls	r3, r3, #11
100015c8:	604b      	str	r3, [r1, #4]
100015ca:	4b17      	ldr	r3, [pc, #92]	; (10001628 <clocks_init+0x284>)
100015cc:	6263      	str	r3, [r4, #36]	; 0x24
100015ce:	4b2b      	ldr	r3, [pc, #172]	; (1000167c <clocks_init+0x2d8>)
100015d0:	685a      	ldr	r2, [r3, #4]
100015d2:	2aff      	cmp	r2, #255	; 0xff
100015d4:	d802      	bhi.n	100015dc <clocks_init+0x238>
100015d6:	2280      	movs	r2, #128	; 0x80
100015d8:	0052      	lsls	r2, r2, #1
100015da:	605a      	str	r2, [r3, #4]
100015dc:	2280      	movs	r2, #128	; 0x80
100015de:	4b28      	ldr	r3, [pc, #160]	; (10001680 <clocks_init+0x2dc>)
100015e0:	69a1      	ldr	r1, [r4, #24]
100015e2:	0112      	lsls	r2, r2, #4
100015e4:	4d25      	ldr	r5, [pc, #148]	; (1000167c <clocks_init+0x2d8>)
100015e6:	601a      	str	r2, [r3, #0]
100015e8:	2900      	cmp	r1, #0
100015ea:	d005      	beq.n	100015f8 <clocks_init+0x254>
100015ec:	6960      	ldr	r0, [r4, #20]
100015ee:	f000 fa8b 	bl	10001b08 <__wrap___aeabi_uidiv>
100015f2:	3001      	adds	r0, #1
100015f4:	3801      	subs	r0, #1
100015f6:	d1fd      	bne.n	100015f4 <clocks_init+0x250>
100015f8:	22e0      	movs	r2, #224	; 0xe0
100015fa:	4920      	ldr	r1, [pc, #128]	; (1000167c <clocks_init+0x2d8>)
100015fc:	680b      	ldr	r3, [r1, #0]
100015fe:	401a      	ands	r2, r3
10001600:	2380      	movs	r3, #128	; 0x80
10001602:	015b      	lsls	r3, r3, #5
10001604:	432b      	orrs	r3, r5
10001606:	601a      	str	r2, [r3, #0]
10001608:	2380      	movs	r3, #128	; 0x80
1000160a:	2280      	movs	r2, #128	; 0x80
1000160c:	019b      	lsls	r3, r3, #6
1000160e:	432b      	orrs	r3, r5
10001610:	0112      	lsls	r2, r2, #4
10001612:	601a      	str	r2, [r3, #0]
10001614:	2380      	movs	r3, #128	; 0x80
10001616:	005b      	lsls	r3, r3, #1
10001618:	604b      	str	r3, [r1, #4]
1000161a:	4b11      	ldr	r3, [pc, #68]	; (10001660 <clocks_init+0x2bc>)
1000161c:	61a3      	str	r3, [r4, #24]
1000161e:	e6d7      	b.n	100013d0 <clocks_init+0x2c>
10001620:	20000aec 	.word	0x20000aec
10001624:	02dc6c00 	.word	0x02dc6c00
10001628:	0000b71b 	.word	0x0000b71b
1000162c:	40008000 	.word	0x40008000
10001630:	4000b03c 	.word	0x4000b03c
10001634:	4000b030 	.word	0x4000b030
10001638:	4000e000 	.word	0x4000e000
1000163c:	4000f000 	.word	0x4000f000
10001640:	4000c000 	.word	0x4000c000
10001644:	59682f00 	.word	0x59682f00
10001648:	40028000 	.word	0x40028000
1000164c:	1c9c3800 	.word	0x1c9c3800
10001650:	4002c000 	.word	0x4002c000
10001654:	40008030 	.word	0x40008030
10001658:	00b71b00 	.word	0x00b71b00
1000165c:	4000803c 	.word	0x4000803c
10001660:	07735940 	.word	0x07735940
10001664:	40008054 	.word	0x40008054
10001668:	4000b054 	.word	0x4000b054
1000166c:	40008060 	.word	0x40008060
10001670:	4000b060 	.word	0x4000b060
10001674:	4000806c 	.word	0x4000806c
10001678:	4000b06c 	.word	0x4000b06c
1000167c:	40008048 	.word	0x40008048
10001680:	4000b048 	.word	0x4000b048

10001684 <clock_get_hz>:
10001684:	4b01      	ldr	r3, [pc, #4]	; (1000168c <clock_get_hz+0x8>)
10001686:	0080      	lsls	r0, r0, #2
10001688:	58c0      	ldr	r0, [r0, r3]
1000168a:	4770      	bx	lr
1000168c:	20000aec 	.word	0x20000aec

10001690 <watchdog_start_tick>:
10001690:	2380      	movs	r3, #128	; 0x80
10001692:	4a02      	ldr	r2, [pc, #8]	; (1000169c <watchdog_start_tick+0xc>)
10001694:	009b      	lsls	r3, r3, #2
10001696:	4303      	orrs	r3, r0
10001698:	62d3      	str	r3, [r2, #44]	; 0x2c
1000169a:	4770      	bx	lr
1000169c:	40058000 	.word	0x40058000

100016a0 <xosc_init>:
100016a0:	23aa      	movs	r3, #170	; 0xaa
100016a2:	4a06      	ldr	r2, [pc, #24]	; (100016bc <xosc_init+0x1c>)
100016a4:	011b      	lsls	r3, r3, #4
100016a6:	6013      	str	r3, [r2, #0]
100016a8:	232f      	movs	r3, #47	; 0x2f
100016aa:	4905      	ldr	r1, [pc, #20]	; (100016c0 <xosc_init+0x20>)
100016ac:	60d3      	str	r3, [r2, #12]
100016ae:	4b05      	ldr	r3, [pc, #20]	; (100016c4 <xosc_init+0x24>)
100016b0:	6019      	str	r1, [r3, #0]
100016b2:	6853      	ldr	r3, [r2, #4]
100016b4:	2b00      	cmp	r3, #0
100016b6:	dafc      	bge.n	100016b2 <xosc_init+0x12>
100016b8:	4770      	bx	lr
100016ba:	46c0      	nop			; (mov r8, r8)
100016bc:	40024000 	.word	0x40024000
100016c0:	00fab000 	.word	0x00fab000
100016c4:	40026000 	.word	0x40026000

100016c8 <pll_init>:
100016c8:	b5f8      	push	{r3, r4, r5, r6, r7, lr}
100016ca:	001d      	movs	r5, r3
100016cc:	ab06      	add	r3, sp, #24
100016ce:	781e      	ldrb	r6, [r3, #0]
100016d0:	2301      	movs	r3, #1
100016d2:	425b      	negs	r3, r3
100016d4:	6043      	str	r3, [r0, #4]
100016d6:	2300      	movs	r3, #0
100016d8:	0004      	movs	r4, r0
100016da:	6083      	str	r3, [r0, #8]
100016dc:	6001      	str	r1, [r0, #0]
100016de:	200c      	movs	r0, #12
100016e0:	0017      	movs	r7, r2
100016e2:	f000 fa11 	bl	10001b08 <__wrap___aeabi_uidiv>
100016e6:	0141      	lsls	r1, r0, #5
100016e8:	1a09      	subs	r1, r1, r0
100016ea:	018b      	lsls	r3, r1, #6
100016ec:	1a59      	subs	r1, r3, r1
100016ee:	00c9      	lsls	r1, r1, #3
100016f0:	1809      	adds	r1, r1, r0
100016f2:	0189      	lsls	r1, r1, #6
100016f4:	0038      	movs	r0, r7
100016f6:	f000 fa07 	bl	10001b08 <__wrap___aeabi_uidiv>
100016fa:	21c0      	movs	r1, #192	; 0xc0
100016fc:	1d23      	adds	r3, r4, #4
100016fe:	0189      	lsls	r1, r1, #6
10001700:	4319      	orrs	r1, r3
10001702:	2321      	movs	r3, #33	; 0x21
10001704:	60a0      	str	r0, [r4, #8]
10001706:	600b      	str	r3, [r1, #0]
10001708:	6822      	ldr	r2, [r4, #0]
1000170a:	2a00      	cmp	r2, #0
1000170c:	dafc      	bge.n	10001708 <pll_init+0x40>
1000170e:	2308      	movs	r3, #8
10001710:	042d      	lsls	r5, r5, #16
10001712:	0336      	lsls	r6, r6, #12
10001714:	432e      	orrs	r6, r5
10001716:	60e6      	str	r6, [r4, #12]
10001718:	600b      	str	r3, [r1, #0]
1000171a:	bdf8      	pop	{r3, r4, r5, r6, r7, pc}

1000171c <irq_set_enabled>:
1000171c:	2301      	movs	r3, #1
1000171e:	4083      	lsls	r3, r0
10001720:	2900      	cmp	r1, #0
10001722:	d004      	beq.n	1000172e <irq_set_enabled+0x12>
10001724:	4a03      	ldr	r2, [pc, #12]	; (10001734 <irq_set_enabled+0x18>)
10001726:	6013      	str	r3, [r2, #0]
10001728:	4a03      	ldr	r2, [pc, #12]	; (10001738 <irq_set_enabled+0x1c>)
1000172a:	6013      	str	r3, [r2, #0]
1000172c:	4770      	bx	lr
1000172e:	4a03      	ldr	r2, [pc, #12]	; (1000173c <irq_set_enabled+0x20>)
10001730:	6013      	str	r3, [r2, #0]
10001732:	e7fb      	b.n	1000172c <irq_set_enabled+0x10>
10001734:	e000e280 	.word	0xe000e280
10001738:	e000e100 	.word	0xe000e100
1000173c:	e000e180 	.word	0xe000e180

10001740 <irq_get_vtable_handler>:
10001740:	4b02      	ldr	r3, [pc, #8]	; (1000174c <irq_get_vtable_handler+0xc>)
10001742:	3010      	adds	r0, #16
10001744:	689b      	ldr	r3, [r3, #8]
10001746:	0080      	lsls	r0, r0, #2
10001748:	58c0      	ldr	r0, [r0, r3]
1000174a:	4770      	bx	lr
1000174c:	e000ed00 	.word	0xe000ed00

10001750 <irq_set_exclusive_handler>:
10001750:	b570      	push	{r4, r5, r6, lr}
10001752:	000d      	movs	r5, r1
10001754:	f3ef 8610 	mrs	r6, PRIMASK
10001758:	b672      	cpsid	i
1000175a:	4a0f      	ldr	r2, [pc, #60]	; (10001798 <irq_set_exclusive_handler+0x48>)
1000175c:	6813      	ldr	r3, [r2, #0]
1000175e:	2b00      	cmp	r3, #0
10001760:	d0fc      	beq.n	1000175c <irq_set_exclusive_handler+0xc>
10001762:	f3bf 8f5f 	dmb	sy
10001766:	4b0d      	ldr	r3, [pc, #52]	; (1000179c <irq_set_exclusive_handler+0x4c>)
10001768:	3010      	adds	r0, #16
1000176a:	689b      	ldr	r3, [r3, #8]
1000176c:	0084      	lsls	r4, r0, #2
1000176e:	591b      	ldr	r3, [r3, r4]
10001770:	4a0b      	ldr	r2, [pc, #44]	; (100017a0 <irq_set_exclusive_handler+0x50>)
10001772:	4293      	cmp	r3, r2
10001774:	d003      	beq.n	1000177e <irq_set_exclusive_handler+0x2e>
10001776:	429d      	cmp	r5, r3
10001778:	d001      	beq.n	1000177e <irq_set_exclusive_handler+0x2e>
1000177a:	f7ff fe0d 	bl	10001398 <hard_assertion_failure>
1000177e:	4b07      	ldr	r3, [pc, #28]	; (1000179c <irq_set_exclusive_handler+0x4c>)
10001780:	689b      	ldr	r3, [r3, #8]
10001782:	511d      	str	r5, [r3, r4]
10001784:	f3bf 8f5f 	dmb	sy
10001788:	f3bf 8f5f 	dmb	sy
1000178c:	2200      	movs	r2, #0
1000178e:	4b02      	ldr	r3, [pc, #8]	; (10001798 <irq_set_exclusive_handler+0x48>)
10001790:	601a      	str	r2, [r3, #0]
10001792:	f386 8810 	msr	PRIMASK, r6
10001796:	bd70      	pop	{r4, r5, r6, pc}
10001798:	d0000124 	.word	0xd0000124
1000179c:	e000ed00 	.word	0xe000ed00
100017a0:	100002cd 	.word	0x100002cd

100017a4 <irq_remove_handler>:
100017a4:	b5f0      	push	{r4, r5, r6, r7, lr}
100017a6:	46de      	mov	lr, fp
100017a8:	4657      	mov	r7, sl
100017aa:	464e      	mov	r6, r9
100017ac:	4645      	mov	r5, r8
100017ae:	b5e0      	push	{r5, r6, r7, lr}
100017b0:	000c      	movs	r4, r1
100017b2:	b083      	sub	sp, #12
100017b4:	f3ef 8a10 	mrs	sl, PRIMASK
100017b8:	b672      	cpsid	i
100017ba:	4a5f      	ldr	r2, [pc, #380]	; (10001938 <irq_remove_handler+0x194>)
100017bc:	6813      	ldr	r3, [r2, #0]
100017be:	2b00      	cmp	r3, #0
100017c0:	d0fc      	beq.n	100017bc <irq_remove_handler+0x18>
100017c2:	f3bf 8f5f 	dmb	sy
100017c6:	2210      	movs	r2, #16
100017c8:	4691      	mov	r9, r2
100017ca:	4481      	add	r9, r0
100017cc:	464a      	mov	r2, r9
100017ce:	4b5b      	ldr	r3, [pc, #364]	; (1000193c <irq_remove_handler+0x198>)
100017d0:	0096      	lsls	r6, r2, #2
100017d2:	689b      	ldr	r3, [r3, #8]
100017d4:	599d      	ldr	r5, [r3, r6]
100017d6:	4b5a      	ldr	r3, [pc, #360]	; (10001940 <irq_remove_handler+0x19c>)
100017d8:	4698      	mov	r8, r3
100017da:	429d      	cmp	r5, r3
100017dc:	d005      	beq.n	100017ea <irq_remove_handler+0x46>
100017de:	42a5      	cmp	r5, r4
100017e0:	d016      	beq.n	10001810 <irq_remove_handler+0x6c>
100017e2:	4f58      	ldr	r7, [pc, #352]	; (10001944 <irq_remove_handler+0x1a0>)
100017e4:	1beb      	subs	r3, r5, r7
100017e6:	2b2f      	cmp	r3, #47	; 0x2f
100017e8:	d914      	bls.n	10001814 <irq_remove_handler+0x70>
100017ea:	4b54      	ldr	r3, [pc, #336]	; (1000193c <irq_remove_handler+0x198>)
100017ec:	689b      	ldr	r3, [r3, #8]
100017ee:	519d      	str	r5, [r3, r6]
100017f0:	f3bf 8f5f 	dmb	sy
100017f4:	f3bf 8f5f 	dmb	sy
100017f8:	2200      	movs	r2, #0
100017fa:	4b4f      	ldr	r3, [pc, #316]	; (10001938 <irq_remove_handler+0x194>)
100017fc:	601a      	str	r2, [r3, #0]
100017fe:	f38a 8810 	msr	PRIMASK, sl
10001802:	b003      	add	sp, #12
10001804:	bc3c      	pop	{r2, r3, r4, r5}
10001806:	4690      	mov	r8, r2
10001808:	4699      	mov	r9, r3
1000180a:	46a2      	mov	sl, r4
1000180c:	46ab      	mov	fp, r5
1000180e:	bdf0      	pop	{r4, r5, r6, r7, pc}
10001810:	001d      	movs	r5, r3
10001812:	e7ea      	b.n	100017ea <irq_remove_handler+0x46>
10001814:	2301      	movs	r3, #1
10001816:	4083      	lsls	r3, r0
10001818:	469b      	mov	fp, r3
1000181a:	465a      	mov	r2, fp
1000181c:	4b4a      	ldr	r3, [pc, #296]	; (10001948 <irq_remove_handler+0x1a4>)
1000181e:	681b      	ldr	r3, [r3, #0]
10001820:	401a      	ands	r2, r3
10001822:	9200      	str	r2, [sp, #0]
10001824:	465a      	mov	r2, fp
10001826:	4b49      	ldr	r3, [pc, #292]	; (1000194c <irq_remove_handler+0x1a8>)
10001828:	601a      	str	r2, [r3, #0]
1000182a:	f3bf 8f5f 	dmb	sy
1000182e:	f7fe fcb2 	bl	10000196 <__get_current_exception>
10001832:	9001      	str	r0, [sp, #4]
10001834:	2800      	cmp	r0, #0
10001836:	d003      	beq.n	10001840 <irq_remove_handler+0x9c>
10001838:	4581      	cmp	r9, r0
1000183a:	d001      	beq.n	10001840 <irq_remove_handler+0x9c>
1000183c:	f7ff fdac 	bl	10001398 <hard_assertion_failure>
10001840:	2301      	movs	r3, #1
10001842:	0029      	movs	r1, r5
10001844:	4399      	bics	r1, r3
10001846:	688b      	ldr	r3, [r1, #8]
10001848:	42a3      	cmp	r3, r4
1000184a:	d069      	beq.n	10001920 <irq_remove_handler+0x17c>
1000184c:	000a      	movs	r2, r1
1000184e:	e007      	b.n	10001860 <irq_remove_handler+0xbc>
10001850:	0043      	lsls	r3, r0, #1
10001852:	181b      	adds	r3, r3, r0
10001854:	009b      	lsls	r3, r3, #2
10001856:	18fb      	adds	r3, r7, r3
10001858:	6898      	ldr	r0, [r3, #8]
1000185a:	42a0      	cmp	r0, r4
1000185c:	d011      	beq.n	10001882 <irq_remove_handler+0xde>
1000185e:	001a      	movs	r2, r3
10001860:	2006      	movs	r0, #6
10001862:	5610      	ldrsb	r0, [r2, r0]
10001864:	2800      	cmp	r0, #0
10001866:	daf3      	bge.n	10001850 <irq_remove_handler+0xac>
10001868:	9b00      	ldr	r3, [sp, #0]
1000186a:	2b00      	cmp	r3, #0
1000186c:	d005      	beq.n	1000187a <irq_remove_handler+0xd6>
1000186e:	465a      	mov	r2, fp
10001870:	4b37      	ldr	r3, [pc, #220]	; (10001950 <irq_remove_handler+0x1ac>)
10001872:	601a      	str	r2, [r3, #0]
10001874:	4b34      	ldr	r3, [pc, #208]	; (10001948 <irq_remove_handler+0x1a4>)
10001876:	601a      	str	r2, [r3, #0]
10001878:	e7b7      	b.n	100017ea <irq_remove_handler+0x46>
1000187a:	465a      	mov	r2, fp
1000187c:	4b33      	ldr	r3, [pc, #204]	; (1000194c <irq_remove_handler+0x1a8>)
1000187e:	601a      	str	r2, [r3, #0]
10001880:	e7b3      	b.n	100017ea <irq_remove_handler+0x46>
10001882:	2006      	movs	r0, #6
10001884:	5618      	ldrsb	r0, [r3, r0]
10001886:	2800      	cmp	r0, #0
10001888:	db22      	blt.n	100018d0 <irq_remove_handler+0x12c>
1000188a:	0042      	lsls	r2, r0, #1
1000188c:	1811      	adds	r1, r2, r0
1000188e:	0089      	lsls	r1, r1, #2
10001890:	187c      	adds	r4, r7, r1
10001892:	4688      	mov	r8, r1
10001894:	68a1      	ldr	r1, [r4, #8]
10001896:	6099      	str	r1, [r3, #8]
10001898:	79e1      	ldrb	r1, [r4, #7]
1000189a:	71d9      	strb	r1, [r3, #7]
1000189c:	2106      	movs	r1, #6
1000189e:	5661      	ldrsb	r1, [r4, r1]
100018a0:	7199      	strb	r1, [r3, #6]
100018a2:	79a1      	ldrb	r1, [r4, #6]
100018a4:	297f      	cmp	r1, #127	; 0x7f
100018a6:	d82b      	bhi.n	10001900 <irq_remove_handler+0x15c>
100018a8:	88a4      	ldrh	r4, [r4, #4]
100018aa:	1af9      	subs	r1, r7, r3
100018ac:	0564      	lsls	r4, r4, #21
100018ae:	1524      	asrs	r4, r4, #20
100018b0:	4444      	add	r4, r8
100018b2:	1909      	adds	r1, r1, r4
100018b4:	24e0      	movs	r4, #224	; 0xe0
100018b6:	0509      	lsls	r1, r1, #20
100018b8:	0d49      	lsrs	r1, r1, #21
100018ba:	0224      	lsls	r4, r4, #8
100018bc:	4321      	orrs	r1, r4
100018be:	8099      	strh	r1, [r3, #4]
100018c0:	1812      	adds	r2, r2, r0
100018c2:	4b24      	ldr	r3, [pc, #144]	; (10001954 <irq_remove_handler+0x1b0>)
100018c4:	0092      	lsls	r2, r2, #2
100018c6:	18bf      	adds	r7, r7, r2
100018c8:	781a      	ldrb	r2, [r3, #0]
100018ca:	7018      	strb	r0, [r3, #0]
100018cc:	71ba      	strb	r2, [r7, #6]
100018ce:	e7cb      	b.n	10001868 <irq_remove_handler+0xc4>
100018d0:	9801      	ldr	r0, [sp, #4]
100018d2:	2800      	cmp	r0, #0
100018d4:	d117      	bne.n	10001906 <irq_remove_handler+0x162>
100018d6:	30ff      	adds	r0, #255	; 0xff
100018d8:	7190      	strb	r0, [r2, #6]
100018da:	481f      	ldr	r0, [pc, #124]	; (10001958 <irq_remove_handler+0x1b4>)
100018dc:	8090      	strh	r0, [r2, #4]
100018de:	4a1d      	ldr	r2, [pc, #116]	; (10001954 <irq_remove_handler+0x1b0>)
100018e0:	1bcf      	subs	r7, r1, r7
100018e2:	7810      	ldrb	r0, [r2, #0]
100018e4:	10bf      	asrs	r7, r7, #2
100018e6:	7198      	strb	r0, [r3, #6]
100018e8:	00bb      	lsls	r3, r7, #2
100018ea:	19db      	adds	r3, r3, r7
100018ec:	0119      	lsls	r1, r3, #4
100018ee:	185b      	adds	r3, r3, r1
100018f0:	0219      	lsls	r1, r3, #8
100018f2:	185b      	adds	r3, r3, r1
100018f4:	0419      	lsls	r1, r3, #16
100018f6:	185b      	adds	r3, r3, r1
100018f8:	005b      	lsls	r3, r3, #1
100018fa:	19db      	adds	r3, r3, r7
100018fc:	7013      	strb	r3, [r2, #0]
100018fe:	e7b3      	b.n	10001868 <irq_remove_handler+0xc4>
10001900:	21bd      	movs	r1, #189	; 0xbd
10001902:	0209      	lsls	r1, r1, #8
10001904:	e7db      	b.n	100018be <irq_remove_handler+0x11a>
10001906:	4a15      	ldr	r2, [pc, #84]	; (1000195c <irq_remove_handler+0x1b8>)
10001908:	4915      	ldr	r1, [pc, #84]	; (10001960 <irq_remove_handler+0x1bc>)
1000190a:	1ad2      	subs	r2, r2, r3
1000190c:	3a08      	subs	r2, #8
1000190e:	0250      	lsls	r0, r2, #9
10001910:	0d40      	lsrs	r0, r0, #21
10001912:	4301      	orrs	r1, r0
10001914:	8099      	strh	r1, [r3, #4]
10001916:	4913      	ldr	r1, [pc, #76]	; (10001964 <irq_remove_handler+0x1c0>)
10001918:	0852      	lsrs	r2, r2, #1
1000191a:	430a      	orrs	r2, r1
1000191c:	80da      	strh	r2, [r3, #6]
1000191e:	e7a3      	b.n	10001868 <irq_remove_handler+0xc4>
10001920:	2006      	movs	r0, #6
10001922:	5608      	ldrsb	r0, [r1, r0]
10001924:	000b      	movs	r3, r1
10001926:	2800      	cmp	r0, #0
10001928:	daaf      	bge.n	1000188a <irq_remove_handler+0xe6>
1000192a:	9a01      	ldr	r2, [sp, #4]
1000192c:	2a00      	cmp	r2, #0
1000192e:	d1ea      	bne.n	10001906 <irq_remove_handler+0x162>
10001930:	000b      	movs	r3, r1
10001932:	4645      	mov	r5, r8
10001934:	e7d3      	b.n	100018de <irq_remove_handler+0x13a>
10001936:	46c0      	nop			; (mov r8, r8)
10001938:	d0000124 	.word	0xd0000124
1000193c:	e000ed00 	.word	0xe000ed00
10001940:	100002cd 	.word	0x100002cd
10001944:	200001b4 	.word	0x200001b4
10001948:	e000e100 	.word	0xe000e100
1000194c:	e000e180 	.word	0xe000e180
10001950:	e000e280 	.word	0xe000e280
10001954:	20000b49 	.word	0x20000b49
10001958:	ffffbd00 	.word	0xffffbd00
1000195c:	200001ee 	.word	0x200001ee
10001960:	fffff000 	.word	0xfffff000
10001964:	fffff800 	.word	0xfffff800

10001968 <irq_add_tail_to_free_list>:
10001968:	b5f8      	push	{r3, r4, r5, r6, r7, lr}
1000196a:	2501      	movs	r5, #1
1000196c:	0004      	movs	r4, r0
1000196e:	4305      	orrs	r5, r0
10001970:	f7fe fc11 	bl	10000196 <__get_current_exception>
10001974:	f3ef 8610 	mrs	r6, PRIMASK
10001978:	b672      	cpsid	i
1000197a:	4a24      	ldr	r2, [pc, #144]	; (10001a0c <irq_add_tail_to_free_list+0xa4>)
1000197c:	6813      	ldr	r3, [r2, #0]
1000197e:	2b00      	cmp	r3, #0
10001980:	d0fc      	beq.n	1000197c <irq_add_tail_to_free_list+0x14>
10001982:	f3bf 8f5f 	dmb	sy
10001986:	4f22      	ldr	r7, [pc, #136]	; (10001a10 <irq_add_tail_to_free_list+0xa8>)
10001988:	0080      	lsls	r0, r0, #2
1000198a:	1be1      	subs	r1, r4, r7
1000198c:	1089      	asrs	r1, r1, #2
1000198e:	008a      	lsls	r2, r1, #2
10001990:	1852      	adds	r2, r2, r1
10001992:	0113      	lsls	r3, r2, #4
10001994:	18d2      	adds	r2, r2, r3
10001996:	0213      	lsls	r3, r2, #8
10001998:	18d2      	adds	r2, r2, r3
1000199a:	0413      	lsls	r3, r2, #16
1000199c:	18d3      	adds	r3, r2, r3
1000199e:	4a1d      	ldr	r2, [pc, #116]	; (10001a14 <irq_add_tail_to_free_list+0xac>)
100019a0:	005b      	lsls	r3, r3, #1
100019a2:	185b      	adds	r3, r3, r1
100019a4:	6891      	ldr	r1, [r2, #8]
100019a6:	5809      	ldr	r1, [r1, r0]
100019a8:	42a9      	cmp	r1, r5
100019aa:	d01c      	beq.n	100019e6 <irq_add_tail_to_free_list+0x7e>
100019ac:	2206      	movs	r2, #6
100019ae:	56ba      	ldrsb	r2, [r7, r2]
100019b0:	4293      	cmp	r3, r2
100019b2:	d01c      	beq.n	100019ee <irq_add_tail_to_free_list+0x86>
100019b4:	2212      	movs	r2, #18
100019b6:	56ba      	ldrsb	r2, [r7, r2]
100019b8:	4293      	cmp	r3, r2
100019ba:	d022      	beq.n	10001a02 <irq_add_tail_to_free_list+0x9a>
100019bc:	221e      	movs	r2, #30
100019be:	56ba      	ldrsb	r2, [r7, r2]
100019c0:	4293      	cmp	r3, r2
100019c2:	d020      	beq.n	10001a06 <irq_add_tail_to_free_list+0x9e>
100019c4:	222a      	movs	r2, #42	; 0x2a
100019c6:	56ba      	ldrsb	r2, [r7, r2]
100019c8:	2103      	movs	r1, #3
100019ca:	429a      	cmp	r2, r3
100019cc:	d010      	beq.n	100019f0 <irq_add_tail_to_free_list+0x88>
100019ce:	4a12      	ldr	r2, [pc, #72]	; (10001a18 <irq_add_tail_to_free_list+0xb0>)
100019d0:	7811      	ldrb	r1, [r2, #0]
100019d2:	7013      	strb	r3, [r2, #0]
100019d4:	71a1      	strb	r1, [r4, #6]
100019d6:	f3bf 8f5f 	dmb	sy
100019da:	2200      	movs	r2, #0
100019dc:	4b0b      	ldr	r3, [pc, #44]	; (10001a0c <irq_add_tail_to_free_list+0xa4>)
100019de:	601a      	str	r2, [r3, #0]
100019e0:	f386 8810 	msr	PRIMASK, r6
100019e4:	bdf8      	pop	{r3, r4, r5, r6, r7, pc}
100019e6:	6892      	ldr	r2, [r2, #8]
100019e8:	490c      	ldr	r1, [pc, #48]	; (10001a1c <irq_add_tail_to_free_list+0xb4>)
100019ea:	5011      	str	r1, [r2, r0]
100019ec:	e7ef      	b.n	100019ce <irq_add_tail_to_free_list+0x66>
100019ee:	2100      	movs	r1, #0
100019f0:	004a      	lsls	r2, r1, #1
100019f2:	1852      	adds	r2, r2, r1
100019f4:	21ff      	movs	r1, #255	; 0xff
100019f6:	0092      	lsls	r2, r2, #2
100019f8:	18ba      	adds	r2, r7, r2
100019fa:	7191      	strb	r1, [r2, #6]
100019fc:	4908      	ldr	r1, [pc, #32]	; (10001a20 <irq_add_tail_to_free_list+0xb8>)
100019fe:	8091      	strh	r1, [r2, #4]
10001a00:	e7e5      	b.n	100019ce <irq_add_tail_to_free_list+0x66>
10001a02:	2101      	movs	r1, #1
10001a04:	e7f4      	b.n	100019f0 <irq_add_tail_to_free_list+0x88>
10001a06:	2102      	movs	r1, #2
10001a08:	e7f2      	b.n	100019f0 <irq_add_tail_to_free_list+0x88>
10001a0a:	46c0      	nop			; (mov r8, r8)
10001a0c:	d0000124 	.word	0xd0000124
10001a10:	200001b4 	.word	0x200001b4
10001a14:	e000ed00 	.word	0xe000ed00
10001a18:	20000b49 	.word	0x20000b49
10001a1c:	100002cd 	.word	0x100002cd
10001a20:	ffffbd00 	.word	0xffffbd00

10001a24 <irq_init_priorities>:
10001a24:	b5f0      	push	{r4, r5, r6, r7, lr}
10001a26:	2200      	movs	r2, #0
10001a28:	2403      	movs	r4, #3
10001a2a:	27ff      	movs	r7, #255	; 0xff
10001a2c:	2680      	movs	r6, #128	; 0x80
10001a2e:	0020      	movs	r0, r4
10001a30:	003d      	movs	r5, r7
10001a32:	4b09      	ldr	r3, [pc, #36]	; (10001a58 <irq_init_priorities+0x34>)
10001a34:	0011      	movs	r1, r2
10001a36:	469c      	mov	ip, r3
10001a38:	4010      	ands	r0, r2
10001a3a:	00c0      	lsls	r0, r0, #3
10001a3c:	4085      	lsls	r5, r0
10001a3e:	43a1      	bics	r1, r4
10001a40:	4461      	add	r1, ip
10001a42:	680b      	ldr	r3, [r1, #0]
10001a44:	3201      	adds	r2, #1
10001a46:	43ab      	bics	r3, r5
10001a48:	0035      	movs	r5, r6
10001a4a:	4085      	lsls	r5, r0
10001a4c:	432b      	orrs	r3, r5
10001a4e:	600b      	str	r3, [r1, #0]
10001a50:	2a20      	cmp	r2, #32
10001a52:	d1ec      	bne.n	10001a2e <irq_init_priorities+0xa>
10001a54:	bdf0      	pop	{r4, r5, r6, r7, pc}
10001a56:	46c0      	nop			; (mov r8, r8)
10001a58:	e000e400 	.word	0xe000e400

10001a5c <_out_char>:
10001a5c:	b510      	push	{r4, lr}
10001a5e:	2800      	cmp	r0, #0
10001a60:	d100      	bne.n	10001a64 <_out_char+0x8>
10001a62:	bd10      	pop	{r4, pc}
10001a64:	f000 fa26 	bl	10001eb4 <__wrap_putchar>
10001a68:	e7fb      	b.n	10001a62 <_out_char+0x6>
10001a6a:	46c0      	nop			; (mov r8, r8)

10001a6c <weak_raw_vprintf>:
10001a6c:	b510      	push	{r4, lr}
10001a6e:	4a09      	ldr	r2, [pc, #36]	; (10001a94 <weak_raw_vprintf+0x28>)
10001a70:	0003      	movs	r3, r0
10001a72:	6814      	ldr	r4, [r2, #0]
10001a74:	b084      	sub	sp, #16
10001a76:	2c00      	cmp	r4, #0
10001a78:	d008      	beq.n	10001a8c <weak_raw_vprintf+0x20>
10001a7a:	2201      	movs	r2, #1
10001a7c:	9100      	str	r1, [sp, #0]
10001a7e:	4806      	ldr	r0, [pc, #24]	; (10001a98 <weak_raw_vprintf+0x2c>)
10001a80:	4252      	negs	r2, r2
10001a82:	a903      	add	r1, sp, #12
10001a84:	47a0      	blx	r4
10001a86:	2001      	movs	r0, #1
10001a88:	b004      	add	sp, #16
10001a8a:	bd10      	pop	{r4, pc}
10001a8c:	f000 fa20 	bl	10001ed0 <__wrap_puts>
10001a90:	2000      	movs	r0, #0
10001a92:	e7f9      	b.n	10001a88 <weak_raw_vprintf+0x1c>
10001a94:	20000b24 	.word	0x20000b24
10001a98:	10001a5d 	.word	0x10001a5d

10001a9c <__aeabi_bits_init>:
10001a9c:	4801      	ldr	r0, [pc, #4]	; (10001aa4 <__aeabi_bits_init+0x8>)
10001a9e:	2104      	movs	r1, #4
10001aa0:	4b01      	ldr	r3, [pc, #4]	; (10001aa8 <__aeabi_bits_init+0xc>)
10001aa2:	4718      	bx	r3
10001aa4:	20000200 	.word	0x20000200
10001aa8:	10001acd 	.word	0x10001acd

10001aac <rom_func_lookup>:
10001aac:	2314      	movs	r3, #20
10001aae:	b510      	push	{r4, lr}
10001ab0:	0001      	movs	r1, r0
10001ab2:	8818      	ldrh	r0, [r3, #0]
10001ab4:	3304      	adds	r3, #4
10001ab6:	881b      	ldrh	r3, [r3, #0]
10001ab8:	4798      	blx	r3
10001aba:	bd10      	pop	{r4, pc}

10001abc <rom_data_lookup>:
10001abc:	2316      	movs	r3, #22
10001abe:	b510      	push	{r4, lr}
10001ac0:	0001      	movs	r1, r0
10001ac2:	8818      	ldrh	r0, [r3, #0]
10001ac4:	3302      	adds	r3, #2
10001ac6:	881b      	ldrh	r3, [r3, #0]
10001ac8:	4798      	blx	r3
10001aca:	bd10      	pop	{r4, pc}

10001acc <rom_funcs_lookup>:
10001acc:	b5f0      	push	{r4, r5, r6, r7, lr}
10001ace:	46c6      	mov	lr, r8
10001ad0:	b500      	push	{lr}
10001ad2:	2900      	cmp	r1, #0
10001ad4:	d016      	beq.n	10001b04 <rom_funcs_lookup+0x38>
10001ad6:	2314      	movs	r3, #20
10001ad8:	0004      	movs	r4, r0
10001ada:	2501      	movs	r5, #1
10001adc:	4698      	mov	r8, r3
10001ade:	2718      	movs	r7, #24
10001ae0:	0089      	lsls	r1, r1, #2
10001ae2:	1846      	adds	r6, r0, r1
10001ae4:	4643      	mov	r3, r8
10001ae6:	6821      	ldr	r1, [r4, #0]
10001ae8:	8818      	ldrh	r0, [r3, #0]
10001aea:	883b      	ldrh	r3, [r7, #0]
10001aec:	4798      	blx	r3
10001aee:	c401      	stmia	r4!, {r0}
10001af0:	1e43      	subs	r3, r0, #1
10001af2:	4198      	sbcs	r0, r3
10001af4:	4240      	negs	r0, r0
10001af6:	4005      	ands	r5, r0
10001af8:	42a6      	cmp	r6, r4
10001afa:	d1f3      	bne.n	10001ae4 <rom_funcs_lookup+0x18>
10001afc:	0028      	movs	r0, r5
10001afe:	bc04      	pop	{r2}
10001b00:	4690      	mov	r8, r2
10001b02:	bdf0      	pop	{r4, r5, r6, r7, pc}
10001b04:	2501      	movs	r5, #1
10001b06:	e7f9      	b.n	10001afc <rom_funcs_lookup+0x30>

10001b08 <__wrap___aeabi_uidiv>:
10001b08:	4a13      	ldr	r2, [pc, #76]	; (10001b58 <divmod_u32u32_savestate+0x20>)
10001b0a:	6f93      	ldr	r3, [r2, #120]	; 0x78
10001b0c:	089b      	lsrs	r3, r3, #2
10001b0e:	d213      	bcs.n	10001b38 <divmod_u32u32_savestate>

10001b10 <divmod_u32u32_unsafe>:
10001b10:	6610      	str	r0, [r2, #96]	; 0x60
10001b12:	6651      	str	r1, [r2, #100]	; 0x64
10001b14:	2900      	cmp	r1, #0
10001b16:	d005      	beq.n	10001b24 <divmod_u32u32_unsafe+0x14>
10001b18:	e7ff      	b.n	10001b1a <divmod_u32u32_unsafe+0xa>
10001b1a:	e7ff      	b.n	10001b1c <divmod_u32u32_unsafe+0xc>
10001b1c:	e7ff      	b.n	10001b1e <divmod_u32u32_unsafe+0xe>
10001b1e:	6f51      	ldr	r1, [r2, #116]	; 0x74
10001b20:	6f10      	ldr	r0, [r2, #112]	; 0x70
10001b22:	4770      	bx	lr
10001b24:	b504      	push	{r2, lr}
10001b26:	2800      	cmp	r0, #0
10001b28:	d001      	beq.n	10001b2e <divmod_u32u32_unsafe+0x1e>
10001b2a:	2000      	movs	r0, #0
10001b2c:	43c0      	mvns	r0, r0
10001b2e:	f000 fefb 	bl	10002928 <____aeabi_idiv0_veneer>
10001b32:	2100      	movs	r1, #0
10001b34:	bd04      	pop	{r2, pc}
10001b36:	46c0      	nop			; (mov r8, r8)

10001b38 <divmod_u32u32_savestate>:
10001b38:	6f93      	ldr	r3, [r2, #120]	; 0x78
10001b3a:	085b      	lsrs	r3, r3, #1
10001b3c:	d3fd      	bcc.n	10001b3a <divmod_u32u32_savestate+0x2>
10001b3e:	b5f0      	push	{r4, r5, r6, r7, lr}
10001b40:	6e94      	ldr	r4, [r2, #104]	; 0x68
10001b42:	6ed5      	ldr	r5, [r2, #108]	; 0x6c
10001b44:	6f57      	ldr	r7, [r2, #116]	; 0x74
10001b46:	6f16      	ldr	r6, [r2, #112]	; 0x70
10001b48:	f7ff ffe2 	bl	10001b10 <divmod_u32u32_unsafe>
10001b4c:	6694      	str	r4, [r2, #104]	; 0x68
10001b4e:	66d5      	str	r5, [r2, #108]	; 0x6c
10001b50:	6757      	str	r7, [r2, #116]	; 0x74
10001b52:	6716      	str	r6, [r2, #112]	; 0x70
10001b54:	bdf0      	pop	{r4, r5, r6, r7, pc}
10001b56:	0000      	.short	0x0000
10001b58:	d0000000 	.word	0xd0000000

10001b5c <__aeabi_double_init>:
10001b5c:	2313      	movs	r3, #19
10001b5e:	b570      	push	{r4, r5, r6, lr}
10001b60:	781d      	ldrb	r5, [r3, #0]
10001b62:	2d01      	cmp	r5, #1
10001b64:	d010      	beq.n	10001b88 <__aeabi_double_init+0x2c>
10001b66:	dd0b      	ble.n	10001b80 <__aeabi_double_init+0x24>
10001b68:	4824      	ldr	r0, [pc, #144]	; (10001bfc <__aeabi_double_init+0xa0>)
10001b6a:	f7ff ffa7 	bl	10001abc <rom_data_lookup>
10001b6e:	4c24      	ldr	r4, [pc, #144]	; (10001c00 <__aeabi_double_init+0xa4>)
10001b70:	0001      	movs	r1, r0
10001b72:	2280      	movs	r2, #128	; 0x80
10001b74:	0020      	movs	r0, r4
10001b76:	f000 f8d5 	bl	10001d24 <__wrap___aeabi_memcpy>
10001b7a:	2d02      	cmp	r5, #2
10001b7c:	d001      	beq.n	10001b82 <__aeabi_double_init+0x26>
10001b7e:	bd70      	pop	{r4, r5, r6, pc}
10001b80:	4c1f      	ldr	r4, [pc, #124]	; (10001c00 <__aeabi_double_init+0xa4>)
10001b82:	4a20      	ldr	r2, [pc, #128]	; (10001c04 <__aeabi_double_init+0xa8>)
10001b84:	64a2      	str	r2, [r4, #72]	; 0x48
10001b86:	e7fa      	b.n	10001b7e <__aeabi_double_init+0x22>
10001b88:	002e      	movs	r6, r5
10001b8a:	4c1d      	ldr	r4, [pc, #116]	; (10001c00 <__aeabi_double_init+0xa4>)
10001b8c:	4a1d      	ldr	r2, [pc, #116]	; (10001c04 <__aeabi_double_init+0xa8>)
10001b8e:	08a3      	lsrs	r3, r4, #2
10001b90:	425b      	negs	r3, r3
10001b92:	401e      	ands	r6, r3
10001b94:	421d      	tst	r5, r3
10001b96:	d02f      	beq.n	10001bf8 <__aeabi_double_init+0x9c>
10001b98:	0033      	movs	r3, r6
10001b9a:	6022      	str	r2, [r4, #0]
10001b9c:	2020      	movs	r0, #32
10001b9e:	00b1      	lsls	r1, r6, #2
10001ba0:	1861      	adds	r1, r4, r1
10001ba2:	1b80      	subs	r0, r0, r6
10001ba4:	600a      	str	r2, [r1, #0]
10001ba6:	604a      	str	r2, [r1, #4]
10001ba8:	608a      	str	r2, [r1, #8]
10001baa:	60ca      	str	r2, [r1, #12]
10001bac:	610a      	str	r2, [r1, #16]
10001bae:	614a      	str	r2, [r1, #20]
10001bb0:	618a      	str	r2, [r1, #24]
10001bb2:	61ca      	str	r2, [r1, #28]
10001bb4:	620a      	str	r2, [r1, #32]
10001bb6:	624a      	str	r2, [r1, #36]	; 0x24
10001bb8:	628a      	str	r2, [r1, #40]	; 0x28
10001bba:	62ca      	str	r2, [r1, #44]	; 0x2c
10001bbc:	630a      	str	r2, [r1, #48]	; 0x30
10001bbe:	634a      	str	r2, [r1, #52]	; 0x34
10001bc0:	638a      	str	r2, [r1, #56]	; 0x38
10001bc2:	63ca      	str	r2, [r1, #60]	; 0x3c
10001bc4:	640a      	str	r2, [r1, #64]	; 0x40
10001bc6:	644a      	str	r2, [r1, #68]	; 0x44
10001bc8:	648a      	str	r2, [r1, #72]	; 0x48
10001bca:	64ca      	str	r2, [r1, #76]	; 0x4c
10001bcc:	650a      	str	r2, [r1, #80]	; 0x50
10001bce:	654a      	str	r2, [r1, #84]	; 0x54
10001bd0:	658a      	str	r2, [r1, #88]	; 0x58
10001bd2:	65ca      	str	r2, [r1, #92]	; 0x5c
10001bd4:	660a      	str	r2, [r1, #96]	; 0x60
10001bd6:	664a      	str	r2, [r1, #100]	; 0x64
10001bd8:	668a      	str	r2, [r1, #104]	; 0x68
10001bda:	66ca      	str	r2, [r1, #108]	; 0x6c
10001bdc:	670a      	str	r2, [r1, #112]	; 0x70
10001bde:	674a      	str	r2, [r1, #116]	; 0x74
10001be0:	0840      	lsrs	r0, r0, #1
10001be2:	2810      	cmp	r0, #16
10001be4:	d103      	bne.n	10001bee <__aeabi_double_init+0x92>
10001be6:	678a      	str	r2, [r1, #120]	; 0x78
10001be8:	67ca      	str	r2, [r1, #124]	; 0x7c
10001bea:	64a2      	str	r2, [r4, #72]	; 0x48
10001bec:	e7c7      	b.n	10001b7e <__aeabi_double_init+0x22>
10001bee:	331e      	adds	r3, #30
10001bf0:	009b      	lsls	r3, r3, #2
10001bf2:	50e2      	str	r2, [r4, r3]
10001bf4:	64a2      	str	r2, [r4, #72]	; 0x48
10001bf6:	e7c2      	b.n	10001b7e <__aeabi_double_init+0x22>
10001bf8:	2300      	movs	r3, #0
10001bfa:	e7cf      	b.n	10001b9c <__aeabi_double_init+0x40>
10001bfc:	00004453 	.word	0x00004453
10001c00:	20000b50 	.word	0x20000b50
10001c04:	10001c09 	.word	0x10001c09

10001c08 <double_table_shim_on_use_helper>:
10001c08:	b507      	push	{r0, r1, r2, lr}
10001c0a:	4660      	mov	r0, ip
10001c0c:	8801      	ldrh	r1, [r0, #0]
10001c0e:	0a0a      	lsrs	r2, r1, #8
10001c10:	3002      	adds	r0, #2
10001c12:	2adf      	cmp	r2, #223	; 0xdf
10001c14:	d1fa      	bne.n	10001c0c <double_table_shim_on_use_helper+0x4>
10001c16:	b2c9      	uxtb	r1, r1
10001c18:	0882      	lsrs	r2, r0, #2
10001c1a:	d304      	bcc.n	10001c26 <double_table_shim_on_use_helper+0x1e>
10001c1c:	8802      	ldrh	r2, [r0, #0]
10001c1e:	8840      	ldrh	r0, [r0, #2]
10001c20:	0400      	lsls	r0, r0, #16
10001c22:	4310      	orrs	r0, r2
10001c24:	e000      	b.n	10001c28 <double_table_shim_on_use_helper+0x20>
10001c26:	6800      	ldr	r0, [r0, #0]
10001c28:	4a01      	ldr	r2, [pc, #4]	; (10001c30 <double_table_shim_on_use_helper+0x28>)
10001c2a:	5050      	str	r0, [r2, r1]
10001c2c:	9003      	str	r0, [sp, #12]
10001c2e:	bd07      	pop	{r0, r1, r2, pc}
10001c30:	20000b50 	.word	0x20000b50

10001c34 <__wrap___aeabi_lmul>:
10001c34:	4351      	muls	r1, r2
10001c36:	4343      	muls	r3, r0
10001c38:	18c9      	adds	r1, r1, r3
10001c3a:	468c      	mov	ip, r1
10001c3c:	0c11      	lsrs	r1, r2, #16
10001c3e:	b283      	uxth	r3, r0
10001c40:	434b      	muls	r3, r1
10001c42:	b410      	push	{r4}
10001c44:	0c04      	lsrs	r4, r0, #16
10001c46:	4361      	muls	r1, r4
10001c48:	b292      	uxth	r2, r2
10001c4a:	b280      	uxth	r0, r0
10001c4c:	4350      	muls	r0, r2
10001c4e:	4362      	muls	r2, r4
10001c50:	041c      	lsls	r4, r3, #16
10001c52:	0c1b      	lsrs	r3, r3, #16
10001c54:	1900      	adds	r0, r0, r4
10001c56:	bc10      	pop	{r4}
10001c58:	4159      	adcs	r1, r3
10001c5a:	0413      	lsls	r3, r2, #16
10001c5c:	0c12      	lsrs	r2, r2, #16
10001c5e:	18c0      	adds	r0, r0, r3
10001c60:	4151      	adcs	r1, r2
10001c62:	4461      	add	r1, ip
10001c64:	4770      	bx	lr
	...

10001c68 <__aeabi_float_init>:
10001c68:	2313      	movs	r3, #19
10001c6a:	b510      	push	{r4, lr}
10001c6c:	4812      	ldr	r0, [pc, #72]	; (10001cb8 <__aeabi_float_init+0x50>)
10001c6e:	781c      	ldrb	r4, [r3, #0]
10001c70:	f7ff ff24 	bl	10001abc <rom_data_lookup>
10001c74:	0001      	movs	r1, r0
10001c76:	2c01      	cmp	r4, #1
10001c78:	d00a      	beq.n	10001c90 <__aeabi_float_init+0x28>
10001c7a:	dd03      	ble.n	10001c84 <__aeabi_float_init+0x1c>
10001c7c:	2280      	movs	r2, #128	; 0x80
10001c7e:	480f      	ldr	r0, [pc, #60]	; (10001cbc <__aeabi_float_init+0x54>)
10001c80:	f000 f850 	bl	10001d24 <__wrap___aeabi_memcpy>
10001c84:	480e      	ldr	r0, [pc, #56]	; (10001cc0 <__aeabi_float_init+0x58>)
10001c86:	f7ff ff11 	bl	10001aac <rom_func_lookup>
10001c8a:	4b0e      	ldr	r3, [pc, #56]	; (10001cc4 <__aeabi_float_init+0x5c>)
10001c8c:	6018      	str	r0, [r3, #0]
10001c8e:	bd10      	pop	{r4, pc}
10001c90:	4c0a      	ldr	r4, [pc, #40]	; (10001cbc <__aeabi_float_init+0x54>)
10001c92:	2254      	movs	r2, #84	; 0x54
10001c94:	0020      	movs	r0, r4
10001c96:	f000 f845 	bl	10001d24 <__wrap___aeabi_memcpy>
10001c9a:	4b0b      	ldr	r3, [pc, #44]	; (10001cc8 <__aeabi_float_init+0x60>)
10001c9c:	6563      	str	r3, [r4, #84]	; 0x54
10001c9e:	65a3      	str	r3, [r4, #88]	; 0x58
10001ca0:	65e3      	str	r3, [r4, #92]	; 0x5c
10001ca2:	6623      	str	r3, [r4, #96]	; 0x60
10001ca4:	6663      	str	r3, [r4, #100]	; 0x64
10001ca6:	66a3      	str	r3, [r4, #104]	; 0x68
10001ca8:	66e3      	str	r3, [r4, #108]	; 0x6c
10001caa:	6723      	str	r3, [r4, #112]	; 0x70
10001cac:	6763      	str	r3, [r4, #116]	; 0x74
10001cae:	67a3      	str	r3, [r4, #120]	; 0x78
10001cb0:	67e3      	str	r3, [r4, #124]	; 0x7c
10001cb2:	6223      	str	r3, [r4, #32]
10001cb4:	61e3      	str	r3, [r4, #28]
10001cb6:	e7e5      	b.n	10001c84 <__aeabi_float_init+0x1c>
10001cb8:	00004653 	.word	0x00004653
10001cbc:	20000c50 	.word	0x20000c50
10001cc0:	0000334c 	.word	0x0000334c
10001cc4:	20000d50 	.word	0x20000d50
10001cc8:	10001ccd 	.word	0x10001ccd

10001ccc <float_table_shim_on_use_helper>:
10001ccc:	b507      	push	{r0, r1, r2, lr}
10001cce:	4660      	mov	r0, ip
10001cd0:	8801      	ldrh	r1, [r0, #0]
10001cd2:	0a0a      	lsrs	r2, r1, #8
10001cd4:	3002      	adds	r0, #2
10001cd6:	2adf      	cmp	r2, #223	; 0xdf
10001cd8:	d1fa      	bne.n	10001cd0 <float_table_shim_on_use_helper+0x4>
10001cda:	b2c9      	uxtb	r1, r1
10001cdc:	0882      	lsrs	r2, r0, #2
10001cde:	d304      	bcc.n	10001cea <float_table_shim_on_use_helper+0x1e>
10001ce0:	8802      	ldrh	r2, [r0, #0]
10001ce2:	8840      	ldrh	r0, [r0, #2]
10001ce4:	0400      	lsls	r0, r0, #16
10001ce6:	4310      	orrs	r0, r2
10001ce8:	e000      	b.n	10001cec <float_table_shim_on_use_helper+0x20>
10001cea:	6800      	ldr	r0, [r0, #0]
10001cec:	4a01      	ldr	r2, [pc, #4]	; (10001cf4 <float_table_shim_on_use_helper+0x28>)
10001cee:	5050      	str	r0, [r2, r1]
10001cf0:	9003      	str	r0, [sp, #12]
10001cf2:	bd07      	pop	{r0, r1, r2, pc}
10001cf4:	20000c50 	.word	0x20000c50

10001cf8 <__wrap_malloc>:
10001cf8:	b510      	push	{r4, lr}
10001cfa:	f000 f9bd 	bl	10002078 <malloc>
10001cfe:	bd10      	pop	{r4, pc}

10001d00 <__wrap_calloc>:
10001d00:	b510      	push	{r4, lr}
10001d02:	f000 f97f 	bl	10002004 <calloc>
10001d06:	bd10      	pop	{r4, pc}

10001d08 <__aeabi_mem_init>:
10001d08:	4801      	ldr	r0, [pc, #4]	; (10001d10 <__aeabi_mem_init+0x8>)
10001d0a:	2104      	movs	r1, #4
10001d0c:	4b01      	ldr	r3, [pc, #4]	; (10001d14 <__aeabi_mem_init+0xc>)
10001d0e:	4718      	bx	r3
10001d10:	20000210 	.word	0x20000210
10001d14:	10001acd 	.word	0x10001acd

10001d18 <__wrap_memset>:
10001d18:	4b01      	ldr	r3, [pc, #4]	; (10001d20 <__wrap_memset+0x8>)
10001d1a:	681b      	ldr	r3, [r3, #0]
10001d1c:	4718      	bx	r3
10001d1e:	0000      	.short	0x0000
10001d20:	20000210 	.word	0x20000210

10001d24 <__wrap___aeabi_memcpy>:
10001d24:	4b01      	ldr	r3, [pc, #4]	; (10001d2c <__wrap___aeabi_memcpy+0x8>)
10001d26:	685b      	ldr	r3, [r3, #4]
10001d28:	4718      	bx	r3
10001d2a:	0000      	.short	0x0000
10001d2c:	20000210 	.word	0x20000210

10001d30 <stdio_out_chars_crlf.part.0>:
10001d30:	b5f8      	push	{r3, r4, r5, r6, r7, lr}
10001d32:	4647      	mov	r7, r8
10001d34:	46ce      	mov	lr, r9
10001d36:	000d      	movs	r5, r1
10001d38:	b580      	push	{r7, lr}
10001d3a:	0016      	movs	r6, r2
10001d3c:	0007      	movs	r7, r0
10001d3e:	2a00      	cmp	r2, #0
10001d40:	dd20      	ble.n	10001d84 <stdio_out_chars_crlf.part.0+0x54>
10001d42:	1e4b      	subs	r3, r1, #1
10001d44:	4698      	mov	r8, r3
10001d46:	4b1a      	ldr	r3, [pc, #104]	; (10001db0 <stdio_out_chars_crlf.part.0+0x80>)
10001d48:	2400      	movs	r4, #0
10001d4a:	2000      	movs	r0, #0
10001d4c:	4699      	mov	r9, r3
10001d4e:	2c00      	cmp	r4, #0
10001d50:	d02b      	beq.n	10001daa <stdio_out_chars_crlf.part.0+0x7a>
10001d52:	4643      	mov	r3, r8
10001d54:	5d1b      	ldrb	r3, [r3, r4]
10001d56:	3b0d      	subs	r3, #13
10001d58:	425a      	negs	r2, r3
10001d5a:	4153      	adcs	r3, r2
10001d5c:	b2db      	uxtb	r3, r3
10001d5e:	5d2a      	ldrb	r2, [r5, r4]
10001d60:	2a0a      	cmp	r2, #10
10001d62:	d013      	beq.n	10001d8c <stdio_out_chars_crlf.part.0+0x5c>
10001d64:	3401      	adds	r4, #1
10001d66:	42a6      	cmp	r6, r4
10001d68:	dcf1      	bgt.n	10001d4e <stdio_out_chars_crlf.part.0+0x1e>
10001d6a:	4286      	cmp	r6, r0
10001d6c:	dd03      	ble.n	10001d76 <stdio_out_chars_crlf.part.0+0x46>
10001d6e:	1a31      	subs	r1, r6, r0
10001d70:	683b      	ldr	r3, [r7, #0]
10001d72:	1828      	adds	r0, r5, r0
10001d74:	4798      	blx	r3
10001d76:	19ad      	adds	r5, r5, r6
10001d78:	3d01      	subs	r5, #1
10001d7a:	782b      	ldrb	r3, [r5, #0]
10001d7c:	3b0d      	subs	r3, #13
10001d7e:	425a      	negs	r2, r3
10001d80:	4153      	adcs	r3, r2
10001d82:	743b      	strb	r3, [r7, #16]
10001d84:	bc0c      	pop	{r2, r3}
10001d86:	4690      	mov	r8, r2
10001d88:	4699      	mov	r9, r3
10001d8a:	bdf8      	pop	{r3, r4, r5, r6, r7, pc}
10001d8c:	2b00      	cmp	r3, #0
10001d8e:	d1e9      	bne.n	10001d64 <stdio_out_chars_crlf.part.0+0x34>
10001d90:	42a0      	cmp	r0, r4
10001d92:	da03      	bge.n	10001d9c <stdio_out_chars_crlf.part.0+0x6c>
10001d94:	1a21      	subs	r1, r4, r0
10001d96:	683b      	ldr	r3, [r7, #0]
10001d98:	1828      	adds	r0, r5, r0
10001d9a:	4798      	blx	r3
10001d9c:	4648      	mov	r0, r9
10001d9e:	2102      	movs	r1, #2
10001da0:	683b      	ldr	r3, [r7, #0]
10001da2:	3401      	adds	r4, #1
10001da4:	4798      	blx	r3
10001da6:	0020      	movs	r0, r4
10001da8:	e7dd      	b.n	10001d66 <stdio_out_chars_crlf.part.0+0x36>
10001daa:	7c3b      	ldrb	r3, [r7, #16]
10001dac:	e7d7      	b.n	10001d5e <stdio_out_chars_crlf.part.0+0x2e>
10001dae:	46c0      	nop			; (mov r8, r8)
10001db0:	10002a60 	.word	0x10002a60

10001db4 <stdio_put_string>:
10001db4:	b5f0      	push	{r4, r5, r6, r7, lr}
10001db6:	4657      	mov	r7, sl
10001db8:	4645      	mov	r5, r8
10001dba:	46de      	mov	lr, fp
10001dbc:	464e      	mov	r6, r9
10001dbe:	23d0      	movs	r3, #208	; 0xd0
10001dc0:	b5e0      	push	{r5, r6, r7, lr}
10001dc2:	061b      	lsls	r3, r3, #24
10001dc4:	681c      	ldr	r4, [r3, #0]
10001dc6:	4b37      	ldr	r3, [pc, #220]	; (10001ea4 <stdio_put_string+0xf0>)
10001dc8:	b083      	sub	sp, #12
10001dca:	0007      	movs	r7, r0
10001dcc:	000d      	movs	r5, r1
10001dce:	0018      	movs	r0, r3
10001dd0:	a901      	add	r1, sp, #4
10001dd2:	4690      	mov	r8, r2
10001dd4:	469a      	mov	sl, r3
10001dd6:	f000 fdaf 	bl	10002938 <__mutex_try_enter_veneer>
10001dda:	4681      	mov	r9, r0
10001ddc:	2800      	cmp	r0, #0
10001dde:	d107      	bne.n	10001df0 <stdio_put_string+0x3c>
10001de0:	9b01      	ldr	r3, [sp, #4]
10001de2:	429c      	cmp	r4, r3
10001de4:	d004      	beq.n	10001df0 <stdio_put_string+0x3c>
10001de6:	4650      	mov	r0, sl
10001de8:	f000 fdae 	bl	10002948 <__mutex_enter_blocking_veneer>
10001dec:	2301      	movs	r3, #1
10001dee:	4699      	mov	r9, r3
10001df0:	1c6b      	adds	r3, r5, #1
10001df2:	d103      	bne.n	10001dfc <stdio_put_string+0x48>
10001df4:	0038      	movs	r0, r7
10001df6:	f000 fc2b 	bl	10002650 <strlen>
10001dfa:	0005      	movs	r5, r0
10001dfc:	4b2a      	ldr	r3, [pc, #168]	; (10001ea8 <stdio_put_string+0xf4>)
10001dfe:	681c      	ldr	r4, [r3, #0]
10001e00:	2c00      	cmp	r4, #0
10001e02:	d02f      	beq.n	10001e64 <stdio_put_string+0xb0>
10001e04:	230a      	movs	r3, #10
10001e06:	4e29      	ldr	r6, [pc, #164]	; (10001eac <stdio_put_string+0xf8>)
10001e08:	469b      	mov	fp, r3
10001e0a:	e002      	b.n	10001e12 <stdio_put_string+0x5e>
10001e0c:	68e4      	ldr	r4, [r4, #12]
10001e0e:	2c00      	cmp	r4, #0
10001e10:	d028      	beq.n	10001e64 <stdio_put_string+0xb0>
10001e12:	6822      	ldr	r2, [r4, #0]
10001e14:	2a00      	cmp	r2, #0
10001e16:	d0f9      	beq.n	10001e0c <stdio_put_string+0x58>
10001e18:	6833      	ldr	r3, [r6, #0]
10001e1a:	2b00      	cmp	r3, #0
10001e1c:	d001      	beq.n	10001e22 <stdio_put_string+0x6e>
10001e1e:	42a3      	cmp	r3, r4
10001e20:	d1f4      	bne.n	10001e0c <stdio_put_string+0x58>
10001e22:	7c63      	ldrb	r3, [r4, #17]
10001e24:	2b00      	cmp	r3, #0
10001e26:	d02a      	beq.n	10001e7e <stdio_put_string+0xca>
10001e28:	002a      	movs	r2, r5
10001e2a:	0039      	movs	r1, r7
10001e2c:	0020      	movs	r0, r4
10001e2e:	f7ff ff7f 	bl	10001d30 <stdio_out_chars_crlf.part.0>
10001e32:	4643      	mov	r3, r8
10001e34:	2b00      	cmp	r3, #0
10001e36:	d0e9      	beq.n	10001e0c <stdio_put_string+0x58>
10001e38:	466b      	mov	r3, sp
10001e3a:	465a      	mov	r2, fp
10001e3c:	711a      	strb	r2, [r3, #4]
10001e3e:	7c63      	ldrb	r3, [r4, #17]
10001e40:	2b00      	cmp	r3, #0
10001e42:	d020      	beq.n	10001e86 <stdio_put_string+0xd2>
10001e44:	7c23      	ldrb	r3, [r4, #16]
10001e46:	2b00      	cmp	r3, #0
10001e48:	d026      	beq.n	10001e98 <stdio_put_string+0xe4>
10001e4a:	2101      	movs	r1, #1
10001e4c:	6823      	ldr	r3, [r4, #0]
10001e4e:	a801      	add	r0, sp, #4
10001e50:	4798      	blx	r3
10001e52:	466b      	mov	r3, sp
10001e54:	791b      	ldrb	r3, [r3, #4]
10001e56:	3b0d      	subs	r3, #13
10001e58:	425a      	negs	r2, r3
10001e5a:	4153      	adcs	r3, r2
10001e5c:	7423      	strb	r3, [r4, #16]
10001e5e:	68e4      	ldr	r4, [r4, #12]
10001e60:	2c00      	cmp	r4, #0
10001e62:	d1d6      	bne.n	10001e12 <stdio_put_string+0x5e>
10001e64:	464b      	mov	r3, r9
10001e66:	2b00      	cmp	r3, #0
10001e68:	d112      	bne.n	10001e90 <stdio_put_string+0xdc>
10001e6a:	1e68      	subs	r0, r5, #1
10001e6c:	4185      	sbcs	r5, r0
10001e6e:	b2e8      	uxtb	r0, r5
10001e70:	b003      	add	sp, #12
10001e72:	bc3c      	pop	{r2, r3, r4, r5}
10001e74:	4690      	mov	r8, r2
10001e76:	4699      	mov	r9, r3
10001e78:	46a2      	mov	sl, r4
10001e7a:	46ab      	mov	fp, r5
10001e7c:	bdf0      	pop	{r4, r5, r6, r7, pc}
10001e7e:	0029      	movs	r1, r5
10001e80:	0038      	movs	r0, r7
10001e82:	4790      	blx	r2
10001e84:	e7d5      	b.n	10001e32 <stdio_put_string+0x7e>
10001e86:	2101      	movs	r1, #1
10001e88:	6823      	ldr	r3, [r4, #0]
10001e8a:	a801      	add	r0, sp, #4
10001e8c:	4798      	blx	r3
10001e8e:	e7bd      	b.n	10001e0c <stdio_put_string+0x58>
10001e90:	4650      	mov	r0, sl
10001e92:	f000 fd41 	bl	10002918 <__mutex_exit_veneer>
10001e96:	e7e8      	b.n	10001e6a <stdio_put_string+0xb6>
10001e98:	2102      	movs	r1, #2
10001e9a:	4805      	ldr	r0, [pc, #20]	; (10001eb0 <stdio_put_string+0xfc>)
10001e9c:	6823      	ldr	r3, [r4, #0]
10001e9e:	4798      	blx	r3
10001ea0:	e7d7      	b.n	10001e52 <stdio_put_string+0x9e>
10001ea2:	46c0      	nop			; (mov r8, r8)
10001ea4:	20000a70 	.word	0x20000a70
10001ea8:	20000b18 	.word	0x20000b18
10001eac:	20000b1c 	.word	0x20000b1c
10001eb0:	10002a60 	.word	0x10002a60

10001eb4 <__wrap_putchar>:
10001eb4:	b510      	push	{r4, lr}
10001eb6:	b082      	sub	sp, #8
10001eb8:	466b      	mov	r3, sp
10001eba:	0004      	movs	r4, r0
10001ebc:	2200      	movs	r2, #0
10001ebe:	1dd8      	adds	r0, r3, #7
10001ec0:	2101      	movs	r1, #1
10001ec2:	7004      	strb	r4, [r0, #0]
10001ec4:	f7ff ff76 	bl	10001db4 <stdio_put_string>
10001ec8:	0020      	movs	r0, r4
10001eca:	b002      	add	sp, #8
10001ecc:	bd10      	pop	{r4, pc}
10001ece:	46c0      	nop			; (mov r8, r8)

10001ed0 <__wrap_puts>:
10001ed0:	b570      	push	{r4, r5, r6, lr}
10001ed2:	0004      	movs	r4, r0
10001ed4:	f000 fbbc 	bl	10002650 <strlen>
10001ed8:	2201      	movs	r2, #1
10001eda:	0001      	movs	r1, r0
10001edc:	0005      	movs	r5, r0
10001ede:	0020      	movs	r0, r4
10001ee0:	f7ff ff68 	bl	10001db4 <stdio_put_string>
10001ee4:	4b08      	ldr	r3, [pc, #32]	; (10001f08 <__wrap_puts+0x38>)
10001ee6:	681c      	ldr	r4, [r3, #0]
10001ee8:	2c00      	cmp	r4, #0
10001eea:	d006      	beq.n	10001efa <__wrap_puts+0x2a>
10001eec:	6863      	ldr	r3, [r4, #4]
10001eee:	2b00      	cmp	r3, #0
10001ef0:	d005      	beq.n	10001efe <__wrap_puts+0x2e>
10001ef2:	4798      	blx	r3
10001ef4:	68e4      	ldr	r4, [r4, #12]
10001ef6:	2c00      	cmp	r4, #0
10001ef8:	d1f8      	bne.n	10001eec <__wrap_puts+0x1c>
10001efa:	0028      	movs	r0, r5
10001efc:	bd70      	pop	{r4, r5, r6, pc}
10001efe:	68e4      	ldr	r4, [r4, #12]
10001f00:	2c00      	cmp	r4, #0
10001f02:	d1f3      	bne.n	10001eec <__wrap_puts+0x1c>
10001f04:	e7f9      	b.n	10001efa <__wrap_puts+0x2a>
10001f06:	46c0      	nop			; (mov r8, r8)
10001f08:	20000b18 	.word	0x20000b18

10001f0c <stdio_set_driver_enabled>:
10001f0c:	4a0d      	ldr	r2, [pc, #52]	; (10001f44 <stdio_set_driver_enabled+0x38>)
10001f0e:	6813      	ldr	r3, [r2, #0]
10001f10:	2b00      	cmp	r3, #0
10001f12:	d013      	beq.n	10001f3c <stdio_set_driver_enabled+0x30>
10001f14:	4283      	cmp	r3, r0
10001f16:	d102      	bne.n	10001f1e <stdio_set_driver_enabled+0x12>
10001f18:	e009      	b.n	10001f2e <stdio_set_driver_enabled+0x22>
10001f1a:	4298      	cmp	r0, r3
10001f1c:	d008      	beq.n	10001f30 <stdio_set_driver_enabled+0x24>
10001f1e:	001a      	movs	r2, r3
10001f20:	68db      	ldr	r3, [r3, #12]
10001f22:	2b00      	cmp	r3, #0
10001f24:	d1f9      	bne.n	10001f1a <stdio_set_driver_enabled+0xe>
10001f26:	2900      	cmp	r1, #0
10001f28:	d000      	beq.n	10001f2c <stdio_set_driver_enabled+0x20>
10001f2a:	60d0      	str	r0, [r2, #12]
10001f2c:	4770      	bx	lr
10001f2e:	001a      	movs	r2, r3
10001f30:	2900      	cmp	r1, #0
10001f32:	d1fb      	bne.n	10001f2c <stdio_set_driver_enabled+0x20>
10001f34:	68db      	ldr	r3, [r3, #12]
10001f36:	60d3      	str	r3, [r2, #12]
10001f38:	60c1      	str	r1, [r0, #12]
10001f3a:	e7f7      	b.n	10001f2c <stdio_set_driver_enabled+0x20>
10001f3c:	2900      	cmp	r1, #0
10001f3e:	d0f5      	beq.n	10001f2c <stdio_set_driver_enabled+0x20>
10001f40:	6010      	str	r0, [r2, #0]
10001f42:	e7f3      	b.n	10001f2c <stdio_set_driver_enabled+0x20>
10001f44:	20000b18 	.word	0x20000b18

10001f48 <stdio_init_all>:
10001f48:	b510      	push	{r4, lr}
10001f4a:	f000 f83b 	bl	10001fc4 <stdio_uart_init>
10001f4e:	bd10      	pop	{r4, pc}

10001f50 <stdio_uart_out_chars>:
10001f50:	b5f0      	push	{r4, r5, r6, r7, lr}
10001f52:	2900      	cmp	r1, #0
10001f54:	d010      	beq.n	10001f78 <stdio_uart_out_chars+0x28>
10001f56:	1845      	adds	r5, r0, r1
10001f58:	270d      	movs	r7, #13
10001f5a:	2120      	movs	r1, #32
10001f5c:	4b09      	ldr	r3, [pc, #36]	; (10001f84 <stdio_uart_out_chars+0x34>)
10001f5e:	4a0a      	ldr	r2, [pc, #40]	; (10001f88 <stdio_uart_out_chars+0x38>)
10001f60:	2600      	movs	r6, #0
10001f62:	5f9e      	ldrsh	r6, [r3, r6]
10001f64:	7804      	ldrb	r4, [r0, #0]
10001f66:	42a6      	cmp	r6, r4
10001f68:	d007      	beq.n	10001f7a <stdio_uart_out_chars+0x2a>
10001f6a:	6993      	ldr	r3, [r2, #24]
10001f6c:	4219      	tst	r1, r3
10001f6e:	d1fc      	bne.n	10001f6a <stdio_uart_out_chars+0x1a>
10001f70:	3001      	adds	r0, #1
10001f72:	6014      	str	r4, [r2, #0]
10001f74:	42a8      	cmp	r0, r5
10001f76:	d1f5      	bne.n	10001f64 <stdio_uart_out_chars+0x14>
10001f78:	bdf0      	pop	{r4, r5, r6, r7, pc}
10001f7a:	6993      	ldr	r3, [r2, #24]
10001f7c:	4219      	tst	r1, r3
10001f7e:	d1fc      	bne.n	10001f7a <stdio_uart_out_chars+0x2a>
10001f80:	6017      	str	r7, [r2, #0]
10001f82:	e7f2      	b.n	10001f6a <stdio_uart_out_chars+0x1a>
10001f84:	20000b4c 	.word	0x20000b4c
10001f88:	40034000 	.word	0x40034000

10001f8c <stdio_uart_in_chars>:
10001f8c:	b530      	push	{r4, r5, lr}
10001f8e:	0005      	movs	r5, r0
10001f90:	2000      	movs	r0, #0
10001f92:	2900      	cmp	r1, #0
10001f94:	dd10      	ble.n	10001fb8 <stdio_uart_in_chars+0x2c>
10001f96:	2410      	movs	r4, #16
10001f98:	4a09      	ldr	r2, [pc, #36]	; (10001fc0 <stdio_uart_in_chars+0x34>)
10001f9a:	3d01      	subs	r5, #1
10001f9c:	6993      	ldr	r3, [r2, #24]
10001f9e:	421c      	tst	r4, r3
10001fa0:	d108      	bne.n	10001fb4 <stdio_uart_in_chars+0x28>
10001fa2:	3001      	adds	r0, #1
10001fa4:	6993      	ldr	r3, [r2, #24]
10001fa6:	421c      	tst	r4, r3
10001fa8:	d1fc      	bne.n	10001fa4 <stdio_uart_in_chars+0x18>
10001faa:	6813      	ldr	r3, [r2, #0]
10001fac:	542b      	strb	r3, [r5, r0]
10001fae:	4281      	cmp	r1, r0
10001fb0:	d1f4      	bne.n	10001f9c <stdio_uart_in_chars+0x10>
10001fb2:	bd30      	pop	{r4, r5, pc}
10001fb4:	2800      	cmp	r0, #0
10001fb6:	d1fc      	bne.n	10001fb2 <stdio_uart_in_chars+0x26>
10001fb8:	2003      	movs	r0, #3
10001fba:	4240      	negs	r0, r0
10001fbc:	e7f9      	b.n	10001fb2 <stdio_uart_in_chars+0x26>
10001fbe:	46c0      	nop			; (mov r8, r8)
10001fc0:	40034000 	.word	0x40034000

10001fc4 <stdio_uart_init>:
10001fc4:	21e1      	movs	r1, #225	; 0xe1
10001fc6:	b510      	push	{r4, lr}
10001fc8:	4b0a      	ldr	r3, [pc, #40]	; (10001ff4 <stdio_uart_init+0x30>)
10001fca:	0249      	lsls	r1, r1, #9
10001fcc:	781b      	ldrb	r3, [r3, #0]
10001fce:	4b0a      	ldr	r3, [pc, #40]	; (10001ff8 <stdio_uart_init+0x34>)
10001fd0:	480a      	ldr	r0, [pc, #40]	; (10001ffc <stdio_uart_init+0x38>)
10001fd2:	781b      	ldrb	r3, [r3, #0]
10001fd4:	f7fe fa9e 	bl	10000514 <uart_init>
10001fd8:	2102      	movs	r1, #2
10001fda:	2000      	movs	r0, #0
10001fdc:	f7fe f9e8 	bl	100003b0 <gpio_set_function>
10001fe0:	2102      	movs	r1, #2
10001fe2:	2001      	movs	r0, #1
10001fe4:	f7fe f9e4 	bl	100003b0 <gpio_set_function>
10001fe8:	2101      	movs	r1, #1
10001fea:	4805      	ldr	r0, [pc, #20]	; (10002000 <stdio_uart_init+0x3c>)
10001fec:	f7ff ff8e 	bl	10001f0c <stdio_set_driver_enabled>
10001ff0:	bd10      	pop	{r4, pc}
10001ff2:	46c0      	nop			; (mov r8, r8)
10001ff4:	10002ac0 	.word	0x10002ac0
10001ff8:	10002ac4 	.word	0x10002ac4
10001ffc:	40034000 	.word	0x40034000
10002000:	20000220 	.word	0x20000220

10002004 <calloc>:
10002004:	0003      	movs	r3, r0
10002006:	b510      	push	{r4, lr}
10002008:	000a      	movs	r2, r1
1000200a:	4903      	ldr	r1, [pc, #12]	; (10002018 <calloc+0x14>)
1000200c:	6808      	ldr	r0, [r1, #0]
1000200e:	0019      	movs	r1, r3
10002010:	f000 f804 	bl	1000201c <_calloc_r>
10002014:	bd10      	pop	{r4, pc}
10002016:	46c0      	nop			; (mov r8, r8)
10002018:	20000234 	.word	0x20000234

1000201c <_calloc_r>:
1000201c:	b510      	push	{r4, lr}
1000201e:	4351      	muls	r1, r2
10002020:	f000 f834 	bl	1000208c <_malloc_r>
10002024:	1e04      	subs	r4, r0, #0
10002026:	d00e      	beq.n	10002046 <_calloc_r+0x2a>
10002028:	0003      	movs	r3, r0
1000202a:	3b08      	subs	r3, #8
1000202c:	685a      	ldr	r2, [r3, #4]
1000202e:	2303      	movs	r3, #3
10002030:	439a      	bics	r2, r3
10002032:	3a04      	subs	r2, #4
10002034:	2a24      	cmp	r2, #36	; 0x24
10002036:	d815      	bhi.n	10002064 <_calloc_r+0x48>
10002038:	0003      	movs	r3, r0
1000203a:	2a13      	cmp	r2, #19
1000203c:	d805      	bhi.n	1000204a <_calloc_r+0x2e>
1000203e:	2200      	movs	r2, #0
10002040:	601a      	str	r2, [r3, #0]
10002042:	605a      	str	r2, [r3, #4]
10002044:	609a      	str	r2, [r3, #8]
10002046:	0020      	movs	r0, r4
10002048:	bd10      	pop	{r4, pc}
1000204a:	2100      	movs	r1, #0
1000204c:	3308      	adds	r3, #8
1000204e:	6001      	str	r1, [r0, #0]
10002050:	6041      	str	r1, [r0, #4]
10002052:	2a1b      	cmp	r2, #27
10002054:	d9f3      	bls.n	1000203e <_calloc_r+0x22>
10002056:	6081      	str	r1, [r0, #8]
10002058:	60c1      	str	r1, [r0, #12]
1000205a:	2a24      	cmp	r2, #36	; 0x24
1000205c:	d006      	beq.n	1000206c <_calloc_r+0x50>
1000205e:	0003      	movs	r3, r0
10002060:	3310      	adds	r3, #16
10002062:	e7ec      	b.n	1000203e <_calloc_r+0x22>
10002064:	2100      	movs	r1, #0
10002066:	f7ff fe57 	bl	10001d18 <__wrap_memset>
1000206a:	e7ec      	b.n	10002046 <_calloc_r+0x2a>
1000206c:	0003      	movs	r3, r0
1000206e:	6101      	str	r1, [r0, #16]
10002070:	3318      	adds	r3, #24
10002072:	6141      	str	r1, [r0, #20]
10002074:	e7e3      	b.n	1000203e <_calloc_r+0x22>
10002076:	46c0      	nop			; (mov r8, r8)

10002078 <malloc>:
10002078:	b510      	push	{r4, lr}
1000207a:	4b03      	ldr	r3, [pc, #12]	; (10002088 <malloc+0x10>)
1000207c:	0001      	movs	r1, r0
1000207e:	6818      	ldr	r0, [r3, #0]
10002080:	f000 f804 	bl	1000208c <_malloc_r>
10002084:	bd10      	pop	{r4, pc}
10002086:	46c0      	nop			; (mov r8, r8)
10002088:	20000234 	.word	0x20000234

1000208c <_malloc_r>:
1000208c:	b5f0      	push	{r4, r5, r6, r7, lr}
1000208e:	464e      	mov	r6, r9
10002090:	4645      	mov	r5, r8
10002092:	46de      	mov	lr, fp
10002094:	4657      	mov	r7, sl
10002096:	b5e0      	push	{r5, r6, r7, lr}
10002098:	000d      	movs	r5, r1
1000209a:	350b      	adds	r5, #11
1000209c:	0006      	movs	r6, r0
1000209e:	b083      	sub	sp, #12
100020a0:	2d16      	cmp	r5, #22
100020a2:	d822      	bhi.n	100020ea <_malloc_r+0x5e>
100020a4:	2910      	cmp	r1, #16
100020a6:	d900      	bls.n	100020aa <_malloc_r+0x1e>
100020a8:	e0b2      	b.n	10002210 <_malloc_r+0x184>
100020aa:	f000 faaf 	bl	1000260c <__malloc_lock>
100020ae:	2510      	movs	r5, #16
100020b0:	2002      	movs	r0, #2
100020b2:	2318      	movs	r3, #24
100020b4:	4fcb      	ldr	r7, [pc, #812]	; (100023e4 <_malloc_r+0x358>)
100020b6:	18fb      	adds	r3, r7, r3
100020b8:	001a      	movs	r2, r3
100020ba:	685c      	ldr	r4, [r3, #4]
100020bc:	3a08      	subs	r2, #8
100020be:	4294      	cmp	r4, r2
100020c0:	d100      	bne.n	100020c4 <_malloc_r+0x38>
100020c2:	e0b5      	b.n	10002230 <_malloc_r+0x1a4>
100020c4:	2303      	movs	r3, #3
100020c6:	6862      	ldr	r2, [r4, #4]
100020c8:	439a      	bics	r2, r3
100020ca:	0013      	movs	r3, r2
100020cc:	68e2      	ldr	r2, [r4, #12]
100020ce:	68a1      	ldr	r1, [r4, #8]
100020d0:	60ca      	str	r2, [r1, #12]
100020d2:	6091      	str	r1, [r2, #8]
100020d4:	2201      	movs	r2, #1
100020d6:	18e3      	adds	r3, r4, r3
100020d8:	6859      	ldr	r1, [r3, #4]
100020da:	0030      	movs	r0, r6
100020dc:	430a      	orrs	r2, r1
100020de:	605a      	str	r2, [r3, #4]
100020e0:	f000 fa9c 	bl	1000261c <__malloc_unlock>
100020e4:	0020      	movs	r0, r4
100020e6:	3008      	adds	r0, #8
100020e8:	e095      	b.n	10002216 <_malloc_r+0x18a>
100020ea:	2307      	movs	r3, #7
100020ec:	439d      	bics	r5, r3
100020ee:	d500      	bpl.n	100020f2 <_malloc_r+0x66>
100020f0:	e08e      	b.n	10002210 <_malloc_r+0x184>
100020f2:	42a9      	cmp	r1, r5
100020f4:	d900      	bls.n	100020f8 <_malloc_r+0x6c>
100020f6:	e08b      	b.n	10002210 <_malloc_r+0x184>
100020f8:	f000 fa88 	bl	1000260c <__malloc_lock>
100020fc:	23fc      	movs	r3, #252	; 0xfc
100020fe:	005b      	lsls	r3, r3, #1
10002100:	429d      	cmp	r5, r3
10002102:	d200      	bcs.n	10002106 <_malloc_r+0x7a>
10002104:	e1a5      	b.n	10002452 <_malloc_r+0x3c6>
10002106:	0a68      	lsrs	r0, r5, #9
10002108:	d100      	bne.n	1000210c <_malloc_r+0x80>
1000210a:	e08b      	b.n	10002224 <_malloc_r+0x198>
1000210c:	2804      	cmp	r0, #4
1000210e:	d900      	bls.n	10002112 <_malloc_r+0x86>
10002110:	e178      	b.n	10002404 <_malloc_r+0x378>
10002112:	2338      	movs	r3, #56	; 0x38
10002114:	4698      	mov	r8, r3
10002116:	09a8      	lsrs	r0, r5, #6
10002118:	4480      	add	r8, r0
1000211a:	3039      	adds	r0, #57	; 0x39
1000211c:	00c1      	lsls	r1, r0, #3
1000211e:	4fb1      	ldr	r7, [pc, #708]	; (100023e4 <_malloc_r+0x358>)
10002120:	1879      	adds	r1, r7, r1
10002122:	684c      	ldr	r4, [r1, #4]
10002124:	3908      	subs	r1, #8
10002126:	42a1      	cmp	r1, r4
10002128:	d00e      	beq.n	10002148 <_malloc_r+0xbc>
1000212a:	2303      	movs	r3, #3
1000212c:	469c      	mov	ip, r3
1000212e:	e004      	b.n	1000213a <_malloc_r+0xae>
10002130:	2a00      	cmp	r2, #0
10002132:	dacb      	bge.n	100020cc <_malloc_r+0x40>
10002134:	68e4      	ldr	r4, [r4, #12]
10002136:	42a1      	cmp	r1, r4
10002138:	d006      	beq.n	10002148 <_malloc_r+0xbc>
1000213a:	4662      	mov	r2, ip
1000213c:	6863      	ldr	r3, [r4, #4]
1000213e:	4393      	bics	r3, r2
10002140:	1b5a      	subs	r2, r3, r5
10002142:	2a0f      	cmp	r2, #15
10002144:	ddf4      	ble.n	10002130 <_malloc_r+0xa4>
10002146:	4640      	mov	r0, r8
10002148:	003a      	movs	r2, r7
1000214a:	693c      	ldr	r4, [r7, #16]
1000214c:	3208      	adds	r2, #8
1000214e:	4294      	cmp	r4, r2
10002150:	d100      	bne.n	10002154 <_malloc_r+0xc8>
10002152:	e078      	b.n	10002246 <_malloc_r+0x1ba>
10002154:	2303      	movs	r3, #3
10002156:	6861      	ldr	r1, [r4, #4]
10002158:	4399      	bics	r1, r3
1000215a:	4689      	mov	r9, r1
1000215c:	000b      	movs	r3, r1
1000215e:	1b49      	subs	r1, r1, r5
10002160:	290f      	cmp	r1, #15
10002162:	dd00      	ble.n	10002166 <_malloc_r+0xda>
10002164:	e179      	b.n	1000245a <_malloc_r+0x3ce>
10002166:	617a      	str	r2, [r7, #20]
10002168:	613a      	str	r2, [r7, #16]
1000216a:	2900      	cmp	r1, #0
1000216c:	dab2      	bge.n	100020d4 <_malloc_r+0x48>
1000216e:	2280      	movs	r2, #128	; 0x80
10002170:	0092      	lsls	r2, r2, #2
10002172:	4591      	cmp	r9, r2
10002174:	d300      	bcc.n	10002178 <_malloc_r+0xec>
10002176:	e10e      	b.n	10002396 <_malloc_r+0x30a>
10002178:	0959      	lsrs	r1, r3, #5
1000217a:	08da      	lsrs	r2, r3, #3
1000217c:	2301      	movs	r3, #1
1000217e:	408b      	lsls	r3, r1
10002180:	00d2      	lsls	r2, r2, #3
10002182:	6879      	ldr	r1, [r7, #4]
10002184:	19d2      	adds	r2, r2, r7
10002186:	430b      	orrs	r3, r1
10002188:	6891      	ldr	r1, [r2, #8]
1000218a:	607b      	str	r3, [r7, #4]
1000218c:	60e2      	str	r2, [r4, #12]
1000218e:	60a1      	str	r1, [r4, #8]
10002190:	6094      	str	r4, [r2, #8]
10002192:	60cc      	str	r4, [r1, #12]
10002194:	2101      	movs	r1, #1
10002196:	1082      	asrs	r2, r0, #2
10002198:	4091      	lsls	r1, r2
1000219a:	4299      	cmp	r1, r3
1000219c:	d859      	bhi.n	10002252 <_malloc_r+0x1c6>
1000219e:	420b      	tst	r3, r1
100021a0:	d105      	bne.n	100021ae <_malloc_r+0x122>
100021a2:	2203      	movs	r2, #3
100021a4:	4390      	bics	r0, r2
100021a6:	0049      	lsls	r1, r1, #1
100021a8:	3004      	adds	r0, #4
100021aa:	420b      	tst	r3, r1
100021ac:	d0fb      	beq.n	100021a6 <_malloc_r+0x11a>
100021ae:	2303      	movs	r3, #3
100021b0:	4698      	mov	r8, r3
100021b2:	00c3      	lsls	r3, r0, #3
100021b4:	4699      	mov	r9, r3
100021b6:	44b9      	add	r9, r7
100021b8:	46cc      	mov	ip, r9
100021ba:	4682      	mov	sl, r0
100021bc:	4663      	mov	r3, ip
100021be:	68dc      	ldr	r4, [r3, #12]
100021c0:	45a4      	cmp	ip, r4
100021c2:	d107      	bne.n	100021d4 <_malloc_r+0x148>
100021c4:	e12a      	b.n	1000241c <_malloc_r+0x390>
100021c6:	2a00      	cmp	r2, #0
100021c8:	db00      	blt.n	100021cc <_malloc_r+0x140>
100021ca:	e133      	b.n	10002434 <_malloc_r+0x3a8>
100021cc:	68e4      	ldr	r4, [r4, #12]
100021ce:	45a4      	cmp	ip, r4
100021d0:	d100      	bne.n	100021d4 <_malloc_r+0x148>
100021d2:	e123      	b.n	1000241c <_malloc_r+0x390>
100021d4:	4642      	mov	r2, r8
100021d6:	6863      	ldr	r3, [r4, #4]
100021d8:	4393      	bics	r3, r2
100021da:	1b5a      	subs	r2, r3, r5
100021dc:	2a0f      	cmp	r2, #15
100021de:	ddf2      	ble.n	100021c6 <_malloc_r+0x13a>
100021e0:	2001      	movs	r0, #1
100021e2:	4680      	mov	r8, r0
100021e4:	1961      	adds	r1, r4, r5
100021e6:	4305      	orrs	r5, r0
100021e8:	6065      	str	r5, [r4, #4]
100021ea:	68a0      	ldr	r0, [r4, #8]
100021ec:	68e5      	ldr	r5, [r4, #12]
100021ee:	3708      	adds	r7, #8
100021f0:	60c5      	str	r5, [r0, #12]
100021f2:	60a8      	str	r0, [r5, #8]
100021f4:	4640      	mov	r0, r8
100021f6:	4310      	orrs	r0, r2
100021f8:	60f9      	str	r1, [r7, #12]
100021fa:	60b9      	str	r1, [r7, #8]
100021fc:	6048      	str	r0, [r1, #4]
100021fe:	60cf      	str	r7, [r1, #12]
10002200:	0030      	movs	r0, r6
10002202:	608f      	str	r7, [r1, #8]
10002204:	50e2      	str	r2, [r4, r3]
10002206:	f000 fa09 	bl	1000261c <__malloc_unlock>
1000220a:	0020      	movs	r0, r4
1000220c:	3008      	adds	r0, #8
1000220e:	e002      	b.n	10002216 <_malloc_r+0x18a>
10002210:	230c      	movs	r3, #12
10002212:	2000      	movs	r0, #0
10002214:	6033      	str	r3, [r6, #0]
10002216:	b003      	add	sp, #12
10002218:	bc3c      	pop	{r2, r3, r4, r5}
1000221a:	4690      	mov	r8, r2
1000221c:	4699      	mov	r9, r3
1000221e:	46a2      	mov	sl, r4
10002220:	46ab      	mov	fp, r5
10002222:	bdf0      	pop	{r4, r5, r6, r7, pc}
10002224:	2180      	movs	r1, #128	; 0x80
10002226:	233f      	movs	r3, #63	; 0x3f
10002228:	2040      	movs	r0, #64	; 0x40
1000222a:	4698      	mov	r8, r3
1000222c:	0089      	lsls	r1, r1, #2
1000222e:	e776      	b.n	1000211e <_malloc_r+0x92>
10002230:	68dc      	ldr	r4, [r3, #12]
10002232:	3002      	adds	r0, #2
10002234:	42a3      	cmp	r3, r4
10002236:	d000      	beq.n	1000223a <_malloc_r+0x1ae>
10002238:	e744      	b.n	100020c4 <_malloc_r+0x38>
1000223a:	003a      	movs	r2, r7
1000223c:	693c      	ldr	r4, [r7, #16]
1000223e:	3208      	adds	r2, #8
10002240:	4294      	cmp	r4, r2
10002242:	d000      	beq.n	10002246 <_malloc_r+0x1ba>
10002244:	e786      	b.n	10002154 <_malloc_r+0xc8>
10002246:	2101      	movs	r1, #1
10002248:	687b      	ldr	r3, [r7, #4]
1000224a:	1082      	asrs	r2, r0, #2
1000224c:	4091      	lsls	r1, r2
1000224e:	4299      	cmp	r1, r3
10002250:	d9a5      	bls.n	1000219e <_malloc_r+0x112>
10002252:	2303      	movs	r3, #3
10002254:	68bc      	ldr	r4, [r7, #8]
10002256:	6862      	ldr	r2, [r4, #4]
10002258:	439a      	bics	r2, r3
1000225a:	4691      	mov	r9, r2
1000225c:	4295      	cmp	r5, r2
1000225e:	d803      	bhi.n	10002268 <_malloc_r+0x1dc>
10002260:	1b53      	subs	r3, r2, r5
10002262:	2b0f      	cmp	r3, #15
10002264:	dd00      	ble.n	10002268 <_malloc_r+0x1dc>
10002266:	e088      	b.n	1000237a <_malloc_r+0x2ee>
10002268:	0023      	movs	r3, r4
1000226a:	444b      	add	r3, r9
1000226c:	4a5e      	ldr	r2, [pc, #376]	; (100023e8 <_malloc_r+0x35c>)
1000226e:	9301      	str	r3, [sp, #4]
10002270:	4b5e      	ldr	r3, [pc, #376]	; (100023ec <_malloc_r+0x360>)
10002272:	4693      	mov	fp, r2
10002274:	681b      	ldr	r3, [r3, #0]
10002276:	6812      	ldr	r2, [r2, #0]
10002278:	18eb      	adds	r3, r5, r3
1000227a:	3201      	adds	r2, #1
1000227c:	d100      	bne.n	10002280 <_malloc_r+0x1f4>
1000227e:	e13b      	b.n	100024f8 <_malloc_r+0x46c>
10002280:	4a5b      	ldr	r2, [pc, #364]	; (100023f0 <_malloc_r+0x364>)
10002282:	4694      	mov	ip, r2
10002284:	4463      	add	r3, ip
10002286:	0b1b      	lsrs	r3, r3, #12
10002288:	031b      	lsls	r3, r3, #12
1000228a:	9300      	str	r3, [sp, #0]
1000228c:	0030      	movs	r0, r6
1000228e:	9900      	ldr	r1, [sp, #0]
10002290:	f000 f9cc 	bl	1000262c <_sbrk_r>
10002294:	0003      	movs	r3, r0
10002296:	4680      	mov	r8, r0
10002298:	3301      	adds	r3, #1
1000229a:	d100      	bne.n	1000229e <_malloc_r+0x212>
1000229c:	e0f8      	b.n	10002490 <_malloc_r+0x404>
1000229e:	9b01      	ldr	r3, [sp, #4]
100022a0:	4283      	cmp	r3, r0
100022a2:	d900      	bls.n	100022a6 <_malloc_r+0x21a>
100022a4:	e0f2      	b.n	1000248c <_malloc_r+0x400>
100022a6:	4b53      	ldr	r3, [pc, #332]	; (100023f4 <_malloc_r+0x368>)
100022a8:	0019      	movs	r1, r3
100022aa:	469a      	mov	sl, r3
100022ac:	6809      	ldr	r1, [r1, #0]
100022ae:	9b00      	ldr	r3, [sp, #0]
100022b0:	468c      	mov	ip, r1
100022b2:	4651      	mov	r1, sl
100022b4:	4463      	add	r3, ip
100022b6:	600b      	str	r3, [r1, #0]
100022b8:	9901      	ldr	r1, [sp, #4]
100022ba:	001a      	movs	r2, r3
100022bc:	4281      	cmp	r1, r0
100022be:	d100      	bne.n	100022c2 <_malloc_r+0x236>
100022c0:	e150      	b.n	10002564 <_malloc_r+0x4d8>
100022c2:	465b      	mov	r3, fp
100022c4:	681b      	ldr	r3, [r3, #0]
100022c6:	3301      	adds	r3, #1
100022c8:	d100      	bne.n	100022cc <_malloc_r+0x240>
100022ca:	e155      	b.n	10002578 <_malloc_r+0x4ec>
100022cc:	4643      	mov	r3, r8
100022ce:	9901      	ldr	r1, [sp, #4]
100022d0:	1a5b      	subs	r3, r3, r1
100022d2:	189a      	adds	r2, r3, r2
100022d4:	4653      	mov	r3, sl
100022d6:	601a      	str	r2, [r3, #0]
100022d8:	2307      	movs	r3, #7
100022da:	4642      	mov	r2, r8
100022dc:	4641      	mov	r1, r8
100022de:	401a      	ands	r2, r3
100022e0:	9201      	str	r2, [sp, #4]
100022e2:	4219      	tst	r1, r3
100022e4:	d100      	bne.n	100022e8 <_malloc_r+0x25c>
100022e6:	e111      	b.n	1000250c <_malloc_r+0x480>
100022e8:	2308      	movs	r3, #8
100022ea:	4698      	mov	r8, r3
100022ec:	1a88      	subs	r0, r1, r2
100022ee:	4b42      	ldr	r3, [pc, #264]	; (100023f8 <_malloc_r+0x36c>)
100022f0:	9900      	ldr	r1, [sp, #0]
100022f2:	4480      	add	r8, r0
100022f4:	4441      	add	r1, r8
100022f6:	1a9b      	subs	r3, r3, r2
100022f8:	1a5b      	subs	r3, r3, r1
100022fa:	051b      	lsls	r3, r3, #20
100022fc:	0d1b      	lsrs	r3, r3, #20
100022fe:	9100      	str	r1, [sp, #0]
10002300:	0030      	movs	r0, r6
10002302:	0019      	movs	r1, r3
10002304:	469b      	mov	fp, r3
10002306:	f000 f991 	bl	1000262c <_sbrk_r>
1000230a:	1c43      	adds	r3, r0, #1
1000230c:	d100      	bne.n	10002310 <_malloc_r+0x284>
1000230e:	e14f      	b.n	100025b0 <_malloc_r+0x524>
10002310:	4643      	mov	r3, r8
10002312:	1ac0      	subs	r0, r0, r3
10002314:	0003      	movs	r3, r0
10002316:	445b      	add	r3, fp
10002318:	9300      	str	r3, [sp, #0]
1000231a:	4653      	mov	r3, sl
1000231c:	4652      	mov	r2, sl
1000231e:	681b      	ldr	r3, [r3, #0]
10002320:	2101      	movs	r1, #1
10002322:	445b      	add	r3, fp
10002324:	6013      	str	r3, [r2, #0]
10002326:	4642      	mov	r2, r8
10002328:	4640      	mov	r0, r8
1000232a:	60ba      	str	r2, [r7, #8]
1000232c:	9a00      	ldr	r2, [sp, #0]
1000232e:	430a      	orrs	r2, r1
10002330:	6042      	str	r2, [r0, #4]
10002332:	42bc      	cmp	r4, r7
10002334:	d100      	bne.n	10002338 <_malloc_r+0x2ac>
10002336:	e123      	b.n	10002580 <_malloc_r+0x4f4>
10002338:	464a      	mov	r2, r9
1000233a:	2a0f      	cmp	r2, #15
1000233c:	d800      	bhi.n	10002340 <_malloc_r+0x2b4>
1000233e:	e121      	b.n	10002584 <_malloc_r+0x4f8>
10002340:	2007      	movs	r0, #7
10002342:	3a0c      	subs	r2, #12
10002344:	4382      	bics	r2, r0
10002346:	6860      	ldr	r0, [r4, #4]
10002348:	4001      	ands	r1, r0
1000234a:	2005      	movs	r0, #5
1000234c:	4311      	orrs	r1, r2
1000234e:	6061      	str	r1, [r4, #4]
10002350:	18a1      	adds	r1, r4, r2
10002352:	6048      	str	r0, [r1, #4]
10002354:	6088      	str	r0, [r1, #8]
10002356:	2a0f      	cmp	r2, #15
10002358:	d900      	bls.n	1000235c <_malloc_r+0x2d0>
1000235a:	e134      	b.n	100025c6 <_malloc_r+0x53a>
1000235c:	4642      	mov	r2, r8
1000235e:	4644      	mov	r4, r8
10002360:	6852      	ldr	r2, [r2, #4]
10002362:	4926      	ldr	r1, [pc, #152]	; (100023fc <_malloc_r+0x370>)
10002364:	6808      	ldr	r0, [r1, #0]
10002366:	4298      	cmp	r0, r3
10002368:	d200      	bcs.n	1000236c <_malloc_r+0x2e0>
1000236a:	600b      	str	r3, [r1, #0]
1000236c:	4924      	ldr	r1, [pc, #144]	; (10002400 <_malloc_r+0x374>)
1000236e:	6808      	ldr	r0, [r1, #0]
10002370:	4298      	cmp	r0, r3
10002372:	d300      	bcc.n	10002376 <_malloc_r+0x2ea>
10002374:	e08e      	b.n	10002494 <_malloc_r+0x408>
10002376:	600b      	str	r3, [r1, #0]
10002378:	e08c      	b.n	10002494 <_malloc_r+0x408>
1000237a:	2201      	movs	r2, #1
1000237c:	0029      	movs	r1, r5
1000237e:	4313      	orrs	r3, r2
10002380:	4311      	orrs	r1, r2
10002382:	1965      	adds	r5, r4, r5
10002384:	6061      	str	r1, [r4, #4]
10002386:	0030      	movs	r0, r6
10002388:	60bd      	str	r5, [r7, #8]
1000238a:	606b      	str	r3, [r5, #4]
1000238c:	f000 f946 	bl	1000261c <__malloc_unlock>
10002390:	0020      	movs	r0, r4
10002392:	3008      	adds	r0, #8
10002394:	e73f      	b.n	10002216 <_malloc_r+0x18a>
10002396:	0a5a      	lsrs	r2, r3, #9
10002398:	2a04      	cmp	r2, #4
1000239a:	d971      	bls.n	10002480 <_malloc_r+0x3f4>
1000239c:	2a14      	cmp	r2, #20
1000239e:	d900      	bls.n	100023a2 <_malloc_r+0x316>
100023a0:	e0c4      	b.n	1000252c <_malloc_r+0x4a0>
100023a2:	0011      	movs	r1, r2
100023a4:	325c      	adds	r2, #92	; 0x5c
100023a6:	315b      	adds	r1, #91	; 0x5b
100023a8:	00d2      	lsls	r2, r2, #3
100023aa:	2308      	movs	r3, #8
100023ac:	425b      	negs	r3, r3
100023ae:	469c      	mov	ip, r3
100023b0:	18ba      	adds	r2, r7, r2
100023b2:	4494      	add	ip, r2
100023b4:	4663      	mov	r3, ip
100023b6:	689a      	ldr	r2, [r3, #8]
100023b8:	2303      	movs	r3, #3
100023ba:	4698      	mov	r8, r3
100023bc:	4594      	cmp	ip, r2
100023be:	d100      	bne.n	100023c2 <_malloc_r+0x336>
100023c0:	e09d      	b.n	100024fe <_malloc_r+0x472>
100023c2:	4643      	mov	r3, r8
100023c4:	6851      	ldr	r1, [r2, #4]
100023c6:	4399      	bics	r1, r3
100023c8:	4549      	cmp	r1, r9
100023ca:	d902      	bls.n	100023d2 <_malloc_r+0x346>
100023cc:	6892      	ldr	r2, [r2, #8]
100023ce:	4594      	cmp	ip, r2
100023d0:	d1f7      	bne.n	100023c2 <_malloc_r+0x336>
100023d2:	68d3      	ldr	r3, [r2, #12]
100023d4:	469c      	mov	ip, r3
100023d6:	687b      	ldr	r3, [r7, #4]
100023d8:	4661      	mov	r1, ip
100023da:	60a2      	str	r2, [r4, #8]
100023dc:	60e1      	str	r1, [r4, #12]
100023de:	608c      	str	r4, [r1, #8]
100023e0:	60d4      	str	r4, [r2, #12]
100023e2:	e6d7      	b.n	10002194 <_malloc_r+0x108>
100023e4:	20000660 	.word	0x20000660
100023e8:	20000a68 	.word	0x20000a68
100023ec:	20000ad8 	.word	0x20000ad8
100023f0:	0000100f 	.word	0x0000100f
100023f4:	20000aa8 	.word	0x20000aa8
100023f8:	00001008 	.word	0x00001008
100023fc:	20000ad0 	.word	0x20000ad0
10002400:	20000ad4 	.word	0x20000ad4
10002404:	2814      	cmp	r0, #20
10002406:	d952      	bls.n	100024ae <_malloc_r+0x422>
10002408:	2854      	cmp	r0, #84	; 0x54
1000240a:	d900      	bls.n	1000240e <_malloc_r+0x382>
1000240c:	e096      	b.n	1000253c <_malloc_r+0x4b0>
1000240e:	236e      	movs	r3, #110	; 0x6e
10002410:	4698      	mov	r8, r3
10002412:	0b28      	lsrs	r0, r5, #12
10002414:	4480      	add	r8, r0
10002416:	306f      	adds	r0, #111	; 0x6f
10002418:	00c1      	lsls	r1, r0, #3
1000241a:	e680      	b.n	1000211e <_malloc_r+0x92>
1000241c:	2308      	movs	r3, #8
1000241e:	469b      	mov	fp, r3
10002420:	3b07      	subs	r3, #7
10002422:	44dc      	add	ip, fp
10002424:	469b      	mov	fp, r3
10002426:	44da      	add	sl, fp
10002428:	4643      	mov	r3, r8
1000242a:	4652      	mov	r2, sl
1000242c:	4213      	tst	r3, r2
1000242e:	d000      	beq.n	10002432 <_malloc_r+0x3a6>
10002430:	e6c4      	b.n	100021bc <_malloc_r+0x130>
10002432:	e04c      	b.n	100024ce <_malloc_r+0x442>
10002434:	2201      	movs	r2, #1
10002436:	18e3      	adds	r3, r4, r3
10002438:	6859      	ldr	r1, [r3, #4]
1000243a:	0030      	movs	r0, r6
1000243c:	430a      	orrs	r2, r1
1000243e:	605a      	str	r2, [r3, #4]
10002440:	68e3      	ldr	r3, [r4, #12]
10002442:	68a2      	ldr	r2, [r4, #8]
10002444:	60d3      	str	r3, [r2, #12]
10002446:	609a      	str	r2, [r3, #8]
10002448:	f000 f8e8 	bl	1000261c <__malloc_unlock>
1000244c:	0020      	movs	r0, r4
1000244e:	3008      	adds	r0, #8
10002450:	e6e1      	b.n	10002216 <_malloc_r+0x18a>
10002452:	002b      	movs	r3, r5
10002454:	08e8      	lsrs	r0, r5, #3
10002456:	3308      	adds	r3, #8
10002458:	e62c      	b.n	100020b4 <_malloc_r+0x28>
1000245a:	2301      	movs	r3, #1
1000245c:	1960      	adds	r0, r4, r5
1000245e:	431d      	orrs	r5, r3
10002460:	6065      	str	r5, [r4, #4]
10002462:	6178      	str	r0, [r7, #20]
10002464:	6138      	str	r0, [r7, #16]
10002466:	60c2      	str	r2, [r0, #12]
10002468:	6082      	str	r2, [r0, #8]
1000246a:	001a      	movs	r2, r3
1000246c:	464b      	mov	r3, r9
1000246e:	430a      	orrs	r2, r1
10002470:	6042      	str	r2, [r0, #4]
10002472:	0030      	movs	r0, r6
10002474:	50e1      	str	r1, [r4, r3]
10002476:	f000 f8d1 	bl	1000261c <__malloc_unlock>
1000247a:	0020      	movs	r0, r4
1000247c:	3008      	adds	r0, #8
1000247e:	e6ca      	b.n	10002216 <_malloc_r+0x18a>
10002480:	099a      	lsrs	r2, r3, #6
10002482:	0011      	movs	r1, r2
10002484:	3239      	adds	r2, #57	; 0x39
10002486:	3138      	adds	r1, #56	; 0x38
10002488:	00d2      	lsls	r2, r2, #3
1000248a:	e78e      	b.n	100023aa <_malloc_r+0x31e>
1000248c:	42bc      	cmp	r4, r7
1000248e:	d060      	beq.n	10002552 <_malloc_r+0x4c6>
10002490:	68bc      	ldr	r4, [r7, #8]
10002492:	6862      	ldr	r2, [r4, #4]
10002494:	2303      	movs	r3, #3
10002496:	439a      	bics	r2, r3
10002498:	1b53      	subs	r3, r2, r5
1000249a:	4295      	cmp	r5, r2
1000249c:	d802      	bhi.n	100024a4 <_malloc_r+0x418>
1000249e:	2b0f      	cmp	r3, #15
100024a0:	dd00      	ble.n	100024a4 <_malloc_r+0x418>
100024a2:	e76a      	b.n	1000237a <_malloc_r+0x2ee>
100024a4:	0030      	movs	r0, r6
100024a6:	f000 f8b9 	bl	1000261c <__malloc_unlock>
100024aa:	2000      	movs	r0, #0
100024ac:	e6b3      	b.n	10002216 <_malloc_r+0x18a>
100024ae:	235b      	movs	r3, #91	; 0x5b
100024b0:	4698      	mov	r8, r3
100024b2:	4480      	add	r8, r0
100024b4:	305c      	adds	r0, #92	; 0x5c
100024b6:	00c1      	lsls	r1, r0, #3
100024b8:	e631      	b.n	1000211e <_malloc_r+0x92>
100024ba:	2308      	movs	r3, #8
100024bc:	425b      	negs	r3, r3
100024be:	469c      	mov	ip, r3
100024c0:	44e1      	add	r9, ip
100024c2:	464b      	mov	r3, r9
100024c4:	689b      	ldr	r3, [r3, #8]
100024c6:	3801      	subs	r0, #1
100024c8:	454b      	cmp	r3, r9
100024ca:	d000      	beq.n	100024ce <_malloc_r+0x442>
100024cc:	e098      	b.n	10002600 <_malloc_r+0x574>
100024ce:	4643      	mov	r3, r8
100024d0:	4203      	tst	r3, r0
100024d2:	d1f2      	bne.n	100024ba <_malloc_r+0x42e>
100024d4:	687b      	ldr	r3, [r7, #4]
100024d6:	438b      	bics	r3, r1
100024d8:	607b      	str	r3, [r7, #4]
100024da:	0049      	lsls	r1, r1, #1
100024dc:	4299      	cmp	r1, r3
100024de:	d900      	bls.n	100024e2 <_malloc_r+0x456>
100024e0:	e6b7      	b.n	10002252 <_malloc_r+0x1c6>
100024e2:	2900      	cmp	r1, #0
100024e4:	d104      	bne.n	100024f0 <_malloc_r+0x464>
100024e6:	e6b4      	b.n	10002252 <_malloc_r+0x1c6>
100024e8:	2204      	movs	r2, #4
100024ea:	4694      	mov	ip, r2
100024ec:	0049      	lsls	r1, r1, #1
100024ee:	44e2      	add	sl, ip
100024f0:	420b      	tst	r3, r1
100024f2:	d0f9      	beq.n	100024e8 <_malloc_r+0x45c>
100024f4:	4650      	mov	r0, sl
100024f6:	e65c      	b.n	100021b2 <_malloc_r+0x126>
100024f8:	3310      	adds	r3, #16
100024fa:	9300      	str	r3, [sp, #0]
100024fc:	e6c6      	b.n	1000228c <_malloc_r+0x200>
100024fe:	1089      	asrs	r1, r1, #2
10002500:	3b02      	subs	r3, #2
10002502:	408b      	lsls	r3, r1
10002504:	6879      	ldr	r1, [r7, #4]
10002506:	430b      	orrs	r3, r1
10002508:	607b      	str	r3, [r7, #4]
1000250a:	e765      	b.n	100023d8 <_malloc_r+0x34c>
1000250c:	9b00      	ldr	r3, [sp, #0]
1000250e:	0030      	movs	r0, r6
10002510:	4443      	add	r3, r8
10002512:	425b      	negs	r3, r3
10002514:	051b      	lsls	r3, r3, #20
10002516:	0d1b      	lsrs	r3, r3, #20
10002518:	0019      	movs	r1, r3
1000251a:	469b      	mov	fp, r3
1000251c:	f000 f886 	bl	1000262c <_sbrk_r>
10002520:	1c43      	adds	r3, r0, #1
10002522:	d000      	beq.n	10002526 <_malloc_r+0x49a>
10002524:	e6f4      	b.n	10002310 <_malloc_r+0x284>
10002526:	2300      	movs	r3, #0
10002528:	469b      	mov	fp, r3
1000252a:	e6f6      	b.n	1000231a <_malloc_r+0x28e>
1000252c:	2a54      	cmp	r2, #84	; 0x54
1000252e:	d82b      	bhi.n	10002588 <_malloc_r+0x4fc>
10002530:	0b1a      	lsrs	r2, r3, #12
10002532:	0011      	movs	r1, r2
10002534:	326f      	adds	r2, #111	; 0x6f
10002536:	316e      	adds	r1, #110	; 0x6e
10002538:	00d2      	lsls	r2, r2, #3
1000253a:	e736      	b.n	100023aa <_malloc_r+0x31e>
1000253c:	23aa      	movs	r3, #170	; 0xaa
1000253e:	005b      	lsls	r3, r3, #1
10002540:	4298      	cmp	r0, r3
10002542:	d82b      	bhi.n	1000259c <_malloc_r+0x510>
10002544:	3bdd      	subs	r3, #221	; 0xdd
10002546:	4698      	mov	r8, r3
10002548:	0be8      	lsrs	r0, r5, #15
1000254a:	4480      	add	r8, r0
1000254c:	3078      	adds	r0, #120	; 0x78
1000254e:	00c1      	lsls	r1, r0, #3
10002550:	e5e5      	b.n	1000211e <_malloc_r+0x92>
10002552:	4b2c      	ldr	r3, [pc, #176]	; (10002604 <_malloc_r+0x578>)
10002554:	9a00      	ldr	r2, [sp, #0]
10002556:	469a      	mov	sl, r3
10002558:	681b      	ldr	r3, [r3, #0]
1000255a:	469c      	mov	ip, r3
1000255c:	4653      	mov	r3, sl
1000255e:	4462      	add	r2, ip
10002560:	601a      	str	r2, [r3, #0]
10002562:	e6ae      	b.n	100022c2 <_malloc_r+0x236>
10002564:	0509      	lsls	r1, r1, #20
10002566:	d000      	beq.n	1000256a <_malloc_r+0x4de>
10002568:	e6ab      	b.n	100022c2 <_malloc_r+0x236>
1000256a:	9a00      	ldr	r2, [sp, #0]
1000256c:	68bc      	ldr	r4, [r7, #8]
1000256e:	444a      	add	r2, r9
10002570:	3101      	adds	r1, #1
10002572:	430a      	orrs	r2, r1
10002574:	6062      	str	r2, [r4, #4]
10002576:	e6f4      	b.n	10002362 <_malloc_r+0x2d6>
10002578:	465b      	mov	r3, fp
1000257a:	4642      	mov	r2, r8
1000257c:	601a      	str	r2, [r3, #0]
1000257e:	e6ab      	b.n	100022d8 <_malloc_r+0x24c>
10002580:	4644      	mov	r4, r8
10002582:	e6ee      	b.n	10002362 <_malloc_r+0x2d6>
10002584:	6041      	str	r1, [r0, #4]
10002586:	e78d      	b.n	100024a4 <_malloc_r+0x418>
10002588:	21aa      	movs	r1, #170	; 0xaa
1000258a:	0049      	lsls	r1, r1, #1
1000258c:	428a      	cmp	r2, r1
1000258e:	d824      	bhi.n	100025da <_malloc_r+0x54e>
10002590:	0bda      	lsrs	r2, r3, #15
10002592:	0011      	movs	r1, r2
10002594:	3278      	adds	r2, #120	; 0x78
10002596:	3177      	adds	r1, #119	; 0x77
10002598:	00d2      	lsls	r2, r2, #3
1000259a:	e706      	b.n	100023aa <_malloc_r+0x31e>
1000259c:	4b1a      	ldr	r3, [pc, #104]	; (10002608 <_malloc_r+0x57c>)
1000259e:	4298      	cmp	r0, r3
100025a0:	d824      	bhi.n	100025ec <_malloc_r+0x560>
100025a2:	237c      	movs	r3, #124	; 0x7c
100025a4:	4698      	mov	r8, r3
100025a6:	0ca8      	lsrs	r0, r5, #18
100025a8:	4480      	add	r8, r0
100025aa:	307d      	adds	r0, #125	; 0x7d
100025ac:	00c1      	lsls	r1, r0, #3
100025ae:	e5b6      	b.n	1000211e <_malloc_r+0x92>
100025b0:	9a00      	ldr	r2, [sp, #0]
100025b2:	9b01      	ldr	r3, [sp, #4]
100025b4:	4694      	mov	ip, r2
100025b6:	4642      	mov	r2, r8
100025b8:	3b08      	subs	r3, #8
100025ba:	4463      	add	r3, ip
100025bc:	1a9b      	subs	r3, r3, r2
100025be:	9300      	str	r3, [sp, #0]
100025c0:	2300      	movs	r3, #0
100025c2:	469b      	mov	fp, r3
100025c4:	e6a9      	b.n	1000231a <_malloc_r+0x28e>
100025c6:	0021      	movs	r1, r4
100025c8:	0030      	movs	r0, r6
100025ca:	3108      	adds	r1, #8
100025cc:	f000 f8bc 	bl	10002748 <_free_r>
100025d0:	4653      	mov	r3, sl
100025d2:	68bc      	ldr	r4, [r7, #8]
100025d4:	681b      	ldr	r3, [r3, #0]
100025d6:	6862      	ldr	r2, [r4, #4]
100025d8:	e6c3      	b.n	10002362 <_malloc_r+0x2d6>
100025da:	490b      	ldr	r1, [pc, #44]	; (10002608 <_malloc_r+0x57c>)
100025dc:	428a      	cmp	r2, r1
100025de:	d80b      	bhi.n	100025f8 <_malloc_r+0x56c>
100025e0:	0c9a      	lsrs	r2, r3, #18
100025e2:	0011      	movs	r1, r2
100025e4:	327d      	adds	r2, #125	; 0x7d
100025e6:	317c      	adds	r1, #124	; 0x7c
100025e8:	00d2      	lsls	r2, r2, #3
100025ea:	e6de      	b.n	100023aa <_malloc_r+0x31e>
100025ec:	21fe      	movs	r1, #254	; 0xfe
100025ee:	237e      	movs	r3, #126	; 0x7e
100025f0:	207f      	movs	r0, #127	; 0x7f
100025f2:	4698      	mov	r8, r3
100025f4:	0089      	lsls	r1, r1, #2
100025f6:	e592      	b.n	1000211e <_malloc_r+0x92>
100025f8:	22fe      	movs	r2, #254	; 0xfe
100025fa:	217e      	movs	r1, #126	; 0x7e
100025fc:	0092      	lsls	r2, r2, #2
100025fe:	e6d4      	b.n	100023aa <_malloc_r+0x31e>
10002600:	687b      	ldr	r3, [r7, #4]
10002602:	e76a      	b.n	100024da <_malloc_r+0x44e>
10002604:	20000aa8 	.word	0x20000aa8
10002608:	00000554 	.word	0x00000554

1000260c <__malloc_lock>:
1000260c:	b510      	push	{r4, lr}
1000260e:	4802      	ldr	r0, [pc, #8]	; (10002618 <__malloc_lock+0xc>)
10002610:	f000 f97c 	bl	1000290c <__retarget_lock_acquire_recursive>
10002614:	bd10      	pop	{r4, pc}
10002616:	46c0      	nop			; (mov r8, r8)
10002618:	20000d64 	.word	0x20000d64

1000261c <__malloc_unlock>:
1000261c:	b510      	push	{r4, lr}
1000261e:	4802      	ldr	r0, [pc, #8]	; (10002628 <__malloc_unlock+0xc>)
10002620:	f000 f976 	bl	10002910 <__retarget_lock_release_recursive>
10002624:	bd10      	pop	{r4, pc}
10002626:	46c0      	nop			; (mov r8, r8)
10002628:	20000d64 	.word	0x20000d64

1000262c <_sbrk_r>:
1000262c:	2300      	movs	r3, #0
1000262e:	b570      	push	{r4, r5, r6, lr}
10002630:	4d06      	ldr	r5, [pc, #24]	; (1000264c <_sbrk_r+0x20>)
10002632:	0004      	movs	r4, r0
10002634:	0008      	movs	r0, r1
10002636:	602b      	str	r3, [r5, #0]
10002638:	f7fe fe7a 	bl	10001330 <_sbrk>
1000263c:	1c43      	adds	r3, r0, #1
1000263e:	d000      	beq.n	10002642 <_sbrk_r+0x16>
10002640:	bd70      	pop	{r4, r5, r6, pc}
10002642:	682b      	ldr	r3, [r5, #0]
10002644:	2b00      	cmp	r3, #0
10002646:	d0fb      	beq.n	10002640 <_sbrk_r+0x14>
10002648:	6023      	str	r3, [r4, #0]
1000264a:	e7f9      	b.n	10002640 <_sbrk_r+0x14>
1000264c:	20000d78 	.word	0x20000d78

10002650 <strlen>:
10002650:	b510      	push	{r4, lr}
10002652:	0783      	lsls	r3, r0, #30
10002654:	d00a      	beq.n	1000266c <strlen+0x1c>
10002656:	0003      	movs	r3, r0
10002658:	2103      	movs	r1, #3
1000265a:	e002      	b.n	10002662 <strlen+0x12>
1000265c:	3301      	adds	r3, #1
1000265e:	420b      	tst	r3, r1
10002660:	d005      	beq.n	1000266e <strlen+0x1e>
10002662:	781a      	ldrb	r2, [r3, #0]
10002664:	2a00      	cmp	r2, #0
10002666:	d1f9      	bne.n	1000265c <strlen+0xc>
10002668:	1a18      	subs	r0, r3, r0
1000266a:	bd10      	pop	{r4, pc}
1000266c:	0003      	movs	r3, r0
1000266e:	6819      	ldr	r1, [r3, #0]
10002670:	4a0c      	ldr	r2, [pc, #48]	; (100026a4 <strlen+0x54>)
10002672:	4c0d      	ldr	r4, [pc, #52]	; (100026a8 <strlen+0x58>)
10002674:	188a      	adds	r2, r1, r2
10002676:	438a      	bics	r2, r1
10002678:	4222      	tst	r2, r4
1000267a:	d10f      	bne.n	1000269c <strlen+0x4c>
1000267c:	6859      	ldr	r1, [r3, #4]
1000267e:	4a09      	ldr	r2, [pc, #36]	; (100026a4 <strlen+0x54>)
10002680:	3304      	adds	r3, #4
10002682:	188a      	adds	r2, r1, r2
10002684:	438a      	bics	r2, r1
10002686:	4222      	tst	r2, r4
10002688:	d108      	bne.n	1000269c <strlen+0x4c>
1000268a:	6859      	ldr	r1, [r3, #4]
1000268c:	4a05      	ldr	r2, [pc, #20]	; (100026a4 <strlen+0x54>)
1000268e:	3304      	adds	r3, #4
10002690:	188a      	adds	r2, r1, r2
10002692:	438a      	bics	r2, r1
10002694:	4222      	tst	r2, r4
10002696:	d0f1      	beq.n	1000267c <strlen+0x2c>
10002698:	e000      	b.n	1000269c <strlen+0x4c>
1000269a:	3301      	adds	r3, #1
1000269c:	781a      	ldrb	r2, [r3, #0]
1000269e:	2a00      	cmp	r2, #0
100026a0:	d1fb      	bne.n	1000269a <strlen+0x4a>
100026a2:	e7e1      	b.n	10002668 <strlen+0x18>
100026a4:	fefefeff 	.word	0xfefefeff
100026a8:	80808080 	.word	0x80808080

100026ac <_malloc_trim_r>:
100026ac:	b5f8      	push	{r3, r4, r5, r6, r7, lr}
100026ae:	000c      	movs	r4, r1
100026b0:	0005      	movs	r5, r0
100026b2:	f7ff ffab 	bl	1000260c <__malloc_lock>
100026b6:	4f20      	ldr	r7, [pc, #128]	; (10002738 <_malloc_trim_r+0x8c>)
100026b8:	68bb      	ldr	r3, [r7, #8]
100026ba:	685e      	ldr	r6, [r3, #4]
100026bc:	2303      	movs	r3, #3
100026be:	439e      	bics	r6, r3
100026c0:	4b1e      	ldr	r3, [pc, #120]	; (1000273c <_malloc_trim_r+0x90>)
100026c2:	1b34      	subs	r4, r6, r4
100026c4:	469c      	mov	ip, r3
100026c6:	4464      	add	r4, ip
100026c8:	0b24      	lsrs	r4, r4, #12
100026ca:	3c01      	subs	r4, #1
100026cc:	3311      	adds	r3, #17
100026ce:	0324      	lsls	r4, r4, #12
100026d0:	429c      	cmp	r4, r3
100026d2:	db07      	blt.n	100026e4 <_malloc_trim_r+0x38>
100026d4:	2100      	movs	r1, #0
100026d6:	0028      	movs	r0, r5
100026d8:	f7ff ffa8 	bl	1000262c <_sbrk_r>
100026dc:	68bb      	ldr	r3, [r7, #8]
100026de:	199b      	adds	r3, r3, r6
100026e0:	4298      	cmp	r0, r3
100026e2:	d004      	beq.n	100026ee <_malloc_trim_r+0x42>
100026e4:	0028      	movs	r0, r5
100026e6:	f7ff ff99 	bl	1000261c <__malloc_unlock>
100026ea:	2000      	movs	r0, #0
100026ec:	bdf8      	pop	{r3, r4, r5, r6, r7, pc}
100026ee:	0028      	movs	r0, r5
100026f0:	4261      	negs	r1, r4
100026f2:	f7ff ff9b 	bl	1000262c <_sbrk_r>
100026f6:	1c43      	adds	r3, r0, #1
100026f8:	d00d      	beq.n	10002716 <_malloc_trim_r+0x6a>
100026fa:	2201      	movs	r2, #1
100026fc:	68bb      	ldr	r3, [r7, #8]
100026fe:	1b36      	subs	r6, r6, r4
10002700:	4316      	orrs	r6, r2
10002702:	605e      	str	r6, [r3, #4]
10002704:	4b0e      	ldr	r3, [pc, #56]	; (10002740 <_malloc_trim_r+0x94>)
10002706:	0028      	movs	r0, r5
10002708:	681a      	ldr	r2, [r3, #0]
1000270a:	1b14      	subs	r4, r2, r4
1000270c:	601c      	str	r4, [r3, #0]
1000270e:	f7ff ff85 	bl	1000261c <__malloc_unlock>
10002712:	2001      	movs	r0, #1
10002714:	e7ea      	b.n	100026ec <_malloc_trim_r+0x40>
10002716:	2100      	movs	r1, #0
10002718:	0028      	movs	r0, r5
1000271a:	f7ff ff87 	bl	1000262c <_sbrk_r>
1000271e:	68ba      	ldr	r2, [r7, #8]
10002720:	1a83      	subs	r3, r0, r2
10002722:	2b0f      	cmp	r3, #15
10002724:	ddde      	ble.n	100026e4 <_malloc_trim_r+0x38>
10002726:	4907      	ldr	r1, [pc, #28]	; (10002744 <_malloc_trim_r+0x98>)
10002728:	6809      	ldr	r1, [r1, #0]
1000272a:	1a40      	subs	r0, r0, r1
1000272c:	4904      	ldr	r1, [pc, #16]	; (10002740 <_malloc_trim_r+0x94>)
1000272e:	6008      	str	r0, [r1, #0]
10002730:	2101      	movs	r1, #1
10002732:	430b      	orrs	r3, r1
10002734:	6053      	str	r3, [r2, #4]
10002736:	e7d5      	b.n	100026e4 <_malloc_trim_r+0x38>
10002738:	20000660 	.word	0x20000660
1000273c:	00000fef 	.word	0x00000fef
10002740:	20000aa8 	.word	0x20000aa8
10002744:	20000a68 	.word	0x20000a68

10002748 <_free_r>:
10002748:	b5f0      	push	{r4, r5, r6, r7, lr}
1000274a:	46c6      	mov	lr, r8
1000274c:	0005      	movs	r5, r0
1000274e:	000c      	movs	r4, r1
10002750:	b500      	push	{lr}
10002752:	2900      	cmp	r1, #0
10002754:	d04f      	beq.n	100027f6 <_free_r+0xae>
10002756:	f7ff ff59 	bl	1000260c <__malloc_lock>
1000275a:	0021      	movs	r1, r4
1000275c:	3908      	subs	r1, #8
1000275e:	684c      	ldr	r4, [r1, #4]
10002760:	2601      	movs	r6, #1
10002762:	0022      	movs	r2, r4
10002764:	2003      	movs	r0, #3
10002766:	43b2      	bics	r2, r6
10002768:	188f      	adds	r7, r1, r2
1000276a:	687b      	ldr	r3, [r7, #4]
1000276c:	4383      	bics	r3, r0
1000276e:	4862      	ldr	r0, [pc, #392]	; (100028f8 <_free_r+0x1b0>)
10002770:	4698      	mov	r8, r3
10002772:	6883      	ldr	r3, [r0, #8]
10002774:	42bb      	cmp	r3, r7
10002776:	d06b      	beq.n	10002850 <_free_r+0x108>
10002778:	4643      	mov	r3, r8
1000277a:	607b      	str	r3, [r7, #4]
1000277c:	4226      	tst	r6, r4
1000277e:	d11e      	bne.n	100027be <_free_r+0x76>
10002780:	2308      	movs	r3, #8
10002782:	469c      	mov	ip, r3
10002784:	680c      	ldr	r4, [r1, #0]
10002786:	4484      	add	ip, r0
10002788:	1b09      	subs	r1, r1, r4
1000278a:	1912      	adds	r2, r2, r4
1000278c:	688c      	ldr	r4, [r1, #8]
1000278e:	4564      	cmp	r4, ip
10002790:	d04f      	beq.n	10002832 <_free_r+0xea>
10002792:	68cb      	ldr	r3, [r1, #12]
10002794:	60e3      	str	r3, [r4, #12]
10002796:	609c      	str	r4, [r3, #8]
10002798:	4643      	mov	r3, r8
1000279a:	18fc      	adds	r4, r7, r3
1000279c:	6864      	ldr	r4, [r4, #4]
1000279e:	4234      	tst	r4, r6
100027a0:	d111      	bne.n	100027c6 <_free_r+0x7e>
100027a2:	68bb      	ldr	r3, [r7, #8]
100027a4:	4c55      	ldr	r4, [pc, #340]	; (100028fc <_free_r+0x1b4>)
100027a6:	4442      	add	r2, r8
100027a8:	42a3      	cmp	r3, r4
100027aa:	d100      	bne.n	100027ae <_free_r+0x66>
100027ac:	e07f      	b.n	100028ae <_free_r+0x166>
100027ae:	68fc      	ldr	r4, [r7, #12]
100027b0:	60dc      	str	r4, [r3, #12]
100027b2:	60a3      	str	r3, [r4, #8]
100027b4:	2301      	movs	r3, #1
100027b6:	4313      	orrs	r3, r2
100027b8:	604b      	str	r3, [r1, #4]
100027ba:	508a      	str	r2, [r1, r2]
100027bc:	e006      	b.n	100027cc <_free_r+0x84>
100027be:	18fc      	adds	r4, r7, r3
100027c0:	6864      	ldr	r4, [r4, #4]
100027c2:	4234      	tst	r4, r6
100027c4:	d0ed      	beq.n	100027a2 <_free_r+0x5a>
100027c6:	4316      	orrs	r6, r2
100027c8:	604e      	str	r6, [r1, #4]
100027ca:	603a      	str	r2, [r7, #0]
100027cc:	2380      	movs	r3, #128	; 0x80
100027ce:	009b      	lsls	r3, r3, #2
100027d0:	429a      	cmp	r2, r3
100027d2:	d213      	bcs.n	100027fc <_free_r+0xb4>
100027d4:	0954      	lsrs	r4, r2, #5
100027d6:	08d3      	lsrs	r3, r2, #3
100027d8:	2201      	movs	r2, #1
100027da:	40a2      	lsls	r2, r4
100027dc:	6844      	ldr	r4, [r0, #4]
100027de:	00db      	lsls	r3, r3, #3
100027e0:	4322      	orrs	r2, r4
100027e2:	6042      	str	r2, [r0, #4]
100027e4:	1818      	adds	r0, r3, r0
100027e6:	6883      	ldr	r3, [r0, #8]
100027e8:	60c8      	str	r0, [r1, #12]
100027ea:	608b      	str	r3, [r1, #8]
100027ec:	6081      	str	r1, [r0, #8]
100027ee:	60d9      	str	r1, [r3, #12]
100027f0:	0028      	movs	r0, r5
100027f2:	f7ff ff13 	bl	1000261c <__malloc_unlock>
100027f6:	bc04      	pop	{r2}
100027f8:	4690      	mov	r8, r2
100027fa:	bdf0      	pop	{r4, r5, r6, r7, pc}
100027fc:	0a53      	lsrs	r3, r2, #9
100027fe:	2b04      	cmp	r3, #4
10002800:	d83f      	bhi.n	10002882 <_free_r+0x13a>
10002802:	0994      	lsrs	r4, r2, #6
10002804:	0026      	movs	r6, r4
10002806:	3439      	adds	r4, #57	; 0x39
10002808:	3638      	adds	r6, #56	; 0x38
1000280a:	00e4      	lsls	r4, r4, #3
1000280c:	1904      	adds	r4, r0, r4
1000280e:	6823      	ldr	r3, [r4, #0]
10002810:	3c08      	subs	r4, #8
10002812:	2703      	movs	r7, #3
10002814:	429c      	cmp	r4, r3
10002816:	d043      	beq.n	100028a0 <_free_r+0x158>
10002818:	6858      	ldr	r0, [r3, #4]
1000281a:	43b8      	bics	r0, r7
1000281c:	4290      	cmp	r0, r2
1000281e:	d902      	bls.n	10002826 <_free_r+0xde>
10002820:	689b      	ldr	r3, [r3, #8]
10002822:	429c      	cmp	r4, r3
10002824:	d1f8      	bne.n	10002818 <_free_r+0xd0>
10002826:	68dc      	ldr	r4, [r3, #12]
10002828:	60cc      	str	r4, [r1, #12]
1000282a:	608b      	str	r3, [r1, #8]
1000282c:	60a1      	str	r1, [r4, #8]
1000282e:	60d9      	str	r1, [r3, #12]
10002830:	e7de      	b.n	100027f0 <_free_r+0xa8>
10002832:	4643      	mov	r3, r8
10002834:	18f8      	adds	r0, r7, r3
10002836:	6840      	ldr	r0, [r0, #4]
10002838:	4230      	tst	r0, r6
1000283a:	d158      	bne.n	100028ee <_free_r+0x1a6>
1000283c:	0013      	movs	r3, r2
1000283e:	68b8      	ldr	r0, [r7, #8]
10002840:	68fa      	ldr	r2, [r7, #12]
10002842:	4443      	add	r3, r8
10002844:	431e      	orrs	r6, r3
10002846:	60c2      	str	r2, [r0, #12]
10002848:	6090      	str	r0, [r2, #8]
1000284a:	604e      	str	r6, [r1, #4]
1000284c:	50cb      	str	r3, [r1, r3]
1000284e:	e7cf      	b.n	100027f0 <_free_r+0xa8>
10002850:	0013      	movs	r3, r2
10002852:	4443      	add	r3, r8
10002854:	4226      	tst	r6, r4
10002856:	d106      	bne.n	10002866 <_free_r+0x11e>
10002858:	680a      	ldr	r2, [r1, #0]
1000285a:	1a89      	subs	r1, r1, r2
1000285c:	688c      	ldr	r4, [r1, #8]
1000285e:	189b      	adds	r3, r3, r2
10002860:	68ca      	ldr	r2, [r1, #12]
10002862:	60e2      	str	r2, [r4, #12]
10002864:	6094      	str	r4, [r2, #8]
10002866:	2201      	movs	r2, #1
10002868:	431a      	orrs	r2, r3
1000286a:	604a      	str	r2, [r1, #4]
1000286c:	4a24      	ldr	r2, [pc, #144]	; (10002900 <_free_r+0x1b8>)
1000286e:	6081      	str	r1, [r0, #8]
10002870:	6812      	ldr	r2, [r2, #0]
10002872:	429a      	cmp	r2, r3
10002874:	d8bc      	bhi.n	100027f0 <_free_r+0xa8>
10002876:	4b23      	ldr	r3, [pc, #140]	; (10002904 <_free_r+0x1bc>)
10002878:	0028      	movs	r0, r5
1000287a:	6819      	ldr	r1, [r3, #0]
1000287c:	f7ff ff16 	bl	100026ac <_malloc_trim_r>
10002880:	e7b6      	b.n	100027f0 <_free_r+0xa8>
10002882:	2b14      	cmp	r3, #20
10002884:	d907      	bls.n	10002896 <_free_r+0x14e>
10002886:	2b54      	cmp	r3, #84	; 0x54
10002888:	d81a      	bhi.n	100028c0 <_free_r+0x178>
1000288a:	0b14      	lsrs	r4, r2, #12
1000288c:	0026      	movs	r6, r4
1000288e:	346f      	adds	r4, #111	; 0x6f
10002890:	366e      	adds	r6, #110	; 0x6e
10002892:	00e4      	lsls	r4, r4, #3
10002894:	e7ba      	b.n	1000280c <_free_r+0xc4>
10002896:	001e      	movs	r6, r3
10002898:	335c      	adds	r3, #92	; 0x5c
1000289a:	365b      	adds	r6, #91	; 0x5b
1000289c:	00dc      	lsls	r4, r3, #3
1000289e:	e7b5      	b.n	1000280c <_free_r+0xc4>
100028a0:	2201      	movs	r2, #1
100028a2:	10b6      	asrs	r6, r6, #2
100028a4:	40b2      	lsls	r2, r6
100028a6:	6846      	ldr	r6, [r0, #4]
100028a8:	4332      	orrs	r2, r6
100028aa:	6042      	str	r2, [r0, #4]
100028ac:	e7bc      	b.n	10002828 <_free_r+0xe0>
100028ae:	60d9      	str	r1, [r3, #12]
100028b0:	6099      	str	r1, [r3, #8]
100028b2:	60cb      	str	r3, [r1, #12]
100028b4:	608b      	str	r3, [r1, #8]
100028b6:	2301      	movs	r3, #1
100028b8:	4313      	orrs	r3, r2
100028ba:	604b      	str	r3, [r1, #4]
100028bc:	508a      	str	r2, [r1, r2]
100028be:	e797      	b.n	100027f0 <_free_r+0xa8>
100028c0:	24aa      	movs	r4, #170	; 0xaa
100028c2:	0064      	lsls	r4, r4, #1
100028c4:	42a3      	cmp	r3, r4
100028c6:	d805      	bhi.n	100028d4 <_free_r+0x18c>
100028c8:	0bd4      	lsrs	r4, r2, #15
100028ca:	0026      	movs	r6, r4
100028cc:	3478      	adds	r4, #120	; 0x78
100028ce:	3677      	adds	r6, #119	; 0x77
100028d0:	00e4      	lsls	r4, r4, #3
100028d2:	e79b      	b.n	1000280c <_free_r+0xc4>
100028d4:	4c0c      	ldr	r4, [pc, #48]	; (10002908 <_free_r+0x1c0>)
100028d6:	42a3      	cmp	r3, r4
100028d8:	d805      	bhi.n	100028e6 <_free_r+0x19e>
100028da:	0c94      	lsrs	r4, r2, #18
100028dc:	0026      	movs	r6, r4
100028de:	347d      	adds	r4, #125	; 0x7d
100028e0:	367c      	adds	r6, #124	; 0x7c
100028e2:	00e4      	lsls	r4, r4, #3
100028e4:	e792      	b.n	1000280c <_free_r+0xc4>
100028e6:	24fe      	movs	r4, #254	; 0xfe
100028e8:	267e      	movs	r6, #126	; 0x7e
100028ea:	00a4      	lsls	r4, r4, #2
100028ec:	e78e      	b.n	1000280c <_free_r+0xc4>
100028ee:	0033      	movs	r3, r6
100028f0:	4313      	orrs	r3, r2
100028f2:	604b      	str	r3, [r1, #4]
100028f4:	603a      	str	r2, [r7, #0]
100028f6:	e77b      	b.n	100027f0 <_free_r+0xa8>
100028f8:	20000660 	.word	0x20000660
100028fc:	20000668 	.word	0x20000668
10002900:	20000a6c 	.word	0x20000a6c
10002904:	20000ad8 	.word	0x20000ad8
10002908:	00000554 	.word	0x00000554

1000290c <__retarget_lock_acquire_recursive>:
1000290c:	4770      	bx	lr
1000290e:	46c0      	nop			; (mov r8, r8)

10002910 <__retarget_lock_release_recursive>:
10002910:	4770      	bx	lr
10002912:	46c0      	nop			; (mov r8, r8)

10002914 <_fini>:
10002914:	b5f8      	push	{r3, r4, r5, r6, r7, lr}
10002916:	46c0      	nop			; (mov r8, r8)

10002918 <__mutex_exit_veneer>:
10002918:	b401      	push	{r0}
1000291a:	4802      	ldr	r0, [pc, #8]	; (10002924 <__mutex_exit_veneer+0xc>)
1000291c:	4684      	mov	ip, r0
1000291e:	bc01      	pop	{r0}
10002920:	4760      	bx	ip
10002922:	bf00      	nop
10002924:	2000015d 	.word	0x2000015d

10002928 <____aeabi_idiv0_veneer>:
10002928:	b401      	push	{r0}
1000292a:	4802      	ldr	r0, [pc, #8]	; (10002934 <____aeabi_idiv0_veneer+0xc>)
1000292c:	4684      	mov	ip, r0
1000292e:	bc01      	pop	{r0}
10002930:	4760      	bx	ip
10002932:	bf00      	nop
10002934:	20000185 	.word	0x20000185

10002938 <__mutex_try_enter_veneer>:
10002938:	b401      	push	{r0}
1000293a:	4802      	ldr	r0, [pc, #8]	; (10002944 <__mutex_try_enter_veneer+0xc>)
1000293c:	4684      	mov	ip, r0
1000293e:	bc01      	pop	{r0}
10002940:	4760      	bx	ip
10002942:	bf00      	nop
10002944:	20000111 	.word	0x20000111

10002948 <__mutex_enter_blocking_veneer>:
10002948:	b401      	push	{r0}
1000294a:	4802      	ldr	r0, [pc, #8]	; (10002954 <__mutex_enter_blocking_veneer+0xc>)
1000294c:	4684      	mov	ip, r0
1000294e:	bc01      	pop	{r0}
10002950:	4760      	bx	ip
10002952:	bf00      	nop
10002954:	200000c1 	.word	0x200000c1

Disassembly of section .data:

200000c0 <mutex_enter_blocking>:
200000c0:	b510      	push	{r4, lr}
200000c2:	6802      	ldr	r2, [r0, #0]
200000c4:	2400      	movs	r4, #0
200000c6:	f3ef 8110 	mrs	r1, PRIMASK
200000ca:	b672      	cpsid	i
200000cc:	6813      	ldr	r3, [r2, #0]
200000ce:	2b00      	cmp	r3, #0
200000d0:	d0fc      	beq.n	200000cc <mutex_enter_blocking+0xc>
200000d2:	f3bf 8f5f 	dmb	sy
200000d6:	7903      	ldrb	r3, [r0, #4]
200000d8:	2b00      	cmp	r3, #0
200000da:	d00b      	beq.n	200000f4 <mutex_enter_blocking+0x34>
200000dc:	6803      	ldr	r3, [r0, #0]
200000de:	f3bf 8f5f 	dmb	sy
200000e2:	601c      	str	r4, [r3, #0]
200000e4:	f381 8810 	msr	PRIMASK, r1
200000e8:	bf20      	wfe
200000ea:	6802      	ldr	r2, [r0, #0]
200000ec:	f3ef 8110 	mrs	r1, PRIMASK
200000f0:	b672      	cpsid	i
200000f2:	e7eb      	b.n	200000cc <mutex_enter_blocking+0xc>
200000f4:	2201      	movs	r2, #1
200000f6:	7102      	strb	r2, [r0, #4]
200000f8:	22d0      	movs	r2, #208	; 0xd0
200000fa:	0612      	lsls	r2, r2, #24
200000fc:	6812      	ldr	r2, [r2, #0]
200000fe:	7142      	strb	r2, [r0, #5]
20000100:	6802      	ldr	r2, [r0, #0]
20000102:	f3bf 8f5f 	dmb	sy
20000106:	6013      	str	r3, [r2, #0]
20000108:	f381 8810 	msr	PRIMASK, r1
2000010c:	bd10      	pop	{r4, pc}
2000010e:	46c0      	nop			; (mov r8, r8)

20000110 <mutex_try_enter>:
20000110:	0003      	movs	r3, r0
20000112:	b510      	push	{r4, lr}
20000114:	6800      	ldr	r0, [r0, #0]
20000116:	f3ef 8410 	mrs	r4, PRIMASK
2000011a:	b672      	cpsid	i
2000011c:	6802      	ldr	r2, [r0, #0]
2000011e:	2a00      	cmp	r2, #0
20000120:	d0fc      	beq.n	2000011c <mutex_try_enter+0xc>
20000122:	f3bf 8f5f 	dmb	sy
20000126:	791a      	ldrb	r2, [r3, #4]
20000128:	2a00      	cmp	r2, #0
2000012a:	d00d      	beq.n	20000148 <mutex_try_enter+0x38>
2000012c:	2900      	cmp	r1, #0
2000012e:	d013      	beq.n	20000158 <mutex_try_enter+0x48>
20000130:	2205      	movs	r2, #5
20000132:	2000      	movs	r0, #0
20000134:	569a      	ldrsb	r2, [r3, r2]
20000136:	600a      	str	r2, [r1, #0]
20000138:	681b      	ldr	r3, [r3, #0]
2000013a:	f3bf 8f5f 	dmb	sy
2000013e:	2200      	movs	r2, #0
20000140:	601a      	str	r2, [r3, #0]
20000142:	f384 8810 	msr	PRIMASK, r4
20000146:	bd10      	pop	{r4, pc}
20000148:	3201      	adds	r2, #1
2000014a:	711a      	strb	r2, [r3, #4]
2000014c:	22d0      	movs	r2, #208	; 0xd0
2000014e:	0612      	lsls	r2, r2, #24
20000150:	6812      	ldr	r2, [r2, #0]
20000152:	2001      	movs	r0, #1
20000154:	715a      	strb	r2, [r3, #5]
20000156:	e7ef      	b.n	20000138 <mutex_try_enter+0x28>
20000158:	2000      	movs	r0, #0
2000015a:	e7ed      	b.n	20000138 <mutex_try_enter+0x28>

2000015c <mutex_exit>:
2000015c:	6802      	ldr	r2, [r0, #0]
2000015e:	f3ef 8110 	mrs	r1, PRIMASK
20000162:	b672      	cpsid	i
20000164:	6813      	ldr	r3, [r2, #0]
20000166:	2b00      	cmp	r3, #0
20000168:	d0fc      	beq.n	20000164 <mutex_exit+0x8>
2000016a:	f3bf 8f5f 	dmb	sy
2000016e:	2300      	movs	r3, #0
20000170:	7103      	strb	r3, [r0, #4]
20000172:	bf40      	sev
20000174:	6802      	ldr	r2, [r0, #0]
20000176:	f3bf 8f5f 	dmb	sy
2000017a:	6013      	str	r3, [r2, #0]
2000017c:	f381 8810 	msr	PRIMASK, r1
20000180:	4770      	bx	lr
20000182:	46c0      	nop			; (mov r8, r8)

20000184 <__aeabi_idiv0>:
20000184:	4770      	bx	lr
20000186:	46c0      	nop			; (mov r8, r8)

20000188 <bits>:
20000188:	003f 0000 0006 0000 005b 0000 004f 0000     ?.......[...O...
20000198:	0066 0000 006d 0000 007d 0000 0007 0000     f...m...}.......
200001a8:	007f 0000 0067 0000                         ....g...

200001b0 <striped_spin_lock_num>:
200001b0:	0010 0000                                   ....

200001b4 <irq_handler_chain_slots>:
200001b4:	00000000 	.word	0x00000000
200001b8:	00010000 	.word	0x00010000
	...
200001c4:	00020000 	.word	0x00020000
	...
200001d0:	00030000 	.word	0x00030000
	...
200001dc:	00ff0000 	.word	0x00ff0000
200001e0:	00000000 	.word	0x00000000

200001e4 <irq_handler_chain_first_slot>:
200001e4:	b500      	push	{lr}
200001e6:	6848      	ldr	r0, [r1, #4]
200001e8:	3101      	adds	r1, #1
200001ea:	468e      	mov	lr, r1
200001ec:	4700      	bx	r0

200001ee <irq_handler_chain_remove_tail>:
200001ee:	4670      	mov	r0, lr
200001f0:	3809      	subs	r0, #9
200001f2:	4901      	ldr	r1, [pc, #4]	; (200001f8 <irq_handler_chain_remove_tail+0xa>)
200001f4:	4788      	blx	r1
200001f6:	bd00      	pop	{pc}
200001f8:	10001969 	.word	0x10001969
200001fc:	00000000 	.word	0x00000000

20000200 <aeabi_bits_funcs>:
20000200:	00003350 	.word	0x00003350
20000204:	0000334c 	.word	0x0000334c
20000208:	00003354 	.word	0x00003354
2000020c:	00003352 	.word	0x00003352

20000210 <aeabi_bits_funcs_end>:
20000210:	0000534d 	.word	0x0000534d
20000214:	0000434d 	.word	0x0000434d
20000218:	00003453 	.word	0x00003453
2000021c:	00003443 	.word	0x00003443

20000220 <stdio_uart>:
20000220:	10001f51 00000000 10001f8d 00000000     Q...............
20000230:	00000100                                ....

20000234 <_impure_ptr>:
20000234:	20000238                                8.. 

20000238 <impure_data>:
20000238:	00000000 20000524 2000058c 200005f4     ....$.. ... ... 
	...
200002e0:	00000001 00000000 abcd330e e66d1234     .........3..4.m.
200002f0:	0005deec 0000000b 00000000 00000000     ................
	...

20000660 <__malloc_av_>:
	...
20000668:	20000660 20000660 20000668 20000668     `.. `.. h.. h.. 
20000678:	20000670 20000670 20000678 20000678     p.. p.. x.. x.. 
20000688:	20000680 20000680 20000688 20000688     ... ... ... ... 
20000698:	20000690 20000690 20000698 20000698     ... ... ... ... 
200006a8:	200006a0 200006a0 200006a8 200006a8     ... ... ... ... 
200006b8:	200006b0 200006b0 200006b8 200006b8     ... ... ... ... 
200006c8:	200006c0 200006c0 200006c8 200006c8     ... ... ... ... 
200006d8:	200006d0 200006d0 200006d8 200006d8     ... ... ... ... 
200006e8:	200006e0 200006e0 200006e8 200006e8     ... ... ... ... 
200006f8:	200006f0 200006f0 200006f8 200006f8     ... ... ... ... 
20000708:	20000700 20000700 20000708 20000708     ... ... ... ... 
20000718:	20000710 20000710 20000718 20000718     ... ... ... ... 
20000728:	20000720 20000720 20000728 20000728      ..  .. (.. (.. 
20000738:	20000730 20000730 20000738 20000738     0.. 0.. 8.. 8.. 
20000748:	20000740 20000740 20000748 20000748     @.. @.. H.. H.. 
20000758:	20000750 20000750 20000758 20000758     P.. P.. X.. X.. 
20000768:	20000760 20000760 20000768 20000768     `.. `.. h.. h.. 
20000778:	20000770 20000770 20000778 20000778     p.. p.. x.. x.. 
20000788:	20000780 20000780 20000788 20000788     ... ... ... ... 
20000798:	20000790 20000790 20000798 20000798     ... ... ... ... 
200007a8:	200007a0 200007a0 200007a8 200007a8     ... ... ... ... 
200007b8:	200007b0 200007b0 200007b8 200007b8     ... ... ... ... 
200007c8:	200007c0 200007c0 200007c8 200007c8     ... ... ... ... 
200007d8:	200007d0 200007d0 200007d8 200007d8     ... ... ... ... 
200007e8:	200007e0 200007e0 200007e8 200007e8     ... ... ... ... 
200007f8:	200007f0 200007f0 200007f8 200007f8     ... ... ... ... 
20000808:	20000800 20000800 20000808 20000808     ... ... ... ... 
20000818:	20000810 20000810 20000818 20000818     ... ... ... ... 
20000828:	20000820 20000820 20000828 20000828      ..  .. (.. (.. 
20000838:	20000830 20000830 20000838 20000838     0.. 0.. 8.. 8.. 
20000848:	20000840 20000840 20000848 20000848     @.. @.. H.. H.. 
20000858:	20000850 20000850 20000858 20000858     P.. P.. X.. X.. 
20000868:	20000860 20000860 20000868 20000868     `.. `.. h.. h.. 
20000878:	20000870 20000870 20000878 20000878     p.. p.. x.. x.. 
20000888:	20000880 20000880 20000888 20000888     ... ... ... ... 
20000898:	20000890 20000890 20000898 20000898     ... ... ... ... 
200008a8:	200008a0 200008a0 200008a8 200008a8     ... ... ... ... 
200008b8:	200008b0 200008b0 200008b8 200008b8     ... ... ... ... 
200008c8:	200008c0 200008c0 200008c8 200008c8     ... ... ... ... 
200008d8:	200008d0 200008d0 200008d8 200008d8     ... ... ... ... 
200008e8:	200008e0 200008e0 200008e8 200008e8     ... ... ... ... 
200008f8:	200008f0 200008f0 200008f8 200008f8     ... ... ... ... 
20000908:	20000900 20000900 20000908 20000908     ... ... ... ... 
20000918:	20000910 20000910 20000918 20000918     ... ... ... ... 
20000928:	20000920 20000920 20000928 20000928      ..  .. (.. (.. 
20000938:	20000930 20000930 20000938 20000938     0.. 0.. 8.. 8.. 
20000948:	20000940 20000940 20000948 20000948     @.. @.. H.. H.. 
20000958:	20000950 20000950 20000958 20000958     P.. P.. X.. X.. 
20000968:	20000960 20000960 20000968 20000968     `.. `.. h.. h.. 
20000978:	20000970 20000970 20000978 20000978     p.. p.. x.. x.. 
20000988:	20000980 20000980 20000988 20000988     ... ... ... ... 
20000998:	20000990 20000990 20000998 20000998     ... ... ... ... 
200009a8:	200009a0 200009a0 200009a8 200009a8     ... ... ... ... 
200009b8:	200009b0 200009b0 200009b8 200009b8     ... ... ... ... 
200009c8:	200009c0 200009c0 200009c8 200009c8     ... ... ... ... 
200009d8:	200009d0 200009d0 200009d8 200009d8     ... ... ... ... 
200009e8:	200009e0 200009e0 200009e8 200009e8     ... ... ... ... 
200009f8:	200009f0 200009f0 200009f8 200009f8     ... ... ... ... 
20000a08:	20000a00 20000a00 20000a08 20000a08     ... ... ... ... 
20000a18:	20000a10 20000a10 20000a18 20000a18     ... ... ... ... 
20000a28:	20000a20 20000a20 20000a28 20000a28      ..  .. (.. (.. 
20000a38:	20000a30 20000a30 20000a38 20000a38     0.. 0.. 8.. 8.. 
20000a48:	20000a40 20000a40 20000a48 20000a48     @.. @.. H.. H.. 
20000a58:	20000a50 20000a50 20000a58 20000a58     P.. P.. X.. X.. 

20000a68 <__malloc_sbrk_base>:
20000a68:	ffffffff                                ....

20000a6c <__malloc_trim_threshold>:
20000a6c:	00020000                                ....

20000a70 <print_mutex>:
	...

20000a78 <__mutex_array_end>:
20000a78:	10001d09 	.word	0x10001d09
20000a7c:	10001a9d 	.word	0x10001a9d
20000a80:	10001b5d 	.word	0x10001b5d
20000a84:	10001c69 	.word	0x10001c69

20000a88 <__frame_dummy_init_array_entry>:
20000a88:	10000301                                ....
