
blink.elf:     file format elf32-littlearm

Sections:
Idx Name          Size      VMA       LMA       File off  Algn
  0 .boot2        00000100  10000000  10000000  00010000  2**0
                  CONTENTS, ALLOC, LOAD, READONLY, DATA
  1 .text         00002590  10000100  10000100  00010100  2**3
                  CONTENTS, ALLOC, LOAD, READONLY, CODE
  2 .rodata       000000d8  10002690  10002690  00012690  2**2
                  CONTENTS, ALLOC, LOAD, READONLY, DATA
  3 .binary_info  0000001c  10002768  10002768  00012768  2**2
                  CONTENTS, ALLOC, LOAD, DATA
  4 .ram_vector_table 000000c0  20000000  20000000  00020a5c  2**2
                  CONTENTS
  5 .data         0000099c  200000c0  10002784  000200c0  2**4
                  CONTENTS, ALLOC, LOAD, CODE
  6 .uninitialized_data 00000000  20000a5c  20000a5c  00020b1c  2**0
                  CONTENTS
  7 .scratch_x    00000000  20040000  20040000  00020b1c  2**0
                  CONTENTS
  8 .scratch_y    00000000  20041000  20041000  00020b1c  2**0
                  CONTENTS
  9 .bss          000002ec  20000a5c  20000a5c  00020a5c  2**2
                  ALLOC
 10 .heap         00000800  20000d48  20000d48  00020b1c  2**2
                  CONTENTS, READONLY
 11 .stack_dummy  00000800  20041000  20041000  00021320  2**5
                  CONTENTS, READONLY
 12 .ARM.attributes 00000028  00000000  00000000  00021b20  2**0
                  CONTENTS, READONLY
 13 .comment      00000079  00000000  00000000  00021b48  2**0
                  CONTENTS, READONLY
 14 .debug_frame  000002ac  00000000  00000000  00021bc4  2**2
                  CONTENTS, READONLY, DEBUGGING

blink.elf:     file format elf32-littlearm


Disassembly of section .text:

10000100 <__reset_start>:
10000100:	4827      	ldr	r0, [pc, #156]	; (100001a0 <__get_current_exception+0xa>)
10000102:	e000      	b.n	10000106 <__vector_entry>

10000104 <_entry_point>:
10000104:	2000      	movs	r0, #0

10000106 <__vector_entry>:
10000106:	4927      	ldr	r1, [pc, #156]	; (100001a4 <__get_current_exception+0xe>)
10000108:	6088      	str	r0, [r1, #8]
1000010a:	c806      	ldmia	r0!, {r1, r2}
1000010c:	f381 8808 	msr	MSP, r1
10000110:	4710      	bx	r2

10000112 <_reset_handler>:
10000112:	4825      	ldr	r0, [pc, #148]	; (100001a8 <__get_current_exception+0x12>)
10000114:	6800      	ldr	r0, [r0, #0]
10000116:	2800      	cmp	r0, #0
10000118:	d139      	bne.n	1000018e <wait_for_vector>
1000011a:	a412      	add	r4, pc, #72	; (adr r4, 10000164 <data_cpy_table>)
1000011c:	cc0e      	ldmia	r4!, {r1, r2, r3}
1000011e:	2900      	cmp	r1, #0
10000120:	d002      	beq.n	10000128 <_reset_handler+0x16>
10000122:	f000 f812 	bl	1000014a <data_cpy>
10000126:	e7f9      	b.n	1000011c <_reset_handler+0xa>
10000128:	4920      	ldr	r1, [pc, #128]	; (100001ac <__get_current_exception+0x16>)
1000012a:	4a21      	ldr	r2, [pc, #132]	; (100001b0 <__get_current_exception+0x1a>)
1000012c:	2000      	movs	r0, #0
1000012e:	e000      	b.n	10000132 <bss_fill_test>

10000130 <bss_fill_loop>:
10000130:	c101      	stmia	r1!, {r0}

10000132 <bss_fill_test>:
10000132:	4291      	cmp	r1, r2
10000134:	d1fc      	bne.n	10000130 <bss_fill_loop>

10000136 <platform_entry>:
10000136:	491f      	ldr	r1, [pc, #124]	; (100001b4 <__get_current_exception+0x1e>)
10000138:	4788      	blx	r1
1000013a:	491f      	ldr	r1, [pc, #124]	; (100001b8 <__get_current_exception+0x22>)
1000013c:	4788      	blx	r1
1000013e:	491f      	ldr	r1, [pc, #124]	; (100001bc <__get_current_exception+0x26>)
10000140:	4788      	blx	r1
10000142:	be00      	bkpt	0x0000
10000144:	e7fd      	b.n	10000142 <platform_entry+0xc>

10000146 <data_cpy_loop>:
10000146:	c901      	ldmia	r1!, {r0}
10000148:	c201      	stmia	r2!, {r0}

1000014a <data_cpy>:
1000014a:	429a      	cmp	r2, r3
1000014c:	d3fb      	bcc.n	10000146 <data_cpy_loop>
1000014e:	4770      	bx	lr

10000150 <binary_info_header>:
10000150:	7188ebf2 	.word	0x7188ebf2
10000154:	10002768 	.word	0x10002768
10000158:	10002784 	.word	0x10002784
1000015c:	10000164 	.word	0x10000164
10000160:	e71aa390 	.word	0xe71aa390

10000164 <data_cpy_table>:
10000164:	10002784 	.word	0x10002784
10000168:	200000c0 	.word	0x200000c0
1000016c:	20000a5c 	.word	0x20000a5c
10000170:	10003120 	.word	0x10003120
10000174:	20040000 	.word	0x20040000
10000178:	20040000 	.word	0x20040000
1000017c:	10003120 	.word	0x10003120
10000180:	20041000 	.word	0x20041000
10000184:	20041000 	.word	0x20041000
10000188:	00000000 	.word	0x00000000
1000018c:	4770      	bx	lr

1000018e <wait_for_vector>:
1000018e:	480c      	ldr	r0, [pc, #48]	; (100001c0 <__get_current_exception+0x2a>)
10000190:	f001 fba4 	bl	100018dc <rom_func_lookup>
10000194:	4700      	bx	r0

10000196 <__get_current_exception>:
10000196:	f3ef 8005 	mrs	r0, IPSR
1000019a:	b2c0      	uxtb	r0, r0
1000019c:	4770      	bx	lr
1000019e:	0000      	.short	0x0000
100001a0:	10000200 	.word	0x10000200
100001a4:	e000ed00 	.word	0xe000ed00
100001a8:	d0000000 	.word	0xd0000000
100001ac:	20000a5c 	.word	0x20000a5c
100001b0:	20000d48 	.word	0x20000d48
100001b4:	10001081 	.word	0x10001081
100001b8:	10000321 	.word	0x10000321
100001bc:	100011a1 	.word	0x100011a1
100001c0:	00005657 	.word	0x00005657

100001c4 <__bi_46>:
100001c4:	50520006 5360b3ab 1000271c              ..RP..`S.'..

100001d0 <__bi_34>:
100001d0:	50520006 02031c86 1000272c              ..RP....,'..

100001dc <__bi_26>:
100001dc:	50520006 9da22254 10002734              ..RPT"..4'..

100001e8 <__bi_18>:
100001e8:	50520005 68f465de 10003120 00000000     ..RP.e.h 1......
	...

10000200 <__reset_end>:
10000200:	20042000 	.word	0x20042000
10000204:	10000113 	.word	0x10000113
10000208:	100002c3 	.word	0x100002c3
1000020c:	100002c5 	.word	0x100002c5
10000210:	100002c1 	.word	0x100002c1
10000214:	100002c1 	.word	0x100002c1
10000218:	100002c1 	.word	0x100002c1
1000021c:	100002c1 	.word	0x100002c1
10000220:	100002c1 	.word	0x100002c1
10000224:	100002c1 	.word	0x100002c1
10000228:	100002c1 	.word	0x100002c1
1000022c:	100002c7 	.word	0x100002c7
10000230:	100002c1 	.word	0x100002c1
10000234:	100002c1 	.word	0x100002c1
10000238:	100002c9 	.word	0x100002c9
1000023c:	100002cb 	.word	0x100002cb
10000240:	100002cd 	.word	0x100002cd
10000244:	100002cd 	.word	0x100002cd
10000248:	100002cd 	.word	0x100002cd
1000024c:	100002cd 	.word	0x100002cd
10000250:	100002cd 	.word	0x100002cd
10000254:	100002cd 	.word	0x100002cd
10000258:	100002cd 	.word	0x100002cd
1000025c:	100002cd 	.word	0x100002cd
10000260:	100002cd 	.word	0x100002cd
10000264:	100002cd 	.word	0x100002cd
10000268:	100002cd 	.word	0x100002cd
1000026c:	100002cd 	.word	0x100002cd
10000270:	100002cd 	.word	0x100002cd
10000274:	100002cd 	.word	0x100002cd
10000278:	100002cd 	.word	0x100002cd
1000027c:	100002cd 	.word	0x100002cd
10000280:	100002cd 	.word	0x100002cd
10000284:	100002cd 	.word	0x100002cd
10000288:	100002cd 	.word	0x100002cd
1000028c:	100002cd 	.word	0x100002cd
10000290:	100002cd 	.word	0x100002cd
10000294:	100002cd 	.word	0x100002cd
10000298:	100002cd 	.word	0x100002cd
1000029c:	100002cd 	.word	0x100002cd
100002a0:	100002cd 	.word	0x100002cd
100002a4:	100002cd 	.word	0x100002cd
100002a8:	100002cd 	.word	0x100002cd
100002ac:	100002cd 	.word	0x100002cd
100002b0:	100002cd 	.word	0x100002cd
100002b4:	100002cd 	.word	0x100002cd
100002b8:	100002cd 	.word	0x100002cd
100002bc:	100002cd 	.word	0x100002cd

100002c0 <isr_invalid>:
100002c0:	be00      	bkpt	0x0000

100002c2 <isr_nmi>:
100002c2:	be00      	bkpt	0x0000

100002c4 <isr_hardfault>:
100002c4:	be00      	bkpt	0x0000

100002c6 <isr_svcall>:
100002c6:	be00      	bkpt	0x0000

100002c8 <isr_pendsv>:
100002c8:	be00      	bkpt	0x0000

100002ca <isr_systick>:
100002ca:	be00      	bkpt	0x0000

100002cc <__unhandled_user_irq>:
100002cc:	f7ff ff63 	bl	10000196 <__get_current_exception>
100002d0:	3810      	subs	r0, #16

100002d2 <unhandled_user_irq_num_in_r0>:
100002d2:	be00      	bkpt	0x0000

100002d4 <_init>:
100002d4:	b5f8      	push	{r3, r4, r5, r6, r7, lr}
100002d6:	46c0      	nop			; (mov r8, r8)

100002d8 <__do_global_dtors_aux>:
100002d8:	b510      	push	{r4, lr}
100002da:	4c06      	ldr	r4, [pc, #24]	; (100002f4 <__do_global_dtors_aux+0x1c>)
100002dc:	7823      	ldrb	r3, [r4, #0]
100002de:	2b00      	cmp	r3, #0
100002e0:	d107      	bne.n	100002f2 <__do_global_dtors_aux+0x1a>
100002e2:	4b05      	ldr	r3, [pc, #20]	; (100002f8 <__do_global_dtors_aux+0x20>)
100002e4:	2b00      	cmp	r3, #0
100002e6:	d002      	beq.n	100002ee <__do_global_dtors_aux+0x16>
100002e8:	4804      	ldr	r0, [pc, #16]	; (100002fc <__do_global_dtors_aux+0x24>)
100002ea:	e000      	b.n	100002ee <__do_global_dtors_aux+0x16>
100002ec:	bf00      	nop
100002ee:	2301      	movs	r3, #1
100002f0:	7023      	strb	r3, [r4, #0]
100002f2:	bd10      	pop	{r4, pc}
100002f4:	20000a5c 	.word	0x20000a5c
100002f8:	00000000 	.word	0x00000000
100002fc:	10002690 	.word	0x10002690

10000300 <frame_dummy>:
10000300:	4b04      	ldr	r3, [pc, #16]	; (10000314 <frame_dummy+0x14>)
10000302:	b510      	push	{r4, lr}
10000304:	2b00      	cmp	r3, #0
10000306:	d003      	beq.n	10000310 <frame_dummy+0x10>
10000308:	4903      	ldr	r1, [pc, #12]	; (10000318 <frame_dummy+0x18>)
1000030a:	4804      	ldr	r0, [pc, #16]	; (1000031c <frame_dummy+0x1c>)
1000030c:	e000      	b.n	10000310 <frame_dummy+0x10>
1000030e:	bf00      	nop
10000310:	bd10      	pop	{r4, pc}
10000312:	46c0      	nop			; (mov r8, r8)
10000314:	00000000 	.word	0x00000000
10000318:	20000a60 	.word	0x20000a60
1000031c:	10002690 	.word	0x10002690

10000320 <main>:
10000320:	b570      	push	{r4, r5, r6, lr}
10000322:	2580      	movs	r5, #128	; 0x80
10000324:	24d0      	movs	r4, #208	; 0xd0
10000326:	04ad      	lsls	r5, r5, #18
10000328:	002e      	movs	r6, r5
1000032a:	2019      	movs	r0, #25
1000032c:	0624      	lsls	r4, r4, #24
1000032e:	f000 f80b 	bl	10000348 <gpio_init>
10000332:	6265      	str	r5, [r4, #36]	; 0x24
10000334:	20fa      	movs	r0, #250	; 0xfa
10000336:	6166      	str	r6, [r4, #20]
10000338:	f000 faea 	bl	10000910 <sleep_ms>
1000033c:	20fa      	movs	r0, #250	; 0xfa
1000033e:	61a5      	str	r5, [r4, #24]
10000340:	f000 fae6 	bl	10000910 <sleep_ms>
10000344:	e7f6      	b.n	10000334 <main+0x14>
10000346:	46c0      	nop			; (mov r8, r8)

10000348 <gpio_init>:
10000348:	2301      	movs	r3, #1
1000034a:	22d0      	movs	r2, #208	; 0xd0
1000034c:	4083      	lsls	r3, r0
1000034e:	0612      	lsls	r2, r2, #24
10000350:	6293      	str	r3, [r2, #40]	; 0x28
10000352:	6193      	str	r3, [r2, #24]
10000354:	4a09      	ldr	r2, [pc, #36]	; (1000037c <gpio_init+0x34>)
10000356:	0083      	lsls	r3, r0, #2
10000358:	4694      	mov	ip, r2
1000035a:	2240      	movs	r2, #64	; 0x40
1000035c:	4463      	add	r3, ip
1000035e:	6819      	ldr	r1, [r3, #0]
10000360:	00c0      	lsls	r0, r0, #3
10000362:	404a      	eors	r2, r1
10000364:	21c0      	movs	r1, #192	; 0xc0
10000366:	4011      	ands	r1, r2
10000368:	2280      	movs	r2, #128	; 0x80
1000036a:	0152      	lsls	r2, r2, #5
1000036c:	4313      	orrs	r3, r2
1000036e:	6019      	str	r1, [r3, #0]
10000370:	4b03      	ldr	r3, [pc, #12]	; (10000380 <gpio_init+0x38>)
10000372:	469c      	mov	ip, r3
10000374:	2305      	movs	r3, #5
10000376:	4460      	add	r0, ip
10000378:	6043      	str	r3, [r0, #4]
1000037a:	4770      	bx	lr
1000037c:	4001c004 	.word	0x4001c004
10000380:	40014000 	.word	0x40014000

10000384 <hw_claim_or_assert>:
10000384:	b5f8      	push	{r3, r4, r5, r6, r7, lr}
10000386:	46ce      	mov	lr, r9
10000388:	4647      	mov	r7, r8
1000038a:	4691      	mov	r9, r2
1000038c:	b580      	push	{r7, lr}
1000038e:	f3ef 8710 	mrs	r7, PRIMASK
10000392:	b672      	cpsid	i
10000394:	4e12      	ldr	r6, [pc, #72]	; (100003e0 <hw_claim_or_assert+0x5c>)
10000396:	6833      	ldr	r3, [r6, #0]
10000398:	2b00      	cmp	r3, #0
1000039a:	d0fc      	beq.n	10000396 <hw_claim_or_assert+0x12>
1000039c:	f3bf 8f5f 	dmb	sy
100003a0:	08cb      	lsrs	r3, r1, #3
100003a2:	5cc5      	ldrb	r5, [r0, r3]
100003a4:	2407      	movs	r4, #7
100003a6:	18c2      	adds	r2, r0, r3
100003a8:	0028      	movs	r0, r5
100003aa:	2301      	movs	r3, #1
100003ac:	400c      	ands	r4, r1
100003ae:	4694      	mov	ip, r2
100003b0:	40e0      	lsrs	r0, r4
100003b2:	001a      	movs	r2, r3
100003b4:	4002      	ands	r2, r0
100003b6:	4690      	mov	r8, r2
100003b8:	4203      	tst	r3, r0
100003ba:	d10d      	bne.n	100003d8 <hw_claim_or_assert+0x54>
100003bc:	40a3      	lsls	r3, r4
100003be:	4662      	mov	r2, ip
100003c0:	432b      	orrs	r3, r5
100003c2:	7013      	strb	r3, [r2, #0]
100003c4:	f3bf 8f5f 	dmb	sy
100003c8:	4643      	mov	r3, r8
100003ca:	6033      	str	r3, [r6, #0]
100003cc:	f387 8810 	msr	PRIMASK, r7
100003d0:	bc0c      	pop	{r2, r3}
100003d2:	4690      	mov	r8, r2
100003d4:	4699      	mov	r9, r3
100003d6:	bdf8      	pop	{r3, r4, r5, r6, r7, pc}
100003d8:	4648      	mov	r0, r9
100003da:	f000 fee3 	bl	100011a4 <panic>
100003de:	46c0      	nop			; (mov r8, r8)
100003e0:	d000012c 	.word	0xd000012c

100003e4 <spin_locks_reset>:
100003e4:	2100      	movs	r1, #0
100003e6:	4b04      	ldr	r3, [pc, #16]	; (100003f8 <spin_locks_reset+0x14>)
100003e8:	4a04      	ldr	r2, [pc, #16]	; (100003fc <spin_locks_reset+0x18>)
100003ea:	f3bf 8f5f 	dmb	sy
100003ee:	c302      	stmia	r3!, {r1}
100003f0:	4293      	cmp	r3, r2
100003f2:	d1fa      	bne.n	100003ea <spin_locks_reset+0x6>
100003f4:	4770      	bx	lr
100003f6:	46c0      	nop			; (mov r8, r8)
100003f8:	d0000100 	.word	0xd0000100
100003fc:	d0000180 	.word	0xd0000180

10000400 <next_striped_spin_lock_num>:
10000400:	4a04      	ldr	r2, [pc, #16]	; (10000414 <next_striped_spin_lock_num+0x14>)
10000402:	7810      	ldrb	r0, [r2, #0]
10000404:	1c43      	adds	r3, r0, #1
10000406:	b2db      	uxtb	r3, r3
10000408:	2b17      	cmp	r3, #23
1000040a:	d900      	bls.n	1000040e <next_striped_spin_lock_num+0xe>
1000040c:	2310      	movs	r3, #16
1000040e:	7013      	strb	r3, [r2, #0]
10000410:	4770      	bx	lr
10000412:	46c0      	nop			; (mov r8, r8)
10000414:	20000188 	.word	0x20000188

10000418 <running_on_fpga>:
10000418:	4b02      	ldr	r3, [pc, #8]	; (10000424 <running_on_fpga+0xc>)
1000041a:	6818      	ldr	r0, [r3, #0]
1000041c:	0780      	lsls	r0, r0, #30
1000041e:	0fc0      	lsrs	r0, r0, #31
10000420:	4770      	bx	lr
10000422:	46c0      	nop			; (mov r8, r8)
10000424:	4006c000 	.word	0x4006c000

10000428 <timer_pool_entry_comparator>:
10000428:	6883      	ldr	r3, [r0, #8]
1000042a:	480b      	ldr	r0, [pc, #44]	; (10000458 <timer_pool_entry_comparator+0x30>)
1000042c:	b510      	push	{r4, lr}
1000042e:	4684      	mov	ip, r0
10000430:	4461      	add	r1, ip
10000432:	4462      	add	r2, ip
10000434:	0109      	lsls	r1, r1, #4
10000436:	0112      	lsls	r2, r2, #4
10000438:	189a      	adds	r2, r3, r2
1000043a:	1859      	adds	r1, r3, r1
1000043c:	6854      	ldr	r4, [r2, #4]
1000043e:	684b      	ldr	r3, [r1, #4]
10000440:	2001      	movs	r0, #1
10000442:	429c      	cmp	r4, r3
10000444:	d801      	bhi.n	1000044a <timer_pool_entry_comparator+0x22>
10000446:	d002      	beq.n	1000044e <timer_pool_entry_comparator+0x26>
10000448:	2000      	movs	r0, #0
1000044a:	b2c0      	uxtb	r0, r0
1000044c:	bd10      	pop	{r4, pc}
1000044e:	6812      	ldr	r2, [r2, #0]
10000450:	680b      	ldr	r3, [r1, #0]
10000452:	429a      	cmp	r2, r3
10000454:	d8f9      	bhi.n	1000044a <timer_pool_entry_comparator+0x22>
10000456:	e7f7      	b.n	10000448 <timer_pool_entry_comparator+0x20>
10000458:	0fffffff 	.word	0x0fffffff

1000045c <sev_callback>:
1000045c:	bf40      	sev
1000045e:	2000      	movs	r0, #0
10000460:	2100      	movs	r1, #0
10000462:	4770      	bx	lr

10000464 <add_alarm_under_lock>:
10000464:	b5f0      	push	{r4, r5, r6, r7, lr}
10000466:	4657      	mov	r7, sl
10000468:	4645      	mov	r5, r8
1000046a:	46de      	mov	lr, fp
1000046c:	464e      	mov	r6, r9
1000046e:	b5e0      	push	{r5, r6, r7, lr}
10000470:	b083      	sub	sp, #12
10000472:	001f      	movs	r7, r3
10000474:	ab0f      	add	r3, sp, #60	; 0x3c
10000476:	781b      	ldrb	r3, [r3, #0]
10000478:	9c0e      	ldr	r4, [sp, #56]	; 0x38
1000047a:	0005      	movs	r5, r0
1000047c:	4692      	mov	sl, r2
1000047e:	9301      	str	r3, [sp, #4]
10000480:	2c00      	cmp	r4, #0
10000482:	d10d      	bne.n	100004a0 <add_alarm_under_lock+0x3c>
10000484:	6802      	ldr	r2, [r0, #0]
10000486:	7b94      	ldrb	r4, [r2, #14]
10000488:	2c00      	cmp	r4, #0
1000048a:	d056      	beq.n	1000053a <add_alarm_under_lock+0xd6>
1000048c:	6811      	ldr	r1, [r2, #0]
1000048e:	0063      	lsls	r3, r4, #1
10000490:	468c      	mov	ip, r1
10000492:	191b      	adds	r3, r3, r4
10000494:	4463      	add	r3, ip
10000496:	3b03      	subs	r3, #3
10000498:	785b      	ldrb	r3, [r3, #1]
1000049a:	7393      	strb	r3, [r2, #14]
1000049c:	2b00      	cmp	r3, #0
1000049e:	d054      	beq.n	1000054a <add_alarm_under_lock+0xe6>
100004a0:	68aa      	ldr	r2, [r5, #8]
100004a2:	b2e3      	uxtb	r3, r4
100004a4:	4694      	mov	ip, r2
100004a6:	4652      	mov	r2, sl
100004a8:	469b      	mov	fp, r3
100004aa:	4b38      	ldr	r3, [pc, #224]	; (1000058c <add_alarm_under_lock+0x128>)
100004ac:	682e      	ldr	r6, [r5, #0]
100004ae:	18e3      	adds	r3, r4, r3
100004b0:	011b      	lsls	r3, r3, #4
100004b2:	4463      	add	r3, ip
100004b4:	601a      	str	r2, [r3, #0]
100004b6:	9a0c      	ldr	r2, [sp, #48]	; 0x30
100004b8:	605f      	str	r7, [r3, #4]
100004ba:	609a      	str	r2, [r3, #8]
100004bc:	9a0d      	ldr	r2, [sp, #52]	; 0x34
100004be:	60da      	str	r2, [r3, #12]
100004c0:	23d0      	movs	r3, #208	; 0xd0
100004c2:	2280      	movs	r2, #128	; 0x80
100004c4:	061b      	lsls	r3, r3, #24
100004c6:	0312      	lsls	r2, r2, #12
100004c8:	615a      	str	r2, [r3, #20]
100004ca:	0063      	lsls	r3, r4, #1
100004cc:	191b      	adds	r3, r3, r4
100004ce:	3b03      	subs	r3, #3
100004d0:	4698      	mov	r8, r3
100004d2:	2200      	movs	r2, #0
100004d4:	6833      	ldr	r3, [r6, #0]
100004d6:	4443      	add	r3, r8
100004d8:	709a      	strb	r2, [r3, #2]
100004da:	705a      	strb	r2, [r3, #1]
100004dc:	701a      	strb	r2, [r3, #0]
100004de:	7b73      	ldrb	r3, [r6, #13]
100004e0:	4699      	mov	r9, r3
100004e2:	2b00      	cmp	r3, #0
100004e4:	d017      	beq.n	10000516 <add_alarm_under_lock+0xb2>
100004e6:	465a      	mov	r2, fp
100004e8:	0019      	movs	r1, r3
100004ea:	68b0      	ldr	r0, [r6, #8]
100004ec:	6873      	ldr	r3, [r6, #4]
100004ee:	4798      	blx	r3
100004f0:	6832      	ldr	r2, [r6, #0]
100004f2:	2800      	cmp	r0, #0
100004f4:	d12b      	bne.n	1000054e <add_alarm_under_lock+0xea>
100004f6:	4643      	mov	r3, r8
100004f8:	18d1      	adds	r1, r2, r3
100004fa:	464b      	mov	r3, r9
100004fc:	4658      	mov	r0, fp
100004fe:	005b      	lsls	r3, r3, #1
10000500:	444b      	add	r3, r9
10000502:	3b03      	subs	r3, #3
10000504:	18d3      	adds	r3, r2, r3
10000506:	7098      	strb	r0, [r3, #2]
10000508:	4640      	mov	r0, r8
1000050a:	5c12      	ldrb	r2, [r2, r0]
1000050c:	2a00      	cmp	r2, #0
1000050e:	d000      	beq.n	10000512 <add_alarm_under_lock+0xae>
10000510:	705a      	strb	r2, [r3, #1]
10000512:	464b      	mov	r3, r9
10000514:	700b      	strb	r3, [r1, #0]
10000516:	465b      	mov	r3, fp
10000518:	7373      	strb	r3, [r6, #13]
1000051a:	4652      	mov	r2, sl
1000051c:	003b      	movs	r3, r7
1000051e:	7d28      	ldrb	r0, [r5, #20]
10000520:	f000 fb12 	bl	10000b48 <hardware_alarm_set_target>
10000524:	1e06      	subs	r6, r0, #0
10000526:	d002      	beq.n	1000052e <add_alarm_under_lock+0xca>
10000528:	9b01      	ldr	r3, [sp, #4]
1000052a:	2b00      	cmp	r3, #0
1000052c:	d026      	beq.n	1000057c <add_alarm_under_lock+0x118>
1000052e:	9b10      	ldr	r3, [sp, #64]	; 0x40
10000530:	2b00      	cmp	r3, #0
10000532:	d028      	beq.n	10000586 <add_alarm_under_lock+0x122>
10000534:	0020      	movs	r0, r4
10000536:	701e      	strb	r6, [r3, #0]
10000538:	e000      	b.n	1000053c <add_alarm_under_lock+0xd8>
1000053a:	2000      	movs	r0, #0
1000053c:	b003      	add	sp, #12
1000053e:	bc3c      	pop	{r2, r3, r4, r5}
10000540:	4690      	mov	r8, r2
10000542:	4699      	mov	r9, r3
10000544:	46a2      	mov	sl, r4
10000546:	46ab      	mov	fp, r5
10000548:	bdf0      	pop	{r4, r5, r6, r7, pc}
1000054a:	73d3      	strb	r3, [r2, #15]
1000054c:	e7a8      	b.n	100004a0 <add_alarm_under_lock+0x3c>
1000054e:	464b      	mov	r3, r9
10000550:	005b      	lsls	r3, r3, #1
10000552:	444b      	add	r3, r9
10000554:	3b03      	subs	r3, #3
10000556:	18d1      	adds	r1, r2, r3
10000558:	468c      	mov	ip, r1
1000055a:	4641      	mov	r1, r8
1000055c:	4648      	mov	r0, r9
1000055e:	1851      	adds	r1, r2, r1
10000560:	7088      	strb	r0, [r1, #2]
10000562:	5cd3      	ldrb	r3, [r2, r3]
10000564:	2b00      	cmp	r3, #0
10000566:	d000      	beq.n	1000056a <add_alarm_under_lock+0x106>
10000568:	704b      	strb	r3, [r1, #1]
1000056a:	465b      	mov	r3, fp
1000056c:	4662      	mov	r2, ip
1000056e:	7013      	strb	r3, [r2, #0]
10000570:	464b      	mov	r3, r9
10000572:	0020      	movs	r0, r4
10000574:	7373      	strb	r3, [r6, #13]
10000576:	45a1      	cmp	r9, r4
10000578:	d1e0      	bne.n	1000053c <add_alarm_under_lock+0xd8>
1000057a:	e7ce      	b.n	1000051a <add_alarm_under_lock+0xb6>
1000057c:	4659      	mov	r1, fp
1000057e:	6828      	ldr	r0, [r5, #0]
10000580:	f000 fd40 	bl	10001004 <ph_delete>
10000584:	e7d3      	b.n	1000052e <add_alarm_under_lock+0xca>
10000586:	0020      	movs	r0, r4
10000588:	e7d8      	b.n	1000053c <add_alarm_under_lock+0xd8>
1000058a:	46c0      	nop			; (mov r8, r8)
1000058c:	0fffffff 	.word	0x0fffffff

10000590 <alarm_pool_alarm_callback>:
10000590:	b5f0      	push	{r4, r5, r6, r7, lr}
10000592:	46de      	mov	lr, fp
10000594:	464e      	mov	r6, r9
10000596:	4657      	mov	r7, sl
10000598:	4645      	mov	r5, r8
1000059a:	2300      	movs	r3, #0
1000059c:	b5e0      	push	{r5, r6, r7, lr}
1000059e:	b08d      	sub	sp, #52	; 0x34
100005a0:	930a      	str	r3, [sp, #40]	; 0x28
100005a2:	4b71      	ldr	r3, [pc, #452]	; (10000768 <alarm_pool_alarm_callback+0x1d8>)
100005a4:	0082      	lsls	r2, r0, #2
100005a6:	58d3      	ldr	r3, [r2, r3]
100005a8:	900b      	str	r0, [sp, #44]	; 0x2c
100005aa:	4699      	mov	r9, r3
100005ac:	2300      	movs	r3, #0
100005ae:	469b      	mov	fp, r3
100005b0:	464b      	mov	r3, r9
100005b2:	9307      	str	r3, [sp, #28]
100005b4:	f000 fa68 	bl	10000a88 <time_us_64>
100005b8:	9c07      	ldr	r4, [sp, #28]
100005ba:	0006      	movs	r6, r0
100005bc:	000f      	movs	r7, r1
100005be:	6862      	ldr	r2, [r4, #4]
100005c0:	f3ef 8510 	mrs	r5, PRIMASK
100005c4:	b672      	cpsid	i
100005c6:	6813      	ldr	r3, [r2, #0]
100005c8:	2b00      	cmp	r3, #0
100005ca:	d0fc      	beq.n	100005c6 <alarm_pool_alarm_callback+0x36>
100005cc:	0022      	movs	r2, r4
100005ce:	9407      	str	r4, [sp, #28]
100005d0:	f3bf 8f5f 	dmb	sy
100005d4:	6824      	ldr	r4, [r4, #0]
100005d6:	7b63      	ldrb	r3, [r4, #13]
100005d8:	4699      	mov	r9, r3
100005da:	2b00      	cmp	r3, #0
100005dc:	d100      	bne.n	100005e0 <alarm_pool_alarm_callback+0x50>
100005de:	e070      	b.n	100006c2 <alarm_pool_alarm_callback+0x132>
100005e0:	6892      	ldr	r2, [r2, #8]
100005e2:	4b62      	ldr	r3, [pc, #392]	; (1000076c <alarm_pool_alarm_callback+0x1dc>)
100005e4:	4690      	mov	r8, r2
100005e6:	444b      	add	r3, r9
100005e8:	011b      	lsls	r3, r3, #4
100005ea:	4498      	add	r8, r3
100005ec:	4643      	mov	r3, r8
100005ee:	681a      	ldr	r2, [r3, #0]
100005f0:	685b      	ldr	r3, [r3, #4]
100005f2:	0010      	movs	r0, r2
100005f4:	0019      	movs	r1, r3
100005f6:	1b80      	subs	r0, r0, r6
100005f8:	41b9      	sbcs	r1, r7
100005fa:	2900      	cmp	r1, #0
100005fc:	dd68      	ble.n	100006d0 <alarm_pool_alarm_callback+0x140>
100005fe:	980b      	ldr	r0, [sp, #44]	; 0x2c
10000600:	f000 faa2 	bl	10000b48 <hardware_alarm_set_target>
10000604:	2300      	movs	r3, #0
10000606:	2600      	movs	r6, #0
10000608:	4698      	mov	r8, r3
1000060a:	2700      	movs	r7, #0
1000060c:	469a      	mov	sl, r3
1000060e:	9c07      	ldr	r4, [sp, #28]
10000610:	6863      	ldr	r3, [r4, #4]
10000612:	f3bf 8f5f 	dmb	sy
10000616:	465a      	mov	r2, fp
10000618:	601a      	str	r2, [r3, #0]
1000061a:	f385 8810 	msr	PRIMASK, r5
1000061e:	4653      	mov	r3, sl
10000620:	2b00      	cmp	r3, #0
10000622:	d108      	bne.n	10000636 <alarm_pool_alarm_callback+0xa6>
10000624:	2800      	cmp	r0, #0
10000626:	d1c5      	bne.n	100005b4 <alarm_pool_alarm_callback+0x24>
10000628:	b00d      	add	sp, #52	; 0x34
1000062a:	bc3c      	pop	{r2, r3, r4, r5}
1000062c:	4690      	mov	r8, r2
1000062e:	4699      	mov	r9, r3
10000630:	46a2      	mov	sl, r4
10000632:	46ab      	mov	fp, r5
10000634:	bdf0      	pop	{r4, r5, r6, r7, pc}
10000636:	23d0      	movs	r3, #208	; 0xd0
10000638:	2280      	movs	r2, #128	; 0x80
1000063a:	2180      	movs	r1, #128	; 0x80
1000063c:	061b      	lsls	r3, r3, #24
1000063e:	0392      	lsls	r2, r2, #14
10000640:	0309      	lsls	r1, r1, #12
10000642:	615a      	str	r2, [r3, #20]
10000644:	6199      	str	r1, [r3, #24]
10000646:	619a      	str	r2, [r3, #24]
10000648:	9b0a      	ldr	r3, [sp, #40]	; 0x28
1000064a:	4641      	mov	r1, r8
1000064c:	0218      	lsls	r0, r3, #8
1000064e:	464b      	mov	r3, r9
10000650:	4318      	orrs	r0, r3
10000652:	47d0      	blx	sl
10000654:	9008      	str	r0, [sp, #32]
10000656:	9109      	str	r1, [sp, #36]	; 0x24
10000658:	6862      	ldr	r2, [r4, #4]
1000065a:	f3ef 8510 	mrs	r5, PRIMASK
1000065e:	b672      	cpsid	i
10000660:	6813      	ldr	r3, [r2, #0]
10000662:	2b00      	cmp	r3, #0
10000664:	d0fc      	beq.n	10000660 <alarm_pool_alarm_callback+0xd0>
10000666:	9407      	str	r4, [sp, #28]
10000668:	f3bf 8f5f 	dmb	sy
1000066c:	9908      	ldr	r1, [sp, #32]
1000066e:	9a09      	ldr	r2, [sp, #36]	; 0x24
10000670:	2a00      	cmp	r2, #0
10000672:	db49      	blt.n	10000708 <alarm_pool_alarm_callback+0x178>
10000674:	4311      	orrs	r1, r2
10000676:	d003      	beq.n	10000680 <alarm_pool_alarm_callback+0xf0>
10000678:	9b07      	ldr	r3, [sp, #28]
1000067a:	691b      	ldr	r3, [r3, #16]
1000067c:	2b00      	cmp	r3, #0
1000067e:	d15e      	bne.n	1000073e <alarm_pool_alarm_callback+0x1ae>
10000680:	9b07      	ldr	r3, [sp, #28]
10000682:	681b      	ldr	r3, [r3, #0]
10000684:	7bda      	ldrb	r2, [r3, #15]
10000686:	2a00      	cmp	r2, #0
10000688:	d007      	beq.n	1000069a <alarm_pool_alarm_callback+0x10a>
1000068a:	0051      	lsls	r1, r2, #1
1000068c:	188a      	adds	r2, r1, r2
1000068e:	6819      	ldr	r1, [r3, #0]
10000690:	468c      	mov	ip, r1
10000692:	4649      	mov	r1, r9
10000694:	4462      	add	r2, ip
10000696:	3a03      	subs	r2, #3
10000698:	7051      	strb	r1, [r2, #1]
1000069a:	464a      	mov	r2, r9
1000069c:	73da      	strb	r2, [r3, #15]
1000069e:	464b      	mov	r3, r9
100006a0:	9a07      	ldr	r2, [sp, #28]
100006a2:	3b01      	subs	r3, #1
100006a4:	68d1      	ldr	r1, [r2, #12]
100006a6:	5cca      	ldrb	r2, [r1, r3]
100006a8:	3201      	adds	r2, #1
100006aa:	54ca      	strb	r2, [r1, r3]
100006ac:	465b      	mov	r3, fp
100006ae:	9a07      	ldr	r2, [sp, #28]
100006b0:	6113      	str	r3, [r2, #16]
100006b2:	6853      	ldr	r3, [r2, #4]
100006b4:	f3bf 8f5f 	dmb	sy
100006b8:	465a      	mov	r2, fp
100006ba:	601a      	str	r2, [r3, #0]
100006bc:	f385 8810 	msr	PRIMASK, r5
100006c0:	e778      	b.n	100005b4 <alarm_pool_alarm_callback+0x24>
100006c2:	2300      	movs	r3, #0
100006c4:	2600      	movs	r6, #0
100006c6:	4698      	mov	r8, r3
100006c8:	2700      	movs	r7, #0
100006ca:	469a      	mov	sl, r3
100006cc:	2000      	movs	r0, #0
100006ce:	e79e      	b.n	1000060e <alarm_pool_alarm_callback+0x7e>
100006d0:	2900      	cmp	r1, #0
100006d2:	d102      	bne.n	100006da <alarm_pool_alarm_callback+0x14a>
100006d4:	2800      	cmp	r0, #0
100006d6:	d000      	beq.n	100006da <alarm_pool_alarm_callback+0x14a>
100006d8:	e791      	b.n	100005fe <alarm_pool_alarm_callback+0x6e>
100006da:	2101      	movs	r1, #1
100006dc:	0020      	movs	r0, r4
100006de:	f000 fbf3 	bl	10000ec8 <ph_remove_head_reserve>
100006e2:	4643      	mov	r3, r8
100006e4:	681e      	ldr	r6, [r3, #0]
100006e6:	685f      	ldr	r7, [r3, #4]
100006e8:	689b      	ldr	r3, [r3, #8]
100006ea:	9a07      	ldr	r2, [sp, #28]
100006ec:	469a      	mov	sl, r3
100006ee:	4643      	mov	r3, r8
100006f0:	68db      	ldr	r3, [r3, #12]
100006f2:	4698      	mov	r8, r3
100006f4:	68d3      	ldr	r3, [r2, #12]
100006f6:	444b      	add	r3, r9
100006f8:	3b01      	subs	r3, #1
100006fa:	781b      	ldrb	r3, [r3, #0]
100006fc:	930a      	str	r3, [sp, #40]	; 0x28
100006fe:	021b      	lsls	r3, r3, #8
10000700:	4303      	orrs	r3, r0
10000702:	6113      	str	r3, [r2, #16]
10000704:	2000      	movs	r0, #0
10000706:	e782      	b.n	1000060e <alarm_pool_alarm_callback+0x7e>
10000708:	6923      	ldr	r3, [r4, #16]
1000070a:	2b00      	cmp	r3, #0
1000070c:	d0b8      	beq.n	10000680 <alarm_pool_alarm_callback+0xf0>
1000070e:	0033      	movs	r3, r6
10000710:	003c      	movs	r4, r7
10000712:	1a5b      	subs	r3, r3, r1
10000714:	4194      	sbcs	r4, r2
10000716:	001a      	movs	r2, r3
10000718:	0023      	movs	r3, r4
1000071a:	42a7      	cmp	r7, r4
1000071c:	d819      	bhi.n	10000752 <alarm_pool_alarm_callback+0x1c2>
1000071e:	429f      	cmp	r7, r3
10000720:	d01b      	beq.n	1000075a <alarm_pool_alarm_callback+0x1ca>
10000722:	4659      	mov	r1, fp
10000724:	9104      	str	r1, [sp, #16]
10000726:	2101      	movs	r1, #1
10000728:	9103      	str	r1, [sp, #12]
1000072a:	4649      	mov	r1, r9
1000072c:	9102      	str	r1, [sp, #8]
1000072e:	4641      	mov	r1, r8
10000730:	9101      	str	r1, [sp, #4]
10000732:	4651      	mov	r1, sl
10000734:	9807      	ldr	r0, [sp, #28]
10000736:	9100      	str	r1, [sp, #0]
10000738:	f7ff fe94 	bl	10000464 <add_alarm_under_lock>
1000073c:	e7b6      	b.n	100006ac <alarm_pool_alarm_callback+0x11c>
1000073e:	f000 f9a3 	bl	10000a88 <time_us_64>
10000742:	9a08      	ldr	r2, [sp, #32]
10000744:	9b09      	ldr	r3, [sp, #36]	; 0x24
10000746:	0006      	movs	r6, r0
10000748:	000f      	movs	r7, r1
1000074a:	1992      	adds	r2, r2, r6
1000074c:	417b      	adcs	r3, r7
1000074e:	4299      	cmp	r1, r3
10000750:	d9e5      	bls.n	1000071e <alarm_pool_alarm_callback+0x18e>
10000752:	2201      	movs	r2, #1
10000754:	4252      	negs	r2, r2
10000756:	17d3      	asrs	r3, r2, #31
10000758:	e7e3      	b.n	10000722 <alarm_pool_alarm_callback+0x192>
1000075a:	4296      	cmp	r6, r2
1000075c:	d9e1      	bls.n	10000722 <alarm_pool_alarm_callback+0x192>
1000075e:	2201      	movs	r2, #1
10000760:	4252      	negs	r2, r2
10000762:	17d3      	asrs	r3, r2, #31
10000764:	e7dd      	b.n	10000722 <alarm_pool_alarm_callback+0x192>
10000766:	46c0      	nop			; (mov r8, r8)
10000768:	20000af8 	.word	0x20000af8
1000076c:	0fffffff 	.word	0x0fffffff

10000770 <alarm_pool_add_alarm_at.constprop.0>:
10000770:	b5f8      	push	{r3, r4, r5, r6, r7, lr}
10000772:	4657      	mov	r7, sl
10000774:	464e      	mov	r6, r9
10000776:	46de      	mov	lr, fp
10000778:	4645      	mov	r5, r8
1000077a:	4691      	mov	r9, r2
1000077c:	b5e0      	push	{r5, r6, r7, lr}
1000077e:	0004      	movs	r4, r0
10000780:	469a      	mov	sl, r3
10000782:	6842      	ldr	r2, [r0, #4]
10000784:	f3ef 8810 	mrs	r8, PRIMASK
10000788:	b672      	cpsid	i
1000078a:	6813      	ldr	r3, [r2, #0]
1000078c:	2b00      	cmp	r3, #0
1000078e:	d0fc      	beq.n	1000078a <alarm_pool_add_alarm_at.constprop.0+0x1a>
10000790:	f3bf 8f5f 	dmb	sy
10000794:	6826      	ldr	r6, [r4, #0]
10000796:	7bb5      	ldrb	r5, [r6, #14]
10000798:	2d00      	cmp	r5, #0
1000079a:	d040      	beq.n	1000081e <alarm_pool_add_alarm_at.constprop.0+0xae>
1000079c:	006f      	lsls	r7, r5, #1
1000079e:	6833      	ldr	r3, [r6, #0]
100007a0:	197f      	adds	r7, r7, r5
100007a2:	3f03      	subs	r7, #3
100007a4:	19db      	adds	r3, r3, r7
100007a6:	785b      	ldrb	r3, [r3, #1]
100007a8:	73b3      	strb	r3, [r6, #14]
100007aa:	2b00      	cmp	r3, #0
100007ac:	d100      	bne.n	100007b0 <alarm_pool_add_alarm_at.constprop.0+0x40>
100007ae:	73f3      	strb	r3, [r6, #15]
100007b0:	4b37      	ldr	r3, [pc, #220]	; (10000890 <alarm_pool_add_alarm_at.constprop.0+0x120>)
100007b2:	2200      	movs	r2, #0
100007b4:	18e9      	adds	r1, r5, r3
100007b6:	68a3      	ldr	r3, [r4, #8]
100007b8:	0109      	lsls	r1, r1, #4
100007ba:	469c      	mov	ip, r3
100007bc:	464b      	mov	r3, r9
100007be:	4461      	add	r1, ip
100007c0:	600b      	str	r3, [r1, #0]
100007c2:	4653      	mov	r3, sl
100007c4:	604b      	str	r3, [r1, #4]
100007c6:	4b33      	ldr	r3, [pc, #204]	; (10000894 <alarm_pool_add_alarm_at.constprop.0+0x124>)
100007c8:	60ca      	str	r2, [r1, #12]
100007ca:	608b      	str	r3, [r1, #8]
100007cc:	23d0      	movs	r3, #208	; 0xd0
100007ce:	2180      	movs	r1, #128	; 0x80
100007d0:	061b      	lsls	r3, r3, #24
100007d2:	0309      	lsls	r1, r1, #12
100007d4:	6159      	str	r1, [r3, #20]
100007d6:	6833      	ldr	r3, [r6, #0]
100007d8:	19db      	adds	r3, r3, r7
100007da:	709a      	strb	r2, [r3, #2]
100007dc:	705a      	strb	r2, [r3, #1]
100007de:	701a      	strb	r2, [r3, #0]
100007e0:	7b73      	ldrb	r3, [r6, #13]
100007e2:	469b      	mov	fp, r3
100007e4:	2b00      	cmp	r3, #0
100007e6:	d035      	beq.n	10000854 <alarm_pool_add_alarm_at.constprop.0+0xe4>
100007e8:	002a      	movs	r2, r5
100007ea:	0019      	movs	r1, r3
100007ec:	68b0      	ldr	r0, [r6, #8]
100007ee:	6873      	ldr	r3, [r6, #4]
100007f0:	4798      	blx	r3
100007f2:	6832      	ldr	r2, [r6, #0]
100007f4:	2800      	cmp	r0, #0
100007f6:	d020      	beq.n	1000083a <alarm_pool_add_alarm_at.constprop.0+0xca>
100007f8:	465b      	mov	r3, fp
100007fa:	4658      	mov	r0, fp
100007fc:	005b      	lsls	r3, r3, #1
100007fe:	445b      	add	r3, fp
10000800:	19d7      	adds	r7, r2, r7
10000802:	3b03      	subs	r3, #3
10000804:	70b8      	strb	r0, [r7, #2]
10000806:	18d1      	adds	r1, r2, r3
10000808:	5cd3      	ldrb	r3, [r2, r3]
1000080a:	2b00      	cmp	r3, #0
1000080c:	d000      	beq.n	10000810 <alarm_pool_add_alarm_at.constprop.0+0xa0>
1000080e:	707b      	strb	r3, [r7, #1]
10000810:	465b      	mov	r3, fp
10000812:	700d      	strb	r5, [r1, #0]
10000814:	7373      	strb	r3, [r6, #13]
10000816:	455d      	cmp	r5, fp
10000818:	d01d      	beq.n	10000856 <alarm_pool_add_alarm_at.constprop.0+0xe6>
1000081a:	2600      	movs	r6, #0
1000081c:	e026      	b.n	1000086c <alarm_pool_add_alarm_at.constprop.0+0xfc>
1000081e:	6863      	ldr	r3, [r4, #4]
10000820:	f3bf 8f5f 	dmb	sy
10000824:	601d      	str	r5, [r3, #0]
10000826:	f388 8810 	msr	PRIMASK, r8
1000082a:	2001      	movs	r0, #1
1000082c:	4240      	negs	r0, r0
1000082e:	bc3c      	pop	{r2, r3, r4, r5}
10000830:	4690      	mov	r8, r2
10000832:	4699      	mov	r9, r3
10000834:	46a2      	mov	sl, r4
10000836:	46ab      	mov	fp, r5
10000838:	bdf8      	pop	{r3, r4, r5, r6, r7, pc}
1000083a:	465b      	mov	r3, fp
1000083c:	005b      	lsls	r3, r3, #1
1000083e:	445b      	add	r3, fp
10000840:	3b03      	subs	r3, #3
10000842:	18d3      	adds	r3, r2, r3
10000844:	709d      	strb	r5, [r3, #2]
10000846:	19d1      	adds	r1, r2, r7
10000848:	5dd2      	ldrb	r2, [r2, r7]
1000084a:	2a00      	cmp	r2, #0
1000084c:	d000      	beq.n	10000850 <alarm_pool_add_alarm_at.constprop.0+0xe0>
1000084e:	705a      	strb	r2, [r3, #1]
10000850:	465b      	mov	r3, fp
10000852:	700b      	strb	r3, [r1, #0]
10000854:	7375      	strb	r5, [r6, #13]
10000856:	464a      	mov	r2, r9
10000858:	4653      	mov	r3, sl
1000085a:	7d20      	ldrb	r0, [r4, #20]
1000085c:	f000 f974 	bl	10000b48 <hardware_alarm_set_target>
10000860:	1e06      	subs	r6, r0, #0
10000862:	d0da      	beq.n	1000081a <alarm_pool_add_alarm_at.constprop.0+0xaa>
10000864:	0029      	movs	r1, r5
10000866:	6820      	ldr	r0, [r4, #0]
10000868:	f000 fbcc 	bl	10001004 <ph_delete>
1000086c:	68e3      	ldr	r3, [r4, #12]
1000086e:	6862      	ldr	r2, [r4, #4]
10000870:	195b      	adds	r3, r3, r5
10000872:	3b01      	subs	r3, #1
10000874:	781b      	ldrb	r3, [r3, #0]
10000876:	f3bf 8f5f 	dmb	sy
1000087a:	2100      	movs	r1, #0
1000087c:	6011      	str	r1, [r2, #0]
1000087e:	f388 8810 	msr	PRIMASK, r8
10000882:	2000      	movs	r0, #0
10000884:	2e00      	cmp	r6, #0
10000886:	d1d2      	bne.n	1000082e <alarm_pool_add_alarm_at.constprop.0+0xbe>
10000888:	0218      	lsls	r0, r3, #8
1000088a:	4328      	orrs	r0, r5
1000088c:	e7cf      	b.n	1000082e <alarm_pool_add_alarm_at.constprop.0+0xbe>
1000088e:	46c0      	nop			; (mov r8, r8)
10000890:	0fffffff 	.word	0x0fffffff
10000894:	1000045d 	.word	0x1000045d

10000898 <alarm_pool_init_default>:
10000898:	b570      	push	{r4, r5, r6, lr}
1000089a:	4c18      	ldr	r4, [pc, #96]	; (100008fc <alarm_pool_init_default+0x64>)
1000089c:	6823      	ldr	r3, [r4, #0]
1000089e:	2b00      	cmp	r3, #0
100008a0:	d000      	beq.n	100008a4 <alarm_pool_init_default+0xc>
100008a2:	bd70      	pop	{r4, r5, r6, pc}
100008a4:	2003      	movs	r0, #3
100008a6:	f000 f8e3 	bl	10000a70 <hardware_alarm_claim>
100008aa:	2003      	movs	r0, #3
100008ac:	f000 f9ae 	bl	10000c0c <hardware_alarm_cancel>
100008b0:	4913      	ldr	r1, [pc, #76]	; (10000900 <alarm_pool_init_default+0x68>)
100008b2:	2003      	movs	r0, #3
100008b4:	f000 f902 	bl	10000abc <hardware_alarm_set_callback>
100008b8:	2018      	movs	r0, #24
100008ba:	f001 f935 	bl	10001b28 <__wrap_malloc>
100008be:	0005      	movs	r5, r0
100008c0:	f7ff fd9e 	bl	10000400 <next_striped_spin_lock_num>
100008c4:	4b0f      	ldr	r3, [pc, #60]	; (10000904 <alarm_pool_init_default+0x6c>)
100008c6:	002a      	movs	r2, r5
100008c8:	469c      	mov	ip, r3
100008ca:	4460      	add	r0, ip
100008cc:	0080      	lsls	r0, r0, #2
100008ce:	490e      	ldr	r1, [pc, #56]	; (10000908 <alarm_pool_init_default+0x70>)
100008d0:	6068      	str	r0, [r5, #4]
100008d2:	2010      	movs	r0, #16
100008d4:	f000 fa02 	bl	10000cdc <ph_create>
100008d8:	2110      	movs	r1, #16
100008da:	6028      	str	r0, [r5, #0]
100008dc:	2010      	movs	r0, #16
100008de:	f001 f927 	bl	10001b30 <__wrap_calloc>
100008e2:	2101      	movs	r1, #1
100008e4:	60a8      	str	r0, [r5, #8]
100008e6:	2010      	movs	r0, #16
100008e8:	f001 f922 	bl	10001b30 <__wrap_calloc>
100008ec:	2303      	movs	r3, #3
100008ee:	752b      	strb	r3, [r5, #20]
100008f0:	4b06      	ldr	r3, [pc, #24]	; (1000090c <alarm_pool_init_default+0x74>)
100008f2:	60e8      	str	r0, [r5, #12]
100008f4:	60dd      	str	r5, [r3, #12]
100008f6:	6025      	str	r5, [r4, #0]
100008f8:	e7d3      	b.n	100008a2 <alarm_pool_init_default+0xa>
100008fa:	46c0      	nop			; (mov r8, r8)
100008fc:	20000ae4 	.word	0x20000ae4
10000900:	10000591 	.word	0x10000591
10000904:	34000040 	.word	0x34000040
10000908:	10000429 	.word	0x10000429
1000090c:	20000af8 	.word	0x20000af8

10000910 <sleep_ms>:
10000910:	b5f8      	push	{r3, r4, r5, r6, r7, lr}
10000912:	0004      	movs	r4, r0
10000914:	f000 f8b8 	bl	10000a88 <time_us_64>
10000918:	22fa      	movs	r2, #250	; 0xfa
1000091a:	0006      	movs	r6, r0
1000091c:	000f      	movs	r7, r1
1000091e:	0020      	movs	r0, r4
10000920:	2300      	movs	r3, #0
10000922:	2100      	movs	r1, #0
10000924:	0092      	lsls	r2, r2, #2
10000926:	f001 f89d 	bl	10001a64 <__wrap___aeabi_lmul>
1000092a:	1980      	adds	r0, r0, r6
1000092c:	4179      	adcs	r1, r7
1000092e:	0004      	movs	r4, r0
10000930:	000d      	movs	r5, r1
10000932:	428f      	cmp	r7, r1
10000934:	d82f      	bhi.n	10000996 <sleep_ms+0x86>
10000936:	d02c      	beq.n	10000992 <sleep_ms+0x82>
10000938:	2606      	movs	r6, #6
1000093a:	4276      	negs	r6, r6
1000093c:	17f7      	asrs	r7, r6, #31
1000093e:	1936      	adds	r6, r6, r4
10000940:	416f      	adcs	r7, r5
10000942:	42af      	cmp	r7, r5
10000944:	d92e      	bls.n	100009a4 <sleep_ms+0x94>
10000946:	2600      	movs	r6, #0
10000948:	2700      	movs	r7, #0
1000094a:	f000 f89d 	bl	10000a88 <time_us_64>
1000094e:	0032      	movs	r2, r6
10000950:	003b      	movs	r3, r7
10000952:	1a12      	subs	r2, r2, r0
10000954:	418b      	sbcs	r3, r1
10000956:	2b00      	cmp	r3, #0
10000958:	dc07      	bgt.n	1000096a <sleep_ms+0x5a>
1000095a:	d004      	beq.n	10000966 <sleep_ms+0x56>
1000095c:	0029      	movs	r1, r5
1000095e:	0020      	movs	r0, r4
10000960:	f000 f89c 	bl	10000a9c <busy_wait_until>
10000964:	bdf8      	pop	{r3, r4, r5, r6, r7, pc}
10000966:	2a00      	cmp	r2, #0
10000968:	d0f8      	beq.n	1000095c <sleep_ms+0x4c>
1000096a:	4b11      	ldr	r3, [pc, #68]	; (100009b0 <sleep_ms+0xa0>)
1000096c:	0032      	movs	r2, r6
1000096e:	6818      	ldr	r0, [r3, #0]
10000970:	003b      	movs	r3, r7
10000972:	f7ff fefd 	bl	10000770 <alarm_pool_add_alarm_at.constprop.0>
10000976:	2800      	cmp	r0, #0
10000978:	dbf0      	blt.n	1000095c <sleep_ms+0x4c>
1000097a:	0038      	movs	r0, r7
1000097c:	4a0d      	ldr	r2, [pc, #52]	; (100009b4 <sleep_ms+0xa4>)
1000097e:	6a53      	ldr	r3, [r2, #36]	; 0x24
10000980:	4298      	cmp	r0, r3
10000982:	d804      	bhi.n	1000098e <sleep_ms+0x7e>
10000984:	6a91      	ldr	r1, [r2, #40]	; 0x28
10000986:	428e      	cmp	r6, r1
10000988:	d9e8      	bls.n	1000095c <sleep_ms+0x4c>
1000098a:	4298      	cmp	r0, r3
1000098c:	d1e6      	bne.n	1000095c <sleep_ms+0x4c>
1000098e:	bf20      	wfe
10000990:	e7f5      	b.n	1000097e <sleep_ms+0x6e>
10000992:	4286      	cmp	r6, r0
10000994:	d9d0      	bls.n	10000938 <sleep_ms+0x28>
10000996:	2401      	movs	r4, #1
10000998:	4264      	negs	r4, r4
1000099a:	17e5      	asrs	r5, r4, #31
1000099c:	2607      	movs	r6, #7
1000099e:	4276      	negs	r6, r6
100009a0:	17f7      	asrs	r7, r6, #31
100009a2:	e7d2      	b.n	1000094a <sleep_ms+0x3a>
100009a4:	42af      	cmp	r7, r5
100009a6:	d1d0      	bne.n	1000094a <sleep_ms+0x3a>
100009a8:	42a6      	cmp	r6, r4
100009aa:	d8cc      	bhi.n	10000946 <sleep_ms+0x36>
100009ac:	e7cd      	b.n	1000094a <sleep_ms+0x3a>
100009ae:	46c0      	nop			; (mov r8, r8)
100009b0:	20000ae4 	.word	0x20000ae4
100009b4:	40054000 	.word	0x40054000

100009b8 <hardware_alarm_irq_handler>:
100009b8:	b5f0      	push	{r4, r5, r6, r7, lr}
100009ba:	46d6      	mov	lr, sl
100009bc:	464f      	mov	r7, r9
100009be:	4646      	mov	r6, r8
100009c0:	b5c0      	push	{r6, r7, lr}
100009c2:	f3ef 8305 	mrs	r3, IPSR
100009c6:	223f      	movs	r2, #63	; 0x3f
100009c8:	4013      	ands	r3, r2
100009ca:	0018      	movs	r0, r3
100009cc:	3810      	subs	r0, #16
100009ce:	f3ef 8c10 	mrs	ip, PRIMASK
100009d2:	b672      	cpsid	i
100009d4:	4d20      	ldr	r5, [pc, #128]	; (10000a58 <hardware_alarm_irq_handler+0xa0>)
100009d6:	682a      	ldr	r2, [r5, #0]
100009d8:	2a00      	cmp	r2, #0
100009da:	d0fc      	beq.n	100009d6 <hardware_alarm_irq_handler+0x1e>
100009dc:	f3bf 8f5f 	dmb	sy
100009e0:	2201      	movs	r2, #1
100009e2:	0011      	movs	r1, r2
100009e4:	4081      	lsls	r1, r0
100009e6:	4c1d      	ldr	r4, [pc, #116]	; (10000a5c <hardware_alarm_irq_handler+0xa4>)
100009e8:	4688      	mov	r8, r1
100009ea:	6361      	str	r1, [r4, #52]	; 0x34
100009ec:	491c      	ldr	r1, [pc, #112]	; (10000a60 <hardware_alarm_irq_handler+0xa8>)
100009ee:	0017      	movs	r7, r2
100009f0:	780e      	ldrb	r6, [r1, #0]
100009f2:	468a      	mov	sl, r1
100009f4:	0031      	movs	r1, r6
100009f6:	40c1      	lsrs	r1, r0
100009f8:	400f      	ands	r7, r1
100009fa:	420a      	tst	r2, r1
100009fc:	d015      	beq.n	10000a2a <hardware_alarm_irq_handler+0x72>
100009fe:	4919      	ldr	r1, [pc, #100]	; (10000a64 <hardware_alarm_irq_handler+0xac>)
10000a00:	0082      	lsls	r2, r0, #2
10000a02:	6a64      	ldr	r4, [r4, #36]	; 0x24
10000a04:	5851      	ldr	r1, [r2, r1]
10000a06:	428c      	cmp	r4, r1
10000a08:	d319      	bcc.n	10000a3e <hardware_alarm_irq_handler+0x86>
10000a0a:	4b17      	ldr	r3, [pc, #92]	; (10000a68 <hardware_alarm_irq_handler+0xb0>)
10000a0c:	58d2      	ldr	r2, [r2, r3]
10000a0e:	4643      	mov	r3, r8
10000a10:	439e      	bics	r6, r3
10000a12:	4653      	mov	r3, sl
10000a14:	701e      	strb	r6, [r3, #0]
10000a16:	f3bf 8f5f 	dmb	sy
10000a1a:	2300      	movs	r3, #0
10000a1c:	602b      	str	r3, [r5, #0]
10000a1e:	f38c 8810 	msr	PRIMASK, ip
10000a22:	2a00      	cmp	r2, #0
10000a24:	d006      	beq.n	10000a34 <hardware_alarm_irq_handler+0x7c>
10000a26:	4790      	blx	r2
10000a28:	e004      	b.n	10000a34 <hardware_alarm_irq_handler+0x7c>
10000a2a:	f3bf 8f5f 	dmb	sy
10000a2e:	602f      	str	r7, [r5, #0]
10000a30:	f38c 8810 	msr	PRIMASK, ip
10000a34:	bc1c      	pop	{r2, r3, r4}
10000a36:	4690      	mov	r8, r2
10000a38:	4699      	mov	r9, r3
10000a3a:	46a2      	mov	sl, r4
10000a3c:	bdf0      	pop	{r4, r5, r6, r7, pc}
10000a3e:	4a0b      	ldr	r2, [pc, #44]	; (10000a6c <hardware_alarm_irq_handler+0xb4>)
10000a40:	009b      	lsls	r3, r3, #2
10000a42:	4690      	mov	r8, r2
10000a44:	4443      	add	r3, r8
10000a46:	681a      	ldr	r2, [r3, #0]
10000a48:	601a      	str	r2, [r3, #0]
10000a4a:	f3bf 8f5f 	dmb	sy
10000a4e:	2300      	movs	r3, #0
10000a50:	602b      	str	r3, [r5, #0]
10000a52:	f38c 8810 	msr	PRIMASK, ip
10000a56:	e7ed      	b.n	10000a34 <hardware_alarm_irq_handler+0x7c>
10000a58:	d0000128 	.word	0xd0000128
10000a5c:	40054000 	.word	0x40054000
10000a60:	20000b1a 	.word	0x20000b1a
10000a64:	20000b08 	.word	0x20000b08
10000a68:	20000aac 	.word	0x20000aac
10000a6c:	40053fd0 	.word	0x40053fd0

10000a70 <hardware_alarm_claim>:
10000a70:	b510      	push	{r4, lr}
10000a72:	0001      	movs	r1, r0
10000a74:	4a02      	ldr	r2, [pc, #8]	; (10000a80 <hardware_alarm_claim+0x10>)
10000a76:	4803      	ldr	r0, [pc, #12]	; (10000a84 <hardware_alarm_claim+0x14>)
10000a78:	f7ff fc84 	bl	10000384 <hw_claim_or_assert>
10000a7c:	bd10      	pop	{r4, pc}
10000a7e:	46c0      	nop			; (mov r8, r8)
10000a80:	10002690 	.word	0x10002690
10000a84:	20000b18 	.word	0x20000b18

10000a88 <time_us_64>:
10000a88:	4b03      	ldr	r3, [pc, #12]	; (10000a98 <time_us_64+0x10>)
10000a8a:	6a59      	ldr	r1, [r3, #36]	; 0x24
10000a8c:	000a      	movs	r2, r1
10000a8e:	6a98      	ldr	r0, [r3, #40]	; 0x28
10000a90:	6a59      	ldr	r1, [r3, #36]	; 0x24
10000a92:	428a      	cmp	r2, r1
10000a94:	d1fa      	bne.n	10000a8c <time_us_64+0x4>
10000a96:	4770      	bx	lr
10000a98:	40054000 	.word	0x40054000

10000a9c <busy_wait_until>:
10000a9c:	4a06      	ldr	r2, [pc, #24]	; (10000ab8 <busy_wait_until+0x1c>)
10000a9e:	6a53      	ldr	r3, [r2, #36]	; 0x24
10000aa0:	4299      	cmp	r1, r3
10000aa2:	d8fc      	bhi.n	10000a9e <busy_wait_until+0x2>
10000aa4:	d107      	bne.n	10000ab6 <busy_wait_until+0x1a>
10000aa6:	4b04      	ldr	r3, [pc, #16]	; (10000ab8 <busy_wait_until+0x1c>)
10000aa8:	e002      	b.n	10000ab0 <busy_wait_until+0x14>
10000aaa:	6a5a      	ldr	r2, [r3, #36]	; 0x24
10000aac:	4291      	cmp	r1, r2
10000aae:	d102      	bne.n	10000ab6 <busy_wait_until+0x1a>
10000ab0:	6a9a      	ldr	r2, [r3, #40]	; 0x28
10000ab2:	4282      	cmp	r2, r0
10000ab4:	d3f9      	bcc.n	10000aaa <busy_wait_until+0xe>
10000ab6:	4770      	bx	lr
10000ab8:	40054000 	.word	0x40054000

10000abc <hardware_alarm_set_callback>:
10000abc:	b570      	push	{r4, r5, r6, lr}
10000abe:	0004      	movs	r4, r0
10000ac0:	000d      	movs	r5, r1
10000ac2:	f3ef 8610 	mrs	r6, PRIMASK
10000ac6:	b672      	cpsid	i
10000ac8:	4a1a      	ldr	r2, [pc, #104]	; (10000b34 <hardware_alarm_set_callback+0x78>)
10000aca:	6813      	ldr	r3, [r2, #0]
10000acc:	2b00      	cmp	r3, #0
10000ace:	d0fc      	beq.n	10000aca <hardware_alarm_set_callback+0xe>
10000ad0:	f3bf 8f5f 	dmb	sy
10000ad4:	2d00      	cmp	r5, #0
10000ad6:	d01b      	beq.n	10000b10 <hardware_alarm_set_callback+0x54>
10000ad8:	0020      	movs	r0, r4
10000ada:	f000 fd49 	bl	10001570 <irq_get_vtable_handler>
10000ade:	4916      	ldr	r1, [pc, #88]	; (10000b38 <hardware_alarm_set_callback+0x7c>)
10000ae0:	4281      	cmp	r1, r0
10000ae2:	d00a      	beq.n	10000afa <hardware_alarm_set_callback+0x3e>
10000ae4:	0020      	movs	r0, r4
10000ae6:	f000 fd4b 	bl	10001580 <irq_set_exclusive_handler>
10000aea:	2101      	movs	r1, #1
10000aec:	0020      	movs	r0, r4
10000aee:	f000 fd2d 	bl	1000154c <irq_set_enabled>
10000af2:	2301      	movs	r3, #1
10000af4:	40a3      	lsls	r3, r4
10000af6:	4a11      	ldr	r2, [pc, #68]	; (10000b3c <hardware_alarm_set_callback+0x80>)
10000af8:	6013      	str	r3, [r2, #0]
10000afa:	4b11      	ldr	r3, [pc, #68]	; (10000b40 <hardware_alarm_set_callback+0x84>)
10000afc:	00a4      	lsls	r4, r4, #2
10000afe:	50e5      	str	r5, [r4, r3]
10000b00:	f3bf 8f5f 	dmb	sy
10000b04:	2200      	movs	r2, #0
10000b06:	4b0b      	ldr	r3, [pc, #44]	; (10000b34 <hardware_alarm_set_callback+0x78>)
10000b08:	601a      	str	r2, [r3, #0]
10000b0a:	f386 8810 	msr	PRIMASK, r6
10000b0e:	bd70      	pop	{r4, r5, r6, pc}
10000b10:	4b0b      	ldr	r3, [pc, #44]	; (10000b40 <hardware_alarm_set_callback+0x84>)
10000b12:	00a2      	lsls	r2, r4, #2
10000b14:	50d5      	str	r5, [r2, r3]
10000b16:	2201      	movs	r2, #1
10000b18:	40a2      	lsls	r2, r4
10000b1a:	490a      	ldr	r1, [pc, #40]	; (10000b44 <hardware_alarm_set_callback+0x88>)
10000b1c:	0020      	movs	r0, r4
10000b1e:	780b      	ldrb	r3, [r1, #0]
10000b20:	4393      	bics	r3, r2
10000b22:	700b      	strb	r3, [r1, #0]
10000b24:	4904      	ldr	r1, [pc, #16]	; (10000b38 <hardware_alarm_set_callback+0x7c>)
10000b26:	f000 fd55 	bl	100015d4 <irq_remove_handler>
10000b2a:	2100      	movs	r1, #0
10000b2c:	0020      	movs	r0, r4
10000b2e:	f000 fd0d 	bl	1000154c <irq_set_enabled>
10000b32:	e7e5      	b.n	10000b00 <hardware_alarm_set_callback+0x44>
10000b34:	d0000128 	.word	0xd0000128
10000b38:	100009b9 	.word	0x100009b9
10000b3c:	40056038 	.word	0x40056038
10000b40:	20000aac 	.word	0x20000aac
10000b44:	20000b1a 	.word	0x20000b1a

10000b48 <hardware_alarm_set_target>:
10000b48:	b5f0      	push	{r4, r5, r6, r7, lr}
10000b4a:	46ce      	mov	lr, r9
10000b4c:	4647      	mov	r7, r8
10000b4e:	b580      	push	{r7, lr}
10000b50:	4c2a      	ldr	r4, [pc, #168]	; (10000bfc <hardware_alarm_set_target+0xb4>)
10000b52:	6a61      	ldr	r1, [r4, #36]	; 0x24
10000b54:	000d      	movs	r5, r1
10000b56:	6aa6      	ldr	r6, [r4, #40]	; 0x28
10000b58:	6a61      	ldr	r1, [r4, #36]	; 0x24
10000b5a:	42a9      	cmp	r1, r5
10000b5c:	d1fa      	bne.n	10000b54 <hardware_alarm_set_target+0xc>
10000b5e:	428b      	cmp	r3, r1
10000b60:	d807      	bhi.n	10000b72 <hardware_alarm_set_target+0x2a>
10000b62:	d004      	beq.n	10000b6e <hardware_alarm_set_target+0x26>
10000b64:	2001      	movs	r0, #1
10000b66:	bc0c      	pop	{r2, r3}
10000b68:	4690      	mov	r8, r2
10000b6a:	4699      	mov	r9, r3
10000b6c:	bdf0      	pop	{r4, r5, r6, r7, pc}
10000b6e:	42b2      	cmp	r2, r6
10000b70:	d9f8      	bls.n	10000b64 <hardware_alarm_set_target+0x1c>
10000b72:	f3ef 8810 	mrs	r8, PRIMASK
10000b76:	b672      	cpsid	i
10000b78:	4c21      	ldr	r4, [pc, #132]	; (10000c00 <hardware_alarm_set_target+0xb8>)
10000b7a:	6821      	ldr	r1, [r4, #0]
10000b7c:	2900      	cmp	r1, #0
10000b7e:	d0fc      	beq.n	10000b7a <hardware_alarm_set_target+0x32>
10000b80:	f3bf 8f5f 	dmb	sy
10000b84:	2501      	movs	r5, #1
10000b86:	4085      	lsls	r5, r0
10000b88:	4c1c      	ldr	r4, [pc, #112]	; (10000bfc <hardware_alarm_set_target+0xb4>)
10000b8a:	4e1e      	ldr	r6, [pc, #120]	; (10000c04 <hardware_alarm_set_target+0xbc>)
10000b8c:	6365      	str	r5, [r4, #52]	; 0x34
10000b8e:	b2e9      	uxtb	r1, r5
10000b90:	468c      	mov	ip, r1
10000b92:	7831      	ldrb	r1, [r6, #0]
10000b94:	4689      	mov	r9, r1
10000b96:	4661      	mov	r1, ip
10000b98:	464f      	mov	r7, r9
10000b9a:	4339      	orrs	r1, r7
10000b9c:	7031      	strb	r1, [r6, #0]
10000b9e:	1d01      	adds	r1, r0, #4
10000ba0:	0089      	lsls	r1, r1, #2
10000ba2:	510a      	str	r2, [r1, r4]
10000ba4:	4918      	ldr	r1, [pc, #96]	; (10000c08 <hardware_alarm_set_target+0xc0>)
10000ba6:	0080      	lsls	r0, r0, #2
10000ba8:	5043      	str	r3, [r0, r1]
10000baa:	6a21      	ldr	r1, [r4, #32]
10000bac:	2000      	movs	r0, #0
10000bae:	4229      	tst	r1, r5
10000bb0:	d00c      	beq.n	10000bcc <hardware_alarm_set_target+0x84>
10000bb2:	0020      	movs	r0, r4
10000bb4:	6a61      	ldr	r1, [r4, #36]	; 0x24
10000bb6:	000c      	movs	r4, r1
10000bb8:	6a87      	ldr	r7, [r0, #40]	; 0x28
10000bba:	6a41      	ldr	r1, [r0, #36]	; 0x24
10000bbc:	42a1      	cmp	r1, r4
10000bbe:	d1fa      	bne.n	10000bb6 <hardware_alarm_set_target+0x6e>
10000bc0:	428b      	cmp	r3, r1
10000bc2:	d802      	bhi.n	10000bca <hardware_alarm_set_target+0x82>
10000bc4:	d10a      	bne.n	10000bdc <hardware_alarm_set_target+0x94>
10000bc6:	42ba      	cmp	r2, r7
10000bc8:	d908      	bls.n	10000bdc <hardware_alarm_set_target+0x94>
10000bca:	2000      	movs	r0, #0
10000bcc:	f3bf 8f5f 	dmb	sy
10000bd0:	2200      	movs	r2, #0
10000bd2:	4b0b      	ldr	r3, [pc, #44]	; (10000c00 <hardware_alarm_set_target+0xb8>)
10000bd4:	601a      	str	r2, [r3, #0]
10000bd6:	f388 8810 	msr	PRIMASK, r8
10000bda:	e7c4      	b.n	10000b66 <hardware_alarm_set_target+0x1e>
10000bdc:	4b07      	ldr	r3, [pc, #28]	; (10000bfc <hardware_alarm_set_target+0xb4>)
10000bde:	464f      	mov	r7, r9
10000be0:	621d      	str	r5, [r3, #32]
10000be2:	635d      	str	r5, [r3, #52]	; 0x34
10000be4:	4663      	mov	r3, ip
10000be6:	439f      	bics	r7, r3
10000be8:	2001      	movs	r0, #1
10000bea:	7037      	strb	r7, [r6, #0]
10000bec:	f3bf 8f5f 	dmb	sy
10000bf0:	2200      	movs	r2, #0
10000bf2:	4b03      	ldr	r3, [pc, #12]	; (10000c00 <hardware_alarm_set_target+0xb8>)
10000bf4:	601a      	str	r2, [r3, #0]
10000bf6:	f388 8810 	msr	PRIMASK, r8
10000bfa:	e7b4      	b.n	10000b66 <hardware_alarm_set_target+0x1e>
10000bfc:	40054000 	.word	0x40054000
10000c00:	d0000128 	.word	0xd0000128
10000c04:	20000b1a 	.word	0x20000b1a
10000c08:	20000b08 	.word	0x20000b08

10000c0c <hardware_alarm_cancel>:
10000c0c:	b510      	push	{r4, lr}
10000c0e:	f3ef 8410 	mrs	r4, PRIMASK
10000c12:	b672      	cpsid	i
10000c14:	490a      	ldr	r1, [pc, #40]	; (10000c40 <hardware_alarm_cancel+0x34>)
10000c16:	680b      	ldr	r3, [r1, #0]
10000c18:	2b00      	cmp	r3, #0
10000c1a:	d0fc      	beq.n	10000c16 <hardware_alarm_cancel+0xa>
10000c1c:	f3bf 8f5f 	dmb	sy
10000c20:	2301      	movs	r3, #1
10000c22:	4083      	lsls	r3, r0
10000c24:	4a07      	ldr	r2, [pc, #28]	; (10000c44 <hardware_alarm_cancel+0x38>)
10000c26:	4808      	ldr	r0, [pc, #32]	; (10000c48 <hardware_alarm_cancel+0x3c>)
10000c28:	6213      	str	r3, [r2, #32]
10000c2a:	7802      	ldrb	r2, [r0, #0]
10000c2c:	439a      	bics	r2, r3
10000c2e:	7002      	strb	r2, [r0, #0]
10000c30:	f3bf 8f5f 	dmb	sy
10000c34:	2300      	movs	r3, #0
10000c36:	600b      	str	r3, [r1, #0]
10000c38:	f384 8810 	msr	PRIMASK, r4
10000c3c:	bd10      	pop	{r4, pc}
10000c3e:	46c0      	nop			; (mov r8, r8)
10000c40:	d0000128 	.word	0xd0000128
10000c44:	40054000 	.word	0x40054000
10000c48:	20000b1a 	.word	0x20000b1a

10000c4c <lock_init>:
10000c4c:	4b02      	ldr	r3, [pc, #8]	; (10000c58 <lock_init+0xc>)
10000c4e:	469c      	mov	ip, r3
10000c50:	4461      	add	r1, ip
10000c52:	0089      	lsls	r1, r1, #2
10000c54:	6001      	str	r1, [r0, #0]
10000c56:	4770      	bx	lr
10000c58:	34000040 	.word	0x34000040

10000c5c <mutex_init>:
10000c5c:	b510      	push	{r4, lr}
10000c5e:	0004      	movs	r4, r0
10000c60:	f7ff fbce 	bl	10000400 <next_striped_spin_lock_num>
10000c64:	0001      	movs	r1, r0
10000c66:	0020      	movs	r0, r4
10000c68:	f7ff fff0 	bl	10000c4c <lock_init>
10000c6c:	f3bf 8f5f 	dmb	sy
10000c70:	bd10      	pop	{r4, pc}
10000c72:	46c0      	nop			; (mov r8, r8)

10000c74 <ph_merge_nodes>:
10000c74:	b570      	push	{r4, r5, r6, lr}
10000c76:	0005      	movs	r5, r0
10000c78:	000e      	movs	r6, r1
10000c7a:	0014      	movs	r4, r2
10000c7c:	2900      	cmp	r1, #0
10000c7e:	d024      	beq.n	10000cca <ph_merge_nodes+0x56>
10000c80:	2a00      	cmp	r2, #0
10000c82:	d024      	beq.n	10000cce <ph_merge_nodes+0x5a>
10000c84:	6880      	ldr	r0, [r0, #8]
10000c86:	686b      	ldr	r3, [r5, #4]
10000c88:	4798      	blx	r3
10000c8a:	6829      	ldr	r1, [r5, #0]
10000c8c:	2800      	cmp	r0, #0
10000c8e:	d00e      	beq.n	10000cae <ph_merge_nodes+0x3a>
10000c90:	0063      	lsls	r3, r4, #1
10000c92:	191b      	adds	r3, r3, r4
10000c94:	0072      	lsls	r2, r6, #1
10000c96:	3b03      	subs	r3, #3
10000c98:	1992      	adds	r2, r2, r6
10000c9a:	18cb      	adds	r3, r1, r3
10000c9c:	3a03      	subs	r2, #3
10000c9e:	709e      	strb	r6, [r3, #2]
10000ca0:	1888      	adds	r0, r1, r2
10000ca2:	5c8a      	ldrb	r2, [r1, r2]
10000ca4:	2a00      	cmp	r2, #0
10000ca6:	d114      	bne.n	10000cd2 <ph_merge_nodes+0x5e>
10000ca8:	7004      	strb	r4, [r0, #0]
10000caa:	0030      	movs	r0, r6
10000cac:	e00e      	b.n	10000ccc <ph_merge_nodes+0x58>
10000cae:	0073      	lsls	r3, r6, #1
10000cb0:	199b      	adds	r3, r3, r6
10000cb2:	0062      	lsls	r2, r4, #1
10000cb4:	3b03      	subs	r3, #3
10000cb6:	1912      	adds	r2, r2, r4
10000cb8:	18cb      	adds	r3, r1, r3
10000cba:	3a03      	subs	r2, #3
10000cbc:	709c      	strb	r4, [r3, #2]
10000cbe:	1888      	adds	r0, r1, r2
10000cc0:	5c8a      	ldrb	r2, [r1, r2]
10000cc2:	2a00      	cmp	r2, #0
10000cc4:	d000      	beq.n	10000cc8 <ph_merge_nodes+0x54>
10000cc6:	705a      	strb	r2, [r3, #1]
10000cc8:	7006      	strb	r6, [r0, #0]
10000cca:	0020      	movs	r0, r4
10000ccc:	bd70      	pop	{r4, r5, r6, pc}
10000cce:	0008      	movs	r0, r1
10000cd0:	e7fc      	b.n	10000ccc <ph_merge_nodes+0x58>
10000cd2:	705a      	strb	r2, [r3, #1]
10000cd4:	7004      	strb	r4, [r0, #0]
10000cd6:	0030      	movs	r0, r6
10000cd8:	e7f8      	b.n	10000ccc <ph_merge_nodes+0x58>
10000cda:	46c0      	nop			; (mov r8, r8)

10000cdc <ph_create>:
10000cdc:	b5f0      	push	{r4, r5, r6, r7, lr}
10000cde:	46c6      	mov	lr, r8
10000ce0:	0005      	movs	r5, r0
10000ce2:	000f      	movs	r7, r1
10000ce4:	b500      	push	{lr}
10000ce6:	2110      	movs	r1, #16
10000ce8:	2001      	movs	r0, #1
10000cea:	0016      	movs	r6, r2
10000cec:	f000 ff20 	bl	10001b30 <__wrap_calloc>
10000cf0:	b2eb      	uxtb	r3, r5
10000cf2:	0004      	movs	r4, r0
10000cf4:	7303      	strb	r3, [r0, #12]
10000cf6:	2103      	movs	r1, #3
10000cf8:	6047      	str	r7, [r0, #4]
10000cfa:	0028      	movs	r0, r5
10000cfc:	4698      	mov	r8, r3
10000cfe:	f000 ff17 	bl	10001b30 <__wrap_calloc>
10000d02:	2300      	movs	r3, #0
10000d04:	7363      	strb	r3, [r4, #13]
10000d06:	3301      	adds	r3, #1
10000d08:	73a3      	strb	r3, [r4, #14]
10000d0a:	4643      	mov	r3, r8
10000d0c:	21ff      	movs	r1, #255	; 0xff
10000d0e:	73e3      	strb	r3, [r4, #15]
10000d10:	23fe      	movs	r3, #254	; 0xfe
10000d12:	6020      	str	r0, [r4, #0]
10000d14:	60a6      	str	r6, [r4, #8]
10000d16:	4029      	ands	r1, r5
10000d18:	422b      	tst	r3, r5
10000d1a:	d006      	beq.n	10000d2a <ph_create+0x4e>
10000d1c:	1c42      	adds	r2, r0, #1
10000d1e:	3bfd      	subs	r3, #253	; 0xfd
10000d20:	3301      	adds	r3, #1
10000d22:	7013      	strb	r3, [r2, #0]
10000d24:	3203      	adds	r2, #3
10000d26:	428b      	cmp	r3, r1
10000d28:	d3fa      	bcc.n	10000d20 <ph_create+0x44>
10000d2a:	004b      	lsls	r3, r1, #1
10000d2c:	1859      	adds	r1, r3, r1
10000d2e:	2300      	movs	r3, #0
10000d30:	1840      	adds	r0, r0, r1
10000d32:	3803      	subs	r0, #3
10000d34:	7043      	strb	r3, [r0, #1]
10000d36:	0020      	movs	r0, r4
10000d38:	bc04      	pop	{r2}
10000d3a:	4690      	mov	r8, r2
10000d3c:	bdf0      	pop	{r4, r5, r6, r7, pc}
10000d3e:	46c0      	nop			; (mov r8, r8)

10000d40 <ph_merge_two_pass>:
10000d40:	b5f8      	push	{r3, r4, r5, r6, r7, lr}
10000d42:	46ce      	mov	lr, r9
10000d44:	4647      	mov	r7, r8
10000d46:	0006      	movs	r6, r0
10000d48:	000c      	movs	r4, r1
10000d4a:	b580      	push	{r7, lr}
10000d4c:	2900      	cmp	r1, #0
10000d4e:	d007      	beq.n	10000d60 <ph_merge_two_pass+0x20>
10000d50:	004d      	lsls	r5, r1, #1
10000d52:	6803      	ldr	r3, [r0, #0]
10000d54:	186d      	adds	r5, r5, r1
10000d56:	3d03      	subs	r5, #3
10000d58:	195a      	adds	r2, r3, r5
10000d5a:	7857      	ldrb	r7, [r2, #1]
10000d5c:	2f00      	cmp	r7, #0
10000d5e:	d104      	bne.n	10000d6a <ph_merge_two_pass+0x2a>
10000d60:	0020      	movs	r0, r4
10000d62:	bc0c      	pop	{r2, r3}
10000d64:	4690      	mov	r8, r2
10000d66:	4699      	mov	r9, r3
10000d68:	bdf8      	pop	{r3, r4, r5, r6, r7, pc}
10000d6a:	0079      	lsls	r1, r7, #1
10000d6c:	19c9      	adds	r1, r1, r7
10000d6e:	3903      	subs	r1, #3
10000d70:	4688      	mov	r8, r1
10000d72:	4443      	add	r3, r8
10000d74:	7859      	ldrb	r1, [r3, #1]
10000d76:	4689      	mov	r9, r1
10000d78:	2100      	movs	r1, #0
10000d7a:	7059      	strb	r1, [r3, #1]
10000d7c:	7051      	strb	r1, [r2, #1]
10000d7e:	6873      	ldr	r3, [r6, #4]
10000d80:	003a      	movs	r2, r7
10000d82:	0021      	movs	r1, r4
10000d84:	6880      	ldr	r0, [r0, #8]
10000d86:	4798      	blx	r3
10000d88:	6833      	ldr	r3, [r6, #0]
10000d8a:	2800      	cmp	r0, #0
10000d8c:	d014      	beq.n	10000db8 <ph_merge_two_pass+0x78>
10000d8e:	4642      	mov	r2, r8
10000d90:	189a      	adds	r2, r3, r2
10000d92:	7094      	strb	r4, [r2, #2]
10000d94:	1959      	adds	r1, r3, r5
10000d96:	5d5b      	ldrb	r3, [r3, r5]
10000d98:	2b00      	cmp	r3, #0
10000d9a:	d000      	beq.n	10000d9e <ph_merge_two_pass+0x5e>
10000d9c:	7053      	strb	r3, [r2, #1]
10000d9e:	700f      	strb	r7, [r1, #0]
10000da0:	0027      	movs	r7, r4
10000da2:	4649      	mov	r1, r9
10000da4:	0030      	movs	r0, r6
10000da6:	f7ff ffcb 	bl	10000d40 <ph_merge_two_pass>
10000daa:	0039      	movs	r1, r7
10000dac:	0002      	movs	r2, r0
10000dae:	0030      	movs	r0, r6
10000db0:	f7ff ff60 	bl	10000c74 <ph_merge_nodes>
10000db4:	0004      	movs	r4, r0
10000db6:	e7d3      	b.n	10000d60 <ph_merge_two_pass+0x20>
10000db8:	4642      	mov	r2, r8
10000dba:	4641      	mov	r1, r8
10000dbc:	195d      	adds	r5, r3, r5
10000dbe:	70af      	strb	r7, [r5, #2]
10000dc0:	189a      	adds	r2, r3, r2
10000dc2:	5c5b      	ldrb	r3, [r3, r1]
10000dc4:	2b00      	cmp	r3, #0
10000dc6:	d000      	beq.n	10000dca <ph_merge_two_pass+0x8a>
10000dc8:	706b      	strb	r3, [r5, #1]
10000dca:	7014      	strb	r4, [r2, #0]
10000dcc:	e7e9      	b.n	10000da2 <ph_merge_two_pass+0x62>
10000dce:	46c0      	nop			; (mov r8, r8)

10000dd0 <ph_remove_any_head>:
10000dd0:	b5f0      	push	{r4, r5, r6, r7, lr}
10000dd2:	4657      	mov	r7, sl
10000dd4:	4645      	mov	r5, r8
10000dd6:	46de      	mov	lr, fp
10000dd8:	464e      	mov	r6, r9
10000dda:	b5e0      	push	{r5, r6, r7, lr}
10000ddc:	000d      	movs	r5, r1
10000dde:	006b      	lsls	r3, r5, #1
10000de0:	6801      	ldr	r1, [r0, #0]
10000de2:	195b      	adds	r3, r3, r5
10000de4:	1edf      	subs	r7, r3, #3
10000de6:	0004      	movs	r4, r0
10000de8:	5dc8      	ldrb	r0, [r1, r7]
10000dea:	b083      	sub	sp, #12
10000dec:	9201      	str	r2, [sp, #4]
10000dee:	19ca      	adds	r2, r1, r7
10000df0:	2800      	cmp	r0, #0
10000df2:	d04c      	beq.n	10000e8e <ph_remove_any_head+0xbe>
10000df4:	0043      	lsls	r3, r0, #1
10000df6:	181b      	adds	r3, r3, r0
10000df8:	3b03      	subs	r3, #3
10000dfa:	18cb      	adds	r3, r1, r3
10000dfc:	785e      	ldrb	r6, [r3, #1]
10000dfe:	46b4      	mov	ip, r6
10000e00:	2e00      	cmp	r6, #0
10000e02:	d116      	bne.n	10000e32 <ph_remove_any_head+0x62>
10000e04:	9e01      	ldr	r6, [sp, #4]
10000e06:	2e00      	cmp	r6, #0
10000e08:	d13e      	bne.n	10000e88 <ph_remove_any_head+0xb8>
10000e0a:	7be6      	ldrb	r6, [r4, #15]
10000e0c:	2e00      	cmp	r6, #0
10000e0e:	d004      	beq.n	10000e1a <ph_remove_any_head+0x4a>
10000e10:	0073      	lsls	r3, r6, #1
10000e12:	199b      	adds	r3, r3, r6
10000e14:	18cb      	adds	r3, r1, r3
10000e16:	3b03      	subs	r3, #3
10000e18:	705d      	strb	r5, [r3, #1]
10000e1a:	73e5      	strb	r5, [r4, #15]
10000e1c:	2800      	cmp	r0, #0
10000e1e:	d12f      	bne.n	10000e80 <ph_remove_any_head+0xb0>
10000e20:	2300      	movs	r3, #0
10000e22:	7053      	strb	r3, [r2, #1]
10000e24:	b003      	add	sp, #12
10000e26:	bc3c      	pop	{r2, r3, r4, r5}
10000e28:	4690      	mov	r8, r2
10000e2a:	4699      	mov	r9, r3
10000e2c:	46a2      	mov	sl, r4
10000e2e:	46ab      	mov	fp, r5
10000e30:	bdf0      	pop	{r4, r5, r6, r7, pc}
10000e32:	0072      	lsls	r2, r6, #1
10000e34:	4462      	add	r2, ip
10000e36:	3a03      	subs	r2, #3
10000e38:	1889      	adds	r1, r1, r2
10000e3a:	784a      	ldrb	r2, [r1, #1]
10000e3c:	4690      	mov	r8, r2
10000e3e:	2200      	movs	r2, #0
10000e40:	704a      	strb	r2, [r1, #1]
10000e42:	4691      	mov	r9, r2
10000e44:	705a      	strb	r2, [r3, #1]
10000e46:	0001      	movs	r1, r0
10000e48:	0032      	movs	r2, r6
10000e4a:	0020      	movs	r0, r4
10000e4c:	f7ff ff12 	bl	10000c74 <ph_merge_nodes>
10000e50:	4643      	mov	r3, r8
10000e52:	4682      	mov	sl, r0
10000e54:	2b00      	cmp	r3, #0
10000e56:	d007      	beq.n	10000e68 <ph_remove_any_head+0x98>
10000e58:	005b      	lsls	r3, r3, #1
10000e5a:	6821      	ldr	r1, [r4, #0]
10000e5c:	4443      	add	r3, r8
10000e5e:	3b03      	subs	r3, #3
10000e60:	18cb      	adds	r3, r1, r3
10000e62:	785a      	ldrb	r2, [r3, #1]
10000e64:	2a00      	cmp	r2, #0
10000e66:	d116      	bne.n	10000e96 <ph_remove_any_head+0xc6>
10000e68:	4642      	mov	r2, r8
10000e6a:	4651      	mov	r1, sl
10000e6c:	0020      	movs	r0, r4
10000e6e:	f7ff ff01 	bl	10000c74 <ph_merge_nodes>
10000e72:	6821      	ldr	r1, [r4, #0]
10000e74:	9b01      	ldr	r3, [sp, #4]
10000e76:	19ca      	adds	r2, r1, r7
10000e78:	2b00      	cmp	r3, #0
10000e7a:	d0c6      	beq.n	10000e0a <ph_remove_any_head+0x3a>
10000e7c:	2800      	cmp	r0, #0
10000e7e:	d0cf      	beq.n	10000e20 <ph_remove_any_head+0x50>
10000e80:	0043      	lsls	r3, r0, #1
10000e82:	181b      	adds	r3, r3, r0
10000e84:	3b03      	subs	r3, #3
10000e86:	18cb      	adds	r3, r1, r3
10000e88:	2100      	movs	r1, #0
10000e8a:	7099      	strb	r1, [r3, #2]
10000e8c:	e7c8      	b.n	10000e20 <ph_remove_any_head+0x50>
10000e8e:	9b01      	ldr	r3, [sp, #4]
10000e90:	2b00      	cmp	r3, #0
10000e92:	d1c5      	bne.n	10000e20 <ph_remove_any_head+0x50>
10000e94:	e7b9      	b.n	10000e0a <ph_remove_any_head+0x3a>
10000e96:	0050      	lsls	r0, r2, #1
10000e98:	1880      	adds	r0, r0, r2
10000e9a:	3803      	subs	r0, #3
10000e9c:	1809      	adds	r1, r1, r0
10000e9e:	7848      	ldrb	r0, [r1, #1]
10000ea0:	4683      	mov	fp, r0
10000ea2:	4648      	mov	r0, r9
10000ea4:	7048      	strb	r0, [r1, #1]
10000ea6:	7058      	strb	r0, [r3, #1]
10000ea8:	4641      	mov	r1, r8
10000eaa:	0020      	movs	r0, r4
10000eac:	f7ff fee2 	bl	10000c74 <ph_merge_nodes>
10000eb0:	4659      	mov	r1, fp
10000eb2:	4680      	mov	r8, r0
10000eb4:	0020      	movs	r0, r4
10000eb6:	f7ff ff43 	bl	10000d40 <ph_merge_two_pass>
10000eba:	4641      	mov	r1, r8
10000ebc:	0002      	movs	r2, r0
10000ebe:	0020      	movs	r0, r4
10000ec0:	f7ff fed8 	bl	10000c74 <ph_merge_nodes>
10000ec4:	4680      	mov	r8, r0
10000ec6:	e7cf      	b.n	10000e68 <ph_remove_any_head+0x98>

10000ec8 <ph_remove_head_reserve>:
10000ec8:	b5f0      	push	{r4, r5, r6, r7, lr}
10000eca:	464e      	mov	r6, r9
10000ecc:	4645      	mov	r5, r8
10000ece:	46de      	mov	lr, fp
10000ed0:	4657      	mov	r7, sl
10000ed2:	b5e0      	push	{r5, r6, r7, lr}
10000ed4:	7b46      	ldrb	r6, [r0, #13]
10000ed6:	0004      	movs	r4, r0
10000ed8:	0075      	lsls	r5, r6, #1
10000eda:	6800      	ldr	r0, [r0, #0]
10000edc:	19ad      	adds	r5, r5, r6
10000ede:	3d03      	subs	r5, #3
10000ee0:	b083      	sub	sp, #12
10000ee2:	9101      	str	r1, [sp, #4]
10000ee4:	5d41      	ldrb	r1, [r0, r5]
10000ee6:	1942      	adds	r2, r0, r5
10000ee8:	2900      	cmp	r1, #0
10000eea:	d04e      	beq.n	10000f8a <ph_remove_head_reserve+0xc2>
10000eec:	004b      	lsls	r3, r1, #1
10000eee:	185b      	adds	r3, r3, r1
10000ef0:	3b03      	subs	r3, #3
10000ef2:	18c3      	adds	r3, r0, r3
10000ef4:	785f      	ldrb	r7, [r3, #1]
10000ef6:	46bc      	mov	ip, r7
10000ef8:	2f00      	cmp	r7, #0
10000efa:	d118      	bne.n	10000f2e <ph_remove_head_reserve+0x66>
10000efc:	9d01      	ldr	r5, [sp, #4]
10000efe:	2d00      	cmp	r5, #0
10000f00:	d140      	bne.n	10000f84 <ph_remove_head_reserve+0xbc>
10000f02:	7be5      	ldrb	r5, [r4, #15]
10000f04:	2d00      	cmp	r5, #0
10000f06:	d004      	beq.n	10000f12 <ph_remove_head_reserve+0x4a>
10000f08:	006b      	lsls	r3, r5, #1
10000f0a:	195b      	adds	r3, r3, r5
10000f0c:	18c3      	adds	r3, r0, r3
10000f0e:	3b03      	subs	r3, #3
10000f10:	705e      	strb	r6, [r3, #1]
10000f12:	73e6      	strb	r6, [r4, #15]
10000f14:	2900      	cmp	r1, #0
10000f16:	d131      	bne.n	10000f7c <ph_remove_head_reserve+0xb4>
10000f18:	2300      	movs	r3, #0
10000f1a:	0030      	movs	r0, r6
10000f1c:	7053      	strb	r3, [r2, #1]
10000f1e:	7361      	strb	r1, [r4, #13]
10000f20:	b003      	add	sp, #12
10000f22:	bc3c      	pop	{r2, r3, r4, r5}
10000f24:	4690      	mov	r8, r2
10000f26:	4699      	mov	r9, r3
10000f28:	46a2      	mov	sl, r4
10000f2a:	46ab      	mov	fp, r5
10000f2c:	bdf0      	pop	{r4, r5, r6, r7, pc}
10000f2e:	007a      	lsls	r2, r7, #1
10000f30:	4462      	add	r2, ip
10000f32:	3a03      	subs	r2, #3
10000f34:	1880      	adds	r0, r0, r2
10000f36:	7842      	ldrb	r2, [r0, #1]
10000f38:	4693      	mov	fp, r2
10000f3a:	2200      	movs	r2, #0
10000f3c:	7042      	strb	r2, [r0, #1]
10000f3e:	4691      	mov	r9, r2
10000f40:	705a      	strb	r2, [r3, #1]
10000f42:	0020      	movs	r0, r4
10000f44:	003a      	movs	r2, r7
10000f46:	f7ff fe95 	bl	10000c74 <ph_merge_nodes>
10000f4a:	465b      	mov	r3, fp
10000f4c:	4680      	mov	r8, r0
10000f4e:	2b00      	cmp	r3, #0
10000f50:	d007      	beq.n	10000f62 <ph_remove_head_reserve+0x9a>
10000f52:	005b      	lsls	r3, r3, #1
10000f54:	6821      	ldr	r1, [r4, #0]
10000f56:	445b      	add	r3, fp
10000f58:	3b03      	subs	r3, #3
10000f5a:	18cb      	adds	r3, r1, r3
10000f5c:	785a      	ldrb	r2, [r3, #1]
10000f5e:	2a00      	cmp	r2, #0
10000f60:	d117      	bne.n	10000f92 <ph_remove_head_reserve+0xca>
10000f62:	465a      	mov	r2, fp
10000f64:	4641      	mov	r1, r8
10000f66:	0020      	movs	r0, r4
10000f68:	f7ff fe84 	bl	10000c74 <ph_merge_nodes>
10000f6c:	9b01      	ldr	r3, [sp, #4]
10000f6e:	0001      	movs	r1, r0
10000f70:	6820      	ldr	r0, [r4, #0]
10000f72:	1942      	adds	r2, r0, r5
10000f74:	2b00      	cmp	r3, #0
10000f76:	d0c4      	beq.n	10000f02 <ph_remove_head_reserve+0x3a>
10000f78:	2900      	cmp	r1, #0
10000f7a:	d0cd      	beq.n	10000f18 <ph_remove_head_reserve+0x50>
10000f7c:	004b      	lsls	r3, r1, #1
10000f7e:	185b      	adds	r3, r3, r1
10000f80:	3b03      	subs	r3, #3
10000f82:	18c3      	adds	r3, r0, r3
10000f84:	2000      	movs	r0, #0
10000f86:	7098      	strb	r0, [r3, #2]
10000f88:	e7c6      	b.n	10000f18 <ph_remove_head_reserve+0x50>
10000f8a:	9b01      	ldr	r3, [sp, #4]
10000f8c:	2b00      	cmp	r3, #0
10000f8e:	d1c3      	bne.n	10000f18 <ph_remove_head_reserve+0x50>
10000f90:	e7b7      	b.n	10000f02 <ph_remove_head_reserve+0x3a>
10000f92:	0050      	lsls	r0, r2, #1
10000f94:	1880      	adds	r0, r0, r2
10000f96:	3803      	subs	r0, #3
10000f98:	1809      	adds	r1, r1, r0
10000f9a:	7848      	ldrb	r0, [r1, #1]
10000f9c:	4682      	mov	sl, r0
10000f9e:	4648      	mov	r0, r9
10000fa0:	7048      	strb	r0, [r1, #1]
10000fa2:	7058      	strb	r0, [r3, #1]
10000fa4:	4659      	mov	r1, fp
10000fa6:	0020      	movs	r0, r4
10000fa8:	f7ff fe64 	bl	10000c74 <ph_merge_nodes>
10000fac:	4653      	mov	r3, sl
10000fae:	4683      	mov	fp, r0
10000fb0:	2b00      	cmp	r3, #0
10000fb2:	d007      	beq.n	10000fc4 <ph_remove_head_reserve+0xfc>
10000fb4:	005b      	lsls	r3, r3, #1
10000fb6:	6821      	ldr	r1, [r4, #0]
10000fb8:	4453      	add	r3, sl
10000fba:	3b03      	subs	r3, #3
10000fbc:	18cb      	adds	r3, r1, r3
10000fbe:	785a      	ldrb	r2, [r3, #1]
10000fc0:	2a00      	cmp	r2, #0
10000fc2:	d106      	bne.n	10000fd2 <ph_remove_head_reserve+0x10a>
10000fc4:	4659      	mov	r1, fp
10000fc6:	4652      	mov	r2, sl
10000fc8:	0020      	movs	r0, r4
10000fca:	f7ff fe53 	bl	10000c74 <ph_merge_nodes>
10000fce:	4683      	mov	fp, r0
10000fd0:	e7c7      	b.n	10000f62 <ph_remove_head_reserve+0x9a>
10000fd2:	0050      	lsls	r0, r2, #1
10000fd4:	1880      	adds	r0, r0, r2
10000fd6:	3803      	subs	r0, #3
10000fd8:	1809      	adds	r1, r1, r0
10000fda:	4648      	mov	r0, r9
10000fdc:	784f      	ldrb	r7, [r1, #1]
10000fde:	7048      	strb	r0, [r1, #1]
10000fe0:	7058      	strb	r0, [r3, #1]
10000fe2:	4651      	mov	r1, sl
10000fe4:	0020      	movs	r0, r4
10000fe6:	f7ff fe45 	bl	10000c74 <ph_merge_nodes>
10000fea:	0039      	movs	r1, r7
10000fec:	4681      	mov	r9, r0
10000fee:	0020      	movs	r0, r4
10000ff0:	f7ff fea6 	bl	10000d40 <ph_merge_two_pass>
10000ff4:	4649      	mov	r1, r9
10000ff6:	0002      	movs	r2, r0
10000ff8:	0020      	movs	r0, r4
10000ffa:	f7ff fe3b 	bl	10000c74 <ph_merge_nodes>
10000ffe:	4682      	mov	sl, r0
10001000:	e7e0      	b.n	10000fc4 <ph_remove_head_reserve+0xfc>
10001002:	46c0      	nop			; (mov r8, r8)

10001004 <ph_delete>:
10001004:	b570      	push	{r4, r5, r6, lr}
10001006:	0004      	movs	r4, r0
10001008:	2900      	cmp	r1, #0
1000100a:	d02c      	beq.n	10001066 <ph_delete+0x62>
1000100c:	7b43      	ldrb	r3, [r0, #13]
1000100e:	428b      	cmp	r3, r1
10001010:	d02e      	beq.n	10001070 <ph_delete+0x6c>
10001012:	6805      	ldr	r5, [r0, #0]
10001014:	0048      	lsls	r0, r1, #1
10001016:	1840      	adds	r0, r0, r1
10001018:	3803      	subs	r0, #3
1000101a:	1828      	adds	r0, r5, r0
1000101c:	7882      	ldrb	r2, [r0, #2]
1000101e:	2a00      	cmp	r2, #0
10001020:	d021      	beq.n	10001066 <ph_delete+0x62>
10001022:	0053      	lsls	r3, r2, #1
10001024:	189b      	adds	r3, r3, r2
10001026:	3b03      	subs	r3, #3
10001028:	5cea      	ldrb	r2, [r5, r3]
1000102a:	18ee      	adds	r6, r5, r3
1000102c:	428a      	cmp	r2, r1
1000102e:	d102      	bne.n	10001036 <ph_delete+0x32>
10001030:	e01b      	b.n	1000106a <ph_delete+0x66>
10001032:	2a00      	cmp	r2, #0
10001034:	d008      	beq.n	10001048 <ph_delete+0x44>
10001036:	0053      	lsls	r3, r2, #1
10001038:	189b      	adds	r3, r3, r2
1000103a:	3b03      	subs	r3, #3
1000103c:	18eb      	adds	r3, r5, r3
1000103e:	785a      	ldrb	r2, [r3, #1]
10001040:	428a      	cmp	r2, r1
10001042:	d1f6      	bne.n	10001032 <ph_delete+0x2e>
10001044:	7842      	ldrb	r2, [r0, #1]
10001046:	705a      	strb	r2, [r3, #1]
10001048:	2300      	movs	r3, #0
1000104a:	2200      	movs	r2, #0
1000104c:	7083      	strb	r3, [r0, #2]
1000104e:	7043      	strb	r3, [r0, #1]
10001050:	0020      	movs	r0, r4
10001052:	f7ff febd 	bl	10000dd0 <ph_remove_any_head>
10001056:	7b61      	ldrb	r1, [r4, #13]
10001058:	0002      	movs	r2, r0
1000105a:	0020      	movs	r0, r4
1000105c:	f7ff fe0a 	bl	10000c74 <ph_merge_nodes>
10001060:	7360      	strb	r0, [r4, #13]
10001062:	2001      	movs	r0, #1
10001064:	e000      	b.n	10001068 <ph_delete+0x64>
10001066:	2000      	movs	r0, #0
10001068:	bd70      	pop	{r4, r5, r6, pc}
1000106a:	7843      	ldrb	r3, [r0, #1]
1000106c:	7033      	strb	r3, [r6, #0]
1000106e:	e7eb      	b.n	10001048 <ph_delete+0x44>
10001070:	2200      	movs	r2, #0
10001072:	0019      	movs	r1, r3
10001074:	f7ff feac 	bl	10000dd0 <ph_remove_any_head>
10001078:	7360      	strb	r0, [r4, #13]
1000107a:	2001      	movs	r0, #1
1000107c:	e7f4      	b.n	10001068 <ph_delete+0x64>
1000107e:	46c0      	nop			; (mov r8, r8)

10001080 <runtime_init>:
10001080:	4b2b      	ldr	r3, [pc, #172]	; (10001130 <runtime_init+0xb0>)
10001082:	4a2c      	ldr	r2, [pc, #176]	; (10001134 <runtime_init+0xb4>)
10001084:	b570      	push	{r4, r5, r6, lr}
10001086:	601a      	str	r2, [r3, #0]
10001088:	4a2b      	ldr	r2, [pc, #172]	; (10001138 <runtime_init+0xb8>)
1000108a:	4b2c      	ldr	r3, [pc, #176]	; (1000113c <runtime_init+0xbc>)
1000108c:	492c      	ldr	r1, [pc, #176]	; (10001140 <runtime_init+0xc0>)
1000108e:	601a      	str	r2, [r3, #0]
10001090:	0010      	movs	r0, r2
10001092:	688b      	ldr	r3, [r1, #8]
10001094:	4398      	bics	r0, r3
10001096:	d1fb      	bne.n	10001090 <runtime_init+0x10>
10001098:	4c2a      	ldr	r4, [pc, #168]	; (10001144 <runtime_init+0xc4>)
1000109a:	4b2b      	ldr	r3, [pc, #172]	; (10001148 <runtime_init+0xc8>)
1000109c:	429c      	cmp	r4, r3
1000109e:	d209      	bcs.n	100010b4 <runtime_init+0x34>
100010a0:	3b01      	subs	r3, #1
100010a2:	1b1d      	subs	r5, r3, r4
100010a4:	08ad      	lsrs	r5, r5, #2
100010a6:	3501      	adds	r5, #1
100010a8:	00ad      	lsls	r5, r5, #2
100010aa:	192d      	adds	r5, r5, r4
100010ac:	cc08      	ldmia	r4!, {r3}
100010ae:	4798      	blx	r3
100010b0:	42ac      	cmp	r4, r5
100010b2:	d1fb      	bne.n	100010ac <runtime_init+0x2c>
100010b4:	f000 f894 	bl	100011e0 <clocks_init>
100010b8:	4a24      	ldr	r2, [pc, #144]	; (1000114c <runtime_init+0xcc>)
100010ba:	4b20      	ldr	r3, [pc, #128]	; (1000113c <runtime_init+0xbc>)
100010bc:	601a      	str	r2, [r3, #0]
100010be:	4a20      	ldr	r2, [pc, #128]	; (10001140 <runtime_init+0xc0>)
100010c0:	6893      	ldr	r3, [r2, #8]
100010c2:	01db      	lsls	r3, r3, #7
100010c4:	3380      	adds	r3, #128	; 0x80
100010c6:	d1fb      	bne.n	100010c0 <runtime_init+0x40>
100010c8:	2240      	movs	r2, #64	; 0x40
100010ca:	4b21      	ldr	r3, [pc, #132]	; (10001150 <runtime_init+0xd0>)
100010cc:	4c21      	ldr	r4, [pc, #132]	; (10001154 <runtime_init+0xd4>)
100010ce:	679a      	str	r2, [r3, #120]	; 0x78
100010d0:	675a      	str	r2, [r3, #116]	; 0x74
100010d2:	671a      	str	r2, [r3, #112]	; 0x70
100010d4:	66da      	str	r2, [r3, #108]	; 0x6c
100010d6:	4b20      	ldr	r3, [pc, #128]	; (10001158 <runtime_init+0xd8>)
100010d8:	429c      	cmp	r4, r3
100010da:	d20b      	bcs.n	100010f4 <runtime_init+0x74>
100010dc:	3b01      	subs	r3, #1
100010de:	1b1d      	subs	r5, r3, r4
100010e0:	08ed      	lsrs	r5, r5, #3
100010e2:	3501      	adds	r5, #1
100010e4:	00ed      	lsls	r5, r5, #3
100010e6:	192d      	adds	r5, r5, r4
100010e8:	0020      	movs	r0, r4
100010ea:	3408      	adds	r4, #8
100010ec:	f7ff fdb6 	bl	10000c5c <mutex_init>
100010f0:	42ac      	cmp	r4, r5
100010f2:	d1f9      	bne.n	100010e8 <runtime_init+0x68>
100010f4:	4c19      	ldr	r4, [pc, #100]	; (1000115c <runtime_init+0xdc>)
100010f6:	4d1a      	ldr	r5, [pc, #104]	; (10001160 <runtime_init+0xe0>)
100010f8:	68a1      	ldr	r1, [r4, #8]
100010fa:	22c0      	movs	r2, #192	; 0xc0
100010fc:	0028      	movs	r0, r5
100010fe:	f000 fd29 	bl	10001b54 <__wrap___aeabi_memcpy>
10001102:	60a5      	str	r5, [r4, #8]
10001104:	f7ff f96e 	bl	100003e4 <spin_locks_reset>
10001108:	f000 fba4 	bl	10001854 <irq_init_priorities>
1000110c:	f7ff fbc4 	bl	10000898 <alarm_pool_init_default>
10001110:	4c14      	ldr	r4, [pc, #80]	; (10001164 <runtime_init+0xe4>)
10001112:	4b15      	ldr	r3, [pc, #84]	; (10001168 <runtime_init+0xe8>)
10001114:	429c      	cmp	r4, r3
10001116:	d209      	bcs.n	1000112c <runtime_init+0xac>
10001118:	3b01      	subs	r3, #1
1000111a:	1b1d      	subs	r5, r3, r4
1000111c:	08ad      	lsrs	r5, r5, #2
1000111e:	3501      	adds	r5, #1
10001120:	00ad      	lsls	r5, r5, #2
10001122:	192d      	adds	r5, r5, r4
10001124:	cc08      	ldmia	r4!, {r3}
10001126:	4798      	blx	r3
10001128:	42a5      	cmp	r5, r4
1000112a:	d1fb      	bne.n	10001124 <runtime_init+0xa4>
1000112c:	bd70      	pop	{r4, r5, r6, pc}
1000112e:	46c0      	nop			; (mov r8, r8)
10001130:	4000e000 	.word	0x4000e000
10001134:	ffffcdbf 	.word	0xffffcdbf
10001138:	003c7ffe 	.word	0x003c7ffe
1000113c:	4000f000 	.word	0x4000f000
10001140:	4000c000 	.word	0x4000c000
10001144:	20000a48 	.word	0x20000a48
10001148:	20000a58 	.word	0x20000a58
1000114c:	01ffffff 	.word	0x01ffffff
10001150:	4001f000 	.word	0x4001f000
10001154:	20000a40 	.word	0x20000a40
10001158:	20000a48 	.word	0x20000a48
1000115c:	e000ed00 	.word	0xe000ed00
10001160:	20000000 	.word	0x20000000
10001164:	20000a58 	.word	0x20000a58
10001168:	20000a5c 	.word	0x20000a5c

1000116c <_sbrk>:
1000116c:	4a09      	ldr	r2, [pc, #36]	; (10001194 <_sbrk+0x28>)
1000116e:	0003      	movs	r3, r0
10001170:	6810      	ldr	r0, [r2, #0]
10001172:	2800      	cmp	r0, #0
10001174:	d005      	beq.n	10001182 <_sbrk+0x16>
10001176:	4908      	ldr	r1, [pc, #32]	; (10001198 <_sbrk+0x2c>)
10001178:	18c3      	adds	r3, r0, r3
1000117a:	428b      	cmp	r3, r1
1000117c:	d207      	bcs.n	1000118e <_sbrk+0x22>
1000117e:	6013      	str	r3, [r2, #0]
10001180:	4770      	bx	lr
10001182:	4806      	ldr	r0, [pc, #24]	; (1000119c <_sbrk+0x30>)
10001184:	4904      	ldr	r1, [pc, #16]	; (10001198 <_sbrk+0x2c>)
10001186:	18c3      	adds	r3, r0, r3
10001188:	6010      	str	r0, [r2, #0]
1000118a:	428b      	cmp	r3, r1
1000118c:	d3f7      	bcc.n	1000117e <_sbrk+0x12>
1000118e:	2001      	movs	r0, #1
10001190:	4240      	negs	r0, r0
10001192:	e7f5      	b.n	10001180 <_sbrk+0x14>
10001194:	20000af0 	.word	0x20000af0
10001198:	20040000 	.word	0x20040000
1000119c:	20000d48 	.word	0x20000d48

100011a0 <exit>:
100011a0:	be00      	bkpt	0x0000
100011a2:	e7fd      	b.n	100011a0 <exit>

100011a4 <panic>:
100011a4:	b40f      	push	{r0, r1, r2, r3}
100011a6:	b500      	push	{lr}
100011a8:	4808      	ldr	r0, [pc, #32]	; (100011cc <panic+0x28>)
100011aa:	b083      	sub	sp, #12
100011ac:	f000 fda8 	bl	10001d00 <__wrap_puts>
100011b0:	9b04      	ldr	r3, [sp, #16]
100011b2:	2b00      	cmp	r3, #0
100011b4:	d007      	beq.n	100011c6 <panic+0x22>
100011b6:	a905      	add	r1, sp, #20
100011b8:	0018      	movs	r0, r3
100011ba:	9101      	str	r1, [sp, #4]
100011bc:	f000 fb6e 	bl	1000189c <weak_raw_vprintf>
100011c0:	4803      	ldr	r0, [pc, #12]	; (100011d0 <panic+0x2c>)
100011c2:	f000 fd9d 	bl	10001d00 <__wrap_puts>
100011c6:	be00      	bkpt	0x0000
100011c8:	e7fd      	b.n	100011c6 <panic+0x22>
100011ca:	46c0      	nop			; (mov r8, r8)
100011cc:	100026b4 	.word	0x100026b4
100011d0:	100026c4 	.word	0x100026c4

100011d4 <hard_assertion_failure>:
100011d4:	b510      	push	{r4, lr}
100011d6:	4801      	ldr	r0, [pc, #4]	; (100011dc <hard_assertion_failure+0x8>)
100011d8:	f7ff ffe4 	bl	100011a4 <panic>
100011dc:	100026c8 	.word	0x100026c8

100011e0 <clocks_init>:
100011e0:	b530      	push	{r4, r5, lr}
100011e2:	200c      	movs	r0, #12
100011e4:	b083      	sub	sp, #12
100011e6:	f000 f96b 	bl	100014c0 <watchdog_start_tick>
100011ea:	f7ff f915 	bl	10000418 <running_on_fpga>
100011ee:	2800      	cmp	r0, #0
100011f0:	d00e      	beq.n	10001210 <clocks_init+0x30>
100011f2:	4b9a      	ldr	r3, [pc, #616]	; (1000145c <clocks_init+0x27c>)
100011f4:	4a9a      	ldr	r2, [pc, #616]	; (10001460 <clocks_init+0x280>)
100011f6:	601a      	str	r2, [r3, #0]
100011f8:	605a      	str	r2, [r3, #4]
100011fa:	609a      	str	r2, [r3, #8]
100011fc:	60da      	str	r2, [r3, #12]
100011fe:	611a      	str	r2, [r3, #16]
10001200:	615a      	str	r2, [r3, #20]
10001202:	619a      	str	r2, [r3, #24]
10001204:	61da      	str	r2, [r3, #28]
10001206:	621a      	str	r2, [r3, #32]
10001208:	4a96      	ldr	r2, [pc, #600]	; (10001464 <clocks_init+0x284>)
1000120a:	625a      	str	r2, [r3, #36]	; 0x24
1000120c:	b003      	add	sp, #12
1000120e:	bd30      	pop	{r4, r5, pc}
10001210:	4c95      	ldr	r4, [pc, #596]	; (10001468 <clocks_init+0x288>)
10001212:	67a0      	str	r0, [r4, #120]	; 0x78
10001214:	f000 f95c 	bl	100014d0 <xosc_init>
10001218:	2201      	movs	r2, #1
1000121a:	4b94      	ldr	r3, [pc, #592]	; (1000146c <clocks_init+0x28c>)
1000121c:	601a      	str	r2, [r3, #0]
1000121e:	6c63      	ldr	r3, [r4, #68]	; 0x44
10001220:	2b01      	cmp	r3, #1
10001222:	d1fc      	bne.n	1000121e <clocks_init+0x3e>
10001224:	2203      	movs	r2, #3
10001226:	4b92      	ldr	r3, [pc, #584]	; (10001470 <clocks_init+0x290>)
10001228:	601a      	str	r2, [r3, #0]
1000122a:	4a8f      	ldr	r2, [pc, #572]	; (10001468 <clocks_init+0x288>)
1000122c:	6b93      	ldr	r3, [r2, #56]	; 0x38
1000122e:	2b01      	cmp	r3, #1
10001230:	d1fc      	bne.n	1000122c <clocks_init+0x4c>
10001232:	22c0      	movs	r2, #192	; 0xc0
10001234:	4b8f      	ldr	r3, [pc, #572]	; (10001474 <clocks_init+0x294>)
10001236:	0192      	lsls	r2, r2, #6
10001238:	601a      	str	r2, [r3, #0]
1000123a:	4b8f      	ldr	r3, [pc, #572]	; (10001478 <clocks_init+0x298>)
1000123c:	498f      	ldr	r1, [pc, #572]	; (1000147c <clocks_init+0x29c>)
1000123e:	601a      	str	r2, [r3, #0]
10001240:	0010      	movs	r0, r2
10001242:	688b      	ldr	r3, [r1, #8]
10001244:	4398      	bics	r0, r3
10001246:	1e03      	subs	r3, r0, #0
10001248:	d1fa      	bne.n	10001240 <clocks_init+0x60>
1000124a:	2402      	movs	r4, #2
1000124c:	2101      	movs	r1, #1
1000124e:	4a8c      	ldr	r2, [pc, #560]	; (10001480 <clocks_init+0x2a0>)
10001250:	488c      	ldr	r0, [pc, #560]	; (10001484 <clocks_init+0x2a4>)
10001252:	3306      	adds	r3, #6
10001254:	9400      	str	r4, [sp, #0]
10001256:	f000 f94f 	bl	100014f8 <pll_init>
1000125a:	2305      	movs	r3, #5
1000125c:	4a8a      	ldr	r2, [pc, #552]	; (10001488 <clocks_init+0x2a8>)
1000125e:	2101      	movs	r1, #1
10001260:	488a      	ldr	r0, [pc, #552]	; (1000148c <clocks_init+0x2ac>)
10001262:	9400      	str	r4, [sp, #0]
10001264:	f000 f948 	bl	100014f8 <pll_init>
10001268:	4b89      	ldr	r3, [pc, #548]	; (10001490 <clocks_init+0x2b0>)
1000126a:	685a      	ldr	r2, [r3, #4]
1000126c:	2aff      	cmp	r2, #255	; 0xff
1000126e:	d802      	bhi.n	10001276 <clocks_init+0x96>
10001270:	2280      	movs	r2, #128	; 0x80
10001272:	0052      	lsls	r2, r2, #1
10001274:	605a      	str	r2, [r3, #4]
10001276:	2280      	movs	r2, #128	; 0x80
10001278:	4c78      	ldr	r4, [pc, #480]	; (1000145c <clocks_init+0x27c>)
1000127a:	4b7d      	ldr	r3, [pc, #500]	; (10001470 <clocks_init+0x290>)
1000127c:	6921      	ldr	r1, [r4, #16]
1000127e:	0112      	lsls	r2, r2, #4
10001280:	4d83      	ldr	r5, [pc, #524]	; (10001490 <clocks_init+0x2b0>)
10001282:	601a      	str	r2, [r3, #0]
10001284:	2900      	cmp	r1, #0
10001286:	d005      	beq.n	10001294 <clocks_init+0xb4>
10001288:	6960      	ldr	r0, [r4, #20]
1000128a:	f000 fb55 	bl	10001938 <__wrap___aeabi_uidiv>
1000128e:	3001      	adds	r0, #1
10001290:	3801      	subs	r0, #1
10001292:	d1fd      	bne.n	10001290 <clocks_init+0xb0>
10001294:	21e0      	movs	r1, #224	; 0xe0
10001296:	4b7e      	ldr	r3, [pc, #504]	; (10001490 <clocks_init+0x2b0>)
10001298:	2002      	movs	r0, #2
1000129a:	681a      	ldr	r2, [r3, #0]
1000129c:	4011      	ands	r1, r2
1000129e:	2280      	movs	r2, #128	; 0x80
100012a0:	0152      	lsls	r2, r2, #5
100012a2:	432a      	orrs	r2, r5
100012a4:	6011      	str	r1, [r2, #0]
100012a6:	6819      	ldr	r1, [r3, #0]
100012a8:	4048      	eors	r0, r1
100012aa:	2103      	movs	r1, #3
100012ac:	4001      	ands	r1, r0
100012ae:	6011      	str	r1, [r2, #0]
100012b0:	2104      	movs	r1, #4
100012b2:	689a      	ldr	r2, [r3, #8]
100012b4:	4211      	tst	r1, r2
100012b6:	d0fc      	beq.n	100012b2 <clocks_init+0xd2>
100012b8:	2280      	movs	r2, #128	; 0x80
100012ba:	2180      	movs	r1, #128	; 0x80
100012bc:	0192      	lsls	r2, r2, #6
100012be:	432a      	orrs	r2, r5
100012c0:	0109      	lsls	r1, r1, #4
100012c2:	6011      	str	r1, [r2, #0]
100012c4:	2280      	movs	r2, #128	; 0x80
100012c6:	0052      	lsls	r2, r2, #1
100012c8:	605a      	str	r2, [r3, #4]
100012ca:	4b72      	ldr	r3, [pc, #456]	; (10001494 <clocks_init+0x2b4>)
100012cc:	6123      	str	r3, [r4, #16]
100012ce:	4b72      	ldr	r3, [pc, #456]	; (10001498 <clocks_init+0x2b8>)
100012d0:	6859      	ldr	r1, [r3, #4]
100012d2:	29ff      	cmp	r1, #255	; 0xff
100012d4:	d800      	bhi.n	100012d8 <clocks_init+0xf8>
100012d6:	605a      	str	r2, [r3, #4]
100012d8:	2203      	movs	r2, #3
100012da:	486f      	ldr	r0, [pc, #444]	; (10001498 <clocks_init+0x2b8>)
100012dc:	4b63      	ldr	r3, [pc, #396]	; (1000146c <clocks_init+0x28c>)
100012de:	2101      	movs	r1, #1
100012e0:	601a      	str	r2, [r3, #0]
100012e2:	0002      	movs	r2, r0
100012e4:	6893      	ldr	r3, [r2, #8]
100012e6:	4219      	tst	r1, r3
100012e8:	d0fc      	beq.n	100012e4 <clocks_init+0x104>
100012ea:	25e0      	movs	r5, #224	; 0xe0
100012ec:	6813      	ldr	r3, [r2, #0]
100012ee:	401d      	ands	r5, r3
100012f0:	2380      	movs	r3, #128	; 0x80
100012f2:	015b      	lsls	r3, r3, #5
100012f4:	4303      	orrs	r3, r0
100012f6:	601d      	str	r5, [r3, #0]
100012f8:	6812      	ldr	r2, [r2, #0]
100012fa:	404a      	eors	r2, r1
100012fc:	2103      	movs	r1, #3
100012fe:	4011      	ands	r1, r2
10001300:	6019      	str	r1, [r3, #0]
10001302:	2102      	movs	r1, #2
10001304:	4a64      	ldr	r2, [pc, #400]	; (10001498 <clocks_init+0x2b8>)
10001306:	6893      	ldr	r3, [r2, #8]
10001308:	4219      	tst	r1, r3
1000130a:	d0fc      	beq.n	10001306 <clocks_init+0x126>
1000130c:	2380      	movs	r3, #128	; 0x80
1000130e:	2180      	movs	r1, #128	; 0x80
10001310:	019b      	lsls	r3, r3, #6
10001312:	4303      	orrs	r3, r0
10001314:	0109      	lsls	r1, r1, #4
10001316:	6019      	str	r1, [r3, #0]
10001318:	2180      	movs	r1, #128	; 0x80
1000131a:	4b60      	ldr	r3, [pc, #384]	; (1000149c <clocks_init+0x2bc>)
1000131c:	0049      	lsls	r1, r1, #1
1000131e:	6051      	str	r1, [r2, #4]
10001320:	6163      	str	r3, [r4, #20]
10001322:	4b5f      	ldr	r3, [pc, #380]	; (100014a0 <clocks_init+0x2c0>)
10001324:	685a      	ldr	r2, [r3, #4]
10001326:	2aff      	cmp	r2, #255	; 0xff
10001328:	d800      	bhi.n	1000132c <clocks_init+0x14c>
1000132a:	6059      	str	r1, [r3, #4]
1000132c:	2280      	movs	r2, #128	; 0x80
1000132e:	4b5d      	ldr	r3, [pc, #372]	; (100014a4 <clocks_init+0x2c4>)
10001330:	69e1      	ldr	r1, [r4, #28]
10001332:	0112      	lsls	r2, r2, #4
10001334:	4d5a      	ldr	r5, [pc, #360]	; (100014a0 <clocks_init+0x2c0>)
10001336:	601a      	str	r2, [r3, #0]
10001338:	2900      	cmp	r1, #0
1000133a:	d005      	beq.n	10001348 <clocks_init+0x168>
1000133c:	6960      	ldr	r0, [r4, #20]
1000133e:	f000 fafb 	bl	10001938 <__wrap___aeabi_uidiv>
10001342:	3001      	adds	r0, #1
10001344:	3801      	subs	r0, #1
10001346:	d1fd      	bne.n	10001344 <clocks_init+0x164>
10001348:	22e0      	movs	r2, #224	; 0xe0
1000134a:	4955      	ldr	r1, [pc, #340]	; (100014a0 <clocks_init+0x2c0>)
1000134c:	680b      	ldr	r3, [r1, #0]
1000134e:	401a      	ands	r2, r3
10001350:	2380      	movs	r3, #128	; 0x80
10001352:	015b      	lsls	r3, r3, #5
10001354:	432b      	orrs	r3, r5
10001356:	601a      	str	r2, [r3, #0]
10001358:	2380      	movs	r3, #128	; 0x80
1000135a:	2280      	movs	r2, #128	; 0x80
1000135c:	019b      	lsls	r3, r3, #6
1000135e:	432b      	orrs	r3, r5
10001360:	0112      	lsls	r2, r2, #4
10001362:	601a      	str	r2, [r3, #0]
10001364:	2280      	movs	r2, #128	; 0x80
10001366:	4b3e      	ldr	r3, [pc, #248]	; (10001460 <clocks_init+0x280>)
10001368:	0052      	lsls	r2, r2, #1
1000136a:	604a      	str	r2, [r1, #4]
1000136c:	61e3      	str	r3, [r4, #28]
1000136e:	4b4e      	ldr	r3, [pc, #312]	; (100014a8 <clocks_init+0x2c8>)
10001370:	6859      	ldr	r1, [r3, #4]
10001372:	29ff      	cmp	r1, #255	; 0xff
10001374:	d800      	bhi.n	10001378 <clocks_init+0x198>
10001376:	605a      	str	r2, [r3, #4]
10001378:	2280      	movs	r2, #128	; 0x80
1000137a:	4b4c      	ldr	r3, [pc, #304]	; (100014ac <clocks_init+0x2cc>)
1000137c:	6a21      	ldr	r1, [r4, #32]
1000137e:	0112      	lsls	r2, r2, #4
10001380:	4d49      	ldr	r5, [pc, #292]	; (100014a8 <clocks_init+0x2c8>)
10001382:	601a      	str	r2, [r3, #0]
10001384:	2900      	cmp	r1, #0
10001386:	d005      	beq.n	10001394 <clocks_init+0x1b4>
10001388:	6960      	ldr	r0, [r4, #20]
1000138a:	f000 fad5 	bl	10001938 <__wrap___aeabi_uidiv>
1000138e:	3001      	adds	r0, #1
10001390:	3801      	subs	r0, #1
10001392:	d1fd      	bne.n	10001390 <clocks_init+0x1b0>
10001394:	22e0      	movs	r2, #224	; 0xe0
10001396:	4944      	ldr	r1, [pc, #272]	; (100014a8 <clocks_init+0x2c8>)
10001398:	680b      	ldr	r3, [r1, #0]
1000139a:	401a      	ands	r2, r3
1000139c:	2380      	movs	r3, #128	; 0x80
1000139e:	015b      	lsls	r3, r3, #5
100013a0:	432b      	orrs	r3, r5
100013a2:	601a      	str	r2, [r3, #0]
100013a4:	2380      	movs	r3, #128	; 0x80
100013a6:	2280      	movs	r2, #128	; 0x80
100013a8:	019b      	lsls	r3, r3, #6
100013aa:	432b      	orrs	r3, r5
100013ac:	0112      	lsls	r2, r2, #4
100013ae:	601a      	str	r2, [r3, #0]
100013b0:	2380      	movs	r3, #128	; 0x80
100013b2:	2280      	movs	r2, #128	; 0x80
100013b4:	005b      	lsls	r3, r3, #1
100013b6:	604b      	str	r3, [r1, #4]
100013b8:	4b29      	ldr	r3, [pc, #164]	; (10001460 <clocks_init+0x280>)
100013ba:	02d2      	lsls	r2, r2, #11
100013bc:	6223      	str	r3, [r4, #32]
100013be:	4b3c      	ldr	r3, [pc, #240]	; (100014b0 <clocks_init+0x2d0>)
100013c0:	6859      	ldr	r1, [r3, #4]
100013c2:	4291      	cmp	r1, r2
100013c4:	d200      	bcs.n	100013c8 <clocks_init+0x1e8>
100013c6:	605a      	str	r2, [r3, #4]
100013c8:	2280      	movs	r2, #128	; 0x80
100013ca:	4b3a      	ldr	r3, [pc, #232]	; (100014b4 <clocks_init+0x2d4>)
100013cc:	6a61      	ldr	r1, [r4, #36]	; 0x24
100013ce:	0112      	lsls	r2, r2, #4
100013d0:	4d37      	ldr	r5, [pc, #220]	; (100014b0 <clocks_init+0x2d0>)
100013d2:	601a      	str	r2, [r3, #0]
100013d4:	2900      	cmp	r1, #0
100013d6:	d005      	beq.n	100013e4 <clocks_init+0x204>
100013d8:	6960      	ldr	r0, [r4, #20]
100013da:	f000 faad 	bl	10001938 <__wrap___aeabi_uidiv>
100013de:	3001      	adds	r0, #1
100013e0:	3801      	subs	r0, #1
100013e2:	d1fd      	bne.n	100013e0 <clocks_init+0x200>
100013e4:	22e0      	movs	r2, #224	; 0xe0
100013e6:	4932      	ldr	r1, [pc, #200]	; (100014b0 <clocks_init+0x2d0>)
100013e8:	680b      	ldr	r3, [r1, #0]
100013ea:	401a      	ands	r2, r3
100013ec:	2380      	movs	r3, #128	; 0x80
100013ee:	015b      	lsls	r3, r3, #5
100013f0:	432b      	orrs	r3, r5
100013f2:	601a      	str	r2, [r3, #0]
100013f4:	2380      	movs	r3, #128	; 0x80
100013f6:	2280      	movs	r2, #128	; 0x80
100013f8:	019b      	lsls	r3, r3, #6
100013fa:	432b      	orrs	r3, r5
100013fc:	0112      	lsls	r2, r2, #4
100013fe:	601a      	str	r2, [r3, #0]
10001400:	2380      	movs	r3, #128	; 0x80
10001402:	02db      	lsls	r3, r3, #11
10001404:	604b      	str	r3, [r1, #4]
10001406:	4b17      	ldr	r3, [pc, #92]	; (10001464 <clocks_init+0x284>)
10001408:	6263      	str	r3, [r4, #36]	; 0x24
1000140a:	4b2b      	ldr	r3, [pc, #172]	; (100014b8 <clocks_init+0x2d8>)
1000140c:	685a      	ldr	r2, [r3, #4]
1000140e:	2aff      	cmp	r2, #255	; 0xff
10001410:	d802      	bhi.n	10001418 <clocks_init+0x238>
10001412:	2280      	movs	r2, #128	; 0x80
10001414:	0052      	lsls	r2, r2, #1
10001416:	605a      	str	r2, [r3, #4]
10001418:	2280      	movs	r2, #128	; 0x80
1000141a:	4b28      	ldr	r3, [pc, #160]	; (100014bc <clocks_init+0x2dc>)
1000141c:	69a1      	ldr	r1, [r4, #24]
1000141e:	0112      	lsls	r2, r2, #4
10001420:	4d25      	ldr	r5, [pc, #148]	; (100014b8 <clocks_init+0x2d8>)
10001422:	601a      	str	r2, [r3, #0]
10001424:	2900      	cmp	r1, #0
10001426:	d005      	beq.n	10001434 <clocks_init+0x254>
10001428:	6960      	ldr	r0, [r4, #20]
1000142a:	f000 fa85 	bl	10001938 <__wrap___aeabi_uidiv>
1000142e:	3001      	adds	r0, #1
10001430:	3801      	subs	r0, #1
10001432:	d1fd      	bne.n	10001430 <clocks_init+0x250>
10001434:	22e0      	movs	r2, #224	; 0xe0
10001436:	4920      	ldr	r1, [pc, #128]	; (100014b8 <clocks_init+0x2d8>)
10001438:	680b      	ldr	r3, [r1, #0]
1000143a:	401a      	ands	r2, r3
1000143c:	2380      	movs	r3, #128	; 0x80
1000143e:	015b      	lsls	r3, r3, #5
10001440:	432b      	orrs	r3, r5
10001442:	601a      	str	r2, [r3, #0]
10001444:	2380      	movs	r3, #128	; 0x80
10001446:	2280      	movs	r2, #128	; 0x80
10001448:	019b      	lsls	r3, r3, #6
1000144a:	432b      	orrs	r3, r5
1000144c:	0112      	lsls	r2, r2, #4
1000144e:	601a      	str	r2, [r3, #0]
10001450:	2380      	movs	r3, #128	; 0x80
10001452:	005b      	lsls	r3, r3, #1
10001454:	604b      	str	r3, [r1, #4]
10001456:	4b11      	ldr	r3, [pc, #68]	; (1000149c <clocks_init+0x2bc>)
10001458:	61a3      	str	r3, [r4, #24]
1000145a:	e6d7      	b.n	1000120c <clocks_init+0x2c>
1000145c:	20000abc 	.word	0x20000abc
10001460:	02dc6c00 	.word	0x02dc6c00
10001464:	0000b71b 	.word	0x0000b71b
10001468:	40008000 	.word	0x40008000
1000146c:	4000b03c 	.word	0x4000b03c
10001470:	4000b030 	.word	0x4000b030
10001474:	4000e000 	.word	0x4000e000
10001478:	4000f000 	.word	0x4000f000
1000147c:	4000c000 	.word	0x4000c000
10001480:	59682f00 	.word	0x59682f00
10001484:	40028000 	.word	0x40028000
10001488:	1c9c3800 	.word	0x1c9c3800
1000148c:	4002c000 	.word	0x4002c000
10001490:	40008030 	.word	0x40008030
10001494:	00b71b00 	.word	0x00b71b00
10001498:	4000803c 	.word	0x4000803c
1000149c:	07735940 	.word	0x07735940
100014a0:	40008054 	.word	0x40008054
100014a4:	4000b054 	.word	0x4000b054
100014a8:	40008060 	.word	0x40008060
100014ac:	4000b060 	.word	0x4000b060
100014b0:	4000806c 	.word	0x4000806c
100014b4:	4000b06c 	.word	0x4000b06c
100014b8:	40008048 	.word	0x40008048
100014bc:	4000b048 	.word	0x4000b048

100014c0 <watchdog_start_tick>:
100014c0:	2380      	movs	r3, #128	; 0x80
100014c2:	4a02      	ldr	r2, [pc, #8]	; (100014cc <watchdog_start_tick+0xc>)
100014c4:	009b      	lsls	r3, r3, #2
100014c6:	4303      	orrs	r3, r0
100014c8:	62d3      	str	r3, [r2, #44]	; 0x2c
100014ca:	4770      	bx	lr
100014cc:	40058000 	.word	0x40058000

100014d0 <xosc_init>:
100014d0:	23aa      	movs	r3, #170	; 0xaa
100014d2:	4a06      	ldr	r2, [pc, #24]	; (100014ec <xosc_init+0x1c>)
100014d4:	011b      	lsls	r3, r3, #4
100014d6:	6013      	str	r3, [r2, #0]
100014d8:	232f      	movs	r3, #47	; 0x2f
100014da:	4905      	ldr	r1, [pc, #20]	; (100014f0 <xosc_init+0x20>)
100014dc:	60d3      	str	r3, [r2, #12]
100014de:	4b05      	ldr	r3, [pc, #20]	; (100014f4 <xosc_init+0x24>)
100014e0:	6019      	str	r1, [r3, #0]
100014e2:	6853      	ldr	r3, [r2, #4]
100014e4:	2b00      	cmp	r3, #0
100014e6:	dafc      	bge.n	100014e2 <xosc_init+0x12>
100014e8:	4770      	bx	lr
100014ea:	46c0      	nop			; (mov r8, r8)
100014ec:	40024000 	.word	0x40024000
100014f0:	00fab000 	.word	0x00fab000
100014f4:	40026000 	.word	0x40026000

100014f8 <pll_init>:
100014f8:	b5f8      	push	{r3, r4, r5, r6, r7, lr}
100014fa:	001d      	movs	r5, r3
100014fc:	ab06      	add	r3, sp, #24
100014fe:	781e      	ldrb	r6, [r3, #0]
10001500:	2301      	movs	r3, #1
10001502:	425b      	negs	r3, r3
10001504:	6043      	str	r3, [r0, #4]
10001506:	2300      	movs	r3, #0
10001508:	0004      	movs	r4, r0
1000150a:	6083      	str	r3, [r0, #8]
1000150c:	6001      	str	r1, [r0, #0]
1000150e:	200c      	movs	r0, #12
10001510:	0017      	movs	r7, r2
10001512:	f000 fa11 	bl	10001938 <__wrap___aeabi_uidiv>
10001516:	0141      	lsls	r1, r0, #5
10001518:	1a09      	subs	r1, r1, r0
1000151a:	018b      	lsls	r3, r1, #6
1000151c:	1a59      	subs	r1, r3, r1
1000151e:	00c9      	lsls	r1, r1, #3
10001520:	1809      	adds	r1, r1, r0
10001522:	0189      	lsls	r1, r1, #6
10001524:	0038      	movs	r0, r7
10001526:	f000 fa07 	bl	10001938 <__wrap___aeabi_uidiv>
1000152a:	21c0      	movs	r1, #192	; 0xc0
1000152c:	1d23      	adds	r3, r4, #4
1000152e:	0189      	lsls	r1, r1, #6
10001530:	4319      	orrs	r1, r3
10001532:	2321      	movs	r3, #33	; 0x21
10001534:	60a0      	str	r0, [r4, #8]
10001536:	600b      	str	r3, [r1, #0]
10001538:	6822      	ldr	r2, [r4, #0]
1000153a:	2a00      	cmp	r2, #0
1000153c:	dafc      	bge.n	10001538 <pll_init+0x40>
1000153e:	2308      	movs	r3, #8
10001540:	042d      	lsls	r5, r5, #16
10001542:	0336      	lsls	r6, r6, #12
10001544:	432e      	orrs	r6, r5
10001546:	60e6      	str	r6, [r4, #12]
10001548:	600b      	str	r3, [r1, #0]
1000154a:	bdf8      	pop	{r3, r4, r5, r6, r7, pc}

1000154c <irq_set_enabled>:
1000154c:	2301      	movs	r3, #1
1000154e:	4083      	lsls	r3, r0
10001550:	2900      	cmp	r1, #0
10001552:	d004      	beq.n	1000155e <irq_set_enabled+0x12>
10001554:	4a03      	ldr	r2, [pc, #12]	; (10001564 <irq_set_enabled+0x18>)
10001556:	6013      	str	r3, [r2, #0]
10001558:	4a03      	ldr	r2, [pc, #12]	; (10001568 <irq_set_enabled+0x1c>)
1000155a:	6013      	str	r3, [r2, #0]
1000155c:	4770      	bx	lr
1000155e:	4a03      	ldr	r2, [pc, #12]	; (1000156c <irq_set_enabled+0x20>)
10001560:	6013      	str	r3, [r2, #0]
10001562:	e7fb      	b.n	1000155c <irq_set_enabled+0x10>
10001564:	e000e280 	.word	0xe000e280
10001568:	e000e100 	.word	0xe000e100
1000156c:	e000e180 	.word	0xe000e180

10001570 <irq_get_vtable_handler>:
10001570:	4b02      	ldr	r3, [pc, #8]	; (1000157c <irq_get_vtable_handler+0xc>)
10001572:	3010      	adds	r0, #16
10001574:	689b      	ldr	r3, [r3, #8]
10001576:	0080      	lsls	r0, r0, #2
10001578:	58c0      	ldr	r0, [r0, r3]
1000157a:	4770      	bx	lr
1000157c:	e000ed00 	.word	0xe000ed00

10001580 <irq_set_exclusive_handler>:
10001580:	b570      	push	{r4, r5, r6, lr}
10001582:	000d      	movs	r5, r1
10001584:	f3ef 8610 	mrs	r6, PRIMASK
10001588:	b672      	cpsid	i
1000158a:	4a0f      	ldr	r2, [pc, #60]	; (100015c8 <irq_set_exclusive_handler+0x48>)
1000158c:	6813      	ldr	r3, [r2, #0]
1000158e:	2b00      	cmp	r3, #0
10001590:	d0fc      	beq.n	1000158c <irq_set_exclusive_handler+0xc>
10001592:	f3bf 8f5f 	dmb	sy
10001596:	4b0d      	ldr	r3, [pc, #52]	; (100015cc <irq_set_exclusive_handler+0x4c>)
10001598:	3010      	adds	r0, #16
1000159a:	689b      	ldr	r3, [r3, #8]
1000159c:	0084      	lsls	r4, r0, #2
1000159e:	591b      	ldr	r3, [r3, r4]
100015a0:	4a0b      	ldr	r2, [pc, #44]	; (100015d0 <irq_set_exclusive_handler+0x50>)
100015a2:	4293      	cmp	r3, r2
100015a4:	d003      	beq.n	100015ae <irq_set_exclusive_handler+0x2e>
100015a6:	429d      	cmp	r5, r3
100015a8:	d001      	beq.n	100015ae <irq_set_exclusive_handler+0x2e>
100015aa:	f7ff fe13 	bl	100011d4 <hard_assertion_failure>
100015ae:	4b07      	ldr	r3, [pc, #28]	; (100015cc <irq_set_exclusive_handler+0x4c>)
100015b0:	689b      	ldr	r3, [r3, #8]
100015b2:	511d      	str	r5, [r3, r4]
100015b4:	f3bf 8f5f 	dmb	sy
100015b8:	f3bf 8f5f 	dmb	sy
100015bc:	2200      	movs	r2, #0
100015be:	4b02      	ldr	r3, [pc, #8]	; (100015c8 <irq_set_exclusive_handler+0x48>)
100015c0:	601a      	str	r2, [r3, #0]
100015c2:	f386 8810 	msr	PRIMASK, r6
100015c6:	bd70      	pop	{r4, r5, r6, pc}
100015c8:	d0000124 	.word	0xd0000124
100015cc:	e000ed00 	.word	0xe000ed00
100015d0:	100002cd 	.word	0x100002cd

100015d4 <irq_remove_handler>:
100015d4:	b5f0      	push	{r4, r5, r6, r7, lr}
100015d6:	46de      	mov	lr, fp
100015d8:	4657      	mov	r7, sl
100015da:	464e      	mov	r6, r9
100015dc:	4645      	mov	r5, r8
100015de:	b5e0      	push	{r5, r6, r7, lr}
100015e0:	000c      	movs	r4, r1
100015e2:	b083      	sub	sp, #12
100015e4:	f3ef 8a10 	mrs	sl, PRIMASK
100015e8:	b672      	cpsid	i
100015ea:	4a5f      	ldr	r2, [pc, #380]	; (10001768 <irq_remove_handler+0x194>)
100015ec:	6813      	ldr	r3, [r2, #0]
100015ee:	2b00      	cmp	r3, #0
100015f0:	d0fc      	beq.n	100015ec <irq_remove_handler+0x18>
100015f2:	f3bf 8f5f 	dmb	sy
100015f6:	2210      	movs	r2, #16
100015f8:	4691      	mov	r9, r2
100015fa:	4481      	add	r9, r0
100015fc:	464a      	mov	r2, r9
100015fe:	4b5b      	ldr	r3, [pc, #364]	; (1000176c <irq_remove_handler+0x198>)
10001600:	0096      	lsls	r6, r2, #2
10001602:	689b      	ldr	r3, [r3, #8]
10001604:	599d      	ldr	r5, [r3, r6]
10001606:	4b5a      	ldr	r3, [pc, #360]	; (10001770 <irq_remove_handler+0x19c>)
10001608:	4698      	mov	r8, r3
1000160a:	429d      	cmp	r5, r3
1000160c:	d005      	beq.n	1000161a <irq_remove_handler+0x46>
1000160e:	42a5      	cmp	r5, r4
10001610:	d016      	beq.n	10001640 <irq_remove_handler+0x6c>
10001612:	4f58      	ldr	r7, [pc, #352]	; (10001774 <irq_remove_handler+0x1a0>)
10001614:	1beb      	subs	r3, r5, r7
10001616:	2b2f      	cmp	r3, #47	; 0x2f
10001618:	d914      	bls.n	10001644 <irq_remove_handler+0x70>
1000161a:	4b54      	ldr	r3, [pc, #336]	; (1000176c <irq_remove_handler+0x198>)
1000161c:	689b      	ldr	r3, [r3, #8]
1000161e:	519d      	str	r5, [r3, r6]
10001620:	f3bf 8f5f 	dmb	sy
10001624:	f3bf 8f5f 	dmb	sy
10001628:	2200      	movs	r2, #0
1000162a:	4b4f      	ldr	r3, [pc, #316]	; (10001768 <irq_remove_handler+0x194>)
1000162c:	601a      	str	r2, [r3, #0]
1000162e:	f38a 8810 	msr	PRIMASK, sl
10001632:	b003      	add	sp, #12
10001634:	bc3c      	pop	{r2, r3, r4, r5}
10001636:	4690      	mov	r8, r2
10001638:	4699      	mov	r9, r3
1000163a:	46a2      	mov	sl, r4
1000163c:	46ab      	mov	fp, r5
1000163e:	bdf0      	pop	{r4, r5, r6, r7, pc}
10001640:	001d      	movs	r5, r3
10001642:	e7ea      	b.n	1000161a <irq_remove_handler+0x46>
10001644:	2301      	movs	r3, #1
10001646:	4083      	lsls	r3, r0
10001648:	469b      	mov	fp, r3
1000164a:	465a      	mov	r2, fp
1000164c:	4b4a      	ldr	r3, [pc, #296]	; (10001778 <irq_remove_handler+0x1a4>)
1000164e:	681b      	ldr	r3, [r3, #0]
10001650:	401a      	ands	r2, r3
10001652:	9200      	str	r2, [sp, #0]
10001654:	465a      	mov	r2, fp
10001656:	4b49      	ldr	r3, [pc, #292]	; (1000177c <irq_remove_handler+0x1a8>)
10001658:	601a      	str	r2, [r3, #0]
1000165a:	f3bf 8f5f 	dmb	sy
1000165e:	f7fe fd9a 	bl	10000196 <__get_current_exception>
10001662:	9001      	str	r0, [sp, #4]
10001664:	2800      	cmp	r0, #0
10001666:	d003      	beq.n	10001670 <irq_remove_handler+0x9c>
10001668:	4581      	cmp	r9, r0
1000166a:	d001      	beq.n	10001670 <irq_remove_handler+0x9c>
1000166c:	f7ff fdb2 	bl	100011d4 <hard_assertion_failure>
10001670:	2301      	movs	r3, #1
10001672:	0029      	movs	r1, r5
10001674:	4399      	bics	r1, r3
10001676:	688b      	ldr	r3, [r1, #8]
10001678:	42a3      	cmp	r3, r4
1000167a:	d069      	beq.n	10001750 <irq_remove_handler+0x17c>
1000167c:	000a      	movs	r2, r1
1000167e:	e007      	b.n	10001690 <irq_remove_handler+0xbc>
10001680:	0043      	lsls	r3, r0, #1
10001682:	181b      	adds	r3, r3, r0
10001684:	009b      	lsls	r3, r3, #2
10001686:	18fb      	adds	r3, r7, r3
10001688:	6898      	ldr	r0, [r3, #8]
1000168a:	42a0      	cmp	r0, r4
1000168c:	d011      	beq.n	100016b2 <irq_remove_handler+0xde>
1000168e:	001a      	movs	r2, r3
10001690:	2006      	movs	r0, #6
10001692:	5610      	ldrsb	r0, [r2, r0]
10001694:	2800      	cmp	r0, #0
10001696:	daf3      	bge.n	10001680 <irq_remove_handler+0xac>
10001698:	9b00      	ldr	r3, [sp, #0]
1000169a:	2b00      	cmp	r3, #0
1000169c:	d005      	beq.n	100016aa <irq_remove_handler+0xd6>
1000169e:	465a      	mov	r2, fp
100016a0:	4b37      	ldr	r3, [pc, #220]	; (10001780 <irq_remove_handler+0x1ac>)
100016a2:	601a      	str	r2, [r3, #0]
100016a4:	4b34      	ldr	r3, [pc, #208]	; (10001778 <irq_remove_handler+0x1a4>)
100016a6:	601a      	str	r2, [r3, #0]
100016a8:	e7b7      	b.n	1000161a <irq_remove_handler+0x46>
100016aa:	465a      	mov	r2, fp
100016ac:	4b33      	ldr	r3, [pc, #204]	; (1000177c <irq_remove_handler+0x1a8>)
100016ae:	601a      	str	r2, [r3, #0]
100016b0:	e7b3      	b.n	1000161a <irq_remove_handler+0x46>
100016b2:	2006      	movs	r0, #6
100016b4:	5618      	ldrsb	r0, [r3, r0]
100016b6:	2800      	cmp	r0, #0
100016b8:	db22      	blt.n	10001700 <irq_remove_handler+0x12c>
100016ba:	0042      	lsls	r2, r0, #1
100016bc:	1811      	adds	r1, r2, r0
100016be:	0089      	lsls	r1, r1, #2
100016c0:	187c      	adds	r4, r7, r1
100016c2:	4688      	mov	r8, r1
100016c4:	68a1      	ldr	r1, [r4, #8]
100016c6:	6099      	str	r1, [r3, #8]
100016c8:	79e1      	ldrb	r1, [r4, #7]
100016ca:	71d9      	strb	r1, [r3, #7]
100016cc:	2106      	movs	r1, #6
100016ce:	5661      	ldrsb	r1, [r4, r1]
100016d0:	7199      	strb	r1, [r3, #6]
100016d2:	79a1      	ldrb	r1, [r4, #6]
100016d4:	297f      	cmp	r1, #127	; 0x7f
100016d6:	d82b      	bhi.n	10001730 <irq_remove_handler+0x15c>
100016d8:	88a4      	ldrh	r4, [r4, #4]
100016da:	1af9      	subs	r1, r7, r3
100016dc:	0564      	lsls	r4, r4, #21
100016de:	1524      	asrs	r4, r4, #20
100016e0:	4444      	add	r4, r8
100016e2:	1909      	adds	r1, r1, r4
100016e4:	24e0      	movs	r4, #224	; 0xe0
100016e6:	0509      	lsls	r1, r1, #20
100016e8:	0d49      	lsrs	r1, r1, #21
100016ea:	0224      	lsls	r4, r4, #8
100016ec:	4321      	orrs	r1, r4
100016ee:	8099      	strh	r1, [r3, #4]
100016f0:	1812      	adds	r2, r2, r0
100016f2:	4b24      	ldr	r3, [pc, #144]	; (10001784 <irq_remove_handler+0x1b0>)
100016f4:	0092      	lsls	r2, r2, #2
100016f6:	18bf      	adds	r7, r7, r2
100016f8:	781a      	ldrb	r2, [r3, #0]
100016fa:	7018      	strb	r0, [r3, #0]
100016fc:	71ba      	strb	r2, [r7, #6]
100016fe:	e7cb      	b.n	10001698 <irq_remove_handler+0xc4>
10001700:	9801      	ldr	r0, [sp, #4]
10001702:	2800      	cmp	r0, #0
10001704:	d117      	bne.n	10001736 <irq_remove_handler+0x162>
10001706:	30ff      	adds	r0, #255	; 0xff
10001708:	7190      	strb	r0, [r2, #6]
1000170a:	481f      	ldr	r0, [pc, #124]	; (10001788 <irq_remove_handler+0x1b4>)
1000170c:	8090      	strh	r0, [r2, #4]
1000170e:	4a1d      	ldr	r2, [pc, #116]	; (10001784 <irq_remove_handler+0x1b0>)
10001710:	1bcf      	subs	r7, r1, r7
10001712:	7810      	ldrb	r0, [r2, #0]
10001714:	10bf      	asrs	r7, r7, #2
10001716:	7198      	strb	r0, [r3, #6]
10001718:	00bb      	lsls	r3, r7, #2
1000171a:	19db      	adds	r3, r3, r7
1000171c:	0119      	lsls	r1, r3, #4
1000171e:	185b      	adds	r3, r3, r1
10001720:	0219      	lsls	r1, r3, #8
10001722:	185b      	adds	r3, r3, r1
10001724:	0419      	lsls	r1, r3, #16
10001726:	185b      	adds	r3, r3, r1
10001728:	005b      	lsls	r3, r3, #1
1000172a:	19db      	adds	r3, r3, r7
1000172c:	7013      	strb	r3, [r2, #0]
1000172e:	e7b3      	b.n	10001698 <irq_remove_handler+0xc4>
10001730:	21bd      	movs	r1, #189	; 0xbd
10001732:	0209      	lsls	r1, r1, #8
10001734:	e7db      	b.n	100016ee <irq_remove_handler+0x11a>
10001736:	4a15      	ldr	r2, [pc, #84]	; (1000178c <irq_remove_handler+0x1b8>)
10001738:	4915      	ldr	r1, [pc, #84]	; (10001790 <irq_remove_handler+0x1bc>)
1000173a:	1ad2      	subs	r2, r2, r3
1000173c:	3a08      	subs	r2, #8
1000173e:	0250      	lsls	r0, r2, #9
10001740:	0d40      	lsrs	r0, r0, #21
10001742:	4301      	orrs	r1, r0
10001744:	8099      	strh	r1, [r3, #4]
10001746:	4913      	ldr	r1, [pc, #76]	; (10001794 <irq_remove_handler+0x1c0>)
10001748:	0852      	lsrs	r2, r2, #1
1000174a:	430a      	orrs	r2, r1
1000174c:	80da      	strh	r2, [r3, #6]
1000174e:	e7a3      	b.n	10001698 <irq_remove_handler+0xc4>
10001750:	2006      	movs	r0, #6
10001752:	5608      	ldrsb	r0, [r1, r0]
10001754:	000b      	movs	r3, r1
10001756:	2800      	cmp	r0, #0
10001758:	daaf      	bge.n	100016ba <irq_remove_handler+0xe6>
1000175a:	9a01      	ldr	r2, [sp, #4]
1000175c:	2a00      	cmp	r2, #0
1000175e:	d1ea      	bne.n	10001736 <irq_remove_handler+0x162>
10001760:	000b      	movs	r3, r1
10001762:	4645      	mov	r5, r8
10001764:	e7d3      	b.n	1000170e <irq_remove_handler+0x13a>
10001766:	46c0      	nop			; (mov r8, r8)
10001768:	d0000124 	.word	0xd0000124
1000176c:	e000ed00 	.word	0xe000ed00
10001770:	100002cd 	.word	0x100002cd
10001774:	2000018c 	.word	0x2000018c
10001778:	e000e100 	.word	0xe000e100
1000177c:	e000e180 	.word	0xe000e180
10001780:	e000e280 	.word	0xe000e280
10001784:	20000b19 	.word	0x20000b19
10001788:	ffffbd00 	.word	0xffffbd00
1000178c:	200001c6 	.word	0x200001c6
10001790:	fffff000 	.word	0xfffff000
10001794:	fffff800 	.word	0xfffff800

10001798 <irq_add_tail_to_free_list>:
10001798:	b5f8      	push	{r3, r4, r5, r6, r7, lr}
1000179a:	2501      	movs	r5, #1
1000179c:	0004      	movs	r4, r0
1000179e:	4305      	orrs	r5, r0
100017a0:	f7fe fcf9 	bl	10000196 <__get_current_exception>
100017a4:	f3ef 8610 	mrs	r6, PRIMASK
100017a8:	b672      	cpsid	i
100017aa:	4a24      	ldr	r2, [pc, #144]	; (1000183c <irq_add_tail_to_free_list+0xa4>)
100017ac:	6813      	ldr	r3, [r2, #0]
100017ae:	2b00      	cmp	r3, #0
100017b0:	d0fc      	beq.n	100017ac <irq_add_tail_to_free_list+0x14>
100017b2:	f3bf 8f5f 	dmb	sy
100017b6:	4f22      	ldr	r7, [pc, #136]	; (10001840 <irq_add_tail_to_free_list+0xa8>)
100017b8:	0080      	lsls	r0, r0, #2
100017ba:	1be1      	subs	r1, r4, r7
100017bc:	1089      	asrs	r1, r1, #2
100017be:	008a      	lsls	r2, r1, #2
100017c0:	1852      	adds	r2, r2, r1
100017c2:	0113      	lsls	r3, r2, #4
100017c4:	18d2      	adds	r2, r2, r3
100017c6:	0213      	lsls	r3, r2, #8
100017c8:	18d2      	adds	r2, r2, r3
100017ca:	0413      	lsls	r3, r2, #16
100017cc:	18d3      	adds	r3, r2, r3
100017ce:	4a1d      	ldr	r2, [pc, #116]	; (10001844 <irq_add_tail_to_free_list+0xac>)
100017d0:	005b      	lsls	r3, r3, #1
100017d2:	185b      	adds	r3, r3, r1
100017d4:	6891      	ldr	r1, [r2, #8]
100017d6:	5809      	ldr	r1, [r1, r0]
100017d8:	42a9      	cmp	r1, r5
100017da:	d01c      	beq.n	10001816 <irq_add_tail_to_free_list+0x7e>
100017dc:	2206      	movs	r2, #6
100017de:	56ba      	ldrsb	r2, [r7, r2]
100017e0:	4293      	cmp	r3, r2
100017e2:	d01c      	beq.n	1000181e <irq_add_tail_to_free_list+0x86>
100017e4:	2212      	movs	r2, #18
100017e6:	56ba      	ldrsb	r2, [r7, r2]
100017e8:	4293      	cmp	r3, r2
100017ea:	d022      	beq.n	10001832 <irq_add_tail_to_free_list+0x9a>
100017ec:	221e      	movs	r2, #30
100017ee:	56ba      	ldrsb	r2, [r7, r2]
100017f0:	4293      	cmp	r3, r2
100017f2:	d020      	beq.n	10001836 <irq_add_tail_to_free_list+0x9e>
100017f4:	222a      	movs	r2, #42	; 0x2a
100017f6:	56ba      	ldrsb	r2, [r7, r2]
100017f8:	2103      	movs	r1, #3
100017fa:	429a      	cmp	r2, r3
100017fc:	d010      	beq.n	10001820 <irq_add_tail_to_free_list+0x88>
100017fe:	4a12      	ldr	r2, [pc, #72]	; (10001848 <irq_add_tail_to_free_list+0xb0>)
10001800:	7811      	ldrb	r1, [r2, #0]
10001802:	7013      	strb	r3, [r2, #0]
10001804:	71a1      	strb	r1, [r4, #6]
10001806:	f3bf 8f5f 	dmb	sy
1000180a:	2200      	movs	r2, #0
1000180c:	4b0b      	ldr	r3, [pc, #44]	; (1000183c <irq_add_tail_to_free_list+0xa4>)
1000180e:	601a      	str	r2, [r3, #0]
10001810:	f386 8810 	msr	PRIMASK, r6
10001814:	bdf8      	pop	{r3, r4, r5, r6, r7, pc}
10001816:	6892      	ldr	r2, [r2, #8]
10001818:	490c      	ldr	r1, [pc, #48]	; (1000184c <irq_add_tail_to_free_list+0xb4>)
1000181a:	5011      	str	r1, [r2, r0]
1000181c:	e7ef      	b.n	100017fe <irq_add_tail_to_free_list+0x66>
1000181e:	2100      	movs	r1, #0
10001820:	004a      	lsls	r2, r1, #1
10001822:	1852      	adds	r2, r2, r1
10001824:	21ff      	movs	r1, #255	; 0xff
10001826:	0092      	lsls	r2, r2, #2
10001828:	18ba      	adds	r2, r7, r2
1000182a:	7191      	strb	r1, [r2, #6]
1000182c:	4908      	ldr	r1, [pc, #32]	; (10001850 <irq_add_tail_to_free_list+0xb8>)
1000182e:	8091      	strh	r1, [r2, #4]
10001830:	e7e5      	b.n	100017fe <irq_add_tail_to_free_list+0x66>
10001832:	2101      	movs	r1, #1
10001834:	e7f4      	b.n	10001820 <irq_add_tail_to_free_list+0x88>
10001836:	2102      	movs	r1, #2
10001838:	e7f2      	b.n	10001820 <irq_add_tail_to_free_list+0x88>
1000183a:	46c0      	nop			; (mov r8, r8)
1000183c:	d0000124 	.word	0xd0000124
10001840:	2000018c 	.word	0x2000018c
10001844:	e000ed00 	.word	0xe000ed00
10001848:	20000b19 	.word	0x20000b19
1000184c:	100002cd 	.word	0x100002cd
10001850:	ffffbd00 	.word	0xffffbd00

10001854 <irq_init_priorities>:
10001854:	b5f0      	push	{r4, r5, r6, r7, lr}
10001856:	2200      	movs	r2, #0
10001858:	2403      	movs	r4, #3
1000185a:	27ff      	movs	r7, #255	; 0xff
1000185c:	2680      	movs	r6, #128	; 0x80
1000185e:	0020      	movs	r0, r4
10001860:	003d      	movs	r5, r7
10001862:	4b09      	ldr	r3, [pc, #36]	; (10001888 <irq_init_priorities+0x34>)
10001864:	0011      	movs	r1, r2
10001866:	469c      	mov	ip, r3
10001868:	4010      	ands	r0, r2
1000186a:	00c0      	lsls	r0, r0, #3
1000186c:	4085      	lsls	r5, r0
1000186e:	43a1      	bics	r1, r4
10001870:	4461      	add	r1, ip
10001872:	680b      	ldr	r3, [r1, #0]
10001874:	3201      	adds	r2, #1
10001876:	43ab      	bics	r3, r5
10001878:	0035      	movs	r5, r6
1000187a:	4085      	lsls	r5, r0
1000187c:	432b      	orrs	r3, r5
1000187e:	600b      	str	r3, [r1, #0]
10001880:	2a20      	cmp	r2, #32
10001882:	d1ec      	bne.n	1000185e <irq_init_priorities+0xa>
10001884:	bdf0      	pop	{r4, r5, r6, r7, pc}
10001886:	46c0      	nop			; (mov r8, r8)
10001888:	e000e400 	.word	0xe000e400

1000188c <_out_char>:
1000188c:	b510      	push	{r4, lr}
1000188e:	2800      	cmp	r0, #0
10001890:	d100      	bne.n	10001894 <_out_char+0x8>
10001892:	bd10      	pop	{r4, pc}
10001894:	f000 fa26 	bl	10001ce4 <__wrap_putchar>
10001898:	e7fb      	b.n	10001892 <_out_char+0x6>
1000189a:	46c0      	nop			; (mov r8, r8)

1000189c <weak_raw_vprintf>:
1000189c:	b510      	push	{r4, lr}
1000189e:	4a09      	ldr	r2, [pc, #36]	; (100018c4 <weak_raw_vprintf+0x28>)
100018a0:	0003      	movs	r3, r0
100018a2:	6814      	ldr	r4, [r2, #0]
100018a4:	b084      	sub	sp, #16
100018a6:	2c00      	cmp	r4, #0
100018a8:	d008      	beq.n	100018bc <weak_raw_vprintf+0x20>
100018aa:	2201      	movs	r2, #1
100018ac:	9100      	str	r1, [sp, #0]
100018ae:	4806      	ldr	r0, [pc, #24]	; (100018c8 <weak_raw_vprintf+0x2c>)
100018b0:	4252      	negs	r2, r2
100018b2:	a903      	add	r1, sp, #12
100018b4:	47a0      	blx	r4
100018b6:	2001      	movs	r0, #1
100018b8:	b004      	add	sp, #16
100018ba:	bd10      	pop	{r4, pc}
100018bc:	f000 fa20 	bl	10001d00 <__wrap_puts>
100018c0:	2000      	movs	r0, #0
100018c2:	e7f9      	b.n	100018b8 <weak_raw_vprintf+0x1c>
100018c4:	20000af4 	.word	0x20000af4
100018c8:	1000188d 	.word	0x1000188d

100018cc <__aeabi_bits_init>:
100018cc:	4801      	ldr	r0, [pc, #4]	; (100018d4 <__aeabi_bits_init+0x8>)
100018ce:	2104      	movs	r1, #4
100018d0:	4b01      	ldr	r3, [pc, #4]	; (100018d8 <__aeabi_bits_init+0xc>)
100018d2:	4718      	bx	r3
100018d4:	200001e0 	.word	0x200001e0
100018d8:	100018fd 	.word	0x100018fd

100018dc <rom_func_lookup>:
100018dc:	2314      	movs	r3, #20
100018de:	b510      	push	{r4, lr}
100018e0:	0001      	movs	r1, r0
100018e2:	8818      	ldrh	r0, [r3, #0]
100018e4:	3304      	adds	r3, #4
100018e6:	881b      	ldrh	r3, [r3, #0]
100018e8:	4798      	blx	r3
100018ea:	bd10      	pop	{r4, pc}

100018ec <rom_data_lookup>:
100018ec:	2316      	movs	r3, #22
100018ee:	b510      	push	{r4, lr}
100018f0:	0001      	movs	r1, r0
100018f2:	8818      	ldrh	r0, [r3, #0]
100018f4:	3302      	adds	r3, #2
100018f6:	881b      	ldrh	r3, [r3, #0]
100018f8:	4798      	blx	r3
100018fa:	bd10      	pop	{r4, pc}

100018fc <rom_funcs_lookup>:
100018fc:	b5f0      	push	{r4, r5, r6, r7, lr}
100018fe:	46c6      	mov	lr, r8
10001900:	b500      	push	{lr}
10001902:	2900      	cmp	r1, #0
10001904:	d016      	beq.n	10001934 <rom_funcs_lookup+0x38>
10001906:	2314      	movs	r3, #20
10001908:	0004      	movs	r4, r0
1000190a:	2501      	movs	r5, #1
1000190c:	4698      	mov	r8, r3
1000190e:	2718      	movs	r7, #24
10001910:	0089      	lsls	r1, r1, #2
10001912:	1846      	adds	r6, r0, r1
10001914:	4643      	mov	r3, r8
10001916:	6821      	ldr	r1, [r4, #0]
10001918:	8818      	ldrh	r0, [r3, #0]
1000191a:	883b      	ldrh	r3, [r7, #0]
1000191c:	4798      	blx	r3
1000191e:	c401      	stmia	r4!, {r0}
10001920:	1e43      	subs	r3, r0, #1
10001922:	4198      	sbcs	r0, r3
10001924:	4240      	negs	r0, r0
10001926:	4005      	ands	r5, r0
10001928:	42a6      	cmp	r6, r4
1000192a:	d1f3      	bne.n	10001914 <rom_funcs_lookup+0x18>
1000192c:	0028      	movs	r0, r5
1000192e:	bc04      	pop	{r2}
10001930:	4690      	mov	r8, r2
10001932:	bdf0      	pop	{r4, r5, r6, r7, pc}
10001934:	2501      	movs	r5, #1
10001936:	e7f9      	b.n	1000192c <rom_funcs_lookup+0x30>

10001938 <__wrap___aeabi_uidiv>:
10001938:	4a13      	ldr	r2, [pc, #76]	; (10001988 <divmod_u32u32_savestate+0x20>)
1000193a:	6f93      	ldr	r3, [r2, #120]	; 0x78
1000193c:	089b      	lsrs	r3, r3, #2
1000193e:	d213      	bcs.n	10001968 <divmod_u32u32_savestate>

10001940 <divmod_u32u32_unsafe>:
10001940:	6610      	str	r0, [r2, #96]	; 0x60
10001942:	6651      	str	r1, [r2, #100]	; 0x64
10001944:	2900      	cmp	r1, #0
10001946:	d005      	beq.n	10001954 <divmod_u32u32_unsafe+0x14>
10001948:	e7ff      	b.n	1000194a <divmod_u32u32_unsafe+0xa>
1000194a:	e7ff      	b.n	1000194c <divmod_u32u32_unsafe+0xc>
1000194c:	e7ff      	b.n	1000194e <divmod_u32u32_unsafe+0xe>
1000194e:	6f51      	ldr	r1, [r2, #116]	; 0x74
10001950:	6f10      	ldr	r0, [r2, #112]	; 0x70
10001952:	4770      	bx	lr
10001954:	b504      	push	{r2, lr}
10001956:	2800      	cmp	r0, #0
10001958:	d001      	beq.n	1000195e <divmod_u32u32_unsafe+0x1e>
1000195a:	2000      	movs	r0, #0
1000195c:	43c0      	mvns	r0, r0
1000195e:	f000 fe7f 	bl	10002660 <____aeabi_idiv0_veneer>
10001962:	2100      	movs	r1, #0
10001964:	bd04      	pop	{r2, pc}
10001966:	46c0      	nop			; (mov r8, r8)

10001968 <divmod_u32u32_savestate>:
10001968:	6f93      	ldr	r3, [r2, #120]	; 0x78
1000196a:	085b      	lsrs	r3, r3, #1
1000196c:	d3fd      	bcc.n	1000196a <divmod_u32u32_savestate+0x2>
1000196e:	b5f0      	push	{r4, r5, r6, r7, lr}
10001970:	6e94      	ldr	r4, [r2, #104]	; 0x68
10001972:	6ed5      	ldr	r5, [r2, #108]	; 0x6c
10001974:	6f57      	ldr	r7, [r2, #116]	; 0x74
10001976:	6f16      	ldr	r6, [r2, #112]	; 0x70
10001978:	f7ff ffe2 	bl	10001940 <divmod_u32u32_unsafe>
1000197c:	6694      	str	r4, [r2, #104]	; 0x68
1000197e:	66d5      	str	r5, [r2, #108]	; 0x6c
10001980:	6757      	str	r7, [r2, #116]	; 0x74
10001982:	6716      	str	r6, [r2, #112]	; 0x70
10001984:	bdf0      	pop	{r4, r5, r6, r7, pc}
10001986:	0000      	.short	0x0000
10001988:	d0000000 	.word	0xd0000000

1000198c <__aeabi_double_init>:
1000198c:	2313      	movs	r3, #19
1000198e:	b570      	push	{r4, r5, r6, lr}
10001990:	781d      	ldrb	r5, [r3, #0]
10001992:	2d01      	cmp	r5, #1
10001994:	d010      	beq.n	100019b8 <__aeabi_double_init+0x2c>
10001996:	dd0b      	ble.n	100019b0 <__aeabi_double_init+0x24>
10001998:	4824      	ldr	r0, [pc, #144]	; (10001a2c <__aeabi_double_init+0xa0>)
1000199a:	f7ff ffa7 	bl	100018ec <rom_data_lookup>
1000199e:	4c24      	ldr	r4, [pc, #144]	; (10001a30 <__aeabi_double_init+0xa4>)
100019a0:	0001      	movs	r1, r0
100019a2:	2280      	movs	r2, #128	; 0x80
100019a4:	0020      	movs	r0, r4
100019a6:	f000 f8d5 	bl	10001b54 <__wrap___aeabi_memcpy>
100019aa:	2d02      	cmp	r5, #2
100019ac:	d001      	beq.n	100019b2 <__aeabi_double_init+0x26>
100019ae:	bd70      	pop	{r4, r5, r6, pc}
100019b0:	4c1f      	ldr	r4, [pc, #124]	; (10001a30 <__aeabi_double_init+0xa4>)
100019b2:	4a20      	ldr	r2, [pc, #128]	; (10001a34 <__aeabi_double_init+0xa8>)
100019b4:	64a2      	str	r2, [r4, #72]	; 0x48
100019b6:	e7fa      	b.n	100019ae <__aeabi_double_init+0x22>
100019b8:	002e      	movs	r6, r5
100019ba:	4c1d      	ldr	r4, [pc, #116]	; (10001a30 <__aeabi_double_init+0xa4>)
100019bc:	4a1d      	ldr	r2, [pc, #116]	; (10001a34 <__aeabi_double_init+0xa8>)
100019be:	08a3      	lsrs	r3, r4, #2
100019c0:	425b      	negs	r3, r3
100019c2:	401e      	ands	r6, r3
100019c4:	421d      	tst	r5, r3
100019c6:	d02f      	beq.n	10001a28 <__aeabi_double_init+0x9c>
100019c8:	0033      	movs	r3, r6
100019ca:	6022      	str	r2, [r4, #0]
100019cc:	2020      	movs	r0, #32
100019ce:	00b1      	lsls	r1, r6, #2
100019d0:	1861      	adds	r1, r4, r1
100019d2:	1b80      	subs	r0, r0, r6
100019d4:	600a      	str	r2, [r1, #0]
100019d6:	604a      	str	r2, [r1, #4]
100019d8:	608a      	str	r2, [r1, #8]
100019da:	60ca      	str	r2, [r1, #12]
100019dc:	610a      	str	r2, [r1, #16]
100019de:	614a      	str	r2, [r1, #20]
100019e0:	618a      	str	r2, [r1, #24]
100019e2:	61ca      	str	r2, [r1, #28]
100019e4:	620a      	str	r2, [r1, #32]
100019e6:	624a      	str	r2, [r1, #36]	; 0x24
100019e8:	628a      	str	r2, [r1, #40]	; 0x28
100019ea:	62ca      	str	r2, [r1, #44]	; 0x2c
100019ec:	630a      	str	r2, [r1, #48]	; 0x30
100019ee:	634a      	str	r2, [r1, #52]	; 0x34
100019f0:	638a      	str	r2, [r1, #56]	; 0x38
100019f2:	63ca      	str	r2, [r1, #60]	; 0x3c
100019f4:	640a      	str	r2, [r1, #64]	; 0x40
100019f6:	644a      	str	r2, [r1, #68]	; 0x44
100019f8:	648a      	str	r2, [r1, #72]	; 0x48
100019fa:	64ca      	str	r2, [r1, #76]	; 0x4c
100019fc:	650a      	str	r2, [r1, #80]	; 0x50
100019fe:	654a      	str	r2, [r1, #84]	; 0x54
10001a00:	658a      	str	r2, [r1, #88]	; 0x58
10001a02:	65ca      	str	r2, [r1, #92]	; 0x5c
10001a04:	660a      	str	r2, [r1, #96]	; 0x60
10001a06:	664a      	str	r2, [r1, #100]	; 0x64
10001a08:	668a      	str	r2, [r1, #104]	; 0x68
10001a0a:	66ca      	str	r2, [r1, #108]	; 0x6c
10001a0c:	670a      	str	r2, [r1, #112]	; 0x70
10001a0e:	674a      	str	r2, [r1, #116]	; 0x74
10001a10:	0840      	lsrs	r0, r0, #1
10001a12:	2810      	cmp	r0, #16
10001a14:	d103      	bne.n	10001a1e <__aeabi_double_init+0x92>
10001a16:	678a      	str	r2, [r1, #120]	; 0x78
10001a18:	67ca      	str	r2, [r1, #124]	; 0x7c
10001a1a:	64a2      	str	r2, [r4, #72]	; 0x48
10001a1c:	e7c7      	b.n	100019ae <__aeabi_double_init+0x22>
10001a1e:	331e      	adds	r3, #30
10001a20:	009b      	lsls	r3, r3, #2
10001a22:	50e2      	str	r2, [r4, r3]
10001a24:	64a2      	str	r2, [r4, #72]	; 0x48
10001a26:	e7c2      	b.n	100019ae <__aeabi_double_init+0x22>
10001a28:	2300      	movs	r3, #0
10001a2a:	e7cf      	b.n	100019cc <__aeabi_double_init+0x40>
10001a2c:	00004453 	.word	0x00004453
10001a30:	20000b1c 	.word	0x20000b1c
10001a34:	10001a39 	.word	0x10001a39

10001a38 <double_table_shim_on_use_helper>:
10001a38:	b507      	push	{r0, r1, r2, lr}
10001a3a:	4660      	mov	r0, ip
10001a3c:	8801      	ldrh	r1, [r0, #0]
10001a3e:	0a0a      	lsrs	r2, r1, #8
10001a40:	3002      	adds	r0, #2
10001a42:	2adf      	cmp	r2, #223	; 0xdf
10001a44:	d1fa      	bne.n	10001a3c <double_table_shim_on_use_helper+0x4>
10001a46:	b2c9      	uxtb	r1, r1
10001a48:	0882      	lsrs	r2, r0, #2
10001a4a:	d304      	bcc.n	10001a56 <double_table_shim_on_use_helper+0x1e>
10001a4c:	8802      	ldrh	r2, [r0, #0]
10001a4e:	8840      	ldrh	r0, [r0, #2]
10001a50:	0400      	lsls	r0, r0, #16
10001a52:	4310      	orrs	r0, r2
10001a54:	e000      	b.n	10001a58 <double_table_shim_on_use_helper+0x20>
10001a56:	6800      	ldr	r0, [r0, #0]
10001a58:	4a01      	ldr	r2, [pc, #4]	; (10001a60 <double_table_shim_on_use_helper+0x28>)
10001a5a:	5050      	str	r0, [r2, r1]
10001a5c:	9003      	str	r0, [sp, #12]
10001a5e:	bd07      	pop	{r0, r1, r2, pc}
10001a60:	20000b1c 	.word	0x20000b1c

10001a64 <__wrap___aeabi_lmul>:
10001a64:	4351      	muls	r1, r2
10001a66:	4343      	muls	r3, r0
10001a68:	18c9      	adds	r1, r1, r3
10001a6a:	468c      	mov	ip, r1
10001a6c:	0c11      	lsrs	r1, r2, #16
10001a6e:	b283      	uxth	r3, r0
10001a70:	434b      	muls	r3, r1
10001a72:	b410      	push	{r4}
10001a74:	0c04      	lsrs	r4, r0, #16
10001a76:	4361      	muls	r1, r4
10001a78:	b292      	uxth	r2, r2
10001a7a:	b280      	uxth	r0, r0
10001a7c:	4350      	muls	r0, r2
10001a7e:	4362      	muls	r2, r4
10001a80:	041c      	lsls	r4, r3, #16
10001a82:	0c1b      	lsrs	r3, r3, #16
10001a84:	1900      	adds	r0, r0, r4
10001a86:	bc10      	pop	{r4}
10001a88:	4159      	adcs	r1, r3
10001a8a:	0413      	lsls	r3, r2, #16
10001a8c:	0c12      	lsrs	r2, r2, #16
10001a8e:	18c0      	adds	r0, r0, r3
10001a90:	4151      	adcs	r1, r2
10001a92:	4461      	add	r1, ip
10001a94:	4770      	bx	lr
	...

10001a98 <__aeabi_float_init>:
10001a98:	2313      	movs	r3, #19
10001a9a:	b510      	push	{r4, lr}
10001a9c:	4812      	ldr	r0, [pc, #72]	; (10001ae8 <__aeabi_float_init+0x50>)
10001a9e:	781c      	ldrb	r4, [r3, #0]
10001aa0:	f7ff ff24 	bl	100018ec <rom_data_lookup>
10001aa4:	0001      	movs	r1, r0
10001aa6:	2c01      	cmp	r4, #1
10001aa8:	d00a      	beq.n	10001ac0 <__aeabi_float_init+0x28>
10001aaa:	dd03      	ble.n	10001ab4 <__aeabi_float_init+0x1c>
10001aac:	2280      	movs	r2, #128	; 0x80
10001aae:	480f      	ldr	r0, [pc, #60]	; (10001aec <__aeabi_float_init+0x54>)
10001ab0:	f000 f850 	bl	10001b54 <__wrap___aeabi_memcpy>
10001ab4:	480e      	ldr	r0, [pc, #56]	; (10001af0 <__aeabi_float_init+0x58>)
10001ab6:	f7ff ff11 	bl	100018dc <rom_func_lookup>
10001aba:	4b0e      	ldr	r3, [pc, #56]	; (10001af4 <__aeabi_float_init+0x5c>)
10001abc:	6018      	str	r0, [r3, #0]
10001abe:	bd10      	pop	{r4, pc}
10001ac0:	4c0a      	ldr	r4, [pc, #40]	; (10001aec <__aeabi_float_init+0x54>)
10001ac2:	2254      	movs	r2, #84	; 0x54
10001ac4:	0020      	movs	r0, r4
10001ac6:	f000 f845 	bl	10001b54 <__wrap___aeabi_memcpy>
10001aca:	4b0b      	ldr	r3, [pc, #44]	; (10001af8 <__aeabi_float_init+0x60>)
10001acc:	6563      	str	r3, [r4, #84]	; 0x54
10001ace:	65a3      	str	r3, [r4, #88]	; 0x58
10001ad0:	65e3      	str	r3, [r4, #92]	; 0x5c
10001ad2:	6623      	str	r3, [r4, #96]	; 0x60
10001ad4:	6663      	str	r3, [r4, #100]	; 0x64
10001ad6:	66a3      	str	r3, [r4, #104]	; 0x68
10001ad8:	66e3      	str	r3, [r4, #108]	; 0x6c
10001ada:	6723      	str	r3, [r4, #112]	; 0x70
10001adc:	6763      	str	r3, [r4, #116]	; 0x74
10001ade:	67a3      	str	r3, [r4, #120]	; 0x78
10001ae0:	67e3      	str	r3, [r4, #124]	; 0x7c
10001ae2:	6223      	str	r3, [r4, #32]
10001ae4:	61e3      	str	r3, [r4, #28]
10001ae6:	e7e5      	b.n	10001ab4 <__aeabi_float_init+0x1c>
10001ae8:	00004653 	.word	0x00004653
10001aec:	20000c1c 	.word	0x20000c1c
10001af0:	0000334c 	.word	0x0000334c
10001af4:	20000d1c 	.word	0x20000d1c
10001af8:	10001afd 	.word	0x10001afd

10001afc <float_table_shim_on_use_helper>:
10001afc:	b507      	push	{r0, r1, r2, lr}
10001afe:	4660      	mov	r0, ip
10001b00:	8801      	ldrh	r1, [r0, #0]
10001b02:	0a0a      	lsrs	r2, r1, #8
10001b04:	3002      	adds	r0, #2
10001b06:	2adf      	cmp	r2, #223	; 0xdf
10001b08:	d1fa      	bne.n	10001b00 <float_table_shim_on_use_helper+0x4>
10001b0a:	b2c9      	uxtb	r1, r1
10001b0c:	0882      	lsrs	r2, r0, #2
10001b0e:	d304      	bcc.n	10001b1a <float_table_shim_on_use_helper+0x1e>
10001b10:	8802      	ldrh	r2, [r0, #0]
10001b12:	8840      	ldrh	r0, [r0, #2]
10001b14:	0400      	lsls	r0, r0, #16
10001b16:	4310      	orrs	r0, r2
10001b18:	e000      	b.n	10001b1c <float_table_shim_on_use_helper+0x20>
10001b1a:	6800      	ldr	r0, [r0, #0]
10001b1c:	4a01      	ldr	r2, [pc, #4]	; (10001b24 <float_table_shim_on_use_helper+0x28>)
10001b1e:	5050      	str	r0, [r2, r1]
10001b20:	9003      	str	r0, [sp, #12]
10001b22:	bd07      	pop	{r0, r1, r2, pc}
10001b24:	20000c1c 	.word	0x20000c1c

10001b28 <__wrap_malloc>:
10001b28:	b510      	push	{r4, lr}
10001b2a:	f000 f941 	bl	10001db0 <malloc>
10001b2e:	bd10      	pop	{r4, pc}

10001b30 <__wrap_calloc>:
10001b30:	b510      	push	{r4, lr}
10001b32:	f000 f903 	bl	10001d3c <calloc>
10001b36:	bd10      	pop	{r4, pc}

10001b38 <__aeabi_mem_init>:
10001b38:	4801      	ldr	r0, [pc, #4]	; (10001b40 <__aeabi_mem_init+0x8>)
10001b3a:	2104      	movs	r1, #4
10001b3c:	4b01      	ldr	r3, [pc, #4]	; (10001b44 <__aeabi_mem_init+0xc>)
10001b3e:	4718      	bx	r3
10001b40:	200001f0 	.word	0x200001f0
10001b44:	100018fd 	.word	0x100018fd

10001b48 <__wrap_memset>:
10001b48:	4b01      	ldr	r3, [pc, #4]	; (10001b50 <__wrap_memset+0x8>)
10001b4a:	681b      	ldr	r3, [r3, #0]
10001b4c:	4718      	bx	r3
10001b4e:	0000      	.short	0x0000
10001b50:	200001f0 	.word	0x200001f0

10001b54 <__wrap___aeabi_memcpy>:
10001b54:	4b01      	ldr	r3, [pc, #4]	; (10001b5c <__wrap___aeabi_memcpy+0x8>)
10001b56:	685b      	ldr	r3, [r3, #4]
10001b58:	4718      	bx	r3
10001b5a:	0000      	.short	0x0000
10001b5c:	200001f0 	.word	0x200001f0

10001b60 <stdio_out_chars_crlf.part.0>:
10001b60:	b5f8      	push	{r3, r4, r5, r6, r7, lr}
10001b62:	4647      	mov	r7, r8
10001b64:	46ce      	mov	lr, r9
10001b66:	000d      	movs	r5, r1
10001b68:	b580      	push	{r7, lr}
10001b6a:	0016      	movs	r6, r2
10001b6c:	0007      	movs	r7, r0
10001b6e:	2a00      	cmp	r2, #0
10001b70:	dd20      	ble.n	10001bb4 <stdio_out_chars_crlf.part.0+0x54>
10001b72:	1e4b      	subs	r3, r1, #1
10001b74:	4698      	mov	r8, r3
10001b76:	4b1a      	ldr	r3, [pc, #104]	; (10001be0 <stdio_out_chars_crlf.part.0+0x80>)
10001b78:	2400      	movs	r4, #0
10001b7a:	2000      	movs	r0, #0
10001b7c:	4699      	mov	r9, r3
10001b7e:	2c00      	cmp	r4, #0
10001b80:	d02b      	beq.n	10001bda <stdio_out_chars_crlf.part.0+0x7a>
10001b82:	4643      	mov	r3, r8
10001b84:	5d1b      	ldrb	r3, [r3, r4]
10001b86:	3b0d      	subs	r3, #13
10001b88:	425a      	negs	r2, r3
10001b8a:	4153      	adcs	r3, r2
10001b8c:	b2db      	uxtb	r3, r3
10001b8e:	5d2a      	ldrb	r2, [r5, r4]
10001b90:	2a0a      	cmp	r2, #10
10001b92:	d013      	beq.n	10001bbc <stdio_out_chars_crlf.part.0+0x5c>
10001b94:	3401      	adds	r4, #1
10001b96:	42a6      	cmp	r6, r4
10001b98:	dcf1      	bgt.n	10001b7e <stdio_out_chars_crlf.part.0+0x1e>
10001b9a:	4286      	cmp	r6, r0
10001b9c:	dd03      	ble.n	10001ba6 <stdio_out_chars_crlf.part.0+0x46>
10001b9e:	1a31      	subs	r1, r6, r0
10001ba0:	683b      	ldr	r3, [r7, #0]
10001ba2:	1828      	adds	r0, r5, r0
10001ba4:	4798      	blx	r3
10001ba6:	19ad      	adds	r5, r5, r6
10001ba8:	3d01      	subs	r5, #1
10001baa:	782b      	ldrb	r3, [r5, #0]
10001bac:	3b0d      	subs	r3, #13
10001bae:	425a      	negs	r2, r3
10001bb0:	4153      	adcs	r3, r2
10001bb2:	743b      	strb	r3, [r7, #16]
10001bb4:	bc0c      	pop	{r2, r3}
10001bb6:	4690      	mov	r8, r2
10001bb8:	4699      	mov	r9, r3
10001bba:	bdf8      	pop	{r3, r4, r5, r6, r7, pc}
10001bbc:	2b00      	cmp	r3, #0
10001bbe:	d1e9      	bne.n	10001b94 <stdio_out_chars_crlf.part.0+0x34>
10001bc0:	42a0      	cmp	r0, r4
10001bc2:	da03      	bge.n	10001bcc <stdio_out_chars_crlf.part.0+0x6c>
10001bc4:	1a21      	subs	r1, r4, r0
10001bc6:	683b      	ldr	r3, [r7, #0]
10001bc8:	1828      	adds	r0, r5, r0
10001bca:	4798      	blx	r3
10001bcc:	4648      	mov	r0, r9
10001bce:	2102      	movs	r1, #2
10001bd0:	683b      	ldr	r3, [r7, #0]
10001bd2:	3401      	adds	r4, #1
10001bd4:	4798      	blx	r3
10001bd6:	0020      	movs	r0, r4
10001bd8:	e7dd      	b.n	10001b96 <stdio_out_chars_crlf.part.0+0x36>
10001bda:	7c3b      	ldrb	r3, [r7, #16]
10001bdc:	e7d7      	b.n	10001b8e <stdio_out_chars_crlf.part.0+0x2e>
10001bde:	46c0      	nop			; (mov r8, r8)
10001be0:	10002764 	.word	0x10002764

10001be4 <stdio_put_string>:
10001be4:	b5f0      	push	{r4, r5, r6, r7, lr}
10001be6:	4657      	mov	r7, sl
10001be8:	4645      	mov	r5, r8
10001bea:	46de      	mov	lr, fp
10001bec:	464e      	mov	r6, r9
10001bee:	23d0      	movs	r3, #208	; 0xd0
10001bf0:	b5e0      	push	{r5, r6, r7, lr}
10001bf2:	061b      	lsls	r3, r3, #24
10001bf4:	681c      	ldr	r4, [r3, #0]
10001bf6:	4b37      	ldr	r3, [pc, #220]	; (10001cd4 <stdio_put_string+0xf0>)
10001bf8:	b083      	sub	sp, #12
10001bfa:	0007      	movs	r7, r0
10001bfc:	000d      	movs	r5, r1
10001bfe:	0018      	movs	r0, r3
10001c00:	a901      	add	r1, sp, #4
10001c02:	4690      	mov	r8, r2
10001c04:	469a      	mov	sl, r3
10001c06:	f000 fd33 	bl	10002670 <__mutex_try_enter_veneer>
10001c0a:	4681      	mov	r9, r0
10001c0c:	2800      	cmp	r0, #0
10001c0e:	d107      	bne.n	10001c20 <stdio_put_string+0x3c>
10001c10:	9b01      	ldr	r3, [sp, #4]
10001c12:	429c      	cmp	r4, r3
10001c14:	d004      	beq.n	10001c20 <stdio_put_string+0x3c>
10001c16:	4650      	mov	r0, sl
10001c18:	f000 fd32 	bl	10002680 <__mutex_enter_blocking_veneer>
10001c1c:	2301      	movs	r3, #1
10001c1e:	4699      	mov	r9, r3
10001c20:	1c6b      	adds	r3, r5, #1
10001c22:	d103      	bne.n	10001c2c <stdio_put_string+0x48>
10001c24:	0038      	movs	r0, r7
10001c26:	f000 fbaf 	bl	10002388 <strlen>
10001c2a:	0005      	movs	r5, r0
10001c2c:	4b2a      	ldr	r3, [pc, #168]	; (10001cd8 <stdio_put_string+0xf4>)
10001c2e:	681c      	ldr	r4, [r3, #0]
10001c30:	2c00      	cmp	r4, #0
10001c32:	d02f      	beq.n	10001c94 <stdio_put_string+0xb0>
10001c34:	230a      	movs	r3, #10
10001c36:	4e29      	ldr	r6, [pc, #164]	; (10001cdc <stdio_put_string+0xf8>)
10001c38:	469b      	mov	fp, r3
10001c3a:	e002      	b.n	10001c42 <stdio_put_string+0x5e>
10001c3c:	68e4      	ldr	r4, [r4, #12]
10001c3e:	2c00      	cmp	r4, #0
10001c40:	d028      	beq.n	10001c94 <stdio_put_string+0xb0>
10001c42:	6822      	ldr	r2, [r4, #0]
10001c44:	2a00      	cmp	r2, #0
10001c46:	d0f9      	beq.n	10001c3c <stdio_put_string+0x58>
10001c48:	6833      	ldr	r3, [r6, #0]
10001c4a:	2b00      	cmp	r3, #0
10001c4c:	d001      	beq.n	10001c52 <stdio_put_string+0x6e>
10001c4e:	42a3      	cmp	r3, r4
10001c50:	d1f4      	bne.n	10001c3c <stdio_put_string+0x58>
10001c52:	7c63      	ldrb	r3, [r4, #17]
10001c54:	2b00      	cmp	r3, #0
10001c56:	d02a      	beq.n	10001cae <stdio_put_string+0xca>
10001c58:	002a      	movs	r2, r5
10001c5a:	0039      	movs	r1, r7
10001c5c:	0020      	movs	r0, r4
10001c5e:	f7ff ff7f 	bl	10001b60 <stdio_out_chars_crlf.part.0>
10001c62:	4643      	mov	r3, r8
10001c64:	2b00      	cmp	r3, #0
10001c66:	d0e9      	beq.n	10001c3c <stdio_put_string+0x58>
10001c68:	466b      	mov	r3, sp
10001c6a:	465a      	mov	r2, fp
10001c6c:	711a      	strb	r2, [r3, #4]
10001c6e:	7c63      	ldrb	r3, [r4, #17]
10001c70:	2b00      	cmp	r3, #0
10001c72:	d020      	beq.n	10001cb6 <stdio_put_string+0xd2>
10001c74:	7c23      	ldrb	r3, [r4, #16]
10001c76:	2b00      	cmp	r3, #0
10001c78:	d026      	beq.n	10001cc8 <stdio_put_string+0xe4>
10001c7a:	2101      	movs	r1, #1
10001c7c:	6823      	ldr	r3, [r4, #0]
10001c7e:	a801      	add	r0, sp, #4
10001c80:	4798      	blx	r3
10001c82:	466b      	mov	r3, sp
10001c84:	791b      	ldrb	r3, [r3, #4]
10001c86:	3b0d      	subs	r3, #13
10001c88:	425a      	negs	r2, r3
10001c8a:	4153      	adcs	r3, r2
10001c8c:	7423      	strb	r3, [r4, #16]
10001c8e:	68e4      	ldr	r4, [r4, #12]
10001c90:	2c00      	cmp	r4, #0
10001c92:	d1d6      	bne.n	10001c42 <stdio_put_string+0x5e>
10001c94:	464b      	mov	r3, r9
10001c96:	2b00      	cmp	r3, #0
10001c98:	d112      	bne.n	10001cc0 <stdio_put_string+0xdc>
10001c9a:	1e68      	subs	r0, r5, #1
10001c9c:	4185      	sbcs	r5, r0
10001c9e:	b2e8      	uxtb	r0, r5
10001ca0:	b003      	add	sp, #12
10001ca2:	bc3c      	pop	{r2, r3, r4, r5}
10001ca4:	4690      	mov	r8, r2
10001ca6:	4699      	mov	r9, r3
10001ca8:	46a2      	mov	sl, r4
10001caa:	46ab      	mov	fp, r5
10001cac:	bdf0      	pop	{r4, r5, r6, r7, pc}
10001cae:	0029      	movs	r1, r5
10001cb0:	0038      	movs	r0, r7
10001cb2:	4790      	blx	r2
10001cb4:	e7d5      	b.n	10001c62 <stdio_put_string+0x7e>
10001cb6:	2101      	movs	r1, #1
10001cb8:	6823      	ldr	r3, [r4, #0]
10001cba:	a801      	add	r0, sp, #4
10001cbc:	4798      	blx	r3
10001cbe:	e7bd      	b.n	10001c3c <stdio_put_string+0x58>
10001cc0:	4650      	mov	r0, sl
10001cc2:	f000 fcc5 	bl	10002650 <__mutex_exit_veneer>
10001cc6:	e7e8      	b.n	10001c9a <stdio_put_string+0xb6>
10001cc8:	2102      	movs	r1, #2
10001cca:	4805      	ldr	r0, [pc, #20]	; (10001ce0 <stdio_put_string+0xfc>)
10001ccc:	6823      	ldr	r3, [r4, #0]
10001cce:	4798      	blx	r3
10001cd0:	e7d7      	b.n	10001c82 <stdio_put_string+0x9e>
10001cd2:	46c0      	nop			; (mov r8, r8)
10001cd4:	20000a40 	.word	0x20000a40
10001cd8:	20000ae8 	.word	0x20000ae8
10001cdc:	20000aec 	.word	0x20000aec
10001ce0:	10002764 	.word	0x10002764

10001ce4 <__wrap_putchar>:
10001ce4:	b510      	push	{r4, lr}
10001ce6:	b082      	sub	sp, #8
10001ce8:	466b      	mov	r3, sp
10001cea:	0004      	movs	r4, r0
10001cec:	2200      	movs	r2, #0
10001cee:	1dd8      	adds	r0, r3, #7
10001cf0:	2101      	movs	r1, #1
10001cf2:	7004      	strb	r4, [r0, #0]
10001cf4:	f7ff ff76 	bl	10001be4 <stdio_put_string>
10001cf8:	0020      	movs	r0, r4
10001cfa:	b002      	add	sp, #8
10001cfc:	bd10      	pop	{r4, pc}
10001cfe:	46c0      	nop			; (mov r8, r8)

10001d00 <__wrap_puts>:
10001d00:	b570      	push	{r4, r5, r6, lr}
10001d02:	0004      	movs	r4, r0
10001d04:	f000 fb40 	bl	10002388 <strlen>
10001d08:	2201      	movs	r2, #1
10001d0a:	0001      	movs	r1, r0
10001d0c:	0005      	movs	r5, r0
10001d0e:	0020      	movs	r0, r4
10001d10:	f7ff ff68 	bl	10001be4 <stdio_put_string>
10001d14:	4b08      	ldr	r3, [pc, #32]	; (10001d38 <__wrap_puts+0x38>)
10001d16:	681c      	ldr	r4, [r3, #0]
10001d18:	2c00      	cmp	r4, #0
10001d1a:	d006      	beq.n	10001d2a <__wrap_puts+0x2a>
10001d1c:	6863      	ldr	r3, [r4, #4]
10001d1e:	2b00      	cmp	r3, #0
10001d20:	d005      	beq.n	10001d2e <__wrap_puts+0x2e>
10001d22:	4798      	blx	r3
10001d24:	68e4      	ldr	r4, [r4, #12]
10001d26:	2c00      	cmp	r4, #0
10001d28:	d1f8      	bne.n	10001d1c <__wrap_puts+0x1c>
10001d2a:	0028      	movs	r0, r5
10001d2c:	bd70      	pop	{r4, r5, r6, pc}
10001d2e:	68e4      	ldr	r4, [r4, #12]
10001d30:	2c00      	cmp	r4, #0
10001d32:	d1f3      	bne.n	10001d1c <__wrap_puts+0x1c>
10001d34:	e7f9      	b.n	10001d2a <__wrap_puts+0x2a>
10001d36:	46c0      	nop			; (mov r8, r8)
10001d38:	20000ae8 	.word	0x20000ae8

10001d3c <calloc>:
10001d3c:	0003      	movs	r3, r0
10001d3e:	b510      	push	{r4, lr}
10001d40:	000a      	movs	r2, r1
10001d42:	4903      	ldr	r1, [pc, #12]	; (10001d50 <calloc+0x14>)
10001d44:	6808      	ldr	r0, [r1, #0]
10001d46:	0019      	movs	r1, r3
10001d48:	f000 f804 	bl	10001d54 <_calloc_r>
10001d4c:	bd10      	pop	{r4, pc}
10001d4e:	46c0      	nop			; (mov r8, r8)
10001d50:	20000200 	.word	0x20000200

10001d54 <_calloc_r>:
10001d54:	b510      	push	{r4, lr}
10001d56:	4351      	muls	r1, r2
10001d58:	f000 f834 	bl	10001dc4 <_malloc_r>
10001d5c:	1e04      	subs	r4, r0, #0
10001d5e:	d00e      	beq.n	10001d7e <_calloc_r+0x2a>
10001d60:	0003      	movs	r3, r0
10001d62:	3b08      	subs	r3, #8
10001d64:	685a      	ldr	r2, [r3, #4]
10001d66:	2303      	movs	r3, #3
10001d68:	439a      	bics	r2, r3
10001d6a:	3a04      	subs	r2, #4
10001d6c:	2a24      	cmp	r2, #36	; 0x24
10001d6e:	d815      	bhi.n	10001d9c <_calloc_r+0x48>
10001d70:	0003      	movs	r3, r0
10001d72:	2a13      	cmp	r2, #19
10001d74:	d805      	bhi.n	10001d82 <_calloc_r+0x2e>
10001d76:	2200      	movs	r2, #0
10001d78:	601a      	str	r2, [r3, #0]
10001d7a:	605a      	str	r2, [r3, #4]
10001d7c:	609a      	str	r2, [r3, #8]
10001d7e:	0020      	movs	r0, r4
10001d80:	bd10      	pop	{r4, pc}
10001d82:	2100      	movs	r1, #0
10001d84:	3308      	adds	r3, #8
10001d86:	6001      	str	r1, [r0, #0]
10001d88:	6041      	str	r1, [r0, #4]
10001d8a:	2a1b      	cmp	r2, #27
10001d8c:	d9f3      	bls.n	10001d76 <_calloc_r+0x22>
10001d8e:	6081      	str	r1, [r0, #8]
10001d90:	60c1      	str	r1, [r0, #12]
10001d92:	2a24      	cmp	r2, #36	; 0x24
10001d94:	d006      	beq.n	10001da4 <_calloc_r+0x50>
10001d96:	0003      	movs	r3, r0
10001d98:	3310      	adds	r3, #16
10001d9a:	e7ec      	b.n	10001d76 <_calloc_r+0x22>
10001d9c:	2100      	movs	r1, #0
10001d9e:	f7ff fed3 	bl	10001b48 <__wrap_memset>
10001da2:	e7ec      	b.n	10001d7e <_calloc_r+0x2a>
10001da4:	0003      	movs	r3, r0
10001da6:	6101      	str	r1, [r0, #16]
10001da8:	3318      	adds	r3, #24
10001daa:	6141      	str	r1, [r0, #20]
10001dac:	e7e3      	b.n	10001d76 <_calloc_r+0x22>
10001dae:	46c0      	nop			; (mov r8, r8)

10001db0 <malloc>:
10001db0:	b510      	push	{r4, lr}
10001db2:	4b03      	ldr	r3, [pc, #12]	; (10001dc0 <malloc+0x10>)
10001db4:	0001      	movs	r1, r0
10001db6:	6818      	ldr	r0, [r3, #0]
10001db8:	f000 f804 	bl	10001dc4 <_malloc_r>
10001dbc:	bd10      	pop	{r4, pc}
10001dbe:	46c0      	nop			; (mov r8, r8)
10001dc0:	20000200 	.word	0x20000200

10001dc4 <_malloc_r>:
10001dc4:	b5f0      	push	{r4, r5, r6, r7, lr}
10001dc6:	464e      	mov	r6, r9
10001dc8:	4645      	mov	r5, r8
10001dca:	46de      	mov	lr, fp
10001dcc:	4657      	mov	r7, sl
10001dce:	b5e0      	push	{r5, r6, r7, lr}
10001dd0:	000d      	movs	r5, r1
10001dd2:	350b      	adds	r5, #11
10001dd4:	0006      	movs	r6, r0
10001dd6:	b083      	sub	sp, #12
10001dd8:	2d16      	cmp	r5, #22
10001dda:	d822      	bhi.n	10001e22 <_malloc_r+0x5e>
10001ddc:	2910      	cmp	r1, #16
10001dde:	d900      	bls.n	10001de2 <_malloc_r+0x1e>
10001de0:	e0b2      	b.n	10001f48 <_malloc_r+0x184>
10001de2:	f000 faaf 	bl	10002344 <__malloc_lock>
10001de6:	2510      	movs	r5, #16
10001de8:	2002      	movs	r0, #2
10001dea:	2318      	movs	r3, #24
10001dec:	4fcb      	ldr	r7, [pc, #812]	; (1000211c <_malloc_r+0x358>)
10001dee:	18fb      	adds	r3, r7, r3
10001df0:	001a      	movs	r2, r3
10001df2:	685c      	ldr	r4, [r3, #4]
10001df4:	3a08      	subs	r2, #8
10001df6:	4294      	cmp	r4, r2
10001df8:	d100      	bne.n	10001dfc <_malloc_r+0x38>
10001dfa:	e0b5      	b.n	10001f68 <_malloc_r+0x1a4>
10001dfc:	2303      	movs	r3, #3
10001dfe:	6862      	ldr	r2, [r4, #4]
10001e00:	439a      	bics	r2, r3
10001e02:	0013      	movs	r3, r2
10001e04:	68e2      	ldr	r2, [r4, #12]
10001e06:	68a1      	ldr	r1, [r4, #8]
10001e08:	60ca      	str	r2, [r1, #12]
10001e0a:	6091      	str	r1, [r2, #8]
10001e0c:	2201      	movs	r2, #1
10001e0e:	18e3      	adds	r3, r4, r3
10001e10:	6859      	ldr	r1, [r3, #4]
10001e12:	0030      	movs	r0, r6
10001e14:	430a      	orrs	r2, r1
10001e16:	605a      	str	r2, [r3, #4]
10001e18:	f000 fa9c 	bl	10002354 <__malloc_unlock>
10001e1c:	0020      	movs	r0, r4
10001e1e:	3008      	adds	r0, #8
10001e20:	e095      	b.n	10001f4e <_malloc_r+0x18a>
10001e22:	2307      	movs	r3, #7
10001e24:	439d      	bics	r5, r3
10001e26:	d500      	bpl.n	10001e2a <_malloc_r+0x66>
10001e28:	e08e      	b.n	10001f48 <_malloc_r+0x184>
10001e2a:	42a9      	cmp	r1, r5
10001e2c:	d900      	bls.n	10001e30 <_malloc_r+0x6c>
10001e2e:	e08b      	b.n	10001f48 <_malloc_r+0x184>
10001e30:	f000 fa88 	bl	10002344 <__malloc_lock>
10001e34:	23fc      	movs	r3, #252	; 0xfc
10001e36:	005b      	lsls	r3, r3, #1
10001e38:	429d      	cmp	r5, r3
10001e3a:	d200      	bcs.n	10001e3e <_malloc_r+0x7a>
10001e3c:	e1a5      	b.n	1000218a <_malloc_r+0x3c6>
10001e3e:	0a68      	lsrs	r0, r5, #9
10001e40:	d100      	bne.n	10001e44 <_malloc_r+0x80>
10001e42:	e08b      	b.n	10001f5c <_malloc_r+0x198>
10001e44:	2804      	cmp	r0, #4
10001e46:	d900      	bls.n	10001e4a <_malloc_r+0x86>
10001e48:	e178      	b.n	1000213c <_malloc_r+0x378>
10001e4a:	2338      	movs	r3, #56	; 0x38
10001e4c:	4698      	mov	r8, r3
10001e4e:	09a8      	lsrs	r0, r5, #6
10001e50:	4480      	add	r8, r0
10001e52:	3039      	adds	r0, #57	; 0x39
10001e54:	00c1      	lsls	r1, r0, #3
10001e56:	4fb1      	ldr	r7, [pc, #708]	; (1000211c <_malloc_r+0x358>)
10001e58:	1879      	adds	r1, r7, r1
10001e5a:	684c      	ldr	r4, [r1, #4]
10001e5c:	3908      	subs	r1, #8
10001e5e:	42a1      	cmp	r1, r4
10001e60:	d00e      	beq.n	10001e80 <_malloc_r+0xbc>
10001e62:	2303      	movs	r3, #3
10001e64:	469c      	mov	ip, r3
10001e66:	e004      	b.n	10001e72 <_malloc_r+0xae>
10001e68:	2a00      	cmp	r2, #0
10001e6a:	dacb      	bge.n	10001e04 <_malloc_r+0x40>
10001e6c:	68e4      	ldr	r4, [r4, #12]
10001e6e:	42a1      	cmp	r1, r4
10001e70:	d006      	beq.n	10001e80 <_malloc_r+0xbc>
10001e72:	4662      	mov	r2, ip
10001e74:	6863      	ldr	r3, [r4, #4]
10001e76:	4393      	bics	r3, r2
10001e78:	1b5a      	subs	r2, r3, r5
10001e7a:	2a0f      	cmp	r2, #15
10001e7c:	ddf4      	ble.n	10001e68 <_malloc_r+0xa4>
10001e7e:	4640      	mov	r0, r8
10001e80:	003a      	movs	r2, r7
10001e82:	693c      	ldr	r4, [r7, #16]
10001e84:	3208      	adds	r2, #8
10001e86:	4294      	cmp	r4, r2
10001e88:	d100      	bne.n	10001e8c <_malloc_r+0xc8>
10001e8a:	e078      	b.n	10001f7e <_malloc_r+0x1ba>
10001e8c:	2303      	movs	r3, #3
10001e8e:	6861      	ldr	r1, [r4, #4]
10001e90:	4399      	bics	r1, r3
10001e92:	4689      	mov	r9, r1
10001e94:	000b      	movs	r3, r1
10001e96:	1b49      	subs	r1, r1, r5
10001e98:	290f      	cmp	r1, #15
10001e9a:	dd00      	ble.n	10001e9e <_malloc_r+0xda>
10001e9c:	e179      	b.n	10002192 <_malloc_r+0x3ce>
10001e9e:	617a      	str	r2, [r7, #20]
10001ea0:	613a      	str	r2, [r7, #16]
10001ea2:	2900      	cmp	r1, #0
10001ea4:	dab2      	bge.n	10001e0c <_malloc_r+0x48>
10001ea6:	2280      	movs	r2, #128	; 0x80
10001ea8:	0092      	lsls	r2, r2, #2
10001eaa:	4591      	cmp	r9, r2
10001eac:	d300      	bcc.n	10001eb0 <_malloc_r+0xec>
10001eae:	e10e      	b.n	100020ce <_malloc_r+0x30a>
10001eb0:	0959      	lsrs	r1, r3, #5
10001eb2:	08da      	lsrs	r2, r3, #3
10001eb4:	2301      	movs	r3, #1
10001eb6:	408b      	lsls	r3, r1
10001eb8:	00d2      	lsls	r2, r2, #3
10001eba:	6879      	ldr	r1, [r7, #4]
10001ebc:	19d2      	adds	r2, r2, r7
10001ebe:	430b      	orrs	r3, r1
10001ec0:	6891      	ldr	r1, [r2, #8]
10001ec2:	607b      	str	r3, [r7, #4]
10001ec4:	60e2      	str	r2, [r4, #12]
10001ec6:	60a1      	str	r1, [r4, #8]
10001ec8:	6094      	str	r4, [r2, #8]
10001eca:	60cc      	str	r4, [r1, #12]
10001ecc:	2101      	movs	r1, #1
10001ece:	1082      	asrs	r2, r0, #2
10001ed0:	4091      	lsls	r1, r2
10001ed2:	4299      	cmp	r1, r3
10001ed4:	d859      	bhi.n	10001f8a <_malloc_r+0x1c6>
10001ed6:	420b      	tst	r3, r1
10001ed8:	d105      	bne.n	10001ee6 <_malloc_r+0x122>
10001eda:	2203      	movs	r2, #3
10001edc:	4390      	bics	r0, r2
10001ede:	0049      	lsls	r1, r1, #1
10001ee0:	3004      	adds	r0, #4
10001ee2:	420b      	tst	r3, r1
10001ee4:	d0fb      	beq.n	10001ede <_malloc_r+0x11a>
10001ee6:	2303      	movs	r3, #3
10001ee8:	4698      	mov	r8, r3
10001eea:	00c3      	lsls	r3, r0, #3
10001eec:	4699      	mov	r9, r3
10001eee:	44b9      	add	r9, r7
10001ef0:	46cc      	mov	ip, r9
10001ef2:	4682      	mov	sl, r0
10001ef4:	4663      	mov	r3, ip
10001ef6:	68dc      	ldr	r4, [r3, #12]
10001ef8:	45a4      	cmp	ip, r4
10001efa:	d107      	bne.n	10001f0c <_malloc_r+0x148>
10001efc:	e12a      	b.n	10002154 <_malloc_r+0x390>
10001efe:	2a00      	cmp	r2, #0
10001f00:	db00      	blt.n	10001f04 <_malloc_r+0x140>
10001f02:	e133      	b.n	1000216c <_malloc_r+0x3a8>
10001f04:	68e4      	ldr	r4, [r4, #12]
10001f06:	45a4      	cmp	ip, r4
10001f08:	d100      	bne.n	10001f0c <_malloc_r+0x148>
10001f0a:	e123      	b.n	10002154 <_malloc_r+0x390>
10001f0c:	4642      	mov	r2, r8
10001f0e:	6863      	ldr	r3, [r4, #4]
10001f10:	4393      	bics	r3, r2
10001f12:	1b5a      	subs	r2, r3, r5
10001f14:	2a0f      	cmp	r2, #15
10001f16:	ddf2      	ble.n	10001efe <_malloc_r+0x13a>
10001f18:	2001      	movs	r0, #1
10001f1a:	4680      	mov	r8, r0
10001f1c:	1961      	adds	r1, r4, r5
10001f1e:	4305      	orrs	r5, r0
10001f20:	6065      	str	r5, [r4, #4]
10001f22:	68a0      	ldr	r0, [r4, #8]
10001f24:	68e5      	ldr	r5, [r4, #12]
10001f26:	3708      	adds	r7, #8
10001f28:	60c5      	str	r5, [r0, #12]
10001f2a:	60a8      	str	r0, [r5, #8]
10001f2c:	4640      	mov	r0, r8
10001f2e:	4310      	orrs	r0, r2
10001f30:	60f9      	str	r1, [r7, #12]
10001f32:	60b9      	str	r1, [r7, #8]
10001f34:	6048      	str	r0, [r1, #4]
10001f36:	60cf      	str	r7, [r1, #12]
10001f38:	0030      	movs	r0, r6
10001f3a:	608f      	str	r7, [r1, #8]
10001f3c:	50e2      	str	r2, [r4, r3]
10001f3e:	f000 fa09 	bl	10002354 <__malloc_unlock>
10001f42:	0020      	movs	r0, r4
10001f44:	3008      	adds	r0, #8
10001f46:	e002      	b.n	10001f4e <_malloc_r+0x18a>
10001f48:	230c      	movs	r3, #12
10001f4a:	2000      	movs	r0, #0
10001f4c:	6033      	str	r3, [r6, #0]
10001f4e:	b003      	add	sp, #12
10001f50:	bc3c      	pop	{r2, r3, r4, r5}
10001f52:	4690      	mov	r8, r2
10001f54:	4699      	mov	r9, r3
10001f56:	46a2      	mov	sl, r4
10001f58:	46ab      	mov	fp, r5
10001f5a:	bdf0      	pop	{r4, r5, r6, r7, pc}
10001f5c:	2180      	movs	r1, #128	; 0x80
10001f5e:	233f      	movs	r3, #63	; 0x3f
10001f60:	2040      	movs	r0, #64	; 0x40
10001f62:	4698      	mov	r8, r3
10001f64:	0089      	lsls	r1, r1, #2
10001f66:	e776      	b.n	10001e56 <_malloc_r+0x92>
10001f68:	68dc      	ldr	r4, [r3, #12]
10001f6a:	3002      	adds	r0, #2
10001f6c:	42a3      	cmp	r3, r4
10001f6e:	d000      	beq.n	10001f72 <_malloc_r+0x1ae>
10001f70:	e744      	b.n	10001dfc <_malloc_r+0x38>
10001f72:	003a      	movs	r2, r7
10001f74:	693c      	ldr	r4, [r7, #16]
10001f76:	3208      	adds	r2, #8
10001f78:	4294      	cmp	r4, r2
10001f7a:	d000      	beq.n	10001f7e <_malloc_r+0x1ba>
10001f7c:	e786      	b.n	10001e8c <_malloc_r+0xc8>
10001f7e:	2101      	movs	r1, #1
10001f80:	687b      	ldr	r3, [r7, #4]
10001f82:	1082      	asrs	r2, r0, #2
10001f84:	4091      	lsls	r1, r2
10001f86:	4299      	cmp	r1, r3
10001f88:	d9a5      	bls.n	10001ed6 <_malloc_r+0x112>
10001f8a:	2303      	movs	r3, #3
10001f8c:	68bc      	ldr	r4, [r7, #8]
10001f8e:	6862      	ldr	r2, [r4, #4]
10001f90:	439a      	bics	r2, r3
10001f92:	4691      	mov	r9, r2
10001f94:	4295      	cmp	r5, r2
10001f96:	d803      	bhi.n	10001fa0 <_malloc_r+0x1dc>
10001f98:	1b53      	subs	r3, r2, r5
10001f9a:	2b0f      	cmp	r3, #15
10001f9c:	dd00      	ble.n	10001fa0 <_malloc_r+0x1dc>
10001f9e:	e088      	b.n	100020b2 <_malloc_r+0x2ee>
10001fa0:	0023      	movs	r3, r4
10001fa2:	444b      	add	r3, r9
10001fa4:	4a5e      	ldr	r2, [pc, #376]	; (10002120 <_malloc_r+0x35c>)
10001fa6:	9301      	str	r3, [sp, #4]
10001fa8:	4b5e      	ldr	r3, [pc, #376]	; (10002124 <_malloc_r+0x360>)
10001faa:	4693      	mov	fp, r2
10001fac:	681b      	ldr	r3, [r3, #0]
10001fae:	6812      	ldr	r2, [r2, #0]
10001fb0:	18eb      	adds	r3, r5, r3
10001fb2:	3201      	adds	r2, #1
10001fb4:	d100      	bne.n	10001fb8 <_malloc_r+0x1f4>
10001fb6:	e13b      	b.n	10002230 <_malloc_r+0x46c>
10001fb8:	4a5b      	ldr	r2, [pc, #364]	; (10002128 <_malloc_r+0x364>)
10001fba:	4694      	mov	ip, r2
10001fbc:	4463      	add	r3, ip
10001fbe:	0b1b      	lsrs	r3, r3, #12
10001fc0:	031b      	lsls	r3, r3, #12
10001fc2:	9300      	str	r3, [sp, #0]
10001fc4:	0030      	movs	r0, r6
10001fc6:	9900      	ldr	r1, [sp, #0]
10001fc8:	f000 f9cc 	bl	10002364 <_sbrk_r>
10001fcc:	0003      	movs	r3, r0
10001fce:	4680      	mov	r8, r0
10001fd0:	3301      	adds	r3, #1
10001fd2:	d100      	bne.n	10001fd6 <_malloc_r+0x212>
10001fd4:	e0f8      	b.n	100021c8 <_malloc_r+0x404>
10001fd6:	9b01      	ldr	r3, [sp, #4]
10001fd8:	4283      	cmp	r3, r0
10001fda:	d900      	bls.n	10001fde <_malloc_r+0x21a>
10001fdc:	e0f2      	b.n	100021c4 <_malloc_r+0x400>
10001fde:	4b53      	ldr	r3, [pc, #332]	; (1000212c <_malloc_r+0x368>)
10001fe0:	0019      	movs	r1, r3
10001fe2:	469a      	mov	sl, r3
10001fe4:	6809      	ldr	r1, [r1, #0]
10001fe6:	9b00      	ldr	r3, [sp, #0]
10001fe8:	468c      	mov	ip, r1
10001fea:	4651      	mov	r1, sl
10001fec:	4463      	add	r3, ip
10001fee:	600b      	str	r3, [r1, #0]
10001ff0:	9901      	ldr	r1, [sp, #4]
10001ff2:	001a      	movs	r2, r3
10001ff4:	4281      	cmp	r1, r0
10001ff6:	d100      	bne.n	10001ffa <_malloc_r+0x236>
10001ff8:	e150      	b.n	1000229c <_malloc_r+0x4d8>
10001ffa:	465b      	mov	r3, fp
10001ffc:	681b      	ldr	r3, [r3, #0]
10001ffe:	3301      	adds	r3, #1
10002000:	d100      	bne.n	10002004 <_malloc_r+0x240>
10002002:	e155      	b.n	100022b0 <_malloc_r+0x4ec>
10002004:	4643      	mov	r3, r8
10002006:	9901      	ldr	r1, [sp, #4]
10002008:	1a5b      	subs	r3, r3, r1
1000200a:	189a      	adds	r2, r3, r2
1000200c:	4653      	mov	r3, sl
1000200e:	601a      	str	r2, [r3, #0]
10002010:	2307      	movs	r3, #7
10002012:	4642      	mov	r2, r8
10002014:	4641      	mov	r1, r8
10002016:	401a      	ands	r2, r3
10002018:	9201      	str	r2, [sp, #4]
1000201a:	4219      	tst	r1, r3
1000201c:	d100      	bne.n	10002020 <_malloc_r+0x25c>
1000201e:	e111      	b.n	10002244 <_malloc_r+0x480>
10002020:	2308      	movs	r3, #8
10002022:	4698      	mov	r8, r3
10002024:	1a88      	subs	r0, r1, r2
10002026:	4b42      	ldr	r3, [pc, #264]	; (10002130 <_malloc_r+0x36c>)
10002028:	9900      	ldr	r1, [sp, #0]
1000202a:	4480      	add	r8, r0
1000202c:	4441      	add	r1, r8
1000202e:	1a9b      	subs	r3, r3, r2
10002030:	1a5b      	subs	r3, r3, r1
10002032:	051b      	lsls	r3, r3, #20
10002034:	0d1b      	lsrs	r3, r3, #20
10002036:	9100      	str	r1, [sp, #0]
10002038:	0030      	movs	r0, r6
1000203a:	0019      	movs	r1, r3
1000203c:	469b      	mov	fp, r3
1000203e:	f000 f991 	bl	10002364 <_sbrk_r>
10002042:	1c43      	adds	r3, r0, #1
10002044:	d100      	bne.n	10002048 <_malloc_r+0x284>
10002046:	e14f      	b.n	100022e8 <_malloc_r+0x524>
10002048:	4643      	mov	r3, r8
1000204a:	1ac0      	subs	r0, r0, r3
1000204c:	0003      	movs	r3, r0
1000204e:	445b      	add	r3, fp
10002050:	9300      	str	r3, [sp, #0]
10002052:	4653      	mov	r3, sl
10002054:	4652      	mov	r2, sl
10002056:	681b      	ldr	r3, [r3, #0]
10002058:	2101      	movs	r1, #1
1000205a:	445b      	add	r3, fp
1000205c:	6013      	str	r3, [r2, #0]
1000205e:	4642      	mov	r2, r8
10002060:	4640      	mov	r0, r8
10002062:	60ba      	str	r2, [r7, #8]
10002064:	9a00      	ldr	r2, [sp, #0]
10002066:	430a      	orrs	r2, r1
10002068:	6042      	str	r2, [r0, #4]
1000206a:	42bc      	cmp	r4, r7
1000206c:	d100      	bne.n	10002070 <_malloc_r+0x2ac>
1000206e:	e123      	b.n	100022b8 <_malloc_r+0x4f4>
10002070:	464a      	mov	r2, r9
10002072:	2a0f      	cmp	r2, #15
10002074:	d800      	bhi.n	10002078 <_malloc_r+0x2b4>
10002076:	e121      	b.n	100022bc <_malloc_r+0x4f8>
10002078:	2007      	movs	r0, #7
1000207a:	3a0c      	subs	r2, #12
1000207c:	4382      	bics	r2, r0
1000207e:	6860      	ldr	r0, [r4, #4]
10002080:	4001      	ands	r1, r0
10002082:	2005      	movs	r0, #5
10002084:	4311      	orrs	r1, r2
10002086:	6061      	str	r1, [r4, #4]
10002088:	18a1      	adds	r1, r4, r2
1000208a:	6048      	str	r0, [r1, #4]
1000208c:	6088      	str	r0, [r1, #8]
1000208e:	2a0f      	cmp	r2, #15
10002090:	d900      	bls.n	10002094 <_malloc_r+0x2d0>
10002092:	e134      	b.n	100022fe <_malloc_r+0x53a>
10002094:	4642      	mov	r2, r8
10002096:	4644      	mov	r4, r8
10002098:	6852      	ldr	r2, [r2, #4]
1000209a:	4926      	ldr	r1, [pc, #152]	; (10002134 <_malloc_r+0x370>)
1000209c:	6808      	ldr	r0, [r1, #0]
1000209e:	4298      	cmp	r0, r3
100020a0:	d200      	bcs.n	100020a4 <_malloc_r+0x2e0>
100020a2:	600b      	str	r3, [r1, #0]
100020a4:	4924      	ldr	r1, [pc, #144]	; (10002138 <_malloc_r+0x374>)
100020a6:	6808      	ldr	r0, [r1, #0]
100020a8:	4298      	cmp	r0, r3
100020aa:	d300      	bcc.n	100020ae <_malloc_r+0x2ea>
100020ac:	e08e      	b.n	100021cc <_malloc_r+0x408>
100020ae:	600b      	str	r3, [r1, #0]
100020b0:	e08c      	b.n	100021cc <_malloc_r+0x408>
100020b2:	2201      	movs	r2, #1
100020b4:	0029      	movs	r1, r5
100020b6:	4313      	orrs	r3, r2
100020b8:	4311      	orrs	r1, r2
100020ba:	1965      	adds	r5, r4, r5
100020bc:	6061      	str	r1, [r4, #4]
100020be:	0030      	movs	r0, r6
100020c0:	60bd      	str	r5, [r7, #8]
100020c2:	606b      	str	r3, [r5, #4]
100020c4:	f000 f946 	bl	10002354 <__malloc_unlock>
100020c8:	0020      	movs	r0, r4
100020ca:	3008      	adds	r0, #8
100020cc:	e73f      	b.n	10001f4e <_malloc_r+0x18a>
100020ce:	0a5a      	lsrs	r2, r3, #9
100020d0:	2a04      	cmp	r2, #4
100020d2:	d971      	bls.n	100021b8 <_malloc_r+0x3f4>
100020d4:	2a14      	cmp	r2, #20
100020d6:	d900      	bls.n	100020da <_malloc_r+0x316>
100020d8:	e0c4      	b.n	10002264 <_malloc_r+0x4a0>
100020da:	0011      	movs	r1, r2
100020dc:	325c      	adds	r2, #92	; 0x5c
100020de:	315b      	adds	r1, #91	; 0x5b
100020e0:	00d2      	lsls	r2, r2, #3
100020e2:	2308      	movs	r3, #8
100020e4:	425b      	negs	r3, r3
100020e6:	469c      	mov	ip, r3
100020e8:	18ba      	adds	r2, r7, r2
100020ea:	4494      	add	ip, r2
100020ec:	4663      	mov	r3, ip
100020ee:	689a      	ldr	r2, [r3, #8]
100020f0:	2303      	movs	r3, #3
100020f2:	4698      	mov	r8, r3
100020f4:	4594      	cmp	ip, r2
100020f6:	d100      	bne.n	100020fa <_malloc_r+0x336>
100020f8:	e09d      	b.n	10002236 <_malloc_r+0x472>
100020fa:	4643      	mov	r3, r8
100020fc:	6851      	ldr	r1, [r2, #4]
100020fe:	4399      	bics	r1, r3
10002100:	4549      	cmp	r1, r9
10002102:	d902      	bls.n	1000210a <_malloc_r+0x346>
10002104:	6892      	ldr	r2, [r2, #8]
10002106:	4594      	cmp	ip, r2
10002108:	d1f7      	bne.n	100020fa <_malloc_r+0x336>
1000210a:	68d3      	ldr	r3, [r2, #12]
1000210c:	469c      	mov	ip, r3
1000210e:	687b      	ldr	r3, [r7, #4]
10002110:	4661      	mov	r1, ip
10002112:	60a2      	str	r2, [r4, #8]
10002114:	60e1      	str	r1, [r4, #12]
10002116:	608c      	str	r4, [r1, #8]
10002118:	60d4      	str	r4, [r2, #12]
1000211a:	e6d7      	b.n	10001ecc <_malloc_r+0x108>
1000211c:	20000630 	.word	0x20000630
10002120:	20000a38 	.word	0x20000a38
10002124:	20000aa8 	.word	0x20000aa8
10002128:	0000100f 	.word	0x0000100f
1000212c:	20000a78 	.word	0x20000a78
10002130:	00001008 	.word	0x00001008
10002134:	20000aa0 	.word	0x20000aa0
10002138:	20000aa4 	.word	0x20000aa4
1000213c:	2814      	cmp	r0, #20
1000213e:	d952      	bls.n	100021e6 <_malloc_r+0x422>
10002140:	2854      	cmp	r0, #84	; 0x54
10002142:	d900      	bls.n	10002146 <_malloc_r+0x382>
10002144:	e096      	b.n	10002274 <_malloc_r+0x4b0>
10002146:	236e      	movs	r3, #110	; 0x6e
10002148:	4698      	mov	r8, r3
1000214a:	0b28      	lsrs	r0, r5, #12
1000214c:	4480      	add	r8, r0
1000214e:	306f      	adds	r0, #111	; 0x6f
10002150:	00c1      	lsls	r1, r0, #3
10002152:	e680      	b.n	10001e56 <_malloc_r+0x92>
10002154:	2308      	movs	r3, #8
10002156:	469b      	mov	fp, r3
10002158:	3b07      	subs	r3, #7
1000215a:	44dc      	add	ip, fp
1000215c:	469b      	mov	fp, r3
1000215e:	44da      	add	sl, fp
10002160:	4643      	mov	r3, r8
10002162:	4652      	mov	r2, sl
10002164:	4213      	tst	r3, r2
10002166:	d000      	beq.n	1000216a <_malloc_r+0x3a6>
10002168:	e6c4      	b.n	10001ef4 <_malloc_r+0x130>
1000216a:	e04c      	b.n	10002206 <_malloc_r+0x442>
1000216c:	2201      	movs	r2, #1
1000216e:	18e3      	adds	r3, r4, r3
10002170:	6859      	ldr	r1, [r3, #4]
10002172:	0030      	movs	r0, r6
10002174:	430a      	orrs	r2, r1
10002176:	605a      	str	r2, [r3, #4]
10002178:	68e3      	ldr	r3, [r4, #12]
1000217a:	68a2      	ldr	r2, [r4, #8]
1000217c:	60d3      	str	r3, [r2, #12]
1000217e:	609a      	str	r2, [r3, #8]
10002180:	f000 f8e8 	bl	10002354 <__malloc_unlock>
10002184:	0020      	movs	r0, r4
10002186:	3008      	adds	r0, #8
10002188:	e6e1      	b.n	10001f4e <_malloc_r+0x18a>
1000218a:	002b      	movs	r3, r5
1000218c:	08e8      	lsrs	r0, r5, #3
1000218e:	3308      	adds	r3, #8
10002190:	e62c      	b.n	10001dec <_malloc_r+0x28>
10002192:	2301      	movs	r3, #1
10002194:	1960      	adds	r0, r4, r5
10002196:	431d      	orrs	r5, r3
10002198:	6065      	str	r5, [r4, #4]
1000219a:	6178      	str	r0, [r7, #20]
1000219c:	6138      	str	r0, [r7, #16]
1000219e:	60c2      	str	r2, [r0, #12]
100021a0:	6082      	str	r2, [r0, #8]
100021a2:	001a      	movs	r2, r3
100021a4:	464b      	mov	r3, r9
100021a6:	430a      	orrs	r2, r1
100021a8:	6042      	str	r2, [r0, #4]
100021aa:	0030      	movs	r0, r6
100021ac:	50e1      	str	r1, [r4, r3]
100021ae:	f000 f8d1 	bl	10002354 <__malloc_unlock>
100021b2:	0020      	movs	r0, r4
100021b4:	3008      	adds	r0, #8
100021b6:	e6ca      	b.n	10001f4e <_malloc_r+0x18a>
100021b8:	099a      	lsrs	r2, r3, #6
100021ba:	0011      	movs	r1, r2
100021bc:	3239      	adds	r2, #57	; 0x39
100021be:	3138      	adds	r1, #56	; 0x38
100021c0:	00d2      	lsls	r2, r2, #3
100021c2:	e78e      	b.n	100020e2 <_malloc_r+0x31e>
100021c4:	42bc      	cmp	r4, r7
100021c6:	d060      	beq.n	1000228a <_malloc_r+0x4c6>
100021c8:	68bc      	ldr	r4, [r7, #8]
100021ca:	6862      	ldr	r2, [r4, #4]
100021cc:	2303      	movs	r3, #3
100021ce:	439a      	bics	r2, r3
100021d0:	1b53      	subs	r3, r2, r5
100021d2:	4295      	cmp	r5, r2
100021d4:	d802      	bhi.n	100021dc <_malloc_r+0x418>
100021d6:	2b0f      	cmp	r3, #15
100021d8:	dd00      	ble.n	100021dc <_malloc_r+0x418>
100021da:	e76a      	b.n	100020b2 <_malloc_r+0x2ee>
100021dc:	0030      	movs	r0, r6
100021de:	f000 f8b9 	bl	10002354 <__malloc_unlock>
100021e2:	2000      	movs	r0, #0
100021e4:	e6b3      	b.n	10001f4e <_malloc_r+0x18a>
100021e6:	235b      	movs	r3, #91	; 0x5b
100021e8:	4698      	mov	r8, r3
100021ea:	4480      	add	r8, r0
100021ec:	305c      	adds	r0, #92	; 0x5c
100021ee:	00c1      	lsls	r1, r0, #3
100021f0:	e631      	b.n	10001e56 <_malloc_r+0x92>
100021f2:	2308      	movs	r3, #8
100021f4:	425b      	negs	r3, r3
100021f6:	469c      	mov	ip, r3
100021f8:	44e1      	add	r9, ip
100021fa:	464b      	mov	r3, r9
100021fc:	689b      	ldr	r3, [r3, #8]
100021fe:	3801      	subs	r0, #1
10002200:	454b      	cmp	r3, r9
10002202:	d000      	beq.n	10002206 <_malloc_r+0x442>
10002204:	e098      	b.n	10002338 <_malloc_r+0x574>
10002206:	4643      	mov	r3, r8
10002208:	4203      	tst	r3, r0
1000220a:	d1f2      	bne.n	100021f2 <_malloc_r+0x42e>
1000220c:	687b      	ldr	r3, [r7, #4]
1000220e:	438b      	bics	r3, r1
10002210:	607b      	str	r3, [r7, #4]
10002212:	0049      	lsls	r1, r1, #1
10002214:	4299      	cmp	r1, r3
10002216:	d900      	bls.n	1000221a <_malloc_r+0x456>
10002218:	e6b7      	b.n	10001f8a <_malloc_r+0x1c6>
1000221a:	2900      	cmp	r1, #0
1000221c:	d104      	bne.n	10002228 <_malloc_r+0x464>
1000221e:	e6b4      	b.n	10001f8a <_malloc_r+0x1c6>
10002220:	2204      	movs	r2, #4
10002222:	4694      	mov	ip, r2
10002224:	0049      	lsls	r1, r1, #1
10002226:	44e2      	add	sl, ip
10002228:	420b      	tst	r3, r1
1000222a:	d0f9      	beq.n	10002220 <_malloc_r+0x45c>
1000222c:	4650      	mov	r0, sl
1000222e:	e65c      	b.n	10001eea <_malloc_r+0x126>
10002230:	3310      	adds	r3, #16
10002232:	9300      	str	r3, [sp, #0]
10002234:	e6c6      	b.n	10001fc4 <_malloc_r+0x200>
10002236:	1089      	asrs	r1, r1, #2
10002238:	3b02      	subs	r3, #2
1000223a:	408b      	lsls	r3, r1
1000223c:	6879      	ldr	r1, [r7, #4]
1000223e:	430b      	orrs	r3, r1
10002240:	607b      	str	r3, [r7, #4]
10002242:	e765      	b.n	10002110 <_malloc_r+0x34c>
10002244:	9b00      	ldr	r3, [sp, #0]
10002246:	0030      	movs	r0, r6
10002248:	4443      	add	r3, r8
1000224a:	425b      	negs	r3, r3
1000224c:	051b      	lsls	r3, r3, #20
1000224e:	0d1b      	lsrs	r3, r3, #20
10002250:	0019      	movs	r1, r3
10002252:	469b      	mov	fp, r3
10002254:	f000 f886 	bl	10002364 <_sbrk_r>
10002258:	1c43      	adds	r3, r0, #1
1000225a:	d000      	beq.n	1000225e <_malloc_r+0x49a>
1000225c:	e6f4      	b.n	10002048 <_malloc_r+0x284>
1000225e:	2300      	movs	r3, #0
10002260:	469b      	mov	fp, r3
10002262:	e6f6      	b.n	10002052 <_malloc_r+0x28e>
10002264:	2a54      	cmp	r2, #84	; 0x54
10002266:	d82b      	bhi.n	100022c0 <_malloc_r+0x4fc>
10002268:	0b1a      	lsrs	r2, r3, #12
1000226a:	0011      	movs	r1, r2
1000226c:	326f      	adds	r2, #111	; 0x6f
1000226e:	316e      	adds	r1, #110	; 0x6e
10002270:	00d2      	lsls	r2, r2, #3
10002272:	e736      	b.n	100020e2 <_malloc_r+0x31e>
10002274:	23aa      	movs	r3, #170	; 0xaa
10002276:	005b      	lsls	r3, r3, #1
10002278:	4298      	cmp	r0, r3
1000227a:	d82b      	bhi.n	100022d4 <_malloc_r+0x510>
1000227c:	3bdd      	subs	r3, #221	; 0xdd
1000227e:	4698      	mov	r8, r3
10002280:	0be8      	lsrs	r0, r5, #15
10002282:	4480      	add	r8, r0
10002284:	3078      	adds	r0, #120	; 0x78
10002286:	00c1      	lsls	r1, r0, #3
10002288:	e5e5      	b.n	10001e56 <_malloc_r+0x92>
1000228a:	4b2c      	ldr	r3, [pc, #176]	; (1000233c <_malloc_r+0x578>)
1000228c:	9a00      	ldr	r2, [sp, #0]
1000228e:	469a      	mov	sl, r3
10002290:	681b      	ldr	r3, [r3, #0]
10002292:	469c      	mov	ip, r3
10002294:	4653      	mov	r3, sl
10002296:	4462      	add	r2, ip
10002298:	601a      	str	r2, [r3, #0]
1000229a:	e6ae      	b.n	10001ffa <_malloc_r+0x236>
1000229c:	0509      	lsls	r1, r1, #20
1000229e:	d000      	beq.n	100022a2 <_malloc_r+0x4de>
100022a0:	e6ab      	b.n	10001ffa <_malloc_r+0x236>
100022a2:	9a00      	ldr	r2, [sp, #0]
100022a4:	68bc      	ldr	r4, [r7, #8]
100022a6:	444a      	add	r2, r9
100022a8:	3101      	adds	r1, #1
100022aa:	430a      	orrs	r2, r1
100022ac:	6062      	str	r2, [r4, #4]
100022ae:	e6f4      	b.n	1000209a <_malloc_r+0x2d6>
100022b0:	465b      	mov	r3, fp
100022b2:	4642      	mov	r2, r8
100022b4:	601a      	str	r2, [r3, #0]
100022b6:	e6ab      	b.n	10002010 <_malloc_r+0x24c>
100022b8:	4644      	mov	r4, r8
100022ba:	e6ee      	b.n	1000209a <_malloc_r+0x2d6>
100022bc:	6041      	str	r1, [r0, #4]
100022be:	e78d      	b.n	100021dc <_malloc_r+0x418>
100022c0:	21aa      	movs	r1, #170	; 0xaa
100022c2:	0049      	lsls	r1, r1, #1
100022c4:	428a      	cmp	r2, r1
100022c6:	d824      	bhi.n	10002312 <_malloc_r+0x54e>
100022c8:	0bda      	lsrs	r2, r3, #15
100022ca:	0011      	movs	r1, r2
100022cc:	3278      	adds	r2, #120	; 0x78
100022ce:	3177      	adds	r1, #119	; 0x77
100022d0:	00d2      	lsls	r2, r2, #3
100022d2:	e706      	b.n	100020e2 <_malloc_r+0x31e>
100022d4:	4b1a      	ldr	r3, [pc, #104]	; (10002340 <_malloc_r+0x57c>)
100022d6:	4298      	cmp	r0, r3
100022d8:	d824      	bhi.n	10002324 <_malloc_r+0x560>
100022da:	237c      	movs	r3, #124	; 0x7c
100022dc:	4698      	mov	r8, r3
100022de:	0ca8      	lsrs	r0, r5, #18
100022e0:	4480      	add	r8, r0
100022e2:	307d      	adds	r0, #125	; 0x7d
100022e4:	00c1      	lsls	r1, r0, #3
100022e6:	e5b6      	b.n	10001e56 <_malloc_r+0x92>
100022e8:	9a00      	ldr	r2, [sp, #0]
100022ea:	9b01      	ldr	r3, [sp, #4]
100022ec:	4694      	mov	ip, r2
100022ee:	4642      	mov	r2, r8
100022f0:	3b08      	subs	r3, #8
100022f2:	4463      	add	r3, ip
100022f4:	1a9b      	subs	r3, r3, r2
100022f6:	9300      	str	r3, [sp, #0]
100022f8:	2300      	movs	r3, #0
100022fa:	469b      	mov	fp, r3
100022fc:	e6a9      	b.n	10002052 <_malloc_r+0x28e>
100022fe:	0021      	movs	r1, r4
10002300:	0030      	movs	r0, r6
10002302:	3108      	adds	r1, #8
10002304:	f000 f8bc 	bl	10002480 <_free_r>
10002308:	4653      	mov	r3, sl
1000230a:	68bc      	ldr	r4, [r7, #8]
1000230c:	681b      	ldr	r3, [r3, #0]
1000230e:	6862      	ldr	r2, [r4, #4]
10002310:	e6c3      	b.n	1000209a <_malloc_r+0x2d6>
10002312:	490b      	ldr	r1, [pc, #44]	; (10002340 <_malloc_r+0x57c>)
10002314:	428a      	cmp	r2, r1
10002316:	d80b      	bhi.n	10002330 <_malloc_r+0x56c>
10002318:	0c9a      	lsrs	r2, r3, #18
1000231a:	0011      	movs	r1, r2
1000231c:	327d      	adds	r2, #125	; 0x7d
1000231e:	317c      	adds	r1, #124	; 0x7c
10002320:	00d2      	lsls	r2, r2, #3
10002322:	e6de      	b.n	100020e2 <_malloc_r+0x31e>
10002324:	21fe      	movs	r1, #254	; 0xfe
10002326:	237e      	movs	r3, #126	; 0x7e
10002328:	207f      	movs	r0, #127	; 0x7f
1000232a:	4698      	mov	r8, r3
1000232c:	0089      	lsls	r1, r1, #2
1000232e:	e592      	b.n	10001e56 <_malloc_r+0x92>
10002330:	22fe      	movs	r2, #254	; 0xfe
10002332:	217e      	movs	r1, #126	; 0x7e
10002334:	0092      	lsls	r2, r2, #2
10002336:	e6d4      	b.n	100020e2 <_malloc_r+0x31e>
10002338:	687b      	ldr	r3, [r7, #4]
1000233a:	e76a      	b.n	10002212 <_malloc_r+0x44e>
1000233c:	20000a78 	.word	0x20000a78
10002340:	00000554 	.word	0x00000554

10002344 <__malloc_lock>:
10002344:	b510      	push	{r4, lr}
10002346:	4802      	ldr	r0, [pc, #8]	; (10002350 <__malloc_lock+0xc>)
10002348:	f000 f97c 	bl	10002644 <__retarget_lock_acquire_recursive>
1000234c:	bd10      	pop	{r4, pc}
1000234e:	46c0      	nop			; (mov r8, r8)
10002350:	20000d30 	.word	0x20000d30

10002354 <__malloc_unlock>:
10002354:	b510      	push	{r4, lr}
10002356:	4802      	ldr	r0, [pc, #8]	; (10002360 <__malloc_unlock+0xc>)
10002358:	f000 f976 	bl	10002648 <__retarget_lock_release_recursive>
1000235c:	bd10      	pop	{r4, pc}
1000235e:	46c0      	nop			; (mov r8, r8)
10002360:	20000d30 	.word	0x20000d30

10002364 <_sbrk_r>:
10002364:	2300      	movs	r3, #0
10002366:	b570      	push	{r4, r5, r6, lr}
10002368:	4d06      	ldr	r5, [pc, #24]	; (10002384 <_sbrk_r+0x20>)
1000236a:	0004      	movs	r4, r0
1000236c:	0008      	movs	r0, r1
1000236e:	602b      	str	r3, [r5, #0]
10002370:	f7fe fefc 	bl	1000116c <_sbrk>
10002374:	1c43      	adds	r3, r0, #1
10002376:	d000      	beq.n	1000237a <_sbrk_r+0x16>
10002378:	bd70      	pop	{r4, r5, r6, pc}
1000237a:	682b      	ldr	r3, [r5, #0]
1000237c:	2b00      	cmp	r3, #0
1000237e:	d0fb      	beq.n	10002378 <_sbrk_r+0x14>
10002380:	6023      	str	r3, [r4, #0]
10002382:	e7f9      	b.n	10002378 <_sbrk_r+0x14>
10002384:	20000d44 	.word	0x20000d44

10002388 <strlen>:
10002388:	b510      	push	{r4, lr}
1000238a:	0783      	lsls	r3, r0, #30
1000238c:	d00a      	beq.n	100023a4 <strlen+0x1c>
1000238e:	0003      	movs	r3, r0
10002390:	2103      	movs	r1, #3
10002392:	e002      	b.n	1000239a <strlen+0x12>
10002394:	3301      	adds	r3, #1
10002396:	420b      	tst	r3, r1
10002398:	d005      	beq.n	100023a6 <strlen+0x1e>
1000239a:	781a      	ldrb	r2, [r3, #0]
1000239c:	2a00      	cmp	r2, #0
1000239e:	d1f9      	bne.n	10002394 <strlen+0xc>
100023a0:	1a18      	subs	r0, r3, r0
100023a2:	bd10      	pop	{r4, pc}
100023a4:	0003      	movs	r3, r0
100023a6:	6819      	ldr	r1, [r3, #0]
100023a8:	4a0c      	ldr	r2, [pc, #48]	; (100023dc <strlen+0x54>)
100023aa:	4c0d      	ldr	r4, [pc, #52]	; (100023e0 <strlen+0x58>)
100023ac:	188a      	adds	r2, r1, r2
100023ae:	438a      	bics	r2, r1
100023b0:	4222      	tst	r2, r4
100023b2:	d10f      	bne.n	100023d4 <strlen+0x4c>
100023b4:	6859      	ldr	r1, [r3, #4]
100023b6:	4a09      	ldr	r2, [pc, #36]	; (100023dc <strlen+0x54>)
100023b8:	3304      	adds	r3, #4
100023ba:	188a      	adds	r2, r1, r2
100023bc:	438a      	bics	r2, r1
100023be:	4222      	tst	r2, r4
100023c0:	d108      	bne.n	100023d4 <strlen+0x4c>
100023c2:	6859      	ldr	r1, [r3, #4]
100023c4:	4a05      	ldr	r2, [pc, #20]	; (100023dc <strlen+0x54>)
100023c6:	3304      	adds	r3, #4
100023c8:	188a      	adds	r2, r1, r2
100023ca:	438a      	bics	r2, r1
100023cc:	4222      	tst	r2, r4
100023ce:	d0f1      	beq.n	100023b4 <strlen+0x2c>
100023d0:	e000      	b.n	100023d4 <strlen+0x4c>
100023d2:	3301      	adds	r3, #1
100023d4:	781a      	ldrb	r2, [r3, #0]
100023d6:	2a00      	cmp	r2, #0
100023d8:	d1fb      	bne.n	100023d2 <strlen+0x4a>
100023da:	e7e1      	b.n	100023a0 <strlen+0x18>
100023dc:	fefefeff 	.word	0xfefefeff
100023e0:	80808080 	.word	0x80808080

100023e4 <_malloc_trim_r>:
100023e4:	b5f8      	push	{r3, r4, r5, r6, r7, lr}
100023e6:	000c      	movs	r4, r1
100023e8:	0005      	movs	r5, r0
100023ea:	f7ff ffab 	bl	10002344 <__malloc_lock>
100023ee:	4f20      	ldr	r7, [pc, #128]	; (10002470 <_malloc_trim_r+0x8c>)
100023f0:	68bb      	ldr	r3, [r7, #8]
100023f2:	685e      	ldr	r6, [r3, #4]
100023f4:	2303      	movs	r3, #3
100023f6:	439e      	bics	r6, r3
100023f8:	4b1e      	ldr	r3, [pc, #120]	; (10002474 <_malloc_trim_r+0x90>)
100023fa:	1b34      	subs	r4, r6, r4
100023fc:	469c      	mov	ip, r3
100023fe:	4464      	add	r4, ip
10002400:	0b24      	lsrs	r4, r4, #12
10002402:	3c01      	subs	r4, #1
10002404:	3311      	adds	r3, #17
10002406:	0324      	lsls	r4, r4, #12
10002408:	429c      	cmp	r4, r3
1000240a:	db07      	blt.n	1000241c <_malloc_trim_r+0x38>
1000240c:	2100      	movs	r1, #0
1000240e:	0028      	movs	r0, r5
10002410:	f7ff ffa8 	bl	10002364 <_sbrk_r>
10002414:	68bb      	ldr	r3, [r7, #8]
10002416:	199b      	adds	r3, r3, r6
10002418:	4298      	cmp	r0, r3
1000241a:	d004      	beq.n	10002426 <_malloc_trim_r+0x42>
1000241c:	0028      	movs	r0, r5
1000241e:	f7ff ff99 	bl	10002354 <__malloc_unlock>
10002422:	2000      	movs	r0, #0
10002424:	bdf8      	pop	{r3, r4, r5, r6, r7, pc}
10002426:	0028      	movs	r0, r5
10002428:	4261      	negs	r1, r4
1000242a:	f7ff ff9b 	bl	10002364 <_sbrk_r>
1000242e:	1c43      	adds	r3, r0, #1
10002430:	d00d      	beq.n	1000244e <_malloc_trim_r+0x6a>
10002432:	2201      	movs	r2, #1
10002434:	68bb      	ldr	r3, [r7, #8]
10002436:	1b36      	subs	r6, r6, r4
10002438:	4316      	orrs	r6, r2
1000243a:	605e      	str	r6, [r3, #4]
1000243c:	4b0e      	ldr	r3, [pc, #56]	; (10002478 <_malloc_trim_r+0x94>)
1000243e:	0028      	movs	r0, r5
10002440:	681a      	ldr	r2, [r3, #0]
10002442:	1b14      	subs	r4, r2, r4
10002444:	601c      	str	r4, [r3, #0]
10002446:	f7ff ff85 	bl	10002354 <__malloc_unlock>
1000244a:	2001      	movs	r0, #1
1000244c:	e7ea      	b.n	10002424 <_malloc_trim_r+0x40>
1000244e:	2100      	movs	r1, #0
10002450:	0028      	movs	r0, r5
10002452:	f7ff ff87 	bl	10002364 <_sbrk_r>
10002456:	68ba      	ldr	r2, [r7, #8]
10002458:	1a83      	subs	r3, r0, r2
1000245a:	2b0f      	cmp	r3, #15
1000245c:	ddde      	ble.n	1000241c <_malloc_trim_r+0x38>
1000245e:	4907      	ldr	r1, [pc, #28]	; (1000247c <_malloc_trim_r+0x98>)
10002460:	6809      	ldr	r1, [r1, #0]
10002462:	1a40      	subs	r0, r0, r1
10002464:	4904      	ldr	r1, [pc, #16]	; (10002478 <_malloc_trim_r+0x94>)
10002466:	6008      	str	r0, [r1, #0]
10002468:	2101      	movs	r1, #1
1000246a:	430b      	orrs	r3, r1
1000246c:	6053      	str	r3, [r2, #4]
1000246e:	e7d5      	b.n	1000241c <_malloc_trim_r+0x38>
10002470:	20000630 	.word	0x20000630
10002474:	00000fef 	.word	0x00000fef
10002478:	20000a78 	.word	0x20000a78
1000247c:	20000a38 	.word	0x20000a38

10002480 <_free_r>:
10002480:	b5f0      	push	{r4, r5, r6, r7, lr}
10002482:	46c6      	mov	lr, r8
10002484:	0005      	movs	r5, r0
10002486:	000c      	movs	r4, r1
10002488:	b500      	push	{lr}
1000248a:	2900      	cmp	r1, #0
1000248c:	d04f      	beq.n	1000252e <_free_r+0xae>
1000248e:	f7ff ff59 	bl	10002344 <__malloc_lock>
10002492:	0021      	movs	r1, r4
10002494:	3908      	subs	r1, #8
10002496:	684c      	ldr	r4, [r1, #4]
10002498:	2601      	movs	r6, #1
1000249a:	0022      	movs	r2, r4
1000249c:	2003      	movs	r0, #3
1000249e:	43b2      	bics	r2, r6
100024a0:	188f      	adds	r7, r1, r2
100024a2:	687b      	ldr	r3, [r7, #4]
100024a4:	4383      	bics	r3, r0
100024a6:	4862      	ldr	r0, [pc, #392]	; (10002630 <_free_r+0x1b0>)
100024a8:	4698      	mov	r8, r3
100024aa:	6883      	ldr	r3, [r0, #8]
100024ac:	42bb      	cmp	r3, r7
100024ae:	d06b      	beq.n	10002588 <_free_r+0x108>
100024b0:	4643      	mov	r3, r8
100024b2:	607b      	str	r3, [r7, #4]
100024b4:	4226      	tst	r6, r4
100024b6:	d11e      	bne.n	100024f6 <_free_r+0x76>
100024b8:	2308      	movs	r3, #8
100024ba:	469c      	mov	ip, r3
100024bc:	680c      	ldr	r4, [r1, #0]
100024be:	4484      	add	ip, r0
100024c0:	1b09      	subs	r1, r1, r4
100024c2:	1912      	adds	r2, r2, r4
100024c4:	688c      	ldr	r4, [r1, #8]
100024c6:	4564      	cmp	r4, ip
100024c8:	d04f      	beq.n	1000256a <_free_r+0xea>
100024ca:	68cb      	ldr	r3, [r1, #12]
100024cc:	60e3      	str	r3, [r4, #12]
100024ce:	609c      	str	r4, [r3, #8]
100024d0:	4643      	mov	r3, r8
100024d2:	18fc      	adds	r4, r7, r3
100024d4:	6864      	ldr	r4, [r4, #4]
100024d6:	4234      	tst	r4, r6
100024d8:	d111      	bne.n	100024fe <_free_r+0x7e>
100024da:	68bb      	ldr	r3, [r7, #8]
100024dc:	4c55      	ldr	r4, [pc, #340]	; (10002634 <_free_r+0x1b4>)
100024de:	4442      	add	r2, r8
100024e0:	42a3      	cmp	r3, r4
100024e2:	d100      	bne.n	100024e6 <_free_r+0x66>
100024e4:	e07f      	b.n	100025e6 <_free_r+0x166>
100024e6:	68fc      	ldr	r4, [r7, #12]
100024e8:	60dc      	str	r4, [r3, #12]
100024ea:	60a3      	str	r3, [r4, #8]
100024ec:	2301      	movs	r3, #1
100024ee:	4313      	orrs	r3, r2
100024f0:	604b      	str	r3, [r1, #4]
100024f2:	508a      	str	r2, [r1, r2]
100024f4:	e006      	b.n	10002504 <_free_r+0x84>
100024f6:	18fc      	adds	r4, r7, r3
100024f8:	6864      	ldr	r4, [r4, #4]
100024fa:	4234      	tst	r4, r6
100024fc:	d0ed      	beq.n	100024da <_free_r+0x5a>
100024fe:	4316      	orrs	r6, r2
10002500:	604e      	str	r6, [r1, #4]
10002502:	603a      	str	r2, [r7, #0]
10002504:	2380      	movs	r3, #128	; 0x80
10002506:	009b      	lsls	r3, r3, #2
10002508:	429a      	cmp	r2, r3
1000250a:	d213      	bcs.n	10002534 <_free_r+0xb4>
1000250c:	0954      	lsrs	r4, r2, #5
1000250e:	08d3      	lsrs	r3, r2, #3
10002510:	2201      	movs	r2, #1
10002512:	40a2      	lsls	r2, r4
10002514:	6844      	ldr	r4, [r0, #4]
10002516:	00db      	lsls	r3, r3, #3
10002518:	4322      	orrs	r2, r4
1000251a:	6042      	str	r2, [r0, #4]
1000251c:	1818      	adds	r0, r3, r0
1000251e:	6883      	ldr	r3, [r0, #8]
10002520:	60c8      	str	r0, [r1, #12]
10002522:	608b      	str	r3, [r1, #8]
10002524:	6081      	str	r1, [r0, #8]
10002526:	60d9      	str	r1, [r3, #12]
10002528:	0028      	movs	r0, r5
1000252a:	f7ff ff13 	bl	10002354 <__malloc_unlock>
1000252e:	bc04      	pop	{r2}
10002530:	4690      	mov	r8, r2
10002532:	bdf0      	pop	{r4, r5, r6, r7, pc}
10002534:	0a53      	lsrs	r3, r2, #9
10002536:	2b04      	cmp	r3, #4
10002538:	d83f      	bhi.n	100025ba <_free_r+0x13a>
1000253a:	0994      	lsrs	r4, r2, #6
1000253c:	0026      	movs	r6, r4
1000253e:	3439      	adds	r4, #57	; 0x39
10002540:	3638      	adds	r6, #56	; 0x38
10002542:	00e4      	lsls	r4, r4, #3
10002544:	1904      	adds	r4, r0, r4
10002546:	6823      	ldr	r3, [r4, #0]
10002548:	3c08      	subs	r4, #8
1000254a:	2703      	movs	r7, #3
1000254c:	429c      	cmp	r4, r3
1000254e:	d043      	beq.n	100025d8 <_free_r+0x158>
10002550:	6858      	ldr	r0, [r3, #4]
10002552:	43b8      	bics	r0, r7
10002554:	4290      	cmp	r0, r2
10002556:	d902      	bls.n	1000255e <_free_r+0xde>
10002558:	689b      	ldr	r3, [r3, #8]
1000255a:	429c      	cmp	r4, r3
1000255c:	d1f8      	bne.n	10002550 <_free_r+0xd0>
1000255e:	68dc      	ldr	r4, [r3, #12]
10002560:	60cc      	str	r4, [r1, #12]
10002562:	608b      	str	r3, [r1, #8]
10002564:	60a1      	str	r1, [r4, #8]
10002566:	60d9      	str	r1, [r3, #12]
10002568:	e7de      	b.n	10002528 <_free_r+0xa8>
1000256a:	4643      	mov	r3, r8
1000256c:	18f8      	adds	r0, r7, r3
1000256e:	6840      	ldr	r0, [r0, #4]
10002570:	4230      	tst	r0, r6
10002572:	d158      	bne.n	10002626 <_free_r+0x1a6>
10002574:	0013      	movs	r3, r2
10002576:	68b8      	ldr	r0, [r7, #8]
10002578:	68fa      	ldr	r2, [r7, #12]
1000257a:	4443      	add	r3, r8
1000257c:	431e      	orrs	r6, r3
1000257e:	60c2      	str	r2, [r0, #12]
10002580:	6090      	str	r0, [r2, #8]
10002582:	604e      	str	r6, [r1, #4]
10002584:	50cb      	str	r3, [r1, r3]
10002586:	e7cf      	b.n	10002528 <_free_r+0xa8>
10002588:	0013      	movs	r3, r2
1000258a:	4443      	add	r3, r8
1000258c:	4226      	tst	r6, r4
1000258e:	d106      	bne.n	1000259e <_free_r+0x11e>
10002590:	680a      	ldr	r2, [r1, #0]
10002592:	1a89      	subs	r1, r1, r2
10002594:	688c      	ldr	r4, [r1, #8]
10002596:	189b      	adds	r3, r3, r2
10002598:	68ca      	ldr	r2, [r1, #12]
1000259a:	60e2      	str	r2, [r4, #12]
1000259c:	6094      	str	r4, [r2, #8]
1000259e:	2201      	movs	r2, #1
100025a0:	431a      	orrs	r2, r3
100025a2:	604a      	str	r2, [r1, #4]
100025a4:	4a24      	ldr	r2, [pc, #144]	; (10002638 <_free_r+0x1b8>)
100025a6:	6081      	str	r1, [r0, #8]
100025a8:	6812      	ldr	r2, [r2, #0]
100025aa:	429a      	cmp	r2, r3
100025ac:	d8bc      	bhi.n	10002528 <_free_r+0xa8>
100025ae:	4b23      	ldr	r3, [pc, #140]	; (1000263c <_free_r+0x1bc>)
100025b0:	0028      	movs	r0, r5
100025b2:	6819      	ldr	r1, [r3, #0]
100025b4:	f7ff ff16 	bl	100023e4 <_malloc_trim_r>
100025b8:	e7b6      	b.n	10002528 <_free_r+0xa8>
100025ba:	2b14      	cmp	r3, #20
100025bc:	d907      	bls.n	100025ce <_free_r+0x14e>
100025be:	2b54      	cmp	r3, #84	; 0x54
100025c0:	d81a      	bhi.n	100025f8 <_free_r+0x178>
100025c2:	0b14      	lsrs	r4, r2, #12
100025c4:	0026      	movs	r6, r4
100025c6:	346f      	adds	r4, #111	; 0x6f
100025c8:	366e      	adds	r6, #110	; 0x6e
100025ca:	00e4      	lsls	r4, r4, #3
100025cc:	e7ba      	b.n	10002544 <_free_r+0xc4>
100025ce:	001e      	movs	r6, r3
100025d0:	335c      	adds	r3, #92	; 0x5c
100025d2:	365b      	adds	r6, #91	; 0x5b
100025d4:	00dc      	lsls	r4, r3, #3
100025d6:	e7b5      	b.n	10002544 <_free_r+0xc4>
100025d8:	2201      	movs	r2, #1
100025da:	10b6      	asrs	r6, r6, #2
100025dc:	40b2      	lsls	r2, r6
100025de:	6846      	ldr	r6, [r0, #4]
100025e0:	4332      	orrs	r2, r6
100025e2:	6042      	str	r2, [r0, #4]
100025e4:	e7bc      	b.n	10002560 <_free_r+0xe0>
100025e6:	60d9      	str	r1, [r3, #12]
100025e8:	6099      	str	r1, [r3, #8]
100025ea:	60cb      	str	r3, [r1, #12]
100025ec:	608b      	str	r3, [r1, #8]
100025ee:	2301      	movs	r3, #1
100025f0:	4313      	orrs	r3, r2
100025f2:	604b      	str	r3, [r1, #4]
100025f4:	508a      	str	r2, [r1, r2]
100025f6:	e797      	b.n	10002528 <_free_r+0xa8>
100025f8:	24aa      	movs	r4, #170	; 0xaa
100025fa:	0064      	lsls	r4, r4, #1
100025fc:	42a3      	cmp	r3, r4
100025fe:	d805      	bhi.n	1000260c <_free_r+0x18c>
10002600:	0bd4      	lsrs	r4, r2, #15
10002602:	0026      	movs	r6, r4
10002604:	3478      	adds	r4, #120	; 0x78
10002606:	3677      	adds	r6, #119	; 0x77
10002608:	00e4      	lsls	r4, r4, #3
1000260a:	e79b      	b.n	10002544 <_free_r+0xc4>
1000260c:	4c0c      	ldr	r4, [pc, #48]	; (10002640 <_free_r+0x1c0>)
1000260e:	42a3      	cmp	r3, r4
10002610:	d805      	bhi.n	1000261e <_free_r+0x19e>
10002612:	0c94      	lsrs	r4, r2, #18
10002614:	0026      	movs	r6, r4
10002616:	347d      	adds	r4, #125	; 0x7d
10002618:	367c      	adds	r6, #124	; 0x7c
1000261a:	00e4      	lsls	r4, r4, #3
1000261c:	e792      	b.n	10002544 <_free_r+0xc4>
1000261e:	24fe      	movs	r4, #254	; 0xfe
10002620:	267e      	movs	r6, #126	; 0x7e
10002622:	00a4      	lsls	r4, r4, #2
10002624:	e78e      	b.n	10002544 <_free_r+0xc4>
10002626:	0033      	movs	r3, r6
10002628:	4313      	orrs	r3, r2
1000262a:	604b      	str	r3, [r1, #4]
1000262c:	603a      	str	r2, [r7, #0]
1000262e:	e77b      	b.n	10002528 <_free_r+0xa8>
10002630:	20000630 	.word	0x20000630
10002634:	20000638 	.word	0x20000638
10002638:	20000a3c 	.word	0x20000a3c
1000263c:	20000aa8 	.word	0x20000aa8
10002640:	00000554 	.word	0x00000554

10002644 <__retarget_lock_acquire_recursive>:
10002644:	4770      	bx	lr
10002646:	46c0      	nop			; (mov r8, r8)

10002648 <__retarget_lock_release_recursive>:
10002648:	4770      	bx	lr
1000264a:	46c0      	nop			; (mov r8, r8)

1000264c <_fini>:
1000264c:	b5f8      	push	{r3, r4, r5, r6, r7, lr}
1000264e:	46c0      	nop			; (mov r8, r8)

10002650 <__mutex_exit_veneer>:
10002650:	b401      	push	{r0}
10002652:	4802      	ldr	r0, [pc, #8]	; (1000265c <__mutex_exit_veneer+0xc>)
10002654:	4684      	mov	ip, r0
10002656:	bc01      	pop	{r0}
10002658:	4760      	bx	ip
1000265a:	bf00      	nop
1000265c:	2000015d 	.word	0x2000015d

10002660 <____aeabi_idiv0_veneer>:
10002660:	b401      	push	{r0}
10002662:	4802      	ldr	r0, [pc, #8]	; (1000266c <____aeabi_idiv0_veneer+0xc>)
10002664:	4684      	mov	ip, r0
10002666:	bc01      	pop	{r0}
10002668:	4760      	bx	ip
1000266a:	bf00      	nop
1000266c:	20000185 	.word	0x20000185

10002670 <__mutex_try_enter_veneer>:
10002670:	b401      	push	{r0}
10002672:	4802      	ldr	r0, [pc, #8]	; (1000267c <__mutex_try_enter_veneer+0xc>)
10002674:	4684      	mov	ip, r0
10002676:	bc01      	pop	{r0}
10002678:	4760      	bx	ip
1000267a:	bf00      	nop
1000267c:	20000111 	.word	0x20000111

10002680 <__mutex_enter_blocking_veneer>:
10002680:	b401      	push	{r0}
10002682:	4802      	ldr	r0, [pc, #8]	; (1000268c <__mutex_enter_blocking_veneer+0xc>)
10002684:	4684      	mov	ip, r0
10002686:	bc01      	pop	{r0}
10002688:	4760      	bx	ip
1000268a:	bf00      	nop
1000268c:	200000c1 	.word	0x200000c1

Disassembly of section .data:

200000c0 <mutex_enter_blocking>:
200000c0:	b510      	push	{r4, lr}
200000c2:	6802      	ldr	r2, [r0, #0]
200000c4:	2400      	movs	r4, #0
200000c6:	f3ef 8110 	mrs	r1, PRIMASK
200000ca:	b672      	cpsid	i
200000cc:	6813      	ldr	r3, [r2, #0]
200000ce:	2b00      	cmp	r3, #0
200000d0:	d0fc      	beq.n	200000cc <mutex_enter_blocking+0xc>
200000d2:	f3bf 8f5f 	dmb	sy
200000d6:	7903      	ldrb	r3, [r0, #4]
200000d8:	2b00      	cmp	r3, #0
200000da:	d00b      	beq.n	200000f4 <mutex_enter_blocking+0x34>
200000dc:	6803      	ldr	r3, [r0, #0]
200000de:	f3bf 8f5f 	dmb	sy
200000e2:	601c      	str	r4, [r3, #0]
200000e4:	f381 8810 	msr	PRIMASK, r1
200000e8:	bf20      	wfe
200000ea:	6802      	ldr	r2, [r0, #0]
200000ec:	f3ef 8110 	mrs	r1, PRIMASK
200000f0:	b672      	cpsid	i
200000f2:	e7eb      	b.n	200000cc <mutex_enter_blocking+0xc>
200000f4:	2201      	movs	r2, #1
200000f6:	7102      	strb	r2, [r0, #4]
200000f8:	22d0      	movs	r2, #208	; 0xd0
200000fa:	0612      	lsls	r2, r2, #24
200000fc:	6812      	ldr	r2, [r2, #0]
200000fe:	7142      	strb	r2, [r0, #5]
20000100:	6802      	ldr	r2, [r0, #0]
20000102:	f3bf 8f5f 	dmb	sy
20000106:	6013      	str	r3, [r2, #0]
20000108:	f381 8810 	msr	PRIMASK, r1
2000010c:	bd10      	pop	{r4, pc}
2000010e:	46c0      	nop			; (mov r8, r8)

20000110 <mutex_try_enter>:
20000110:	0003      	movs	r3, r0
20000112:	b510      	push	{r4, lr}
20000114:	6800      	ldr	r0, [r0, #0]
20000116:	f3ef 8410 	mrs	r4, PRIMASK
2000011a:	b672      	cpsid	i
2000011c:	6802      	ldr	r2, [r0, #0]
2000011e:	2a00      	cmp	r2, #0
20000120:	d0fc      	beq.n	2000011c <mutex_try_enter+0xc>
20000122:	f3bf 8f5f 	dmb	sy
20000126:	791a      	ldrb	r2, [r3, #4]
20000128:	2a00      	cmp	r2, #0
2000012a:	d00d      	beq.n	20000148 <mutex_try_enter+0x38>
2000012c:	2900      	cmp	r1, #0
2000012e:	d013      	beq.n	20000158 <mutex_try_enter+0x48>
20000130:	2205      	movs	r2, #5
20000132:	2000      	movs	r0, #0
20000134:	569a      	ldrsb	r2, [r3, r2]
20000136:	600a      	str	r2, [r1, #0]
20000138:	681b      	ldr	r3, [r3, #0]
2000013a:	f3bf 8f5f 	dmb	sy
2000013e:	2200      	movs	r2, #0
20000140:	601a      	str	r2, [r3, #0]
20000142:	f384 8810 	msr	PRIMASK, r4
20000146:	bd10      	pop	{r4, pc}
20000148:	3201      	adds	r2, #1
2000014a:	711a      	strb	r2, [r3, #4]
2000014c:	22d0      	movs	r2, #208	; 0xd0
2000014e:	0612      	lsls	r2, r2, #24
20000150:	6812      	ldr	r2, [r2, #0]
20000152:	2001      	movs	r0, #1
20000154:	715a      	strb	r2, [r3, #5]
20000156:	e7ef      	b.n	20000138 <mutex_try_enter+0x28>
20000158:	2000      	movs	r0, #0
2000015a:	e7ed      	b.n	20000138 <mutex_try_enter+0x28>

2000015c <mutex_exit>:
2000015c:	6802      	ldr	r2, [r0, #0]
2000015e:	f3ef 8110 	mrs	r1, PRIMASK
20000162:	b672      	cpsid	i
20000164:	6813      	ldr	r3, [r2, #0]
20000166:	2b00      	cmp	r3, #0
20000168:	d0fc      	beq.n	20000164 <mutex_exit+0x8>
2000016a:	f3bf 8f5f 	dmb	sy
2000016e:	2300      	movs	r3, #0
20000170:	7103      	strb	r3, [r0, #4]
20000172:	bf40      	sev
20000174:	6802      	ldr	r2, [r0, #0]
20000176:	f3bf 8f5f 	dmb	sy
2000017a:	6013      	str	r3, [r2, #0]
2000017c:	f381 8810 	msr	PRIMASK, r1
20000180:	4770      	bx	lr
20000182:	46c0      	nop			; (mov r8, r8)

20000184 <__aeabi_idiv0>:
20000184:	4770      	bx	lr
20000186:	46c0      	nop			; (mov r8, r8)

20000188 <striped_spin_lock_num>:
20000188:	0010 0000                                   ....

2000018c <irq_handler_chain_slots>:
2000018c:	00000000 	.word	0x00000000
20000190:	00010000 	.word	0x00010000
	...
2000019c:	00020000 	.word	0x00020000
	...
200001a8:	00030000 	.word	0x00030000
	...
200001b4:	00ff0000 	.word	0x00ff0000
200001b8:	00000000 	.word	0x00000000

200001bc <irq_handler_chain_first_slot>:
200001bc:	b500      	push	{lr}
200001be:	6848      	ldr	r0, [r1, #4]
200001c0:	3101      	adds	r1, #1
200001c2:	468e      	mov	lr, r1
200001c4:	4700      	bx	r0

200001c6 <irq_handler_chain_remove_tail>:
200001c6:	4670      	mov	r0, lr
200001c8:	3809      	subs	r0, #9
200001ca:	4901      	ldr	r1, [pc, #4]	; (200001d0 <irq_handler_chain_remove_tail+0xa>)
200001cc:	4788      	blx	r1
200001ce:	bd00      	pop	{pc}
200001d0:	10001799 	.word	0x10001799
	...

200001e0 <aeabi_bits_funcs>:
200001e0:	00003350 	.word	0x00003350
200001e4:	0000334c 	.word	0x0000334c
200001e8:	00003354 	.word	0x00003354
200001ec:	00003352 	.word	0x00003352

200001f0 <aeabi_bits_funcs_end>:
200001f0:	0000534d 	.word	0x0000534d
200001f4:	0000434d 	.word	0x0000434d
200001f8:	00003453 	.word	0x00003453
200001fc:	00003443 	.word	0x00003443

20000200 <_impure_ptr>:
20000200:	20000208 00000000                       ... ....

20000208 <impure_data>:
20000208:	00000000 200004f4 2000055c 200005c4     ....... \.. ... 
	...
200002b0:	00000001 00000000 abcd330e e66d1234     .........3..4.m.
200002c0:	0005deec 0000000b 00000000 00000000     ................
	...

20000630 <__malloc_av_>:
	...
20000638:	20000630 20000630 20000638 20000638     0.. 0.. 8.. 8.. 
20000648:	20000640 20000640 20000648 20000648     @.. @.. H.. H.. 
20000658:	20000650 20000650 20000658 20000658     P.. P.. X.. X.. 
20000668:	20000660 20000660 20000668 20000668     `.. `.. h.. h.. 
20000678:	20000670 20000670 20000678 20000678     p.. p.. x.. x.. 
20000688:	20000680 20000680 20000688 20000688     ... ... ... ... 
20000698:	20000690 20000690 20000698 20000698     ... ... ... ... 
200006a8:	200006a0 200006a0 200006a8 200006a8     ... ... ... ... 
200006b8:	200006b0 200006b0 200006b8 200006b8     ... ... ... ... 
200006c8:	200006c0 200006c0 200006c8 200006c8     ... ... ... ... 
200006d8:	200006d0 200006d0 200006d8 200006d8     ... ... ... ... 
200006e8:	200006e0 200006e0 200006e8 200006e8     ... ... ... ... 
200006f8:	200006f0 200006f0 200006f8 200006f8     ... ... ... ... 
20000708:	20000700 20000700 20000708 20000708     ... ... ... ... 
20000718:	20000710 20000710 20000718 20000718     ... ... ... ... 
20000728:	20000720 20000720 20000728 20000728      ..  .. (.. (.. 
20000738:	20000730 20000730 20000738 20000738     0.. 0.. 8.. 8.. 
20000748:	20000740 20000740 20000748 20000748     @.. @.. H.. H.. 
20000758:	20000750 20000750 20000758 20000758     P.. P.. X.. X.. 
20000768:	20000760 20000760 20000768 20000768     `.. `.. h.. h.. 
20000778:	20000770 20000770 20000778 20000778     p.. p.. x.. x.. 
20000788:	20000780 20000780 20000788 20000788     ... ... ... ... 
20000798:	20000790 20000790 20000798 20000798     ... ... ... ... 
200007a8:	200007a0 200007a0 200007a8 200007a8     ... ... ... ... 
200007b8:	200007b0 200007b0 200007b8 200007b8     ... ... ... ... 
200007c8:	200007c0 200007c0 200007c8 200007c8     ... ... ... ... 
200007d8:	200007d0 200007d0 200007d8 200007d8     ... ... ... ... 
200007e8:	200007e0 200007e0 200007e8 200007e8     ... ... ... ... 
200007f8:	200007f0 200007f0 200007f8 200007f8     ... ... ... ... 
20000808:	20000800 20000800 20000808 20000808     ... ... ... ... 
20000818:	20000810 20000810 20000818 20000818     ... ... ... ... 
20000828:	20000820 20000820 20000828 20000828      ..  .. (.. (.. 
20000838:	20000830 20000830 20000838 20000838     0.. 0.. 8.. 8.. 
20000848:	20000840 20000840 20000848 20000848     @.. @.. H.. H.. 
20000858:	20000850 20000850 20000858 20000858     P.. P.. X.. X.. 
20000868:	20000860 20000860 20000868 20000868     `.. `.. h.. h.. 
20000878:	20000870 20000870 20000878 20000878     p.. p.. x.. x.. 
20000888:	20000880 20000880 20000888 20000888     ... ... ... ... 
20000898:	20000890 20000890 20000898 20000898     ... ... ... ... 
200008a8:	200008a0 200008a0 200008a8 200008a8     ... ... ... ... 
200008b8:	200008b0 200008b0 200008b8 200008b8     ... ... ... ... 
200008c8:	200008c0 200008c0 200008c8 200008c8     ... ... ... ... 
200008d8:	200008d0 200008d0 200008d8 200008d8     ... ... ... ... 
200008e8:	200008e0 200008e0 200008e8 200008e8     ... ... ... ... 
200008f8:	200008f0 200008f0 200008f8 200008f8     ... ... ... ... 
20000908:	20000900 20000900 20000908 20000908     ... ... ... ... 
20000918:	20000910 20000910 20000918 20000918     ... ... ... ... 
20000928:	20000920 20000920 20000928 20000928      ..  .. (.. (.. 
20000938:	20000930 20000930 20000938 20000938     0.. 0.. 8.. 8.. 
20000948:	20000940 20000940 20000948 20000948     @.. @.. H.. H.. 
20000958:	20000950 20000950 20000958 20000958     P.. P.. X.. X.. 
20000968:	20000960 20000960 20000968 20000968     `.. `.. h.. h.. 
20000978:	20000970 20000970 20000978 20000978     p.. p.. x.. x.. 
20000988:	20000980 20000980 20000988 20000988     ... ... ... ... 
20000998:	20000990 20000990 20000998 20000998     ... ... ... ... 
200009a8:	200009a0 200009a0 200009a8 200009a8     ... ... ... ... 
200009b8:	200009b0 200009b0 200009b8 200009b8     ... ... ... ... 
200009c8:	200009c0 200009c0 200009c8 200009c8     ... ... ... ... 
200009d8:	200009d0 200009d0 200009d8 200009d8     ... ... ... ... 
200009e8:	200009e0 200009e0 200009e8 200009e8     ... ... ... ... 
200009f8:	200009f0 200009f0 200009f8 200009f8     ... ... ... ... 
20000a08:	20000a00 20000a00 20000a08 20000a08     ... ... ... ... 
20000a18:	20000a10 20000a10 20000a18 20000a18     ... ... ... ... 
20000a28:	20000a20 20000a20 20000a28 20000a28      ..  .. (.. (.. 

20000a38 <__malloc_sbrk_base>:
20000a38:	ffffffff                                ....

20000a3c <__malloc_trim_threshold>:
20000a3c:	00020000                                ....

20000a40 <print_mutex>:
	...

20000a48 <__mutex_array_end>:
20000a48:	10001b39 	.word	0x10001b39
20000a4c:	100018cd 	.word	0x100018cd
20000a50:	1000198d 	.word	0x1000198d
20000a54:	10001a99 	.word	0x10001a99

20000a58 <__frame_dummy_init_array_entry>:
20000a58:	10000301                                ....
