
hello_timer.elf:     file format elf32-littlearm

Sections:
Idx Name          Size      VMA       LMA       File off  Algn
  0 .boot2        00000100  10000000  10000000  00010000  2**0
                  CONTENTS, ALLOC, LOAD, READONLY, DATA
  1 .text         00005058  10000100  10000100  00010100  2**3
                  CONTENTS, ALLOC, LOAD, READONLY, CODE
  2 .rodata       000003c4  10005158  10005158  00015158  2**3
                  CONTENTS, ALLOC, LOAD, READONLY, DATA
  3 .binary_info  00000024  1000551c  1000551c  0001551c  2**2
                  CONTENTS, ALLOC, LOAD, DATA
  4 .ram_vector_table 000000c0  20000000  20000000  00020a6c  2**2
                  CONTENTS
  5 .data         000009ac  200000c0  10005540  000200c0  2**4
                  CONTENTS, ALLOC, LOAD, CODE
  6 .uninitialized_data 00000000  20000a6c  20000a6c  00020b2c  2**0
                  CONTENTS
  7 .scratch_x    00000000  20040000  20040000  00020b2c  2**0
                  CONTENTS
  8 .scratch_y    00000000  20041000  20041000  00020b2c  2**0
                  CONTENTS
  9 .bss          000002f0  20000a6c  20000a6c  00020a6c  2**2
                  ALLOC
 10 .heap         00000800  20000d5c  20000d5c  00020b2c  2**2
                  CONTENTS, READONLY
 11 .stack_dummy  00000800  20041000  20041000  00021340  2**5
                  CONTENTS, READONLY
 12 .ARM.attributes 00000028  00000000  00000000  00021b40  2**0
                  CONTENTS, READONLY
 13 .comment      00000079  00000000  00000000  00021b68  2**0
                  CONTENTS, READONLY
 14 .debug_frame  000002ac  00000000  00000000  00021be4  2**2
                  CONTENTS, READONLY, DEBUGGING

hello_timer.elf:     file format elf32-littlearm


Disassembly of section .text:

10000100 <__reset_start>:
10000100:	4827      	ldr	r0, [pc, #156]	; (100001a0 <__get_current_exception+0xa>)
10000102:	e000      	b.n	10000106 <__vector_entry>

10000104 <_entry_point>:
10000104:	2000      	movs	r0, #0

10000106 <__vector_entry>:
10000106:	4927      	ldr	r1, [pc, #156]	; (100001a4 <__get_current_exception+0xe>)
10000108:	6088      	str	r0, [r1, #8]
1000010a:	c806      	ldmia	r0!, {r1, r2}
1000010c:	f381 8808 	msr	MSP, r1
10000110:	4710      	bx	r2

10000112 <_reset_handler>:
10000112:	4825      	ldr	r0, [pc, #148]	; (100001a8 <__get_current_exception+0x12>)
10000114:	6800      	ldr	r0, [r0, #0]
10000116:	2800      	cmp	r0, #0
10000118:	d139      	bne.n	1000018e <wait_for_vector>
1000011a:	a412      	add	r4, pc, #72	; (adr r4, 10000164 <data_cpy_table>)
1000011c:	cc0e      	ldmia	r4!, {r1, r2, r3}
1000011e:	2900      	cmp	r1, #0
10000120:	d002      	beq.n	10000128 <_reset_handler+0x16>
10000122:	f000 f812 	bl	1000014a <data_cpy>
10000126:	e7f9      	b.n	1000011c <_reset_handler+0xa>
10000128:	4920      	ldr	r1, [pc, #128]	; (100001ac <__get_current_exception+0x16>)
1000012a:	4a21      	ldr	r2, [pc, #132]	; (100001b0 <__get_current_exception+0x1a>)
1000012c:	2000      	movs	r0, #0
1000012e:	e000      	b.n	10000132 <bss_fill_test>

10000130 <bss_fill_loop>:
10000130:	c101      	stmia	r1!, {r0}

10000132 <bss_fill_test>:
10000132:	4291      	cmp	r1, r2
10000134:	d1fc      	bne.n	10000130 <bss_fill_loop>

10000136 <platform_entry>:
10000136:	491f      	ldr	r1, [pc, #124]	; (100001b4 <__get_current_exception+0x1e>)
10000138:	4788      	blx	r1
1000013a:	491f      	ldr	r1, [pc, #124]	; (100001b8 <__get_current_exception+0x22>)
1000013c:	4788      	blx	r1
1000013e:	491f      	ldr	r1, [pc, #124]	; (100001bc <__get_current_exception+0x26>)
10000140:	4788      	blx	r1
10000142:	be00      	bkpt	0x0000
10000144:	e7fd      	b.n	10000142 <platform_entry+0xc>

10000146 <data_cpy_loop>:
10000146:	c901      	ldmia	r1!, {r0}
10000148:	c201      	stmia	r2!, {r0}

1000014a <data_cpy>:
1000014a:	429a      	cmp	r2, r3
1000014c:	d3fb      	bcc.n	10000146 <data_cpy_loop>
1000014e:	4770      	bx	lr

10000150 <binary_info_header>:
10000150:	7188ebf2 	.word	0x7188ebf2
10000154:	1000551c 	.word	0x1000551c
10000158:	10005540 	.word	0x10005540
1000015c:	10000164 	.word	0x10000164
10000160:	e71aa390 	.word	0xe71aa390

10000164 <data_cpy_table>:
10000164:	10005540 	.word	0x10005540
10000168:	200000c0 	.word	0x200000c0
1000016c:	20000a6c 	.word	0x20000a6c
10000170:	10005eec 	.word	0x10005eec
10000174:	20040000 	.word	0x20040000
10000178:	20040000 	.word	0x20040000
1000017c:	10005eec 	.word	0x10005eec
10000180:	20041000 	.word	0x20041000
10000184:	20041000 	.word	0x20041000
10000188:	00000000 	.word	0x00000000
1000018c:	4770      	bx	lr

1000018e <wait_for_vector>:
1000018e:	480c      	ldr	r0, [pc, #48]	; (100001c0 <__get_current_exception+0x2a>)
10000190:	f003 f9d8 	bl	10003544 <rom_func_lookup>
10000194:	4700      	bx	r0

10000196 <__get_current_exception>:
10000196:	f3ef 8005 	mrs	r0, IPSR
1000019a:	b2c0      	uxtb	r0, r0
1000019c:	4770      	bx	lr
1000019e:	0000      	.short	0x0000
100001a0:	10000200 	.word	0x10000200
100001a4:	e000ed00 	.word	0xe000ed00
100001a8:	d0000000 	.word	0xd0000000
100001ac:	20000a6c 	.word	0x20000a6c
100001b0:	20000d5c 	.word	0x20000d5c
100001b4:	100016d5 	.word	0x100016d5
100001b8:	10000359 	.word	0x10000359
100001bc:	100017f5 	.word	0x100017f5
100001c0:	00005657 	.word	0x00005657

100001c4 <__bi_46>:
100001c4:	50520006 5360b3ab 1000548c              ..RP..`S.T..

100001d0 <__bi_34>:
100001d0:	50520006 02031c86 1000549c              ..RP.....T..

100001dc <__bi_26>:
100001dc:	50520006 9da22254 100054a8              ..RPT"...T..

100001e8 <__bi_18>:
100001e8:	50520005 68f465de 10005eec 00000000     ..RP.e.h.^......
	...

10000200 <__reset_end>:
10000200:	20042000 	.word	0x20042000
10000204:	10000113 	.word	0x10000113
10000208:	100002c3 	.word	0x100002c3
1000020c:	100002c5 	.word	0x100002c5
10000210:	100002c1 	.word	0x100002c1
10000214:	100002c1 	.word	0x100002c1
10000218:	100002c1 	.word	0x100002c1
1000021c:	100002c1 	.word	0x100002c1
10000220:	100002c1 	.word	0x100002c1
10000224:	100002c1 	.word	0x100002c1
10000228:	100002c1 	.word	0x100002c1
1000022c:	100002c7 	.word	0x100002c7
10000230:	100002c1 	.word	0x100002c1
10000234:	100002c1 	.word	0x100002c1
10000238:	100002c9 	.word	0x100002c9
1000023c:	100002cb 	.word	0x100002cb
10000240:	100002cd 	.word	0x100002cd
10000244:	100002cd 	.word	0x100002cd
10000248:	100002cd 	.word	0x100002cd
1000024c:	100002cd 	.word	0x100002cd
10000250:	100002cd 	.word	0x100002cd
10000254:	100002cd 	.word	0x100002cd
10000258:	100002cd 	.word	0x100002cd
1000025c:	100002cd 	.word	0x100002cd
10000260:	100002cd 	.word	0x100002cd
10000264:	100002cd 	.word	0x100002cd
10000268:	100002cd 	.word	0x100002cd
1000026c:	100002cd 	.word	0x100002cd
10000270:	100002cd 	.word	0x100002cd
10000274:	100002cd 	.word	0x100002cd
10000278:	100002cd 	.word	0x100002cd
1000027c:	100002cd 	.word	0x100002cd
10000280:	100002cd 	.word	0x100002cd
10000284:	100002cd 	.word	0x100002cd
10000288:	100002cd 	.word	0x100002cd
1000028c:	100002cd 	.word	0x100002cd
10000290:	100002cd 	.word	0x100002cd
10000294:	100002cd 	.word	0x100002cd
10000298:	100002cd 	.word	0x100002cd
1000029c:	100002cd 	.word	0x100002cd
100002a0:	100002cd 	.word	0x100002cd
100002a4:	100002cd 	.word	0x100002cd
100002a8:	100002cd 	.word	0x100002cd
100002ac:	100002cd 	.word	0x100002cd
100002b0:	100002cd 	.word	0x100002cd
100002b4:	100002cd 	.word	0x100002cd
100002b8:	100002cd 	.word	0x100002cd
100002bc:	100002cd 	.word	0x100002cd

100002c0 <isr_invalid>:
100002c0:	be00      	bkpt	0x0000

100002c2 <isr_nmi>:
100002c2:	be00      	bkpt	0x0000

100002c4 <isr_hardfault>:
100002c4:	be00      	bkpt	0x0000

100002c6 <isr_svcall>:
100002c6:	be00      	bkpt	0x0000

100002c8 <isr_pendsv>:
100002c8:	be00      	bkpt	0x0000

100002ca <isr_systick>:
100002ca:	be00      	bkpt	0x0000

100002cc <__unhandled_user_irq>:
100002cc:	f7ff ff63 	bl	10000196 <__get_current_exception>
100002d0:	3810      	subs	r0, #16

100002d2 <unhandled_user_irq_num_in_r0>:
100002d2:	be00      	bkpt	0x0000

100002d4 <_init>:
100002d4:	b5f8      	push	{r3, r4, r5, r6, r7, lr}
100002d6:	46c0      	nop			; (mov r8, r8)

100002d8 <__do_global_dtors_aux>:
100002d8:	b510      	push	{r4, lr}
100002da:	4c06      	ldr	r4, [pc, #24]	; (100002f4 <__do_global_dtors_aux+0x1c>)
100002dc:	7823      	ldrb	r3, [r4, #0]
100002de:	2b00      	cmp	r3, #0
100002e0:	d107      	bne.n	100002f2 <__do_global_dtors_aux+0x1a>
100002e2:	4b05      	ldr	r3, [pc, #20]	; (100002f8 <__do_global_dtors_aux+0x20>)
100002e4:	2b00      	cmp	r3, #0
100002e6:	d002      	beq.n	100002ee <__do_global_dtors_aux+0x16>
100002e8:	4804      	ldr	r0, [pc, #16]	; (100002fc <__do_global_dtors_aux+0x24>)
100002ea:	e000      	b.n	100002ee <__do_global_dtors_aux+0x16>
100002ec:	bf00      	nop
100002ee:	2301      	movs	r3, #1
100002f0:	7023      	strb	r3, [r4, #0]
100002f2:	bd10      	pop	{r4, pc}
100002f4:	20000a6c 	.word	0x20000a6c
100002f8:	00000000 	.word	0x00000000
100002fc:	10005158 	.word	0x10005158

10000300 <frame_dummy>:
10000300:	4b04      	ldr	r3, [pc, #16]	; (10000314 <frame_dummy+0x14>)
10000302:	b510      	push	{r4, lr}
10000304:	2b00      	cmp	r3, #0
10000306:	d003      	beq.n	10000310 <frame_dummy+0x10>
10000308:	4903      	ldr	r1, [pc, #12]	; (10000318 <frame_dummy+0x18>)
1000030a:	4804      	ldr	r0, [pc, #16]	; (1000031c <frame_dummy+0x1c>)
1000030c:	e000      	b.n	10000310 <frame_dummy+0x10>
1000030e:	bf00      	nop
10000310:	bd10      	pop	{r4, pc}
10000312:	46c0      	nop			; (mov r8, r8)
10000314:	00000000 	.word	0x00000000
10000318:	20000a70 	.word	0x20000a70
1000031c:	10005158 	.word	0x10005158

10000320 <alarm_callback>:
10000320:	0001      	movs	r1, r0
10000322:	b510      	push	{r4, lr}
10000324:	4804      	ldr	r0, [pc, #16]	; (10000338 <alarm_callback+0x18>)
10000326:	f004 f9fb 	bl	10004720 <__wrap_printf>
1000032a:	2201      	movs	r2, #1
1000032c:	4b03      	ldr	r3, [pc, #12]	; (1000033c <alarm_callback+0x1c>)
1000032e:	2000      	movs	r0, #0
10000330:	2100      	movs	r1, #0
10000332:	701a      	strb	r2, [r3, #0]
10000334:	bd10      	pop	{r4, pc}
10000336:	46c0      	nop			; (mov r8, r8)
10000338:	10005158 	.word	0x10005158
1000033c:	20000b2b 	.word	0x20000b2b

10000340 <repeating_timer_callback>:
10000340:	b510      	push	{r4, lr}
10000342:	f000 fecb 	bl	100010dc <time_us_64>
10000346:	0002      	movs	r2, r0
10000348:	000b      	movs	r3, r1
1000034a:	4802      	ldr	r0, [pc, #8]	; (10000354 <repeating_timer_callback+0x14>)
1000034c:	f004 f9e8 	bl	10004720 <__wrap_printf>
10000350:	2001      	movs	r0, #1
10000352:	bd10      	pop	{r4, pc}
10000354:	1000516c 	.word	0x1000516c

10000358 <main>:
10000358:	b570      	push	{r4, r5, r6, lr}
1000035a:	b08a      	sub	sp, #40	; 0x28
1000035c:	f004 f9ec 	bl	10004738 <stdio_init_all>
10000360:	482e      	ldr	r0, [pc, #184]	; (1000041c <main+0xc4>)
10000362:	f004 f92d 	bl	100045c0 <__wrap_puts>
10000366:	f000 fbc5 	bl	10000af4 <alarm_pool_get_default>
1000036a:	0006      	movs	r6, r0
1000036c:	f000 feb6 	bl	100010dc <time_us_64>
10000370:	2300      	movs	r3, #0
10000372:	0004      	movs	r4, r0
10000374:	000d      	movs	r5, r1
10000376:	4a2a      	ldr	r2, [pc, #168]	; (10000420 <main+0xc8>)
10000378:	1912      	adds	r2, r2, r4
1000037a:	416b      	adcs	r3, r5
1000037c:	4299      	cmp	r1, r3
1000037e:	d848      	bhi.n	10000412 <main+0xba>
10000380:	d045      	beq.n	1000040e <main+0xb6>
10000382:	2100      	movs	r1, #0
10000384:	9102      	str	r1, [sp, #8]
10000386:	9101      	str	r1, [sp, #4]
10000388:	4926      	ldr	r1, [pc, #152]	; (10000424 <main+0xcc>)
1000038a:	0030      	movs	r0, r6
1000038c:	9100      	str	r1, [sp, #0]
1000038e:	f000 fbb7 	bl	10000b00 <alarm_pool_add_alarm_at>
10000392:	4a25      	ldr	r2, [pc, #148]	; (10000428 <main+0xd0>)
10000394:	7813      	ldrb	r3, [r2, #0]
10000396:	2b00      	cmp	r3, #0
10000398:	d0fc      	beq.n	10000394 <main+0x3c>
1000039a:	2600      	movs	r6, #0
1000039c:	f000 fbaa 	bl	10000af4 <alarm_pool_get_default>
100003a0:	4d22      	ldr	r5, [pc, #136]	; (1000042c <main+0xd4>)
100003a2:	ab04      	add	r3, sp, #16
100003a4:	4a22      	ldr	r2, [pc, #136]	; (10000430 <main+0xd8>)
100003a6:	9302      	str	r3, [sp, #8]
100003a8:	9601      	str	r6, [sp, #4]
100003aa:	2300      	movs	r3, #0
100003ac:	9500      	str	r5, [sp, #0]
100003ae:	f000 fc83 	bl	10000cb8 <alarm_pool_add_repeating_timer_us>
100003b2:	4820      	ldr	r0, [pc, #128]	; (10000434 <main+0xdc>)
100003b4:	f000 fdd6 	bl	10000f64 <sleep_ms>
100003b8:	a804      	add	r0, sp, #16
100003ba:	f000 fd8d 	bl	10000ed8 <cancel_repeating_timer>
100003be:	4c1e      	ldr	r4, [pc, #120]	; (10000438 <main+0xe0>)
100003c0:	0001      	movs	r1, r0
100003c2:	0020      	movs	r0, r4
100003c4:	f004 f9ac 	bl	10004720 <__wrap_printf>
100003c8:	20fa      	movs	r0, #250	; 0xfa
100003ca:	00c0      	lsls	r0, r0, #3
100003cc:	f000 fdca 	bl	10000f64 <sleep_ms>
100003d0:	f000 fb90 	bl	10000af4 <alarm_pool_get_default>
100003d4:	ab04      	add	r3, sp, #16
100003d6:	9302      	str	r3, [sp, #8]
100003d8:	2301      	movs	r3, #1
100003da:	4a18      	ldr	r2, [pc, #96]	; (1000043c <main+0xe4>)
100003dc:	425b      	negs	r3, r3
100003de:	9601      	str	r6, [sp, #4]
100003e0:	9500      	str	r5, [sp, #0]
100003e2:	f000 fc69 	bl	10000cb8 <alarm_pool_add_repeating_timer_us>
100003e6:	4813      	ldr	r0, [pc, #76]	; (10000434 <main+0xdc>)
100003e8:	f000 fdbc 	bl	10000f64 <sleep_ms>
100003ec:	a804      	add	r0, sp, #16
100003ee:	f000 fd73 	bl	10000ed8 <cancel_repeating_timer>
100003f2:	0001      	movs	r1, r0
100003f4:	0020      	movs	r0, r4
100003f6:	f004 f993 	bl	10004720 <__wrap_printf>
100003fa:	20fa      	movs	r0, #250	; 0xfa
100003fc:	00c0      	lsls	r0, r0, #3
100003fe:	f000 fdb1 	bl	10000f64 <sleep_ms>
10000402:	480f      	ldr	r0, [pc, #60]	; (10000440 <main+0xe8>)
10000404:	f004 f8dc 	bl	100045c0 <__wrap_puts>
10000408:	2000      	movs	r0, #0
1000040a:	b00a      	add	sp, #40	; 0x28
1000040c:	bd70      	pop	{r4, r5, r6, pc}
1000040e:	4290      	cmp	r0, r2
10000410:	d9b7      	bls.n	10000382 <main+0x2a>
10000412:	2201      	movs	r2, #1
10000414:	4252      	negs	r2, r2
10000416:	17d3      	asrs	r3, r2, #31
10000418:	e7b3      	b.n	10000382 <main+0x2a>
1000041a:	46c0      	nop			; (mov r8, r8)
1000041c:	1000517c 	.word	0x1000517c
10000420:	001e8480 	.word	0x001e8480
10000424:	10000321 	.word	0x10000321
10000428:	20000b2b 	.word	0x20000b2b
1000042c:	10000341 	.word	0x10000341
10000430:	0007a120 	.word	0x0007a120
10000434:	00000bb8 	.word	0x00000bb8
10000438:	1000518c 	.word	0x1000518c
1000043c:	fff85ee0 	.word	0xfff85ee0
10000440:	100051a0 	.word	0x100051a0

10000444 <gpio_set_function>:
10000444:	4a09      	ldr	r2, [pc, #36]	; (1000046c <gpio_set_function+0x28>)
10000446:	0083      	lsls	r3, r0, #2
10000448:	4694      	mov	ip, r2
1000044a:	2240      	movs	r2, #64	; 0x40
1000044c:	4463      	add	r3, ip
1000044e:	b510      	push	{r4, lr}
10000450:	681c      	ldr	r4, [r3, #0]
10000452:	00c0      	lsls	r0, r0, #3
10000454:	4062      	eors	r2, r4
10000456:	24c0      	movs	r4, #192	; 0xc0
10000458:	4014      	ands	r4, r2
1000045a:	2280      	movs	r2, #128	; 0x80
1000045c:	0152      	lsls	r2, r2, #5
1000045e:	4313      	orrs	r3, r2
10000460:	601c      	str	r4, [r3, #0]
10000462:	4b03      	ldr	r3, [pc, #12]	; (10000470 <gpio_set_function+0x2c>)
10000464:	469c      	mov	ip, r3
10000466:	4460      	add	r0, ip
10000468:	6041      	str	r1, [r0, #4]
1000046a:	bd10      	pop	{r4, pc}
1000046c:	4001c004 	.word	0x4001c004
10000470:	40014000 	.word	0x40014000

10000474 <hw_claim_or_assert>:
10000474:	b5f8      	push	{r3, r4, r5, r6, r7, lr}
10000476:	46ce      	mov	lr, r9
10000478:	4647      	mov	r7, r8
1000047a:	4691      	mov	r9, r2
1000047c:	b580      	push	{r7, lr}
1000047e:	f3ef 8710 	mrs	r7, PRIMASK
10000482:	b672      	cpsid	i
10000484:	4e12      	ldr	r6, [pc, #72]	; (100004d0 <hw_claim_or_assert+0x5c>)
10000486:	6833      	ldr	r3, [r6, #0]
10000488:	2b00      	cmp	r3, #0
1000048a:	d0fc      	beq.n	10000486 <hw_claim_or_assert+0x12>
1000048c:	f3bf 8f5f 	dmb	sy
10000490:	08cb      	lsrs	r3, r1, #3
10000492:	5cc5      	ldrb	r5, [r0, r3]
10000494:	2407      	movs	r4, #7
10000496:	18c2      	adds	r2, r0, r3
10000498:	0028      	movs	r0, r5
1000049a:	2301      	movs	r3, #1
1000049c:	400c      	ands	r4, r1
1000049e:	4694      	mov	ip, r2
100004a0:	40e0      	lsrs	r0, r4
100004a2:	001a      	movs	r2, r3
100004a4:	4002      	ands	r2, r0
100004a6:	4690      	mov	r8, r2
100004a8:	4203      	tst	r3, r0
100004aa:	d10d      	bne.n	100004c8 <hw_claim_or_assert+0x54>
100004ac:	40a3      	lsls	r3, r4
100004ae:	4662      	mov	r2, ip
100004b0:	432b      	orrs	r3, r5
100004b2:	7013      	strb	r3, [r2, #0]
100004b4:	f3bf 8f5f 	dmb	sy
100004b8:	4643      	mov	r3, r8
100004ba:	6033      	str	r3, [r6, #0]
100004bc:	f387 8810 	msr	PRIMASK, r7
100004c0:	bc0c      	pop	{r2, r3}
100004c2:	4690      	mov	r8, r2
100004c4:	4699      	mov	r9, r3
100004c6:	bdf8      	pop	{r3, r4, r5, r6, r7, pc}
100004c8:	4648      	mov	r0, r9
100004ca:	f001 f995 	bl	100017f8 <panic>
100004ce:	46c0      	nop			; (mov r8, r8)
100004d0:	d000012c 	.word	0xd000012c

100004d4 <spin_locks_reset>:
100004d4:	2100      	movs	r1, #0
100004d6:	4b04      	ldr	r3, [pc, #16]	; (100004e8 <spin_locks_reset+0x14>)
100004d8:	4a04      	ldr	r2, [pc, #16]	; (100004ec <spin_locks_reset+0x18>)
100004da:	f3bf 8f5f 	dmb	sy
100004de:	c302      	stmia	r3!, {r1}
100004e0:	4293      	cmp	r3, r2
100004e2:	d1fa      	bne.n	100004da <spin_locks_reset+0x6>
100004e4:	4770      	bx	lr
100004e6:	46c0      	nop			; (mov r8, r8)
100004e8:	d0000100 	.word	0xd0000100
100004ec:	d0000180 	.word	0xd0000180

100004f0 <next_striped_spin_lock_num>:
100004f0:	4a04      	ldr	r2, [pc, #16]	; (10000504 <next_striped_spin_lock_num+0x14>)
100004f2:	7810      	ldrb	r0, [r2, #0]
100004f4:	1c43      	adds	r3, r0, #1
100004f6:	b2db      	uxtb	r3, r3
100004f8:	2b17      	cmp	r3, #23
100004fa:	d900      	bls.n	100004fe <next_striped_spin_lock_num+0xe>
100004fc:	2310      	movs	r3, #16
100004fe:	7013      	strb	r3, [r2, #0]
10000500:	4770      	bx	lr
10000502:	46c0      	nop			; (mov r8, r8)
10000504:	20000188 	.word	0x20000188

10000508 <running_on_fpga>:
10000508:	4b02      	ldr	r3, [pc, #8]	; (10000514 <running_on_fpga+0xc>)
1000050a:	6818      	ldr	r0, [r3, #0]
1000050c:	0780      	lsls	r0, r0, #30
1000050e:	0fc0      	lsrs	r0, r0, #31
10000510:	4770      	bx	lr
10000512:	46c0      	nop			; (mov r8, r8)
10000514:	4006c000 	.word	0x4006c000

10000518 <uart_init>:
10000518:	b5f0      	push	{r4, r5, r6, r7, lr}
1000051a:	46c6      	mov	lr, r8
1000051c:	0005      	movs	r5, r0
1000051e:	b500      	push	{lr}
10000520:	2006      	movs	r0, #6
10000522:	000e      	movs	r6, r1
10000524:	f001 faf6 	bl	10001b14 <clock_get_hz>
10000528:	2800      	cmp	r0, #0
1000052a:	d04d      	beq.n	100005c8 <uart_init+0xb0>
1000052c:	4b29      	ldr	r3, [pc, #164]	; (100005d4 <uart_init+0xbc>)
1000052e:	492a      	ldr	r1, [pc, #168]	; (100005d8 <uart_init+0xc0>)
10000530:	18eb      	adds	r3, r5, r3
10000532:	425a      	negs	r2, r3
10000534:	4153      	adcs	r3, r2
10000536:	2280      	movs	r2, #128	; 0x80
10000538:	03d2      	lsls	r2, r2, #15
1000053a:	4694      	mov	ip, r2
1000053c:	425b      	negs	r3, r3
1000053e:	4013      	ands	r3, r2
10000540:	4a26      	ldr	r2, [pc, #152]	; (100005dc <uart_init+0xc4>)
10000542:	4463      	add	r3, ip
10000544:	6013      	str	r3, [r2, #0]
10000546:	4a26      	ldr	r2, [pc, #152]	; (100005e0 <uart_init+0xc8>)
10000548:	6013      	str	r3, [r2, #0]
1000054a:	001c      	movs	r4, r3
1000054c:	688a      	ldr	r2, [r1, #8]
1000054e:	4394      	bics	r4, r2
10000550:	d1fb      	bne.n	1000054a <uart_init+0x32>
10000552:	4b20      	ldr	r3, [pc, #128]	; (100005d4 <uart_init+0xbc>)
10000554:	2180      	movs	r1, #128	; 0x80
10000556:	18eb      	adds	r3, r5, r3
10000558:	425a      	negs	r2, r3
1000055a:	4153      	adcs	r3, r2
1000055c:	4a21      	ldr	r2, [pc, #132]	; (100005e4 <uart_init+0xcc>)
1000055e:	005b      	lsls	r3, r3, #1
10000560:	0049      	lsls	r1, r1, #1
10000562:	2006      	movs	r0, #6
10000564:	5299      	strh	r1, [r3, r2]
10000566:	f001 fad5 	bl	10001b14 <clock_get_hz>
1000056a:	0031      	movs	r1, r6
1000056c:	00c0      	lsls	r0, r0, #3
1000056e:	f003 f843 	bl	100035f8 <__wrap___aeabi_uidiv>
10000572:	267f      	movs	r6, #127	; 0x7f
10000574:	4b1c      	ldr	r3, [pc, #112]	; (100005e8 <uart_init+0xd0>)
10000576:	4006      	ands	r6, r0
10000578:	09c7      	lsrs	r7, r0, #7
1000057a:	3601      	adds	r6, #1
1000057c:	0876      	lsrs	r6, r6, #1
1000057e:	626f      	str	r7, [r5, #36]	; 0x24
10000580:	429f      	cmp	r7, r3
10000582:	d024      	beq.n	100005ce <uart_init+0xb6>
10000584:	62ae      	str	r6, [r5, #40]	; 0x28
10000586:	232c      	movs	r3, #44	; 0x2c
10000588:	4698      	mov	r8, r3
1000058a:	2480      	movs	r4, #128	; 0x80
1000058c:	44a8      	add	r8, r5
1000058e:	4643      	mov	r3, r8
10000590:	01a4      	lsls	r4, r4, #6
10000592:	431c      	orrs	r4, r3
10000594:	2300      	movs	r3, #0
10000596:	2006      	movs	r0, #6
10000598:	6023      	str	r3, [r4, #0]
1000059a:	f001 fabb 	bl	10001b14 <clock_get_hz>
1000059e:	01b9      	lsls	r1, r7, #6
100005a0:	1989      	adds	r1, r1, r6
100005a2:	0080      	lsls	r0, r0, #2
100005a4:	f003 f828 	bl	100035f8 <__wrap___aeabi_uidiv>
100005a8:	2360      	movs	r3, #96	; 0x60
100005aa:	6aea      	ldr	r2, [r5, #44]	; 0x2c
100005ac:	4641      	mov	r1, r8
100005ae:	4053      	eors	r3, r2
100005b0:	226e      	movs	r2, #110	; 0x6e
100005b2:	401a      	ands	r2, r3
100005b4:	2380      	movs	r3, #128	; 0x80
100005b6:	015b      	lsls	r3, r3, #5
100005b8:	430b      	orrs	r3, r1
100005ba:	601a      	str	r2, [r3, #0]
100005bc:	4b0b      	ldr	r3, [pc, #44]	; (100005ec <uart_init+0xd4>)
100005be:	632b      	str	r3, [r5, #48]	; 0x30
100005c0:	2310      	movs	r3, #16
100005c2:	6023      	str	r3, [r4, #0]
100005c4:	3b0d      	subs	r3, #13
100005c6:	64ab      	str	r3, [r5, #72]	; 0x48
100005c8:	bc04      	pop	{r2}
100005ca:	4690      	mov	r8, r2
100005cc:	bdf0      	pop	{r4, r5, r6, r7, pc}
100005ce:	62ac      	str	r4, [r5, #40]	; 0x28
100005d0:	e7d9      	b.n	10000586 <uart_init+0x6e>
100005d2:	46c0      	nop			; (mov r8, r8)
100005d4:	bffc8000 	.word	0xbffc8000
100005d8:	4000c000 	.word	0x4000c000
100005dc:	4000e000 	.word	0x4000e000
100005e0:	4000f000 	.word	0x4000f000
100005e4:	20000b2c 	.word	0x20000b2c
100005e8:	0000ffff 	.word	0x0000ffff
100005ec:	00000301 	.word	0x00000301

100005f0 <timer_pool_entry_comparator>:
100005f0:	6883      	ldr	r3, [r0, #8]
100005f2:	480b      	ldr	r0, [pc, #44]	; (10000620 <timer_pool_entry_comparator+0x30>)
100005f4:	b510      	push	{r4, lr}
100005f6:	4684      	mov	ip, r0
100005f8:	4461      	add	r1, ip
100005fa:	4462      	add	r2, ip
100005fc:	0109      	lsls	r1, r1, #4
100005fe:	0112      	lsls	r2, r2, #4
10000600:	189a      	adds	r2, r3, r2
10000602:	1859      	adds	r1, r3, r1
10000604:	6854      	ldr	r4, [r2, #4]
10000606:	684b      	ldr	r3, [r1, #4]
10000608:	2001      	movs	r0, #1
1000060a:	429c      	cmp	r4, r3
1000060c:	d801      	bhi.n	10000612 <timer_pool_entry_comparator+0x22>
1000060e:	d002      	beq.n	10000616 <timer_pool_entry_comparator+0x26>
10000610:	2000      	movs	r0, #0
10000612:	b2c0      	uxtb	r0, r0
10000614:	bd10      	pop	{r4, pc}
10000616:	6812      	ldr	r2, [r2, #0]
10000618:	680b      	ldr	r3, [r1, #0]
1000061a:	429a      	cmp	r2, r3
1000061c:	d8f9      	bhi.n	10000612 <timer_pool_entry_comparator+0x22>
1000061e:	e7f7      	b.n	10000610 <timer_pool_entry_comparator+0x20>
10000620:	0fffffff 	.word	0x0fffffff

10000624 <repeating_timer_callback>:
10000624:	b510      	push	{r4, lr}
10000626:	0008      	movs	r0, r1
10000628:	690b      	ldr	r3, [r1, #16]
1000062a:	000c      	movs	r4, r1
1000062c:	4798      	blx	r3
1000062e:	2800      	cmp	r0, #0
10000630:	d002      	beq.n	10000638 <repeating_timer_callback+0x14>
10000632:	6820      	ldr	r0, [r4, #0]
10000634:	6861      	ldr	r1, [r4, #4]
10000636:	bd10      	pop	{r4, pc}
10000638:	60e0      	str	r0, [r4, #12]
1000063a:	2100      	movs	r1, #0
1000063c:	2000      	movs	r0, #0
1000063e:	e7fa      	b.n	10000636 <repeating_timer_callback+0x12>

10000640 <sev_callback>:
10000640:	bf40      	sev
10000642:	2000      	movs	r0, #0
10000644:	2100      	movs	r1, #0
10000646:	4770      	bx	lr

10000648 <add_alarm_under_lock>:
10000648:	b5f0      	push	{r4, r5, r6, r7, lr}
1000064a:	4657      	mov	r7, sl
1000064c:	4645      	mov	r5, r8
1000064e:	46de      	mov	lr, fp
10000650:	464e      	mov	r6, r9
10000652:	b5e0      	push	{r5, r6, r7, lr}
10000654:	b083      	sub	sp, #12
10000656:	001f      	movs	r7, r3
10000658:	ab0f      	add	r3, sp, #60	; 0x3c
1000065a:	781b      	ldrb	r3, [r3, #0]
1000065c:	9c0e      	ldr	r4, [sp, #56]	; 0x38
1000065e:	0005      	movs	r5, r0
10000660:	4692      	mov	sl, r2
10000662:	9301      	str	r3, [sp, #4]
10000664:	2c00      	cmp	r4, #0
10000666:	d10d      	bne.n	10000684 <add_alarm_under_lock+0x3c>
10000668:	6802      	ldr	r2, [r0, #0]
1000066a:	7b94      	ldrb	r4, [r2, #14]
1000066c:	2c00      	cmp	r4, #0
1000066e:	d056      	beq.n	1000071e <add_alarm_under_lock+0xd6>
10000670:	6811      	ldr	r1, [r2, #0]
10000672:	0063      	lsls	r3, r4, #1
10000674:	468c      	mov	ip, r1
10000676:	191b      	adds	r3, r3, r4
10000678:	4463      	add	r3, ip
1000067a:	3b03      	subs	r3, #3
1000067c:	785b      	ldrb	r3, [r3, #1]
1000067e:	7393      	strb	r3, [r2, #14]
10000680:	2b00      	cmp	r3, #0
10000682:	d054      	beq.n	1000072e <add_alarm_under_lock+0xe6>
10000684:	68aa      	ldr	r2, [r5, #8]
10000686:	b2e3      	uxtb	r3, r4
10000688:	4694      	mov	ip, r2
1000068a:	4652      	mov	r2, sl
1000068c:	469b      	mov	fp, r3
1000068e:	4b38      	ldr	r3, [pc, #224]	; (10000770 <add_alarm_under_lock+0x128>)
10000690:	682e      	ldr	r6, [r5, #0]
10000692:	18e3      	adds	r3, r4, r3
10000694:	011b      	lsls	r3, r3, #4
10000696:	4463      	add	r3, ip
10000698:	601a      	str	r2, [r3, #0]
1000069a:	9a0c      	ldr	r2, [sp, #48]	; 0x30
1000069c:	605f      	str	r7, [r3, #4]
1000069e:	609a      	str	r2, [r3, #8]
100006a0:	9a0d      	ldr	r2, [sp, #52]	; 0x34
100006a2:	60da      	str	r2, [r3, #12]
100006a4:	23d0      	movs	r3, #208	; 0xd0
100006a6:	2280      	movs	r2, #128	; 0x80
100006a8:	061b      	lsls	r3, r3, #24
100006aa:	0312      	lsls	r2, r2, #12
100006ac:	615a      	str	r2, [r3, #20]
100006ae:	0063      	lsls	r3, r4, #1
100006b0:	191b      	adds	r3, r3, r4
100006b2:	3b03      	subs	r3, #3
100006b4:	4698      	mov	r8, r3
100006b6:	2200      	movs	r2, #0
100006b8:	6833      	ldr	r3, [r6, #0]
100006ba:	4443      	add	r3, r8
100006bc:	709a      	strb	r2, [r3, #2]
100006be:	705a      	strb	r2, [r3, #1]
100006c0:	701a      	strb	r2, [r3, #0]
100006c2:	7b73      	ldrb	r3, [r6, #13]
100006c4:	4699      	mov	r9, r3
100006c6:	2b00      	cmp	r3, #0
100006c8:	d017      	beq.n	100006fa <add_alarm_under_lock+0xb2>
100006ca:	465a      	mov	r2, fp
100006cc:	0019      	movs	r1, r3
100006ce:	68b0      	ldr	r0, [r6, #8]
100006d0:	6873      	ldr	r3, [r6, #4]
100006d2:	4798      	blx	r3
100006d4:	6832      	ldr	r2, [r6, #0]
100006d6:	2800      	cmp	r0, #0
100006d8:	d12b      	bne.n	10000732 <add_alarm_under_lock+0xea>
100006da:	4643      	mov	r3, r8
100006dc:	18d1      	adds	r1, r2, r3
100006de:	464b      	mov	r3, r9
100006e0:	4658      	mov	r0, fp
100006e2:	005b      	lsls	r3, r3, #1
100006e4:	444b      	add	r3, r9
100006e6:	3b03      	subs	r3, #3
100006e8:	18d3      	adds	r3, r2, r3
100006ea:	7098      	strb	r0, [r3, #2]
100006ec:	4640      	mov	r0, r8
100006ee:	5c12      	ldrb	r2, [r2, r0]
100006f0:	2a00      	cmp	r2, #0
100006f2:	d000      	beq.n	100006f6 <add_alarm_under_lock+0xae>
100006f4:	705a      	strb	r2, [r3, #1]
100006f6:	464b      	mov	r3, r9
100006f8:	700b      	strb	r3, [r1, #0]
100006fa:	465b      	mov	r3, fp
100006fc:	7373      	strb	r3, [r6, #13]
100006fe:	4652      	mov	r2, sl
10000700:	003b      	movs	r3, r7
10000702:	7d28      	ldrb	r0, [r5, #20]
10000704:	f000 fd4a 	bl	1000119c <hardware_alarm_set_target>
10000708:	1e06      	subs	r6, r0, #0
1000070a:	d002      	beq.n	10000712 <add_alarm_under_lock+0xca>
1000070c:	9b01      	ldr	r3, [sp, #4]
1000070e:	2b00      	cmp	r3, #0
10000710:	d026      	beq.n	10000760 <add_alarm_under_lock+0x118>
10000712:	9b10      	ldr	r3, [sp, #64]	; 0x40
10000714:	2b00      	cmp	r3, #0
10000716:	d028      	beq.n	1000076a <add_alarm_under_lock+0x122>
10000718:	0020      	movs	r0, r4
1000071a:	701e      	strb	r6, [r3, #0]
1000071c:	e000      	b.n	10000720 <add_alarm_under_lock+0xd8>
1000071e:	2000      	movs	r0, #0
10000720:	b003      	add	sp, #12
10000722:	bc3c      	pop	{r2, r3, r4, r5}
10000724:	4690      	mov	r8, r2
10000726:	4699      	mov	r9, r3
10000728:	46a2      	mov	sl, r4
1000072a:	46ab      	mov	fp, r5
1000072c:	bdf0      	pop	{r4, r5, r6, r7, pc}
1000072e:	73d3      	strb	r3, [r2, #15]
10000730:	e7a8      	b.n	10000684 <add_alarm_under_lock+0x3c>
10000732:	464b      	mov	r3, r9
10000734:	005b      	lsls	r3, r3, #1
10000736:	444b      	add	r3, r9
10000738:	3b03      	subs	r3, #3
1000073a:	18d1      	adds	r1, r2, r3
1000073c:	468c      	mov	ip, r1
1000073e:	4641      	mov	r1, r8
10000740:	4648      	mov	r0, r9
10000742:	1851      	adds	r1, r2, r1
10000744:	7088      	strb	r0, [r1, #2]
10000746:	5cd3      	ldrb	r3, [r2, r3]
10000748:	2b00      	cmp	r3, #0
1000074a:	d000      	beq.n	1000074e <add_alarm_under_lock+0x106>
1000074c:	704b      	strb	r3, [r1, #1]
1000074e:	465b      	mov	r3, fp
10000750:	4662      	mov	r2, ip
10000752:	7013      	strb	r3, [r2, #0]
10000754:	464b      	mov	r3, r9
10000756:	0020      	movs	r0, r4
10000758:	7373      	strb	r3, [r6, #13]
1000075a:	45a1      	cmp	r9, r4
1000075c:	d1e0      	bne.n	10000720 <add_alarm_under_lock+0xd8>
1000075e:	e7ce      	b.n	100006fe <add_alarm_under_lock+0xb6>
10000760:	4659      	mov	r1, fp
10000762:	6828      	ldr	r0, [r5, #0]
10000764:	f000 ff78 	bl	10001658 <ph_delete>
10000768:	e7d3      	b.n	10000712 <add_alarm_under_lock+0xca>
1000076a:	0020      	movs	r0, r4
1000076c:	e7d8      	b.n	10000720 <add_alarm_under_lock+0xd8>
1000076e:	46c0      	nop			; (mov r8, r8)
10000770:	0fffffff 	.word	0x0fffffff

10000774 <alarm_pool_alarm_callback>:
10000774:	b5f0      	push	{r4, r5, r6, r7, lr}
10000776:	46de      	mov	lr, fp
10000778:	464e      	mov	r6, r9
1000077a:	4657      	mov	r7, sl
1000077c:	4645      	mov	r5, r8
1000077e:	2300      	movs	r3, #0
10000780:	b5e0      	push	{r5, r6, r7, lr}
10000782:	b08d      	sub	sp, #52	; 0x34
10000784:	930a      	str	r3, [sp, #40]	; 0x28
10000786:	4b71      	ldr	r3, [pc, #452]	; (1000094c <alarm_pool_alarm_callback+0x1d8>)
10000788:	0082      	lsls	r2, r0, #2
1000078a:	58d3      	ldr	r3, [r2, r3]
1000078c:	900b      	str	r0, [sp, #44]	; 0x2c
1000078e:	4699      	mov	r9, r3
10000790:	2300      	movs	r3, #0
10000792:	469b      	mov	fp, r3
10000794:	464b      	mov	r3, r9
10000796:	9307      	str	r3, [sp, #28]
10000798:	f000 fca0 	bl	100010dc <time_us_64>
1000079c:	9c07      	ldr	r4, [sp, #28]
1000079e:	0006      	movs	r6, r0
100007a0:	000f      	movs	r7, r1
100007a2:	6862      	ldr	r2, [r4, #4]
100007a4:	f3ef 8510 	mrs	r5, PRIMASK
100007a8:	b672      	cpsid	i
100007aa:	6813      	ldr	r3, [r2, #0]
100007ac:	2b00      	cmp	r3, #0
100007ae:	d0fc      	beq.n	100007aa <alarm_pool_alarm_callback+0x36>
100007b0:	0022      	movs	r2, r4
100007b2:	9407      	str	r4, [sp, #28]
100007b4:	f3bf 8f5f 	dmb	sy
100007b8:	6824      	ldr	r4, [r4, #0]
100007ba:	7b63      	ldrb	r3, [r4, #13]
100007bc:	4699      	mov	r9, r3
100007be:	2b00      	cmp	r3, #0
100007c0:	d100      	bne.n	100007c4 <alarm_pool_alarm_callback+0x50>
100007c2:	e070      	b.n	100008a6 <alarm_pool_alarm_callback+0x132>
100007c4:	6892      	ldr	r2, [r2, #8]
100007c6:	4b62      	ldr	r3, [pc, #392]	; (10000950 <alarm_pool_alarm_callback+0x1dc>)
100007c8:	4690      	mov	r8, r2
100007ca:	444b      	add	r3, r9
100007cc:	011b      	lsls	r3, r3, #4
100007ce:	4498      	add	r8, r3
100007d0:	4643      	mov	r3, r8
100007d2:	681a      	ldr	r2, [r3, #0]
100007d4:	685b      	ldr	r3, [r3, #4]
100007d6:	0010      	movs	r0, r2
100007d8:	0019      	movs	r1, r3
100007da:	1b80      	subs	r0, r0, r6
100007dc:	41b9      	sbcs	r1, r7
100007de:	2900      	cmp	r1, #0
100007e0:	dd68      	ble.n	100008b4 <alarm_pool_alarm_callback+0x140>
100007e2:	980b      	ldr	r0, [sp, #44]	; 0x2c
100007e4:	f000 fcda 	bl	1000119c <hardware_alarm_set_target>
100007e8:	2300      	movs	r3, #0
100007ea:	2600      	movs	r6, #0
100007ec:	4698      	mov	r8, r3
100007ee:	2700      	movs	r7, #0
100007f0:	469a      	mov	sl, r3
100007f2:	9c07      	ldr	r4, [sp, #28]
100007f4:	6863      	ldr	r3, [r4, #4]
100007f6:	f3bf 8f5f 	dmb	sy
100007fa:	465a      	mov	r2, fp
100007fc:	601a      	str	r2, [r3, #0]
100007fe:	f385 8810 	msr	PRIMASK, r5
10000802:	4653      	mov	r3, sl
10000804:	2b00      	cmp	r3, #0
10000806:	d108      	bne.n	1000081a <alarm_pool_alarm_callback+0xa6>
10000808:	2800      	cmp	r0, #0
1000080a:	d1c5      	bne.n	10000798 <alarm_pool_alarm_callback+0x24>
1000080c:	b00d      	add	sp, #52	; 0x34
1000080e:	bc3c      	pop	{r2, r3, r4, r5}
10000810:	4690      	mov	r8, r2
10000812:	4699      	mov	r9, r3
10000814:	46a2      	mov	sl, r4
10000816:	46ab      	mov	fp, r5
10000818:	bdf0      	pop	{r4, r5, r6, r7, pc}
1000081a:	23d0      	movs	r3, #208	; 0xd0
1000081c:	2280      	movs	r2, #128	; 0x80
1000081e:	2180      	movs	r1, #128	; 0x80
10000820:	061b      	lsls	r3, r3, #24
10000822:	0392      	lsls	r2, r2, #14
10000824:	0309      	lsls	r1, r1, #12
10000826:	615a      	str	r2, [r3, #20]
10000828:	6199      	str	r1, [r3, #24]
1000082a:	619a      	str	r2, [r3, #24]
1000082c:	9b0a      	ldr	r3, [sp, #40]	; 0x28
1000082e:	4641      	mov	r1, r8
10000830:	0218      	lsls	r0, r3, #8
10000832:	464b      	mov	r3, r9
10000834:	4318      	orrs	r0, r3
10000836:	47d0      	blx	sl
10000838:	9008      	str	r0, [sp, #32]
1000083a:	9109      	str	r1, [sp, #36]	; 0x24
1000083c:	6862      	ldr	r2, [r4, #4]
1000083e:	f3ef 8510 	mrs	r5, PRIMASK
10000842:	b672      	cpsid	i
10000844:	6813      	ldr	r3, [r2, #0]
10000846:	2b00      	cmp	r3, #0
10000848:	d0fc      	beq.n	10000844 <alarm_pool_alarm_callback+0xd0>
1000084a:	9407      	str	r4, [sp, #28]
1000084c:	f3bf 8f5f 	dmb	sy
10000850:	9908      	ldr	r1, [sp, #32]
10000852:	9a09      	ldr	r2, [sp, #36]	; 0x24
10000854:	2a00      	cmp	r2, #0
10000856:	db49      	blt.n	100008ec <alarm_pool_alarm_callback+0x178>
10000858:	4311      	orrs	r1, r2
1000085a:	d003      	beq.n	10000864 <alarm_pool_alarm_callback+0xf0>
1000085c:	9b07      	ldr	r3, [sp, #28]
1000085e:	691b      	ldr	r3, [r3, #16]
10000860:	2b00      	cmp	r3, #0
10000862:	d15e      	bne.n	10000922 <alarm_pool_alarm_callback+0x1ae>
10000864:	9b07      	ldr	r3, [sp, #28]
10000866:	681b      	ldr	r3, [r3, #0]
10000868:	7bda      	ldrb	r2, [r3, #15]
1000086a:	2a00      	cmp	r2, #0
1000086c:	d007      	beq.n	1000087e <alarm_pool_alarm_callback+0x10a>
1000086e:	0051      	lsls	r1, r2, #1
10000870:	188a      	adds	r2, r1, r2
10000872:	6819      	ldr	r1, [r3, #0]
10000874:	468c      	mov	ip, r1
10000876:	4649      	mov	r1, r9
10000878:	4462      	add	r2, ip
1000087a:	3a03      	subs	r2, #3
1000087c:	7051      	strb	r1, [r2, #1]
1000087e:	464a      	mov	r2, r9
10000880:	73da      	strb	r2, [r3, #15]
10000882:	464b      	mov	r3, r9
10000884:	9a07      	ldr	r2, [sp, #28]
10000886:	3b01      	subs	r3, #1
10000888:	68d1      	ldr	r1, [r2, #12]
1000088a:	5cca      	ldrb	r2, [r1, r3]
1000088c:	3201      	adds	r2, #1
1000088e:	54ca      	strb	r2, [r1, r3]
10000890:	465b      	mov	r3, fp
10000892:	9a07      	ldr	r2, [sp, #28]
10000894:	6113      	str	r3, [r2, #16]
10000896:	6853      	ldr	r3, [r2, #4]
10000898:	f3bf 8f5f 	dmb	sy
1000089c:	465a      	mov	r2, fp
1000089e:	601a      	str	r2, [r3, #0]
100008a0:	f385 8810 	msr	PRIMASK, r5
100008a4:	e778      	b.n	10000798 <alarm_pool_alarm_callback+0x24>
100008a6:	2300      	movs	r3, #0
100008a8:	2600      	movs	r6, #0
100008aa:	4698      	mov	r8, r3
100008ac:	2700      	movs	r7, #0
100008ae:	469a      	mov	sl, r3
100008b0:	2000      	movs	r0, #0
100008b2:	e79e      	b.n	100007f2 <alarm_pool_alarm_callback+0x7e>
100008b4:	2900      	cmp	r1, #0
100008b6:	d102      	bne.n	100008be <alarm_pool_alarm_callback+0x14a>
100008b8:	2800      	cmp	r0, #0
100008ba:	d000      	beq.n	100008be <alarm_pool_alarm_callback+0x14a>
100008bc:	e791      	b.n	100007e2 <alarm_pool_alarm_callback+0x6e>
100008be:	2101      	movs	r1, #1
100008c0:	0020      	movs	r0, r4
100008c2:	f000 fe2b 	bl	1000151c <ph_remove_head_reserve>
100008c6:	4643      	mov	r3, r8
100008c8:	681e      	ldr	r6, [r3, #0]
100008ca:	685f      	ldr	r7, [r3, #4]
100008cc:	689b      	ldr	r3, [r3, #8]
100008ce:	9a07      	ldr	r2, [sp, #28]
100008d0:	469a      	mov	sl, r3
100008d2:	4643      	mov	r3, r8
100008d4:	68db      	ldr	r3, [r3, #12]
100008d6:	4698      	mov	r8, r3
100008d8:	68d3      	ldr	r3, [r2, #12]
100008da:	444b      	add	r3, r9
100008dc:	3b01      	subs	r3, #1
100008de:	781b      	ldrb	r3, [r3, #0]
100008e0:	930a      	str	r3, [sp, #40]	; 0x28
100008e2:	021b      	lsls	r3, r3, #8
100008e4:	4303      	orrs	r3, r0
100008e6:	6113      	str	r3, [r2, #16]
100008e8:	2000      	movs	r0, #0
100008ea:	e782      	b.n	100007f2 <alarm_pool_alarm_callback+0x7e>
100008ec:	6923      	ldr	r3, [r4, #16]
100008ee:	2b00      	cmp	r3, #0
100008f0:	d0b8      	beq.n	10000864 <alarm_pool_alarm_callback+0xf0>
100008f2:	0033      	movs	r3, r6
100008f4:	003c      	movs	r4, r7
100008f6:	1a5b      	subs	r3, r3, r1
100008f8:	4194      	sbcs	r4, r2
100008fa:	001a      	movs	r2, r3
100008fc:	0023      	movs	r3, r4
100008fe:	42a7      	cmp	r7, r4
10000900:	d819      	bhi.n	10000936 <alarm_pool_alarm_callback+0x1c2>
10000902:	429f      	cmp	r7, r3
10000904:	d01b      	beq.n	1000093e <alarm_pool_alarm_callback+0x1ca>
10000906:	4659      	mov	r1, fp
10000908:	9104      	str	r1, [sp, #16]
1000090a:	2101      	movs	r1, #1
1000090c:	9103      	str	r1, [sp, #12]
1000090e:	4649      	mov	r1, r9
10000910:	9102      	str	r1, [sp, #8]
10000912:	4641      	mov	r1, r8
10000914:	9101      	str	r1, [sp, #4]
10000916:	4651      	mov	r1, sl
10000918:	9807      	ldr	r0, [sp, #28]
1000091a:	9100      	str	r1, [sp, #0]
1000091c:	f7ff fe94 	bl	10000648 <add_alarm_under_lock>
10000920:	e7b6      	b.n	10000890 <alarm_pool_alarm_callback+0x11c>
10000922:	f000 fbdb 	bl	100010dc <time_us_64>
10000926:	9a08      	ldr	r2, [sp, #32]
10000928:	9b09      	ldr	r3, [sp, #36]	; 0x24
1000092a:	0006      	movs	r6, r0
1000092c:	000f      	movs	r7, r1
1000092e:	1992      	adds	r2, r2, r6
10000930:	417b      	adcs	r3, r7
10000932:	4299      	cmp	r1, r3
10000934:	d9e5      	bls.n	10000902 <alarm_pool_alarm_callback+0x18e>
10000936:	2201      	movs	r2, #1
10000938:	4252      	negs	r2, r2
1000093a:	17d3      	asrs	r3, r2, #31
1000093c:	e7e3      	b.n	10000906 <alarm_pool_alarm_callback+0x192>
1000093e:	4296      	cmp	r6, r2
10000940:	d9e1      	bls.n	10000906 <alarm_pool_alarm_callback+0x192>
10000942:	2201      	movs	r2, #1
10000944:	4252      	negs	r2, r2
10000946:	17d3      	asrs	r3, r2, #31
10000948:	e7dd      	b.n	10000906 <alarm_pool_alarm_callback+0x192>
1000094a:	46c0      	nop			; (mov r8, r8)
1000094c:	20000b08 	.word	0x20000b08
10000950:	0fffffff 	.word	0x0fffffff

10000954 <alarm_pool_add_alarm_at.constprop.0>:
10000954:	b5f8      	push	{r3, r4, r5, r6, r7, lr}
10000956:	4657      	mov	r7, sl
10000958:	464e      	mov	r6, r9
1000095a:	46de      	mov	lr, fp
1000095c:	4645      	mov	r5, r8
1000095e:	4691      	mov	r9, r2
10000960:	b5e0      	push	{r5, r6, r7, lr}
10000962:	0004      	movs	r4, r0
10000964:	469a      	mov	sl, r3
10000966:	6842      	ldr	r2, [r0, #4]
10000968:	f3ef 8810 	mrs	r8, PRIMASK
1000096c:	b672      	cpsid	i
1000096e:	6813      	ldr	r3, [r2, #0]
10000970:	2b00      	cmp	r3, #0
10000972:	d0fc      	beq.n	1000096e <alarm_pool_add_alarm_at.constprop.0+0x1a>
10000974:	f3bf 8f5f 	dmb	sy
10000978:	6826      	ldr	r6, [r4, #0]
1000097a:	7bb5      	ldrb	r5, [r6, #14]
1000097c:	2d00      	cmp	r5, #0
1000097e:	d040      	beq.n	10000a02 <alarm_pool_add_alarm_at.constprop.0+0xae>
10000980:	006f      	lsls	r7, r5, #1
10000982:	6833      	ldr	r3, [r6, #0]
10000984:	197f      	adds	r7, r7, r5
10000986:	3f03      	subs	r7, #3
10000988:	19db      	adds	r3, r3, r7
1000098a:	785b      	ldrb	r3, [r3, #1]
1000098c:	73b3      	strb	r3, [r6, #14]
1000098e:	2b00      	cmp	r3, #0
10000990:	d100      	bne.n	10000994 <alarm_pool_add_alarm_at.constprop.0+0x40>
10000992:	73f3      	strb	r3, [r6, #15]
10000994:	4b37      	ldr	r3, [pc, #220]	; (10000a74 <alarm_pool_add_alarm_at.constprop.0+0x120>)
10000996:	2200      	movs	r2, #0
10000998:	18e9      	adds	r1, r5, r3
1000099a:	68a3      	ldr	r3, [r4, #8]
1000099c:	0109      	lsls	r1, r1, #4
1000099e:	469c      	mov	ip, r3
100009a0:	464b      	mov	r3, r9
100009a2:	4461      	add	r1, ip
100009a4:	600b      	str	r3, [r1, #0]
100009a6:	4653      	mov	r3, sl
100009a8:	604b      	str	r3, [r1, #4]
100009aa:	4b33      	ldr	r3, [pc, #204]	; (10000a78 <alarm_pool_add_alarm_at.constprop.0+0x124>)
100009ac:	60ca      	str	r2, [r1, #12]
100009ae:	608b      	str	r3, [r1, #8]
100009b0:	23d0      	movs	r3, #208	; 0xd0
100009b2:	2180      	movs	r1, #128	; 0x80
100009b4:	061b      	lsls	r3, r3, #24
100009b6:	0309      	lsls	r1, r1, #12
100009b8:	6159      	str	r1, [r3, #20]
100009ba:	6833      	ldr	r3, [r6, #0]
100009bc:	19db      	adds	r3, r3, r7
100009be:	709a      	strb	r2, [r3, #2]
100009c0:	705a      	strb	r2, [r3, #1]
100009c2:	701a      	strb	r2, [r3, #0]
100009c4:	7b73      	ldrb	r3, [r6, #13]
100009c6:	469b      	mov	fp, r3
100009c8:	2b00      	cmp	r3, #0
100009ca:	d035      	beq.n	10000a38 <alarm_pool_add_alarm_at.constprop.0+0xe4>
100009cc:	002a      	movs	r2, r5
100009ce:	0019      	movs	r1, r3
100009d0:	68b0      	ldr	r0, [r6, #8]
100009d2:	6873      	ldr	r3, [r6, #4]
100009d4:	4798      	blx	r3
100009d6:	6832      	ldr	r2, [r6, #0]
100009d8:	2800      	cmp	r0, #0
100009da:	d020      	beq.n	10000a1e <alarm_pool_add_alarm_at.constprop.0+0xca>
100009dc:	465b      	mov	r3, fp
100009de:	4658      	mov	r0, fp
100009e0:	005b      	lsls	r3, r3, #1
100009e2:	445b      	add	r3, fp
100009e4:	19d7      	adds	r7, r2, r7
100009e6:	3b03      	subs	r3, #3
100009e8:	70b8      	strb	r0, [r7, #2]
100009ea:	18d1      	adds	r1, r2, r3
100009ec:	5cd3      	ldrb	r3, [r2, r3]
100009ee:	2b00      	cmp	r3, #0
100009f0:	d000      	beq.n	100009f4 <alarm_pool_add_alarm_at.constprop.0+0xa0>
100009f2:	707b      	strb	r3, [r7, #1]
100009f4:	465b      	mov	r3, fp
100009f6:	700d      	strb	r5, [r1, #0]
100009f8:	7373      	strb	r3, [r6, #13]
100009fa:	455d      	cmp	r5, fp
100009fc:	d01d      	beq.n	10000a3a <alarm_pool_add_alarm_at.constprop.0+0xe6>
100009fe:	2600      	movs	r6, #0
10000a00:	e026      	b.n	10000a50 <alarm_pool_add_alarm_at.constprop.0+0xfc>
10000a02:	6863      	ldr	r3, [r4, #4]
10000a04:	f3bf 8f5f 	dmb	sy
10000a08:	601d      	str	r5, [r3, #0]
10000a0a:	f388 8810 	msr	PRIMASK, r8
10000a0e:	2001      	movs	r0, #1
10000a10:	4240      	negs	r0, r0
10000a12:	bc3c      	pop	{r2, r3, r4, r5}
10000a14:	4690      	mov	r8, r2
10000a16:	4699      	mov	r9, r3
10000a18:	46a2      	mov	sl, r4
10000a1a:	46ab      	mov	fp, r5
10000a1c:	bdf8      	pop	{r3, r4, r5, r6, r7, pc}
10000a1e:	465b      	mov	r3, fp
10000a20:	005b      	lsls	r3, r3, #1
10000a22:	445b      	add	r3, fp
10000a24:	3b03      	subs	r3, #3
10000a26:	18d3      	adds	r3, r2, r3
10000a28:	709d      	strb	r5, [r3, #2]
10000a2a:	19d1      	adds	r1, r2, r7
10000a2c:	5dd2      	ldrb	r2, [r2, r7]
10000a2e:	2a00      	cmp	r2, #0
10000a30:	d000      	beq.n	10000a34 <alarm_pool_add_alarm_at.constprop.0+0xe0>
10000a32:	705a      	strb	r2, [r3, #1]
10000a34:	465b      	mov	r3, fp
10000a36:	700b      	strb	r3, [r1, #0]
10000a38:	7375      	strb	r5, [r6, #13]
10000a3a:	464a      	mov	r2, r9
10000a3c:	4653      	mov	r3, sl
10000a3e:	7d20      	ldrb	r0, [r4, #20]
10000a40:	f000 fbac 	bl	1000119c <hardware_alarm_set_target>
10000a44:	1e06      	subs	r6, r0, #0
10000a46:	d0da      	beq.n	100009fe <alarm_pool_add_alarm_at.constprop.0+0xaa>
10000a48:	0029      	movs	r1, r5
10000a4a:	6820      	ldr	r0, [r4, #0]
10000a4c:	f000 fe04 	bl	10001658 <ph_delete>
10000a50:	68e3      	ldr	r3, [r4, #12]
10000a52:	6862      	ldr	r2, [r4, #4]
10000a54:	195b      	adds	r3, r3, r5
10000a56:	3b01      	subs	r3, #1
10000a58:	781b      	ldrb	r3, [r3, #0]
10000a5a:	f3bf 8f5f 	dmb	sy
10000a5e:	2100      	movs	r1, #0
10000a60:	6011      	str	r1, [r2, #0]
10000a62:	f388 8810 	msr	PRIMASK, r8
10000a66:	2000      	movs	r0, #0
10000a68:	2e00      	cmp	r6, #0
10000a6a:	d1d2      	bne.n	10000a12 <alarm_pool_add_alarm_at.constprop.0+0xbe>
10000a6c:	0218      	lsls	r0, r3, #8
10000a6e:	4328      	orrs	r0, r5
10000a70:	e7cf      	b.n	10000a12 <alarm_pool_add_alarm_at.constprop.0+0xbe>
10000a72:	46c0      	nop			; (mov r8, r8)
10000a74:	0fffffff 	.word	0x0fffffff
10000a78:	10000641 	.word	0x10000641

10000a7c <alarm_pool_init_default>:
10000a7c:	b570      	push	{r4, r5, r6, lr}
10000a7e:	4c18      	ldr	r4, [pc, #96]	; (10000ae0 <alarm_pool_init_default+0x64>)
10000a80:	6823      	ldr	r3, [r4, #0]
10000a82:	2b00      	cmp	r3, #0
10000a84:	d000      	beq.n	10000a88 <alarm_pool_init_default+0xc>
10000a86:	bd70      	pop	{r4, r5, r6, pc}
10000a88:	2003      	movs	r0, #3
10000a8a:	f000 fb1b 	bl	100010c4 <hardware_alarm_claim>
10000a8e:	2003      	movs	r0, #3
10000a90:	f000 fbe6 	bl	10001260 <hardware_alarm_cancel>
10000a94:	4913      	ldr	r1, [pc, #76]	; (10000ae4 <alarm_pool_init_default+0x68>)
10000a96:	2003      	movs	r0, #3
10000a98:	f000 fb3a 	bl	10001110 <hardware_alarm_set_callback>
10000a9c:	2018      	movs	r0, #24
10000a9e:	f003 fc67 	bl	10004370 <__wrap_malloc>
10000aa2:	0005      	movs	r5, r0
10000aa4:	f7ff fd24 	bl	100004f0 <next_striped_spin_lock_num>
10000aa8:	4b0f      	ldr	r3, [pc, #60]	; (10000ae8 <alarm_pool_init_default+0x6c>)
10000aaa:	002a      	movs	r2, r5
10000aac:	469c      	mov	ip, r3
10000aae:	4460      	add	r0, ip
10000ab0:	0080      	lsls	r0, r0, #2
10000ab2:	490e      	ldr	r1, [pc, #56]	; (10000aec <alarm_pool_init_default+0x70>)
10000ab4:	6068      	str	r0, [r5, #4]
10000ab6:	2010      	movs	r0, #16
10000ab8:	f000 fc3a 	bl	10001330 <ph_create>
10000abc:	2110      	movs	r1, #16
10000abe:	6028      	str	r0, [r5, #0]
10000ac0:	2010      	movs	r0, #16
10000ac2:	f003 fc59 	bl	10004378 <__wrap_calloc>
10000ac6:	2101      	movs	r1, #1
10000ac8:	60a8      	str	r0, [r5, #8]
10000aca:	2010      	movs	r0, #16
10000acc:	f003 fc54 	bl	10004378 <__wrap_calloc>
10000ad0:	2303      	movs	r3, #3
10000ad2:	752b      	strb	r3, [r5, #20]
10000ad4:	4b06      	ldr	r3, [pc, #24]	; (10000af0 <alarm_pool_init_default+0x74>)
10000ad6:	60e8      	str	r0, [r5, #12]
10000ad8:	60dd      	str	r5, [r3, #12]
10000ada:	6025      	str	r5, [r4, #0]
10000adc:	e7d3      	b.n	10000a86 <alarm_pool_init_default+0xa>
10000ade:	46c0      	nop			; (mov r8, r8)
10000ae0:	20000af4 	.word	0x20000af4
10000ae4:	10000775 	.word	0x10000775
10000ae8:	34000040 	.word	0x34000040
10000aec:	100005f1 	.word	0x100005f1
10000af0:	20000b08 	.word	0x20000b08

10000af4 <alarm_pool_get_default>:
10000af4:	4b01      	ldr	r3, [pc, #4]	; (10000afc <alarm_pool_get_default+0x8>)
10000af6:	6818      	ldr	r0, [r3, #0]
10000af8:	4770      	bx	lr
10000afa:	46c0      	nop			; (mov r8, r8)
10000afc:	20000af4 	.word	0x20000af4

10000b00 <alarm_pool_add_alarm_at>:
10000b00:	b5f0      	push	{r4, r5, r6, r7, lr}
10000b02:	464e      	mov	r6, r9
10000b04:	4657      	mov	r7, sl
10000b06:	46de      	mov	lr, fp
10000b08:	4645      	mov	r5, r8
10000b0a:	b5e0      	push	{r5, r6, r7, lr}
10000b0c:	b085      	sub	sp, #20
10000b0e:	9301      	str	r3, [sp, #4]
10000b10:	ab10      	add	r3, sp, #64	; 0x40
10000b12:	781b      	ldrb	r3, [r3, #0]
10000b14:	0006      	movs	r6, r0
10000b16:	9303      	str	r3, [sp, #12]
10000b18:	2300      	movs	r3, #0
10000b1a:	469a      	mov	sl, r3
10000b1c:	23d0      	movs	r3, #208	; 0xd0
10000b1e:	061b      	lsls	r3, r3, #24
10000b20:	4699      	mov	r9, r3
10000b22:	9200      	str	r2, [sp, #0]
10000b24:	6872      	ldr	r2, [r6, #4]
10000b26:	f3ef 8b10 	mrs	fp, PRIMASK
10000b2a:	b672      	cpsid	i
10000b2c:	6813      	ldr	r3, [r2, #0]
10000b2e:	2b00      	cmp	r3, #0
10000b30:	d0fc      	beq.n	10000b2c <alarm_pool_add_alarm_at+0x2c>
10000b32:	f3bf 8f5f 	dmb	sy
10000b36:	6835      	ldr	r5, [r6, #0]
10000b38:	7bac      	ldrb	r4, [r5, #14]
10000b3a:	2c00      	cmp	r4, #0
10000b3c:	d100      	bne.n	10000b40 <alarm_pool_add_alarm_at+0x40>
10000b3e:	e088      	b.n	10000c52 <alarm_pool_add_alarm_at+0x152>
10000b40:	0067      	lsls	r7, r4, #1
10000b42:	682b      	ldr	r3, [r5, #0]
10000b44:	193f      	adds	r7, r7, r4
10000b46:	3f03      	subs	r7, #3
10000b48:	19db      	adds	r3, r3, r7
10000b4a:	785b      	ldrb	r3, [r3, #1]
10000b4c:	73ab      	strb	r3, [r5, #14]
10000b4e:	2b00      	cmp	r3, #0
10000b50:	d100      	bne.n	10000b54 <alarm_pool_add_alarm_at+0x54>
10000b52:	73eb      	strb	r3, [r5, #15]
10000b54:	68b2      	ldr	r2, [r6, #8]
10000b56:	4b57      	ldr	r3, [pc, #348]	; (10000cb4 <alarm_pool_add_alarm_at+0x1b4>)
10000b58:	4694      	mov	ip, r2
10000b5a:	9900      	ldr	r1, [sp, #0]
10000b5c:	9a01      	ldr	r2, [sp, #4]
10000b5e:	18e3      	adds	r3, r4, r3
10000b60:	011b      	lsls	r3, r3, #4
10000b62:	4463      	add	r3, ip
10000b64:	6019      	str	r1, [r3, #0]
10000b66:	605a      	str	r2, [r3, #4]
10000b68:	9a0e      	ldr	r2, [sp, #56]	; 0x38
10000b6a:	609a      	str	r2, [r3, #8]
10000b6c:	9a0f      	ldr	r2, [sp, #60]	; 0x3c
10000b6e:	60da      	str	r2, [r3, #12]
10000b70:	2280      	movs	r2, #128	; 0x80
10000b72:	464b      	mov	r3, r9
10000b74:	0312      	lsls	r2, r2, #12
10000b76:	615a      	str	r2, [r3, #20]
10000b78:	2200      	movs	r2, #0
10000b7a:	682b      	ldr	r3, [r5, #0]
10000b7c:	19db      	adds	r3, r3, r7
10000b7e:	709a      	strb	r2, [r3, #2]
10000b80:	705a      	strb	r2, [r3, #1]
10000b82:	701a      	strb	r2, [r3, #0]
10000b84:	7b6b      	ldrb	r3, [r5, #13]
10000b86:	4698      	mov	r8, r3
10000b88:	2b00      	cmp	r3, #0
10000b8a:	d100      	bne.n	10000b8e <alarm_pool_add_alarm_at+0x8e>
10000b8c:	e080      	b.n	10000c90 <alarm_pool_add_alarm_at+0x190>
10000b8e:	0022      	movs	r2, r4
10000b90:	0019      	movs	r1, r3
10000b92:	68a8      	ldr	r0, [r5, #8]
10000b94:	686b      	ldr	r3, [r5, #4]
10000b96:	4798      	blx	r3
10000b98:	682a      	ldr	r2, [r5, #0]
10000b9a:	2800      	cmp	r0, #0
10000b9c:	d06b      	beq.n	10000c76 <alarm_pool_add_alarm_at+0x176>
10000b9e:	4643      	mov	r3, r8
10000ba0:	4640      	mov	r0, r8
10000ba2:	005b      	lsls	r3, r3, #1
10000ba4:	4443      	add	r3, r8
10000ba6:	19d7      	adds	r7, r2, r7
10000ba8:	3b03      	subs	r3, #3
10000baa:	70b8      	strb	r0, [r7, #2]
10000bac:	18d1      	adds	r1, r2, r3
10000bae:	5cd3      	ldrb	r3, [r2, r3]
10000bb0:	2b00      	cmp	r3, #0
10000bb2:	d000      	beq.n	10000bb6 <alarm_pool_add_alarm_at+0xb6>
10000bb4:	707b      	strb	r3, [r7, #1]
10000bb6:	4643      	mov	r3, r8
10000bb8:	700c      	strb	r4, [r1, #0]
10000bba:	736b      	strb	r3, [r5, #13]
10000bbc:	4544      	cmp	r4, r8
10000bbe:	d068      	beq.n	10000c92 <alarm_pool_add_alarm_at+0x192>
10000bc0:	68f3      	ldr	r3, [r6, #12]
10000bc2:	191b      	adds	r3, r3, r4
10000bc4:	3b01      	subs	r3, #1
10000bc6:	7818      	ldrb	r0, [r3, #0]
10000bc8:	6873      	ldr	r3, [r6, #4]
10000bca:	f3bf 8f5f 	dmb	sy
10000bce:	2200      	movs	r2, #0
10000bd0:	601a      	str	r2, [r3, #0]
10000bd2:	f38b 8810 	msr	PRIMASK, fp
10000bd6:	4653      	mov	r3, sl
10000bd8:	2b00      	cmp	r3, #0
10000bda:	d108      	bne.n	10000bee <alarm_pool_add_alarm_at+0xee>
10000bdc:	0200      	lsls	r0, r0, #8
10000bde:	4320      	orrs	r0, r4
10000be0:	b005      	add	sp, #20
10000be2:	bc3c      	pop	{r2, r3, r4, r5}
10000be4:	4690      	mov	r8, r2
10000be6:	4699      	mov	r9, r3
10000be8:	46a2      	mov	sl, r4
10000bea:	46ab      	mov	fp, r5
10000bec:	bdf0      	pop	{r4, r5, r6, r7, pc}
10000bee:	9b03      	ldr	r3, [sp, #12]
10000bf0:	2b00      	cmp	r3, #0
10000bf2:	d05c      	beq.n	10000cae <alarm_pool_add_alarm_at+0x1ae>
10000bf4:	9b0e      	ldr	r3, [sp, #56]	; 0x38
10000bf6:	2000      	movs	r0, #0
10000bf8:	990f      	ldr	r1, [sp, #60]	; 0x3c
10000bfa:	4798      	blx	r3
10000bfc:	0003      	movs	r3, r0
10000bfe:	0004      	movs	r4, r0
10000c00:	000d      	movs	r5, r1
10000c02:	430b      	orrs	r3, r1
10000c04:	d053      	beq.n	10000cae <alarm_pool_add_alarm_at+0x1ae>
10000c06:	2900      	cmp	r1, #0
10000c08:	da0d      	bge.n	10000c26 <alarm_pool_add_alarm_at+0x126>
10000c0a:	9800      	ldr	r0, [sp, #0]
10000c0c:	9901      	ldr	r1, [sp, #4]
10000c0e:	0002      	movs	r2, r0
10000c10:	000b      	movs	r3, r1
10000c12:	1b12      	subs	r2, r2, r4
10000c14:	41ab      	sbcs	r3, r5
10000c16:	4299      	cmp	r1, r3
10000c18:	d815      	bhi.n	10000c46 <alarm_pool_add_alarm_at+0x146>
10000c1a:	d023      	beq.n	10000c64 <alarm_pool_add_alarm_at+0x164>
10000c1c:	9200      	str	r2, [sp, #0]
10000c1e:	9301      	str	r3, [sp, #4]
10000c20:	9b03      	ldr	r3, [sp, #12]
10000c22:	469a      	mov	sl, r3
10000c24:	e77e      	b.n	10000b24 <alarm_pool_add_alarm_at+0x24>
10000c26:	f000 fa59 	bl	100010dc <time_us_64>
10000c2a:	0002      	movs	r2, r0
10000c2c:	000b      	movs	r3, r1
10000c2e:	18a4      	adds	r4, r4, r2
10000c30:	415d      	adcs	r5, r3
10000c32:	0020      	movs	r0, r4
10000c34:	0029      	movs	r1, r5
10000c36:	9000      	str	r0, [sp, #0]
10000c38:	9101      	str	r1, [sp, #4]
10000c3a:	42ab      	cmp	r3, r5
10000c3c:	d803      	bhi.n	10000c46 <alarm_pool_add_alarm_at+0x146>
10000c3e:	d1ef      	bne.n	10000c20 <alarm_pool_add_alarm_at+0x120>
10000c40:	9900      	ldr	r1, [sp, #0]
10000c42:	428a      	cmp	r2, r1
10000c44:	d9ec      	bls.n	10000c20 <alarm_pool_add_alarm_at+0x120>
10000c46:	2301      	movs	r3, #1
10000c48:	425b      	negs	r3, r3
10000c4a:	17dc      	asrs	r4, r3, #31
10000c4c:	9300      	str	r3, [sp, #0]
10000c4e:	9401      	str	r4, [sp, #4]
10000c50:	e7e6      	b.n	10000c20 <alarm_pool_add_alarm_at+0x120>
10000c52:	6873      	ldr	r3, [r6, #4]
10000c54:	f3bf 8f5f 	dmb	sy
10000c58:	601c      	str	r4, [r3, #0]
10000c5a:	f38b 8810 	msr	PRIMASK, fp
10000c5e:	2001      	movs	r0, #1
10000c60:	4240      	negs	r0, r0
10000c62:	e7bd      	b.n	10000be0 <alarm_pool_add_alarm_at+0xe0>
10000c64:	9900      	ldr	r1, [sp, #0]
10000c66:	4291      	cmp	r1, r2
10000c68:	d9d8      	bls.n	10000c1c <alarm_pool_add_alarm_at+0x11c>
10000c6a:	2301      	movs	r3, #1
10000c6c:	425b      	negs	r3, r3
10000c6e:	17dc      	asrs	r4, r3, #31
10000c70:	9300      	str	r3, [sp, #0]
10000c72:	9401      	str	r4, [sp, #4]
10000c74:	e7d4      	b.n	10000c20 <alarm_pool_add_alarm_at+0x120>
10000c76:	4643      	mov	r3, r8
10000c78:	005b      	lsls	r3, r3, #1
10000c7a:	4443      	add	r3, r8
10000c7c:	3b03      	subs	r3, #3
10000c7e:	18d3      	adds	r3, r2, r3
10000c80:	709c      	strb	r4, [r3, #2]
10000c82:	19d1      	adds	r1, r2, r7
10000c84:	5dd2      	ldrb	r2, [r2, r7]
10000c86:	2a00      	cmp	r2, #0
10000c88:	d000      	beq.n	10000c8c <alarm_pool_add_alarm_at+0x18c>
10000c8a:	705a      	strb	r2, [r3, #1]
10000c8c:	4643      	mov	r3, r8
10000c8e:	700b      	strb	r3, [r1, #0]
10000c90:	736c      	strb	r4, [r5, #13]
10000c92:	7d30      	ldrb	r0, [r6, #20]
10000c94:	9a00      	ldr	r2, [sp, #0]
10000c96:	9b01      	ldr	r3, [sp, #4]
10000c98:	f000 fa80 	bl	1000119c <hardware_alarm_set_target>
10000c9c:	4682      	mov	sl, r0
10000c9e:	2800      	cmp	r0, #0
10000ca0:	d100      	bne.n	10000ca4 <alarm_pool_add_alarm_at+0x1a4>
10000ca2:	e78d      	b.n	10000bc0 <alarm_pool_add_alarm_at+0xc0>
10000ca4:	0021      	movs	r1, r4
10000ca6:	6830      	ldr	r0, [r6, #0]
10000ca8:	f000 fcd6 	bl	10001658 <ph_delete>
10000cac:	e788      	b.n	10000bc0 <alarm_pool_add_alarm_at+0xc0>
10000cae:	2000      	movs	r0, #0
10000cb0:	e796      	b.n	10000be0 <alarm_pool_add_alarm_at+0xe0>
10000cb2:	46c0      	nop			; (mov r8, r8)
10000cb4:	0fffffff 	.word	0x0fffffff

10000cb8 <alarm_pool_add_repeating_timer_us>:
10000cb8:	b5f0      	push	{r4, r5, r6, r7, lr}
10000cba:	464e      	mov	r6, r9
10000cbc:	4645      	mov	r5, r8
10000cbe:	46de      	mov	lr, fp
10000cc0:	4657      	mov	r7, sl
10000cc2:	b5e0      	push	{r5, r6, r7, lr}
10000cc4:	b083      	sub	sp, #12
10000cc6:	990e      	ldr	r1, [sp, #56]	; 0x38
10000cc8:	4680      	mov	r8, r0
10000cca:	4689      	mov	r9, r1
10000ccc:	0011      	movs	r1, r2
10000cce:	4319      	orrs	r1, r3
10000cd0:	d100      	bne.n	10000cd4 <alarm_pool_add_repeating_timer_us+0x1c>
10000cd2:	e0e9      	b.n	10000ea8 <alarm_pool_add_repeating_timer_us+0x1f0>
10000cd4:	17d8      	asrs	r0, r3, #31
10000cd6:	0006      	movs	r6, r0
10000cd8:	4056      	eors	r6, r2
10000cda:	0034      	movs	r4, r6
10000cdc:	0006      	movs	r6, r0
10000cde:	405e      	eors	r6, r3
10000ce0:	0001      	movs	r1, r0
10000ce2:	0035      	movs	r5, r6
10000ce4:	1a24      	subs	r4, r4, r0
10000ce6:	418d      	sbcs	r5, r1
10000ce8:	4649      	mov	r1, r9
10000cea:	4640      	mov	r0, r8
10000cec:	600a      	str	r2, [r1, #0]
10000cee:	6088      	str	r0, [r1, #8]
10000cf0:	9a0d      	ldr	r2, [sp, #52]	; 0x34
10000cf2:	980c      	ldr	r0, [sp, #48]	; 0x30
10000cf4:	604b      	str	r3, [r1, #4]
10000cf6:	614a      	str	r2, [r1, #20]
10000cf8:	6108      	str	r0, [r1, #16]
10000cfa:	f000 f9ef 	bl	100010dc <time_us_64>
10000cfe:	0002      	movs	r2, r0
10000d00:	000b      	movs	r3, r1
10000d02:	18a4      	adds	r4, r4, r2
10000d04:	415d      	adcs	r5, r3
10000d06:	0020      	movs	r0, r4
10000d08:	0029      	movs	r1, r5
10000d0a:	9000      	str	r0, [sp, #0]
10000d0c:	9101      	str	r1, [sp, #4]
10000d0e:	42ab      	cmp	r3, r5
10000d10:	d900      	bls.n	10000d14 <alarm_pool_add_repeating_timer_us+0x5c>
10000d12:	e0d2      	b.n	10000eba <alarm_pool_add_repeating_timer_us+0x202>
10000d14:	d100      	bne.n	10000d18 <alarm_pool_add_repeating_timer_us+0x60>
10000d16:	e0cc      	b.n	10000eb2 <alarm_pool_add_repeating_timer_us+0x1fa>
10000d18:	2300      	movs	r3, #0
10000d1a:	469a      	mov	sl, r3
10000d1c:	4643      	mov	r3, r8
10000d1e:	685b      	ldr	r3, [r3, #4]
10000d20:	f3ef 8b10 	mrs	fp, PRIMASK
10000d24:	b672      	cpsid	i
10000d26:	681a      	ldr	r2, [r3, #0]
10000d28:	2a00      	cmp	r2, #0
10000d2a:	d0fc      	beq.n	10000d26 <alarm_pool_add_repeating_timer_us+0x6e>
10000d2c:	f3bf 8f5f 	dmb	sy
10000d30:	4643      	mov	r3, r8
10000d32:	681d      	ldr	r5, [r3, #0]
10000d34:	7bac      	ldrb	r4, [r5, #14]
10000d36:	2c00      	cmp	r4, #0
10000d38:	d100      	bne.n	10000d3c <alarm_pool_add_repeating_timer_us+0x84>
10000d3a:	e075      	b.n	10000e28 <alarm_pool_add_repeating_timer_us+0x170>
10000d3c:	0066      	lsls	r6, r4, #1
10000d3e:	682b      	ldr	r3, [r5, #0]
10000d40:	1936      	adds	r6, r6, r4
10000d42:	3e03      	subs	r6, #3
10000d44:	199b      	adds	r3, r3, r6
10000d46:	785b      	ldrb	r3, [r3, #1]
10000d48:	73ab      	strb	r3, [r5, #14]
10000d4a:	2b00      	cmp	r3, #0
10000d4c:	d100      	bne.n	10000d50 <alarm_pool_add_repeating_timer_us+0x98>
10000d4e:	73eb      	strb	r3, [r5, #15]
10000d50:	4642      	mov	r2, r8
10000d52:	6892      	ldr	r2, [r2, #8]
10000d54:	4b5e      	ldr	r3, [pc, #376]	; (10000ed0 <alarm_pool_add_repeating_timer_us+0x218>)
10000d56:	4694      	mov	ip, r2
10000d58:	9900      	ldr	r1, [sp, #0]
10000d5a:	9a01      	ldr	r2, [sp, #4]
10000d5c:	18e3      	adds	r3, r4, r3
10000d5e:	011b      	lsls	r3, r3, #4
10000d60:	4463      	add	r3, ip
10000d62:	6019      	str	r1, [r3, #0]
10000d64:	605a      	str	r2, [r3, #4]
10000d66:	4a5b      	ldr	r2, [pc, #364]	; (10000ed4 <alarm_pool_add_repeating_timer_us+0x21c>)
10000d68:	609a      	str	r2, [r3, #8]
10000d6a:	464a      	mov	r2, r9
10000d6c:	60da      	str	r2, [r3, #12]
10000d6e:	2380      	movs	r3, #128	; 0x80
10000d70:	22d0      	movs	r2, #208	; 0xd0
10000d72:	031b      	lsls	r3, r3, #12
10000d74:	0612      	lsls	r2, r2, #24
10000d76:	6153      	str	r3, [r2, #20]
10000d78:	2200      	movs	r2, #0
10000d7a:	682b      	ldr	r3, [r5, #0]
10000d7c:	199b      	adds	r3, r3, r6
10000d7e:	709a      	strb	r2, [r3, #2]
10000d80:	705a      	strb	r2, [r3, #1]
10000d82:	701a      	strb	r2, [r3, #0]
10000d84:	7b6f      	ldrb	r7, [r5, #13]
10000d86:	2f00      	cmp	r7, #0
10000d88:	d03e      	beq.n	10000e08 <alarm_pool_add_repeating_timer_us+0x150>
10000d8a:	0022      	movs	r2, r4
10000d8c:	0039      	movs	r1, r7
10000d8e:	68a8      	ldr	r0, [r5, #8]
10000d90:	686b      	ldr	r3, [r5, #4]
10000d92:	4798      	blx	r3
10000d94:	682a      	ldr	r2, [r5, #0]
10000d96:	2800      	cmp	r0, #0
10000d98:	d02b      	beq.n	10000df2 <alarm_pool_add_repeating_timer_us+0x13a>
10000d9a:	007b      	lsls	r3, r7, #1
10000d9c:	19db      	adds	r3, r3, r7
10000d9e:	1996      	adds	r6, r2, r6
10000da0:	3b03      	subs	r3, #3
10000da2:	70b7      	strb	r7, [r6, #2]
10000da4:	18d1      	adds	r1, r2, r3
10000da6:	5cd3      	ldrb	r3, [r2, r3]
10000da8:	2b00      	cmp	r3, #0
10000daa:	d000      	beq.n	10000dae <alarm_pool_add_repeating_timer_us+0xf6>
10000dac:	7073      	strb	r3, [r6, #1]
10000dae:	700c      	strb	r4, [r1, #0]
10000db0:	736f      	strb	r7, [r5, #13]
10000db2:	42bc      	cmp	r4, r7
10000db4:	d029      	beq.n	10000e0a <alarm_pool_add_repeating_timer_us+0x152>
10000db6:	4643      	mov	r3, r8
10000db8:	4642      	mov	r2, r8
10000dba:	68db      	ldr	r3, [r3, #12]
10000dbc:	6852      	ldr	r2, [r2, #4]
10000dbe:	191b      	adds	r3, r3, r4
10000dc0:	3b01      	subs	r3, #1
10000dc2:	781b      	ldrb	r3, [r3, #0]
10000dc4:	f3bf 8f5f 	dmb	sy
10000dc8:	2100      	movs	r1, #0
10000dca:	6011      	str	r1, [r2, #0]
10000dcc:	f38b 8810 	msr	PRIMASK, fp
10000dd0:	4652      	mov	r2, sl
10000dd2:	2a00      	cmp	r2, #0
10000dd4:	d133      	bne.n	10000e3e <alarm_pool_add_repeating_timer_us+0x186>
10000dd6:	021b      	lsls	r3, r3, #8
10000dd8:	431c      	orrs	r4, r3
10000dda:	2301      	movs	r3, #1
10000ddc:	469a      	mov	sl, r3
10000dde:	464b      	mov	r3, r9
10000de0:	4650      	mov	r0, sl
10000de2:	60dc      	str	r4, [r3, #12]
10000de4:	b003      	add	sp, #12
10000de6:	bc3c      	pop	{r2, r3, r4, r5}
10000de8:	4690      	mov	r8, r2
10000dea:	4699      	mov	r9, r3
10000dec:	46a2      	mov	sl, r4
10000dee:	46ab      	mov	fp, r5
10000df0:	bdf0      	pop	{r4, r5, r6, r7, pc}
10000df2:	007b      	lsls	r3, r7, #1
10000df4:	19db      	adds	r3, r3, r7
10000df6:	3b03      	subs	r3, #3
10000df8:	18d3      	adds	r3, r2, r3
10000dfa:	709c      	strb	r4, [r3, #2]
10000dfc:	1991      	adds	r1, r2, r6
10000dfe:	5d92      	ldrb	r2, [r2, r6]
10000e00:	2a00      	cmp	r2, #0
10000e02:	d000      	beq.n	10000e06 <alarm_pool_add_repeating_timer_us+0x14e>
10000e04:	705a      	strb	r2, [r3, #1]
10000e06:	700f      	strb	r7, [r1, #0]
10000e08:	736c      	strb	r4, [r5, #13]
10000e0a:	4643      	mov	r3, r8
10000e0c:	7d18      	ldrb	r0, [r3, #20]
10000e0e:	9a00      	ldr	r2, [sp, #0]
10000e10:	9b01      	ldr	r3, [sp, #4]
10000e12:	f000 f9c3 	bl	1000119c <hardware_alarm_set_target>
10000e16:	4682      	mov	sl, r0
10000e18:	2800      	cmp	r0, #0
10000e1a:	d0cc      	beq.n	10000db6 <alarm_pool_add_repeating_timer_us+0xfe>
10000e1c:	4643      	mov	r3, r8
10000e1e:	0021      	movs	r1, r4
10000e20:	6818      	ldr	r0, [r3, #0]
10000e22:	f000 fc19 	bl	10001658 <ph_delete>
10000e26:	e7c6      	b.n	10000db6 <alarm_pool_add_repeating_timer_us+0xfe>
10000e28:	685b      	ldr	r3, [r3, #4]
10000e2a:	f3bf 8f5f 	dmb	sy
10000e2e:	601c      	str	r4, [r3, #0]
10000e30:	f38b 8810 	msr	PRIMASK, fp
10000e34:	2300      	movs	r3, #0
10000e36:	2401      	movs	r4, #1
10000e38:	469a      	mov	sl, r3
10000e3a:	4264      	negs	r4, r4
10000e3c:	e7cf      	b.n	10000dde <alarm_pool_add_repeating_timer_us+0x126>
10000e3e:	4648      	mov	r0, r9
10000e40:	6903      	ldr	r3, [r0, #16]
10000e42:	4798      	blx	r3
10000e44:	4682      	mov	sl, r0
10000e46:	2800      	cmp	r0, #0
10000e48:	d101      	bne.n	10000e4e <alarm_pool_add_repeating_timer_us+0x196>
10000e4a:	2400      	movs	r4, #0
10000e4c:	e7c7      	b.n	10000dde <alarm_pool_add_repeating_timer_us+0x126>
10000e4e:	464b      	mov	r3, r9
10000e50:	681c      	ldr	r4, [r3, #0]
10000e52:	685d      	ldr	r5, [r3, #4]
10000e54:	0023      	movs	r3, r4
10000e56:	432b      	orrs	r3, r5
10000e58:	d035      	beq.n	10000ec6 <alarm_pool_add_repeating_timer_us+0x20e>
10000e5a:	2d00      	cmp	r5, #0
10000e5c:	da0e      	bge.n	10000e7c <alarm_pool_add_repeating_timer_us+0x1c4>
10000e5e:	9a00      	ldr	r2, [sp, #0]
10000e60:	9b01      	ldr	r3, [sp, #4]
10000e62:	0010      	movs	r0, r2
10000e64:	0019      	movs	r1, r3
10000e66:	1b00      	subs	r0, r0, r4
10000e68:	41a9      	sbcs	r1, r5
10000e6a:	0004      	movs	r4, r0
10000e6c:	000d      	movs	r5, r1
10000e6e:	428b      	cmp	r3, r1
10000e70:	d80f      	bhi.n	10000e92 <alarm_pool_add_repeating_timer_us+0x1da>
10000e72:	42ab      	cmp	r3, r5
10000e74:	d011      	beq.n	10000e9a <alarm_pool_add_repeating_timer_us+0x1e2>
10000e76:	9400      	str	r4, [sp, #0]
10000e78:	9501      	str	r5, [sp, #4]
10000e7a:	e74f      	b.n	10000d1c <alarm_pool_add_repeating_timer_us+0x64>
10000e7c:	f000 f92e 	bl	100010dc <time_us_64>
10000e80:	0006      	movs	r6, r0
10000e82:	000f      	movs	r7, r1
10000e84:	19a4      	adds	r4, r4, r6
10000e86:	417d      	adcs	r5, r7
10000e88:	42a9      	cmp	r1, r5
10000e8a:	d802      	bhi.n	10000e92 <alarm_pool_add_repeating_timer_us+0x1da>
10000e8c:	d1f3      	bne.n	10000e76 <alarm_pool_add_repeating_timer_us+0x1be>
10000e8e:	42a0      	cmp	r0, r4
10000e90:	d9f1      	bls.n	10000e76 <alarm_pool_add_repeating_timer_us+0x1be>
10000e92:	2401      	movs	r4, #1
10000e94:	4264      	negs	r4, r4
10000e96:	17e5      	asrs	r5, r4, #31
10000e98:	e7ed      	b.n	10000e76 <alarm_pool_add_repeating_timer_us+0x1be>
10000e9a:	9b00      	ldr	r3, [sp, #0]
10000e9c:	42a3      	cmp	r3, r4
10000e9e:	d9ea      	bls.n	10000e76 <alarm_pool_add_repeating_timer_us+0x1be>
10000ea0:	2401      	movs	r4, #1
10000ea2:	4264      	negs	r4, r4
10000ea4:	17e5      	asrs	r5, r4, #31
10000ea6:	e7e6      	b.n	10000e76 <alarm_pool_add_repeating_timer_us+0x1be>
10000ea8:	2401      	movs	r4, #1
10000eaa:	2500      	movs	r5, #0
10000eac:	2201      	movs	r2, #1
10000eae:	2300      	movs	r3, #0
10000eb0:	e71a      	b.n	10000ce8 <alarm_pool_add_repeating_timer_us+0x30>
10000eb2:	9900      	ldr	r1, [sp, #0]
10000eb4:	428a      	cmp	r2, r1
10000eb6:	d800      	bhi.n	10000eba <alarm_pool_add_repeating_timer_us+0x202>
10000eb8:	e72e      	b.n	10000d18 <alarm_pool_add_repeating_timer_us+0x60>
10000eba:	2301      	movs	r3, #1
10000ebc:	425b      	negs	r3, r3
10000ebe:	17dc      	asrs	r4, r3, #31
10000ec0:	9300      	str	r3, [sp, #0]
10000ec2:	9401      	str	r4, [sp, #4]
10000ec4:	e728      	b.n	10000d18 <alarm_pool_add_repeating_timer_us+0x60>
10000ec6:	2300      	movs	r3, #0
10000ec8:	2400      	movs	r4, #0
10000eca:	469a      	mov	sl, r3
10000ecc:	e787      	b.n	10000dde <alarm_pool_add_repeating_timer_us+0x126>
10000ece:	46c0      	nop			; (mov r8, r8)
10000ed0:	0fffffff 	.word	0x0fffffff
10000ed4:	10000625 	.word	0x10000625

10000ed8 <cancel_repeating_timer>:
10000ed8:	b5f0      	push	{r4, r5, r6, r7, lr}
10000eda:	46c6      	mov	lr, r8
10000edc:	68c3      	ldr	r3, [r0, #12]
10000ede:	0004      	movs	r4, r0
10000ee0:	b500      	push	{lr}
10000ee2:	2000      	movs	r0, #0
10000ee4:	2b00      	cmp	r3, #0
10000ee6:	d102      	bne.n	10000eee <cancel_repeating_timer+0x16>
10000ee8:	bc04      	pop	{r2}
10000eea:	4690      	mov	r8, r2
10000eec:	bdf0      	pop	{r4, r5, r6, r7, pc}
10000eee:	68a5      	ldr	r5, [r4, #8]
10000ef0:	6869      	ldr	r1, [r5, #4]
10000ef2:	f3ef 8610 	mrs	r6, PRIMASK
10000ef6:	b672      	cpsid	i
10000ef8:	680a      	ldr	r2, [r1, #0]
10000efa:	2a00      	cmp	r2, #0
10000efc:	d0fc      	beq.n	10000ef8 <cancel_repeating_timer+0x20>
10000efe:	f3bf 8f5f 	dmb	sy
10000f02:	6828      	ldr	r0, [r5, #0]
10000f04:	b2d9      	uxtb	r1, r3
10000f06:	7b42      	ldrb	r2, [r0, #13]
10000f08:	428a      	cmp	r2, r1
10000f0a:	d024      	beq.n	10000f56 <cancel_repeating_timer+0x7e>
10000f0c:	22ff      	movs	r2, #255	; 0xff
10000f0e:	401a      	ands	r2, r3
10000f10:	0057      	lsls	r7, r2, #1
10000f12:	46b8      	mov	r8, r7
10000f14:	6807      	ldr	r7, [r0, #0]
10000f16:	4490      	add	r8, r2
10000f18:	46bc      	mov	ip, r7
10000f1a:	4647      	mov	r7, r8
10000f1c:	4467      	add	r7, ip
10000f1e:	3f03      	subs	r7, #3
10000f20:	78bf      	ldrb	r7, [r7, #2]
10000f22:	2f00      	cmp	r7, #0
10000f24:	d012      	beq.n	10000f4c <cancel_repeating_timer+0x74>
10000f26:	68ef      	ldr	r7, [r5, #12]
10000f28:	0a1b      	lsrs	r3, r3, #8
10000f2a:	46bc      	mov	ip, r7
10000f2c:	4462      	add	r2, ip
10000f2e:	3a01      	subs	r2, #1
10000f30:	7812      	ldrb	r2, [r2, #0]
10000f32:	b2db      	uxtb	r3, r3
10000f34:	429a      	cmp	r2, r3
10000f36:	d011      	beq.n	10000f5c <cancel_repeating_timer+0x84>
10000f38:	2000      	movs	r0, #0
10000f3a:	686a      	ldr	r2, [r5, #4]
10000f3c:	f3bf 8f5f 	dmb	sy
10000f40:	2300      	movs	r3, #0
10000f42:	6013      	str	r3, [r2, #0]
10000f44:	f386 8810 	msr	PRIMASK, r6
10000f48:	60e3      	str	r3, [r4, #12]
10000f4a:	e7cd      	b.n	10000ee8 <cancel_repeating_timer+0x10>
10000f4c:	692a      	ldr	r2, [r5, #16]
10000f4e:	4293      	cmp	r3, r2
10000f50:	d1f2      	bne.n	10000f38 <cancel_repeating_timer+0x60>
10000f52:	612f      	str	r7, [r5, #16]
10000f54:	e7f0      	b.n	10000f38 <cancel_repeating_timer+0x60>
10000f56:	22ff      	movs	r2, #255	; 0xff
10000f58:	401a      	ands	r2, r3
10000f5a:	e7e4      	b.n	10000f26 <cancel_repeating_timer+0x4e>
10000f5c:	f000 fb7c 	bl	10001658 <ph_delete>
10000f60:	e7eb      	b.n	10000f3a <cancel_repeating_timer+0x62>
10000f62:	46c0      	nop			; (mov r8, r8)

10000f64 <sleep_ms>:
10000f64:	b5f8      	push	{r3, r4, r5, r6, r7, lr}
10000f66:	0004      	movs	r4, r0
10000f68:	f000 f8b8 	bl	100010dc <time_us_64>
10000f6c:	22fa      	movs	r2, #250	; 0xfa
10000f6e:	0006      	movs	r6, r0
10000f70:	000f      	movs	r7, r1
10000f72:	0020      	movs	r0, r4
10000f74:	2300      	movs	r3, #0
10000f76:	2100      	movs	r1, #0
10000f78:	0092      	lsls	r2, r2, #2
10000f7a:	f003 f997 	bl	100042ac <__wrap___aeabi_lmul>
10000f7e:	1980      	adds	r0, r0, r6
10000f80:	4179      	adcs	r1, r7
10000f82:	0004      	movs	r4, r0
10000f84:	000d      	movs	r5, r1
10000f86:	428f      	cmp	r7, r1
10000f88:	d82f      	bhi.n	10000fea <sleep_ms+0x86>
10000f8a:	d02c      	beq.n	10000fe6 <sleep_ms+0x82>
10000f8c:	2606      	movs	r6, #6
10000f8e:	4276      	negs	r6, r6
10000f90:	17f7      	asrs	r7, r6, #31
10000f92:	1936      	adds	r6, r6, r4
10000f94:	416f      	adcs	r7, r5
10000f96:	42af      	cmp	r7, r5
10000f98:	d92e      	bls.n	10000ff8 <sleep_ms+0x94>
10000f9a:	2600      	movs	r6, #0
10000f9c:	2700      	movs	r7, #0
10000f9e:	f000 f89d 	bl	100010dc <time_us_64>
10000fa2:	0032      	movs	r2, r6
10000fa4:	003b      	movs	r3, r7
10000fa6:	1a12      	subs	r2, r2, r0
10000fa8:	418b      	sbcs	r3, r1
10000faa:	2b00      	cmp	r3, #0
10000fac:	dc07      	bgt.n	10000fbe <sleep_ms+0x5a>
10000fae:	d004      	beq.n	10000fba <sleep_ms+0x56>
10000fb0:	0029      	movs	r1, r5
10000fb2:	0020      	movs	r0, r4
10000fb4:	f000 f89c 	bl	100010f0 <busy_wait_until>
10000fb8:	bdf8      	pop	{r3, r4, r5, r6, r7, pc}
10000fba:	2a00      	cmp	r2, #0
10000fbc:	d0f8      	beq.n	10000fb0 <sleep_ms+0x4c>
10000fbe:	4b11      	ldr	r3, [pc, #68]	; (10001004 <sleep_ms+0xa0>)
10000fc0:	0032      	movs	r2, r6
10000fc2:	6818      	ldr	r0, [r3, #0]
10000fc4:	003b      	movs	r3, r7
10000fc6:	f7ff fcc5 	bl	10000954 <alarm_pool_add_alarm_at.constprop.0>
10000fca:	2800      	cmp	r0, #0
10000fcc:	dbf0      	blt.n	10000fb0 <sleep_ms+0x4c>
10000fce:	0038      	movs	r0, r7
10000fd0:	4a0d      	ldr	r2, [pc, #52]	; (10001008 <sleep_ms+0xa4>)
10000fd2:	6a53      	ldr	r3, [r2, #36]	; 0x24
10000fd4:	4298      	cmp	r0, r3
10000fd6:	d804      	bhi.n	10000fe2 <sleep_ms+0x7e>
10000fd8:	6a91      	ldr	r1, [r2, #40]	; 0x28
10000fda:	428e      	cmp	r6, r1
10000fdc:	d9e8      	bls.n	10000fb0 <sleep_ms+0x4c>
10000fde:	4298      	cmp	r0, r3
10000fe0:	d1e6      	bne.n	10000fb0 <sleep_ms+0x4c>
10000fe2:	bf20      	wfe
10000fe4:	e7f5      	b.n	10000fd2 <sleep_ms+0x6e>
10000fe6:	4286      	cmp	r6, r0
10000fe8:	d9d0      	bls.n	10000f8c <sleep_ms+0x28>
10000fea:	2401      	movs	r4, #1
10000fec:	4264      	negs	r4, r4
10000fee:	17e5      	asrs	r5, r4, #31
10000ff0:	2607      	movs	r6, #7
10000ff2:	4276      	negs	r6, r6
10000ff4:	17f7      	asrs	r7, r6, #31
10000ff6:	e7d2      	b.n	10000f9e <sleep_ms+0x3a>
10000ff8:	42af      	cmp	r7, r5
10000ffa:	d1d0      	bne.n	10000f9e <sleep_ms+0x3a>
10000ffc:	42a6      	cmp	r6, r4
10000ffe:	d8cc      	bhi.n	10000f9a <sleep_ms+0x36>
10001000:	e7cd      	b.n	10000f9e <sleep_ms+0x3a>
10001002:	46c0      	nop			; (mov r8, r8)
10001004:	20000af4 	.word	0x20000af4
10001008:	40054000 	.word	0x40054000

1000100c <hardware_alarm_irq_handler>:
1000100c:	b5f0      	push	{r4, r5, r6, r7, lr}
1000100e:	46d6      	mov	lr, sl
10001010:	464f      	mov	r7, r9
10001012:	4646      	mov	r6, r8
10001014:	b5c0      	push	{r6, r7, lr}
10001016:	f3ef 8305 	mrs	r3, IPSR
1000101a:	223f      	movs	r2, #63	; 0x3f
1000101c:	4013      	ands	r3, r2
1000101e:	0018      	movs	r0, r3
10001020:	3810      	subs	r0, #16
10001022:	f3ef 8c10 	mrs	ip, PRIMASK
10001026:	b672      	cpsid	i
10001028:	4d20      	ldr	r5, [pc, #128]	; (100010ac <hardware_alarm_irq_handler+0xa0>)
1000102a:	682a      	ldr	r2, [r5, #0]
1000102c:	2a00      	cmp	r2, #0
1000102e:	d0fc      	beq.n	1000102a <hardware_alarm_irq_handler+0x1e>
10001030:	f3bf 8f5f 	dmb	sy
10001034:	2201      	movs	r2, #1
10001036:	0011      	movs	r1, r2
10001038:	4081      	lsls	r1, r0
1000103a:	4c1d      	ldr	r4, [pc, #116]	; (100010b0 <hardware_alarm_irq_handler+0xa4>)
1000103c:	4688      	mov	r8, r1
1000103e:	6361      	str	r1, [r4, #52]	; 0x34
10001040:	491c      	ldr	r1, [pc, #112]	; (100010b4 <hardware_alarm_irq_handler+0xa8>)
10001042:	0017      	movs	r7, r2
10001044:	780e      	ldrb	r6, [r1, #0]
10001046:	468a      	mov	sl, r1
10001048:	0031      	movs	r1, r6
1000104a:	40c1      	lsrs	r1, r0
1000104c:	400f      	ands	r7, r1
1000104e:	420a      	tst	r2, r1
10001050:	d015      	beq.n	1000107e <hardware_alarm_irq_handler+0x72>
10001052:	4919      	ldr	r1, [pc, #100]	; (100010b8 <hardware_alarm_irq_handler+0xac>)
10001054:	0082      	lsls	r2, r0, #2
10001056:	6a64      	ldr	r4, [r4, #36]	; 0x24
10001058:	5851      	ldr	r1, [r2, r1]
1000105a:	428c      	cmp	r4, r1
1000105c:	d319      	bcc.n	10001092 <hardware_alarm_irq_handler+0x86>
1000105e:	4b17      	ldr	r3, [pc, #92]	; (100010bc <hardware_alarm_irq_handler+0xb0>)
10001060:	58d2      	ldr	r2, [r2, r3]
10001062:	4643      	mov	r3, r8
10001064:	439e      	bics	r6, r3
10001066:	4653      	mov	r3, sl
10001068:	701e      	strb	r6, [r3, #0]
1000106a:	f3bf 8f5f 	dmb	sy
1000106e:	2300      	movs	r3, #0
10001070:	602b      	str	r3, [r5, #0]
10001072:	f38c 8810 	msr	PRIMASK, ip
10001076:	2a00      	cmp	r2, #0
10001078:	d006      	beq.n	10001088 <hardware_alarm_irq_handler+0x7c>
1000107a:	4790      	blx	r2
1000107c:	e004      	b.n	10001088 <hardware_alarm_irq_handler+0x7c>
1000107e:	f3bf 8f5f 	dmb	sy
10001082:	602f      	str	r7, [r5, #0]
10001084:	f38c 8810 	msr	PRIMASK, ip
10001088:	bc1c      	pop	{r2, r3, r4}
1000108a:	4690      	mov	r8, r2
1000108c:	4699      	mov	r9, r3
1000108e:	46a2      	mov	sl, r4
10001090:	bdf0      	pop	{r4, r5, r6, r7, pc}
10001092:	4a0b      	ldr	r2, [pc, #44]	; (100010c0 <hardware_alarm_irq_handler+0xb4>)
10001094:	009b      	lsls	r3, r3, #2
10001096:	4690      	mov	r8, r2
10001098:	4443      	add	r3, r8
1000109a:	681a      	ldr	r2, [r3, #0]
1000109c:	601a      	str	r2, [r3, #0]
1000109e:	f3bf 8f5f 	dmb	sy
100010a2:	2300      	movs	r3, #0
100010a4:	602b      	str	r3, [r5, #0]
100010a6:	f38c 8810 	msr	PRIMASK, ip
100010aa:	e7ed      	b.n	10001088 <hardware_alarm_irq_handler+0x7c>
100010ac:	d0000128 	.word	0xd0000128
100010b0:	40054000 	.word	0x40054000
100010b4:	20000b2a 	.word	0x20000b2a
100010b8:	20000b18 	.word	0x20000b18
100010bc:	20000abc 	.word	0x20000abc
100010c0:	40053fd0 	.word	0x40053fd0

100010c4 <hardware_alarm_claim>:
100010c4:	b510      	push	{r4, lr}
100010c6:	0001      	movs	r1, r0
100010c8:	4a02      	ldr	r2, [pc, #8]	; (100010d4 <hardware_alarm_claim+0x10>)
100010ca:	4803      	ldr	r0, [pc, #12]	; (100010d8 <hardware_alarm_claim+0x14>)
100010cc:	f7ff f9d2 	bl	10000474 <hw_claim_or_assert>
100010d0:	bd10      	pop	{r4, pc}
100010d2:	46c0      	nop			; (mov r8, r8)
100010d4:	100051a8 	.word	0x100051a8
100010d8:	20000b28 	.word	0x20000b28

100010dc <time_us_64>:
100010dc:	4b03      	ldr	r3, [pc, #12]	; (100010ec <time_us_64+0x10>)
100010de:	6a59      	ldr	r1, [r3, #36]	; 0x24
100010e0:	000a      	movs	r2, r1
100010e2:	6a98      	ldr	r0, [r3, #40]	; 0x28
100010e4:	6a59      	ldr	r1, [r3, #36]	; 0x24
100010e6:	428a      	cmp	r2, r1
100010e8:	d1fa      	bne.n	100010e0 <time_us_64+0x4>
100010ea:	4770      	bx	lr
100010ec:	40054000 	.word	0x40054000

100010f0 <busy_wait_until>:
100010f0:	4a06      	ldr	r2, [pc, #24]	; (1000110c <busy_wait_until+0x1c>)
100010f2:	6a53      	ldr	r3, [r2, #36]	; 0x24
100010f4:	4299      	cmp	r1, r3
100010f6:	d8fc      	bhi.n	100010f2 <busy_wait_until+0x2>
100010f8:	d107      	bne.n	1000110a <busy_wait_until+0x1a>
100010fa:	4b04      	ldr	r3, [pc, #16]	; (1000110c <busy_wait_until+0x1c>)
100010fc:	e002      	b.n	10001104 <busy_wait_until+0x14>
100010fe:	6a5a      	ldr	r2, [r3, #36]	; 0x24
10001100:	4291      	cmp	r1, r2
10001102:	d102      	bne.n	1000110a <busy_wait_until+0x1a>
10001104:	6a9a      	ldr	r2, [r3, #40]	; 0x28
10001106:	4282      	cmp	r2, r0
10001108:	d3f9      	bcc.n	100010fe <busy_wait_until+0xe>
1000110a:	4770      	bx	lr
1000110c:	40054000 	.word	0x40054000

10001110 <hardware_alarm_set_callback>:
10001110:	b570      	push	{r4, r5, r6, lr}
10001112:	0004      	movs	r4, r0
10001114:	000d      	movs	r5, r1
10001116:	f3ef 8610 	mrs	r6, PRIMASK
1000111a:	b672      	cpsid	i
1000111c:	4a1a      	ldr	r2, [pc, #104]	; (10001188 <hardware_alarm_set_callback+0x78>)
1000111e:	6813      	ldr	r3, [r2, #0]
10001120:	2b00      	cmp	r3, #0
10001122:	d0fc      	beq.n	1000111e <hardware_alarm_set_callback+0xe>
10001124:	f3bf 8f5f 	dmb	sy
10001128:	2d00      	cmp	r5, #0
1000112a:	d01b      	beq.n	10001164 <hardware_alarm_set_callback+0x54>
1000112c:	0020      	movs	r0, r4
1000112e:	f000 fd4f 	bl	10001bd0 <irq_get_vtable_handler>
10001132:	4916      	ldr	r1, [pc, #88]	; (1000118c <hardware_alarm_set_callback+0x7c>)
10001134:	4281      	cmp	r1, r0
10001136:	d00a      	beq.n	1000114e <hardware_alarm_set_callback+0x3e>
10001138:	0020      	movs	r0, r4
1000113a:	f000 fd51 	bl	10001be0 <irq_set_exclusive_handler>
1000113e:	2101      	movs	r1, #1
10001140:	0020      	movs	r0, r4
10001142:	f000 fd33 	bl	10001bac <irq_set_enabled>
10001146:	2301      	movs	r3, #1
10001148:	40a3      	lsls	r3, r4
1000114a:	4a11      	ldr	r2, [pc, #68]	; (10001190 <hardware_alarm_set_callback+0x80>)
1000114c:	6013      	str	r3, [r2, #0]
1000114e:	4b11      	ldr	r3, [pc, #68]	; (10001194 <hardware_alarm_set_callback+0x84>)
10001150:	00a4      	lsls	r4, r4, #2
10001152:	50e5      	str	r5, [r4, r3]
10001154:	f3bf 8f5f 	dmb	sy
10001158:	2200      	movs	r2, #0
1000115a:	4b0b      	ldr	r3, [pc, #44]	; (10001188 <hardware_alarm_set_callback+0x78>)
1000115c:	601a      	str	r2, [r3, #0]
1000115e:	f386 8810 	msr	PRIMASK, r6
10001162:	bd70      	pop	{r4, r5, r6, pc}
10001164:	4b0b      	ldr	r3, [pc, #44]	; (10001194 <hardware_alarm_set_callback+0x84>)
10001166:	00a2      	lsls	r2, r4, #2
10001168:	50d5      	str	r5, [r2, r3]
1000116a:	2201      	movs	r2, #1
1000116c:	40a2      	lsls	r2, r4
1000116e:	490a      	ldr	r1, [pc, #40]	; (10001198 <hardware_alarm_set_callback+0x88>)
10001170:	0020      	movs	r0, r4
10001172:	780b      	ldrb	r3, [r1, #0]
10001174:	4393      	bics	r3, r2
10001176:	700b      	strb	r3, [r1, #0]
10001178:	4904      	ldr	r1, [pc, #16]	; (1000118c <hardware_alarm_set_callback+0x7c>)
1000117a:	f000 fd5b 	bl	10001c34 <irq_remove_handler>
1000117e:	2100      	movs	r1, #0
10001180:	0020      	movs	r0, r4
10001182:	f000 fd13 	bl	10001bac <irq_set_enabled>
10001186:	e7e5      	b.n	10001154 <hardware_alarm_set_callback+0x44>
10001188:	d0000128 	.word	0xd0000128
1000118c:	1000100d 	.word	0x1000100d
10001190:	40056038 	.word	0x40056038
10001194:	20000abc 	.word	0x20000abc
10001198:	20000b2a 	.word	0x20000b2a

1000119c <hardware_alarm_set_target>:
1000119c:	b5f0      	push	{r4, r5, r6, r7, lr}
1000119e:	46ce      	mov	lr, r9
100011a0:	4647      	mov	r7, r8
100011a2:	b580      	push	{r7, lr}
100011a4:	4c2a      	ldr	r4, [pc, #168]	; (10001250 <hardware_alarm_set_target+0xb4>)
100011a6:	6a61      	ldr	r1, [r4, #36]	; 0x24
100011a8:	000d      	movs	r5, r1
100011aa:	6aa6      	ldr	r6, [r4, #40]	; 0x28
100011ac:	6a61      	ldr	r1, [r4, #36]	; 0x24
100011ae:	42a9      	cmp	r1, r5
100011b0:	d1fa      	bne.n	100011a8 <hardware_alarm_set_target+0xc>
100011b2:	428b      	cmp	r3, r1
100011b4:	d807      	bhi.n	100011c6 <hardware_alarm_set_target+0x2a>
100011b6:	d004      	beq.n	100011c2 <hardware_alarm_set_target+0x26>
100011b8:	2001      	movs	r0, #1
100011ba:	bc0c      	pop	{r2, r3}
100011bc:	4690      	mov	r8, r2
100011be:	4699      	mov	r9, r3
100011c0:	bdf0      	pop	{r4, r5, r6, r7, pc}
100011c2:	42b2      	cmp	r2, r6
100011c4:	d9f8      	bls.n	100011b8 <hardware_alarm_set_target+0x1c>
100011c6:	f3ef 8810 	mrs	r8, PRIMASK
100011ca:	b672      	cpsid	i
100011cc:	4c21      	ldr	r4, [pc, #132]	; (10001254 <hardware_alarm_set_target+0xb8>)
100011ce:	6821      	ldr	r1, [r4, #0]
100011d0:	2900      	cmp	r1, #0
100011d2:	d0fc      	beq.n	100011ce <hardware_alarm_set_target+0x32>
100011d4:	f3bf 8f5f 	dmb	sy
100011d8:	2501      	movs	r5, #1
100011da:	4085      	lsls	r5, r0
100011dc:	4c1c      	ldr	r4, [pc, #112]	; (10001250 <hardware_alarm_set_target+0xb4>)
100011de:	4e1e      	ldr	r6, [pc, #120]	; (10001258 <hardware_alarm_set_target+0xbc>)
100011e0:	6365      	str	r5, [r4, #52]	; 0x34
100011e2:	b2e9      	uxtb	r1, r5
100011e4:	468c      	mov	ip, r1
100011e6:	7831      	ldrb	r1, [r6, #0]
100011e8:	4689      	mov	r9, r1
100011ea:	4661      	mov	r1, ip
100011ec:	464f      	mov	r7, r9
100011ee:	4339      	orrs	r1, r7
100011f0:	7031      	strb	r1, [r6, #0]
100011f2:	1d01      	adds	r1, r0, #4
100011f4:	0089      	lsls	r1, r1, #2
100011f6:	510a      	str	r2, [r1, r4]
100011f8:	4918      	ldr	r1, [pc, #96]	; (1000125c <hardware_alarm_set_target+0xc0>)
100011fa:	0080      	lsls	r0, r0, #2
100011fc:	5043      	str	r3, [r0, r1]
100011fe:	6a21      	ldr	r1, [r4, #32]
10001200:	2000      	movs	r0, #0
10001202:	4229      	tst	r1, r5
10001204:	d00c      	beq.n	10001220 <hardware_alarm_set_target+0x84>
10001206:	0020      	movs	r0, r4
10001208:	6a61      	ldr	r1, [r4, #36]	; 0x24
1000120a:	000c      	movs	r4, r1
1000120c:	6a87      	ldr	r7, [r0, #40]	; 0x28
1000120e:	6a41      	ldr	r1, [r0, #36]	; 0x24
10001210:	42a1      	cmp	r1, r4
10001212:	d1fa      	bne.n	1000120a <hardware_alarm_set_target+0x6e>
10001214:	428b      	cmp	r3, r1
10001216:	d802      	bhi.n	1000121e <hardware_alarm_set_target+0x82>
10001218:	d10a      	bne.n	10001230 <hardware_alarm_set_target+0x94>
1000121a:	42ba      	cmp	r2, r7
1000121c:	d908      	bls.n	10001230 <hardware_alarm_set_target+0x94>
1000121e:	2000      	movs	r0, #0
10001220:	f3bf 8f5f 	dmb	sy
10001224:	2200      	movs	r2, #0
10001226:	4b0b      	ldr	r3, [pc, #44]	; (10001254 <hardware_alarm_set_target+0xb8>)
10001228:	601a      	str	r2, [r3, #0]
1000122a:	f388 8810 	msr	PRIMASK, r8
1000122e:	e7c4      	b.n	100011ba <hardware_alarm_set_target+0x1e>
10001230:	4b07      	ldr	r3, [pc, #28]	; (10001250 <hardware_alarm_set_target+0xb4>)
10001232:	464f      	mov	r7, r9
10001234:	621d      	str	r5, [r3, #32]
10001236:	635d      	str	r5, [r3, #52]	; 0x34
10001238:	4663      	mov	r3, ip
1000123a:	439f      	bics	r7, r3
1000123c:	2001      	movs	r0, #1
1000123e:	7037      	strb	r7, [r6, #0]
10001240:	f3bf 8f5f 	dmb	sy
10001244:	2200      	movs	r2, #0
10001246:	4b03      	ldr	r3, [pc, #12]	; (10001254 <hardware_alarm_set_target+0xb8>)
10001248:	601a      	str	r2, [r3, #0]
1000124a:	f388 8810 	msr	PRIMASK, r8
1000124e:	e7b4      	b.n	100011ba <hardware_alarm_set_target+0x1e>
10001250:	40054000 	.word	0x40054000
10001254:	d0000128 	.word	0xd0000128
10001258:	20000b2a 	.word	0x20000b2a
1000125c:	20000b18 	.word	0x20000b18

10001260 <hardware_alarm_cancel>:
10001260:	b510      	push	{r4, lr}
10001262:	f3ef 8410 	mrs	r4, PRIMASK
10001266:	b672      	cpsid	i
10001268:	490a      	ldr	r1, [pc, #40]	; (10001294 <hardware_alarm_cancel+0x34>)
1000126a:	680b      	ldr	r3, [r1, #0]
1000126c:	2b00      	cmp	r3, #0
1000126e:	d0fc      	beq.n	1000126a <hardware_alarm_cancel+0xa>
10001270:	f3bf 8f5f 	dmb	sy
10001274:	2301      	movs	r3, #1
10001276:	4083      	lsls	r3, r0
10001278:	4a07      	ldr	r2, [pc, #28]	; (10001298 <hardware_alarm_cancel+0x38>)
1000127a:	4808      	ldr	r0, [pc, #32]	; (1000129c <hardware_alarm_cancel+0x3c>)
1000127c:	6213      	str	r3, [r2, #32]
1000127e:	7802      	ldrb	r2, [r0, #0]
10001280:	439a      	bics	r2, r3
10001282:	7002      	strb	r2, [r0, #0]
10001284:	f3bf 8f5f 	dmb	sy
10001288:	2300      	movs	r3, #0
1000128a:	600b      	str	r3, [r1, #0]
1000128c:	f384 8810 	msr	PRIMASK, r4
10001290:	bd10      	pop	{r4, pc}
10001292:	46c0      	nop			; (mov r8, r8)
10001294:	d0000128 	.word	0xd0000128
10001298:	40054000 	.word	0x40054000
1000129c:	20000b2a 	.word	0x20000b2a

100012a0 <lock_init>:
100012a0:	4b02      	ldr	r3, [pc, #8]	; (100012ac <lock_init+0xc>)
100012a2:	469c      	mov	ip, r3
100012a4:	4461      	add	r1, ip
100012a6:	0089      	lsls	r1, r1, #2
100012a8:	6001      	str	r1, [r0, #0]
100012aa:	4770      	bx	lr
100012ac:	34000040 	.word	0x34000040

100012b0 <mutex_init>:
100012b0:	b510      	push	{r4, lr}
100012b2:	0004      	movs	r4, r0
100012b4:	f7ff f91c 	bl	100004f0 <next_striped_spin_lock_num>
100012b8:	0001      	movs	r1, r0
100012ba:	0020      	movs	r0, r4
100012bc:	f7ff fff0 	bl	100012a0 <lock_init>
100012c0:	f3bf 8f5f 	dmb	sy
100012c4:	bd10      	pop	{r4, pc}
100012c6:	46c0      	nop			; (mov r8, r8)

100012c8 <ph_merge_nodes>:
100012c8:	b570      	push	{r4, r5, r6, lr}
100012ca:	0005      	movs	r5, r0
100012cc:	000e      	movs	r6, r1
100012ce:	0014      	movs	r4, r2
100012d0:	2900      	cmp	r1, #0
100012d2:	d024      	beq.n	1000131e <ph_merge_nodes+0x56>
100012d4:	2a00      	cmp	r2, #0
100012d6:	d024      	beq.n	10001322 <ph_merge_nodes+0x5a>
100012d8:	6880      	ldr	r0, [r0, #8]
100012da:	686b      	ldr	r3, [r5, #4]
100012dc:	4798      	blx	r3
100012de:	6829      	ldr	r1, [r5, #0]
100012e0:	2800      	cmp	r0, #0
100012e2:	d00e      	beq.n	10001302 <ph_merge_nodes+0x3a>
100012e4:	0063      	lsls	r3, r4, #1
100012e6:	191b      	adds	r3, r3, r4
100012e8:	0072      	lsls	r2, r6, #1
100012ea:	3b03      	subs	r3, #3
100012ec:	1992      	adds	r2, r2, r6
100012ee:	18cb      	adds	r3, r1, r3
100012f0:	3a03      	subs	r2, #3
100012f2:	709e      	strb	r6, [r3, #2]
100012f4:	1888      	adds	r0, r1, r2
100012f6:	5c8a      	ldrb	r2, [r1, r2]
100012f8:	2a00      	cmp	r2, #0
100012fa:	d114      	bne.n	10001326 <ph_merge_nodes+0x5e>
100012fc:	7004      	strb	r4, [r0, #0]
100012fe:	0030      	movs	r0, r6
10001300:	e00e      	b.n	10001320 <ph_merge_nodes+0x58>
10001302:	0073      	lsls	r3, r6, #1
10001304:	199b      	adds	r3, r3, r6
10001306:	0062      	lsls	r2, r4, #1
10001308:	3b03      	subs	r3, #3
1000130a:	1912      	adds	r2, r2, r4
1000130c:	18cb      	adds	r3, r1, r3
1000130e:	3a03      	subs	r2, #3
10001310:	709c      	strb	r4, [r3, #2]
10001312:	1888      	adds	r0, r1, r2
10001314:	5c8a      	ldrb	r2, [r1, r2]
10001316:	2a00      	cmp	r2, #0
10001318:	d000      	beq.n	1000131c <ph_merge_nodes+0x54>
1000131a:	705a      	strb	r2, [r3, #1]
1000131c:	7006      	strb	r6, [r0, #0]
1000131e:	0020      	movs	r0, r4
10001320:	bd70      	pop	{r4, r5, r6, pc}
10001322:	0008      	movs	r0, r1
10001324:	e7fc      	b.n	10001320 <ph_merge_nodes+0x58>
10001326:	705a      	strb	r2, [r3, #1]
10001328:	7004      	strb	r4, [r0, #0]
1000132a:	0030      	movs	r0, r6
1000132c:	e7f8      	b.n	10001320 <ph_merge_nodes+0x58>
1000132e:	46c0      	nop			; (mov r8, r8)

10001330 <ph_create>:
10001330:	b5f0      	push	{r4, r5, r6, r7, lr}
10001332:	46c6      	mov	lr, r8
10001334:	0005      	movs	r5, r0
10001336:	000f      	movs	r7, r1
10001338:	b500      	push	{lr}
1000133a:	2110      	movs	r1, #16
1000133c:	2001      	movs	r0, #1
1000133e:	0016      	movs	r6, r2
10001340:	f003 f81a 	bl	10004378 <__wrap_calloc>
10001344:	b2eb      	uxtb	r3, r5
10001346:	0004      	movs	r4, r0
10001348:	7303      	strb	r3, [r0, #12]
1000134a:	2103      	movs	r1, #3
1000134c:	6047      	str	r7, [r0, #4]
1000134e:	0028      	movs	r0, r5
10001350:	4698      	mov	r8, r3
10001352:	f003 f811 	bl	10004378 <__wrap_calloc>
10001356:	2300      	movs	r3, #0
10001358:	7363      	strb	r3, [r4, #13]
1000135a:	3301      	adds	r3, #1
1000135c:	73a3      	strb	r3, [r4, #14]
1000135e:	4643      	mov	r3, r8
10001360:	21ff      	movs	r1, #255	; 0xff
10001362:	73e3      	strb	r3, [r4, #15]
10001364:	23fe      	movs	r3, #254	; 0xfe
10001366:	6020      	str	r0, [r4, #0]
10001368:	60a6      	str	r6, [r4, #8]
1000136a:	4029      	ands	r1, r5
1000136c:	422b      	tst	r3, r5
1000136e:	d006      	beq.n	1000137e <ph_create+0x4e>
10001370:	1c42      	adds	r2, r0, #1
10001372:	3bfd      	subs	r3, #253	; 0xfd
10001374:	3301      	adds	r3, #1
10001376:	7013      	strb	r3, [r2, #0]
10001378:	3203      	adds	r2, #3
1000137a:	428b      	cmp	r3, r1
1000137c:	d3fa      	bcc.n	10001374 <ph_create+0x44>
1000137e:	004b      	lsls	r3, r1, #1
10001380:	1859      	adds	r1, r3, r1
10001382:	2300      	movs	r3, #0
10001384:	1840      	adds	r0, r0, r1
10001386:	3803      	subs	r0, #3
10001388:	7043      	strb	r3, [r0, #1]
1000138a:	0020      	movs	r0, r4
1000138c:	bc04      	pop	{r2}
1000138e:	4690      	mov	r8, r2
10001390:	bdf0      	pop	{r4, r5, r6, r7, pc}
10001392:	46c0      	nop			; (mov r8, r8)

10001394 <ph_merge_two_pass>:
10001394:	b5f8      	push	{r3, r4, r5, r6, r7, lr}
10001396:	46ce      	mov	lr, r9
10001398:	4647      	mov	r7, r8
1000139a:	0006      	movs	r6, r0
1000139c:	000c      	movs	r4, r1
1000139e:	b580      	push	{r7, lr}
100013a0:	2900      	cmp	r1, #0
100013a2:	d007      	beq.n	100013b4 <ph_merge_two_pass+0x20>
100013a4:	004d      	lsls	r5, r1, #1
100013a6:	6803      	ldr	r3, [r0, #0]
100013a8:	186d      	adds	r5, r5, r1
100013aa:	3d03      	subs	r5, #3
100013ac:	195a      	adds	r2, r3, r5
100013ae:	7857      	ldrb	r7, [r2, #1]
100013b0:	2f00      	cmp	r7, #0
100013b2:	d104      	bne.n	100013be <ph_merge_two_pass+0x2a>
100013b4:	0020      	movs	r0, r4
100013b6:	bc0c      	pop	{r2, r3}
100013b8:	4690      	mov	r8, r2
100013ba:	4699      	mov	r9, r3
100013bc:	bdf8      	pop	{r3, r4, r5, r6, r7, pc}
100013be:	0079      	lsls	r1, r7, #1
100013c0:	19c9      	adds	r1, r1, r7
100013c2:	3903      	subs	r1, #3
100013c4:	4688      	mov	r8, r1
100013c6:	4443      	add	r3, r8
100013c8:	7859      	ldrb	r1, [r3, #1]
100013ca:	4689      	mov	r9, r1
100013cc:	2100      	movs	r1, #0
100013ce:	7059      	strb	r1, [r3, #1]
100013d0:	7051      	strb	r1, [r2, #1]
100013d2:	6873      	ldr	r3, [r6, #4]
100013d4:	003a      	movs	r2, r7
100013d6:	0021      	movs	r1, r4
100013d8:	6880      	ldr	r0, [r0, #8]
100013da:	4798      	blx	r3
100013dc:	6833      	ldr	r3, [r6, #0]
100013de:	2800      	cmp	r0, #0
100013e0:	d014      	beq.n	1000140c <ph_merge_two_pass+0x78>
100013e2:	4642      	mov	r2, r8
100013e4:	189a      	adds	r2, r3, r2
100013e6:	7094      	strb	r4, [r2, #2]
100013e8:	1959      	adds	r1, r3, r5
100013ea:	5d5b      	ldrb	r3, [r3, r5]
100013ec:	2b00      	cmp	r3, #0
100013ee:	d000      	beq.n	100013f2 <ph_merge_two_pass+0x5e>
100013f0:	7053      	strb	r3, [r2, #1]
100013f2:	700f      	strb	r7, [r1, #0]
100013f4:	0027      	movs	r7, r4
100013f6:	4649      	mov	r1, r9
100013f8:	0030      	movs	r0, r6
100013fa:	f7ff ffcb 	bl	10001394 <ph_merge_two_pass>
100013fe:	0039      	movs	r1, r7
10001400:	0002      	movs	r2, r0
10001402:	0030      	movs	r0, r6
10001404:	f7ff ff60 	bl	100012c8 <ph_merge_nodes>
10001408:	0004      	movs	r4, r0
1000140a:	e7d3      	b.n	100013b4 <ph_merge_two_pass+0x20>
1000140c:	4642      	mov	r2, r8
1000140e:	4641      	mov	r1, r8
10001410:	195d      	adds	r5, r3, r5
10001412:	70af      	strb	r7, [r5, #2]
10001414:	189a      	adds	r2, r3, r2
10001416:	5c5b      	ldrb	r3, [r3, r1]
10001418:	2b00      	cmp	r3, #0
1000141a:	d000      	beq.n	1000141e <ph_merge_two_pass+0x8a>
1000141c:	706b      	strb	r3, [r5, #1]
1000141e:	7014      	strb	r4, [r2, #0]
10001420:	e7e9      	b.n	100013f6 <ph_merge_two_pass+0x62>
10001422:	46c0      	nop			; (mov r8, r8)

10001424 <ph_remove_any_head>:
10001424:	b5f0      	push	{r4, r5, r6, r7, lr}
10001426:	4657      	mov	r7, sl
10001428:	4645      	mov	r5, r8
1000142a:	46de      	mov	lr, fp
1000142c:	464e      	mov	r6, r9
1000142e:	b5e0      	push	{r5, r6, r7, lr}
10001430:	000d      	movs	r5, r1
10001432:	006b      	lsls	r3, r5, #1
10001434:	6801      	ldr	r1, [r0, #0]
10001436:	195b      	adds	r3, r3, r5
10001438:	1edf      	subs	r7, r3, #3
1000143a:	0004      	movs	r4, r0
1000143c:	5dc8      	ldrb	r0, [r1, r7]
1000143e:	b083      	sub	sp, #12
10001440:	9201      	str	r2, [sp, #4]
10001442:	19ca      	adds	r2, r1, r7
10001444:	2800      	cmp	r0, #0
10001446:	d04c      	beq.n	100014e2 <ph_remove_any_head+0xbe>
10001448:	0043      	lsls	r3, r0, #1
1000144a:	181b      	adds	r3, r3, r0
1000144c:	3b03      	subs	r3, #3
1000144e:	18cb      	adds	r3, r1, r3
10001450:	785e      	ldrb	r6, [r3, #1]
10001452:	46b4      	mov	ip, r6
10001454:	2e00      	cmp	r6, #0
10001456:	d116      	bne.n	10001486 <ph_remove_any_head+0x62>
10001458:	9e01      	ldr	r6, [sp, #4]
1000145a:	2e00      	cmp	r6, #0
1000145c:	d13e      	bne.n	100014dc <ph_remove_any_head+0xb8>
1000145e:	7be6      	ldrb	r6, [r4, #15]
10001460:	2e00      	cmp	r6, #0
10001462:	d004      	beq.n	1000146e <ph_remove_any_head+0x4a>
10001464:	0073      	lsls	r3, r6, #1
10001466:	199b      	adds	r3, r3, r6
10001468:	18cb      	adds	r3, r1, r3
1000146a:	3b03      	subs	r3, #3
1000146c:	705d      	strb	r5, [r3, #1]
1000146e:	73e5      	strb	r5, [r4, #15]
10001470:	2800      	cmp	r0, #0
10001472:	d12f      	bne.n	100014d4 <ph_remove_any_head+0xb0>
10001474:	2300      	movs	r3, #0
10001476:	7053      	strb	r3, [r2, #1]
10001478:	b003      	add	sp, #12
1000147a:	bc3c      	pop	{r2, r3, r4, r5}
1000147c:	4690      	mov	r8, r2
1000147e:	4699      	mov	r9, r3
10001480:	46a2      	mov	sl, r4
10001482:	46ab      	mov	fp, r5
10001484:	bdf0      	pop	{r4, r5, r6, r7, pc}
10001486:	0072      	lsls	r2, r6, #1
10001488:	4462      	add	r2, ip
1000148a:	3a03      	subs	r2, #3
1000148c:	1889      	adds	r1, r1, r2
1000148e:	784a      	ldrb	r2, [r1, #1]
10001490:	4690      	mov	r8, r2
10001492:	2200      	movs	r2, #0
10001494:	704a      	strb	r2, [r1, #1]
10001496:	4691      	mov	r9, r2
10001498:	705a      	strb	r2, [r3, #1]
1000149a:	0001      	movs	r1, r0
1000149c:	0032      	movs	r2, r6
1000149e:	0020      	movs	r0, r4
100014a0:	f7ff ff12 	bl	100012c8 <ph_merge_nodes>
100014a4:	4643      	mov	r3, r8
100014a6:	4682      	mov	sl, r0
100014a8:	2b00      	cmp	r3, #0
100014aa:	d007      	beq.n	100014bc <ph_remove_any_head+0x98>
100014ac:	005b      	lsls	r3, r3, #1
100014ae:	6821      	ldr	r1, [r4, #0]
100014b0:	4443      	add	r3, r8
100014b2:	3b03      	subs	r3, #3
100014b4:	18cb      	adds	r3, r1, r3
100014b6:	785a      	ldrb	r2, [r3, #1]
100014b8:	2a00      	cmp	r2, #0
100014ba:	d116      	bne.n	100014ea <ph_remove_any_head+0xc6>
100014bc:	4642      	mov	r2, r8
100014be:	4651      	mov	r1, sl
100014c0:	0020      	movs	r0, r4
100014c2:	f7ff ff01 	bl	100012c8 <ph_merge_nodes>
100014c6:	6821      	ldr	r1, [r4, #0]
100014c8:	9b01      	ldr	r3, [sp, #4]
100014ca:	19ca      	adds	r2, r1, r7
100014cc:	2b00      	cmp	r3, #0
100014ce:	d0c6      	beq.n	1000145e <ph_remove_any_head+0x3a>
100014d0:	2800      	cmp	r0, #0
100014d2:	d0cf      	beq.n	10001474 <ph_remove_any_head+0x50>
100014d4:	0043      	lsls	r3, r0, #1
100014d6:	181b      	adds	r3, r3, r0
100014d8:	3b03      	subs	r3, #3
100014da:	18cb      	adds	r3, r1, r3
100014dc:	2100      	movs	r1, #0
100014de:	7099      	strb	r1, [r3, #2]
100014e0:	e7c8      	b.n	10001474 <ph_remove_any_head+0x50>
100014e2:	9b01      	ldr	r3, [sp, #4]
100014e4:	2b00      	cmp	r3, #0
100014e6:	d1c5      	bne.n	10001474 <ph_remove_any_head+0x50>
100014e8:	e7b9      	b.n	1000145e <ph_remove_any_head+0x3a>
100014ea:	0050      	lsls	r0, r2, #1
100014ec:	1880      	adds	r0, r0, r2
100014ee:	3803      	subs	r0, #3
100014f0:	1809      	adds	r1, r1, r0
100014f2:	7848      	ldrb	r0, [r1, #1]
100014f4:	4683      	mov	fp, r0
100014f6:	4648      	mov	r0, r9
100014f8:	7048      	strb	r0, [r1, #1]
100014fa:	7058      	strb	r0, [r3, #1]
100014fc:	4641      	mov	r1, r8
100014fe:	0020      	movs	r0, r4
10001500:	f7ff fee2 	bl	100012c8 <ph_merge_nodes>
10001504:	4659      	mov	r1, fp
10001506:	4680      	mov	r8, r0
10001508:	0020      	movs	r0, r4
1000150a:	f7ff ff43 	bl	10001394 <ph_merge_two_pass>
1000150e:	4641      	mov	r1, r8
10001510:	0002      	movs	r2, r0
10001512:	0020      	movs	r0, r4
10001514:	f7ff fed8 	bl	100012c8 <ph_merge_nodes>
10001518:	4680      	mov	r8, r0
1000151a:	e7cf      	b.n	100014bc <ph_remove_any_head+0x98>

1000151c <ph_remove_head_reserve>:
1000151c:	b5f0      	push	{r4, r5, r6, r7, lr}
1000151e:	464e      	mov	r6, r9
10001520:	4645      	mov	r5, r8
10001522:	46de      	mov	lr, fp
10001524:	4657      	mov	r7, sl
10001526:	b5e0      	push	{r5, r6, r7, lr}
10001528:	7b46      	ldrb	r6, [r0, #13]
1000152a:	0004      	movs	r4, r0
1000152c:	0075      	lsls	r5, r6, #1
1000152e:	6800      	ldr	r0, [r0, #0]
10001530:	19ad      	adds	r5, r5, r6
10001532:	3d03      	subs	r5, #3
10001534:	b083      	sub	sp, #12
10001536:	9101      	str	r1, [sp, #4]
10001538:	5d41      	ldrb	r1, [r0, r5]
1000153a:	1942      	adds	r2, r0, r5
1000153c:	2900      	cmp	r1, #0
1000153e:	d04e      	beq.n	100015de <ph_remove_head_reserve+0xc2>
10001540:	004b      	lsls	r3, r1, #1
10001542:	185b      	adds	r3, r3, r1
10001544:	3b03      	subs	r3, #3
10001546:	18c3      	adds	r3, r0, r3
10001548:	785f      	ldrb	r7, [r3, #1]
1000154a:	46bc      	mov	ip, r7
1000154c:	2f00      	cmp	r7, #0
1000154e:	d118      	bne.n	10001582 <ph_remove_head_reserve+0x66>
10001550:	9d01      	ldr	r5, [sp, #4]
10001552:	2d00      	cmp	r5, #0
10001554:	d140      	bne.n	100015d8 <ph_remove_head_reserve+0xbc>
10001556:	7be5      	ldrb	r5, [r4, #15]
10001558:	2d00      	cmp	r5, #0
1000155a:	d004      	beq.n	10001566 <ph_remove_head_reserve+0x4a>
1000155c:	006b      	lsls	r3, r5, #1
1000155e:	195b      	adds	r3, r3, r5
10001560:	18c3      	adds	r3, r0, r3
10001562:	3b03      	subs	r3, #3
10001564:	705e      	strb	r6, [r3, #1]
10001566:	73e6      	strb	r6, [r4, #15]
10001568:	2900      	cmp	r1, #0
1000156a:	d131      	bne.n	100015d0 <ph_remove_head_reserve+0xb4>
1000156c:	2300      	movs	r3, #0
1000156e:	0030      	movs	r0, r6
10001570:	7053      	strb	r3, [r2, #1]
10001572:	7361      	strb	r1, [r4, #13]
10001574:	b003      	add	sp, #12
10001576:	bc3c      	pop	{r2, r3, r4, r5}
10001578:	4690      	mov	r8, r2
1000157a:	4699      	mov	r9, r3
1000157c:	46a2      	mov	sl, r4
1000157e:	46ab      	mov	fp, r5
10001580:	bdf0      	pop	{r4, r5, r6, r7, pc}
10001582:	007a      	lsls	r2, r7, #1
10001584:	4462      	add	r2, ip
10001586:	3a03      	subs	r2, #3
10001588:	1880      	adds	r0, r0, r2
1000158a:	7842      	ldrb	r2, [r0, #1]
1000158c:	4693      	mov	fp, r2
1000158e:	2200      	movs	r2, #0
10001590:	7042      	strb	r2, [r0, #1]
10001592:	4691      	mov	r9, r2
10001594:	705a      	strb	r2, [r3, #1]
10001596:	0020      	movs	r0, r4
10001598:	003a      	movs	r2, r7
1000159a:	f7ff fe95 	bl	100012c8 <ph_merge_nodes>
1000159e:	465b      	mov	r3, fp
100015a0:	4680      	mov	r8, r0
100015a2:	2b00      	cmp	r3, #0
100015a4:	d007      	beq.n	100015b6 <ph_remove_head_reserve+0x9a>
100015a6:	005b      	lsls	r3, r3, #1
100015a8:	6821      	ldr	r1, [r4, #0]
100015aa:	445b      	add	r3, fp
100015ac:	3b03      	subs	r3, #3
100015ae:	18cb      	adds	r3, r1, r3
100015b0:	785a      	ldrb	r2, [r3, #1]
100015b2:	2a00      	cmp	r2, #0
100015b4:	d117      	bne.n	100015e6 <ph_remove_head_reserve+0xca>
100015b6:	465a      	mov	r2, fp
100015b8:	4641      	mov	r1, r8
100015ba:	0020      	movs	r0, r4
100015bc:	f7ff fe84 	bl	100012c8 <ph_merge_nodes>
100015c0:	9b01      	ldr	r3, [sp, #4]
100015c2:	0001      	movs	r1, r0
100015c4:	6820      	ldr	r0, [r4, #0]
100015c6:	1942      	adds	r2, r0, r5
100015c8:	2b00      	cmp	r3, #0
100015ca:	d0c4      	beq.n	10001556 <ph_remove_head_reserve+0x3a>
100015cc:	2900      	cmp	r1, #0
100015ce:	d0cd      	beq.n	1000156c <ph_remove_head_reserve+0x50>
100015d0:	004b      	lsls	r3, r1, #1
100015d2:	185b      	adds	r3, r3, r1
100015d4:	3b03      	subs	r3, #3
100015d6:	18c3      	adds	r3, r0, r3
100015d8:	2000      	movs	r0, #0
100015da:	7098      	strb	r0, [r3, #2]
100015dc:	e7c6      	b.n	1000156c <ph_remove_head_reserve+0x50>
100015de:	9b01      	ldr	r3, [sp, #4]
100015e0:	2b00      	cmp	r3, #0
100015e2:	d1c3      	bne.n	1000156c <ph_remove_head_reserve+0x50>
100015e4:	e7b7      	b.n	10001556 <ph_remove_head_reserve+0x3a>
100015e6:	0050      	lsls	r0, r2, #1
100015e8:	1880      	adds	r0, r0, r2
100015ea:	3803      	subs	r0, #3
100015ec:	1809      	adds	r1, r1, r0
100015ee:	7848      	ldrb	r0, [r1, #1]
100015f0:	4682      	mov	sl, r0
100015f2:	4648      	mov	r0, r9
100015f4:	7048      	strb	r0, [r1, #1]
100015f6:	7058      	strb	r0, [r3, #1]
100015f8:	4659      	mov	r1, fp
100015fa:	0020      	movs	r0, r4
100015fc:	f7ff fe64 	bl	100012c8 <ph_merge_nodes>
10001600:	4653      	mov	r3, sl
10001602:	4683      	mov	fp, r0
10001604:	2b00      	cmp	r3, #0
10001606:	d007      	beq.n	10001618 <ph_remove_head_reserve+0xfc>
10001608:	005b      	lsls	r3, r3, #1
1000160a:	6821      	ldr	r1, [r4, #0]
1000160c:	4453      	add	r3, sl
1000160e:	3b03      	subs	r3, #3
10001610:	18cb      	adds	r3, r1, r3
10001612:	785a      	ldrb	r2, [r3, #1]
10001614:	2a00      	cmp	r2, #0
10001616:	d106      	bne.n	10001626 <ph_remove_head_reserve+0x10a>
10001618:	4659      	mov	r1, fp
1000161a:	4652      	mov	r2, sl
1000161c:	0020      	movs	r0, r4
1000161e:	f7ff fe53 	bl	100012c8 <ph_merge_nodes>
10001622:	4683      	mov	fp, r0
10001624:	e7c7      	b.n	100015b6 <ph_remove_head_reserve+0x9a>
10001626:	0050      	lsls	r0, r2, #1
10001628:	1880      	adds	r0, r0, r2
1000162a:	3803      	subs	r0, #3
1000162c:	1809      	adds	r1, r1, r0
1000162e:	4648      	mov	r0, r9
10001630:	784f      	ldrb	r7, [r1, #1]
10001632:	7048      	strb	r0, [r1, #1]
10001634:	7058      	strb	r0, [r3, #1]
10001636:	4651      	mov	r1, sl
10001638:	0020      	movs	r0, r4
1000163a:	f7ff fe45 	bl	100012c8 <ph_merge_nodes>
1000163e:	0039      	movs	r1, r7
10001640:	4681      	mov	r9, r0
10001642:	0020      	movs	r0, r4
10001644:	f7ff fea6 	bl	10001394 <ph_merge_two_pass>
10001648:	4649      	mov	r1, r9
1000164a:	0002      	movs	r2, r0
1000164c:	0020      	movs	r0, r4
1000164e:	f7ff fe3b 	bl	100012c8 <ph_merge_nodes>
10001652:	4682      	mov	sl, r0
10001654:	e7e0      	b.n	10001618 <ph_remove_head_reserve+0xfc>
10001656:	46c0      	nop			; (mov r8, r8)

10001658 <ph_delete>:
10001658:	b570      	push	{r4, r5, r6, lr}
1000165a:	0004      	movs	r4, r0
1000165c:	2900      	cmp	r1, #0
1000165e:	d02c      	beq.n	100016ba <ph_delete+0x62>
10001660:	7b43      	ldrb	r3, [r0, #13]
10001662:	428b      	cmp	r3, r1
10001664:	d02e      	beq.n	100016c4 <ph_delete+0x6c>
10001666:	6805      	ldr	r5, [r0, #0]
10001668:	0048      	lsls	r0, r1, #1
1000166a:	1840      	adds	r0, r0, r1
1000166c:	3803      	subs	r0, #3
1000166e:	1828      	adds	r0, r5, r0
10001670:	7882      	ldrb	r2, [r0, #2]
10001672:	2a00      	cmp	r2, #0
10001674:	d021      	beq.n	100016ba <ph_delete+0x62>
10001676:	0053      	lsls	r3, r2, #1
10001678:	189b      	adds	r3, r3, r2
1000167a:	3b03      	subs	r3, #3
1000167c:	5cea      	ldrb	r2, [r5, r3]
1000167e:	18ee      	adds	r6, r5, r3
10001680:	428a      	cmp	r2, r1
10001682:	d102      	bne.n	1000168a <ph_delete+0x32>
10001684:	e01b      	b.n	100016be <ph_delete+0x66>
10001686:	2a00      	cmp	r2, #0
10001688:	d008      	beq.n	1000169c <ph_delete+0x44>
1000168a:	0053      	lsls	r3, r2, #1
1000168c:	189b      	adds	r3, r3, r2
1000168e:	3b03      	subs	r3, #3
10001690:	18eb      	adds	r3, r5, r3
10001692:	785a      	ldrb	r2, [r3, #1]
10001694:	428a      	cmp	r2, r1
10001696:	d1f6      	bne.n	10001686 <ph_delete+0x2e>
10001698:	7842      	ldrb	r2, [r0, #1]
1000169a:	705a      	strb	r2, [r3, #1]
1000169c:	2300      	movs	r3, #0
1000169e:	2200      	movs	r2, #0
100016a0:	7083      	strb	r3, [r0, #2]
100016a2:	7043      	strb	r3, [r0, #1]
100016a4:	0020      	movs	r0, r4
100016a6:	f7ff febd 	bl	10001424 <ph_remove_any_head>
100016aa:	7b61      	ldrb	r1, [r4, #13]
100016ac:	0002      	movs	r2, r0
100016ae:	0020      	movs	r0, r4
100016b0:	f7ff fe0a 	bl	100012c8 <ph_merge_nodes>
100016b4:	7360      	strb	r0, [r4, #13]
100016b6:	2001      	movs	r0, #1
100016b8:	e000      	b.n	100016bc <ph_delete+0x64>
100016ba:	2000      	movs	r0, #0
100016bc:	bd70      	pop	{r4, r5, r6, pc}
100016be:	7843      	ldrb	r3, [r0, #1]
100016c0:	7033      	strb	r3, [r6, #0]
100016c2:	e7eb      	b.n	1000169c <ph_delete+0x44>
100016c4:	2200      	movs	r2, #0
100016c6:	0019      	movs	r1, r3
100016c8:	f7ff feac 	bl	10001424 <ph_remove_any_head>
100016cc:	7360      	strb	r0, [r4, #13]
100016ce:	2001      	movs	r0, #1
100016d0:	e7f4      	b.n	100016bc <ph_delete+0x64>
100016d2:	46c0      	nop			; (mov r8, r8)

100016d4 <runtime_init>:
100016d4:	4b2b      	ldr	r3, [pc, #172]	; (10001784 <runtime_init+0xb0>)
100016d6:	4a2c      	ldr	r2, [pc, #176]	; (10001788 <runtime_init+0xb4>)
100016d8:	b570      	push	{r4, r5, r6, lr}
100016da:	601a      	str	r2, [r3, #0]
100016dc:	4a2b      	ldr	r2, [pc, #172]	; (1000178c <runtime_init+0xb8>)
100016de:	4b2c      	ldr	r3, [pc, #176]	; (10001790 <runtime_init+0xbc>)
100016e0:	492c      	ldr	r1, [pc, #176]	; (10001794 <runtime_init+0xc0>)
100016e2:	601a      	str	r2, [r3, #0]
100016e4:	0010      	movs	r0, r2
100016e6:	688b      	ldr	r3, [r1, #8]
100016e8:	4398      	bics	r0, r3
100016ea:	d1fb      	bne.n	100016e4 <runtime_init+0x10>
100016ec:	4c2a      	ldr	r4, [pc, #168]	; (10001798 <runtime_init+0xc4>)
100016ee:	4b2b      	ldr	r3, [pc, #172]	; (1000179c <runtime_init+0xc8>)
100016f0:	429c      	cmp	r4, r3
100016f2:	d209      	bcs.n	10001708 <runtime_init+0x34>
100016f4:	3b01      	subs	r3, #1
100016f6:	1b1d      	subs	r5, r3, r4
100016f8:	08ad      	lsrs	r5, r5, #2
100016fa:	3501      	adds	r5, #1
100016fc:	00ad      	lsls	r5, r5, #2
100016fe:	192d      	adds	r5, r5, r4
10001700:	cc08      	ldmia	r4!, {r3}
10001702:	4798      	blx	r3
10001704:	42ac      	cmp	r4, r5
10001706:	d1fb      	bne.n	10001700 <runtime_init+0x2c>
10001708:	f000 f894 	bl	10001834 <clocks_init>
1000170c:	4a24      	ldr	r2, [pc, #144]	; (100017a0 <runtime_init+0xcc>)
1000170e:	4b20      	ldr	r3, [pc, #128]	; (10001790 <runtime_init+0xbc>)
10001710:	601a      	str	r2, [r3, #0]
10001712:	4a20      	ldr	r2, [pc, #128]	; (10001794 <runtime_init+0xc0>)
10001714:	6893      	ldr	r3, [r2, #8]
10001716:	01db      	lsls	r3, r3, #7
10001718:	3380      	adds	r3, #128	; 0x80
1000171a:	d1fb      	bne.n	10001714 <runtime_init+0x40>
1000171c:	2240      	movs	r2, #64	; 0x40
1000171e:	4b21      	ldr	r3, [pc, #132]	; (100017a4 <runtime_init+0xd0>)
10001720:	4c21      	ldr	r4, [pc, #132]	; (100017a8 <runtime_init+0xd4>)
10001722:	679a      	str	r2, [r3, #120]	; 0x78
10001724:	675a      	str	r2, [r3, #116]	; 0x74
10001726:	671a      	str	r2, [r3, #112]	; 0x70
10001728:	66da      	str	r2, [r3, #108]	; 0x6c
1000172a:	4b20      	ldr	r3, [pc, #128]	; (100017ac <runtime_init+0xd8>)
1000172c:	429c      	cmp	r4, r3
1000172e:	d20b      	bcs.n	10001748 <runtime_init+0x74>
10001730:	3b01      	subs	r3, #1
10001732:	1b1d      	subs	r5, r3, r4
10001734:	08ed      	lsrs	r5, r5, #3
10001736:	3501      	adds	r5, #1
10001738:	00ed      	lsls	r5, r5, #3
1000173a:	192d      	adds	r5, r5, r4
1000173c:	0020      	movs	r0, r4
1000173e:	3408      	adds	r4, #8
10001740:	f7ff fdb6 	bl	100012b0 <mutex_init>
10001744:	42ac      	cmp	r4, r5
10001746:	d1f9      	bne.n	1000173c <runtime_init+0x68>
10001748:	4c19      	ldr	r4, [pc, #100]	; (100017b0 <runtime_init+0xdc>)
1000174a:	4d1a      	ldr	r5, [pc, #104]	; (100017b4 <runtime_init+0xe0>)
1000174c:	68a1      	ldr	r1, [r4, #8]
1000174e:	22c0      	movs	r2, #192	; 0xc0
10001750:	0028      	movs	r0, r5
10001752:	f002 fe23 	bl	1000439c <__wrap___aeabi_memcpy>
10001756:	60a5      	str	r5, [r4, #8]
10001758:	f7fe febc 	bl	100004d4 <spin_locks_reset>
1000175c:	f000 fbaa 	bl	10001eb4 <irq_init_priorities>
10001760:	f7ff f98c 	bl	10000a7c <alarm_pool_init_default>
10001764:	4c14      	ldr	r4, [pc, #80]	; (100017b8 <runtime_init+0xe4>)
10001766:	4b15      	ldr	r3, [pc, #84]	; (100017bc <runtime_init+0xe8>)
10001768:	429c      	cmp	r4, r3
1000176a:	d209      	bcs.n	10001780 <runtime_init+0xac>
1000176c:	3b01      	subs	r3, #1
1000176e:	1b1d      	subs	r5, r3, r4
10001770:	08ad      	lsrs	r5, r5, #2
10001772:	3501      	adds	r5, #1
10001774:	00ad      	lsls	r5, r5, #2
10001776:	192d      	adds	r5, r5, r4
10001778:	cc08      	ldmia	r4!, {r3}
1000177a:	4798      	blx	r3
1000177c:	42a5      	cmp	r5, r4
1000177e:	d1fb      	bne.n	10001778 <runtime_init+0xa4>
10001780:	bd70      	pop	{r4, r5, r6, pc}
10001782:	46c0      	nop			; (mov r8, r8)
10001784:	4000e000 	.word	0x4000e000
10001788:	ffffcdbf 	.word	0xffffcdbf
1000178c:	003c7ffe 	.word	0x003c7ffe
10001790:	4000f000 	.word	0x4000f000
10001794:	4000c000 	.word	0x4000c000
10001798:	20000a58 	.word	0x20000a58
1000179c:	20000a68 	.word	0x20000a68
100017a0:	01ffffff 	.word	0x01ffffff
100017a4:	4001f000 	.word	0x4001f000
100017a8:	20000a50 	.word	0x20000a50
100017ac:	20000a58 	.word	0x20000a58
100017b0:	e000ed00 	.word	0xe000ed00
100017b4:	20000000 	.word	0x20000000
100017b8:	20000a68 	.word	0x20000a68
100017bc:	20000a6c 	.word	0x20000a6c

100017c0 <_sbrk>:
100017c0:	4a09      	ldr	r2, [pc, #36]	; (100017e8 <_sbrk+0x28>)
100017c2:	0003      	movs	r3, r0
100017c4:	6810      	ldr	r0, [r2, #0]
100017c6:	2800      	cmp	r0, #0
100017c8:	d005      	beq.n	100017d6 <_sbrk+0x16>
100017ca:	4908      	ldr	r1, [pc, #32]	; (100017ec <_sbrk+0x2c>)
100017cc:	18c3      	adds	r3, r0, r3
100017ce:	428b      	cmp	r3, r1
100017d0:	d207      	bcs.n	100017e2 <_sbrk+0x22>
100017d2:	6013      	str	r3, [r2, #0]
100017d4:	4770      	bx	lr
100017d6:	4806      	ldr	r0, [pc, #24]	; (100017f0 <_sbrk+0x30>)
100017d8:	4904      	ldr	r1, [pc, #16]	; (100017ec <_sbrk+0x2c>)
100017da:	18c3      	adds	r3, r0, r3
100017dc:	6010      	str	r0, [r2, #0]
100017de:	428b      	cmp	r3, r1
100017e0:	d3f7      	bcc.n	100017d2 <_sbrk+0x12>
100017e2:	2001      	movs	r0, #1
100017e4:	4240      	negs	r0, r0
100017e6:	e7f5      	b.n	100017d4 <_sbrk+0x14>
100017e8:	20000b00 	.word	0x20000b00
100017ec:	20040000 	.word	0x20040000
100017f0:	20000d5c 	.word	0x20000d5c

100017f4 <exit>:
100017f4:	be00      	bkpt	0x0000
100017f6:	e7fd      	b.n	100017f4 <exit>

100017f8 <panic>:
100017f8:	b40f      	push	{r0, r1, r2, r3}
100017fa:	b500      	push	{lr}
100017fc:	4808      	ldr	r0, [pc, #32]	; (10001820 <panic+0x28>)
100017fe:	b083      	sub	sp, #12
10001800:	f002 fede 	bl	100045c0 <__wrap_puts>
10001804:	9b04      	ldr	r3, [sp, #16]
10001806:	2b00      	cmp	r3, #0
10001808:	d007      	beq.n	1000181a <panic+0x22>
1000180a:	a905      	add	r1, sp, #20
1000180c:	0018      	movs	r0, r3
1000180e:	9101      	str	r1, [sp, #4]
10001810:	f001 fe78 	bl	10003504 <weak_raw_vprintf>
10001814:	4803      	ldr	r0, [pc, #12]	; (10001824 <panic+0x2c>)
10001816:	f002 fed3 	bl	100045c0 <__wrap_puts>
1000181a:	be00      	bkpt	0x0000
1000181c:	e7fd      	b.n	1000181a <panic+0x22>
1000181e:	46c0      	nop			; (mov r8, r8)
10001820:	100051cc 	.word	0x100051cc
10001824:	100051dc 	.word	0x100051dc

10001828 <hard_assertion_failure>:
10001828:	b510      	push	{r4, lr}
1000182a:	4801      	ldr	r0, [pc, #4]	; (10001830 <hard_assertion_failure+0x8>)
1000182c:	f7ff ffe4 	bl	100017f8 <panic>
10001830:	100051e0 	.word	0x100051e0

10001834 <clocks_init>:
10001834:	b530      	push	{r4, r5, lr}
10001836:	200c      	movs	r0, #12
10001838:	b083      	sub	sp, #12
1000183a:	f000 f971 	bl	10001b20 <watchdog_start_tick>
1000183e:	f7fe fe63 	bl	10000508 <running_on_fpga>
10001842:	2800      	cmp	r0, #0
10001844:	d00e      	beq.n	10001864 <clocks_init+0x30>
10001846:	4b9a      	ldr	r3, [pc, #616]	; (10001ab0 <clocks_init+0x27c>)
10001848:	4a9a      	ldr	r2, [pc, #616]	; (10001ab4 <clocks_init+0x280>)
1000184a:	601a      	str	r2, [r3, #0]
1000184c:	605a      	str	r2, [r3, #4]
1000184e:	609a      	str	r2, [r3, #8]
10001850:	60da      	str	r2, [r3, #12]
10001852:	611a      	str	r2, [r3, #16]
10001854:	615a      	str	r2, [r3, #20]
10001856:	619a      	str	r2, [r3, #24]
10001858:	61da      	str	r2, [r3, #28]
1000185a:	621a      	str	r2, [r3, #32]
1000185c:	4a96      	ldr	r2, [pc, #600]	; (10001ab8 <clocks_init+0x284>)
1000185e:	625a      	str	r2, [r3, #36]	; 0x24
10001860:	b003      	add	sp, #12
10001862:	bd30      	pop	{r4, r5, pc}
10001864:	4c95      	ldr	r4, [pc, #596]	; (10001abc <clocks_init+0x288>)
10001866:	67a0      	str	r0, [r4, #120]	; 0x78
10001868:	f000 f962 	bl	10001b30 <xosc_init>
1000186c:	2201      	movs	r2, #1
1000186e:	4b94      	ldr	r3, [pc, #592]	; (10001ac0 <clocks_init+0x28c>)
10001870:	601a      	str	r2, [r3, #0]
10001872:	6c63      	ldr	r3, [r4, #68]	; 0x44
10001874:	2b01      	cmp	r3, #1
10001876:	d1fc      	bne.n	10001872 <clocks_init+0x3e>
10001878:	2203      	movs	r2, #3
1000187a:	4b92      	ldr	r3, [pc, #584]	; (10001ac4 <clocks_init+0x290>)
1000187c:	601a      	str	r2, [r3, #0]
1000187e:	4a8f      	ldr	r2, [pc, #572]	; (10001abc <clocks_init+0x288>)
10001880:	6b93      	ldr	r3, [r2, #56]	; 0x38
10001882:	2b01      	cmp	r3, #1
10001884:	d1fc      	bne.n	10001880 <clocks_init+0x4c>
10001886:	22c0      	movs	r2, #192	; 0xc0
10001888:	4b8f      	ldr	r3, [pc, #572]	; (10001ac8 <clocks_init+0x294>)
1000188a:	0192      	lsls	r2, r2, #6
1000188c:	601a      	str	r2, [r3, #0]
1000188e:	4b8f      	ldr	r3, [pc, #572]	; (10001acc <clocks_init+0x298>)
10001890:	498f      	ldr	r1, [pc, #572]	; (10001ad0 <clocks_init+0x29c>)
10001892:	601a      	str	r2, [r3, #0]
10001894:	0010      	movs	r0, r2
10001896:	688b      	ldr	r3, [r1, #8]
10001898:	4398      	bics	r0, r3
1000189a:	1e03      	subs	r3, r0, #0
1000189c:	d1fa      	bne.n	10001894 <clocks_init+0x60>
1000189e:	2402      	movs	r4, #2
100018a0:	2101      	movs	r1, #1
100018a2:	4a8c      	ldr	r2, [pc, #560]	; (10001ad4 <clocks_init+0x2a0>)
100018a4:	488c      	ldr	r0, [pc, #560]	; (10001ad8 <clocks_init+0x2a4>)
100018a6:	3306      	adds	r3, #6
100018a8:	9400      	str	r4, [sp, #0]
100018aa:	f000 f955 	bl	10001b58 <pll_init>
100018ae:	2305      	movs	r3, #5
100018b0:	4a8a      	ldr	r2, [pc, #552]	; (10001adc <clocks_init+0x2a8>)
100018b2:	2101      	movs	r1, #1
100018b4:	488a      	ldr	r0, [pc, #552]	; (10001ae0 <clocks_init+0x2ac>)
100018b6:	9400      	str	r4, [sp, #0]
100018b8:	f000 f94e 	bl	10001b58 <pll_init>
100018bc:	4b89      	ldr	r3, [pc, #548]	; (10001ae4 <clocks_init+0x2b0>)
100018be:	685a      	ldr	r2, [r3, #4]
100018c0:	2aff      	cmp	r2, #255	; 0xff
100018c2:	d802      	bhi.n	100018ca <clocks_init+0x96>
100018c4:	2280      	movs	r2, #128	; 0x80
100018c6:	0052      	lsls	r2, r2, #1
100018c8:	605a      	str	r2, [r3, #4]
100018ca:	2280      	movs	r2, #128	; 0x80
100018cc:	4c78      	ldr	r4, [pc, #480]	; (10001ab0 <clocks_init+0x27c>)
100018ce:	4b7d      	ldr	r3, [pc, #500]	; (10001ac4 <clocks_init+0x290>)
100018d0:	6921      	ldr	r1, [r4, #16]
100018d2:	0112      	lsls	r2, r2, #4
100018d4:	4d83      	ldr	r5, [pc, #524]	; (10001ae4 <clocks_init+0x2b0>)
100018d6:	601a      	str	r2, [r3, #0]
100018d8:	2900      	cmp	r1, #0
100018da:	d005      	beq.n	100018e8 <clocks_init+0xb4>
100018dc:	6960      	ldr	r0, [r4, #20]
100018de:	f001 fe8b 	bl	100035f8 <__wrap___aeabi_uidiv>
100018e2:	3001      	adds	r0, #1
100018e4:	3801      	subs	r0, #1
100018e6:	d1fd      	bne.n	100018e4 <clocks_init+0xb0>
100018e8:	21e0      	movs	r1, #224	; 0xe0
100018ea:	4b7e      	ldr	r3, [pc, #504]	; (10001ae4 <clocks_init+0x2b0>)
100018ec:	2002      	movs	r0, #2
100018ee:	681a      	ldr	r2, [r3, #0]
100018f0:	4011      	ands	r1, r2
100018f2:	2280      	movs	r2, #128	; 0x80
100018f4:	0152      	lsls	r2, r2, #5
100018f6:	432a      	orrs	r2, r5
100018f8:	6011      	str	r1, [r2, #0]
100018fa:	6819      	ldr	r1, [r3, #0]
100018fc:	4048      	eors	r0, r1
100018fe:	2103      	movs	r1, #3
10001900:	4001      	ands	r1, r0
10001902:	6011      	str	r1, [r2, #0]
10001904:	2104      	movs	r1, #4
10001906:	689a      	ldr	r2, [r3, #8]
10001908:	4211      	tst	r1, r2
1000190a:	d0fc      	beq.n	10001906 <clocks_init+0xd2>
1000190c:	2280      	movs	r2, #128	; 0x80
1000190e:	2180      	movs	r1, #128	; 0x80
10001910:	0192      	lsls	r2, r2, #6
10001912:	432a      	orrs	r2, r5
10001914:	0109      	lsls	r1, r1, #4
10001916:	6011      	str	r1, [r2, #0]
10001918:	2280      	movs	r2, #128	; 0x80
1000191a:	0052      	lsls	r2, r2, #1
1000191c:	605a      	str	r2, [r3, #4]
1000191e:	4b72      	ldr	r3, [pc, #456]	; (10001ae8 <clocks_init+0x2b4>)
10001920:	6123      	str	r3, [r4, #16]
10001922:	4b72      	ldr	r3, [pc, #456]	; (10001aec <clocks_init+0x2b8>)
10001924:	6859      	ldr	r1, [r3, #4]
10001926:	29ff      	cmp	r1, #255	; 0xff
10001928:	d800      	bhi.n	1000192c <clocks_init+0xf8>
1000192a:	605a      	str	r2, [r3, #4]
1000192c:	2203      	movs	r2, #3
1000192e:	486f      	ldr	r0, [pc, #444]	; (10001aec <clocks_init+0x2b8>)
10001930:	4b63      	ldr	r3, [pc, #396]	; (10001ac0 <clocks_init+0x28c>)
10001932:	2101      	movs	r1, #1
10001934:	601a      	str	r2, [r3, #0]
10001936:	0002      	movs	r2, r0
10001938:	6893      	ldr	r3, [r2, #8]
1000193a:	4219      	tst	r1, r3
1000193c:	d0fc      	beq.n	10001938 <clocks_init+0x104>
1000193e:	25e0      	movs	r5, #224	; 0xe0
10001940:	6813      	ldr	r3, [r2, #0]
10001942:	401d      	ands	r5, r3
10001944:	2380      	movs	r3, #128	; 0x80
10001946:	015b      	lsls	r3, r3, #5
10001948:	4303      	orrs	r3, r0
1000194a:	601d      	str	r5, [r3, #0]
1000194c:	6812      	ldr	r2, [r2, #0]
1000194e:	404a      	eors	r2, r1
10001950:	2103      	movs	r1, #3
10001952:	4011      	ands	r1, r2
10001954:	6019      	str	r1, [r3, #0]
10001956:	2102      	movs	r1, #2
10001958:	4a64      	ldr	r2, [pc, #400]	; (10001aec <clocks_init+0x2b8>)
1000195a:	6893      	ldr	r3, [r2, #8]
1000195c:	4219      	tst	r1, r3
1000195e:	d0fc      	beq.n	1000195a <clocks_init+0x126>
10001960:	2380      	movs	r3, #128	; 0x80
10001962:	2180      	movs	r1, #128	; 0x80
10001964:	019b      	lsls	r3, r3, #6
10001966:	4303      	orrs	r3, r0
10001968:	0109      	lsls	r1, r1, #4
1000196a:	6019      	str	r1, [r3, #0]
1000196c:	2180      	movs	r1, #128	; 0x80
1000196e:	4b60      	ldr	r3, [pc, #384]	; (10001af0 <clocks_init+0x2bc>)
10001970:	0049      	lsls	r1, r1, #1
10001972:	6051      	str	r1, [r2, #4]
10001974:	6163      	str	r3, [r4, #20]
10001976:	4b5f      	ldr	r3, [pc, #380]	; (10001af4 <clocks_init+0x2c0>)
10001978:	685a      	ldr	r2, [r3, #4]
1000197a:	2aff      	cmp	r2, #255	; 0xff
1000197c:	d800      	bhi.n	10001980 <clocks_init+0x14c>
1000197e:	6059      	str	r1, [r3, #4]
10001980:	2280      	movs	r2, #128	; 0x80
10001982:	4b5d      	ldr	r3, [pc, #372]	; (10001af8 <clocks_init+0x2c4>)
10001984:	69e1      	ldr	r1, [r4, #28]
10001986:	0112      	lsls	r2, r2, #4
10001988:	4d5a      	ldr	r5, [pc, #360]	; (10001af4 <clocks_init+0x2c0>)
1000198a:	601a      	str	r2, [r3, #0]
1000198c:	2900      	cmp	r1, #0
1000198e:	d005      	beq.n	1000199c <clocks_init+0x168>
10001990:	6960      	ldr	r0, [r4, #20]
10001992:	f001 fe31 	bl	100035f8 <__wrap___aeabi_uidiv>
10001996:	3001      	adds	r0, #1
10001998:	3801      	subs	r0, #1
1000199a:	d1fd      	bne.n	10001998 <clocks_init+0x164>
1000199c:	22e0      	movs	r2, #224	; 0xe0
1000199e:	4955      	ldr	r1, [pc, #340]	; (10001af4 <clocks_init+0x2c0>)
100019a0:	680b      	ldr	r3, [r1, #0]
100019a2:	401a      	ands	r2, r3
100019a4:	2380      	movs	r3, #128	; 0x80
100019a6:	015b      	lsls	r3, r3, #5
100019a8:	432b      	orrs	r3, r5
100019aa:	601a      	str	r2, [r3, #0]
100019ac:	2380      	movs	r3, #128	; 0x80
100019ae:	2280      	movs	r2, #128	; 0x80
100019b0:	019b      	lsls	r3, r3, #6
100019b2:	432b      	orrs	r3, r5
100019b4:	0112      	lsls	r2, r2, #4
100019b6:	601a      	str	r2, [r3, #0]
100019b8:	2280      	movs	r2, #128	; 0x80
100019ba:	4b3e      	ldr	r3, [pc, #248]	; (10001ab4 <clocks_init+0x280>)
100019bc:	0052      	lsls	r2, r2, #1
100019be:	604a      	str	r2, [r1, #4]
100019c0:	61e3      	str	r3, [r4, #28]
100019c2:	4b4e      	ldr	r3, [pc, #312]	; (10001afc <clocks_init+0x2c8>)
100019c4:	6859      	ldr	r1, [r3, #4]
100019c6:	29ff      	cmp	r1, #255	; 0xff
100019c8:	d800      	bhi.n	100019cc <clocks_init+0x198>
100019ca:	605a      	str	r2, [r3, #4]
100019cc:	2280      	movs	r2, #128	; 0x80
100019ce:	4b4c      	ldr	r3, [pc, #304]	; (10001b00 <clocks_init+0x2cc>)
100019d0:	6a21      	ldr	r1, [r4, #32]
100019d2:	0112      	lsls	r2, r2, #4
100019d4:	4d49      	ldr	r5, [pc, #292]	; (10001afc <clocks_init+0x2c8>)
100019d6:	601a      	str	r2, [r3, #0]
100019d8:	2900      	cmp	r1, #0
100019da:	d005      	beq.n	100019e8 <clocks_init+0x1b4>
100019dc:	6960      	ldr	r0, [r4, #20]
100019de:	f001 fe0b 	bl	100035f8 <__wrap___aeabi_uidiv>
100019e2:	3001      	adds	r0, #1
100019e4:	3801      	subs	r0, #1
100019e6:	d1fd      	bne.n	100019e4 <clocks_init+0x1b0>
100019e8:	22e0      	movs	r2, #224	; 0xe0
100019ea:	4944      	ldr	r1, [pc, #272]	; (10001afc <clocks_init+0x2c8>)
100019ec:	680b      	ldr	r3, [r1, #0]
100019ee:	401a      	ands	r2, r3
100019f0:	2380      	movs	r3, #128	; 0x80
100019f2:	015b      	lsls	r3, r3, #5
100019f4:	432b      	orrs	r3, r5
100019f6:	601a      	str	r2, [r3, #0]
100019f8:	2380      	movs	r3, #128	; 0x80
100019fa:	2280      	movs	r2, #128	; 0x80
100019fc:	019b      	lsls	r3, r3, #6
100019fe:	432b      	orrs	r3, r5
10001a00:	0112      	lsls	r2, r2, #4
10001a02:	601a      	str	r2, [r3, #0]
10001a04:	2380      	movs	r3, #128	; 0x80
10001a06:	2280      	movs	r2, #128	; 0x80
10001a08:	005b      	lsls	r3, r3, #1
10001a0a:	604b      	str	r3, [r1, #4]
10001a0c:	4b29      	ldr	r3, [pc, #164]	; (10001ab4 <clocks_init+0x280>)
10001a0e:	02d2      	lsls	r2, r2, #11
10001a10:	6223      	str	r3, [r4, #32]
10001a12:	4b3c      	ldr	r3, [pc, #240]	; (10001b04 <clocks_init+0x2d0>)
10001a14:	6859      	ldr	r1, [r3, #4]
10001a16:	4291      	cmp	r1, r2
10001a18:	d200      	bcs.n	10001a1c <clocks_init+0x1e8>
10001a1a:	605a      	str	r2, [r3, #4]
10001a1c:	2280      	movs	r2, #128	; 0x80
10001a1e:	4b3a      	ldr	r3, [pc, #232]	; (10001b08 <clocks_init+0x2d4>)
10001a20:	6a61      	ldr	r1, [r4, #36]	; 0x24
10001a22:	0112      	lsls	r2, r2, #4
10001a24:	4d37      	ldr	r5, [pc, #220]	; (10001b04 <clocks_init+0x2d0>)
10001a26:	601a      	str	r2, [r3, #0]
10001a28:	2900      	cmp	r1, #0
10001a2a:	d005      	beq.n	10001a38 <clocks_init+0x204>
10001a2c:	6960      	ldr	r0, [r4, #20]
10001a2e:	f001 fde3 	bl	100035f8 <__wrap___aeabi_uidiv>
10001a32:	3001      	adds	r0, #1
10001a34:	3801      	subs	r0, #1
10001a36:	d1fd      	bne.n	10001a34 <clocks_init+0x200>
10001a38:	22e0      	movs	r2, #224	; 0xe0
10001a3a:	4932      	ldr	r1, [pc, #200]	; (10001b04 <clocks_init+0x2d0>)
10001a3c:	680b      	ldr	r3, [r1, #0]
10001a3e:	401a      	ands	r2, r3
10001a40:	2380      	movs	r3, #128	; 0x80
10001a42:	015b      	lsls	r3, r3, #5
10001a44:	432b      	orrs	r3, r5
10001a46:	601a      	str	r2, [r3, #0]
10001a48:	2380      	movs	r3, #128	; 0x80
10001a4a:	2280      	movs	r2, #128	; 0x80
10001a4c:	019b      	lsls	r3, r3, #6
10001a4e:	432b      	orrs	r3, r5
10001a50:	0112      	lsls	r2, r2, #4
10001a52:	601a      	str	r2, [r3, #0]
10001a54:	2380      	movs	r3, #128	; 0x80
10001a56:	02db      	lsls	r3, r3, #11
10001a58:	604b      	str	r3, [r1, #4]
10001a5a:	4b17      	ldr	r3, [pc, #92]	; (10001ab8 <clocks_init+0x284>)
10001a5c:	6263      	str	r3, [r4, #36]	; 0x24
10001a5e:	4b2b      	ldr	r3, [pc, #172]	; (10001b0c <clocks_init+0x2d8>)
10001a60:	685a      	ldr	r2, [r3, #4]
10001a62:	2aff      	cmp	r2, #255	; 0xff
10001a64:	d802      	bhi.n	10001a6c <clocks_init+0x238>
10001a66:	2280      	movs	r2, #128	; 0x80
10001a68:	0052      	lsls	r2, r2, #1
10001a6a:	605a      	str	r2, [r3, #4]
10001a6c:	2280      	movs	r2, #128	; 0x80
10001a6e:	4b28      	ldr	r3, [pc, #160]	; (10001b10 <clocks_init+0x2dc>)
10001a70:	69a1      	ldr	r1, [r4, #24]
10001a72:	0112      	lsls	r2, r2, #4
10001a74:	4d25      	ldr	r5, [pc, #148]	; (10001b0c <clocks_init+0x2d8>)
10001a76:	601a      	str	r2, [r3, #0]
10001a78:	2900      	cmp	r1, #0
10001a7a:	d005      	beq.n	10001a88 <clocks_init+0x254>
10001a7c:	6960      	ldr	r0, [r4, #20]
10001a7e:	f001 fdbb 	bl	100035f8 <__wrap___aeabi_uidiv>
10001a82:	3001      	adds	r0, #1
10001a84:	3801      	subs	r0, #1
10001a86:	d1fd      	bne.n	10001a84 <clocks_init+0x250>
10001a88:	22e0      	movs	r2, #224	; 0xe0
10001a8a:	4920      	ldr	r1, [pc, #128]	; (10001b0c <clocks_init+0x2d8>)
10001a8c:	680b      	ldr	r3, [r1, #0]
10001a8e:	401a      	ands	r2, r3
10001a90:	2380      	movs	r3, #128	; 0x80
10001a92:	015b      	lsls	r3, r3, #5
10001a94:	432b      	orrs	r3, r5
10001a96:	601a      	str	r2, [r3, #0]
10001a98:	2380      	movs	r3, #128	; 0x80
10001a9a:	2280      	movs	r2, #128	; 0x80
10001a9c:	019b      	lsls	r3, r3, #6
10001a9e:	432b      	orrs	r3, r5
10001aa0:	0112      	lsls	r2, r2, #4
10001aa2:	601a      	str	r2, [r3, #0]
10001aa4:	2380      	movs	r3, #128	; 0x80
10001aa6:	005b      	lsls	r3, r3, #1
10001aa8:	604b      	str	r3, [r1, #4]
10001aaa:	4b11      	ldr	r3, [pc, #68]	; (10001af0 <clocks_init+0x2bc>)
10001aac:	61a3      	str	r3, [r4, #24]
10001aae:	e6d7      	b.n	10001860 <clocks_init+0x2c>
10001ab0:	20000acc 	.word	0x20000acc
10001ab4:	02dc6c00 	.word	0x02dc6c00
10001ab8:	0000b71b 	.word	0x0000b71b
10001abc:	40008000 	.word	0x40008000
10001ac0:	4000b03c 	.word	0x4000b03c
10001ac4:	4000b030 	.word	0x4000b030
10001ac8:	4000e000 	.word	0x4000e000
10001acc:	4000f000 	.word	0x4000f000
10001ad0:	4000c000 	.word	0x4000c000
10001ad4:	59682f00 	.word	0x59682f00
10001ad8:	40028000 	.word	0x40028000
10001adc:	1c9c3800 	.word	0x1c9c3800
10001ae0:	4002c000 	.word	0x4002c000
10001ae4:	40008030 	.word	0x40008030
10001ae8:	00b71b00 	.word	0x00b71b00
10001aec:	4000803c 	.word	0x4000803c
10001af0:	07735940 	.word	0x07735940
10001af4:	40008054 	.word	0x40008054
10001af8:	4000b054 	.word	0x4000b054
10001afc:	40008060 	.word	0x40008060
10001b00:	4000b060 	.word	0x4000b060
10001b04:	4000806c 	.word	0x4000806c
10001b08:	4000b06c 	.word	0x4000b06c
10001b0c:	40008048 	.word	0x40008048
10001b10:	4000b048 	.word	0x4000b048

10001b14 <clock_get_hz>:
10001b14:	4b01      	ldr	r3, [pc, #4]	; (10001b1c <clock_get_hz+0x8>)
10001b16:	0080      	lsls	r0, r0, #2
10001b18:	58c0      	ldr	r0, [r0, r3]
10001b1a:	4770      	bx	lr
10001b1c:	20000acc 	.word	0x20000acc

10001b20 <watchdog_start_tick>:
10001b20:	2380      	movs	r3, #128	; 0x80
10001b22:	4a02      	ldr	r2, [pc, #8]	; (10001b2c <watchdog_start_tick+0xc>)
10001b24:	009b      	lsls	r3, r3, #2
10001b26:	4303      	orrs	r3, r0
10001b28:	62d3      	str	r3, [r2, #44]	; 0x2c
10001b2a:	4770      	bx	lr
10001b2c:	40058000 	.word	0x40058000

10001b30 <xosc_init>:
10001b30:	23aa      	movs	r3, #170	; 0xaa
10001b32:	4a06      	ldr	r2, [pc, #24]	; (10001b4c <xosc_init+0x1c>)
10001b34:	011b      	lsls	r3, r3, #4
10001b36:	6013      	str	r3, [r2, #0]
10001b38:	232f      	movs	r3, #47	; 0x2f
10001b3a:	4905      	ldr	r1, [pc, #20]	; (10001b50 <xosc_init+0x20>)
10001b3c:	60d3      	str	r3, [r2, #12]
10001b3e:	4b05      	ldr	r3, [pc, #20]	; (10001b54 <xosc_init+0x24>)
10001b40:	6019      	str	r1, [r3, #0]
10001b42:	6853      	ldr	r3, [r2, #4]
10001b44:	2b00      	cmp	r3, #0
10001b46:	dafc      	bge.n	10001b42 <xosc_init+0x12>
10001b48:	4770      	bx	lr
10001b4a:	46c0      	nop			; (mov r8, r8)
10001b4c:	40024000 	.word	0x40024000
10001b50:	00fab000 	.word	0x00fab000
10001b54:	40026000 	.word	0x40026000

10001b58 <pll_init>:
10001b58:	b5f8      	push	{r3, r4, r5, r6, r7, lr}
10001b5a:	001d      	movs	r5, r3
10001b5c:	ab06      	add	r3, sp, #24
10001b5e:	781e      	ldrb	r6, [r3, #0]
10001b60:	2301      	movs	r3, #1
10001b62:	425b      	negs	r3, r3
10001b64:	6043      	str	r3, [r0, #4]
10001b66:	2300      	movs	r3, #0
10001b68:	0004      	movs	r4, r0
10001b6a:	6083      	str	r3, [r0, #8]
10001b6c:	6001      	str	r1, [r0, #0]
10001b6e:	200c      	movs	r0, #12
10001b70:	0017      	movs	r7, r2
10001b72:	f001 fd41 	bl	100035f8 <__wrap___aeabi_uidiv>
10001b76:	0141      	lsls	r1, r0, #5
10001b78:	1a09      	subs	r1, r1, r0
10001b7a:	018b      	lsls	r3, r1, #6
10001b7c:	1a59      	subs	r1, r3, r1
10001b7e:	00c9      	lsls	r1, r1, #3
10001b80:	1809      	adds	r1, r1, r0
10001b82:	0189      	lsls	r1, r1, #6
10001b84:	0038      	movs	r0, r7
10001b86:	f001 fd37 	bl	100035f8 <__wrap___aeabi_uidiv>
10001b8a:	21c0      	movs	r1, #192	; 0xc0
10001b8c:	1d23      	adds	r3, r4, #4
10001b8e:	0189      	lsls	r1, r1, #6
10001b90:	4319      	orrs	r1, r3
10001b92:	2321      	movs	r3, #33	; 0x21
10001b94:	60a0      	str	r0, [r4, #8]
10001b96:	600b      	str	r3, [r1, #0]
10001b98:	6822      	ldr	r2, [r4, #0]
10001b9a:	2a00      	cmp	r2, #0
10001b9c:	dafc      	bge.n	10001b98 <pll_init+0x40>
10001b9e:	2308      	movs	r3, #8
10001ba0:	042d      	lsls	r5, r5, #16
10001ba2:	0336      	lsls	r6, r6, #12
10001ba4:	432e      	orrs	r6, r5
10001ba6:	60e6      	str	r6, [r4, #12]
10001ba8:	600b      	str	r3, [r1, #0]
10001baa:	bdf8      	pop	{r3, r4, r5, r6, r7, pc}

10001bac <irq_set_enabled>:
10001bac:	2301      	movs	r3, #1
10001bae:	4083      	lsls	r3, r0
10001bb0:	2900      	cmp	r1, #0
10001bb2:	d004      	beq.n	10001bbe <irq_set_enabled+0x12>
10001bb4:	4a03      	ldr	r2, [pc, #12]	; (10001bc4 <irq_set_enabled+0x18>)
10001bb6:	6013      	str	r3, [r2, #0]
10001bb8:	4a03      	ldr	r2, [pc, #12]	; (10001bc8 <irq_set_enabled+0x1c>)
10001bba:	6013      	str	r3, [r2, #0]
10001bbc:	4770      	bx	lr
10001bbe:	4a03      	ldr	r2, [pc, #12]	; (10001bcc <irq_set_enabled+0x20>)
10001bc0:	6013      	str	r3, [r2, #0]
10001bc2:	e7fb      	b.n	10001bbc <irq_set_enabled+0x10>
10001bc4:	e000e280 	.word	0xe000e280
10001bc8:	e000e100 	.word	0xe000e100
10001bcc:	e000e180 	.word	0xe000e180

10001bd0 <irq_get_vtable_handler>:
10001bd0:	4b02      	ldr	r3, [pc, #8]	; (10001bdc <irq_get_vtable_handler+0xc>)
10001bd2:	3010      	adds	r0, #16
10001bd4:	689b      	ldr	r3, [r3, #8]
10001bd6:	0080      	lsls	r0, r0, #2
10001bd8:	58c0      	ldr	r0, [r0, r3]
10001bda:	4770      	bx	lr
10001bdc:	e000ed00 	.word	0xe000ed00

10001be0 <irq_set_exclusive_handler>:
10001be0:	b570      	push	{r4, r5, r6, lr}
10001be2:	000d      	movs	r5, r1
10001be4:	f3ef 8610 	mrs	r6, PRIMASK
10001be8:	b672      	cpsid	i
10001bea:	4a0f      	ldr	r2, [pc, #60]	; (10001c28 <irq_set_exclusive_handler+0x48>)
10001bec:	6813      	ldr	r3, [r2, #0]
10001bee:	2b00      	cmp	r3, #0
10001bf0:	d0fc      	beq.n	10001bec <irq_set_exclusive_handler+0xc>
10001bf2:	f3bf 8f5f 	dmb	sy
10001bf6:	4b0d      	ldr	r3, [pc, #52]	; (10001c2c <irq_set_exclusive_handler+0x4c>)
10001bf8:	3010      	adds	r0, #16
10001bfa:	689b      	ldr	r3, [r3, #8]
10001bfc:	0084      	lsls	r4, r0, #2
10001bfe:	591b      	ldr	r3, [r3, r4]
10001c00:	4a0b      	ldr	r2, [pc, #44]	; (10001c30 <irq_set_exclusive_handler+0x50>)
10001c02:	4293      	cmp	r3, r2
10001c04:	d003      	beq.n	10001c0e <irq_set_exclusive_handler+0x2e>
10001c06:	429d      	cmp	r5, r3
10001c08:	d001      	beq.n	10001c0e <irq_set_exclusive_handler+0x2e>
10001c0a:	f7ff fe0d 	bl	10001828 <hard_assertion_failure>
10001c0e:	4b07      	ldr	r3, [pc, #28]	; (10001c2c <irq_set_exclusive_handler+0x4c>)
10001c10:	689b      	ldr	r3, [r3, #8]
10001c12:	511d      	str	r5, [r3, r4]
10001c14:	f3bf 8f5f 	dmb	sy
10001c18:	f3bf 8f5f 	dmb	sy
10001c1c:	2200      	movs	r2, #0
10001c1e:	4b02      	ldr	r3, [pc, #8]	; (10001c28 <irq_set_exclusive_handler+0x48>)
10001c20:	601a      	str	r2, [r3, #0]
10001c22:	f386 8810 	msr	PRIMASK, r6
10001c26:	bd70      	pop	{r4, r5, r6, pc}
10001c28:	d0000124 	.word	0xd0000124
10001c2c:	e000ed00 	.word	0xe000ed00
10001c30:	100002cd 	.word	0x100002cd

10001c34 <irq_remove_handler>:
10001c34:	b5f0      	push	{r4, r5, r6, r7, lr}
10001c36:	46de      	mov	lr, fp
10001c38:	4657      	mov	r7, sl
10001c3a:	464e      	mov	r6, r9
10001c3c:	4645      	mov	r5, r8
10001c3e:	b5e0      	push	{r5, r6, r7, lr}
10001c40:	000c      	movs	r4, r1
10001c42:	b083      	sub	sp, #12
10001c44:	f3ef 8a10 	mrs	sl, PRIMASK
10001c48:	b672      	cpsid	i
10001c4a:	4a5f      	ldr	r2, [pc, #380]	; (10001dc8 <irq_remove_handler+0x194>)
10001c4c:	6813      	ldr	r3, [r2, #0]
10001c4e:	2b00      	cmp	r3, #0
10001c50:	d0fc      	beq.n	10001c4c <irq_remove_handler+0x18>
10001c52:	f3bf 8f5f 	dmb	sy
10001c56:	2210      	movs	r2, #16
10001c58:	4691      	mov	r9, r2
10001c5a:	4481      	add	r9, r0
10001c5c:	464a      	mov	r2, r9
10001c5e:	4b5b      	ldr	r3, [pc, #364]	; (10001dcc <irq_remove_handler+0x198>)
10001c60:	0096      	lsls	r6, r2, #2
10001c62:	689b      	ldr	r3, [r3, #8]
10001c64:	599d      	ldr	r5, [r3, r6]
10001c66:	4b5a      	ldr	r3, [pc, #360]	; (10001dd0 <irq_remove_handler+0x19c>)
10001c68:	4698      	mov	r8, r3
10001c6a:	429d      	cmp	r5, r3
10001c6c:	d005      	beq.n	10001c7a <irq_remove_handler+0x46>
10001c6e:	42a5      	cmp	r5, r4
10001c70:	d016      	beq.n	10001ca0 <irq_remove_handler+0x6c>
10001c72:	4f58      	ldr	r7, [pc, #352]	; (10001dd4 <irq_remove_handler+0x1a0>)
10001c74:	1beb      	subs	r3, r5, r7
10001c76:	2b2f      	cmp	r3, #47	; 0x2f
10001c78:	d914      	bls.n	10001ca4 <irq_remove_handler+0x70>
10001c7a:	4b54      	ldr	r3, [pc, #336]	; (10001dcc <irq_remove_handler+0x198>)
10001c7c:	689b      	ldr	r3, [r3, #8]
10001c7e:	519d      	str	r5, [r3, r6]
10001c80:	f3bf 8f5f 	dmb	sy
10001c84:	f3bf 8f5f 	dmb	sy
10001c88:	2200      	movs	r2, #0
10001c8a:	4b4f      	ldr	r3, [pc, #316]	; (10001dc8 <irq_remove_handler+0x194>)
10001c8c:	601a      	str	r2, [r3, #0]
10001c8e:	f38a 8810 	msr	PRIMASK, sl
10001c92:	b003      	add	sp, #12
10001c94:	bc3c      	pop	{r2, r3, r4, r5}
10001c96:	4690      	mov	r8, r2
10001c98:	4699      	mov	r9, r3
10001c9a:	46a2      	mov	sl, r4
10001c9c:	46ab      	mov	fp, r5
10001c9e:	bdf0      	pop	{r4, r5, r6, r7, pc}
10001ca0:	001d      	movs	r5, r3
10001ca2:	e7ea      	b.n	10001c7a <irq_remove_handler+0x46>
10001ca4:	2301      	movs	r3, #1
10001ca6:	4083      	lsls	r3, r0
10001ca8:	469b      	mov	fp, r3
10001caa:	465a      	mov	r2, fp
10001cac:	4b4a      	ldr	r3, [pc, #296]	; (10001dd8 <irq_remove_handler+0x1a4>)
10001cae:	681b      	ldr	r3, [r3, #0]
10001cb0:	401a      	ands	r2, r3
10001cb2:	9200      	str	r2, [sp, #0]
10001cb4:	465a      	mov	r2, fp
10001cb6:	4b49      	ldr	r3, [pc, #292]	; (10001ddc <irq_remove_handler+0x1a8>)
10001cb8:	601a      	str	r2, [r3, #0]
10001cba:	f3bf 8f5f 	dmb	sy
10001cbe:	f7fe fa6a 	bl	10000196 <__get_current_exception>
10001cc2:	9001      	str	r0, [sp, #4]
10001cc4:	2800      	cmp	r0, #0
10001cc6:	d003      	beq.n	10001cd0 <irq_remove_handler+0x9c>
10001cc8:	4581      	cmp	r9, r0
10001cca:	d001      	beq.n	10001cd0 <irq_remove_handler+0x9c>
10001ccc:	f7ff fdac 	bl	10001828 <hard_assertion_failure>
10001cd0:	2301      	movs	r3, #1
10001cd2:	0029      	movs	r1, r5
10001cd4:	4399      	bics	r1, r3
10001cd6:	688b      	ldr	r3, [r1, #8]
10001cd8:	42a3      	cmp	r3, r4
10001cda:	d069      	beq.n	10001db0 <irq_remove_handler+0x17c>
10001cdc:	000a      	movs	r2, r1
10001cde:	e007      	b.n	10001cf0 <irq_remove_handler+0xbc>
10001ce0:	0043      	lsls	r3, r0, #1
10001ce2:	181b      	adds	r3, r3, r0
10001ce4:	009b      	lsls	r3, r3, #2
10001ce6:	18fb      	adds	r3, r7, r3
10001ce8:	6898      	ldr	r0, [r3, #8]
10001cea:	42a0      	cmp	r0, r4
10001cec:	d011      	beq.n	10001d12 <irq_remove_handler+0xde>
10001cee:	001a      	movs	r2, r3
10001cf0:	2006      	movs	r0, #6
10001cf2:	5610      	ldrsb	r0, [r2, r0]
10001cf4:	2800      	cmp	r0, #0
10001cf6:	daf3      	bge.n	10001ce0 <irq_remove_handler+0xac>
10001cf8:	9b00      	ldr	r3, [sp, #0]
10001cfa:	2b00      	cmp	r3, #0
10001cfc:	d005      	beq.n	10001d0a <irq_remove_handler+0xd6>
10001cfe:	465a      	mov	r2, fp
10001d00:	4b37      	ldr	r3, [pc, #220]	; (10001de0 <irq_remove_handler+0x1ac>)
10001d02:	601a      	str	r2, [r3, #0]
10001d04:	4b34      	ldr	r3, [pc, #208]	; (10001dd8 <irq_remove_handler+0x1a4>)
10001d06:	601a      	str	r2, [r3, #0]
10001d08:	e7b7      	b.n	10001c7a <irq_remove_handler+0x46>
10001d0a:	465a      	mov	r2, fp
10001d0c:	4b33      	ldr	r3, [pc, #204]	; (10001ddc <irq_remove_handler+0x1a8>)
10001d0e:	601a      	str	r2, [r3, #0]
10001d10:	e7b3      	b.n	10001c7a <irq_remove_handler+0x46>
10001d12:	2006      	movs	r0, #6
10001d14:	5618      	ldrsb	r0, [r3, r0]
10001d16:	2800      	cmp	r0, #0
10001d18:	db22      	blt.n	10001d60 <irq_remove_handler+0x12c>
10001d1a:	0042      	lsls	r2, r0, #1
10001d1c:	1811      	adds	r1, r2, r0
10001d1e:	0089      	lsls	r1, r1, #2
10001d20:	187c      	adds	r4, r7, r1
10001d22:	4688      	mov	r8, r1
10001d24:	68a1      	ldr	r1, [r4, #8]
10001d26:	6099      	str	r1, [r3, #8]
10001d28:	79e1      	ldrb	r1, [r4, #7]
10001d2a:	71d9      	strb	r1, [r3, #7]
10001d2c:	2106      	movs	r1, #6
10001d2e:	5661      	ldrsb	r1, [r4, r1]
10001d30:	7199      	strb	r1, [r3, #6]
10001d32:	79a1      	ldrb	r1, [r4, #6]
10001d34:	297f      	cmp	r1, #127	; 0x7f
10001d36:	d82b      	bhi.n	10001d90 <irq_remove_handler+0x15c>
10001d38:	88a4      	ldrh	r4, [r4, #4]
10001d3a:	1af9      	subs	r1, r7, r3
10001d3c:	0564      	lsls	r4, r4, #21
10001d3e:	1524      	asrs	r4, r4, #20
10001d40:	4444      	add	r4, r8
10001d42:	1909      	adds	r1, r1, r4
10001d44:	24e0      	movs	r4, #224	; 0xe0
10001d46:	0509      	lsls	r1, r1, #20
10001d48:	0d49      	lsrs	r1, r1, #21
10001d4a:	0224      	lsls	r4, r4, #8
10001d4c:	4321      	orrs	r1, r4
10001d4e:	8099      	strh	r1, [r3, #4]
10001d50:	1812      	adds	r2, r2, r0
10001d52:	4b24      	ldr	r3, [pc, #144]	; (10001de4 <irq_remove_handler+0x1b0>)
10001d54:	0092      	lsls	r2, r2, #2
10001d56:	18bf      	adds	r7, r7, r2
10001d58:	781a      	ldrb	r2, [r3, #0]
10001d5a:	7018      	strb	r0, [r3, #0]
10001d5c:	71ba      	strb	r2, [r7, #6]
10001d5e:	e7cb      	b.n	10001cf8 <irq_remove_handler+0xc4>
10001d60:	9801      	ldr	r0, [sp, #4]
10001d62:	2800      	cmp	r0, #0
10001d64:	d117      	bne.n	10001d96 <irq_remove_handler+0x162>
10001d66:	30ff      	adds	r0, #255	; 0xff
10001d68:	7190      	strb	r0, [r2, #6]
10001d6a:	481f      	ldr	r0, [pc, #124]	; (10001de8 <irq_remove_handler+0x1b4>)
10001d6c:	8090      	strh	r0, [r2, #4]
10001d6e:	4a1d      	ldr	r2, [pc, #116]	; (10001de4 <irq_remove_handler+0x1b0>)
10001d70:	1bcf      	subs	r7, r1, r7
10001d72:	7810      	ldrb	r0, [r2, #0]
10001d74:	10bf      	asrs	r7, r7, #2
10001d76:	7198      	strb	r0, [r3, #6]
10001d78:	00bb      	lsls	r3, r7, #2
10001d7a:	19db      	adds	r3, r3, r7
10001d7c:	0119      	lsls	r1, r3, #4
10001d7e:	185b      	adds	r3, r3, r1
10001d80:	0219      	lsls	r1, r3, #8
10001d82:	185b      	adds	r3, r3, r1
10001d84:	0419      	lsls	r1, r3, #16
10001d86:	185b      	adds	r3, r3, r1
10001d88:	005b      	lsls	r3, r3, #1
10001d8a:	19db      	adds	r3, r3, r7
10001d8c:	7013      	strb	r3, [r2, #0]
10001d8e:	e7b3      	b.n	10001cf8 <irq_remove_handler+0xc4>
10001d90:	21bd      	movs	r1, #189	; 0xbd
10001d92:	0209      	lsls	r1, r1, #8
10001d94:	e7db      	b.n	10001d4e <irq_remove_handler+0x11a>
10001d96:	4a15      	ldr	r2, [pc, #84]	; (10001dec <irq_remove_handler+0x1b8>)
10001d98:	4915      	ldr	r1, [pc, #84]	; (10001df0 <irq_remove_handler+0x1bc>)
10001d9a:	1ad2      	subs	r2, r2, r3
10001d9c:	3a08      	subs	r2, #8
10001d9e:	0250      	lsls	r0, r2, #9
10001da0:	0d40      	lsrs	r0, r0, #21
10001da2:	4301      	orrs	r1, r0
10001da4:	8099      	strh	r1, [r3, #4]
10001da6:	4913      	ldr	r1, [pc, #76]	; (10001df4 <irq_remove_handler+0x1c0>)
10001da8:	0852      	lsrs	r2, r2, #1
10001daa:	430a      	orrs	r2, r1
10001dac:	80da      	strh	r2, [r3, #6]
10001dae:	e7a3      	b.n	10001cf8 <irq_remove_handler+0xc4>
10001db0:	2006      	movs	r0, #6
10001db2:	5608      	ldrsb	r0, [r1, r0]
10001db4:	000b      	movs	r3, r1
10001db6:	2800      	cmp	r0, #0
10001db8:	daaf      	bge.n	10001d1a <irq_remove_handler+0xe6>
10001dba:	9a01      	ldr	r2, [sp, #4]
10001dbc:	2a00      	cmp	r2, #0
10001dbe:	d1ea      	bne.n	10001d96 <irq_remove_handler+0x162>
10001dc0:	000b      	movs	r3, r1
10001dc2:	4645      	mov	r5, r8
10001dc4:	e7d3      	b.n	10001d6e <irq_remove_handler+0x13a>
10001dc6:	46c0      	nop			; (mov r8, r8)
10001dc8:	d0000124 	.word	0xd0000124
10001dcc:	e000ed00 	.word	0xe000ed00
10001dd0:	100002cd 	.word	0x100002cd
10001dd4:	2000018c 	.word	0x2000018c
10001dd8:	e000e100 	.word	0xe000e100
10001ddc:	e000e180 	.word	0xe000e180
10001de0:	e000e280 	.word	0xe000e280
10001de4:	20000b29 	.word	0x20000b29
10001de8:	ffffbd00 	.word	0xffffbd00
10001dec:	200001c6 	.word	0x200001c6
10001df0:	fffff000 	.word	0xfffff000
10001df4:	fffff800 	.word	0xfffff800

10001df8 <irq_add_tail_to_free_list>:
10001df8:	b5f8      	push	{r3, r4, r5, r6, r7, lr}
10001dfa:	2501      	movs	r5, #1
10001dfc:	0004      	movs	r4, r0
10001dfe:	4305      	orrs	r5, r0
10001e00:	f7fe f9c9 	bl	10000196 <__get_current_exception>
10001e04:	f3ef 8610 	mrs	r6, PRIMASK
10001e08:	b672      	cpsid	i
10001e0a:	4a24      	ldr	r2, [pc, #144]	; (10001e9c <irq_add_tail_to_free_list+0xa4>)
10001e0c:	6813      	ldr	r3, [r2, #0]
10001e0e:	2b00      	cmp	r3, #0
10001e10:	d0fc      	beq.n	10001e0c <irq_add_tail_to_free_list+0x14>
10001e12:	f3bf 8f5f 	dmb	sy
10001e16:	4f22      	ldr	r7, [pc, #136]	; (10001ea0 <irq_add_tail_to_free_list+0xa8>)
10001e18:	0080      	lsls	r0, r0, #2
10001e1a:	1be1      	subs	r1, r4, r7
10001e1c:	1089      	asrs	r1, r1, #2
10001e1e:	008a      	lsls	r2, r1, #2
10001e20:	1852      	adds	r2, r2, r1
10001e22:	0113      	lsls	r3, r2, #4
10001e24:	18d2      	adds	r2, r2, r3
10001e26:	0213      	lsls	r3, r2, #8
10001e28:	18d2      	adds	r2, r2, r3
10001e2a:	0413      	lsls	r3, r2, #16
10001e2c:	18d3      	adds	r3, r2, r3
10001e2e:	4a1d      	ldr	r2, [pc, #116]	; (10001ea4 <irq_add_tail_to_free_list+0xac>)
10001e30:	005b      	lsls	r3, r3, #1
10001e32:	185b      	adds	r3, r3, r1
10001e34:	6891      	ldr	r1, [r2, #8]
10001e36:	5809      	ldr	r1, [r1, r0]
10001e38:	42a9      	cmp	r1, r5
10001e3a:	d01c      	beq.n	10001e76 <irq_add_tail_to_free_list+0x7e>
10001e3c:	2206      	movs	r2, #6
10001e3e:	56ba      	ldrsb	r2, [r7, r2]
10001e40:	4293      	cmp	r3, r2
10001e42:	d01c      	beq.n	10001e7e <irq_add_tail_to_free_list+0x86>
10001e44:	2212      	movs	r2, #18
10001e46:	56ba      	ldrsb	r2, [r7, r2]
10001e48:	4293      	cmp	r3, r2
10001e4a:	d022      	beq.n	10001e92 <irq_add_tail_to_free_list+0x9a>
10001e4c:	221e      	movs	r2, #30
10001e4e:	56ba      	ldrsb	r2, [r7, r2]
10001e50:	4293      	cmp	r3, r2
10001e52:	d020      	beq.n	10001e96 <irq_add_tail_to_free_list+0x9e>
10001e54:	222a      	movs	r2, #42	; 0x2a
10001e56:	56ba      	ldrsb	r2, [r7, r2]
10001e58:	2103      	movs	r1, #3
10001e5a:	429a      	cmp	r2, r3
10001e5c:	d010      	beq.n	10001e80 <irq_add_tail_to_free_list+0x88>
10001e5e:	4a12      	ldr	r2, [pc, #72]	; (10001ea8 <irq_add_tail_to_free_list+0xb0>)
10001e60:	7811      	ldrb	r1, [r2, #0]
10001e62:	7013      	strb	r3, [r2, #0]
10001e64:	71a1      	strb	r1, [r4, #6]
10001e66:	f3bf 8f5f 	dmb	sy
10001e6a:	2200      	movs	r2, #0
10001e6c:	4b0b      	ldr	r3, [pc, #44]	; (10001e9c <irq_add_tail_to_free_list+0xa4>)
10001e6e:	601a      	str	r2, [r3, #0]
10001e70:	f386 8810 	msr	PRIMASK, r6
10001e74:	bdf8      	pop	{r3, r4, r5, r6, r7, pc}
10001e76:	6892      	ldr	r2, [r2, #8]
10001e78:	490c      	ldr	r1, [pc, #48]	; (10001eac <irq_add_tail_to_free_list+0xb4>)
10001e7a:	5011      	str	r1, [r2, r0]
10001e7c:	e7ef      	b.n	10001e5e <irq_add_tail_to_free_list+0x66>
10001e7e:	2100      	movs	r1, #0
10001e80:	004a      	lsls	r2, r1, #1
10001e82:	1852      	adds	r2, r2, r1
10001e84:	21ff      	movs	r1, #255	; 0xff
10001e86:	0092      	lsls	r2, r2, #2
10001e88:	18ba      	adds	r2, r7, r2
10001e8a:	7191      	strb	r1, [r2, #6]
10001e8c:	4908      	ldr	r1, [pc, #32]	; (10001eb0 <irq_add_tail_to_free_list+0xb8>)
10001e8e:	8091      	strh	r1, [r2, #4]
10001e90:	e7e5      	b.n	10001e5e <irq_add_tail_to_free_list+0x66>
10001e92:	2101      	movs	r1, #1
10001e94:	e7f4      	b.n	10001e80 <irq_add_tail_to_free_list+0x88>
10001e96:	2102      	movs	r1, #2
10001e98:	e7f2      	b.n	10001e80 <irq_add_tail_to_free_list+0x88>
10001e9a:	46c0      	nop			; (mov r8, r8)
10001e9c:	d0000124 	.word	0xd0000124
10001ea0:	2000018c 	.word	0x2000018c
10001ea4:	e000ed00 	.word	0xe000ed00
10001ea8:	20000b29 	.word	0x20000b29
10001eac:	100002cd 	.word	0x100002cd
10001eb0:	ffffbd00 	.word	0xffffbd00

10001eb4 <irq_init_priorities>:
10001eb4:	b5f0      	push	{r4, r5, r6, r7, lr}
10001eb6:	2200      	movs	r2, #0
10001eb8:	2403      	movs	r4, #3
10001eba:	27ff      	movs	r7, #255	; 0xff
10001ebc:	2680      	movs	r6, #128	; 0x80
10001ebe:	0020      	movs	r0, r4
10001ec0:	003d      	movs	r5, r7
10001ec2:	4b09      	ldr	r3, [pc, #36]	; (10001ee8 <irq_init_priorities+0x34>)
10001ec4:	0011      	movs	r1, r2
10001ec6:	469c      	mov	ip, r3
10001ec8:	4010      	ands	r0, r2
10001eca:	00c0      	lsls	r0, r0, #3
10001ecc:	4085      	lsls	r5, r0
10001ece:	43a1      	bics	r1, r4
10001ed0:	4461      	add	r1, ip
10001ed2:	680b      	ldr	r3, [r1, #0]
10001ed4:	3201      	adds	r2, #1
10001ed6:	43ab      	bics	r3, r5
10001ed8:	0035      	movs	r5, r6
10001eda:	4085      	lsls	r5, r0
10001edc:	432b      	orrs	r3, r5
10001ede:	600b      	str	r3, [r1, #0]
10001ee0:	2a20      	cmp	r2, #32
10001ee2:	d1ec      	bne.n	10001ebe <irq_init_priorities+0xa>
10001ee4:	bdf0      	pop	{r4, r5, r6, r7, pc}
10001ee6:	46c0      	nop			; (mov r8, r8)
10001ee8:	e000e400 	.word	0xe000e400

10001eec <_out_null>:
10001eec:	4770      	bx	lr
10001eee:	46c0      	nop			; (mov r8, r8)

10001ef0 <_out_rev>:
10001ef0:	b5f8      	push	{r3, r4, r5, r6, r7, lr}
10001ef2:	4657      	mov	r7, sl
10001ef4:	464e      	mov	r6, r9
10001ef6:	46de      	mov	lr, fp
10001ef8:	4645      	mov	r5, r8
10001efa:	b5e0      	push	{r5, r6, r7, lr}
10001efc:	001f      	movs	r7, r3
10001efe:	9b0a      	ldr	r3, [sp, #40]	; 0x28
10001f00:	0005      	movs	r5, r0
10001f02:	469b      	mov	fp, r3
10001f04:	9b0d      	ldr	r3, [sp, #52]	; 0x34
10001f06:	000e      	movs	r6, r1
10001f08:	4691      	mov	r9, r2
10001f0a:	4692      	mov	sl, r2
10001f0c:	079b      	lsls	r3, r3, #30
10001f0e:	d118      	bne.n	10001f42 <_out_rev+0x52>
10001f10:	9b0b      	ldr	r3, [sp, #44]	; 0x2c
10001f12:	9a0c      	ldr	r2, [sp, #48]	; 0x30
10001f14:	4293      	cmp	r3, r2
10001f16:	d214      	bcs.n	10001f42 <_out_rev+0x52>
10001f18:	0013      	movs	r3, r2
10001f1a:	9a0b      	ldr	r2, [sp, #44]	; 0x2c
10001f1c:	46b8      	mov	r8, r7
10001f1e:	1a9b      	subs	r3, r3, r2
10001f20:	444b      	add	r3, r9
10001f22:	464c      	mov	r4, r9
10001f24:	000f      	movs	r7, r1
10001f26:	0006      	movs	r6, r0
10001f28:	001d      	movs	r5, r3
10001f2a:	0022      	movs	r2, r4
10001f2c:	4643      	mov	r3, r8
10001f2e:	3401      	adds	r4, #1
10001f30:	0039      	movs	r1, r7
10001f32:	2020      	movs	r0, #32
10001f34:	47b0      	blx	r6
10001f36:	42ac      	cmp	r4, r5
10001f38:	d1f7      	bne.n	10001f2a <_out_rev+0x3a>
10001f3a:	46aa      	mov	sl, r5
10001f3c:	0035      	movs	r5, r6
10001f3e:	003e      	movs	r6, r7
10001f40:	4647      	mov	r7, r8
10001f42:	9b0b      	ldr	r3, [sp, #44]	; 0x2c
10001f44:	2b00      	cmp	r3, #0
10001f46:	d038      	beq.n	10001fba <_out_rev+0xca>
10001f48:	449a      	add	sl, r3
10001f4a:	001c      	movs	r4, r3
10001f4c:	46d0      	mov	r8, sl
10001f4e:	4653      	mov	r3, sl
10001f50:	1b1a      	subs	r2, r3, r4
10001f52:	465b      	mov	r3, fp
10001f54:	3c01      	subs	r4, #1
10001f56:	5d18      	ldrb	r0, [r3, r4]
10001f58:	0031      	movs	r1, r6
10001f5a:	003b      	movs	r3, r7
10001f5c:	47a8      	blx	r5
10001f5e:	2c00      	cmp	r4, #0
10001f60:	d1f5      	bne.n	10001f4e <_out_rev+0x5e>
10001f62:	9b0d      	ldr	r3, [sp, #52]	; 0x34
10001f64:	079b      	lsls	r3, r3, #30
10001f66:	d521      	bpl.n	10001fac <_out_rev+0xbc>
10001f68:	4643      	mov	r3, r8
10001f6a:	464a      	mov	r2, r9
10001f6c:	1a9c      	subs	r4, r3, r2
10001f6e:	9b0c      	ldr	r3, [sp, #48]	; 0x30
10001f70:	42a3      	cmp	r3, r4
10001f72:	d91b      	bls.n	10001fac <_out_rev+0xbc>
10001f74:	003a      	movs	r2, r7
10001f76:	469a      	mov	sl, r3
10001f78:	464f      	mov	r7, r9
10001f7a:	4691      	mov	r9, r2
10001f7c:	19e2      	adds	r2, r4, r7
10001f7e:	464b      	mov	r3, r9
10001f80:	0031      	movs	r1, r6
10001f82:	2020      	movs	r0, #32
10001f84:	3401      	adds	r4, #1
10001f86:	47a8      	blx	r5
10001f88:	4554      	cmp	r4, sl
10001f8a:	d3f7      	bcc.n	10001f7c <_out_rev+0x8c>
10001f8c:	4643      	mov	r3, r8
10001f8e:	990c      	ldr	r1, [sp, #48]	; 0x30
10001f90:	1bdb      	subs	r3, r3, r7
10001f92:	3301      	adds	r3, #1
10001f94:	46b9      	mov	r9, r7
10001f96:	2200      	movs	r2, #0
10001f98:	4299      	cmp	r1, r3
10001f9a:	d303      	bcc.n	10001fa4 <_out_rev+0xb4>
10001f9c:	4643      	mov	r3, r8
10001f9e:	1e4a      	subs	r2, r1, #1
10001fa0:	444a      	add	r2, r9
10001fa2:	1ad2      	subs	r2, r2, r3
10001fa4:	4643      	mov	r3, r8
10001fa6:	4690      	mov	r8, r2
10001fa8:	3301      	adds	r3, #1
10001faa:	4498      	add	r8, r3
10001fac:	4640      	mov	r0, r8
10001fae:	bc3c      	pop	{r2, r3, r4, r5}
10001fb0:	4690      	mov	r8, r2
10001fb2:	4699      	mov	r9, r3
10001fb4:	46a2      	mov	sl, r4
10001fb6:	46ab      	mov	fp, r5
10001fb8:	bdf8      	pop	{r3, r4, r5, r6, r7, pc}
10001fba:	46d0      	mov	r8, sl
10001fbc:	e7d1      	b.n	10001f62 <_out_rev+0x72>
10001fbe:	46c0      	nop			; (mov r8, r8)

10001fc0 <_ntoa_format>:
10001fc0:	b5f0      	push	{r4, r5, r6, r7, lr}
10001fc2:	464f      	mov	r7, r9
10001fc4:	4646      	mov	r6, r8
10001fc6:	46d6      	mov	lr, sl
10001fc8:	b5c0      	push	{r6, r7, lr}
10001fca:	b084      	sub	sp, #16
10001fcc:	4698      	mov	r8, r3
10001fce:	ab0e      	add	r3, sp, #56	; 0x38
10001fd0:	781b      	ldrb	r3, [r3, #0]
10001fd2:	9f12      	ldr	r7, [sp, #72]	; 0x48
10001fd4:	4699      	mov	r9, r3
10001fd6:	4694      	mov	ip, r2
10001fd8:	9c0d      	ldr	r4, [sp, #52]	; 0x34
10001fda:	9b10      	ldr	r3, [sp, #64]	; 0x40
10001fdc:	9e11      	ldr	r6, [sp, #68]	; 0x44
10001fde:	07ba      	lsls	r2, r7, #30
10001fe0:	d425      	bmi.n	1000202e <_ntoa_format+0x6e>
10001fe2:	2e00      	cmp	r6, #0
10001fe4:	d169      	bne.n	100020ba <_ntoa_format+0xfa>
10001fe6:	429c      	cmp	r4, r3
10001fe8:	d300      	bcc.n	10001fec <_ntoa_format+0x2c>
10001fea:	e0c2      	b.n	10002172 <_ntoa_format+0x1b2>
10001fec:	2201      	movs	r2, #1
10001fee:	403a      	ands	r2, r7
10001ff0:	4692      	mov	sl, r2
10001ff2:	2c1f      	cmp	r4, #31
10001ff4:	d900      	bls.n	10001ff8 <_ntoa_format+0x38>
10001ff6:	e0bb      	b.n	10002170 <_ntoa_format+0x1b0>
10001ff8:	9a0c      	ldr	r2, [sp, #48]	; 0x30
10001ffa:	1e55      	subs	r5, r2, #1
10001ffc:	2230      	movs	r2, #48	; 0x30
10001ffe:	e001      	b.n	10002004 <_ntoa_format+0x44>
10002000:	2c20      	cmp	r4, #32
10002002:	d003      	beq.n	1000200c <_ntoa_format+0x4c>
10002004:	3401      	adds	r4, #1
10002006:	552a      	strb	r2, [r5, r4]
10002008:	42a3      	cmp	r3, r4
1000200a:	d8f9      	bhi.n	10002000 <_ntoa_format+0x40>
1000200c:	4652      	mov	r2, sl
1000200e:	2a00      	cmp	r2, #0
10002010:	d00d      	beq.n	1000202e <_ntoa_format+0x6e>
10002012:	42b4      	cmp	r4, r6
10002014:	d20b      	bcs.n	1000202e <_ntoa_format+0x6e>
10002016:	2c1f      	cmp	r4, #31
10002018:	d862      	bhi.n	100020e0 <_ntoa_format+0x120>
1000201a:	9a0c      	ldr	r2, [sp, #48]	; 0x30
1000201c:	1e55      	subs	r5, r2, #1
1000201e:	2230      	movs	r2, #48	; 0x30
10002020:	e001      	b.n	10002026 <_ntoa_format+0x66>
10002022:	2c20      	cmp	r4, #32
10002024:	d05c      	beq.n	100020e0 <_ntoa_format+0x120>
10002026:	3401      	adds	r4, #1
10002028:	552a      	strb	r2, [r5, r4]
1000202a:	42b4      	cmp	r4, r6
1000202c:	d1f9      	bne.n	10002022 <_ntoa_format+0x62>
1000202e:	06fa      	lsls	r2, r7, #27
10002030:	d535      	bpl.n	1000209e <_ntoa_format+0xde>
10002032:	057a      	lsls	r2, r7, #21
10002034:	d45d      	bmi.n	100020f2 <_ntoa_format+0x132>
10002036:	2c00      	cmp	r4, #0
10002038:	d157      	bne.n	100020ea <_ntoa_format+0x12a>
1000203a:	9b0f      	ldr	r3, [sp, #60]	; 0x3c
1000203c:	2b10      	cmp	r3, #16
1000203e:	d100      	bne.n	10002042 <_ntoa_format+0x82>
10002040:	e07c      	b.n	1000213c <_ntoa_format+0x17c>
10002042:	9b0f      	ldr	r3, [sp, #60]	; 0x3c
10002044:	2b02      	cmp	r3, #2
10002046:	d100      	bne.n	1000204a <_ntoa_format+0x8a>
10002048:	e08d      	b.n	10002166 <_ntoa_format+0x1a6>
1000204a:	2330      	movs	r3, #48	; 0x30
1000204c:	9a0c      	ldr	r2, [sp, #48]	; 0x30
1000204e:	2401      	movs	r4, #1
10002050:	7013      	strb	r3, [r2, #0]
10002052:	464b      	mov	r3, r9
10002054:	2b00      	cmp	r3, #0
10002056:	d027      	beq.n	100020a8 <_ntoa_format+0xe8>
10002058:	232d      	movs	r3, #45	; 0x2d
1000205a:	9a0c      	ldr	r2, [sp, #48]	; 0x30
1000205c:	5513      	strb	r3, [r2, r4]
1000205e:	3401      	adds	r4, #1
10002060:	9b0c      	ldr	r3, [sp, #48]	; 0x30
10002062:	4662      	mov	r2, ip
10002064:	9300      	str	r3, [sp, #0]
10002066:	9703      	str	r7, [sp, #12]
10002068:	4643      	mov	r3, r8
1000206a:	9602      	str	r6, [sp, #8]
1000206c:	9401      	str	r4, [sp, #4]
1000206e:	f7ff ff3f 	bl	10001ef0 <_out_rev>
10002072:	b004      	add	sp, #16
10002074:	bc1c      	pop	{r2, r3, r4}
10002076:	4690      	mov	r8, r2
10002078:	4699      	mov	r9, r3
1000207a:	46a2      	mov	sl, r4
1000207c:	bdf0      	pop	{r4, r5, r6, r7, pc}
1000207e:	06bb      	lsls	r3, r7, #26
10002080:	d463      	bmi.n	1000214a <_ntoa_format+0x18a>
10002082:	2c20      	cmp	r4, #32
10002084:	d0ec      	beq.n	10002060 <_ntoa_format+0xa0>
10002086:	9b0c      	ldr	r3, [sp, #48]	; 0x30
10002088:	191a      	adds	r2, r3, r4
1000208a:	3401      	adds	r4, #1
1000208c:	2378      	movs	r3, #120	; 0x78
1000208e:	7013      	strb	r3, [r2, #0]
10002090:	2c20      	cmp	r4, #32
10002092:	d0e5      	beq.n	10002060 <_ntoa_format+0xa0>
10002094:	2230      	movs	r2, #48	; 0x30
10002096:	9b0c      	ldr	r3, [sp, #48]	; 0x30
10002098:	191b      	adds	r3, r3, r4
1000209a:	701a      	strb	r2, [r3, #0]
1000209c:	3401      	adds	r4, #1
1000209e:	2c20      	cmp	r4, #32
100020a0:	d0de      	beq.n	10002060 <_ntoa_format+0xa0>
100020a2:	464b      	mov	r3, r9
100020a4:	2b00      	cmp	r3, #0
100020a6:	d1d7      	bne.n	10002058 <_ntoa_format+0x98>
100020a8:	077b      	lsls	r3, r7, #29
100020aa:	d435      	bmi.n	10002118 <_ntoa_format+0x158>
100020ac:	073b      	lsls	r3, r7, #28
100020ae:	d5d7      	bpl.n	10002060 <_ntoa_format+0xa0>
100020b0:	2320      	movs	r3, #32
100020b2:	9a0c      	ldr	r2, [sp, #48]	; 0x30
100020b4:	5513      	strb	r3, [r2, r4]
100020b6:	3401      	adds	r4, #1
100020b8:	e7d2      	b.n	10002060 <_ntoa_format+0xa0>
100020ba:	2201      	movs	r2, #1
100020bc:	0015      	movs	r5, r2
100020be:	403d      	ands	r5, r7
100020c0:	46aa      	mov	sl, r5
100020c2:	423a      	tst	r2, r7
100020c4:	d020      	beq.n	10002108 <_ntoa_format+0x148>
100020c6:	464a      	mov	r2, r9
100020c8:	2a00      	cmp	r2, #0
100020ca:	d12a      	bne.n	10002122 <_ntoa_format+0x162>
100020cc:	320c      	adds	r2, #12
100020ce:	423a      	tst	r2, r7
100020d0:	d127      	bne.n	10002122 <_ntoa_format+0x162>
100020d2:	429c      	cmp	r4, r3
100020d4:	d29d      	bcs.n	10002012 <_ntoa_format+0x52>
100020d6:	2c1f      	cmp	r4, #31
100020d8:	d800      	bhi.n	100020dc <_ntoa_format+0x11c>
100020da:	e78d      	b.n	10001ff8 <_ntoa_format+0x38>
100020dc:	2e20      	cmp	r6, #32
100020de:	d919      	bls.n	10002114 <_ntoa_format+0x154>
100020e0:	2420      	movs	r4, #32
100020e2:	06fa      	lsls	r2, r7, #27
100020e4:	d5bc      	bpl.n	10002060 <_ntoa_format+0xa0>
100020e6:	057a      	lsls	r2, r7, #21
100020e8:	d403      	bmi.n	100020f2 <_ntoa_format+0x132>
100020ea:	42a3      	cmp	r3, r4
100020ec:	d01b      	beq.n	10002126 <_ntoa_format+0x166>
100020ee:	42a6      	cmp	r6, r4
100020f0:	d019      	beq.n	10002126 <_ntoa_format+0x166>
100020f2:	9b0f      	ldr	r3, [sp, #60]	; 0x3c
100020f4:	2b10      	cmp	r3, #16
100020f6:	d0c2      	beq.n	1000207e <_ntoa_format+0xbe>
100020f8:	2b02      	cmp	r3, #2
100020fa:	d1c9      	bne.n	10002090 <_ntoa_format+0xd0>
100020fc:	2c20      	cmp	r4, #32
100020fe:	d0af      	beq.n	10002060 <_ntoa_format+0xa0>
10002100:	9b0c      	ldr	r3, [sp, #48]	; 0x30
10002102:	191b      	adds	r3, r3, r4
10002104:	3401      	adds	r4, #1
10002106:	e040      	b.n	1000218a <_ntoa_format+0x1ca>
10002108:	429c      	cmp	r4, r3
1000210a:	d300      	bcc.n	1000210e <_ntoa_format+0x14e>
1000210c:	e78f      	b.n	1000202e <_ntoa_format+0x6e>
1000210e:	2c1f      	cmp	r4, #31
10002110:	d800      	bhi.n	10002114 <_ntoa_format+0x154>
10002112:	e771      	b.n	10001ff8 <_ntoa_format+0x38>
10002114:	2420      	movs	r4, #32
10002116:	e78a      	b.n	1000202e <_ntoa_format+0x6e>
10002118:	232b      	movs	r3, #43	; 0x2b
1000211a:	9a0c      	ldr	r2, [sp, #48]	; 0x30
1000211c:	5513      	strb	r3, [r2, r4]
1000211e:	3401      	adds	r4, #1
10002120:	e79e      	b.n	10002060 <_ntoa_format+0xa0>
10002122:	3e01      	subs	r6, #1
10002124:	e7d5      	b.n	100020d2 <_ntoa_format+0x112>
10002126:	1e63      	subs	r3, r4, #1
10002128:	2c01      	cmp	r4, #1
1000212a:	d100      	bne.n	1000212e <_ntoa_format+0x16e>
1000212c:	e785      	b.n	1000203a <_ntoa_format+0x7a>
1000212e:	9a0f      	ldr	r2, [sp, #60]	; 0x3c
10002130:	2a10      	cmp	r2, #16
10002132:	d020      	beq.n	10002176 <_ntoa_format+0x1b6>
10002134:	2a02      	cmp	r2, #2
10002136:	d025      	beq.n	10002184 <_ntoa_format+0x1c4>
10002138:	001c      	movs	r4, r3
1000213a:	e7ab      	b.n	10002094 <_ntoa_format+0xd4>
1000213c:	06bb      	lsls	r3, r7, #26
1000213e:	d40d      	bmi.n	1000215c <_ntoa_format+0x19c>
10002140:	2378      	movs	r3, #120	; 0x78
10002142:	9a0c      	ldr	r2, [sp, #48]	; 0x30
10002144:	2401      	movs	r4, #1
10002146:	7013      	strb	r3, [r2, #0]
10002148:	e7a4      	b.n	10002094 <_ntoa_format+0xd4>
1000214a:	2c20      	cmp	r4, #32
1000214c:	d100      	bne.n	10002150 <_ntoa_format+0x190>
1000214e:	e787      	b.n	10002060 <_ntoa_format+0xa0>
10002150:	2258      	movs	r2, #88	; 0x58
10002152:	9b0c      	ldr	r3, [sp, #48]	; 0x30
10002154:	191b      	adds	r3, r3, r4
10002156:	701a      	strb	r2, [r3, #0]
10002158:	3401      	adds	r4, #1
1000215a:	e799      	b.n	10002090 <_ntoa_format+0xd0>
1000215c:	2358      	movs	r3, #88	; 0x58
1000215e:	9a0c      	ldr	r2, [sp, #48]	; 0x30
10002160:	2401      	movs	r4, #1
10002162:	7013      	strb	r3, [r2, #0]
10002164:	e796      	b.n	10002094 <_ntoa_format+0xd4>
10002166:	9a0c      	ldr	r2, [sp, #48]	; 0x30
10002168:	3360      	adds	r3, #96	; 0x60
1000216a:	2401      	movs	r4, #1
1000216c:	7013      	strb	r3, [r2, #0]
1000216e:	e791      	b.n	10002094 <_ntoa_format+0xd4>
10002170:	2420      	movs	r4, #32
10002172:	2600      	movs	r6, #0
10002174:	e75b      	b.n	1000202e <_ntoa_format+0x6e>
10002176:	3c02      	subs	r4, #2
10002178:	06ba      	lsls	r2, r7, #26
1000217a:	d4e9      	bmi.n	10002150 <_ntoa_format+0x190>
1000217c:	9a0c      	ldr	r2, [sp, #48]	; 0x30
1000217e:	1912      	adds	r2, r2, r4
10002180:	001c      	movs	r4, r3
10002182:	e783      	b.n	1000208c <_ntoa_format+0xcc>
10002184:	9a0c      	ldr	r2, [sp, #48]	; 0x30
10002186:	4692      	mov	sl, r2
10002188:	4453      	add	r3, sl
1000218a:	2262      	movs	r2, #98	; 0x62
1000218c:	701a      	strb	r2, [r3, #0]
1000218e:	e77f      	b.n	10002090 <_ntoa_format+0xd0>

10002190 <_out_char>:
10002190:	b510      	push	{r4, lr}
10002192:	2800      	cmp	r0, #0
10002194:	d100      	bne.n	10002198 <_out_char+0x8>
10002196:	bd10      	pop	{r4, pc}
10002198:	f002 fa04 	bl	100045a4 <__wrap_putchar>
1000219c:	e7fb      	b.n	10002196 <_out_char+0x6>
1000219e:	46c0      	nop			; (mov r8, r8)

100021a0 <_out_fct>:
100021a0:	000b      	movs	r3, r1
100021a2:	b510      	push	{r4, lr}
100021a4:	2800      	cmp	r0, #0
100021a6:	d002      	beq.n	100021ae <_out_fct+0xe>
100021a8:	6849      	ldr	r1, [r1, #4]
100021aa:	681b      	ldr	r3, [r3, #0]
100021ac:	4798      	blx	r3
100021ae:	bd10      	pop	{r4, pc}

100021b0 <_etoa>:
100021b0:	b5f0      	push	{r4, r5, r6, r7, lr}
100021b2:	46de      	mov	lr, fp
100021b4:	4657      	mov	r7, sl
100021b6:	464e      	mov	r6, r9
100021b8:	4645      	mov	r5, r8
100021ba:	b5e0      	push	{r5, r6, r7, lr}
100021bc:	b09b      	sub	sp, #108	; 0x6c
100021be:	469a      	mov	sl, r3
100021c0:	9b24      	ldr	r3, [sp, #144]	; 0x90
100021c2:	468b      	mov	fp, r1
100021c4:	4699      	mov	r9, r3
100021c6:	9b25      	ldr	r3, [sp, #148]	; 0x94
100021c8:	900b      	str	r0, [sp, #44]	; 0x2c
100021ca:	4698      	mov	r8, r3
100021cc:	920c      	str	r2, [sp, #48]	; 0x30
100021ce:	4643      	mov	r3, r8
100021d0:	464a      	mov	r2, r9
100021d2:	4648      	mov	r0, r9
100021d4:	4641      	mov	r1, r8
100021d6:	f001 fccc 	bl	10003b72 <__wrap___aeabi_dcmpun>
100021da:	2800      	cmp	r0, #0
100021dc:	d000      	beq.n	100021e0 <_etoa+0x30>
100021de:	e1a3      	b.n	10002528 <_etoa+0x378>
100021e0:	2201      	movs	r2, #1
100021e2:	4648      	mov	r0, r9
100021e4:	4641      	mov	r1, r8
100021e6:	4be2      	ldr	r3, [pc, #904]	; (10002570 <_etoa+0x3c0>)
100021e8:	4252      	negs	r2, r2
100021ea:	f001 fcbd 	bl	10003b68 <__wrap___aeabi_dcmpgt>
100021ee:	2800      	cmp	r0, #0
100021f0:	d000      	beq.n	100021f4 <_etoa+0x44>
100021f2:	e199      	b.n	10002528 <_etoa+0x378>
100021f4:	2201      	movs	r2, #1
100021f6:	4648      	mov	r0, r9
100021f8:	4641      	mov	r1, r8
100021fa:	4bde      	ldr	r3, [pc, #888]	; (10002574 <_etoa+0x3c4>)
100021fc:	4252      	negs	r2, r2
100021fe:	f001 fc9d 	bl	10003b3c <__wrap___aeabi_dcmplt>
10002202:	2800      	cmp	r0, #0
10002204:	d000      	beq.n	10002208 <_etoa+0x58>
10002206:	e18f      	b.n	10002528 <_etoa+0x378>
10002208:	2200      	movs	r2, #0
1000220a:	2300      	movs	r3, #0
1000220c:	4648      	mov	r0, r9
1000220e:	4641      	mov	r1, r8
10002210:	f001 fc94 	bl	10003b3c <__wrap___aeabi_dcmplt>
10002214:	2800      	cmp	r0, #0
10002216:	d000      	beq.n	1000221a <_etoa+0x6a>
10002218:	e1de      	b.n	100025d8 <_etoa+0x428>
1000221a:	464a      	mov	r2, r9
1000221c:	4643      	mov	r3, r8
1000221e:	920a      	str	r2, [sp, #40]	; 0x28
10002220:	9309      	str	r3, [sp, #36]	; 0x24
10002222:	2380      	movs	r3, #128	; 0x80
10002224:	9a28      	ldr	r2, [sp, #160]	; 0xa0
10002226:	00db      	lsls	r3, r3, #3
10002228:	401a      	ands	r2, r3
1000222a:	9211      	str	r2, [sp, #68]	; 0x44
1000222c:	9a28      	ldr	r2, [sp, #160]	; 0xa0
1000222e:	421a      	tst	r2, r3
10002230:	d101      	bne.n	10002236 <_etoa+0x86>
10002232:	2306      	movs	r3, #6
10002234:	9326      	str	r3, [sp, #152]	; 0x98
10002236:	4bd0      	ldr	r3, [pc, #832]	; (10002578 <_etoa+0x3c8>)
10002238:	9f09      	ldr	r7, [sp, #36]	; 0x24
1000223a:	469c      	mov	ip, r3
1000223c:	0078      	lsls	r0, r7, #1
1000223e:	0d40      	lsrs	r0, r0, #21
10002240:	4460      	add	r0, ip
10002242:	f001 fca9 	bl	10003b98 <__wrap___aeabi_i2d>
10002246:	4acd      	ldr	r2, [pc, #820]	; (1000257c <_etoa+0x3cc>)
10002248:	4bcd      	ldr	r3, [pc, #820]	; (10002580 <_etoa+0x3d0>)
1000224a:	f001 fc35 	bl	10003ab8 <__wrap___aeabi_dmul>
1000224e:	4acd      	ldr	r2, [pc, #820]	; (10002584 <_etoa+0x3d4>)
10002250:	4bcd      	ldr	r3, [pc, #820]	; (10002588 <_etoa+0x3d8>)
10002252:	f001 fc1f 	bl	10003a94 <__wrap___aeabi_dadd>
10002256:	033b      	lsls	r3, r7, #12
10002258:	4acc      	ldr	r2, [pc, #816]	; (1000258c <_etoa+0x3dc>)
1000225a:	9e0a      	ldr	r6, [sp, #40]	; 0x28
1000225c:	0b1b      	lsrs	r3, r3, #12
1000225e:	431a      	orrs	r2, r3
10002260:	0004      	movs	r4, r0
10002262:	000d      	movs	r5, r1
10002264:	0030      	movs	r0, r6
10002266:	0011      	movs	r1, r2
10002268:	4bc9      	ldr	r3, [pc, #804]	; (10002590 <_etoa+0x3e0>)
1000226a:	2200      	movs	r2, #0
1000226c:	9709      	str	r7, [sp, #36]	; 0x24
1000226e:	f001 fc08 	bl	10003a82 <__wrap___aeabi_dsub>
10002272:	4ac8      	ldr	r2, [pc, #800]	; (10002594 <_etoa+0x3e4>)
10002274:	4bc8      	ldr	r3, [pc, #800]	; (10002598 <_etoa+0x3e8>)
10002276:	f001 fc1f 	bl	10003ab8 <__wrap___aeabi_dmul>
1000227a:	0002      	movs	r2, r0
1000227c:	000b      	movs	r3, r1
1000227e:	0020      	movs	r0, r4
10002280:	0029      	movs	r1, r5
10002282:	f001 fc07 	bl	10003a94 <__wrap___aeabi_dadd>
10002286:	f001 fc9f 	bl	10003bc8 <__wrap___aeabi_d2iz>
1000228a:	900d      	str	r0, [sp, #52]	; 0x34
1000228c:	f001 fc84 	bl	10003b98 <__wrap___aeabi_i2d>
10002290:	4ac2      	ldr	r2, [pc, #776]	; (1000259c <_etoa+0x3ec>)
10002292:	4bc3      	ldr	r3, [pc, #780]	; (100025a0 <_etoa+0x3f0>)
10002294:	0004      	movs	r4, r0
10002296:	000d      	movs	r5, r1
10002298:	f001 fc0e 	bl	10003ab8 <__wrap___aeabi_dmul>
1000229c:	2200      	movs	r2, #0
1000229e:	4bc1      	ldr	r3, [pc, #772]	; (100025a4 <_etoa+0x3f4>)
100022a0:	f001 fbf8 	bl	10003a94 <__wrap___aeabi_dadd>
100022a4:	f001 fc90 	bl	10003bc8 <__wrap___aeabi_d2iz>
100022a8:	4abf      	ldr	r2, [pc, #764]	; (100025a8 <_etoa+0x3f8>)
100022aa:	0006      	movs	r6, r0
100022ac:	4bbf      	ldr	r3, [pc, #764]	; (100025ac <_etoa+0x3fc>)
100022ae:	0020      	movs	r0, r4
100022b0:	0029      	movs	r1, r5
100022b2:	f001 fc01 	bl	10003ab8 <__wrap___aeabi_dmul>
100022b6:	0004      	movs	r4, r0
100022b8:	0030      	movs	r0, r6
100022ba:	000d      	movs	r5, r1
100022bc:	9610      	str	r6, [sp, #64]	; 0x40
100022be:	f001 fc6b 	bl	10003b98 <__wrap___aeabi_i2d>
100022c2:	4abb      	ldr	r2, [pc, #748]	; (100025b0 <_etoa+0x400>)
100022c4:	4bbb      	ldr	r3, [pc, #748]	; (100025b4 <_etoa+0x404>)
100022c6:	f001 fbf7 	bl	10003ab8 <__wrap___aeabi_dmul>
100022ca:	0002      	movs	r2, r0
100022cc:	000b      	movs	r3, r1
100022ce:	0020      	movs	r0, r4
100022d0:	0029      	movs	r1, r5
100022d2:	f001 fbd6 	bl	10003a82 <__wrap___aeabi_dsub>
100022d6:	0002      	movs	r2, r0
100022d8:	000b      	movs	r3, r1
100022da:	0006      	movs	r6, r0
100022dc:	000f      	movs	r7, r1
100022de:	f001 fbeb 	bl	10003ab8 <__wrap___aeabi_dmul>
100022e2:	0032      	movs	r2, r6
100022e4:	0004      	movs	r4, r0
100022e6:	000d      	movs	r5, r1
100022e8:	003b      	movs	r3, r7
100022ea:	0030      	movs	r0, r6
100022ec:	0039      	movs	r1, r7
100022ee:	f001 fbd1 	bl	10003a94 <__wrap___aeabi_dadd>
100022f2:	2200      	movs	r2, #0
100022f4:	900e      	str	r0, [sp, #56]	; 0x38
100022f6:	910f      	str	r1, [sp, #60]	; 0x3c
100022f8:	4baf      	ldr	r3, [pc, #700]	; (100025b8 <_etoa+0x408>)
100022fa:	0020      	movs	r0, r4
100022fc:	0029      	movs	r1, r5
100022fe:	f001 fbd2 	bl	10003aa6 <__wrap___aeabi_ddiv>
10002302:	2200      	movs	r2, #0
10002304:	4bad      	ldr	r3, [pc, #692]	; (100025bc <_etoa+0x40c>)
10002306:	f001 fbc5 	bl	10003a94 <__wrap___aeabi_dadd>
1000230a:	0002      	movs	r2, r0
1000230c:	000b      	movs	r3, r1
1000230e:	0020      	movs	r0, r4
10002310:	0029      	movs	r1, r5
10002312:	f001 fbc8 	bl	10003aa6 <__wrap___aeabi_ddiv>
10002316:	2200      	movs	r2, #0
10002318:	4ba9      	ldr	r3, [pc, #676]	; (100025c0 <_etoa+0x410>)
1000231a:	f001 fbbb 	bl	10003a94 <__wrap___aeabi_dadd>
1000231e:	0002      	movs	r2, r0
10002320:	000b      	movs	r3, r1
10002322:	0020      	movs	r0, r4
10002324:	0029      	movs	r1, r5
10002326:	f001 fbbe 	bl	10003aa6 <__wrap___aeabi_ddiv>
1000232a:	000d      	movs	r5, r1
1000232c:	2180      	movs	r1, #128	; 0x80
1000232e:	0004      	movs	r4, r0
10002330:	0032      	movs	r2, r6
10002332:	003b      	movs	r3, r7
10002334:	2000      	movs	r0, #0
10002336:	05c9      	lsls	r1, r1, #23
10002338:	f001 fba3 	bl	10003a82 <__wrap___aeabi_dsub>
1000233c:	0002      	movs	r2, r0
1000233e:	000b      	movs	r3, r1
10002340:	0020      	movs	r0, r4
10002342:	0029      	movs	r1, r5
10002344:	f001 fba6 	bl	10003a94 <__wrap___aeabi_dadd>
10002348:	0002      	movs	r2, r0
1000234a:	000b      	movs	r3, r1
1000234c:	980e      	ldr	r0, [sp, #56]	; 0x38
1000234e:	990f      	ldr	r1, [sp, #60]	; 0x3c
10002350:	f001 fba9 	bl	10003aa6 <__wrap___aeabi_ddiv>
10002354:	2200      	movs	r2, #0
10002356:	4b8d      	ldr	r3, [pc, #564]	; (1000258c <_etoa+0x3dc>)
10002358:	f001 fb9c 	bl	10003a94 <__wrap___aeabi_dadd>
1000235c:	9b10      	ldr	r3, [sp, #64]	; 0x40
1000235e:	4a99      	ldr	r2, [pc, #612]	; (100025c4 <_etoa+0x414>)
10002360:	001c      	movs	r4, r3
10002362:	4694      	mov	ip, r2
10002364:	4464      	add	r4, ip
10002366:	2200      	movs	r2, #0
10002368:	0523      	lsls	r3, r4, #20
1000236a:	f001 fba5 	bl	10003ab8 <__wrap___aeabi_dmul>
1000236e:	0006      	movs	r6, r0
10002370:	000f      	movs	r7, r1
10002372:	0002      	movs	r2, r0
10002374:	000b      	movs	r3, r1
10002376:	980a      	ldr	r0, [sp, #40]	; 0x28
10002378:	9909      	ldr	r1, [sp, #36]	; 0x24
1000237a:	f001 fbdf 	bl	10003b3c <__wrap___aeabi_dcmplt>
1000237e:	2800      	cmp	r0, #0
10002380:	d00a      	beq.n	10002398 <_etoa+0x1e8>
10002382:	9b0d      	ldr	r3, [sp, #52]	; 0x34
10002384:	0030      	movs	r0, r6
10002386:	3b01      	subs	r3, #1
10002388:	0039      	movs	r1, r7
1000238a:	930d      	str	r3, [sp, #52]	; 0x34
1000238c:	2200      	movs	r2, #0
1000238e:	4b8b      	ldr	r3, [pc, #556]	; (100025bc <_etoa+0x40c>)
10002390:	f001 fb89 	bl	10003aa6 <__wrap___aeabi_ddiv>
10002394:	0006      	movs	r6, r0
10002396:	000f      	movs	r7, r1
10002398:	9d0d      	ldr	r5, [sp, #52]	; 0x34
1000239a:	24c6      	movs	r4, #198	; 0xc6
1000239c:	002b      	movs	r3, r5
1000239e:	3363      	adds	r3, #99	; 0x63
100023a0:	429c      	cmp	r4, r3
100023a2:	41a4      	sbcs	r4, r4
100023a4:	9b28      	ldr	r3, [sp, #160]	; 0xa0
100023a6:	4264      	negs	r4, r4
100023a8:	3404      	adds	r4, #4
100023aa:	051b      	lsls	r3, r3, #20
100023ac:	d51f      	bpl.n	100023ee <_etoa+0x23e>
100023ae:	4a86      	ldr	r2, [pc, #536]	; (100025c8 <_etoa+0x418>)
100023b0:	4b86      	ldr	r3, [pc, #536]	; (100025cc <_etoa+0x41c>)
100023b2:	980a      	ldr	r0, [sp, #40]	; 0x28
100023b4:	9909      	ldr	r1, [sp, #36]	; 0x24
100023b6:	f001 fbcf 	bl	10003b58 <__wrap___aeabi_dcmpge>
100023ba:	2800      	cmp	r0, #0
100023bc:	d100      	bne.n	100023c0 <_etoa+0x210>
100023be:	e0cc      	b.n	1000255a <_etoa+0x3aa>
100023c0:	2200      	movs	r2, #0
100023c2:	4b83      	ldr	r3, [pc, #524]	; (100025d0 <_etoa+0x420>)
100023c4:	980a      	ldr	r0, [sp, #40]	; 0x28
100023c6:	9909      	ldr	r1, [sp, #36]	; 0x24
100023c8:	f001 fbb8 	bl	10003b3c <__wrap___aeabi_dcmplt>
100023cc:	2800      	cmp	r0, #0
100023ce:	d100      	bne.n	100023d2 <_etoa+0x222>
100023d0:	e0c3      	b.n	1000255a <_etoa+0x3aa>
100023d2:	9a26      	ldr	r2, [sp, #152]	; 0x98
100023d4:	4295      	cmp	r5, r2
100023d6:	da00      	bge.n	100023da <_etoa+0x22a>
100023d8:	e10b      	b.n	100025f2 <_etoa+0x442>
100023da:	2300      	movs	r3, #0
100023dc:	9326      	str	r3, [sp, #152]	; 0x98
100023de:	2380      	movs	r3, #128	; 0x80
100023e0:	9a28      	ldr	r2, [sp, #160]	; 0xa0
100023e2:	00db      	lsls	r3, r3, #3
100023e4:	431a      	orrs	r2, r3
100023e6:	2300      	movs	r3, #0
100023e8:	2400      	movs	r4, #0
100023ea:	9228      	str	r2, [sp, #160]	; 0xa0
100023ec:	930d      	str	r3, [sp, #52]	; 0x34
100023ee:	9b27      	ldr	r3, [sp, #156]	; 0x9c
100023f0:	2500      	movs	r5, #0
100023f2:	42a3      	cmp	r3, r4
100023f4:	d900      	bls.n	100023f8 <_etoa+0x248>
100023f6:	1b1d      	subs	r5, r3, r4
100023f8:	2302      	movs	r3, #2
100023fa:	9a28      	ldr	r2, [sp, #160]	; 0xa0
100023fc:	401a      	ands	r2, r3
100023fe:	9210      	str	r2, [sp, #64]	; 0x40
10002400:	9a28      	ldr	r2, [sp, #160]	; 0xa0
10002402:	4213      	tst	r3, r2
10002404:	d003      	beq.n	1000240e <_etoa+0x25e>
10002406:	4263      	negs	r3, r4
10002408:	4163      	adcs	r3, r4
1000240a:	425b      	negs	r3, r3
1000240c:	401d      	ands	r5, r3
1000240e:	9b0d      	ldr	r3, [sp, #52]	; 0x34
10002410:	2b00      	cmp	r3, #0
10002412:	d007      	beq.n	10002424 <_etoa+0x274>
10002414:	980a      	ldr	r0, [sp, #40]	; 0x28
10002416:	9909      	ldr	r1, [sp, #36]	; 0x24
10002418:	0032      	movs	r2, r6
1000241a:	003b      	movs	r3, r7
1000241c:	f001 fb43 	bl	10003aa6 <__wrap___aeabi_ddiv>
10002420:	900a      	str	r0, [sp, #40]	; 0x28
10002422:	9109      	str	r1, [sp, #36]	; 0x24
10002424:	2200      	movs	r2, #0
10002426:	2300      	movs	r3, #0
10002428:	4648      	mov	r0, r9
1000242a:	4641      	mov	r1, r8
1000242c:	f001 fb86 	bl	10003b3c <__wrap___aeabi_dcmplt>
10002430:	2800      	cmp	r0, #0
10002432:	d005      	beq.n	10002440 <_etoa+0x290>
10002434:	2080      	movs	r0, #128	; 0x80
10002436:	0600      	lsls	r0, r0, #24
10002438:	4684      	mov	ip, r0
1000243a:	9909      	ldr	r1, [sp, #36]	; 0x24
1000243c:	4461      	add	r1, ip
1000243e:	9109      	str	r1, [sp, #36]	; 0x24
10002440:	9a28      	ldr	r2, [sp, #160]	; 0xa0
10002442:	4b64      	ldr	r3, [pc, #400]	; (100025d4 <_etoa+0x424>)
10002444:	9e0b      	ldr	r6, [sp, #44]	; 0x2c
10002446:	4013      	ands	r3, r2
10002448:	9304      	str	r3, [sp, #16]
1000244a:	9b26      	ldr	r3, [sp, #152]	; 0x98
1000244c:	9a0a      	ldr	r2, [sp, #40]	; 0x28
1000244e:	9302      	str	r3, [sp, #8]
10002450:	9b09      	ldr	r3, [sp, #36]	; 0x24
10002452:	9503      	str	r5, [sp, #12]
10002454:	9200      	str	r2, [sp, #0]
10002456:	9301      	str	r3, [sp, #4]
10002458:	4659      	mov	r1, fp
1000245a:	4653      	mov	r3, sl
1000245c:	0030      	movs	r0, r6
1000245e:	9a0c      	ldr	r2, [sp, #48]	; 0x30
10002460:	f000 f8cc 	bl	100025fc <_ftoa>
10002464:	0005      	movs	r5, r0
10002466:	2c00      	cmp	r4, #0
10002468:	d06f      	beq.n	1000254a <_etoa+0x39a>
1000246a:	9b28      	ldr	r3, [sp, #160]	; 0xa0
1000246c:	002a      	movs	r2, r5
1000246e:	0698      	lsls	r0, r3, #26
10002470:	231f      	movs	r3, #31
10002472:	17c0      	asrs	r0, r0, #31
10002474:	4398      	bics	r0, r3
10002476:	1c6b      	adds	r3, r5, #1
10002478:	4698      	mov	r8, r3
1000247a:	4659      	mov	r1, fp
1000247c:	4653      	mov	r3, sl
1000247e:	3065      	adds	r0, #101	; 0x65
10002480:	47b0      	blx	r6
10002482:	9b0d      	ldr	r3, [sp, #52]	; 0x34
10002484:	2600      	movs	r6, #0
10002486:	17da      	asrs	r2, r3, #31
10002488:	189d      	adds	r5, r3, r2
1000248a:	0fdb      	lsrs	r3, r3, #31
1000248c:	4699      	mov	r9, r3
1000248e:	4055      	eors	r5, r2
10002490:	3c01      	subs	r4, #1
10002492:	e001      	b.n	10002498 <_etoa+0x2e8>
10002494:	2e20      	cmp	r6, #32
10002496:	d013      	beq.n	100024c0 <_etoa+0x310>
10002498:	aa0a      	add	r2, sp, #40	; 0x28
1000249a:	4694      	mov	ip, r2
1000249c:	231f      	movs	r3, #31
1000249e:	0028      	movs	r0, r5
100024a0:	4463      	add	r3, ip
100024a2:	210a      	movs	r1, #10
100024a4:	3601      	adds	r6, #1
100024a6:	199f      	adds	r7, r3, r6
100024a8:	f001 f8a6 	bl	100035f8 <__wrap___aeabi_uidiv>
100024ac:	3130      	adds	r1, #48	; 0x30
100024ae:	7039      	strb	r1, [r7, #0]
100024b0:	0028      	movs	r0, r5
100024b2:	210a      	movs	r1, #10
100024b4:	f001 f8a0 	bl	100035f8 <__wrap___aeabi_uidiv>
100024b8:	002f      	movs	r7, r5
100024ba:	0005      	movs	r5, r0
100024bc:	2f09      	cmp	r7, #9
100024be:	d8e9      	bhi.n	10002494 <_etoa+0x2e4>
100024c0:	2305      	movs	r3, #5
100024c2:	9306      	str	r3, [sp, #24]
100024c4:	2300      	movs	r3, #0
100024c6:	9304      	str	r3, [sp, #16]
100024c8:	330a      	adds	r3, #10
100024ca:	9303      	str	r3, [sp, #12]
100024cc:	464b      	mov	r3, r9
100024ce:	9601      	str	r6, [sp, #4]
100024d0:	9e0b      	ldr	r6, [sp, #44]	; 0x2c
100024d2:	9302      	str	r3, [sp, #8]
100024d4:	ab12      	add	r3, sp, #72	; 0x48
100024d6:	9300      	str	r3, [sp, #0]
100024d8:	4642      	mov	r2, r8
100024da:	4653      	mov	r3, sl
100024dc:	4659      	mov	r1, fp
100024de:	0030      	movs	r0, r6
100024e0:	9405      	str	r4, [sp, #20]
100024e2:	f7ff fd6d 	bl	10001fc0 <_ntoa_format>
100024e6:	9b10      	ldr	r3, [sp, #64]	; 0x40
100024e8:	0005      	movs	r5, r0
100024ea:	2b00      	cmp	r3, #0
100024ec:	d02d      	beq.n	1000254a <_etoa+0x39a>
100024ee:	9b0c      	ldr	r3, [sp, #48]	; 0x30
100024f0:	9a27      	ldr	r2, [sp, #156]	; 0x9c
100024f2:	1ac4      	subs	r4, r0, r3
100024f4:	42a2      	cmp	r2, r4
100024f6:	d928      	bls.n	1000254a <_etoa+0x39a>
100024f8:	4681      	mov	r9, r0
100024fa:	465d      	mov	r5, fp
100024fc:	4698      	mov	r8, r3
100024fe:	0017      	movs	r7, r2
10002500:	4643      	mov	r3, r8
10002502:	0029      	movs	r1, r5
10002504:	191a      	adds	r2, r3, r4
10002506:	2020      	movs	r0, #32
10002508:	4653      	mov	r3, sl
1000250a:	3401      	adds	r4, #1
1000250c:	47b0      	blx	r6
1000250e:	42a7      	cmp	r7, r4
10002510:	d8f6      	bhi.n	10002500 <_etoa+0x350>
10002512:	464d      	mov	r5, r9
10002514:	990c      	ldr	r1, [sp, #48]	; 0x30
10002516:	9827      	ldr	r0, [sp, #156]	; 0x9c
10002518:	1a6b      	subs	r3, r5, r1
1000251a:	3301      	adds	r3, #1
1000251c:	2200      	movs	r2, #0
1000251e:	4298      	cmp	r0, r3
10002520:	d261      	bcs.n	100025e6 <_etoa+0x436>
10002522:	3501      	adds	r5, #1
10002524:	1955      	adds	r5, r2, r5
10002526:	e010      	b.n	1000254a <_etoa+0x39a>
10002528:	9b28      	ldr	r3, [sp, #160]	; 0xa0
1000252a:	464a      	mov	r2, r9
1000252c:	9304      	str	r3, [sp, #16]
1000252e:	9b27      	ldr	r3, [sp, #156]	; 0x9c
10002530:	4659      	mov	r1, fp
10002532:	9303      	str	r3, [sp, #12]
10002534:	9b26      	ldr	r3, [sp, #152]	; 0x98
10002536:	980b      	ldr	r0, [sp, #44]	; 0x2c
10002538:	9302      	str	r3, [sp, #8]
1000253a:	4643      	mov	r3, r8
1000253c:	9200      	str	r2, [sp, #0]
1000253e:	9301      	str	r3, [sp, #4]
10002540:	4653      	mov	r3, sl
10002542:	9a0c      	ldr	r2, [sp, #48]	; 0x30
10002544:	f000 f85a 	bl	100025fc <_ftoa>
10002548:	0005      	movs	r5, r0
1000254a:	0028      	movs	r0, r5
1000254c:	b01b      	add	sp, #108	; 0x6c
1000254e:	bc3c      	pop	{r2, r3, r4, r5}
10002550:	4690      	mov	r8, r2
10002552:	4699      	mov	r9, r3
10002554:	46a2      	mov	sl, r4
10002556:	46ab      	mov	fp, r5
10002558:	bdf0      	pop	{r4, r5, r6, r7, pc}
1000255a:	9b26      	ldr	r3, [sp, #152]	; 0x98
1000255c:	2b00      	cmp	r3, #0
1000255e:	d100      	bne.n	10002562 <_etoa+0x3b2>
10002560:	e745      	b.n	100023ee <_etoa+0x23e>
10002562:	9b11      	ldr	r3, [sp, #68]	; 0x44
10002564:	1e5a      	subs	r2, r3, #1
10002566:	4193      	sbcs	r3, r2
10002568:	9a26      	ldr	r2, [sp, #152]	; 0x98
1000256a:	1ad3      	subs	r3, r2, r3
1000256c:	9326      	str	r3, [sp, #152]	; 0x98
1000256e:	e73e      	b.n	100023ee <_etoa+0x23e>
10002570:	7fefffff 	.word	0x7fefffff
10002574:	ffefffff 	.word	0xffefffff
10002578:	fffffc01 	.word	0xfffffc01
1000257c:	509f79fb 	.word	0x509f79fb
10002580:	3fd34413 	.word	0x3fd34413
10002584:	8b60c8b3 	.word	0x8b60c8b3
10002588:	3fc68a28 	.word	0x3fc68a28
1000258c:	3ff00000 	.word	0x3ff00000
10002590:	3ff80000 	.word	0x3ff80000
10002594:	636f4361 	.word	0x636f4361
10002598:	3fd287a7 	.word	0x3fd287a7
1000259c:	0979a371 	.word	0x0979a371
100025a0:	400a934f 	.word	0x400a934f
100025a4:	3fe00000 	.word	0x3fe00000
100025a8:	bbb55516 	.word	0xbbb55516
100025ac:	40026bb1 	.word	0x40026bb1
100025b0:	fefa39ef 	.word	0xfefa39ef
100025b4:	3fe62e42 	.word	0x3fe62e42
100025b8:	402c0000 	.word	0x402c0000
100025bc:	40240000 	.word	0x40240000
100025c0:	40180000 	.word	0x40180000
100025c4:	000003ff 	.word	0x000003ff
100025c8:	eb1c432d 	.word	0xeb1c432d
100025cc:	3f1a36e2 	.word	0x3f1a36e2
100025d0:	412e8480 	.word	0x412e8480
100025d4:	fffff7ff 	.word	0xfffff7ff
100025d8:	464b      	mov	r3, r9
100025da:	930a      	str	r3, [sp, #40]	; 0x28
100025dc:	2380      	movs	r3, #128	; 0x80
100025de:	061b      	lsls	r3, r3, #24
100025e0:	4443      	add	r3, r8
100025e2:	9309      	str	r3, [sp, #36]	; 0x24
100025e4:	e61d      	b.n	10002222 <_etoa+0x72>
100025e6:	000a      	movs	r2, r1
100025e8:	4684      	mov	ip, r0
100025ea:	3a01      	subs	r2, #1
100025ec:	4462      	add	r2, ip
100025ee:	1b52      	subs	r2, r2, r5
100025f0:	e797      	b.n	10002522 <_etoa+0x372>
100025f2:	1b50      	subs	r0, r2, r5
100025f4:	1e43      	subs	r3, r0, #1
100025f6:	9326      	str	r3, [sp, #152]	; 0x98
100025f8:	e6f1      	b.n	100023de <_etoa+0x22e>
100025fa:	46c0      	nop			; (mov r8, r8)

100025fc <_ftoa>:
100025fc:	b5f0      	push	{r4, r5, r6, r7, lr}
100025fe:	464e      	mov	r6, r9
10002600:	46de      	mov	lr, fp
10002602:	4657      	mov	r7, sl
10002604:	4645      	mov	r5, r8
10002606:	b5e0      	push	{r5, r6, r7, lr}
10002608:	b097      	sub	sp, #92	; 0x5c
1000260a:	4699      	mov	r9, r3
1000260c:	9e20      	ldr	r6, [sp, #128]	; 0x80
1000260e:	9f21      	ldr	r7, [sp, #132]	; 0x84
10002610:	9b22      	ldr	r3, [sp, #136]	; 0x88
10002612:	4683      	mov	fp, r0
10002614:	4698      	mov	r8, r3
10002616:	9107      	str	r1, [sp, #28]
10002618:	920c      	str	r2, [sp, #48]	; 0x30
1000261a:	003b      	movs	r3, r7
1000261c:	0032      	movs	r2, r6
1000261e:	0030      	movs	r0, r6
10002620:	0039      	movs	r1, r7
10002622:	f001 faa6 	bl	10003b72 <__wrap___aeabi_dcmpun>
10002626:	2800      	cmp	r0, #0
10002628:	d000      	beq.n	1000262c <_ftoa+0x30>
1000262a:	e1c1      	b.n	100029b0 <_ftoa+0x3b4>
1000262c:	2201      	movs	r2, #1
1000262e:	0030      	movs	r0, r6
10002630:	0039      	movs	r1, r7
10002632:	4bca      	ldr	r3, [pc, #808]	; (1000295c <_ftoa+0x360>)
10002634:	4252      	negs	r2, r2
10002636:	f001 fa81 	bl	10003b3c <__wrap___aeabi_dcmplt>
1000263a:	2800      	cmp	r0, #0
1000263c:	d000      	beq.n	10002640 <_ftoa+0x44>
1000263e:	e0e0      	b.n	10002802 <_ftoa+0x206>
10002640:	2201      	movs	r2, #1
10002642:	0030      	movs	r0, r6
10002644:	0039      	movs	r1, r7
10002646:	4bc6      	ldr	r3, [pc, #792]	; (10002960 <_ftoa+0x364>)
10002648:	4252      	negs	r2, r2
1000264a:	f001 fa8d 	bl	10003b68 <__wrap___aeabi_dcmpgt>
1000264e:	2800      	cmp	r0, #0
10002650:	d000      	beq.n	10002654 <_ftoa+0x58>
10002652:	e0b6      	b.n	100027c2 <_ftoa+0x1c6>
10002654:	2200      	movs	r2, #0
10002656:	0030      	movs	r0, r6
10002658:	0039      	movs	r1, r7
1000265a:	4bc2      	ldr	r3, [pc, #776]	; (10002964 <_ftoa+0x368>)
1000265c:	f001 fa84 	bl	10003b68 <__wrap___aeabi_dcmpgt>
10002660:	2800      	cmp	r0, #0
10002662:	d000      	beq.n	10002666 <_ftoa+0x6a>
10002664:	e098      	b.n	10002798 <_ftoa+0x19c>
10002666:	2200      	movs	r2, #0
10002668:	0030      	movs	r0, r6
1000266a:	0039      	movs	r1, r7
1000266c:	4bbe      	ldr	r3, [pc, #760]	; (10002968 <_ftoa+0x36c>)
1000266e:	f001 fa65 	bl	10003b3c <__wrap___aeabi_dcmplt>
10002672:	2800      	cmp	r0, #0
10002674:	d000      	beq.n	10002678 <_ftoa+0x7c>
10002676:	e08f      	b.n	10002798 <_ftoa+0x19c>
10002678:	2200      	movs	r2, #0
1000267a:	2300      	movs	r3, #0
1000267c:	0030      	movs	r0, r6
1000267e:	0039      	movs	r1, r7
10002680:	f001 fa5c 	bl	10003b3c <__wrap___aeabi_dcmplt>
10002684:	2800      	cmp	r0, #0
10002686:	d000      	beq.n	1000268a <_ftoa+0x8e>
10002688:	e0b0      	b.n	100027ec <_ftoa+0x1f0>
1000268a:	2300      	movs	r3, #0
1000268c:	930d      	str	r3, [sp, #52]	; 0x34
1000268e:	9b24      	ldr	r3, [sp, #144]	; 0x90
10002690:	055b      	lsls	r3, r3, #21
10002692:	d401      	bmi.n	10002698 <_ftoa+0x9c>
10002694:	2306      	movs	r3, #6
10002696:	4698      	mov	r8, r3
10002698:	ab08      	add	r3, sp, #32
1000269a:	469c      	mov	ip, r3
1000269c:	2217      	movs	r2, #23
1000269e:	2400      	movs	r4, #0
100026a0:	2330      	movs	r3, #48	; 0x30
100026a2:	4641      	mov	r1, r8
100026a4:	4462      	add	r2, ip
100026a6:	e004      	b.n	100026b2 <_ftoa+0xb6>
100026a8:	3401      	adds	r4, #1
100026aa:	5513      	strb	r3, [r2, r4]
100026ac:	3901      	subs	r1, #1
100026ae:	2c20      	cmp	r4, #32
100026b0:	d001      	beq.n	100026b6 <_ftoa+0xba>
100026b2:	2909      	cmp	r1, #9
100026b4:	d8f8      	bhi.n	100026a8 <_ftoa+0xac>
100026b6:	4688      	mov	r8, r1
100026b8:	0030      	movs	r0, r6
100026ba:	0039      	movs	r1, r7
100026bc:	f001 fa84 	bl	10003bc8 <__wrap___aeabi_d2iz>
100026c0:	4643      	mov	r3, r8
100026c2:	00da      	lsls	r2, r3, #3
100026c4:	4ba9      	ldr	r3, [pc, #676]	; (1000296c <_ftoa+0x370>)
100026c6:	0005      	movs	r5, r0
100026c8:	189b      	adds	r3, r3, r2
100026ca:	681a      	ldr	r2, [r3, #0]
100026cc:	685b      	ldr	r3, [r3, #4]
100026ce:	9208      	str	r2, [sp, #32]
100026d0:	9309      	str	r3, [sp, #36]	; 0x24
100026d2:	f001 fa61 	bl	10003b98 <__wrap___aeabi_i2d>
100026d6:	0002      	movs	r2, r0
100026d8:	000b      	movs	r3, r1
100026da:	0030      	movs	r0, r6
100026dc:	0039      	movs	r1, r7
100026de:	f001 f9d0 	bl	10003a82 <__wrap___aeabi_dsub>
100026e2:	9a08      	ldr	r2, [sp, #32]
100026e4:	9b09      	ldr	r3, [sp, #36]	; 0x24
100026e6:	f001 f9e7 	bl	10003ab8 <__wrap___aeabi_dmul>
100026ea:	900a      	str	r0, [sp, #40]	; 0x28
100026ec:	910b      	str	r1, [sp, #44]	; 0x2c
100026ee:	f001 fa8f 	bl	10003c10 <__wrap___aeabi_d2uiz>
100026f2:	4682      	mov	sl, r0
100026f4:	f001 fa4c 	bl	10003b90 <__wrap___aeabi_ui2d>
100026f8:	0002      	movs	r2, r0
100026fa:	000b      	movs	r3, r1
100026fc:	980a      	ldr	r0, [sp, #40]	; 0x28
100026fe:	990b      	ldr	r1, [sp, #44]	; 0x2c
10002700:	f001 f9bf 	bl	10003a82 <__wrap___aeabi_dsub>
10002704:	2200      	movs	r2, #0
10002706:	4b9a      	ldr	r3, [pc, #616]	; (10002970 <_ftoa+0x374>)
10002708:	900a      	str	r0, [sp, #40]	; 0x28
1000270a:	910b      	str	r1, [sp, #44]	; 0x2c
1000270c:	f001 fa2c 	bl	10003b68 <__wrap___aeabi_dcmpgt>
10002710:	2800      	cmp	r0, #0
10002712:	d100      	bne.n	10002716 <_ftoa+0x11a>
10002714:	e0c0      	b.n	10002898 <_ftoa+0x29c>
10002716:	2301      	movs	r3, #1
10002718:	469c      	mov	ip, r3
1000271a:	44e2      	add	sl, ip
1000271c:	4650      	mov	r0, sl
1000271e:	f001 fa37 	bl	10003b90 <__wrap___aeabi_ui2d>
10002722:	0002      	movs	r2, r0
10002724:	000b      	movs	r3, r1
10002726:	9808      	ldr	r0, [sp, #32]
10002728:	9909      	ldr	r1, [sp, #36]	; 0x24
1000272a:	f001 fa0d 	bl	10003b48 <__wrap___aeabi_dcmple>
1000272e:	2800      	cmp	r0, #0
10002730:	d002      	beq.n	10002738 <_ftoa+0x13c>
10002732:	2300      	movs	r3, #0
10002734:	469a      	mov	sl, r3
10002736:	3501      	adds	r5, #1
10002738:	4643      	mov	r3, r8
1000273a:	2b00      	cmp	r3, #0
1000273c:	d069      	beq.n	10002812 <_ftoa+0x216>
1000273e:	ab08      	add	r3, sp, #32
10002740:	2617      	movs	r6, #23
10002742:	469c      	mov	ip, r3
10002744:	9508      	str	r5, [sp, #32]
10002746:	4466      	add	r6, ip
10002748:	4655      	mov	r5, sl
1000274a:	e014      	b.n	10002776 <_ftoa+0x17a>
1000274c:	2301      	movs	r3, #1
1000274e:	425b      	negs	r3, r3
10002750:	4443      	add	r3, r8
10002752:	210a      	movs	r1, #10
10002754:	0028      	movs	r0, r5
10002756:	469a      	mov	sl, r3
10002758:	f000 ff4e 	bl	100035f8 <__wrap___aeabi_uidiv>
1000275c:	3401      	adds	r4, #1
1000275e:	3130      	adds	r1, #48	; 0x30
10002760:	1937      	adds	r7, r6, r4
10002762:	7039      	strb	r1, [r7, #0]
10002764:	0028      	movs	r0, r5
10002766:	210a      	movs	r1, #10
10002768:	f000 ff46 	bl	100035f8 <__wrap___aeabi_uidiv>
1000276c:	2d09      	cmp	r5, #9
1000276e:	d800      	bhi.n	10002772 <_ftoa+0x176>
10002770:	e0d5      	b.n	1000291e <_ftoa+0x322>
10002772:	46d0      	mov	r8, sl
10002774:	0005      	movs	r5, r0
10002776:	2c20      	cmp	r4, #32
10002778:	d1e8      	bne.n	1000274c <_ftoa+0x150>
1000277a:	2303      	movs	r3, #3
1000277c:	9a24      	ldr	r2, [sp, #144]	; 0x90
1000277e:	4013      	ands	r3, r2
10002780:	2b01      	cmp	r3, #1
10002782:	d100      	bne.n	10002786 <_ftoa+0x18a>
10002784:	e100      	b.n	10002988 <_ftoa+0x38c>
10002786:	ab0e      	add	r3, sp, #56	; 0x38
10002788:	4698      	mov	r8, r3
1000278a:	9b24      	ldr	r3, [sp, #144]	; 0x90
1000278c:	9401      	str	r4, [sp, #4]
1000278e:	9303      	str	r3, [sp, #12]
10002790:	9b23      	ldr	r3, [sp, #140]	; 0x8c
10002792:	9302      	str	r3, [sp, #8]
10002794:	4643      	mov	r3, r8
10002796:	e01e      	b.n	100027d6 <_ftoa+0x1da>
10002798:	9b24      	ldr	r3, [sp, #144]	; 0x90
1000279a:	4658      	mov	r0, fp
1000279c:	9304      	str	r3, [sp, #16]
1000279e:	9b23      	ldr	r3, [sp, #140]	; 0x8c
100027a0:	9600      	str	r6, [sp, #0]
100027a2:	9701      	str	r7, [sp, #4]
100027a4:	9303      	str	r3, [sp, #12]
100027a6:	4643      	mov	r3, r8
100027a8:	9a0c      	ldr	r2, [sp, #48]	; 0x30
100027aa:	9302      	str	r3, [sp, #8]
100027ac:	9907      	ldr	r1, [sp, #28]
100027ae:	464b      	mov	r3, r9
100027b0:	f7ff fcfe 	bl	100021b0 <_etoa>
100027b4:	b017      	add	sp, #92	; 0x5c
100027b6:	bc3c      	pop	{r2, r3, r4, r5}
100027b8:	4690      	mov	r8, r2
100027ba:	4699      	mov	r9, r3
100027bc:	46a2      	mov	sl, r4
100027be:	46ab      	mov	fp, r5
100027c0:	bdf0      	pop	{r4, r5, r6, r7, pc}
100027c2:	9b24      	ldr	r3, [sp, #144]	; 0x90
100027c4:	075b      	lsls	r3, r3, #29
100027c6:	d40e      	bmi.n	100027e6 <_ftoa+0x1ea>
100027c8:	2203      	movs	r2, #3
100027ca:	4b6a      	ldr	r3, [pc, #424]	; (10002974 <_ftoa+0x378>)
100027cc:	9924      	ldr	r1, [sp, #144]	; 0x90
100027ce:	9201      	str	r2, [sp, #4]
100027d0:	9103      	str	r1, [sp, #12]
100027d2:	9923      	ldr	r1, [sp, #140]	; 0x8c
100027d4:	9102      	str	r1, [sp, #8]
100027d6:	9300      	str	r3, [sp, #0]
100027d8:	4658      	mov	r0, fp
100027da:	464b      	mov	r3, r9
100027dc:	9a0c      	ldr	r2, [sp, #48]	; 0x30
100027de:	9907      	ldr	r1, [sp, #28]
100027e0:	f7ff fb86 	bl	10001ef0 <_out_rev>
100027e4:	e7e6      	b.n	100027b4 <_ftoa+0x1b8>
100027e6:	2204      	movs	r2, #4
100027e8:	4b63      	ldr	r3, [pc, #396]	; (10002978 <_ftoa+0x37c>)
100027ea:	e7ef      	b.n	100027cc <_ftoa+0x1d0>
100027ec:	003b      	movs	r3, r7
100027ee:	0032      	movs	r2, r6
100027f0:	2000      	movs	r0, #0
100027f2:	2100      	movs	r1, #0
100027f4:	f001 f945 	bl	10003a82 <__wrap___aeabi_dsub>
100027f8:	2301      	movs	r3, #1
100027fa:	0006      	movs	r6, r0
100027fc:	000f      	movs	r7, r1
100027fe:	930d      	str	r3, [sp, #52]	; 0x34
10002800:	e745      	b.n	1000268e <_ftoa+0x92>
10002802:	9b24      	ldr	r3, [sp, #144]	; 0x90
10002804:	9303      	str	r3, [sp, #12]
10002806:	9b23      	ldr	r3, [sp, #140]	; 0x8c
10002808:	9302      	str	r3, [sp, #8]
1000280a:	2304      	movs	r3, #4
1000280c:	9301      	str	r3, [sp, #4]
1000280e:	4b5b      	ldr	r3, [pc, #364]	; (1000297c <_ftoa+0x380>)
10002810:	e7e1      	b.n	100027d6 <_ftoa+0x1da>
10002812:	0028      	movs	r0, r5
10002814:	f001 f9c0 	bl	10003b98 <__wrap___aeabi_i2d>
10002818:	0002      	movs	r2, r0
1000281a:	000b      	movs	r3, r1
1000281c:	0030      	movs	r0, r6
1000281e:	0039      	movs	r1, r7
10002820:	f001 f92f 	bl	10003a82 <__wrap___aeabi_dsub>
10002824:	4b52      	ldr	r3, [pc, #328]	; (10002970 <_ftoa+0x374>)
10002826:	2200      	movs	r2, #0
10002828:	0006      	movs	r6, r0
1000282a:	000f      	movs	r7, r1
1000282c:	f001 f986 	bl	10003b3c <__wrap___aeabi_dcmplt>
10002830:	ab0e      	add	r3, sp, #56	; 0x38
10002832:	4698      	mov	r8, r3
10002834:	2800      	cmp	r0, #0
10002836:	d10a      	bne.n	1000284e <_ftoa+0x252>
10002838:	2200      	movs	r2, #0
1000283a:	0030      	movs	r0, r6
1000283c:	0039      	movs	r1, r7
1000283e:	4b4c      	ldr	r3, [pc, #304]	; (10002970 <_ftoa+0x374>)
10002840:	f001 f992 	bl	10003b68 <__wrap___aeabi_dcmpgt>
10002844:	2800      	cmp	r0, #0
10002846:	d102      	bne.n	1000284e <_ftoa+0x252>
10002848:	07eb      	lsls	r3, r5, #31
1000284a:	d500      	bpl.n	1000284e <_ftoa+0x252>
1000284c:	3501      	adds	r5, #1
1000284e:	2c20      	cmp	r4, #32
10002850:	d032      	beq.n	100028b8 <_ftoa+0x2bc>
10002852:	aa08      	add	r2, sp, #32
10002854:	4694      	mov	ip, r2
10002856:	2317      	movs	r3, #23
10002858:	0028      	movs	r0, r5
1000285a:	4463      	add	r3, ip
1000285c:	210a      	movs	r1, #10
1000285e:	3401      	adds	r4, #1
10002860:	191e      	adds	r6, r3, r4
10002862:	f000 fe9d 	bl	100035a0 <__wrap___aeabi_idiv>
10002866:	3130      	adds	r1, #48	; 0x30
10002868:	0028      	movs	r0, r5
1000286a:	7031      	strb	r1, [r6, #0]
1000286c:	210a      	movs	r1, #10
1000286e:	f000 fe97 	bl	100035a0 <__wrap___aeabi_idiv>
10002872:	1e05      	subs	r5, r0, #0
10002874:	d1eb      	bne.n	1000284e <_ftoa+0x252>
10002876:	2303      	movs	r3, #3
10002878:	9a24      	ldr	r2, [sp, #144]	; 0x90
1000287a:	4013      	ands	r3, r2
1000287c:	2b01      	cmp	r3, #1
1000287e:	d100      	bne.n	10002882 <_ftoa+0x286>
10002880:	e091      	b.n	100029a6 <_ftoa+0x3aa>
10002882:	2c1f      	cmp	r4, #31
10002884:	d900      	bls.n	10002888 <_ftoa+0x28c>
10002886:	e780      	b.n	1000278a <_ftoa+0x18e>
10002888:	9b0d      	ldr	r3, [sp, #52]	; 0x34
1000288a:	2b00      	cmp	r3, #0
1000288c:	d03b      	beq.n	10002906 <_ftoa+0x30a>
1000288e:	232d      	movs	r3, #45	; 0x2d
10002890:	4642      	mov	r2, r8
10002892:	5513      	strb	r3, [r2, r4]
10002894:	3401      	adds	r4, #1
10002896:	e778      	b.n	1000278a <_ftoa+0x18e>
10002898:	2200      	movs	r2, #0
1000289a:	980a      	ldr	r0, [sp, #40]	; 0x28
1000289c:	990b      	ldr	r1, [sp, #44]	; 0x2c
1000289e:	4b34      	ldr	r3, [pc, #208]	; (10002970 <_ftoa+0x374>)
100028a0:	f001 f94c 	bl	10003b3c <__wrap___aeabi_dcmplt>
100028a4:	2800      	cmp	r0, #0
100028a6:	d000      	beq.n	100028aa <_ftoa+0x2ae>
100028a8:	e746      	b.n	10002738 <_ftoa+0x13c>
100028aa:	4653      	mov	r3, sl
100028ac:	2b00      	cmp	r3, #0
100028ae:	d167      	bne.n	10002980 <_ftoa+0x384>
100028b0:	2301      	movs	r3, #1
100028b2:	469c      	mov	ip, r3
100028b4:	44e2      	add	sl, ip
100028b6:	e73f      	b.n	10002738 <_ftoa+0x13c>
100028b8:	2303      	movs	r3, #3
100028ba:	9a24      	ldr	r2, [sp, #144]	; 0x90
100028bc:	4013      	ands	r3, r2
100028be:	2b01      	cmp	r3, #1
100028c0:	d000      	beq.n	100028c4 <_ftoa+0x2c8>
100028c2:	e762      	b.n	1000278a <_ftoa+0x18e>
100028c4:	9b23      	ldr	r3, [sp, #140]	; 0x8c
100028c6:	2b00      	cmp	r3, #0
100028c8:	d100      	bne.n	100028cc <_ftoa+0x2d0>
100028ca:	e75e      	b.n	1000278a <_ftoa+0x18e>
100028cc:	9b0d      	ldr	r3, [sp, #52]	; 0x34
100028ce:	2b00      	cmp	r3, #0
100028d0:	d103      	bne.n	100028da <_ftoa+0x2de>
100028d2:	9a24      	ldr	r2, [sp, #144]	; 0x90
100028d4:	330c      	adds	r3, #12
100028d6:	4213      	tst	r3, r2
100028d8:	d002      	beq.n	100028e0 <_ftoa+0x2e4>
100028da:	9b23      	ldr	r3, [sp, #140]	; 0x8c
100028dc:	3b01      	subs	r3, #1
100028de:	9323      	str	r3, [sp, #140]	; 0x8c
100028e0:	9b23      	ldr	r3, [sp, #140]	; 0x8c
100028e2:	429c      	cmp	r4, r3
100028e4:	d2cd      	bcs.n	10002882 <_ftoa+0x286>
100028e6:	ab08      	add	r3, sp, #32
100028e8:	469c      	mov	ip, r3
100028ea:	2217      	movs	r2, #23
100028ec:	2330      	movs	r3, #48	; 0x30
100028ee:	4462      	add	r2, ip
100028f0:	2c1f      	cmp	r4, #31
100028f2:	d806      	bhi.n	10002902 <_ftoa+0x306>
100028f4:	9923      	ldr	r1, [sp, #140]	; 0x8c
100028f6:	3401      	adds	r4, #1
100028f8:	5513      	strb	r3, [r2, r4]
100028fa:	428c      	cmp	r4, r1
100028fc:	d0c1      	beq.n	10002882 <_ftoa+0x286>
100028fe:	2c20      	cmp	r4, #32
10002900:	d1f8      	bne.n	100028f4 <_ftoa+0x2f8>
10002902:	2420      	movs	r4, #32
10002904:	e741      	b.n	1000278a <_ftoa+0x18e>
10002906:	9b24      	ldr	r3, [sp, #144]	; 0x90
10002908:	075b      	lsls	r3, r3, #29
1000290a:	d421      	bmi.n	10002950 <_ftoa+0x354>
1000290c:	9b24      	ldr	r3, [sp, #144]	; 0x90
1000290e:	071b      	lsls	r3, r3, #28
10002910:	d400      	bmi.n	10002914 <_ftoa+0x318>
10002912:	e73a      	b.n	1000278a <_ftoa+0x18e>
10002914:	2320      	movs	r3, #32
10002916:	4642      	mov	r2, r8
10002918:	5513      	strb	r3, [r2, r4]
1000291a:	3401      	adds	r4, #1
1000291c:	e735      	b.n	1000278a <_ftoa+0x18e>
1000291e:	4657      	mov	r7, sl
10002920:	9d08      	ldr	r5, [sp, #32]
10002922:	2c20      	cmp	r4, #32
10002924:	d037      	beq.n	10002996 <_ftoa+0x39a>
10002926:	0022      	movs	r2, r4
10002928:	2130      	movs	r1, #48	; 0x30
1000292a:	4640      	mov	r0, r8
1000292c:	2f00      	cmp	r7, #0
1000292e:	d008      	beq.n	10002942 <_ftoa+0x346>
10002930:	3201      	adds	r2, #1
10002932:	54b1      	strb	r1, [r6, r2]
10002934:	2a20      	cmp	r2, #32
10002936:	d043      	beq.n	100029c0 <_ftoa+0x3c4>
10002938:	43d3      	mvns	r3, r2
1000293a:	191b      	adds	r3, r3, r4
1000293c:	181b      	adds	r3, r3, r0
1000293e:	2b00      	cmp	r3, #0
10002940:	d1f6      	bne.n	10002930 <_ftoa+0x334>
10002942:	ab0e      	add	r3, sp, #56	; 0x38
10002944:	4698      	mov	r8, r3
10002946:	232e      	movs	r3, #46	; 0x2e
10002948:	4641      	mov	r1, r8
1000294a:	1c54      	adds	r4, r2, #1
1000294c:	548b      	strb	r3, [r1, r2]
1000294e:	e77e      	b.n	1000284e <_ftoa+0x252>
10002950:	232b      	movs	r3, #43	; 0x2b
10002952:	4642      	mov	r2, r8
10002954:	5513      	strb	r3, [r2, r4]
10002956:	3401      	adds	r4, #1
10002958:	e717      	b.n	1000278a <_ftoa+0x18e>
1000295a:	46c0      	nop			; (mov r8, r8)
1000295c:	ffefffff 	.word	0xffefffff
10002960:	7fefffff 	.word	0x7fefffff
10002964:	41cdcd65 	.word	0x41cdcd65
10002968:	c1cdcd65 	.word	0xc1cdcd65
1000296c:	100053e8 	.word	0x100053e8
10002970:	3fe00000 	.word	0x3fe00000
10002974:	100051ec 	.word	0x100051ec
10002978:	100051f0 	.word	0x100051f0
1000297c:	100051fc 	.word	0x100051fc
10002980:	07db      	lsls	r3, r3, #31
10002982:	d400      	bmi.n	10002986 <_ftoa+0x38a>
10002984:	e6d8      	b.n	10002738 <_ftoa+0x13c>
10002986:	e793      	b.n	100028b0 <_ftoa+0x2b4>
10002988:	9b23      	ldr	r3, [sp, #140]	; 0x8c
1000298a:	2b00      	cmp	r3, #0
1000298c:	d100      	bne.n	10002990 <_ftoa+0x394>
1000298e:	e6fa      	b.n	10002786 <_ftoa+0x18a>
10002990:	ab0e      	add	r3, sp, #56	; 0x38
10002992:	4698      	mov	r8, r3
10002994:	e79a      	b.n	100028cc <_ftoa+0x2d0>
10002996:	2303      	movs	r3, #3
10002998:	9a24      	ldr	r2, [sp, #144]	; 0x90
1000299a:	4013      	ands	r3, r2
1000299c:	2b01      	cmp	r3, #1
1000299e:	d000      	beq.n	100029a2 <_ftoa+0x3a6>
100029a0:	e6f1      	b.n	10002786 <_ftoa+0x18a>
100029a2:	ab0e      	add	r3, sp, #56	; 0x38
100029a4:	4698      	mov	r8, r3
100029a6:	9b23      	ldr	r3, [sp, #140]	; 0x8c
100029a8:	2b00      	cmp	r3, #0
100029aa:	d100      	bne.n	100029ae <_ftoa+0x3b2>
100029ac:	e769      	b.n	10002882 <_ftoa+0x286>
100029ae:	e78d      	b.n	100028cc <_ftoa+0x2d0>
100029b0:	9b24      	ldr	r3, [sp, #144]	; 0x90
100029b2:	9303      	str	r3, [sp, #12]
100029b4:	9b23      	ldr	r3, [sp, #140]	; 0x8c
100029b6:	9302      	str	r3, [sp, #8]
100029b8:	2303      	movs	r3, #3
100029ba:	9301      	str	r3, [sp, #4]
100029bc:	4b06      	ldr	r3, [pc, #24]	; (100029d8 <_ftoa+0x3dc>)
100029be:	e70a      	b.n	100027d6 <_ftoa+0x1da>
100029c0:	2303      	movs	r3, #3
100029c2:	9a24      	ldr	r2, [sp, #144]	; 0x90
100029c4:	2420      	movs	r4, #32
100029c6:	4013      	ands	r3, r2
100029c8:	2b01      	cmp	r3, #1
100029ca:	d000      	beq.n	100029ce <_ftoa+0x3d2>
100029cc:	e6db      	b.n	10002786 <_ftoa+0x18a>
100029ce:	9b23      	ldr	r3, [sp, #140]	; 0x8c
100029d0:	2420      	movs	r4, #32
100029d2:	2b00      	cmp	r3, #0
100029d4:	d1dc      	bne.n	10002990 <_ftoa+0x394>
100029d6:	e6d6      	b.n	10002786 <_ftoa+0x18a>
100029d8:	100051f8 	.word	0x100051f8

100029dc <_vsnprintf>:
100029dc:	b5f0      	push	{r4, r5, r6, r7, lr}
100029de:	46de      	mov	lr, fp
100029e0:	464e      	mov	r6, r9
100029e2:	4657      	mov	r7, sl
100029e4:	4645      	mov	r5, r8
100029e6:	b5e0      	push	{r5, r6, r7, lr}
100029e8:	b09f      	sub	sp, #124	; 0x7c
100029ea:	001c      	movs	r4, r3
100029ec:	9b28      	ldr	r3, [sp, #160]	; 0xa0
100029ee:	4693      	mov	fp, r2
100029f0:	9309      	str	r3, [sp, #36]	; 0x24
100029f2:	4acf      	ldr	r2, [pc, #828]	; (10002d30 <_vsnprintf+0x354>)
100029f4:	4bcf      	ldr	r3, [pc, #828]	; (10002d34 <_vsnprintf+0x358>)
100029f6:	4689      	mov	r9, r1
100029f8:	9008      	str	r0, [sp, #32]
100029fa:	601a      	str	r2, [r3, #0]
100029fc:	2900      	cmp	r1, #0
100029fe:	d100      	bne.n	10002a02 <_vsnprintf+0x26>
10002a00:	e216      	b.n	10002e30 <_vsnprintf+0x454>
10002a02:	2300      	movs	r3, #0
10002a04:	7820      	ldrb	r0, [r4, #0]
10002a06:	469a      	mov	sl, r3
10002a08:	2800      	cmp	r0, #0
10002a0a:	d100      	bne.n	10002a0e <_vsnprintf+0x32>
10002a0c:	e218      	b.n	10002e40 <_vsnprintf+0x464>
10002a0e:	0026      	movs	r6, r4
10002a10:	001d      	movs	r5, r3
10002a12:	464c      	mov	r4, r9
10002a14:	e00a      	b.n	10002a2c <_vsnprintf+0x50>
10002a16:	002a      	movs	r2, r5
10002a18:	1c6f      	adds	r7, r5, #1
10002a1a:	465b      	mov	r3, fp
10002a1c:	9d08      	ldr	r5, [sp, #32]
10002a1e:	0021      	movs	r1, r4
10002a20:	47a8      	blx	r5
10002a22:	003d      	movs	r5, r7
10002a24:	3601      	adds	r6, #1
10002a26:	7830      	ldrb	r0, [r6, #0]
10002a28:	2800      	cmp	r0, #0
10002a2a:	d07a      	beq.n	10002b22 <_vsnprintf+0x146>
10002a2c:	2825      	cmp	r0, #37	; 0x25
10002a2e:	d1f2      	bne.n	10002a16 <_vsnprintf+0x3a>
10002a30:	2310      	movs	r3, #16
10002a32:	469a      	mov	sl, r3
10002a34:	3b08      	subs	r3, #8
10002a36:	4699      	mov	r9, r3
10002a38:	3b04      	subs	r3, #4
10002a3a:	4698      	mov	r8, r3
10002a3c:	3b02      	subs	r3, #2
10002a3e:	2100      	movs	r1, #0
10002a40:	469c      	mov	ip, r3
10002a42:	1c72      	adds	r2, r6, #1
10002a44:	7810      	ldrb	r0, [r2, #0]
10002a46:	0016      	movs	r6, r2
10002a48:	0003      	movs	r3, r0
10002a4a:	3b20      	subs	r3, #32
10002a4c:	b2db      	uxtb	r3, r3
10002a4e:	2b10      	cmp	r3, #16
10002a50:	d803      	bhi.n	10002a5a <_vsnprintf+0x7e>
10002a52:	4fb9      	ldr	r7, [pc, #740]	; (10002d38 <_vsnprintf+0x35c>)
10002a54:	009b      	lsls	r3, r3, #2
10002a56:	58fb      	ldr	r3, [r7, r3]
10002a58:	469f      	mov	pc, r3
10002a5a:	0003      	movs	r3, r0
10002a5c:	3b30      	subs	r3, #48	; 0x30
10002a5e:	2b09      	cmp	r3, #9
10002a60:	d93c      	bls.n	10002adc <_vsnprintf+0x100>
10002a62:	2300      	movs	r3, #0
10002a64:	930a      	str	r3, [sp, #40]	; 0x28
10002a66:	282a      	cmp	r0, #42	; 0x2a
10002a68:	d100      	bne.n	10002a6c <_vsnprintf+0x90>
10002a6a:	e071      	b.n	10002b50 <_vsnprintf+0x174>
10002a6c:	2300      	movs	r3, #0
10002a6e:	4698      	mov	r8, r3
10002a70:	282e      	cmp	r0, #46	; 0x2e
10002a72:	d047      	beq.n	10002b04 <_vsnprintf+0x128>
10002a74:	0003      	movs	r3, r0
10002a76:	3b68      	subs	r3, #104	; 0x68
10002a78:	b2db      	uxtb	r3, r3
10002a7a:	2b12      	cmp	r3, #18
10002a7c:	d81f      	bhi.n	10002abe <_vsnprintf+0xe2>
10002a7e:	4aaf      	ldr	r2, [pc, #700]	; (10002d3c <_vsnprintf+0x360>)
10002a80:	009b      	lsls	r3, r3, #2
10002a82:	58d3      	ldr	r3, [r2, r3]
10002a84:	469f      	mov	pc, r3
10002a86:	2301      	movs	r3, #1
10002a88:	3201      	adds	r2, #1
10002a8a:	4319      	orrs	r1, r3
10002a8c:	e7da      	b.n	10002a44 <_vsnprintf+0x68>
10002a8e:	4663      	mov	r3, ip
10002a90:	3201      	adds	r2, #1
10002a92:	4319      	orrs	r1, r3
10002a94:	e7d6      	b.n	10002a44 <_vsnprintf+0x68>
10002a96:	4643      	mov	r3, r8
10002a98:	3201      	adds	r2, #1
10002a9a:	4319      	orrs	r1, r3
10002a9c:	e7d2      	b.n	10002a44 <_vsnprintf+0x68>
10002a9e:	4653      	mov	r3, sl
10002aa0:	3201      	adds	r2, #1
10002aa2:	4319      	orrs	r1, r3
10002aa4:	e7ce      	b.n	10002a44 <_vsnprintf+0x68>
10002aa6:	464b      	mov	r3, r9
10002aa8:	3201      	adds	r2, #1
10002aaa:	4319      	orrs	r1, r3
10002aac:	e7ca      	b.n	10002a44 <_vsnprintf+0x68>
10002aae:	7870      	ldrb	r0, [r6, #1]
10002ab0:	286c      	cmp	r0, #108	; 0x6c
10002ab2:	d100      	bne.n	10002ab6 <_vsnprintf+0xda>
10002ab4:	e2bf      	b.n	10003036 <_vsnprintf+0x65a>
10002ab6:	2380      	movs	r3, #128	; 0x80
10002ab8:	005b      	lsls	r3, r3, #1
10002aba:	4319      	orrs	r1, r3
10002abc:	3601      	adds	r6, #1
10002abe:	0003      	movs	r3, r0
10002ac0:	3b25      	subs	r3, #37	; 0x25
10002ac2:	b2db      	uxtb	r3, r3
10002ac4:	2b53      	cmp	r3, #83	; 0x53
10002ac6:	d8a6      	bhi.n	10002a16 <_vsnprintf+0x3a>
10002ac8:	4a9d      	ldr	r2, [pc, #628]	; (10002d40 <_vsnprintf+0x364>)
10002aca:	009b      	lsls	r3, r3, #2
10002acc:	58d3      	ldr	r3, [r2, r3]
10002ace:	469f      	mov	pc, r3
10002ad0:	2380      	movs	r3, #128	; 0x80
10002ad2:	005b      	lsls	r3, r3, #1
10002ad4:	7870      	ldrb	r0, [r6, #1]
10002ad6:	4319      	orrs	r1, r3
10002ad8:	3601      	adds	r6, #1
10002ada:	e7f0      	b.n	10002abe <_vsnprintf+0xe2>
10002adc:	2700      	movs	r7, #0
10002ade:	0003      	movs	r3, r0
10002ae0:	00b8      	lsls	r0, r7, #2
10002ae2:	19c0      	adds	r0, r0, r7
10002ae4:	3601      	adds	r6, #1
10002ae6:	0040      	lsls	r0, r0, #1
10002ae8:	18c0      	adds	r0, r0, r3
10002aea:	7833      	ldrb	r3, [r6, #0]
10002aec:	3830      	subs	r0, #48	; 0x30
10002aee:	001a      	movs	r2, r3
10002af0:	3a30      	subs	r2, #48	; 0x30
10002af2:	0007      	movs	r7, r0
10002af4:	2a09      	cmp	r2, #9
10002af6:	d9f3      	bls.n	10002ae0 <_vsnprintf+0x104>
10002af8:	900a      	str	r0, [sp, #40]	; 0x28
10002afa:	0018      	movs	r0, r3
10002afc:	2300      	movs	r3, #0
10002afe:	4698      	mov	r8, r3
10002b00:	282e      	cmp	r0, #46	; 0x2e
10002b02:	d1b7      	bne.n	10002a74 <_vsnprintf+0x98>
10002b04:	2380      	movs	r3, #128	; 0x80
10002b06:	7870      	ldrb	r0, [r6, #1]
10002b08:	00db      	lsls	r3, r3, #3
10002b0a:	4319      	orrs	r1, r3
10002b0c:	0003      	movs	r3, r0
10002b0e:	3b30      	subs	r3, #48	; 0x30
10002b10:	1c72      	adds	r2, r6, #1
10002b12:	2b09      	cmp	r3, #9
10002b14:	d800      	bhi.n	10002b18 <_vsnprintf+0x13c>
10002b16:	e195      	b.n	10002e44 <_vsnprintf+0x468>
10002b18:	282a      	cmp	r0, #42	; 0x2a
10002b1a:	d100      	bne.n	10002b1e <_vsnprintf+0x142>
10002b1c:	e1a6      	b.n	10002e6c <_vsnprintf+0x490>
10002b1e:	0016      	movs	r6, r2
10002b20:	e7a8      	b.n	10002a74 <_vsnprintf+0x98>
10002b22:	46a1      	mov	r9, r4
10002b24:	46aa      	mov	sl, r5
10002b26:	002c      	movs	r4, r5
10002b28:	45d3      	cmp	fp, sl
10002b2a:	d803      	bhi.n	10002b34 <_vsnprintf+0x158>
10002b2c:	2301      	movs	r3, #1
10002b2e:	425b      	negs	r3, r3
10002b30:	445b      	add	r3, fp
10002b32:	469a      	mov	sl, r3
10002b34:	465b      	mov	r3, fp
10002b36:	4652      	mov	r2, sl
10002b38:	4649      	mov	r1, r9
10002b3a:	2000      	movs	r0, #0
10002b3c:	9d08      	ldr	r5, [sp, #32]
10002b3e:	47a8      	blx	r5
10002b40:	0020      	movs	r0, r4
10002b42:	b01f      	add	sp, #124	; 0x7c
10002b44:	bc3c      	pop	{r2, r3, r4, r5}
10002b46:	4690      	mov	r8, r2
10002b48:	4699      	mov	r9, r3
10002b4a:	46a2      	mov	sl, r4
10002b4c:	46ab      	mov	fp, r5
10002b4e:	bdf0      	pop	{r4, r5, r6, r7, pc}
10002b50:	9b09      	ldr	r3, [sp, #36]	; 0x24
10002b52:	cb40      	ldmia	r3!, {r6}
10002b54:	960a      	str	r6, [sp, #40]	; 0x28
10002b56:	2e00      	cmp	r6, #0
10002b58:	db03      	blt.n	10002b62 <_vsnprintf+0x186>
10002b5a:	7850      	ldrb	r0, [r2, #1]
10002b5c:	9309      	str	r3, [sp, #36]	; 0x24
10002b5e:	1c56      	adds	r6, r2, #1
10002b60:	e784      	b.n	10002a6c <_vsnprintf+0x90>
10002b62:	3828      	subs	r0, #40	; 0x28
10002b64:	4301      	orrs	r1, r0
10002b66:	4270      	negs	r0, r6
10002b68:	900a      	str	r0, [sp, #40]	; 0x28
10002b6a:	9309      	str	r3, [sp, #36]	; 0x24
10002b6c:	7850      	ldrb	r0, [r2, #1]
10002b6e:	1c56      	adds	r6, r2, #1
10002b70:	e77c      	b.n	10002a6c <_vsnprintf+0x90>
10002b72:	2878      	cmp	r0, #120	; 0x78
10002b74:	d100      	bne.n	10002b78 <_vsnprintf+0x19c>
10002b76:	e1d4      	b.n	10002f22 <_vsnprintf+0x546>
10002b78:	2858      	cmp	r0, #88	; 0x58
10002b7a:	d100      	bne.n	10002b7e <_vsnprintf+0x1a2>
10002b7c:	e268      	b.n	10003050 <_vsnprintf+0x674>
10002b7e:	286f      	cmp	r0, #111	; 0x6f
10002b80:	d100      	bne.n	10002b84 <_vsnprintf+0x1a8>
10002b82:	e352      	b.n	1000322a <_vsnprintf+0x84e>
10002b84:	2862      	cmp	r0, #98	; 0x62
10002b86:	d100      	bne.n	10002b8a <_vsnprintf+0x1ae>
10002b88:	e1d8      	b.n	10002f3c <_vsnprintf+0x560>
10002b8a:	2310      	movs	r3, #16
10002b8c:	000a      	movs	r2, r1
10002b8e:	439a      	bics	r2, r3
10002b90:	920b      	str	r2, [sp, #44]	; 0x2c
10002b92:	2869      	cmp	r0, #105	; 0x69
10002b94:	d001      	beq.n	10002b9a <_vsnprintf+0x1be>
10002b96:	f000 fca2 	bl	100034de <_vsnprintf+0xb02>
10002b9a:	230a      	movs	r3, #10
10002b9c:	930c      	str	r3, [sp, #48]	; 0x30
10002b9e:	054b      	lsls	r3, r1, #21
10002ba0:	d400      	bmi.n	10002ba4 <_vsnprintf+0x1c8>
10002ba2:	e1d5      	b.n	10002f50 <_vsnprintf+0x574>
10002ba4:	2301      	movs	r3, #1
10002ba6:	9a0b      	ldr	r2, [sp, #44]	; 0x2c
10002ba8:	439a      	bics	r2, r3
10002baa:	920b      	str	r2, [sp, #44]	; 0x2c
10002bac:	2869      	cmp	r0, #105	; 0x69
10002bae:	d100      	bne.n	10002bb2 <_vsnprintf+0x1d6>
10002bb0:	e1ce      	b.n	10002f50 <_vsnprintf+0x574>
10002bb2:	2864      	cmp	r0, #100	; 0x64
10002bb4:	d100      	bne.n	10002bb8 <_vsnprintf+0x1dc>
10002bb6:	e1cb      	b.n	10002f50 <_vsnprintf+0x574>
10002bb8:	9a0b      	ldr	r2, [sp, #44]	; 0x2c
10002bba:	2380      	movs	r3, #128	; 0x80
10002bbc:	0011      	movs	r1, r2
10002bbe:	009b      	lsls	r3, r3, #2
10002bc0:	4019      	ands	r1, r3
10002bc2:	468a      	mov	sl, r1
10002bc4:	421a      	tst	r2, r3
10002bc6:	d000      	beq.n	10002bca <_vsnprintf+0x1ee>
10002bc8:	e332      	b.n	10003230 <_vsnprintf+0x854>
10002bca:	2380      	movs	r3, #128	; 0x80
10002bcc:	0011      	movs	r1, r2
10002bce:	005b      	lsls	r3, r3, #1
10002bd0:	4019      	ands	r1, r3
10002bd2:	4689      	mov	r9, r1
10002bd4:	421a      	tst	r2, r3
10002bd6:	d001      	beq.n	10002bdc <_vsnprintf+0x200>
10002bd8:	f000 fc02 	bl	100033e0 <_vsnprintf+0xa04>
10002bdc:	0013      	movs	r3, r2
10002bde:	065b      	lsls	r3, r3, #25
10002be0:	d500      	bpl.n	10002be4 <_vsnprintf+0x208>
10002be2:	e310      	b.n	10003206 <_vsnprintf+0x82a>
10002be4:	9b0b      	ldr	r3, [sp, #44]	; 0x2c
10002be6:	061b      	lsls	r3, r3, #24
10002be8:	d401      	bmi.n	10002bee <_vsnprintf+0x212>
10002bea:	f000 fc6e 	bl	100034ca <_vsnprintf+0xaee>
10002bee:	9b09      	ldr	r3, [sp, #36]	; 0x24
10002bf0:	cb04      	ldmia	r3!, {r2}
10002bf2:	0412      	lsls	r2, r2, #16
10002bf4:	0c12      	lsrs	r2, r2, #16
10002bf6:	4692      	mov	sl, r2
10002bf8:	9309      	str	r3, [sp, #36]	; 0x24
10002bfa:	4653      	mov	r3, sl
10002bfc:	2b00      	cmp	r3, #0
10002bfe:	d000      	beq.n	10002c02 <_vsnprintf+0x226>
10002c00:	e364      	b.n	100032cc <_vsnprintf+0x8f0>
10002c02:	9a0b      	ldr	r2, [sp, #44]	; 0x2c
10002c04:	3310      	adds	r3, #16
10002c06:	0011      	movs	r1, r2
10002c08:	4399      	bics	r1, r3
10002c0a:	910b      	str	r1, [sp, #44]	; 0x2c
10002c0c:	0552      	lsls	r2, r2, #21
10002c0e:	d400      	bmi.n	10002c12 <_vsnprintf+0x236>
10002c10:	e35c      	b.n	100032cc <_vsnprintf+0x8f0>
10002c12:	2300      	movs	r3, #0
10002c14:	4699      	mov	r9, r3
10002c16:	9b0b      	ldr	r3, [sp, #44]	; 0x2c
10002c18:	9306      	str	r3, [sp, #24]
10002c1a:	9b0a      	ldr	r3, [sp, #40]	; 0x28
10002c1c:	9305      	str	r3, [sp, #20]
10002c1e:	4643      	mov	r3, r8
10002c20:	9304      	str	r3, [sp, #16]
10002c22:	9b0c      	ldr	r3, [sp, #48]	; 0x30
10002c24:	9303      	str	r3, [sp, #12]
10002c26:	2300      	movs	r3, #0
10002c28:	e2de      	b.n	100031e8 <_vsnprintf+0x80c>
10002c2a:	7870      	ldrb	r0, [r6, #1]
10002c2c:	2868      	cmp	r0, #104	; 0x68
10002c2e:	d100      	bne.n	10002c32 <_vsnprintf+0x256>
10002c30:	e207      	b.n	10003042 <_vsnprintf+0x666>
10002c32:	2380      	movs	r3, #128	; 0x80
10002c34:	3601      	adds	r6, #1
10002c36:	4319      	orrs	r1, r3
10002c38:	e741      	b.n	10002abe <_vsnprintf+0xe2>
10002c3a:	2380      	movs	r3, #128	; 0x80
10002c3c:	009b      	lsls	r3, r3, #2
10002c3e:	7870      	ldrb	r0, [r6, #1]
10002c40:	4319      	orrs	r1, r3
10002c42:	3601      	adds	r6, #1
10002c44:	e73b      	b.n	10002abe <_vsnprintf+0xe2>
10002c46:	2846      	cmp	r0, #70	; 0x46
10002c48:	d100      	bne.n	10002c4c <_vsnprintf+0x270>
10002c4a:	e174      	b.n	10002f36 <_vsnprintf+0x55a>
10002c4c:	2207      	movs	r2, #7
10002c4e:	9b09      	ldr	r3, [sp, #36]	; 0x24
10002c50:	9104      	str	r1, [sp, #16]
10002c52:	3307      	adds	r3, #7
10002c54:	4393      	bics	r3, r2
10002c56:	9a0a      	ldr	r2, [sp, #40]	; 0x28
10002c58:	0019      	movs	r1, r3
10002c5a:	9203      	str	r2, [sp, #12]
10002c5c:	4642      	mov	r2, r8
10002c5e:	9202      	str	r2, [sp, #8]
10002c60:	c90c      	ldmia	r1!, {r2, r3}
10002c62:	9808      	ldr	r0, [sp, #32]
10002c64:	9200      	str	r2, [sp, #0]
10002c66:	9301      	str	r3, [sp, #4]
10002c68:	9109      	str	r1, [sp, #36]	; 0x24
10002c6a:	002a      	movs	r2, r5
10002c6c:	465b      	mov	r3, fp
10002c6e:	0021      	movs	r1, r4
10002c70:	f7ff fcc4 	bl	100025fc <_ftoa>
10002c74:	3601      	adds	r6, #1
10002c76:	0005      	movs	r5, r0
10002c78:	e6d5      	b.n	10002a26 <_vsnprintf+0x4a>
10002c7a:	9b09      	ldr	r3, [sp, #36]	; 0x24
10002c7c:	001a      	movs	r2, r3
10002c7e:	ca08      	ldmia	r2!, {r3}
10002c80:	4691      	mov	r9, r2
10002c82:	2b00      	cmp	r3, #0
10002c84:	d100      	bne.n	10002c88 <_vsnprintf+0x2ac>
10002c86:	e105      	b.n	10002e94 <_vsnprintf+0x4b8>
10002c88:	2221      	movs	r2, #33	; 0x21
10002c8a:	4311      	orrs	r1, r2
10002c8c:	468a      	mov	sl, r1
10002c8e:	a80e      	add	r0, sp, #56	; 0x38
10002c90:	4684      	mov	ip, r0
10002c92:	211f      	movs	r1, #31
10002c94:	4461      	add	r1, ip
10002c96:	9509      	str	r5, [sp, #36]	; 0x24
10002c98:	2200      	movs	r2, #0
10002c9a:	270f      	movs	r7, #15
10002c9c:	46a4      	mov	ip, r4
10002c9e:	000d      	movs	r5, r1
10002ca0:	e002      	b.n	10002ca8 <_vsnprintf+0x2cc>
10002ca2:	2a20      	cmp	r2, #32
10002ca4:	d00c      	beq.n	10002cc0 <_vsnprintf+0x2e4>
10002ca6:	000b      	movs	r3, r1
10002ca8:	003c      	movs	r4, r7
10002caa:	401c      	ands	r4, r3
10002cac:	0020      	movs	r0, r4
10002cae:	3037      	adds	r0, #55	; 0x37
10002cb0:	2c09      	cmp	r4, #9
10002cb2:	d800      	bhi.n	10002cb6 <_vsnprintf+0x2da>
10002cb4:	3807      	subs	r0, #7
10002cb6:	3201      	adds	r2, #1
10002cb8:	54a8      	strb	r0, [r5, r2]
10002cba:	0919      	lsrs	r1, r3, #4
10002cbc:	2b0f      	cmp	r3, #15
10002cbe:	d8f0      	bhi.n	10002ca2 <_vsnprintf+0x2c6>
10002cc0:	4664      	mov	r4, ip
10002cc2:	9d09      	ldr	r5, [sp, #36]	; 0x24
10002cc4:	e0f0      	b.n	10002ea8 <_vsnprintf+0x4cc>
10002cc6:	078b      	lsls	r3, r1, #30
10002cc8:	d400      	bmi.n	10002ccc <_vsnprintf+0x2f0>
10002cca:	e1d1      	b.n	10003070 <_vsnprintf+0x694>
10002ccc:	9b09      	ldr	r3, [sp, #36]	; 0x24
10002cce:	002a      	movs	r2, r5
10002cd0:	4699      	mov	r9, r3
10002cd2:	1c6b      	adds	r3, r5, #1
10002cd4:	4698      	mov	r8, r3
10002cd6:	464b      	mov	r3, r9
10002cd8:	cb01      	ldmia	r3!, {r0}
10002cda:	0021      	movs	r1, r4
10002cdc:	4699      	mov	r9, r3
10002cde:	9f08      	ldr	r7, [sp, #32]
10002ce0:	465b      	mov	r3, fp
10002ce2:	b2c0      	uxtb	r0, r0
10002ce4:	47b8      	blx	r7
10002ce6:	9b0a      	ldr	r3, [sp, #40]	; 0x28
10002ce8:	469c      	mov	ip, r3
10002cea:	4465      	add	r5, ip
10002cec:	2b01      	cmp	r3, #1
10002cee:	d800      	bhi.n	10002cf2 <_vsnprintf+0x316>
10002cf0:	e290      	b.n	10003214 <_vsnprintf+0x838>
10002cf2:	46b2      	mov	sl, r6
10002cf4:	465e      	mov	r6, fp
10002cf6:	4647      	mov	r7, r8
10002cf8:	46a8      	mov	r8, r5
10002cfa:	9d08      	ldr	r5, [sp, #32]
10002cfc:	003a      	movs	r2, r7
10002cfe:	0033      	movs	r3, r6
10002d00:	3701      	adds	r7, #1
10002d02:	0021      	movs	r1, r4
10002d04:	2020      	movs	r0, #32
10002d06:	47a8      	blx	r5
10002d08:	4547      	cmp	r7, r8
10002d0a:	d1f7      	bne.n	10002cfc <_vsnprintf+0x320>
10002d0c:	46b3      	mov	fp, r6
10002d0e:	464b      	mov	r3, r9
10002d10:	4656      	mov	r6, sl
10002d12:	003d      	movs	r5, r7
10002d14:	9309      	str	r3, [sp, #36]	; 0x24
10002d16:	3601      	adds	r6, #1
10002d18:	e685      	b.n	10002a26 <_vsnprintf+0x4a>
10002d1a:	002a      	movs	r2, r5
10002d1c:	1c6f      	adds	r7, r5, #1
10002d1e:	465b      	mov	r3, fp
10002d20:	9d08      	ldr	r5, [sp, #32]
10002d22:	0021      	movs	r1, r4
10002d24:	2025      	movs	r0, #37	; 0x25
10002d26:	47a8      	blx	r5
10002d28:	3601      	adds	r6, #1
10002d2a:	003d      	movs	r5, r7
10002d2c:	e67b      	b.n	10002a26 <_vsnprintf+0x4a>
10002d2e:	46c0      	nop			; (mov r8, r8)
10002d30:	100029dd 	.word	0x100029dd
10002d34:	20000b04 	.word	0x20000b04
10002d38:	10005204 	.word	0x10005204
10002d3c:	10005248 	.word	0x10005248
10002d40:	10005294 	.word	0x10005294
10002d44:	9b09      	ldr	r3, [sp, #36]	; 0x24
10002d46:	cb04      	ldmia	r3!, {r2}
10002d48:	4699      	mov	r9, r3
10002d4a:	4643      	mov	r3, r8
10002d4c:	9209      	str	r2, [sp, #36]	; 0x24
10002d4e:	2b00      	cmp	r3, #0
10002d50:	d000      	beq.n	10002d54 <_vsnprintf+0x378>
10002d52:	e097      	b.n	10002e84 <_vsnprintf+0x4a8>
10002d54:	7813      	ldrb	r3, [r2, #0]
10002d56:	469c      	mov	ip, r3
10002d58:	2b00      	cmp	r3, #0
10002d5a:	d100      	bne.n	10002d5e <_vsnprintf+0x382>
10002d5c:	e3b3      	b.n	100034c6 <_vsnprintf+0xaea>
10002d5e:	2302      	movs	r3, #2
10002d60:	425b      	negs	r3, r3
10002d62:	1c5a      	adds	r2, r3, #1
10002d64:	9b09      	ldr	r3, [sp, #36]	; 0x24
10002d66:	4692      	mov	sl, r2
10002d68:	0018      	movs	r0, r3
10002d6a:	9f0a      	ldr	r7, [sp, #40]	; 0x28
10002d6c:	920b      	str	r2, [sp, #44]	; 0x2c
10002d6e:	4450      	add	r0, sl
10002d70:	e002      	b.n	10002d78 <_vsnprintf+0x39c>
10002d72:	4283      	cmp	r3, r0
10002d74:	d100      	bne.n	10002d78 <_vsnprintf+0x39c>
10002d76:	e169      	b.n	1000304c <_vsnprintf+0x670>
10002d78:	785a      	ldrb	r2, [r3, #1]
10002d7a:	3301      	adds	r3, #1
10002d7c:	2a00      	cmp	r2, #0
10002d7e:	d1f8      	bne.n	10002d72 <_vsnprintf+0x396>
10002d80:	9a09      	ldr	r2, [sp, #36]	; 0x24
10002d82:	970a      	str	r7, [sp, #40]	; 0x28
10002d84:	1a9b      	subs	r3, r3, r2
10002d86:	930b      	str	r3, [sp, #44]	; 0x2c
10002d88:	2380      	movs	r3, #128	; 0x80
10002d8a:	000a      	movs	r2, r1
10002d8c:	00db      	lsls	r3, r3, #3
10002d8e:	401a      	ands	r2, r3
10002d90:	920c      	str	r2, [sp, #48]	; 0x30
10002d92:	4219      	tst	r1, r3
10002d94:	d004      	beq.n	10002da0 <_vsnprintf+0x3c4>
10002d96:	9b0b      	ldr	r3, [sp, #44]	; 0x2c
10002d98:	4543      	cmp	r3, r8
10002d9a:	d901      	bls.n	10002da0 <_vsnprintf+0x3c4>
10002d9c:	4643      	mov	r3, r8
10002d9e:	930b      	str	r3, [sp, #44]	; 0x2c
10002da0:	2302      	movs	r3, #2
10002da2:	001a      	movs	r2, r3
10002da4:	400a      	ands	r2, r1
10002da6:	920d      	str	r2, [sp, #52]	; 0x34
10002da8:	420b      	tst	r3, r1
10002daa:	d100      	bne.n	10002dae <_vsnprintf+0x3d2>
10002dac:	e184      	b.n	100030b8 <_vsnprintf+0x6dc>
10002dae:	4660      	mov	r0, ip
10002db0:	2800      	cmp	r0, #0
10002db2:	d023      	beq.n	10002dfc <_vsnprintf+0x420>
10002db4:	9b0c      	ldr	r3, [sp, #48]	; 0x30
10002db6:	2b00      	cmp	r3, #0
10002db8:	d100      	bne.n	10002dbc <_vsnprintf+0x3e0>
10002dba:	e124      	b.n	10003006 <_vsnprintf+0x62a>
10002dbc:	44a8      	add	r8, r5
10002dbe:	46c2      	mov	sl, r8
10002dc0:	9b09      	ldr	r3, [sp, #36]	; 0x24
10002dc2:	4657      	mov	r7, sl
10002dc4:	1b5b      	subs	r3, r3, r5
10002dc6:	4698      	mov	r8, r3
10002dc8:	9b08      	ldr	r3, [sp, #32]
10002dca:	46b2      	mov	sl, r6
10002dcc:	002a      	movs	r2, r5
10002dce:	0026      	movs	r6, r4
10002dd0:	465c      	mov	r4, fp
10002dd2:	469b      	mov	fp, r3
10002dd4:	e009      	b.n	10002dea <_vsnprintf+0x40e>
10002dd6:	0023      	movs	r3, r4
10002dd8:	0031      	movs	r1, r6
10002dda:	1c55      	adds	r5, r2, #1
10002ddc:	47d8      	blx	fp
10002dde:	4643      	mov	r3, r8
10002de0:	5d58      	ldrb	r0, [r3, r5]
10002de2:	2800      	cmp	r0, #0
10002de4:	d100      	bne.n	10002de8 <_vsnprintf+0x40c>
10002de6:	e13f      	b.n	10003068 <_vsnprintf+0x68c>
10002de8:	002a      	movs	r2, r5
10002dea:	4297      	cmp	r7, r2
10002dec:	d1f3      	bne.n	10002dd6 <_vsnprintf+0x3fa>
10002dee:	46a3      	mov	fp, r4
10002df0:	003d      	movs	r5, r7
10002df2:	0034      	movs	r4, r6
10002df4:	4656      	mov	r6, sl
10002df6:	9b0d      	ldr	r3, [sp, #52]	; 0x34
10002df8:	2b00      	cmp	r3, #0
10002dfa:	d069      	beq.n	10002ed0 <_vsnprintf+0x4f4>
10002dfc:	9b0b      	ldr	r3, [sp, #44]	; 0x2c
10002dfe:	990a      	ldr	r1, [sp, #40]	; 0x28
10002e00:	46a8      	mov	r8, r5
10002e02:	4299      	cmp	r1, r3
10002e04:	d964      	bls.n	10002ed0 <_vsnprintf+0x4f4>
10002e06:	468c      	mov	ip, r1
10002e08:	4465      	add	r5, ip
10002e0a:	1aed      	subs	r5, r5, r3
10002e0c:	9b08      	ldr	r3, [sp, #32]
10002e0e:	4647      	mov	r7, r8
10002e10:	469a      	mov	sl, r3
10002e12:	46b0      	mov	r8, r6
10002e14:	0026      	movs	r6, r4
10002e16:	465c      	mov	r4, fp
10002e18:	003a      	movs	r2, r7
10002e1a:	0023      	movs	r3, r4
10002e1c:	3701      	adds	r7, #1
10002e1e:	0031      	movs	r1, r6
10002e20:	2020      	movs	r0, #32
10002e22:	47d0      	blx	sl
10002e24:	42af      	cmp	r7, r5
10002e26:	d1f7      	bne.n	10002e18 <_vsnprintf+0x43c>
10002e28:	46a3      	mov	fp, r4
10002e2a:	0034      	movs	r4, r6
10002e2c:	4646      	mov	r6, r8
10002e2e:	e04f      	b.n	10002ed0 <_vsnprintf+0x4f4>
10002e30:	4bd2      	ldr	r3, [pc, #840]	; (1000317c <_vsnprintf+0x7a0>)
10002e32:	7820      	ldrb	r0, [r4, #0]
10002e34:	9308      	str	r3, [sp, #32]
10002e36:	2300      	movs	r3, #0
10002e38:	469a      	mov	sl, r3
10002e3a:	2800      	cmp	r0, #0
10002e3c:	d000      	beq.n	10002e40 <_vsnprintf+0x464>
10002e3e:	e5e6      	b.n	10002a0e <_vsnprintf+0x32>
10002e40:	2400      	movs	r4, #0
10002e42:	e671      	b.n	10002b28 <_vsnprintf+0x14c>
10002e44:	4643      	mov	r3, r8
10002e46:	0006      	movs	r6, r0
10002e48:	9f0a      	ldr	r7, [sp, #40]	; 0x28
10002e4a:	0098      	lsls	r0, r3, #2
10002e4c:	18c0      	adds	r0, r0, r3
10002e4e:	3201      	adds	r2, #1
10002e50:	0040      	lsls	r0, r0, #1
10002e52:	1980      	adds	r0, r0, r6
10002e54:	7816      	ldrb	r6, [r2, #0]
10002e56:	0003      	movs	r3, r0
10002e58:	0030      	movs	r0, r6
10002e5a:	3830      	subs	r0, #48	; 0x30
10002e5c:	3b30      	subs	r3, #48	; 0x30
10002e5e:	2809      	cmp	r0, #9
10002e60:	d9f3      	bls.n	10002e4a <_vsnprintf+0x46e>
10002e62:	0030      	movs	r0, r6
10002e64:	4698      	mov	r8, r3
10002e66:	0016      	movs	r6, r2
10002e68:	970a      	str	r7, [sp, #40]	; 0x28
10002e6a:	e603      	b.n	10002a74 <_vsnprintf+0x98>
10002e6c:	9b09      	ldr	r3, [sp, #36]	; 0x24
10002e6e:	3602      	adds	r6, #2
10002e70:	cb04      	ldmia	r3!, {r2}
10002e72:	4690      	mov	r8, r2
10002e74:	43d2      	mvns	r2, r2
10002e76:	4640      	mov	r0, r8
10002e78:	17d2      	asrs	r2, r2, #31
10002e7a:	4010      	ands	r0, r2
10002e7c:	4680      	mov	r8, r0
10002e7e:	9309      	str	r3, [sp, #36]	; 0x24
10002e80:	7830      	ldrb	r0, [r6, #0]
10002e82:	e5f7      	b.n	10002a74 <_vsnprintf+0x98>
10002e84:	7813      	ldrb	r3, [r2, #0]
10002e86:	469c      	mov	ip, r3
10002e88:	2b00      	cmp	r3, #0
10002e8a:	d100      	bne.n	10002e8e <_vsnprintf+0x4b2>
10002e8c:	e31a      	b.n	100034c4 <_vsnprintf+0xae8>
10002e8e:	4643      	mov	r3, r8
10002e90:	3b01      	subs	r3, #1
10002e92:	e766      	b.n	10002d62 <_vsnprintf+0x386>
10002e94:	2210      	movs	r2, #16
10002e96:	0008      	movs	r0, r1
10002e98:	4390      	bics	r0, r2
10002e9a:	3211      	adds	r2, #17
10002e9c:	4310      	orrs	r0, r2
10002e9e:	4682      	mov	sl, r0
10002ea0:	2200      	movs	r2, #0
10002ea2:	0549      	lsls	r1, r1, #21
10002ea4:	d400      	bmi.n	10002ea8 <_vsnprintf+0x4cc>
10002ea6:	e6f2      	b.n	10002c8e <_vsnprintf+0x2b2>
10002ea8:	4653      	mov	r3, sl
10002eaa:	9306      	str	r3, [sp, #24]
10002eac:	2308      	movs	r3, #8
10002eae:	9305      	str	r3, [sp, #20]
10002eb0:	4643      	mov	r3, r8
10002eb2:	9304      	str	r3, [sp, #16]
10002eb4:	2310      	movs	r3, #16
10002eb6:	9303      	str	r3, [sp, #12]
10002eb8:	2300      	movs	r3, #0
10002eba:	9302      	str	r3, [sp, #8]
10002ebc:	ab16      	add	r3, sp, #88	; 0x58
10002ebe:	9201      	str	r2, [sp, #4]
10002ec0:	9300      	str	r3, [sp, #0]
10002ec2:	002a      	movs	r2, r5
10002ec4:	465b      	mov	r3, fp
10002ec6:	0021      	movs	r1, r4
10002ec8:	9808      	ldr	r0, [sp, #32]
10002eca:	f7ff f879 	bl	10001fc0 <_ntoa_format>
10002ece:	0005      	movs	r5, r0
10002ed0:	464b      	mov	r3, r9
10002ed2:	3601      	adds	r6, #1
10002ed4:	9309      	str	r3, [sp, #36]	; 0x24
10002ed6:	e5a6      	b.n	10002a26 <_vsnprintf+0x4a>
10002ed8:	2320      	movs	r3, #32
10002eda:	0002      	movs	r2, r0
10002edc:	439a      	bics	r2, r3
10002ede:	2a47      	cmp	r2, #71	; 0x47
10002ee0:	d104      	bne.n	10002eec <_vsnprintf+0x510>
10002ee2:	2380      	movs	r3, #128	; 0x80
10002ee4:	011b      	lsls	r3, r3, #4
10002ee6:	4319      	orrs	r1, r3
10002ee8:	2302      	movs	r3, #2
10002eea:	4398      	bics	r0, r3
10002eec:	2845      	cmp	r0, #69	; 0x45
10002eee:	d101      	bne.n	10002ef4 <_vsnprintf+0x518>
10002ef0:	2320      	movs	r3, #32
10002ef2:	4319      	orrs	r1, r3
10002ef4:	2207      	movs	r2, #7
10002ef6:	9b09      	ldr	r3, [sp, #36]	; 0x24
10002ef8:	9104      	str	r1, [sp, #16]
10002efa:	3307      	adds	r3, #7
10002efc:	4393      	bics	r3, r2
10002efe:	9a0a      	ldr	r2, [sp, #40]	; 0x28
10002f00:	0019      	movs	r1, r3
10002f02:	9203      	str	r2, [sp, #12]
10002f04:	4642      	mov	r2, r8
10002f06:	9202      	str	r2, [sp, #8]
10002f08:	c90c      	ldmia	r1!, {r2, r3}
10002f0a:	9808      	ldr	r0, [sp, #32]
10002f0c:	9200      	str	r2, [sp, #0]
10002f0e:	9301      	str	r3, [sp, #4]
10002f10:	9109      	str	r1, [sp, #36]	; 0x24
10002f12:	002a      	movs	r2, r5
10002f14:	465b      	mov	r3, fp
10002f16:	0021      	movs	r1, r4
10002f18:	f7ff f94a 	bl	100021b0 <_etoa>
10002f1c:	3601      	adds	r6, #1
10002f1e:	0005      	movs	r5, r0
10002f20:	e581      	b.n	10002a26 <_vsnprintf+0x4a>
10002f22:	2310      	movs	r3, #16
10002f24:	930c      	str	r3, [sp, #48]	; 0x30
10002f26:	230c      	movs	r3, #12
10002f28:	000a      	movs	r2, r1
10002f2a:	439a      	bics	r2, r3
10002f2c:	920b      	str	r2, [sp, #44]	; 0x2c
10002f2e:	054b      	lsls	r3, r1, #21
10002f30:	d400      	bmi.n	10002f34 <_vsnprintf+0x558>
10002f32:	e63b      	b.n	10002bac <_vsnprintf+0x1d0>
10002f34:	e636      	b.n	10002ba4 <_vsnprintf+0x1c8>
10002f36:	2320      	movs	r3, #32
10002f38:	4319      	orrs	r1, r3
10002f3a:	e687      	b.n	10002c4c <_vsnprintf+0x270>
10002f3c:	2302      	movs	r3, #2
10002f3e:	930c      	str	r3, [sp, #48]	; 0x30
10002f40:	910b      	str	r1, [sp, #44]	; 0x2c
10002f42:	990b      	ldr	r1, [sp, #44]	; 0x2c
10002f44:	2864      	cmp	r0, #100	; 0x64
10002f46:	d1ee      	bne.n	10002f26 <_vsnprintf+0x54a>
10002f48:	9b0b      	ldr	r3, [sp, #44]	; 0x2c
10002f4a:	055b      	lsls	r3, r3, #21
10002f4c:	d500      	bpl.n	10002f50 <_vsnprintf+0x574>
10002f4e:	e629      	b.n	10002ba4 <_vsnprintf+0x1c8>
10002f50:	9a0b      	ldr	r2, [sp, #44]	; 0x2c
10002f52:	2380      	movs	r3, #128	; 0x80
10002f54:	0011      	movs	r1, r2
10002f56:	009b      	lsls	r3, r3, #2
10002f58:	4019      	ands	r1, r3
10002f5a:	468a      	mov	sl, r1
10002f5c:	421a      	tst	r2, r3
10002f5e:	d000      	beq.n	10002f62 <_vsnprintf+0x586>
10002f60:	e0ce      	b.n	10003100 <_vsnprintf+0x724>
10002f62:	2380      	movs	r3, #128	; 0x80
10002f64:	0011      	movs	r1, r2
10002f66:	005b      	lsls	r3, r3, #1
10002f68:	4019      	ands	r1, r3
10002f6a:	4689      	mov	r9, r1
10002f6c:	421a      	tst	r2, r3
10002f6e:	d000      	beq.n	10002f72 <_vsnprintf+0x596>
10002f70:	e1db      	b.n	1000332a <_vsnprintf+0x94e>
10002f72:	0013      	movs	r3, r2
10002f74:	065b      	lsls	r3, r3, #25
10002f76:	d500      	bpl.n	10002f7a <_vsnprintf+0x59e>
10002f78:	e11d      	b.n	100031b6 <_vsnprintf+0x7da>
10002f7a:	9b0b      	ldr	r3, [sp, #44]	; 0x2c
10002f7c:	9909      	ldr	r1, [sp, #36]	; 0x24
10002f7e:	061b      	lsls	r3, r3, #24
10002f80:	d400      	bmi.n	10002f84 <_vsnprintf+0x5a8>
10002f82:	e299      	b.n	100034b8 <_vsnprintf+0xadc>
10002f84:	c908      	ldmia	r1!, {r3}
10002f86:	b21b      	sxth	r3, r3
10002f88:	17d8      	asrs	r0, r3, #31
10002f8a:	181a      	adds	r2, r3, r0
10002f8c:	4042      	eors	r2, r0
10002f8e:	b292      	uxth	r2, r2
10002f90:	9109      	str	r1, [sp, #36]	; 0x24
10002f92:	4692      	mov	sl, r2
10002f94:	0fda      	lsrs	r2, r3, #31
10002f96:	9212      	str	r2, [sp, #72]	; 0x48
10002f98:	2b00      	cmp	r3, #0
10002f9a:	d109      	bne.n	10002fb0 <_vsnprintf+0x5d4>
10002f9c:	2380      	movs	r3, #128	; 0x80
10002f9e:	2210      	movs	r2, #16
10002fa0:	990b      	ldr	r1, [sp, #44]	; 0x2c
10002fa2:	00db      	lsls	r3, r3, #3
10002fa4:	400b      	ands	r3, r1
10002fa6:	4391      	bics	r1, r2
10002fa8:	910b      	str	r1, [sp, #44]	; 0x2c
10002faa:	2b00      	cmp	r3, #0
10002fac:	d000      	beq.n	10002fb0 <_vsnprintf+0x5d4>
10002fae:	e112      	b.n	100031d6 <_vsnprintf+0x7fa>
10002fb0:	9a0b      	ldr	r2, [sp, #44]	; 0x2c
10002fb2:	2361      	movs	r3, #97	; 0x61
10002fb4:	0692      	lsls	r2, r2, #26
10002fb6:	d500      	bpl.n	10002fba <_vsnprintf+0x5de>
10002fb8:	2341      	movs	r3, #65	; 0x41
10002fba:	a90e      	add	r1, sp, #56	; 0x38
10002fbc:	221f      	movs	r2, #31
10002fbe:	468c      	mov	ip, r1
10002fc0:	b2db      	uxtb	r3, r3
10002fc2:	4462      	add	r2, ip
10002fc4:	3b0a      	subs	r3, #10
10002fc6:	4657      	mov	r7, sl
10002fc8:	9513      	str	r5, [sp, #76]	; 0x4c
10002fca:	46a2      	mov	sl, r4
10002fcc:	464d      	mov	r5, r9
10002fce:	9c0c      	ldr	r4, [sp, #48]	; 0x30
10002fd0:	46b1      	mov	r9, r6
10002fd2:	930d      	str	r3, [sp, #52]	; 0x34
10002fd4:	0016      	movs	r6, r2
10002fd6:	e00a      	b.n	10002fee <_vsnprintf+0x612>
10002fd8:	3330      	adds	r3, #48	; 0x30
10002fda:	b2db      	uxtb	r3, r3
10002fdc:	3501      	adds	r5, #1
10002fde:	5573      	strb	r3, [r6, r5]
10002fe0:	42a7      	cmp	r7, r4
10002fe2:	d200      	bcs.n	10002fe6 <_vsnprintf+0x60a>
10002fe4:	e11c      	b.n	10003220 <_vsnprintf+0x844>
10002fe6:	2d20      	cmp	r5, #32
10002fe8:	d100      	bne.n	10002fec <_vsnprintf+0x610>
10002fea:	e119      	b.n	10003220 <_vsnprintf+0x844>
10002fec:	0007      	movs	r7, r0
10002fee:	0021      	movs	r1, r4
10002ff0:	0038      	movs	r0, r7
10002ff2:	f000 fb01 	bl	100035f8 <__wrap___aeabi_uidiv>
10002ff6:	b2cb      	uxtb	r3, r1
10002ff8:	2909      	cmp	r1, #9
10002ffa:	d9ed      	bls.n	10002fd8 <_vsnprintf+0x5fc>
10002ffc:	9a0d      	ldr	r2, [sp, #52]	; 0x34
10002ffe:	4694      	mov	ip, r2
10003000:	4463      	add	r3, ip
10003002:	b2db      	uxtb	r3, r3
10003004:	e7ea      	b.n	10002fdc <_vsnprintf+0x600>
10003006:	9b09      	ldr	r3, [sp, #36]	; 0x24
10003008:	465f      	mov	r7, fp
1000300a:	1b5b      	subs	r3, r3, r5
1000300c:	4698      	mov	r8, r3
1000300e:	9b0a      	ldr	r3, [sp, #40]	; 0x28
10003010:	46b3      	mov	fp, r6
10003012:	469a      	mov	sl, r3
10003014:	0026      	movs	r6, r4
10003016:	9c08      	ldr	r4, [sp, #32]
10003018:	002a      	movs	r2, r5
1000301a:	003b      	movs	r3, r7
1000301c:	0031      	movs	r1, r6
1000301e:	47a0      	blx	r4
10003020:	4643      	mov	r3, r8
10003022:	3501      	adds	r5, #1
10003024:	5d58      	ldrb	r0, [r3, r5]
10003026:	2800      	cmp	r0, #0
10003028:	d1f6      	bne.n	10003018 <_vsnprintf+0x63c>
1000302a:	4653      	mov	r3, sl
1000302c:	0034      	movs	r4, r6
1000302e:	930a      	str	r3, [sp, #40]	; 0x28
10003030:	465e      	mov	r6, fp
10003032:	46bb      	mov	fp, r7
10003034:	e6df      	b.n	10002df6 <_vsnprintf+0x41a>
10003036:	23c0      	movs	r3, #192	; 0xc0
10003038:	009b      	lsls	r3, r3, #2
1000303a:	78b0      	ldrb	r0, [r6, #2]
1000303c:	4319      	orrs	r1, r3
1000303e:	3602      	adds	r6, #2
10003040:	e53d      	b.n	10002abe <_vsnprintf+0xe2>
10003042:	23c0      	movs	r3, #192	; 0xc0
10003044:	78b0      	ldrb	r0, [r6, #2]
10003046:	4319      	orrs	r1, r3
10003048:	3602      	adds	r6, #2
1000304a:	e538      	b.n	10002abe <_vsnprintf+0xe2>
1000304c:	970a      	str	r7, [sp, #40]	; 0x28
1000304e:	e69b      	b.n	10002d88 <_vsnprintf+0x3ac>
10003050:	230c      	movs	r3, #12
10003052:	000a      	movs	r2, r1
10003054:	439a      	bics	r2, r3
10003056:	3314      	adds	r3, #20
10003058:	431a      	orrs	r2, r3
1000305a:	2310      	movs	r3, #16
1000305c:	920b      	str	r2, [sp, #44]	; 0x2c
1000305e:	930c      	str	r3, [sp, #48]	; 0x30
10003060:	054b      	lsls	r3, r1, #21
10003062:	d400      	bmi.n	10003066 <_vsnprintf+0x68a>
10003064:	e5a8      	b.n	10002bb8 <_vsnprintf+0x1dc>
10003066:	e59d      	b.n	10002ba4 <_vsnprintf+0x1c8>
10003068:	46a3      	mov	fp, r4
1000306a:	0034      	movs	r4, r6
1000306c:	4656      	mov	r6, sl
1000306e:	e6c2      	b.n	10002df6 <_vsnprintf+0x41a>
10003070:	9a0a      	ldr	r2, [sp, #40]	; 0x28
10003072:	2a01      	cmp	r2, #1
10003074:	d800      	bhi.n	10003078 <_vsnprintf+0x69c>
10003076:	e22e      	b.n	100034d6 <_vsnprintf+0xafa>
10003078:	1e6b      	subs	r3, r5, #1
1000307a:	189f      	adds	r7, r3, r2
1000307c:	9b08      	ldr	r3, [sp, #32]
1000307e:	46b0      	mov	r8, r6
10003080:	4699      	mov	r9, r3
10003082:	0026      	movs	r6, r4
10003084:	465c      	mov	r4, fp
10003086:	002a      	movs	r2, r5
10003088:	0023      	movs	r3, r4
1000308a:	3501      	adds	r5, #1
1000308c:	0031      	movs	r1, r6
1000308e:	2020      	movs	r0, #32
10003090:	47c8      	blx	r9
10003092:	42bd      	cmp	r5, r7
10003094:	d1f7      	bne.n	10003086 <_vsnprintf+0x6aa>
10003096:	46a3      	mov	fp, r4
10003098:	0034      	movs	r4, r6
1000309a:	4646      	mov	r6, r8
1000309c:	9b09      	ldr	r3, [sp, #36]	; 0x24
1000309e:	003a      	movs	r2, r7
100030a0:	cb01      	ldmia	r3!, {r0}
100030a2:	0021      	movs	r1, r4
100030a4:	4698      	mov	r8, r3
100030a6:	1c7d      	adds	r5, r7, #1
100030a8:	465b      	mov	r3, fp
100030aa:	9f08      	ldr	r7, [sp, #32]
100030ac:	b2c0      	uxtb	r0, r0
100030ae:	47b8      	blx	r7
100030b0:	4643      	mov	r3, r8
100030b2:	3601      	adds	r6, #1
100030b4:	9309      	str	r3, [sp, #36]	; 0x24
100030b6:	e4b6      	b.n	10002a26 <_vsnprintf+0x4a>
100030b8:	9a0b      	ldr	r2, [sp, #44]	; 0x2c
100030ba:	980a      	ldr	r0, [sp, #40]	; 0x28
100030bc:	1c53      	adds	r3, r2, #1
100030be:	4290      	cmp	r0, r2
100030c0:	d800      	bhi.n	100030c4 <_vsnprintf+0x6e8>
100030c2:	e20a      	b.n	100034da <_vsnprintf+0xafe>
100030c4:	1943      	adds	r3, r0, r5
100030c6:	1a9b      	subs	r3, r3, r2
100030c8:	001f      	movs	r7, r3
100030ca:	9b08      	ldr	r3, [sp, #32]
100030cc:	46b2      	mov	sl, r6
100030ce:	0026      	movs	r6, r4
100030d0:	465c      	mov	r4, fp
100030d2:	469b      	mov	fp, r3
100030d4:	002a      	movs	r2, r5
100030d6:	0023      	movs	r3, r4
100030d8:	3501      	adds	r5, #1
100030da:	0031      	movs	r1, r6
100030dc:	2020      	movs	r0, #32
100030de:	47d8      	blx	fp
100030e0:	42bd      	cmp	r5, r7
100030e2:	d1f7      	bne.n	100030d4 <_vsnprintf+0x6f8>
100030e4:	9b0a      	ldr	r3, [sp, #40]	; 0x28
100030e6:	46a3      	mov	fp, r4
100030e8:	3301      	adds	r3, #1
100030ea:	930b      	str	r3, [sp, #44]	; 0x2c
100030ec:	9b09      	ldr	r3, [sp, #36]	; 0x24
100030ee:	0034      	movs	r4, r6
100030f0:	781b      	ldrb	r3, [r3, #0]
100030f2:	4656      	mov	r6, sl
100030f4:	469c      	mov	ip, r3
100030f6:	4660      	mov	r0, ip
100030f8:	2800      	cmp	r0, #0
100030fa:	d000      	beq.n	100030fe <_vsnprintf+0x722>
100030fc:	e65a      	b.n	10002db4 <_vsnprintf+0x3d8>
100030fe:	e6e7      	b.n	10002ed0 <_vsnprintf+0x4f4>
10003100:	2207      	movs	r2, #7
10003102:	9b09      	ldr	r3, [sp, #36]	; 0x24
10003104:	3307      	adds	r3, #7
10003106:	4393      	bics	r3, r2
10003108:	3201      	adds	r2, #1
1000310a:	4694      	mov	ip, r2
1000310c:	449c      	add	ip, r3
1000310e:	4662      	mov	r2, ip
10003110:	685f      	ldr	r7, [r3, #4]
10003112:	9209      	str	r2, [sp, #36]	; 0x24
10003114:	681a      	ldr	r2, [r3, #0]
10003116:	17fb      	asrs	r3, r7, #31
10003118:	9310      	str	r3, [sp, #64]	; 0x40
1000311a:	9311      	str	r3, [sp, #68]	; 0x44
1000311c:	9810      	ldr	r0, [sp, #64]	; 0x40
1000311e:	9911      	ldr	r1, [sp, #68]	; 0x44
10003120:	0003      	movs	r3, r0
10003122:	4053      	eors	r3, r2
10003124:	930e      	str	r3, [sp, #56]	; 0x38
10003126:	000b      	movs	r3, r1
10003128:	407b      	eors	r3, r7
1000312a:	930f      	str	r3, [sp, #60]	; 0x3c
1000312c:	4694      	mov	ip, r2
1000312e:	9a0e      	ldr	r2, [sp, #56]	; 0x38
10003130:	9b0f      	ldr	r3, [sp, #60]	; 0x3c
10003132:	1a12      	subs	r2, r2, r0
10003134:	418b      	sbcs	r3, r1
10003136:	920e      	str	r2, [sp, #56]	; 0x38
10003138:	930f      	str	r3, [sp, #60]	; 0x3c
1000313a:	0ffb      	lsrs	r3, r7, #31
1000313c:	4662      	mov	r2, ip
1000313e:	9312      	str	r3, [sp, #72]	; 0x48
10003140:	2300      	movs	r3, #0
10003142:	433a      	orrs	r2, r7
10003144:	469a      	mov	sl, r3
10003146:	d03d      	beq.n	100031c4 <_vsnprintf+0x7e8>
10003148:	9a0b      	ldr	r2, [sp, #44]	; 0x2c
1000314a:	2361      	movs	r3, #97	; 0x61
1000314c:	0692      	lsls	r2, r2, #26
1000314e:	d500      	bpl.n	10003152 <_vsnprintf+0x776>
10003150:	2341      	movs	r3, #65	; 0x41
10003152:	2200      	movs	r2, #0
10003154:	b2db      	uxtb	r3, r3
10003156:	a90e      	add	r1, sp, #56	; 0x38
10003158:	3b0a      	subs	r3, #10
1000315a:	468c      	mov	ip, r1
1000315c:	4691      	mov	r9, r2
1000315e:	930d      	str	r3, [sp, #52]	; 0x34
10003160:	4643      	mov	r3, r8
10003162:	321f      	adds	r2, #31
10003164:	4462      	add	r2, ip
10003166:	9513      	str	r5, [sp, #76]	; 0x4c
10003168:	9615      	str	r6, [sp, #84]	; 0x54
1000316a:	464d      	mov	r5, r9
1000316c:	9e0e      	ldr	r6, [sp, #56]	; 0x38
1000316e:	9f0f      	ldr	r7, [sp, #60]	; 0x3c
10003170:	46a1      	mov	r9, r4
10003172:	4690      	mov	r8, r2
10003174:	9c0c      	ldr	r4, [sp, #48]	; 0x30
10003176:	9314      	str	r3, [sp, #80]	; 0x50
10003178:	e00f      	b.n	1000319a <_vsnprintf+0x7be>
1000317a:	46c0      	nop			; (mov r8, r8)
1000317c:	10001eed 	.word	0x10001eed
10003180:	3230      	adds	r2, #48	; 0x30
10003182:	b2d2      	uxtb	r2, r2
10003184:	4643      	mov	r3, r8
10003186:	3501      	adds	r5, #1
10003188:	555a      	strb	r2, [r3, r5]
1000318a:	45ba      	cmp	sl, r7
1000318c:	d100      	bne.n	10003190 <_vsnprintf+0x7b4>
1000318e:	e17c      	b.n	1000348a <_vsnprintf+0xaae>
10003190:	2d20      	cmp	r5, #32
10003192:	d100      	bne.n	10003196 <_vsnprintf+0x7ba>
10003194:	e17c      	b.n	10003490 <_vsnprintf+0xab4>
10003196:	0006      	movs	r6, r0
10003198:	000f      	movs	r7, r1
1000319a:	0022      	movs	r2, r4
1000319c:	2300      	movs	r3, #0
1000319e:	0030      	movs	r0, r6
100031a0:	0039      	movs	r1, r7
100031a2:	f000 fa6f 	bl	10003684 <__wrap___aeabi_uldivmod>
100031a6:	b2d2      	uxtb	r2, r2
100031a8:	2a09      	cmp	r2, #9
100031aa:	d9e9      	bls.n	10003180 <_vsnprintf+0x7a4>
100031ac:	9b0d      	ldr	r3, [sp, #52]	; 0x34
100031ae:	469c      	mov	ip, r3
100031b0:	4462      	add	r2, ip
100031b2:	b2d2      	uxtb	r2, r2
100031b4:	e7e6      	b.n	10003184 <_vsnprintf+0x7a8>
100031b6:	23ff      	movs	r3, #255	; 0xff
100031b8:	9909      	ldr	r1, [sp, #36]	; 0x24
100031ba:	c904      	ldmia	r1!, {r2}
100031bc:	4013      	ands	r3, r2
100031be:	001a      	movs	r2, r3
100031c0:	9109      	str	r1, [sp, #36]	; 0x24
100031c2:	e6e6      	b.n	10002f92 <_vsnprintf+0x5b6>
100031c4:	9a0b      	ldr	r2, [sp, #44]	; 0x2c
100031c6:	3310      	adds	r3, #16
100031c8:	0011      	movs	r1, r2
100031ca:	4399      	bics	r1, r3
100031cc:	910b      	str	r1, [sp, #44]	; 0x2c
100031ce:	0552      	lsls	r2, r2, #21
100031d0:	d5ba      	bpl.n	10003148 <_vsnprintf+0x76c>
100031d2:	2300      	movs	r3, #0
100031d4:	4699      	mov	r9, r3
100031d6:	9b0b      	ldr	r3, [sp, #44]	; 0x2c
100031d8:	9306      	str	r3, [sp, #24]
100031da:	9b0a      	ldr	r3, [sp, #40]	; 0x28
100031dc:	9305      	str	r3, [sp, #20]
100031de:	4643      	mov	r3, r8
100031e0:	9304      	str	r3, [sp, #16]
100031e2:	9b0c      	ldr	r3, [sp, #48]	; 0x30
100031e4:	9303      	str	r3, [sp, #12]
100031e6:	9b12      	ldr	r3, [sp, #72]	; 0x48
100031e8:	9302      	str	r3, [sp, #8]
100031ea:	464b      	mov	r3, r9
100031ec:	9301      	str	r3, [sp, #4]
100031ee:	ab16      	add	r3, sp, #88	; 0x58
100031f0:	002a      	movs	r2, r5
100031f2:	9300      	str	r3, [sp, #0]
100031f4:	0021      	movs	r1, r4
100031f6:	465b      	mov	r3, fp
100031f8:	9808      	ldr	r0, [sp, #32]
100031fa:	f7fe fee1 	bl	10001fc0 <_ntoa_format>
100031fe:	3601      	adds	r6, #1
10003200:	0005      	movs	r5, r0
10003202:	f7ff fc10 	bl	10002a26 <_vsnprintf+0x4a>
10003206:	22ff      	movs	r2, #255	; 0xff
10003208:	9b09      	ldr	r3, [sp, #36]	; 0x24
1000320a:	cb02      	ldmia	r3!, {r1}
1000320c:	4011      	ands	r1, r2
1000320e:	468a      	mov	sl, r1
10003210:	9309      	str	r3, [sp, #36]	; 0x24
10003212:	e4f2      	b.n	10002bfa <_vsnprintf+0x21e>
10003214:	464b      	mov	r3, r9
10003216:	4645      	mov	r5, r8
10003218:	9309      	str	r3, [sp, #36]	; 0x24
1000321a:	3601      	adds	r6, #1
1000321c:	f7ff fc03 	bl	10002a26 <_vsnprintf+0x4a>
10003220:	464e      	mov	r6, r9
10003222:	4654      	mov	r4, sl
10003224:	46a9      	mov	r9, r5
10003226:	9d13      	ldr	r5, [sp, #76]	; 0x4c
10003228:	e7d5      	b.n	100031d6 <_vsnprintf+0x7fa>
1000322a:	2308      	movs	r3, #8
1000322c:	930c      	str	r3, [sp, #48]	; 0x30
1000322e:	e687      	b.n	10002f40 <_vsnprintf+0x564>
10003230:	2207      	movs	r2, #7
10003232:	9b09      	ldr	r3, [sp, #36]	; 0x24
10003234:	3307      	adds	r3, #7
10003236:	4393      	bics	r3, r2
10003238:	3201      	adds	r2, #1
1000323a:	4694      	mov	ip, r2
1000323c:	449c      	add	ip, r3
1000323e:	4662      	mov	r2, ip
10003240:	9209      	str	r2, [sp, #36]	; 0x24
10003242:	681a      	ldr	r2, [r3, #0]
10003244:	685b      	ldr	r3, [r3, #4]
10003246:	0010      	movs	r0, r2
10003248:	469a      	mov	sl, r3
1000324a:	0013      	movs	r3, r2
1000324c:	4652      	mov	r2, sl
1000324e:	4313      	orrs	r3, r2
10003250:	d107      	bne.n	10003262 <_vsnprintf+0x886>
10003252:	9a0b      	ldr	r2, [sp, #44]	; 0x2c
10003254:	3310      	adds	r3, #16
10003256:	0011      	movs	r1, r2
10003258:	4399      	bics	r1, r3
1000325a:	910b      	str	r1, [sp, #44]	; 0x2c
1000325c:	0552      	lsls	r2, r2, #21
1000325e:	d500      	bpl.n	10003262 <_vsnprintf+0x886>
10003260:	e4d7      	b.n	10002c12 <_vsnprintf+0x236>
10003262:	9a0b      	ldr	r2, [sp, #44]	; 0x2c
10003264:	2361      	movs	r3, #97	; 0x61
10003266:	0692      	lsls	r2, r2, #26
10003268:	d500      	bpl.n	1000326c <_vsnprintf+0x890>
1000326a:	2341      	movs	r3, #65	; 0x41
1000326c:	2200      	movs	r2, #0
1000326e:	b2db      	uxtb	r3, r3
10003270:	a90e      	add	r1, sp, #56	; 0x38
10003272:	3b0a      	subs	r3, #10
10003274:	468c      	mov	ip, r1
10003276:	4691      	mov	r9, r2
10003278:	930d      	str	r3, [sp, #52]	; 0x34
1000327a:	4643      	mov	r3, r8
1000327c:	321f      	adds	r2, #31
1000327e:	4462      	add	r2, ip
10003280:	4657      	mov	r7, sl
10003282:	9512      	str	r5, [sp, #72]	; 0x48
10003284:	46a2      	mov	sl, r4
10003286:	464d      	mov	r5, r9
10003288:	0004      	movs	r4, r0
1000328a:	46b1      	mov	r9, r6
1000328c:	4690      	mov	r8, r2
1000328e:	9e0c      	ldr	r6, [sp, #48]	; 0x30
10003290:	9313      	str	r3, [sp, #76]	; 0x4c
10003292:	e00d      	b.n	100032b0 <_vsnprintf+0x8d4>
10003294:	3230      	adds	r2, #48	; 0x30
10003296:	b2d2      	uxtb	r2, r2
10003298:	4643      	mov	r3, r8
1000329a:	3501      	adds	r5, #1
1000329c:	555a      	strb	r2, [r3, r5]
1000329e:	2300      	movs	r3, #0
100032a0:	42bb      	cmp	r3, r7
100032a2:	d100      	bne.n	100032a6 <_vsnprintf+0x8ca>
100032a4:	e0fd      	b.n	100034a2 <_vsnprintf+0xac6>
100032a6:	2d20      	cmp	r5, #32
100032a8:	d100      	bne.n	100032ac <_vsnprintf+0x8d0>
100032aa:	e0fd      	b.n	100034a8 <_vsnprintf+0xacc>
100032ac:	0004      	movs	r4, r0
100032ae:	000f      	movs	r7, r1
100032b0:	0032      	movs	r2, r6
100032b2:	2300      	movs	r3, #0
100032b4:	0020      	movs	r0, r4
100032b6:	0039      	movs	r1, r7
100032b8:	f000 f9e4 	bl	10003684 <__wrap___aeabi_uldivmod>
100032bc:	b2d2      	uxtb	r2, r2
100032be:	2a09      	cmp	r2, #9
100032c0:	d9e8      	bls.n	10003294 <_vsnprintf+0x8b8>
100032c2:	9b0d      	ldr	r3, [sp, #52]	; 0x34
100032c4:	469c      	mov	ip, r3
100032c6:	4462      	add	r2, ip
100032c8:	b2d2      	uxtb	r2, r2
100032ca:	e7e5      	b.n	10003298 <_vsnprintf+0x8bc>
100032cc:	9a0b      	ldr	r2, [sp, #44]	; 0x2c
100032ce:	2361      	movs	r3, #97	; 0x61
100032d0:	0692      	lsls	r2, r2, #26
100032d2:	d500      	bpl.n	100032d6 <_vsnprintf+0x8fa>
100032d4:	2341      	movs	r3, #65	; 0x41
100032d6:	b2db      	uxtb	r3, r3
100032d8:	a90e      	add	r1, sp, #56	; 0x38
100032da:	3b0a      	subs	r3, #10
100032dc:	221f      	movs	r2, #31
100032de:	468c      	mov	ip, r1
100032e0:	930d      	str	r3, [sp, #52]	; 0x34
100032e2:	0023      	movs	r3, r4
100032e4:	4462      	add	r2, ip
100032e6:	4654      	mov	r4, sl
100032e8:	9512      	str	r5, [sp, #72]	; 0x48
100032ea:	0017      	movs	r7, r2
100032ec:	464d      	mov	r5, r9
100032ee:	469a      	mov	sl, r3
100032f0:	46b1      	mov	r9, r6
100032f2:	9e0c      	ldr	r6, [sp, #48]	; 0x30
100032f4:	e008      	b.n	10003308 <_vsnprintf+0x92c>
100032f6:	3330      	adds	r3, #48	; 0x30
100032f8:	b2db      	uxtb	r3, r3
100032fa:	3501      	adds	r5, #1
100032fc:	557b      	strb	r3, [r7, r5]
100032fe:	42b4      	cmp	r4, r6
10003300:	d30e      	bcc.n	10003320 <_vsnprintf+0x944>
10003302:	2d20      	cmp	r5, #32
10003304:	d00c      	beq.n	10003320 <_vsnprintf+0x944>
10003306:	0004      	movs	r4, r0
10003308:	0031      	movs	r1, r6
1000330a:	0020      	movs	r0, r4
1000330c:	f000 f974 	bl	100035f8 <__wrap___aeabi_uidiv>
10003310:	b2cb      	uxtb	r3, r1
10003312:	2909      	cmp	r1, #9
10003314:	d9ef      	bls.n	100032f6 <_vsnprintf+0x91a>
10003316:	9a0d      	ldr	r2, [sp, #52]	; 0x34
10003318:	4694      	mov	ip, r2
1000331a:	4463      	add	r3, ip
1000331c:	b2db      	uxtb	r3, r3
1000331e:	e7ec      	b.n	100032fa <_vsnprintf+0x91e>
10003320:	464e      	mov	r6, r9
10003322:	4654      	mov	r4, sl
10003324:	46a9      	mov	r9, r5
10003326:	9d12      	ldr	r5, [sp, #72]	; 0x48
10003328:	e475      	b.n	10002c16 <_vsnprintf+0x23a>
1000332a:	9b09      	ldr	r3, [sp, #36]	; 0x24
1000332c:	001a      	movs	r2, r3
1000332e:	ca08      	ldmia	r2!, {r3}
10003330:	17d9      	asrs	r1, r3, #31
10003332:	9213      	str	r2, [sp, #76]	; 0x4c
10003334:	185a      	adds	r2, r3, r1
10003336:	404a      	eors	r2, r1
10003338:	4691      	mov	r9, r2
1000333a:	0fda      	lsrs	r2, r3, #31
1000333c:	9212      	str	r2, [sp, #72]	; 0x48
1000333e:	2b00      	cmp	r3, #0
10003340:	d108      	bne.n	10003354 <_vsnprintf+0x978>
10003342:	2380      	movs	r3, #128	; 0x80
10003344:	2210      	movs	r2, #16
10003346:	990b      	ldr	r1, [sp, #44]	; 0x2c
10003348:	00db      	lsls	r3, r3, #3
1000334a:	400b      	ands	r3, r1
1000334c:	4391      	bics	r1, r2
1000334e:	910b      	str	r1, [sp, #44]	; 0x2c
10003350:	2b00      	cmp	r3, #0
10003352:	d12b      	bne.n	100033ac <_vsnprintf+0x9d0>
10003354:	9a0b      	ldr	r2, [sp, #44]	; 0x2c
10003356:	2361      	movs	r3, #97	; 0x61
10003358:	0692      	lsls	r2, r2, #26
1000335a:	d500      	bpl.n	1000335e <_vsnprintf+0x982>
1000335c:	2341      	movs	r3, #65	; 0x41
1000335e:	aa0e      	add	r2, sp, #56	; 0x38
10003360:	271f      	movs	r7, #31
10003362:	4694      	mov	ip, r2
10003364:	b2db      	uxtb	r3, r3
10003366:	3b0a      	subs	r3, #10
10003368:	950d      	str	r5, [sp, #52]	; 0x34
1000336a:	4467      	add	r7, ip
1000336c:	4655      	mov	r5, sl
1000336e:	9309      	str	r3, [sp, #36]	; 0x24
10003370:	46a2      	mov	sl, r4
10003372:	464c      	mov	r4, r9
10003374:	46b1      	mov	r9, r6
10003376:	9e0c      	ldr	r6, [sp, #48]	; 0x30
10003378:	e008      	b.n	1000338c <_vsnprintf+0x9b0>
1000337a:	3330      	adds	r3, #48	; 0x30
1000337c:	b2db      	uxtb	r3, r3
1000337e:	3501      	adds	r5, #1
10003380:	557b      	strb	r3, [r7, r5]
10003382:	42b4      	cmp	r4, r6
10003384:	d30e      	bcc.n	100033a4 <_vsnprintf+0x9c8>
10003386:	2d20      	cmp	r5, #32
10003388:	d00c      	beq.n	100033a4 <_vsnprintf+0x9c8>
1000338a:	0004      	movs	r4, r0
1000338c:	0031      	movs	r1, r6
1000338e:	0020      	movs	r0, r4
10003390:	f000 f932 	bl	100035f8 <__wrap___aeabi_uidiv>
10003394:	b2cb      	uxtb	r3, r1
10003396:	2909      	cmp	r1, #9
10003398:	d9ef      	bls.n	1000337a <_vsnprintf+0x99e>
1000339a:	9a09      	ldr	r2, [sp, #36]	; 0x24
1000339c:	4694      	mov	ip, r2
1000339e:	4463      	add	r3, ip
100033a0:	b2db      	uxtb	r3, r3
100033a2:	e7ec      	b.n	1000337e <_vsnprintf+0x9a2>
100033a4:	464e      	mov	r6, r9
100033a6:	4654      	mov	r4, sl
100033a8:	46aa      	mov	sl, r5
100033aa:	9d0d      	ldr	r5, [sp, #52]	; 0x34
100033ac:	9b0b      	ldr	r3, [sp, #44]	; 0x2c
100033ae:	002a      	movs	r2, r5
100033b0:	9306      	str	r3, [sp, #24]
100033b2:	9b0a      	ldr	r3, [sp, #40]	; 0x28
100033b4:	0021      	movs	r1, r4
100033b6:	9305      	str	r3, [sp, #20]
100033b8:	4643      	mov	r3, r8
100033ba:	9304      	str	r3, [sp, #16]
100033bc:	9b0c      	ldr	r3, [sp, #48]	; 0x30
100033be:	9808      	ldr	r0, [sp, #32]
100033c0:	9303      	str	r3, [sp, #12]
100033c2:	9b12      	ldr	r3, [sp, #72]	; 0x48
100033c4:	3601      	adds	r6, #1
100033c6:	9302      	str	r3, [sp, #8]
100033c8:	4653      	mov	r3, sl
100033ca:	9301      	str	r3, [sp, #4]
100033cc:	ab16      	add	r3, sp, #88	; 0x58
100033ce:	9300      	str	r3, [sp, #0]
100033d0:	465b      	mov	r3, fp
100033d2:	f7fe fdf5 	bl	10001fc0 <_ntoa_format>
100033d6:	9b13      	ldr	r3, [sp, #76]	; 0x4c
100033d8:	0005      	movs	r5, r0
100033da:	9309      	str	r3, [sp, #36]	; 0x24
100033dc:	f7ff fb23 	bl	10002a26 <_vsnprintf+0x4a>
100033e0:	9b09      	ldr	r3, [sp, #36]	; 0x24
100033e2:	cb04      	ldmia	r3!, {r2}
100033e4:	4691      	mov	r9, r2
100033e6:	9312      	str	r3, [sp, #72]	; 0x48
100033e8:	2a00      	cmp	r2, #0
100033ea:	d108      	bne.n	100033fe <_vsnprintf+0xa22>
100033ec:	2380      	movs	r3, #128	; 0x80
100033ee:	2210      	movs	r2, #16
100033f0:	990b      	ldr	r1, [sp, #44]	; 0x2c
100033f2:	00db      	lsls	r3, r3, #3
100033f4:	400b      	ands	r3, r1
100033f6:	4391      	bics	r1, r2
100033f8:	910b      	str	r1, [sp, #44]	; 0x2c
100033fa:	2b00      	cmp	r3, #0
100033fc:	d12b      	bne.n	10003456 <_vsnprintf+0xa7a>
100033fe:	9a0b      	ldr	r2, [sp, #44]	; 0x2c
10003400:	2361      	movs	r3, #97	; 0x61
10003402:	0692      	lsls	r2, r2, #26
10003404:	d500      	bpl.n	10003408 <_vsnprintf+0xa2c>
10003406:	2341      	movs	r3, #65	; 0x41
10003408:	aa0e      	add	r2, sp, #56	; 0x38
1000340a:	271f      	movs	r7, #31
1000340c:	4694      	mov	ip, r2
1000340e:	b2db      	uxtb	r3, r3
10003410:	3b0a      	subs	r3, #10
10003412:	950d      	str	r5, [sp, #52]	; 0x34
10003414:	4467      	add	r7, ip
10003416:	4655      	mov	r5, sl
10003418:	9309      	str	r3, [sp, #36]	; 0x24
1000341a:	46a2      	mov	sl, r4
1000341c:	464c      	mov	r4, r9
1000341e:	46b1      	mov	r9, r6
10003420:	9e0c      	ldr	r6, [sp, #48]	; 0x30
10003422:	e008      	b.n	10003436 <_vsnprintf+0xa5a>
10003424:	3330      	adds	r3, #48	; 0x30
10003426:	b2db      	uxtb	r3, r3
10003428:	3501      	adds	r5, #1
1000342a:	557b      	strb	r3, [r7, r5]
1000342c:	42b4      	cmp	r4, r6
1000342e:	d30e      	bcc.n	1000344e <_vsnprintf+0xa72>
10003430:	2d20      	cmp	r5, #32
10003432:	d00c      	beq.n	1000344e <_vsnprintf+0xa72>
10003434:	0004      	movs	r4, r0
10003436:	0031      	movs	r1, r6
10003438:	0020      	movs	r0, r4
1000343a:	f000 f8dd 	bl	100035f8 <__wrap___aeabi_uidiv>
1000343e:	b2cb      	uxtb	r3, r1
10003440:	2909      	cmp	r1, #9
10003442:	d9ef      	bls.n	10003424 <_vsnprintf+0xa48>
10003444:	9a09      	ldr	r2, [sp, #36]	; 0x24
10003446:	4694      	mov	ip, r2
10003448:	4463      	add	r3, ip
1000344a:	b2db      	uxtb	r3, r3
1000344c:	e7ec      	b.n	10003428 <_vsnprintf+0xa4c>
1000344e:	464e      	mov	r6, r9
10003450:	4654      	mov	r4, sl
10003452:	46aa      	mov	sl, r5
10003454:	9d0d      	ldr	r5, [sp, #52]	; 0x34
10003456:	9b0b      	ldr	r3, [sp, #44]	; 0x2c
10003458:	002a      	movs	r2, r5
1000345a:	9306      	str	r3, [sp, #24]
1000345c:	9b0a      	ldr	r3, [sp, #40]	; 0x28
1000345e:	0021      	movs	r1, r4
10003460:	9305      	str	r3, [sp, #20]
10003462:	4643      	mov	r3, r8
10003464:	9304      	str	r3, [sp, #16]
10003466:	9b0c      	ldr	r3, [sp, #48]	; 0x30
10003468:	9808      	ldr	r0, [sp, #32]
1000346a:	9303      	str	r3, [sp, #12]
1000346c:	2300      	movs	r3, #0
1000346e:	9302      	str	r3, [sp, #8]
10003470:	4653      	mov	r3, sl
10003472:	9301      	str	r3, [sp, #4]
10003474:	ab16      	add	r3, sp, #88	; 0x58
10003476:	9300      	str	r3, [sp, #0]
10003478:	465b      	mov	r3, fp
1000347a:	f7fe fda1 	bl	10001fc0 <_ntoa_format>
1000347e:	9b12      	ldr	r3, [sp, #72]	; 0x48
10003480:	0005      	movs	r5, r0
10003482:	9309      	str	r3, [sp, #36]	; 0x24
10003484:	3601      	adds	r6, #1
10003486:	f7ff face 	bl	10002a26 <_vsnprintf+0x4a>
1000348a:	42b4      	cmp	r4, r6
1000348c:	d800      	bhi.n	10003490 <_vsnprintf+0xab4>
1000348e:	e67f      	b.n	10003190 <_vsnprintf+0x7b4>
10003490:	9b14      	ldr	r3, [sp, #80]	; 0x50
10003492:	464c      	mov	r4, r9
10003494:	960e      	str	r6, [sp, #56]	; 0x38
10003496:	970f      	str	r7, [sp, #60]	; 0x3c
10003498:	46a9      	mov	r9, r5
1000349a:	4698      	mov	r8, r3
1000349c:	9e15      	ldr	r6, [sp, #84]	; 0x54
1000349e:	9d13      	ldr	r5, [sp, #76]	; 0x4c
100034a0:	e699      	b.n	100031d6 <_vsnprintf+0x7fa>
100034a2:	42a6      	cmp	r6, r4
100034a4:	d800      	bhi.n	100034a8 <_vsnprintf+0xacc>
100034a6:	e6fe      	b.n	100032a6 <_vsnprintf+0x8ca>
100034a8:	9b13      	ldr	r3, [sp, #76]	; 0x4c
100034aa:	464e      	mov	r6, r9
100034ac:	4698      	mov	r8, r3
100034ae:	46a9      	mov	r9, r5
100034b0:	4654      	mov	r4, sl
100034b2:	9d12      	ldr	r5, [sp, #72]	; 0x48
100034b4:	f7ff fbaf 	bl	10002c16 <_vsnprintf+0x23a>
100034b8:	c908      	ldmia	r1!, {r3}
100034ba:	17d8      	asrs	r0, r3, #31
100034bc:	181a      	adds	r2, r3, r0
100034be:	4042      	eors	r2, r0
100034c0:	9109      	str	r1, [sp, #36]	; 0x24
100034c2:	e566      	b.n	10002f92 <_vsnprintf+0x5b6>
100034c4:	2300      	movs	r3, #0
100034c6:	930b      	str	r3, [sp, #44]	; 0x2c
100034c8:	e45e      	b.n	10002d88 <_vsnprintf+0x3ac>
100034ca:	9b09      	ldr	r3, [sp, #36]	; 0x24
100034cc:	cb04      	ldmia	r3!, {r2}
100034ce:	4692      	mov	sl, r2
100034d0:	9309      	str	r3, [sp, #36]	; 0x24
100034d2:	f7ff fb92 	bl	10002bfa <_vsnprintf+0x21e>
100034d6:	002f      	movs	r7, r5
100034d8:	e5e0      	b.n	1000309c <_vsnprintf+0x6c0>
100034da:	930b      	str	r3, [sp, #44]	; 0x2c
100034dc:	e60b      	b.n	100030f6 <_vsnprintf+0x71a>
100034de:	3b06      	subs	r3, #6
100034e0:	930c      	str	r3, [sp, #48]	; 0x30
100034e2:	e52e      	b.n	10002f42 <_vsnprintf+0x566>

100034e4 <vfctprintf>:
100034e4:	b500      	push	{lr}
100034e6:	b085      	sub	sp, #20
100034e8:	9103      	str	r1, [sp, #12]
100034ea:	2101      	movs	r1, #1
100034ec:	9002      	str	r0, [sp, #8]
100034ee:	9300      	str	r3, [sp, #0]
100034f0:	4803      	ldr	r0, [pc, #12]	; (10003500 <vfctprintf+0x1c>)
100034f2:	0013      	movs	r3, r2
100034f4:	424a      	negs	r2, r1
100034f6:	a902      	add	r1, sp, #8
100034f8:	f7ff fa70 	bl	100029dc <_vsnprintf>
100034fc:	b005      	add	sp, #20
100034fe:	bd00      	pop	{pc}
10003500:	100021a1 	.word	0x100021a1

10003504 <weak_raw_vprintf>:
10003504:	b510      	push	{r4, lr}
10003506:	4a09      	ldr	r2, [pc, #36]	; (1000352c <weak_raw_vprintf+0x28>)
10003508:	0003      	movs	r3, r0
1000350a:	6814      	ldr	r4, [r2, #0]
1000350c:	b084      	sub	sp, #16
1000350e:	2c00      	cmp	r4, #0
10003510:	d008      	beq.n	10003524 <weak_raw_vprintf+0x20>
10003512:	2201      	movs	r2, #1
10003514:	9100      	str	r1, [sp, #0]
10003516:	4806      	ldr	r0, [pc, #24]	; (10003530 <weak_raw_vprintf+0x2c>)
10003518:	4252      	negs	r2, r2
1000351a:	a903      	add	r1, sp, #12
1000351c:	47a0      	blx	r4
1000351e:	2001      	movs	r0, #1
10003520:	b004      	add	sp, #16
10003522:	bd10      	pop	{r4, pc}
10003524:	f001 f84c 	bl	100045c0 <__wrap_puts>
10003528:	2000      	movs	r0, #0
1000352a:	e7f9      	b.n	10003520 <weak_raw_vprintf+0x1c>
1000352c:	20000b04 	.word	0x20000b04
10003530:	10002191 	.word	0x10002191

10003534 <__aeabi_bits_init>:
10003534:	4801      	ldr	r0, [pc, #4]	; (1000353c <__aeabi_bits_init+0x8>)
10003536:	2104      	movs	r1, #4
10003538:	4b01      	ldr	r3, [pc, #4]	; (10003540 <__aeabi_bits_init+0xc>)
1000353a:	4718      	bx	r3
1000353c:	200001e0 	.word	0x200001e0
10003540:	10003565 	.word	0x10003565

10003544 <rom_func_lookup>:
10003544:	2314      	movs	r3, #20
10003546:	b510      	push	{r4, lr}
10003548:	0001      	movs	r1, r0
1000354a:	8818      	ldrh	r0, [r3, #0]
1000354c:	3304      	adds	r3, #4
1000354e:	881b      	ldrh	r3, [r3, #0]
10003550:	4798      	blx	r3
10003552:	bd10      	pop	{r4, pc}

10003554 <rom_data_lookup>:
10003554:	2316      	movs	r3, #22
10003556:	b510      	push	{r4, lr}
10003558:	0001      	movs	r1, r0
1000355a:	8818      	ldrh	r0, [r3, #0]
1000355c:	3302      	adds	r3, #2
1000355e:	881b      	ldrh	r3, [r3, #0]
10003560:	4798      	blx	r3
10003562:	bd10      	pop	{r4, pc}

10003564 <rom_funcs_lookup>:
10003564:	b5f0      	push	{r4, r5, r6, r7, lr}
10003566:	46c6      	mov	lr, r8
10003568:	b500      	push	{lr}
1000356a:	2900      	cmp	r1, #0
1000356c:	d016      	beq.n	1000359c <rom_funcs_lookup+0x38>
1000356e:	2314      	movs	r3, #20
10003570:	0004      	movs	r4, r0
10003572:	2501      	movs	r5, #1
10003574:	4698      	mov	r8, r3
10003576:	2718      	movs	r7, #24
10003578:	0089      	lsls	r1, r1, #2
1000357a:	1846      	adds	r6, r0, r1
1000357c:	4643      	mov	r3, r8
1000357e:	6821      	ldr	r1, [r4, #0]
10003580:	8818      	ldrh	r0, [r3, #0]
10003582:	883b      	ldrh	r3, [r7, #0]
10003584:	4798      	blx	r3
10003586:	c401      	stmia	r4!, {r0}
10003588:	1e43      	subs	r3, r0, #1
1000358a:	4198      	sbcs	r0, r3
1000358c:	4240      	negs	r0, r0
1000358e:	4005      	ands	r5, r0
10003590:	42a6      	cmp	r6, r4
10003592:	d1f3      	bne.n	1000357c <rom_funcs_lookup+0x18>
10003594:	0028      	movs	r0, r5
10003596:	bc04      	pop	{r2}
10003598:	4690      	mov	r8, r2
1000359a:	bdf0      	pop	{r4, r5, r6, r7, pc}
1000359c:	2501      	movs	r5, #1
1000359e:	e7f9      	b.n	10003594 <rom_funcs_lookup+0x30>

100035a0 <__wrap___aeabi_idiv>:
100035a0:	4a14      	ldr	r2, [pc, #80]	; (100035f4 <divmod_s32s32_savestate+0x20>)
100035a2:	6f93      	ldr	r3, [r2, #120]	; 0x78
100035a4:	089b      	lsrs	r3, r3, #2
100035a6:	d215      	bcs.n	100035d4 <divmod_s32s32_savestate>

100035a8 <divmod_s32s32_unsafe>:
100035a8:	6690      	str	r0, [r2, #104]	; 0x68
100035aa:	66d1      	str	r1, [r2, #108]	; 0x6c
100035ac:	2900      	cmp	r1, #0
100035ae:	d005      	beq.n	100035bc <divmod_s32s32_unsafe+0x14>
100035b0:	e7ff      	b.n	100035b2 <divmod_s32s32_unsafe+0xa>
100035b2:	e7ff      	b.n	100035b4 <divmod_s32s32_unsafe+0xc>
100035b4:	e7ff      	b.n	100035b6 <divmod_s32s32_unsafe+0xe>
100035b6:	6f51      	ldr	r1, [r2, #116]	; 0x74
100035b8:	6f10      	ldr	r0, [r2, #112]	; 0x70
100035ba:	4770      	bx	lr
100035bc:	b504      	push	{r2, lr}
100035be:	2180      	movs	r1, #128	; 0x80
100035c0:	0609      	lsls	r1, r1, #24
100035c2:	17c2      	asrs	r2, r0, #31
100035c4:	4051      	eors	r1, r2
100035c6:	2800      	cmp	r0, #0
100035c8:	d000      	beq.n	100035cc <divmod_s32s32_unsafe+0x24>
100035ca:	43c8      	mvns	r0, r1
100035cc:	f001 fdac 	bl	10005128 <____aeabi_idiv0_veneer>
100035d0:	2100      	movs	r1, #0
100035d2:	bd04      	pop	{r2, pc}

100035d4 <divmod_s32s32_savestate>:
100035d4:	6f93      	ldr	r3, [r2, #120]	; 0x78
100035d6:	085b      	lsrs	r3, r3, #1
100035d8:	d3fd      	bcc.n	100035d6 <divmod_s32s32_savestate+0x2>
100035da:	b5f0      	push	{r4, r5, r6, r7, lr}
100035dc:	6e94      	ldr	r4, [r2, #104]	; 0x68
100035de:	6ed5      	ldr	r5, [r2, #108]	; 0x6c
100035e0:	6f57      	ldr	r7, [r2, #116]	; 0x74
100035e2:	6f16      	ldr	r6, [r2, #112]	; 0x70
100035e4:	f7ff ffe0 	bl	100035a8 <divmod_s32s32_unsafe>
100035e8:	6694      	str	r4, [r2, #104]	; 0x68
100035ea:	66d5      	str	r5, [r2, #108]	; 0x6c
100035ec:	6757      	str	r7, [r2, #116]	; 0x74
100035ee:	6716      	str	r6, [r2, #112]	; 0x70
100035f0:	bdf0      	pop	{r4, r5, r6, r7, pc}
100035f2:	0000      	.short	0x0000
100035f4:	d0000000 	.word	0xd0000000

100035f8 <__wrap___aeabi_uidiv>:
100035f8:	4a13      	ldr	r2, [pc, #76]	; (10003648 <divmod_u32u32_savestate+0x20>)
100035fa:	6f93      	ldr	r3, [r2, #120]	; 0x78
100035fc:	089b      	lsrs	r3, r3, #2
100035fe:	d213      	bcs.n	10003628 <divmod_u32u32_savestate>

10003600 <divmod_u32u32_unsafe>:
10003600:	6610      	str	r0, [r2, #96]	; 0x60
10003602:	6651      	str	r1, [r2, #100]	; 0x64
10003604:	2900      	cmp	r1, #0
10003606:	d005      	beq.n	10003614 <divmod_u32u32_unsafe+0x14>
10003608:	e7ff      	b.n	1000360a <divmod_u32u32_unsafe+0xa>
1000360a:	e7ff      	b.n	1000360c <divmod_u32u32_unsafe+0xc>
1000360c:	e7ff      	b.n	1000360e <divmod_u32u32_unsafe+0xe>
1000360e:	6f51      	ldr	r1, [r2, #116]	; 0x74
10003610:	6f10      	ldr	r0, [r2, #112]	; 0x70
10003612:	4770      	bx	lr
10003614:	b504      	push	{r2, lr}
10003616:	2800      	cmp	r0, #0
10003618:	d001      	beq.n	1000361e <divmod_u32u32_unsafe+0x1e>
1000361a:	2000      	movs	r0, #0
1000361c:	43c0      	mvns	r0, r0
1000361e:	f001 fd83 	bl	10005128 <____aeabi_idiv0_veneer>
10003622:	2100      	movs	r1, #0
10003624:	bd04      	pop	{r2, pc}
10003626:	46c0      	nop			; (mov r8, r8)

10003628 <divmod_u32u32_savestate>:
10003628:	6f93      	ldr	r3, [r2, #120]	; 0x78
1000362a:	085b      	lsrs	r3, r3, #1
1000362c:	d3fd      	bcc.n	1000362a <divmod_u32u32_savestate+0x2>
1000362e:	b5f0      	push	{r4, r5, r6, r7, lr}
10003630:	6e94      	ldr	r4, [r2, #104]	; 0x68
10003632:	6ed5      	ldr	r5, [r2, #108]	; 0x6c
10003634:	6f57      	ldr	r7, [r2, #116]	; 0x74
10003636:	6f16      	ldr	r6, [r2, #112]	; 0x70
10003638:	f7ff ffe2 	bl	10003600 <divmod_u32u32_unsafe>
1000363c:	6694      	str	r4, [r2, #104]	; 0x68
1000363e:	66d5      	str	r5, [r2, #108]	; 0x6c
10003640:	6757      	str	r7, [r2, #116]	; 0x74
10003642:	6716      	str	r6, [r2, #112]	; 0x70
10003644:	bdf0      	pop	{r4, r5, r6, r7, pc}
10003646:	0000      	.short	0x0000
10003648:	d0000000 	.word	0xd0000000

1000364c <__wrap___aeabi_ldivmod>:
1000364c:	4694      	mov	ip, r2
1000364e:	4a4e      	ldr	r2, [pc, #312]	; (10003788 <udiv0+0x1a>)
10003650:	6f92      	ldr	r2, [r2, #120]	; 0x78
10003652:	0892      	lsrs	r2, r2, #2
10003654:	4662      	mov	r2, ip
10003656:	d201      	bcs.n	1000365c <divmod_s64s64_savestate>
10003658:	e030      	b.n	100036bc <divmod_s64s64_unsafe>
1000365a:	46c0      	nop			; (mov r8, r8)

1000365c <divmod_s64s64_savestate>:
1000365c:	b5f0      	push	{r4, r5, r6, r7, lr}
1000365e:	4e4a      	ldr	r6, [pc, #296]	; (10003788 <udiv0+0x1a>)
10003660:	6fb5      	ldr	r5, [r6, #120]	; 0x78
10003662:	086d      	lsrs	r5, r5, #1
10003664:	d3fc      	bcc.n	10003660 <divmod_s64s64_savestate+0x4>
10003666:	6e34      	ldr	r4, [r6, #96]	; 0x60
10003668:	6e75      	ldr	r5, [r6, #100]	; 0x64
1000366a:	6f77      	ldr	r7, [r6, #116]	; 0x74
1000366c:	6f36      	ldr	r6, [r6, #112]	; 0x70
1000366e:	f000 f825 	bl	100036bc <divmod_s64s64_unsafe>
10003672:	4694      	mov	ip, r2
10003674:	4a44      	ldr	r2, [pc, #272]	; (10003788 <udiv0+0x1a>)
10003676:	6614      	str	r4, [r2, #96]	; 0x60
10003678:	6655      	str	r5, [r2, #100]	; 0x64
1000367a:	6757      	str	r7, [r2, #116]	; 0x74
1000367c:	6716      	str	r6, [r2, #112]	; 0x70
1000367e:	4662      	mov	r2, ip
10003680:	bdf0      	pop	{r4, r5, r6, r7, pc}
10003682:	46c0      	nop			; (mov r8, r8)

10003684 <__wrap___aeabi_uldivmod>:
10003684:	4694      	mov	ip, r2
10003686:	4a40      	ldr	r2, [pc, #256]	; (10003788 <udiv0+0x1a>)
10003688:	6f92      	ldr	r2, [r2, #120]	; 0x78
1000368a:	0892      	lsrs	r2, r2, #2
1000368c:	4662      	mov	r2, ip
1000368e:	d201      	bcs.n	10003694 <divmod_u64u64_savestate>
10003690:	e058      	b.n	10003744 <divmod_u64u64_unsafe>
10003692:	46c0      	nop			; (mov r8, r8)

10003694 <divmod_u64u64_savestate>:
10003694:	b5f0      	push	{r4, r5, r6, r7, lr}
10003696:	4e3c      	ldr	r6, [pc, #240]	; (10003788 <udiv0+0x1a>)
10003698:	6fb5      	ldr	r5, [r6, #120]	; 0x78
1000369a:	086d      	lsrs	r5, r5, #1
1000369c:	d3fc      	bcc.n	10003698 <divmod_u64u64_savestate+0x4>
1000369e:	6e34      	ldr	r4, [r6, #96]	; 0x60
100036a0:	6e75      	ldr	r5, [r6, #100]	; 0x64
100036a2:	6f77      	ldr	r7, [r6, #116]	; 0x74
100036a4:	6f36      	ldr	r6, [r6, #112]	; 0x70
100036a6:	f000 f84d 	bl	10003744 <divmod_u64u64_unsafe>
100036aa:	4694      	mov	ip, r2
100036ac:	4a36      	ldr	r2, [pc, #216]	; (10003788 <udiv0+0x1a>)
100036ae:	6614      	str	r4, [r2, #96]	; 0x60
100036b0:	6655      	str	r5, [r2, #100]	; 0x64
100036b2:	6757      	str	r7, [r2, #116]	; 0x74
100036b4:	6716      	str	r6, [r2, #112]	; 0x70
100036b6:	4662      	mov	r2, ip
100036b8:	bdf0      	pop	{r4, r5, r6, r7, pc}
100036ba:	46c0      	nop			; (mov r8, r8)

100036bc <divmod_s64s64_unsafe>:
100036bc:	2b00      	cmp	r3, #0
100036be:	db24      	blt.n	1000370a <l41_1+0x26>
100036c0:	d011      	beq.n	100036e6 <l41_1+0x2>
100036c2:	2900      	cmp	r1, #0
100036c4:	da3e      	bge.n	10003744 <divmod_u64u64_unsafe>
100036c6:	b500      	push	{lr}
100036c8:	43c9      	mvns	r1, r1
100036ca:	4240      	negs	r0, r0
100036cc:	d100      	bne.n	100036d0 <l39_1>
100036ce:	3101      	adds	r1, #1

100036d0 <l39_1>:
100036d0:	f000 f838 	bl	10003744 <divmod_u64u64_unsafe>
100036d4:	43c9      	mvns	r1, r1
100036d6:	4240      	negs	r0, r0
100036d8:	d100      	bne.n	100036dc <l40_1>
100036da:	3101      	adds	r1, #1

100036dc <l40_1>:
100036dc:	43db      	mvns	r3, r3
100036de:	4252      	negs	r2, r2
100036e0:	d100      	bne.n	100036e4 <l41_1>
100036e2:	3301      	adds	r3, #1

100036e4 <l41_1>:
100036e4:	bd00      	pop	{pc}
100036e6:	2a00      	cmp	r2, #0
100036e8:	d1eb      	bne.n	100036c2 <divmod_s64s64_unsafe+0x6>
100036ea:	2800      	cmp	r0, #0
100036ec:	d101      	bne.n	100036f2 <l41_1+0xe>
100036ee:	2900      	cmp	r1, #0
100036f0:	d005      	beq.n	100036fe <l41_1+0x1a>
100036f2:	2000      	movs	r0, #0
100036f4:	0fc9      	lsrs	r1, r1, #31
100036f6:	07c9      	lsls	r1, r1, #31
100036f8:	d101      	bne.n	100036fe <l41_1+0x1a>
100036fa:	43c0      	mvns	r0, r0
100036fc:	0841      	lsrs	r1, r0, #1
100036fe:	b500      	push	{lr}
10003700:	f001 fd0a 	bl	10005118 <____aeabi_ldiv0_veneer>
10003704:	2200      	movs	r2, #0
10003706:	2300      	movs	r3, #0
10003708:	bd00      	pop	{pc}
1000370a:	b500      	push	{lr}
1000370c:	2900      	cmp	r1, #0
1000370e:	db0a      	blt.n	10003726 <l43_1+0x2>
10003710:	43db      	mvns	r3, r3
10003712:	4252      	negs	r2, r2
10003714:	d100      	bne.n	10003718 <l42_1>
10003716:	3301      	adds	r3, #1

10003718 <l42_1>:
10003718:	f000 f814 	bl	10003744 <divmod_u64u64_unsafe>
1000371c:	43c9      	mvns	r1, r1
1000371e:	4240      	negs	r0, r0
10003720:	d100      	bne.n	10003724 <l43_1>
10003722:	3101      	adds	r1, #1

10003724 <l43_1>:
10003724:	bd00      	pop	{pc}
10003726:	43c9      	mvns	r1, r1
10003728:	4240      	negs	r0, r0
1000372a:	d100      	bne.n	1000372e <l44_1>
1000372c:	3101      	adds	r1, #1

1000372e <l44_1>:
1000372e:	43db      	mvns	r3, r3
10003730:	4252      	negs	r2, r2
10003732:	d100      	bne.n	10003736 <l45_1>
10003734:	3301      	adds	r3, #1

10003736 <l45_1>:
10003736:	f000 f805 	bl	10003744 <divmod_u64u64_unsafe>
1000373a:	43db      	mvns	r3, r3
1000373c:	4252      	negs	r2, r2
1000373e:	d100      	bne.n	10003742 <l46_1>
10003740:	3301      	adds	r3, #1

10003742 <l46_1>:
10003742:	bd00      	pop	{pc}

10003744 <divmod_u64u64_unsafe>:
10003744:	2900      	cmp	r1, #0
10003746:	d123      	bne.n	10003790 <y64>
10003748:	2b00      	cmp	r3, #0
1000374a:	d118      	bne.n	1000377e <udiv0+0x10>
1000374c:	2a00      	cmp	r2, #0
1000374e:	d00c      	beq.n	1000376a <divmod_u64u64_unsafe+0x26>
10003750:	46bc      	mov	ip, r7
10003752:	4f0d      	ldr	r7, [pc, #52]	; (10003788 <udiv0+0x1a>)
10003754:	6638      	str	r0, [r7, #96]	; 0x60
10003756:	667a      	str	r2, [r7, #100]	; 0x64
10003758:	2100      	movs	r1, #0
1000375a:	2300      	movs	r3, #0
1000375c:	e7ff      	b.n	1000375e <divmod_u64u64_unsafe+0x1a>
1000375e:	e7ff      	b.n	10003760 <divmod_u64u64_unsafe+0x1c>
10003760:	e7ff      	b.n	10003762 <divmod_u64u64_unsafe+0x1e>
10003762:	6f7a      	ldr	r2, [r7, #116]	; 0x74
10003764:	6f38      	ldr	r0, [r7, #112]	; 0x70
10003766:	4667      	mov	r7, ip
10003768:	4770      	bx	lr
1000376a:	2800      	cmp	r0, #0
1000376c:	d001      	beq.n	10003772 <udiv0+0x4>

1000376e <udiv0>:
1000376e:	4807      	ldr	r0, [pc, #28]	; (1000378c <udiv0+0x1e>)
10003770:	0001      	movs	r1, r0
10003772:	b500      	push	{lr}
10003774:	f001 fcd0 	bl	10005118 <____aeabi_ldiv0_veneer>
10003778:	2200      	movs	r2, #0
1000377a:	2300      	movs	r3, #0
1000377c:	bd00      	pop	{pc}
1000377e:	0002      	movs	r2, r0
10003780:	000b      	movs	r3, r1
10003782:	2000      	movs	r0, #0
10003784:	2100      	movs	r1, #0
10003786:	4770      	bx	lr
10003788:	d0000000 	.word	0xd0000000
1000378c:	ffffffff 	.word	0xffffffff

10003790 <y64>:
10003790:	2b00      	cmp	r3, #0
10003792:	d000      	beq.n	10003796 <y64+0x6>
10003794:	e0bd      	b.n	10003912 <y64_x48>
10003796:	0c13      	lsrs	r3, r2, #16
10003798:	d126      	bne.n	100037e8 <y64_x32>
1000379a:	2a00      	cmp	r2, #0
1000379c:	d0e7      	beq.n	1000376e <udiv0>
1000379e:	b480      	push	{r7}
100037a0:	4f10      	ldr	r7, [pc, #64]	; (100037e4 <y64+0x54>)
100037a2:	6639      	str	r1, [r7, #96]	; 0x60
100037a4:	667a      	str	r2, [r7, #100]	; 0x64
100037a6:	e7ff      	b.n	100037a8 <y64+0x18>
100037a8:	e7ff      	b.n	100037aa <y64+0x1a>
100037aa:	b430      	push	{r4, r5}
100037ac:	0c04      	lsrs	r4, r0, #16
100037ae:	6f7b      	ldr	r3, [r7, #116]	; 0x74
100037b0:	6f39      	ldr	r1, [r7, #112]	; 0x70
100037b2:	041b      	lsls	r3, r3, #16
100037b4:	4323      	orrs	r3, r4
100037b6:	663b      	str	r3, [r7, #96]	; 0x60
100037b8:	e7ff      	b.n	100037ba <y64+0x2a>
100037ba:	e7ff      	b.n	100037bc <y64+0x2c>
100037bc:	e7ff      	b.n	100037be <y64+0x2e>
100037be:	46c0      	nop			; (mov r8, r8)
100037c0:	b284      	uxth	r4, r0
100037c2:	6f7b      	ldr	r3, [r7, #116]	; 0x74
100037c4:	6f3d      	ldr	r5, [r7, #112]	; 0x70
100037c6:	041b      	lsls	r3, r3, #16
100037c8:	4323      	orrs	r3, r4
100037ca:	663b      	str	r3, [r7, #96]	; 0x60
100037cc:	e7ff      	b.n	100037ce <y64+0x3e>
100037ce:	e7ff      	b.n	100037d0 <y64+0x40>
100037d0:	46c0      	nop			; (mov r8, r8)
100037d2:	2300      	movs	r3, #0
100037d4:	042c      	lsls	r4, r5, #16
100037d6:	0c2d      	lsrs	r5, r5, #16
100037d8:	6f7a      	ldr	r2, [r7, #116]	; 0x74
100037da:	6f38      	ldr	r0, [r7, #112]	; 0x70
100037dc:	1900      	adds	r0, r0, r4
100037de:	4169      	adcs	r1, r5
100037e0:	bcb0      	pop	{r4, r5, r7}
100037e2:	4770      	bx	lr
100037e4:	d0000000 	.word	0xd0000000

100037e8 <y64_x32>:
100037e8:	b5f0      	push	{r4, r5, r6, r7, lr}
100037ea:	4694      	mov	ip, r2
100037ec:	2500      	movs	r5, #0
100037ee:	0e14      	lsrs	r4, r2, #24
100037f0:	d101      	bne.n	100037f6 <y64_x32+0xe>
100037f2:	0212      	lsls	r2, r2, #8
100037f4:	3508      	adds	r5, #8
100037f6:	0f14      	lsrs	r4, r2, #28
100037f8:	d101      	bne.n	100037fe <y64_x32+0x16>
100037fa:	0112      	lsls	r2, r2, #4
100037fc:	3504      	adds	r5, #4
100037fe:	0f94      	lsrs	r4, r2, #30
10003800:	d101      	bne.n	10003806 <y64_x32+0x1e>
10003802:	0092      	lsls	r2, r2, #2
10003804:	3502      	adds	r5, #2
10003806:	0fd4      	lsrs	r4, r2, #31
10003808:	d101      	bne.n	1000380e <y64_x32+0x26>
1000380a:	0052      	lsls	r2, r2, #1
1000380c:	3501      	adds	r5, #1
1000380e:	0bd4      	lsrs	r4, r2, #15
10003810:	3401      	adds	r4, #1
10003812:	4f25      	ldr	r7, [pc, #148]	; (100038a8 <y64_x32+0xc0>)
10003814:	667c      	str	r4, [r7, #100]	; 0x64
10003816:	4c25      	ldr	r4, [pc, #148]	; (100038ac <y64_x32+0xc4>)
10003818:	663c      	str	r4, [r7, #96]	; 0x60
1000381a:	0c0e      	lsrs	r6, r1, #16
1000381c:	b293      	uxth	r3, r2
1000381e:	e7ff      	b.n	10003820 <y64_x32+0x38>
10003820:	e7ff      	b.n	10003822 <y64_x32+0x3a>
10003822:	e7ff      	b.n	10003824 <y64_x32+0x3c>
10003824:	6f3c      	ldr	r4, [r7, #112]	; 0x70
10003826:	4366      	muls	r6, r4
10003828:	0c36      	lsrs	r6, r6, #16
1000382a:	0377      	lsls	r7, r6, #13
1000382c:	46be      	mov	lr, r7
1000382e:	4373      	muls	r3, r6
10003830:	0bdf      	lsrs	r7, r3, #15
10003832:	045b      	lsls	r3, r3, #17
10003834:	1ac0      	subs	r0, r0, r3
10003836:	41b9      	sbcs	r1, r7
10003838:	0c13      	lsrs	r3, r2, #16
1000383a:	4373      	muls	r3, r6
1000383c:	18db      	adds	r3, r3, r3
1000383e:	1ac9      	subs	r1, r1, r3
10003840:	08ce      	lsrs	r6, r1, #3
10003842:	4366      	muls	r6, r4
10003844:	0c36      	lsrs	r6, r6, #16
10003846:	44b6      	add	lr, r6
10003848:	b293      	uxth	r3, r2
1000384a:	4373      	muls	r3, r6
1000384c:	0f1f      	lsrs	r7, r3, #28
1000384e:	011b      	lsls	r3, r3, #4
10003850:	1ac0      	subs	r0, r0, r3
10003852:	41b9      	sbcs	r1, r7
10003854:	0c13      	lsrs	r3, r2, #16
10003856:	4373      	muls	r3, r6
10003858:	0b1f      	lsrs	r7, r3, #12
1000385a:	051b      	lsls	r3, r3, #20
1000385c:	1ac0      	subs	r0, r0, r3
1000385e:	41b9      	sbcs	r1, r7
10003860:	0d86      	lsrs	r6, r0, #22
10003862:	028f      	lsls	r7, r1, #10
10003864:	433e      	orrs	r6, r7
10003866:	4366      	muls	r6, r4
10003868:	0c36      	lsrs	r6, r6, #16
1000386a:	2d09      	cmp	r5, #9
1000386c:	db24      	blt.n	100038b8 <last0>
1000386e:	0a52      	lsrs	r2, r2, #9
10003870:	4372      	muls	r2, r6
10003872:	1a80      	subs	r0, r0, r2
10003874:	0377      	lsls	r7, r6, #13
10003876:	0a46      	lsrs	r6, r0, #9
10003878:	4366      	muls	r6, r4
1000387a:	0c36      	lsrs	r6, r6, #16
1000387c:	2316      	movs	r3, #22
1000387e:	1b5b      	subs	r3, r3, r5
10003880:	40de      	lsrs	r6, r3
10003882:	40df      	lsrs	r7, r3
10003884:	19bf      	adds	r7, r7, r6
10003886:	4664      	mov	r4, ip
10003888:	4366      	muls	r6, r4
1000388a:	1b82      	subs	r2, r0, r6
1000388c:	4670      	mov	r0, lr
1000388e:	3504      	adds	r5, #4
10003890:	3306      	adds	r3, #6
10003892:	0001      	movs	r1, r0
10003894:	40d9      	lsrs	r1, r3
10003896:	40a8      	lsls	r0, r5
10003898:	19c0      	adds	r0, r0, r7
1000389a:	d300      	bcc.n	1000389e <y64_x32+0xb6>
1000389c:	3101      	adds	r1, #1
1000389e:	42a2      	cmp	r2, r4
100038a0:	d206      	bcs.n	100038b0 <y64_x32+0xc8>
100038a2:	2300      	movs	r3, #0
100038a4:	bdf0      	pop	{r4, r5, r6, r7, pc}
100038a6:	0000      	.short	0x0000
100038a8:	d0000000 	.word	0xd0000000
100038ac:	ffffffff 	.word	0xffffffff
100038b0:	1b12      	subs	r2, r2, r4
100038b2:	3001      	adds	r0, #1
100038b4:	d3f3      	bcc.n	1000389e <y64_x32+0xb6>
100038b6:	e7f1      	b.n	1000389c <y64_x32+0xb4>

100038b8 <last0>:
100038b8:	2709      	movs	r7, #9
100038ba:	1b7f      	subs	r7, r7, r5
100038bc:	40fe      	lsrs	r6, r7
100038be:	4664      	mov	r4, ip
100038c0:	b2a2      	uxth	r2, r4
100038c2:	4372      	muls	r2, r6
100038c4:	1a80      	subs	r0, r0, r2
100038c6:	d200      	bcs.n	100038ca <last0+0x12>
100038c8:	3901      	subs	r1, #1
100038ca:	0c22      	lsrs	r2, r4, #16
100038cc:	4372      	muls	r2, r6
100038ce:	0c13      	lsrs	r3, r2, #16
100038d0:	0412      	lsls	r2, r2, #16
100038d2:	1a82      	subs	r2, r0, r2
100038d4:	4199      	sbcs	r1, r3
100038d6:	000b      	movs	r3, r1
100038d8:	4670      	mov	r0, lr
100038da:	3504      	adds	r5, #4
100038dc:	3713      	adds	r7, #19
100038de:	0001      	movs	r1, r0
100038e0:	40f9      	lsrs	r1, r7
100038e2:	40a8      	lsls	r0, r5
100038e4:	1980      	adds	r0, r0, r6
100038e6:	d300      	bcc.n	100038ea <last0+0x32>
100038e8:	3101      	adds	r1, #1
100038ea:	2b00      	cmp	r3, #0
100038ec:	d102      	bne.n	100038f4 <last0+0x3c>
100038ee:	42a2      	cmp	r2, r4
100038f0:	d20a      	bcs.n	10003908 <last0+0x50>
100038f2:	bdf0      	pop	{r4, r5, r6, r7, pc}
100038f4:	3001      	adds	r0, #1
100038f6:	d300      	bcc.n	100038fa <last0+0x42>
100038f8:	3101      	adds	r1, #1
100038fa:	1b12      	subs	r2, r2, r4
100038fc:	d2fa      	bcs.n	100038f4 <last0+0x3c>
100038fe:	3b01      	subs	r3, #1
10003900:	d1f8      	bne.n	100038f4 <last0+0x3c>
10003902:	42a2      	cmp	r2, r4
10003904:	d200      	bcs.n	10003908 <last0+0x50>
10003906:	bdf0      	pop	{r4, r5, r6, r7, pc}
10003908:	3001      	adds	r0, #1
1000390a:	d300      	bcc.n	1000390e <last0+0x56>
1000390c:	3101      	adds	r1, #1
1000390e:	1b12      	subs	r2, r2, r4
10003910:	e7f7      	b.n	10003902 <last0+0x4a>

10003912 <y64_x48>:
10003912:	b5f0      	push	{r4, r5, r6, r7, lr}
10003914:	0c1c      	lsrs	r4, r3, #16
10003916:	d000      	beq.n	1000391a <y64_x48+0x8>
10003918:	e080      	b.n	10003a1c <y64_x64>
1000391a:	b40c      	push	{r2, r3}
1000391c:	2500      	movs	r5, #0
1000391e:	0a1c      	lsrs	r4, r3, #8
10003920:	d104      	bne.n	1000392c <y64_x48+0x1a>
10003922:	021b      	lsls	r3, r3, #8
10003924:	0e16      	lsrs	r6, r2, #24
10003926:	4333      	orrs	r3, r6
10003928:	0212      	lsls	r2, r2, #8
1000392a:	3508      	adds	r5, #8
1000392c:	0b1c      	lsrs	r4, r3, #12
1000392e:	d104      	bne.n	1000393a <y64_x48+0x28>
10003930:	011b      	lsls	r3, r3, #4
10003932:	0f16      	lsrs	r6, r2, #28
10003934:	4333      	orrs	r3, r6
10003936:	0112      	lsls	r2, r2, #4
10003938:	3504      	adds	r5, #4
1000393a:	0b9c      	lsrs	r4, r3, #14
1000393c:	d104      	bne.n	10003948 <y64_x48+0x36>
1000393e:	009b      	lsls	r3, r3, #2
10003940:	0f96      	lsrs	r6, r2, #30
10003942:	4333      	orrs	r3, r6
10003944:	0092      	lsls	r2, r2, #2
10003946:	3502      	adds	r5, #2
10003948:	0bdc      	lsrs	r4, r3, #15
1000394a:	d102      	bne.n	10003952 <y64_x48+0x40>
1000394c:	1892      	adds	r2, r2, r2
1000394e:	415b      	adcs	r3, r3
10003950:	3501      	adds	r5, #1
10003952:	001c      	movs	r4, r3
10003954:	1897      	adds	r7, r2, r2
10003956:	4164      	adcs	r4, r4
10003958:	3401      	adds	r4, #1
1000395a:	4f46      	ldr	r7, [pc, #280]	; (10003a74 <y64_x64+0x58>)
1000395c:	667c      	str	r4, [r7, #100]	; 0x64
1000395e:	4c46      	ldr	r4, [pc, #280]	; (10003a78 <y64_x64+0x5c>)
10003960:	663c      	str	r4, [r7, #96]	; 0x60
10003962:	0c0e      	lsrs	r6, r1, #16
10003964:	e7ff      	b.n	10003966 <y64_x48+0x54>
10003966:	e7ff      	b.n	10003968 <y64_x48+0x56>
10003968:	e7ff      	b.n	1000396a <y64_x48+0x58>
1000396a:	46c0      	nop			; (mov r8, r8)
1000396c:	6f3c      	ldr	r4, [r7, #112]	; 0x70
1000396e:	4366      	muls	r6, r4
10003970:	0c36      	lsrs	r6, r6, #16
10003972:	0377      	lsls	r7, r6, #13
10003974:	46be      	mov	lr, r7
10003976:	b297      	uxth	r7, r2
10003978:	4377      	muls	r7, r6
1000397a:	1bc0      	subs	r0, r0, r7
1000397c:	d200      	bcs.n	10003980 <y64_x48+0x6e>
1000397e:	3901      	subs	r1, #1
10003980:	1bc0      	subs	r0, r0, r7
10003982:	d200      	bcs.n	10003986 <y64_x48+0x74>
10003984:	3901      	subs	r1, #1
10003986:	b29f      	uxth	r7, r3
10003988:	4377      	muls	r7, r6
1000398a:	1bc9      	subs	r1, r1, r7
1000398c:	1bc9      	subs	r1, r1, r7
1000398e:	0c17      	lsrs	r7, r2, #16
10003990:	4377      	muls	r7, r6
10003992:	047e      	lsls	r6, r7, #17
10003994:	0bff      	lsrs	r7, r7, #15
10003996:	1b80      	subs	r0, r0, r6
10003998:	41b9      	sbcs	r1, r7
1000399a:	08ce      	lsrs	r6, r1, #3
1000399c:	4366      	muls	r6, r4
1000399e:	0c36      	lsrs	r6, r6, #16
100039a0:	2d0c      	cmp	r5, #12
100039a2:	db33      	blt.n	10003a0c <last1>
100039a4:	44b6      	add	lr, r6
100039a6:	0b12      	lsrs	r2, r2, #12
100039a8:	051f      	lsls	r7, r3, #20
100039aa:	433a      	orrs	r2, r7
100039ac:	0b1b      	lsrs	r3, r3, #12
100039ae:	b297      	uxth	r7, r2
100039b0:	4377      	muls	r7, r6
100039b2:	1bc0      	subs	r0, r0, r7
100039b4:	d200      	bcs.n	100039b8 <y64_x48+0xa6>
100039b6:	3901      	subs	r1, #1
100039b8:	b29f      	uxth	r7, r3
100039ba:	4377      	muls	r7, r6
100039bc:	1bc9      	subs	r1, r1, r7
100039be:	0c17      	lsrs	r7, r2, #16
100039c0:	4377      	muls	r7, r6
100039c2:	043e      	lsls	r6, r7, #16
100039c4:	0c3f      	lsrs	r7, r7, #16
100039c6:	1b80      	subs	r0, r0, r6
100039c8:	41b9      	sbcs	r1, r7
100039ca:	0d86      	lsrs	r6, r0, #22
100039cc:	028f      	lsls	r7, r1, #10
100039ce:	433e      	orrs	r6, r7
100039d0:	4366      	muls	r6, r4
100039d2:	2729      	movs	r7, #41	; 0x29
100039d4:	1b7f      	subs	r7, r7, r5
100039d6:	40fe      	lsrs	r6, r7
100039d8:	3d0c      	subs	r5, #12
100039da:	4677      	mov	r7, lr
100039dc:	40af      	lsls	r7, r5
100039de:	19bf      	adds	r7, r7, r6
100039e0:	bc30      	pop	{r4, r5}
100039e2:	b2a2      	uxth	r2, r4
100039e4:	b2ab      	uxth	r3, r5
100039e6:	4372      	muls	r2, r6
100039e8:	4373      	muls	r3, r6
100039ea:	1a80      	subs	r0, r0, r2
100039ec:	4199      	sbcs	r1, r3
100039ee:	0c22      	lsrs	r2, r4, #16
100039f0:	4372      	muls	r2, r6
100039f2:	0c13      	lsrs	r3, r2, #16
100039f4:	0412      	lsls	r2, r2, #16
100039f6:	1a80      	subs	r0, r0, r2
100039f8:	4199      	sbcs	r1, r3
100039fa:	0002      	movs	r2, r0
100039fc:	000b      	movs	r3, r1
100039fe:	3701      	adds	r7, #1
10003a00:	1b00      	subs	r0, r0, r4
10003a02:	41a9      	sbcs	r1, r5
10003a04:	d2f9      	bcs.n	100039fa <y64_x48+0xe8>
10003a06:	1e78      	subs	r0, r7, #1
10003a08:	2100      	movs	r1, #0
10003a0a:	bdf0      	pop	{r4, r5, r6, r7, pc}

10003a0c <last1>:
10003a0c:	270c      	movs	r7, #12
10003a0e:	1b7f      	subs	r7, r7, r5
10003a10:	40fe      	lsrs	r6, r7
10003a12:	4677      	mov	r7, lr
10003a14:	0b7f      	lsrs	r7, r7, #13
10003a16:	40af      	lsls	r7, r5
10003a18:	19ff      	adds	r7, r7, r7
10003a1a:	e7e0      	b.n	100039de <y64_x48+0xcc>

10003a1c <y64_x64>:
10003a1c:	2400      	movs	r4, #0
10003a1e:	1c5d      	adds	r5, r3, #1
10003a20:	d007      	beq.n	10003a32 <y64_x64+0x16>
10003a22:	4f14      	ldr	r7, [pc, #80]	; (10003a74 <y64_x64+0x58>)
10003a24:	667d      	str	r5, [r7, #100]	; 0x64
10003a26:	6639      	str	r1, [r7, #96]	; 0x60
10003a28:	e7ff      	b.n	10003a2a <y64_x64+0xe>
10003a2a:	e7ff      	b.n	10003a2c <y64_x64+0x10>
10003a2c:	e7ff      	b.n	10003a2e <y64_x64+0x12>
10003a2e:	e7ff      	b.n	10003a30 <y64_x64+0x14>
10003a30:	6f3c      	ldr	r4, [r7, #112]	; 0x70
10003a32:	b295      	uxth	r5, r2
10003a34:	b29e      	uxth	r6, r3
10003a36:	4365      	muls	r5, r4
10003a38:	4366      	muls	r6, r4
10003a3a:	1b40      	subs	r0, r0, r5
10003a3c:	41b1      	sbcs	r1, r6
10003a3e:	0c15      	lsrs	r5, r2, #16
10003a40:	0c1e      	lsrs	r6, r3, #16
10003a42:	4365      	muls	r5, r4
10003a44:	4366      	muls	r6, r4
10003a46:	0436      	lsls	r6, r6, #16
10003a48:	0c2f      	lsrs	r7, r5, #16
10003a4a:	433e      	orrs	r6, r7
10003a4c:	042d      	lsls	r5, r5, #16
10003a4e:	1b40      	subs	r0, r0, r5
10003a50:	41b1      	sbcs	r1, r6
10003a52:	4299      	cmp	r1, r3
10003a54:	d204      	bcs.n	10003a60 <y64_x64+0x44>
10003a56:	0002      	movs	r2, r0
10003a58:	000b      	movs	r3, r1
10003a5a:	0020      	movs	r0, r4
10003a5c:	2100      	movs	r1, #0
10003a5e:	bdf0      	pop	{r4, r5, r6, r7, pc}
10003a60:	d101      	bne.n	10003a66 <y64_x64+0x4a>
10003a62:	4290      	cmp	r0, r2
10003a64:	d3f7      	bcc.n	10003a56 <y64_x64+0x3a>
10003a66:	1a80      	subs	r0, r0, r2
10003a68:	4199      	sbcs	r1, r3
10003a6a:	3401      	adds	r4, #1
10003a6c:	4299      	cmp	r1, r3
10003a6e:	d3f2      	bcc.n	10003a56 <y64_x64+0x3a>
10003a70:	e7f6      	b.n	10003a60 <y64_x64+0x44>
10003a72:	0000      	.short	0x0000
10003a74:	d0000000 	.word	0xd0000000
10003a78:	ffffffff 	.word	0xffffffff

10003a7c <__wrap___aeabi_drsub>:
10003a7c:	4048      	eors	r0, r1
10003a7e:	4041      	eors	r1, r0
10003a80:	4048      	eors	r0, r1

10003a82 <__wrap___aeabi_dsub>:
10003a82:	b418      	push	{r3, r4}
10003a84:	4b11      	ldr	r3, [pc, #68]	; (10003acc <__wrap___aeabi_dmul+0x14>)
10003a86:	685b      	ldr	r3, [r3, #4]
10003a88:	46fc      	mov	ip, pc
10003a8a:	9301      	str	r3, [sp, #4]
10003a8c:	bd08      	pop	{r3, pc}
10003a8e:	df04      	.short	0xdf04
10003a90:	10003d07 	.word	0x10003d07

10003a94 <__wrap___aeabi_dadd>:
10003a94:	b418      	push	{r3, r4}
10003a96:	4b0d      	ldr	r3, [pc, #52]	; (10003acc <__wrap___aeabi_dmul+0x14>)
10003a98:	681b      	ldr	r3, [r3, #0]
10003a9a:	46fc      	mov	ip, pc
10003a9c:	9301      	str	r3, [sp, #4]
10003a9e:	bd08      	pop	{r3, pc}
10003aa0:	3d11df00 	.word	0x3d11df00
10003aa4:	1000      	.short	0x1000

10003aa6 <__wrap___aeabi_ddiv>:
10003aa6:	b418      	push	{r3, r4}
10003aa8:	4b08      	ldr	r3, [pc, #32]	; (10003acc <__wrap___aeabi_dmul+0x14>)
10003aaa:	68db      	ldr	r3, [r3, #12]
10003aac:	46fc      	mov	ip, pc
10003aae:	9301      	str	r3, [sp, #4]
10003ab0:	bd08      	pop	{r3, pc}
10003ab2:	df0c      	.short	0xdf0c
10003ab4:	10003fc9 	.word	0x10003fc9

10003ab8 <__wrap___aeabi_dmul>:
10003ab8:	b418      	push	{r3, r4}
10003aba:	4b04      	ldr	r3, [pc, #16]	; (10003acc <__wrap___aeabi_dmul+0x14>)
10003abc:	689b      	ldr	r3, [r3, #8]
10003abe:	46fc      	mov	ip, pc
10003ac0:	9301      	str	r3, [sp, #4]
10003ac2:	bd08      	pop	{r3, pc}
10003ac4:	3e6ddf08 	.word	0x3e6ddf08
10003ac8:	00001000 	.word	0x00001000
10003acc:	20000b30 	.word	0x20000b30

10003ad0 <__wrap___aeabi_cdrcmple>:
10003ad0:	b5ff      	push	{r0, r1, r2, r3, r4, r5, r6, r7, lr}
10003ad2:	4050      	eors	r0, r2
10003ad4:	4042      	eors	r2, r0
10003ad6:	4050      	eors	r0, r2
10003ad8:	4059      	eors	r1, r3
10003ada:	404b      	eors	r3, r1
10003adc:	4059      	eors	r1, r3
10003ade:	e000      	b.n	10003ae2 <__aeabi_dfcmple_guts>

10003ae0 <__wrap___aeabi_cdcmpeq>:
10003ae0:	b5ff      	push	{r0, r1, r2, r3, r4, r5, r6, r7, lr}

10003ae2 <__aeabi_dfcmple_guts>:
10003ae2:	4f15      	ldr	r7, [pc, #84]	; (10003b38 <__aeabi_dfcmple_guts+0x56>)
10003ae4:	004c      	lsls	r4, r1, #1
10003ae6:	0d64      	lsrs	r4, r4, #21
10003ae8:	d003      	beq.n	10003af2 <__aeabi_dfcmple_guts+0x10>
10003aea:	42bc      	cmp	r4, r7
10003aec:	d104      	bne.n	10003af8 <__aeabi_dfcmple_guts+0x16>
10003aee:	030c      	lsls	r4, r1, #12
10003af0:	d814      	bhi.n	10003b1c <__aeabi_dfcmple_guts+0x3a>
10003af2:	2000      	movs	r0, #0
10003af4:	0d09      	lsrs	r1, r1, #20
10003af6:	0509      	lsls	r1, r1, #20
10003af8:	005c      	lsls	r4, r3, #1
10003afa:	0d64      	lsrs	r4, r4, #21
10003afc:	d003      	beq.n	10003b06 <__aeabi_dfcmple_guts+0x24>
10003afe:	42bc      	cmp	r4, r7
10003b00:	d104      	bne.n	10003b0c <__aeabi_dfcmple_guts+0x2a>
10003b02:	031c      	lsls	r4, r3, #12
10003b04:	d80a      	bhi.n	10003b1c <__aeabi_dfcmple_guts+0x3a>
10003b06:	2200      	movs	r2, #0
10003b08:	0d1b      	lsrs	r3, r3, #20
10003b0a:	051b      	lsls	r3, r3, #20
10003b0c:	2601      	movs	r6, #1
10003b0e:	404b      	eors	r3, r1
10003b10:	d409      	bmi.n	10003b26 <__aeabi_dfcmple_guts+0x44>
10003b12:	404b      	eors	r3, r1
10003b14:	d503      	bpl.n	10003b1e <__aeabi_dfcmple_guts+0x3c>
10003b16:	428b      	cmp	r3, r1
10003b18:	d100      	bne.n	10003b1c <__aeabi_dfcmple_guts+0x3a>
10003b1a:	4282      	cmp	r2, r0
10003b1c:	bdff      	pop	{r0, r1, r2, r3, r4, r5, r6, r7, pc}
10003b1e:	4299      	cmp	r1, r3
10003b20:	d1fc      	bne.n	10003b1c <__aeabi_dfcmple_guts+0x3a>
10003b22:	4290      	cmp	r0, r2
10003b24:	bdff      	pop	{r0, r1, r2, r3, r4, r5, r6, r7, pc}
10003b26:	430b      	orrs	r3, r1
10003b28:	18db      	adds	r3, r3, r3
10003b2a:	4303      	orrs	r3, r0
10003b2c:	4313      	orrs	r3, r2
10003b2e:	d0f5      	beq.n	10003b1c <__aeabi_dfcmple_guts+0x3a>
10003b30:	43c9      	mvns	r1, r1
10003b32:	1849      	adds	r1, r1, r1
10003b34:	bdff      	pop	{r0, r1, r2, r3, r4, r5, r6, r7, pc}
10003b36:	0000      	.short	0x0000
10003b38:	000007ff 	.word	0x000007ff

10003b3c <__wrap___aeabi_dcmplt>:
10003b3c:	b500      	push	{lr}
10003b3e:	f7ff ffcf 	bl	10003ae0 <__wrap___aeabi_cdcmpeq>
10003b42:	4180      	sbcs	r0, r0
10003b44:	bd00      	pop	{pc}
10003b46:	46c0      	nop			; (mov r8, r8)

10003b48 <__wrap___aeabi_dcmple>:
10003b48:	b500      	push	{lr}
10003b4a:	f7ff ffc9 	bl	10003ae0 <__wrap___aeabi_cdcmpeq>
10003b4e:	d901      	bls.n	10003b54 <__wrap___aeabi_dcmple+0xc>
10003b50:	2000      	movs	r0, #0
10003b52:	bd00      	pop	{pc}
10003b54:	2001      	movs	r0, #1
10003b56:	bd00      	pop	{pc}

10003b58 <__wrap___aeabi_dcmpge>:
10003b58:	b500      	push	{lr}
10003b5a:	f7ff ffb9 	bl	10003ad0 <__wrap___aeabi_cdrcmple>
10003b5e:	d901      	bls.n	10003b64 <__wrap___aeabi_dcmpge+0xc>
10003b60:	2000      	movs	r0, #0
10003b62:	bd00      	pop	{pc}
10003b64:	2001      	movs	r0, #1
10003b66:	bd00      	pop	{pc}

10003b68 <__wrap___aeabi_dcmpgt>:
10003b68:	b500      	push	{lr}
10003b6a:	f7ff ffb1 	bl	10003ad0 <__wrap___aeabi_cdrcmple>
10003b6e:	4180      	sbcs	r0, r0
10003b70:	bd00      	pop	{pc}

10003b72 <__wrap___aeabi_dcmpun>:
10003b72:	2001      	movs	r0, #1
10003b74:	0540      	lsls	r0, r0, #21
10003b76:	004a      	lsls	r2, r1, #1
10003b78:	1812      	adds	r2, r2, r0
10003b7a:	d804      	bhi.n	10003b86 <__wrap___aeabi_dcmpun+0x14>
10003b7c:	005a      	lsls	r2, r3, #1
10003b7e:	1812      	adds	r2, r2, r0
10003b80:	d801      	bhi.n	10003b86 <__wrap___aeabi_dcmpun+0x14>
10003b82:	2000      	movs	r0, #0
10003b84:	4770      	bx	lr
10003b86:	2001      	movs	r0, #1
10003b88:	4770      	bx	lr
10003b8a:	2000      	movs	r0, #0
10003b8c:	4770      	bx	lr
	...

10003b90 <__wrap___aeabi_ui2d>:
10003b90:	2100      	movs	r1, #0
10003b92:	2800      	cmp	r0, #0
10003b94:	d105      	bne.n	10003ba2 <__wrap___aeabi_i2d+0xa>
10003b96:	4770      	bx	lr

10003b98 <__wrap___aeabi_i2d>:
10003b98:	17c1      	asrs	r1, r0, #31
10003b9a:	4048      	eors	r0, r1
10003b9c:	1a40      	subs	r0, r0, r1
10003b9e:	d0fa      	beq.n	10003b96 <__wrap___aeabi_ui2d+0x6>
10003ba0:	07c9      	lsls	r1, r1, #31
10003ba2:	b513      	push	{r0, r1, r4, lr}
10003ba4:	4b06      	ldr	r3, [pc, #24]	; (10003bc0 <__wrap___aeabi_i2d+0x28>)
10003ba6:	681b      	ldr	r3, [r3, #0]
10003ba8:	4798      	blx	r3
10003baa:	bc0c      	pop	{r2, r3}
10003bac:	1c44      	adds	r4, r0, #1
10003bae:	40a2      	lsls	r2, r4
10003bb0:	0510      	lsls	r0, r2, #20
10003bb2:	0b12      	lsrs	r2, r2, #12
10003bb4:	4903      	ldr	r1, [pc, #12]	; (10003bc4 <__wrap___aeabi_i2d+0x2c>)
10003bb6:	1b09      	subs	r1, r1, r4
10003bb8:	0509      	lsls	r1, r1, #20
10003bba:	4319      	orrs	r1, r3
10003bbc:	4311      	orrs	r1, r2
10003bbe:	bd10      	pop	{r4, pc}
10003bc0:	20000d30 	.word	0x20000d30
10003bc4:	0000041f 	.word	0x0000041f

10003bc8 <__wrap___aeabi_d2iz>:
10003bc8:	b510      	push	{r4, lr}
10003bca:	004c      	lsls	r4, r1, #1
10003bcc:	0d62      	lsrs	r2, r4, #21
10003bce:	2380      	movs	r3, #128	; 0x80
10003bd0:	18d2      	adds	r2, r2, r3
10003bd2:	00db      	lsls	r3, r3, #3
10003bd4:	1ad2      	subs	r2, r2, r3
10003bd6:	055b      	lsls	r3, r3, #21
10003bd8:	2a7e      	cmp	r2, #126	; 0x7e
10003bda:	dd10      	ble.n	10003bfe <__wrap___aeabi_d2iz+0x36>
10003bdc:	3a9e      	subs	r2, #158	; 0x9e
10003bde:	da13      	bge.n	10003c08 <__wrap___aeabi_d2iz+0x40>
10003be0:	17cc      	asrs	r4, r1, #31
10003be2:	0309      	lsls	r1, r1, #12
10003be4:	0849      	lsrs	r1, r1, #1
10003be6:	4319      	orrs	r1, r3
10003be8:	4252      	negs	r2, r2
10003bea:	40d1      	lsrs	r1, r2
10003bec:	0064      	lsls	r4, r4, #1
10003bee:	3401      	adds	r4, #1
10003bf0:	3215      	adds	r2, #21
10003bf2:	2a20      	cmp	r2, #32
10003bf4:	da05      	bge.n	10003c02 <__wrap___aeabi_d2iz+0x3a>
10003bf6:	40d0      	lsrs	r0, r2
10003bf8:	4308      	orrs	r0, r1
10003bfa:	4360      	muls	r0, r4
10003bfc:	bd10      	pop	{r4, pc}
10003bfe:	2000      	movs	r0, #0
10003c00:	bd10      	pop	{r4, pc}
10003c02:	4608      	mov	r0, r1
10003c04:	4360      	muls	r0, r4
10003c06:	bd10      	pop	{r4, pc}
10003c08:	0fc8      	lsrs	r0, r1, #31
10003c0a:	18c0      	adds	r0, r0, r3
10003c0c:	3801      	subs	r0, #1
10003c0e:	bd10      	pop	{r4, pc}

10003c10 <__wrap___aeabi_d2uiz>:
10003c10:	b418      	push	{r3, r4}
10003c12:	4b04      	ldr	r3, [pc, #16]	; (10003c24 <__wrap___aeabi_d2uiz+0x14>)
10003c14:	6a5b      	ldr	r3, [r3, #36]	; 0x24
10003c16:	46fc      	mov	ip, pc
10003c18:	9301      	str	r3, [sp, #4]
10003c1a:	bd08      	pop	{r3, pc}
10003c1c:	41f5df24 	.word	0x41f5df24
10003c20:	00001000 	.word	0x00001000
10003c24:	20000b30 	.word	0x20000b30

10003c28 <__aeabi_double_init>:
10003c28:	2313      	movs	r3, #19
10003c2a:	b570      	push	{r4, r5, r6, lr}
10003c2c:	781d      	ldrb	r5, [r3, #0]
10003c2e:	2d01      	cmp	r5, #1
10003c30:	d010      	beq.n	10003c54 <__aeabi_double_init+0x2c>
10003c32:	dd0b      	ble.n	10003c4c <__aeabi_double_init+0x24>
10003c34:	4824      	ldr	r0, [pc, #144]	; (10003cc8 <__aeabi_double_init+0xa0>)
10003c36:	f7ff fc8d 	bl	10003554 <rom_data_lookup>
10003c3a:	4c24      	ldr	r4, [pc, #144]	; (10003ccc <__aeabi_double_init+0xa4>)
10003c3c:	0001      	movs	r1, r0
10003c3e:	2280      	movs	r2, #128	; 0x80
10003c40:	0020      	movs	r0, r4
10003c42:	f000 fbab 	bl	1000439c <__wrap___aeabi_memcpy>
10003c46:	2d02      	cmp	r5, #2
10003c48:	d001      	beq.n	10003c4e <__aeabi_double_init+0x26>
10003c4a:	bd70      	pop	{r4, r5, r6, pc}
10003c4c:	4c1f      	ldr	r4, [pc, #124]	; (10003ccc <__aeabi_double_init+0xa4>)
10003c4e:	4a20      	ldr	r2, [pc, #128]	; (10003cd0 <__aeabi_double_init+0xa8>)
10003c50:	64a2      	str	r2, [r4, #72]	; 0x48
10003c52:	e7fa      	b.n	10003c4a <__aeabi_double_init+0x22>
10003c54:	002e      	movs	r6, r5
10003c56:	4c1d      	ldr	r4, [pc, #116]	; (10003ccc <__aeabi_double_init+0xa4>)
10003c58:	4a1d      	ldr	r2, [pc, #116]	; (10003cd0 <__aeabi_double_init+0xa8>)
10003c5a:	08a3      	lsrs	r3, r4, #2
10003c5c:	425b      	negs	r3, r3
10003c5e:	401e      	ands	r6, r3
10003c60:	421d      	tst	r5, r3
10003c62:	d02f      	beq.n	10003cc4 <__aeabi_double_init+0x9c>
10003c64:	0033      	movs	r3, r6
10003c66:	6022      	str	r2, [r4, #0]
10003c68:	2020      	movs	r0, #32
10003c6a:	00b1      	lsls	r1, r6, #2
10003c6c:	1861      	adds	r1, r4, r1
10003c6e:	1b80      	subs	r0, r0, r6
10003c70:	600a      	str	r2, [r1, #0]
10003c72:	604a      	str	r2, [r1, #4]
10003c74:	608a      	str	r2, [r1, #8]
10003c76:	60ca      	str	r2, [r1, #12]
10003c78:	610a      	str	r2, [r1, #16]
10003c7a:	614a      	str	r2, [r1, #20]
10003c7c:	618a      	str	r2, [r1, #24]
10003c7e:	61ca      	str	r2, [r1, #28]
10003c80:	620a      	str	r2, [r1, #32]
10003c82:	624a      	str	r2, [r1, #36]	; 0x24
10003c84:	628a      	str	r2, [r1, #40]	; 0x28
10003c86:	62ca      	str	r2, [r1, #44]	; 0x2c
10003c88:	630a      	str	r2, [r1, #48]	; 0x30
10003c8a:	634a      	str	r2, [r1, #52]	; 0x34
10003c8c:	638a      	str	r2, [r1, #56]	; 0x38
10003c8e:	63ca      	str	r2, [r1, #60]	; 0x3c
10003c90:	640a      	str	r2, [r1, #64]	; 0x40
10003c92:	644a      	str	r2, [r1, #68]	; 0x44
10003c94:	648a      	str	r2, [r1, #72]	; 0x48
10003c96:	64ca      	str	r2, [r1, #76]	; 0x4c
10003c98:	650a      	str	r2, [r1, #80]	; 0x50
10003c9a:	654a      	str	r2, [r1, #84]	; 0x54
10003c9c:	658a      	str	r2, [r1, #88]	; 0x58
10003c9e:	65ca      	str	r2, [r1, #92]	; 0x5c
10003ca0:	660a      	str	r2, [r1, #96]	; 0x60
10003ca2:	664a      	str	r2, [r1, #100]	; 0x64
10003ca4:	668a      	str	r2, [r1, #104]	; 0x68
10003ca6:	66ca      	str	r2, [r1, #108]	; 0x6c
10003ca8:	670a      	str	r2, [r1, #112]	; 0x70
10003caa:	674a      	str	r2, [r1, #116]	; 0x74
10003cac:	0840      	lsrs	r0, r0, #1
10003cae:	2810      	cmp	r0, #16
10003cb0:	d103      	bne.n	10003cba <__aeabi_double_init+0x92>
10003cb2:	678a      	str	r2, [r1, #120]	; 0x78
10003cb4:	67ca      	str	r2, [r1, #124]	; 0x7c
10003cb6:	64a2      	str	r2, [r4, #72]	; 0x48
10003cb8:	e7c7      	b.n	10003c4a <__aeabi_double_init+0x22>
10003cba:	331e      	adds	r3, #30
10003cbc:	009b      	lsls	r3, r3, #2
10003cbe:	50e2      	str	r2, [r4, r3]
10003cc0:	64a2      	str	r2, [r4, #72]	; 0x48
10003cc2:	e7c2      	b.n	10003c4a <__aeabi_double_init+0x22>
10003cc4:	2300      	movs	r3, #0
10003cc6:	e7cf      	b.n	10003c68 <__aeabi_double_init+0x40>
10003cc8:	00004453 	.word	0x00004453
10003ccc:	20000b30 	.word	0x20000b30
10003cd0:	10003cd5 	.word	0x10003cd5

10003cd4 <double_table_shim_on_use_helper>:
10003cd4:	b507      	push	{r0, r1, r2, lr}
10003cd6:	4660      	mov	r0, ip
10003cd8:	8801      	ldrh	r1, [r0, #0]
10003cda:	0a0a      	lsrs	r2, r1, #8
10003cdc:	3002      	adds	r0, #2
10003cde:	2adf      	cmp	r2, #223	; 0xdf
10003ce0:	d1fa      	bne.n	10003cd8 <double_table_shim_on_use_helper+0x4>
10003ce2:	b2c9      	uxtb	r1, r1
10003ce4:	0882      	lsrs	r2, r0, #2
10003ce6:	d304      	bcc.n	10003cf2 <double_table_shim_on_use_helper+0x1e>
10003ce8:	8802      	ldrh	r2, [r0, #0]
10003cea:	8840      	ldrh	r0, [r0, #2]
10003cec:	0400      	lsls	r0, r0, #16
10003cee:	4310      	orrs	r0, r2
10003cf0:	e000      	b.n	10003cf4 <double_table_shim_on_use_helper+0x20>
10003cf2:	6800      	ldr	r0, [r0, #0]
10003cf4:	4a01      	ldr	r2, [pc, #4]	; (10003cfc <double_table_shim_on_use_helper+0x28>)
10003cf6:	5050      	str	r0, [r2, r1]
10003cf8:	9003      	str	r0, [sp, #12]
10003cfa:	bd07      	pop	{r0, r1, r2, pc}
10003cfc:	20000b30 	.word	0x20000b30

10003d00 <drsub_shim>:
10003d00:	b40f      	push	{r0, r1, r2, r3}
10003d02:	bc03      	pop	{r0, r1}
10003d04:	bc0c      	pop	{r2, r3}

10003d06 <dsub_shim>:
10003d06:	b5f0      	push	{r4, r5, r6, r7, lr}
10003d08:	2401      	movs	r4, #1
10003d0a:	07e4      	lsls	r4, r4, #31
10003d0c:	4063      	eors	r3, r4
10003d0e:	e000      	b.n	10003d12 <da_entry>

10003d10 <dadd_shim>:
10003d10:	b5f0      	push	{r4, r5, r6, r7, lr}

10003d12 <da_entry>:
10003d12:	0d0c      	lsrs	r4, r1, #20
10003d14:	0fcf      	lsrs	r7, r1, #31
10003d16:	1e66      	subs	r6, r4, #1
10003d18:	0536      	lsls	r6, r6, #20
10003d1a:	1b89      	subs	r1, r1, r6
10003d1c:	0564      	lsls	r4, r4, #21
10003d1e:	d303      	bcc.n	10003d28 <l7_1>
10003d20:	43c9      	mvns	r1, r1
10003d22:	4240      	negs	r0, r0
10003d24:	d300      	bcc.n	10003d28 <l7_1>
10003d26:	3101      	adds	r1, #1

10003d28 <l7_1>:
10003d28:	0d64      	lsrs	r4, r4, #21
10003d2a:	d003      	beq.n	10003d34 <l7_2>
10003d2c:	1c66      	adds	r6, r4, #1
10003d2e:	0af6      	lsrs	r6, r6, #11
10003d30:	d007      	beq.n	10003d42 <l7_3>
10003d32:	1be4      	subs	r4, r4, r7

10003d34 <l7_2>:
10003d34:	2000      	movs	r0, #0
10003d36:	007f      	lsls	r7, r7, #1
10003d38:	1c79      	adds	r1, r7, #1
10003d3a:	0789      	lsls	r1, r1, #30
10003d3c:	1289      	asrs	r1, r1, #10
10003d3e:	3c80      	subs	r4, #128	; 0x80
10003d40:	0324      	lsls	r4, r4, #12

10003d42 <l7_3>:
10003d42:	0d1d      	lsrs	r5, r3, #20
10003d44:	0fdf      	lsrs	r7, r3, #31
10003d46:	1e6e      	subs	r6, r5, #1
10003d48:	0536      	lsls	r6, r6, #20
10003d4a:	1b9b      	subs	r3, r3, r6
10003d4c:	056d      	lsls	r5, r5, #21
10003d4e:	d303      	bcc.n	10003d58 <l8_1>
10003d50:	43db      	mvns	r3, r3
10003d52:	4252      	negs	r2, r2
10003d54:	d300      	bcc.n	10003d58 <l8_1>
10003d56:	3301      	adds	r3, #1

10003d58 <l8_1>:
10003d58:	0d6d      	lsrs	r5, r5, #21
10003d5a:	d003      	beq.n	10003d64 <l8_2>
10003d5c:	1c6e      	adds	r6, r5, #1
10003d5e:	0af6      	lsrs	r6, r6, #11
10003d60:	d007      	beq.n	10003d72 <l8_3>
10003d62:	1bed      	subs	r5, r5, r7

10003d64 <l8_2>:
10003d64:	2200      	movs	r2, #0
10003d66:	007f      	lsls	r7, r7, #1
10003d68:	1c7b      	adds	r3, r7, #1
10003d6a:	079b      	lsls	r3, r3, #30
10003d6c:	129b      	asrs	r3, r3, #10
10003d6e:	3d80      	subs	r5, #128	; 0x80
10003d70:	032d      	lsls	r5, r5, #12

10003d72 <l8_3>:
10003d72:	1b2f      	subs	r7, r5, r4
10003d74:	1b66      	subs	r6, r4, r5
10003d76:	d458      	bmi.n	10003e2a <da_ygtx>
10003d78:	46a4      	mov	ip, r4
10003d7a:	2e20      	cmp	r6, #32
10003d7c:	da46      	bge.n	10003e0c <da_xrgty>
10003d7e:	3720      	adds	r7, #32
10003d80:	0014      	movs	r4, r2
10003d82:	40bc      	lsls	r4, r7

10003d84 <da_xgty0>:
10003d84:	001d      	movs	r5, r3
10003d86:	40bd      	lsls	r5, r7
10003d88:	40f2      	lsrs	r2, r6
10003d8a:	4133      	asrs	r3, r6
10003d8c:	432a      	orrs	r2, r5

10003d8e <da_add>:
10003d8e:	1880      	adds	r0, r0, r2
10003d90:	4159      	adcs	r1, r3

10003d92 <da_pack>:
10003d92:	0fcb      	lsrs	r3, r1, #31
10003d94:	d005      	beq.n	10003da2 <da_pack+0x10>
10003d96:	43c9      	mvns	r1, r1
10003d98:	43c0      	mvns	r0, r0
10003d9a:	2200      	movs	r2, #0
10003d9c:	4264      	negs	r4, r4
10003d9e:	4150      	adcs	r0, r2
10003da0:	4151      	adcs	r1, r2
10003da2:	4662      	mov	r2, ip
10003da4:	0d4d      	lsrs	r5, r1, #21
10003da6:	d128      	bne.n	10003dfa <da_0>
10003da8:	0d0d      	lsrs	r5, r1, #20
10003daa:	d107      	bne.n	10003dbc <da_1>
10003dac:	2800      	cmp	r0, #0
10003dae:	d01f      	beq.n	10003df0 <da_5>

10003db0 <da_2>:
10003db0:	1924      	adds	r4, r4, r4
10003db2:	4140      	adcs	r0, r0
10003db4:	4149      	adcs	r1, r1
10003db6:	3a01      	subs	r2, #1
10003db8:	0d0d      	lsrs	r5, r1, #20
10003dba:	d0f9      	beq.n	10003db0 <da_2>

10003dbc <da_1>:
10003dbc:	0064      	lsls	r4, r4, #1
10003dbe:	d306      	bcc.n	10003dce <da_3>

10003dc0 <da_4>:
10003dc0:	3001      	adds	r0, #1
10003dc2:	d300      	bcc.n	10003dc6 <da_4+0x6>
10003dc4:	3101      	adds	r1, #1
10003dc6:	2c00      	cmp	r4, #0
10003dc8:	d101      	bne.n	10003dce <da_3>
10003dca:	0840      	lsrs	r0, r0, #1
10003dcc:	0040      	lsls	r0, r0, #1

10003dce <da_3>:
10003dce:	3a01      	subs	r2, #1
10003dd0:	d40b      	bmi.n	10003dea <da_6>
10003dd2:	1c94      	adds	r4, r2, #2
10003dd4:	0ae4      	lsrs	r4, r4, #11
10003dd6:	d104      	bne.n	10003de2 <da_7>
10003dd8:	0512      	lsls	r2, r2, #20
10003dda:	4411      	add	r1, r2
10003ddc:	07db      	lsls	r3, r3, #31
10003dde:	4419      	add	r1, r3
10003de0:	bdf0      	pop	{r4, r5, r6, r7, pc}

10003de2 <da_7>:
10003de2:	07d9      	lsls	r1, r3, #31
10003de4:	4b20      	ldr	r3, [pc, #128]	; (10003e68 <da_xmgty+0x4>)
10003de6:	4319      	orrs	r1, r3
10003de8:	e000      	b.n	10003dec <da_6+0x2>

10003dea <da_6>:
10003dea:	07d9      	lsls	r1, r3, #31
10003dec:	2000      	movs	r0, #0
10003dee:	bdf0      	pop	{r4, r5, r6, r7, pc}

10003df0 <da_5>:
10003df0:	2900      	cmp	r1, #0
10003df2:	d1dd      	bne.n	10003db0 <da_2>
10003df4:	2c00      	cmp	r4, #0
10003df6:	d1db      	bne.n	10003db0 <da_2>
10003df8:	bdf0      	pop	{r4, r5, r6, r7, pc}

10003dfa <da_0>:
10003dfa:	3201      	adds	r2, #1
10003dfc:	07c6      	lsls	r6, r0, #31
10003dfe:	0840      	lsrs	r0, r0, #1
10003e00:	07cd      	lsls	r5, r1, #31
10003e02:	4328      	orrs	r0, r5
10003e04:	0849      	lsrs	r1, r1, #1
10003e06:	2e00      	cmp	r6, #0
10003e08:	d0e1      	beq.n	10003dce <da_3>
10003e0a:	e7d9      	b.n	10003dc0 <da_4>

10003e0c <da_xrgty>:
10003e0c:	2e3c      	cmp	r6, #60	; 0x3c
10003e0e:	da29      	bge.n	10003e64 <da_xmgty>
10003e10:	3e20      	subs	r6, #32
10003e12:	3740      	adds	r7, #64	; 0x40
10003e14:	0014      	movs	r4, r2
10003e16:	40bc      	lsls	r4, r7
10003e18:	d000      	beq.n	10003e1c <da_xrgty+0x10>
10003e1a:	2401      	movs	r4, #1
10003e1c:	40f2      	lsrs	r2, r6
10003e1e:	4314      	orrs	r4, r2
10003e20:	001a      	movs	r2, r3
10003e22:	40bb      	lsls	r3, r7
10003e24:	431c      	orrs	r4, r3
10003e26:	17d3      	asrs	r3, r2, #31
10003e28:	e7ac      	b.n	10003d84 <da_xgty0>

10003e2a <da_ygtx>:
10003e2a:	46ac      	mov	ip, r5
10003e2c:	2f20      	cmp	r7, #32
10003e2e:	da08      	bge.n	10003e42 <da_yrgtx>
10003e30:	3620      	adds	r6, #32
10003e32:	0004      	movs	r4, r0
10003e34:	40b4      	lsls	r4, r6

10003e36 <da_ygtx0>:
10003e36:	000d      	movs	r5, r1
10003e38:	40b5      	lsls	r5, r6
10003e3a:	40f8      	lsrs	r0, r7
10003e3c:	4139      	asrs	r1, r7
10003e3e:	4328      	orrs	r0, r5
10003e40:	e7a5      	b.n	10003d8e <da_add>

10003e42 <da_yrgtx>:
10003e42:	2f3c      	cmp	r7, #60	; 0x3c
10003e44:	da0c      	bge.n	10003e60 <da_ymgtx>
10003e46:	3f20      	subs	r7, #32
10003e48:	3640      	adds	r6, #64	; 0x40
10003e4a:	0004      	movs	r4, r0
10003e4c:	40b4      	lsls	r4, r6
10003e4e:	d000      	beq.n	10003e52 <da_yrgtx+0x10>
10003e50:	2401      	movs	r4, #1
10003e52:	40f8      	lsrs	r0, r7
10003e54:	4304      	orrs	r4, r0
10003e56:	0008      	movs	r0, r1
10003e58:	40b1      	lsls	r1, r6
10003e5a:	430c      	orrs	r4, r1
10003e5c:	17c1      	asrs	r1, r0, #31
10003e5e:	e7ea      	b.n	10003e36 <da_ygtx0>

10003e60 <da_ymgtx>:
10003e60:	0010      	movs	r0, r2
10003e62:	0019      	movs	r1, r3

10003e64 <da_xmgty>:
10003e64:	2400      	movs	r4, #0
10003e66:	e794      	b.n	10003d92 <da_pack>
10003e68:	7ff00000 	.word	0x7ff00000

10003e6c <dmul_shim>:
10003e6c:	b5f0      	push	{r4, r5, r6, r7, lr}
10003e6e:	0d0c      	lsrs	r4, r1, #20
10003e70:	1e66      	subs	r6, r4, #1
10003e72:	0536      	lsls	r6, r6, #20
10003e74:	1b89      	subs	r1, r1, r6
10003e76:	0ae6      	lsrs	r6, r4, #11
10003e78:	0564      	lsls	r4, r4, #21
10003e7a:	0d64      	lsrs	r4, r4, #21
10003e7c:	d002      	beq.n	10003e84 <l11_1>
10003e7e:	1c65      	adds	r5, r4, #1
10003e80:	0aed      	lsrs	r5, r5, #11
10003e82:	d004      	beq.n	10003e8e <l11_2>

10003e84 <l11_1>:
10003e84:	2000      	movs	r0, #0
10003e86:	2101      	movs	r1, #1
10003e88:	0509      	lsls	r1, r1, #20
10003e8a:	3c80      	subs	r4, #128	; 0x80
10003e8c:	0324      	lsls	r4, r4, #12

10003e8e <l11_2>:
10003e8e:	46a4      	mov	ip, r4
10003e90:	0d1c      	lsrs	r4, r3, #20
10003e92:	1e67      	subs	r7, r4, #1
10003e94:	053f      	lsls	r7, r7, #20
10003e96:	1bdb      	subs	r3, r3, r7
10003e98:	0ae7      	lsrs	r7, r4, #11
10003e9a:	0564      	lsls	r4, r4, #21
10003e9c:	0d64      	lsrs	r4, r4, #21
10003e9e:	d002      	beq.n	10003ea6 <l12_1>
10003ea0:	1c65      	adds	r5, r4, #1
10003ea2:	0aed      	lsrs	r5, r5, #11
10003ea4:	d004      	beq.n	10003eb0 <l12_2>

10003ea6 <l12_1>:
10003ea6:	2200      	movs	r2, #0
10003ea8:	2301      	movs	r3, #1
10003eaa:	051b      	lsls	r3, r3, #20
10003eac:	3c80      	subs	r4, #128	; 0x80
10003eae:	0324      	lsls	r4, r4, #12

10003eb0 <l12_2>:
10003eb0:	4077      	eors	r7, r6
10003eb2:	4464      	add	r4, ip
10003eb4:	b497      	push	{r0, r1, r2, r4, r7}
10003eb6:	b284      	uxth	r4, r0
10003eb8:	b296      	uxth	r6, r2
10003eba:	4374      	muls	r4, r6
10003ebc:	0c07      	lsrs	r7, r0, #16
10003ebe:	437e      	muls	r6, r7
10003ec0:	0c15      	lsrs	r5, r2, #16
10003ec2:	436f      	muls	r7, r5
10003ec4:	b280      	uxth	r0, r0
10003ec6:	4368      	muls	r0, r5
10003ec8:	1836      	adds	r6, r6, r0
10003eca:	d302      	bcc.n	10003ed2 <l13_1>
10003ecc:	2001      	movs	r0, #1
10003ece:	0400      	lsls	r0, r0, #16
10003ed0:	183f      	adds	r7, r7, r0

10003ed2 <l13_1>:
10003ed2:	0430      	lsls	r0, r6, #16
10003ed4:	0c35      	lsrs	r5, r6, #16
10003ed6:	1900      	adds	r0, r0, r4
10003ed8:	417d      	adcs	r5, r7
10003eda:	4684      	mov	ip, r0
10003edc:	b288      	uxth	r0, r1
10003ede:	b29a      	uxth	r2, r3
10003ee0:	4350      	muls	r0, r2
10003ee2:	0c0c      	lsrs	r4, r1, #16
10003ee4:	4362      	muls	r2, r4
10003ee6:	0c1f      	lsrs	r7, r3, #16
10003ee8:	437c      	muls	r4, r7
10003eea:	b28e      	uxth	r6, r1
10003eec:	437e      	muls	r6, r7
10003eee:	1992      	adds	r2, r2, r6
10003ef0:	d302      	bcc.n	10003ef8 <l14_1>
10003ef2:	2601      	movs	r6, #1
10003ef4:	0436      	lsls	r6, r6, #16
10003ef6:	19a4      	adds	r4, r4, r6

10003ef8 <l14_1>:
10003ef8:	0416      	lsls	r6, r2, #16
10003efa:	0c17      	lsrs	r7, r2, #16
10003efc:	1836      	adds	r6, r6, r0
10003efe:	4167      	adcs	r7, r4
10003f00:	bc01      	pop	{r0}
10003f02:	b281      	uxth	r1, r0
10003f04:	b29a      	uxth	r2, r3
10003f06:	4351      	muls	r1, r2
10003f08:	0c04      	lsrs	r4, r0, #16
10003f0a:	4362      	muls	r2, r4
10003f0c:	0c1b      	lsrs	r3, r3, #16
10003f0e:	435c      	muls	r4, r3
10003f10:	b280      	uxth	r0, r0
10003f12:	4358      	muls	r0, r3
10003f14:	1812      	adds	r2, r2, r0
10003f16:	d302      	bcc.n	10003f1e <l15_1>
10003f18:	2001      	movs	r0, #1
10003f1a:	0400      	lsls	r0, r0, #16
10003f1c:	1824      	adds	r4, r4, r0

10003f1e <l15_1>:
10003f1e:	0410      	lsls	r0, r2, #16
10003f20:	0c13      	lsrs	r3, r2, #16
10003f22:	1840      	adds	r0, r0, r1
10003f24:	4163      	adcs	r3, r4
10003f26:	182d      	adds	r5, r5, r0
10003f28:	415e      	adcs	r6, r3
10003f2a:	2000      	movs	r0, #0
10003f2c:	4147      	adcs	r7, r0
10003f2e:	bc06      	pop	{r1, r2}
10003f30:	b288      	uxth	r0, r1
10003f32:	b293      	uxth	r3, r2
10003f34:	4358      	muls	r0, r3
10003f36:	0c0c      	lsrs	r4, r1, #16
10003f38:	4363      	muls	r3, r4
10003f3a:	0c12      	lsrs	r2, r2, #16
10003f3c:	4354      	muls	r4, r2
10003f3e:	b289      	uxth	r1, r1
10003f40:	4351      	muls	r1, r2
10003f42:	185b      	adds	r3, r3, r1
10003f44:	d302      	bcc.n	10003f4c <l16_1>
10003f46:	2101      	movs	r1, #1
10003f48:	0409      	lsls	r1, r1, #16
10003f4a:	1864      	adds	r4, r4, r1

10003f4c <l16_1>:
10003f4c:	0419      	lsls	r1, r3, #16
10003f4e:	0c1a      	lsrs	r2, r3, #16
10003f50:	1809      	adds	r1, r1, r0
10003f52:	4162      	adcs	r2, r4
10003f54:	186d      	adds	r5, r5, r1
10003f56:	4156      	adcs	r6, r2
10003f58:	2000      	movs	r0, #0
10003f5a:	4147      	adcs	r7, r0
10003f5c:	bc18      	pop	{r3, r4}
10003f5e:	02f9      	lsls	r1, r7, #11
10003f60:	0d72      	lsrs	r2, r6, #21
10003f62:	4311      	orrs	r1, r2
10003f64:	02f0      	lsls	r0, r6, #11
10003f66:	0d6a      	lsrs	r2, r5, #21
10003f68:	4310      	orrs	r0, r2
10003f6a:	02ed      	lsls	r5, r5, #11
10003f6c:	0d0a      	lsrs	r2, r1, #20
10003f6e:	d103      	bne.n	10003f78 <l16_1+0x2c>
10003f70:	196d      	adds	r5, r5, r5
10003f72:	4140      	adcs	r0, r0
10003f74:	4149      	adcs	r1, r1
10003f76:	3b01      	subs	r3, #1
10003f78:	4e12      	ldr	r6, [pc, #72]	; (10003fc4 <dm_1+0xa>)
10003f7a:	1b9b      	subs	r3, r3, r6
10003f7c:	0076      	lsls	r6, r6, #1
10003f7e:	42b3      	cmp	r3, r6
10003f80:	d20e      	bcs.n	10003fa0 <dm_0>
10003f82:	006d      	lsls	r5, r5, #1
10003f84:	d307      	bcc.n	10003f96 <l16_1+0x4a>
10003f86:	3001      	adds	r0, #1
10003f88:	2600      	movs	r6, #0
10003f8a:	4171      	adcs	r1, r6
10003f8c:	4666      	mov	r6, ip
10003f8e:	4335      	orrs	r5, r6
10003f90:	d101      	bne.n	10003f96 <l16_1+0x4a>
10003f92:	0840      	lsrs	r0, r0, #1
10003f94:	0040      	lsls	r0, r0, #1
10003f96:	051b      	lsls	r3, r3, #20
10003f98:	18c9      	adds	r1, r1, r3

10003f9a <dm_2>:
10003f9a:	07e4      	lsls	r4, r4, #31
10003f9c:	4421      	add	r1, r4
10003f9e:	bdf0      	pop	{r4, r5, r6, r7, pc}

10003fa0 <dm_0>:
10003fa0:	da0b      	bge.n	10003fba <dm_1>
10003fa2:	3301      	adds	r3, #1
10003fa4:	d106      	bne.n	10003fb4 <dm_0+0x14>
10003fa6:	3001      	adds	r0, #1
10003fa8:	d104      	bne.n	10003fb4 <dm_0+0x14>
10003faa:	3101      	adds	r1, #1
10003fac:	0d4f      	lsrs	r7, r1, #21
10003fae:	d001      	beq.n	10003fb4 <dm_0+0x14>
10003fb0:	0849      	lsrs	r1, r1, #1
10003fb2:	e7f2      	b.n	10003f9a <dm_2>
10003fb4:	07e1      	lsls	r1, r4, #31
10003fb6:	2000      	movs	r0, #0
10003fb8:	bdf0      	pop	{r4, r5, r6, r7, pc}

10003fba <dm_1>:
10003fba:	3601      	adds	r6, #1
10003fbc:	0531      	lsls	r1, r6, #20
10003fbe:	2000      	movs	r0, #0
10003fc0:	e7eb      	b.n	10003f9a <dm_2>
10003fc2:	0000      	.short	0x0000
10003fc4:	000003ff 	.word	0x000003ff

10003fc8 <ddiv_shim>:
10003fc8:	b5f0      	push	{r4, r5, r6, r7, lr}

10003fca <ddiv0>:
10003fca:	0d1c      	lsrs	r4, r3, #20
10003fcc:	1e67      	subs	r7, r4, #1
10003fce:	053f      	lsls	r7, r7, #20
10003fd0:	1bdb      	subs	r3, r3, r7
10003fd2:	0ae7      	lsrs	r7, r4, #11
10003fd4:	0564      	lsls	r4, r4, #21
10003fd6:	0d64      	lsrs	r4, r4, #21
10003fd8:	d002      	beq.n	10003fe0 <l19_1>
10003fda:	1c66      	adds	r6, r4, #1
10003fdc:	0af6      	lsrs	r6, r6, #11
10003fde:	d004      	beq.n	10003fea <l19_2>

10003fe0 <l19_1>:
10003fe0:	2200      	movs	r2, #0
10003fe2:	2301      	movs	r3, #1
10003fe4:	051b      	lsls	r3, r3, #20
10003fe6:	3c80      	subs	r4, #128	; 0x80
10003fe8:	0324      	lsls	r4, r4, #12

10003fea <l19_2>:
10003fea:	25d0      	movs	r5, #208	; 0xd0
10003fec:	062d      	lsls	r5, r5, #24
10003fee:	2600      	movs	r6, #0
10003ff0:	43f6      	mvns	r6, r6
10003ff2:	662e      	str	r6, [r5, #96]	; 0x60
10003ff4:	091e      	lsrs	r6, r3, #4
10003ff6:	666e      	str	r6, [r5, #100]	; 0x64
10003ff8:	0fce      	lsrs	r6, r1, #31
10003ffa:	19f6      	adds	r6, r6, r7
10003ffc:	46b4      	mov	ip, r6
10003ffe:	0049      	lsls	r1, r1, #1
10004000:	0d4f      	lsrs	r7, r1, #21
10004002:	d002      	beq.n	1000400a <l19_2+0x20>
10004004:	1c7e      	adds	r6, r7, #1
10004006:	0af6      	lsrs	r6, r6, #11
10004008:	d003      	beq.n	10004012 <l19_2+0x28>
1000400a:	2000      	movs	r0, #0
1000400c:	2100      	movs	r1, #0
1000400e:	3f40      	subs	r7, #64	; 0x40
10004010:	033f      	lsls	r7, r7, #12
10004012:	1b3e      	subs	r6, r7, r4
10004014:	00b6      	lsls	r6, r6, #2
10004016:	44b4      	add	ip, r6
10004018:	3f01      	subs	r7, #1
1000401a:	057f      	lsls	r7, r7, #21
1000401c:	1bc9      	subs	r1, r1, r7
1000401e:	0849      	lsrs	r1, r1, #1
10004020:	6f2e      	ldr	r6, [r5, #112]	; 0x70
10004022:	3601      	adds	r6, #1
10004024:	0876      	lsrs	r6, r6, #1
10004026:	029c      	lsls	r4, r3, #10
10004028:	0d95      	lsrs	r5, r2, #22
1000402a:	4325      	orrs	r5, r4
1000402c:	4375      	muls	r5, r6
1000402e:	13ed      	asrs	r5, r5, #15
10004030:	4375      	muls	r5, r6
10004032:	13ad      	asrs	r5, r5, #14
10004034:	3501      	adds	r5, #1
10004036:	106d      	asrs	r5, r5, #1
10004038:	03f6      	lsls	r6, r6, #15
1000403a:	1b76      	subs	r6, r6, r5
1000403c:	b40c      	push	{r2, r3}
1000403e:	02cc      	lsls	r4, r1, #11
10004040:	0d45      	lsrs	r5, r0, #21
10004042:	432c      	orrs	r4, r5
10004044:	b2a2      	uxth	r2, r4
10004046:	b2b3      	uxth	r3, r6
10004048:	435a      	muls	r2, r3
1000404a:	0c27      	lsrs	r7, r4, #16
1000404c:	437b      	muls	r3, r7
1000404e:	0c35      	lsrs	r5, r6, #16
10004050:	436f      	muls	r7, r5
10004052:	b2a4      	uxth	r4, r4
10004054:	436c      	muls	r4, r5
10004056:	191b      	adds	r3, r3, r4
10004058:	d302      	bcc.n	10004060 <l20_1>
1000405a:	2401      	movs	r4, #1
1000405c:	0424      	lsls	r4, r4, #16
1000405e:	193f      	adds	r7, r7, r4

10004060 <l20_1>:
10004060:	041c      	lsls	r4, r3, #16
10004062:	0c1d      	lsrs	r5, r3, #16
10004064:	18a4      	adds	r4, r4, r2
10004066:	417d      	adcs	r5, r7
10004068:	1924      	adds	r4, r4, r4
1000406a:	416d      	adcs	r5, r5
1000406c:	9a00      	ldr	r2, [sp, #0]
1000406e:	b291      	uxth	r1, r2
10004070:	b2ac      	uxth	r4, r5
10004072:	4361      	muls	r1, r4
10004074:	0c17      	lsrs	r7, r2, #16
10004076:	437c      	muls	r4, r7
10004078:	0c2b      	lsrs	r3, r5, #16
1000407a:	435f      	muls	r7, r3
1000407c:	b292      	uxth	r2, r2
1000407e:	435a      	muls	r2, r3
10004080:	18a4      	adds	r4, r4, r2
10004082:	d302      	bcc.n	1000408a <l21_1>
10004084:	2201      	movs	r2, #1
10004086:	0412      	lsls	r2, r2, #16
10004088:	18bf      	adds	r7, r7, r2

1000408a <l21_1>:
1000408a:	0422      	lsls	r2, r4, #16
1000408c:	0c23      	lsrs	r3, r4, #16
1000408e:	1852      	adds	r2, r2, r1
10004090:	417b      	adcs	r3, r7
10004092:	9c01      	ldr	r4, [sp, #4]
10004094:	436c      	muls	r4, r5
10004096:	191b      	adds	r3, r3, r4
10004098:	0e52      	lsrs	r2, r2, #25
1000409a:	01d9      	lsls	r1, r3, #7
1000409c:	430a      	orrs	r2, r1
1000409e:	0144      	lsls	r4, r0, #5
100040a0:	1aa0      	subs	r0, r4, r2
100040a2:	b281      	uxth	r1, r0
100040a4:	b2b2      	uxth	r2, r6
100040a6:	4351      	muls	r1, r2
100040a8:	1403      	asrs	r3, r0, #16
100040aa:	435a      	muls	r2, r3
100040ac:	0c36      	lsrs	r6, r6, #16
100040ae:	4373      	muls	r3, r6
100040b0:	b287      	uxth	r7, r0
100040b2:	4377      	muls	r7, r6
100040b4:	17d6      	asrs	r6, r2, #31
100040b6:	19d2      	adds	r2, r2, r7
100040b8:	2700      	movs	r7, #0
100040ba:	417e      	adcs	r6, r7
100040bc:	0436      	lsls	r6, r6, #16
100040be:	199b      	adds	r3, r3, r6
100040c0:	0417      	lsls	r7, r2, #16
100040c2:	0c16      	lsrs	r6, r2, #16
100040c4:	187f      	adds	r7, r7, r1
100040c6:	415e      	adcs	r6, r3
100040c8:	1673      	asrs	r3, r6, #25
100040ca:	18ed      	adds	r5, r5, r3
100040cc:	01f3      	lsls	r3, r6, #7
100040ce:	2600      	movs	r6, #0
100040d0:	3380      	adds	r3, #128	; 0x80
100040d2:	4175      	adcs	r5, r6
100040d4:	0fa9      	lsrs	r1, r5, #30
100040d6:	d106      	bne.n	100040e6 <dd_0>
100040d8:	0064      	lsls	r4, r4, #1
100040da:	0a69      	lsrs	r1, r5, #9
100040dc:	05e8      	lsls	r0, r5, #23
100040de:	0a5b      	lsrs	r3, r3, #9
100040e0:	4318      	orrs	r0, r3
100040e2:	d209      	bcs.n	100040f8 <dd_1>
100040e4:	e02f      	b.n	10004146 <dd_2>

100040e6 <dd_0>:
100040e6:	2204      	movs	r2, #4
100040e8:	4494      	add	ip, r2
100040ea:	3380      	adds	r3, #128	; 0x80
100040ec:	4175      	adcs	r5, r6
100040ee:	0aa9      	lsrs	r1, r5, #10
100040f0:	05a8      	lsls	r0, r5, #22
100040f2:	0a9b      	lsrs	r3, r3, #10
100040f4:	4318      	orrs	r0, r3
100040f6:	d326      	bcc.n	10004146 <dd_2>

100040f8 <dd_1>:
100040f8:	4140      	adcs	r0, r0
100040fa:	4149      	adcs	r1, r1
100040fc:	0424      	lsls	r4, r4, #16
100040fe:	9a00      	ldr	r2, [sp, #0]
10004100:	9b01      	ldr	r3, [sp, #4]
10004102:	000d      	movs	r5, r1
10004104:	4355      	muls	r5, r2
10004106:	1b64      	subs	r4, r4, r5
10004108:	4343      	muls	r3, r0
1000410a:	1ae4      	subs	r4, r4, r3
1000410c:	b295      	uxth	r5, r2
1000410e:	b286      	uxth	r6, r0
10004110:	4375      	muls	r5, r6
10004112:	0c17      	lsrs	r7, r2, #16
10004114:	437e      	muls	r6, r7
10004116:	0c03      	lsrs	r3, r0, #16
10004118:	435f      	muls	r7, r3
1000411a:	b292      	uxth	r2, r2
1000411c:	435a      	muls	r2, r3
1000411e:	18b6      	adds	r6, r6, r2
10004120:	d302      	bcc.n	10004128 <l23_1>
10004122:	2201      	movs	r2, #1
10004124:	0412      	lsls	r2, r2, #16
10004126:	18bf      	adds	r7, r7, r2

10004128 <l23_1>:
10004128:	0432      	lsls	r2, r6, #16
1000412a:	0c33      	lsrs	r3, r6, #16
1000412c:	1952      	adds	r2, r2, r5
1000412e:	417b      	adcs	r3, r7
10004130:	4252      	negs	r2, r2
10004132:	419c      	sbcs	r4, r3
10004134:	2c00      	cmp	r4, #0
10004136:	d402      	bmi.n	1000413e <l23_1+0x16>
10004138:	2200      	movs	r2, #0
1000413a:	3001      	adds	r0, #1
1000413c:	4151      	adcs	r1, r2
1000413e:	0840      	lsrs	r0, r0, #1
10004140:	07ca      	lsls	r2, r1, #31
10004142:	4310      	orrs	r0, r2
10004144:	0849      	lsrs	r1, r1, #1

10004146 <dd_2>:
10004146:	b002      	add	sp, #8
10004148:	4662      	mov	r2, ip
1000414a:	07d7      	lsls	r7, r2, #31
1000414c:	1092      	asrs	r2, r2, #2
1000414e:	4b08      	ldr	r3, [pc, #32]	; (10004170 <dd_4+0x6>)
10004150:	18d2      	adds	r2, r2, r3
10004152:	4b08      	ldr	r3, [pc, #32]	; (10004174 <dd_4+0xa>)
10004154:	429a      	cmp	r2, r3
10004156:	d203      	bcs.n	10004160 <dd_3>
10004158:	0512      	lsls	r2, r2, #20
1000415a:	1889      	adds	r1, r1, r2

1000415c <dd_5>:
1000415c:	19c9      	adds	r1, r1, r7
1000415e:	bdf0      	pop	{r4, r5, r6, r7, pc}

10004160 <dd_3>:
10004160:	2000      	movs	r0, #0
10004162:	2a00      	cmp	r2, #0
10004164:	dc01      	bgt.n	1000416a <dd_4>
10004166:	0039      	movs	r1, r7
10004168:	bdf0      	pop	{r4, r5, r6, r7, pc}

1000416a <dd_4>:
1000416a:	3301      	adds	r3, #1
1000416c:	0519      	lsls	r1, r3, #20
1000416e:	e7f5      	b.n	1000415c <dd_5>
10004170:	000003fd 	.word	0x000003fd
10004174:	000007fe 	.word	0x000007fe

10004178 <dcordic_rot_step>:
10004178:	4662      	mov	r2, ip
1000417a:	ca18      	ldmia	r2!, {r3, r4}
1000417c:	4694      	mov	ip, r2
1000417e:	2900      	cmp	r1, #0
10004180:	da1a      	bge.n	100041b8 <dcordic_rot_step+0x40>
10004182:	18c0      	adds	r0, r0, r3
10004184:	4161      	adcs	r1, r4
10004186:	465b      	mov	r3, fp
10004188:	413b      	asrs	r3, r7
1000418a:	465c      	mov	r4, fp
1000418c:	40b4      	lsls	r4, r6
1000418e:	4652      	mov	r2, sl
10004190:	40fa      	lsrs	r2, r7
10004192:	4322      	orrs	r2, r4
10004194:	4644      	mov	r4, r8
10004196:	464d      	mov	r5, r9
10004198:	4162      	adcs	r2, r4
1000419a:	416b      	adcs	r3, r5
1000419c:	4690      	mov	r8, r2
1000419e:	4699      	mov	r9, r3
100041a0:	462b      	mov	r3, r5
100041a2:	40b3      	lsls	r3, r6
100041a4:	413d      	asrs	r5, r7
100041a6:	40fc      	lsrs	r4, r7
100041a8:	431c      	orrs	r4, r3
100041aa:	4652      	mov	r2, sl
100041ac:	465b      	mov	r3, fp
100041ae:	41a2      	sbcs	r2, r4
100041b0:	41ab      	sbcs	r3, r5
100041b2:	4692      	mov	sl, r2
100041b4:	469b      	mov	fp, r3
100041b6:	4770      	bx	lr
100041b8:	1ac0      	subs	r0, r0, r3
100041ba:	41a1      	sbcs	r1, r4
100041bc:	464b      	mov	r3, r9
100041be:	413b      	asrs	r3, r7
100041c0:	464c      	mov	r4, r9
100041c2:	40b4      	lsls	r4, r6
100041c4:	4642      	mov	r2, r8
100041c6:	40fa      	lsrs	r2, r7
100041c8:	4322      	orrs	r2, r4
100041ca:	4654      	mov	r4, sl
100041cc:	465d      	mov	r5, fp
100041ce:	4162      	adcs	r2, r4
100041d0:	416b      	adcs	r3, r5
100041d2:	4692      	mov	sl, r2
100041d4:	469b      	mov	fp, r3
100041d6:	462b      	mov	r3, r5
100041d8:	40b3      	lsls	r3, r6
100041da:	413d      	asrs	r5, r7
100041dc:	40fc      	lsrs	r4, r7
100041de:	431c      	orrs	r4, r3
100041e0:	4642      	mov	r2, r8
100041e2:	464b      	mov	r3, r9
100041e4:	41a2      	sbcs	r2, r4
100041e6:	41ab      	sbcs	r3, r5
100041e8:	4690      	mov	r8, r2
100041ea:	4699      	mov	r9, r3
100041ec:	4770      	bx	lr

100041ee <ret_dzero>:
100041ee:	2000      	movs	r0, #0
100041f0:	2100      	movs	r1, #0
100041f2:	4770      	bx	lr

100041f4 <double2uint_shim>:
100041f4:	2200      	movs	r2, #0

100041f6 <double2ufix_shim>:
100041f6:	b500      	push	{lr}
100041f8:	3220      	adds	r2, #32
100041fa:	f000 f804 	bl	10004206 <double2ufix64_shim>
100041fe:	0008      	movs	r0, r1
10004200:	bd00      	pop	{pc}
	...

10004204 <double2uint64_shim>:
10004204:	2200      	movs	r2, #0

10004206 <double2ufix64_shim>:
10004206:	150b      	asrs	r3, r1, #20
10004208:	d4f1      	bmi.n	100041ee <ret_dzero>

1000420a <d2fix>:
1000420a:	b510      	push	{r4, lr}
1000420c:	4694      	mov	ip, r2
1000420e:	f000 f82f 	bl	10004270 <dunpacks>
10004212:	1414      	asrs	r4, r2, #16
10004214:	3401      	adds	r4, #1
10004216:	da00      	bge.n	1000421a <d2fix+0x10>
10004218:	2100      	movs	r1, #0
1000421a:	17cb      	asrs	r3, r1, #31
1000421c:	4c13      	ldr	r4, [pc, #76]	; (1000426c <d2fix_a+0x4c>)
1000421e:	4720      	bx	r4

10004220 <d2fix_a>:
10004220:	4462      	add	r2, ip
10004222:	3a34      	subs	r2, #52	; 0x34
10004224:	d40c      	bmi.n	10004240 <d2fix_a+0x20>
10004226:	2a0c      	cmp	r2, #12
10004228:	da07      	bge.n	1000423a <d2fix_a+0x1a>
1000422a:	0004      	movs	r4, r0
1000422c:	4091      	lsls	r1, r2
1000422e:	4090      	lsls	r0, r2
10004230:	4252      	negs	r2, r2
10004232:	3220      	adds	r2, #32
10004234:	40d4      	lsrs	r4, r2
10004236:	4321      	orrs	r1, r4
10004238:	bd10      	pop	{r4, pc}
1000423a:	43d8      	mvns	r0, r3
1000423c:	43d9      	mvns	r1, r3
1000423e:	bd10      	pop	{r4, pc}
10004240:	3220      	adds	r2, #32
10004242:	d407      	bmi.n	10004254 <d2fix_a+0x34>
10004244:	460c      	mov	r4, r1
10004246:	4094      	lsls	r4, r2
10004248:	4252      	negs	r2, r2
1000424a:	3220      	adds	r2, #32
1000424c:	4111      	asrs	r1, r2
1000424e:	40d0      	lsrs	r0, r2
10004250:	4320      	orrs	r0, r4
10004252:	bd10      	pop	{r4, pc}
10004254:	0008      	movs	r0, r1
10004256:	17c9      	asrs	r1, r1, #31
10004258:	3220      	adds	r2, #32
1000425a:	d403      	bmi.n	10004264 <d2fix_a+0x44>
1000425c:	4252      	negs	r2, r2
1000425e:	3220      	adds	r2, #32
10004260:	4110      	asrs	r0, r2
10004262:	bd10      	pop	{r4, pc}
10004264:	0018      	movs	r0, r3
10004266:	0019      	movs	r1, r3
10004268:	bd10      	pop	{r4, pc}
1000426a:	0000      	.short	0x0000
1000426c:	10004221 	.word	0x10004221

10004270 <dunpacks>:
10004270:	0d0a      	lsrs	r2, r1, #20
10004272:	0fcc      	lsrs	r4, r1, #31
10004274:	1e53      	subs	r3, r2, #1
10004276:	051b      	lsls	r3, r3, #20
10004278:	1ac9      	subs	r1, r1, r3
1000427a:	0552      	lsls	r2, r2, #21
1000427c:	d303      	bcc.n	10004286 <l60_1>
1000427e:	43c9      	mvns	r1, r1
10004280:	4240      	negs	r0, r0
10004282:	d300      	bcc.n	10004286 <l60_1>
10004284:	3101      	adds	r1, #1

10004286 <l60_1>:
10004286:	0d52      	lsrs	r2, r2, #21
10004288:	d003      	beq.n	10004292 <l60_2>
1000428a:	1c53      	adds	r3, r2, #1
1000428c:	0adb      	lsrs	r3, r3, #11
1000428e:	d007      	beq.n	100042a0 <l60_3>
10004290:	1b12      	subs	r2, r2, r4

10004292 <l60_2>:
10004292:	2000      	movs	r0, #0
10004294:	0064      	lsls	r4, r4, #1
10004296:	1c61      	adds	r1, r4, #1
10004298:	0789      	lsls	r1, r1, #30
1000429a:	1289      	asrs	r1, r1, #10
1000429c:	3a80      	subs	r2, #128	; 0x80
1000429e:	0312      	lsls	r2, r2, #12

100042a0 <l60_3>:
100042a0:	4b01      	ldr	r3, [pc, #4]	; (100042a8 <l60_3+0x8>)
100042a2:	1ad2      	subs	r2, r2, r3
100042a4:	4770      	bx	lr
100042a6:	0000      	.short	0x0000
100042a8:	000003ff 	.word	0x000003ff

100042ac <__wrap___aeabi_lmul>:
100042ac:	4351      	muls	r1, r2
100042ae:	4343      	muls	r3, r0
100042b0:	18c9      	adds	r1, r1, r3
100042b2:	468c      	mov	ip, r1
100042b4:	0c11      	lsrs	r1, r2, #16
100042b6:	b283      	uxth	r3, r0
100042b8:	434b      	muls	r3, r1
100042ba:	b410      	push	{r4}
100042bc:	0c04      	lsrs	r4, r0, #16
100042be:	4361      	muls	r1, r4
100042c0:	b292      	uxth	r2, r2
100042c2:	b280      	uxth	r0, r0
100042c4:	4350      	muls	r0, r2
100042c6:	4362      	muls	r2, r4
100042c8:	041c      	lsls	r4, r3, #16
100042ca:	0c1b      	lsrs	r3, r3, #16
100042cc:	1900      	adds	r0, r0, r4
100042ce:	bc10      	pop	{r4}
100042d0:	4159      	adcs	r1, r3
100042d2:	0413      	lsls	r3, r2, #16
100042d4:	0c12      	lsrs	r2, r2, #16
100042d6:	18c0      	adds	r0, r0, r3
100042d8:	4151      	adcs	r1, r2
100042da:	4461      	add	r1, ip
100042dc:	4770      	bx	lr
	...

100042e0 <__aeabi_float_init>:
100042e0:	2313      	movs	r3, #19
100042e2:	b510      	push	{r4, lr}
100042e4:	4812      	ldr	r0, [pc, #72]	; (10004330 <__aeabi_float_init+0x50>)
100042e6:	781c      	ldrb	r4, [r3, #0]
100042e8:	f7ff f934 	bl	10003554 <rom_data_lookup>
100042ec:	0001      	movs	r1, r0
100042ee:	2c01      	cmp	r4, #1
100042f0:	d00a      	beq.n	10004308 <__aeabi_float_init+0x28>
100042f2:	dd03      	ble.n	100042fc <__aeabi_float_init+0x1c>
100042f4:	2280      	movs	r2, #128	; 0x80
100042f6:	480f      	ldr	r0, [pc, #60]	; (10004334 <__aeabi_float_init+0x54>)
100042f8:	f000 f850 	bl	1000439c <__wrap___aeabi_memcpy>
100042fc:	480e      	ldr	r0, [pc, #56]	; (10004338 <__aeabi_float_init+0x58>)
100042fe:	f7ff f921 	bl	10003544 <rom_func_lookup>
10004302:	4b0e      	ldr	r3, [pc, #56]	; (1000433c <__aeabi_float_init+0x5c>)
10004304:	6018      	str	r0, [r3, #0]
10004306:	bd10      	pop	{r4, pc}
10004308:	4c0a      	ldr	r4, [pc, #40]	; (10004334 <__aeabi_float_init+0x54>)
1000430a:	2254      	movs	r2, #84	; 0x54
1000430c:	0020      	movs	r0, r4
1000430e:	f000 f845 	bl	1000439c <__wrap___aeabi_memcpy>
10004312:	4b0b      	ldr	r3, [pc, #44]	; (10004340 <__aeabi_float_init+0x60>)
10004314:	6563      	str	r3, [r4, #84]	; 0x54
10004316:	65a3      	str	r3, [r4, #88]	; 0x58
10004318:	65e3      	str	r3, [r4, #92]	; 0x5c
1000431a:	6623      	str	r3, [r4, #96]	; 0x60
1000431c:	6663      	str	r3, [r4, #100]	; 0x64
1000431e:	66a3      	str	r3, [r4, #104]	; 0x68
10004320:	66e3      	str	r3, [r4, #108]	; 0x6c
10004322:	6723      	str	r3, [r4, #112]	; 0x70
10004324:	6763      	str	r3, [r4, #116]	; 0x74
10004326:	67a3      	str	r3, [r4, #120]	; 0x78
10004328:	67e3      	str	r3, [r4, #124]	; 0x7c
1000432a:	6223      	str	r3, [r4, #32]
1000432c:	61e3      	str	r3, [r4, #28]
1000432e:	e7e5      	b.n	100042fc <__aeabi_float_init+0x1c>
10004330:	00004653 	.word	0x00004653
10004334:	20000c30 	.word	0x20000c30
10004338:	0000334c 	.word	0x0000334c
1000433c:	20000d30 	.word	0x20000d30
10004340:	10004345 	.word	0x10004345

10004344 <float_table_shim_on_use_helper>:
10004344:	b507      	push	{r0, r1, r2, lr}
10004346:	4660      	mov	r0, ip
10004348:	8801      	ldrh	r1, [r0, #0]
1000434a:	0a0a      	lsrs	r2, r1, #8
1000434c:	3002      	adds	r0, #2
1000434e:	2adf      	cmp	r2, #223	; 0xdf
10004350:	d1fa      	bne.n	10004348 <float_table_shim_on_use_helper+0x4>
10004352:	b2c9      	uxtb	r1, r1
10004354:	0882      	lsrs	r2, r0, #2
10004356:	d304      	bcc.n	10004362 <float_table_shim_on_use_helper+0x1e>
10004358:	8802      	ldrh	r2, [r0, #0]
1000435a:	8840      	ldrh	r0, [r0, #2]
1000435c:	0400      	lsls	r0, r0, #16
1000435e:	4310      	orrs	r0, r2
10004360:	e000      	b.n	10004364 <float_table_shim_on_use_helper+0x20>
10004362:	6800      	ldr	r0, [r0, #0]
10004364:	4a01      	ldr	r2, [pc, #4]	; (1000436c <float_table_shim_on_use_helper+0x28>)
10004366:	5050      	str	r0, [r2, r1]
10004368:	9003      	str	r0, [sp, #12]
1000436a:	bd07      	pop	{r0, r1, r2, pc}
1000436c:	20000c30 	.word	0x20000c30

10004370 <__wrap_malloc>:
10004370:	b510      	push	{r4, lr}
10004372:	f000 fa79 	bl	10004868 <malloc>
10004376:	bd10      	pop	{r4, pc}

10004378 <__wrap_calloc>:
10004378:	b510      	push	{r4, lr}
1000437a:	f000 fa3b 	bl	100047f4 <calloc>
1000437e:	bd10      	pop	{r4, pc}

10004380 <__aeabi_mem_init>:
10004380:	4801      	ldr	r0, [pc, #4]	; (10004388 <__aeabi_mem_init+0x8>)
10004382:	2104      	movs	r1, #4
10004384:	4b01      	ldr	r3, [pc, #4]	; (1000438c <__aeabi_mem_init+0xc>)
10004386:	4718      	bx	r3
10004388:	200001f0 	.word	0x200001f0
1000438c:	10003565 	.word	0x10003565

10004390 <__wrap_memset>:
10004390:	4b01      	ldr	r3, [pc, #4]	; (10004398 <__wrap_memset+0x8>)
10004392:	681b      	ldr	r3, [r3, #0]
10004394:	4718      	bx	r3
10004396:	0000      	.short	0x0000
10004398:	200001f0 	.word	0x200001f0

1000439c <__wrap___aeabi_memcpy>:
1000439c:	4b01      	ldr	r3, [pc, #4]	; (100043a4 <__wrap___aeabi_memcpy+0x8>)
1000439e:	685b      	ldr	r3, [r3, #4]
100043a0:	4718      	bx	r3
100043a2:	0000      	.short	0x0000
100043a4:	200001f0 	.word	0x200001f0

100043a8 <stdio_out_chars_crlf.part.0>:
100043a8:	b5f8      	push	{r3, r4, r5, r6, r7, lr}
100043aa:	4647      	mov	r7, r8
100043ac:	46ce      	mov	lr, r9
100043ae:	000d      	movs	r5, r1
100043b0:	b580      	push	{r7, lr}
100043b2:	0016      	movs	r6, r2
100043b4:	0007      	movs	r7, r0
100043b6:	2a00      	cmp	r2, #0
100043b8:	dd20      	ble.n	100043fc <stdio_out_chars_crlf.part.0+0x54>
100043ba:	1e4b      	subs	r3, r1, #1
100043bc:	4698      	mov	r8, r3
100043be:	4b1a      	ldr	r3, [pc, #104]	; (10004428 <stdio_out_chars_crlf.part.0+0x80>)
100043c0:	2400      	movs	r4, #0
100043c2:	2000      	movs	r0, #0
100043c4:	4699      	mov	r9, r3
100043c6:	2c00      	cmp	r4, #0
100043c8:	d02b      	beq.n	10004422 <stdio_out_chars_crlf.part.0+0x7a>
100043ca:	4643      	mov	r3, r8
100043cc:	5d1b      	ldrb	r3, [r3, r4]
100043ce:	3b0d      	subs	r3, #13
100043d0:	425a      	negs	r2, r3
100043d2:	4153      	adcs	r3, r2
100043d4:	b2db      	uxtb	r3, r3
100043d6:	5d2a      	ldrb	r2, [r5, r4]
100043d8:	2a0a      	cmp	r2, #10
100043da:	d013      	beq.n	10004404 <stdio_out_chars_crlf.part.0+0x5c>
100043dc:	3401      	adds	r4, #1
100043de:	42a6      	cmp	r6, r4
100043e0:	dcf1      	bgt.n	100043c6 <stdio_out_chars_crlf.part.0+0x1e>
100043e2:	4286      	cmp	r6, r0
100043e4:	dd03      	ble.n	100043ee <stdio_out_chars_crlf.part.0+0x46>
100043e6:	1a31      	subs	r1, r6, r0
100043e8:	683b      	ldr	r3, [r7, #0]
100043ea:	1828      	adds	r0, r5, r0
100043ec:	4798      	blx	r3
100043ee:	19ad      	adds	r5, r5, r6
100043f0:	3d01      	subs	r5, #1
100043f2:	782b      	ldrb	r3, [r5, #0]
100043f4:	3b0d      	subs	r3, #13
100043f6:	425a      	negs	r2, r3
100043f8:	4153      	adcs	r3, r2
100043fa:	743b      	strb	r3, [r7, #16]
100043fc:	bc0c      	pop	{r2, r3}
100043fe:	4690      	mov	r8, r2
10004400:	4699      	mov	r9, r3
10004402:	bdf8      	pop	{r3, r4, r5, r6, r7, pc}
10004404:	2b00      	cmp	r3, #0
10004406:	d1e9      	bne.n	100043dc <stdio_out_chars_crlf.part.0+0x34>
10004408:	42a0      	cmp	r0, r4
1000440a:	da03      	bge.n	10004414 <stdio_out_chars_crlf.part.0+0x6c>
1000440c:	1a21      	subs	r1, r4, r0
1000440e:	683b      	ldr	r3, [r7, #0]
10004410:	1828      	adds	r0, r5, r0
10004412:	4798      	blx	r3
10004414:	4648      	mov	r0, r9
10004416:	2102      	movs	r1, #2
10004418:	683b      	ldr	r3, [r7, #0]
1000441a:	3401      	adds	r4, #1
1000441c:	4798      	blx	r3
1000441e:	0020      	movs	r0, r4
10004420:	e7dd      	b.n	100043de <stdio_out_chars_crlf.part.0+0x36>
10004422:	7c3b      	ldrb	r3, [r7, #16]
10004424:	e7d7      	b.n	100043d6 <stdio_out_chars_crlf.part.0+0x2e>
10004426:	46c0      	nop			; (mov r8, r8)
10004428:	100054d8 	.word	0x100054d8

1000442c <stdio_buffered_printer>:
1000442c:	b5f8      	push	{r3, r4, r5, r6, r7, lr}
1000442e:	4647      	mov	r7, r8
10004430:	46ce      	mov	lr, r9
10004432:	000c      	movs	r4, r1
10004434:	6809      	ldr	r1, [r1, #0]
10004436:	b580      	push	{r7, lr}
10004438:	0007      	movs	r7, r0
1000443a:	2980      	cmp	r1, #128	; 0x80
1000443c:	d007      	beq.n	1000444e <stdio_buffered_printer+0x22>
1000443e:	1c4b      	adds	r3, r1, #1
10004440:	6023      	str	r3, [r4, #0]
10004442:	1864      	adds	r4, r4, r1
10004444:	7127      	strb	r7, [r4, #4]
10004446:	bc0c      	pop	{r2, r3}
10004448:	4690      	mov	r8, r2
1000444a:	4699      	mov	r9, r3
1000444c:	bdf8      	pop	{r3, r4, r5, r6, r7, pc}
1000444e:	4b13      	ldr	r3, [pc, #76]	; (1000449c <stdio_buffered_printer+0x70>)
10004450:	681d      	ldr	r5, [r3, #0]
10004452:	2d00      	cmp	r5, #0
10004454:	d01b      	beq.n	1000448e <stdio_buffered_printer+0x62>
10004456:	4b12      	ldr	r3, [pc, #72]	; (100044a0 <stdio_buffered_printer+0x74>)
10004458:	4698      	mov	r8, r3
1000445a:	1d23      	adds	r3, r4, #4
1000445c:	4699      	mov	r9, r3
1000445e:	e002      	b.n	10004466 <stdio_buffered_printer+0x3a>
10004460:	68ed      	ldr	r5, [r5, #12]
10004462:	2d00      	cmp	r5, #0
10004464:	d013      	beq.n	1000448e <stdio_buffered_printer+0x62>
10004466:	682e      	ldr	r6, [r5, #0]
10004468:	2e00      	cmp	r6, #0
1000446a:	d0f9      	beq.n	10004460 <stdio_buffered_printer+0x34>
1000446c:	4643      	mov	r3, r8
1000446e:	681b      	ldr	r3, [r3, #0]
10004470:	2b00      	cmp	r3, #0
10004472:	d001      	beq.n	10004478 <stdio_buffered_printer+0x4c>
10004474:	429d      	cmp	r5, r3
10004476:	d1f3      	bne.n	10004460 <stdio_buffered_printer+0x34>
10004478:	7c6b      	ldrb	r3, [r5, #17]
1000447a:	6822      	ldr	r2, [r4, #0]
1000447c:	2b00      	cmp	r3, #0
1000447e:	d009      	beq.n	10004494 <stdio_buffered_printer+0x68>
10004480:	0028      	movs	r0, r5
10004482:	4649      	mov	r1, r9
10004484:	f7ff ff90 	bl	100043a8 <stdio_out_chars_crlf.part.0>
10004488:	68ed      	ldr	r5, [r5, #12]
1000448a:	2d00      	cmp	r5, #0
1000448c:	d1eb      	bne.n	10004466 <stdio_buffered_printer+0x3a>
1000448e:	2301      	movs	r3, #1
10004490:	2100      	movs	r1, #0
10004492:	e7d5      	b.n	10004440 <stdio_buffered_printer+0x14>
10004494:	0011      	movs	r1, r2
10004496:	4648      	mov	r0, r9
10004498:	47b0      	blx	r6
1000449a:	e7e1      	b.n	10004460 <stdio_buffered_printer+0x34>
1000449c:	20000af8 	.word	0x20000af8
100044a0:	20000afc 	.word	0x20000afc

100044a4 <stdio_put_string>:
100044a4:	b5f0      	push	{r4, r5, r6, r7, lr}
100044a6:	4657      	mov	r7, sl
100044a8:	4645      	mov	r5, r8
100044aa:	46de      	mov	lr, fp
100044ac:	464e      	mov	r6, r9
100044ae:	23d0      	movs	r3, #208	; 0xd0
100044b0:	b5e0      	push	{r5, r6, r7, lr}
100044b2:	061b      	lsls	r3, r3, #24
100044b4:	681c      	ldr	r4, [r3, #0]
100044b6:	4b37      	ldr	r3, [pc, #220]	; (10004594 <stdio_put_string+0xf0>)
100044b8:	b083      	sub	sp, #12
100044ba:	0007      	movs	r7, r0
100044bc:	000d      	movs	r5, r1
100044be:	0018      	movs	r0, r3
100044c0:	a901      	add	r1, sp, #4
100044c2:	4690      	mov	r8, r2
100044c4:	469a      	mov	sl, r3
100044c6:	f000 fe37 	bl	10005138 <__mutex_try_enter_veneer>
100044ca:	4681      	mov	r9, r0
100044cc:	2800      	cmp	r0, #0
100044ce:	d107      	bne.n	100044e0 <stdio_put_string+0x3c>
100044d0:	9b01      	ldr	r3, [sp, #4]
100044d2:	429c      	cmp	r4, r3
100044d4:	d004      	beq.n	100044e0 <stdio_put_string+0x3c>
100044d6:	4650      	mov	r0, sl
100044d8:	f000 fe36 	bl	10005148 <__mutex_enter_blocking_veneer>
100044dc:	2301      	movs	r3, #1
100044de:	4699      	mov	r9, r3
100044e0:	1c6b      	adds	r3, r5, #1
100044e2:	d103      	bne.n	100044ec <stdio_put_string+0x48>
100044e4:	0038      	movs	r0, r7
100044e6:	f000 fcab 	bl	10004e40 <strlen>
100044ea:	0005      	movs	r5, r0
100044ec:	4b2a      	ldr	r3, [pc, #168]	; (10004598 <stdio_put_string+0xf4>)
100044ee:	681c      	ldr	r4, [r3, #0]
100044f0:	2c00      	cmp	r4, #0
100044f2:	d02f      	beq.n	10004554 <stdio_put_string+0xb0>
100044f4:	230a      	movs	r3, #10
100044f6:	4e29      	ldr	r6, [pc, #164]	; (1000459c <stdio_put_string+0xf8>)
100044f8:	469b      	mov	fp, r3
100044fa:	e002      	b.n	10004502 <stdio_put_string+0x5e>
100044fc:	68e4      	ldr	r4, [r4, #12]
100044fe:	2c00      	cmp	r4, #0
10004500:	d028      	beq.n	10004554 <stdio_put_string+0xb0>
10004502:	6822      	ldr	r2, [r4, #0]
10004504:	2a00      	cmp	r2, #0
10004506:	d0f9      	beq.n	100044fc <stdio_put_string+0x58>
10004508:	6833      	ldr	r3, [r6, #0]
1000450a:	2b00      	cmp	r3, #0
1000450c:	d001      	beq.n	10004512 <stdio_put_string+0x6e>
1000450e:	42a3      	cmp	r3, r4
10004510:	d1f4      	bne.n	100044fc <stdio_put_string+0x58>
10004512:	7c63      	ldrb	r3, [r4, #17]
10004514:	2b00      	cmp	r3, #0
10004516:	d02a      	beq.n	1000456e <stdio_put_string+0xca>
10004518:	002a      	movs	r2, r5
1000451a:	0039      	movs	r1, r7
1000451c:	0020      	movs	r0, r4
1000451e:	f7ff ff43 	bl	100043a8 <stdio_out_chars_crlf.part.0>
10004522:	4643      	mov	r3, r8
10004524:	2b00      	cmp	r3, #0
10004526:	d0e9      	beq.n	100044fc <stdio_put_string+0x58>
10004528:	466b      	mov	r3, sp
1000452a:	465a      	mov	r2, fp
1000452c:	711a      	strb	r2, [r3, #4]
1000452e:	7c63      	ldrb	r3, [r4, #17]
10004530:	2b00      	cmp	r3, #0
10004532:	d020      	beq.n	10004576 <stdio_put_string+0xd2>
10004534:	7c23      	ldrb	r3, [r4, #16]
10004536:	2b00      	cmp	r3, #0
10004538:	d026      	beq.n	10004588 <stdio_put_string+0xe4>
1000453a:	2101      	movs	r1, #1
1000453c:	6823      	ldr	r3, [r4, #0]
1000453e:	a801      	add	r0, sp, #4
10004540:	4798      	blx	r3
10004542:	466b      	mov	r3, sp
10004544:	791b      	ldrb	r3, [r3, #4]
10004546:	3b0d      	subs	r3, #13
10004548:	425a      	negs	r2, r3
1000454a:	4153      	adcs	r3, r2
1000454c:	7423      	strb	r3, [r4, #16]
1000454e:	68e4      	ldr	r4, [r4, #12]
10004550:	2c00      	cmp	r4, #0
10004552:	d1d6      	bne.n	10004502 <stdio_put_string+0x5e>
10004554:	464b      	mov	r3, r9
10004556:	2b00      	cmp	r3, #0
10004558:	d112      	bne.n	10004580 <stdio_put_string+0xdc>
1000455a:	1e68      	subs	r0, r5, #1
1000455c:	4185      	sbcs	r5, r0
1000455e:	b2e8      	uxtb	r0, r5
10004560:	b003      	add	sp, #12
10004562:	bc3c      	pop	{r2, r3, r4, r5}
10004564:	4690      	mov	r8, r2
10004566:	4699      	mov	r9, r3
10004568:	46a2      	mov	sl, r4
1000456a:	46ab      	mov	fp, r5
1000456c:	bdf0      	pop	{r4, r5, r6, r7, pc}
1000456e:	0029      	movs	r1, r5
10004570:	0038      	movs	r0, r7
10004572:	4790      	blx	r2
10004574:	e7d5      	b.n	10004522 <stdio_put_string+0x7e>
10004576:	2101      	movs	r1, #1
10004578:	6823      	ldr	r3, [r4, #0]
1000457a:	a801      	add	r0, sp, #4
1000457c:	4798      	blx	r3
1000457e:	e7bd      	b.n	100044fc <stdio_put_string+0x58>
10004580:	4650      	mov	r0, sl
10004582:	f000 fdc1 	bl	10005108 <__mutex_exit_veneer>
10004586:	e7e8      	b.n	1000455a <stdio_put_string+0xb6>
10004588:	2102      	movs	r1, #2
1000458a:	4805      	ldr	r0, [pc, #20]	; (100045a0 <stdio_put_string+0xfc>)
1000458c:	6823      	ldr	r3, [r4, #0]
1000458e:	4798      	blx	r3
10004590:	e7d7      	b.n	10004542 <stdio_put_string+0x9e>
10004592:	46c0      	nop			; (mov r8, r8)
10004594:	20000a50 	.word	0x20000a50
10004598:	20000af8 	.word	0x20000af8
1000459c:	20000afc 	.word	0x20000afc
100045a0:	100054d8 	.word	0x100054d8

100045a4 <__wrap_putchar>:
100045a4:	b510      	push	{r4, lr}
100045a6:	b082      	sub	sp, #8
100045a8:	466b      	mov	r3, sp
100045aa:	0004      	movs	r4, r0
100045ac:	2200      	movs	r2, #0
100045ae:	1dd8      	adds	r0, r3, #7
100045b0:	2101      	movs	r1, #1
100045b2:	7004      	strb	r4, [r0, #0]
100045b4:	f7ff ff76 	bl	100044a4 <stdio_put_string>
100045b8:	0020      	movs	r0, r4
100045ba:	b002      	add	sp, #8
100045bc:	bd10      	pop	{r4, pc}
100045be:	46c0      	nop			; (mov r8, r8)

100045c0 <__wrap_puts>:
100045c0:	b570      	push	{r4, r5, r6, lr}
100045c2:	0004      	movs	r4, r0
100045c4:	f000 fc3c 	bl	10004e40 <strlen>
100045c8:	2201      	movs	r2, #1
100045ca:	0001      	movs	r1, r0
100045cc:	0005      	movs	r5, r0
100045ce:	0020      	movs	r0, r4
100045d0:	f7ff ff68 	bl	100044a4 <stdio_put_string>
100045d4:	4b08      	ldr	r3, [pc, #32]	; (100045f8 <__wrap_puts+0x38>)
100045d6:	681c      	ldr	r4, [r3, #0]
100045d8:	2c00      	cmp	r4, #0
100045da:	d006      	beq.n	100045ea <__wrap_puts+0x2a>
100045dc:	6863      	ldr	r3, [r4, #4]
100045de:	2b00      	cmp	r3, #0
100045e0:	d005      	beq.n	100045ee <__wrap_puts+0x2e>
100045e2:	4798      	blx	r3
100045e4:	68e4      	ldr	r4, [r4, #12]
100045e6:	2c00      	cmp	r4, #0
100045e8:	d1f8      	bne.n	100045dc <__wrap_puts+0x1c>
100045ea:	0028      	movs	r0, r5
100045ec:	bd70      	pop	{r4, r5, r6, pc}
100045ee:	68e4      	ldr	r4, [r4, #12]
100045f0:	2c00      	cmp	r4, #0
100045f2:	d1f3      	bne.n	100045dc <__wrap_puts+0x1c>
100045f4:	e7f9      	b.n	100045ea <__wrap_puts+0x2a>
100045f6:	46c0      	nop			; (mov r8, r8)
100045f8:	20000af8 	.word	0x20000af8

100045fc <stdio_set_driver_enabled>:
100045fc:	4a0d      	ldr	r2, [pc, #52]	; (10004634 <stdio_set_driver_enabled+0x38>)
100045fe:	6813      	ldr	r3, [r2, #0]
10004600:	2b00      	cmp	r3, #0
10004602:	d013      	beq.n	1000462c <stdio_set_driver_enabled+0x30>
10004604:	4283      	cmp	r3, r0
10004606:	d102      	bne.n	1000460e <stdio_set_driver_enabled+0x12>
10004608:	e009      	b.n	1000461e <stdio_set_driver_enabled+0x22>
1000460a:	4298      	cmp	r0, r3
1000460c:	d008      	beq.n	10004620 <stdio_set_driver_enabled+0x24>
1000460e:	001a      	movs	r2, r3
10004610:	68db      	ldr	r3, [r3, #12]
10004612:	2b00      	cmp	r3, #0
10004614:	d1f9      	bne.n	1000460a <stdio_set_driver_enabled+0xe>
10004616:	2900      	cmp	r1, #0
10004618:	d000      	beq.n	1000461c <stdio_set_driver_enabled+0x20>
1000461a:	60d0      	str	r0, [r2, #12]
1000461c:	4770      	bx	lr
1000461e:	001a      	movs	r2, r3
10004620:	2900      	cmp	r1, #0
10004622:	d1fb      	bne.n	1000461c <stdio_set_driver_enabled+0x20>
10004624:	68db      	ldr	r3, [r3, #12]
10004626:	60d3      	str	r3, [r2, #12]
10004628:	60c1      	str	r1, [r0, #12]
1000462a:	e7f7      	b.n	1000461c <stdio_set_driver_enabled+0x20>
1000462c:	2900      	cmp	r1, #0
1000462e:	d0f5      	beq.n	1000461c <stdio_set_driver_enabled+0x20>
10004630:	6010      	str	r0, [r2, #0]
10004632:	e7f3      	b.n	1000461c <stdio_set_driver_enabled+0x20>
10004634:	20000af8 	.word	0x20000af8

10004638 <__wrap_vprintf>:
10004638:	b5f0      	push	{r4, r5, r6, r7, lr}
1000463a:	4646      	mov	r6, r8
1000463c:	46d6      	mov	lr, sl
1000463e:	464f      	mov	r7, r9
10004640:	23d0      	movs	r3, #208	; 0xd0
10004642:	b5c0      	push	{r6, r7, lr}
10004644:	061b      	lsls	r3, r3, #24
10004646:	681f      	ldr	r7, [r3, #0]
10004648:	4b31      	ldr	r3, [pc, #196]	; (10004710 <__wrap_vprintf+0xd8>)
1000464a:	b0a2      	sub	sp, #136	; 0x88
1000464c:	0004      	movs	r4, r0
1000464e:	000d      	movs	r5, r1
10004650:	0018      	movs	r0, r3
10004652:	a901      	add	r1, sp, #4
10004654:	4698      	mov	r8, r3
10004656:	f000 fd6f 	bl	10005138 <__mutex_try_enter_veneer>
1000465a:	1e06      	subs	r6, r0, #0
1000465c:	d106      	bne.n	1000466c <__wrap_vprintf+0x34>
1000465e:	9b01      	ldr	r3, [sp, #4]
10004660:	429f      	cmp	r7, r3
10004662:	d003      	beq.n	1000466c <__wrap_vprintf+0x34>
10004664:	4640      	mov	r0, r8
10004666:	f000 fd6f 	bl	10005148 <__mutex_enter_blocking_veneer>
1000466a:	3601      	adds	r6, #1
1000466c:	2284      	movs	r2, #132	; 0x84
1000466e:	2100      	movs	r1, #0
10004670:	a801      	add	r0, sp, #4
10004672:	f7ff fe8d 	bl	10004390 <__wrap_memset>
10004676:	002b      	movs	r3, r5
10004678:	0022      	movs	r2, r4
1000467a:	4826      	ldr	r0, [pc, #152]	; (10004714 <__wrap_vprintf+0xdc>)
1000467c:	a901      	add	r1, sp, #4
1000467e:	f7fe ff31 	bl	100034e4 <vfctprintf>
10004682:	9b01      	ldr	r3, [sp, #4]
10004684:	0007      	movs	r7, r0
10004686:	2b00      	cmp	r3, #0
10004688:	d115      	bne.n	100046b6 <__wrap_vprintf+0x7e>
1000468a:	4b23      	ldr	r3, [pc, #140]	; (10004718 <__wrap_vprintf+0xe0>)
1000468c:	681c      	ldr	r4, [r3, #0]
1000468e:	2c00      	cmp	r4, #0
10004690:	d006      	beq.n	100046a0 <__wrap_vprintf+0x68>
10004692:	6863      	ldr	r3, [r4, #4]
10004694:	2b00      	cmp	r3, #0
10004696:	d00c      	beq.n	100046b2 <__wrap_vprintf+0x7a>
10004698:	4798      	blx	r3
1000469a:	68e4      	ldr	r4, [r4, #12]
1000469c:	2c00      	cmp	r4, #0
1000469e:	d1f8      	bne.n	10004692 <__wrap_vprintf+0x5a>
100046a0:	2e00      	cmp	r6, #0
100046a2:	d12f      	bne.n	10004704 <__wrap_vprintf+0xcc>
100046a4:	0038      	movs	r0, r7
100046a6:	b022      	add	sp, #136	; 0x88
100046a8:	bc1c      	pop	{r2, r3, r4}
100046aa:	4690      	mov	r8, r2
100046ac:	4699      	mov	r9, r3
100046ae:	46a2      	mov	sl, r4
100046b0:	bdf0      	pop	{r4, r5, r6, r7, pc}
100046b2:	68e4      	ldr	r4, [r4, #12]
100046b4:	e7eb      	b.n	1000468e <__wrap_vprintf+0x56>
100046b6:	4b18      	ldr	r3, [pc, #96]	; (10004718 <__wrap_vprintf+0xe0>)
100046b8:	681d      	ldr	r5, [r3, #0]
100046ba:	469a      	mov	sl, r3
100046bc:	2d00      	cmp	r5, #0
100046be:	d025      	beq.n	1000470c <__wrap_vprintf+0xd4>
100046c0:	4b16      	ldr	r3, [pc, #88]	; (1000471c <__wrap_vprintf+0xe4>)
100046c2:	4699      	mov	r9, r3
100046c4:	e002      	b.n	100046cc <__wrap_vprintf+0x94>
100046c6:	68ed      	ldr	r5, [r5, #12]
100046c8:	2d00      	cmp	r5, #0
100046ca:	d013      	beq.n	100046f4 <__wrap_vprintf+0xbc>
100046cc:	682c      	ldr	r4, [r5, #0]
100046ce:	2c00      	cmp	r4, #0
100046d0:	d0f9      	beq.n	100046c6 <__wrap_vprintf+0x8e>
100046d2:	464b      	mov	r3, r9
100046d4:	681b      	ldr	r3, [r3, #0]
100046d6:	2b00      	cmp	r3, #0
100046d8:	d001      	beq.n	100046de <__wrap_vprintf+0xa6>
100046da:	429d      	cmp	r5, r3
100046dc:	d1f3      	bne.n	100046c6 <__wrap_vprintf+0x8e>
100046de:	7c6b      	ldrb	r3, [r5, #17]
100046e0:	9a01      	ldr	r2, [sp, #4]
100046e2:	2b00      	cmp	r3, #0
100046e4:	d00a      	beq.n	100046fc <__wrap_vprintf+0xc4>
100046e6:	0028      	movs	r0, r5
100046e8:	a902      	add	r1, sp, #8
100046ea:	f7ff fe5d 	bl	100043a8 <stdio_out_chars_crlf.part.0>
100046ee:	68ed      	ldr	r5, [r5, #12]
100046f0:	2d00      	cmp	r5, #0
100046f2:	d1eb      	bne.n	100046cc <__wrap_vprintf+0x94>
100046f4:	4653      	mov	r3, sl
100046f6:	9501      	str	r5, [sp, #4]
100046f8:	681c      	ldr	r4, [r3, #0]
100046fa:	e7c8      	b.n	1000468e <__wrap_vprintf+0x56>
100046fc:	0011      	movs	r1, r2
100046fe:	a802      	add	r0, sp, #8
10004700:	47a0      	blx	r4
10004702:	e7e0      	b.n	100046c6 <__wrap_vprintf+0x8e>
10004704:	4640      	mov	r0, r8
10004706:	f000 fcff 	bl	10005108 <__mutex_exit_veneer>
1000470a:	e7cb      	b.n	100046a4 <__wrap_vprintf+0x6c>
1000470c:	9501      	str	r5, [sp, #4]
1000470e:	e7c7      	b.n	100046a0 <__wrap_vprintf+0x68>
10004710:	20000a50 	.word	0x20000a50
10004714:	1000442d 	.word	0x1000442d
10004718:	20000af8 	.word	0x20000af8
1000471c:	20000afc 	.word	0x20000afc

10004720 <__wrap_printf>:
10004720:	b40f      	push	{r0, r1, r2, r3}
10004722:	b500      	push	{lr}
10004724:	b083      	sub	sp, #12
10004726:	a904      	add	r1, sp, #16
10004728:	c901      	ldmia	r1!, {r0}
1000472a:	9101      	str	r1, [sp, #4]
1000472c:	f7ff ff84 	bl	10004638 <__wrap_vprintf>
10004730:	b003      	add	sp, #12
10004732:	bc08      	pop	{r3}
10004734:	b004      	add	sp, #16
10004736:	4718      	bx	r3

10004738 <stdio_init_all>:
10004738:	b510      	push	{r4, lr}
1000473a:	f000 f83b 	bl	100047b4 <stdio_uart_init>
1000473e:	bd10      	pop	{r4, pc}

10004740 <stdio_uart_out_chars>:
10004740:	b5f0      	push	{r4, r5, r6, r7, lr}
10004742:	2900      	cmp	r1, #0
10004744:	d010      	beq.n	10004768 <stdio_uart_out_chars+0x28>
10004746:	1845      	adds	r5, r0, r1
10004748:	270d      	movs	r7, #13
1000474a:	2120      	movs	r1, #32
1000474c:	4b09      	ldr	r3, [pc, #36]	; (10004774 <stdio_uart_out_chars+0x34>)
1000474e:	4a0a      	ldr	r2, [pc, #40]	; (10004778 <stdio_uart_out_chars+0x38>)
10004750:	2600      	movs	r6, #0
10004752:	5f9e      	ldrsh	r6, [r3, r6]
10004754:	7804      	ldrb	r4, [r0, #0]
10004756:	42a6      	cmp	r6, r4
10004758:	d007      	beq.n	1000476a <stdio_uart_out_chars+0x2a>
1000475a:	6993      	ldr	r3, [r2, #24]
1000475c:	4219      	tst	r1, r3
1000475e:	d1fc      	bne.n	1000475a <stdio_uart_out_chars+0x1a>
10004760:	3001      	adds	r0, #1
10004762:	6014      	str	r4, [r2, #0]
10004764:	42a8      	cmp	r0, r5
10004766:	d1f5      	bne.n	10004754 <stdio_uart_out_chars+0x14>
10004768:	bdf0      	pop	{r4, r5, r6, r7, pc}
1000476a:	6993      	ldr	r3, [r2, #24]
1000476c:	4219      	tst	r1, r3
1000476e:	d1fc      	bne.n	1000476a <stdio_uart_out_chars+0x2a>
10004770:	6017      	str	r7, [r2, #0]
10004772:	e7f2      	b.n	1000475a <stdio_uart_out_chars+0x1a>
10004774:	20000b2c 	.word	0x20000b2c
10004778:	40034000 	.word	0x40034000

1000477c <stdio_uart_in_chars>:
1000477c:	b530      	push	{r4, r5, lr}
1000477e:	0005      	movs	r5, r0
10004780:	2000      	movs	r0, #0
10004782:	2900      	cmp	r1, #0
10004784:	dd10      	ble.n	100047a8 <stdio_uart_in_chars+0x2c>
10004786:	2410      	movs	r4, #16
10004788:	4a09      	ldr	r2, [pc, #36]	; (100047b0 <stdio_uart_in_chars+0x34>)
1000478a:	3d01      	subs	r5, #1
1000478c:	6993      	ldr	r3, [r2, #24]
1000478e:	421c      	tst	r4, r3
10004790:	d108      	bne.n	100047a4 <stdio_uart_in_chars+0x28>
10004792:	3001      	adds	r0, #1
10004794:	6993      	ldr	r3, [r2, #24]
10004796:	421c      	tst	r4, r3
10004798:	d1fc      	bne.n	10004794 <stdio_uart_in_chars+0x18>
1000479a:	6813      	ldr	r3, [r2, #0]
1000479c:	542b      	strb	r3, [r5, r0]
1000479e:	4281      	cmp	r1, r0
100047a0:	d1f4      	bne.n	1000478c <stdio_uart_in_chars+0x10>
100047a2:	bd30      	pop	{r4, r5, pc}
100047a4:	2800      	cmp	r0, #0
100047a6:	d1fc      	bne.n	100047a2 <stdio_uart_in_chars+0x26>
100047a8:	2003      	movs	r0, #3
100047aa:	4240      	negs	r0, r0
100047ac:	e7f9      	b.n	100047a2 <stdio_uart_in_chars+0x26>
100047ae:	46c0      	nop			; (mov r8, r8)
100047b0:	40034000 	.word	0x40034000

100047b4 <stdio_uart_init>:
100047b4:	21e1      	movs	r1, #225	; 0xe1
100047b6:	b510      	push	{r4, lr}
100047b8:	4b0a      	ldr	r3, [pc, #40]	; (100047e4 <stdio_uart_init+0x30>)
100047ba:	0249      	lsls	r1, r1, #9
100047bc:	781b      	ldrb	r3, [r3, #0]
100047be:	4b0a      	ldr	r3, [pc, #40]	; (100047e8 <stdio_uart_init+0x34>)
100047c0:	480a      	ldr	r0, [pc, #40]	; (100047ec <stdio_uart_init+0x38>)
100047c2:	781b      	ldrb	r3, [r3, #0]
100047c4:	f7fb fea8 	bl	10000518 <uart_init>
100047c8:	2102      	movs	r1, #2
100047ca:	2000      	movs	r0, #0
100047cc:	f7fb fe3a 	bl	10000444 <gpio_set_function>
100047d0:	2102      	movs	r1, #2
100047d2:	2001      	movs	r0, #1
100047d4:	f7fb fe36 	bl	10000444 <gpio_set_function>
100047d8:	2101      	movs	r1, #1
100047da:	4805      	ldr	r0, [pc, #20]	; (100047f0 <stdio_uart_init+0x3c>)
100047dc:	f7ff ff0e 	bl	100045fc <stdio_set_driver_enabled>
100047e0:	bd10      	pop	{r4, pc}
100047e2:	46c0      	nop			; (mov r8, r8)
100047e4:	10005538 	.word	0x10005538
100047e8:	1000553c 	.word	0x1000553c
100047ec:	40034000 	.word	0x40034000
100047f0:	20000200 	.word	0x20000200

100047f4 <calloc>:
100047f4:	0003      	movs	r3, r0
100047f6:	b510      	push	{r4, lr}
100047f8:	000a      	movs	r2, r1
100047fa:	4903      	ldr	r1, [pc, #12]	; (10004808 <calloc+0x14>)
100047fc:	6808      	ldr	r0, [r1, #0]
100047fe:	0019      	movs	r1, r3
10004800:	f000 f804 	bl	1000480c <_calloc_r>
10004804:	bd10      	pop	{r4, pc}
10004806:	46c0      	nop			; (mov r8, r8)
10004808:	20000214 	.word	0x20000214

1000480c <_calloc_r>:
1000480c:	b510      	push	{r4, lr}
1000480e:	4351      	muls	r1, r2
10004810:	f000 f834 	bl	1000487c <_malloc_r>
10004814:	1e04      	subs	r4, r0, #0
10004816:	d00e      	beq.n	10004836 <_calloc_r+0x2a>
10004818:	0003      	movs	r3, r0
1000481a:	3b08      	subs	r3, #8
1000481c:	685a      	ldr	r2, [r3, #4]
1000481e:	2303      	movs	r3, #3
10004820:	439a      	bics	r2, r3
10004822:	3a04      	subs	r2, #4
10004824:	2a24      	cmp	r2, #36	; 0x24
10004826:	d815      	bhi.n	10004854 <_calloc_r+0x48>
10004828:	0003      	movs	r3, r0
1000482a:	2a13      	cmp	r2, #19
1000482c:	d805      	bhi.n	1000483a <_calloc_r+0x2e>
1000482e:	2200      	movs	r2, #0
10004830:	601a      	str	r2, [r3, #0]
10004832:	605a      	str	r2, [r3, #4]
10004834:	609a      	str	r2, [r3, #8]
10004836:	0020      	movs	r0, r4
10004838:	bd10      	pop	{r4, pc}
1000483a:	2100      	movs	r1, #0
1000483c:	3308      	adds	r3, #8
1000483e:	6001      	str	r1, [r0, #0]
10004840:	6041      	str	r1, [r0, #4]
10004842:	2a1b      	cmp	r2, #27
10004844:	d9f3      	bls.n	1000482e <_calloc_r+0x22>
10004846:	6081      	str	r1, [r0, #8]
10004848:	60c1      	str	r1, [r0, #12]
1000484a:	2a24      	cmp	r2, #36	; 0x24
1000484c:	d006      	beq.n	1000485c <_calloc_r+0x50>
1000484e:	0003      	movs	r3, r0
10004850:	3310      	adds	r3, #16
10004852:	e7ec      	b.n	1000482e <_calloc_r+0x22>
10004854:	2100      	movs	r1, #0
10004856:	f7ff fd9b 	bl	10004390 <__wrap_memset>
1000485a:	e7ec      	b.n	10004836 <_calloc_r+0x2a>
1000485c:	0003      	movs	r3, r0
1000485e:	6101      	str	r1, [r0, #16]
10004860:	3318      	adds	r3, #24
10004862:	6141      	str	r1, [r0, #20]
10004864:	e7e3      	b.n	1000482e <_calloc_r+0x22>
10004866:	46c0      	nop			; (mov r8, r8)

10004868 <malloc>:
10004868:	b510      	push	{r4, lr}
1000486a:	4b03      	ldr	r3, [pc, #12]	; (10004878 <malloc+0x10>)
1000486c:	0001      	movs	r1, r0
1000486e:	6818      	ldr	r0, [r3, #0]
10004870:	f000 f804 	bl	1000487c <_malloc_r>
10004874:	bd10      	pop	{r4, pc}
10004876:	46c0      	nop			; (mov r8, r8)
10004878:	20000214 	.word	0x20000214

1000487c <_malloc_r>:
1000487c:	b5f0      	push	{r4, r5, r6, r7, lr}
1000487e:	464e      	mov	r6, r9
10004880:	4645      	mov	r5, r8
10004882:	46de      	mov	lr, fp
10004884:	4657      	mov	r7, sl
10004886:	b5e0      	push	{r5, r6, r7, lr}
10004888:	000d      	movs	r5, r1
1000488a:	350b      	adds	r5, #11
1000488c:	0006      	movs	r6, r0
1000488e:	b083      	sub	sp, #12
10004890:	2d16      	cmp	r5, #22
10004892:	d822      	bhi.n	100048da <_malloc_r+0x5e>
10004894:	2910      	cmp	r1, #16
10004896:	d900      	bls.n	1000489a <_malloc_r+0x1e>
10004898:	e0b2      	b.n	10004a00 <_malloc_r+0x184>
1000489a:	f000 faaf 	bl	10004dfc <__malloc_lock>
1000489e:	2510      	movs	r5, #16
100048a0:	2002      	movs	r0, #2
100048a2:	2318      	movs	r3, #24
100048a4:	4fcb      	ldr	r7, [pc, #812]	; (10004bd4 <_malloc_r+0x358>)
100048a6:	18fb      	adds	r3, r7, r3
100048a8:	001a      	movs	r2, r3
100048aa:	685c      	ldr	r4, [r3, #4]
100048ac:	3a08      	subs	r2, #8
100048ae:	4294      	cmp	r4, r2
100048b0:	d100      	bne.n	100048b4 <_malloc_r+0x38>
100048b2:	e0b5      	b.n	10004a20 <_malloc_r+0x1a4>
100048b4:	2303      	movs	r3, #3
100048b6:	6862      	ldr	r2, [r4, #4]
100048b8:	439a      	bics	r2, r3
100048ba:	0013      	movs	r3, r2
100048bc:	68e2      	ldr	r2, [r4, #12]
100048be:	68a1      	ldr	r1, [r4, #8]
100048c0:	60ca      	str	r2, [r1, #12]
100048c2:	6091      	str	r1, [r2, #8]
100048c4:	2201      	movs	r2, #1
100048c6:	18e3      	adds	r3, r4, r3
100048c8:	6859      	ldr	r1, [r3, #4]
100048ca:	0030      	movs	r0, r6
100048cc:	430a      	orrs	r2, r1
100048ce:	605a      	str	r2, [r3, #4]
100048d0:	f000 fa9c 	bl	10004e0c <__malloc_unlock>
100048d4:	0020      	movs	r0, r4
100048d6:	3008      	adds	r0, #8
100048d8:	e095      	b.n	10004a06 <_malloc_r+0x18a>
100048da:	2307      	movs	r3, #7
100048dc:	439d      	bics	r5, r3
100048de:	d500      	bpl.n	100048e2 <_malloc_r+0x66>
100048e0:	e08e      	b.n	10004a00 <_malloc_r+0x184>
100048e2:	42a9      	cmp	r1, r5
100048e4:	d900      	bls.n	100048e8 <_malloc_r+0x6c>
100048e6:	e08b      	b.n	10004a00 <_malloc_r+0x184>
100048e8:	f000 fa88 	bl	10004dfc <__malloc_lock>
100048ec:	23fc      	movs	r3, #252	; 0xfc
100048ee:	005b      	lsls	r3, r3, #1
100048f0:	429d      	cmp	r5, r3
100048f2:	d200      	bcs.n	100048f6 <_malloc_r+0x7a>
100048f4:	e1a5      	b.n	10004c42 <_malloc_r+0x3c6>
100048f6:	0a68      	lsrs	r0, r5, #9
100048f8:	d100      	bne.n	100048fc <_malloc_r+0x80>
100048fa:	e08b      	b.n	10004a14 <_malloc_r+0x198>
100048fc:	2804      	cmp	r0, #4
100048fe:	d900      	bls.n	10004902 <_malloc_r+0x86>
10004900:	e178      	b.n	10004bf4 <_malloc_r+0x378>
10004902:	2338      	movs	r3, #56	; 0x38
10004904:	4698      	mov	r8, r3
10004906:	09a8      	lsrs	r0, r5, #6
10004908:	4480      	add	r8, r0
1000490a:	3039      	adds	r0, #57	; 0x39
1000490c:	00c1      	lsls	r1, r0, #3
1000490e:	4fb1      	ldr	r7, [pc, #708]	; (10004bd4 <_malloc_r+0x358>)
10004910:	1879      	adds	r1, r7, r1
10004912:	684c      	ldr	r4, [r1, #4]
10004914:	3908      	subs	r1, #8
10004916:	42a1      	cmp	r1, r4
10004918:	d00e      	beq.n	10004938 <_malloc_r+0xbc>
1000491a:	2303      	movs	r3, #3
1000491c:	469c      	mov	ip, r3
1000491e:	e004      	b.n	1000492a <_malloc_r+0xae>
10004920:	2a00      	cmp	r2, #0
10004922:	dacb      	bge.n	100048bc <_malloc_r+0x40>
10004924:	68e4      	ldr	r4, [r4, #12]
10004926:	42a1      	cmp	r1, r4
10004928:	d006      	beq.n	10004938 <_malloc_r+0xbc>
1000492a:	4662      	mov	r2, ip
1000492c:	6863      	ldr	r3, [r4, #4]
1000492e:	4393      	bics	r3, r2
10004930:	1b5a      	subs	r2, r3, r5
10004932:	2a0f      	cmp	r2, #15
10004934:	ddf4      	ble.n	10004920 <_malloc_r+0xa4>
10004936:	4640      	mov	r0, r8
10004938:	003a      	movs	r2, r7
1000493a:	693c      	ldr	r4, [r7, #16]
1000493c:	3208      	adds	r2, #8
1000493e:	4294      	cmp	r4, r2
10004940:	d100      	bne.n	10004944 <_malloc_r+0xc8>
10004942:	e078      	b.n	10004a36 <_malloc_r+0x1ba>
10004944:	2303      	movs	r3, #3
10004946:	6861      	ldr	r1, [r4, #4]
10004948:	4399      	bics	r1, r3
1000494a:	4689      	mov	r9, r1
1000494c:	000b      	movs	r3, r1
1000494e:	1b49      	subs	r1, r1, r5
10004950:	290f      	cmp	r1, #15
10004952:	dd00      	ble.n	10004956 <_malloc_r+0xda>
10004954:	e179      	b.n	10004c4a <_malloc_r+0x3ce>
10004956:	617a      	str	r2, [r7, #20]
10004958:	613a      	str	r2, [r7, #16]
1000495a:	2900      	cmp	r1, #0
1000495c:	dab2      	bge.n	100048c4 <_malloc_r+0x48>
1000495e:	2280      	movs	r2, #128	; 0x80
10004960:	0092      	lsls	r2, r2, #2
10004962:	4591      	cmp	r9, r2
10004964:	d300      	bcc.n	10004968 <_malloc_r+0xec>
10004966:	e10e      	b.n	10004b86 <_malloc_r+0x30a>
10004968:	0959      	lsrs	r1, r3, #5
1000496a:	08da      	lsrs	r2, r3, #3
1000496c:	2301      	movs	r3, #1
1000496e:	408b      	lsls	r3, r1
10004970:	00d2      	lsls	r2, r2, #3
10004972:	6879      	ldr	r1, [r7, #4]
10004974:	19d2      	adds	r2, r2, r7
10004976:	430b      	orrs	r3, r1
10004978:	6891      	ldr	r1, [r2, #8]
1000497a:	607b      	str	r3, [r7, #4]
1000497c:	60e2      	str	r2, [r4, #12]
1000497e:	60a1      	str	r1, [r4, #8]
10004980:	6094      	str	r4, [r2, #8]
10004982:	60cc      	str	r4, [r1, #12]
10004984:	2101      	movs	r1, #1
10004986:	1082      	asrs	r2, r0, #2
10004988:	4091      	lsls	r1, r2
1000498a:	4299      	cmp	r1, r3
1000498c:	d859      	bhi.n	10004a42 <_malloc_r+0x1c6>
1000498e:	420b      	tst	r3, r1
10004990:	d105      	bne.n	1000499e <_malloc_r+0x122>
10004992:	2203      	movs	r2, #3
10004994:	4390      	bics	r0, r2
10004996:	0049      	lsls	r1, r1, #1
10004998:	3004      	adds	r0, #4
1000499a:	420b      	tst	r3, r1
1000499c:	d0fb      	beq.n	10004996 <_malloc_r+0x11a>
1000499e:	2303      	movs	r3, #3
100049a0:	4698      	mov	r8, r3
100049a2:	00c3      	lsls	r3, r0, #3
100049a4:	4699      	mov	r9, r3
100049a6:	44b9      	add	r9, r7
100049a8:	46cc      	mov	ip, r9
100049aa:	4682      	mov	sl, r0
100049ac:	4663      	mov	r3, ip
100049ae:	68dc      	ldr	r4, [r3, #12]
100049b0:	45a4      	cmp	ip, r4
100049b2:	d107      	bne.n	100049c4 <_malloc_r+0x148>
100049b4:	e12a      	b.n	10004c0c <_malloc_r+0x390>
100049b6:	2a00      	cmp	r2, #0
100049b8:	db00      	blt.n	100049bc <_malloc_r+0x140>
100049ba:	e133      	b.n	10004c24 <_malloc_r+0x3a8>
100049bc:	68e4      	ldr	r4, [r4, #12]
100049be:	45a4      	cmp	ip, r4
100049c0:	d100      	bne.n	100049c4 <_malloc_r+0x148>
100049c2:	e123      	b.n	10004c0c <_malloc_r+0x390>
100049c4:	4642      	mov	r2, r8
100049c6:	6863      	ldr	r3, [r4, #4]
100049c8:	4393      	bics	r3, r2
100049ca:	1b5a      	subs	r2, r3, r5
100049cc:	2a0f      	cmp	r2, #15
100049ce:	ddf2      	ble.n	100049b6 <_malloc_r+0x13a>
100049d0:	2001      	movs	r0, #1
100049d2:	4680      	mov	r8, r0
100049d4:	1961      	adds	r1, r4, r5
100049d6:	4305      	orrs	r5, r0
100049d8:	6065      	str	r5, [r4, #4]
100049da:	68a0      	ldr	r0, [r4, #8]
100049dc:	68e5      	ldr	r5, [r4, #12]
100049de:	3708      	adds	r7, #8
100049e0:	60c5      	str	r5, [r0, #12]
100049e2:	60a8      	str	r0, [r5, #8]
100049e4:	4640      	mov	r0, r8
100049e6:	4310      	orrs	r0, r2
100049e8:	60f9      	str	r1, [r7, #12]
100049ea:	60b9      	str	r1, [r7, #8]
100049ec:	6048      	str	r0, [r1, #4]
100049ee:	60cf      	str	r7, [r1, #12]
100049f0:	0030      	movs	r0, r6
100049f2:	608f      	str	r7, [r1, #8]
100049f4:	50e2      	str	r2, [r4, r3]
100049f6:	f000 fa09 	bl	10004e0c <__malloc_unlock>
100049fa:	0020      	movs	r0, r4
100049fc:	3008      	adds	r0, #8
100049fe:	e002      	b.n	10004a06 <_malloc_r+0x18a>
10004a00:	230c      	movs	r3, #12
10004a02:	2000      	movs	r0, #0
10004a04:	6033      	str	r3, [r6, #0]
10004a06:	b003      	add	sp, #12
10004a08:	bc3c      	pop	{r2, r3, r4, r5}
10004a0a:	4690      	mov	r8, r2
10004a0c:	4699      	mov	r9, r3
10004a0e:	46a2      	mov	sl, r4
10004a10:	46ab      	mov	fp, r5
10004a12:	bdf0      	pop	{r4, r5, r6, r7, pc}
10004a14:	2180      	movs	r1, #128	; 0x80
10004a16:	233f      	movs	r3, #63	; 0x3f
10004a18:	2040      	movs	r0, #64	; 0x40
10004a1a:	4698      	mov	r8, r3
10004a1c:	0089      	lsls	r1, r1, #2
10004a1e:	e776      	b.n	1000490e <_malloc_r+0x92>
10004a20:	68dc      	ldr	r4, [r3, #12]
10004a22:	3002      	adds	r0, #2
10004a24:	42a3      	cmp	r3, r4
10004a26:	d000      	beq.n	10004a2a <_malloc_r+0x1ae>
10004a28:	e744      	b.n	100048b4 <_malloc_r+0x38>
10004a2a:	003a      	movs	r2, r7
10004a2c:	693c      	ldr	r4, [r7, #16]
10004a2e:	3208      	adds	r2, #8
10004a30:	4294      	cmp	r4, r2
10004a32:	d000      	beq.n	10004a36 <_malloc_r+0x1ba>
10004a34:	e786      	b.n	10004944 <_malloc_r+0xc8>
10004a36:	2101      	movs	r1, #1
10004a38:	687b      	ldr	r3, [r7, #4]
10004a3a:	1082      	asrs	r2, r0, #2
10004a3c:	4091      	lsls	r1, r2
10004a3e:	4299      	cmp	r1, r3
10004a40:	d9a5      	bls.n	1000498e <_malloc_r+0x112>
10004a42:	2303      	movs	r3, #3
10004a44:	68bc      	ldr	r4, [r7, #8]
10004a46:	6862      	ldr	r2, [r4, #4]
10004a48:	439a      	bics	r2, r3
10004a4a:	4691      	mov	r9, r2
10004a4c:	4295      	cmp	r5, r2
10004a4e:	d803      	bhi.n	10004a58 <_malloc_r+0x1dc>
10004a50:	1b53      	subs	r3, r2, r5
10004a52:	2b0f      	cmp	r3, #15
10004a54:	dd00      	ble.n	10004a58 <_malloc_r+0x1dc>
10004a56:	e088      	b.n	10004b6a <_malloc_r+0x2ee>
10004a58:	0023      	movs	r3, r4
10004a5a:	444b      	add	r3, r9
10004a5c:	4a5e      	ldr	r2, [pc, #376]	; (10004bd8 <_malloc_r+0x35c>)
10004a5e:	9301      	str	r3, [sp, #4]
10004a60:	4b5e      	ldr	r3, [pc, #376]	; (10004bdc <_malloc_r+0x360>)
10004a62:	4693      	mov	fp, r2
10004a64:	681b      	ldr	r3, [r3, #0]
10004a66:	6812      	ldr	r2, [r2, #0]
10004a68:	18eb      	adds	r3, r5, r3
10004a6a:	3201      	adds	r2, #1
10004a6c:	d100      	bne.n	10004a70 <_malloc_r+0x1f4>
10004a6e:	e13b      	b.n	10004ce8 <_malloc_r+0x46c>
10004a70:	4a5b      	ldr	r2, [pc, #364]	; (10004be0 <_malloc_r+0x364>)
10004a72:	4694      	mov	ip, r2
10004a74:	4463      	add	r3, ip
10004a76:	0b1b      	lsrs	r3, r3, #12
10004a78:	031b      	lsls	r3, r3, #12
10004a7a:	9300      	str	r3, [sp, #0]
10004a7c:	0030      	movs	r0, r6
10004a7e:	9900      	ldr	r1, [sp, #0]
10004a80:	f000 f9cc 	bl	10004e1c <_sbrk_r>
10004a84:	0003      	movs	r3, r0
10004a86:	4680      	mov	r8, r0
10004a88:	3301      	adds	r3, #1
10004a8a:	d100      	bne.n	10004a8e <_malloc_r+0x212>
10004a8c:	e0f8      	b.n	10004c80 <_malloc_r+0x404>
10004a8e:	9b01      	ldr	r3, [sp, #4]
10004a90:	4283      	cmp	r3, r0
10004a92:	d900      	bls.n	10004a96 <_malloc_r+0x21a>
10004a94:	e0f2      	b.n	10004c7c <_malloc_r+0x400>
10004a96:	4b53      	ldr	r3, [pc, #332]	; (10004be4 <_malloc_r+0x368>)
10004a98:	0019      	movs	r1, r3
10004a9a:	469a      	mov	sl, r3
10004a9c:	6809      	ldr	r1, [r1, #0]
10004a9e:	9b00      	ldr	r3, [sp, #0]
10004aa0:	468c      	mov	ip, r1
10004aa2:	4651      	mov	r1, sl
10004aa4:	4463      	add	r3, ip
10004aa6:	600b      	str	r3, [r1, #0]
10004aa8:	9901      	ldr	r1, [sp, #4]
10004aaa:	001a      	movs	r2, r3
10004aac:	4281      	cmp	r1, r0
10004aae:	d100      	bne.n	10004ab2 <_malloc_r+0x236>
10004ab0:	e150      	b.n	10004d54 <_malloc_r+0x4d8>
10004ab2:	465b      	mov	r3, fp
10004ab4:	681b      	ldr	r3, [r3, #0]
10004ab6:	3301      	adds	r3, #1
10004ab8:	d100      	bne.n	10004abc <_malloc_r+0x240>
10004aba:	e155      	b.n	10004d68 <_malloc_r+0x4ec>
10004abc:	4643      	mov	r3, r8
10004abe:	9901      	ldr	r1, [sp, #4]
10004ac0:	1a5b      	subs	r3, r3, r1
10004ac2:	189a      	adds	r2, r3, r2
10004ac4:	4653      	mov	r3, sl
10004ac6:	601a      	str	r2, [r3, #0]
10004ac8:	2307      	movs	r3, #7
10004aca:	4642      	mov	r2, r8
10004acc:	4641      	mov	r1, r8
10004ace:	401a      	ands	r2, r3
10004ad0:	9201      	str	r2, [sp, #4]
10004ad2:	4219      	tst	r1, r3
10004ad4:	d100      	bne.n	10004ad8 <_malloc_r+0x25c>
10004ad6:	e111      	b.n	10004cfc <_malloc_r+0x480>
10004ad8:	2308      	movs	r3, #8
10004ada:	4698      	mov	r8, r3
10004adc:	1a88      	subs	r0, r1, r2
10004ade:	4b42      	ldr	r3, [pc, #264]	; (10004be8 <_malloc_r+0x36c>)
10004ae0:	9900      	ldr	r1, [sp, #0]
10004ae2:	4480      	add	r8, r0
10004ae4:	4441      	add	r1, r8
10004ae6:	1a9b      	subs	r3, r3, r2
10004ae8:	1a5b      	subs	r3, r3, r1
10004aea:	051b      	lsls	r3, r3, #20
10004aec:	0d1b      	lsrs	r3, r3, #20
10004aee:	9100      	str	r1, [sp, #0]
10004af0:	0030      	movs	r0, r6
10004af2:	0019      	movs	r1, r3
10004af4:	469b      	mov	fp, r3
10004af6:	f000 f991 	bl	10004e1c <_sbrk_r>
10004afa:	1c43      	adds	r3, r0, #1
10004afc:	d100      	bne.n	10004b00 <_malloc_r+0x284>
10004afe:	e14f      	b.n	10004da0 <_malloc_r+0x524>
10004b00:	4643      	mov	r3, r8
10004b02:	1ac0      	subs	r0, r0, r3
10004b04:	0003      	movs	r3, r0
10004b06:	445b      	add	r3, fp
10004b08:	9300      	str	r3, [sp, #0]
10004b0a:	4653      	mov	r3, sl
10004b0c:	4652      	mov	r2, sl
10004b0e:	681b      	ldr	r3, [r3, #0]
10004b10:	2101      	movs	r1, #1
10004b12:	445b      	add	r3, fp
10004b14:	6013      	str	r3, [r2, #0]
10004b16:	4642      	mov	r2, r8
10004b18:	4640      	mov	r0, r8
10004b1a:	60ba      	str	r2, [r7, #8]
10004b1c:	9a00      	ldr	r2, [sp, #0]
10004b1e:	430a      	orrs	r2, r1
10004b20:	6042      	str	r2, [r0, #4]
10004b22:	42bc      	cmp	r4, r7
10004b24:	d100      	bne.n	10004b28 <_malloc_r+0x2ac>
10004b26:	e123      	b.n	10004d70 <_malloc_r+0x4f4>
10004b28:	464a      	mov	r2, r9
10004b2a:	2a0f      	cmp	r2, #15
10004b2c:	d800      	bhi.n	10004b30 <_malloc_r+0x2b4>
10004b2e:	e121      	b.n	10004d74 <_malloc_r+0x4f8>
10004b30:	2007      	movs	r0, #7
10004b32:	3a0c      	subs	r2, #12
10004b34:	4382      	bics	r2, r0
10004b36:	6860      	ldr	r0, [r4, #4]
10004b38:	4001      	ands	r1, r0
10004b3a:	2005      	movs	r0, #5
10004b3c:	4311      	orrs	r1, r2
10004b3e:	6061      	str	r1, [r4, #4]
10004b40:	18a1      	adds	r1, r4, r2
10004b42:	6048      	str	r0, [r1, #4]
10004b44:	6088      	str	r0, [r1, #8]
10004b46:	2a0f      	cmp	r2, #15
10004b48:	d900      	bls.n	10004b4c <_malloc_r+0x2d0>
10004b4a:	e134      	b.n	10004db6 <_malloc_r+0x53a>
10004b4c:	4642      	mov	r2, r8
10004b4e:	4644      	mov	r4, r8
10004b50:	6852      	ldr	r2, [r2, #4]
10004b52:	4926      	ldr	r1, [pc, #152]	; (10004bec <_malloc_r+0x370>)
10004b54:	6808      	ldr	r0, [r1, #0]
10004b56:	4298      	cmp	r0, r3
10004b58:	d200      	bcs.n	10004b5c <_malloc_r+0x2e0>
10004b5a:	600b      	str	r3, [r1, #0]
10004b5c:	4924      	ldr	r1, [pc, #144]	; (10004bf0 <_malloc_r+0x374>)
10004b5e:	6808      	ldr	r0, [r1, #0]
10004b60:	4298      	cmp	r0, r3
10004b62:	d300      	bcc.n	10004b66 <_malloc_r+0x2ea>
10004b64:	e08e      	b.n	10004c84 <_malloc_r+0x408>
10004b66:	600b      	str	r3, [r1, #0]
10004b68:	e08c      	b.n	10004c84 <_malloc_r+0x408>
10004b6a:	2201      	movs	r2, #1
10004b6c:	0029      	movs	r1, r5
10004b6e:	4313      	orrs	r3, r2
10004b70:	4311      	orrs	r1, r2
10004b72:	1965      	adds	r5, r4, r5
10004b74:	6061      	str	r1, [r4, #4]
10004b76:	0030      	movs	r0, r6
10004b78:	60bd      	str	r5, [r7, #8]
10004b7a:	606b      	str	r3, [r5, #4]
10004b7c:	f000 f946 	bl	10004e0c <__malloc_unlock>
10004b80:	0020      	movs	r0, r4
10004b82:	3008      	adds	r0, #8
10004b84:	e73f      	b.n	10004a06 <_malloc_r+0x18a>
10004b86:	0a5a      	lsrs	r2, r3, #9
10004b88:	2a04      	cmp	r2, #4
10004b8a:	d971      	bls.n	10004c70 <_malloc_r+0x3f4>
10004b8c:	2a14      	cmp	r2, #20
10004b8e:	d900      	bls.n	10004b92 <_malloc_r+0x316>
10004b90:	e0c4      	b.n	10004d1c <_malloc_r+0x4a0>
10004b92:	0011      	movs	r1, r2
10004b94:	325c      	adds	r2, #92	; 0x5c
10004b96:	315b      	adds	r1, #91	; 0x5b
10004b98:	00d2      	lsls	r2, r2, #3
10004b9a:	2308      	movs	r3, #8
10004b9c:	425b      	negs	r3, r3
10004b9e:	469c      	mov	ip, r3
10004ba0:	18ba      	adds	r2, r7, r2
10004ba2:	4494      	add	ip, r2
10004ba4:	4663      	mov	r3, ip
10004ba6:	689a      	ldr	r2, [r3, #8]
10004ba8:	2303      	movs	r3, #3
10004baa:	4698      	mov	r8, r3
10004bac:	4594      	cmp	ip, r2
10004bae:	d100      	bne.n	10004bb2 <_malloc_r+0x336>
10004bb0:	e09d      	b.n	10004cee <_malloc_r+0x472>
10004bb2:	4643      	mov	r3, r8
10004bb4:	6851      	ldr	r1, [r2, #4]
10004bb6:	4399      	bics	r1, r3
10004bb8:	4549      	cmp	r1, r9
10004bba:	d902      	bls.n	10004bc2 <_malloc_r+0x346>
10004bbc:	6892      	ldr	r2, [r2, #8]
10004bbe:	4594      	cmp	ip, r2
10004bc0:	d1f7      	bne.n	10004bb2 <_malloc_r+0x336>
10004bc2:	68d3      	ldr	r3, [r2, #12]
10004bc4:	469c      	mov	ip, r3
10004bc6:	687b      	ldr	r3, [r7, #4]
10004bc8:	4661      	mov	r1, ip
10004bca:	60a2      	str	r2, [r4, #8]
10004bcc:	60e1      	str	r1, [r4, #12]
10004bce:	608c      	str	r4, [r1, #8]
10004bd0:	60d4      	str	r4, [r2, #12]
10004bd2:	e6d7      	b.n	10004984 <_malloc_r+0x108>
10004bd4:	20000640 	.word	0x20000640
10004bd8:	20000a48 	.word	0x20000a48
10004bdc:	20000ab8 	.word	0x20000ab8
10004be0:	0000100f 	.word	0x0000100f
10004be4:	20000a88 	.word	0x20000a88
10004be8:	00001008 	.word	0x00001008
10004bec:	20000ab0 	.word	0x20000ab0
10004bf0:	20000ab4 	.word	0x20000ab4
10004bf4:	2814      	cmp	r0, #20
10004bf6:	d952      	bls.n	10004c9e <_malloc_r+0x422>
10004bf8:	2854      	cmp	r0, #84	; 0x54
10004bfa:	d900      	bls.n	10004bfe <_malloc_r+0x382>
10004bfc:	e096      	b.n	10004d2c <_malloc_r+0x4b0>
10004bfe:	236e      	movs	r3, #110	; 0x6e
10004c00:	4698      	mov	r8, r3
10004c02:	0b28      	lsrs	r0, r5, #12
10004c04:	4480      	add	r8, r0
10004c06:	306f      	adds	r0, #111	; 0x6f
10004c08:	00c1      	lsls	r1, r0, #3
10004c0a:	e680      	b.n	1000490e <_malloc_r+0x92>
10004c0c:	2308      	movs	r3, #8
10004c0e:	469b      	mov	fp, r3
10004c10:	3b07      	subs	r3, #7
10004c12:	44dc      	add	ip, fp
10004c14:	469b      	mov	fp, r3
10004c16:	44da      	add	sl, fp
10004c18:	4643      	mov	r3, r8
10004c1a:	4652      	mov	r2, sl
10004c1c:	4213      	tst	r3, r2
10004c1e:	d000      	beq.n	10004c22 <_malloc_r+0x3a6>
10004c20:	e6c4      	b.n	100049ac <_malloc_r+0x130>
10004c22:	e04c      	b.n	10004cbe <_malloc_r+0x442>
10004c24:	2201      	movs	r2, #1
10004c26:	18e3      	adds	r3, r4, r3
10004c28:	6859      	ldr	r1, [r3, #4]
10004c2a:	0030      	movs	r0, r6
10004c2c:	430a      	orrs	r2, r1
10004c2e:	605a      	str	r2, [r3, #4]
10004c30:	68e3      	ldr	r3, [r4, #12]
10004c32:	68a2      	ldr	r2, [r4, #8]
10004c34:	60d3      	str	r3, [r2, #12]
10004c36:	609a      	str	r2, [r3, #8]
10004c38:	f000 f8e8 	bl	10004e0c <__malloc_unlock>
10004c3c:	0020      	movs	r0, r4
10004c3e:	3008      	adds	r0, #8
10004c40:	e6e1      	b.n	10004a06 <_malloc_r+0x18a>
10004c42:	002b      	movs	r3, r5
10004c44:	08e8      	lsrs	r0, r5, #3
10004c46:	3308      	adds	r3, #8
10004c48:	e62c      	b.n	100048a4 <_malloc_r+0x28>
10004c4a:	2301      	movs	r3, #1
10004c4c:	1960      	adds	r0, r4, r5
10004c4e:	431d      	orrs	r5, r3
10004c50:	6065      	str	r5, [r4, #4]
10004c52:	6178      	str	r0, [r7, #20]
10004c54:	6138      	str	r0, [r7, #16]
10004c56:	60c2      	str	r2, [r0, #12]
10004c58:	6082      	str	r2, [r0, #8]
10004c5a:	001a      	movs	r2, r3
10004c5c:	464b      	mov	r3, r9
10004c5e:	430a      	orrs	r2, r1
10004c60:	6042      	str	r2, [r0, #4]
10004c62:	0030      	movs	r0, r6
10004c64:	50e1      	str	r1, [r4, r3]
10004c66:	f000 f8d1 	bl	10004e0c <__malloc_unlock>
10004c6a:	0020      	movs	r0, r4
10004c6c:	3008      	adds	r0, #8
10004c6e:	e6ca      	b.n	10004a06 <_malloc_r+0x18a>
10004c70:	099a      	lsrs	r2, r3, #6
10004c72:	0011      	movs	r1, r2
10004c74:	3239      	adds	r2, #57	; 0x39
10004c76:	3138      	adds	r1, #56	; 0x38
10004c78:	00d2      	lsls	r2, r2, #3
10004c7a:	e78e      	b.n	10004b9a <_malloc_r+0x31e>
10004c7c:	42bc      	cmp	r4, r7
10004c7e:	d060      	beq.n	10004d42 <_malloc_r+0x4c6>
10004c80:	68bc      	ldr	r4, [r7, #8]
10004c82:	6862      	ldr	r2, [r4, #4]
10004c84:	2303      	movs	r3, #3
10004c86:	439a      	bics	r2, r3
10004c88:	1b53      	subs	r3, r2, r5
10004c8a:	4295      	cmp	r5, r2
10004c8c:	d802      	bhi.n	10004c94 <_malloc_r+0x418>
10004c8e:	2b0f      	cmp	r3, #15
10004c90:	dd00      	ble.n	10004c94 <_malloc_r+0x418>
10004c92:	e76a      	b.n	10004b6a <_malloc_r+0x2ee>
10004c94:	0030      	movs	r0, r6
10004c96:	f000 f8b9 	bl	10004e0c <__malloc_unlock>
10004c9a:	2000      	movs	r0, #0
10004c9c:	e6b3      	b.n	10004a06 <_malloc_r+0x18a>
10004c9e:	235b      	movs	r3, #91	; 0x5b
10004ca0:	4698      	mov	r8, r3
10004ca2:	4480      	add	r8, r0
10004ca4:	305c      	adds	r0, #92	; 0x5c
10004ca6:	00c1      	lsls	r1, r0, #3
10004ca8:	e631      	b.n	1000490e <_malloc_r+0x92>
10004caa:	2308      	movs	r3, #8
10004cac:	425b      	negs	r3, r3
10004cae:	469c      	mov	ip, r3
10004cb0:	44e1      	add	r9, ip
10004cb2:	464b      	mov	r3, r9
10004cb4:	689b      	ldr	r3, [r3, #8]
10004cb6:	3801      	subs	r0, #1
10004cb8:	454b      	cmp	r3, r9
10004cba:	d000      	beq.n	10004cbe <_malloc_r+0x442>
10004cbc:	e098      	b.n	10004df0 <_malloc_r+0x574>
10004cbe:	4643      	mov	r3, r8
10004cc0:	4203      	tst	r3, r0
10004cc2:	d1f2      	bne.n	10004caa <_malloc_r+0x42e>
10004cc4:	687b      	ldr	r3, [r7, #4]
10004cc6:	438b      	bics	r3, r1
10004cc8:	607b      	str	r3, [r7, #4]
10004cca:	0049      	lsls	r1, r1, #1
10004ccc:	4299      	cmp	r1, r3
10004cce:	d900      	bls.n	10004cd2 <_malloc_r+0x456>
10004cd0:	e6b7      	b.n	10004a42 <_malloc_r+0x1c6>
10004cd2:	2900      	cmp	r1, #0
10004cd4:	d104      	bne.n	10004ce0 <_malloc_r+0x464>
10004cd6:	e6b4      	b.n	10004a42 <_malloc_r+0x1c6>
10004cd8:	2204      	movs	r2, #4
10004cda:	4694      	mov	ip, r2
10004cdc:	0049      	lsls	r1, r1, #1
10004cde:	44e2      	add	sl, ip
10004ce0:	420b      	tst	r3, r1
10004ce2:	d0f9      	beq.n	10004cd8 <_malloc_r+0x45c>
10004ce4:	4650      	mov	r0, sl
10004ce6:	e65c      	b.n	100049a2 <_malloc_r+0x126>
10004ce8:	3310      	adds	r3, #16
10004cea:	9300      	str	r3, [sp, #0]
10004cec:	e6c6      	b.n	10004a7c <_malloc_r+0x200>
10004cee:	1089      	asrs	r1, r1, #2
10004cf0:	3b02      	subs	r3, #2
10004cf2:	408b      	lsls	r3, r1
10004cf4:	6879      	ldr	r1, [r7, #4]
10004cf6:	430b      	orrs	r3, r1
10004cf8:	607b      	str	r3, [r7, #4]
10004cfa:	e765      	b.n	10004bc8 <_malloc_r+0x34c>
10004cfc:	9b00      	ldr	r3, [sp, #0]
10004cfe:	0030      	movs	r0, r6
10004d00:	4443      	add	r3, r8
10004d02:	425b      	negs	r3, r3
10004d04:	051b      	lsls	r3, r3, #20
10004d06:	0d1b      	lsrs	r3, r3, #20
10004d08:	0019      	movs	r1, r3
10004d0a:	469b      	mov	fp, r3
10004d0c:	f000 f886 	bl	10004e1c <_sbrk_r>
10004d10:	1c43      	adds	r3, r0, #1
10004d12:	d000      	beq.n	10004d16 <_malloc_r+0x49a>
10004d14:	e6f4      	b.n	10004b00 <_malloc_r+0x284>
10004d16:	2300      	movs	r3, #0
10004d18:	469b      	mov	fp, r3
10004d1a:	e6f6      	b.n	10004b0a <_malloc_r+0x28e>
10004d1c:	2a54      	cmp	r2, #84	; 0x54
10004d1e:	d82b      	bhi.n	10004d78 <_malloc_r+0x4fc>
10004d20:	0b1a      	lsrs	r2, r3, #12
10004d22:	0011      	movs	r1, r2
10004d24:	326f      	adds	r2, #111	; 0x6f
10004d26:	316e      	adds	r1, #110	; 0x6e
10004d28:	00d2      	lsls	r2, r2, #3
10004d2a:	e736      	b.n	10004b9a <_malloc_r+0x31e>
10004d2c:	23aa      	movs	r3, #170	; 0xaa
10004d2e:	005b      	lsls	r3, r3, #1
10004d30:	4298      	cmp	r0, r3
10004d32:	d82b      	bhi.n	10004d8c <_malloc_r+0x510>
10004d34:	3bdd      	subs	r3, #221	; 0xdd
10004d36:	4698      	mov	r8, r3
10004d38:	0be8      	lsrs	r0, r5, #15
10004d3a:	4480      	add	r8, r0
10004d3c:	3078      	adds	r0, #120	; 0x78
10004d3e:	00c1      	lsls	r1, r0, #3
10004d40:	e5e5      	b.n	1000490e <_malloc_r+0x92>
10004d42:	4b2c      	ldr	r3, [pc, #176]	; (10004df4 <_malloc_r+0x578>)
10004d44:	9a00      	ldr	r2, [sp, #0]
10004d46:	469a      	mov	sl, r3
10004d48:	681b      	ldr	r3, [r3, #0]
10004d4a:	469c      	mov	ip, r3
10004d4c:	4653      	mov	r3, sl
10004d4e:	4462      	add	r2, ip
10004d50:	601a      	str	r2, [r3, #0]
10004d52:	e6ae      	b.n	10004ab2 <_malloc_r+0x236>
10004d54:	0509      	lsls	r1, r1, #20
10004d56:	d000      	beq.n	10004d5a <_malloc_r+0x4de>
10004d58:	e6ab      	b.n	10004ab2 <_malloc_r+0x236>
10004d5a:	9a00      	ldr	r2, [sp, #0]
10004d5c:	68bc      	ldr	r4, [r7, #8]
10004d5e:	444a      	add	r2, r9
10004d60:	3101      	adds	r1, #1
10004d62:	430a      	orrs	r2, r1
10004d64:	6062      	str	r2, [r4, #4]
10004d66:	e6f4      	b.n	10004b52 <_malloc_r+0x2d6>
10004d68:	465b      	mov	r3, fp
10004d6a:	4642      	mov	r2, r8
10004d6c:	601a      	str	r2, [r3, #0]
10004d6e:	e6ab      	b.n	10004ac8 <_malloc_r+0x24c>
10004d70:	4644      	mov	r4, r8
10004d72:	e6ee      	b.n	10004b52 <_malloc_r+0x2d6>
10004d74:	6041      	str	r1, [r0, #4]
10004d76:	e78d      	b.n	10004c94 <_malloc_r+0x418>
10004d78:	21aa      	movs	r1, #170	; 0xaa
10004d7a:	0049      	lsls	r1, r1, #1
10004d7c:	428a      	cmp	r2, r1
10004d7e:	d824      	bhi.n	10004dca <_malloc_r+0x54e>
10004d80:	0bda      	lsrs	r2, r3, #15
10004d82:	0011      	movs	r1, r2
10004d84:	3278      	adds	r2, #120	; 0x78
10004d86:	3177      	adds	r1, #119	; 0x77
10004d88:	00d2      	lsls	r2, r2, #3
10004d8a:	e706      	b.n	10004b9a <_malloc_r+0x31e>
10004d8c:	4b1a      	ldr	r3, [pc, #104]	; (10004df8 <_malloc_r+0x57c>)
10004d8e:	4298      	cmp	r0, r3
10004d90:	d824      	bhi.n	10004ddc <_malloc_r+0x560>
10004d92:	237c      	movs	r3, #124	; 0x7c
10004d94:	4698      	mov	r8, r3
10004d96:	0ca8      	lsrs	r0, r5, #18
10004d98:	4480      	add	r8, r0
10004d9a:	307d      	adds	r0, #125	; 0x7d
10004d9c:	00c1      	lsls	r1, r0, #3
10004d9e:	e5b6      	b.n	1000490e <_malloc_r+0x92>
10004da0:	9a00      	ldr	r2, [sp, #0]
10004da2:	9b01      	ldr	r3, [sp, #4]
10004da4:	4694      	mov	ip, r2
10004da6:	4642      	mov	r2, r8
10004da8:	3b08      	subs	r3, #8
10004daa:	4463      	add	r3, ip
10004dac:	1a9b      	subs	r3, r3, r2
10004dae:	9300      	str	r3, [sp, #0]
10004db0:	2300      	movs	r3, #0
10004db2:	469b      	mov	fp, r3
10004db4:	e6a9      	b.n	10004b0a <_malloc_r+0x28e>
10004db6:	0021      	movs	r1, r4
10004db8:	0030      	movs	r0, r6
10004dba:	3108      	adds	r1, #8
10004dbc:	f000 f8bc 	bl	10004f38 <_free_r>
10004dc0:	4653      	mov	r3, sl
10004dc2:	68bc      	ldr	r4, [r7, #8]
10004dc4:	681b      	ldr	r3, [r3, #0]
10004dc6:	6862      	ldr	r2, [r4, #4]
10004dc8:	e6c3      	b.n	10004b52 <_malloc_r+0x2d6>
10004dca:	490b      	ldr	r1, [pc, #44]	; (10004df8 <_malloc_r+0x57c>)
10004dcc:	428a      	cmp	r2, r1
10004dce:	d80b      	bhi.n	10004de8 <_malloc_r+0x56c>
10004dd0:	0c9a      	lsrs	r2, r3, #18
10004dd2:	0011      	movs	r1, r2
10004dd4:	327d      	adds	r2, #125	; 0x7d
10004dd6:	317c      	adds	r1, #124	; 0x7c
10004dd8:	00d2      	lsls	r2, r2, #3
10004dda:	e6de      	b.n	10004b9a <_malloc_r+0x31e>
10004ddc:	21fe      	movs	r1, #254	; 0xfe
10004dde:	237e      	movs	r3, #126	; 0x7e
10004de0:	207f      	movs	r0, #127	; 0x7f
10004de2:	4698      	mov	r8, r3
10004de4:	0089      	lsls	r1, r1, #2
10004de6:	e592      	b.n	1000490e <_malloc_r+0x92>
10004de8:	22fe      	movs	r2, #254	; 0xfe
10004dea:	217e      	movs	r1, #126	; 0x7e
10004dec:	0092      	lsls	r2, r2, #2
10004dee:	e6d4      	b.n	10004b9a <_malloc_r+0x31e>
10004df0:	687b      	ldr	r3, [r7, #4]
10004df2:	e76a      	b.n	10004cca <_malloc_r+0x44e>
10004df4:	20000a88 	.word	0x20000a88
10004df8:	00000554 	.word	0x00000554

10004dfc <__malloc_lock>:
10004dfc:	b510      	push	{r4, lr}
10004dfe:	4802      	ldr	r0, [pc, #8]	; (10004e08 <__malloc_lock+0xc>)
10004e00:	f000 f97c 	bl	100050fc <__retarget_lock_acquire_recursive>
10004e04:	bd10      	pop	{r4, pc}
10004e06:	46c0      	nop			; (mov r8, r8)
10004e08:	20000d44 	.word	0x20000d44

10004e0c <__malloc_unlock>:
10004e0c:	b510      	push	{r4, lr}
10004e0e:	4802      	ldr	r0, [pc, #8]	; (10004e18 <__malloc_unlock+0xc>)
10004e10:	f000 f976 	bl	10005100 <__retarget_lock_release_recursive>
10004e14:	bd10      	pop	{r4, pc}
10004e16:	46c0      	nop			; (mov r8, r8)
10004e18:	20000d44 	.word	0x20000d44

10004e1c <_sbrk_r>:
10004e1c:	2300      	movs	r3, #0
10004e1e:	b570      	push	{r4, r5, r6, lr}
10004e20:	4d06      	ldr	r5, [pc, #24]	; (10004e3c <_sbrk_r+0x20>)
10004e22:	0004      	movs	r4, r0
10004e24:	0008      	movs	r0, r1
10004e26:	602b      	str	r3, [r5, #0]
10004e28:	f7fc fcca 	bl	100017c0 <_sbrk>
10004e2c:	1c43      	adds	r3, r0, #1
10004e2e:	d000      	beq.n	10004e32 <_sbrk_r+0x16>
10004e30:	bd70      	pop	{r4, r5, r6, pc}
10004e32:	682b      	ldr	r3, [r5, #0]
10004e34:	2b00      	cmp	r3, #0
10004e36:	d0fb      	beq.n	10004e30 <_sbrk_r+0x14>
10004e38:	6023      	str	r3, [r4, #0]
10004e3a:	e7f9      	b.n	10004e30 <_sbrk_r+0x14>
10004e3c:	20000d58 	.word	0x20000d58

10004e40 <strlen>:
10004e40:	b510      	push	{r4, lr}
10004e42:	0783      	lsls	r3, r0, #30
10004e44:	d00a      	beq.n	10004e5c <strlen+0x1c>
10004e46:	0003      	movs	r3, r0
10004e48:	2103      	movs	r1, #3
10004e4a:	e002      	b.n	10004e52 <strlen+0x12>
10004e4c:	3301      	adds	r3, #1
10004e4e:	420b      	tst	r3, r1
10004e50:	d005      	beq.n	10004e5e <strlen+0x1e>
10004e52:	781a      	ldrb	r2, [r3, #0]
10004e54:	2a00      	cmp	r2, #0
10004e56:	d1f9      	bne.n	10004e4c <strlen+0xc>
10004e58:	1a18      	subs	r0, r3, r0
10004e5a:	bd10      	pop	{r4, pc}
10004e5c:	0003      	movs	r3, r0
10004e5e:	6819      	ldr	r1, [r3, #0]
10004e60:	4a0c      	ldr	r2, [pc, #48]	; (10004e94 <strlen+0x54>)
10004e62:	4c0d      	ldr	r4, [pc, #52]	; (10004e98 <strlen+0x58>)
10004e64:	188a      	adds	r2, r1, r2
10004e66:	438a      	bics	r2, r1
10004e68:	4222      	tst	r2, r4
10004e6a:	d10f      	bne.n	10004e8c <strlen+0x4c>
10004e6c:	6859      	ldr	r1, [r3, #4]
10004e6e:	4a09      	ldr	r2, [pc, #36]	; (10004e94 <strlen+0x54>)
10004e70:	3304      	adds	r3, #4
10004e72:	188a      	adds	r2, r1, r2
10004e74:	438a      	bics	r2, r1
10004e76:	4222      	tst	r2, r4
10004e78:	d108      	bne.n	10004e8c <strlen+0x4c>
10004e7a:	6859      	ldr	r1, [r3, #4]
10004e7c:	4a05      	ldr	r2, [pc, #20]	; (10004e94 <strlen+0x54>)
10004e7e:	3304      	adds	r3, #4
10004e80:	188a      	adds	r2, r1, r2
10004e82:	438a      	bics	r2, r1
10004e84:	4222      	tst	r2, r4
10004e86:	d0f1      	beq.n	10004e6c <strlen+0x2c>
10004e88:	e000      	b.n	10004e8c <strlen+0x4c>
10004e8a:	3301      	adds	r3, #1
10004e8c:	781a      	ldrb	r2, [r3, #0]
10004e8e:	2a00      	cmp	r2, #0
10004e90:	d1fb      	bne.n	10004e8a <strlen+0x4a>
10004e92:	e7e1      	b.n	10004e58 <strlen+0x18>
10004e94:	fefefeff 	.word	0xfefefeff
10004e98:	80808080 	.word	0x80808080

10004e9c <_malloc_trim_r>:
10004e9c:	b5f8      	push	{r3, r4, r5, r6, r7, lr}
10004e9e:	000c      	movs	r4, r1
10004ea0:	0005      	movs	r5, r0
10004ea2:	f7ff ffab 	bl	10004dfc <__malloc_lock>
10004ea6:	4f20      	ldr	r7, [pc, #128]	; (10004f28 <_malloc_trim_r+0x8c>)
10004ea8:	68bb      	ldr	r3, [r7, #8]
10004eaa:	685e      	ldr	r6, [r3, #4]
10004eac:	2303      	movs	r3, #3
10004eae:	439e      	bics	r6, r3
10004eb0:	4b1e      	ldr	r3, [pc, #120]	; (10004f2c <_malloc_trim_r+0x90>)
10004eb2:	1b34      	subs	r4, r6, r4
10004eb4:	469c      	mov	ip, r3
10004eb6:	4464      	add	r4, ip
10004eb8:	0b24      	lsrs	r4, r4, #12
10004eba:	3c01      	subs	r4, #1
10004ebc:	3311      	adds	r3, #17
10004ebe:	0324      	lsls	r4, r4, #12
10004ec0:	429c      	cmp	r4, r3
10004ec2:	db07      	blt.n	10004ed4 <_malloc_trim_r+0x38>
10004ec4:	2100      	movs	r1, #0
10004ec6:	0028      	movs	r0, r5
10004ec8:	f7ff ffa8 	bl	10004e1c <_sbrk_r>
10004ecc:	68bb      	ldr	r3, [r7, #8]
10004ece:	199b      	adds	r3, r3, r6
10004ed0:	4298      	cmp	r0, r3
10004ed2:	d004      	beq.n	10004ede <_malloc_trim_r+0x42>
10004ed4:	0028      	movs	r0, r5
10004ed6:	f7ff ff99 	bl	10004e0c <__malloc_unlock>
10004eda:	2000      	movs	r0, #0
10004edc:	bdf8      	pop	{r3, r4, r5, r6, r7, pc}
10004ede:	0028      	movs	r0, r5
10004ee0:	4261      	negs	r1, r4
10004ee2:	f7ff ff9b 	bl	10004e1c <_sbrk_r>
10004ee6:	1c43      	adds	r3, r0, #1
10004ee8:	d00d      	beq.n	10004f06 <_malloc_trim_r+0x6a>
10004eea:	2201      	movs	r2, #1
10004eec:	68bb      	ldr	r3, [r7, #8]
10004eee:	1b36      	subs	r6, r6, r4
10004ef0:	4316      	orrs	r6, r2
10004ef2:	605e      	str	r6, [r3, #4]
10004ef4:	4b0e      	ldr	r3, [pc, #56]	; (10004f30 <_malloc_trim_r+0x94>)
10004ef6:	0028      	movs	r0, r5
10004ef8:	681a      	ldr	r2, [r3, #0]
10004efa:	1b14      	subs	r4, r2, r4
10004efc:	601c      	str	r4, [r3, #0]
10004efe:	f7ff ff85 	bl	10004e0c <__malloc_unlock>
10004f02:	2001      	movs	r0, #1
10004f04:	e7ea      	b.n	10004edc <_malloc_trim_r+0x40>
10004f06:	2100      	movs	r1, #0
10004f08:	0028      	movs	r0, r5
10004f0a:	f7ff ff87 	bl	10004e1c <_sbrk_r>
10004f0e:	68ba      	ldr	r2, [r7, #8]
10004f10:	1a83      	subs	r3, r0, r2
10004f12:	2b0f      	cmp	r3, #15
10004f14:	ddde      	ble.n	10004ed4 <_malloc_trim_r+0x38>
10004f16:	4907      	ldr	r1, [pc, #28]	; (10004f34 <_malloc_trim_r+0x98>)
10004f18:	6809      	ldr	r1, [r1, #0]
10004f1a:	1a40      	subs	r0, r0, r1
10004f1c:	4904      	ldr	r1, [pc, #16]	; (10004f30 <_malloc_trim_r+0x94>)
10004f1e:	6008      	str	r0, [r1, #0]
10004f20:	2101      	movs	r1, #1
10004f22:	430b      	orrs	r3, r1
10004f24:	6053      	str	r3, [r2, #4]
10004f26:	e7d5      	b.n	10004ed4 <_malloc_trim_r+0x38>
10004f28:	20000640 	.word	0x20000640
10004f2c:	00000fef 	.word	0x00000fef
10004f30:	20000a88 	.word	0x20000a88
10004f34:	20000a48 	.word	0x20000a48

10004f38 <_free_r>:
10004f38:	b5f0      	push	{r4, r5, r6, r7, lr}
10004f3a:	46c6      	mov	lr, r8
10004f3c:	0005      	movs	r5, r0
10004f3e:	000c      	movs	r4, r1
10004f40:	b500      	push	{lr}
10004f42:	2900      	cmp	r1, #0
10004f44:	d04f      	beq.n	10004fe6 <_free_r+0xae>
10004f46:	f7ff ff59 	bl	10004dfc <__malloc_lock>
10004f4a:	0021      	movs	r1, r4
10004f4c:	3908      	subs	r1, #8
10004f4e:	684c      	ldr	r4, [r1, #4]
10004f50:	2601      	movs	r6, #1
10004f52:	0022      	movs	r2, r4
10004f54:	2003      	movs	r0, #3
10004f56:	43b2      	bics	r2, r6
10004f58:	188f      	adds	r7, r1, r2
10004f5a:	687b      	ldr	r3, [r7, #4]
10004f5c:	4383      	bics	r3, r0
10004f5e:	4862      	ldr	r0, [pc, #392]	; (100050e8 <_free_r+0x1b0>)
10004f60:	4698      	mov	r8, r3
10004f62:	6883      	ldr	r3, [r0, #8]
10004f64:	42bb      	cmp	r3, r7
10004f66:	d06b      	beq.n	10005040 <_free_r+0x108>
10004f68:	4643      	mov	r3, r8
10004f6a:	607b      	str	r3, [r7, #4]
10004f6c:	4226      	tst	r6, r4
10004f6e:	d11e      	bne.n	10004fae <_free_r+0x76>
10004f70:	2308      	movs	r3, #8
10004f72:	469c      	mov	ip, r3
10004f74:	680c      	ldr	r4, [r1, #0]
10004f76:	4484      	add	ip, r0
10004f78:	1b09      	subs	r1, r1, r4
10004f7a:	1912      	adds	r2, r2, r4
10004f7c:	688c      	ldr	r4, [r1, #8]
10004f7e:	4564      	cmp	r4, ip
10004f80:	d04f      	beq.n	10005022 <_free_r+0xea>
10004f82:	68cb      	ldr	r3, [r1, #12]
10004f84:	60e3      	str	r3, [r4, #12]
10004f86:	609c      	str	r4, [r3, #8]
10004f88:	4643      	mov	r3, r8
10004f8a:	18fc      	adds	r4, r7, r3
10004f8c:	6864      	ldr	r4, [r4, #4]
10004f8e:	4234      	tst	r4, r6
10004f90:	d111      	bne.n	10004fb6 <_free_r+0x7e>
10004f92:	68bb      	ldr	r3, [r7, #8]
10004f94:	4c55      	ldr	r4, [pc, #340]	; (100050ec <_free_r+0x1b4>)
10004f96:	4442      	add	r2, r8
10004f98:	42a3      	cmp	r3, r4
10004f9a:	d100      	bne.n	10004f9e <_free_r+0x66>
10004f9c:	e07f      	b.n	1000509e <_free_r+0x166>
10004f9e:	68fc      	ldr	r4, [r7, #12]
10004fa0:	60dc      	str	r4, [r3, #12]
10004fa2:	60a3      	str	r3, [r4, #8]
10004fa4:	2301      	movs	r3, #1
10004fa6:	4313      	orrs	r3, r2
10004fa8:	604b      	str	r3, [r1, #4]
10004faa:	508a      	str	r2, [r1, r2]
10004fac:	e006      	b.n	10004fbc <_free_r+0x84>
10004fae:	18fc      	adds	r4, r7, r3
10004fb0:	6864      	ldr	r4, [r4, #4]
10004fb2:	4234      	tst	r4, r6
10004fb4:	d0ed      	beq.n	10004f92 <_free_r+0x5a>
10004fb6:	4316      	orrs	r6, r2
10004fb8:	604e      	str	r6, [r1, #4]
10004fba:	603a      	str	r2, [r7, #0]
10004fbc:	2380      	movs	r3, #128	; 0x80
10004fbe:	009b      	lsls	r3, r3, #2
10004fc0:	429a      	cmp	r2, r3
10004fc2:	d213      	bcs.n	10004fec <_free_r+0xb4>
10004fc4:	0954      	lsrs	r4, r2, #5
10004fc6:	08d3      	lsrs	r3, r2, #3
10004fc8:	2201      	movs	r2, #1
10004fca:	40a2      	lsls	r2, r4
10004fcc:	6844      	ldr	r4, [r0, #4]
10004fce:	00db      	lsls	r3, r3, #3
10004fd0:	4322      	orrs	r2, r4
10004fd2:	6042      	str	r2, [r0, #4]
10004fd4:	1818      	adds	r0, r3, r0
10004fd6:	6883      	ldr	r3, [r0, #8]
10004fd8:	60c8      	str	r0, [r1, #12]
10004fda:	608b      	str	r3, [r1, #8]
10004fdc:	6081      	str	r1, [r0, #8]
10004fde:	60d9      	str	r1, [r3, #12]
10004fe0:	0028      	movs	r0, r5
10004fe2:	f7ff ff13 	bl	10004e0c <__malloc_unlock>
10004fe6:	bc04      	pop	{r2}
10004fe8:	4690      	mov	r8, r2
10004fea:	bdf0      	pop	{r4, r5, r6, r7, pc}
10004fec:	0a53      	lsrs	r3, r2, #9
10004fee:	2b04      	cmp	r3, #4
10004ff0:	d83f      	bhi.n	10005072 <_free_r+0x13a>
10004ff2:	0994      	lsrs	r4, r2, #6
10004ff4:	0026      	movs	r6, r4
10004ff6:	3439      	adds	r4, #57	; 0x39
10004ff8:	3638      	adds	r6, #56	; 0x38
10004ffa:	00e4      	lsls	r4, r4, #3
10004ffc:	1904      	adds	r4, r0, r4
10004ffe:	6823      	ldr	r3, [r4, #0]
10005000:	3c08      	subs	r4, #8
10005002:	2703      	movs	r7, #3
10005004:	429c      	cmp	r4, r3
10005006:	d043      	beq.n	10005090 <_free_r+0x158>
10005008:	6858      	ldr	r0, [r3, #4]
1000500a:	43b8      	bics	r0, r7
1000500c:	4290      	cmp	r0, r2
1000500e:	d902      	bls.n	10005016 <_free_r+0xde>
10005010:	689b      	ldr	r3, [r3, #8]
10005012:	429c      	cmp	r4, r3
10005014:	d1f8      	bne.n	10005008 <_free_r+0xd0>
10005016:	68dc      	ldr	r4, [r3, #12]
10005018:	60cc      	str	r4, [r1, #12]
1000501a:	608b      	str	r3, [r1, #8]
1000501c:	60a1      	str	r1, [r4, #8]
1000501e:	60d9      	str	r1, [r3, #12]
10005020:	e7de      	b.n	10004fe0 <_free_r+0xa8>
10005022:	4643      	mov	r3, r8
10005024:	18f8      	adds	r0, r7, r3
10005026:	6840      	ldr	r0, [r0, #4]
10005028:	4230      	tst	r0, r6
1000502a:	d158      	bne.n	100050de <_free_r+0x1a6>
1000502c:	0013      	movs	r3, r2
1000502e:	68b8      	ldr	r0, [r7, #8]
10005030:	68fa      	ldr	r2, [r7, #12]
10005032:	4443      	add	r3, r8
10005034:	431e      	orrs	r6, r3
10005036:	60c2      	str	r2, [r0, #12]
10005038:	6090      	str	r0, [r2, #8]
1000503a:	604e      	str	r6, [r1, #4]
1000503c:	50cb      	str	r3, [r1, r3]
1000503e:	e7cf      	b.n	10004fe0 <_free_r+0xa8>
10005040:	0013      	movs	r3, r2
10005042:	4443      	add	r3, r8
10005044:	4226      	tst	r6, r4
10005046:	d106      	bne.n	10005056 <_free_r+0x11e>
10005048:	680a      	ldr	r2, [r1, #0]
1000504a:	1a89      	subs	r1, r1, r2
1000504c:	688c      	ldr	r4, [r1, #8]
1000504e:	189b      	adds	r3, r3, r2
10005050:	68ca      	ldr	r2, [r1, #12]
10005052:	60e2      	str	r2, [r4, #12]
10005054:	6094      	str	r4, [r2, #8]
10005056:	2201      	movs	r2, #1
10005058:	431a      	orrs	r2, r3
1000505a:	604a      	str	r2, [r1, #4]
1000505c:	4a24      	ldr	r2, [pc, #144]	; (100050f0 <_free_r+0x1b8>)
1000505e:	6081      	str	r1, [r0, #8]
10005060:	6812      	ldr	r2, [r2, #0]
10005062:	429a      	cmp	r2, r3
10005064:	d8bc      	bhi.n	10004fe0 <_free_r+0xa8>
10005066:	4b23      	ldr	r3, [pc, #140]	; (100050f4 <_free_r+0x1bc>)
10005068:	0028      	movs	r0, r5
1000506a:	6819      	ldr	r1, [r3, #0]
1000506c:	f7ff ff16 	bl	10004e9c <_malloc_trim_r>
10005070:	e7b6      	b.n	10004fe0 <_free_r+0xa8>
10005072:	2b14      	cmp	r3, #20
10005074:	d907      	bls.n	10005086 <_free_r+0x14e>
10005076:	2b54      	cmp	r3, #84	; 0x54
10005078:	d81a      	bhi.n	100050b0 <_free_r+0x178>
1000507a:	0b14      	lsrs	r4, r2, #12
1000507c:	0026      	movs	r6, r4
1000507e:	346f      	adds	r4, #111	; 0x6f
10005080:	366e      	adds	r6, #110	; 0x6e
10005082:	00e4      	lsls	r4, r4, #3
10005084:	e7ba      	b.n	10004ffc <_free_r+0xc4>
10005086:	001e      	movs	r6, r3
10005088:	335c      	adds	r3, #92	; 0x5c
1000508a:	365b      	adds	r6, #91	; 0x5b
1000508c:	00dc      	lsls	r4, r3, #3
1000508e:	e7b5      	b.n	10004ffc <_free_r+0xc4>
10005090:	2201      	movs	r2, #1
10005092:	10b6      	asrs	r6, r6, #2
10005094:	40b2      	lsls	r2, r6
10005096:	6846      	ldr	r6, [r0, #4]
10005098:	4332      	orrs	r2, r6
1000509a:	6042      	str	r2, [r0, #4]
1000509c:	e7bc      	b.n	10005018 <_free_r+0xe0>
1000509e:	60d9      	str	r1, [r3, #12]
100050a0:	6099      	str	r1, [r3, #8]
100050a2:	60cb      	str	r3, [r1, #12]
100050a4:	608b      	str	r3, [r1, #8]
100050a6:	2301      	movs	r3, #1
100050a8:	4313      	orrs	r3, r2
100050aa:	604b      	str	r3, [r1, #4]
100050ac:	508a      	str	r2, [r1, r2]
100050ae:	e797      	b.n	10004fe0 <_free_r+0xa8>
100050b0:	24aa      	movs	r4, #170	; 0xaa
100050b2:	0064      	lsls	r4, r4, #1
100050b4:	42a3      	cmp	r3, r4
100050b6:	d805      	bhi.n	100050c4 <_free_r+0x18c>
100050b8:	0bd4      	lsrs	r4, r2, #15
100050ba:	0026      	movs	r6, r4
100050bc:	3478      	adds	r4, #120	; 0x78
100050be:	3677      	adds	r6, #119	; 0x77
100050c0:	00e4      	lsls	r4, r4, #3
100050c2:	e79b      	b.n	10004ffc <_free_r+0xc4>
100050c4:	4c0c      	ldr	r4, [pc, #48]	; (100050f8 <_free_r+0x1c0>)
100050c6:	42a3      	cmp	r3, r4
100050c8:	d805      	bhi.n	100050d6 <_free_r+0x19e>
100050ca:	0c94      	lsrs	r4, r2, #18
100050cc:	0026      	movs	r6, r4
100050ce:	347d      	adds	r4, #125	; 0x7d
100050d0:	367c      	adds	r6, #124	; 0x7c
100050d2:	00e4      	lsls	r4, r4, #3
100050d4:	e792      	b.n	10004ffc <_free_r+0xc4>
100050d6:	24fe      	movs	r4, #254	; 0xfe
100050d8:	267e      	movs	r6, #126	; 0x7e
100050da:	00a4      	lsls	r4, r4, #2
100050dc:	e78e      	b.n	10004ffc <_free_r+0xc4>
100050de:	0033      	movs	r3, r6
100050e0:	4313      	orrs	r3, r2
100050e2:	604b      	str	r3, [r1, #4]
100050e4:	603a      	str	r2, [r7, #0]
100050e6:	e77b      	b.n	10004fe0 <_free_r+0xa8>
100050e8:	20000640 	.word	0x20000640
100050ec:	20000648 	.word	0x20000648
100050f0:	20000a4c 	.word	0x20000a4c
100050f4:	20000ab8 	.word	0x20000ab8
100050f8:	00000554 	.word	0x00000554

100050fc <__retarget_lock_acquire_recursive>:
100050fc:	4770      	bx	lr
100050fe:	46c0      	nop			; (mov r8, r8)

10005100 <__retarget_lock_release_recursive>:
10005100:	4770      	bx	lr
10005102:	46c0      	nop			; (mov r8, r8)

10005104 <_fini>:
10005104:	b5f8      	push	{r3, r4, r5, r6, r7, lr}
10005106:	46c0      	nop			; (mov r8, r8)

10005108 <__mutex_exit_veneer>:
10005108:	b401      	push	{r0}
1000510a:	4802      	ldr	r0, [pc, #8]	; (10005114 <__mutex_exit_veneer+0xc>)
1000510c:	4684      	mov	ip, r0
1000510e:	bc01      	pop	{r0}
10005110:	4760      	bx	ip
10005112:	bf00      	nop
10005114:	2000015d 	.word	0x2000015d

10005118 <____aeabi_ldiv0_veneer>:
10005118:	b401      	push	{r0}
1000511a:	4802      	ldr	r0, [pc, #8]	; (10005124 <____aeabi_ldiv0_veneer+0xc>)
1000511c:	4684      	mov	ip, r0
1000511e:	bc01      	pop	{r0}
10005120:	4760      	bx	ip
10005122:	bf00      	nop
10005124:	20000185 	.word	0x20000185

10005128 <____aeabi_idiv0_veneer>:
10005128:	b401      	push	{r0}
1000512a:	4802      	ldr	r0, [pc, #8]	; (10005134 <____aeabi_idiv0_veneer+0xc>)
1000512c:	4684      	mov	ip, r0
1000512e:	bc01      	pop	{r0}
10005130:	4760      	bx	ip
10005132:	bf00      	nop
10005134:	20000185 	.word	0x20000185

10005138 <__mutex_try_enter_veneer>:
10005138:	b401      	push	{r0}
1000513a:	4802      	ldr	r0, [pc, #8]	; (10005144 <__mutex_try_enter_veneer+0xc>)
1000513c:	4684      	mov	ip, r0
1000513e:	bc01      	pop	{r0}
10005140:	4760      	bx	ip
10005142:	bf00      	nop
10005144:	20000111 	.word	0x20000111

10005148 <__mutex_enter_blocking_veneer>:
10005148:	b401      	push	{r0}
1000514a:	4802      	ldr	r0, [pc, #8]	; (10005154 <__mutex_enter_blocking_veneer+0xc>)
1000514c:	4684      	mov	ip, r0
1000514e:	bc01      	pop	{r0}
10005150:	4760      	bx	ip
10005152:	bf00      	nop
10005154:	200000c1 	.word	0x200000c1

Disassembly of section .data:

200000c0 <mutex_enter_blocking>:
200000c0:	b510      	push	{r4, lr}
200000c2:	6802      	ldr	r2, [r0, #0]
200000c4:	2400      	movs	r4, #0
200000c6:	f3ef 8110 	mrs	r1, PRIMASK
200000ca:	b672      	cpsid	i
200000cc:	6813      	ldr	r3, [r2, #0]
200000ce:	2b00      	cmp	r3, #0
200000d0:	d0fc      	beq.n	200000cc <mutex_enter_blocking+0xc>
200000d2:	f3bf 8f5f 	dmb	sy
200000d6:	7903      	ldrb	r3, [r0, #4]
200000d8:	2b00      	cmp	r3, #0
200000da:	d00b      	beq.n	200000f4 <mutex_enter_blocking+0x34>
200000dc:	6803      	ldr	r3, [r0, #0]
200000de:	f3bf 8f5f 	dmb	sy
200000e2:	601c      	str	r4, [r3, #0]
200000e4:	f381 8810 	msr	PRIMASK, r1
200000e8:	bf20      	wfe
200000ea:	6802      	ldr	r2, [r0, #0]
200000ec:	f3ef 8110 	mrs	r1, PRIMASK
200000f0:	b672      	cpsid	i
200000f2:	e7eb      	b.n	200000cc <mutex_enter_blocking+0xc>
200000f4:	2201      	movs	r2, #1
200000f6:	7102      	strb	r2, [r0, #4]
200000f8:	22d0      	movs	r2, #208	; 0xd0
200000fa:	0612      	lsls	r2, r2, #24
200000fc:	6812      	ldr	r2, [r2, #0]
200000fe:	7142      	strb	r2, [r0, #5]
20000100:	6802      	ldr	r2, [r0, #0]
20000102:	f3bf 8f5f 	dmb	sy
20000106:	6013      	str	r3, [r2, #0]
20000108:	f381 8810 	msr	PRIMASK, r1
2000010c:	bd10      	pop	{r4, pc}
2000010e:	46c0      	nop			; (mov r8, r8)

20000110 <mutex_try_enter>:
20000110:	0003      	movs	r3, r0
20000112:	b510      	push	{r4, lr}
20000114:	6800      	ldr	r0, [r0, #0]
20000116:	f3ef 8410 	mrs	r4, PRIMASK
2000011a:	b672      	cpsid	i
2000011c:	6802      	ldr	r2, [r0, #0]
2000011e:	2a00      	cmp	r2, #0
20000120:	d0fc      	beq.n	2000011c <mutex_try_enter+0xc>
20000122:	f3bf 8f5f 	dmb	sy
20000126:	791a      	ldrb	r2, [r3, #4]
20000128:	2a00      	cmp	r2, #0
2000012a:	d00d      	beq.n	20000148 <mutex_try_enter+0x38>
2000012c:	2900      	cmp	r1, #0
2000012e:	d013      	beq.n	20000158 <mutex_try_enter+0x48>
20000130:	2205      	movs	r2, #5
20000132:	2000      	movs	r0, #0
20000134:	569a      	ldrsb	r2, [r3, r2]
20000136:	600a      	str	r2, [r1, #0]
20000138:	681b      	ldr	r3, [r3, #0]
2000013a:	f3bf 8f5f 	dmb	sy
2000013e:	2200      	movs	r2, #0
20000140:	601a      	str	r2, [r3, #0]
20000142:	f384 8810 	msr	PRIMASK, r4
20000146:	bd10      	pop	{r4, pc}
20000148:	3201      	adds	r2, #1
2000014a:	711a      	strb	r2, [r3, #4]
2000014c:	22d0      	movs	r2, #208	; 0xd0
2000014e:	0612      	lsls	r2, r2, #24
20000150:	6812      	ldr	r2, [r2, #0]
20000152:	2001      	movs	r0, #1
20000154:	715a      	strb	r2, [r3, #5]
20000156:	e7ef      	b.n	20000138 <mutex_try_enter+0x28>
20000158:	2000      	movs	r0, #0
2000015a:	e7ed      	b.n	20000138 <mutex_try_enter+0x28>

2000015c <mutex_exit>:
2000015c:	6802      	ldr	r2, [r0, #0]
2000015e:	f3ef 8110 	mrs	r1, PRIMASK
20000162:	b672      	cpsid	i
20000164:	6813      	ldr	r3, [r2, #0]
20000166:	2b00      	cmp	r3, #0
20000168:	d0fc      	beq.n	20000164 <mutex_exit+0x8>
2000016a:	f3bf 8f5f 	dmb	sy
2000016e:	2300      	movs	r3, #0
20000170:	7103      	strb	r3, [r0, #4]
20000172:	bf40      	sev
20000174:	6802      	ldr	r2, [r0, #0]
20000176:	f3bf 8f5f 	dmb	sy
2000017a:	6013      	str	r3, [r2, #0]
2000017c:	f381 8810 	msr	PRIMASK, r1
20000180:	4770      	bx	lr
20000182:	46c0      	nop			; (mov r8, r8)

20000184 <__aeabi_idiv0>:
20000184:	4770      	bx	lr
20000186:	46c0      	nop			; (mov r8, r8)

20000188 <striped_spin_lock_num>:
20000188:	0010 0000                                   ....

2000018c <irq_handler_chain_slots>:
2000018c:	00000000 	.word	0x00000000
20000190:	00010000 	.word	0x00010000
	...
2000019c:	00020000 	.word	0x00020000
	...
200001a8:	00030000 	.word	0x00030000
	...
200001b4:	00ff0000 	.word	0x00ff0000
200001b8:	00000000 	.word	0x00000000

200001bc <irq_handler_chain_first_slot>:
200001bc:	b500      	push	{lr}
200001be:	6848      	ldr	r0, [r1, #4]
200001c0:	3101      	adds	r1, #1
200001c2:	468e      	mov	lr, r1
200001c4:	4700      	bx	r0

200001c6 <irq_handler_chain_remove_tail>:
200001c6:	4670      	mov	r0, lr
200001c8:	3809      	subs	r0, #9
200001ca:	4901      	ldr	r1, [pc, #4]	; (200001d0 <irq_handler_chain_remove_tail+0xa>)
200001cc:	4788      	blx	r1
200001ce:	bd00      	pop	{pc}
200001d0:	10001df9 	.word	0x10001df9
	...

200001e0 <aeabi_bits_funcs>:
200001e0:	00003350 	.word	0x00003350
200001e4:	0000334c 	.word	0x0000334c
200001e8:	00003354 	.word	0x00003354
200001ec:	00003352 	.word	0x00003352

200001f0 <aeabi_bits_funcs_end>:
200001f0:	0000534d 	.word	0x0000534d
200001f4:	0000434d 	.word	0x0000434d
200001f8:	00003453 	.word	0x00003453
200001fc:	00003443 	.word	0x00003443

20000200 <stdio_uart>:
20000200:	10004741 00000000 1000477d 00000000     AG......}G......
20000210:	00000100                                ....

20000214 <_impure_ptr>:
20000214:	20000218                                ... 

20000218 <impure_data>:
20000218:	00000000 20000504 2000056c 200005d4     ....... l.. ... 
	...
200002c0:	00000001 00000000 abcd330e e66d1234     .........3..4.m.
200002d0:	0005deec 0000000b 00000000 00000000     ................
	...

20000640 <__malloc_av_>:
	...
20000648:	20000640 20000640 20000648 20000648     @.. @.. H.. H.. 
20000658:	20000650 20000650 20000658 20000658     P.. P.. X.. X.. 
20000668:	20000660 20000660 20000668 20000668     `.. `.. h.. h.. 
20000678:	20000670 20000670 20000678 20000678     p.. p.. x.. x.. 
20000688:	20000680 20000680 20000688 20000688     ... ... ... ... 
20000698:	20000690 20000690 20000698 20000698     ... ... ... ... 
200006a8:	200006a0 200006a0 200006a8 200006a8     ... ... ... ... 
200006b8:	200006b0 200006b0 200006b8 200006b8     ... ... ... ... 
200006c8:	200006c0 200006c0 200006c8 200006c8     ... ... ... ... 
200006d8:	200006d0 200006d0 200006d8 200006d8     ... ... ... ... 
200006e8:	200006e0 200006e0 200006e8 200006e8     ... ... ... ... 
200006f8:	200006f0 200006f0 200006f8 200006f8     ... ... ... ... 
20000708:	20000700 20000700 20000708 20000708     ... ... ... ... 
20000718:	20000710 20000710 20000718 20000718     ... ... ... ... 
20000728:	20000720 20000720 20000728 20000728      ..  .. (.. (.. 
20000738:	20000730 20000730 20000738 20000738     0.. 0.. 8.. 8.. 
20000748:	20000740 20000740 20000748 20000748     @.. @.. H.. H.. 
20000758:	20000750 20000750 20000758 20000758     P.. P.. X.. X.. 
20000768:	20000760 20000760 20000768 20000768     `.. `.. h.. h.. 
20000778:	20000770 20000770 20000778 20000778     p.. p.. x.. x.. 
20000788:	20000780 20000780 20000788 20000788     ... ... ... ... 
20000798:	20000790 20000790 20000798 20000798     ... ... ... ... 
200007a8:	200007a0 200007a0 200007a8 200007a8     ... ... ... ... 
200007b8:	200007b0 200007b0 200007b8 200007b8     ... ... ... ... 
200007c8:	200007c0 200007c0 200007c8 200007c8     ... ... ... ... 
200007d8:	200007d0 200007d0 200007d8 200007d8     ... ... ... ... 
200007e8:	200007e0 200007e0 200007e8 200007e8     ... ... ... ... 
200007f8:	200007f0 200007f0 200007f8 200007f8     ... ... ... ... 
20000808:	20000800 20000800 20000808 20000808     ... ... ... ... 
20000818:	20000810 20000810 20000818 20000818     ... ... ... ... 
20000828:	20000820 20000820 20000828 20000828      ..  .. (.. (.. 
20000838:	20000830 20000830 20000838 20000838     0.. 0.. 8.. 8.. 
20000848:	20000840 20000840 20000848 20000848     @.. @.. H.. H.. 
20000858:	20000850 20000850 20000858 20000858     P.. P.. X.. X.. 
20000868:	20000860 20000860 20000868 20000868     `.. `.. h.. h.. 
20000878:	20000870 20000870 20000878 20000878     p.. p.. x.. x.. 
20000888:	20000880 20000880 20000888 20000888     ... ... ... ... 
20000898:	20000890 20000890 20000898 20000898     ... ... ... ... 
200008a8:	200008a0 200008a0 200008a8 200008a8     ... ... ... ... 
200008b8:	200008b0 200008b0 200008b8 200008b8     ... ... ... ... 
200008c8:	200008c0 200008c0 200008c8 200008c8     ... ... ... ... 
200008d8:	200008d0 200008d0 200008d8 200008d8     ... ... ... ... 
200008e8:	200008e0 200008e0 200008e8 200008e8     ... ... ... ... 
200008f8:	200008f0 200008f0 200008f8 200008f8     ... ... ... ... 
20000908:	20000900 20000900 20000908 20000908     ... ... ... ... 
20000918:	20000910 20000910 20000918 20000918     ... ... ... ... 
20000928:	20000920 20000920 20000928 20000928      ..  .. (.. (.. 
20000938:	20000930 20000930 20000938 20000938     0.. 0.. 8.. 8.. 
20000948:	20000940 20000940 20000948 20000948     @.. @.. H.. H.. 
20000958:	20000950 20000950 20000958 20000958     P.. P.. X.. X.. 
20000968:	20000960 20000960 20000968 20000968     `.. `.. h.. h.. 
20000978:	20000970 20000970 20000978 20000978     p.. p.. x.. x.. 
20000988:	20000980 20000980 20000988 20000988     ... ... ... ... 
20000998:	20000990 20000990 20000998 20000998     ... ... ... ... 
200009a8:	200009a0 200009a0 200009a8 200009a8     ... ... ... ... 
200009b8:	200009b0 200009b0 200009b8 200009b8     ... ... ... ... 
200009c8:	200009c0 200009c0 200009c8 200009c8     ... ... ... ... 
200009d8:	200009d0 200009d0 200009d8 200009d8     ... ... ... ... 
200009e8:	200009e0 200009e0 200009e8 200009e8     ... ... ... ... 
200009f8:	200009f0 200009f0 200009f8 200009f8     ... ... ... ... 
20000a08:	20000a00 20000a00 20000a08 20000a08     ... ... ... ... 
20000a18:	20000a10 20000a10 20000a18 20000a18     ... ... ... ... 
20000a28:	20000a20 20000a20 20000a28 20000a28      ..  .. (.. (.. 
20000a38:	20000a30 20000a30 20000a38 20000a38     0.. 0.. 8.. 8.. 

20000a48 <__malloc_sbrk_base>:
20000a48:	ffffffff                                ....

20000a4c <__malloc_trim_threshold>:
20000a4c:	00020000                                ....

20000a50 <print_mutex>:
	...

20000a58 <__mutex_array_end>:
20000a58:	10004381 	.word	0x10004381
20000a5c:	10003535 	.word	0x10003535
20000a60:	10003c29 	.word	0x10003c29
20000a64:	100042e1 	.word	0x100042e1

20000a68 <__frame_dummy_init_array_entry>:
20000a68:	10000301                                ....
