Archive member included to satisfy reference by file (symbol)

c:/users/cotaa/documents/pico/pico-toolchain/gcc-arm-none-eabi-9-2019-q4-major-win32/bin/../lib/gcc/arm-none-eabi/9.2.1/thumb/v6-m/nofp\libgcc.a(_dvmd_tls.o)
                              CMakeFiles/rtc_alarm.dir/C_/Users/cotaa/Documents/Pico/pico-sdk/src/rp2_common/pico_divider/divider.S.obj (__aeabi_idiv0)
c:/users/cotaa/documents/pico/pico-toolchain/gcc-arm-none-eabi-9-2019-q4-major-win32/bin/../lib/gcc/arm-none-eabi/9.2.1/../../../../arm-none-eabi/lib/thumb/v6-m/nofp\libc.a(lib_a-calloc.o)
                              CMakeFiles/rtc_alarm.dir/C_/Users/cotaa/Documents/Pico/pico-sdk/src/rp2_common/pico_malloc/pico_malloc.c.obj (calloc)
c:/users/cotaa/documents/pico/pico-toolchain/gcc-arm-none-eabi-9-2019-q4-major-win32/bin/../lib/gcc/arm-none-eabi/9.2.1/../../../../arm-none-eabi/lib/thumb/v6-m/nofp\libc.a(lib_a-callocr.o)
                              c:/users/cotaa/documents/pico/pico-toolchain/gcc-arm-none-eabi-9-2019-q4-major-win32/bin/../lib/gcc/arm-none-eabi/9.2.1/../../../../arm-none-eabi/lib/thumb/v6-m/nofp\libc.a(lib_a-calloc.o) (_calloc_r)
c:/users/cotaa/documents/pico/pico-toolchain/gcc-arm-none-eabi-9-2019-q4-major-win32/bin/../lib/gcc/arm-none-eabi/9.2.1/../../../../arm-none-eabi/lib/thumb/v6-m/nofp\libc.a(lib_a-impure.o)
                              c:/users/cotaa/documents/pico/pico-toolchain/gcc-arm-none-eabi-9-2019-q4-major-win32/bin/../lib/gcc/arm-none-eabi/9.2.1/../../../../arm-none-eabi/lib/thumb/v6-m/nofp\libc.a(lib_a-calloc.o) (_impure_ptr)
c:/users/cotaa/documents/pico/pico-toolchain/gcc-arm-none-eabi-9-2019-q4-major-win32/bin/../lib/gcc/arm-none-eabi/9.2.1/../../../../arm-none-eabi/lib/thumb/v6-m/nofp\libc.a(lib_a-init.o)
                              c:/users/cotaa/documents/pico/pico-toolchain/gcc-arm-none-eabi-9-2019-q4-major-win32/bin/../lib/gcc/arm-none-eabi/9.2.1/../../../../arm-none-eabi/lib/thumb/v6-m/nofp/crt0.o (__libc_init_array)
c:/users/cotaa/documents/pico/pico-toolchain/gcc-arm-none-eabi-9-2019-q4-major-win32/bin/../lib/gcc/arm-none-eabi/9.2.1/../../../../arm-none-eabi/lib/thumb/v6-m/nofp\libc.a(lib_a-malloc.o)
                              CMakeFiles/rtc_alarm.dir/C_/Users/cotaa/Documents/Pico/pico-sdk/src/rp2_common/pico_malloc/pico_malloc.c.obj (malloc)
c:/users/cotaa/documents/pico/pico-toolchain/gcc-arm-none-eabi-9-2019-q4-major-win32/bin/../lib/gcc/arm-none-eabi/9.2.1/../../../../arm-none-eabi/lib/thumb/v6-m/nofp\libc.a(lib_a-mallocr.o)
                              c:/users/cotaa/documents/pico/pico-toolchain/gcc-arm-none-eabi-9-2019-q4-major-win32/bin/../lib/gcc/arm-none-eabi/9.2.1/../../../../arm-none-eabi/lib/thumb/v6-m/nofp\libc.a(lib_a-callocr.o) (_malloc_r)
c:/users/cotaa/documents/pico/pico-toolchain/gcc-arm-none-eabi-9-2019-q4-major-win32/bin/../lib/gcc/arm-none-eabi/9.2.1/../../../../arm-none-eabi/lib/thumb/v6-m/nofp\libc.a(lib_a-mlock.o)
                              c:/users/cotaa/documents/pico/pico-toolchain/gcc-arm-none-eabi-9-2019-q4-major-win32/bin/../lib/gcc/arm-none-eabi/9.2.1/../../../../arm-none-eabi/lib/thumb/v6-m/nofp\libc.a(lib_a-mallocr.o) (__malloc_lock)
c:/users/cotaa/documents/pico/pico-toolchain/gcc-arm-none-eabi-9-2019-q4-major-win32/bin/../lib/gcc/arm-none-eabi/9.2.1/../../../../arm-none-eabi/lib/thumb/v6-m/nofp\libc.a(lib_a-sbrkr.o)
                              c:/users/cotaa/documents/pico/pico-toolchain/gcc-arm-none-eabi-9-2019-q4-major-win32/bin/../lib/gcc/arm-none-eabi/9.2.1/../../../../arm-none-eabi/lib/thumb/v6-m/nofp\libc.a(lib_a-mallocr.o) (_sbrk_r)
c:/users/cotaa/documents/pico/pico-toolchain/gcc-arm-none-eabi-9-2019-q4-major-win32/bin/../lib/gcc/arm-none-eabi/9.2.1/../../../../arm-none-eabi/lib/thumb/v6-m/nofp\libc.a(lib_a-strlen-stub.o)
                              CMakeFiles/rtc_alarm.dir/C_/Users/cotaa/Documents/Pico/pico-sdk/src/rp2_common/pico_stdio/stdio.c.obj (strlen)
c:/users/cotaa/documents/pico/pico-toolchain/gcc-arm-none-eabi-9-2019-q4-major-win32/bin/../lib/gcc/arm-none-eabi/9.2.1/../../../../arm-none-eabi/lib/thumb/v6-m/nofp\libc.a(lib_a-freer.o)
                              c:/users/cotaa/documents/pico/pico-toolchain/gcc-arm-none-eabi-9-2019-q4-major-win32/bin/../lib/gcc/arm-none-eabi/9.2.1/../../../../arm-none-eabi/lib/thumb/v6-m/nofp\libc.a(lib_a-malloc.o) (_free_r)
c:/users/cotaa/documents/pico/pico-toolchain/gcc-arm-none-eabi-9-2019-q4-major-win32/bin/../lib/gcc/arm-none-eabi/9.2.1/../../../../arm-none-eabi/lib/thumb/v6-m/nofp\libc.a(lib_a-lock.o)
                              c:/users/cotaa/documents/pico/pico-toolchain/gcc-arm-none-eabi-9-2019-q4-major-win32/bin/../lib/gcc/arm-none-eabi/9.2.1/../../../../arm-none-eabi/lib/thumb/v6-m/nofp\libc.a(lib_a-mlock.o) (__retarget_lock_acquire_recursive)
c:/users/cotaa/documents/pico/pico-toolchain/gcc-arm-none-eabi-9-2019-q4-major-win32/bin/../lib/gcc/arm-none-eabi/9.2.1/../../../../arm-none-eabi/lib/thumb/v6-m/nofp\libc.a(lib_a-reent.o)
                              c:/users/cotaa/documents/pico/pico-toolchain/gcc-arm-none-eabi-9-2019-q4-major-win32/bin/../lib/gcc/arm-none-eabi/9.2.1/../../../../arm-none-eabi/lib/thumb/v6-m/nofp\libc.a(lib_a-sbrkr.o) (errno)

Allocating common symbols
Common symbol       size              file

__lock___atexit_recursive_mutex
                    0x1               c:/users/cotaa/documents/pico/pico-toolchain/gcc-arm-none-eabi-9-2019-q4-major-win32/bin/../lib/gcc/arm-none-eabi/9.2.1/../../../../arm-none-eabi/lib/thumb/v6-m/nofp\libc.a(lib_a-lock.o)
sf_table            0x100             CMakeFiles/rtc_alarm.dir/C_/Users/cotaa/Documents/Pico/pico-sdk/src/rp2_common/pico_float/float_init_rom.c.obj
__lock___arc4random_mutex
                    0x1               c:/users/cotaa/documents/pico/pico-toolchain/gcc-arm-none-eabi-9-2019-q4-major-win32/bin/../lib/gcc/arm-none-eabi/9.2.1/../../../../arm-none-eabi/lib/thumb/v6-m/nofp\libc.a(lib_a-lock.o)
errno               0x4               c:/users/cotaa/documents/pico/pico-toolchain/gcc-arm-none-eabi-9-2019-q4-major-win32/bin/../lib/gcc/arm-none-eabi/9.2.1/../../../../arm-none-eabi/lib/thumb/v6-m/nofp\libc.a(lib_a-reent.o)
__lock___env_recursive_mutex
                    0x1               c:/users/cotaa/documents/pico/pico-toolchain/gcc-arm-none-eabi-9-2019-q4-major-win32/bin/../lib/gcc/arm-none-eabi/9.2.1/../../../../arm-none-eabi/lib/thumb/v6-m/nofp\libc.a(lib_a-lock.o)
__lock___sinit_recursive_mutex
                    0x1               c:/users/cotaa/documents/pico/pico-toolchain/gcc-arm-none-eabi-9-2019-q4-major-win32/bin/../lib/gcc/arm-none-eabi/9.2.1/../../../../arm-none-eabi/lib/thumb/v6-m/nofp\libc.a(lib_a-lock.o)
__lock___malloc_recursive_mutex
                    0x1               c:/users/cotaa/documents/pico/pico-toolchain/gcc-arm-none-eabi-9-2019-q4-major-win32/bin/../lib/gcc/arm-none-eabi/9.2.1/../../../../arm-none-eabi/lib/thumb/v6-m/nofp\libc.a(lib_a-lock.o)
sf_clz_func         0x4               CMakeFiles/rtc_alarm.dir/C_/Users/cotaa/Documents/Pico/pico-sdk/src/rp2_common/pico_float/float_init_rom.c.obj
__lock___at_quick_exit_mutex
                    0x1               c:/users/cotaa/documents/pico/pico-toolchain/gcc-arm-none-eabi-9-2019-q4-major-win32/bin/../lib/gcc/arm-none-eabi/9.2.1/../../../../arm-none-eabi/lib/thumb/v6-m/nofp\libc.a(lib_a-lock.o)
sd_table            0x100             CMakeFiles/rtc_alarm.dir/C_/Users/cotaa/Documents/Pico/pico-sdk/src/rp2_common/pico_double/double_init_rom.c.obj
uart_char_to_line_feed
                    0x4               CMakeFiles/rtc_alarm.dir/C_/Users/cotaa/Documents/Pico/pico-sdk/src/rp2_common/hardware_uart/uart.c.obj
__lock___dd_hash_mutex
                    0x1               c:/users/cotaa/documents/pico/pico-toolchain/gcc-arm-none-eabi-9-2019-q4-major-win32/bin/../lib/gcc/arm-none-eabi/9.2.1/../../../../arm-none-eabi/lib/thumb/v6-m/nofp\libc.a(lib_a-lock.o)
__lock___tz_mutex   0x1               c:/users/cotaa/documents/pico/pico-toolchain/gcc-arm-none-eabi-9-2019-q4-major-win32/bin/../lib/gcc/arm-none-eabi/9.2.1/../../../../arm-none-eabi/lib/thumb/v6-m/nofp\libc.a(lib_a-lock.o)
__lock___sfp_recursive_mutex
                    0x1               c:/users/cotaa/documents/pico/pico-toolchain/gcc-arm-none-eabi-9-2019-q4-major-win32/bin/../lib/gcc/arm-none-eabi/9.2.1/../../../../arm-none-eabi/lib/thumb/v6-m/nofp\libc.a(lib_a-lock.o)

Discarded input sections

 .text          0x00000000        0x0 c:/users/cotaa/documents/pico/pico-toolchain/gcc-arm-none-eabi-9-2019-q4-major-win32/bin/../lib/gcc/arm-none-eabi/9.2.1/thumb/v6-m/nofp/crti.o
 .data          0x00000000        0x0 c:/users/cotaa/documents/pico/pico-toolchain/gcc-arm-none-eabi-9-2019-q4-major-win32/bin/../lib/gcc/arm-none-eabi/9.2.1/thumb/v6-m/nofp/crti.o
 .bss           0x00000000        0x0 c:/users/cotaa/documents/pico/pico-toolchain/gcc-arm-none-eabi-9-2019-q4-major-win32/bin/../lib/gcc/arm-none-eabi/9.2.1/thumb/v6-m/nofp/crti.o
 .data          0x00000000        0x4 c:/users/cotaa/documents/pico/pico-toolchain/gcc-arm-none-eabi-9-2019-q4-major-win32/bin/../lib/gcc/arm-none-eabi/9.2.1/thumb/v6-m/nofp/crtbegin.o
 .fini_array    0x00000000        0x4 c:/users/cotaa/documents/pico/pico-toolchain/gcc-arm-none-eabi-9-2019-q4-major-win32/bin/../lib/gcc/arm-none-eabi/9.2.1/thumb/v6-m/nofp/crtbegin.o
 .text          0x00000000       0x78 c:/users/cotaa/documents/pico/pico-toolchain/gcc-arm-none-eabi-9-2019-q4-major-win32/bin/../lib/gcc/arm-none-eabi/9.2.1/../../../../arm-none-eabi/lib/thumb/v6-m/nofp/crt0.o
 .data          0x00000000        0x0 c:/users/cotaa/documents/pico/pico-toolchain/gcc-arm-none-eabi-9-2019-q4-major-win32/bin/../lib/gcc/arm-none-eabi/9.2.1/../../../../arm-none-eabi/lib/thumb/v6-m/nofp/crt0.o
 .bss           0x00000000        0x0 c:/users/cotaa/documents/pico/pico-toolchain/gcc-arm-none-eabi-9-2019-q4-major-win32/bin/../lib/gcc/arm-none-eabi/9.2.1/../../../../arm-none-eabi/lib/thumb/v6-m/nofp/crt0.o
 .ARM.extab     0x00000000        0x0 c:/users/cotaa/documents/pico/pico-toolchain/gcc-arm-none-eabi-9-2019-q4-major-win32/bin/../lib/gcc/arm-none-eabi/9.2.1/../../../../arm-none-eabi/lib/thumb/v6-m/nofp/crt0.o
 .ARM.exidx     0x00000000        0x8 c:/users/cotaa/documents/pico/pico-toolchain/gcc-arm-none-eabi-9-2019-q4-major-win32/bin/../lib/gcc/arm-none-eabi/9.2.1/../../../../arm-none-eabi/lib/thumb/v6-m/nofp/crt0.o
 .ARM.attributes
                0x00000000       0x1b c:/users/cotaa/documents/pico/pico-toolchain/gcc-arm-none-eabi-9-2019-q4-major-win32/bin/../lib/gcc/arm-none-eabi/9.2.1/../../../../arm-none-eabi/lib/thumb/v6-m/nofp/crt0.o
 .text          0x00000000        0x0 CMakeFiles/rtc_alarm.dir/rtc_alarm.c.obj
 .data          0x00000000        0x0 CMakeFiles/rtc_alarm.dir/rtc_alarm.c.obj
 .bss           0x00000000        0x0 CMakeFiles/rtc_alarm.dir/rtc_alarm.c.obj
 .text          0x00000000        0x0 CMakeFiles/rtc_alarm.dir/C_/Users/cotaa/Documents/Pico/pico-sdk/src/rp2_common/pico_stdlib/stdlib.c.obj
 .data          0x00000000        0x0 CMakeFiles/rtc_alarm.dir/C_/Users/cotaa/Documents/Pico/pico-sdk/src/rp2_common/pico_stdlib/stdlib.c.obj
 .bss           0x00000000        0x0 CMakeFiles/rtc_alarm.dir/C_/Users/cotaa/Documents/Pico/pico-sdk/src/rp2_common/pico_stdlib/stdlib.c.obj
 .text.set_sys_clock_48mhz
                0x00000000       0x40 CMakeFiles/rtc_alarm.dir/C_/Users/cotaa/Documents/Pico/pico-sdk/src/rp2_common/pico_stdlib/stdlib.c.obj
 .text.set_sys_clock_pll
                0x00000000       0x7c CMakeFiles/rtc_alarm.dir/C_/Users/cotaa/Documents/Pico/pico-sdk/src/rp2_common/pico_stdlib/stdlib.c.obj
 .text.check_sys_clock_khz
                0x00000000      0x16c CMakeFiles/rtc_alarm.dir/C_/Users/cotaa/Documents/Pico/pico-sdk/src/rp2_common/pico_stdlib/stdlib.c.obj
 .text.setup_default_uart
                0x00000000        0x8 CMakeFiles/rtc_alarm.dir/C_/Users/cotaa/Documents/Pico/pico-sdk/src/rp2_common/pico_stdlib/stdlib.c.obj
 .comment       0x00000000       0x7a CMakeFiles/rtc_alarm.dir/C_/Users/cotaa/Documents/Pico/pico-sdk/src/rp2_common/pico_stdlib/stdlib.c.obj
 .ARM.attributes
                0x00000000       0x2b CMakeFiles/rtc_alarm.dir/C_/Users/cotaa/Documents/Pico/pico-sdk/src/rp2_common/pico_stdlib/stdlib.c.obj
 .text          0x00000000        0x0 CMakeFiles/rtc_alarm.dir/C_/Users/cotaa/Documents/Pico/pico-sdk/src/rp2_common/hardware_gpio/gpio.c.obj
 .data          0x00000000        0x0 CMakeFiles/rtc_alarm.dir/C_/Users/cotaa/Documents/Pico/pico-sdk/src/rp2_common/hardware_gpio/gpio.c.obj
 .bss           0x00000000        0x0 CMakeFiles/rtc_alarm.dir/C_/Users/cotaa/Documents/Pico/pico-sdk/src/rp2_common/hardware_gpio/gpio.c.obj
 .text.gpio_irq_handler
                0x00000000       0x7c CMakeFiles/rtc_alarm.dir/C_/Users/cotaa/Documents/Pico/pico-sdk/src/rp2_common/hardware_gpio/gpio.c.obj
 .text.gpio_get_pad
                0x00000000       0x28 CMakeFiles/rtc_alarm.dir/C_/Users/cotaa/Documents/Pico/pico-sdk/src/rp2_common/hardware_gpio/gpio.c.obj
 .text.gpio_get_function
                0x00000000       0x14 CMakeFiles/rtc_alarm.dir/C_/Users/cotaa/Documents/Pico/pico-sdk/src/rp2_common/hardware_gpio/gpio.c.obj
 .text.gpio_set_pulls
                0x00000000       0x30 CMakeFiles/rtc_alarm.dir/C_/Users/cotaa/Documents/Pico/pico-sdk/src/rp2_common/hardware_gpio/gpio.c.obj
 .text.gpio_set_inover
                0x00000000       0x24 CMakeFiles/rtc_alarm.dir/C_/Users/cotaa/Documents/Pico/pico-sdk/src/rp2_common/hardware_gpio/gpio.c.obj
 .text.gpio_set_outover
                0x00000000       0x24 CMakeFiles/rtc_alarm.dir/C_/Users/cotaa/Documents/Pico/pico-sdk/src/rp2_common/hardware_gpio/gpio.c.obj
 .text.gpio_set_oeover
                0x00000000       0x24 CMakeFiles/rtc_alarm.dir/C_/Users/cotaa/Documents/Pico/pico-sdk/src/rp2_common/hardware_gpio/gpio.c.obj
 .text.gpio_set_irq_enabled
                0x00000000       0x54 CMakeFiles/rtc_alarm.dir/C_/Users/cotaa/Documents/Pico/pico-sdk/src/rp2_common/hardware_gpio/gpio.c.obj
 .text.gpio_set_irq_enabled_with_callback
                0x00000000       0x78 CMakeFiles/rtc_alarm.dir/C_/Users/cotaa/Documents/Pico/pico-sdk/src/rp2_common/hardware_gpio/gpio.c.obj
 .text.gpio_set_dormant_irq_enabled
                0x00000000       0x40 CMakeFiles/rtc_alarm.dir/C_/Users/cotaa/Documents/Pico/pico-sdk/src/rp2_common/hardware_gpio/gpio.c.obj
 .text.gpio_acknowledge_irq
                0x00000000       0x1c CMakeFiles/rtc_alarm.dir/C_/Users/cotaa/Documents/Pico/pico-sdk/src/rp2_common/hardware_gpio/gpio.c.obj
 .text.gpio_debug_pins_init
                0x00000000       0x84 CMakeFiles/rtc_alarm.dir/C_/Users/cotaa/Documents/Pico/pico-sdk/src/rp2_common/hardware_gpio/gpio.c.obj
 .text.gpio_set_input_enabled
                0x00000000       0x28 CMakeFiles/rtc_alarm.dir/C_/Users/cotaa/Documents/Pico/pico-sdk/src/rp2_common/hardware_gpio/gpio.c.obj
 .text.gpio_init
                0x00000000       0x3c CMakeFiles/rtc_alarm.dir/C_/Users/cotaa/Documents/Pico/pico-sdk/src/rp2_common/hardware_gpio/gpio.c.obj
 .text.gpio_init_mask
                0x00000000       0x6c CMakeFiles/rtc_alarm.dir/C_/Users/cotaa/Documents/Pico/pico-sdk/src/rp2_common/hardware_gpio/gpio.c.obj
 .rodata.str1.4
                0x00000000        0x6 CMakeFiles/rtc_alarm.dir/C_/Users/cotaa/Documents/Pico/pico-sdk/src/rp2_common/hardware_gpio/gpio.c.obj
 .binary_info.__bi_ptr144
                0x00000000        0x4 CMakeFiles/rtc_alarm.dir/C_/Users/cotaa/Documents/Pico/pico-sdk/src/rp2_common/hardware_gpio/gpio.c.obj
 .bss._callbacks
                0x00000000        0x8 CMakeFiles/rtc_alarm.dir/C_/Users/cotaa/Documents/Pico/pico-sdk/src/rp2_common/hardware_gpio/gpio.c.obj
 .rodata.__bi_144.4697
                0x00000000        0xc CMakeFiles/rtc_alarm.dir/C_/Users/cotaa/Documents/Pico/pico-sdk/src/rp2_common/hardware_gpio/gpio.c.obj
 .text          0x00000000        0x0 CMakeFiles/rtc_alarm.dir/C_/Users/cotaa/Documents/Pico/pico-sdk/src/rp2_common/hardware_claim/claim.c.obj
 .data          0x00000000        0x0 CMakeFiles/rtc_alarm.dir/C_/Users/cotaa/Documents/Pico/pico-sdk/src/rp2_common/hardware_claim/claim.c.obj
 .bss           0x00000000        0x0 CMakeFiles/rtc_alarm.dir/C_/Users/cotaa/Documents/Pico/pico-sdk/src/rp2_common/hardware_claim/claim.c.obj
 .text.hw_claim_lock
                0x00000000       0x18 CMakeFiles/rtc_alarm.dir/C_/Users/cotaa/Documents/Pico/pico-sdk/src/rp2_common/hardware_claim/claim.c.obj
 .text.hw_claim_unlock
                0x00000000       0x14 CMakeFiles/rtc_alarm.dir/C_/Users/cotaa/Documents/Pico/pico-sdk/src/rp2_common/hardware_claim/claim.c.obj
 .text.hw_is_claimed
                0x00000000       0x48 CMakeFiles/rtc_alarm.dir/C_/Users/cotaa/Documents/Pico/pico-sdk/src/rp2_common/hardware_claim/claim.c.obj
 .text.hw_claim_unused_from_range
                0x00000000       0x9c CMakeFiles/rtc_alarm.dir/C_/Users/cotaa/Documents/Pico/pico-sdk/src/rp2_common/hardware_claim/claim.c.obj
 .text.hw_claim_clear
                0x00000000       0x38 CMakeFiles/rtc_alarm.dir/C_/Users/cotaa/Documents/Pico/pico-sdk/src/rp2_common/hardware_claim/claim.c.obj
 .text          0x00000000        0x0 CMakeFiles/rtc_alarm.dir/C_/Users/cotaa/Documents/Pico/pico-sdk/src/rp2_common/hardware_sync/sync.c.obj
 .data          0x00000000        0x0 CMakeFiles/rtc_alarm.dir/C_/Users/cotaa/Documents/Pico/pico-sdk/src/rp2_common/hardware_sync/sync.c.obj
 .bss           0x00000000        0x0 CMakeFiles/rtc_alarm.dir/C_/Users/cotaa/Documents/Pico/pico-sdk/src/rp2_common/hardware_sync/sync.c.obj
 .text.spin_lock_init
                0x00000000       0x18 CMakeFiles/rtc_alarm.dir/C_/Users/cotaa/Documents/Pico/pico-sdk/src/rp2_common/hardware_sync/sync.c.obj
 .rodata.spin_lock_claim.str1.4
                0x00000000       0x1f CMakeFiles/rtc_alarm.dir/C_/Users/cotaa/Documents/Pico/pico-sdk/src/rp2_common/hardware_sync/sync.c.obj
 .text.spin_lock_claim
                0x00000000       0x18 CMakeFiles/rtc_alarm.dir/C_/Users/cotaa/Documents/Pico/pico-sdk/src/rp2_common/hardware_sync/sync.c.obj
 .text.spin_lock_claim_mask
                0x00000000       0x40 CMakeFiles/rtc_alarm.dir/C_/Users/cotaa/Documents/Pico/pico-sdk/src/rp2_common/hardware_sync/sync.c.obj
 .text.spin_lock_unclaim
                0x00000000       0x10 CMakeFiles/rtc_alarm.dir/C_/Users/cotaa/Documents/Pico/pico-sdk/src/rp2_common/hardware_sync/sync.c.obj
 .rodata.spin_lock_claim_unused.str1.4
                0x00000000       0x1b CMakeFiles/rtc_alarm.dir/C_/Users/cotaa/Documents/Pico/pico-sdk/src/rp2_common/hardware_sync/sync.c.obj
 .text.spin_lock_claim_unused
                0x00000000       0x20 CMakeFiles/rtc_alarm.dir/C_/Users/cotaa/Documents/Pico/pico-sdk/src/rp2_common/hardware_sync/sync.c.obj
 .bss.claimed   0x00000000        0x4 CMakeFiles/rtc_alarm.dir/C_/Users/cotaa/Documents/Pico/pico-sdk/src/rp2_common/hardware_sync/sync.c.obj
 .text          0x00000000        0x0 CMakeFiles/rtc_alarm.dir/C_/Users/cotaa/Documents/Pico/pico-sdk/src/rp2_common/pico_platform/platform.c.obj
 .data          0x00000000        0x0 CMakeFiles/rtc_alarm.dir/C_/Users/cotaa/Documents/Pico/pico-sdk/src/rp2_common/pico_platform/platform.c.obj
 .bss           0x00000000        0x0 CMakeFiles/rtc_alarm.dir/C_/Users/cotaa/Documents/Pico/pico-sdk/src/rp2_common/pico_platform/platform.c.obj
 .text.rp2040_chip_version
                0x00000000        0xc CMakeFiles/rtc_alarm.dir/C_/Users/cotaa/Documents/Pico/pico-sdk/src/rp2_common/pico_platform/platform.c.obj
 .text          0x00000000        0x0 CMakeFiles/rtc_alarm.dir/C_/Users/cotaa/Documents/Pico/pico-sdk/src/rp2_common/hardware_uart/uart.c.obj
 .data          0x00000000        0x0 CMakeFiles/rtc_alarm.dir/C_/Users/cotaa/Documents/Pico/pico-sdk/src/rp2_common/hardware_uart/uart.c.obj
 .bss           0x00000000        0x0 CMakeFiles/rtc_alarm.dir/C_/Users/cotaa/Documents/Pico/pico-sdk/src/rp2_common/hardware_uart/uart.c.obj
 .text.uart_deinit
                0x00000000       0x24 CMakeFiles/rtc_alarm.dir/C_/Users/cotaa/Documents/Pico/pico-sdk/src/rp2_common/hardware_uart/uart.c.obj
 .text.uart_set_baudrate
                0x00000000       0x50 CMakeFiles/rtc_alarm.dir/C_/Users/cotaa/Documents/Pico/pico-sdk/src/rp2_common/hardware_uart/uart.c.obj
 .text.uart_set_translate_crlf
                0x00000000       0x28 CMakeFiles/rtc_alarm.dir/C_/Users/cotaa/Documents/Pico/pico-sdk/src/rp2_common/hardware_uart/uart.c.obj
 .text.uart_is_readable_within_us
                0x00000000       0x24 CMakeFiles/rtc_alarm.dir/C_/Users/cotaa/Documents/Pico/pico-sdk/src/rp2_common/hardware_uart/uart.c.obj
 .text          0x00000000        0x0 CMakeFiles/rtc_alarm.dir/C_/Users/cotaa/Documents/Pico/pico-sdk/src/rp2_common/hardware_divider/divider.S.obj
 .data          0x00000000        0x0 CMakeFiles/rtc_alarm.dir/C_/Users/cotaa/Documents/Pico/pico-sdk/src/rp2_common/hardware_divider/divider.S.obj
 .bss           0x00000000        0x0 CMakeFiles/rtc_alarm.dir/C_/Users/cotaa/Documents/Pico/pico-sdk/src/rp2_common/hardware_divider/divider.S.obj
 .text.hw_divider_divmod_s32
                0x00000000       0x18 CMakeFiles/rtc_alarm.dir/C_/Users/cotaa/Documents/Pico/pico-sdk/src/rp2_common/hardware_divider/divider.S.obj
 .text.hw_divider_divmod_u32
                0x00000000       0x18 CMakeFiles/rtc_alarm.dir/C_/Users/cotaa/Documents/Pico/pico-sdk/src/rp2_common/hardware_divider/divider.S.obj
 .text.hw_divider_save_state
                0x00000000       0x1c CMakeFiles/rtc_alarm.dir/C_/Users/cotaa/Documents/Pico/pico-sdk/src/rp2_common/hardware_divider/divider.S.obj
 .text.hw_divider_restore_state
                0x00000000       0x14 CMakeFiles/rtc_alarm.dir/C_/Users/cotaa/Documents/Pico/pico-sdk/src/rp2_common/hardware_divider/divider.S.obj
 .ARM.attributes
                0x00000000       0x22 CMakeFiles/rtc_alarm.dir/C_/Users/cotaa/Documents/Pico/pico-sdk/src/rp2_common/hardware_divider/divider.S.obj
 .text          0x00000000        0x0 CMakeFiles/rtc_alarm.dir/C_/Users/cotaa/Documents/Pico/pico-sdk/src/common/pico_time/time.c.obj
 .data          0x00000000        0x0 CMakeFiles/rtc_alarm.dir/C_/Users/cotaa/Documents/Pico/pico-sdk/src/common/pico_time/time.c.obj
 .bss           0x00000000        0x0 CMakeFiles/rtc_alarm.dir/C_/Users/cotaa/Documents/Pico/pico-sdk/src/common/pico_time/time.c.obj
 .text.repeating_timer_callback
                0x00000000       0x1c CMakeFiles/rtc_alarm.dir/C_/Users/cotaa/Documents/Pico/pico-sdk/src/common/pico_time/time.c.obj
 .text.sev_callback
                0x00000000        0x8 CMakeFiles/rtc_alarm.dir/C_/Users/cotaa/Documents/Pico/pico-sdk/src/common/pico_time/time.c.obj
 .rodata.alarm_pool_dump_key.str1.4
                0x00000000        0xf CMakeFiles/rtc_alarm.dir/C_/Users/cotaa/Documents/Pico/pico-sdk/src/common/pico_time/time.c.obj
 .text.alarm_pool_dump_key
                0x00000000       0x34 CMakeFiles/rtc_alarm.dir/C_/Users/cotaa/Documents/Pico/pico-sdk/src/common/pico_time/time.c.obj
 .text.alarm_pool_add_alarm_at.constprop.0
                0x00000000      0x128 CMakeFiles/rtc_alarm.dir/C_/Users/cotaa/Documents/Pico/pico-sdk/src/common/pico_time/time.c.obj
 .text.alarm_pool_get_default
                0x00000000        0xc CMakeFiles/rtc_alarm.dir/C_/Users/cotaa/Documents/Pico/pico-sdk/src/common/pico_time/time.c.obj
 .text.alarm_pool_create
                0x00000000       0x6c CMakeFiles/rtc_alarm.dir/C_/Users/cotaa/Documents/Pico/pico-sdk/src/common/pico_time/time.c.obj
 .text.alarm_pool_destroy
                0x00000000       0x3c CMakeFiles/rtc_alarm.dir/C_/Users/cotaa/Documents/Pico/pico-sdk/src/common/pico_time/time.c.obj
 .text.alarm_pool_add_alarm_at
                0x00000000      0x1b8 CMakeFiles/rtc_alarm.dir/C_/Users/cotaa/Documents/Pico/pico-sdk/src/common/pico_time/time.c.obj
 .text.alarm_pool_cancel_alarm
                0x00000000       0x70 CMakeFiles/rtc_alarm.dir/C_/Users/cotaa/Documents/Pico/pico-sdk/src/common/pico_time/time.c.obj
 .text.alarm_pool_hardware_alarm_num
                0x00000000        0x4 CMakeFiles/rtc_alarm.dir/C_/Users/cotaa/Documents/Pico/pico-sdk/src/common/pico_time/time.c.obj
 .text.alarm_pool_add_repeating_timer_us
                0x00000000      0x220 CMakeFiles/rtc_alarm.dir/C_/Users/cotaa/Documents/Pico/pico-sdk/src/common/pico_time/time.c.obj
 .text.cancel_repeating_timer
                0x00000000       0x8c CMakeFiles/rtc_alarm.dir/C_/Users/cotaa/Documents/Pico/pico-sdk/src/common/pico_time/time.c.obj
 .text.alarm_pool_dump
                0x00000000       0x34 CMakeFiles/rtc_alarm.dir/C_/Users/cotaa/Documents/Pico/pico-sdk/src/common/pico_time/time.c.obj
 .text.sleep_until
                0x00000000       0x84 CMakeFiles/rtc_alarm.dir/C_/Users/cotaa/Documents/Pico/pico-sdk/src/common/pico_time/time.c.obj
 .text.sleep_us
                0x00000000       0x98 CMakeFiles/rtc_alarm.dir/C_/Users/cotaa/Documents/Pico/pico-sdk/src/common/pico_time/time.c.obj
 .text.sleep_ms
                0x00000000       0xa8 CMakeFiles/rtc_alarm.dir/C_/Users/cotaa/Documents/Pico/pico-sdk/src/common/pico_time/time.c.obj
 .text.best_effort_wfe_or_timeout
                0x00000000       0x44 CMakeFiles/rtc_alarm.dir/C_/Users/cotaa/Documents/Pico/pico-sdk/src/common/pico_time/time.c.obj
 .rodata.at_the_end_of_time
                0x00000000        0x8 CMakeFiles/rtc_alarm.dir/C_/Users/cotaa/Documents/Pico/pico-sdk/src/common/pico_time/time.c.obj
 .rodata.nil_time
                0x00000000        0x8 CMakeFiles/rtc_alarm.dir/C_/Users/cotaa/Documents/Pico/pico-sdk/src/common/pico_time/time.c.obj
 .text          0x00000000        0x0 CMakeFiles/rtc_alarm.dir/C_/Users/cotaa/Documents/Pico/pico-sdk/src/common/pico_time/timeout_helper.c.obj
 .data          0x00000000        0x0 CMakeFiles/rtc_alarm.dir/C_/Users/cotaa/Documents/Pico/pico-sdk/src/common/pico_time/timeout_helper.c.obj
 .bss           0x00000000        0x0 CMakeFiles/rtc_alarm.dir/C_/Users/cotaa/Documents/Pico/pico-sdk/src/common/pico_time/timeout_helper.c.obj
 .text.check_single_timeout_us
                0x00000000       0x28 CMakeFiles/rtc_alarm.dir/C_/Users/cotaa/Documents/Pico/pico-sdk/src/common/pico_time/timeout_helper.c.obj
 .text.check_per_iteration_timeout_us
                0x00000000       0x4c CMakeFiles/rtc_alarm.dir/C_/Users/cotaa/Documents/Pico/pico-sdk/src/common/pico_time/timeout_helper.c.obj
 .text.init_single_timeout_until
                0x00000000        0xc CMakeFiles/rtc_alarm.dir/C_/Users/cotaa/Documents/Pico/pico-sdk/src/common/pico_time/timeout_helper.c.obj
 .text.init_per_iteration_timeout_us
                0x00000000       0x44 CMakeFiles/rtc_alarm.dir/C_/Users/cotaa/Documents/Pico/pico-sdk/src/common/pico_time/timeout_helper.c.obj
 .comment       0x00000000       0x7a CMakeFiles/rtc_alarm.dir/C_/Users/cotaa/Documents/Pico/pico-sdk/src/common/pico_time/timeout_helper.c.obj
 .ARM.attributes
                0x00000000       0x2b CMakeFiles/rtc_alarm.dir/C_/Users/cotaa/Documents/Pico/pico-sdk/src/common/pico_time/timeout_helper.c.obj
 .text          0x00000000        0x0 CMakeFiles/rtc_alarm.dir/C_/Users/cotaa/Documents/Pico/pico-sdk/src/rp2_common/hardware_timer/timer.c.obj
 .data          0x00000000        0x0 CMakeFiles/rtc_alarm.dir/C_/Users/cotaa/Documents/Pico/pico-sdk/src/rp2_common/hardware_timer/timer.c.obj
 .bss           0x00000000        0x0 CMakeFiles/rtc_alarm.dir/C_/Users/cotaa/Documents/Pico/pico-sdk/src/rp2_common/hardware_timer/timer.c.obj
 .text.hardware_alarm_unclaim
                0x00000000       0x10 CMakeFiles/rtc_alarm.dir/C_/Users/cotaa/Documents/Pico/pico-sdk/src/rp2_common/hardware_timer/timer.c.obj
 .text.busy_wait_us_32
                0x00000000       0x68 CMakeFiles/rtc_alarm.dir/C_/Users/cotaa/Documents/Pico/pico-sdk/src/rp2_common/hardware_timer/timer.c.obj
 .text.busy_wait_us
                0x00000000       0x54 CMakeFiles/rtc_alarm.dir/C_/Users/cotaa/Documents/Pico/pico-sdk/src/rp2_common/hardware_timer/timer.c.obj
 .text.busy_wait_until
                0x00000000       0x20 CMakeFiles/rtc_alarm.dir/C_/Users/cotaa/Documents/Pico/pico-sdk/src/rp2_common/hardware_timer/timer.c.obj
 .text          0x00000000        0x0 CMakeFiles/rtc_alarm.dir/C_/Users/cotaa/Documents/Pico/pico-sdk/src/common/pico_sync/sem.c.obj
 .data          0x00000000        0x0 CMakeFiles/rtc_alarm.dir/C_/Users/cotaa/Documents/Pico/pico-sdk/src/common/pico_sync/sem.c.obj
 .bss           0x00000000        0x0 CMakeFiles/rtc_alarm.dir/C_/Users/cotaa/Documents/Pico/pico-sdk/src/common/pico_sync/sem.c.obj
 .text.sem_init
                0x00000000       0x20 CMakeFiles/rtc_alarm.dir/C_/Users/cotaa/Documents/Pico/pico-sdk/src/common/pico_sync/sem.c.obj
 .time_critical.sem_available
                0x00000000        0x8 CMakeFiles/rtc_alarm.dir/C_/Users/cotaa/Documents/Pico/pico-sdk/src/common/pico_sync/sem.c.obj
 .time_critical.sem_acquire_blocking
                0x00000000       0x44 CMakeFiles/rtc_alarm.dir/C_/Users/cotaa/Documents/Pico/pico-sdk/src/common/pico_sync/sem.c.obj
 .time_critical.sem_acquire_timeout_ms
                0x00000000       0x9c CMakeFiles/rtc_alarm.dir/C_/Users/cotaa/Documents/Pico/pico-sdk/src/common/pico_sync/sem.c.obj
 .time_critical.sem_release
                0x00000000       0x3c CMakeFiles/rtc_alarm.dir/C_/Users/cotaa/Documents/Pico/pico-sdk/src/common/pico_sync/sem.c.obj
 .time_critical.sem_reset
                0x00000000       0x30 CMakeFiles/rtc_alarm.dir/C_/Users/cotaa/Documents/Pico/pico-sdk/src/common/pico_sync/sem.c.obj
 .comment       0x00000000       0x7a CMakeFiles/rtc_alarm.dir/C_/Users/cotaa/Documents/Pico/pico-sdk/src/common/pico_sync/sem.c.obj
 .ARM.attributes
                0x00000000       0x2b CMakeFiles/rtc_alarm.dir/C_/Users/cotaa/Documents/Pico/pico-sdk/src/common/pico_sync/sem.c.obj
 .text          0x00000000        0x0 CMakeFiles/rtc_alarm.dir/C_/Users/cotaa/Documents/Pico/pico-sdk/src/common/pico_sync/lock_core.c.obj
 .data          0x00000000        0x0 CMakeFiles/rtc_alarm.dir/C_/Users/cotaa/Documents/Pico/pico-sdk/src/common/pico_sync/lock_core.c.obj
 .bss           0x00000000        0x0 CMakeFiles/rtc_alarm.dir/C_/Users/cotaa/Documents/Pico/pico-sdk/src/common/pico_sync/lock_core.c.obj
 .text          0x00000000        0x0 CMakeFiles/rtc_alarm.dir/C_/Users/cotaa/Documents/Pico/pico-sdk/src/common/pico_sync/mutex.c.obj
 .data          0x00000000        0x0 CMakeFiles/rtc_alarm.dir/C_/Users/cotaa/Documents/Pico/pico-sdk/src/common/pico_sync/mutex.c.obj
 .bss           0x00000000        0x0 CMakeFiles/rtc_alarm.dir/C_/Users/cotaa/Documents/Pico/pico-sdk/src/common/pico_sync/mutex.c.obj
 .time_critical.mutex_enter_timeout_ms
                0x00000000       0x98 CMakeFiles/rtc_alarm.dir/C_/Users/cotaa/Documents/Pico/pico-sdk/src/common/pico_sync/mutex.c.obj
 .time_critical.mutex_enter_block_until
                0x00000000       0x68 CMakeFiles/rtc_alarm.dir/C_/Users/cotaa/Documents/Pico/pico-sdk/src/common/pico_sync/mutex.c.obj
 .text          0x00000000        0x0 CMakeFiles/rtc_alarm.dir/C_/Users/cotaa/Documents/Pico/pico-sdk/src/common/pico_sync/critical_section.c.obj
 .data          0x00000000        0x0 CMakeFiles/rtc_alarm.dir/C_/Users/cotaa/Documents/Pico/pico-sdk/src/common/pico_sync/critical_section.c.obj
 .bss           0x00000000        0x0 CMakeFiles/rtc_alarm.dir/C_/Users/cotaa/Documents/Pico/pico-sdk/src/common/pico_sync/critical_section.c.obj
 .text.critical_section_init
                0x00000000       0x18 CMakeFiles/rtc_alarm.dir/C_/Users/cotaa/Documents/Pico/pico-sdk/src/common/pico_sync/critical_section.c.obj
 .text.critical_section_init_with_lock_num
                0x00000000        0xc CMakeFiles/rtc_alarm.dir/C_/Users/cotaa/Documents/Pico/pico-sdk/src/common/pico_sync/critical_section.c.obj
 .text.critical_section_deinit
                0x00000000       0x18 CMakeFiles/rtc_alarm.dir/C_/Users/cotaa/Documents/Pico/pico-sdk/src/common/pico_sync/critical_section.c.obj
 .comment       0x00000000       0x7a CMakeFiles/rtc_alarm.dir/C_/Users/cotaa/Documents/Pico/pico-sdk/src/common/pico_sync/critical_section.c.obj
 .ARM.attributes
                0x00000000       0x2b CMakeFiles/rtc_alarm.dir/C_/Users/cotaa/Documents/Pico/pico-sdk/src/common/pico_sync/critical_section.c.obj
 .text          0x00000000        0x0 CMakeFiles/rtc_alarm.dir/C_/Users/cotaa/Documents/Pico/pico-sdk/src/common/pico_util/datetime.c.obj
 .data          0x00000000        0x0 CMakeFiles/rtc_alarm.dir/C_/Users/cotaa/Documents/Pico/pico-sdk/src/common/pico_util/datetime.c.obj
 .bss           0x00000000        0x0 CMakeFiles/rtc_alarm.dir/C_/Users/cotaa/Documents/Pico/pico-sdk/src/common/pico_util/datetime.c.obj
 .text          0x00000000        0x0 CMakeFiles/rtc_alarm.dir/C_/Users/cotaa/Documents/Pico/pico-sdk/src/common/pico_util/pheap.c.obj
 .data          0x00000000        0x0 CMakeFiles/rtc_alarm.dir/C_/Users/cotaa/Documents/Pico/pico-sdk/src/common/pico_util/pheap.c.obj
 .bss           0x00000000        0x0 CMakeFiles/rtc_alarm.dir/C_/Users/cotaa/Documents/Pico/pico-sdk/src/common/pico_util/pheap.c.obj
 .rodata.ph_dump_node.str1.4
                0x00000000       0x15 CMakeFiles/rtc_alarm.dir/C_/Users/cotaa/Documents/Pico/pico-sdk/src/common/pico_util/pheap.c.obj
 .text.ph_dump_node
                0x00000000       0xb0 CMakeFiles/rtc_alarm.dir/C_/Users/cotaa/Documents/Pico/pico-sdk/src/common/pico_util/pheap.c.obj
 .text.ph_clear
                0x00000000       0x2c CMakeFiles/rtc_alarm.dir/C_/Users/cotaa/Documents/Pico/pico-sdk/src/common/pico_util/pheap.c.obj
 .text.ph_destroy
                0x00000000       0x14 CMakeFiles/rtc_alarm.dir/C_/Users/cotaa/Documents/Pico/pico-sdk/src/common/pico_util/pheap.c.obj
 .rodata.ph_dump.str1.4
                0x00000000        0xf CMakeFiles/rtc_alarm.dir/C_/Users/cotaa/Documents/Pico/pico-sdk/src/common/pico_util/pheap.c.obj
 .text.ph_dump  0x00000000       0x24 CMakeFiles/rtc_alarm.dir/C_/Users/cotaa/Documents/Pico/pico-sdk/src/common/pico_util/pheap.c.obj
 .text          0x00000000        0x0 CMakeFiles/rtc_alarm.dir/C_/Users/cotaa/Documents/Pico/pico-sdk/src/common/pico_util/queue.c.obj
 .data          0x00000000        0x0 CMakeFiles/rtc_alarm.dir/C_/Users/cotaa/Documents/Pico/pico-sdk/src/common/pico_util/queue.c.obj
 .bss           0x00000000        0x0 CMakeFiles/rtc_alarm.dir/C_/Users/cotaa/Documents/Pico/pico-sdk/src/common/pico_util/queue.c.obj
 .text.queue_init_with_spinlock
                0x00000000       0x28 CMakeFiles/rtc_alarm.dir/C_/Users/cotaa/Documents/Pico/pico-sdk/src/common/pico_util/queue.c.obj
 .text.queue_free
                0x00000000        0xc CMakeFiles/rtc_alarm.dir/C_/Users/cotaa/Documents/Pico/pico-sdk/src/common/pico_util/queue.c.obj
 .text.queue_try_add
                0x00000000       0x70 CMakeFiles/rtc_alarm.dir/C_/Users/cotaa/Documents/Pico/pico-sdk/src/common/pico_util/queue.c.obj
 .text.queue_try_remove
                0x00000000       0x70 CMakeFiles/rtc_alarm.dir/C_/Users/cotaa/Documents/Pico/pico-sdk/src/common/pico_util/queue.c.obj
 .text.queue_try_peek
                0x00000000       0x50 CMakeFiles/rtc_alarm.dir/C_/Users/cotaa/Documents/Pico/pico-sdk/src/common/pico_util/queue.c.obj
 .text.queue_add_blocking
                0x00000000       0x74 CMakeFiles/rtc_alarm.dir/C_/Users/cotaa/Documents/Pico/pico-sdk/src/common/pico_util/queue.c.obj
 .text.queue_remove_blocking
                0x00000000       0x74 CMakeFiles/rtc_alarm.dir/C_/Users/cotaa/Documents/Pico/pico-sdk/src/common/pico_util/queue.c.obj
 .text.queue_peek_blocking
                0x00000000       0x60 CMakeFiles/rtc_alarm.dir/C_/Users/cotaa/Documents/Pico/pico-sdk/src/common/pico_util/queue.c.obj
 .comment       0x00000000       0x7a CMakeFiles/rtc_alarm.dir/C_/Users/cotaa/Documents/Pico/pico-sdk/src/common/pico_util/queue.c.obj
 .ARM.attributes
                0x00000000       0x2b CMakeFiles/rtc_alarm.dir/C_/Users/cotaa/Documents/Pico/pico-sdk/src/common/pico_util/queue.c.obj
 .text          0x00000000        0x0 CMakeFiles/rtc_alarm.dir/C_/Users/cotaa/Documents/Pico/pico-sdk/src/rp2_common/pico_runtime/runtime.c.obj
 .data          0x00000000        0x0 CMakeFiles/rtc_alarm.dir/C_/Users/cotaa/Documents/Pico/pico-sdk/src/rp2_common/pico_runtime/runtime.c.obj
 .bss           0x00000000        0x0 CMakeFiles/rtc_alarm.dir/C_/Users/cotaa/Documents/Pico/pico-sdk/src/rp2_common/pico_runtime/runtime.c.obj
 .text.runtime_install_stack_guard
                0x00000000       0x38 CMakeFiles/rtc_alarm.dir/C_/Users/cotaa/Documents/Pico/pico-sdk/src/rp2_common/pico_runtime/runtime.c.obj
 .text._exit    0x00000000        0x4 CMakeFiles/rtc_alarm.dir/C_/Users/cotaa/Documents/Pico/pico-sdk/src/rp2_common/pico_runtime/runtime.c.obj
 .rodata.__assert_func.str1.4
                0x00000000       0x43 CMakeFiles/rtc_alarm.dir/C_/Users/cotaa/Documents/Pico/pico-sdk/src/rp2_common/pico_runtime/runtime.c.obj
 .text.__assert_func
                0x00000000       0x34 CMakeFiles/rtc_alarm.dir/C_/Users/cotaa/Documents/Pico/pico-sdk/src/rp2_common/pico_runtime/runtime.c.obj
 .rodata.panic_unsupported.str1.4
                0x00000000        0xe CMakeFiles/rtc_alarm.dir/C_/Users/cotaa/Documents/Pico/pico-sdk/src/rp2_common/pico_runtime/runtime.c.obj
 .text.panic_unsupported
                0x00000000        0xc CMakeFiles/rtc_alarm.dir/C_/Users/cotaa/Documents/Pico/pico-sdk/src/rp2_common/pico_runtime/runtime.c.obj
 .text          0x00000000        0x0 CMakeFiles/rtc_alarm.dir/C_/Users/cotaa/Documents/Pico/pico-sdk/src/rp2_common/hardware_clocks/clocks.c.obj
 .data          0x00000000        0x0 CMakeFiles/rtc_alarm.dir/C_/Users/cotaa/Documents/Pico/pico-sdk/src/rp2_common/hardware_clocks/clocks.c.obj
 .bss           0x00000000        0x0 CMakeFiles/rtc_alarm.dir/C_/Users/cotaa/Documents/Pico/pico-sdk/src/rp2_common/hardware_clocks/clocks.c.obj
 .text.clocks_irq_handler
                0x00000000       0xa4 CMakeFiles/rtc_alarm.dir/C_/Users/cotaa/Documents/Pico/pico-sdk/src/rp2_common/hardware_clocks/clocks.c.obj
 .text.clock_stop
                0x00000000       0x2c CMakeFiles/rtc_alarm.dir/C_/Users/cotaa/Documents/Pico/pico-sdk/src/rp2_common/hardware_clocks/clocks.c.obj
 .text.clock_configure
                0x00000000       0xf0 CMakeFiles/rtc_alarm.dir/C_/Users/cotaa/Documents/Pico/pico-sdk/src/rp2_common/hardware_clocks/clocks.c.obj
 .text.clock_set_reported_hz
                0x00000000        0xc CMakeFiles/rtc_alarm.dir/C_/Users/cotaa/Documents/Pico/pico-sdk/src/rp2_common/hardware_clocks/clocks.c.obj
 .text.frequency_count_khz
                0x00000000       0x48 CMakeFiles/rtc_alarm.dir/C_/Users/cotaa/Documents/Pico/pico-sdk/src/rp2_common/hardware_clocks/clocks.c.obj
 .text.clocks_enable_resus
                0x00000000       0x34 CMakeFiles/rtc_alarm.dir/C_/Users/cotaa/Documents/Pico/pico-sdk/src/rp2_common/hardware_clocks/clocks.c.obj
 .text.clock_gpio_init
                0x00000000       0x50 CMakeFiles/rtc_alarm.dir/C_/Users/cotaa/Documents/Pico/pico-sdk/src/rp2_common/hardware_clocks/clocks.c.obj
 .text.clock_configure_gpin
                0x00000000       0xf8 CMakeFiles/rtc_alarm.dir/C_/Users/cotaa/Documents/Pico/pico-sdk/src/rp2_common/hardware_clocks/clocks.c.obj
 .bss._resus_callback
                0x00000000        0x4 CMakeFiles/rtc_alarm.dir/C_/Users/cotaa/Documents/Pico/pico-sdk/src/rp2_common/hardware_clocks/clocks.c.obj
 .rodata.gpin0_src
                0x00000000        0xa CMakeFiles/rtc_alarm.dir/C_/Users/cotaa/Documents/Pico/pico-sdk/src/rp2_common/hardware_clocks/clocks.c.obj
 .text          0x00000000        0x0 CMakeFiles/rtc_alarm.dir/C_/Users/cotaa/Documents/Pico/pico-sdk/src/rp2_common/hardware_watchdog/watchdog.c.obj
 .data          0x00000000        0x0 CMakeFiles/rtc_alarm.dir/C_/Users/cotaa/Documents/Pico/pico-sdk/src/rp2_common/hardware_watchdog/watchdog.c.obj
 .bss           0x00000000        0x0 CMakeFiles/rtc_alarm.dir/C_/Users/cotaa/Documents/Pico/pico-sdk/src/rp2_common/hardware_watchdog/watchdog.c.obj
 .text.watchdog_update
                0x00000000       0x14 CMakeFiles/rtc_alarm.dir/C_/Users/cotaa/Documents/Pico/pico-sdk/src/rp2_common/hardware_watchdog/watchdog.c.obj
 .text.watchdog_get_count
                0x00000000       0x10 CMakeFiles/rtc_alarm.dir/C_/Users/cotaa/Documents/Pico/pico-sdk/src/rp2_common/hardware_watchdog/watchdog.c.obj
 .text._watchdog_enable
                0x00000000       0x78 CMakeFiles/rtc_alarm.dir/C_/Users/cotaa/Documents/Pico/pico-sdk/src/rp2_common/hardware_watchdog/watchdog.c.obj
 .text.watchdog_enable
                0x00000000       0x80 CMakeFiles/rtc_alarm.dir/C_/Users/cotaa/Documents/Pico/pico-sdk/src/rp2_common/hardware_watchdog/watchdog.c.obj
 .text.watchdog_reboot
                0x00000000       0x98 CMakeFiles/rtc_alarm.dir/C_/Users/cotaa/Documents/Pico/pico-sdk/src/rp2_common/hardware_watchdog/watchdog.c.obj
 .text.watchdog_caused_reboot
                0x00000000       0x10 CMakeFiles/rtc_alarm.dir/C_/Users/cotaa/Documents/Pico/pico-sdk/src/rp2_common/hardware_watchdog/watchdog.c.obj
 .bss.load_value
                0x00000000        0x4 CMakeFiles/rtc_alarm.dir/C_/Users/cotaa/Documents/Pico/pico-sdk/src/rp2_common/hardware_watchdog/watchdog.c.obj
 .text          0x00000000        0x0 CMakeFiles/rtc_alarm.dir/C_/Users/cotaa/Documents/Pico/pico-sdk/src/rp2_common/hardware_xosc/xosc.c.obj
 .data          0x00000000        0x0 CMakeFiles/rtc_alarm.dir/C_/Users/cotaa/Documents/Pico/pico-sdk/src/rp2_common/hardware_xosc/xosc.c.obj
 .bss           0x00000000        0x0 CMakeFiles/rtc_alarm.dir/C_/Users/cotaa/Documents/Pico/pico-sdk/src/rp2_common/hardware_xosc/xosc.c.obj
 .text.xosc_disable
                0x00000000       0x24 CMakeFiles/rtc_alarm.dir/C_/Users/cotaa/Documents/Pico/pico-sdk/src/rp2_common/hardware_xosc/xosc.c.obj
 .text.xosc_dormant
                0x00000000       0x18 CMakeFiles/rtc_alarm.dir/C_/Users/cotaa/Documents/Pico/pico-sdk/src/rp2_common/hardware_xosc/xosc.c.obj
 .text          0x00000000        0x0 CMakeFiles/rtc_alarm.dir/C_/Users/cotaa/Documents/Pico/pico-sdk/src/rp2_common/hardware_pll/pll.c.obj
 .data          0x00000000        0x0 CMakeFiles/rtc_alarm.dir/C_/Users/cotaa/Documents/Pico/pico-sdk/src/rp2_common/hardware_pll/pll.c.obj
 .bss           0x00000000        0x0 CMakeFiles/rtc_alarm.dir/C_/Users/cotaa/Documents/Pico/pico-sdk/src/rp2_common/hardware_pll/pll.c.obj
 .text.pll_deinit
                0x00000000        0x8 CMakeFiles/rtc_alarm.dir/C_/Users/cotaa/Documents/Pico/pico-sdk/src/rp2_common/hardware_pll/pll.c.obj
 .text          0x00000000        0x0 CMakeFiles/rtc_alarm.dir/C_/Users/cotaa/Documents/Pico/pico-sdk/src/rp2_common/hardware_vreg/vreg.c.obj
 .data          0x00000000        0x0 CMakeFiles/rtc_alarm.dir/C_/Users/cotaa/Documents/Pico/pico-sdk/src/rp2_common/hardware_vreg/vreg.c.obj
 .bss           0x00000000        0x0 CMakeFiles/rtc_alarm.dir/C_/Users/cotaa/Documents/Pico/pico-sdk/src/rp2_common/hardware_vreg/vreg.c.obj
 .text.vreg_set_voltage
                0x00000000       0x1c CMakeFiles/rtc_alarm.dir/C_/Users/cotaa/Documents/Pico/pico-sdk/src/rp2_common/hardware_vreg/vreg.c.obj
 .comment       0x00000000       0x7a CMakeFiles/rtc_alarm.dir/C_/Users/cotaa/Documents/Pico/pico-sdk/src/rp2_common/hardware_vreg/vreg.c.obj
 .ARM.attributes
                0x00000000       0x2b CMakeFiles/rtc_alarm.dir/C_/Users/cotaa/Documents/Pico/pico-sdk/src/rp2_common/hardware_vreg/vreg.c.obj
 .text          0x00000000        0x0 CMakeFiles/rtc_alarm.dir/C_/Users/cotaa/Documents/Pico/pico-sdk/src/rp2_common/hardware_irq/irq.c.obj
 .data          0x00000000        0x0 CMakeFiles/rtc_alarm.dir/C_/Users/cotaa/Documents/Pico/pico-sdk/src/rp2_common/hardware_irq/irq.c.obj
 .bss           0x00000000        0x0 CMakeFiles/rtc_alarm.dir/C_/Users/cotaa/Documents/Pico/pico-sdk/src/rp2_common/hardware_irq/irq.c.obj
 .text.irq_is_enabled
                0x00000000       0x18 CMakeFiles/rtc_alarm.dir/C_/Users/cotaa/Documents/Pico/pico-sdk/src/rp2_common/hardware_irq/irq.c.obj
 .text.irq_set_mask_enabled
                0x00000000       0x20 CMakeFiles/rtc_alarm.dir/C_/Users/cotaa/Documents/Pico/pico-sdk/src/rp2_common/hardware_irq/irq.c.obj
 .text.irq_set_pending
                0x00000000       0x10 CMakeFiles/rtc_alarm.dir/C_/Users/cotaa/Documents/Pico/pico-sdk/src/rp2_common/hardware_irq/irq.c.obj
 .text.irq_get_exclusive_handler
                0x00000000       0x50 CMakeFiles/rtc_alarm.dir/C_/Users/cotaa/Documents/Pico/pico-sdk/src/rp2_common/hardware_irq/irq.c.obj
 .text.irq_add_shared_handler
                0x00000000      0x1c0 CMakeFiles/rtc_alarm.dir/C_/Users/cotaa/Documents/Pico/pico-sdk/src/rp2_common/hardware_irq/irq.c.obj
 .text.irq_set_priority
                0x00000000       0x28 CMakeFiles/rtc_alarm.dir/C_/Users/cotaa/Documents/Pico/pico-sdk/src/rp2_common/hardware_irq/irq.c.obj
 .text          0x00000000        0x0 CMakeFiles/rtc_alarm.dir/C_/Users/cotaa/Documents/Pico/pico-sdk/src/rp2_common/hardware_irq/irq_handler_chain.S.obj
 .bss           0x00000000        0x0 CMakeFiles/rtc_alarm.dir/C_/Users/cotaa/Documents/Pico/pico-sdk/src/rp2_common/hardware_irq/irq_handler_chain.S.obj
 .text          0x00000000        0x0 CMakeFiles/rtc_alarm.dir/C_/Users/cotaa/Documents/Pico/pico-sdk/src/rp2_common/pico_printf/printf.c.obj
 .data          0x00000000        0x0 CMakeFiles/rtc_alarm.dir/C_/Users/cotaa/Documents/Pico/pico-sdk/src/rp2_common/pico_printf/printf.c.obj
 .bss           0x00000000        0x0 CMakeFiles/rtc_alarm.dir/C_/Users/cotaa/Documents/Pico/pico-sdk/src/rp2_common/pico_printf/printf.c.obj
 .text.__wrap_sprintf
                0x00000000       0x28 CMakeFiles/rtc_alarm.dir/C_/Users/cotaa/Documents/Pico/pico-sdk/src/rp2_common/pico_printf/printf.c.obj
 .text.__wrap_vsnprintf
                0x00000000       0x1c CMakeFiles/rtc_alarm.dir/C_/Users/cotaa/Documents/Pico/pico-sdk/src/rp2_common/pico_printf/printf.c.obj
 .text.weak_raw_printf
                0x00000000       0x40 CMakeFiles/rtc_alarm.dir/C_/Users/cotaa/Documents/Pico/pico-sdk/src/rp2_common/pico_printf/printf.c.obj
 .data          0x00000000        0x0 CMakeFiles/rtc_alarm.dir/C_/Users/cotaa/Documents/Pico/pico-sdk/src/rp2_common/pico_bit_ops/bit_ops_aeabi.S.obj
 .bss           0x00000000        0x0 CMakeFiles/rtc_alarm.dir/C_/Users/cotaa/Documents/Pico/pico-sdk/src/rp2_common/pico_bit_ops/bit_ops_aeabi.S.obj
 .text.clzsi    0x00000000        0xc CMakeFiles/rtc_alarm.dir/C_/Users/cotaa/Documents/Pico/pico-sdk/src/rp2_common/pico_bit_ops/bit_ops_aeabi.S.obj
 .text.ctzsi    0x00000000        0xc CMakeFiles/rtc_alarm.dir/C_/Users/cotaa/Documents/Pico/pico-sdk/src/rp2_common/pico_bit_ops/bit_ops_aeabi.S.obj
 .text.popcountsi
                0x00000000        0xc CMakeFiles/rtc_alarm.dir/C_/Users/cotaa/Documents/Pico/pico-sdk/src/rp2_common/pico_bit_ops/bit_ops_aeabi.S.obj
 .text.clzdi    0x00000000       0x18 CMakeFiles/rtc_alarm.dir/C_/Users/cotaa/Documents/Pico/pico-sdk/src/rp2_common/pico_bit_ops/bit_ops_aeabi.S.obj
 .text.ctzdi    0x00000000       0x18 CMakeFiles/rtc_alarm.dir/C_/Users/cotaa/Documents/Pico/pico-sdk/src/rp2_common/pico_bit_ops/bit_ops_aeabi.S.obj
 .text.popcountdi
                0x00000000       0x18 CMakeFiles/rtc_alarm.dir/C_/Users/cotaa/Documents/Pico/pico-sdk/src/rp2_common/pico_bit_ops/bit_ops_aeabi.S.obj
 .text.reverse32
                0x00000000        0xc CMakeFiles/rtc_alarm.dir/C_/Users/cotaa/Documents/Pico/pico-sdk/src/rp2_common/pico_bit_ops/bit_ops_aeabi.S.obj
 .text.__rev    0x00000000        0xc CMakeFiles/rtc_alarm.dir/C_/Users/cotaa/Documents/Pico/pico-sdk/src/rp2_common/pico_bit_ops/bit_ops_aeabi.S.obj
 .text.__revll  0x00000000       0x18 CMakeFiles/rtc_alarm.dir/C_/Users/cotaa/Documents/Pico/pico-sdk/src/rp2_common/pico_bit_ops/bit_ops_aeabi.S.obj
 .text          0x00000000        0x0 CMakeFiles/rtc_alarm.dir/C_/Users/cotaa/Documents/Pico/pico-sdk/src/rp2_common/pico_bootrom/bootrom.c.obj
 .data          0x00000000        0x0 CMakeFiles/rtc_alarm.dir/C_/Users/cotaa/Documents/Pico/pico-sdk/src/rp2_common/pico_bootrom/bootrom.c.obj
 .bss           0x00000000        0x0 CMakeFiles/rtc_alarm.dir/C_/Users/cotaa/Documents/Pico/pico-sdk/src/rp2_common/pico_bootrom/bootrom.c.obj
 .text          0x00000000        0x0 CMakeFiles/rtc_alarm.dir/C_/Users/cotaa/Documents/Pico/pico-sdk/src/rp2_common/pico_divider/divider.S.obj
 .data          0x00000000        0x0 CMakeFiles/rtc_alarm.dir/C_/Users/cotaa/Documents/Pico/pico-sdk/src/rp2_common/pico_divider/divider.S.obj
 .bss           0x00000000        0x0 CMakeFiles/rtc_alarm.dir/C_/Users/cotaa/Documents/Pico/pico-sdk/src/rp2_common/pico_divider/divider.S.obj
 .text.divmod_s64s64_rem
                0x00000000        0xc CMakeFiles/rtc_alarm.dir/C_/Users/cotaa/Documents/Pico/pico-sdk/src/rp2_common/pico_divider/divider.S.obj
 .text.divmod_u64u64_rem
                0x00000000        0xc CMakeFiles/rtc_alarm.dir/C_/Users/cotaa/Documents/Pico/pico-sdk/src/rp2_common/pico_divider/divider.S.obj
 .text          0x00000000        0x0 CMakeFiles/rtc_alarm.dir/C_/Users/cotaa/Documents/Pico/pico-sdk/src/rp2_common/pico_double/double_aeabi.S.obj
 .data          0x00000000        0x0 CMakeFiles/rtc_alarm.dir/C_/Users/cotaa/Documents/Pico/pico-sdk/src/rp2_common/pico_double/double_aeabi.S.obj
 .bss           0x00000000        0x0 CMakeFiles/rtc_alarm.dir/C_/Users/cotaa/Documents/Pico/pico-sdk/src/rp2_common/pico_double/double_aeabi.S.obj
 .text.push_r8_r11
                0x00000000        0xc CMakeFiles/rtc_alarm.dir/C_/Users/cotaa/Documents/Pico/pico-sdk/src/rp2_common/pico_double/double_aeabi.S.obj
 .text.pop_r8_r11
                0x00000000        0xc CMakeFiles/rtc_alarm.dir/C_/Users/cotaa/Documents/Pico/pico-sdk/src/rp2_common/pico_double/double_aeabi.S.obj
 .text.__wrap___aeabi_dcmpeq
                0x00000000       0x10 CMakeFiles/rtc_alarm.dir/C_/Users/cotaa/Documents/Pico/pico-sdk/src/rp2_common/pico_double/double_aeabi.S.obj
 .text.__wrap___aeabi_ui2d
                0x00000000       0x18 CMakeFiles/rtc_alarm.dir/C_/Users/cotaa/Documents/Pico/pico-sdk/src/rp2_common/pico_double/double_aeabi.S.obj
 .text.double2int
                0x00000000       0x18 CMakeFiles/rtc_alarm.dir/C_/Users/cotaa/Documents/Pico/pico-sdk/src/rp2_common/pico_double/double_aeabi.S.obj
 .text.fix2double
                0x00000000       0x18 CMakeFiles/rtc_alarm.dir/C_/Users/cotaa/Documents/Pico/pico-sdk/src/rp2_common/pico_double/double_aeabi.S.obj
 .text.ufix2double
                0x00000000       0x28 CMakeFiles/rtc_alarm.dir/C_/Users/cotaa/Documents/Pico/pico-sdk/src/rp2_common/pico_double/double_aeabi.S.obj
 .text.fix642double
                0x00000000       0x18 CMakeFiles/rtc_alarm.dir/C_/Users/cotaa/Documents/Pico/pico-sdk/src/rp2_common/pico_double/double_aeabi.S.obj
 .text.__wrap___aeabi_l2d
                0x00000000       0x18 CMakeFiles/rtc_alarm.dir/C_/Users/cotaa/Documents/Pico/pico-sdk/src/rp2_common/pico_double/double_aeabi.S.obj
 .text.__wrap___aeabi_ul2d
                0x00000000       0x18 CMakeFiles/rtc_alarm.dir/C_/Users/cotaa/Documents/Pico/pico-sdk/src/rp2_common/pico_double/double_aeabi.S.obj
 .text.__wrap___aeabi_d2lz
                0x00000000       0x26 CMakeFiles/rtc_alarm.dir/C_/Users/cotaa/Documents/Pico/pico-sdk/src/rp2_common/pico_double/double_aeabi.S.obj
 .text.double2int64
                0x00000000       0x18 CMakeFiles/rtc_alarm.dir/C_/Users/cotaa/Documents/Pico/pico-sdk/src/rp2_common/pico_double/double_aeabi.S.obj
 .text.__wrap___aeabi_d2ulz
                0x00000000       0x18 CMakeFiles/rtc_alarm.dir/C_/Users/cotaa/Documents/Pico/pico-sdk/src/rp2_common/pico_double/double_aeabi.S.obj
 .text.double2fix64
                0x00000000       0x18 CMakeFiles/rtc_alarm.dir/C_/Users/cotaa/Documents/Pico/pico-sdk/src/rp2_common/pico_double/double_aeabi.S.obj
 .text.double2ufix64
                0x00000000       0x18 CMakeFiles/rtc_alarm.dir/C_/Users/cotaa/Documents/Pico/pico-sdk/src/rp2_common/pico_double/double_aeabi.S.obj
 .text.double2fix
                0x00000000       0x18 CMakeFiles/rtc_alarm.dir/C_/Users/cotaa/Documents/Pico/pico-sdk/src/rp2_common/pico_double/double_aeabi.S.obj
 .text.double2ufix
                0x00000000       0x18 CMakeFiles/rtc_alarm.dir/C_/Users/cotaa/Documents/Pico/pico-sdk/src/rp2_common/pico_double/double_aeabi.S.obj
 .text.__wrap___aeabi_d2f
                0x00000000       0x18 CMakeFiles/rtc_alarm.dir/C_/Users/cotaa/Documents/Pico/pico-sdk/src/rp2_common/pico_double/double_aeabi.S.obj
 .text.__wrap_srqt
                0x00000000       0x18 CMakeFiles/rtc_alarm.dir/C_/Users/cotaa/Documents/Pico/pico-sdk/src/rp2_common/pico_double/double_aeabi.S.obj
 .text.__wrap_sincostan_remainder
                0x00000000       0x14 CMakeFiles/rtc_alarm.dir/C_/Users/cotaa/Documents/Pico/pico-sdk/src/rp2_common/pico_double/double_aeabi.S.obj
 .text.__wrap_cos
                0x00000000       0x2c CMakeFiles/rtc_alarm.dir/C_/Users/cotaa/Documents/Pico/pico-sdk/src/rp2_common/pico_double/double_aeabi.S.obj
 .text.__wrap_sin
                0x00000000       0x2c CMakeFiles/rtc_alarm.dir/C_/Users/cotaa/Documents/Pico/pico-sdk/src/rp2_common/pico_double/double_aeabi.S.obj
 .text.__wrap_sincos
                0x00000000       0xa0 CMakeFiles/rtc_alarm.dir/C_/Users/cotaa/Documents/Pico/pico-sdk/src/rp2_common/pico_double/double_aeabi.S.obj
 .text.__wrap_tan
                0x00000000       0x2c CMakeFiles/rtc_alarm.dir/C_/Users/cotaa/Documents/Pico/pico-sdk/src/rp2_common/pico_double/double_aeabi.S.obj
 .text.__wrap_atan2
                0x00000000       0x18 CMakeFiles/rtc_alarm.dir/C_/Users/cotaa/Documents/Pico/pico-sdk/src/rp2_common/pico_double/double_aeabi.S.obj
 .text.__wrap_exp
                0x00000000       0x18 CMakeFiles/rtc_alarm.dir/C_/Users/cotaa/Documents/Pico/pico-sdk/src/rp2_common/pico_double/double_aeabi.S.obj
 .text.__wrap_log
                0x00000000       0x18 CMakeFiles/rtc_alarm.dir/C_/Users/cotaa/Documents/Pico/pico-sdk/src/rp2_common/pico_double/double_aeabi.S.obj
 .text          0x00000000        0x0 CMakeFiles/rtc_alarm.dir/C_/Users/cotaa/Documents/Pico/pico-sdk/src/rp2_common/pico_double/double_init_rom.c.obj
 .data          0x00000000        0x0 CMakeFiles/rtc_alarm.dir/C_/Users/cotaa/Documents/Pico/pico-sdk/src/rp2_common/pico_double/double_init_rom.c.obj
 .bss           0x00000000        0x0 CMakeFiles/rtc_alarm.dir/C_/Users/cotaa/Documents/Pico/pico-sdk/src/rp2_common/pico_double/double_init_rom.c.obj
 .text          0x00000000        0x0 CMakeFiles/rtc_alarm.dir/C_/Users/cotaa/Documents/Pico/pico-sdk/src/rp2_common/pico_double/double_math.c.obj
 .data          0x00000000        0x0 CMakeFiles/rtc_alarm.dir/C_/Users/cotaa/Documents/Pico/pico-sdk/src/rp2_common/pico_double/double_math.c.obj
 .bss           0x00000000        0x0 CMakeFiles/rtc_alarm.dir/C_/Users/cotaa/Documents/Pico/pico-sdk/src/rp2_common/pico_double/double_math.c.obj
 .text.dpow_int2
                0x00000000       0x2c CMakeFiles/rtc_alarm.dir/C_/Users/cotaa/Documents/Pico/pico-sdk/src/rp2_common/pico_double/double_math.c.obj
 .text.dpow_1   0x00000000      0x278 CMakeFiles/rtc_alarm.dir/C_/Users/cotaa/Documents/Pico/pico-sdk/src/rp2_common/pico_double/double_math.c.obj
 .text.dpowint_0
                0x00000000      0x290 CMakeFiles/rtc_alarm.dir/C_/Users/cotaa/Documents/Pico/pico-sdk/src/rp2_common/pico_double/double_math.c.obj
 .text.dpow_0   0x00000000      0x284 CMakeFiles/rtc_alarm.dir/C_/Users/cotaa/Documents/Pico/pico-sdk/src/rp2_common/pico_double/double_math.c.obj
 .text.__wrap_ldexp
                0x00000000       0x50 CMakeFiles/rtc_alarm.dir/C_/Users/cotaa/Documents/Pico/pico-sdk/src/rp2_common/pico_double/double_math.c.obj
 .text.__wrap_copysign
                0x00000000       0x10 CMakeFiles/rtc_alarm.dir/C_/Users/cotaa/Documents/Pico/pico-sdk/src/rp2_common/pico_double/double_math.c.obj
 .text.__wrap_trunc
                0x00000000       0x58 CMakeFiles/rtc_alarm.dir/C_/Users/cotaa/Documents/Pico/pico-sdk/src/rp2_common/pico_double/double_math.c.obj
 .text.__wrap_round
                0x00000000       0xa4 CMakeFiles/rtc_alarm.dir/C_/Users/cotaa/Documents/Pico/pico-sdk/src/rp2_common/pico_double/double_math.c.obj
 .text.__wrap_floor
                0x00000000       0x90 CMakeFiles/rtc_alarm.dir/C_/Users/cotaa/Documents/Pico/pico-sdk/src/rp2_common/pico_double/double_math.c.obj
 .text.__wrap_ceil
                0x00000000       0x94 CMakeFiles/rtc_alarm.dir/C_/Users/cotaa/Documents/Pico/pico-sdk/src/rp2_common/pico_double/double_math.c.obj
 .text.__wrap_asin
                0x00000000       0x60 CMakeFiles/rtc_alarm.dir/C_/Users/cotaa/Documents/Pico/pico-sdk/src/rp2_common/pico_double/double_math.c.obj
 .text.__wrap_acos
                0x00000000       0x5c CMakeFiles/rtc_alarm.dir/C_/Users/cotaa/Documents/Pico/pico-sdk/src/rp2_common/pico_double/double_math.c.obj
 .text.__wrap_atan
                0x00000000       0x40 CMakeFiles/rtc_alarm.dir/C_/Users/cotaa/Documents/Pico/pico-sdk/src/rp2_common/pico_double/double_math.c.obj
 .text.__wrap_sinh
                0x00000000       0x5c CMakeFiles/rtc_alarm.dir/C_/Users/cotaa/Documents/Pico/pico-sdk/src/rp2_common/pico_double/double_math.c.obj
 .text.__wrap_cosh
                0x00000000       0x5c CMakeFiles/rtc_alarm.dir/C_/Users/cotaa/Documents/Pico/pico-sdk/src/rp2_common/pico_double/double_math.c.obj
 .text.__wrap_tanh
                0x00000000       0x68 CMakeFiles/rtc_alarm.dir/C_/Users/cotaa/Documents/Pico/pico-sdk/src/rp2_common/pico_double/double_math.c.obj
 .text.__wrap_asinh
                0x00000000       0xb0 CMakeFiles/rtc_alarm.dir/C_/Users/cotaa/Documents/Pico/pico-sdk/src/rp2_common/pico_double/double_math.c.obj
 .text.__wrap_acosh
                0x00000000       0x7c CMakeFiles/rtc_alarm.dir/C_/Users/cotaa/Documents/Pico/pico-sdk/src/rp2_common/pico_double/double_math.c.obj
 .text.__wrap_atanh
                0x00000000       0x60 CMakeFiles/rtc_alarm.dir/C_/Users/cotaa/Documents/Pico/pico-sdk/src/rp2_common/pico_double/double_math.c.obj
 .text.__wrap_exp2
                0x00000000       0xbc CMakeFiles/rtc_alarm.dir/C_/Users/cotaa/Documents/Pico/pico-sdk/src/rp2_common/pico_double/double_math.c.obj
 .text.__wrap_log2
                0x00000000       0x18 CMakeFiles/rtc_alarm.dir/C_/Users/cotaa/Documents/Pico/pico-sdk/src/rp2_common/pico_double/double_math.c.obj
 .text.__wrap_exp10
                0x00000000       0x14 CMakeFiles/rtc_alarm.dir/C_/Users/cotaa/Documents/Pico/pico-sdk/src/rp2_common/pico_double/double_math.c.obj
 .text.__wrap_log10
                0x00000000       0x18 CMakeFiles/rtc_alarm.dir/C_/Users/cotaa/Documents/Pico/pico-sdk/src/rp2_common/pico_double/double_math.c.obj
 .text.__wrap_expm1
                0x00000000       0x14 CMakeFiles/rtc_alarm.dir/C_/Users/cotaa/Documents/Pico/pico-sdk/src/rp2_common/pico_double/double_math.c.obj
 .text.__wrap_log1p
                0x00000000       0x14 CMakeFiles/rtc_alarm.dir/C_/Users/cotaa/Documents/Pico/pico-sdk/src/rp2_common/pico_double/double_math.c.obj
 .text.__wrap_fma
                0x00000000       0x10 CMakeFiles/rtc_alarm.dir/C_/Users/cotaa/Documents/Pico/pico-sdk/src/rp2_common/pico_double/double_math.c.obj
 .text.__wrap_powint
                0x00000000       0xa8 CMakeFiles/rtc_alarm.dir/C_/Users/cotaa/Documents/Pico/pico-sdk/src/rp2_common/pico_double/double_math.c.obj
 .text.__wrap_pow
                0x00000000      0x304 CMakeFiles/rtc_alarm.dir/C_/Users/cotaa/Documents/Pico/pico-sdk/src/rp2_common/pico_double/double_math.c.obj
 .text.__wrap_hypot
                0x00000000      0x1ac CMakeFiles/rtc_alarm.dir/C_/Users/cotaa/Documents/Pico/pico-sdk/src/rp2_common/pico_double/double_math.c.obj
 .text.__wrap_cbrt
                0x00000000       0xcc CMakeFiles/rtc_alarm.dir/C_/Users/cotaa/Documents/Pico/pico-sdk/src/rp2_common/pico_double/double_math.c.obj
 .text.__wrap_fmod
                0x00000000      0x170 CMakeFiles/rtc_alarm.dir/C_/Users/cotaa/Documents/Pico/pico-sdk/src/rp2_common/pico_double/double_math.c.obj
 .text.__wrap_remquo
                0x00000000      0x28c CMakeFiles/rtc_alarm.dir/C_/Users/cotaa/Documents/Pico/pico-sdk/src/rp2_common/pico_double/double_math.c.obj
 .text.__wrap_drem
                0x00000000       0x10 CMakeFiles/rtc_alarm.dir/C_/Users/cotaa/Documents/Pico/pico-sdk/src/rp2_common/pico_double/double_math.c.obj
 .text.__wrap_remainder
                0x00000000       0x10 CMakeFiles/rtc_alarm.dir/C_/Users/cotaa/Documents/Pico/pico-sdk/src/rp2_common/pico_double/double_math.c.obj
 .comment       0x00000000       0x7a CMakeFiles/rtc_alarm.dir/C_/Users/cotaa/Documents/Pico/pico-sdk/src/rp2_common/pico_double/double_math.c.obj
 .ARM.attributes
                0x00000000       0x2b CMakeFiles/rtc_alarm.dir/C_/Users/cotaa/Documents/Pico/pico-sdk/src/rp2_common/pico_double/double_math.c.obj
 .text          0x00000000        0x0 CMakeFiles/rtc_alarm.dir/C_/Users/cotaa/Documents/Pico/pico-sdk/src/rp2_common/pico_double/double_v1_rom_shim.S.obj
 .data          0x00000000        0x0 CMakeFiles/rtc_alarm.dir/C_/Users/cotaa/Documents/Pico/pico-sdk/src/rp2_common/pico_double/double_v1_rom_shim.S.obj
 .bss           0x00000000        0x0 CMakeFiles/rtc_alarm.dir/C_/Users/cotaa/Documents/Pico/pico-sdk/src/rp2_common/pico_double/double_v1_rom_shim.S.obj
 .text.dsqrt_shim
                0x00000000      0x1a8 CMakeFiles/rtc_alarm.dir/C_/Users/cotaa/Documents/Pico/pico-sdk/src/rp2_common/pico_double/double_v1_rom_shim.S.obj
 .text.dcordic_vec_step
                0x00000000        0xe CMakeFiles/rtc_alarm.dir/C_/Users/cotaa/Documents/Pico/pico-sdk/src/rp2_common/pico_double/double_v1_rom_shim.S.obj
 .text.double2int_shim
                0x00000000        0xe CMakeFiles/rtc_alarm.dir/C_/Users/cotaa/Documents/Pico/pico-sdk/src/rp2_common/pico_double/double_v1_rom_shim.S.obj
 .text.double2int64_shim
                0x00000000       0x1a CMakeFiles/rtc_alarm.dir/C_/Users/cotaa/Documents/Pico/pico-sdk/src/rp2_common/pico_double/double_v1_rom_shim.S.obj
 .text.double2float_shim
                0x00000000       0x5c CMakeFiles/rtc_alarm.dir/C_/Users/cotaa/Documents/Pico/pico-sdk/src/rp2_common/pico_double/double_v1_rom_shim.S.obj
 .text.x2double_shims
                0x00000000       0x90 CMakeFiles/rtc_alarm.dir/C_/Users/cotaa/Documents/Pico/pico-sdk/src/rp2_common/pico_double/double_v1_rom_shim.S.obj
 .text.dreduce  0x00000000       0x82 CMakeFiles/rtc_alarm.dir/C_/Users/cotaa/Documents/Pico/pico-sdk/src/rp2_common/pico_double/double_v1_rom_shim.S.obj
 .text.dtan_shim
                0x00000000       0x20 CMakeFiles/rtc_alarm.dir/C_/Users/cotaa/Documents/Pico/pico-sdk/src/rp2_common/pico_double/double_v1_rom_shim.S.obj
 .text.dcos_shim
                0x00000000       0x10 CMakeFiles/rtc_alarm.dir/C_/Users/cotaa/Documents/Pico/pico-sdk/src/rp2_common/pico_double/double_v1_rom_shim.S.obj
 .text.dsin_shim
                0x00000000       0x14 CMakeFiles/rtc_alarm.dir/C_/Users/cotaa/Documents/Pico/pico-sdk/src/rp2_common/pico_double/double_v1_rom_shim.S.obj
 .text.dsincos_shim
                0x00000000       0x26 CMakeFiles/rtc_alarm.dir/C_/Users/cotaa/Documents/Pico/pico-sdk/src/rp2_common/pico_double/double_v1_rom_shim.S.obj
 .text.dtrig_guts
                0x00000000      0x2ec CMakeFiles/rtc_alarm.dir/C_/Users/cotaa/Documents/Pico/pico-sdk/src/rp2_common/pico_double/double_v1_rom_shim.S.obj
 .text.dexp_guts
                0x00000000      0x268 CMakeFiles/rtc_alarm.dir/C_/Users/cotaa/Documents/Pico/pico-sdk/src/rp2_common/pico_double/double_v1_rom_shim.S.obj
 .text          0x00000000        0x0 CMakeFiles/rtc_alarm.dir/C_/Users/cotaa/Documents/Pico/pico-sdk/src/rp2_common/pico_int64_ops/pico_int64_ops_aeabi.S.obj
 .data          0x00000000        0x0 CMakeFiles/rtc_alarm.dir/C_/Users/cotaa/Documents/Pico/pico-sdk/src/rp2_common/pico_int64_ops/pico_int64_ops_aeabi.S.obj
 .bss           0x00000000        0x0 CMakeFiles/rtc_alarm.dir/C_/Users/cotaa/Documents/Pico/pico-sdk/src/rp2_common/pico_int64_ops/pico_int64_ops_aeabi.S.obj
 .text.__aeabi_lmul
                0x00000000       0x32 CMakeFiles/rtc_alarm.dir/C_/Users/cotaa/Documents/Pico/pico-sdk/src/rp2_common/pico_int64_ops/pico_int64_ops_aeabi.S.obj
 .ARM.attributes
                0x00000000       0x22 CMakeFiles/rtc_alarm.dir/C_/Users/cotaa/Documents/Pico/pico-sdk/src/rp2_common/pico_int64_ops/pico_int64_ops_aeabi.S.obj
 .text          0x00000000        0x0 CMakeFiles/rtc_alarm.dir/C_/Users/cotaa/Documents/Pico/pico-sdk/src/rp2_common/pico_float/float_aeabi.S.obj
 .data          0x00000000        0x0 CMakeFiles/rtc_alarm.dir/C_/Users/cotaa/Documents/Pico/pico-sdk/src/rp2_common/pico_float/float_aeabi.S.obj
 .bss           0x00000000        0x0 CMakeFiles/rtc_alarm.dir/C_/Users/cotaa/Documents/Pico/pico-sdk/src/rp2_common/pico_float/float_aeabi.S.obj
 .text.__wrap___aeabi_farithmetic
                0x00000000       0x24 CMakeFiles/rtc_alarm.dir/C_/Users/cotaa/Documents/Pico/pico-sdk/src/rp2_common/pico_float/float_aeabi.S.obj
 .text.__wrap___aeabi_cfcmple
                0x00000000       0x50 CMakeFiles/rtc_alarm.dir/C_/Users/cotaa/Documents/Pico/pico-sdk/src/rp2_common/pico_float/float_aeabi.S.obj
 .text.__wrap___aeabi_fcmpeq
                0x00000000       0x10 CMakeFiles/rtc_alarm.dir/C_/Users/cotaa/Documents/Pico/pico-sdk/src/rp2_common/pico_float/float_aeabi.S.obj
 .text.__wrap___aeabi_fcmplt
                0x00000000        0xc CMakeFiles/rtc_alarm.dir/C_/Users/cotaa/Documents/Pico/pico-sdk/src/rp2_common/pico_float/float_aeabi.S.obj
 .text.__wrap___aeabi_fcmple
                0x00000000       0x10 CMakeFiles/rtc_alarm.dir/C_/Users/cotaa/Documents/Pico/pico-sdk/src/rp2_common/pico_float/float_aeabi.S.obj
 .text.__wrap___aeabi_fcmpge
                0x00000000       0x10 CMakeFiles/rtc_alarm.dir/C_/Users/cotaa/Documents/Pico/pico-sdk/src/rp2_common/pico_float/float_aeabi.S.obj
 .text.__wrap___aeabi_fcmpgt
                0x00000000        0xa CMakeFiles/rtc_alarm.dir/C_/Users/cotaa/Documents/Pico/pico-sdk/src/rp2_common/pico_float/float_aeabi.S.obj
 .text.__wrap___aeabi_fcmpun
                0x00000000       0x18 CMakeFiles/rtc_alarm.dir/C_/Users/cotaa/Documents/Pico/pico-sdk/src/rp2_common/pico_float/float_aeabi.S.obj
 .text.__wrap___aeabi_ui2f
                0x00000000        0xa CMakeFiles/rtc_alarm.dir/C_/Users/cotaa/Documents/Pico/pico-sdk/src/rp2_common/pico_float/float_aeabi.S.obj
 .text.__wrap___aeabi_i2f
                0x00000000       0x44 CMakeFiles/rtc_alarm.dir/C_/Users/cotaa/Documents/Pico/pico-sdk/src/rp2_common/pico_float/float_aeabi.S.obj
 .text.__wrap___aeabi_f2iz
                0x00000000       0x4e CMakeFiles/rtc_alarm.dir/C_/Users/cotaa/Documents/Pico/pico-sdk/src/rp2_common/pico_float/float_aeabi.S.obj
 .text.float2int
                0x00000000       0x14 CMakeFiles/rtc_alarm.dir/C_/Users/cotaa/Documents/Pico/pico-sdk/src/rp2_common/pico_float/float_aeabi.S.obj
 .text.float2fix
                0x00000000       0x14 CMakeFiles/rtc_alarm.dir/C_/Users/cotaa/Documents/Pico/pico-sdk/src/rp2_common/pico_float/float_aeabi.S.obj
 .text.float2ufix
                0x00000000        0xc CMakeFiles/rtc_alarm.dir/C_/Users/cotaa/Documents/Pico/pico-sdk/src/rp2_common/pico_float/float_aeabi.S.obj
 .text.__wrap___aeabi_f2uiz
                0x00000000        0xc CMakeFiles/rtc_alarm.dir/C_/Users/cotaa/Documents/Pico/pico-sdk/src/rp2_common/pico_float/float_aeabi.S.obj
 .text.fix2float
                0x00000000        0xc CMakeFiles/rtc_alarm.dir/C_/Users/cotaa/Documents/Pico/pico-sdk/src/rp2_common/pico_float/float_aeabi.S.obj
 .text.ufix2float
                0x00000000        0xc CMakeFiles/rtc_alarm.dir/C_/Users/cotaa/Documents/Pico/pico-sdk/src/rp2_common/pico_float/float_aeabi.S.obj
 .text.fix642float
                0x00000000       0x14 CMakeFiles/rtc_alarm.dir/C_/Users/cotaa/Documents/Pico/pico-sdk/src/rp2_common/pico_float/float_aeabi.S.obj
 .text.ufix642float
                0x00000000       0x14 CMakeFiles/rtc_alarm.dir/C_/Users/cotaa/Documents/Pico/pico-sdk/src/rp2_common/pico_float/float_aeabi.S.obj
 .text.__wrap___aeabi_l2f
                0x00000000       0x20 CMakeFiles/rtc_alarm.dir/C_/Users/cotaa/Documents/Pico/pico-sdk/src/rp2_common/pico_float/float_aeabi.S.obj
 .text.__wrap___aeabi_ul2f
                0x00000000       0x20 CMakeFiles/rtc_alarm.dir/C_/Users/cotaa/Documents/Pico/pico-sdk/src/rp2_common/pico_float/float_aeabi.S.obj
 .text.__wrap___aeabi_f2lz
                0x00000000       0x26 CMakeFiles/rtc_alarm.dir/C_/Users/cotaa/Documents/Pico/pico-sdk/src/rp2_common/pico_float/float_aeabi.S.obj
 .text.float2int64
                0x00000000       0x14 CMakeFiles/rtc_alarm.dir/C_/Users/cotaa/Documents/Pico/pico-sdk/src/rp2_common/pico_float/float_aeabi.S.obj
 .text.float2fix64
                0x00000000       0x14 CMakeFiles/rtc_alarm.dir/C_/Users/cotaa/Documents/Pico/pico-sdk/src/rp2_common/pico_float/float_aeabi.S.obj
 .text.__wrap___aeabi_f2ulz
                0x00000000       0x14 CMakeFiles/rtc_alarm.dir/C_/Users/cotaa/Documents/Pico/pico-sdk/src/rp2_common/pico_float/float_aeabi.S.obj
 .text.float2ufix64
                0x00000000       0x14 CMakeFiles/rtc_alarm.dir/C_/Users/cotaa/Documents/Pico/pico-sdk/src/rp2_common/pico_float/float_aeabi.S.obj
 .text.__wrap___aeabi_f2d
                0x00000000       0x14 CMakeFiles/rtc_alarm.dir/C_/Users/cotaa/Documents/Pico/pico-sdk/src/rp2_common/pico_float/float_aeabi.S.obj
 .text.__wrap_srqtf
                0x00000000       0x20 CMakeFiles/rtc_alarm.dir/C_/Users/cotaa/Documents/Pico/pico-sdk/src/rp2_common/pico_float/float_aeabi.S.obj
 .text.__wrap_cosf
                0x00000000       0x24 CMakeFiles/rtc_alarm.dir/C_/Users/cotaa/Documents/Pico/pico-sdk/src/rp2_common/pico_float/float_aeabi.S.obj
 .text.__wrap_sinf
                0x00000000       0x24 CMakeFiles/rtc_alarm.dir/C_/Users/cotaa/Documents/Pico/pico-sdk/src/rp2_common/pico_float/float_aeabi.S.obj
 .text.__wrap_sincosf
                0x00000000       0x30 CMakeFiles/rtc_alarm.dir/C_/Users/cotaa/Documents/Pico/pico-sdk/src/rp2_common/pico_float/float_aeabi.S.obj
 .text.__wrap_tanf
                0x00000000       0x24 CMakeFiles/rtc_alarm.dir/C_/Users/cotaa/Documents/Pico/pico-sdk/src/rp2_common/pico_float/float_aeabi.S.obj
 .text.__wrap_atan2f
                0x00000000       0x14 CMakeFiles/rtc_alarm.dir/C_/Users/cotaa/Documents/Pico/pico-sdk/src/rp2_common/pico_float/float_aeabi.S.obj
 .text.__wrap_expf
                0x00000000        0xc CMakeFiles/rtc_alarm.dir/C_/Users/cotaa/Documents/Pico/pico-sdk/src/rp2_common/pico_float/float_aeabi.S.obj
 .text.__wrap_logf
                0x00000000        0xc CMakeFiles/rtc_alarm.dir/C_/Users/cotaa/Documents/Pico/pico-sdk/src/rp2_common/pico_float/float_aeabi.S.obj
 .text          0x00000000        0x0 CMakeFiles/rtc_alarm.dir/C_/Users/cotaa/Documents/Pico/pico-sdk/src/rp2_common/pico_float/float_init_rom.c.obj
 .data          0x00000000        0x0 CMakeFiles/rtc_alarm.dir/C_/Users/cotaa/Documents/Pico/pico-sdk/src/rp2_common/pico_float/float_init_rom.c.obj
 .bss           0x00000000        0x0 CMakeFiles/rtc_alarm.dir/C_/Users/cotaa/Documents/Pico/pico-sdk/src/rp2_common/pico_float/float_init_rom.c.obj
 .text          0x00000000        0x0 CMakeFiles/rtc_alarm.dir/C_/Users/cotaa/Documents/Pico/pico-sdk/src/rp2_common/pico_float/float_math.c.obj
 .data          0x00000000        0x0 CMakeFiles/rtc_alarm.dir/C_/Users/cotaa/Documents/Pico/pico-sdk/src/rp2_common/pico_float/float_math.c.obj
 .bss           0x00000000        0x0 CMakeFiles/rtc_alarm.dir/C_/Users/cotaa/Documents/Pico/pico-sdk/src/rp2_common/pico_float/float_math.c.obj
 .text.fpow_int2
                0x00000000       0x28 CMakeFiles/rtc_alarm.dir/C_/Users/cotaa/Documents/Pico/pico-sdk/src/rp2_common/pico_float/float_math.c.obj
 .text.fpow_0   0x00000000      0x1a8 CMakeFiles/rtc_alarm.dir/C_/Users/cotaa/Documents/Pico/pico-sdk/src/rp2_common/pico_float/float_math.c.obj
 .text.fpowint_0
                0x00000000      0x1a0 CMakeFiles/rtc_alarm.dir/C_/Users/cotaa/Documents/Pico/pico-sdk/src/rp2_common/pico_float/float_math.c.obj
 .text.__wrap_ldexpf
                0x00000000       0x2c CMakeFiles/rtc_alarm.dir/C_/Users/cotaa/Documents/Pico/pico-sdk/src/rp2_common/pico_float/float_math.c.obj
 .text.__wrap_copysignf
                0x00000000        0xc CMakeFiles/rtc_alarm.dir/C_/Users/cotaa/Documents/Pico/pico-sdk/src/rp2_common/pico_float/float_math.c.obj
 .text.__wrap_truncf
                0x00000000       0x20 CMakeFiles/rtc_alarm.dir/C_/Users/cotaa/Documents/Pico/pico-sdk/src/rp2_common/pico_float/float_math.c.obj
 .text.__wrap_roundf
                0x00000000       0x3c CMakeFiles/rtc_alarm.dir/C_/Users/cotaa/Documents/Pico/pico-sdk/src/rp2_common/pico_float/float_math.c.obj
 .text.__wrap_floorf
                0x00000000       0x40 CMakeFiles/rtc_alarm.dir/C_/Users/cotaa/Documents/Pico/pico-sdk/src/rp2_common/pico_float/float_math.c.obj
 .text.__wrap_ceilf
                0x00000000       0x40 CMakeFiles/rtc_alarm.dir/C_/Users/cotaa/Documents/Pico/pico-sdk/src/rp2_common/pico_float/float_math.c.obj
 .text.__wrap_asinf
                0x00000000       0x40 CMakeFiles/rtc_alarm.dir/C_/Users/cotaa/Documents/Pico/pico-sdk/src/rp2_common/pico_float/float_math.c.obj
 .text.__wrap_acosf
                0x00000000       0x40 CMakeFiles/rtc_alarm.dir/C_/Users/cotaa/Documents/Pico/pico-sdk/src/rp2_common/pico_float/float_math.c.obj
 .text.__wrap_atanf
                0x00000000       0x2c CMakeFiles/rtc_alarm.dir/C_/Users/cotaa/Documents/Pico/pico-sdk/src/rp2_common/pico_float/float_math.c.obj
 .text.__wrap_sinhf
                0x00000000       0x3c CMakeFiles/rtc_alarm.dir/C_/Users/cotaa/Documents/Pico/pico-sdk/src/rp2_common/pico_float/float_math.c.obj
 .text.__wrap_coshf
                0x00000000       0x3c CMakeFiles/rtc_alarm.dir/C_/Users/cotaa/Documents/Pico/pico-sdk/src/rp2_common/pico_float/float_math.c.obj
 .text.__wrap_tanhf
                0x00000000       0x4c CMakeFiles/rtc_alarm.dir/C_/Users/cotaa/Documents/Pico/pico-sdk/src/rp2_common/pico_float/float_math.c.obj
 .text.__wrap_asinhf
                0x00000000       0xb4 CMakeFiles/rtc_alarm.dir/C_/Users/cotaa/Documents/Pico/pico-sdk/src/rp2_common/pico_float/float_math.c.obj
 .text.__wrap_acoshf
                0x00000000       0x70 CMakeFiles/rtc_alarm.dir/C_/Users/cotaa/Documents/Pico/pico-sdk/src/rp2_common/pico_float/float_math.c.obj
 .text.__wrap_atanhf
                0x00000000       0x44 CMakeFiles/rtc_alarm.dir/C_/Users/cotaa/Documents/Pico/pico-sdk/src/rp2_common/pico_float/float_math.c.obj
 .text.__wrap_exp2f
                0x00000000       0x20 CMakeFiles/rtc_alarm.dir/C_/Users/cotaa/Documents/Pico/pico-sdk/src/rp2_common/pico_float/float_math.c.obj
 .text.__wrap_log2f
                0x00000000       0x14 CMakeFiles/rtc_alarm.dir/C_/Users/cotaa/Documents/Pico/pico-sdk/src/rp2_common/pico_float/float_math.c.obj
 .text.__wrap_exp10f
                0x00000000       0x20 CMakeFiles/rtc_alarm.dir/C_/Users/cotaa/Documents/Pico/pico-sdk/src/rp2_common/pico_float/float_math.c.obj
 .text.__wrap_log10f
                0x00000000       0x14 CMakeFiles/rtc_alarm.dir/C_/Users/cotaa/Documents/Pico/pico-sdk/src/rp2_common/pico_float/float_math.c.obj
 .text.__wrap_expm1f
                0x00000000       0x1c CMakeFiles/rtc_alarm.dir/C_/Users/cotaa/Documents/Pico/pico-sdk/src/rp2_common/pico_float/float_math.c.obj
 .text.__wrap_log1pf
                0x00000000       0x1c CMakeFiles/rtc_alarm.dir/C_/Users/cotaa/Documents/Pico/pico-sdk/src/rp2_common/pico_float/float_math.c.obj
 .text.__wrap_fmaf
                0x00000000       0x3c CMakeFiles/rtc_alarm.dir/C_/Users/cotaa/Documents/Pico/pico-sdk/src/rp2_common/pico_float/float_math.c.obj
 .text.__wrap_powintf
                0x00000000       0x88 CMakeFiles/rtc_alarm.dir/C_/Users/cotaa/Documents/Pico/pico-sdk/src/rp2_common/pico_float/float_math.c.obj
 .text.__wrap_powf
                0x00000000      0x19c CMakeFiles/rtc_alarm.dir/C_/Users/cotaa/Documents/Pico/pico-sdk/src/rp2_common/pico_float/float_math.c.obj
 .text.__wrap_hypotf
                0x00000000      0x100 CMakeFiles/rtc_alarm.dir/C_/Users/cotaa/Documents/Pico/pico-sdk/src/rp2_common/pico_float/float_math.c.obj
 .text.__wrap_cbrtf
                0x00000000       0xa0 CMakeFiles/rtc_alarm.dir/C_/Users/cotaa/Documents/Pico/pico-sdk/src/rp2_common/pico_float/float_math.c.obj
 .text.__wrap_fmodf
                0x00000000       0xbc CMakeFiles/rtc_alarm.dir/C_/Users/cotaa/Documents/Pico/pico-sdk/src/rp2_common/pico_float/float_math.c.obj
 .text.__wrap_remquof
                0x00000000      0x148 CMakeFiles/rtc_alarm.dir/C_/Users/cotaa/Documents/Pico/pico-sdk/src/rp2_common/pico_float/float_math.c.obj
 .text.__wrap_dremf
                0x00000000        0xc CMakeFiles/rtc_alarm.dir/C_/Users/cotaa/Documents/Pico/pico-sdk/src/rp2_common/pico_float/float_math.c.obj
 .text.__wrap_remainderf
                0x00000000        0xc CMakeFiles/rtc_alarm.dir/C_/Users/cotaa/Documents/Pico/pico-sdk/src/rp2_common/pico_float/float_math.c.obj
 .comment       0x00000000       0x7a CMakeFiles/rtc_alarm.dir/C_/Users/cotaa/Documents/Pico/pico-sdk/src/rp2_common/pico_float/float_math.c.obj
 .ARM.attributes
                0x00000000       0x2b CMakeFiles/rtc_alarm.dir/C_/Users/cotaa/Documents/Pico/pico-sdk/src/rp2_common/pico_float/float_math.c.obj
 .text          0x00000000        0x0 CMakeFiles/rtc_alarm.dir/C_/Users/cotaa/Documents/Pico/pico-sdk/src/rp2_common/pico_float/float_v1_rom_shim.S.obj
 .data          0x00000000        0x0 CMakeFiles/rtc_alarm.dir/C_/Users/cotaa/Documents/Pico/pico-sdk/src/rp2_common/pico_float/float_v1_rom_shim.S.obj
 .bss           0x00000000        0x0 CMakeFiles/rtc_alarm.dir/C_/Users/cotaa/Documents/Pico/pico-sdk/src/rp2_common/pico_float/float_v1_rom_shim.S.obj
 .text.642float_shims
                0x00000000       0x44 CMakeFiles/rtc_alarm.dir/C_/Users/cotaa/Documents/Pico/pico-sdk/src/rp2_common/pico_float/float_v1_rom_shim.S.obj
 .text.fatan2_shim
                0x00000000       0x88 CMakeFiles/rtc_alarm.dir/C_/Users/cotaa/Documents/Pico/pico-sdk/src/rp2_common/pico_float/float_v1_rom_shim.S.obj
 .text.float232_shims
                0x00000000       0x18 CMakeFiles/rtc_alarm.dir/C_/Users/cotaa/Documents/Pico/pico-sdk/src/rp2_common/pico_float/float_v1_rom_shim.S.obj
 .text.float264_shims
                0x00000000       0x4c CMakeFiles/rtc_alarm.dir/C_/Users/cotaa/Documents/Pico/pico-sdk/src/rp2_common/pico_float/float_v1_rom_shim.S.obj
 .text.d2fix_a_float
                0x00000000       0x5c CMakeFiles/rtc_alarm.dir/C_/Users/cotaa/Documents/Pico/pico-sdk/src/rp2_common/pico_float/float_v1_rom_shim.S.obj
 .text.float2double_shim
                0x00000000       0x30 CMakeFiles/rtc_alarm.dir/C_/Users/cotaa/Documents/Pico/pico-sdk/src/rp2_common/pico_float/float_v1_rom_shim.S.obj
 .text          0x00000000        0x0 CMakeFiles/rtc_alarm.dir/C_/Users/cotaa/Documents/Pico/pico-sdk/src/rp2_common/pico_malloc/pico_malloc.c.obj
 .data          0x00000000        0x0 CMakeFiles/rtc_alarm.dir/C_/Users/cotaa/Documents/Pico/pico-sdk/src/rp2_common/pico_malloc/pico_malloc.c.obj
 .bss           0x00000000        0x0 CMakeFiles/rtc_alarm.dir/C_/Users/cotaa/Documents/Pico/pico-sdk/src/rp2_common/pico_malloc/pico_malloc.c.obj
 .text.__wrap_free
                0x00000000        0x8 CMakeFiles/rtc_alarm.dir/C_/Users/cotaa/Documents/Pico/pico-sdk/src/rp2_common/pico_malloc/pico_malloc.c.obj
 .data          0x00000000        0x0 CMakeFiles/rtc_alarm.dir/C_/Users/cotaa/Documents/Pico/pico-sdk/src/rp2_common/pico_mem_ops/mem_ops_aeabi.S.obj
 .bss           0x00000000        0x0 CMakeFiles/rtc_alarm.dir/C_/Users/cotaa/Documents/Pico/pico-sdk/src/rp2_common/pico_mem_ops/mem_ops_aeabi.S.obj
 .text.aeabi_memset_memcpy
                0x00000000       0x24 CMakeFiles/rtc_alarm.dir/C_/Users/cotaa/Documents/Pico/pico-sdk/src/rp2_common/pico_mem_ops/mem_ops_aeabi.S.obj
 .text          0x00000000        0x0 CMakeFiles/rtc_alarm.dir/C_/Users/cotaa/Documents/Pico/pico-sdk/src/rp2_common/pico_standard_link/crt0.S.obj
 .data          0x00000000        0x0 CMakeFiles/rtc_alarm.dir/C_/Users/cotaa/Documents/Pico/pico-sdk/src/rp2_common/pico_standard_link/crt0.S.obj
 .bss           0x00000000        0x0 CMakeFiles/rtc_alarm.dir/C_/Users/cotaa/Documents/Pico/pico-sdk/src/rp2_common/pico_standard_link/crt0.S.obj
 .text          0x00000000        0x0 CMakeFiles/rtc_alarm.dir/C_/Users/cotaa/Documents/Pico/pico-sdk/src/rp2_common/pico_standard_link/new_delete.cpp.obj
 .data          0x00000000        0x0 CMakeFiles/rtc_alarm.dir/C_/Users/cotaa/Documents/Pico/pico-sdk/src/rp2_common/pico_standard_link/new_delete.cpp.obj
 .bss           0x00000000        0x0 CMakeFiles/rtc_alarm.dir/C_/Users/cotaa/Documents/Pico/pico-sdk/src/rp2_common/pico_standard_link/new_delete.cpp.obj
 .text._Znwj    0x00000000        0x8 CMakeFiles/rtc_alarm.dir/C_/Users/cotaa/Documents/Pico/pico-sdk/src/rp2_common/pico_standard_link/new_delete.cpp.obj
 .text._Znaj    0x00000000        0x8 CMakeFiles/rtc_alarm.dir/C_/Users/cotaa/Documents/Pico/pico-sdk/src/rp2_common/pico_standard_link/new_delete.cpp.obj
 .text._ZdlPvj  0x00000000        0x8 CMakeFiles/rtc_alarm.dir/C_/Users/cotaa/Documents/Pico/pico-sdk/src/rp2_common/pico_standard_link/new_delete.cpp.obj
 .text._ZdlPv   0x00000000        0x8 CMakeFiles/rtc_alarm.dir/C_/Users/cotaa/Documents/Pico/pico-sdk/src/rp2_common/pico_standard_link/new_delete.cpp.obj
 .text._ZdaPv   0x00000000        0x8 CMakeFiles/rtc_alarm.dir/C_/Users/cotaa/Documents/Pico/pico-sdk/src/rp2_common/pico_standard_link/new_delete.cpp.obj
 .comment       0x00000000       0x7a CMakeFiles/rtc_alarm.dir/C_/Users/cotaa/Documents/Pico/pico-sdk/src/rp2_common/pico_standard_link/new_delete.cpp.obj
 .ARM.attributes
                0x00000000       0x2b CMakeFiles/rtc_alarm.dir/C_/Users/cotaa/Documents/Pico/pico-sdk/src/rp2_common/pico_standard_link/new_delete.cpp.obj
 .text          0x00000000        0x0 CMakeFiles/rtc_alarm.dir/C_/Users/cotaa/Documents/Pico/pico-sdk/src/rp2_common/pico_standard_link/binary_info.c.obj
 .data          0x00000000        0x0 CMakeFiles/rtc_alarm.dir/C_/Users/cotaa/Documents/Pico/pico-sdk/src/rp2_common/pico_standard_link/binary_info.c.obj
 .bss           0x00000000        0x0 CMakeFiles/rtc_alarm.dir/C_/Users/cotaa/Documents/Pico/pico-sdk/src/rp2_common/pico_standard_link/binary_info.c.obj
 .text          0x00000000        0x0 CMakeFiles/rtc_alarm.dir/C_/Users/cotaa/Documents/Pico/pico-sdk/src/rp2_common/pico_stdio/stdio.c.obj
 .data          0x00000000        0x0 CMakeFiles/rtc_alarm.dir/C_/Users/cotaa/Documents/Pico/pico-sdk/src/rp2_common/pico_stdio/stdio.c.obj
 .bss           0x00000000        0x0 CMakeFiles/rtc_alarm.dir/C_/Users/cotaa/Documents/Pico/pico-sdk/src/rp2_common/pico_stdio/stdio.c.obj
 .text.stdout_serialize_begin
                0x00000000       0x30 CMakeFiles/rtc_alarm.dir/C_/Users/cotaa/Documents/Pico/pico-sdk/src/rp2_common/pico_stdio/stdio.c.obj
 .text.stdout_serialize_end
                0x00000000       0x10 CMakeFiles/rtc_alarm.dir/C_/Users/cotaa/Documents/Pico/pico-sdk/src/rp2_common/pico_stdio/stdio.c.obj
 .text._read    0x00000000       0x90 CMakeFiles/rtc_alarm.dir/C_/Users/cotaa/Documents/Pico/pico-sdk/src/rp2_common/pico_stdio/stdio.c.obj
 .text._write   0x00000000       0x20 CMakeFiles/rtc_alarm.dir/C_/Users/cotaa/Documents/Pico/pico-sdk/src/rp2_common/pico_stdio/stdio.c.obj
 .text.__wrap_getchar
                0x00000000       0x78 CMakeFiles/rtc_alarm.dir/C_/Users/cotaa/Documents/Pico/pico-sdk/src/rp2_common/pico_stdio/stdio.c.obj
 .text.getchar_timeout_us
                0x00000000       0x9c CMakeFiles/rtc_alarm.dir/C_/Users/cotaa/Documents/Pico/pico-sdk/src/rp2_common/pico_stdio/stdio.c.obj
 .text.stdio_filter_driver
                0x00000000        0xc CMakeFiles/rtc_alarm.dir/C_/Users/cotaa/Documents/Pico/pico-sdk/src/rp2_common/pico_stdio/stdio.c.obj
 .text.stdio_set_translate_crlf
                0x00000000       0x10 CMakeFiles/rtc_alarm.dir/C_/Users/cotaa/Documents/Pico/pico-sdk/src/rp2_common/pico_stdio/stdio.c.obj
 .text          0x00000000        0x0 CMakeFiles/rtc_alarm.dir/C_/Users/cotaa/Documents/Pico/pico-sdk/src/rp2_common/pico_stdio_uart/stdio_uart.c.obj
 .data          0x00000000        0x0 CMakeFiles/rtc_alarm.dir/C_/Users/cotaa/Documents/Pico/pico-sdk/src/rp2_common/pico_stdio_uart/stdio_uart.c.obj
 .bss           0x00000000        0x0 CMakeFiles/rtc_alarm.dir/C_/Users/cotaa/Documents/Pico/pico-sdk/src/rp2_common/pico_stdio_uart/stdio_uart.c.obj
 .text.stdout_uart_init
                0x00000000       0x38 CMakeFiles/rtc_alarm.dir/C_/Users/cotaa/Documents/Pico/pico-sdk/src/rp2_common/pico_stdio_uart/stdio_uart.c.obj
 .text.stdin_uart_init
                0x00000000       0x38 CMakeFiles/rtc_alarm.dir/C_/Users/cotaa/Documents/Pico/pico-sdk/src/rp2_common/pico_stdio_uart/stdio_uart.c.obj
 .text.stdio_uart_init_full
                0x00000000       0x30 CMakeFiles/rtc_alarm.dir/C_/Users/cotaa/Documents/Pico/pico-sdk/src/rp2_common/pico_stdio_uart/stdio_uart.c.obj
 .binary_info.__bi_ptr47
                0x00000000        0x4 CMakeFiles/rtc_alarm.dir/C_/Users/cotaa/Documents/Pico/pico-sdk/src/rp2_common/pico_stdio_uart/stdio_uart.c.obj
 .binary_info.__bi_ptr51
                0x00000000        0x4 CMakeFiles/rtc_alarm.dir/C_/Users/cotaa/Documents/Pico/pico-sdk/src/rp2_common/pico_stdio_uart/stdio_uart.c.obj
 .binary_info.__bi_ptr59
                0x00000000        0x4 CMakeFiles/rtc_alarm.dir/C_/Users/cotaa/Documents/Pico/pico-sdk/src/rp2_common/pico_stdio_uart/stdio_uart.c.obj
 .binary_info.__bi_ptr63
                0x00000000        0x4 CMakeFiles/rtc_alarm.dir/C_/Users/cotaa/Documents/Pico/pico-sdk/src/rp2_common/pico_stdio_uart/stdio_uart.c.obj
 .rodata.__bi_47.4697
                0x00000000        0x8 CMakeFiles/rtc_alarm.dir/C_/Users/cotaa/Documents/Pico/pico-sdk/src/rp2_common/pico_stdio_uart/stdio_uart.c.obj
 .rodata.__bi_51.4701
                0x00000000        0xc CMakeFiles/rtc_alarm.dir/C_/Users/cotaa/Documents/Pico/pico-sdk/src/rp2_common/pico_stdio_uart/stdio_uart.c.obj
 .rodata.__bi_59.4707
                0x00000000        0x8 CMakeFiles/rtc_alarm.dir/C_/Users/cotaa/Documents/Pico/pico-sdk/src/rp2_common/pico_stdio_uart/stdio_uart.c.obj
 .rodata.__bi_63.4711
                0x00000000        0xc CMakeFiles/rtc_alarm.dir/C_/Users/cotaa/Documents/Pico/pico-sdk/src/rp2_common/pico_stdio_uart/stdio_uart.c.obj
 .text          0x00000000        0x0 CMakeFiles/rtc_alarm.dir/C_/Users/cotaa/Documents/Pico/pico-sdk/src/rp2_common/hardware_rtc/rtc.c.obj
 .data          0x00000000        0x0 CMakeFiles/rtc_alarm.dir/C_/Users/cotaa/Documents/Pico/pico-sdk/src/rp2_common/hardware_rtc/rtc.c.obj
 .bss           0x00000000        0x0 CMakeFiles/rtc_alarm.dir/C_/Users/cotaa/Documents/Pico/pico-sdk/src/rp2_common/hardware_rtc/rtc.c.obj
 .text.rtc_running
                0x00000000       0x10 CMakeFiles/rtc_alarm.dir/C_/Users/cotaa/Documents/Pico/pico-sdk/src/rp2_common/hardware_rtc/rtc.c.obj
 .text.rtc_disable_alarm
                0x00000000       0x20 CMakeFiles/rtc_alarm.dir/C_/Users/cotaa/Documents/Pico/pico-sdk/src/rp2_common/hardware_rtc/rtc.c.obj
 .text          0x00000000        0x0 C:\Users\cotaa\AppData\Local\Temp\cc0fMSEE.o
 .data          0x00000000        0x0 C:\Users\cotaa\AppData\Local\Temp\cc0fMSEE.o
 .bss           0x00000000        0x0 C:\Users\cotaa\AppData\Local\Temp\cc0fMSEE.o
 .data          0x00000000        0x0 c:/users/cotaa/documents/pico/pico-toolchain/gcc-arm-none-eabi-9-2019-q4-major-win32/bin/../lib/gcc/arm-none-eabi/9.2.1/thumb/v6-m/nofp\libgcc.a(_dvmd_tls.o)
 .bss           0x00000000        0x0 c:/users/cotaa/documents/pico/pico-toolchain/gcc-arm-none-eabi-9-2019-q4-major-win32/bin/../lib/gcc/arm-none-eabi/9.2.1/thumb/v6-m/nofp\libgcc.a(_dvmd_tls.o)
 .text          0x00000000        0x0 c:/users/cotaa/documents/pico/pico-toolchain/gcc-arm-none-eabi-9-2019-q4-major-win32/bin/../lib/gcc/arm-none-eabi/9.2.1/../../../../arm-none-eabi/lib/thumb/v6-m/nofp\libc.a(lib_a-calloc.o)
 .data          0x00000000        0x0 c:/users/cotaa/documents/pico/pico-toolchain/gcc-arm-none-eabi-9-2019-q4-major-win32/bin/../lib/gcc/arm-none-eabi/9.2.1/../../../../arm-none-eabi/lib/thumb/v6-m/nofp\libc.a(lib_a-calloc.o)
 .bss           0x00000000        0x0 c:/users/cotaa/documents/pico/pico-toolchain/gcc-arm-none-eabi-9-2019-q4-major-win32/bin/../lib/gcc/arm-none-eabi/9.2.1/../../../../arm-none-eabi/lib/thumb/v6-m/nofp\libc.a(lib_a-calloc.o)
 .text          0x00000000        0x0 c:/users/cotaa/documents/pico/pico-toolchain/gcc-arm-none-eabi-9-2019-q4-major-win32/bin/../lib/gcc/arm-none-eabi/9.2.1/../../../../arm-none-eabi/lib/thumb/v6-m/nofp\libc.a(lib_a-callocr.o)
 .data          0x00000000        0x0 c:/users/cotaa/documents/pico/pico-toolchain/gcc-arm-none-eabi-9-2019-q4-major-win32/bin/../lib/gcc/arm-none-eabi/9.2.1/../../../../arm-none-eabi/lib/thumb/v6-m/nofp\libc.a(lib_a-callocr.o)
 .bss           0x00000000        0x0 c:/users/cotaa/documents/pico/pico-toolchain/gcc-arm-none-eabi-9-2019-q4-major-win32/bin/../lib/gcc/arm-none-eabi/9.2.1/../../../../arm-none-eabi/lib/thumb/v6-m/nofp\libc.a(lib_a-callocr.o)
 .text          0x00000000        0x0 c:/users/cotaa/documents/pico/pico-toolchain/gcc-arm-none-eabi-9-2019-q4-major-win32/bin/../lib/gcc/arm-none-eabi/9.2.1/../../../../arm-none-eabi/lib/thumb/v6-m/nofp\libc.a(lib_a-impure.o)
 .data          0x00000000        0x0 c:/users/cotaa/documents/pico/pico-toolchain/gcc-arm-none-eabi-9-2019-q4-major-win32/bin/../lib/gcc/arm-none-eabi/9.2.1/../../../../arm-none-eabi/lib/thumb/v6-m/nofp\libc.a(lib_a-impure.o)
 .bss           0x00000000        0x0 c:/users/cotaa/documents/pico/pico-toolchain/gcc-arm-none-eabi-9-2019-q4-major-win32/bin/../lib/gcc/arm-none-eabi/9.2.1/../../../../arm-none-eabi/lib/thumb/v6-m/nofp\libc.a(lib_a-impure.o)
 .rodata._global_impure_ptr
                0x00000000        0x4 c:/users/cotaa/documents/pico/pico-toolchain/gcc-arm-none-eabi-9-2019-q4-major-win32/bin/../lib/gcc/arm-none-eabi/9.2.1/../../../../arm-none-eabi/lib/thumb/v6-m/nofp\libc.a(lib_a-impure.o)
 .text          0x00000000        0x0 c:/users/cotaa/documents/pico/pico-toolchain/gcc-arm-none-eabi-9-2019-q4-major-win32/bin/../lib/gcc/arm-none-eabi/9.2.1/../../../../arm-none-eabi/lib/thumb/v6-m/nofp\libc.a(lib_a-init.o)
 .data          0x00000000        0x0 c:/users/cotaa/documents/pico/pico-toolchain/gcc-arm-none-eabi-9-2019-q4-major-win32/bin/../lib/gcc/arm-none-eabi/9.2.1/../../../../arm-none-eabi/lib/thumb/v6-m/nofp\libc.a(lib_a-init.o)
 .bss           0x00000000        0x0 c:/users/cotaa/documents/pico/pico-toolchain/gcc-arm-none-eabi-9-2019-q4-major-win32/bin/../lib/gcc/arm-none-eabi/9.2.1/../../../../arm-none-eabi/lib/thumb/v6-m/nofp\libc.a(lib_a-init.o)
 .text.__libc_init_array
                0x00000000       0x44 c:/users/cotaa/documents/pico/pico-toolchain/gcc-arm-none-eabi-9-2019-q4-major-win32/bin/../lib/gcc/arm-none-eabi/9.2.1/../../../../arm-none-eabi/lib/thumb/v6-m/nofp\libc.a(lib_a-init.o)
 .debug_frame   0x00000000       0x2c c:/users/cotaa/documents/pico/pico-toolchain/gcc-arm-none-eabi-9-2019-q4-major-win32/bin/../lib/gcc/arm-none-eabi/9.2.1/../../../../arm-none-eabi/lib/thumb/v6-m/nofp\libc.a(lib_a-init.o)
 .ARM.attributes
                0x00000000       0x2c c:/users/cotaa/documents/pico/pico-toolchain/gcc-arm-none-eabi-9-2019-q4-major-win32/bin/../lib/gcc/arm-none-eabi/9.2.1/../../../../arm-none-eabi/lib/thumb/v6-m/nofp\libc.a(lib_a-init.o)
 .text          0x00000000        0x0 c:/users/cotaa/documents/pico/pico-toolchain/gcc-arm-none-eabi-9-2019-q4-major-win32/bin/../lib/gcc/arm-none-eabi/9.2.1/../../../../arm-none-eabi/lib/thumb/v6-m/nofp\libc.a(lib_a-malloc.o)
 .data          0x00000000        0x0 c:/users/cotaa/documents/pico/pico-toolchain/gcc-arm-none-eabi-9-2019-q4-major-win32/bin/../lib/gcc/arm-none-eabi/9.2.1/../../../../arm-none-eabi/lib/thumb/v6-m/nofp\libc.a(lib_a-malloc.o)
 .bss           0x00000000        0x0 c:/users/cotaa/documents/pico/pico-toolchain/gcc-arm-none-eabi-9-2019-q4-major-win32/bin/../lib/gcc/arm-none-eabi/9.2.1/../../../../arm-none-eabi/lib/thumb/v6-m/nofp\libc.a(lib_a-malloc.o)
 .text.free     0x00000000       0x14 c:/users/cotaa/documents/pico/pico-toolchain/gcc-arm-none-eabi-9-2019-q4-major-win32/bin/../lib/gcc/arm-none-eabi/9.2.1/../../../../arm-none-eabi/lib/thumb/v6-m/nofp\libc.a(lib_a-malloc.o)
 .text          0x00000000        0x0 c:/users/cotaa/documents/pico/pico-toolchain/gcc-arm-none-eabi-9-2019-q4-major-win32/bin/../lib/gcc/arm-none-eabi/9.2.1/../../../../arm-none-eabi/lib/thumb/v6-m/nofp\libc.a(lib_a-mallocr.o)
 .data          0x00000000        0x0 c:/users/cotaa/documents/pico/pico-toolchain/gcc-arm-none-eabi-9-2019-q4-major-win32/bin/../lib/gcc/arm-none-eabi/9.2.1/../../../../arm-none-eabi/lib/thumb/v6-m/nofp\libc.a(lib_a-mallocr.o)
 .bss           0x00000000        0x0 c:/users/cotaa/documents/pico/pico-toolchain/gcc-arm-none-eabi-9-2019-q4-major-win32/bin/../lib/gcc/arm-none-eabi/9.2.1/../../../../arm-none-eabi/lib/thumb/v6-m/nofp\libc.a(lib_a-mallocr.o)
 .text          0x00000000        0x0 c:/users/cotaa/documents/pico/pico-toolchain/gcc-arm-none-eabi-9-2019-q4-major-win32/bin/../lib/gcc/arm-none-eabi/9.2.1/../../../../arm-none-eabi/lib/thumb/v6-m/nofp\libc.a(lib_a-mlock.o)
 .data          0x00000000        0x0 c:/users/cotaa/documents/pico/pico-toolchain/gcc-arm-none-eabi-9-2019-q4-major-win32/bin/../lib/gcc/arm-none-eabi/9.2.1/../../../../arm-none-eabi/lib/thumb/v6-m/nofp\libc.a(lib_a-mlock.o)
 .bss           0x00000000        0x0 c:/users/cotaa/documents/pico/pico-toolchain/gcc-arm-none-eabi-9-2019-q4-major-win32/bin/../lib/gcc/arm-none-eabi/9.2.1/../../../../arm-none-eabi/lib/thumb/v6-m/nofp\libc.a(lib_a-mlock.o)
 .text          0x00000000        0x0 c:/users/cotaa/documents/pico/pico-toolchain/gcc-arm-none-eabi-9-2019-q4-major-win32/bin/../lib/gcc/arm-none-eabi/9.2.1/../../../../arm-none-eabi/lib/thumb/v6-m/nofp\libc.a(lib_a-sbrkr.o)
 .data          0x00000000        0x0 c:/users/cotaa/documents/pico/pico-toolchain/gcc-arm-none-eabi-9-2019-q4-major-win32/bin/../lib/gcc/arm-none-eabi/9.2.1/../../../../arm-none-eabi/lib/thumb/v6-m/nofp\libc.a(lib_a-sbrkr.o)
 .bss           0x00000000        0x0 c:/users/cotaa/documents/pico/pico-toolchain/gcc-arm-none-eabi-9-2019-q4-major-win32/bin/../lib/gcc/arm-none-eabi/9.2.1/../../../../arm-none-eabi/lib/thumb/v6-m/nofp\libc.a(lib_a-sbrkr.o)
 .text          0x00000000        0x0 c:/users/cotaa/documents/pico/pico-toolchain/gcc-arm-none-eabi-9-2019-q4-major-win32/bin/../lib/gcc/arm-none-eabi/9.2.1/../../../../arm-none-eabi/lib/thumb/v6-m/nofp\libc.a(lib_a-strlen-stub.o)
 .data          0x00000000        0x0 c:/users/cotaa/documents/pico/pico-toolchain/gcc-arm-none-eabi-9-2019-q4-major-win32/bin/../lib/gcc/arm-none-eabi/9.2.1/../../../../arm-none-eabi/lib/thumb/v6-m/nofp\libc.a(lib_a-strlen-stub.o)
 .bss           0x00000000        0x0 c:/users/cotaa/documents/pico/pico-toolchain/gcc-arm-none-eabi-9-2019-q4-major-win32/bin/../lib/gcc/arm-none-eabi/9.2.1/../../../../arm-none-eabi/lib/thumb/v6-m/nofp\libc.a(lib_a-strlen-stub.o)
 .text          0x00000000        0x0 c:/users/cotaa/documents/pico/pico-toolchain/gcc-arm-none-eabi-9-2019-q4-major-win32/bin/../lib/gcc/arm-none-eabi/9.2.1/../../../../arm-none-eabi/lib/thumb/v6-m/nofp\libc.a(lib_a-freer.o)
 .data          0x00000000        0x0 c:/users/cotaa/documents/pico/pico-toolchain/gcc-arm-none-eabi-9-2019-q4-major-win32/bin/../lib/gcc/arm-none-eabi/9.2.1/../../../../arm-none-eabi/lib/thumb/v6-m/nofp\libc.a(lib_a-freer.o)
 .bss           0x00000000        0x0 c:/users/cotaa/documents/pico/pico-toolchain/gcc-arm-none-eabi-9-2019-q4-major-win32/bin/../lib/gcc/arm-none-eabi/9.2.1/../../../../arm-none-eabi/lib/thumb/v6-m/nofp\libc.a(lib_a-freer.o)
 .text          0x00000000        0x0 c:/users/cotaa/documents/pico/pico-toolchain/gcc-arm-none-eabi-9-2019-q4-major-win32/bin/../lib/gcc/arm-none-eabi/9.2.1/../../../../arm-none-eabi/lib/thumb/v6-m/nofp\libc.a(lib_a-lock.o)
 .data          0x00000000        0x0 c:/users/cotaa/documents/pico/pico-toolchain/gcc-arm-none-eabi-9-2019-q4-major-win32/bin/../lib/gcc/arm-none-eabi/9.2.1/../../../../arm-none-eabi/lib/thumb/v6-m/nofp\libc.a(lib_a-lock.o)
 .bss           0x00000000        0x0 c:/users/cotaa/documents/pico/pico-toolchain/gcc-arm-none-eabi-9-2019-q4-major-win32/bin/../lib/gcc/arm-none-eabi/9.2.1/../../../../arm-none-eabi/lib/thumb/v6-m/nofp\libc.a(lib_a-lock.o)
 .text.__retarget_lock_init
                0x00000000        0x4 c:/users/cotaa/documents/pico/pico-toolchain/gcc-arm-none-eabi-9-2019-q4-major-win32/bin/../lib/gcc/arm-none-eabi/9.2.1/../../../../arm-none-eabi/lib/thumb/v6-m/nofp\libc.a(lib_a-lock.o)
 .text.__retarget_lock_init_recursive
                0x00000000        0x4 c:/users/cotaa/documents/pico/pico-toolchain/gcc-arm-none-eabi-9-2019-q4-major-win32/bin/../lib/gcc/arm-none-eabi/9.2.1/../../../../arm-none-eabi/lib/thumb/v6-m/nofp\libc.a(lib_a-lock.o)
 .text.__retarget_lock_close
                0x00000000        0x4 c:/users/cotaa/documents/pico/pico-toolchain/gcc-arm-none-eabi-9-2019-q4-major-win32/bin/../lib/gcc/arm-none-eabi/9.2.1/../../../../arm-none-eabi/lib/thumb/v6-m/nofp\libc.a(lib_a-lock.o)
 .text.__retarget_lock_close_recursive
                0x00000000        0x4 c:/users/cotaa/documents/pico/pico-toolchain/gcc-arm-none-eabi-9-2019-q4-major-win32/bin/../lib/gcc/arm-none-eabi/9.2.1/../../../../arm-none-eabi/lib/thumb/v6-m/nofp\libc.a(lib_a-lock.o)
 .text.__retarget_lock_acquire
                0x00000000        0x4 c:/users/cotaa/documents/pico/pico-toolchain/gcc-arm-none-eabi-9-2019-q4-major-win32/bin/../lib/gcc/arm-none-eabi/9.2.1/../../../../arm-none-eabi/lib/thumb/v6-m/nofp\libc.a(lib_a-lock.o)
 .text.__retarget_lock_try_acquire
                0x00000000        0x4 c:/users/cotaa/documents/pico/pico-toolchain/gcc-arm-none-eabi-9-2019-q4-major-win32/bin/../lib/gcc/arm-none-eabi/9.2.1/../../../../arm-none-eabi/lib/thumb/v6-m/nofp\libc.a(lib_a-lock.o)
 .text.__retarget_lock_try_acquire_recursive
                0x00000000        0x4 c:/users/cotaa/documents/pico/pico-toolchain/gcc-arm-none-eabi-9-2019-q4-major-win32/bin/../lib/gcc/arm-none-eabi/9.2.1/../../../../arm-none-eabi/lib/thumb/v6-m/nofp\libc.a(lib_a-lock.o)
 .text.__retarget_lock_release
                0x00000000        0x4 c:/users/cotaa/documents/pico/pico-toolchain/gcc-arm-none-eabi-9-2019-q4-major-win32/bin/../lib/gcc/arm-none-eabi/9.2.1/../../../../arm-none-eabi/lib/thumb/v6-m/nofp\libc.a(lib_a-lock.o)
 .text          0x00000000        0x0 c:/users/cotaa/documents/pico/pico-toolchain/gcc-arm-none-eabi-9-2019-q4-major-win32/bin/../lib/gcc/arm-none-eabi/9.2.1/../../../../arm-none-eabi/lib/thumb/v6-m/nofp\libc.a(lib_a-reent.o)
 .data          0x00000000        0x0 c:/users/cotaa/documents/pico/pico-toolchain/gcc-arm-none-eabi-9-2019-q4-major-win32/bin/../lib/gcc/arm-none-eabi/9.2.1/../../../../arm-none-eabi/lib/thumb/v6-m/nofp\libc.a(lib_a-reent.o)
 .bss           0x00000000        0x0 c:/users/cotaa/documents/pico/pico-toolchain/gcc-arm-none-eabi-9-2019-q4-major-win32/bin/../lib/gcc/arm-none-eabi/9.2.1/../../../../arm-none-eabi/lib/thumb/v6-m/nofp\libc.a(lib_a-reent.o)
 .text.cleanup_glue
                0x00000000       0x1c c:/users/cotaa/documents/pico/pico-toolchain/gcc-arm-none-eabi-9-2019-q4-major-win32/bin/../lib/gcc/arm-none-eabi/9.2.1/../../../../arm-none-eabi/lib/thumb/v6-m/nofp\libc.a(lib_a-reent.o)
 .text._reclaim_reent
                0x00000000       0x94 c:/users/cotaa/documents/pico/pico-toolchain/gcc-arm-none-eabi-9-2019-q4-major-win32/bin/../lib/gcc/arm-none-eabi/9.2.1/../../../../arm-none-eabi/lib/thumb/v6-m/nofp\libc.a(lib_a-reent.o)
 .text          0x00000000        0x0 c:/users/cotaa/documents/pico/pico-toolchain/gcc-arm-none-eabi-9-2019-q4-major-win32/bin/../lib/gcc/arm-none-eabi/9.2.1/thumb/v6-m/nofp/crtend.o
 .data          0x00000000        0x0 c:/users/cotaa/documents/pico/pico-toolchain/gcc-arm-none-eabi-9-2019-q4-major-win32/bin/../lib/gcc/arm-none-eabi/9.2.1/thumb/v6-m/nofp/crtend.o
 .bss           0x00000000        0x0 c:/users/cotaa/documents/pico/pico-toolchain/gcc-arm-none-eabi-9-2019-q4-major-win32/bin/../lib/gcc/arm-none-eabi/9.2.1/thumb/v6-m/nofp/crtend.o
 .eh_frame      0x00000000        0x4 c:/users/cotaa/documents/pico/pico-toolchain/gcc-arm-none-eabi-9-2019-q4-major-win32/bin/../lib/gcc/arm-none-eabi/9.2.1/thumb/v6-m/nofp/crtend.o
 .ARM.attributes
                0x00000000       0x2c c:/users/cotaa/documents/pico/pico-toolchain/gcc-arm-none-eabi-9-2019-q4-major-win32/bin/../lib/gcc/arm-none-eabi/9.2.1/thumb/v6-m/nofp/crtend.o
 .text          0x00000000        0x0 c:/users/cotaa/documents/pico/pico-toolchain/gcc-arm-none-eabi-9-2019-q4-major-win32/bin/../lib/gcc/arm-none-eabi/9.2.1/thumb/v6-m/nofp/crtn.o
 .data          0x00000000        0x0 c:/users/cotaa/documents/pico/pico-toolchain/gcc-arm-none-eabi-9-2019-q4-major-win32/bin/../lib/gcc/arm-none-eabi/9.2.1/thumb/v6-m/nofp/crtn.o
 .bss           0x00000000        0x0 c:/users/cotaa/documents/pico/pico-toolchain/gcc-arm-none-eabi-9-2019-q4-major-win32/bin/../lib/gcc/arm-none-eabi/9.2.1/thumb/v6-m/nofp/crtn.o
 .init          0x00000000        0x8 c:/users/cotaa/documents/pico/pico-toolchain/gcc-arm-none-eabi-9-2019-q4-major-win32/bin/../lib/gcc/arm-none-eabi/9.2.1/thumb/v6-m/nofp/crtn.o
 .fini          0x00000000        0x8 c:/users/cotaa/documents/pico/pico-toolchain/gcc-arm-none-eabi-9-2019-q4-major-win32/bin/../lib/gcc/arm-none-eabi/9.2.1/thumb/v6-m/nofp/crtn.o
 .ARM.attributes
                0x00000000       0x1e c:/users/cotaa/documents/pico/pico-toolchain/gcc-arm-none-eabi-9-2019-q4-major-win32/bin/../lib/gcc/arm-none-eabi/9.2.1/thumb/v6-m/nofp/crtn.o

Memory Configuration

Name             Origin             Length             Attributes
FLASH            0x10000000         0x00200000         xr
RAM              0x20000000         0x00040000         xrw
SCRATCH_X        0x20040000         0x00001000         xrw
SCRATCH_Y        0x20041000         0x00001000         xrw
*default*        0x00000000         0xffffffff

Linker script and memory map

LOAD c:/users/cotaa/documents/pico/pico-toolchain/gcc-arm-none-eabi-9-2019-q4-major-win32/bin/../lib/gcc/arm-none-eabi/9.2.1/thumb/v6-m/nofp/crti.o
LOAD c:/users/cotaa/documents/pico/pico-toolchain/gcc-arm-none-eabi-9-2019-q4-major-win32/bin/../lib/gcc/arm-none-eabi/9.2.1/thumb/v6-m/nofp/crtbegin.o
LOAD c:/users/cotaa/documents/pico/pico-toolchain/gcc-arm-none-eabi-9-2019-q4-major-win32/bin/../lib/gcc/arm-none-eabi/9.2.1/../../../../arm-none-eabi/lib/thumb/v6-m/nofp/crt0.o

.flash_begin    0x10000000        0x0
                0x10000000                __flash_binary_start = .

.boot2          0x10000000      0x100
                0x10000000                __boot2_start__ = .
 *(.boot2)
 .boot2         0x10000000      0x100 C:\Users\cotaa\AppData\Local\Temp\cc0fMSEE.o
                0x10000100                __boot2_end__ = .
                0x00000001                ASSERT (((__boot2_end__ - __boot2_start__) == 0x100), ERROR: Pico second stage bootloader must be 256 bytes in size)

.text           0x10000100     0x4c90
                0x10000100                __reset_start = .
 *(.reset)
 .reset         0x10000100       0xc4 CMakeFiles/rtc_alarm.dir/C_/Users/cotaa/Documents/Pico/pico-sdk/src/rp2_common/pico_standard_link/crt0.S.obj
                0x10000104                _entry_point
                0x10000196                __get_current_exception
 .reset         0x100001c4       0x30 CMakeFiles/rtc_alarm.dir/C_/Users/cotaa/Documents/Pico/pico-sdk/src/rp2_common/pico_standard_link/binary_info.c.obj
                0x10000200                . = ALIGN (0x100)
 *fill*         0x100001f4        0xc 
                0x10000200                __reset_end = .
                0x00000001                ASSERT (((__reset_end - __reset_start) == 0x100), ERROR: reset section should only be 256 bytes)
 *(.vectors)
 .vectors       0x10000200       0xd4 CMakeFiles/rtc_alarm.dir/C_/Users/cotaa/Documents/Pico/pico-sdk/src/rp2_common/pico_standard_link/crt0.S.obj
                0x10000200                __vectors
                0x100002c0                isr_invalid
                0x100002c2                isr_nmi
                0x100002c4                isr_hardfault
                0x100002c6                isr_svcall
                0x100002c8                isr_pendsv
                0x100002ca                isr_systick
                0x100002cc                isr_irq11
                0x100002cc                isr_irq5
                0x100002cc                isr_irq23
                0x100002cc                isr_irq18
                0x100002cc                isr_irq31
                0x100002cc                isr_irq28
                0x100002cc                isr_irq19
                0x100002cc                isr_irq0
                0x100002cc                isr_irq6
                0x100002cc                isr_irq27
                0x100002cc                isr_irq12
                0x100002cc                isr_irq22
                0x100002cc                isr_irq13
                0x100002cc                isr_irq17
                0x100002cc                isr_irq14
                0x100002cc                isr_irq2
                0x100002cc                isr_irq10
                0x100002cc                isr_irq8
                0x100002cc                isr_irq24
                0x100002cc                isr_irq1
                0x100002cc                isr_irq7
                0x100002cc                isr_irq21
                0x100002cc                isr_irq20
                0x100002cc                isr_irq15
                0x100002cc                isr_irq25
                0x100002cc                __unhandled_user_irq
                0x100002cc                isr_irq4
                0x100002cc                isr_irq16
                0x100002cc                isr_irq29
                0x100002cc                isr_irq26
                0x100002cc                isr_irq3
                0x100002cc                isr_irq30
                0x100002cc                isr_irq9
                0x100002d2                unhandled_user_irq_num_in_r0
 *(.init)
 .init          0x100002d4        0x4 c:/users/cotaa/documents/pico/pico-toolchain/gcc-arm-none-eabi-9-2019-q4-major-win32/bin/../lib/gcc/arm-none-eabi/9.2.1/thumb/v6-m/nofp/crti.o
                0x100002d4                _init
 *(EXCLUDE_FILE(*libm.a: *libc.a:*lib_a-mem*.o *libgcc.a:) .text*)
 .text          0x100002d8       0x48 c:/users/cotaa/documents/pico/pico-toolchain/gcc-arm-none-eabi-9-2019-q4-major-win32/bin/../lib/gcc/arm-none-eabi/9.2.1/thumb/v6-m/nofp/crtbegin.o
 .text.alarm_callback
                0x10000320       0x40 CMakeFiles/rtc_alarm.dir/rtc_alarm.c.obj
 .text.startup.main
                0x10000360       0x50 CMakeFiles/rtc_alarm.dir/rtc_alarm.c.obj
                0x10000360                main
 .text.gpio_set_function
                0x100003b0       0x30 CMakeFiles/rtc_alarm.dir/C_/Users/cotaa/Documents/Pico/pico-sdk/src/rp2_common/hardware_gpio/gpio.c.obj
                0x100003b0                gpio_set_function
 .text.hw_claim_or_assert
                0x100003e0       0x60 CMakeFiles/rtc_alarm.dir/C_/Users/cotaa/Documents/Pico/pico-sdk/src/rp2_common/hardware_claim/claim.c.obj
                0x100003e0                hw_claim_or_assert
 .text.spin_locks_reset
                0x10000440       0x1c CMakeFiles/rtc_alarm.dir/C_/Users/cotaa/Documents/Pico/pico-sdk/src/rp2_common/hardware_sync/sync.c.obj
                0x10000440                spin_locks_reset
 .text.next_striped_spin_lock_num
                0x1000045c       0x18 CMakeFiles/rtc_alarm.dir/C_/Users/cotaa/Documents/Pico/pico-sdk/src/rp2_common/hardware_sync/sync.c.obj
                0x1000045c                next_striped_spin_lock_num
 .text.running_on_fpga
                0x10000474       0x10 CMakeFiles/rtc_alarm.dir/C_/Users/cotaa/Documents/Pico/pico-sdk/src/rp2_common/pico_platform/platform.c.obj
                0x10000474                running_on_fpga
 .text.uart_init
                0x10000484       0xd8 CMakeFiles/rtc_alarm.dir/C_/Users/cotaa/Documents/Pico/pico-sdk/src/rp2_common/hardware_uart/uart.c.obj
                0x10000484                uart_init
 .text.timer_pool_entry_comparator
                0x1000055c       0x34 CMakeFiles/rtc_alarm.dir/C_/Users/cotaa/Documents/Pico/pico-sdk/src/common/pico_time/time.c.obj
                0x1000055c                timer_pool_entry_comparator
 .text.add_alarm_under_lock
                0x10000590      0x12c CMakeFiles/rtc_alarm.dir/C_/Users/cotaa/Documents/Pico/pico-sdk/src/common/pico_time/time.c.obj
 .text.alarm_pool_alarm_callback
                0x100006bc      0x1e0 CMakeFiles/rtc_alarm.dir/C_/Users/cotaa/Documents/Pico/pico-sdk/src/common/pico_time/time.c.obj
 .text.alarm_pool_init_default
                0x1000089c       0x78 CMakeFiles/rtc_alarm.dir/C_/Users/cotaa/Documents/Pico/pico-sdk/src/common/pico_time/time.c.obj
                0x1000089c                alarm_pool_init_default
 .text.hardware_alarm_irq_handler
                0x10000914       0xb8 CMakeFiles/rtc_alarm.dir/C_/Users/cotaa/Documents/Pico/pico-sdk/src/rp2_common/hardware_timer/timer.c.obj
 .text.hardware_alarm_claim
                0x100009cc       0x18 CMakeFiles/rtc_alarm.dir/C_/Users/cotaa/Documents/Pico/pico-sdk/src/rp2_common/hardware_timer/timer.c.obj
                0x100009cc                hardware_alarm_claim
 .text.time_us_64
                0x100009e4       0x14 CMakeFiles/rtc_alarm.dir/C_/Users/cotaa/Documents/Pico/pico-sdk/src/rp2_common/hardware_timer/timer.c.obj
                0x100009e4                time_us_64
 .text.hardware_alarm_set_callback
                0x100009f8       0x8c CMakeFiles/rtc_alarm.dir/C_/Users/cotaa/Documents/Pico/pico-sdk/src/rp2_common/hardware_timer/timer.c.obj
                0x100009f8                hardware_alarm_set_callback
 .text.hardware_alarm_set_target
                0x10000a84       0xc4 CMakeFiles/rtc_alarm.dir/C_/Users/cotaa/Documents/Pico/pico-sdk/src/rp2_common/hardware_timer/timer.c.obj
                0x10000a84                hardware_alarm_set_target
 .text.hardware_alarm_cancel
                0x10000b48       0x40 CMakeFiles/rtc_alarm.dir/C_/Users/cotaa/Documents/Pico/pico-sdk/src/rp2_common/hardware_timer/timer.c.obj
                0x10000b48                hardware_alarm_cancel
 .text.lock_init
                0x10000b88       0x10 CMakeFiles/rtc_alarm.dir/C_/Users/cotaa/Documents/Pico/pico-sdk/src/common/pico_sync/lock_core.c.obj
                0x10000b88                lock_init
 .text.mutex_init
                0x10000b98       0x18 CMakeFiles/rtc_alarm.dir/C_/Users/cotaa/Documents/Pico/pico-sdk/src/common/pico_sync/mutex.c.obj
                0x10000b98                mutex_init
 .text.datetime_to_str
                0x10000bb0       0x50 CMakeFiles/rtc_alarm.dir/C_/Users/cotaa/Documents/Pico/pico-sdk/src/common/pico_util/datetime.c.obj
                0x10000bb0                datetime_to_str
 .text.ph_merge_nodes
                0x10000c00       0x68 CMakeFiles/rtc_alarm.dir/C_/Users/cotaa/Documents/Pico/pico-sdk/src/common/pico_util/pheap.c.obj
 .text.ph_create
                0x10000c68       0x64 CMakeFiles/rtc_alarm.dir/C_/Users/cotaa/Documents/Pico/pico-sdk/src/common/pico_util/pheap.c.obj
                0x10000c68                ph_create
 .text.ph_merge_two_pass
                0x10000ccc       0x90 CMakeFiles/rtc_alarm.dir/C_/Users/cotaa/Documents/Pico/pico-sdk/src/common/pico_util/pheap.c.obj
                0x10000ccc                ph_merge_two_pass
 .text.ph_remove_any_head
                0x10000d5c       0xf8 CMakeFiles/rtc_alarm.dir/C_/Users/cotaa/Documents/Pico/pico-sdk/src/common/pico_util/pheap.c.obj
 .text.ph_remove_head_reserve
                0x10000e54      0x13c CMakeFiles/rtc_alarm.dir/C_/Users/cotaa/Documents/Pico/pico-sdk/src/common/pico_util/pheap.c.obj
                0x10000e54                ph_remove_head_reserve
 .text.ph_delete
                0x10000f90       0x7c CMakeFiles/rtc_alarm.dir/C_/Users/cotaa/Documents/Pico/pico-sdk/src/common/pico_util/pheap.c.obj
                0x10000f90                ph_delete
 .text.runtime_init
                0x1000100c       0xec CMakeFiles/rtc_alarm.dir/C_/Users/cotaa/Documents/Pico/pico-sdk/src/rp2_common/pico_runtime/runtime.c.obj
                0x1000100c                runtime_init
 .text._sbrk    0x100010f8       0x34 CMakeFiles/rtc_alarm.dir/C_/Users/cotaa/Documents/Pico/pico-sdk/src/rp2_common/pico_runtime/runtime.c.obj
                0x100010f8                _sbrk
 .text.exit     0x1000112c        0x4 CMakeFiles/rtc_alarm.dir/C_/Users/cotaa/Documents/Pico/pico-sdk/src/rp2_common/pico_runtime/runtime.c.obj
                0x1000112c                exit
 .text.panic    0x10001130       0x30 CMakeFiles/rtc_alarm.dir/C_/Users/cotaa/Documents/Pico/pico-sdk/src/rp2_common/pico_runtime/runtime.c.obj
                0x10001130                panic
 .text.hard_assertion_failure
                0x10001160        0xc CMakeFiles/rtc_alarm.dir/C_/Users/cotaa/Documents/Pico/pico-sdk/src/rp2_common/pico_runtime/runtime.c.obj
                0x10001160                hard_assertion_failure
 .text.clocks_init
                0x1000116c      0x2e0 CMakeFiles/rtc_alarm.dir/C_/Users/cotaa/Documents/Pico/pico-sdk/src/rp2_common/hardware_clocks/clocks.c.obj
                0x1000116c                clocks_init
 .text.clock_get_hz
                0x1000144c        0xc CMakeFiles/rtc_alarm.dir/C_/Users/cotaa/Documents/Pico/pico-sdk/src/rp2_common/hardware_clocks/clocks.c.obj
                0x1000144c                clock_get_hz
 .text.watchdog_start_tick
                0x10001458       0x10 CMakeFiles/rtc_alarm.dir/C_/Users/cotaa/Documents/Pico/pico-sdk/src/rp2_common/hardware_watchdog/watchdog.c.obj
                0x10001458                watchdog_start_tick
 .text.xosc_init
                0x10001468       0x28 CMakeFiles/rtc_alarm.dir/C_/Users/cotaa/Documents/Pico/pico-sdk/src/rp2_common/hardware_xosc/xosc.c.obj
                0x10001468                xosc_init
 .text.pll_init
                0x10001490       0x54 CMakeFiles/rtc_alarm.dir/C_/Users/cotaa/Documents/Pico/pico-sdk/src/rp2_common/hardware_pll/pll.c.obj
                0x10001490                pll_init
 .text.irq_set_enabled
                0x100014e4       0x24 CMakeFiles/rtc_alarm.dir/C_/Users/cotaa/Documents/Pico/pico-sdk/src/rp2_common/hardware_irq/irq.c.obj
                0x100014e4                irq_set_enabled
 .text.irq_get_vtable_handler
                0x10001508       0x10 CMakeFiles/rtc_alarm.dir/C_/Users/cotaa/Documents/Pico/pico-sdk/src/rp2_common/hardware_irq/irq.c.obj
                0x10001508                irq_get_vtable_handler
 .text.irq_set_exclusive_handler
                0x10001518       0x54 CMakeFiles/rtc_alarm.dir/C_/Users/cotaa/Documents/Pico/pico-sdk/src/rp2_common/hardware_irq/irq.c.obj
                0x10001518                irq_set_exclusive_handler
 .text.irq_remove_handler
                0x1000156c      0x1c4 CMakeFiles/rtc_alarm.dir/C_/Users/cotaa/Documents/Pico/pico-sdk/src/rp2_common/hardware_irq/irq.c.obj
                0x1000156c                irq_remove_handler
 .text.irq_add_tail_to_free_list
                0x10001730       0xbc CMakeFiles/rtc_alarm.dir/C_/Users/cotaa/Documents/Pico/pico-sdk/src/rp2_common/hardware_irq/irq.c.obj
                0x10001730                irq_add_tail_to_free_list
 .text.irq_init_priorities
                0x100017ec       0x38 CMakeFiles/rtc_alarm.dir/C_/Users/cotaa/Documents/Pico/pico-sdk/src/rp2_common/hardware_irq/irq.c.obj
                0x100017ec                irq_init_priorities
 .text._out_buffer
                0x10001824        0x8 CMakeFiles/rtc_alarm.dir/C_/Users/cotaa/Documents/Pico/pico-sdk/src/rp2_common/pico_printf/printf.c.obj
 .text._out_null
                0x1000182c        0x4 CMakeFiles/rtc_alarm.dir/C_/Users/cotaa/Documents/Pico/pico-sdk/src/rp2_common/pico_printf/printf.c.obj
 .text._out_rev
                0x10001830       0xd0 CMakeFiles/rtc_alarm.dir/C_/Users/cotaa/Documents/Pico/pico-sdk/src/rp2_common/pico_printf/printf.c.obj
 .text._ntoa_format
                0x10001900      0x1d0 CMakeFiles/rtc_alarm.dir/C_/Users/cotaa/Documents/Pico/pico-sdk/src/rp2_common/pico_printf/printf.c.obj
 .text._out_char
                0x10001ad0       0x10 CMakeFiles/rtc_alarm.dir/C_/Users/cotaa/Documents/Pico/pico-sdk/src/rp2_common/pico_printf/printf.c.obj
 .text._out_fct
                0x10001ae0       0x10 CMakeFiles/rtc_alarm.dir/C_/Users/cotaa/Documents/Pico/pico-sdk/src/rp2_common/pico_printf/printf.c.obj
 .text._etoa    0x10001af0      0x44c CMakeFiles/rtc_alarm.dir/C_/Users/cotaa/Documents/Pico/pico-sdk/src/rp2_common/pico_printf/printf.c.obj
 .text._ftoa    0x10001f3c      0x3e0 CMakeFiles/rtc_alarm.dir/C_/Users/cotaa/Documents/Pico/pico-sdk/src/rp2_common/pico_printf/printf.c.obj
 .text._vsnprintf
                0x1000231c      0xb08 CMakeFiles/rtc_alarm.dir/C_/Users/cotaa/Documents/Pico/pico-sdk/src/rp2_common/pico_printf/printf.c.obj
 .text.__wrap_snprintf
                0x10002e24       0x28 CMakeFiles/rtc_alarm.dir/C_/Users/cotaa/Documents/Pico/pico-sdk/src/rp2_common/pico_printf/printf.c.obj
                0x10002e24                __wrap_snprintf
 .text.vfctprintf
                0x10002e4c       0x20 CMakeFiles/rtc_alarm.dir/C_/Users/cotaa/Documents/Pico/pico-sdk/src/rp2_common/pico_printf/printf.c.obj
                0x10002e4c                vfctprintf
 .text.weak_raw_vprintf
                0x10002e6c       0x30 CMakeFiles/rtc_alarm.dir/C_/Users/cotaa/Documents/Pico/pico-sdk/src/rp2_common/pico_printf/printf.c.obj
                0x10002e6c                weak_raw_vprintf
 .text          0x10002e9c       0x10 CMakeFiles/rtc_alarm.dir/C_/Users/cotaa/Documents/Pico/pico-sdk/src/rp2_common/pico_bit_ops/bit_ops_aeabi.S.obj
 .text.rom_func_lookup
                0x10002eac       0x10 CMakeFiles/rtc_alarm.dir/C_/Users/cotaa/Documents/Pico/pico-sdk/src/rp2_common/pico_bootrom/bootrom.c.obj
                0x10002eac                rom_func_lookup
 .text.rom_data_lookup
                0x10002ebc       0x10 CMakeFiles/rtc_alarm.dir/C_/Users/cotaa/Documents/Pico/pico-sdk/src/rp2_common/pico_bootrom/bootrom.c.obj
                0x10002ebc                rom_data_lookup
 .text.rom_funcs_lookup
                0x10002ecc       0x3c CMakeFiles/rtc_alarm.dir/C_/Users/cotaa/Documents/Pico/pico-sdk/src/rp2_common/pico_bootrom/bootrom.c.obj
                0x10002ecc                rom_funcs_lookup
 .text.__wrap___aeabi_idiv
                0x10002f08       0x58 CMakeFiles/rtc_alarm.dir/C_/Users/cotaa/Documents/Pico/pico-sdk/src/rp2_common/pico_divider/divider.S.obj
                0x10002f08                __wrap___aeabi_idivmod
                0x10002f08                divmod_s32s32
                0x10002f08                div_s32s32
                0x10002f08                __wrap___aeabi_idiv
                0x10002f10                divmod_s32s32_unsafe
                0x10002f3c                divmod_s32s32_savestate
 .text.__wrap___aeabi_uidiv
                0x10002f60       0x54 CMakeFiles/rtc_alarm.dir/C_/Users/cotaa/Documents/Pico/pico-sdk/src/rp2_common/pico_divider/divider.S.obj
                0x10002f60                __wrap___aeabi_uidiv
                0x10002f60                __wrap___aeabi_uidivmod
                0x10002f60                div_u32u32
                0x10002f60                divmod_u32u32
                0x10002f68                divmod_u32u32_unsafe
                0x10002f90                divmod_u32u32_savestate
 .text.__wrap___aeabi_ldiv
                0x10002fb4      0x430 CMakeFiles/rtc_alarm.dir/C_/Users/cotaa/Documents/Pico/pico-sdk/src/rp2_common/pico_divider/divider.S.obj
                0x10002fb4                div_s64s64
                0x10002fb4                divmod_s64s64
                0x10002fb4                __wrap___aeabi_ldivmod
                0x10002fec                divmod_u64u64
                0x10002fec                div_u64u64
                0x10002fec                __wrap___aeabi_uldivmod
                0x10002ffc                divmod_u64u64_savestate
                0x10003024                divmod_s64s64_unsafe
                0x100030ac                divmod_u64u64_unsafe
 .text.__wrap___aeabi_darithmetic
                0x100033e4       0x54 CMakeFiles/rtc_alarm.dir/C_/Users/cotaa/Documents/Pico/pico-sdk/src/rp2_common/pico_double/double_aeabi.S.obj
                0x100033e4                __wrap___aeabi_drsub
                0x100033ea                __wrap___aeabi_dsub
                0x100033fc                __wrap___aeabi_dadd
                0x1000340e                __wrap___aeabi_ddiv
                0x10003420                __wrap___aeabi_dmul
 .text.__wrap___aeabi_cdcmple
                0x10003438       0x6c CMakeFiles/rtc_alarm.dir/C_/Users/cotaa/Documents/Pico/pico-sdk/src/rp2_common/pico_double/double_aeabi.S.obj
                0x10003438                __wrap___aeabi_cdrcmple
                0x10003448                __wrap___aeabi_cdcmpeq
                0x10003448                __wrap___aeabi_cdcmple
 .text.__wrap___aeabi_dcmplt
                0x100034a4        0xc CMakeFiles/rtc_alarm.dir/C_/Users/cotaa/Documents/Pico/pico-sdk/src/rp2_common/pico_double/double_aeabi.S.obj
                0x100034a4                __wrap___aeabi_dcmplt
 .text.__wrap___aeabi_dcmple
                0x100034b0       0x10 CMakeFiles/rtc_alarm.dir/C_/Users/cotaa/Documents/Pico/pico-sdk/src/rp2_common/pico_double/double_aeabi.S.obj
                0x100034b0                __wrap___aeabi_dcmple
 .text.__wrap___aeabi_dcmpge
                0x100034c0       0x10 CMakeFiles/rtc_alarm.dir/C_/Users/cotaa/Documents/Pico/pico-sdk/src/rp2_common/pico_double/double_aeabi.S.obj
                0x100034c0                __wrap___aeabi_dcmpge
 .text.__wrap___aeabi_dcmpgt
                0x100034d0        0xa CMakeFiles/rtc_alarm.dir/C_/Users/cotaa/Documents/Pico/pico-sdk/src/rp2_common/pico_double/double_aeabi.S.obj
                0x100034d0                __wrap___aeabi_dcmpgt
 .text.__wrap___aeabi_dcmpun
                0x100034da       0x1c CMakeFiles/rtc_alarm.dir/C_/Users/cotaa/Documents/Pico/pico-sdk/src/rp2_common/pico_double/double_aeabi.S.obj
                0x100034da                __wrap___aeabi_dcmpun
 *fill*         0x100034f6        0x2 
 .text.__wrap___aeabi_i2d
                0x100034f8       0x38 CMakeFiles/rtc_alarm.dir/C_/Users/cotaa/Documents/Pico/pico-sdk/src/rp2_common/pico_double/double_aeabi.S.obj
                0x100034f8                __wrap___aeabi_ui2d
                0x10003500                __wrap___aeabi_i2d
 .text.__wrap___aeabi_d2iz
                0x10003530       0x48 CMakeFiles/rtc_alarm.dir/C_/Users/cotaa/Documents/Pico/pico-sdk/src/rp2_common/pico_double/double_aeabi.S.obj
                0x10003530                double2int_z
                0x10003530                __wrap___aeabi_d2iz
 .text.__wrap___aeabi_d2uiz
                0x10003578       0x18 CMakeFiles/rtc_alarm.dir/C_/Users/cotaa/Documents/Pico/pico-sdk/src/rp2_common/pico_double/double_aeabi.S.obj
                0x10003578                __wrap___aeabi_d2uiz
                0x10003578                double2uint
 .text.__aeabi_double_init
                0x10003590       0xac CMakeFiles/rtc_alarm.dir/C_/Users/cotaa/Documents/Pico/pico-sdk/src/rp2_common/pico_double/double_init_rom.c.obj
                0x10003590                __aeabi_double_init
 .text.double_table_shim_on_use_helper
                0x1000363c       0x2c CMakeFiles/rtc_alarm.dir/C_/Users/cotaa/Documents/Pico/pico-sdk/src/rp2_common/pico_double/double_v1_rom_shim.S.obj
                0x1000363c                double_table_shim_on_use_helper
 .text.__wrap___aeabi_dsub
                0x10003668       0x10 CMakeFiles/rtc_alarm.dir/C_/Users/cotaa/Documents/Pico/pico-sdk/src/rp2_common/pico_double/double_v1_rom_shim.S.obj
                0x10003668                drsub_shim
                0x1000366e                dsub_shim
 .text.dadd_shim
                0x10003678      0x15c CMakeFiles/rtc_alarm.dir/C_/Users/cotaa/Documents/Pico/pico-sdk/src/rp2_common/pico_double/double_v1_rom_shim.S.obj
                0x10003678                dadd_shim
 .text.dmul_shim
                0x100037d4      0x15c CMakeFiles/rtc_alarm.dir/C_/Users/cotaa/Documents/Pico/pico-sdk/src/rp2_common/pico_double/double_v1_rom_shim.S.obj
                0x100037d4                dmul_shim
 .text.ddiv_shim
                0x10003930      0x1b0 CMakeFiles/rtc_alarm.dir/C_/Users/cotaa/Documents/Pico/pico-sdk/src/rp2_common/pico_double/double_v1_rom_shim.S.obj
                0x10003930                ddiv_shim
 .text.dcordic_rot_step
                0x10003ae0       0x7c CMakeFiles/rtc_alarm.dir/C_/Users/cotaa/Documents/Pico/pico-sdk/src/rp2_common/pico_double/double_v1_rom_shim.S.obj
                0x10003ae0                dcordic_rot_step
 .text.double2uint_shim
                0x10003b5c        0xe CMakeFiles/rtc_alarm.dir/C_/Users/cotaa/Documents/Pico/pico-sdk/src/rp2_common/pico_double/double_v1_rom_shim.S.obj
                0x10003b5c                double2uint_shim
                0x10003b5e                double2ufix_shim
 *fill*         0x10003b6a        0x2 
 .text.double2uint64_shim
                0x10003b6c       0x6c CMakeFiles/rtc_alarm.dir/C_/Users/cotaa/Documents/Pico/pico-sdk/src/rp2_common/pico_double/double_v1_rom_shim.S.obj
                0x10003b6c                double2uint64_shim
                0x10003b6e                double2ufix64_shim
                0x10003b88                d2fix_a
 .text.dunpacks
                0x10003bd8       0x3c CMakeFiles/rtc_alarm.dir/C_/Users/cotaa/Documents/Pico/pico-sdk/src/rp2_common/pico_double/double_v1_rom_shim.S.obj
                0x10003bd8                dunpacks
 .text.__aeabi_float_init
                0x10003c14       0x64 CMakeFiles/rtc_alarm.dir/C_/Users/cotaa/Documents/Pico/pico-sdk/src/rp2_common/pico_float/float_init_rom.c.obj
                0x10003c14                __aeabi_float_init
 .text.float_table_shim_on_use_helper
                0x10003c78       0x2c CMakeFiles/rtc_alarm.dir/C_/Users/cotaa/Documents/Pico/pico-sdk/src/rp2_common/pico_float/float_v1_rom_shim.S.obj
                0x10003c78                float_table_shim_on_use_helper
 .text.__wrap_malloc
                0x10003ca4        0x8 CMakeFiles/rtc_alarm.dir/C_/Users/cotaa/Documents/Pico/pico-sdk/src/rp2_common/pico_malloc/pico_malloc.c.obj
                0x10003ca4                __wrap_malloc
 .text.__wrap_calloc
                0x10003cac        0x8 CMakeFiles/rtc_alarm.dir/C_/Users/cotaa/Documents/Pico/pico-sdk/src/rp2_common/pico_malloc/pico_malloc.c.obj
                0x10003cac                __wrap_calloc
 .text          0x10003cb4       0x10 CMakeFiles/rtc_alarm.dir/C_/Users/cotaa/Documents/Pico/pico-sdk/src/rp2_common/pico_mem_ops/mem_ops_aeabi.S.obj
                0x10003cb4                __aeabi_mem_init
 .text.memset   0x10003cc4        0xc CMakeFiles/rtc_alarm.dir/C_/Users/cotaa/Documents/Pico/pico-sdk/src/rp2_common/pico_mem_ops/mem_ops_aeabi.S.obj
                0x10003cc4                __wrap_memset
 .text.memcpy   0x10003cd0        0xc CMakeFiles/rtc_alarm.dir/C_/Users/cotaa/Documents/Pico/pico-sdk/src/rp2_common/pico_mem_ops/mem_ops_aeabi.S.obj
                0x10003cd0                __wrap_memcpy
                0x10003cd0                __wrap___aeabi_memcpy
 .text.stdio_out_chars_crlf.part.0
                0x10003cdc       0x84 CMakeFiles/rtc_alarm.dir/C_/Users/cotaa/Documents/Pico/pico-sdk/src/rp2_common/pico_stdio/stdio.c.obj
 .text.stdio_buffered_printer
                0x10003d60       0x78 CMakeFiles/rtc_alarm.dir/C_/Users/cotaa/Documents/Pico/pico-sdk/src/rp2_common/pico_stdio/stdio.c.obj
 .text.stdio_put_string
                0x10003dd8      0x100 CMakeFiles/rtc_alarm.dir/C_/Users/cotaa/Documents/Pico/pico-sdk/src/rp2_common/pico_stdio/stdio.c.obj
 .text.__wrap_putchar
                0x10003ed8       0x1c CMakeFiles/rtc_alarm.dir/C_/Users/cotaa/Documents/Pico/pico-sdk/src/rp2_common/pico_stdio/stdio.c.obj
                0x10003ed8                __wrap_putchar
 .text.__wrap_puts
                0x10003ef4       0x3c CMakeFiles/rtc_alarm.dir/C_/Users/cotaa/Documents/Pico/pico-sdk/src/rp2_common/pico_stdio/stdio.c.obj
                0x10003ef4                __wrap_puts
 .text.stdio_set_driver_enabled
                0x10003f30       0x3c CMakeFiles/rtc_alarm.dir/C_/Users/cotaa/Documents/Pico/pico-sdk/src/rp2_common/pico_stdio/stdio.c.obj
                0x10003f30                stdio_set_driver_enabled
 .text.stdio_flush
                0x10003f6c       0x28 CMakeFiles/rtc_alarm.dir/C_/Users/cotaa/Documents/Pico/pico-sdk/src/rp2_common/pico_stdio/stdio.c.obj
                0x10003f6c                stdio_flush
 .text.__wrap_vprintf
                0x10003f94       0xe8 CMakeFiles/rtc_alarm.dir/C_/Users/cotaa/Documents/Pico/pico-sdk/src/rp2_common/pico_stdio/stdio.c.obj
                0x10003f94                __wrap_vprintf
 .text.__wrap_printf
                0x1000407c       0x18 CMakeFiles/rtc_alarm.dir/C_/Users/cotaa/Documents/Pico/pico-sdk/src/rp2_common/pico_stdio/stdio.c.obj
                0x1000407c                __wrap_printf
 .text.stdio_init_all
                0x10004094        0x8 CMakeFiles/rtc_alarm.dir/C_/Users/cotaa/Documents/Pico/pico-sdk/src/rp2_common/pico_stdio/stdio.c.obj
                0x10004094                stdio_init_all
 .text.stdio_uart_out_chars
                0x1000409c       0x3c CMakeFiles/rtc_alarm.dir/C_/Users/cotaa/Documents/Pico/pico-sdk/src/rp2_common/pico_stdio_uart/stdio_uart.c.obj
 .text.stdio_uart_in_chars
                0x100040d8       0x38 CMakeFiles/rtc_alarm.dir/C_/Users/cotaa/Documents/Pico/pico-sdk/src/rp2_common/pico_stdio_uart/stdio_uart.c.obj
                0x100040d8                stdio_uart_in_chars
 .text.stdio_uart_init
                0x10004110       0x40 CMakeFiles/rtc_alarm.dir/C_/Users/cotaa/Documents/Pico/pico-sdk/src/rp2_common/pico_stdio_uart/stdio_uart.c.obj
                0x10004110                stdio_uart_init
 .text.rtc_irq_handler
                0x10004150       0x54 CMakeFiles/rtc_alarm.dir/C_/Users/cotaa/Documents/Pico/pico-sdk/src/rp2_common/hardware_rtc/rtc.c.obj
 .text.rtc_init
                0x100041a4       0x38 CMakeFiles/rtc_alarm.dir/C_/Users/cotaa/Documents/Pico/pico-sdk/src/rp2_common/hardware_rtc/rtc.c.obj
                0x100041a4                rtc_init
 .text.rtc_set_datetime
                0x100041dc       0xac CMakeFiles/rtc_alarm.dir/C_/Users/cotaa/Documents/Pico/pico-sdk/src/rp2_common/hardware_rtc/rtc.c.obj
                0x100041dc                rtc_set_datetime
 .text.rtc_get_datetime
                0x10004288       0x50 CMakeFiles/rtc_alarm.dir/C_/Users/cotaa/Documents/Pico/pico-sdk/src/rp2_common/hardware_rtc/rtc.c.obj
                0x10004288                rtc_get_datetime
 .text.rtc_set_alarm
                0x100042d8      0x154 CMakeFiles/rtc_alarm.dir/C_/Users/cotaa/Documents/Pico/pico-sdk/src/rp2_common/hardware_rtc/rtc.c.obj
                0x100042d8                rtc_set_alarm
 .text.calloc   0x1000442c       0x18 c:/users/cotaa/documents/pico/pico-toolchain/gcc-arm-none-eabi-9-2019-q4-major-win32/bin/../lib/gcc/arm-none-eabi/9.2.1/../../../../arm-none-eabi/lib/thumb/v6-m/nofp\libc.a(lib_a-calloc.o)
                0x1000442c                calloc
 .text._calloc_r
                0x10004444       0x5c c:/users/cotaa/documents/pico/pico-toolchain/gcc-arm-none-eabi-9-2019-q4-major-win32/bin/../lib/gcc/arm-none-eabi/9.2.1/../../../../arm-none-eabi/lib/thumb/v6-m/nofp\libc.a(lib_a-callocr.o)
                0x10004444                _calloc_r
 .text.malloc   0x100044a0       0x14 c:/users/cotaa/documents/pico/pico-toolchain/gcc-arm-none-eabi-9-2019-q4-major-win32/bin/../lib/gcc/arm-none-eabi/9.2.1/../../../../arm-none-eabi/lib/thumb/v6-m/nofp\libc.a(lib_a-malloc.o)
                0x100044a0                malloc
 .text._malloc_r
                0x100044b4      0x580 c:/users/cotaa/documents/pico/pico-toolchain/gcc-arm-none-eabi-9-2019-q4-major-win32/bin/../lib/gcc/arm-none-eabi/9.2.1/../../../../arm-none-eabi/lib/thumb/v6-m/nofp\libc.a(lib_a-mallocr.o)
                0x100044b4                _malloc_r
 .text.__malloc_lock
                0x10004a34       0x10 c:/users/cotaa/documents/pico/pico-toolchain/gcc-arm-none-eabi-9-2019-q4-major-win32/bin/../lib/gcc/arm-none-eabi/9.2.1/../../../../arm-none-eabi/lib/thumb/v6-m/nofp\libc.a(lib_a-mlock.o)
                0x10004a34                __malloc_lock
 .text.__malloc_unlock
                0x10004a44       0x10 c:/users/cotaa/documents/pico/pico-toolchain/gcc-arm-none-eabi-9-2019-q4-major-win32/bin/../lib/gcc/arm-none-eabi/9.2.1/../../../../arm-none-eabi/lib/thumb/v6-m/nofp\libc.a(lib_a-mlock.o)
                0x10004a44                __malloc_unlock
 .text._sbrk_r  0x10004a54       0x24 c:/users/cotaa/documents/pico/pico-toolchain/gcc-arm-none-eabi-9-2019-q4-major-win32/bin/../lib/gcc/arm-none-eabi/9.2.1/../../../../arm-none-eabi/lib/thumb/v6-m/nofp\libc.a(lib_a-sbrkr.o)
                0x10004a54                _sbrk_r
 .text.strlen   0x10004a78       0x5c c:/users/cotaa/documents/pico/pico-toolchain/gcc-arm-none-eabi-9-2019-q4-major-win32/bin/../lib/gcc/arm-none-eabi/9.2.1/../../../../arm-none-eabi/lib/thumb/v6-m/nofp\libc.a(lib_a-strlen-stub.o)
                0x10004a78                strlen
 .text._malloc_trim_r
                0x10004ad4       0x9c c:/users/cotaa/documents/pico/pico-toolchain/gcc-arm-none-eabi-9-2019-q4-major-win32/bin/../lib/gcc/arm-none-eabi/9.2.1/../../../../arm-none-eabi/lib/thumb/v6-m/nofp\libc.a(lib_a-freer.o)
                0x10004ad4                _malloc_trim_r
 .text._free_r  0x10004b70      0x1c4 c:/users/cotaa/documents/pico/pico-toolchain/gcc-arm-none-eabi-9-2019-q4-major-win32/bin/../lib/gcc/arm-none-eabi/9.2.1/../../../../arm-none-eabi/lib/thumb/v6-m/nofp\libc.a(lib_a-freer.o)
                0x10004b70                _free_r
 .text.__retarget_lock_acquire_recursive
                0x10004d34        0x4 c:/users/cotaa/documents/pico/pico-toolchain/gcc-arm-none-eabi-9-2019-q4-major-win32/bin/../lib/gcc/arm-none-eabi/9.2.1/../../../../arm-none-eabi/lib/thumb/v6-m/nofp\libc.a(lib_a-lock.o)
                0x10004d34                __retarget_lock_acquire_recursive
 .text.__retarget_lock_release_recursive
                0x10004d38        0x4 c:/users/cotaa/documents/pico/pico-toolchain/gcc-arm-none-eabi-9-2019-q4-major-win32/bin/../lib/gcc/arm-none-eabi/9.2.1/../../../../arm-none-eabi/lib/thumb/v6-m/nofp\libc.a(lib_a-lock.o)
                0x10004d38                __retarget_lock_release_recursive
 *(.fini)
 .fini          0x10004d3c        0x4 c:/users/cotaa/documents/pico/pico-toolchain/gcc-arm-none-eabi-9-2019-q4-major-win32/bin/../lib/gcc/arm-none-eabi/9.2.1/thumb/v6-m/nofp/crti.o
                0x10004d3c                _fini
 .fini.__stub   0x10004d40       0x50 linker stubs
 *crtbegin.o(.ctors)
 *crtbegin?.o(.ctors)
 *(EXCLUDE_FILE(*crtend.o *crtend?.o) .ctors)
 *(SORT_BY_NAME(.ctors.*))
 *(.ctors)
 *crtbegin.o(.dtors)
 *crtbegin?.o(.dtors)
 *(EXCLUDE_FILE(*crtend.o *crtend?.o) .dtors)
 *(SORT_BY_NAME(.dtors.*))
 *(.dtors)
 *(.eh_frame*)
 .eh_frame      0x10004d90        0x0 c:/users/cotaa/documents/pico/pico-toolchain/gcc-arm-none-eabi-9-2019-q4-major-win32/bin/../lib/gcc/arm-none-eabi/9.2.1/thumb/v6-m/nofp/crtbegin.o
                0x10004d90                . = ALIGN (0x4)

.glue_7         0x10004d90        0x0
 .glue_7        0x10004d90        0x0 linker stubs

.glue_7t        0x10004d90        0x0
 .glue_7t       0x10004d90        0x0 linker stubs

.vfp11_veneer   0x10004d90        0x0
 .vfp11_veneer  0x10004d90        0x0 linker stubs

.v4_bx          0x10004d90        0x0
 .v4_bx         0x10004d90        0x0 linker stubs

.iplt           0x10004d90        0x0
 .iplt          0x10004d90        0x0 c:/users/cotaa/documents/pico/pico-toolchain/gcc-arm-none-eabi-9-2019-q4-major-win32/bin/../lib/gcc/arm-none-eabi/9.2.1/thumb/v6-m/nofp/crtbegin.o

.rodata         0x10004d90      0x4b8
 *(EXCLUDE_FILE(*libm.a: *libc.a:*lib_a-mem*.o *libgcc.a:) .rodata*)
 .rodata.alarm_callback.str1.4
                0x10004d90       0x13 CMakeFiles/rtc_alarm.dir/rtc_alarm.c.obj
 *fill*         0x10004da3        0x1 
 .rodata.main.str1.4
                0x10004da4        0xb CMakeFiles/rtc_alarm.dir/rtc_alarm.c.obj
 *fill*         0x10004daf        0x1 
 .rodata        0x10004db0       0x10 CMakeFiles/rtc_alarm.dir/rtc_alarm.c.obj
 .rodata.hardware_alarm_claim.str1.4
                0x10004dc0       0x22 CMakeFiles/rtc_alarm.dir/C_/Users/cotaa/Documents/Pico/pico-sdk/src/rp2_common/hardware_timer/timer.c.obj
 *fill*         0x10004de2        0x2 
 .rodata.datetime_to_str.str1.4
                0x10004de4       0x19 CMakeFiles/rtc_alarm.dir/C_/Users/cotaa/Documents/Pico/pico-sdk/src/common/pico_util/datetime.c.obj
 *fill*         0x10004dfd        0x3 
 .rodata.str1.4
                0x10004e00       0xad CMakeFiles/rtc_alarm.dir/C_/Users/cotaa/Documents/Pico/pico-sdk/src/common/pico_util/datetime.c.obj
 *fill*         0x10004ead        0x3 
 .rodata.DATETIME_DOWS
                0x10004eb0       0x1c CMakeFiles/rtc_alarm.dir/C_/Users/cotaa/Documents/Pico/pico-sdk/src/common/pico_util/datetime.c.obj
 .rodata.DATETIME_MONTHS
                0x10004ecc       0x30 CMakeFiles/rtc_alarm.dir/C_/Users/cotaa/Documents/Pico/pico-sdk/src/common/pico_util/datetime.c.obj
 .rodata.panic.str1.4
                0x10004efc       0x12 CMakeFiles/rtc_alarm.dir/C_/Users/cotaa/Documents/Pico/pico-sdk/src/rp2_common/pico_runtime/runtime.c.obj
 *fill*         0x10004f0e        0x2 
 .rodata.hard_assertion_failure.str1.4
                0x10004f10        0xc CMakeFiles/rtc_alarm.dir/C_/Users/cotaa/Documents/Pico/pico-sdk/src/rp2_common/pico_runtime/runtime.c.obj
 .rodata._ftoa.str1.4
                0x10004f1c       0x15 CMakeFiles/rtc_alarm.dir/C_/Users/cotaa/Documents/Pico/pico-sdk/src/rp2_common/pico_printf/printf.c.obj
 *fill*         0x10004f31        0x3 
 .rodata._vsnprintf
                0x10004f34      0x1e0 CMakeFiles/rtc_alarm.dir/C_/Users/cotaa/Documents/Pico/pico-sdk/src/rp2_common/pico_printf/printf.c.obj
 *fill*         0x10005114        0x4 
 .rodata.pow10.5432
                0x10005118       0x50 CMakeFiles/rtc_alarm.dir/C_/Users/cotaa/Documents/Pico/pico-sdk/src/rp2_common/pico_printf/printf.c.obj
 .rodata.str1.4
                0x10005168       0x78 CMakeFiles/rtc_alarm.dir/C_/Users/cotaa/Documents/Pico/pico-sdk/src/rp2_common/pico_standard_link/binary_info.c.obj
 .rodata.__bi_40
                0x100051e0        0xc CMakeFiles/rtc_alarm.dir/C_/Users/cotaa/Documents/Pico/pico-sdk/src/rp2_common/pico_standard_link/binary_info.c.obj
 .rodata.__bi_65
                0x100051ec        0xc CMakeFiles/rtc_alarm.dir/C_/Users/cotaa/Documents/Pico/pico-sdk/src/rp2_common/pico_standard_link/binary_info.c.obj
 .rodata.__bi_71
                0x100051f8        0xc CMakeFiles/rtc_alarm.dir/C_/Users/cotaa/Documents/Pico/pico-sdk/src/rp2_common/pico_standard_link/binary_info.c.obj
 .rodata.crlf_str.5967
                0x10005204        0x2 CMakeFiles/rtc_alarm.dir/C_/Users/cotaa/Documents/Pico/pico-sdk/src/rp2_common/pico_stdio/stdio.c.obj
 *fill*         0x10005206        0x2 
 .rodata.str1.4
                0x10005208       0x2c CMakeFiles/rtc_alarm.dir/C_/Users/cotaa/Documents/Pico/pico-sdk/src/rp2_common/pico_stdio_uart/stdio_uart.c.obj
 .rodata.__bi_27.4687
                0x10005234        0xc CMakeFiles/rtc_alarm.dir/C_/Users/cotaa/Documents/Pico/pico-sdk/src/rp2_common/pico_stdio_uart/stdio_uart.c.obj
 .rodata.__bi_28.4691
                0x10005240        0x8 CMakeFiles/rtc_alarm.dir/C_/Users/cotaa/Documents/Pico/pico-sdk/src/rp2_common/pico_stdio_uart/stdio_uart.c.obj
                0x10005248                . = ALIGN (0x4)
 *(SORT_BY_ALIGNMENT(SORT_BY_NAME(.flashdata*)))
                0x10005248                . = ALIGN (0x4)

.rel.dyn        0x10005248        0x0
 .rel.iplt      0x10005248        0x0 c:/users/cotaa/documents/pico/pico-toolchain/gcc-arm-none-eabi-9-2019-q4-major-win32/bin/../lib/gcc/arm-none-eabi/9.2.1/thumb/v6-m/nofp/crtbegin.o

.ARM.extab
 *(.ARM.extab* .gnu.linkonce.armextab.*)
                0x10005248                __exidx_start = .

.ARM.exidx
 *(.ARM.exidx* .gnu.linkonce.armexidx.*)
                0x10005248                __exidx_end = .
                0x10005248                . = ALIGN (0x4)
                0x10005248                __binary_info_start = .

.binary_info    0x10005248       0x24
 *(.binary_info.keep.*)
 .binary_info.keep.__bi_ptr18
                0x10005248        0x4 CMakeFiles/rtc_alarm.dir/C_/Users/cotaa/Documents/Pico/pico-sdk/src/rp2_common/pico_standard_link/binary_info.c.obj
 .binary_info.keep.__bi_ptr26
                0x1000524c        0x4 CMakeFiles/rtc_alarm.dir/C_/Users/cotaa/Documents/Pico/pico-sdk/src/rp2_common/pico_standard_link/binary_info.c.obj
 .binary_info.keep.__bi_ptr34
                0x10005250        0x4 CMakeFiles/rtc_alarm.dir/C_/Users/cotaa/Documents/Pico/pico-sdk/src/rp2_common/pico_standard_link/binary_info.c.obj
 .binary_info.keep.__bi_ptr40
                0x10005254        0x4 CMakeFiles/rtc_alarm.dir/C_/Users/cotaa/Documents/Pico/pico-sdk/src/rp2_common/pico_standard_link/binary_info.c.obj
 .binary_info.keep.__bi_ptr46
                0x10005258        0x4 CMakeFiles/rtc_alarm.dir/C_/Users/cotaa/Documents/Pico/pico-sdk/src/rp2_common/pico_standard_link/binary_info.c.obj
 .binary_info.keep.__bi_ptr65
                0x1000525c        0x4 CMakeFiles/rtc_alarm.dir/C_/Users/cotaa/Documents/Pico/pico-sdk/src/rp2_common/pico_standard_link/binary_info.c.obj
 .binary_info.keep.__bi_ptr71
                0x10005260        0x4 CMakeFiles/rtc_alarm.dir/C_/Users/cotaa/Documents/Pico/pico-sdk/src/rp2_common/pico_standard_link/binary_info.c.obj
 *(.binary_info.*)
 .binary_info.__bi_ptr27
                0x10005264        0x4 CMakeFiles/rtc_alarm.dir/C_/Users/cotaa/Documents/Pico/pico-sdk/src/rp2_common/pico_stdio_uart/stdio_uart.c.obj
 .binary_info.__bi_ptr28
                0x10005268        0x4 CMakeFiles/rtc_alarm.dir/C_/Users/cotaa/Documents/Pico/pico-sdk/src/rp2_common/pico_stdio_uart/stdio_uart.c.obj
                0x1000526c                __binary_info_end = .
                0x1000526c                . = ALIGN (0x4)
                0x1000526c                __etext = .

.ram_vector_table
                0x20000000       0xc0
 *(.ram_vector_table)
 .ram_vector_table
                0x20000000       0xc0 CMakeFiles/rtc_alarm.dir/C_/Users/cotaa/Documents/Pico/pico-sdk/src/rp2_common/pico_runtime/runtime.c.obj
                0x20000000                ram_vector_table

.data           0x200000c0      0x9ac load address 0x1000526c
                0x200000c0                __data_start__ = .
 *(vtable)
 *(.time_critical*)
 .time_critical.mutex_enter_blocking
                0x200000c0       0x50 CMakeFiles/rtc_alarm.dir/C_/Users/cotaa/Documents/Pico/pico-sdk/src/common/pico_sync/mutex.c.obj
                0x200000c0                mutex_enter_blocking
 .time_critical.mutex_try_enter
                0x20000110       0x4c CMakeFiles/rtc_alarm.dir/C_/Users/cotaa/Documents/Pico/pico-sdk/src/common/pico_sync/mutex.c.obj
                0x20000110                mutex_try_enter
 .time_critical.mutex_exit
                0x2000015c       0x28 CMakeFiles/rtc_alarm.dir/C_/Users/cotaa/Documents/Pico/pico-sdk/src/common/pico_sync/mutex.c.obj
                0x2000015c                mutex_exit
 *(.text*)
 .text          0x20000184        0x4 c:/users/cotaa/documents/pico/pico-toolchain/gcc-arm-none-eabi-9-2019-q4-major-win32/bin/../lib/gcc/arm-none-eabi/9.2.1/thumb/v6-m/nofp\libgcc.a(_dvmd_tls.o)
                0x20000184                __aeabi_idiv0
                0x20000184                __aeabi_ldiv0
                0x20000188                . = ALIGN (0x4)
 *(.rodata*)
                0x20000188                . = ALIGN (0x4)
 *(.data*)
 .data.striped_spin_lock_num
                0x20000188        0x1 CMakeFiles/rtc_alarm.dir/C_/Users/cotaa/Documents/Pico/pico-sdk/src/rp2_common/hardware_sync/sync.c.obj
 *fill*         0x20000189        0x3 
 .data          0x2000018c       0x48 CMakeFiles/rtc_alarm.dir/C_/Users/cotaa/Documents/Pico/pico-sdk/src/rp2_common/hardware_irq/irq_handler_chain.S.obj
                0x2000018c                irq_handler_chain_slots
                0x200001bc                irq_handler_chain_first_slot
                0x200001c6                irq_handler_chain_remove_tail
 *fill*         0x200001d4        0xc 
 .data.aeabi_bits_funcs
                0x200001e0       0x10 CMakeFiles/rtc_alarm.dir/C_/Users/cotaa/Documents/Pico/pico-sdk/src/rp2_common/pico_bit_ops/bit_ops_aeabi.S.obj
                0x200001e0                aeabi_bits_funcs
                0x200001f0                aeabi_bits_funcs_end
 .data.aeabi_mem_funcs
                0x200001f0       0x10 CMakeFiles/rtc_alarm.dir/C_/Users/cotaa/Documents/Pico/pico-sdk/src/rp2_common/pico_mem_ops/mem_ops_aeabi.S.obj
                0x200001f0                aeabi_mem_funcs
                0x20000200                aeabi_mem_funcs_end
 .data.stdio_uart
                0x20000200       0x14 CMakeFiles/rtc_alarm.dir/C_/Users/cotaa/Documents/Pico/pico-sdk/src/rp2_common/pico_stdio_uart/stdio_uart.c.obj
                0x20000200                stdio_uart
 .data._impure_ptr
                0x20000214        0x4 c:/users/cotaa/documents/pico/pico-toolchain/gcc-arm-none-eabi-9-2019-q4-major-win32/bin/../lib/gcc/arm-none-eabi/9.2.1/../../../../arm-none-eabi/lib/thumb/v6-m/nofp\libc.a(lib_a-impure.o)
                0x20000214                _impure_ptr
 .data.impure_data
                0x20000218      0x428 c:/users/cotaa/documents/pico/pico-toolchain/gcc-arm-none-eabi-9-2019-q4-major-win32/bin/../lib/gcc/arm-none-eabi/9.2.1/../../../../arm-none-eabi/lib/thumb/v6-m/nofp\libc.a(lib_a-impure.o)
 .data.__malloc_av_
                0x20000640      0x408 c:/users/cotaa/documents/pico/pico-toolchain/gcc-arm-none-eabi-9-2019-q4-major-win32/bin/../lib/gcc/arm-none-eabi/9.2.1/../../../../arm-none-eabi/lib/thumb/v6-m/nofp\libc.a(lib_a-mallocr.o)
                0x20000640                __malloc_av_
 .data.__malloc_sbrk_base
                0x20000a48        0x4 c:/users/cotaa/documents/pico/pico-toolchain/gcc-arm-none-eabi-9-2019-q4-major-win32/bin/../lib/gcc/arm-none-eabi/9.2.1/../../../../arm-none-eabi/lib/thumb/v6-m/nofp\libc.a(lib_a-mallocr.o)
                0x20000a48                __malloc_sbrk_base
 .data.__malloc_trim_threshold
                0x20000a4c        0x4 c:/users/cotaa/documents/pico/pico-toolchain/gcc-arm-none-eabi-9-2019-q4-major-win32/bin/../lib/gcc/arm-none-eabi/9.2.1/../../../../arm-none-eabi/lib/thumb/v6-m/nofp\libc.a(lib_a-mallocr.o)
                0x20000a4c                __malloc_trim_threshold
                0x20000a50                . = ALIGN (0x4)
 *(.after_data.*)
                0x20000a50                . = ALIGN (0x4)
                0x20000a50                PROVIDE (__mutex_array_start = .)
 *(SORT_BY_NAME(.mutex_array.*))
 *(.mutex_array)
 .mutex_array   0x20000a50        0x8 CMakeFiles/rtc_alarm.dir/C_/Users/cotaa/Documents/Pico/pico-sdk/src/rp2_common/pico_stdio/stdio.c.obj
                0x20000a58                PROVIDE (__mutex_array_end = .)
                0x20000a58                . = ALIGN (0x4)
                0x20000a58                PROVIDE (__preinit_array_start = .)
 *(SORT_BY_NAME(.preinit_array.*))
 .preinit_array.00001
                0x20000a58        0x4 CMakeFiles/rtc_alarm.dir/C_/Users/cotaa/Documents/Pico/pico-sdk/src/rp2_common/pico_mem_ops/mem_ops_aeabi.S.obj
 .preinit_array.00010
                0x20000a5c        0x4 CMakeFiles/rtc_alarm.dir/C_/Users/cotaa/Documents/Pico/pico-sdk/src/rp2_common/pico_bit_ops/bit_ops_aeabi.S.obj
 .preinit_array.00020
                0x20000a60        0x4 CMakeFiles/rtc_alarm.dir/C_/Users/cotaa/Documents/Pico/pico-sdk/src/rp2_common/pico_double/double_aeabi.S.obj
 .preinit_array.00020
                0x20000a64        0x4 CMakeFiles/rtc_alarm.dir/C_/Users/cotaa/Documents/Pico/pico-sdk/src/rp2_common/pico_float/float_aeabi.S.obj
 *(.preinit_array)
                0x20000a68                PROVIDE (__preinit_array_end = .)
                0x20000a68                . = ALIGN (0x4)
                0x20000a68                PROVIDE (__init_array_start = .)
 *(SORT_BY_NAME(.init_array.*))
 *(.init_array)
 .init_array    0x20000a68        0x4 c:/users/cotaa/documents/pico/pico-toolchain/gcc-arm-none-eabi-9-2019-q4-major-win32/bin/../lib/gcc/arm-none-eabi/9.2.1/thumb/v6-m/nofp/crtbegin.o
                0x20000a6c                PROVIDE (__init_array_end = .)
                0x20000a6c                . = ALIGN (0x4)
                [!provide]                PROVIDE (__fini_array_start = .)
 *(SORT_BY_NAME(.fini_array.*))
 *(.fini_array)
                [!provide]                PROVIDE (__fini_array_end = .)
 *(.jcr)
                0x20000a6c                . = ALIGN (0x4)
                0x20000a6c                __data_end__ = .

.igot.plt       0x20000a6c        0x0 load address 0x10005c18
 .igot.plt      0x20000a6c        0x0 c:/users/cotaa/documents/pico/pico-toolchain/gcc-arm-none-eabi-9-2019-q4-major-win32/bin/../lib/gcc/arm-none-eabi/9.2.1/thumb/v6-m/nofp/crtbegin.o

.uninitialized_data
                0x20000a6c        0x0 load address 0x10005c18
                0x20000a6c                . = ALIGN (0x4)
 *(.uninitialized_data*)

.scratch_x      0x20040000        0x0 load address 0x10005c18
                0x20040000                __scratch_x_start__ = .
 *(.scratch_x.*)
                0x20040000                . = ALIGN (0x4)
                0x20040000                __scratch_x_end__ = .
                0x10005c18                __scratch_x_source__ = LOADADDR (.scratch_x)

.scratch_y      0x20041000        0x0 load address 0x10005c18
                0x20041000                __scratch_y_start__ = .
 *(.scratch_y.*)
                0x20041000                . = ALIGN (0x4)
                0x20041000                __scratch_y_end__ = .
                0x10005c18                __scratch_y_source__ = LOADADDR (.scratch_y)

.bss            0x20000a6c      0x2f8
                0x20000a6c                . = ALIGN (0x4)
                0x20000a6c                __bss_start__ = .
 *(SORT_BY_ALIGNMENT(SORT_BY_NAME(.bss*)))
 .bss           0x20000a6c       0x1c c:/users/cotaa/documents/pico/pico-toolchain/gcc-arm-none-eabi-9-2019-q4-major-win32/bin/../lib/gcc/arm-none-eabi/9.2.1/thumb/v6-m/nofp/crtbegin.o
 .bss.__malloc_current_mallinfo
                0x20000a88       0x28 c:/users/cotaa/documents/pico/pico-toolchain/gcc-arm-none-eabi-9-2019-q4-major-win32/bin/../lib/gcc/arm-none-eabi/9.2.1/../../../../arm-none-eabi/lib/thumb/v6-m/nofp\libc.a(lib_a-mallocr.o)
                0x20000a88                __malloc_current_mallinfo
 .bss.__malloc_max_sbrked_mem
                0x20000ab0        0x4 c:/users/cotaa/documents/pico/pico-toolchain/gcc-arm-none-eabi-9-2019-q4-major-win32/bin/../lib/gcc/arm-none-eabi/9.2.1/../../../../arm-none-eabi/lib/thumb/v6-m/nofp\libc.a(lib_a-mallocr.o)
                0x20000ab0                __malloc_max_sbrked_mem
 .bss.__malloc_max_total_mem
                0x20000ab4        0x4 c:/users/cotaa/documents/pico/pico-toolchain/gcc-arm-none-eabi-9-2019-q4-major-win32/bin/../lib/gcc/arm-none-eabi/9.2.1/../../../../arm-none-eabi/lib/thumb/v6-m/nofp\libc.a(lib_a-mallocr.o)
                0x20000ab4                __malloc_max_total_mem
 .bss.__malloc_top_pad
                0x20000ab8        0x4 c:/users/cotaa/documents/pico/pico-toolchain/gcc-arm-none-eabi-9-2019-q4-major-win32/bin/../lib/gcc/arm-none-eabi/9.2.1/../../../../arm-none-eabi/lib/thumb/v6-m/nofp\libc.a(lib_a-mallocr.o)
                0x20000ab8                __malloc_top_pad
 .bss._callback
                0x20000abc        0x4 CMakeFiles/rtc_alarm.dir/C_/Users/cotaa/Documents/Pico/pico-sdk/src/rp2_common/hardware_rtc/rtc.c.obj
 .bss.alarm_callbacks
                0x20000ac0       0x10 CMakeFiles/rtc_alarm.dir/C_/Users/cotaa/Documents/Pico/pico-sdk/src/rp2_common/hardware_timer/timer.c.obj
 .bss.configured_freq
                0x20000ad0       0x28 CMakeFiles/rtc_alarm.dir/C_/Users/cotaa/Documents/Pico/pico-sdk/src/rp2_common/hardware_clocks/clocks.c.obj
 .bss.default_alarm_pool
                0x20000af8        0x4 CMakeFiles/rtc_alarm.dir/C_/Users/cotaa/Documents/Pico/pico-sdk/src/common/pico_time/time.c.obj
 .bss.drivers   0x20000afc        0x4 CMakeFiles/rtc_alarm.dir/C_/Users/cotaa/Documents/Pico/pico-sdk/src/rp2_common/pico_stdio/stdio.c.obj
 .bss.filter    0x20000b00        0x4 CMakeFiles/rtc_alarm.dir/C_/Users/cotaa/Documents/Pico/pico-sdk/src/rp2_common/pico_stdio/stdio.c.obj
 .bss.heap_end.5770
                0x20000b04        0x4 CMakeFiles/rtc_alarm.dir/C_/Users/cotaa/Documents/Pico/pico-sdk/src/rp2_common/pico_runtime/runtime.c.obj
 .bss.lazy_vsnprintf
                0x20000b08        0x4 CMakeFiles/rtc_alarm.dir/C_/Users/cotaa/Documents/Pico/pico-sdk/src/rp2_common/pico_printf/printf.c.obj
 .bss.pools     0x20000b0c       0x10 CMakeFiles/rtc_alarm.dir/C_/Users/cotaa/Documents/Pico/pico-sdk/src/common/pico_time/time.c.obj
 .bss.target_hi
                0x20000b1c       0x10 CMakeFiles/rtc_alarm.dir/C_/Users/cotaa/Documents/Pico/pico-sdk/src/rp2_common/hardware_timer/timer.c.obj
 .bss._alarm_repeats
                0x20000b2c        0x1 CMakeFiles/rtc_alarm.dir/C_/Users/cotaa/Documents/Pico/pico-sdk/src/rp2_common/hardware_rtc/rtc.c.obj
 .bss.claimed   0x20000b2d        0x1 CMakeFiles/rtc_alarm.dir/C_/Users/cotaa/Documents/Pico/pico-sdk/src/rp2_common/hardware_timer/timer.c.obj
 .bss.fired     0x20000b2e        0x1 CMakeFiles/rtc_alarm.dir/rtc_alarm.c.obj
 .bss.irq_hander_chain_free_slot_head
                0x20000b2f        0x1 CMakeFiles/rtc_alarm.dir/C_/Users/cotaa/Documents/Pico/pico-sdk/src/rp2_common/hardware_irq/irq.c.obj
 .bss.timer_callbacks_pending
                0x20000b30        0x1 CMakeFiles/rtc_alarm.dir/C_/Users/cotaa/Documents/Pico/pico-sdk/src/rp2_common/hardware_timer/timer.c.obj
 *(COMMON)
 *fill*         0x20000b31        0x3 
 COMMON         0x20000b34        0x4 CMakeFiles/rtc_alarm.dir/C_/Users/cotaa/Documents/Pico/pico-sdk/src/rp2_common/hardware_uart/uart.c.obj
                0x20000b34                uart_char_to_line_feed
 COMMON         0x20000b38      0x100 CMakeFiles/rtc_alarm.dir/C_/Users/cotaa/Documents/Pico/pico-sdk/src/rp2_common/pico_double/double_init_rom.c.obj
                0x20000b38                sd_table
 COMMON         0x20000c38      0x104 CMakeFiles/rtc_alarm.dir/C_/Users/cotaa/Documents/Pico/pico-sdk/src/rp2_common/pico_float/float_init_rom.c.obj
                0x20000c38                sf_table
                0x20000d38                sf_clz_func
 COMMON         0x20000d3c       0x21 c:/users/cotaa/documents/pico/pico-toolchain/gcc-arm-none-eabi-9-2019-q4-major-win32/bin/../lib/gcc/arm-none-eabi/9.2.1/../../../../arm-none-eabi/lib/thumb/v6-m/nofp\libc.a(lib_a-lock.o)
                0x20000d3c                __lock___atexit_recursive_mutex
                0x20000d40                __lock___arc4random_mutex
                0x20000d44                __lock___env_recursive_mutex
                0x20000d48                __lock___sinit_recursive_mutex
                0x20000d4c                __lock___malloc_recursive_mutex
                0x20000d50                __lock___at_quick_exit_mutex
                0x20000d54                __lock___dd_hash_mutex
                0x20000d58                __lock___tz_mutex
                0x20000d5c                __lock___sfp_recursive_mutex
 *fill*         0x20000d5d        0x3 
 COMMON         0x20000d60        0x4 c:/users/cotaa/documents/pico/pico-toolchain/gcc-arm-none-eabi-9-2019-q4-major-win32/bin/../lib/gcc/arm-none-eabi/9.2.1/../../../../arm-none-eabi/lib/thumb/v6-m/nofp\libc.a(lib_a-reent.o)
                0x20000d60                errno
                0x20000d64                . = ALIGN (0x4)
                0x20000d64                __bss_end__ = .

.heap           0x20000d64      0x800
                0x20000d64                __end__ = .
                0x20000d64                end = __end__
 *(.heap*)
 .heap          0x20000d64      0x800 CMakeFiles/rtc_alarm.dir/C_/Users/cotaa/Documents/Pico/pico-sdk/src/rp2_common/pico_standard_link/crt0.S.obj
                0x20001564                __HeapLimit = .

.stack1_dummy   0x20040000        0x0
 *(.stack1*)

.stack_dummy    0x20041000      0x800
 *(.stack*)
 .stack         0x20041000      0x800 CMakeFiles/rtc_alarm.dir/C_/Users/cotaa/Documents/Pico/pico-sdk/src/rp2_common/pico_standard_link/crt0.S.obj

.flash_end      0x10005c18        0x0
                0x10005c18                __flash_binary_end = .
                0x20040000                __StackLimit = (ORIGIN (RAM) + LENGTH (RAM))
                0x20041000                __StackOneTop = (ORIGIN (SCRATCH_X) + LENGTH (SCRATCH_X))
                0x20042000                __StackTop = (ORIGIN (SCRATCH_Y) + LENGTH (SCRATCH_Y))
                0x20041000                __StackOneBottom = (__StackOneTop - SIZEOF (.stack1_dummy))
                0x20041800                __StackBottom = (__StackTop - SIZEOF (.stack_dummy))
                0x20042000                PROVIDE (__stack = __StackTop)
                0x00000001                ASSERT ((__StackLimit >= __HeapLimit), region RAM overflowed)
LOAD CMakeFiles/rtc_alarm.dir/rtc_alarm.c.obj
LOAD CMakeFiles/rtc_alarm.dir/C_/Users/cotaa/Documents/Pico/pico-sdk/src/rp2_common/pico_stdlib/stdlib.c.obj
LOAD CMakeFiles/rtc_alarm.dir/C_/Users/cotaa/Documents/Pico/pico-sdk/src/rp2_common/hardware_gpio/gpio.c.obj
LOAD CMakeFiles/rtc_alarm.dir/C_/Users/cotaa/Documents/Pico/pico-sdk/src/rp2_common/hardware_claim/claim.c.obj
LOAD CMakeFiles/rtc_alarm.dir/C_/Users/cotaa/Documents/Pico/pico-sdk/src/rp2_common/hardware_sync/sync.c.obj
LOAD CMakeFiles/rtc_alarm.dir/C_/Users/cotaa/Documents/Pico/pico-sdk/src/rp2_common/pico_platform/platform.c.obj
LOAD CMakeFiles/rtc_alarm.dir/C_/Users/cotaa/Documents/Pico/pico-sdk/src/rp2_common/hardware_uart/uart.c.obj
LOAD CMakeFiles/rtc_alarm.dir/C_/Users/cotaa/Documents/Pico/pico-sdk/src/rp2_common/hardware_divider/divider.S.obj
LOAD CMakeFiles/rtc_alarm.dir/C_/Users/cotaa/Documents/Pico/pico-sdk/src/common/pico_time/time.c.obj
LOAD CMakeFiles/rtc_alarm.dir/C_/Users/cotaa/Documents/Pico/pico-sdk/src/common/pico_time/timeout_helper.c.obj
LOAD CMakeFiles/rtc_alarm.dir/C_/Users/cotaa/Documents/Pico/pico-sdk/src/rp2_common/hardware_timer/timer.c.obj
LOAD CMakeFiles/rtc_alarm.dir/C_/Users/cotaa/Documents/Pico/pico-sdk/src/common/pico_sync/sem.c.obj
LOAD CMakeFiles/rtc_alarm.dir/C_/Users/cotaa/Documents/Pico/pico-sdk/src/common/pico_sync/lock_core.c.obj
LOAD CMakeFiles/rtc_alarm.dir/C_/Users/cotaa/Documents/Pico/pico-sdk/src/common/pico_sync/mutex.c.obj
LOAD CMakeFiles/rtc_alarm.dir/C_/Users/cotaa/Documents/Pico/pico-sdk/src/common/pico_sync/critical_section.c.obj
LOAD CMakeFiles/rtc_alarm.dir/C_/Users/cotaa/Documents/Pico/pico-sdk/src/common/pico_util/datetime.c.obj
LOAD CMakeFiles/rtc_alarm.dir/C_/Users/cotaa/Documents/Pico/pico-sdk/src/common/pico_util/pheap.c.obj
LOAD CMakeFiles/rtc_alarm.dir/C_/Users/cotaa/Documents/Pico/pico-sdk/src/common/pico_util/queue.c.obj
LOAD CMakeFiles/rtc_alarm.dir/C_/Users/cotaa/Documents/Pico/pico-sdk/src/rp2_common/pico_runtime/runtime.c.obj
LOAD CMakeFiles/rtc_alarm.dir/C_/Users/cotaa/Documents/Pico/pico-sdk/src/rp2_common/hardware_clocks/clocks.c.obj
LOAD CMakeFiles/rtc_alarm.dir/C_/Users/cotaa/Documents/Pico/pico-sdk/src/rp2_common/hardware_watchdog/watchdog.c.obj
LOAD CMakeFiles/rtc_alarm.dir/C_/Users/cotaa/Documents/Pico/pico-sdk/src/rp2_common/hardware_xosc/xosc.c.obj
LOAD CMakeFiles/rtc_alarm.dir/C_/Users/cotaa/Documents/Pico/pico-sdk/src/rp2_common/hardware_pll/pll.c.obj
LOAD CMakeFiles/rtc_alarm.dir/C_/Users/cotaa/Documents/Pico/pico-sdk/src/rp2_common/hardware_vreg/vreg.c.obj
LOAD CMakeFiles/rtc_alarm.dir/C_/Users/cotaa/Documents/Pico/pico-sdk/src/rp2_common/hardware_irq/irq.c.obj
LOAD CMakeFiles/rtc_alarm.dir/C_/Users/cotaa/Documents/Pico/pico-sdk/src/rp2_common/hardware_irq/irq_handler_chain.S.obj
LOAD CMakeFiles/rtc_alarm.dir/C_/Users/cotaa/Documents/Pico/pico-sdk/src/rp2_common/pico_printf/printf.c.obj
LOAD CMakeFiles/rtc_alarm.dir/C_/Users/cotaa/Documents/Pico/pico-sdk/src/rp2_common/pico_bit_ops/bit_ops_aeabi.S.obj
LOAD CMakeFiles/rtc_alarm.dir/C_/Users/cotaa/Documents/Pico/pico-sdk/src/rp2_common/pico_bootrom/bootrom.c.obj
LOAD CMakeFiles/rtc_alarm.dir/C_/Users/cotaa/Documents/Pico/pico-sdk/src/rp2_common/pico_divider/divider.S.obj
LOAD CMakeFiles/rtc_alarm.dir/C_/Users/cotaa/Documents/Pico/pico-sdk/src/rp2_common/pico_double/double_aeabi.S.obj
LOAD CMakeFiles/rtc_alarm.dir/C_/Users/cotaa/Documents/Pico/pico-sdk/src/rp2_common/pico_double/double_init_rom.c.obj
LOAD CMakeFiles/rtc_alarm.dir/C_/Users/cotaa/Documents/Pico/pico-sdk/src/rp2_common/pico_double/double_math.c.obj
LOAD CMakeFiles/rtc_alarm.dir/C_/Users/cotaa/Documents/Pico/pico-sdk/src/rp2_common/pico_double/double_v1_rom_shim.S.obj
LOAD CMakeFiles/rtc_alarm.dir/C_/Users/cotaa/Documents/Pico/pico-sdk/src/rp2_common/pico_int64_ops/pico_int64_ops_aeabi.S.obj
LOAD CMakeFiles/rtc_alarm.dir/C_/Users/cotaa/Documents/Pico/pico-sdk/src/rp2_common/pico_float/float_aeabi.S.obj
LOAD CMakeFiles/rtc_alarm.dir/C_/Users/cotaa/Documents/Pico/pico-sdk/src/rp2_common/pico_float/float_init_rom.c.obj
LOAD CMakeFiles/rtc_alarm.dir/C_/Users/cotaa/Documents/Pico/pico-sdk/src/rp2_common/pico_float/float_math.c.obj
LOAD CMakeFiles/rtc_alarm.dir/C_/Users/cotaa/Documents/Pico/pico-sdk/src/rp2_common/pico_float/float_v1_rom_shim.S.obj
LOAD CMakeFiles/rtc_alarm.dir/C_/Users/cotaa/Documents/Pico/pico-sdk/src/rp2_common/pico_malloc/pico_malloc.c.obj
LOAD CMakeFiles/rtc_alarm.dir/C_/Users/cotaa/Documents/Pico/pico-sdk/src/rp2_common/pico_mem_ops/mem_ops_aeabi.S.obj
LOAD CMakeFiles/rtc_alarm.dir/C_/Users/cotaa/Documents/Pico/pico-sdk/src/rp2_common/pico_standard_link/crt0.S.obj
LOAD CMakeFiles/rtc_alarm.dir/C_/Users/cotaa/Documents/Pico/pico-sdk/src/rp2_common/pico_standard_link/new_delete.cpp.obj
LOAD CMakeFiles/rtc_alarm.dir/C_/Users/cotaa/Documents/Pico/pico-sdk/src/rp2_common/pico_standard_link/binary_info.c.obj
LOAD CMakeFiles/rtc_alarm.dir/C_/Users/cotaa/Documents/Pico/pico-sdk/src/rp2_common/pico_stdio/stdio.c.obj
LOAD CMakeFiles/rtc_alarm.dir/C_/Users/cotaa/Documents/Pico/pico-sdk/src/rp2_common/pico_stdio_uart/stdio_uart.c.obj
LOAD CMakeFiles/rtc_alarm.dir/C_/Users/cotaa/Documents/Pico/pico-sdk/src/rp2_common/hardware_rtc/rtc.c.obj
LOAD C:\Users\cotaa\AppData\Local\Temp\cc0fMSEE.o
LOAD c:/users/cotaa/documents/pico/pico-toolchain/gcc-arm-none-eabi-9-2019-q4-major-win32/bin/../lib/gcc/arm-none-eabi/9.2.1/../../../../arm-none-eabi/lib/thumb/v6-m/nofp\libstdc++.a
LOAD c:/users/cotaa/documents/pico/pico-toolchain/gcc-arm-none-eabi-9-2019-q4-major-win32/bin/../lib/gcc/arm-none-eabi/9.2.1/../../../../arm-none-eabi/lib/thumb/v6-m/nofp\libm.a
START GROUP
LOAD c:/users/cotaa/documents/pico/pico-toolchain/gcc-arm-none-eabi-9-2019-q4-major-win32/bin/../lib/gcc/arm-none-eabi/9.2.1/thumb/v6-m/nofp\libgcc.a
LOAD c:/users/cotaa/documents/pico/pico-toolchain/gcc-arm-none-eabi-9-2019-q4-major-win32/bin/../lib/gcc/arm-none-eabi/9.2.1/../../../../arm-none-eabi/lib/thumb/v6-m/nofp\libc.a
END GROUP
START GROUP
LOAD c:/users/cotaa/documents/pico/pico-toolchain/gcc-arm-none-eabi-9-2019-q4-major-win32/bin/../lib/gcc/arm-none-eabi/9.2.1/thumb/v6-m/nofp\libgcc.a
LOAD c:/users/cotaa/documents/pico/pico-toolchain/gcc-arm-none-eabi-9-2019-q4-major-win32/bin/../lib/gcc/arm-none-eabi/9.2.1/../../../../arm-none-eabi/lib/thumb/v6-m/nofp\libc.a
LOAD c:/users/cotaa/documents/pico/pico-toolchain/gcc-arm-none-eabi-9-2019-q4-major-win32/bin/../lib/gcc/arm-none-eabi/9.2.1/../../../../arm-none-eabi/lib/thumb/v6-m/nofp\libnosys.a
END GROUP
LOAD c:/users/cotaa/documents/pico/pico-toolchain/gcc-arm-none-eabi-9-2019-q4-major-win32/bin/../lib/gcc/arm-none-eabi/9.2.1/thumb/v6-m/nofp/crtend.o
LOAD c:/users/cotaa/documents/pico/pico-toolchain/gcc-arm-none-eabi-9-2019-q4-major-win32/bin/../lib/gcc/arm-none-eabi/9.2.1/thumb/v6-m/nofp/crtn.o
OUTPUT(rtc_alarm.elf elf32-littlearm)

.ARM.attributes
                0x00000000       0x28
 .ARM.attributes
                0x00000000       0x1e c:/users/cotaa/documents/pico/pico-toolchain/gcc-arm-none-eabi-9-2019-q4-major-win32/bin/../lib/gcc/arm-none-eabi/9.2.1/thumb/v6-m/nofp/crti.o
 .ARM.attributes
                0x0000001e       0x2c c:/users/cotaa/documents/pico/pico-toolchain/gcc-arm-none-eabi-9-2019-q4-major-win32/bin/../lib/gcc/arm-none-eabi/9.2.1/thumb/v6-m/nofp/crtbegin.o
 .ARM.attributes
                0x0000004a       0x2b CMakeFiles/rtc_alarm.dir/rtc_alarm.c.obj
 .ARM.attributes
                0x00000075       0x2b CMakeFiles/rtc_alarm.dir/C_/Users/cotaa/Documents/Pico/pico-sdk/src/rp2_common/hardware_gpio/gpio.c.obj
 .ARM.attributes
                0x000000a0       0x2b CMakeFiles/rtc_alarm.dir/C_/Users/cotaa/Documents/Pico/pico-sdk/src/rp2_common/hardware_claim/claim.c.obj
 .ARM.attributes
                0x000000cb       0x2b CMakeFiles/rtc_alarm.dir/C_/Users/cotaa/Documents/Pico/pico-sdk/src/rp2_common/hardware_sync/sync.c.obj
 .ARM.attributes
                0x000000f6       0x2b CMakeFiles/rtc_alarm.dir/C_/Users/cotaa/Documents/Pico/pico-sdk/src/rp2_common/pico_platform/platform.c.obj
 .ARM.attributes
                0x00000121       0x2b CMakeFiles/rtc_alarm.dir/C_/Users/cotaa/Documents/Pico/pico-sdk/src/rp2_common/hardware_uart/uart.c.obj
 .ARM.attributes
                0x0000014c       0x2b CMakeFiles/rtc_alarm.dir/C_/Users/cotaa/Documents/Pico/pico-sdk/src/common/pico_time/time.c.obj
 .ARM.attributes
                0x00000177       0x2b CMakeFiles/rtc_alarm.dir/C_/Users/cotaa/Documents/Pico/pico-sdk/src/rp2_common/hardware_timer/timer.c.obj
 .ARM.attributes
                0x000001a2       0x2b CMakeFiles/rtc_alarm.dir/C_/Users/cotaa/Documents/Pico/pico-sdk/src/common/pico_sync/lock_core.c.obj
 .ARM.attributes
                0x000001cd       0x2b CMakeFiles/rtc_alarm.dir/C_/Users/cotaa/Documents/Pico/pico-sdk/src/common/pico_sync/mutex.c.obj
 .ARM.attributes
                0x000001f8       0x2b CMakeFiles/rtc_alarm.dir/C_/Users/cotaa/Documents/Pico/pico-sdk/src/common/pico_util/datetime.c.obj
 .ARM.attributes
                0x00000223       0x2b CMakeFiles/rtc_alarm.dir/C_/Users/cotaa/Documents/Pico/pico-sdk/src/common/pico_util/pheap.c.obj
 .ARM.attributes
                0x0000024e       0x2b CMakeFiles/rtc_alarm.dir/C_/Users/cotaa/Documents/Pico/pico-sdk/src/rp2_common/pico_runtime/runtime.c.obj
 .ARM.attributes
                0x00000279       0x2b CMakeFiles/rtc_alarm.dir/C_/Users/cotaa/Documents/Pico/pico-sdk/src/rp2_common/hardware_clocks/clocks.c.obj
 .ARM.attributes
                0x000002a4       0x2b CMakeFiles/rtc_alarm.dir/C_/Users/cotaa/Documents/Pico/pico-sdk/src/rp2_common/hardware_watchdog/watchdog.c.obj
 .ARM.attributes
                0x000002cf       0x2b CMakeFiles/rtc_alarm.dir/C_/Users/cotaa/Documents/Pico/pico-sdk/src/rp2_common/hardware_xosc/xosc.c.obj
 .ARM.attributes
                0x000002fa       0x2b CMakeFiles/rtc_alarm.dir/C_/Users/cotaa/Documents/Pico/pico-sdk/src/rp2_common/hardware_pll/pll.c.obj
 .ARM.attributes
                0x00000325       0x2b CMakeFiles/rtc_alarm.dir/C_/Users/cotaa/Documents/Pico/pico-sdk/src/rp2_common/hardware_irq/irq.c.obj
 .ARM.attributes
                0x00000350       0x22 CMakeFiles/rtc_alarm.dir/C_/Users/cotaa/Documents/Pico/pico-sdk/src/rp2_common/hardware_irq/irq_handler_chain.S.obj
 .ARM.attributes
                0x00000372       0x2b CMakeFiles/rtc_alarm.dir/C_/Users/cotaa/Documents/Pico/pico-sdk/src/rp2_common/pico_printf/printf.c.obj
 .ARM.attributes
                0x0000039d       0x22 CMakeFiles/rtc_alarm.dir/C_/Users/cotaa/Documents/Pico/pico-sdk/src/rp2_common/pico_bit_ops/bit_ops_aeabi.S.obj
 .ARM.attributes
                0x000003bf       0x2b CMakeFiles/rtc_alarm.dir/C_/Users/cotaa/Documents/Pico/pico-sdk/src/rp2_common/pico_bootrom/bootrom.c.obj
 .ARM.attributes
                0x000003ea       0x22 CMakeFiles/rtc_alarm.dir/C_/Users/cotaa/Documents/Pico/pico-sdk/src/rp2_common/pico_divider/divider.S.obj
 .ARM.attributes
                0x0000040c       0x22 CMakeFiles/rtc_alarm.dir/C_/Users/cotaa/Documents/Pico/pico-sdk/src/rp2_common/pico_double/double_aeabi.S.obj
 .ARM.attributes
                0x0000042e       0x2b CMakeFiles/rtc_alarm.dir/C_/Users/cotaa/Documents/Pico/pico-sdk/src/rp2_common/pico_double/double_init_rom.c.obj
 .ARM.attributes
                0x00000459       0x22 CMakeFiles/rtc_alarm.dir/C_/Users/cotaa/Documents/Pico/pico-sdk/src/rp2_common/pico_double/double_v1_rom_shim.S.obj
 .ARM.attributes
                0x0000047b       0x22 CMakeFiles/rtc_alarm.dir/C_/Users/cotaa/Documents/Pico/pico-sdk/src/rp2_common/pico_float/float_aeabi.S.obj
 .ARM.attributes
                0x0000049d       0x2b CMakeFiles/rtc_alarm.dir/C_/Users/cotaa/Documents/Pico/pico-sdk/src/rp2_common/pico_float/float_init_rom.c.obj
 .ARM.attributes
                0x000004c8       0x22 CMakeFiles/rtc_alarm.dir/C_/Users/cotaa/Documents/Pico/pico-sdk/src/rp2_common/pico_float/float_v1_rom_shim.S.obj
 .ARM.attributes
                0x000004ea       0x2b CMakeFiles/rtc_alarm.dir/C_/Users/cotaa/Documents/Pico/pico-sdk/src/rp2_common/pico_malloc/pico_malloc.c.obj
 .ARM.attributes
                0x00000515       0x22 CMakeFiles/rtc_alarm.dir/C_/Users/cotaa/Documents/Pico/pico-sdk/src/rp2_common/pico_mem_ops/mem_ops_aeabi.S.obj
 .ARM.attributes
                0x00000537       0x22 CMakeFiles/rtc_alarm.dir/C_/Users/cotaa/Documents/Pico/pico-sdk/src/rp2_common/pico_standard_link/crt0.S.obj
 .ARM.attributes
                0x00000559       0x32 CMakeFiles/rtc_alarm.dir/C_/Users/cotaa/Documents/Pico/pico-sdk/src/rp2_common/pico_standard_link/binary_info.c.obj
 .ARM.attributes
                0x0000058b       0x2b CMakeFiles/rtc_alarm.dir/C_/Users/cotaa/Documents/Pico/pico-sdk/src/rp2_common/pico_stdio/stdio.c.obj
 .ARM.attributes
                0x000005b6       0x2b CMakeFiles/rtc_alarm.dir/C_/Users/cotaa/Documents/Pico/pico-sdk/src/rp2_common/pico_stdio_uart/stdio_uart.c.obj
 .ARM.attributes
                0x000005e1       0x2b CMakeFiles/rtc_alarm.dir/C_/Users/cotaa/Documents/Pico/pico-sdk/src/rp2_common/hardware_rtc/rtc.c.obj
 .ARM.attributes
                0x0000060c       0x1b C:\Users\cotaa\AppData\Local\Temp\cc0fMSEE.o
 .ARM.attributes
                0x00000627       0x1e c:/users/cotaa/documents/pico/pico-toolchain/gcc-arm-none-eabi-9-2019-q4-major-win32/bin/../lib/gcc/arm-none-eabi/9.2.1/thumb/v6-m/nofp\libgcc.a(_dvmd_tls.o)
 .ARM.attributes
                0x00000645       0x2c c:/users/cotaa/documents/pico/pico-toolchain/gcc-arm-none-eabi-9-2019-q4-major-win32/bin/../lib/gcc/arm-none-eabi/9.2.1/../../../../arm-none-eabi/lib/thumb/v6-m/nofp\libc.a(lib_a-calloc.o)
 .ARM.attributes
                0x00000671       0x2c c:/users/cotaa/documents/pico/pico-toolchain/gcc-arm-none-eabi-9-2019-q4-major-win32/bin/../lib/gcc/arm-none-eabi/9.2.1/../../../../arm-none-eabi/lib/thumb/v6-m/nofp\libc.a(lib_a-callocr.o)
 .ARM.attributes
                0x0000069d       0x2c c:/users/cotaa/documents/pico/pico-toolchain/gcc-arm-none-eabi-9-2019-q4-major-win32/bin/../lib/gcc/arm-none-eabi/9.2.1/../../../../arm-none-eabi/lib/thumb/v6-m/nofp\libc.a(lib_a-impure.o)
 .ARM.attributes
                0x000006c9       0x2c c:/users/cotaa/documents/pico/pico-toolchain/gcc-arm-none-eabi-9-2019-q4-major-win32/bin/../lib/gcc/arm-none-eabi/9.2.1/../../../../arm-none-eabi/lib/thumb/v6-m/nofp\libc.a(lib_a-malloc.o)
 .ARM.attributes
                0x000006f5       0x2c c:/users/cotaa/documents/pico/pico-toolchain/gcc-arm-none-eabi-9-2019-q4-major-win32/bin/../lib/gcc/arm-none-eabi/9.2.1/../../../../arm-none-eabi/lib/thumb/v6-m/nofp\libc.a(lib_a-mallocr.o)
 .ARM.attributes
                0x00000721       0x2c c:/users/cotaa/documents/pico/pico-toolchain/gcc-arm-none-eabi-9-2019-q4-major-win32/bin/../lib/gcc/arm-none-eabi/9.2.1/../../../../arm-none-eabi/lib/thumb/v6-m/nofp\libc.a(lib_a-mlock.o)
 .ARM.attributes
                0x0000074d       0x2c c:/users/cotaa/documents/pico/pico-toolchain/gcc-arm-none-eabi-9-2019-q4-major-win32/bin/../lib/gcc/arm-none-eabi/9.2.1/../../../../arm-none-eabi/lib/thumb/v6-m/nofp\libc.a(lib_a-sbrkr.o)
 .ARM.attributes
                0x00000779       0x2c c:/users/cotaa/documents/pico/pico-toolchain/gcc-arm-none-eabi-9-2019-q4-major-win32/bin/../lib/gcc/arm-none-eabi/9.2.1/../../../../arm-none-eabi/lib/thumb/v6-m/nofp\libc.a(lib_a-strlen-stub.o)
 .ARM.attributes
                0x000007a5       0x2c c:/users/cotaa/documents/pico/pico-toolchain/gcc-arm-none-eabi-9-2019-q4-major-win32/bin/../lib/gcc/arm-none-eabi/9.2.1/../../../../arm-none-eabi/lib/thumb/v6-m/nofp\libc.a(lib_a-freer.o)
 .ARM.attributes
                0x000007d1       0x2c c:/users/cotaa/documents/pico/pico-toolchain/gcc-arm-none-eabi-9-2019-q4-major-win32/bin/../lib/gcc/arm-none-eabi/9.2.1/../../../../arm-none-eabi/lib/thumb/v6-m/nofp\libc.a(lib_a-lock.o)
 .ARM.attributes
                0x000007fd       0x2c c:/users/cotaa/documents/pico/pico-toolchain/gcc-arm-none-eabi-9-2019-q4-major-win32/bin/../lib/gcc/arm-none-eabi/9.2.1/../../../../arm-none-eabi/lib/thumb/v6-m/nofp\libc.a(lib_a-reent.o)

.comment        0x00000000       0x79
 .comment       0x00000000       0x79 CMakeFiles/rtc_alarm.dir/rtc_alarm.c.obj
                                 0x7a (size before relaxing)
 .comment       0x00000079       0x7a CMakeFiles/rtc_alarm.dir/C_/Users/cotaa/Documents/Pico/pico-sdk/src/rp2_common/hardware_gpio/gpio.c.obj
 .comment       0x00000079       0x7a CMakeFiles/rtc_alarm.dir/C_/Users/cotaa/Documents/Pico/pico-sdk/src/rp2_common/hardware_claim/claim.c.obj
 .comment       0x00000079       0x7a CMakeFiles/rtc_alarm.dir/C_/Users/cotaa/Documents/Pico/pico-sdk/src/rp2_common/hardware_sync/sync.c.obj
 .comment       0x00000079       0x7a CMakeFiles/rtc_alarm.dir/C_/Users/cotaa/Documents/Pico/pico-sdk/src/rp2_common/pico_platform/platform.c.obj
 .comment       0x00000079       0x7a CMakeFiles/rtc_alarm.dir/C_/Users/cotaa/Documents/Pico/pico-sdk/src/rp2_common/hardware_uart/uart.c.obj
 .comment       0x00000079       0x7a CMakeFiles/rtc_alarm.dir/C_/Users/cotaa/Documents/Pico/pico-sdk/src/common/pico_time/time.c.obj
 .comment       0x00000079       0x7a CMakeFiles/rtc_alarm.dir/C_/Users/cotaa/Documents/Pico/pico-sdk/src/rp2_common/hardware_timer/timer.c.obj
 .comment       0x00000079       0x7a CMakeFiles/rtc_alarm.dir/C_/Users/cotaa/Documents/Pico/pico-sdk/src/common/pico_sync/lock_core.c.obj
 .comment       0x00000079       0x7a CMakeFiles/rtc_alarm.dir/C_/Users/cotaa/Documents/Pico/pico-sdk/src/common/pico_sync/mutex.c.obj
 .comment       0x00000079       0x7a CMakeFiles/rtc_alarm.dir/C_/Users/cotaa/Documents/Pico/pico-sdk/src/common/pico_util/datetime.c.obj
 .comment       0x00000079       0x7a CMakeFiles/rtc_alarm.dir/C_/Users/cotaa/Documents/Pico/pico-sdk/src/common/pico_util/pheap.c.obj
 .comment       0x00000079       0x7a CMakeFiles/rtc_alarm.dir/C_/Users/cotaa/Documents/Pico/pico-sdk/src/rp2_common/pico_runtime/runtime.c.obj
 .comment       0x00000079       0x7a CMakeFiles/rtc_alarm.dir/C_/Users/cotaa/Documents/Pico/pico-sdk/src/rp2_common/hardware_clocks/clocks.c.obj
 .comment       0x00000079       0x7a CMakeFiles/rtc_alarm.dir/C_/Users/cotaa/Documents/Pico/pico-sdk/src/rp2_common/hardware_watchdog/watchdog.c.obj
 .comment       0x00000079       0x7a CMakeFiles/rtc_alarm.dir/C_/Users/cotaa/Documents/Pico/pico-sdk/src/rp2_common/hardware_xosc/xosc.c.obj
 .comment       0x00000079       0x7a CMakeFiles/rtc_alarm.dir/C_/Users/cotaa/Documents/Pico/pico-sdk/src/rp2_common/hardware_pll/pll.c.obj
 .comment       0x00000079       0x7a CMakeFiles/rtc_alarm.dir/C_/Users/cotaa/Documents/Pico/pico-sdk/src/rp2_common/hardware_irq/irq.c.obj
 .comment       0x00000079       0x7a CMakeFiles/rtc_alarm.dir/C_/Users/cotaa/Documents/Pico/pico-sdk/src/rp2_common/pico_printf/printf.c.obj
 .comment       0x00000079       0x7a CMakeFiles/rtc_alarm.dir/C_/Users/cotaa/Documents/Pico/pico-sdk/src/rp2_common/pico_bootrom/bootrom.c.obj
 .comment       0x00000079       0x7a CMakeFiles/rtc_alarm.dir/C_/Users/cotaa/Documents/Pico/pico-sdk/src/rp2_common/pico_double/double_init_rom.c.obj
 .comment       0x00000079       0x7a CMakeFiles/rtc_alarm.dir/C_/Users/cotaa/Documents/Pico/pico-sdk/src/rp2_common/pico_float/float_init_rom.c.obj
 .comment       0x00000079       0x7a CMakeFiles/rtc_alarm.dir/C_/Users/cotaa/Documents/Pico/pico-sdk/src/rp2_common/pico_malloc/pico_malloc.c.obj
 .comment       0x00000079       0x7a CMakeFiles/rtc_alarm.dir/C_/Users/cotaa/Documents/Pico/pico-sdk/src/rp2_common/pico_standard_link/binary_info.c.obj
 .comment       0x00000079       0x7a CMakeFiles/rtc_alarm.dir/C_/Users/cotaa/Documents/Pico/pico-sdk/src/rp2_common/pico_stdio/stdio.c.obj
 .comment       0x00000079       0x7a CMakeFiles/rtc_alarm.dir/C_/Users/cotaa/Documents/Pico/pico-sdk/src/rp2_common/pico_stdio_uart/stdio_uart.c.obj
 .comment       0x00000079       0x7a CMakeFiles/rtc_alarm.dir/C_/Users/cotaa/Documents/Pico/pico-sdk/src/rp2_common/hardware_rtc/rtc.c.obj

.debug_frame    0x00000000      0x2ac
 .debug_frame   0x00000000       0x28 c:/users/cotaa/documents/pico/pico-toolchain/gcc-arm-none-eabi-9-2019-q4-major-win32/bin/../lib/gcc/arm-none-eabi/9.2.1/../../../../arm-none-eabi/lib/thumb/v6-m/nofp\libc.a(lib_a-calloc.o)
 .debug_frame   0x00000028       0x28 c:/users/cotaa/documents/pico/pico-toolchain/gcc-arm-none-eabi-9-2019-q4-major-win32/bin/../lib/gcc/arm-none-eabi/9.2.1/../../../../arm-none-eabi/lib/thumb/v6-m/nofp\libc.a(lib_a-callocr.o)
 .debug_frame   0x00000050       0x40 c:/users/cotaa/documents/pico/pico-toolchain/gcc-arm-none-eabi-9-2019-q4-major-win32/bin/../lib/gcc/arm-none-eabi/9.2.1/../../../../arm-none-eabi/lib/thumb/v6-m/nofp\libc.a(lib_a-malloc.o)
 .debug_frame   0x00000090       0x3c c:/users/cotaa/documents/pico/pico-toolchain/gcc-arm-none-eabi-9-2019-q4-major-win32/bin/../lib/gcc/arm-none-eabi/9.2.1/../../../../arm-none-eabi/lib/thumb/v6-m/nofp\libc.a(lib_a-mallocr.o)
 .debug_frame   0x000000cc       0x40 c:/users/cotaa/documents/pico/pico-toolchain/gcc-arm-none-eabi-9-2019-q4-major-win32/bin/../lib/gcc/arm-none-eabi/9.2.1/../../../../arm-none-eabi/lib/thumb/v6-m/nofp\libc.a(lib_a-mlock.o)
 .debug_frame   0x0000010c       0x2c c:/users/cotaa/documents/pico/pico-toolchain/gcc-arm-none-eabi-9-2019-q4-major-win32/bin/../lib/gcc/arm-none-eabi/9.2.1/../../../../arm-none-eabi/lib/thumb/v6-m/nofp\libc.a(lib_a-sbrkr.o)
 .debug_frame   0x00000138       0x28 c:/users/cotaa/documents/pico/pico-toolchain/gcc-arm-none-eabi-9-2019-q4-major-win32/bin/../lib/gcc/arm-none-eabi/9.2.1/../../../../arm-none-eabi/lib/thumb/v6-m/nofp\libc.a(lib_a-strlen-stub.o)
 .debug_frame   0x00000160       0x54 c:/users/cotaa/documents/pico/pico-toolchain/gcc-arm-none-eabi-9-2019-q4-major-win32/bin/../lib/gcc/arm-none-eabi/9.2.1/../../../../arm-none-eabi/lib/thumb/v6-m/nofp\libc.a(lib_a-freer.o)
 .debug_frame   0x000001b4       0xb0 c:/users/cotaa/documents/pico/pico-toolchain/gcc-arm-none-eabi-9-2019-q4-major-win32/bin/../lib/gcc/arm-none-eabi/9.2.1/../../../../arm-none-eabi/lib/thumb/v6-m/nofp\libc.a(lib_a-lock.o)
 .debug_frame   0x00000264       0x48 c:/users/cotaa/documents/pico/pico-toolchain/gcc-arm-none-eabi-9-2019-q4-major-win32/bin/../lib/gcc/arm-none-eabi/9.2.1/../../../../arm-none-eabi/lib/thumb/v6-m/nofp\libc.a(lib_a-reent.o)
