
rtc_alarm.elf:     file format elf32-littlearm

Sections:
Idx Name          Size      VMA       LMA       File off  Algn
  0 .boot2        00000100  10000000  10000000  00010000  2**0
                  CONTENTS, ALLOC, LOAD, READONLY, DATA
  1 .text         00004c90  10000100  10000100  00010100  2**3
                  CONTENTS, ALLOC, LOAD, READONLY, CODE
  2 .rodata       000004b8  10004d90  10004d90  00014d90  2**3
                  CONTENTS, ALLOC, LOAD, READONLY, DATA
  3 .binary_info  00000024  10005248  10005248  00015248  2**2
                  CONTENTS, ALLOC, LOAD, DATA
  4 .ram_vector_table 000000c0  20000000  20000000  00020a6c  2**2
                  CONTENTS
  5 .data         000009ac  200000c0  1000526c  000200c0  2**4
                  CONTENTS, ALLOC, LOAD, CODE
  6 .uninitialized_data 00000000  20000a6c  20000a6c  00020b2c  2**0
                  CONTENTS
  7 .scratch_x    00000000  20040000  20040000  00020b2c  2**0
                  CONTENTS
  8 .scratch_y    00000000  20041000  20041000  00020b2c  2**0
                  CONTENTS
  9 .bss          000002f8  20000a6c  20000a6c  00020a6c  2**2
                  ALLOC
 10 .heap         00000800  20000d64  20000d64  00020b2c  2**2
                  CONTENTS, READONLY
 11 .stack_dummy  00000800  20041000  20041000  00021340  2**5
                  CONTENTS, READONLY
 12 .ARM.attributes 00000028  00000000  00000000  00021b40  2**0
                  CONTENTS, READONLY
 13 .comment      00000079  00000000  00000000  00021b68  2**0
                  CONTENTS, READONLY
 14 .debug_frame  000002ac  00000000  00000000  00021be4  2**2
                  CONTENTS, READONLY, DEBUGGING

rtc_alarm.elf:     file format elf32-littlearm


Disassembly of section .text:

10000100 <__reset_start>:
10000100:	4827      	ldr	r0, [pc, #156]	; (100001a0 <__get_current_exception+0xa>)
10000102:	e000      	b.n	10000106 <__vector_entry>

10000104 <_entry_point>:
10000104:	2000      	movs	r0, #0

10000106 <__vector_entry>:
10000106:	4927      	ldr	r1, [pc, #156]	; (100001a4 <__get_current_exception+0xe>)
10000108:	6088      	str	r0, [r1, #8]
1000010a:	c806      	ldmia	r0!, {r1, r2}
1000010c:	f381 8808 	msr	MSP, r1
10000110:	4710      	bx	r2

10000112 <_reset_handler>:
10000112:	4825      	ldr	r0, [pc, #148]	; (100001a8 <__get_current_exception+0x12>)
10000114:	6800      	ldr	r0, [r0, #0]
10000116:	2800      	cmp	r0, #0
10000118:	d139      	bne.n	1000018e <wait_for_vector>
1000011a:	a412      	add	r4, pc, #72	; (adr r4, 10000164 <data_cpy_table>)
1000011c:	cc0e      	ldmia	r4!, {r1, r2, r3}
1000011e:	2900      	cmp	r1, #0
10000120:	d002      	beq.n	10000128 <_reset_handler+0x16>
10000122:	f000 f812 	bl	1000014a <data_cpy>
10000126:	e7f9      	b.n	1000011c <_reset_handler+0xa>
10000128:	4920      	ldr	r1, [pc, #128]	; (100001ac <__get_current_exception+0x16>)
1000012a:	4a21      	ldr	r2, [pc, #132]	; (100001b0 <__get_current_exception+0x1a>)
1000012c:	2000      	movs	r0, #0
1000012e:	e000      	b.n	10000132 <bss_fill_test>

10000130 <bss_fill_loop>:
10000130:	c101      	stmia	r1!, {r0}

10000132 <bss_fill_test>:
10000132:	4291      	cmp	r1, r2
10000134:	d1fc      	bne.n	10000130 <bss_fill_loop>

10000136 <platform_entry>:
10000136:	491f      	ldr	r1, [pc, #124]	; (100001b4 <__get_current_exception+0x1e>)
10000138:	4788      	blx	r1
1000013a:	491f      	ldr	r1, [pc, #124]	; (100001b8 <__get_current_exception+0x22>)
1000013c:	4788      	blx	r1
1000013e:	491f      	ldr	r1, [pc, #124]	; (100001bc <__get_current_exception+0x26>)
10000140:	4788      	blx	r1
10000142:	be00      	bkpt	0x0000
10000144:	e7fd      	b.n	10000142 <platform_entry+0xc>

10000146 <data_cpy_loop>:
10000146:	c901      	ldmia	r1!, {r0}
10000148:	c201      	stmia	r2!, {r0}

1000014a <data_cpy>:
1000014a:	429a      	cmp	r2, r3
1000014c:	d3fb      	bcc.n	10000146 <data_cpy_loop>
1000014e:	4770      	bx	lr

10000150 <binary_info_header>:
10000150:	7188ebf2 	.word	0x7188ebf2
10000154:	10005248 	.word	0x10005248
10000158:	1000526c 	.word	0x1000526c
1000015c:	10000164 	.word	0x10000164
10000160:	e71aa390 	.word	0xe71aa390

10000164 <data_cpy_table>:
10000164:	1000526c 	.word	0x1000526c
10000168:	200000c0 	.word	0x200000c0
1000016c:	20000a6c 	.word	0x20000a6c
10000170:	10005c18 	.word	0x10005c18
10000174:	20040000 	.word	0x20040000
10000178:	20040000 	.word	0x20040000
1000017c:	10005c18 	.word	0x10005c18
10000180:	20041000 	.word	0x20041000
10000184:	20041000 	.word	0x20041000
10000188:	00000000 	.word	0x00000000
1000018c:	4770      	bx	lr

1000018e <wait_for_vector>:
1000018e:	480c      	ldr	r0, [pc, #48]	; (100001c0 <__get_current_exception+0x2a>)
10000190:	f002 fe8c 	bl	10002eac <rom_func_lookup>
10000194:	4700      	bx	r0

10000196 <__get_current_exception>:
10000196:	f3ef 8005 	mrs	r0, IPSR
1000019a:	b2c0      	uxtb	r0, r0
1000019c:	4770      	bx	lr
1000019e:	0000      	.short	0x0000
100001a0:	10000200 	.word	0x10000200
100001a4:	e000ed00 	.word	0xe000ed00
100001a8:	d0000000 	.word	0xd0000000
100001ac:	20000a6c 	.word	0x20000a6c
100001b0:	20000d64 	.word	0x20000d64
100001b4:	1000100d 	.word	0x1000100d
100001b8:	10000361 	.word	0x10000361
100001bc:	1000112d 	.word	0x1000112d
100001c0:	00005657 	.word	0x00005657

100001c4 <__bi_46>:
100001c4:	50520006 5360b3ab 100051b8              ..RP..`S.Q..

100001d0 <__bi_34>:
100001d0:	50520006 02031c86 100051c8              ..RP.....Q..

100001dc <__bi_26>:
100001dc:	50520006 9da22254 100051d4              ..RPT"...Q..

100001e8 <__bi_18>:
100001e8:	50520005 68f465de 10005c18 00000000     ..RP.e.h.\......
	...

10000200 <__reset_end>:
10000200:	20042000 	.word	0x20042000
10000204:	10000113 	.word	0x10000113
10000208:	100002c3 	.word	0x100002c3
1000020c:	100002c5 	.word	0x100002c5
10000210:	100002c1 	.word	0x100002c1
10000214:	100002c1 	.word	0x100002c1
10000218:	100002c1 	.word	0x100002c1
1000021c:	100002c1 	.word	0x100002c1
10000220:	100002c1 	.word	0x100002c1
10000224:	100002c1 	.word	0x100002c1
10000228:	100002c1 	.word	0x100002c1
1000022c:	100002c7 	.word	0x100002c7
10000230:	100002c1 	.word	0x100002c1
10000234:	100002c1 	.word	0x100002c1
10000238:	100002c9 	.word	0x100002c9
1000023c:	100002cb 	.word	0x100002cb
10000240:	100002cd 	.word	0x100002cd
10000244:	100002cd 	.word	0x100002cd
10000248:	100002cd 	.word	0x100002cd
1000024c:	100002cd 	.word	0x100002cd
10000250:	100002cd 	.word	0x100002cd
10000254:	100002cd 	.word	0x100002cd
10000258:	100002cd 	.word	0x100002cd
1000025c:	100002cd 	.word	0x100002cd
10000260:	100002cd 	.word	0x100002cd
10000264:	100002cd 	.word	0x100002cd
10000268:	100002cd 	.word	0x100002cd
1000026c:	100002cd 	.word	0x100002cd
10000270:	100002cd 	.word	0x100002cd
10000274:	100002cd 	.word	0x100002cd
10000278:	100002cd 	.word	0x100002cd
1000027c:	100002cd 	.word	0x100002cd
10000280:	100002cd 	.word	0x100002cd
10000284:	100002cd 	.word	0x100002cd
10000288:	100002cd 	.word	0x100002cd
1000028c:	100002cd 	.word	0x100002cd
10000290:	100002cd 	.word	0x100002cd
10000294:	100002cd 	.word	0x100002cd
10000298:	100002cd 	.word	0x100002cd
1000029c:	100002cd 	.word	0x100002cd
100002a0:	100002cd 	.word	0x100002cd
100002a4:	100002cd 	.word	0x100002cd
100002a8:	100002cd 	.word	0x100002cd
100002ac:	100002cd 	.word	0x100002cd
100002b0:	100002cd 	.word	0x100002cd
100002b4:	100002cd 	.word	0x100002cd
100002b8:	100002cd 	.word	0x100002cd
100002bc:	100002cd 	.word	0x100002cd

100002c0 <isr_invalid>:
100002c0:	be00      	bkpt	0x0000

100002c2 <isr_nmi>:
100002c2:	be00      	bkpt	0x0000

100002c4 <isr_hardfault>:
100002c4:	be00      	bkpt	0x0000

100002c6 <isr_svcall>:
100002c6:	be00      	bkpt	0x0000

100002c8 <isr_pendsv>:
100002c8:	be00      	bkpt	0x0000

100002ca <isr_systick>:
100002ca:	be00      	bkpt	0x0000

100002cc <__unhandled_user_irq>:
100002cc:	f7ff ff63 	bl	10000196 <__get_current_exception>
100002d0:	3810      	subs	r0, #16

100002d2 <unhandled_user_irq_num_in_r0>:
100002d2:	be00      	bkpt	0x0000

100002d4 <_init>:
100002d4:	b5f8      	push	{r3, r4, r5, r6, r7, lr}
100002d6:	46c0      	nop			; (mov r8, r8)

100002d8 <__do_global_dtors_aux>:
100002d8:	b510      	push	{r4, lr}
100002da:	4c06      	ldr	r4, [pc, #24]	; (100002f4 <__do_global_dtors_aux+0x1c>)
100002dc:	7823      	ldrb	r3, [r4, #0]
100002de:	2b00      	cmp	r3, #0
100002e0:	d107      	bne.n	100002f2 <__do_global_dtors_aux+0x1a>
100002e2:	4b05      	ldr	r3, [pc, #20]	; (100002f8 <__do_global_dtors_aux+0x20>)
100002e4:	2b00      	cmp	r3, #0
100002e6:	d002      	beq.n	100002ee <__do_global_dtors_aux+0x16>
100002e8:	4804      	ldr	r0, [pc, #16]	; (100002fc <__do_global_dtors_aux+0x24>)
100002ea:	e000      	b.n	100002ee <__do_global_dtors_aux+0x16>
100002ec:	bf00      	nop
100002ee:	2301      	movs	r3, #1
100002f0:	7023      	strb	r3, [r4, #0]
100002f2:	bd10      	pop	{r4, pc}
100002f4:	20000a6c 	.word	0x20000a6c
100002f8:	00000000 	.word	0x00000000
100002fc:	10004d90 	.word	0x10004d90

10000300 <frame_dummy>:
10000300:	4b04      	ldr	r3, [pc, #16]	; (10000314 <frame_dummy+0x14>)
10000302:	b510      	push	{r4, lr}
10000304:	2b00      	cmp	r3, #0
10000306:	d003      	beq.n	10000310 <frame_dummy+0x10>
10000308:	4903      	ldr	r1, [pc, #12]	; (10000318 <frame_dummy+0x18>)
1000030a:	4804      	ldr	r0, [pc, #16]	; (1000031c <frame_dummy+0x1c>)
1000030c:	e000      	b.n	10000310 <frame_dummy+0x10>
1000030e:	bf00      	nop
10000310:	bd10      	pop	{r4, pc}
10000312:	46c0      	nop			; (mov r8, r8)
10000314:	00000000 	.word	0x00000000
10000318:	20000a70 	.word	0x20000a70
1000031c:	10004d90 	.word	0x10004d90

10000320 <alarm_callback>:
10000320:	b500      	push	{lr}
10000322:	b0c3      	sub	sp, #268	; 0x10c
10000324:	2208      	movs	r2, #8
10000326:	2100      	movs	r1, #0
10000328:	4668      	mov	r0, sp
1000032a:	f003 fccb 	bl	10003cc4 <__wrap_memset>
1000032e:	4668      	mov	r0, sp
10000330:	f003 ffaa 	bl	10004288 <rtc_get_datetime>
10000334:	2180      	movs	r1, #128	; 0x80
10000336:	466a      	mov	r2, sp
10000338:	a802      	add	r0, sp, #8
1000033a:	0049      	lsls	r1, r1, #1
1000033c:	f000 fc38 	bl	10000bb0 <datetime_to_str>
10000340:	a902      	add	r1, sp, #8
10000342:	4805      	ldr	r0, [pc, #20]	; (10000358 <alarm_callback+0x38>)
10000344:	f003 fe9a 	bl	1000407c <__wrap_printf>
10000348:	f003 fe10 	bl	10003f6c <stdio_flush>
1000034c:	2201      	movs	r2, #1
1000034e:	4b03      	ldr	r3, [pc, #12]	; (1000035c <alarm_callback+0x3c>)
10000350:	701a      	strb	r2, [r3, #0]
10000352:	b043      	add	sp, #268	; 0x10c
10000354:	bd00      	pop	{pc}
10000356:	46c0      	nop			; (mov r8, r8)
10000358:	10004d90 	.word	0x10004d90
1000035c:	20000b2e 	.word	0x20000b2e

10000360 <main>:
10000360:	b530      	push	{r4, r5, lr}
10000362:	b085      	sub	sp, #20
10000364:	466d      	mov	r5, sp
10000366:	f003 fe95 	bl	10004094 <stdio_init_all>
1000036a:	480d      	ldr	r0, [pc, #52]	; (100003a0 <main+0x40>)
1000036c:	f003 fdc2 	bl	10003ef4 <__wrap_puts>
10000370:	002b      	movs	r3, r5
10000372:	4c0c      	ldr	r4, [pc, #48]	; (100003a4 <main+0x44>)
10000374:	cc06      	ldmia	r4!, {r1, r2}
10000376:	c306      	stmia	r3!, {r1, r2}
10000378:	f003 ff14 	bl	100041a4 <rtc_init>
1000037c:	0028      	movs	r0, r5
1000037e:	f003 ff2d 	bl	100041dc <rtc_set_datetime>
10000382:	a802      	add	r0, sp, #8
10000384:	0003      	movs	r3, r0
10000386:	cc06      	ldmia	r4!, {r1, r2}
10000388:	c306      	stmia	r3!, {r1, r2}
1000038a:	4907      	ldr	r1, [pc, #28]	; (100003a8 <main+0x48>)
1000038c:	f003 ffa4 	bl	100042d8 <rtc_set_alarm>
10000390:	4a06      	ldr	r2, [pc, #24]	; (100003ac <main+0x4c>)
10000392:	7813      	ldrb	r3, [r2, #0]
10000394:	2b00      	cmp	r3, #0
10000396:	d0fc      	beq.n	10000392 <main+0x32>
10000398:	2000      	movs	r0, #0
1000039a:	b005      	add	sp, #20
1000039c:	bd30      	pop	{r4, r5, pc}
1000039e:	46c0      	nop			; (mov r8, r8)
100003a0:	10004da4 	.word	0x10004da4
100003a4:	10004db0 	.word	0x10004db0
100003a8:	10000321 	.word	0x10000321
100003ac:	20000b2e 	.word	0x20000b2e

100003b0 <gpio_set_function>:
100003b0:	4a09      	ldr	r2, [pc, #36]	; (100003d8 <gpio_set_function+0x28>)
100003b2:	0083      	lsls	r3, r0, #2
100003b4:	4694      	mov	ip, r2
100003b6:	2240      	movs	r2, #64	; 0x40
100003b8:	4463      	add	r3, ip
100003ba:	b510      	push	{r4, lr}
100003bc:	681c      	ldr	r4, [r3, #0]
100003be:	00c0      	lsls	r0, r0, #3
100003c0:	4062      	eors	r2, r4
100003c2:	24c0      	movs	r4, #192	; 0xc0
100003c4:	4014      	ands	r4, r2
100003c6:	2280      	movs	r2, #128	; 0x80
100003c8:	0152      	lsls	r2, r2, #5
100003ca:	4313      	orrs	r3, r2
100003cc:	601c      	str	r4, [r3, #0]
100003ce:	4b03      	ldr	r3, [pc, #12]	; (100003dc <gpio_set_function+0x2c>)
100003d0:	469c      	mov	ip, r3
100003d2:	4460      	add	r0, ip
100003d4:	6041      	str	r1, [r0, #4]
100003d6:	bd10      	pop	{r4, pc}
100003d8:	4001c004 	.word	0x4001c004
100003dc:	40014000 	.word	0x40014000

100003e0 <hw_claim_or_assert>:
100003e0:	b5f8      	push	{r3, r4, r5, r6, r7, lr}
100003e2:	46ce      	mov	lr, r9
100003e4:	4647      	mov	r7, r8
100003e6:	4691      	mov	r9, r2
100003e8:	b580      	push	{r7, lr}
100003ea:	f3ef 8710 	mrs	r7, PRIMASK
100003ee:	b672      	cpsid	i
100003f0:	4e12      	ldr	r6, [pc, #72]	; (1000043c <hw_claim_or_assert+0x5c>)
100003f2:	6833      	ldr	r3, [r6, #0]
100003f4:	2b00      	cmp	r3, #0
100003f6:	d0fc      	beq.n	100003f2 <hw_claim_or_assert+0x12>
100003f8:	f3bf 8f5f 	dmb	sy
100003fc:	08cb      	lsrs	r3, r1, #3
100003fe:	5cc5      	ldrb	r5, [r0, r3]
10000400:	2407      	movs	r4, #7
10000402:	18c2      	adds	r2, r0, r3
10000404:	0028      	movs	r0, r5
10000406:	2301      	movs	r3, #1
10000408:	400c      	ands	r4, r1
1000040a:	4694      	mov	ip, r2
1000040c:	40e0      	lsrs	r0, r4
1000040e:	001a      	movs	r2, r3
10000410:	4002      	ands	r2, r0
10000412:	4690      	mov	r8, r2
10000414:	4203      	tst	r3, r0
10000416:	d10d      	bne.n	10000434 <hw_claim_or_assert+0x54>
10000418:	40a3      	lsls	r3, r4
1000041a:	4662      	mov	r2, ip
1000041c:	432b      	orrs	r3, r5
1000041e:	7013      	strb	r3, [r2, #0]
10000420:	f3bf 8f5f 	dmb	sy
10000424:	4643      	mov	r3, r8
10000426:	6033      	str	r3, [r6, #0]
10000428:	f387 8810 	msr	PRIMASK, r7
1000042c:	bc0c      	pop	{r2, r3}
1000042e:	4690      	mov	r8, r2
10000430:	4699      	mov	r9, r3
10000432:	bdf8      	pop	{r3, r4, r5, r6, r7, pc}
10000434:	4648      	mov	r0, r9
10000436:	f000 fe7b 	bl	10001130 <panic>
1000043a:	46c0      	nop			; (mov r8, r8)
1000043c:	d000012c 	.word	0xd000012c

10000440 <spin_locks_reset>:
10000440:	2100      	movs	r1, #0
10000442:	4b04      	ldr	r3, [pc, #16]	; (10000454 <spin_locks_reset+0x14>)
10000444:	4a04      	ldr	r2, [pc, #16]	; (10000458 <spin_locks_reset+0x18>)
10000446:	f3bf 8f5f 	dmb	sy
1000044a:	c302      	stmia	r3!, {r1}
1000044c:	4293      	cmp	r3, r2
1000044e:	d1fa      	bne.n	10000446 <spin_locks_reset+0x6>
10000450:	4770      	bx	lr
10000452:	46c0      	nop			; (mov r8, r8)
10000454:	d0000100 	.word	0xd0000100
10000458:	d0000180 	.word	0xd0000180

1000045c <next_striped_spin_lock_num>:
1000045c:	4a04      	ldr	r2, [pc, #16]	; (10000470 <next_striped_spin_lock_num+0x14>)
1000045e:	7810      	ldrb	r0, [r2, #0]
10000460:	1c43      	adds	r3, r0, #1
10000462:	b2db      	uxtb	r3, r3
10000464:	2b17      	cmp	r3, #23
10000466:	d900      	bls.n	1000046a <next_striped_spin_lock_num+0xe>
10000468:	2310      	movs	r3, #16
1000046a:	7013      	strb	r3, [r2, #0]
1000046c:	4770      	bx	lr
1000046e:	46c0      	nop			; (mov r8, r8)
10000470:	20000188 	.word	0x20000188

10000474 <running_on_fpga>:
10000474:	4b02      	ldr	r3, [pc, #8]	; (10000480 <running_on_fpga+0xc>)
10000476:	6818      	ldr	r0, [r3, #0]
10000478:	0780      	lsls	r0, r0, #30
1000047a:	0fc0      	lsrs	r0, r0, #31
1000047c:	4770      	bx	lr
1000047e:	46c0      	nop			; (mov r8, r8)
10000480:	4006c000 	.word	0x4006c000

10000484 <uart_init>:
10000484:	b5f0      	push	{r4, r5, r6, r7, lr}
10000486:	46c6      	mov	lr, r8
10000488:	0005      	movs	r5, r0
1000048a:	b500      	push	{lr}
1000048c:	2006      	movs	r0, #6
1000048e:	000e      	movs	r6, r1
10000490:	f000 ffdc 	bl	1000144c <clock_get_hz>
10000494:	2800      	cmp	r0, #0
10000496:	d04d      	beq.n	10000534 <uart_init+0xb0>
10000498:	4b29      	ldr	r3, [pc, #164]	; (10000540 <uart_init+0xbc>)
1000049a:	492a      	ldr	r1, [pc, #168]	; (10000544 <uart_init+0xc0>)
1000049c:	18eb      	adds	r3, r5, r3
1000049e:	425a      	negs	r2, r3
100004a0:	4153      	adcs	r3, r2
100004a2:	2280      	movs	r2, #128	; 0x80
100004a4:	03d2      	lsls	r2, r2, #15
100004a6:	4694      	mov	ip, r2
100004a8:	425b      	negs	r3, r3
100004aa:	4013      	ands	r3, r2
100004ac:	4a26      	ldr	r2, [pc, #152]	; (10000548 <uart_init+0xc4>)
100004ae:	4463      	add	r3, ip
100004b0:	6013      	str	r3, [r2, #0]
100004b2:	4a26      	ldr	r2, [pc, #152]	; (1000054c <uart_init+0xc8>)
100004b4:	6013      	str	r3, [r2, #0]
100004b6:	001c      	movs	r4, r3
100004b8:	688a      	ldr	r2, [r1, #8]
100004ba:	4394      	bics	r4, r2
100004bc:	d1fb      	bne.n	100004b6 <uart_init+0x32>
100004be:	4b20      	ldr	r3, [pc, #128]	; (10000540 <uart_init+0xbc>)
100004c0:	2180      	movs	r1, #128	; 0x80
100004c2:	18eb      	adds	r3, r5, r3
100004c4:	425a      	negs	r2, r3
100004c6:	4153      	adcs	r3, r2
100004c8:	4a21      	ldr	r2, [pc, #132]	; (10000550 <uart_init+0xcc>)
100004ca:	005b      	lsls	r3, r3, #1
100004cc:	0049      	lsls	r1, r1, #1
100004ce:	2006      	movs	r0, #6
100004d0:	5299      	strh	r1, [r3, r2]
100004d2:	f000 ffbb 	bl	1000144c <clock_get_hz>
100004d6:	0031      	movs	r1, r6
100004d8:	00c0      	lsls	r0, r0, #3
100004da:	f002 fd41 	bl	10002f60 <__wrap___aeabi_uidiv>
100004de:	267f      	movs	r6, #127	; 0x7f
100004e0:	4b1c      	ldr	r3, [pc, #112]	; (10000554 <uart_init+0xd0>)
100004e2:	4006      	ands	r6, r0
100004e4:	09c7      	lsrs	r7, r0, #7
100004e6:	3601      	adds	r6, #1
100004e8:	0876      	lsrs	r6, r6, #1
100004ea:	626f      	str	r7, [r5, #36]	; 0x24
100004ec:	429f      	cmp	r7, r3
100004ee:	d024      	beq.n	1000053a <uart_init+0xb6>
100004f0:	62ae      	str	r6, [r5, #40]	; 0x28
100004f2:	232c      	movs	r3, #44	; 0x2c
100004f4:	4698      	mov	r8, r3
100004f6:	2480      	movs	r4, #128	; 0x80
100004f8:	44a8      	add	r8, r5
100004fa:	4643      	mov	r3, r8
100004fc:	01a4      	lsls	r4, r4, #6
100004fe:	431c      	orrs	r4, r3
10000500:	2300      	movs	r3, #0
10000502:	2006      	movs	r0, #6
10000504:	6023      	str	r3, [r4, #0]
10000506:	f000 ffa1 	bl	1000144c <clock_get_hz>
1000050a:	01b9      	lsls	r1, r7, #6
1000050c:	1989      	adds	r1, r1, r6
1000050e:	0080      	lsls	r0, r0, #2
10000510:	f002 fd26 	bl	10002f60 <__wrap___aeabi_uidiv>
10000514:	2360      	movs	r3, #96	; 0x60
10000516:	6aea      	ldr	r2, [r5, #44]	; 0x2c
10000518:	4641      	mov	r1, r8
1000051a:	4053      	eors	r3, r2
1000051c:	226e      	movs	r2, #110	; 0x6e
1000051e:	401a      	ands	r2, r3
10000520:	2380      	movs	r3, #128	; 0x80
10000522:	015b      	lsls	r3, r3, #5
10000524:	430b      	orrs	r3, r1
10000526:	601a      	str	r2, [r3, #0]
10000528:	4b0b      	ldr	r3, [pc, #44]	; (10000558 <uart_init+0xd4>)
1000052a:	632b      	str	r3, [r5, #48]	; 0x30
1000052c:	2310      	movs	r3, #16
1000052e:	6023      	str	r3, [r4, #0]
10000530:	3b0d      	subs	r3, #13
10000532:	64ab      	str	r3, [r5, #72]	; 0x48
10000534:	bc04      	pop	{r2}
10000536:	4690      	mov	r8, r2
10000538:	bdf0      	pop	{r4, r5, r6, r7, pc}
1000053a:	62ac      	str	r4, [r5, #40]	; 0x28
1000053c:	e7d9      	b.n	100004f2 <uart_init+0x6e>
1000053e:	46c0      	nop			; (mov r8, r8)
10000540:	bffc8000 	.word	0xbffc8000
10000544:	4000c000 	.word	0x4000c000
10000548:	4000e000 	.word	0x4000e000
1000054c:	4000f000 	.word	0x4000f000
10000550:	20000b34 	.word	0x20000b34
10000554:	0000ffff 	.word	0x0000ffff
10000558:	00000301 	.word	0x00000301

1000055c <timer_pool_entry_comparator>:
1000055c:	6883      	ldr	r3, [r0, #8]
1000055e:	480b      	ldr	r0, [pc, #44]	; (1000058c <timer_pool_entry_comparator+0x30>)
10000560:	b510      	push	{r4, lr}
10000562:	4684      	mov	ip, r0
10000564:	4461      	add	r1, ip
10000566:	4462      	add	r2, ip
10000568:	0109      	lsls	r1, r1, #4
1000056a:	0112      	lsls	r2, r2, #4
1000056c:	189a      	adds	r2, r3, r2
1000056e:	1859      	adds	r1, r3, r1
10000570:	6854      	ldr	r4, [r2, #4]
10000572:	684b      	ldr	r3, [r1, #4]
10000574:	2001      	movs	r0, #1
10000576:	429c      	cmp	r4, r3
10000578:	d801      	bhi.n	1000057e <timer_pool_entry_comparator+0x22>
1000057a:	d002      	beq.n	10000582 <timer_pool_entry_comparator+0x26>
1000057c:	2000      	movs	r0, #0
1000057e:	b2c0      	uxtb	r0, r0
10000580:	bd10      	pop	{r4, pc}
10000582:	6812      	ldr	r2, [r2, #0]
10000584:	680b      	ldr	r3, [r1, #0]
10000586:	429a      	cmp	r2, r3
10000588:	d8f9      	bhi.n	1000057e <timer_pool_entry_comparator+0x22>
1000058a:	e7f7      	b.n	1000057c <timer_pool_entry_comparator+0x20>
1000058c:	0fffffff 	.word	0x0fffffff

10000590 <add_alarm_under_lock>:
10000590:	b5f0      	push	{r4, r5, r6, r7, lr}
10000592:	4657      	mov	r7, sl
10000594:	4645      	mov	r5, r8
10000596:	46de      	mov	lr, fp
10000598:	464e      	mov	r6, r9
1000059a:	b5e0      	push	{r5, r6, r7, lr}
1000059c:	b083      	sub	sp, #12
1000059e:	001f      	movs	r7, r3
100005a0:	ab0f      	add	r3, sp, #60	; 0x3c
100005a2:	781b      	ldrb	r3, [r3, #0]
100005a4:	9c0e      	ldr	r4, [sp, #56]	; 0x38
100005a6:	0005      	movs	r5, r0
100005a8:	4692      	mov	sl, r2
100005aa:	9301      	str	r3, [sp, #4]
100005ac:	2c00      	cmp	r4, #0
100005ae:	d10d      	bne.n	100005cc <add_alarm_under_lock+0x3c>
100005b0:	6802      	ldr	r2, [r0, #0]
100005b2:	7b94      	ldrb	r4, [r2, #14]
100005b4:	2c00      	cmp	r4, #0
100005b6:	d056      	beq.n	10000666 <add_alarm_under_lock+0xd6>
100005b8:	6811      	ldr	r1, [r2, #0]
100005ba:	0063      	lsls	r3, r4, #1
100005bc:	468c      	mov	ip, r1
100005be:	191b      	adds	r3, r3, r4
100005c0:	4463      	add	r3, ip
100005c2:	3b03      	subs	r3, #3
100005c4:	785b      	ldrb	r3, [r3, #1]
100005c6:	7393      	strb	r3, [r2, #14]
100005c8:	2b00      	cmp	r3, #0
100005ca:	d054      	beq.n	10000676 <add_alarm_under_lock+0xe6>
100005cc:	68aa      	ldr	r2, [r5, #8]
100005ce:	b2e3      	uxtb	r3, r4
100005d0:	4694      	mov	ip, r2
100005d2:	4652      	mov	r2, sl
100005d4:	469b      	mov	fp, r3
100005d6:	4b38      	ldr	r3, [pc, #224]	; (100006b8 <add_alarm_under_lock+0x128>)
100005d8:	682e      	ldr	r6, [r5, #0]
100005da:	18e3      	adds	r3, r4, r3
100005dc:	011b      	lsls	r3, r3, #4
100005de:	4463      	add	r3, ip
100005e0:	601a      	str	r2, [r3, #0]
100005e2:	9a0c      	ldr	r2, [sp, #48]	; 0x30
100005e4:	605f      	str	r7, [r3, #4]
100005e6:	609a      	str	r2, [r3, #8]
100005e8:	9a0d      	ldr	r2, [sp, #52]	; 0x34
100005ea:	60da      	str	r2, [r3, #12]
100005ec:	23d0      	movs	r3, #208	; 0xd0
100005ee:	2280      	movs	r2, #128	; 0x80
100005f0:	061b      	lsls	r3, r3, #24
100005f2:	0312      	lsls	r2, r2, #12
100005f4:	615a      	str	r2, [r3, #20]
100005f6:	0063      	lsls	r3, r4, #1
100005f8:	191b      	adds	r3, r3, r4
100005fa:	3b03      	subs	r3, #3
100005fc:	4698      	mov	r8, r3
100005fe:	2200      	movs	r2, #0
10000600:	6833      	ldr	r3, [r6, #0]
10000602:	4443      	add	r3, r8
10000604:	709a      	strb	r2, [r3, #2]
10000606:	705a      	strb	r2, [r3, #1]
10000608:	701a      	strb	r2, [r3, #0]
1000060a:	7b73      	ldrb	r3, [r6, #13]
1000060c:	4699      	mov	r9, r3
1000060e:	2b00      	cmp	r3, #0
10000610:	d017      	beq.n	10000642 <add_alarm_under_lock+0xb2>
10000612:	465a      	mov	r2, fp
10000614:	0019      	movs	r1, r3
10000616:	68b0      	ldr	r0, [r6, #8]
10000618:	6873      	ldr	r3, [r6, #4]
1000061a:	4798      	blx	r3
1000061c:	6832      	ldr	r2, [r6, #0]
1000061e:	2800      	cmp	r0, #0
10000620:	d12b      	bne.n	1000067a <add_alarm_under_lock+0xea>
10000622:	4643      	mov	r3, r8
10000624:	18d1      	adds	r1, r2, r3
10000626:	464b      	mov	r3, r9
10000628:	4658      	mov	r0, fp
1000062a:	005b      	lsls	r3, r3, #1
1000062c:	444b      	add	r3, r9
1000062e:	3b03      	subs	r3, #3
10000630:	18d3      	adds	r3, r2, r3
10000632:	7098      	strb	r0, [r3, #2]
10000634:	4640      	mov	r0, r8
10000636:	5c12      	ldrb	r2, [r2, r0]
10000638:	2a00      	cmp	r2, #0
1000063a:	d000      	beq.n	1000063e <add_alarm_under_lock+0xae>
1000063c:	705a      	strb	r2, [r3, #1]
1000063e:	464b      	mov	r3, r9
10000640:	700b      	strb	r3, [r1, #0]
10000642:	465b      	mov	r3, fp
10000644:	7373      	strb	r3, [r6, #13]
10000646:	4652      	mov	r2, sl
10000648:	003b      	movs	r3, r7
1000064a:	7d28      	ldrb	r0, [r5, #20]
1000064c:	f000 fa1a 	bl	10000a84 <hardware_alarm_set_target>
10000650:	1e06      	subs	r6, r0, #0
10000652:	d002      	beq.n	1000065a <add_alarm_under_lock+0xca>
10000654:	9b01      	ldr	r3, [sp, #4]
10000656:	2b00      	cmp	r3, #0
10000658:	d026      	beq.n	100006a8 <add_alarm_under_lock+0x118>
1000065a:	9b10      	ldr	r3, [sp, #64]	; 0x40
1000065c:	2b00      	cmp	r3, #0
1000065e:	d028      	beq.n	100006b2 <add_alarm_under_lock+0x122>
10000660:	0020      	movs	r0, r4
10000662:	701e      	strb	r6, [r3, #0]
10000664:	e000      	b.n	10000668 <add_alarm_under_lock+0xd8>
10000666:	2000      	movs	r0, #0
10000668:	b003      	add	sp, #12
1000066a:	bc3c      	pop	{r2, r3, r4, r5}
1000066c:	4690      	mov	r8, r2
1000066e:	4699      	mov	r9, r3
10000670:	46a2      	mov	sl, r4
10000672:	46ab      	mov	fp, r5
10000674:	bdf0      	pop	{r4, r5, r6, r7, pc}
10000676:	73d3      	strb	r3, [r2, #15]
10000678:	e7a8      	b.n	100005cc <add_alarm_under_lock+0x3c>
1000067a:	464b      	mov	r3, r9
1000067c:	005b      	lsls	r3, r3, #1
1000067e:	444b      	add	r3, r9
10000680:	3b03      	subs	r3, #3
10000682:	18d1      	adds	r1, r2, r3
10000684:	468c      	mov	ip, r1
10000686:	4641      	mov	r1, r8
10000688:	4648      	mov	r0, r9
1000068a:	1851      	adds	r1, r2, r1
1000068c:	7088      	strb	r0, [r1, #2]
1000068e:	5cd3      	ldrb	r3, [r2, r3]
10000690:	2b00      	cmp	r3, #0
10000692:	d000      	beq.n	10000696 <add_alarm_under_lock+0x106>
10000694:	704b      	strb	r3, [r1, #1]
10000696:	465b      	mov	r3, fp
10000698:	4662      	mov	r2, ip
1000069a:	7013      	strb	r3, [r2, #0]
1000069c:	464b      	mov	r3, r9
1000069e:	0020      	movs	r0, r4
100006a0:	7373      	strb	r3, [r6, #13]
100006a2:	45a1      	cmp	r9, r4
100006a4:	d1e0      	bne.n	10000668 <add_alarm_under_lock+0xd8>
100006a6:	e7ce      	b.n	10000646 <add_alarm_under_lock+0xb6>
100006a8:	4659      	mov	r1, fp
100006aa:	6828      	ldr	r0, [r5, #0]
100006ac:	f000 fc70 	bl	10000f90 <ph_delete>
100006b0:	e7d3      	b.n	1000065a <add_alarm_under_lock+0xca>
100006b2:	0020      	movs	r0, r4
100006b4:	e7d8      	b.n	10000668 <add_alarm_under_lock+0xd8>
100006b6:	46c0      	nop			; (mov r8, r8)
100006b8:	0fffffff 	.word	0x0fffffff

100006bc <alarm_pool_alarm_callback>:
100006bc:	b5f0      	push	{r4, r5, r6, r7, lr}
100006be:	46de      	mov	lr, fp
100006c0:	464e      	mov	r6, r9
100006c2:	4657      	mov	r7, sl
100006c4:	4645      	mov	r5, r8
100006c6:	2300      	movs	r3, #0
100006c8:	b5e0      	push	{r5, r6, r7, lr}
100006ca:	b08d      	sub	sp, #52	; 0x34
100006cc:	930a      	str	r3, [sp, #40]	; 0x28
100006ce:	4b71      	ldr	r3, [pc, #452]	; (10000894 <alarm_pool_alarm_callback+0x1d8>)
100006d0:	0082      	lsls	r2, r0, #2
100006d2:	58d3      	ldr	r3, [r2, r3]
100006d4:	900b      	str	r0, [sp, #44]	; 0x2c
100006d6:	4699      	mov	r9, r3
100006d8:	2300      	movs	r3, #0
100006da:	469b      	mov	fp, r3
100006dc:	464b      	mov	r3, r9
100006de:	9307      	str	r3, [sp, #28]
100006e0:	f000 f980 	bl	100009e4 <time_us_64>
100006e4:	9c07      	ldr	r4, [sp, #28]
100006e6:	0006      	movs	r6, r0
100006e8:	000f      	movs	r7, r1
100006ea:	6862      	ldr	r2, [r4, #4]
100006ec:	f3ef 8510 	mrs	r5, PRIMASK
100006f0:	b672      	cpsid	i
100006f2:	6813      	ldr	r3, [r2, #0]
100006f4:	2b00      	cmp	r3, #0
100006f6:	d0fc      	beq.n	100006f2 <alarm_pool_alarm_callback+0x36>
100006f8:	0022      	movs	r2, r4
100006fa:	9407      	str	r4, [sp, #28]
100006fc:	f3bf 8f5f 	dmb	sy
10000700:	6824      	ldr	r4, [r4, #0]
10000702:	7b63      	ldrb	r3, [r4, #13]
10000704:	4699      	mov	r9, r3
10000706:	2b00      	cmp	r3, #0
10000708:	d100      	bne.n	1000070c <alarm_pool_alarm_callback+0x50>
1000070a:	e070      	b.n	100007ee <alarm_pool_alarm_callback+0x132>
1000070c:	6892      	ldr	r2, [r2, #8]
1000070e:	4b62      	ldr	r3, [pc, #392]	; (10000898 <alarm_pool_alarm_callback+0x1dc>)
10000710:	4690      	mov	r8, r2
10000712:	444b      	add	r3, r9
10000714:	011b      	lsls	r3, r3, #4
10000716:	4498      	add	r8, r3
10000718:	4643      	mov	r3, r8
1000071a:	681a      	ldr	r2, [r3, #0]
1000071c:	685b      	ldr	r3, [r3, #4]
1000071e:	0010      	movs	r0, r2
10000720:	0019      	movs	r1, r3
10000722:	1b80      	subs	r0, r0, r6
10000724:	41b9      	sbcs	r1, r7
10000726:	2900      	cmp	r1, #0
10000728:	dd68      	ble.n	100007fc <alarm_pool_alarm_callback+0x140>
1000072a:	980b      	ldr	r0, [sp, #44]	; 0x2c
1000072c:	f000 f9aa 	bl	10000a84 <hardware_alarm_set_target>
10000730:	2300      	movs	r3, #0
10000732:	2600      	movs	r6, #0
10000734:	4698      	mov	r8, r3
10000736:	2700      	movs	r7, #0
10000738:	469a      	mov	sl, r3
1000073a:	9c07      	ldr	r4, [sp, #28]
1000073c:	6863      	ldr	r3, [r4, #4]
1000073e:	f3bf 8f5f 	dmb	sy
10000742:	465a      	mov	r2, fp
10000744:	601a      	str	r2, [r3, #0]
10000746:	f385 8810 	msr	PRIMASK, r5
1000074a:	4653      	mov	r3, sl
1000074c:	2b00      	cmp	r3, #0
1000074e:	d108      	bne.n	10000762 <alarm_pool_alarm_callback+0xa6>
10000750:	2800      	cmp	r0, #0
10000752:	d1c5      	bne.n	100006e0 <alarm_pool_alarm_callback+0x24>
10000754:	b00d      	add	sp, #52	; 0x34
10000756:	bc3c      	pop	{r2, r3, r4, r5}
10000758:	4690      	mov	r8, r2
1000075a:	4699      	mov	r9, r3
1000075c:	46a2      	mov	sl, r4
1000075e:	46ab      	mov	fp, r5
10000760:	bdf0      	pop	{r4, r5, r6, r7, pc}
10000762:	23d0      	movs	r3, #208	; 0xd0
10000764:	2280      	movs	r2, #128	; 0x80
10000766:	2180      	movs	r1, #128	; 0x80
10000768:	061b      	lsls	r3, r3, #24
1000076a:	0392      	lsls	r2, r2, #14
1000076c:	0309      	lsls	r1, r1, #12
1000076e:	615a      	str	r2, [r3, #20]
10000770:	6199      	str	r1, [r3, #24]
10000772:	619a      	str	r2, [r3, #24]
10000774:	9b0a      	ldr	r3, [sp, #40]	; 0x28
10000776:	4641      	mov	r1, r8
10000778:	0218      	lsls	r0, r3, #8
1000077a:	464b      	mov	r3, r9
1000077c:	4318      	orrs	r0, r3
1000077e:	47d0      	blx	sl
10000780:	9008      	str	r0, [sp, #32]
10000782:	9109      	str	r1, [sp, #36]	; 0x24
10000784:	6862      	ldr	r2, [r4, #4]
10000786:	f3ef 8510 	mrs	r5, PRIMASK
1000078a:	b672      	cpsid	i
1000078c:	6813      	ldr	r3, [r2, #0]
1000078e:	2b00      	cmp	r3, #0
10000790:	d0fc      	beq.n	1000078c <alarm_pool_alarm_callback+0xd0>
10000792:	9407      	str	r4, [sp, #28]
10000794:	f3bf 8f5f 	dmb	sy
10000798:	9908      	ldr	r1, [sp, #32]
1000079a:	9a09      	ldr	r2, [sp, #36]	; 0x24
1000079c:	2a00      	cmp	r2, #0
1000079e:	db49      	blt.n	10000834 <alarm_pool_alarm_callback+0x178>
100007a0:	4311      	orrs	r1, r2
100007a2:	d003      	beq.n	100007ac <alarm_pool_alarm_callback+0xf0>
100007a4:	9b07      	ldr	r3, [sp, #28]
100007a6:	691b      	ldr	r3, [r3, #16]
100007a8:	2b00      	cmp	r3, #0
100007aa:	d15e      	bne.n	1000086a <alarm_pool_alarm_callback+0x1ae>
100007ac:	9b07      	ldr	r3, [sp, #28]
100007ae:	681b      	ldr	r3, [r3, #0]
100007b0:	7bda      	ldrb	r2, [r3, #15]
100007b2:	2a00      	cmp	r2, #0
100007b4:	d007      	beq.n	100007c6 <alarm_pool_alarm_callback+0x10a>
100007b6:	0051      	lsls	r1, r2, #1
100007b8:	188a      	adds	r2, r1, r2
100007ba:	6819      	ldr	r1, [r3, #0]
100007bc:	468c      	mov	ip, r1
100007be:	4649      	mov	r1, r9
100007c0:	4462      	add	r2, ip
100007c2:	3a03      	subs	r2, #3
100007c4:	7051      	strb	r1, [r2, #1]
100007c6:	464a      	mov	r2, r9
100007c8:	73da      	strb	r2, [r3, #15]
100007ca:	464b      	mov	r3, r9
100007cc:	9a07      	ldr	r2, [sp, #28]
100007ce:	3b01      	subs	r3, #1
100007d0:	68d1      	ldr	r1, [r2, #12]
100007d2:	5cca      	ldrb	r2, [r1, r3]
100007d4:	3201      	adds	r2, #1
100007d6:	54ca      	strb	r2, [r1, r3]
100007d8:	465b      	mov	r3, fp
100007da:	9a07      	ldr	r2, [sp, #28]
100007dc:	6113      	str	r3, [r2, #16]
100007de:	6853      	ldr	r3, [r2, #4]
100007e0:	f3bf 8f5f 	dmb	sy
100007e4:	465a      	mov	r2, fp
100007e6:	601a      	str	r2, [r3, #0]
100007e8:	f385 8810 	msr	PRIMASK, r5
100007ec:	e778      	b.n	100006e0 <alarm_pool_alarm_callback+0x24>
100007ee:	2300      	movs	r3, #0
100007f0:	2600      	movs	r6, #0
100007f2:	4698      	mov	r8, r3
100007f4:	2700      	movs	r7, #0
100007f6:	469a      	mov	sl, r3
100007f8:	2000      	movs	r0, #0
100007fa:	e79e      	b.n	1000073a <alarm_pool_alarm_callback+0x7e>
100007fc:	2900      	cmp	r1, #0
100007fe:	d102      	bne.n	10000806 <alarm_pool_alarm_callback+0x14a>
10000800:	2800      	cmp	r0, #0
10000802:	d000      	beq.n	10000806 <alarm_pool_alarm_callback+0x14a>
10000804:	e791      	b.n	1000072a <alarm_pool_alarm_callback+0x6e>
10000806:	2101      	movs	r1, #1
10000808:	0020      	movs	r0, r4
1000080a:	f000 fb23 	bl	10000e54 <ph_remove_head_reserve>
1000080e:	4643      	mov	r3, r8
10000810:	681e      	ldr	r6, [r3, #0]
10000812:	685f      	ldr	r7, [r3, #4]
10000814:	689b      	ldr	r3, [r3, #8]
10000816:	9a07      	ldr	r2, [sp, #28]
10000818:	469a      	mov	sl, r3
1000081a:	4643      	mov	r3, r8
1000081c:	68db      	ldr	r3, [r3, #12]
1000081e:	4698      	mov	r8, r3
10000820:	68d3      	ldr	r3, [r2, #12]
10000822:	444b      	add	r3, r9
10000824:	3b01      	subs	r3, #1
10000826:	781b      	ldrb	r3, [r3, #0]
10000828:	930a      	str	r3, [sp, #40]	; 0x28
1000082a:	021b      	lsls	r3, r3, #8
1000082c:	4303      	orrs	r3, r0
1000082e:	6113      	str	r3, [r2, #16]
10000830:	2000      	movs	r0, #0
10000832:	e782      	b.n	1000073a <alarm_pool_alarm_callback+0x7e>
10000834:	6923      	ldr	r3, [r4, #16]
10000836:	2b00      	cmp	r3, #0
10000838:	d0b8      	beq.n	100007ac <alarm_pool_alarm_callback+0xf0>
1000083a:	0033      	movs	r3, r6
1000083c:	003c      	movs	r4, r7
1000083e:	1a5b      	subs	r3, r3, r1
10000840:	4194      	sbcs	r4, r2
10000842:	001a      	movs	r2, r3
10000844:	0023      	movs	r3, r4
10000846:	42a7      	cmp	r7, r4
10000848:	d819      	bhi.n	1000087e <alarm_pool_alarm_callback+0x1c2>
1000084a:	429f      	cmp	r7, r3
1000084c:	d01b      	beq.n	10000886 <alarm_pool_alarm_callback+0x1ca>
1000084e:	4659      	mov	r1, fp
10000850:	9104      	str	r1, [sp, #16]
10000852:	2101      	movs	r1, #1
10000854:	9103      	str	r1, [sp, #12]
10000856:	4649      	mov	r1, r9
10000858:	9102      	str	r1, [sp, #8]
1000085a:	4641      	mov	r1, r8
1000085c:	9101      	str	r1, [sp, #4]
1000085e:	4651      	mov	r1, sl
10000860:	9807      	ldr	r0, [sp, #28]
10000862:	9100      	str	r1, [sp, #0]
10000864:	f7ff fe94 	bl	10000590 <add_alarm_under_lock>
10000868:	e7b6      	b.n	100007d8 <alarm_pool_alarm_callback+0x11c>
1000086a:	f000 f8bb 	bl	100009e4 <time_us_64>
1000086e:	9a08      	ldr	r2, [sp, #32]
10000870:	9b09      	ldr	r3, [sp, #36]	; 0x24
10000872:	0006      	movs	r6, r0
10000874:	000f      	movs	r7, r1
10000876:	1992      	adds	r2, r2, r6
10000878:	417b      	adcs	r3, r7
1000087a:	4299      	cmp	r1, r3
1000087c:	d9e5      	bls.n	1000084a <alarm_pool_alarm_callback+0x18e>
1000087e:	2201      	movs	r2, #1
10000880:	4252      	negs	r2, r2
10000882:	17d3      	asrs	r3, r2, #31
10000884:	e7e3      	b.n	1000084e <alarm_pool_alarm_callback+0x192>
10000886:	4296      	cmp	r6, r2
10000888:	d9e1      	bls.n	1000084e <alarm_pool_alarm_callback+0x192>
1000088a:	2201      	movs	r2, #1
1000088c:	4252      	negs	r2, r2
1000088e:	17d3      	asrs	r3, r2, #31
10000890:	e7dd      	b.n	1000084e <alarm_pool_alarm_callback+0x192>
10000892:	46c0      	nop			; (mov r8, r8)
10000894:	20000b0c 	.word	0x20000b0c
10000898:	0fffffff 	.word	0x0fffffff

1000089c <alarm_pool_init_default>:
1000089c:	b570      	push	{r4, r5, r6, lr}
1000089e:	4c18      	ldr	r4, [pc, #96]	; (10000900 <alarm_pool_init_default+0x64>)
100008a0:	6823      	ldr	r3, [r4, #0]
100008a2:	2b00      	cmp	r3, #0
100008a4:	d000      	beq.n	100008a8 <alarm_pool_init_default+0xc>
100008a6:	bd70      	pop	{r4, r5, r6, pc}
100008a8:	2003      	movs	r0, #3
100008aa:	f000 f88f 	bl	100009cc <hardware_alarm_claim>
100008ae:	2003      	movs	r0, #3
100008b0:	f000 f94a 	bl	10000b48 <hardware_alarm_cancel>
100008b4:	4913      	ldr	r1, [pc, #76]	; (10000904 <alarm_pool_init_default+0x68>)
100008b6:	2003      	movs	r0, #3
100008b8:	f000 f89e 	bl	100009f8 <hardware_alarm_set_callback>
100008bc:	2018      	movs	r0, #24
100008be:	f003 f9f1 	bl	10003ca4 <__wrap_malloc>
100008c2:	0005      	movs	r5, r0
100008c4:	f7ff fdca 	bl	1000045c <next_striped_spin_lock_num>
100008c8:	4b0f      	ldr	r3, [pc, #60]	; (10000908 <alarm_pool_init_default+0x6c>)
100008ca:	002a      	movs	r2, r5
100008cc:	469c      	mov	ip, r3
100008ce:	4460      	add	r0, ip
100008d0:	0080      	lsls	r0, r0, #2
100008d2:	490e      	ldr	r1, [pc, #56]	; (1000090c <alarm_pool_init_default+0x70>)
100008d4:	6068      	str	r0, [r5, #4]
100008d6:	2010      	movs	r0, #16
100008d8:	f000 f9c6 	bl	10000c68 <ph_create>
100008dc:	2110      	movs	r1, #16
100008de:	6028      	str	r0, [r5, #0]
100008e0:	2010      	movs	r0, #16
100008e2:	f003 f9e3 	bl	10003cac <__wrap_calloc>
100008e6:	2101      	movs	r1, #1
100008e8:	60a8      	str	r0, [r5, #8]
100008ea:	2010      	movs	r0, #16
100008ec:	f003 f9de 	bl	10003cac <__wrap_calloc>
100008f0:	2303      	movs	r3, #3
100008f2:	752b      	strb	r3, [r5, #20]
100008f4:	4b06      	ldr	r3, [pc, #24]	; (10000910 <alarm_pool_init_default+0x74>)
100008f6:	60e8      	str	r0, [r5, #12]
100008f8:	60dd      	str	r5, [r3, #12]
100008fa:	6025      	str	r5, [r4, #0]
100008fc:	e7d3      	b.n	100008a6 <alarm_pool_init_default+0xa>
100008fe:	46c0      	nop			; (mov r8, r8)
10000900:	20000af8 	.word	0x20000af8
10000904:	100006bd 	.word	0x100006bd
10000908:	34000040 	.word	0x34000040
1000090c:	1000055d 	.word	0x1000055d
10000910:	20000b0c 	.word	0x20000b0c

10000914 <hardware_alarm_irq_handler>:
10000914:	b5f0      	push	{r4, r5, r6, r7, lr}
10000916:	46d6      	mov	lr, sl
10000918:	464f      	mov	r7, r9
1000091a:	4646      	mov	r6, r8
1000091c:	b5c0      	push	{r6, r7, lr}
1000091e:	f3ef 8305 	mrs	r3, IPSR
10000922:	223f      	movs	r2, #63	; 0x3f
10000924:	4013      	ands	r3, r2
10000926:	0018      	movs	r0, r3
10000928:	3810      	subs	r0, #16
1000092a:	f3ef 8c10 	mrs	ip, PRIMASK
1000092e:	b672      	cpsid	i
10000930:	4d20      	ldr	r5, [pc, #128]	; (100009b4 <hardware_alarm_irq_handler+0xa0>)
10000932:	682a      	ldr	r2, [r5, #0]
10000934:	2a00      	cmp	r2, #0
10000936:	d0fc      	beq.n	10000932 <hardware_alarm_irq_handler+0x1e>
10000938:	f3bf 8f5f 	dmb	sy
1000093c:	2201      	movs	r2, #1
1000093e:	0011      	movs	r1, r2
10000940:	4081      	lsls	r1, r0
10000942:	4c1d      	ldr	r4, [pc, #116]	; (100009b8 <hardware_alarm_irq_handler+0xa4>)
10000944:	4688      	mov	r8, r1
10000946:	6361      	str	r1, [r4, #52]	; 0x34
10000948:	491c      	ldr	r1, [pc, #112]	; (100009bc <hardware_alarm_irq_handler+0xa8>)
1000094a:	0017      	movs	r7, r2
1000094c:	780e      	ldrb	r6, [r1, #0]
1000094e:	468a      	mov	sl, r1
10000950:	0031      	movs	r1, r6
10000952:	40c1      	lsrs	r1, r0
10000954:	400f      	ands	r7, r1
10000956:	420a      	tst	r2, r1
10000958:	d015      	beq.n	10000986 <hardware_alarm_irq_handler+0x72>
1000095a:	4919      	ldr	r1, [pc, #100]	; (100009c0 <hardware_alarm_irq_handler+0xac>)
1000095c:	0082      	lsls	r2, r0, #2
1000095e:	6a64      	ldr	r4, [r4, #36]	; 0x24
10000960:	5851      	ldr	r1, [r2, r1]
10000962:	428c      	cmp	r4, r1
10000964:	d319      	bcc.n	1000099a <hardware_alarm_irq_handler+0x86>
10000966:	4b17      	ldr	r3, [pc, #92]	; (100009c4 <hardware_alarm_irq_handler+0xb0>)
10000968:	58d2      	ldr	r2, [r2, r3]
1000096a:	4643      	mov	r3, r8
1000096c:	439e      	bics	r6, r3
1000096e:	4653      	mov	r3, sl
10000970:	701e      	strb	r6, [r3, #0]
10000972:	f3bf 8f5f 	dmb	sy
10000976:	2300      	movs	r3, #0
10000978:	602b      	str	r3, [r5, #0]
1000097a:	f38c 8810 	msr	PRIMASK, ip
1000097e:	2a00      	cmp	r2, #0
10000980:	d006      	beq.n	10000990 <hardware_alarm_irq_handler+0x7c>
10000982:	4790      	blx	r2
10000984:	e004      	b.n	10000990 <hardware_alarm_irq_handler+0x7c>
10000986:	f3bf 8f5f 	dmb	sy
1000098a:	602f      	str	r7, [r5, #0]
1000098c:	f38c 8810 	msr	PRIMASK, ip
10000990:	bc1c      	pop	{r2, r3, r4}
10000992:	4690      	mov	r8, r2
10000994:	4699      	mov	r9, r3
10000996:	46a2      	mov	sl, r4
10000998:	bdf0      	pop	{r4, r5, r6, r7, pc}
1000099a:	4a0b      	ldr	r2, [pc, #44]	; (100009c8 <hardware_alarm_irq_handler+0xb4>)
1000099c:	009b      	lsls	r3, r3, #2
1000099e:	4690      	mov	r8, r2
100009a0:	4443      	add	r3, r8
100009a2:	681a      	ldr	r2, [r3, #0]
100009a4:	601a      	str	r2, [r3, #0]
100009a6:	f3bf 8f5f 	dmb	sy
100009aa:	2300      	movs	r3, #0
100009ac:	602b      	str	r3, [r5, #0]
100009ae:	f38c 8810 	msr	PRIMASK, ip
100009b2:	e7ed      	b.n	10000990 <hardware_alarm_irq_handler+0x7c>
100009b4:	d0000128 	.word	0xd0000128
100009b8:	40054000 	.word	0x40054000
100009bc:	20000b30 	.word	0x20000b30
100009c0:	20000b1c 	.word	0x20000b1c
100009c4:	20000ac0 	.word	0x20000ac0
100009c8:	40053fd0 	.word	0x40053fd0

100009cc <hardware_alarm_claim>:
100009cc:	b510      	push	{r4, lr}
100009ce:	0001      	movs	r1, r0
100009d0:	4a02      	ldr	r2, [pc, #8]	; (100009dc <hardware_alarm_claim+0x10>)
100009d2:	4803      	ldr	r0, [pc, #12]	; (100009e0 <hardware_alarm_claim+0x14>)
100009d4:	f7ff fd04 	bl	100003e0 <hw_claim_or_assert>
100009d8:	bd10      	pop	{r4, pc}
100009da:	46c0      	nop			; (mov r8, r8)
100009dc:	10004dc0 	.word	0x10004dc0
100009e0:	20000b2d 	.word	0x20000b2d

100009e4 <time_us_64>:
100009e4:	4b03      	ldr	r3, [pc, #12]	; (100009f4 <time_us_64+0x10>)
100009e6:	6a59      	ldr	r1, [r3, #36]	; 0x24
100009e8:	000a      	movs	r2, r1
100009ea:	6a98      	ldr	r0, [r3, #40]	; 0x28
100009ec:	6a59      	ldr	r1, [r3, #36]	; 0x24
100009ee:	428a      	cmp	r2, r1
100009f0:	d1fa      	bne.n	100009e8 <time_us_64+0x4>
100009f2:	4770      	bx	lr
100009f4:	40054000 	.word	0x40054000

100009f8 <hardware_alarm_set_callback>:
100009f8:	b570      	push	{r4, r5, r6, lr}
100009fa:	0004      	movs	r4, r0
100009fc:	000d      	movs	r5, r1
100009fe:	f3ef 8610 	mrs	r6, PRIMASK
10000a02:	b672      	cpsid	i
10000a04:	4a1a      	ldr	r2, [pc, #104]	; (10000a70 <hardware_alarm_set_callback+0x78>)
10000a06:	6813      	ldr	r3, [r2, #0]
10000a08:	2b00      	cmp	r3, #0
10000a0a:	d0fc      	beq.n	10000a06 <hardware_alarm_set_callback+0xe>
10000a0c:	f3bf 8f5f 	dmb	sy
10000a10:	2d00      	cmp	r5, #0
10000a12:	d01b      	beq.n	10000a4c <hardware_alarm_set_callback+0x54>
10000a14:	0020      	movs	r0, r4
10000a16:	f000 fd77 	bl	10001508 <irq_get_vtable_handler>
10000a1a:	4916      	ldr	r1, [pc, #88]	; (10000a74 <hardware_alarm_set_callback+0x7c>)
10000a1c:	4281      	cmp	r1, r0
10000a1e:	d00a      	beq.n	10000a36 <hardware_alarm_set_callback+0x3e>
10000a20:	0020      	movs	r0, r4
10000a22:	f000 fd79 	bl	10001518 <irq_set_exclusive_handler>
10000a26:	2101      	movs	r1, #1
10000a28:	0020      	movs	r0, r4
10000a2a:	f000 fd5b 	bl	100014e4 <irq_set_enabled>
10000a2e:	2301      	movs	r3, #1
10000a30:	40a3      	lsls	r3, r4
10000a32:	4a11      	ldr	r2, [pc, #68]	; (10000a78 <hardware_alarm_set_callback+0x80>)
10000a34:	6013      	str	r3, [r2, #0]
10000a36:	4b11      	ldr	r3, [pc, #68]	; (10000a7c <hardware_alarm_set_callback+0x84>)
10000a38:	00a4      	lsls	r4, r4, #2
10000a3a:	50e5      	str	r5, [r4, r3]
10000a3c:	f3bf 8f5f 	dmb	sy
10000a40:	2200      	movs	r2, #0
10000a42:	4b0b      	ldr	r3, [pc, #44]	; (10000a70 <hardware_alarm_set_callback+0x78>)
10000a44:	601a      	str	r2, [r3, #0]
10000a46:	f386 8810 	msr	PRIMASK, r6
10000a4a:	bd70      	pop	{r4, r5, r6, pc}
10000a4c:	4b0b      	ldr	r3, [pc, #44]	; (10000a7c <hardware_alarm_set_callback+0x84>)
10000a4e:	00a2      	lsls	r2, r4, #2
10000a50:	50d5      	str	r5, [r2, r3]
10000a52:	2201      	movs	r2, #1
10000a54:	40a2      	lsls	r2, r4
10000a56:	490a      	ldr	r1, [pc, #40]	; (10000a80 <hardware_alarm_set_callback+0x88>)
10000a58:	0020      	movs	r0, r4
10000a5a:	780b      	ldrb	r3, [r1, #0]
10000a5c:	4393      	bics	r3, r2
10000a5e:	700b      	strb	r3, [r1, #0]
10000a60:	4904      	ldr	r1, [pc, #16]	; (10000a74 <hardware_alarm_set_callback+0x7c>)
10000a62:	f000 fd83 	bl	1000156c <irq_remove_handler>
10000a66:	2100      	movs	r1, #0
10000a68:	0020      	movs	r0, r4
10000a6a:	f000 fd3b 	bl	100014e4 <irq_set_enabled>
10000a6e:	e7e5      	b.n	10000a3c <hardware_alarm_set_callback+0x44>
10000a70:	d0000128 	.word	0xd0000128
10000a74:	10000915 	.word	0x10000915
10000a78:	40056038 	.word	0x40056038
10000a7c:	20000ac0 	.word	0x20000ac0
10000a80:	20000b30 	.word	0x20000b30

10000a84 <hardware_alarm_set_target>:
10000a84:	b5f0      	push	{r4, r5, r6, r7, lr}
10000a86:	46ce      	mov	lr, r9
10000a88:	4647      	mov	r7, r8
10000a8a:	b580      	push	{r7, lr}
10000a8c:	4c2a      	ldr	r4, [pc, #168]	; (10000b38 <hardware_alarm_set_target+0xb4>)
10000a8e:	6a61      	ldr	r1, [r4, #36]	; 0x24
10000a90:	000d      	movs	r5, r1
10000a92:	6aa6      	ldr	r6, [r4, #40]	; 0x28
10000a94:	6a61      	ldr	r1, [r4, #36]	; 0x24
10000a96:	42a9      	cmp	r1, r5
10000a98:	d1fa      	bne.n	10000a90 <hardware_alarm_set_target+0xc>
10000a9a:	428b      	cmp	r3, r1
10000a9c:	d807      	bhi.n	10000aae <hardware_alarm_set_target+0x2a>
10000a9e:	d004      	beq.n	10000aaa <hardware_alarm_set_target+0x26>
10000aa0:	2001      	movs	r0, #1
10000aa2:	bc0c      	pop	{r2, r3}
10000aa4:	4690      	mov	r8, r2
10000aa6:	4699      	mov	r9, r3
10000aa8:	bdf0      	pop	{r4, r5, r6, r7, pc}
10000aaa:	42b2      	cmp	r2, r6
10000aac:	d9f8      	bls.n	10000aa0 <hardware_alarm_set_target+0x1c>
10000aae:	f3ef 8810 	mrs	r8, PRIMASK
10000ab2:	b672      	cpsid	i
10000ab4:	4c21      	ldr	r4, [pc, #132]	; (10000b3c <hardware_alarm_set_target+0xb8>)
10000ab6:	6821      	ldr	r1, [r4, #0]
10000ab8:	2900      	cmp	r1, #0
10000aba:	d0fc      	beq.n	10000ab6 <hardware_alarm_set_target+0x32>
10000abc:	f3bf 8f5f 	dmb	sy
10000ac0:	2501      	movs	r5, #1
10000ac2:	4085      	lsls	r5, r0
10000ac4:	4c1c      	ldr	r4, [pc, #112]	; (10000b38 <hardware_alarm_set_target+0xb4>)
10000ac6:	4e1e      	ldr	r6, [pc, #120]	; (10000b40 <hardware_alarm_set_target+0xbc>)
10000ac8:	6365      	str	r5, [r4, #52]	; 0x34
10000aca:	b2e9      	uxtb	r1, r5
10000acc:	468c      	mov	ip, r1
10000ace:	7831      	ldrb	r1, [r6, #0]
10000ad0:	4689      	mov	r9, r1
10000ad2:	4661      	mov	r1, ip
10000ad4:	464f      	mov	r7, r9
10000ad6:	4339      	orrs	r1, r7
10000ad8:	7031      	strb	r1, [r6, #0]
10000ada:	1d01      	adds	r1, r0, #4
10000adc:	0089      	lsls	r1, r1, #2
10000ade:	510a      	str	r2, [r1, r4]
10000ae0:	4918      	ldr	r1, [pc, #96]	; (10000b44 <hardware_alarm_set_target+0xc0>)
10000ae2:	0080      	lsls	r0, r0, #2
10000ae4:	5043      	str	r3, [r0, r1]
10000ae6:	6a21      	ldr	r1, [r4, #32]
10000ae8:	2000      	movs	r0, #0
10000aea:	4229      	tst	r1, r5
10000aec:	d00c      	beq.n	10000b08 <hardware_alarm_set_target+0x84>
10000aee:	0020      	movs	r0, r4
10000af0:	6a61      	ldr	r1, [r4, #36]	; 0x24
10000af2:	000c      	movs	r4, r1
10000af4:	6a87      	ldr	r7, [r0, #40]	; 0x28
10000af6:	6a41      	ldr	r1, [r0, #36]	; 0x24
10000af8:	42a1      	cmp	r1, r4
10000afa:	d1fa      	bne.n	10000af2 <hardware_alarm_set_target+0x6e>
10000afc:	428b      	cmp	r3, r1
10000afe:	d802      	bhi.n	10000b06 <hardware_alarm_set_target+0x82>
10000b00:	d10a      	bne.n	10000b18 <hardware_alarm_set_target+0x94>
10000b02:	42ba      	cmp	r2, r7
10000b04:	d908      	bls.n	10000b18 <hardware_alarm_set_target+0x94>
10000b06:	2000      	movs	r0, #0
10000b08:	f3bf 8f5f 	dmb	sy
10000b0c:	2200      	movs	r2, #0
10000b0e:	4b0b      	ldr	r3, [pc, #44]	; (10000b3c <hardware_alarm_set_target+0xb8>)
10000b10:	601a      	str	r2, [r3, #0]
10000b12:	f388 8810 	msr	PRIMASK, r8
10000b16:	e7c4      	b.n	10000aa2 <hardware_alarm_set_target+0x1e>
10000b18:	4b07      	ldr	r3, [pc, #28]	; (10000b38 <hardware_alarm_set_target+0xb4>)
10000b1a:	464f      	mov	r7, r9
10000b1c:	621d      	str	r5, [r3, #32]
10000b1e:	635d      	str	r5, [r3, #52]	; 0x34
10000b20:	4663      	mov	r3, ip
10000b22:	439f      	bics	r7, r3
10000b24:	2001      	movs	r0, #1
10000b26:	7037      	strb	r7, [r6, #0]
10000b28:	f3bf 8f5f 	dmb	sy
10000b2c:	2200      	movs	r2, #0
10000b2e:	4b03      	ldr	r3, [pc, #12]	; (10000b3c <hardware_alarm_set_target+0xb8>)
10000b30:	601a      	str	r2, [r3, #0]
10000b32:	f388 8810 	msr	PRIMASK, r8
10000b36:	e7b4      	b.n	10000aa2 <hardware_alarm_set_target+0x1e>
10000b38:	40054000 	.word	0x40054000
10000b3c:	d0000128 	.word	0xd0000128
10000b40:	20000b30 	.word	0x20000b30
10000b44:	20000b1c 	.word	0x20000b1c

10000b48 <hardware_alarm_cancel>:
10000b48:	b510      	push	{r4, lr}
10000b4a:	f3ef 8410 	mrs	r4, PRIMASK
10000b4e:	b672      	cpsid	i
10000b50:	490a      	ldr	r1, [pc, #40]	; (10000b7c <hardware_alarm_cancel+0x34>)
10000b52:	680b      	ldr	r3, [r1, #0]
10000b54:	2b00      	cmp	r3, #0
10000b56:	d0fc      	beq.n	10000b52 <hardware_alarm_cancel+0xa>
10000b58:	f3bf 8f5f 	dmb	sy
10000b5c:	2301      	movs	r3, #1
10000b5e:	4083      	lsls	r3, r0
10000b60:	4a07      	ldr	r2, [pc, #28]	; (10000b80 <hardware_alarm_cancel+0x38>)
10000b62:	4808      	ldr	r0, [pc, #32]	; (10000b84 <hardware_alarm_cancel+0x3c>)
10000b64:	6213      	str	r3, [r2, #32]
10000b66:	7802      	ldrb	r2, [r0, #0]
10000b68:	439a      	bics	r2, r3
10000b6a:	7002      	strb	r2, [r0, #0]
10000b6c:	f3bf 8f5f 	dmb	sy
10000b70:	2300      	movs	r3, #0
10000b72:	600b      	str	r3, [r1, #0]
10000b74:	f384 8810 	msr	PRIMASK, r4
10000b78:	bd10      	pop	{r4, pc}
10000b7a:	46c0      	nop			; (mov r8, r8)
10000b7c:	d0000128 	.word	0xd0000128
10000b80:	40054000 	.word	0x40054000
10000b84:	20000b30 	.word	0x20000b30

10000b88 <lock_init>:
10000b88:	4b02      	ldr	r3, [pc, #8]	; (10000b94 <lock_init+0xc>)
10000b8a:	469c      	mov	ip, r3
10000b8c:	4461      	add	r1, ip
10000b8e:	0089      	lsls	r1, r1, #2
10000b90:	6001      	str	r1, [r0, #0]
10000b92:	4770      	bx	lr
10000b94:	34000040 	.word	0x34000040

10000b98 <mutex_init>:
10000b98:	b510      	push	{r4, lr}
10000b9a:	0004      	movs	r4, r0
10000b9c:	f7ff fc5e 	bl	1000045c <next_striped_spin_lock_num>
10000ba0:	0001      	movs	r1, r0
10000ba2:	0020      	movs	r0, r4
10000ba4:	f7ff fff0 	bl	10000b88 <lock_init>
10000ba8:	f3bf 8f5f 	dmb	sy
10000bac:	bd10      	pop	{r4, pc}
10000bae:	46c0      	nop			; (mov r8, r8)

10000bb0 <datetime_to_str>:
10000bb0:	2304      	movs	r3, #4
10000bb2:	b530      	push	{r4, r5, lr}
10000bb4:	56d3      	ldrsb	r3, [r2, r3]
10000bb6:	4c0f      	ldr	r4, [pc, #60]	; (10000bf4 <datetime_to_str+0x44>)
10000bb8:	009b      	lsls	r3, r3, #2
10000bba:	591b      	ldr	r3, [r3, r4]
10000bbc:	2500      	movs	r5, #0
10000bbe:	5f54      	ldrsh	r4, [r2, r5]
10000bc0:	b087      	sub	sp, #28
10000bc2:	9405      	str	r4, [sp, #20]
10000bc4:	2407      	movs	r4, #7
10000bc6:	5714      	ldrsb	r4, [r2, r4]
10000bc8:	4d0b      	ldr	r5, [pc, #44]	; (10000bf8 <datetime_to_str+0x48>)
10000bca:	9404      	str	r4, [sp, #16]
10000bcc:	2406      	movs	r4, #6
10000bce:	5714      	ldrsb	r4, [r2, r4]
10000bd0:	9403      	str	r4, [sp, #12]
10000bd2:	2405      	movs	r4, #5
10000bd4:	5714      	ldrsb	r4, [r2, r4]
10000bd6:	9402      	str	r4, [sp, #8]
10000bd8:	2402      	movs	r4, #2
10000bda:	5714      	ldrsb	r4, [r2, r4]
10000bdc:	3c01      	subs	r4, #1
10000bde:	00a4      	lsls	r4, r4, #2
10000be0:	5964      	ldr	r4, [r4, r5]
10000be2:	9401      	str	r4, [sp, #4]
10000be4:	78d2      	ldrb	r2, [r2, #3]
10000be6:	b252      	sxtb	r2, r2
10000be8:	9200      	str	r2, [sp, #0]
10000bea:	4a04      	ldr	r2, [pc, #16]	; (10000bfc <datetime_to_str+0x4c>)
10000bec:	f002 f91a 	bl	10002e24 <__wrap_snprintf>
10000bf0:	b007      	add	sp, #28
10000bf2:	bd30      	pop	{r4, r5, pc}
10000bf4:	10004eb0 	.word	0x10004eb0
10000bf8:	10004ecc 	.word	0x10004ecc
10000bfc:	10004de4 	.word	0x10004de4

10000c00 <ph_merge_nodes>:
10000c00:	b570      	push	{r4, r5, r6, lr}
10000c02:	0005      	movs	r5, r0
10000c04:	000e      	movs	r6, r1
10000c06:	0014      	movs	r4, r2
10000c08:	2900      	cmp	r1, #0
10000c0a:	d024      	beq.n	10000c56 <ph_merge_nodes+0x56>
10000c0c:	2a00      	cmp	r2, #0
10000c0e:	d024      	beq.n	10000c5a <ph_merge_nodes+0x5a>
10000c10:	6880      	ldr	r0, [r0, #8]
10000c12:	686b      	ldr	r3, [r5, #4]
10000c14:	4798      	blx	r3
10000c16:	6829      	ldr	r1, [r5, #0]
10000c18:	2800      	cmp	r0, #0
10000c1a:	d00e      	beq.n	10000c3a <ph_merge_nodes+0x3a>
10000c1c:	0063      	lsls	r3, r4, #1
10000c1e:	191b      	adds	r3, r3, r4
10000c20:	0072      	lsls	r2, r6, #1
10000c22:	3b03      	subs	r3, #3
10000c24:	1992      	adds	r2, r2, r6
10000c26:	18cb      	adds	r3, r1, r3
10000c28:	3a03      	subs	r2, #3
10000c2a:	709e      	strb	r6, [r3, #2]
10000c2c:	1888      	adds	r0, r1, r2
10000c2e:	5c8a      	ldrb	r2, [r1, r2]
10000c30:	2a00      	cmp	r2, #0
10000c32:	d114      	bne.n	10000c5e <ph_merge_nodes+0x5e>
10000c34:	7004      	strb	r4, [r0, #0]
10000c36:	0030      	movs	r0, r6
10000c38:	e00e      	b.n	10000c58 <ph_merge_nodes+0x58>
10000c3a:	0073      	lsls	r3, r6, #1
10000c3c:	199b      	adds	r3, r3, r6
10000c3e:	0062      	lsls	r2, r4, #1
10000c40:	3b03      	subs	r3, #3
10000c42:	1912      	adds	r2, r2, r4
10000c44:	18cb      	adds	r3, r1, r3
10000c46:	3a03      	subs	r2, #3
10000c48:	709c      	strb	r4, [r3, #2]
10000c4a:	1888      	adds	r0, r1, r2
10000c4c:	5c8a      	ldrb	r2, [r1, r2]
10000c4e:	2a00      	cmp	r2, #0
10000c50:	d000      	beq.n	10000c54 <ph_merge_nodes+0x54>
10000c52:	705a      	strb	r2, [r3, #1]
10000c54:	7006      	strb	r6, [r0, #0]
10000c56:	0020      	movs	r0, r4
10000c58:	bd70      	pop	{r4, r5, r6, pc}
10000c5a:	0008      	movs	r0, r1
10000c5c:	e7fc      	b.n	10000c58 <ph_merge_nodes+0x58>
10000c5e:	705a      	strb	r2, [r3, #1]
10000c60:	7004      	strb	r4, [r0, #0]
10000c62:	0030      	movs	r0, r6
10000c64:	e7f8      	b.n	10000c58 <ph_merge_nodes+0x58>
10000c66:	46c0      	nop			; (mov r8, r8)

10000c68 <ph_create>:
10000c68:	b5f0      	push	{r4, r5, r6, r7, lr}
10000c6a:	46c6      	mov	lr, r8
10000c6c:	0005      	movs	r5, r0
10000c6e:	000f      	movs	r7, r1
10000c70:	b500      	push	{lr}
10000c72:	2110      	movs	r1, #16
10000c74:	2001      	movs	r0, #1
10000c76:	0016      	movs	r6, r2
10000c78:	f003 f818 	bl	10003cac <__wrap_calloc>
10000c7c:	b2eb      	uxtb	r3, r5
10000c7e:	0004      	movs	r4, r0
10000c80:	7303      	strb	r3, [r0, #12]
10000c82:	2103      	movs	r1, #3
10000c84:	6047      	str	r7, [r0, #4]
10000c86:	0028      	movs	r0, r5
10000c88:	4698      	mov	r8, r3
10000c8a:	f003 f80f 	bl	10003cac <__wrap_calloc>
10000c8e:	2300      	movs	r3, #0
10000c90:	7363      	strb	r3, [r4, #13]
10000c92:	3301      	adds	r3, #1
10000c94:	73a3      	strb	r3, [r4, #14]
10000c96:	4643      	mov	r3, r8
10000c98:	21ff      	movs	r1, #255	; 0xff
10000c9a:	73e3      	strb	r3, [r4, #15]
10000c9c:	23fe      	movs	r3, #254	; 0xfe
10000c9e:	6020      	str	r0, [r4, #0]
10000ca0:	60a6      	str	r6, [r4, #8]
10000ca2:	4029      	ands	r1, r5
10000ca4:	422b      	tst	r3, r5
10000ca6:	d006      	beq.n	10000cb6 <ph_create+0x4e>
10000ca8:	1c42      	adds	r2, r0, #1
10000caa:	3bfd      	subs	r3, #253	; 0xfd
10000cac:	3301      	adds	r3, #1
10000cae:	7013      	strb	r3, [r2, #0]
10000cb0:	3203      	adds	r2, #3
10000cb2:	428b      	cmp	r3, r1
10000cb4:	d3fa      	bcc.n	10000cac <ph_create+0x44>
10000cb6:	004b      	lsls	r3, r1, #1
10000cb8:	1859      	adds	r1, r3, r1
10000cba:	2300      	movs	r3, #0
10000cbc:	1840      	adds	r0, r0, r1
10000cbe:	3803      	subs	r0, #3
10000cc0:	7043      	strb	r3, [r0, #1]
10000cc2:	0020      	movs	r0, r4
10000cc4:	bc04      	pop	{r2}
10000cc6:	4690      	mov	r8, r2
10000cc8:	bdf0      	pop	{r4, r5, r6, r7, pc}
10000cca:	46c0      	nop			; (mov r8, r8)

10000ccc <ph_merge_two_pass>:
10000ccc:	b5f8      	push	{r3, r4, r5, r6, r7, lr}
10000cce:	46ce      	mov	lr, r9
10000cd0:	4647      	mov	r7, r8
10000cd2:	0006      	movs	r6, r0
10000cd4:	000c      	movs	r4, r1
10000cd6:	b580      	push	{r7, lr}
10000cd8:	2900      	cmp	r1, #0
10000cda:	d007      	beq.n	10000cec <ph_merge_two_pass+0x20>
10000cdc:	004d      	lsls	r5, r1, #1
10000cde:	6803      	ldr	r3, [r0, #0]
10000ce0:	186d      	adds	r5, r5, r1
10000ce2:	3d03      	subs	r5, #3
10000ce4:	195a      	adds	r2, r3, r5
10000ce6:	7857      	ldrb	r7, [r2, #1]
10000ce8:	2f00      	cmp	r7, #0
10000cea:	d104      	bne.n	10000cf6 <ph_merge_two_pass+0x2a>
10000cec:	0020      	movs	r0, r4
10000cee:	bc0c      	pop	{r2, r3}
10000cf0:	4690      	mov	r8, r2
10000cf2:	4699      	mov	r9, r3
10000cf4:	bdf8      	pop	{r3, r4, r5, r6, r7, pc}
10000cf6:	0079      	lsls	r1, r7, #1
10000cf8:	19c9      	adds	r1, r1, r7
10000cfa:	3903      	subs	r1, #3
10000cfc:	4688      	mov	r8, r1
10000cfe:	4443      	add	r3, r8
10000d00:	7859      	ldrb	r1, [r3, #1]
10000d02:	4689      	mov	r9, r1
10000d04:	2100      	movs	r1, #0
10000d06:	7059      	strb	r1, [r3, #1]
10000d08:	7051      	strb	r1, [r2, #1]
10000d0a:	6873      	ldr	r3, [r6, #4]
10000d0c:	003a      	movs	r2, r7
10000d0e:	0021      	movs	r1, r4
10000d10:	6880      	ldr	r0, [r0, #8]
10000d12:	4798      	blx	r3
10000d14:	6833      	ldr	r3, [r6, #0]
10000d16:	2800      	cmp	r0, #0
10000d18:	d014      	beq.n	10000d44 <ph_merge_two_pass+0x78>
10000d1a:	4642      	mov	r2, r8
10000d1c:	189a      	adds	r2, r3, r2
10000d1e:	7094      	strb	r4, [r2, #2]
10000d20:	1959      	adds	r1, r3, r5
10000d22:	5d5b      	ldrb	r3, [r3, r5]
10000d24:	2b00      	cmp	r3, #0
10000d26:	d000      	beq.n	10000d2a <ph_merge_two_pass+0x5e>
10000d28:	7053      	strb	r3, [r2, #1]
10000d2a:	700f      	strb	r7, [r1, #0]
10000d2c:	0027      	movs	r7, r4
10000d2e:	4649      	mov	r1, r9
10000d30:	0030      	movs	r0, r6
10000d32:	f7ff ffcb 	bl	10000ccc <ph_merge_two_pass>
10000d36:	0039      	movs	r1, r7
10000d38:	0002      	movs	r2, r0
10000d3a:	0030      	movs	r0, r6
10000d3c:	f7ff ff60 	bl	10000c00 <ph_merge_nodes>
10000d40:	0004      	movs	r4, r0
10000d42:	e7d3      	b.n	10000cec <ph_merge_two_pass+0x20>
10000d44:	4642      	mov	r2, r8
10000d46:	4641      	mov	r1, r8
10000d48:	195d      	adds	r5, r3, r5
10000d4a:	70af      	strb	r7, [r5, #2]
10000d4c:	189a      	adds	r2, r3, r2
10000d4e:	5c5b      	ldrb	r3, [r3, r1]
10000d50:	2b00      	cmp	r3, #0
10000d52:	d000      	beq.n	10000d56 <ph_merge_two_pass+0x8a>
10000d54:	706b      	strb	r3, [r5, #1]
10000d56:	7014      	strb	r4, [r2, #0]
10000d58:	e7e9      	b.n	10000d2e <ph_merge_two_pass+0x62>
10000d5a:	46c0      	nop			; (mov r8, r8)

10000d5c <ph_remove_any_head>:
10000d5c:	b5f0      	push	{r4, r5, r6, r7, lr}
10000d5e:	4657      	mov	r7, sl
10000d60:	4645      	mov	r5, r8
10000d62:	46de      	mov	lr, fp
10000d64:	464e      	mov	r6, r9
10000d66:	b5e0      	push	{r5, r6, r7, lr}
10000d68:	000d      	movs	r5, r1
10000d6a:	006b      	lsls	r3, r5, #1
10000d6c:	6801      	ldr	r1, [r0, #0]
10000d6e:	195b      	adds	r3, r3, r5
10000d70:	1edf      	subs	r7, r3, #3
10000d72:	0004      	movs	r4, r0
10000d74:	5dc8      	ldrb	r0, [r1, r7]
10000d76:	b083      	sub	sp, #12
10000d78:	9201      	str	r2, [sp, #4]
10000d7a:	19ca      	adds	r2, r1, r7
10000d7c:	2800      	cmp	r0, #0
10000d7e:	d04c      	beq.n	10000e1a <ph_remove_any_head+0xbe>
10000d80:	0043      	lsls	r3, r0, #1
10000d82:	181b      	adds	r3, r3, r0
10000d84:	3b03      	subs	r3, #3
10000d86:	18cb      	adds	r3, r1, r3
10000d88:	785e      	ldrb	r6, [r3, #1]
10000d8a:	46b4      	mov	ip, r6
10000d8c:	2e00      	cmp	r6, #0
10000d8e:	d116      	bne.n	10000dbe <ph_remove_any_head+0x62>
10000d90:	9e01      	ldr	r6, [sp, #4]
10000d92:	2e00      	cmp	r6, #0
10000d94:	d13e      	bne.n	10000e14 <ph_remove_any_head+0xb8>
10000d96:	7be6      	ldrb	r6, [r4, #15]
10000d98:	2e00      	cmp	r6, #0
10000d9a:	d004      	beq.n	10000da6 <ph_remove_any_head+0x4a>
10000d9c:	0073      	lsls	r3, r6, #1
10000d9e:	199b      	adds	r3, r3, r6
10000da0:	18cb      	adds	r3, r1, r3
10000da2:	3b03      	subs	r3, #3
10000da4:	705d      	strb	r5, [r3, #1]
10000da6:	73e5      	strb	r5, [r4, #15]
10000da8:	2800      	cmp	r0, #0
10000daa:	d12f      	bne.n	10000e0c <ph_remove_any_head+0xb0>
10000dac:	2300      	movs	r3, #0
10000dae:	7053      	strb	r3, [r2, #1]
10000db0:	b003      	add	sp, #12
10000db2:	bc3c      	pop	{r2, r3, r4, r5}
10000db4:	4690      	mov	r8, r2
10000db6:	4699      	mov	r9, r3
10000db8:	46a2      	mov	sl, r4
10000dba:	46ab      	mov	fp, r5
10000dbc:	bdf0      	pop	{r4, r5, r6, r7, pc}
10000dbe:	0072      	lsls	r2, r6, #1
10000dc0:	4462      	add	r2, ip
10000dc2:	3a03      	subs	r2, #3
10000dc4:	1889      	adds	r1, r1, r2
10000dc6:	784a      	ldrb	r2, [r1, #1]
10000dc8:	4690      	mov	r8, r2
10000dca:	2200      	movs	r2, #0
10000dcc:	704a      	strb	r2, [r1, #1]
10000dce:	4691      	mov	r9, r2
10000dd0:	705a      	strb	r2, [r3, #1]
10000dd2:	0001      	movs	r1, r0
10000dd4:	0032      	movs	r2, r6
10000dd6:	0020      	movs	r0, r4
10000dd8:	f7ff ff12 	bl	10000c00 <ph_merge_nodes>
10000ddc:	4643      	mov	r3, r8
10000dde:	4682      	mov	sl, r0
10000de0:	2b00      	cmp	r3, #0
10000de2:	d007      	beq.n	10000df4 <ph_remove_any_head+0x98>
10000de4:	005b      	lsls	r3, r3, #1
10000de6:	6821      	ldr	r1, [r4, #0]
10000de8:	4443      	add	r3, r8
10000dea:	3b03      	subs	r3, #3
10000dec:	18cb      	adds	r3, r1, r3
10000dee:	785a      	ldrb	r2, [r3, #1]
10000df0:	2a00      	cmp	r2, #0
10000df2:	d116      	bne.n	10000e22 <ph_remove_any_head+0xc6>
10000df4:	4642      	mov	r2, r8
10000df6:	4651      	mov	r1, sl
10000df8:	0020      	movs	r0, r4
10000dfa:	f7ff ff01 	bl	10000c00 <ph_merge_nodes>
10000dfe:	6821      	ldr	r1, [r4, #0]
10000e00:	9b01      	ldr	r3, [sp, #4]
10000e02:	19ca      	adds	r2, r1, r7
10000e04:	2b00      	cmp	r3, #0
10000e06:	d0c6      	beq.n	10000d96 <ph_remove_any_head+0x3a>
10000e08:	2800      	cmp	r0, #0
10000e0a:	d0cf      	beq.n	10000dac <ph_remove_any_head+0x50>
10000e0c:	0043      	lsls	r3, r0, #1
10000e0e:	181b      	adds	r3, r3, r0
10000e10:	3b03      	subs	r3, #3
10000e12:	18cb      	adds	r3, r1, r3
10000e14:	2100      	movs	r1, #0
10000e16:	7099      	strb	r1, [r3, #2]
10000e18:	e7c8      	b.n	10000dac <ph_remove_any_head+0x50>
10000e1a:	9b01      	ldr	r3, [sp, #4]
10000e1c:	2b00      	cmp	r3, #0
10000e1e:	d1c5      	bne.n	10000dac <ph_remove_any_head+0x50>
10000e20:	e7b9      	b.n	10000d96 <ph_remove_any_head+0x3a>
10000e22:	0050      	lsls	r0, r2, #1
10000e24:	1880      	adds	r0, r0, r2
10000e26:	3803      	subs	r0, #3
10000e28:	1809      	adds	r1, r1, r0
10000e2a:	7848      	ldrb	r0, [r1, #1]
10000e2c:	4683      	mov	fp, r0
10000e2e:	4648      	mov	r0, r9
10000e30:	7048      	strb	r0, [r1, #1]
10000e32:	7058      	strb	r0, [r3, #1]
10000e34:	4641      	mov	r1, r8
10000e36:	0020      	movs	r0, r4
10000e38:	f7ff fee2 	bl	10000c00 <ph_merge_nodes>
10000e3c:	4659      	mov	r1, fp
10000e3e:	4680      	mov	r8, r0
10000e40:	0020      	movs	r0, r4
10000e42:	f7ff ff43 	bl	10000ccc <ph_merge_two_pass>
10000e46:	4641      	mov	r1, r8
10000e48:	0002      	movs	r2, r0
10000e4a:	0020      	movs	r0, r4
10000e4c:	f7ff fed8 	bl	10000c00 <ph_merge_nodes>
10000e50:	4680      	mov	r8, r0
10000e52:	e7cf      	b.n	10000df4 <ph_remove_any_head+0x98>

10000e54 <ph_remove_head_reserve>:
10000e54:	b5f0      	push	{r4, r5, r6, r7, lr}
10000e56:	464e      	mov	r6, r9
10000e58:	4645      	mov	r5, r8
10000e5a:	46de      	mov	lr, fp
10000e5c:	4657      	mov	r7, sl
10000e5e:	b5e0      	push	{r5, r6, r7, lr}
10000e60:	7b46      	ldrb	r6, [r0, #13]
10000e62:	0004      	movs	r4, r0
10000e64:	0075      	lsls	r5, r6, #1
10000e66:	6800      	ldr	r0, [r0, #0]
10000e68:	19ad      	adds	r5, r5, r6
10000e6a:	3d03      	subs	r5, #3
10000e6c:	b083      	sub	sp, #12
10000e6e:	9101      	str	r1, [sp, #4]
10000e70:	5d41      	ldrb	r1, [r0, r5]
10000e72:	1942      	adds	r2, r0, r5
10000e74:	2900      	cmp	r1, #0
10000e76:	d04e      	beq.n	10000f16 <ph_remove_head_reserve+0xc2>
10000e78:	004b      	lsls	r3, r1, #1
10000e7a:	185b      	adds	r3, r3, r1
10000e7c:	3b03      	subs	r3, #3
10000e7e:	18c3      	adds	r3, r0, r3
10000e80:	785f      	ldrb	r7, [r3, #1]
10000e82:	46bc      	mov	ip, r7
10000e84:	2f00      	cmp	r7, #0
10000e86:	d118      	bne.n	10000eba <ph_remove_head_reserve+0x66>
10000e88:	9d01      	ldr	r5, [sp, #4]
10000e8a:	2d00      	cmp	r5, #0
10000e8c:	d140      	bne.n	10000f10 <ph_remove_head_reserve+0xbc>
10000e8e:	7be5      	ldrb	r5, [r4, #15]
10000e90:	2d00      	cmp	r5, #0
10000e92:	d004      	beq.n	10000e9e <ph_remove_head_reserve+0x4a>
10000e94:	006b      	lsls	r3, r5, #1
10000e96:	195b      	adds	r3, r3, r5
10000e98:	18c3      	adds	r3, r0, r3
10000e9a:	3b03      	subs	r3, #3
10000e9c:	705e      	strb	r6, [r3, #1]
10000e9e:	73e6      	strb	r6, [r4, #15]
10000ea0:	2900      	cmp	r1, #0
10000ea2:	d131      	bne.n	10000f08 <ph_remove_head_reserve+0xb4>
10000ea4:	2300      	movs	r3, #0
10000ea6:	0030      	movs	r0, r6
10000ea8:	7053      	strb	r3, [r2, #1]
10000eaa:	7361      	strb	r1, [r4, #13]
10000eac:	b003      	add	sp, #12
10000eae:	bc3c      	pop	{r2, r3, r4, r5}
10000eb0:	4690      	mov	r8, r2
10000eb2:	4699      	mov	r9, r3
10000eb4:	46a2      	mov	sl, r4
10000eb6:	46ab      	mov	fp, r5
10000eb8:	bdf0      	pop	{r4, r5, r6, r7, pc}
10000eba:	007a      	lsls	r2, r7, #1
10000ebc:	4462      	add	r2, ip
10000ebe:	3a03      	subs	r2, #3
10000ec0:	1880      	adds	r0, r0, r2
10000ec2:	7842      	ldrb	r2, [r0, #1]
10000ec4:	4693      	mov	fp, r2
10000ec6:	2200      	movs	r2, #0
10000ec8:	7042      	strb	r2, [r0, #1]
10000eca:	4691      	mov	r9, r2
10000ecc:	705a      	strb	r2, [r3, #1]
10000ece:	0020      	movs	r0, r4
10000ed0:	003a      	movs	r2, r7
10000ed2:	f7ff fe95 	bl	10000c00 <ph_merge_nodes>
10000ed6:	465b      	mov	r3, fp
10000ed8:	4680      	mov	r8, r0
10000eda:	2b00      	cmp	r3, #0
10000edc:	d007      	beq.n	10000eee <ph_remove_head_reserve+0x9a>
10000ede:	005b      	lsls	r3, r3, #1
10000ee0:	6821      	ldr	r1, [r4, #0]
10000ee2:	445b      	add	r3, fp
10000ee4:	3b03      	subs	r3, #3
10000ee6:	18cb      	adds	r3, r1, r3
10000ee8:	785a      	ldrb	r2, [r3, #1]
10000eea:	2a00      	cmp	r2, #0
10000eec:	d117      	bne.n	10000f1e <ph_remove_head_reserve+0xca>
10000eee:	465a      	mov	r2, fp
10000ef0:	4641      	mov	r1, r8
10000ef2:	0020      	movs	r0, r4
10000ef4:	f7ff fe84 	bl	10000c00 <ph_merge_nodes>
10000ef8:	9b01      	ldr	r3, [sp, #4]
10000efa:	0001      	movs	r1, r0
10000efc:	6820      	ldr	r0, [r4, #0]
10000efe:	1942      	adds	r2, r0, r5
10000f00:	2b00      	cmp	r3, #0
10000f02:	d0c4      	beq.n	10000e8e <ph_remove_head_reserve+0x3a>
10000f04:	2900      	cmp	r1, #0
10000f06:	d0cd      	beq.n	10000ea4 <ph_remove_head_reserve+0x50>
10000f08:	004b      	lsls	r3, r1, #1
10000f0a:	185b      	adds	r3, r3, r1
10000f0c:	3b03      	subs	r3, #3
10000f0e:	18c3      	adds	r3, r0, r3
10000f10:	2000      	movs	r0, #0
10000f12:	7098      	strb	r0, [r3, #2]
10000f14:	e7c6      	b.n	10000ea4 <ph_remove_head_reserve+0x50>
10000f16:	9b01      	ldr	r3, [sp, #4]
10000f18:	2b00      	cmp	r3, #0
10000f1a:	d1c3      	bne.n	10000ea4 <ph_remove_head_reserve+0x50>
10000f1c:	e7b7      	b.n	10000e8e <ph_remove_head_reserve+0x3a>
10000f1e:	0050      	lsls	r0, r2, #1
10000f20:	1880      	adds	r0, r0, r2
10000f22:	3803      	subs	r0, #3
10000f24:	1809      	adds	r1, r1, r0
10000f26:	7848      	ldrb	r0, [r1, #1]
10000f28:	4682      	mov	sl, r0
10000f2a:	4648      	mov	r0, r9
10000f2c:	7048      	strb	r0, [r1, #1]
10000f2e:	7058      	strb	r0, [r3, #1]
10000f30:	4659      	mov	r1, fp
10000f32:	0020      	movs	r0, r4
10000f34:	f7ff fe64 	bl	10000c00 <ph_merge_nodes>
10000f38:	4653      	mov	r3, sl
10000f3a:	4683      	mov	fp, r0
10000f3c:	2b00      	cmp	r3, #0
10000f3e:	d007      	beq.n	10000f50 <ph_remove_head_reserve+0xfc>
10000f40:	005b      	lsls	r3, r3, #1
10000f42:	6821      	ldr	r1, [r4, #0]
10000f44:	4453      	add	r3, sl
10000f46:	3b03      	subs	r3, #3
10000f48:	18cb      	adds	r3, r1, r3
10000f4a:	785a      	ldrb	r2, [r3, #1]
10000f4c:	2a00      	cmp	r2, #0
10000f4e:	d106      	bne.n	10000f5e <ph_remove_head_reserve+0x10a>
10000f50:	4659      	mov	r1, fp
10000f52:	4652      	mov	r2, sl
10000f54:	0020      	movs	r0, r4
10000f56:	f7ff fe53 	bl	10000c00 <ph_merge_nodes>
10000f5a:	4683      	mov	fp, r0
10000f5c:	e7c7      	b.n	10000eee <ph_remove_head_reserve+0x9a>
10000f5e:	0050      	lsls	r0, r2, #1
10000f60:	1880      	adds	r0, r0, r2
10000f62:	3803      	subs	r0, #3
10000f64:	1809      	adds	r1, r1, r0
10000f66:	4648      	mov	r0, r9
10000f68:	784f      	ldrb	r7, [r1, #1]
10000f6a:	7048      	strb	r0, [r1, #1]
10000f6c:	7058      	strb	r0, [r3, #1]
10000f6e:	4651      	mov	r1, sl
10000f70:	0020      	movs	r0, r4
10000f72:	f7ff fe45 	bl	10000c00 <ph_merge_nodes>
10000f76:	0039      	movs	r1, r7
10000f78:	4681      	mov	r9, r0
10000f7a:	0020      	movs	r0, r4
10000f7c:	f7ff fea6 	bl	10000ccc <ph_merge_two_pass>
10000f80:	4649      	mov	r1, r9
10000f82:	0002      	movs	r2, r0
10000f84:	0020      	movs	r0, r4
10000f86:	f7ff fe3b 	bl	10000c00 <ph_merge_nodes>
10000f8a:	4682      	mov	sl, r0
10000f8c:	e7e0      	b.n	10000f50 <ph_remove_head_reserve+0xfc>
10000f8e:	46c0      	nop			; (mov r8, r8)

10000f90 <ph_delete>:
10000f90:	b570      	push	{r4, r5, r6, lr}
10000f92:	0004      	movs	r4, r0
10000f94:	2900      	cmp	r1, #0
10000f96:	d02c      	beq.n	10000ff2 <ph_delete+0x62>
10000f98:	7b43      	ldrb	r3, [r0, #13]
10000f9a:	428b      	cmp	r3, r1
10000f9c:	d02e      	beq.n	10000ffc <ph_delete+0x6c>
10000f9e:	6805      	ldr	r5, [r0, #0]
10000fa0:	0048      	lsls	r0, r1, #1
10000fa2:	1840      	adds	r0, r0, r1
10000fa4:	3803      	subs	r0, #3
10000fa6:	1828      	adds	r0, r5, r0
10000fa8:	7882      	ldrb	r2, [r0, #2]
10000faa:	2a00      	cmp	r2, #0
10000fac:	d021      	beq.n	10000ff2 <ph_delete+0x62>
10000fae:	0053      	lsls	r3, r2, #1
10000fb0:	189b      	adds	r3, r3, r2
10000fb2:	3b03      	subs	r3, #3
10000fb4:	5cea      	ldrb	r2, [r5, r3]
10000fb6:	18ee      	adds	r6, r5, r3
10000fb8:	428a      	cmp	r2, r1
10000fba:	d102      	bne.n	10000fc2 <ph_delete+0x32>
10000fbc:	e01b      	b.n	10000ff6 <ph_delete+0x66>
10000fbe:	2a00      	cmp	r2, #0
10000fc0:	d008      	beq.n	10000fd4 <ph_delete+0x44>
10000fc2:	0053      	lsls	r3, r2, #1
10000fc4:	189b      	adds	r3, r3, r2
10000fc6:	3b03      	subs	r3, #3
10000fc8:	18eb      	adds	r3, r5, r3
10000fca:	785a      	ldrb	r2, [r3, #1]
10000fcc:	428a      	cmp	r2, r1
10000fce:	d1f6      	bne.n	10000fbe <ph_delete+0x2e>
10000fd0:	7842      	ldrb	r2, [r0, #1]
10000fd2:	705a      	strb	r2, [r3, #1]
10000fd4:	2300      	movs	r3, #0
10000fd6:	2200      	movs	r2, #0
10000fd8:	7083      	strb	r3, [r0, #2]
10000fda:	7043      	strb	r3, [r0, #1]
10000fdc:	0020      	movs	r0, r4
10000fde:	f7ff febd 	bl	10000d5c <ph_remove_any_head>
10000fe2:	7b61      	ldrb	r1, [r4, #13]
10000fe4:	0002      	movs	r2, r0
10000fe6:	0020      	movs	r0, r4
10000fe8:	f7ff fe0a 	bl	10000c00 <ph_merge_nodes>
10000fec:	7360      	strb	r0, [r4, #13]
10000fee:	2001      	movs	r0, #1
10000ff0:	e000      	b.n	10000ff4 <ph_delete+0x64>
10000ff2:	2000      	movs	r0, #0
10000ff4:	bd70      	pop	{r4, r5, r6, pc}
10000ff6:	7843      	ldrb	r3, [r0, #1]
10000ff8:	7033      	strb	r3, [r6, #0]
10000ffa:	e7eb      	b.n	10000fd4 <ph_delete+0x44>
10000ffc:	2200      	movs	r2, #0
10000ffe:	0019      	movs	r1, r3
10001000:	f7ff feac 	bl	10000d5c <ph_remove_any_head>
10001004:	7360      	strb	r0, [r4, #13]
10001006:	2001      	movs	r0, #1
10001008:	e7f4      	b.n	10000ff4 <ph_delete+0x64>
1000100a:	46c0      	nop			; (mov r8, r8)

1000100c <runtime_init>:
1000100c:	4b2b      	ldr	r3, [pc, #172]	; (100010bc <runtime_init+0xb0>)
1000100e:	4a2c      	ldr	r2, [pc, #176]	; (100010c0 <runtime_init+0xb4>)
10001010:	b570      	push	{r4, r5, r6, lr}
10001012:	601a      	str	r2, [r3, #0]
10001014:	4a2b      	ldr	r2, [pc, #172]	; (100010c4 <runtime_init+0xb8>)
10001016:	4b2c      	ldr	r3, [pc, #176]	; (100010c8 <runtime_init+0xbc>)
10001018:	492c      	ldr	r1, [pc, #176]	; (100010cc <runtime_init+0xc0>)
1000101a:	601a      	str	r2, [r3, #0]
1000101c:	0010      	movs	r0, r2
1000101e:	688b      	ldr	r3, [r1, #8]
10001020:	4398      	bics	r0, r3
10001022:	d1fb      	bne.n	1000101c <runtime_init+0x10>
10001024:	4c2a      	ldr	r4, [pc, #168]	; (100010d0 <runtime_init+0xc4>)
10001026:	4b2b      	ldr	r3, [pc, #172]	; (100010d4 <runtime_init+0xc8>)
10001028:	429c      	cmp	r4, r3
1000102a:	d209      	bcs.n	10001040 <runtime_init+0x34>
1000102c:	3b01      	subs	r3, #1
1000102e:	1b1d      	subs	r5, r3, r4
10001030:	08ad      	lsrs	r5, r5, #2
10001032:	3501      	adds	r5, #1
10001034:	00ad      	lsls	r5, r5, #2
10001036:	192d      	adds	r5, r5, r4
10001038:	cc08      	ldmia	r4!, {r3}
1000103a:	4798      	blx	r3
1000103c:	42ac      	cmp	r4, r5
1000103e:	d1fb      	bne.n	10001038 <runtime_init+0x2c>
10001040:	f000 f894 	bl	1000116c <clocks_init>
10001044:	4a24      	ldr	r2, [pc, #144]	; (100010d8 <runtime_init+0xcc>)
10001046:	4b20      	ldr	r3, [pc, #128]	; (100010c8 <runtime_init+0xbc>)
10001048:	601a      	str	r2, [r3, #0]
1000104a:	4a20      	ldr	r2, [pc, #128]	; (100010cc <runtime_init+0xc0>)
1000104c:	6893      	ldr	r3, [r2, #8]
1000104e:	01db      	lsls	r3, r3, #7
10001050:	3380      	adds	r3, #128	; 0x80
10001052:	d1fb      	bne.n	1000104c <runtime_init+0x40>
10001054:	2240      	movs	r2, #64	; 0x40
10001056:	4b21      	ldr	r3, [pc, #132]	; (100010dc <runtime_init+0xd0>)
10001058:	4c21      	ldr	r4, [pc, #132]	; (100010e0 <runtime_init+0xd4>)
1000105a:	679a      	str	r2, [r3, #120]	; 0x78
1000105c:	675a      	str	r2, [r3, #116]	; 0x74
1000105e:	671a      	str	r2, [r3, #112]	; 0x70
10001060:	66da      	str	r2, [r3, #108]	; 0x6c
10001062:	4b20      	ldr	r3, [pc, #128]	; (100010e4 <runtime_init+0xd8>)
10001064:	429c      	cmp	r4, r3
10001066:	d20b      	bcs.n	10001080 <runtime_init+0x74>
10001068:	3b01      	subs	r3, #1
1000106a:	1b1d      	subs	r5, r3, r4
1000106c:	08ed      	lsrs	r5, r5, #3
1000106e:	3501      	adds	r5, #1
10001070:	00ed      	lsls	r5, r5, #3
10001072:	192d      	adds	r5, r5, r4
10001074:	0020      	movs	r0, r4
10001076:	3408      	adds	r4, #8
10001078:	f7ff fd8e 	bl	10000b98 <mutex_init>
1000107c:	42ac      	cmp	r4, r5
1000107e:	d1f9      	bne.n	10001074 <runtime_init+0x68>
10001080:	4c19      	ldr	r4, [pc, #100]	; (100010e8 <runtime_init+0xdc>)
10001082:	4d1a      	ldr	r5, [pc, #104]	; (100010ec <runtime_init+0xe0>)
10001084:	68a1      	ldr	r1, [r4, #8]
10001086:	22c0      	movs	r2, #192	; 0xc0
10001088:	0028      	movs	r0, r5
1000108a:	f002 fe21 	bl	10003cd0 <__wrap___aeabi_memcpy>
1000108e:	60a5      	str	r5, [r4, #8]
10001090:	f7ff f9d6 	bl	10000440 <spin_locks_reset>
10001094:	f000 fbaa 	bl	100017ec <irq_init_priorities>
10001098:	f7ff fc00 	bl	1000089c <alarm_pool_init_default>
1000109c:	4c14      	ldr	r4, [pc, #80]	; (100010f0 <runtime_init+0xe4>)
1000109e:	4b15      	ldr	r3, [pc, #84]	; (100010f4 <runtime_init+0xe8>)
100010a0:	429c      	cmp	r4, r3
100010a2:	d209      	bcs.n	100010b8 <runtime_init+0xac>
100010a4:	3b01      	subs	r3, #1
100010a6:	1b1d      	subs	r5, r3, r4
100010a8:	08ad      	lsrs	r5, r5, #2
100010aa:	3501      	adds	r5, #1
100010ac:	00ad      	lsls	r5, r5, #2
100010ae:	192d      	adds	r5, r5, r4
100010b0:	cc08      	ldmia	r4!, {r3}
100010b2:	4798      	blx	r3
100010b4:	42a5      	cmp	r5, r4
100010b6:	d1fb      	bne.n	100010b0 <runtime_init+0xa4>
100010b8:	bd70      	pop	{r4, r5, r6, pc}
100010ba:	46c0      	nop			; (mov r8, r8)
100010bc:	4000e000 	.word	0x4000e000
100010c0:	ffffcdbf 	.word	0xffffcdbf
100010c4:	003c7ffe 	.word	0x003c7ffe
100010c8:	4000f000 	.word	0x4000f000
100010cc:	4000c000 	.word	0x4000c000
100010d0:	20000a58 	.word	0x20000a58
100010d4:	20000a68 	.word	0x20000a68
100010d8:	01ffffff 	.word	0x01ffffff
100010dc:	4001f000 	.word	0x4001f000
100010e0:	20000a50 	.word	0x20000a50
100010e4:	20000a58 	.word	0x20000a58
100010e8:	e000ed00 	.word	0xe000ed00
100010ec:	20000000 	.word	0x20000000
100010f0:	20000a68 	.word	0x20000a68
100010f4:	20000a6c 	.word	0x20000a6c

100010f8 <_sbrk>:
100010f8:	4a09      	ldr	r2, [pc, #36]	; (10001120 <_sbrk+0x28>)
100010fa:	0003      	movs	r3, r0
100010fc:	6810      	ldr	r0, [r2, #0]
100010fe:	2800      	cmp	r0, #0
10001100:	d005      	beq.n	1000110e <_sbrk+0x16>
10001102:	4908      	ldr	r1, [pc, #32]	; (10001124 <_sbrk+0x2c>)
10001104:	18c3      	adds	r3, r0, r3
10001106:	428b      	cmp	r3, r1
10001108:	d207      	bcs.n	1000111a <_sbrk+0x22>
1000110a:	6013      	str	r3, [r2, #0]
1000110c:	4770      	bx	lr
1000110e:	4806      	ldr	r0, [pc, #24]	; (10001128 <_sbrk+0x30>)
10001110:	4904      	ldr	r1, [pc, #16]	; (10001124 <_sbrk+0x2c>)
10001112:	18c3      	adds	r3, r0, r3
10001114:	6010      	str	r0, [r2, #0]
10001116:	428b      	cmp	r3, r1
10001118:	d3f7      	bcc.n	1000110a <_sbrk+0x12>
1000111a:	2001      	movs	r0, #1
1000111c:	4240      	negs	r0, r0
1000111e:	e7f5      	b.n	1000110c <_sbrk+0x14>
10001120:	20000b04 	.word	0x20000b04
10001124:	20040000 	.word	0x20040000
10001128:	20000d64 	.word	0x20000d64

1000112c <exit>:
1000112c:	be00      	bkpt	0x0000
1000112e:	e7fd      	b.n	1000112c <exit>

10001130 <panic>:
10001130:	b40f      	push	{r0, r1, r2, r3}
10001132:	b500      	push	{lr}
10001134:	4808      	ldr	r0, [pc, #32]	; (10001158 <panic+0x28>)
10001136:	b083      	sub	sp, #12
10001138:	f002 fedc 	bl	10003ef4 <__wrap_puts>
1000113c:	9b04      	ldr	r3, [sp, #16]
1000113e:	2b00      	cmp	r3, #0
10001140:	d007      	beq.n	10001152 <panic+0x22>
10001142:	a905      	add	r1, sp, #20
10001144:	0018      	movs	r0, r3
10001146:	9101      	str	r1, [sp, #4]
10001148:	f001 fe90 	bl	10002e6c <weak_raw_vprintf>
1000114c:	4803      	ldr	r0, [pc, #12]	; (1000115c <panic+0x2c>)
1000114e:	f002 fed1 	bl	10003ef4 <__wrap_puts>
10001152:	be00      	bkpt	0x0000
10001154:	e7fd      	b.n	10001152 <panic+0x22>
10001156:	46c0      	nop			; (mov r8, r8)
10001158:	10004efc 	.word	0x10004efc
1000115c:	10004f0c 	.word	0x10004f0c

10001160 <hard_assertion_failure>:
10001160:	b510      	push	{r4, lr}
10001162:	4801      	ldr	r0, [pc, #4]	; (10001168 <hard_assertion_failure+0x8>)
10001164:	f7ff ffe4 	bl	10001130 <panic>
10001168:	10004f10 	.word	0x10004f10

1000116c <clocks_init>:
1000116c:	b530      	push	{r4, r5, lr}
1000116e:	200c      	movs	r0, #12
10001170:	b083      	sub	sp, #12
10001172:	f000 f971 	bl	10001458 <watchdog_start_tick>
10001176:	f7ff f97d 	bl	10000474 <running_on_fpga>
1000117a:	2800      	cmp	r0, #0
1000117c:	d00e      	beq.n	1000119c <clocks_init+0x30>
1000117e:	4b9a      	ldr	r3, [pc, #616]	; (100013e8 <clocks_init+0x27c>)
10001180:	4a9a      	ldr	r2, [pc, #616]	; (100013ec <clocks_init+0x280>)
10001182:	601a      	str	r2, [r3, #0]
10001184:	605a      	str	r2, [r3, #4]
10001186:	609a      	str	r2, [r3, #8]
10001188:	60da      	str	r2, [r3, #12]
1000118a:	611a      	str	r2, [r3, #16]
1000118c:	615a      	str	r2, [r3, #20]
1000118e:	619a      	str	r2, [r3, #24]
10001190:	61da      	str	r2, [r3, #28]
10001192:	621a      	str	r2, [r3, #32]
10001194:	4a96      	ldr	r2, [pc, #600]	; (100013f0 <clocks_init+0x284>)
10001196:	625a      	str	r2, [r3, #36]	; 0x24
10001198:	b003      	add	sp, #12
1000119a:	bd30      	pop	{r4, r5, pc}
1000119c:	4c95      	ldr	r4, [pc, #596]	; (100013f4 <clocks_init+0x288>)
1000119e:	67a0      	str	r0, [r4, #120]	; 0x78
100011a0:	f000 f962 	bl	10001468 <xosc_init>
100011a4:	2201      	movs	r2, #1
100011a6:	4b94      	ldr	r3, [pc, #592]	; (100013f8 <clocks_init+0x28c>)
100011a8:	601a      	str	r2, [r3, #0]
100011aa:	6c63      	ldr	r3, [r4, #68]	; 0x44
100011ac:	2b01      	cmp	r3, #1
100011ae:	d1fc      	bne.n	100011aa <clocks_init+0x3e>
100011b0:	2203      	movs	r2, #3
100011b2:	4b92      	ldr	r3, [pc, #584]	; (100013fc <clocks_init+0x290>)
100011b4:	601a      	str	r2, [r3, #0]
100011b6:	4a8f      	ldr	r2, [pc, #572]	; (100013f4 <clocks_init+0x288>)
100011b8:	6b93      	ldr	r3, [r2, #56]	; 0x38
100011ba:	2b01      	cmp	r3, #1
100011bc:	d1fc      	bne.n	100011b8 <clocks_init+0x4c>
100011be:	22c0      	movs	r2, #192	; 0xc0
100011c0:	4b8f      	ldr	r3, [pc, #572]	; (10001400 <clocks_init+0x294>)
100011c2:	0192      	lsls	r2, r2, #6
100011c4:	601a      	str	r2, [r3, #0]
100011c6:	4b8f      	ldr	r3, [pc, #572]	; (10001404 <clocks_init+0x298>)
100011c8:	498f      	ldr	r1, [pc, #572]	; (10001408 <clocks_init+0x29c>)
100011ca:	601a      	str	r2, [r3, #0]
100011cc:	0010      	movs	r0, r2
100011ce:	688b      	ldr	r3, [r1, #8]
100011d0:	4398      	bics	r0, r3
100011d2:	1e03      	subs	r3, r0, #0
100011d4:	d1fa      	bne.n	100011cc <clocks_init+0x60>
100011d6:	2402      	movs	r4, #2
100011d8:	2101      	movs	r1, #1
100011da:	4a8c      	ldr	r2, [pc, #560]	; (1000140c <clocks_init+0x2a0>)
100011dc:	488c      	ldr	r0, [pc, #560]	; (10001410 <clocks_init+0x2a4>)
100011de:	3306      	adds	r3, #6
100011e0:	9400      	str	r4, [sp, #0]
100011e2:	f000 f955 	bl	10001490 <pll_init>
100011e6:	2305      	movs	r3, #5
100011e8:	4a8a      	ldr	r2, [pc, #552]	; (10001414 <clocks_init+0x2a8>)
100011ea:	2101      	movs	r1, #1
100011ec:	488a      	ldr	r0, [pc, #552]	; (10001418 <clocks_init+0x2ac>)
100011ee:	9400      	str	r4, [sp, #0]
100011f0:	f000 f94e 	bl	10001490 <pll_init>
100011f4:	4b89      	ldr	r3, [pc, #548]	; (1000141c <clocks_init+0x2b0>)
100011f6:	685a      	ldr	r2, [r3, #4]
100011f8:	2aff      	cmp	r2, #255	; 0xff
100011fa:	d802      	bhi.n	10001202 <clocks_init+0x96>
100011fc:	2280      	movs	r2, #128	; 0x80
100011fe:	0052      	lsls	r2, r2, #1
10001200:	605a      	str	r2, [r3, #4]
10001202:	2280      	movs	r2, #128	; 0x80
10001204:	4c78      	ldr	r4, [pc, #480]	; (100013e8 <clocks_init+0x27c>)
10001206:	4b7d      	ldr	r3, [pc, #500]	; (100013fc <clocks_init+0x290>)
10001208:	6921      	ldr	r1, [r4, #16]
1000120a:	0112      	lsls	r2, r2, #4
1000120c:	4d83      	ldr	r5, [pc, #524]	; (1000141c <clocks_init+0x2b0>)
1000120e:	601a      	str	r2, [r3, #0]
10001210:	2900      	cmp	r1, #0
10001212:	d005      	beq.n	10001220 <clocks_init+0xb4>
10001214:	6960      	ldr	r0, [r4, #20]
10001216:	f001 fea3 	bl	10002f60 <__wrap___aeabi_uidiv>
1000121a:	3001      	adds	r0, #1
1000121c:	3801      	subs	r0, #1
1000121e:	d1fd      	bne.n	1000121c <clocks_init+0xb0>
10001220:	21e0      	movs	r1, #224	; 0xe0
10001222:	4b7e      	ldr	r3, [pc, #504]	; (1000141c <clocks_init+0x2b0>)
10001224:	2002      	movs	r0, #2
10001226:	681a      	ldr	r2, [r3, #0]
10001228:	4011      	ands	r1, r2
1000122a:	2280      	movs	r2, #128	; 0x80
1000122c:	0152      	lsls	r2, r2, #5
1000122e:	432a      	orrs	r2, r5
10001230:	6011      	str	r1, [r2, #0]
10001232:	6819      	ldr	r1, [r3, #0]
10001234:	4048      	eors	r0, r1
10001236:	2103      	movs	r1, #3
10001238:	4001      	ands	r1, r0
1000123a:	6011      	str	r1, [r2, #0]
1000123c:	2104      	movs	r1, #4
1000123e:	689a      	ldr	r2, [r3, #8]
10001240:	4211      	tst	r1, r2
10001242:	d0fc      	beq.n	1000123e <clocks_init+0xd2>
10001244:	2280      	movs	r2, #128	; 0x80
10001246:	2180      	movs	r1, #128	; 0x80
10001248:	0192      	lsls	r2, r2, #6
1000124a:	432a      	orrs	r2, r5
1000124c:	0109      	lsls	r1, r1, #4
1000124e:	6011      	str	r1, [r2, #0]
10001250:	2280      	movs	r2, #128	; 0x80
10001252:	0052      	lsls	r2, r2, #1
10001254:	605a      	str	r2, [r3, #4]
10001256:	4b72      	ldr	r3, [pc, #456]	; (10001420 <clocks_init+0x2b4>)
10001258:	6123      	str	r3, [r4, #16]
1000125a:	4b72      	ldr	r3, [pc, #456]	; (10001424 <clocks_init+0x2b8>)
1000125c:	6859      	ldr	r1, [r3, #4]
1000125e:	29ff      	cmp	r1, #255	; 0xff
10001260:	d800      	bhi.n	10001264 <clocks_init+0xf8>
10001262:	605a      	str	r2, [r3, #4]
10001264:	2203      	movs	r2, #3
10001266:	486f      	ldr	r0, [pc, #444]	; (10001424 <clocks_init+0x2b8>)
10001268:	4b63      	ldr	r3, [pc, #396]	; (100013f8 <clocks_init+0x28c>)
1000126a:	2101      	movs	r1, #1
1000126c:	601a      	str	r2, [r3, #0]
1000126e:	0002      	movs	r2, r0
10001270:	6893      	ldr	r3, [r2, #8]
10001272:	4219      	tst	r1, r3
10001274:	d0fc      	beq.n	10001270 <clocks_init+0x104>
10001276:	25e0      	movs	r5, #224	; 0xe0
10001278:	6813      	ldr	r3, [r2, #0]
1000127a:	401d      	ands	r5, r3
1000127c:	2380      	movs	r3, #128	; 0x80
1000127e:	015b      	lsls	r3, r3, #5
10001280:	4303      	orrs	r3, r0
10001282:	601d      	str	r5, [r3, #0]
10001284:	6812      	ldr	r2, [r2, #0]
10001286:	404a      	eors	r2, r1
10001288:	2103      	movs	r1, #3
1000128a:	4011      	ands	r1, r2
1000128c:	6019      	str	r1, [r3, #0]
1000128e:	2102      	movs	r1, #2
10001290:	4a64      	ldr	r2, [pc, #400]	; (10001424 <clocks_init+0x2b8>)
10001292:	6893      	ldr	r3, [r2, #8]
10001294:	4219      	tst	r1, r3
10001296:	d0fc      	beq.n	10001292 <clocks_init+0x126>
10001298:	2380      	movs	r3, #128	; 0x80
1000129a:	2180      	movs	r1, #128	; 0x80
1000129c:	019b      	lsls	r3, r3, #6
1000129e:	4303      	orrs	r3, r0
100012a0:	0109      	lsls	r1, r1, #4
100012a2:	6019      	str	r1, [r3, #0]
100012a4:	2180      	movs	r1, #128	; 0x80
100012a6:	4b60      	ldr	r3, [pc, #384]	; (10001428 <clocks_init+0x2bc>)
100012a8:	0049      	lsls	r1, r1, #1
100012aa:	6051      	str	r1, [r2, #4]
100012ac:	6163      	str	r3, [r4, #20]
100012ae:	4b5f      	ldr	r3, [pc, #380]	; (1000142c <clocks_init+0x2c0>)
100012b0:	685a      	ldr	r2, [r3, #4]
100012b2:	2aff      	cmp	r2, #255	; 0xff
100012b4:	d800      	bhi.n	100012b8 <clocks_init+0x14c>
100012b6:	6059      	str	r1, [r3, #4]
100012b8:	2280      	movs	r2, #128	; 0x80
100012ba:	4b5d      	ldr	r3, [pc, #372]	; (10001430 <clocks_init+0x2c4>)
100012bc:	69e1      	ldr	r1, [r4, #28]
100012be:	0112      	lsls	r2, r2, #4
100012c0:	4d5a      	ldr	r5, [pc, #360]	; (1000142c <clocks_init+0x2c0>)
100012c2:	601a      	str	r2, [r3, #0]
100012c4:	2900      	cmp	r1, #0
100012c6:	d005      	beq.n	100012d4 <clocks_init+0x168>
100012c8:	6960      	ldr	r0, [r4, #20]
100012ca:	f001 fe49 	bl	10002f60 <__wrap___aeabi_uidiv>
100012ce:	3001      	adds	r0, #1
100012d0:	3801      	subs	r0, #1
100012d2:	d1fd      	bne.n	100012d0 <clocks_init+0x164>
100012d4:	22e0      	movs	r2, #224	; 0xe0
100012d6:	4955      	ldr	r1, [pc, #340]	; (1000142c <clocks_init+0x2c0>)
100012d8:	680b      	ldr	r3, [r1, #0]
100012da:	401a      	ands	r2, r3
100012dc:	2380      	movs	r3, #128	; 0x80
100012de:	015b      	lsls	r3, r3, #5
100012e0:	432b      	orrs	r3, r5
100012e2:	601a      	str	r2, [r3, #0]
100012e4:	2380      	movs	r3, #128	; 0x80
100012e6:	2280      	movs	r2, #128	; 0x80
100012e8:	019b      	lsls	r3, r3, #6
100012ea:	432b      	orrs	r3, r5
100012ec:	0112      	lsls	r2, r2, #4
100012ee:	601a      	str	r2, [r3, #0]
100012f0:	2280      	movs	r2, #128	; 0x80
100012f2:	4b3e      	ldr	r3, [pc, #248]	; (100013ec <clocks_init+0x280>)
100012f4:	0052      	lsls	r2, r2, #1
100012f6:	604a      	str	r2, [r1, #4]
100012f8:	61e3      	str	r3, [r4, #28]
100012fa:	4b4e      	ldr	r3, [pc, #312]	; (10001434 <clocks_init+0x2c8>)
100012fc:	6859      	ldr	r1, [r3, #4]
100012fe:	29ff      	cmp	r1, #255	; 0xff
10001300:	d800      	bhi.n	10001304 <clocks_init+0x198>
10001302:	605a      	str	r2, [r3, #4]
10001304:	2280      	movs	r2, #128	; 0x80
10001306:	4b4c      	ldr	r3, [pc, #304]	; (10001438 <clocks_init+0x2cc>)
10001308:	6a21      	ldr	r1, [r4, #32]
1000130a:	0112      	lsls	r2, r2, #4
1000130c:	4d49      	ldr	r5, [pc, #292]	; (10001434 <clocks_init+0x2c8>)
1000130e:	601a      	str	r2, [r3, #0]
10001310:	2900      	cmp	r1, #0
10001312:	d005      	beq.n	10001320 <clocks_init+0x1b4>
10001314:	6960      	ldr	r0, [r4, #20]
10001316:	f001 fe23 	bl	10002f60 <__wrap___aeabi_uidiv>
1000131a:	3001      	adds	r0, #1
1000131c:	3801      	subs	r0, #1
1000131e:	d1fd      	bne.n	1000131c <clocks_init+0x1b0>
10001320:	22e0      	movs	r2, #224	; 0xe0
10001322:	4944      	ldr	r1, [pc, #272]	; (10001434 <clocks_init+0x2c8>)
10001324:	680b      	ldr	r3, [r1, #0]
10001326:	401a      	ands	r2, r3
10001328:	2380      	movs	r3, #128	; 0x80
1000132a:	015b      	lsls	r3, r3, #5
1000132c:	432b      	orrs	r3, r5
1000132e:	601a      	str	r2, [r3, #0]
10001330:	2380      	movs	r3, #128	; 0x80
10001332:	2280      	movs	r2, #128	; 0x80
10001334:	019b      	lsls	r3, r3, #6
10001336:	432b      	orrs	r3, r5
10001338:	0112      	lsls	r2, r2, #4
1000133a:	601a      	str	r2, [r3, #0]
1000133c:	2380      	movs	r3, #128	; 0x80
1000133e:	2280      	movs	r2, #128	; 0x80
10001340:	005b      	lsls	r3, r3, #1
10001342:	604b      	str	r3, [r1, #4]
10001344:	4b29      	ldr	r3, [pc, #164]	; (100013ec <clocks_init+0x280>)
10001346:	02d2      	lsls	r2, r2, #11
10001348:	6223      	str	r3, [r4, #32]
1000134a:	4b3c      	ldr	r3, [pc, #240]	; (1000143c <clocks_init+0x2d0>)
1000134c:	6859      	ldr	r1, [r3, #4]
1000134e:	4291      	cmp	r1, r2
10001350:	d200      	bcs.n	10001354 <clocks_init+0x1e8>
10001352:	605a      	str	r2, [r3, #4]
10001354:	2280      	movs	r2, #128	; 0x80
10001356:	4b3a      	ldr	r3, [pc, #232]	; (10001440 <clocks_init+0x2d4>)
10001358:	6a61      	ldr	r1, [r4, #36]	; 0x24
1000135a:	0112      	lsls	r2, r2, #4
1000135c:	4d37      	ldr	r5, [pc, #220]	; (1000143c <clocks_init+0x2d0>)
1000135e:	601a      	str	r2, [r3, #0]
10001360:	2900      	cmp	r1, #0
10001362:	d005      	beq.n	10001370 <clocks_init+0x204>
10001364:	6960      	ldr	r0, [r4, #20]
10001366:	f001 fdfb 	bl	10002f60 <__wrap___aeabi_uidiv>
1000136a:	3001      	adds	r0, #1
1000136c:	3801      	subs	r0, #1
1000136e:	d1fd      	bne.n	1000136c <clocks_init+0x200>
10001370:	22e0      	movs	r2, #224	; 0xe0
10001372:	4932      	ldr	r1, [pc, #200]	; (1000143c <clocks_init+0x2d0>)
10001374:	680b      	ldr	r3, [r1, #0]
10001376:	401a      	ands	r2, r3
10001378:	2380      	movs	r3, #128	; 0x80
1000137a:	015b      	lsls	r3, r3, #5
1000137c:	432b      	orrs	r3, r5
1000137e:	601a      	str	r2, [r3, #0]
10001380:	2380      	movs	r3, #128	; 0x80
10001382:	2280      	movs	r2, #128	; 0x80
10001384:	019b      	lsls	r3, r3, #6
10001386:	432b      	orrs	r3, r5
10001388:	0112      	lsls	r2, r2, #4
1000138a:	601a      	str	r2, [r3, #0]
1000138c:	2380      	movs	r3, #128	; 0x80
1000138e:	02db      	lsls	r3, r3, #11
10001390:	604b      	str	r3, [r1, #4]
10001392:	4b17      	ldr	r3, [pc, #92]	; (100013f0 <clocks_init+0x284>)
10001394:	6263      	str	r3, [r4, #36]	; 0x24
10001396:	4b2b      	ldr	r3, [pc, #172]	; (10001444 <clocks_init+0x2d8>)
10001398:	685a      	ldr	r2, [r3, #4]
1000139a:	2aff      	cmp	r2, #255	; 0xff
1000139c:	d802      	bhi.n	100013a4 <clocks_init+0x238>
1000139e:	2280      	movs	r2, #128	; 0x80
100013a0:	0052      	lsls	r2, r2, #1
100013a2:	605a      	str	r2, [r3, #4]
100013a4:	2280      	movs	r2, #128	; 0x80
100013a6:	4b28      	ldr	r3, [pc, #160]	; (10001448 <clocks_init+0x2dc>)
100013a8:	69a1      	ldr	r1, [r4, #24]
100013aa:	0112      	lsls	r2, r2, #4
100013ac:	4d25      	ldr	r5, [pc, #148]	; (10001444 <clocks_init+0x2d8>)
100013ae:	601a      	str	r2, [r3, #0]
100013b0:	2900      	cmp	r1, #0
100013b2:	d005      	beq.n	100013c0 <clocks_init+0x254>
100013b4:	6960      	ldr	r0, [r4, #20]
100013b6:	f001 fdd3 	bl	10002f60 <__wrap___aeabi_uidiv>
100013ba:	3001      	adds	r0, #1
100013bc:	3801      	subs	r0, #1
100013be:	d1fd      	bne.n	100013bc <clocks_init+0x250>
100013c0:	22e0      	movs	r2, #224	; 0xe0
100013c2:	4920      	ldr	r1, [pc, #128]	; (10001444 <clocks_init+0x2d8>)
100013c4:	680b      	ldr	r3, [r1, #0]
100013c6:	401a      	ands	r2, r3
100013c8:	2380      	movs	r3, #128	; 0x80
100013ca:	015b      	lsls	r3, r3, #5
100013cc:	432b      	orrs	r3, r5
100013ce:	601a      	str	r2, [r3, #0]
100013d0:	2380      	movs	r3, #128	; 0x80
100013d2:	2280      	movs	r2, #128	; 0x80
100013d4:	019b      	lsls	r3, r3, #6
100013d6:	432b      	orrs	r3, r5
100013d8:	0112      	lsls	r2, r2, #4
100013da:	601a      	str	r2, [r3, #0]
100013dc:	2380      	movs	r3, #128	; 0x80
100013de:	005b      	lsls	r3, r3, #1
100013e0:	604b      	str	r3, [r1, #4]
100013e2:	4b11      	ldr	r3, [pc, #68]	; (10001428 <clocks_init+0x2bc>)
100013e4:	61a3      	str	r3, [r4, #24]
100013e6:	e6d7      	b.n	10001198 <clocks_init+0x2c>
100013e8:	20000ad0 	.word	0x20000ad0
100013ec:	02dc6c00 	.word	0x02dc6c00
100013f0:	0000b71b 	.word	0x0000b71b
100013f4:	40008000 	.word	0x40008000
100013f8:	4000b03c 	.word	0x4000b03c
100013fc:	4000b030 	.word	0x4000b030
10001400:	4000e000 	.word	0x4000e000
10001404:	4000f000 	.word	0x4000f000
10001408:	4000c000 	.word	0x4000c000
1000140c:	59682f00 	.word	0x59682f00
10001410:	40028000 	.word	0x40028000
10001414:	1c9c3800 	.word	0x1c9c3800
10001418:	4002c000 	.word	0x4002c000
1000141c:	40008030 	.word	0x40008030
10001420:	00b71b00 	.word	0x00b71b00
10001424:	4000803c 	.word	0x4000803c
10001428:	07735940 	.word	0x07735940
1000142c:	40008054 	.word	0x40008054
10001430:	4000b054 	.word	0x4000b054
10001434:	40008060 	.word	0x40008060
10001438:	4000b060 	.word	0x4000b060
1000143c:	4000806c 	.word	0x4000806c
10001440:	4000b06c 	.word	0x4000b06c
10001444:	40008048 	.word	0x40008048
10001448:	4000b048 	.word	0x4000b048

1000144c <clock_get_hz>:
1000144c:	4b01      	ldr	r3, [pc, #4]	; (10001454 <clock_get_hz+0x8>)
1000144e:	0080      	lsls	r0, r0, #2
10001450:	58c0      	ldr	r0, [r0, r3]
10001452:	4770      	bx	lr
10001454:	20000ad0 	.word	0x20000ad0

10001458 <watchdog_start_tick>:
10001458:	2380      	movs	r3, #128	; 0x80
1000145a:	4a02      	ldr	r2, [pc, #8]	; (10001464 <watchdog_start_tick+0xc>)
1000145c:	009b      	lsls	r3, r3, #2
1000145e:	4303      	orrs	r3, r0
10001460:	62d3      	str	r3, [r2, #44]	; 0x2c
10001462:	4770      	bx	lr
10001464:	40058000 	.word	0x40058000

10001468 <xosc_init>:
10001468:	23aa      	movs	r3, #170	; 0xaa
1000146a:	4a06      	ldr	r2, [pc, #24]	; (10001484 <xosc_init+0x1c>)
1000146c:	011b      	lsls	r3, r3, #4
1000146e:	6013      	str	r3, [r2, #0]
10001470:	232f      	movs	r3, #47	; 0x2f
10001472:	4905      	ldr	r1, [pc, #20]	; (10001488 <xosc_init+0x20>)
10001474:	60d3      	str	r3, [r2, #12]
10001476:	4b05      	ldr	r3, [pc, #20]	; (1000148c <xosc_init+0x24>)
10001478:	6019      	str	r1, [r3, #0]
1000147a:	6853      	ldr	r3, [r2, #4]
1000147c:	2b00      	cmp	r3, #0
1000147e:	dafc      	bge.n	1000147a <xosc_init+0x12>
10001480:	4770      	bx	lr
10001482:	46c0      	nop			; (mov r8, r8)
10001484:	40024000 	.word	0x40024000
10001488:	00fab000 	.word	0x00fab000
1000148c:	40026000 	.word	0x40026000

10001490 <pll_init>:
10001490:	b5f8      	push	{r3, r4, r5, r6, r7, lr}
10001492:	001d      	movs	r5, r3
10001494:	ab06      	add	r3, sp, #24
10001496:	781e      	ldrb	r6, [r3, #0]
10001498:	2301      	movs	r3, #1
1000149a:	425b      	negs	r3, r3
1000149c:	6043      	str	r3, [r0, #4]
1000149e:	2300      	movs	r3, #0
100014a0:	0004      	movs	r4, r0
100014a2:	6083      	str	r3, [r0, #8]
100014a4:	6001      	str	r1, [r0, #0]
100014a6:	200c      	movs	r0, #12
100014a8:	0017      	movs	r7, r2
100014aa:	f001 fd59 	bl	10002f60 <__wrap___aeabi_uidiv>
100014ae:	0141      	lsls	r1, r0, #5
100014b0:	1a09      	subs	r1, r1, r0
100014b2:	018b      	lsls	r3, r1, #6
100014b4:	1a59      	subs	r1, r3, r1
100014b6:	00c9      	lsls	r1, r1, #3
100014b8:	1809      	adds	r1, r1, r0
100014ba:	0189      	lsls	r1, r1, #6
100014bc:	0038      	movs	r0, r7
100014be:	f001 fd4f 	bl	10002f60 <__wrap___aeabi_uidiv>
100014c2:	21c0      	movs	r1, #192	; 0xc0
100014c4:	1d23      	adds	r3, r4, #4
100014c6:	0189      	lsls	r1, r1, #6
100014c8:	4319      	orrs	r1, r3
100014ca:	2321      	movs	r3, #33	; 0x21
100014cc:	60a0      	str	r0, [r4, #8]
100014ce:	600b      	str	r3, [r1, #0]
100014d0:	6822      	ldr	r2, [r4, #0]
100014d2:	2a00      	cmp	r2, #0
100014d4:	dafc      	bge.n	100014d0 <pll_init+0x40>
100014d6:	2308      	movs	r3, #8
100014d8:	042d      	lsls	r5, r5, #16
100014da:	0336      	lsls	r6, r6, #12
100014dc:	432e      	orrs	r6, r5
100014de:	60e6      	str	r6, [r4, #12]
100014e0:	600b      	str	r3, [r1, #0]
100014e2:	bdf8      	pop	{r3, r4, r5, r6, r7, pc}

100014e4 <irq_set_enabled>:
100014e4:	2301      	movs	r3, #1
100014e6:	4083      	lsls	r3, r0
100014e8:	2900      	cmp	r1, #0
100014ea:	d004      	beq.n	100014f6 <irq_set_enabled+0x12>
100014ec:	4a03      	ldr	r2, [pc, #12]	; (100014fc <irq_set_enabled+0x18>)
100014ee:	6013      	str	r3, [r2, #0]
100014f0:	4a03      	ldr	r2, [pc, #12]	; (10001500 <irq_set_enabled+0x1c>)
100014f2:	6013      	str	r3, [r2, #0]
100014f4:	4770      	bx	lr
100014f6:	4a03      	ldr	r2, [pc, #12]	; (10001504 <irq_set_enabled+0x20>)
100014f8:	6013      	str	r3, [r2, #0]
100014fa:	e7fb      	b.n	100014f4 <irq_set_enabled+0x10>
100014fc:	e000e280 	.word	0xe000e280
10001500:	e000e100 	.word	0xe000e100
10001504:	e000e180 	.word	0xe000e180

10001508 <irq_get_vtable_handler>:
10001508:	4b02      	ldr	r3, [pc, #8]	; (10001514 <irq_get_vtable_handler+0xc>)
1000150a:	3010      	adds	r0, #16
1000150c:	689b      	ldr	r3, [r3, #8]
1000150e:	0080      	lsls	r0, r0, #2
10001510:	58c0      	ldr	r0, [r0, r3]
10001512:	4770      	bx	lr
10001514:	e000ed00 	.word	0xe000ed00

10001518 <irq_set_exclusive_handler>:
10001518:	b570      	push	{r4, r5, r6, lr}
1000151a:	000d      	movs	r5, r1
1000151c:	f3ef 8610 	mrs	r6, PRIMASK
10001520:	b672      	cpsid	i
10001522:	4a0f      	ldr	r2, [pc, #60]	; (10001560 <irq_set_exclusive_handler+0x48>)
10001524:	6813      	ldr	r3, [r2, #0]
10001526:	2b00      	cmp	r3, #0
10001528:	d0fc      	beq.n	10001524 <irq_set_exclusive_handler+0xc>
1000152a:	f3bf 8f5f 	dmb	sy
1000152e:	4b0d      	ldr	r3, [pc, #52]	; (10001564 <irq_set_exclusive_handler+0x4c>)
10001530:	3010      	adds	r0, #16
10001532:	689b      	ldr	r3, [r3, #8]
10001534:	0084      	lsls	r4, r0, #2
10001536:	591b      	ldr	r3, [r3, r4]
10001538:	4a0b      	ldr	r2, [pc, #44]	; (10001568 <irq_set_exclusive_handler+0x50>)
1000153a:	4293      	cmp	r3, r2
1000153c:	d003      	beq.n	10001546 <irq_set_exclusive_handler+0x2e>
1000153e:	429d      	cmp	r5, r3
10001540:	d001      	beq.n	10001546 <irq_set_exclusive_handler+0x2e>
10001542:	f7ff fe0d 	bl	10001160 <hard_assertion_failure>
10001546:	4b07      	ldr	r3, [pc, #28]	; (10001564 <irq_set_exclusive_handler+0x4c>)
10001548:	689b      	ldr	r3, [r3, #8]
1000154a:	511d      	str	r5, [r3, r4]
1000154c:	f3bf 8f5f 	dmb	sy
10001550:	f3bf 8f5f 	dmb	sy
10001554:	2200      	movs	r2, #0
10001556:	4b02      	ldr	r3, [pc, #8]	; (10001560 <irq_set_exclusive_handler+0x48>)
10001558:	601a      	str	r2, [r3, #0]
1000155a:	f386 8810 	msr	PRIMASK, r6
1000155e:	bd70      	pop	{r4, r5, r6, pc}
10001560:	d0000124 	.word	0xd0000124
10001564:	e000ed00 	.word	0xe000ed00
10001568:	100002cd 	.word	0x100002cd

1000156c <irq_remove_handler>:
1000156c:	b5f0      	push	{r4, r5, r6, r7, lr}
1000156e:	46de      	mov	lr, fp
10001570:	4657      	mov	r7, sl
10001572:	464e      	mov	r6, r9
10001574:	4645      	mov	r5, r8
10001576:	b5e0      	push	{r5, r6, r7, lr}
10001578:	000c      	movs	r4, r1
1000157a:	b083      	sub	sp, #12
1000157c:	f3ef 8a10 	mrs	sl, PRIMASK
10001580:	b672      	cpsid	i
10001582:	4a5f      	ldr	r2, [pc, #380]	; (10001700 <irq_remove_handler+0x194>)
10001584:	6813      	ldr	r3, [r2, #0]
10001586:	2b00      	cmp	r3, #0
10001588:	d0fc      	beq.n	10001584 <irq_remove_handler+0x18>
1000158a:	f3bf 8f5f 	dmb	sy
1000158e:	2210      	movs	r2, #16
10001590:	4691      	mov	r9, r2
10001592:	4481      	add	r9, r0
10001594:	464a      	mov	r2, r9
10001596:	4b5b      	ldr	r3, [pc, #364]	; (10001704 <irq_remove_handler+0x198>)
10001598:	0096      	lsls	r6, r2, #2
1000159a:	689b      	ldr	r3, [r3, #8]
1000159c:	599d      	ldr	r5, [r3, r6]
1000159e:	4b5a      	ldr	r3, [pc, #360]	; (10001708 <irq_remove_handler+0x19c>)
100015a0:	4698      	mov	r8, r3
100015a2:	429d      	cmp	r5, r3
100015a4:	d005      	beq.n	100015b2 <irq_remove_handler+0x46>
100015a6:	42a5      	cmp	r5, r4
100015a8:	d016      	beq.n	100015d8 <irq_remove_handler+0x6c>
100015aa:	4f58      	ldr	r7, [pc, #352]	; (1000170c <irq_remove_handler+0x1a0>)
100015ac:	1beb      	subs	r3, r5, r7
100015ae:	2b2f      	cmp	r3, #47	; 0x2f
100015b0:	d914      	bls.n	100015dc <irq_remove_handler+0x70>
100015b2:	4b54      	ldr	r3, [pc, #336]	; (10001704 <irq_remove_handler+0x198>)
100015b4:	689b      	ldr	r3, [r3, #8]
100015b6:	519d      	str	r5, [r3, r6]
100015b8:	f3bf 8f5f 	dmb	sy
100015bc:	f3bf 8f5f 	dmb	sy
100015c0:	2200      	movs	r2, #0
100015c2:	4b4f      	ldr	r3, [pc, #316]	; (10001700 <irq_remove_handler+0x194>)
100015c4:	601a      	str	r2, [r3, #0]
100015c6:	f38a 8810 	msr	PRIMASK, sl
100015ca:	b003      	add	sp, #12
100015cc:	bc3c      	pop	{r2, r3, r4, r5}
100015ce:	4690      	mov	r8, r2
100015d0:	4699      	mov	r9, r3
100015d2:	46a2      	mov	sl, r4
100015d4:	46ab      	mov	fp, r5
100015d6:	bdf0      	pop	{r4, r5, r6, r7, pc}
100015d8:	001d      	movs	r5, r3
100015da:	e7ea      	b.n	100015b2 <irq_remove_handler+0x46>
100015dc:	2301      	movs	r3, #1
100015de:	4083      	lsls	r3, r0
100015e0:	469b      	mov	fp, r3
100015e2:	465a      	mov	r2, fp
100015e4:	4b4a      	ldr	r3, [pc, #296]	; (10001710 <irq_remove_handler+0x1a4>)
100015e6:	681b      	ldr	r3, [r3, #0]
100015e8:	401a      	ands	r2, r3
100015ea:	9200      	str	r2, [sp, #0]
100015ec:	465a      	mov	r2, fp
100015ee:	4b49      	ldr	r3, [pc, #292]	; (10001714 <irq_remove_handler+0x1a8>)
100015f0:	601a      	str	r2, [r3, #0]
100015f2:	f3bf 8f5f 	dmb	sy
100015f6:	f7fe fdce 	bl	10000196 <__get_current_exception>
100015fa:	9001      	str	r0, [sp, #4]
100015fc:	2800      	cmp	r0, #0
100015fe:	d003      	beq.n	10001608 <irq_remove_handler+0x9c>
10001600:	4581      	cmp	r9, r0
10001602:	d001      	beq.n	10001608 <irq_remove_handler+0x9c>
10001604:	f7ff fdac 	bl	10001160 <hard_assertion_failure>
10001608:	2301      	movs	r3, #1
1000160a:	0029      	movs	r1, r5
1000160c:	4399      	bics	r1, r3
1000160e:	688b      	ldr	r3, [r1, #8]
10001610:	42a3      	cmp	r3, r4
10001612:	d069      	beq.n	100016e8 <irq_remove_handler+0x17c>
10001614:	000a      	movs	r2, r1
10001616:	e007      	b.n	10001628 <irq_remove_handler+0xbc>
10001618:	0043      	lsls	r3, r0, #1
1000161a:	181b      	adds	r3, r3, r0
1000161c:	009b      	lsls	r3, r3, #2
1000161e:	18fb      	adds	r3, r7, r3
10001620:	6898      	ldr	r0, [r3, #8]
10001622:	42a0      	cmp	r0, r4
10001624:	d011      	beq.n	1000164a <irq_remove_handler+0xde>
10001626:	001a      	movs	r2, r3
10001628:	2006      	movs	r0, #6
1000162a:	5610      	ldrsb	r0, [r2, r0]
1000162c:	2800      	cmp	r0, #0
1000162e:	daf3      	bge.n	10001618 <irq_remove_handler+0xac>
10001630:	9b00      	ldr	r3, [sp, #0]
10001632:	2b00      	cmp	r3, #0
10001634:	d005      	beq.n	10001642 <irq_remove_handler+0xd6>
10001636:	465a      	mov	r2, fp
10001638:	4b37      	ldr	r3, [pc, #220]	; (10001718 <irq_remove_handler+0x1ac>)
1000163a:	601a      	str	r2, [r3, #0]
1000163c:	4b34      	ldr	r3, [pc, #208]	; (10001710 <irq_remove_handler+0x1a4>)
1000163e:	601a      	str	r2, [r3, #0]
10001640:	e7b7      	b.n	100015b2 <irq_remove_handler+0x46>
10001642:	465a      	mov	r2, fp
10001644:	4b33      	ldr	r3, [pc, #204]	; (10001714 <irq_remove_handler+0x1a8>)
10001646:	601a      	str	r2, [r3, #0]
10001648:	e7b3      	b.n	100015b2 <irq_remove_handler+0x46>
1000164a:	2006      	movs	r0, #6
1000164c:	5618      	ldrsb	r0, [r3, r0]
1000164e:	2800      	cmp	r0, #0
10001650:	db22      	blt.n	10001698 <irq_remove_handler+0x12c>
10001652:	0042      	lsls	r2, r0, #1
10001654:	1811      	adds	r1, r2, r0
10001656:	0089      	lsls	r1, r1, #2
10001658:	187c      	adds	r4, r7, r1
1000165a:	4688      	mov	r8, r1
1000165c:	68a1      	ldr	r1, [r4, #8]
1000165e:	6099      	str	r1, [r3, #8]
10001660:	79e1      	ldrb	r1, [r4, #7]
10001662:	71d9      	strb	r1, [r3, #7]
10001664:	2106      	movs	r1, #6
10001666:	5661      	ldrsb	r1, [r4, r1]
10001668:	7199      	strb	r1, [r3, #6]
1000166a:	79a1      	ldrb	r1, [r4, #6]
1000166c:	297f      	cmp	r1, #127	; 0x7f
1000166e:	d82b      	bhi.n	100016c8 <irq_remove_handler+0x15c>
10001670:	88a4      	ldrh	r4, [r4, #4]
10001672:	1af9      	subs	r1, r7, r3
10001674:	0564      	lsls	r4, r4, #21
10001676:	1524      	asrs	r4, r4, #20
10001678:	4444      	add	r4, r8
1000167a:	1909      	adds	r1, r1, r4
1000167c:	24e0      	movs	r4, #224	; 0xe0
1000167e:	0509      	lsls	r1, r1, #20
10001680:	0d49      	lsrs	r1, r1, #21
10001682:	0224      	lsls	r4, r4, #8
10001684:	4321      	orrs	r1, r4
10001686:	8099      	strh	r1, [r3, #4]
10001688:	1812      	adds	r2, r2, r0
1000168a:	4b24      	ldr	r3, [pc, #144]	; (1000171c <irq_remove_handler+0x1b0>)
1000168c:	0092      	lsls	r2, r2, #2
1000168e:	18bf      	adds	r7, r7, r2
10001690:	781a      	ldrb	r2, [r3, #0]
10001692:	7018      	strb	r0, [r3, #0]
10001694:	71ba      	strb	r2, [r7, #6]
10001696:	e7cb      	b.n	10001630 <irq_remove_handler+0xc4>
10001698:	9801      	ldr	r0, [sp, #4]
1000169a:	2800      	cmp	r0, #0
1000169c:	d117      	bne.n	100016ce <irq_remove_handler+0x162>
1000169e:	30ff      	adds	r0, #255	; 0xff
100016a0:	7190      	strb	r0, [r2, #6]
100016a2:	481f      	ldr	r0, [pc, #124]	; (10001720 <irq_remove_handler+0x1b4>)
100016a4:	8090      	strh	r0, [r2, #4]
100016a6:	4a1d      	ldr	r2, [pc, #116]	; (1000171c <irq_remove_handler+0x1b0>)
100016a8:	1bcf      	subs	r7, r1, r7
100016aa:	7810      	ldrb	r0, [r2, #0]
100016ac:	10bf      	asrs	r7, r7, #2
100016ae:	7198      	strb	r0, [r3, #6]
100016b0:	00bb      	lsls	r3, r7, #2
100016b2:	19db      	adds	r3, r3, r7
100016b4:	0119      	lsls	r1, r3, #4
100016b6:	185b      	adds	r3, r3, r1
100016b8:	0219      	lsls	r1, r3, #8
100016ba:	185b      	adds	r3, r3, r1
100016bc:	0419      	lsls	r1, r3, #16
100016be:	185b      	adds	r3, r3, r1
100016c0:	005b      	lsls	r3, r3, #1
100016c2:	19db      	adds	r3, r3, r7
100016c4:	7013      	strb	r3, [r2, #0]
100016c6:	e7b3      	b.n	10001630 <irq_remove_handler+0xc4>
100016c8:	21bd      	movs	r1, #189	; 0xbd
100016ca:	0209      	lsls	r1, r1, #8
100016cc:	e7db      	b.n	10001686 <irq_remove_handler+0x11a>
100016ce:	4a15      	ldr	r2, [pc, #84]	; (10001724 <irq_remove_handler+0x1b8>)
100016d0:	4915      	ldr	r1, [pc, #84]	; (10001728 <irq_remove_handler+0x1bc>)
100016d2:	1ad2      	subs	r2, r2, r3
100016d4:	3a08      	subs	r2, #8
100016d6:	0250      	lsls	r0, r2, #9
100016d8:	0d40      	lsrs	r0, r0, #21
100016da:	4301      	orrs	r1, r0
100016dc:	8099      	strh	r1, [r3, #4]
100016de:	4913      	ldr	r1, [pc, #76]	; (1000172c <irq_remove_handler+0x1c0>)
100016e0:	0852      	lsrs	r2, r2, #1
100016e2:	430a      	orrs	r2, r1
100016e4:	80da      	strh	r2, [r3, #6]
100016e6:	e7a3      	b.n	10001630 <irq_remove_handler+0xc4>
100016e8:	2006      	movs	r0, #6
100016ea:	5608      	ldrsb	r0, [r1, r0]
100016ec:	000b      	movs	r3, r1
100016ee:	2800      	cmp	r0, #0
100016f0:	daaf      	bge.n	10001652 <irq_remove_handler+0xe6>
100016f2:	9a01      	ldr	r2, [sp, #4]
100016f4:	2a00      	cmp	r2, #0
100016f6:	d1ea      	bne.n	100016ce <irq_remove_handler+0x162>
100016f8:	000b      	movs	r3, r1
100016fa:	4645      	mov	r5, r8
100016fc:	e7d3      	b.n	100016a6 <irq_remove_handler+0x13a>
100016fe:	46c0      	nop			; (mov r8, r8)
10001700:	d0000124 	.word	0xd0000124
10001704:	e000ed00 	.word	0xe000ed00
10001708:	100002cd 	.word	0x100002cd
1000170c:	2000018c 	.word	0x2000018c
10001710:	e000e100 	.word	0xe000e100
10001714:	e000e180 	.word	0xe000e180
10001718:	e000e280 	.word	0xe000e280
1000171c:	20000b2f 	.word	0x20000b2f
10001720:	ffffbd00 	.word	0xffffbd00
10001724:	200001c6 	.word	0x200001c6
10001728:	fffff000 	.word	0xfffff000
1000172c:	fffff800 	.word	0xfffff800

10001730 <irq_add_tail_to_free_list>:
10001730:	b5f8      	push	{r3, r4, r5, r6, r7, lr}
10001732:	2501      	movs	r5, #1
10001734:	0004      	movs	r4, r0
10001736:	4305      	orrs	r5, r0
10001738:	f7fe fd2d 	bl	10000196 <__get_current_exception>
1000173c:	f3ef 8610 	mrs	r6, PRIMASK
10001740:	b672      	cpsid	i
10001742:	4a24      	ldr	r2, [pc, #144]	; (100017d4 <irq_add_tail_to_free_list+0xa4>)
10001744:	6813      	ldr	r3, [r2, #0]
10001746:	2b00      	cmp	r3, #0
10001748:	d0fc      	beq.n	10001744 <irq_add_tail_to_free_list+0x14>
1000174a:	f3bf 8f5f 	dmb	sy
1000174e:	4f22      	ldr	r7, [pc, #136]	; (100017d8 <irq_add_tail_to_free_list+0xa8>)
10001750:	0080      	lsls	r0, r0, #2
10001752:	1be1      	subs	r1, r4, r7
10001754:	1089      	asrs	r1, r1, #2
10001756:	008a      	lsls	r2, r1, #2
10001758:	1852      	adds	r2, r2, r1
1000175a:	0113      	lsls	r3, r2, #4
1000175c:	18d2      	adds	r2, r2, r3
1000175e:	0213      	lsls	r3, r2, #8
10001760:	18d2      	adds	r2, r2, r3
10001762:	0413      	lsls	r3, r2, #16
10001764:	18d3      	adds	r3, r2, r3
10001766:	4a1d      	ldr	r2, [pc, #116]	; (100017dc <irq_add_tail_to_free_list+0xac>)
10001768:	005b      	lsls	r3, r3, #1
1000176a:	185b      	adds	r3, r3, r1
1000176c:	6891      	ldr	r1, [r2, #8]
1000176e:	5809      	ldr	r1, [r1, r0]
10001770:	42a9      	cmp	r1, r5
10001772:	d01c      	beq.n	100017ae <irq_add_tail_to_free_list+0x7e>
10001774:	2206      	movs	r2, #6
10001776:	56ba      	ldrsb	r2, [r7, r2]
10001778:	4293      	cmp	r3, r2
1000177a:	d01c      	beq.n	100017b6 <irq_add_tail_to_free_list+0x86>
1000177c:	2212      	movs	r2, #18
1000177e:	56ba      	ldrsb	r2, [r7, r2]
10001780:	4293      	cmp	r3, r2
10001782:	d022      	beq.n	100017ca <irq_add_tail_to_free_list+0x9a>
10001784:	221e      	movs	r2, #30
10001786:	56ba      	ldrsb	r2, [r7, r2]
10001788:	4293      	cmp	r3, r2
1000178a:	d020      	beq.n	100017ce <irq_add_tail_to_free_list+0x9e>
1000178c:	222a      	movs	r2, #42	; 0x2a
1000178e:	56ba      	ldrsb	r2, [r7, r2]
10001790:	2103      	movs	r1, #3
10001792:	429a      	cmp	r2, r3
10001794:	d010      	beq.n	100017b8 <irq_add_tail_to_free_list+0x88>
10001796:	4a12      	ldr	r2, [pc, #72]	; (100017e0 <irq_add_tail_to_free_list+0xb0>)
10001798:	7811      	ldrb	r1, [r2, #0]
1000179a:	7013      	strb	r3, [r2, #0]
1000179c:	71a1      	strb	r1, [r4, #6]
1000179e:	f3bf 8f5f 	dmb	sy
100017a2:	2200      	movs	r2, #0
100017a4:	4b0b      	ldr	r3, [pc, #44]	; (100017d4 <irq_add_tail_to_free_list+0xa4>)
100017a6:	601a      	str	r2, [r3, #0]
100017a8:	f386 8810 	msr	PRIMASK, r6
100017ac:	bdf8      	pop	{r3, r4, r5, r6, r7, pc}
100017ae:	6892      	ldr	r2, [r2, #8]
100017b0:	490c      	ldr	r1, [pc, #48]	; (100017e4 <irq_add_tail_to_free_list+0xb4>)
100017b2:	5011      	str	r1, [r2, r0]
100017b4:	e7ef      	b.n	10001796 <irq_add_tail_to_free_list+0x66>
100017b6:	2100      	movs	r1, #0
100017b8:	004a      	lsls	r2, r1, #1
100017ba:	1852      	adds	r2, r2, r1
100017bc:	21ff      	movs	r1, #255	; 0xff
100017be:	0092      	lsls	r2, r2, #2
100017c0:	18ba      	adds	r2, r7, r2
100017c2:	7191      	strb	r1, [r2, #6]
100017c4:	4908      	ldr	r1, [pc, #32]	; (100017e8 <irq_add_tail_to_free_list+0xb8>)
100017c6:	8091      	strh	r1, [r2, #4]
100017c8:	e7e5      	b.n	10001796 <irq_add_tail_to_free_list+0x66>
100017ca:	2101      	movs	r1, #1
100017cc:	e7f4      	b.n	100017b8 <irq_add_tail_to_free_list+0x88>
100017ce:	2102      	movs	r1, #2
100017d0:	e7f2      	b.n	100017b8 <irq_add_tail_to_free_list+0x88>
100017d2:	46c0      	nop			; (mov r8, r8)
100017d4:	d0000124 	.word	0xd0000124
100017d8:	2000018c 	.word	0x2000018c
100017dc:	e000ed00 	.word	0xe000ed00
100017e0:	20000b2f 	.word	0x20000b2f
100017e4:	100002cd 	.word	0x100002cd
100017e8:	ffffbd00 	.word	0xffffbd00

100017ec <irq_init_priorities>:
100017ec:	b5f0      	push	{r4, r5, r6, r7, lr}
100017ee:	2200      	movs	r2, #0
100017f0:	2403      	movs	r4, #3
100017f2:	27ff      	movs	r7, #255	; 0xff
100017f4:	2680      	movs	r6, #128	; 0x80
100017f6:	0020      	movs	r0, r4
100017f8:	003d      	movs	r5, r7
100017fa:	4b09      	ldr	r3, [pc, #36]	; (10001820 <irq_init_priorities+0x34>)
100017fc:	0011      	movs	r1, r2
100017fe:	469c      	mov	ip, r3
10001800:	4010      	ands	r0, r2
10001802:	00c0      	lsls	r0, r0, #3
10001804:	4085      	lsls	r5, r0
10001806:	43a1      	bics	r1, r4
10001808:	4461      	add	r1, ip
1000180a:	680b      	ldr	r3, [r1, #0]
1000180c:	3201      	adds	r2, #1
1000180e:	43ab      	bics	r3, r5
10001810:	0035      	movs	r5, r6
10001812:	4085      	lsls	r5, r0
10001814:	432b      	orrs	r3, r5
10001816:	600b      	str	r3, [r1, #0]
10001818:	2a20      	cmp	r2, #32
1000181a:	d1ec      	bne.n	100017f6 <irq_init_priorities+0xa>
1000181c:	bdf0      	pop	{r4, r5, r6, r7, pc}
1000181e:	46c0      	nop			; (mov r8, r8)
10001820:	e000e400 	.word	0xe000e400

10001824 <_out_buffer>:
10001824:	429a      	cmp	r2, r3
10001826:	d200      	bcs.n	1000182a <_out_buffer+0x6>
10001828:	5488      	strb	r0, [r1, r2]
1000182a:	4770      	bx	lr

1000182c <_out_null>:
1000182c:	4770      	bx	lr
1000182e:	46c0      	nop			; (mov r8, r8)

10001830 <_out_rev>:
10001830:	b5f8      	push	{r3, r4, r5, r6, r7, lr}
10001832:	4657      	mov	r7, sl
10001834:	464e      	mov	r6, r9
10001836:	46de      	mov	lr, fp
10001838:	4645      	mov	r5, r8
1000183a:	b5e0      	push	{r5, r6, r7, lr}
1000183c:	001f      	movs	r7, r3
1000183e:	9b0a      	ldr	r3, [sp, #40]	; 0x28
10001840:	0005      	movs	r5, r0
10001842:	469b      	mov	fp, r3
10001844:	9b0d      	ldr	r3, [sp, #52]	; 0x34
10001846:	000e      	movs	r6, r1
10001848:	4691      	mov	r9, r2
1000184a:	4692      	mov	sl, r2
1000184c:	079b      	lsls	r3, r3, #30
1000184e:	d118      	bne.n	10001882 <_out_rev+0x52>
10001850:	9b0b      	ldr	r3, [sp, #44]	; 0x2c
10001852:	9a0c      	ldr	r2, [sp, #48]	; 0x30
10001854:	4293      	cmp	r3, r2
10001856:	d214      	bcs.n	10001882 <_out_rev+0x52>
10001858:	0013      	movs	r3, r2
1000185a:	9a0b      	ldr	r2, [sp, #44]	; 0x2c
1000185c:	46b8      	mov	r8, r7
1000185e:	1a9b      	subs	r3, r3, r2
10001860:	444b      	add	r3, r9
10001862:	464c      	mov	r4, r9
10001864:	000f      	movs	r7, r1
10001866:	0006      	movs	r6, r0
10001868:	001d      	movs	r5, r3
1000186a:	0022      	movs	r2, r4
1000186c:	4643      	mov	r3, r8
1000186e:	3401      	adds	r4, #1
10001870:	0039      	movs	r1, r7
10001872:	2020      	movs	r0, #32
10001874:	47b0      	blx	r6
10001876:	42ac      	cmp	r4, r5
10001878:	d1f7      	bne.n	1000186a <_out_rev+0x3a>
1000187a:	46aa      	mov	sl, r5
1000187c:	0035      	movs	r5, r6
1000187e:	003e      	movs	r6, r7
10001880:	4647      	mov	r7, r8
10001882:	9b0b      	ldr	r3, [sp, #44]	; 0x2c
10001884:	2b00      	cmp	r3, #0
10001886:	d038      	beq.n	100018fa <_out_rev+0xca>
10001888:	449a      	add	sl, r3
1000188a:	001c      	movs	r4, r3
1000188c:	46d0      	mov	r8, sl
1000188e:	4653      	mov	r3, sl
10001890:	1b1a      	subs	r2, r3, r4
10001892:	465b      	mov	r3, fp
10001894:	3c01      	subs	r4, #1
10001896:	5d18      	ldrb	r0, [r3, r4]
10001898:	0031      	movs	r1, r6
1000189a:	003b      	movs	r3, r7
1000189c:	47a8      	blx	r5
1000189e:	2c00      	cmp	r4, #0
100018a0:	d1f5      	bne.n	1000188e <_out_rev+0x5e>
100018a2:	9b0d      	ldr	r3, [sp, #52]	; 0x34
100018a4:	079b      	lsls	r3, r3, #30
100018a6:	d521      	bpl.n	100018ec <_out_rev+0xbc>
100018a8:	4643      	mov	r3, r8
100018aa:	464a      	mov	r2, r9
100018ac:	1a9c      	subs	r4, r3, r2
100018ae:	9b0c      	ldr	r3, [sp, #48]	; 0x30
100018b0:	42a3      	cmp	r3, r4
100018b2:	d91b      	bls.n	100018ec <_out_rev+0xbc>
100018b4:	003a      	movs	r2, r7
100018b6:	469a      	mov	sl, r3
100018b8:	464f      	mov	r7, r9
100018ba:	4691      	mov	r9, r2
100018bc:	19e2      	adds	r2, r4, r7
100018be:	464b      	mov	r3, r9
100018c0:	0031      	movs	r1, r6
100018c2:	2020      	movs	r0, #32
100018c4:	3401      	adds	r4, #1
100018c6:	47a8      	blx	r5
100018c8:	4554      	cmp	r4, sl
100018ca:	d3f7      	bcc.n	100018bc <_out_rev+0x8c>
100018cc:	4643      	mov	r3, r8
100018ce:	990c      	ldr	r1, [sp, #48]	; 0x30
100018d0:	1bdb      	subs	r3, r3, r7
100018d2:	3301      	adds	r3, #1
100018d4:	46b9      	mov	r9, r7
100018d6:	2200      	movs	r2, #0
100018d8:	4299      	cmp	r1, r3
100018da:	d303      	bcc.n	100018e4 <_out_rev+0xb4>
100018dc:	4643      	mov	r3, r8
100018de:	1e4a      	subs	r2, r1, #1
100018e0:	444a      	add	r2, r9
100018e2:	1ad2      	subs	r2, r2, r3
100018e4:	4643      	mov	r3, r8
100018e6:	4690      	mov	r8, r2
100018e8:	3301      	adds	r3, #1
100018ea:	4498      	add	r8, r3
100018ec:	4640      	mov	r0, r8
100018ee:	bc3c      	pop	{r2, r3, r4, r5}
100018f0:	4690      	mov	r8, r2
100018f2:	4699      	mov	r9, r3
100018f4:	46a2      	mov	sl, r4
100018f6:	46ab      	mov	fp, r5
100018f8:	bdf8      	pop	{r3, r4, r5, r6, r7, pc}
100018fa:	46d0      	mov	r8, sl
100018fc:	e7d1      	b.n	100018a2 <_out_rev+0x72>
100018fe:	46c0      	nop			; (mov r8, r8)

10001900 <_ntoa_format>:
10001900:	b5f0      	push	{r4, r5, r6, r7, lr}
10001902:	464f      	mov	r7, r9
10001904:	4646      	mov	r6, r8
10001906:	46d6      	mov	lr, sl
10001908:	b5c0      	push	{r6, r7, lr}
1000190a:	b084      	sub	sp, #16
1000190c:	4698      	mov	r8, r3
1000190e:	ab0e      	add	r3, sp, #56	; 0x38
10001910:	781b      	ldrb	r3, [r3, #0]
10001912:	9f12      	ldr	r7, [sp, #72]	; 0x48
10001914:	4699      	mov	r9, r3
10001916:	4694      	mov	ip, r2
10001918:	9c0d      	ldr	r4, [sp, #52]	; 0x34
1000191a:	9b10      	ldr	r3, [sp, #64]	; 0x40
1000191c:	9e11      	ldr	r6, [sp, #68]	; 0x44
1000191e:	07ba      	lsls	r2, r7, #30
10001920:	d425      	bmi.n	1000196e <_ntoa_format+0x6e>
10001922:	2e00      	cmp	r6, #0
10001924:	d169      	bne.n	100019fa <_ntoa_format+0xfa>
10001926:	429c      	cmp	r4, r3
10001928:	d300      	bcc.n	1000192c <_ntoa_format+0x2c>
1000192a:	e0c2      	b.n	10001ab2 <_ntoa_format+0x1b2>
1000192c:	2201      	movs	r2, #1
1000192e:	403a      	ands	r2, r7
10001930:	4692      	mov	sl, r2
10001932:	2c1f      	cmp	r4, #31
10001934:	d900      	bls.n	10001938 <_ntoa_format+0x38>
10001936:	e0bb      	b.n	10001ab0 <_ntoa_format+0x1b0>
10001938:	9a0c      	ldr	r2, [sp, #48]	; 0x30
1000193a:	1e55      	subs	r5, r2, #1
1000193c:	2230      	movs	r2, #48	; 0x30
1000193e:	e001      	b.n	10001944 <_ntoa_format+0x44>
10001940:	2c20      	cmp	r4, #32
10001942:	d003      	beq.n	1000194c <_ntoa_format+0x4c>
10001944:	3401      	adds	r4, #1
10001946:	552a      	strb	r2, [r5, r4]
10001948:	42a3      	cmp	r3, r4
1000194a:	d8f9      	bhi.n	10001940 <_ntoa_format+0x40>
1000194c:	4652      	mov	r2, sl
1000194e:	2a00      	cmp	r2, #0
10001950:	d00d      	beq.n	1000196e <_ntoa_format+0x6e>
10001952:	42b4      	cmp	r4, r6
10001954:	d20b      	bcs.n	1000196e <_ntoa_format+0x6e>
10001956:	2c1f      	cmp	r4, #31
10001958:	d862      	bhi.n	10001a20 <_ntoa_format+0x120>
1000195a:	9a0c      	ldr	r2, [sp, #48]	; 0x30
1000195c:	1e55      	subs	r5, r2, #1
1000195e:	2230      	movs	r2, #48	; 0x30
10001960:	e001      	b.n	10001966 <_ntoa_format+0x66>
10001962:	2c20      	cmp	r4, #32
10001964:	d05c      	beq.n	10001a20 <_ntoa_format+0x120>
10001966:	3401      	adds	r4, #1
10001968:	552a      	strb	r2, [r5, r4]
1000196a:	42b4      	cmp	r4, r6
1000196c:	d1f9      	bne.n	10001962 <_ntoa_format+0x62>
1000196e:	06fa      	lsls	r2, r7, #27
10001970:	d535      	bpl.n	100019de <_ntoa_format+0xde>
10001972:	057a      	lsls	r2, r7, #21
10001974:	d45d      	bmi.n	10001a32 <_ntoa_format+0x132>
10001976:	2c00      	cmp	r4, #0
10001978:	d157      	bne.n	10001a2a <_ntoa_format+0x12a>
1000197a:	9b0f      	ldr	r3, [sp, #60]	; 0x3c
1000197c:	2b10      	cmp	r3, #16
1000197e:	d100      	bne.n	10001982 <_ntoa_format+0x82>
10001980:	e07c      	b.n	10001a7c <_ntoa_format+0x17c>
10001982:	9b0f      	ldr	r3, [sp, #60]	; 0x3c
10001984:	2b02      	cmp	r3, #2
10001986:	d100      	bne.n	1000198a <_ntoa_format+0x8a>
10001988:	e08d      	b.n	10001aa6 <_ntoa_format+0x1a6>
1000198a:	2330      	movs	r3, #48	; 0x30
1000198c:	9a0c      	ldr	r2, [sp, #48]	; 0x30
1000198e:	2401      	movs	r4, #1
10001990:	7013      	strb	r3, [r2, #0]
10001992:	464b      	mov	r3, r9
10001994:	2b00      	cmp	r3, #0
10001996:	d027      	beq.n	100019e8 <_ntoa_format+0xe8>
10001998:	232d      	movs	r3, #45	; 0x2d
1000199a:	9a0c      	ldr	r2, [sp, #48]	; 0x30
1000199c:	5513      	strb	r3, [r2, r4]
1000199e:	3401      	adds	r4, #1
100019a0:	9b0c      	ldr	r3, [sp, #48]	; 0x30
100019a2:	4662      	mov	r2, ip
100019a4:	9300      	str	r3, [sp, #0]
100019a6:	9703      	str	r7, [sp, #12]
100019a8:	4643      	mov	r3, r8
100019aa:	9602      	str	r6, [sp, #8]
100019ac:	9401      	str	r4, [sp, #4]
100019ae:	f7ff ff3f 	bl	10001830 <_out_rev>
100019b2:	b004      	add	sp, #16
100019b4:	bc1c      	pop	{r2, r3, r4}
100019b6:	4690      	mov	r8, r2
100019b8:	4699      	mov	r9, r3
100019ba:	46a2      	mov	sl, r4
100019bc:	bdf0      	pop	{r4, r5, r6, r7, pc}
100019be:	06bb      	lsls	r3, r7, #26
100019c0:	d463      	bmi.n	10001a8a <_ntoa_format+0x18a>
100019c2:	2c20      	cmp	r4, #32
100019c4:	d0ec      	beq.n	100019a0 <_ntoa_format+0xa0>
100019c6:	9b0c      	ldr	r3, [sp, #48]	; 0x30
100019c8:	191a      	adds	r2, r3, r4
100019ca:	3401      	adds	r4, #1
100019cc:	2378      	movs	r3, #120	; 0x78
100019ce:	7013      	strb	r3, [r2, #0]
100019d0:	2c20      	cmp	r4, #32
100019d2:	d0e5      	beq.n	100019a0 <_ntoa_format+0xa0>
100019d4:	2230      	movs	r2, #48	; 0x30
100019d6:	9b0c      	ldr	r3, [sp, #48]	; 0x30
100019d8:	191b      	adds	r3, r3, r4
100019da:	701a      	strb	r2, [r3, #0]
100019dc:	3401      	adds	r4, #1
100019de:	2c20      	cmp	r4, #32
100019e0:	d0de      	beq.n	100019a0 <_ntoa_format+0xa0>
100019e2:	464b      	mov	r3, r9
100019e4:	2b00      	cmp	r3, #0
100019e6:	d1d7      	bne.n	10001998 <_ntoa_format+0x98>
100019e8:	077b      	lsls	r3, r7, #29
100019ea:	d435      	bmi.n	10001a58 <_ntoa_format+0x158>
100019ec:	073b      	lsls	r3, r7, #28
100019ee:	d5d7      	bpl.n	100019a0 <_ntoa_format+0xa0>
100019f0:	2320      	movs	r3, #32
100019f2:	9a0c      	ldr	r2, [sp, #48]	; 0x30
100019f4:	5513      	strb	r3, [r2, r4]
100019f6:	3401      	adds	r4, #1
100019f8:	e7d2      	b.n	100019a0 <_ntoa_format+0xa0>
100019fa:	2201      	movs	r2, #1
100019fc:	0015      	movs	r5, r2
100019fe:	403d      	ands	r5, r7
10001a00:	46aa      	mov	sl, r5
10001a02:	423a      	tst	r2, r7
10001a04:	d020      	beq.n	10001a48 <_ntoa_format+0x148>
10001a06:	464a      	mov	r2, r9
10001a08:	2a00      	cmp	r2, #0
10001a0a:	d12a      	bne.n	10001a62 <_ntoa_format+0x162>
10001a0c:	320c      	adds	r2, #12
10001a0e:	423a      	tst	r2, r7
10001a10:	d127      	bne.n	10001a62 <_ntoa_format+0x162>
10001a12:	429c      	cmp	r4, r3
10001a14:	d29d      	bcs.n	10001952 <_ntoa_format+0x52>
10001a16:	2c1f      	cmp	r4, #31
10001a18:	d800      	bhi.n	10001a1c <_ntoa_format+0x11c>
10001a1a:	e78d      	b.n	10001938 <_ntoa_format+0x38>
10001a1c:	2e20      	cmp	r6, #32
10001a1e:	d919      	bls.n	10001a54 <_ntoa_format+0x154>
10001a20:	2420      	movs	r4, #32
10001a22:	06fa      	lsls	r2, r7, #27
10001a24:	d5bc      	bpl.n	100019a0 <_ntoa_format+0xa0>
10001a26:	057a      	lsls	r2, r7, #21
10001a28:	d403      	bmi.n	10001a32 <_ntoa_format+0x132>
10001a2a:	42a3      	cmp	r3, r4
10001a2c:	d01b      	beq.n	10001a66 <_ntoa_format+0x166>
10001a2e:	42a6      	cmp	r6, r4
10001a30:	d019      	beq.n	10001a66 <_ntoa_format+0x166>
10001a32:	9b0f      	ldr	r3, [sp, #60]	; 0x3c
10001a34:	2b10      	cmp	r3, #16
10001a36:	d0c2      	beq.n	100019be <_ntoa_format+0xbe>
10001a38:	2b02      	cmp	r3, #2
10001a3a:	d1c9      	bne.n	100019d0 <_ntoa_format+0xd0>
10001a3c:	2c20      	cmp	r4, #32
10001a3e:	d0af      	beq.n	100019a0 <_ntoa_format+0xa0>
10001a40:	9b0c      	ldr	r3, [sp, #48]	; 0x30
10001a42:	191b      	adds	r3, r3, r4
10001a44:	3401      	adds	r4, #1
10001a46:	e040      	b.n	10001aca <_ntoa_format+0x1ca>
10001a48:	429c      	cmp	r4, r3
10001a4a:	d300      	bcc.n	10001a4e <_ntoa_format+0x14e>
10001a4c:	e78f      	b.n	1000196e <_ntoa_format+0x6e>
10001a4e:	2c1f      	cmp	r4, #31
10001a50:	d800      	bhi.n	10001a54 <_ntoa_format+0x154>
10001a52:	e771      	b.n	10001938 <_ntoa_format+0x38>
10001a54:	2420      	movs	r4, #32
10001a56:	e78a      	b.n	1000196e <_ntoa_format+0x6e>
10001a58:	232b      	movs	r3, #43	; 0x2b
10001a5a:	9a0c      	ldr	r2, [sp, #48]	; 0x30
10001a5c:	5513      	strb	r3, [r2, r4]
10001a5e:	3401      	adds	r4, #1
10001a60:	e79e      	b.n	100019a0 <_ntoa_format+0xa0>
10001a62:	3e01      	subs	r6, #1
10001a64:	e7d5      	b.n	10001a12 <_ntoa_format+0x112>
10001a66:	1e63      	subs	r3, r4, #1
10001a68:	2c01      	cmp	r4, #1
10001a6a:	d100      	bne.n	10001a6e <_ntoa_format+0x16e>
10001a6c:	e785      	b.n	1000197a <_ntoa_format+0x7a>
10001a6e:	9a0f      	ldr	r2, [sp, #60]	; 0x3c
10001a70:	2a10      	cmp	r2, #16
10001a72:	d020      	beq.n	10001ab6 <_ntoa_format+0x1b6>
10001a74:	2a02      	cmp	r2, #2
10001a76:	d025      	beq.n	10001ac4 <_ntoa_format+0x1c4>
10001a78:	001c      	movs	r4, r3
10001a7a:	e7ab      	b.n	100019d4 <_ntoa_format+0xd4>
10001a7c:	06bb      	lsls	r3, r7, #26
10001a7e:	d40d      	bmi.n	10001a9c <_ntoa_format+0x19c>
10001a80:	2378      	movs	r3, #120	; 0x78
10001a82:	9a0c      	ldr	r2, [sp, #48]	; 0x30
10001a84:	2401      	movs	r4, #1
10001a86:	7013      	strb	r3, [r2, #0]
10001a88:	e7a4      	b.n	100019d4 <_ntoa_format+0xd4>
10001a8a:	2c20      	cmp	r4, #32
10001a8c:	d100      	bne.n	10001a90 <_ntoa_format+0x190>
10001a8e:	e787      	b.n	100019a0 <_ntoa_format+0xa0>
10001a90:	2258      	movs	r2, #88	; 0x58
10001a92:	9b0c      	ldr	r3, [sp, #48]	; 0x30
10001a94:	191b      	adds	r3, r3, r4
10001a96:	701a      	strb	r2, [r3, #0]
10001a98:	3401      	adds	r4, #1
10001a9a:	e799      	b.n	100019d0 <_ntoa_format+0xd0>
10001a9c:	2358      	movs	r3, #88	; 0x58
10001a9e:	9a0c      	ldr	r2, [sp, #48]	; 0x30
10001aa0:	2401      	movs	r4, #1
10001aa2:	7013      	strb	r3, [r2, #0]
10001aa4:	e796      	b.n	100019d4 <_ntoa_format+0xd4>
10001aa6:	9a0c      	ldr	r2, [sp, #48]	; 0x30
10001aa8:	3360      	adds	r3, #96	; 0x60
10001aaa:	2401      	movs	r4, #1
10001aac:	7013      	strb	r3, [r2, #0]
10001aae:	e791      	b.n	100019d4 <_ntoa_format+0xd4>
10001ab0:	2420      	movs	r4, #32
10001ab2:	2600      	movs	r6, #0
10001ab4:	e75b      	b.n	1000196e <_ntoa_format+0x6e>
10001ab6:	3c02      	subs	r4, #2
10001ab8:	06ba      	lsls	r2, r7, #26
10001aba:	d4e9      	bmi.n	10001a90 <_ntoa_format+0x190>
10001abc:	9a0c      	ldr	r2, [sp, #48]	; 0x30
10001abe:	1912      	adds	r2, r2, r4
10001ac0:	001c      	movs	r4, r3
10001ac2:	e783      	b.n	100019cc <_ntoa_format+0xcc>
10001ac4:	9a0c      	ldr	r2, [sp, #48]	; 0x30
10001ac6:	4692      	mov	sl, r2
10001ac8:	4453      	add	r3, sl
10001aca:	2262      	movs	r2, #98	; 0x62
10001acc:	701a      	strb	r2, [r3, #0]
10001ace:	e77f      	b.n	100019d0 <_ntoa_format+0xd0>

10001ad0 <_out_char>:
10001ad0:	b510      	push	{r4, lr}
10001ad2:	2800      	cmp	r0, #0
10001ad4:	d100      	bne.n	10001ad8 <_out_char+0x8>
10001ad6:	bd10      	pop	{r4, pc}
10001ad8:	f002 f9fe 	bl	10003ed8 <__wrap_putchar>
10001adc:	e7fb      	b.n	10001ad6 <_out_char+0x6>
10001ade:	46c0      	nop			; (mov r8, r8)

10001ae0 <_out_fct>:
10001ae0:	000b      	movs	r3, r1
10001ae2:	b510      	push	{r4, lr}
10001ae4:	2800      	cmp	r0, #0
10001ae6:	d002      	beq.n	10001aee <_out_fct+0xe>
10001ae8:	6849      	ldr	r1, [r1, #4]
10001aea:	681b      	ldr	r3, [r3, #0]
10001aec:	4798      	blx	r3
10001aee:	bd10      	pop	{r4, pc}

10001af0 <_etoa>:
10001af0:	b5f0      	push	{r4, r5, r6, r7, lr}
10001af2:	46de      	mov	lr, fp
10001af4:	4657      	mov	r7, sl
10001af6:	464e      	mov	r6, r9
10001af8:	4645      	mov	r5, r8
10001afa:	b5e0      	push	{r5, r6, r7, lr}
10001afc:	b09b      	sub	sp, #108	; 0x6c
10001afe:	469a      	mov	sl, r3
10001b00:	9b24      	ldr	r3, [sp, #144]	; 0x90
10001b02:	468b      	mov	fp, r1
10001b04:	4699      	mov	r9, r3
10001b06:	9b25      	ldr	r3, [sp, #148]	; 0x94
10001b08:	900b      	str	r0, [sp, #44]	; 0x2c
10001b0a:	4698      	mov	r8, r3
10001b0c:	920c      	str	r2, [sp, #48]	; 0x30
10001b0e:	4643      	mov	r3, r8
10001b10:	464a      	mov	r2, r9
10001b12:	4648      	mov	r0, r9
10001b14:	4641      	mov	r1, r8
10001b16:	f001 fce0 	bl	100034da <__wrap___aeabi_dcmpun>
10001b1a:	2800      	cmp	r0, #0
10001b1c:	d000      	beq.n	10001b20 <_etoa+0x30>
10001b1e:	e1a3      	b.n	10001e68 <_etoa+0x378>
10001b20:	2201      	movs	r2, #1
10001b22:	4648      	mov	r0, r9
10001b24:	4641      	mov	r1, r8
10001b26:	4be2      	ldr	r3, [pc, #904]	; (10001eb0 <_etoa+0x3c0>)
10001b28:	4252      	negs	r2, r2
10001b2a:	f001 fcd1 	bl	100034d0 <__wrap___aeabi_dcmpgt>
10001b2e:	2800      	cmp	r0, #0
10001b30:	d000      	beq.n	10001b34 <_etoa+0x44>
10001b32:	e199      	b.n	10001e68 <_etoa+0x378>
10001b34:	2201      	movs	r2, #1
10001b36:	4648      	mov	r0, r9
10001b38:	4641      	mov	r1, r8
10001b3a:	4bde      	ldr	r3, [pc, #888]	; (10001eb4 <_etoa+0x3c4>)
10001b3c:	4252      	negs	r2, r2
10001b3e:	f001 fcb1 	bl	100034a4 <__wrap___aeabi_dcmplt>
10001b42:	2800      	cmp	r0, #0
10001b44:	d000      	beq.n	10001b48 <_etoa+0x58>
10001b46:	e18f      	b.n	10001e68 <_etoa+0x378>
10001b48:	2200      	movs	r2, #0
10001b4a:	2300      	movs	r3, #0
10001b4c:	4648      	mov	r0, r9
10001b4e:	4641      	mov	r1, r8
10001b50:	f001 fca8 	bl	100034a4 <__wrap___aeabi_dcmplt>
10001b54:	2800      	cmp	r0, #0
10001b56:	d000      	beq.n	10001b5a <_etoa+0x6a>
10001b58:	e1de      	b.n	10001f18 <_etoa+0x428>
10001b5a:	464a      	mov	r2, r9
10001b5c:	4643      	mov	r3, r8
10001b5e:	920a      	str	r2, [sp, #40]	; 0x28
10001b60:	9309      	str	r3, [sp, #36]	; 0x24
10001b62:	2380      	movs	r3, #128	; 0x80
10001b64:	9a28      	ldr	r2, [sp, #160]	; 0xa0
10001b66:	00db      	lsls	r3, r3, #3
10001b68:	401a      	ands	r2, r3
10001b6a:	9211      	str	r2, [sp, #68]	; 0x44
10001b6c:	9a28      	ldr	r2, [sp, #160]	; 0xa0
10001b6e:	421a      	tst	r2, r3
10001b70:	d101      	bne.n	10001b76 <_etoa+0x86>
10001b72:	2306      	movs	r3, #6
10001b74:	9326      	str	r3, [sp, #152]	; 0x98
10001b76:	4bd0      	ldr	r3, [pc, #832]	; (10001eb8 <_etoa+0x3c8>)
10001b78:	9f09      	ldr	r7, [sp, #36]	; 0x24
10001b7a:	469c      	mov	ip, r3
10001b7c:	0078      	lsls	r0, r7, #1
10001b7e:	0d40      	lsrs	r0, r0, #21
10001b80:	4460      	add	r0, ip
10001b82:	f001 fcbd 	bl	10003500 <__wrap___aeabi_i2d>
10001b86:	4acd      	ldr	r2, [pc, #820]	; (10001ebc <_etoa+0x3cc>)
10001b88:	4bcd      	ldr	r3, [pc, #820]	; (10001ec0 <_etoa+0x3d0>)
10001b8a:	f001 fc49 	bl	10003420 <__wrap___aeabi_dmul>
10001b8e:	4acd      	ldr	r2, [pc, #820]	; (10001ec4 <_etoa+0x3d4>)
10001b90:	4bcd      	ldr	r3, [pc, #820]	; (10001ec8 <_etoa+0x3d8>)
10001b92:	f001 fc33 	bl	100033fc <__wrap___aeabi_dadd>
10001b96:	033b      	lsls	r3, r7, #12
10001b98:	4acc      	ldr	r2, [pc, #816]	; (10001ecc <_etoa+0x3dc>)
10001b9a:	9e0a      	ldr	r6, [sp, #40]	; 0x28
10001b9c:	0b1b      	lsrs	r3, r3, #12
10001b9e:	431a      	orrs	r2, r3
10001ba0:	0004      	movs	r4, r0
10001ba2:	000d      	movs	r5, r1
10001ba4:	0030      	movs	r0, r6
10001ba6:	0011      	movs	r1, r2
10001ba8:	4bc9      	ldr	r3, [pc, #804]	; (10001ed0 <_etoa+0x3e0>)
10001baa:	2200      	movs	r2, #0
10001bac:	9709      	str	r7, [sp, #36]	; 0x24
10001bae:	f001 fc1c 	bl	100033ea <__wrap___aeabi_dsub>
10001bb2:	4ac8      	ldr	r2, [pc, #800]	; (10001ed4 <_etoa+0x3e4>)
10001bb4:	4bc8      	ldr	r3, [pc, #800]	; (10001ed8 <_etoa+0x3e8>)
10001bb6:	f001 fc33 	bl	10003420 <__wrap___aeabi_dmul>
10001bba:	0002      	movs	r2, r0
10001bbc:	000b      	movs	r3, r1
10001bbe:	0020      	movs	r0, r4
10001bc0:	0029      	movs	r1, r5
10001bc2:	f001 fc1b 	bl	100033fc <__wrap___aeabi_dadd>
10001bc6:	f001 fcb3 	bl	10003530 <__wrap___aeabi_d2iz>
10001bca:	900d      	str	r0, [sp, #52]	; 0x34
10001bcc:	f001 fc98 	bl	10003500 <__wrap___aeabi_i2d>
10001bd0:	4ac2      	ldr	r2, [pc, #776]	; (10001edc <_etoa+0x3ec>)
10001bd2:	4bc3      	ldr	r3, [pc, #780]	; (10001ee0 <_etoa+0x3f0>)
10001bd4:	0004      	movs	r4, r0
10001bd6:	000d      	movs	r5, r1
10001bd8:	f001 fc22 	bl	10003420 <__wrap___aeabi_dmul>
10001bdc:	2200      	movs	r2, #0
10001bde:	4bc1      	ldr	r3, [pc, #772]	; (10001ee4 <_etoa+0x3f4>)
10001be0:	f001 fc0c 	bl	100033fc <__wrap___aeabi_dadd>
10001be4:	f001 fca4 	bl	10003530 <__wrap___aeabi_d2iz>
10001be8:	4abf      	ldr	r2, [pc, #764]	; (10001ee8 <_etoa+0x3f8>)
10001bea:	0006      	movs	r6, r0
10001bec:	4bbf      	ldr	r3, [pc, #764]	; (10001eec <_etoa+0x3fc>)
10001bee:	0020      	movs	r0, r4
10001bf0:	0029      	movs	r1, r5
10001bf2:	f001 fc15 	bl	10003420 <__wrap___aeabi_dmul>
10001bf6:	0004      	movs	r4, r0
10001bf8:	0030      	movs	r0, r6
10001bfa:	000d      	movs	r5, r1
10001bfc:	9610      	str	r6, [sp, #64]	; 0x40
10001bfe:	f001 fc7f 	bl	10003500 <__wrap___aeabi_i2d>
10001c02:	4abb      	ldr	r2, [pc, #748]	; (10001ef0 <_etoa+0x400>)
10001c04:	4bbb      	ldr	r3, [pc, #748]	; (10001ef4 <_etoa+0x404>)
10001c06:	f001 fc0b 	bl	10003420 <__wrap___aeabi_dmul>
10001c0a:	0002      	movs	r2, r0
10001c0c:	000b      	movs	r3, r1
10001c0e:	0020      	movs	r0, r4
10001c10:	0029      	movs	r1, r5
10001c12:	f001 fbea 	bl	100033ea <__wrap___aeabi_dsub>
10001c16:	0002      	movs	r2, r0
10001c18:	000b      	movs	r3, r1
10001c1a:	0006      	movs	r6, r0
10001c1c:	000f      	movs	r7, r1
10001c1e:	f001 fbff 	bl	10003420 <__wrap___aeabi_dmul>
10001c22:	0032      	movs	r2, r6
10001c24:	0004      	movs	r4, r0
10001c26:	000d      	movs	r5, r1
10001c28:	003b      	movs	r3, r7
10001c2a:	0030      	movs	r0, r6
10001c2c:	0039      	movs	r1, r7
10001c2e:	f001 fbe5 	bl	100033fc <__wrap___aeabi_dadd>
10001c32:	2200      	movs	r2, #0
10001c34:	900e      	str	r0, [sp, #56]	; 0x38
10001c36:	910f      	str	r1, [sp, #60]	; 0x3c
10001c38:	4baf      	ldr	r3, [pc, #700]	; (10001ef8 <_etoa+0x408>)
10001c3a:	0020      	movs	r0, r4
10001c3c:	0029      	movs	r1, r5
10001c3e:	f001 fbe6 	bl	1000340e <__wrap___aeabi_ddiv>
10001c42:	2200      	movs	r2, #0
10001c44:	4bad      	ldr	r3, [pc, #692]	; (10001efc <_etoa+0x40c>)
10001c46:	f001 fbd9 	bl	100033fc <__wrap___aeabi_dadd>
10001c4a:	0002      	movs	r2, r0
10001c4c:	000b      	movs	r3, r1
10001c4e:	0020      	movs	r0, r4
10001c50:	0029      	movs	r1, r5
10001c52:	f001 fbdc 	bl	1000340e <__wrap___aeabi_ddiv>
10001c56:	2200      	movs	r2, #0
10001c58:	4ba9      	ldr	r3, [pc, #676]	; (10001f00 <_etoa+0x410>)
10001c5a:	f001 fbcf 	bl	100033fc <__wrap___aeabi_dadd>
10001c5e:	0002      	movs	r2, r0
10001c60:	000b      	movs	r3, r1
10001c62:	0020      	movs	r0, r4
10001c64:	0029      	movs	r1, r5
10001c66:	f001 fbd2 	bl	1000340e <__wrap___aeabi_ddiv>
10001c6a:	000d      	movs	r5, r1
10001c6c:	2180      	movs	r1, #128	; 0x80
10001c6e:	0004      	movs	r4, r0
10001c70:	0032      	movs	r2, r6
10001c72:	003b      	movs	r3, r7
10001c74:	2000      	movs	r0, #0
10001c76:	05c9      	lsls	r1, r1, #23
10001c78:	f001 fbb7 	bl	100033ea <__wrap___aeabi_dsub>
10001c7c:	0002      	movs	r2, r0
10001c7e:	000b      	movs	r3, r1
10001c80:	0020      	movs	r0, r4
10001c82:	0029      	movs	r1, r5
10001c84:	f001 fbba 	bl	100033fc <__wrap___aeabi_dadd>
10001c88:	0002      	movs	r2, r0
10001c8a:	000b      	movs	r3, r1
10001c8c:	980e      	ldr	r0, [sp, #56]	; 0x38
10001c8e:	990f      	ldr	r1, [sp, #60]	; 0x3c
10001c90:	f001 fbbd 	bl	1000340e <__wrap___aeabi_ddiv>
10001c94:	2200      	movs	r2, #0
10001c96:	4b8d      	ldr	r3, [pc, #564]	; (10001ecc <_etoa+0x3dc>)
10001c98:	f001 fbb0 	bl	100033fc <__wrap___aeabi_dadd>
10001c9c:	9b10      	ldr	r3, [sp, #64]	; 0x40
10001c9e:	4a99      	ldr	r2, [pc, #612]	; (10001f04 <_etoa+0x414>)
10001ca0:	001c      	movs	r4, r3
10001ca2:	4694      	mov	ip, r2
10001ca4:	4464      	add	r4, ip
10001ca6:	2200      	movs	r2, #0
10001ca8:	0523      	lsls	r3, r4, #20
10001caa:	f001 fbb9 	bl	10003420 <__wrap___aeabi_dmul>
10001cae:	0006      	movs	r6, r0
10001cb0:	000f      	movs	r7, r1
10001cb2:	0002      	movs	r2, r0
10001cb4:	000b      	movs	r3, r1
10001cb6:	980a      	ldr	r0, [sp, #40]	; 0x28
10001cb8:	9909      	ldr	r1, [sp, #36]	; 0x24
10001cba:	f001 fbf3 	bl	100034a4 <__wrap___aeabi_dcmplt>
10001cbe:	2800      	cmp	r0, #0
10001cc0:	d00a      	beq.n	10001cd8 <_etoa+0x1e8>
10001cc2:	9b0d      	ldr	r3, [sp, #52]	; 0x34
10001cc4:	0030      	movs	r0, r6
10001cc6:	3b01      	subs	r3, #1
10001cc8:	0039      	movs	r1, r7
10001cca:	930d      	str	r3, [sp, #52]	; 0x34
10001ccc:	2200      	movs	r2, #0
10001cce:	4b8b      	ldr	r3, [pc, #556]	; (10001efc <_etoa+0x40c>)
10001cd0:	f001 fb9d 	bl	1000340e <__wrap___aeabi_ddiv>
10001cd4:	0006      	movs	r6, r0
10001cd6:	000f      	movs	r7, r1
10001cd8:	9d0d      	ldr	r5, [sp, #52]	; 0x34
10001cda:	24c6      	movs	r4, #198	; 0xc6
10001cdc:	002b      	movs	r3, r5
10001cde:	3363      	adds	r3, #99	; 0x63
10001ce0:	429c      	cmp	r4, r3
10001ce2:	41a4      	sbcs	r4, r4
10001ce4:	9b28      	ldr	r3, [sp, #160]	; 0xa0
10001ce6:	4264      	negs	r4, r4
10001ce8:	3404      	adds	r4, #4
10001cea:	051b      	lsls	r3, r3, #20
10001cec:	d51f      	bpl.n	10001d2e <_etoa+0x23e>
10001cee:	4a86      	ldr	r2, [pc, #536]	; (10001f08 <_etoa+0x418>)
10001cf0:	4b86      	ldr	r3, [pc, #536]	; (10001f0c <_etoa+0x41c>)
10001cf2:	980a      	ldr	r0, [sp, #40]	; 0x28
10001cf4:	9909      	ldr	r1, [sp, #36]	; 0x24
10001cf6:	f001 fbe3 	bl	100034c0 <__wrap___aeabi_dcmpge>
10001cfa:	2800      	cmp	r0, #0
10001cfc:	d100      	bne.n	10001d00 <_etoa+0x210>
10001cfe:	e0cc      	b.n	10001e9a <_etoa+0x3aa>
10001d00:	2200      	movs	r2, #0
10001d02:	4b83      	ldr	r3, [pc, #524]	; (10001f10 <_etoa+0x420>)
10001d04:	980a      	ldr	r0, [sp, #40]	; 0x28
10001d06:	9909      	ldr	r1, [sp, #36]	; 0x24
10001d08:	f001 fbcc 	bl	100034a4 <__wrap___aeabi_dcmplt>
10001d0c:	2800      	cmp	r0, #0
10001d0e:	d100      	bne.n	10001d12 <_etoa+0x222>
10001d10:	e0c3      	b.n	10001e9a <_etoa+0x3aa>
10001d12:	9a26      	ldr	r2, [sp, #152]	; 0x98
10001d14:	4295      	cmp	r5, r2
10001d16:	da00      	bge.n	10001d1a <_etoa+0x22a>
10001d18:	e10b      	b.n	10001f32 <_etoa+0x442>
10001d1a:	2300      	movs	r3, #0
10001d1c:	9326      	str	r3, [sp, #152]	; 0x98
10001d1e:	2380      	movs	r3, #128	; 0x80
10001d20:	9a28      	ldr	r2, [sp, #160]	; 0xa0
10001d22:	00db      	lsls	r3, r3, #3
10001d24:	431a      	orrs	r2, r3
10001d26:	2300      	movs	r3, #0
10001d28:	2400      	movs	r4, #0
10001d2a:	9228      	str	r2, [sp, #160]	; 0xa0
10001d2c:	930d      	str	r3, [sp, #52]	; 0x34
10001d2e:	9b27      	ldr	r3, [sp, #156]	; 0x9c
10001d30:	2500      	movs	r5, #0
10001d32:	42a3      	cmp	r3, r4
10001d34:	d900      	bls.n	10001d38 <_etoa+0x248>
10001d36:	1b1d      	subs	r5, r3, r4
10001d38:	2302      	movs	r3, #2
10001d3a:	9a28      	ldr	r2, [sp, #160]	; 0xa0
10001d3c:	401a      	ands	r2, r3
10001d3e:	9210      	str	r2, [sp, #64]	; 0x40
10001d40:	9a28      	ldr	r2, [sp, #160]	; 0xa0
10001d42:	4213      	tst	r3, r2
10001d44:	d003      	beq.n	10001d4e <_etoa+0x25e>
10001d46:	4263      	negs	r3, r4
10001d48:	4163      	adcs	r3, r4
10001d4a:	425b      	negs	r3, r3
10001d4c:	401d      	ands	r5, r3
10001d4e:	9b0d      	ldr	r3, [sp, #52]	; 0x34
10001d50:	2b00      	cmp	r3, #0
10001d52:	d007      	beq.n	10001d64 <_etoa+0x274>
10001d54:	980a      	ldr	r0, [sp, #40]	; 0x28
10001d56:	9909      	ldr	r1, [sp, #36]	; 0x24
10001d58:	0032      	movs	r2, r6
10001d5a:	003b      	movs	r3, r7
10001d5c:	f001 fb57 	bl	1000340e <__wrap___aeabi_ddiv>
10001d60:	900a      	str	r0, [sp, #40]	; 0x28
10001d62:	9109      	str	r1, [sp, #36]	; 0x24
10001d64:	2200      	movs	r2, #0
10001d66:	2300      	movs	r3, #0
10001d68:	4648      	mov	r0, r9
10001d6a:	4641      	mov	r1, r8
10001d6c:	f001 fb9a 	bl	100034a4 <__wrap___aeabi_dcmplt>
10001d70:	2800      	cmp	r0, #0
10001d72:	d005      	beq.n	10001d80 <_etoa+0x290>
10001d74:	2080      	movs	r0, #128	; 0x80
10001d76:	0600      	lsls	r0, r0, #24
10001d78:	4684      	mov	ip, r0
10001d7a:	9909      	ldr	r1, [sp, #36]	; 0x24
10001d7c:	4461      	add	r1, ip
10001d7e:	9109      	str	r1, [sp, #36]	; 0x24
10001d80:	9a28      	ldr	r2, [sp, #160]	; 0xa0
10001d82:	4b64      	ldr	r3, [pc, #400]	; (10001f14 <_etoa+0x424>)
10001d84:	9e0b      	ldr	r6, [sp, #44]	; 0x2c
10001d86:	4013      	ands	r3, r2
10001d88:	9304      	str	r3, [sp, #16]
10001d8a:	9b26      	ldr	r3, [sp, #152]	; 0x98
10001d8c:	9a0a      	ldr	r2, [sp, #40]	; 0x28
10001d8e:	9302      	str	r3, [sp, #8]
10001d90:	9b09      	ldr	r3, [sp, #36]	; 0x24
10001d92:	9503      	str	r5, [sp, #12]
10001d94:	9200      	str	r2, [sp, #0]
10001d96:	9301      	str	r3, [sp, #4]
10001d98:	4659      	mov	r1, fp
10001d9a:	4653      	mov	r3, sl
10001d9c:	0030      	movs	r0, r6
10001d9e:	9a0c      	ldr	r2, [sp, #48]	; 0x30
10001da0:	f000 f8cc 	bl	10001f3c <_ftoa>
10001da4:	0005      	movs	r5, r0
10001da6:	2c00      	cmp	r4, #0
10001da8:	d06f      	beq.n	10001e8a <_etoa+0x39a>
10001daa:	9b28      	ldr	r3, [sp, #160]	; 0xa0
10001dac:	002a      	movs	r2, r5
10001dae:	0698      	lsls	r0, r3, #26
10001db0:	231f      	movs	r3, #31
10001db2:	17c0      	asrs	r0, r0, #31
10001db4:	4398      	bics	r0, r3
10001db6:	1c6b      	adds	r3, r5, #1
10001db8:	4698      	mov	r8, r3
10001dba:	4659      	mov	r1, fp
10001dbc:	4653      	mov	r3, sl
10001dbe:	3065      	adds	r0, #101	; 0x65
10001dc0:	47b0      	blx	r6
10001dc2:	9b0d      	ldr	r3, [sp, #52]	; 0x34
10001dc4:	2600      	movs	r6, #0
10001dc6:	17da      	asrs	r2, r3, #31
10001dc8:	189d      	adds	r5, r3, r2
10001dca:	0fdb      	lsrs	r3, r3, #31
10001dcc:	4699      	mov	r9, r3
10001dce:	4055      	eors	r5, r2
10001dd0:	3c01      	subs	r4, #1
10001dd2:	e001      	b.n	10001dd8 <_etoa+0x2e8>
10001dd4:	2e20      	cmp	r6, #32
10001dd6:	d013      	beq.n	10001e00 <_etoa+0x310>
10001dd8:	aa0a      	add	r2, sp, #40	; 0x28
10001dda:	4694      	mov	ip, r2
10001ddc:	231f      	movs	r3, #31
10001dde:	0028      	movs	r0, r5
10001de0:	4463      	add	r3, ip
10001de2:	210a      	movs	r1, #10
10001de4:	3601      	adds	r6, #1
10001de6:	199f      	adds	r7, r3, r6
10001de8:	f001 f8ba 	bl	10002f60 <__wrap___aeabi_uidiv>
10001dec:	3130      	adds	r1, #48	; 0x30
10001dee:	7039      	strb	r1, [r7, #0]
10001df0:	0028      	movs	r0, r5
10001df2:	210a      	movs	r1, #10
10001df4:	f001 f8b4 	bl	10002f60 <__wrap___aeabi_uidiv>
10001df8:	002f      	movs	r7, r5
10001dfa:	0005      	movs	r5, r0
10001dfc:	2f09      	cmp	r7, #9
10001dfe:	d8e9      	bhi.n	10001dd4 <_etoa+0x2e4>
10001e00:	2305      	movs	r3, #5
10001e02:	9306      	str	r3, [sp, #24]
10001e04:	2300      	movs	r3, #0
10001e06:	9304      	str	r3, [sp, #16]
10001e08:	330a      	adds	r3, #10
10001e0a:	9303      	str	r3, [sp, #12]
10001e0c:	464b      	mov	r3, r9
10001e0e:	9601      	str	r6, [sp, #4]
10001e10:	9e0b      	ldr	r6, [sp, #44]	; 0x2c
10001e12:	9302      	str	r3, [sp, #8]
10001e14:	ab12      	add	r3, sp, #72	; 0x48
10001e16:	9300      	str	r3, [sp, #0]
10001e18:	4642      	mov	r2, r8
10001e1a:	4653      	mov	r3, sl
10001e1c:	4659      	mov	r1, fp
10001e1e:	0030      	movs	r0, r6
10001e20:	9405      	str	r4, [sp, #20]
10001e22:	f7ff fd6d 	bl	10001900 <_ntoa_format>
10001e26:	9b10      	ldr	r3, [sp, #64]	; 0x40
10001e28:	0005      	movs	r5, r0
10001e2a:	2b00      	cmp	r3, #0
10001e2c:	d02d      	beq.n	10001e8a <_etoa+0x39a>
10001e2e:	9b0c      	ldr	r3, [sp, #48]	; 0x30
10001e30:	9a27      	ldr	r2, [sp, #156]	; 0x9c
10001e32:	1ac4      	subs	r4, r0, r3
10001e34:	42a2      	cmp	r2, r4
10001e36:	d928      	bls.n	10001e8a <_etoa+0x39a>
10001e38:	4681      	mov	r9, r0
10001e3a:	465d      	mov	r5, fp
10001e3c:	4698      	mov	r8, r3
10001e3e:	0017      	movs	r7, r2
10001e40:	4643      	mov	r3, r8
10001e42:	0029      	movs	r1, r5
10001e44:	191a      	adds	r2, r3, r4
10001e46:	2020      	movs	r0, #32
10001e48:	4653      	mov	r3, sl
10001e4a:	3401      	adds	r4, #1
10001e4c:	47b0      	blx	r6
10001e4e:	42a7      	cmp	r7, r4
10001e50:	d8f6      	bhi.n	10001e40 <_etoa+0x350>
10001e52:	464d      	mov	r5, r9
10001e54:	990c      	ldr	r1, [sp, #48]	; 0x30
10001e56:	9827      	ldr	r0, [sp, #156]	; 0x9c
10001e58:	1a6b      	subs	r3, r5, r1
10001e5a:	3301      	adds	r3, #1
10001e5c:	2200      	movs	r2, #0
10001e5e:	4298      	cmp	r0, r3
10001e60:	d261      	bcs.n	10001f26 <_etoa+0x436>
10001e62:	3501      	adds	r5, #1
10001e64:	1955      	adds	r5, r2, r5
10001e66:	e010      	b.n	10001e8a <_etoa+0x39a>
10001e68:	9b28      	ldr	r3, [sp, #160]	; 0xa0
10001e6a:	464a      	mov	r2, r9
10001e6c:	9304      	str	r3, [sp, #16]
10001e6e:	9b27      	ldr	r3, [sp, #156]	; 0x9c
10001e70:	4659      	mov	r1, fp
10001e72:	9303      	str	r3, [sp, #12]
10001e74:	9b26      	ldr	r3, [sp, #152]	; 0x98
10001e76:	980b      	ldr	r0, [sp, #44]	; 0x2c
10001e78:	9302      	str	r3, [sp, #8]
10001e7a:	4643      	mov	r3, r8
10001e7c:	9200      	str	r2, [sp, #0]
10001e7e:	9301      	str	r3, [sp, #4]
10001e80:	4653      	mov	r3, sl
10001e82:	9a0c      	ldr	r2, [sp, #48]	; 0x30
10001e84:	f000 f85a 	bl	10001f3c <_ftoa>
10001e88:	0005      	movs	r5, r0
10001e8a:	0028      	movs	r0, r5
10001e8c:	b01b      	add	sp, #108	; 0x6c
10001e8e:	bc3c      	pop	{r2, r3, r4, r5}
10001e90:	4690      	mov	r8, r2
10001e92:	4699      	mov	r9, r3
10001e94:	46a2      	mov	sl, r4
10001e96:	46ab      	mov	fp, r5
10001e98:	bdf0      	pop	{r4, r5, r6, r7, pc}
10001e9a:	9b26      	ldr	r3, [sp, #152]	; 0x98
10001e9c:	2b00      	cmp	r3, #0
10001e9e:	d100      	bne.n	10001ea2 <_etoa+0x3b2>
10001ea0:	e745      	b.n	10001d2e <_etoa+0x23e>
10001ea2:	9b11      	ldr	r3, [sp, #68]	; 0x44
10001ea4:	1e5a      	subs	r2, r3, #1
10001ea6:	4193      	sbcs	r3, r2
10001ea8:	9a26      	ldr	r2, [sp, #152]	; 0x98
10001eaa:	1ad3      	subs	r3, r2, r3
10001eac:	9326      	str	r3, [sp, #152]	; 0x98
10001eae:	e73e      	b.n	10001d2e <_etoa+0x23e>
10001eb0:	7fefffff 	.word	0x7fefffff
10001eb4:	ffefffff 	.word	0xffefffff
10001eb8:	fffffc01 	.word	0xfffffc01
10001ebc:	509f79fb 	.word	0x509f79fb
10001ec0:	3fd34413 	.word	0x3fd34413
10001ec4:	8b60c8b3 	.word	0x8b60c8b3
10001ec8:	3fc68a28 	.word	0x3fc68a28
10001ecc:	3ff00000 	.word	0x3ff00000
10001ed0:	3ff80000 	.word	0x3ff80000
10001ed4:	636f4361 	.word	0x636f4361
10001ed8:	3fd287a7 	.word	0x3fd287a7
10001edc:	0979a371 	.word	0x0979a371
10001ee0:	400a934f 	.word	0x400a934f
10001ee4:	3fe00000 	.word	0x3fe00000
10001ee8:	bbb55516 	.word	0xbbb55516
10001eec:	40026bb1 	.word	0x40026bb1
10001ef0:	fefa39ef 	.word	0xfefa39ef
10001ef4:	3fe62e42 	.word	0x3fe62e42
10001ef8:	402c0000 	.word	0x402c0000
10001efc:	40240000 	.word	0x40240000
10001f00:	40180000 	.word	0x40180000
10001f04:	000003ff 	.word	0x000003ff
10001f08:	eb1c432d 	.word	0xeb1c432d
10001f0c:	3f1a36e2 	.word	0x3f1a36e2
10001f10:	412e8480 	.word	0x412e8480
10001f14:	fffff7ff 	.word	0xfffff7ff
10001f18:	464b      	mov	r3, r9
10001f1a:	930a      	str	r3, [sp, #40]	; 0x28
10001f1c:	2380      	movs	r3, #128	; 0x80
10001f1e:	061b      	lsls	r3, r3, #24
10001f20:	4443      	add	r3, r8
10001f22:	9309      	str	r3, [sp, #36]	; 0x24
10001f24:	e61d      	b.n	10001b62 <_etoa+0x72>
10001f26:	000a      	movs	r2, r1
10001f28:	4684      	mov	ip, r0
10001f2a:	3a01      	subs	r2, #1
10001f2c:	4462      	add	r2, ip
10001f2e:	1b52      	subs	r2, r2, r5
10001f30:	e797      	b.n	10001e62 <_etoa+0x372>
10001f32:	1b50      	subs	r0, r2, r5
10001f34:	1e43      	subs	r3, r0, #1
10001f36:	9326      	str	r3, [sp, #152]	; 0x98
10001f38:	e6f1      	b.n	10001d1e <_etoa+0x22e>
10001f3a:	46c0      	nop			; (mov r8, r8)

10001f3c <_ftoa>:
10001f3c:	b5f0      	push	{r4, r5, r6, r7, lr}
10001f3e:	464e      	mov	r6, r9
10001f40:	46de      	mov	lr, fp
10001f42:	4657      	mov	r7, sl
10001f44:	4645      	mov	r5, r8
10001f46:	b5e0      	push	{r5, r6, r7, lr}
10001f48:	b097      	sub	sp, #92	; 0x5c
10001f4a:	4699      	mov	r9, r3
10001f4c:	9e20      	ldr	r6, [sp, #128]	; 0x80
10001f4e:	9f21      	ldr	r7, [sp, #132]	; 0x84
10001f50:	9b22      	ldr	r3, [sp, #136]	; 0x88
10001f52:	4683      	mov	fp, r0
10001f54:	4698      	mov	r8, r3
10001f56:	9107      	str	r1, [sp, #28]
10001f58:	920c      	str	r2, [sp, #48]	; 0x30
10001f5a:	003b      	movs	r3, r7
10001f5c:	0032      	movs	r2, r6
10001f5e:	0030      	movs	r0, r6
10001f60:	0039      	movs	r1, r7
10001f62:	f001 faba 	bl	100034da <__wrap___aeabi_dcmpun>
10001f66:	2800      	cmp	r0, #0
10001f68:	d000      	beq.n	10001f6c <_ftoa+0x30>
10001f6a:	e1c1      	b.n	100022f0 <_ftoa+0x3b4>
10001f6c:	2201      	movs	r2, #1
10001f6e:	0030      	movs	r0, r6
10001f70:	0039      	movs	r1, r7
10001f72:	4bca      	ldr	r3, [pc, #808]	; (1000229c <_ftoa+0x360>)
10001f74:	4252      	negs	r2, r2
10001f76:	f001 fa95 	bl	100034a4 <__wrap___aeabi_dcmplt>
10001f7a:	2800      	cmp	r0, #0
10001f7c:	d000      	beq.n	10001f80 <_ftoa+0x44>
10001f7e:	e0e0      	b.n	10002142 <_ftoa+0x206>
10001f80:	2201      	movs	r2, #1
10001f82:	0030      	movs	r0, r6
10001f84:	0039      	movs	r1, r7
10001f86:	4bc6      	ldr	r3, [pc, #792]	; (100022a0 <_ftoa+0x364>)
10001f88:	4252      	negs	r2, r2
10001f8a:	f001 faa1 	bl	100034d0 <__wrap___aeabi_dcmpgt>
10001f8e:	2800      	cmp	r0, #0
10001f90:	d000      	beq.n	10001f94 <_ftoa+0x58>
10001f92:	e0b6      	b.n	10002102 <_ftoa+0x1c6>
10001f94:	2200      	movs	r2, #0
10001f96:	0030      	movs	r0, r6
10001f98:	0039      	movs	r1, r7
10001f9a:	4bc2      	ldr	r3, [pc, #776]	; (100022a4 <_ftoa+0x368>)
10001f9c:	f001 fa98 	bl	100034d0 <__wrap___aeabi_dcmpgt>
10001fa0:	2800      	cmp	r0, #0
10001fa2:	d000      	beq.n	10001fa6 <_ftoa+0x6a>
10001fa4:	e098      	b.n	100020d8 <_ftoa+0x19c>
10001fa6:	2200      	movs	r2, #0
10001fa8:	0030      	movs	r0, r6
10001faa:	0039      	movs	r1, r7
10001fac:	4bbe      	ldr	r3, [pc, #760]	; (100022a8 <_ftoa+0x36c>)
10001fae:	f001 fa79 	bl	100034a4 <__wrap___aeabi_dcmplt>
10001fb2:	2800      	cmp	r0, #0
10001fb4:	d000      	beq.n	10001fb8 <_ftoa+0x7c>
10001fb6:	e08f      	b.n	100020d8 <_ftoa+0x19c>
10001fb8:	2200      	movs	r2, #0
10001fba:	2300      	movs	r3, #0
10001fbc:	0030      	movs	r0, r6
10001fbe:	0039      	movs	r1, r7
10001fc0:	f001 fa70 	bl	100034a4 <__wrap___aeabi_dcmplt>
10001fc4:	2800      	cmp	r0, #0
10001fc6:	d000      	beq.n	10001fca <_ftoa+0x8e>
10001fc8:	e0b0      	b.n	1000212c <_ftoa+0x1f0>
10001fca:	2300      	movs	r3, #0
10001fcc:	930d      	str	r3, [sp, #52]	; 0x34
10001fce:	9b24      	ldr	r3, [sp, #144]	; 0x90
10001fd0:	055b      	lsls	r3, r3, #21
10001fd2:	d401      	bmi.n	10001fd8 <_ftoa+0x9c>
10001fd4:	2306      	movs	r3, #6
10001fd6:	4698      	mov	r8, r3
10001fd8:	ab08      	add	r3, sp, #32
10001fda:	469c      	mov	ip, r3
10001fdc:	2217      	movs	r2, #23
10001fde:	2400      	movs	r4, #0
10001fe0:	2330      	movs	r3, #48	; 0x30
10001fe2:	4641      	mov	r1, r8
10001fe4:	4462      	add	r2, ip
10001fe6:	e004      	b.n	10001ff2 <_ftoa+0xb6>
10001fe8:	3401      	adds	r4, #1
10001fea:	5513      	strb	r3, [r2, r4]
10001fec:	3901      	subs	r1, #1
10001fee:	2c20      	cmp	r4, #32
10001ff0:	d001      	beq.n	10001ff6 <_ftoa+0xba>
10001ff2:	2909      	cmp	r1, #9
10001ff4:	d8f8      	bhi.n	10001fe8 <_ftoa+0xac>
10001ff6:	4688      	mov	r8, r1
10001ff8:	0030      	movs	r0, r6
10001ffa:	0039      	movs	r1, r7
10001ffc:	f001 fa98 	bl	10003530 <__wrap___aeabi_d2iz>
10002000:	4643      	mov	r3, r8
10002002:	00da      	lsls	r2, r3, #3
10002004:	4ba9      	ldr	r3, [pc, #676]	; (100022ac <_ftoa+0x370>)
10002006:	0005      	movs	r5, r0
10002008:	189b      	adds	r3, r3, r2
1000200a:	681a      	ldr	r2, [r3, #0]
1000200c:	685b      	ldr	r3, [r3, #4]
1000200e:	9208      	str	r2, [sp, #32]
10002010:	9309      	str	r3, [sp, #36]	; 0x24
10002012:	f001 fa75 	bl	10003500 <__wrap___aeabi_i2d>
10002016:	0002      	movs	r2, r0
10002018:	000b      	movs	r3, r1
1000201a:	0030      	movs	r0, r6
1000201c:	0039      	movs	r1, r7
1000201e:	f001 f9e4 	bl	100033ea <__wrap___aeabi_dsub>
10002022:	9a08      	ldr	r2, [sp, #32]
10002024:	9b09      	ldr	r3, [sp, #36]	; 0x24
10002026:	f001 f9fb 	bl	10003420 <__wrap___aeabi_dmul>
1000202a:	900a      	str	r0, [sp, #40]	; 0x28
1000202c:	910b      	str	r1, [sp, #44]	; 0x2c
1000202e:	f001 faa3 	bl	10003578 <__wrap___aeabi_d2uiz>
10002032:	4682      	mov	sl, r0
10002034:	f001 fa60 	bl	100034f8 <__wrap___aeabi_ui2d>
10002038:	0002      	movs	r2, r0
1000203a:	000b      	movs	r3, r1
1000203c:	980a      	ldr	r0, [sp, #40]	; 0x28
1000203e:	990b      	ldr	r1, [sp, #44]	; 0x2c
10002040:	f001 f9d3 	bl	100033ea <__wrap___aeabi_dsub>
10002044:	2200      	movs	r2, #0
10002046:	4b9a      	ldr	r3, [pc, #616]	; (100022b0 <_ftoa+0x374>)
10002048:	900a      	str	r0, [sp, #40]	; 0x28
1000204a:	910b      	str	r1, [sp, #44]	; 0x2c
1000204c:	f001 fa40 	bl	100034d0 <__wrap___aeabi_dcmpgt>
10002050:	2800      	cmp	r0, #0
10002052:	d100      	bne.n	10002056 <_ftoa+0x11a>
10002054:	e0c0      	b.n	100021d8 <_ftoa+0x29c>
10002056:	2301      	movs	r3, #1
10002058:	469c      	mov	ip, r3
1000205a:	44e2      	add	sl, ip
1000205c:	4650      	mov	r0, sl
1000205e:	f001 fa4b 	bl	100034f8 <__wrap___aeabi_ui2d>
10002062:	0002      	movs	r2, r0
10002064:	000b      	movs	r3, r1
10002066:	9808      	ldr	r0, [sp, #32]
10002068:	9909      	ldr	r1, [sp, #36]	; 0x24
1000206a:	f001 fa21 	bl	100034b0 <__wrap___aeabi_dcmple>
1000206e:	2800      	cmp	r0, #0
10002070:	d002      	beq.n	10002078 <_ftoa+0x13c>
10002072:	2300      	movs	r3, #0
10002074:	469a      	mov	sl, r3
10002076:	3501      	adds	r5, #1
10002078:	4643      	mov	r3, r8
1000207a:	2b00      	cmp	r3, #0
1000207c:	d069      	beq.n	10002152 <_ftoa+0x216>
1000207e:	ab08      	add	r3, sp, #32
10002080:	2617      	movs	r6, #23
10002082:	469c      	mov	ip, r3
10002084:	9508      	str	r5, [sp, #32]
10002086:	4466      	add	r6, ip
10002088:	4655      	mov	r5, sl
1000208a:	e014      	b.n	100020b6 <_ftoa+0x17a>
1000208c:	2301      	movs	r3, #1
1000208e:	425b      	negs	r3, r3
10002090:	4443      	add	r3, r8
10002092:	210a      	movs	r1, #10
10002094:	0028      	movs	r0, r5
10002096:	469a      	mov	sl, r3
10002098:	f000 ff62 	bl	10002f60 <__wrap___aeabi_uidiv>
1000209c:	3401      	adds	r4, #1
1000209e:	3130      	adds	r1, #48	; 0x30
100020a0:	1937      	adds	r7, r6, r4
100020a2:	7039      	strb	r1, [r7, #0]
100020a4:	0028      	movs	r0, r5
100020a6:	210a      	movs	r1, #10
100020a8:	f000 ff5a 	bl	10002f60 <__wrap___aeabi_uidiv>
100020ac:	2d09      	cmp	r5, #9
100020ae:	d800      	bhi.n	100020b2 <_ftoa+0x176>
100020b0:	e0d5      	b.n	1000225e <_ftoa+0x322>
100020b2:	46d0      	mov	r8, sl
100020b4:	0005      	movs	r5, r0
100020b6:	2c20      	cmp	r4, #32
100020b8:	d1e8      	bne.n	1000208c <_ftoa+0x150>
100020ba:	2303      	movs	r3, #3
100020bc:	9a24      	ldr	r2, [sp, #144]	; 0x90
100020be:	4013      	ands	r3, r2
100020c0:	2b01      	cmp	r3, #1
100020c2:	d100      	bne.n	100020c6 <_ftoa+0x18a>
100020c4:	e100      	b.n	100022c8 <_ftoa+0x38c>
100020c6:	ab0e      	add	r3, sp, #56	; 0x38
100020c8:	4698      	mov	r8, r3
100020ca:	9b24      	ldr	r3, [sp, #144]	; 0x90
100020cc:	9401      	str	r4, [sp, #4]
100020ce:	9303      	str	r3, [sp, #12]
100020d0:	9b23      	ldr	r3, [sp, #140]	; 0x8c
100020d2:	9302      	str	r3, [sp, #8]
100020d4:	4643      	mov	r3, r8
100020d6:	e01e      	b.n	10002116 <_ftoa+0x1da>
100020d8:	9b24      	ldr	r3, [sp, #144]	; 0x90
100020da:	4658      	mov	r0, fp
100020dc:	9304      	str	r3, [sp, #16]
100020de:	9b23      	ldr	r3, [sp, #140]	; 0x8c
100020e0:	9600      	str	r6, [sp, #0]
100020e2:	9701      	str	r7, [sp, #4]
100020e4:	9303      	str	r3, [sp, #12]
100020e6:	4643      	mov	r3, r8
100020e8:	9a0c      	ldr	r2, [sp, #48]	; 0x30
100020ea:	9302      	str	r3, [sp, #8]
100020ec:	9907      	ldr	r1, [sp, #28]
100020ee:	464b      	mov	r3, r9
100020f0:	f7ff fcfe 	bl	10001af0 <_etoa>
100020f4:	b017      	add	sp, #92	; 0x5c
100020f6:	bc3c      	pop	{r2, r3, r4, r5}
100020f8:	4690      	mov	r8, r2
100020fa:	4699      	mov	r9, r3
100020fc:	46a2      	mov	sl, r4
100020fe:	46ab      	mov	fp, r5
10002100:	bdf0      	pop	{r4, r5, r6, r7, pc}
10002102:	9b24      	ldr	r3, [sp, #144]	; 0x90
10002104:	075b      	lsls	r3, r3, #29
10002106:	d40e      	bmi.n	10002126 <_ftoa+0x1ea>
10002108:	2203      	movs	r2, #3
1000210a:	4b6a      	ldr	r3, [pc, #424]	; (100022b4 <_ftoa+0x378>)
1000210c:	9924      	ldr	r1, [sp, #144]	; 0x90
1000210e:	9201      	str	r2, [sp, #4]
10002110:	9103      	str	r1, [sp, #12]
10002112:	9923      	ldr	r1, [sp, #140]	; 0x8c
10002114:	9102      	str	r1, [sp, #8]
10002116:	9300      	str	r3, [sp, #0]
10002118:	4658      	mov	r0, fp
1000211a:	464b      	mov	r3, r9
1000211c:	9a0c      	ldr	r2, [sp, #48]	; 0x30
1000211e:	9907      	ldr	r1, [sp, #28]
10002120:	f7ff fb86 	bl	10001830 <_out_rev>
10002124:	e7e6      	b.n	100020f4 <_ftoa+0x1b8>
10002126:	2204      	movs	r2, #4
10002128:	4b63      	ldr	r3, [pc, #396]	; (100022b8 <_ftoa+0x37c>)
1000212a:	e7ef      	b.n	1000210c <_ftoa+0x1d0>
1000212c:	003b      	movs	r3, r7
1000212e:	0032      	movs	r2, r6
10002130:	2000      	movs	r0, #0
10002132:	2100      	movs	r1, #0
10002134:	f001 f959 	bl	100033ea <__wrap___aeabi_dsub>
10002138:	2301      	movs	r3, #1
1000213a:	0006      	movs	r6, r0
1000213c:	000f      	movs	r7, r1
1000213e:	930d      	str	r3, [sp, #52]	; 0x34
10002140:	e745      	b.n	10001fce <_ftoa+0x92>
10002142:	9b24      	ldr	r3, [sp, #144]	; 0x90
10002144:	9303      	str	r3, [sp, #12]
10002146:	9b23      	ldr	r3, [sp, #140]	; 0x8c
10002148:	9302      	str	r3, [sp, #8]
1000214a:	2304      	movs	r3, #4
1000214c:	9301      	str	r3, [sp, #4]
1000214e:	4b5b      	ldr	r3, [pc, #364]	; (100022bc <_ftoa+0x380>)
10002150:	e7e1      	b.n	10002116 <_ftoa+0x1da>
10002152:	0028      	movs	r0, r5
10002154:	f001 f9d4 	bl	10003500 <__wrap___aeabi_i2d>
10002158:	0002      	movs	r2, r0
1000215a:	000b      	movs	r3, r1
1000215c:	0030      	movs	r0, r6
1000215e:	0039      	movs	r1, r7
10002160:	f001 f943 	bl	100033ea <__wrap___aeabi_dsub>
10002164:	4b52      	ldr	r3, [pc, #328]	; (100022b0 <_ftoa+0x374>)
10002166:	2200      	movs	r2, #0
10002168:	0006      	movs	r6, r0
1000216a:	000f      	movs	r7, r1
1000216c:	f001 f99a 	bl	100034a4 <__wrap___aeabi_dcmplt>
10002170:	ab0e      	add	r3, sp, #56	; 0x38
10002172:	4698      	mov	r8, r3
10002174:	2800      	cmp	r0, #0
10002176:	d10a      	bne.n	1000218e <_ftoa+0x252>
10002178:	2200      	movs	r2, #0
1000217a:	0030      	movs	r0, r6
1000217c:	0039      	movs	r1, r7
1000217e:	4b4c      	ldr	r3, [pc, #304]	; (100022b0 <_ftoa+0x374>)
10002180:	f001 f9a6 	bl	100034d0 <__wrap___aeabi_dcmpgt>
10002184:	2800      	cmp	r0, #0
10002186:	d102      	bne.n	1000218e <_ftoa+0x252>
10002188:	07eb      	lsls	r3, r5, #31
1000218a:	d500      	bpl.n	1000218e <_ftoa+0x252>
1000218c:	3501      	adds	r5, #1
1000218e:	2c20      	cmp	r4, #32
10002190:	d032      	beq.n	100021f8 <_ftoa+0x2bc>
10002192:	aa08      	add	r2, sp, #32
10002194:	4694      	mov	ip, r2
10002196:	2317      	movs	r3, #23
10002198:	0028      	movs	r0, r5
1000219a:	4463      	add	r3, ip
1000219c:	210a      	movs	r1, #10
1000219e:	3401      	adds	r4, #1
100021a0:	191e      	adds	r6, r3, r4
100021a2:	f000 feb1 	bl	10002f08 <__wrap___aeabi_idiv>
100021a6:	3130      	adds	r1, #48	; 0x30
100021a8:	0028      	movs	r0, r5
100021aa:	7031      	strb	r1, [r6, #0]
100021ac:	210a      	movs	r1, #10
100021ae:	f000 feab 	bl	10002f08 <__wrap___aeabi_idiv>
100021b2:	1e05      	subs	r5, r0, #0
100021b4:	d1eb      	bne.n	1000218e <_ftoa+0x252>
100021b6:	2303      	movs	r3, #3
100021b8:	9a24      	ldr	r2, [sp, #144]	; 0x90
100021ba:	4013      	ands	r3, r2
100021bc:	2b01      	cmp	r3, #1
100021be:	d100      	bne.n	100021c2 <_ftoa+0x286>
100021c0:	e091      	b.n	100022e6 <_ftoa+0x3aa>
100021c2:	2c1f      	cmp	r4, #31
100021c4:	d900      	bls.n	100021c8 <_ftoa+0x28c>
100021c6:	e780      	b.n	100020ca <_ftoa+0x18e>
100021c8:	9b0d      	ldr	r3, [sp, #52]	; 0x34
100021ca:	2b00      	cmp	r3, #0
100021cc:	d03b      	beq.n	10002246 <_ftoa+0x30a>
100021ce:	232d      	movs	r3, #45	; 0x2d
100021d0:	4642      	mov	r2, r8
100021d2:	5513      	strb	r3, [r2, r4]
100021d4:	3401      	adds	r4, #1
100021d6:	e778      	b.n	100020ca <_ftoa+0x18e>
100021d8:	2200      	movs	r2, #0
100021da:	980a      	ldr	r0, [sp, #40]	; 0x28
100021dc:	990b      	ldr	r1, [sp, #44]	; 0x2c
100021de:	4b34      	ldr	r3, [pc, #208]	; (100022b0 <_ftoa+0x374>)
100021e0:	f001 f960 	bl	100034a4 <__wrap___aeabi_dcmplt>
100021e4:	2800      	cmp	r0, #0
100021e6:	d000      	beq.n	100021ea <_ftoa+0x2ae>
100021e8:	e746      	b.n	10002078 <_ftoa+0x13c>
100021ea:	4653      	mov	r3, sl
100021ec:	2b00      	cmp	r3, #0
100021ee:	d167      	bne.n	100022c0 <_ftoa+0x384>
100021f0:	2301      	movs	r3, #1
100021f2:	469c      	mov	ip, r3
100021f4:	44e2      	add	sl, ip
100021f6:	e73f      	b.n	10002078 <_ftoa+0x13c>
100021f8:	2303      	movs	r3, #3
100021fa:	9a24      	ldr	r2, [sp, #144]	; 0x90
100021fc:	4013      	ands	r3, r2
100021fe:	2b01      	cmp	r3, #1
10002200:	d000      	beq.n	10002204 <_ftoa+0x2c8>
10002202:	e762      	b.n	100020ca <_ftoa+0x18e>
10002204:	9b23      	ldr	r3, [sp, #140]	; 0x8c
10002206:	2b00      	cmp	r3, #0
10002208:	d100      	bne.n	1000220c <_ftoa+0x2d0>
1000220a:	e75e      	b.n	100020ca <_ftoa+0x18e>
1000220c:	9b0d      	ldr	r3, [sp, #52]	; 0x34
1000220e:	2b00      	cmp	r3, #0
10002210:	d103      	bne.n	1000221a <_ftoa+0x2de>
10002212:	9a24      	ldr	r2, [sp, #144]	; 0x90
10002214:	330c      	adds	r3, #12
10002216:	4213      	tst	r3, r2
10002218:	d002      	beq.n	10002220 <_ftoa+0x2e4>
1000221a:	9b23      	ldr	r3, [sp, #140]	; 0x8c
1000221c:	3b01      	subs	r3, #1
1000221e:	9323      	str	r3, [sp, #140]	; 0x8c
10002220:	9b23      	ldr	r3, [sp, #140]	; 0x8c
10002222:	429c      	cmp	r4, r3
10002224:	d2cd      	bcs.n	100021c2 <_ftoa+0x286>
10002226:	ab08      	add	r3, sp, #32
10002228:	469c      	mov	ip, r3
1000222a:	2217      	movs	r2, #23
1000222c:	2330      	movs	r3, #48	; 0x30
1000222e:	4462      	add	r2, ip
10002230:	2c1f      	cmp	r4, #31
10002232:	d806      	bhi.n	10002242 <_ftoa+0x306>
10002234:	9923      	ldr	r1, [sp, #140]	; 0x8c
10002236:	3401      	adds	r4, #1
10002238:	5513      	strb	r3, [r2, r4]
1000223a:	428c      	cmp	r4, r1
1000223c:	d0c1      	beq.n	100021c2 <_ftoa+0x286>
1000223e:	2c20      	cmp	r4, #32
10002240:	d1f8      	bne.n	10002234 <_ftoa+0x2f8>
10002242:	2420      	movs	r4, #32
10002244:	e741      	b.n	100020ca <_ftoa+0x18e>
10002246:	9b24      	ldr	r3, [sp, #144]	; 0x90
10002248:	075b      	lsls	r3, r3, #29
1000224a:	d421      	bmi.n	10002290 <_ftoa+0x354>
1000224c:	9b24      	ldr	r3, [sp, #144]	; 0x90
1000224e:	071b      	lsls	r3, r3, #28
10002250:	d400      	bmi.n	10002254 <_ftoa+0x318>
10002252:	e73a      	b.n	100020ca <_ftoa+0x18e>
10002254:	2320      	movs	r3, #32
10002256:	4642      	mov	r2, r8
10002258:	5513      	strb	r3, [r2, r4]
1000225a:	3401      	adds	r4, #1
1000225c:	e735      	b.n	100020ca <_ftoa+0x18e>
1000225e:	4657      	mov	r7, sl
10002260:	9d08      	ldr	r5, [sp, #32]
10002262:	2c20      	cmp	r4, #32
10002264:	d037      	beq.n	100022d6 <_ftoa+0x39a>
10002266:	0022      	movs	r2, r4
10002268:	2130      	movs	r1, #48	; 0x30
1000226a:	4640      	mov	r0, r8
1000226c:	2f00      	cmp	r7, #0
1000226e:	d008      	beq.n	10002282 <_ftoa+0x346>
10002270:	3201      	adds	r2, #1
10002272:	54b1      	strb	r1, [r6, r2]
10002274:	2a20      	cmp	r2, #32
10002276:	d043      	beq.n	10002300 <_ftoa+0x3c4>
10002278:	43d3      	mvns	r3, r2
1000227a:	191b      	adds	r3, r3, r4
1000227c:	181b      	adds	r3, r3, r0
1000227e:	2b00      	cmp	r3, #0
10002280:	d1f6      	bne.n	10002270 <_ftoa+0x334>
10002282:	ab0e      	add	r3, sp, #56	; 0x38
10002284:	4698      	mov	r8, r3
10002286:	232e      	movs	r3, #46	; 0x2e
10002288:	4641      	mov	r1, r8
1000228a:	1c54      	adds	r4, r2, #1
1000228c:	548b      	strb	r3, [r1, r2]
1000228e:	e77e      	b.n	1000218e <_ftoa+0x252>
10002290:	232b      	movs	r3, #43	; 0x2b
10002292:	4642      	mov	r2, r8
10002294:	5513      	strb	r3, [r2, r4]
10002296:	3401      	adds	r4, #1
10002298:	e717      	b.n	100020ca <_ftoa+0x18e>
1000229a:	46c0      	nop			; (mov r8, r8)
1000229c:	ffefffff 	.word	0xffefffff
100022a0:	7fefffff 	.word	0x7fefffff
100022a4:	41cdcd65 	.word	0x41cdcd65
100022a8:	c1cdcd65 	.word	0xc1cdcd65
100022ac:	10005118 	.word	0x10005118
100022b0:	3fe00000 	.word	0x3fe00000
100022b4:	10004f1c 	.word	0x10004f1c
100022b8:	10004f20 	.word	0x10004f20
100022bc:	10004f2c 	.word	0x10004f2c
100022c0:	07db      	lsls	r3, r3, #31
100022c2:	d400      	bmi.n	100022c6 <_ftoa+0x38a>
100022c4:	e6d8      	b.n	10002078 <_ftoa+0x13c>
100022c6:	e793      	b.n	100021f0 <_ftoa+0x2b4>
100022c8:	9b23      	ldr	r3, [sp, #140]	; 0x8c
100022ca:	2b00      	cmp	r3, #0
100022cc:	d100      	bne.n	100022d0 <_ftoa+0x394>
100022ce:	e6fa      	b.n	100020c6 <_ftoa+0x18a>
100022d0:	ab0e      	add	r3, sp, #56	; 0x38
100022d2:	4698      	mov	r8, r3
100022d4:	e79a      	b.n	1000220c <_ftoa+0x2d0>
100022d6:	2303      	movs	r3, #3
100022d8:	9a24      	ldr	r2, [sp, #144]	; 0x90
100022da:	4013      	ands	r3, r2
100022dc:	2b01      	cmp	r3, #1
100022de:	d000      	beq.n	100022e2 <_ftoa+0x3a6>
100022e0:	e6f1      	b.n	100020c6 <_ftoa+0x18a>
100022e2:	ab0e      	add	r3, sp, #56	; 0x38
100022e4:	4698      	mov	r8, r3
100022e6:	9b23      	ldr	r3, [sp, #140]	; 0x8c
100022e8:	2b00      	cmp	r3, #0
100022ea:	d100      	bne.n	100022ee <_ftoa+0x3b2>
100022ec:	e769      	b.n	100021c2 <_ftoa+0x286>
100022ee:	e78d      	b.n	1000220c <_ftoa+0x2d0>
100022f0:	9b24      	ldr	r3, [sp, #144]	; 0x90
100022f2:	9303      	str	r3, [sp, #12]
100022f4:	9b23      	ldr	r3, [sp, #140]	; 0x8c
100022f6:	9302      	str	r3, [sp, #8]
100022f8:	2303      	movs	r3, #3
100022fa:	9301      	str	r3, [sp, #4]
100022fc:	4b06      	ldr	r3, [pc, #24]	; (10002318 <_ftoa+0x3dc>)
100022fe:	e70a      	b.n	10002116 <_ftoa+0x1da>
10002300:	2303      	movs	r3, #3
10002302:	9a24      	ldr	r2, [sp, #144]	; 0x90
10002304:	2420      	movs	r4, #32
10002306:	4013      	ands	r3, r2
10002308:	2b01      	cmp	r3, #1
1000230a:	d000      	beq.n	1000230e <_ftoa+0x3d2>
1000230c:	e6db      	b.n	100020c6 <_ftoa+0x18a>
1000230e:	9b23      	ldr	r3, [sp, #140]	; 0x8c
10002310:	2420      	movs	r4, #32
10002312:	2b00      	cmp	r3, #0
10002314:	d1dc      	bne.n	100022d0 <_ftoa+0x394>
10002316:	e6d6      	b.n	100020c6 <_ftoa+0x18a>
10002318:	10004f28 	.word	0x10004f28

1000231c <_vsnprintf>:
1000231c:	b5f0      	push	{r4, r5, r6, r7, lr}
1000231e:	46de      	mov	lr, fp
10002320:	464e      	mov	r6, r9
10002322:	4657      	mov	r7, sl
10002324:	4645      	mov	r5, r8
10002326:	b5e0      	push	{r5, r6, r7, lr}
10002328:	b09f      	sub	sp, #124	; 0x7c
1000232a:	001c      	movs	r4, r3
1000232c:	9b28      	ldr	r3, [sp, #160]	; 0xa0
1000232e:	4693      	mov	fp, r2
10002330:	9309      	str	r3, [sp, #36]	; 0x24
10002332:	4acf      	ldr	r2, [pc, #828]	; (10002670 <_vsnprintf+0x354>)
10002334:	4bcf      	ldr	r3, [pc, #828]	; (10002674 <_vsnprintf+0x358>)
10002336:	4689      	mov	r9, r1
10002338:	9008      	str	r0, [sp, #32]
1000233a:	601a      	str	r2, [r3, #0]
1000233c:	2900      	cmp	r1, #0
1000233e:	d100      	bne.n	10002342 <_vsnprintf+0x26>
10002340:	e216      	b.n	10002770 <_vsnprintf+0x454>
10002342:	2300      	movs	r3, #0
10002344:	7820      	ldrb	r0, [r4, #0]
10002346:	469a      	mov	sl, r3
10002348:	2800      	cmp	r0, #0
1000234a:	d100      	bne.n	1000234e <_vsnprintf+0x32>
1000234c:	e218      	b.n	10002780 <_vsnprintf+0x464>
1000234e:	0026      	movs	r6, r4
10002350:	001d      	movs	r5, r3
10002352:	464c      	mov	r4, r9
10002354:	e00a      	b.n	1000236c <_vsnprintf+0x50>
10002356:	002a      	movs	r2, r5
10002358:	1c6f      	adds	r7, r5, #1
1000235a:	465b      	mov	r3, fp
1000235c:	9d08      	ldr	r5, [sp, #32]
1000235e:	0021      	movs	r1, r4
10002360:	47a8      	blx	r5
10002362:	003d      	movs	r5, r7
10002364:	3601      	adds	r6, #1
10002366:	7830      	ldrb	r0, [r6, #0]
10002368:	2800      	cmp	r0, #0
1000236a:	d07a      	beq.n	10002462 <_vsnprintf+0x146>
1000236c:	2825      	cmp	r0, #37	; 0x25
1000236e:	d1f2      	bne.n	10002356 <_vsnprintf+0x3a>
10002370:	2310      	movs	r3, #16
10002372:	469a      	mov	sl, r3
10002374:	3b08      	subs	r3, #8
10002376:	4699      	mov	r9, r3
10002378:	3b04      	subs	r3, #4
1000237a:	4698      	mov	r8, r3
1000237c:	3b02      	subs	r3, #2
1000237e:	2100      	movs	r1, #0
10002380:	469c      	mov	ip, r3
10002382:	1c72      	adds	r2, r6, #1
10002384:	7810      	ldrb	r0, [r2, #0]
10002386:	0016      	movs	r6, r2
10002388:	0003      	movs	r3, r0
1000238a:	3b20      	subs	r3, #32
1000238c:	b2db      	uxtb	r3, r3
1000238e:	2b10      	cmp	r3, #16
10002390:	d803      	bhi.n	1000239a <_vsnprintf+0x7e>
10002392:	4fb9      	ldr	r7, [pc, #740]	; (10002678 <_vsnprintf+0x35c>)
10002394:	009b      	lsls	r3, r3, #2
10002396:	58fb      	ldr	r3, [r7, r3]
10002398:	469f      	mov	pc, r3
1000239a:	0003      	movs	r3, r0
1000239c:	3b30      	subs	r3, #48	; 0x30
1000239e:	2b09      	cmp	r3, #9
100023a0:	d93c      	bls.n	1000241c <_vsnprintf+0x100>
100023a2:	2300      	movs	r3, #0
100023a4:	930a      	str	r3, [sp, #40]	; 0x28
100023a6:	282a      	cmp	r0, #42	; 0x2a
100023a8:	d100      	bne.n	100023ac <_vsnprintf+0x90>
100023aa:	e071      	b.n	10002490 <_vsnprintf+0x174>
100023ac:	2300      	movs	r3, #0
100023ae:	4698      	mov	r8, r3
100023b0:	282e      	cmp	r0, #46	; 0x2e
100023b2:	d047      	beq.n	10002444 <_vsnprintf+0x128>
100023b4:	0003      	movs	r3, r0
100023b6:	3b68      	subs	r3, #104	; 0x68
100023b8:	b2db      	uxtb	r3, r3
100023ba:	2b12      	cmp	r3, #18
100023bc:	d81f      	bhi.n	100023fe <_vsnprintf+0xe2>
100023be:	4aaf      	ldr	r2, [pc, #700]	; (1000267c <_vsnprintf+0x360>)
100023c0:	009b      	lsls	r3, r3, #2
100023c2:	58d3      	ldr	r3, [r2, r3]
100023c4:	469f      	mov	pc, r3
100023c6:	2301      	movs	r3, #1
100023c8:	3201      	adds	r2, #1
100023ca:	4319      	orrs	r1, r3
100023cc:	e7da      	b.n	10002384 <_vsnprintf+0x68>
100023ce:	4663      	mov	r3, ip
100023d0:	3201      	adds	r2, #1
100023d2:	4319      	orrs	r1, r3
100023d4:	e7d6      	b.n	10002384 <_vsnprintf+0x68>
100023d6:	4643      	mov	r3, r8
100023d8:	3201      	adds	r2, #1
100023da:	4319      	orrs	r1, r3
100023dc:	e7d2      	b.n	10002384 <_vsnprintf+0x68>
100023de:	4653      	mov	r3, sl
100023e0:	3201      	adds	r2, #1
100023e2:	4319      	orrs	r1, r3
100023e4:	e7ce      	b.n	10002384 <_vsnprintf+0x68>
100023e6:	464b      	mov	r3, r9
100023e8:	3201      	adds	r2, #1
100023ea:	4319      	orrs	r1, r3
100023ec:	e7ca      	b.n	10002384 <_vsnprintf+0x68>
100023ee:	7870      	ldrb	r0, [r6, #1]
100023f0:	286c      	cmp	r0, #108	; 0x6c
100023f2:	d100      	bne.n	100023f6 <_vsnprintf+0xda>
100023f4:	e2bf      	b.n	10002976 <_vsnprintf+0x65a>
100023f6:	2380      	movs	r3, #128	; 0x80
100023f8:	005b      	lsls	r3, r3, #1
100023fa:	4319      	orrs	r1, r3
100023fc:	3601      	adds	r6, #1
100023fe:	0003      	movs	r3, r0
10002400:	3b25      	subs	r3, #37	; 0x25
10002402:	b2db      	uxtb	r3, r3
10002404:	2b53      	cmp	r3, #83	; 0x53
10002406:	d8a6      	bhi.n	10002356 <_vsnprintf+0x3a>
10002408:	4a9d      	ldr	r2, [pc, #628]	; (10002680 <_vsnprintf+0x364>)
1000240a:	009b      	lsls	r3, r3, #2
1000240c:	58d3      	ldr	r3, [r2, r3]
1000240e:	469f      	mov	pc, r3
10002410:	2380      	movs	r3, #128	; 0x80
10002412:	005b      	lsls	r3, r3, #1
10002414:	7870      	ldrb	r0, [r6, #1]
10002416:	4319      	orrs	r1, r3
10002418:	3601      	adds	r6, #1
1000241a:	e7f0      	b.n	100023fe <_vsnprintf+0xe2>
1000241c:	2700      	movs	r7, #0
1000241e:	0003      	movs	r3, r0
10002420:	00b8      	lsls	r0, r7, #2
10002422:	19c0      	adds	r0, r0, r7
10002424:	3601      	adds	r6, #1
10002426:	0040      	lsls	r0, r0, #1
10002428:	18c0      	adds	r0, r0, r3
1000242a:	7833      	ldrb	r3, [r6, #0]
1000242c:	3830      	subs	r0, #48	; 0x30
1000242e:	001a      	movs	r2, r3
10002430:	3a30      	subs	r2, #48	; 0x30
10002432:	0007      	movs	r7, r0
10002434:	2a09      	cmp	r2, #9
10002436:	d9f3      	bls.n	10002420 <_vsnprintf+0x104>
10002438:	900a      	str	r0, [sp, #40]	; 0x28
1000243a:	0018      	movs	r0, r3
1000243c:	2300      	movs	r3, #0
1000243e:	4698      	mov	r8, r3
10002440:	282e      	cmp	r0, #46	; 0x2e
10002442:	d1b7      	bne.n	100023b4 <_vsnprintf+0x98>
10002444:	2380      	movs	r3, #128	; 0x80
10002446:	7870      	ldrb	r0, [r6, #1]
10002448:	00db      	lsls	r3, r3, #3
1000244a:	4319      	orrs	r1, r3
1000244c:	0003      	movs	r3, r0
1000244e:	3b30      	subs	r3, #48	; 0x30
10002450:	1c72      	adds	r2, r6, #1
10002452:	2b09      	cmp	r3, #9
10002454:	d800      	bhi.n	10002458 <_vsnprintf+0x13c>
10002456:	e195      	b.n	10002784 <_vsnprintf+0x468>
10002458:	282a      	cmp	r0, #42	; 0x2a
1000245a:	d100      	bne.n	1000245e <_vsnprintf+0x142>
1000245c:	e1a6      	b.n	100027ac <_vsnprintf+0x490>
1000245e:	0016      	movs	r6, r2
10002460:	e7a8      	b.n	100023b4 <_vsnprintf+0x98>
10002462:	46a1      	mov	r9, r4
10002464:	46aa      	mov	sl, r5
10002466:	002c      	movs	r4, r5
10002468:	45d3      	cmp	fp, sl
1000246a:	d803      	bhi.n	10002474 <_vsnprintf+0x158>
1000246c:	2301      	movs	r3, #1
1000246e:	425b      	negs	r3, r3
10002470:	445b      	add	r3, fp
10002472:	469a      	mov	sl, r3
10002474:	465b      	mov	r3, fp
10002476:	4652      	mov	r2, sl
10002478:	4649      	mov	r1, r9
1000247a:	2000      	movs	r0, #0
1000247c:	9d08      	ldr	r5, [sp, #32]
1000247e:	47a8      	blx	r5
10002480:	0020      	movs	r0, r4
10002482:	b01f      	add	sp, #124	; 0x7c
10002484:	bc3c      	pop	{r2, r3, r4, r5}
10002486:	4690      	mov	r8, r2
10002488:	4699      	mov	r9, r3
1000248a:	46a2      	mov	sl, r4
1000248c:	46ab      	mov	fp, r5
1000248e:	bdf0      	pop	{r4, r5, r6, r7, pc}
10002490:	9b09      	ldr	r3, [sp, #36]	; 0x24
10002492:	cb40      	ldmia	r3!, {r6}
10002494:	960a      	str	r6, [sp, #40]	; 0x28
10002496:	2e00      	cmp	r6, #0
10002498:	db03      	blt.n	100024a2 <_vsnprintf+0x186>
1000249a:	7850      	ldrb	r0, [r2, #1]
1000249c:	9309      	str	r3, [sp, #36]	; 0x24
1000249e:	1c56      	adds	r6, r2, #1
100024a0:	e784      	b.n	100023ac <_vsnprintf+0x90>
100024a2:	3828      	subs	r0, #40	; 0x28
100024a4:	4301      	orrs	r1, r0
100024a6:	4270      	negs	r0, r6
100024a8:	900a      	str	r0, [sp, #40]	; 0x28
100024aa:	9309      	str	r3, [sp, #36]	; 0x24
100024ac:	7850      	ldrb	r0, [r2, #1]
100024ae:	1c56      	adds	r6, r2, #1
100024b0:	e77c      	b.n	100023ac <_vsnprintf+0x90>
100024b2:	2878      	cmp	r0, #120	; 0x78
100024b4:	d100      	bne.n	100024b8 <_vsnprintf+0x19c>
100024b6:	e1d4      	b.n	10002862 <_vsnprintf+0x546>
100024b8:	2858      	cmp	r0, #88	; 0x58
100024ba:	d100      	bne.n	100024be <_vsnprintf+0x1a2>
100024bc:	e268      	b.n	10002990 <_vsnprintf+0x674>
100024be:	286f      	cmp	r0, #111	; 0x6f
100024c0:	d100      	bne.n	100024c4 <_vsnprintf+0x1a8>
100024c2:	e352      	b.n	10002b6a <_vsnprintf+0x84e>
100024c4:	2862      	cmp	r0, #98	; 0x62
100024c6:	d100      	bne.n	100024ca <_vsnprintf+0x1ae>
100024c8:	e1d8      	b.n	1000287c <_vsnprintf+0x560>
100024ca:	2310      	movs	r3, #16
100024cc:	000a      	movs	r2, r1
100024ce:	439a      	bics	r2, r3
100024d0:	920b      	str	r2, [sp, #44]	; 0x2c
100024d2:	2869      	cmp	r0, #105	; 0x69
100024d4:	d001      	beq.n	100024da <_vsnprintf+0x1be>
100024d6:	f000 fca2 	bl	10002e1e <_vsnprintf+0xb02>
100024da:	230a      	movs	r3, #10
100024dc:	930c      	str	r3, [sp, #48]	; 0x30
100024de:	054b      	lsls	r3, r1, #21
100024e0:	d400      	bmi.n	100024e4 <_vsnprintf+0x1c8>
100024e2:	e1d5      	b.n	10002890 <_vsnprintf+0x574>
100024e4:	2301      	movs	r3, #1
100024e6:	9a0b      	ldr	r2, [sp, #44]	; 0x2c
100024e8:	439a      	bics	r2, r3
100024ea:	920b      	str	r2, [sp, #44]	; 0x2c
100024ec:	2869      	cmp	r0, #105	; 0x69
100024ee:	d100      	bne.n	100024f2 <_vsnprintf+0x1d6>
100024f0:	e1ce      	b.n	10002890 <_vsnprintf+0x574>
100024f2:	2864      	cmp	r0, #100	; 0x64
100024f4:	d100      	bne.n	100024f8 <_vsnprintf+0x1dc>
100024f6:	e1cb      	b.n	10002890 <_vsnprintf+0x574>
100024f8:	9a0b      	ldr	r2, [sp, #44]	; 0x2c
100024fa:	2380      	movs	r3, #128	; 0x80
100024fc:	0011      	movs	r1, r2
100024fe:	009b      	lsls	r3, r3, #2
10002500:	4019      	ands	r1, r3
10002502:	468a      	mov	sl, r1
10002504:	421a      	tst	r2, r3
10002506:	d000      	beq.n	1000250a <_vsnprintf+0x1ee>
10002508:	e332      	b.n	10002b70 <_vsnprintf+0x854>
1000250a:	2380      	movs	r3, #128	; 0x80
1000250c:	0011      	movs	r1, r2
1000250e:	005b      	lsls	r3, r3, #1
10002510:	4019      	ands	r1, r3
10002512:	4689      	mov	r9, r1
10002514:	421a      	tst	r2, r3
10002516:	d001      	beq.n	1000251c <_vsnprintf+0x200>
10002518:	f000 fc02 	bl	10002d20 <_vsnprintf+0xa04>
1000251c:	0013      	movs	r3, r2
1000251e:	065b      	lsls	r3, r3, #25
10002520:	d500      	bpl.n	10002524 <_vsnprintf+0x208>
10002522:	e310      	b.n	10002b46 <_vsnprintf+0x82a>
10002524:	9b0b      	ldr	r3, [sp, #44]	; 0x2c
10002526:	061b      	lsls	r3, r3, #24
10002528:	d401      	bmi.n	1000252e <_vsnprintf+0x212>
1000252a:	f000 fc6e 	bl	10002e0a <_vsnprintf+0xaee>
1000252e:	9b09      	ldr	r3, [sp, #36]	; 0x24
10002530:	cb04      	ldmia	r3!, {r2}
10002532:	0412      	lsls	r2, r2, #16
10002534:	0c12      	lsrs	r2, r2, #16
10002536:	4692      	mov	sl, r2
10002538:	9309      	str	r3, [sp, #36]	; 0x24
1000253a:	4653      	mov	r3, sl
1000253c:	2b00      	cmp	r3, #0
1000253e:	d000      	beq.n	10002542 <_vsnprintf+0x226>
10002540:	e364      	b.n	10002c0c <_vsnprintf+0x8f0>
10002542:	9a0b      	ldr	r2, [sp, #44]	; 0x2c
10002544:	3310      	adds	r3, #16
10002546:	0011      	movs	r1, r2
10002548:	4399      	bics	r1, r3
1000254a:	910b      	str	r1, [sp, #44]	; 0x2c
1000254c:	0552      	lsls	r2, r2, #21
1000254e:	d400      	bmi.n	10002552 <_vsnprintf+0x236>
10002550:	e35c      	b.n	10002c0c <_vsnprintf+0x8f0>
10002552:	2300      	movs	r3, #0
10002554:	4699      	mov	r9, r3
10002556:	9b0b      	ldr	r3, [sp, #44]	; 0x2c
10002558:	9306      	str	r3, [sp, #24]
1000255a:	9b0a      	ldr	r3, [sp, #40]	; 0x28
1000255c:	9305      	str	r3, [sp, #20]
1000255e:	4643      	mov	r3, r8
10002560:	9304      	str	r3, [sp, #16]
10002562:	9b0c      	ldr	r3, [sp, #48]	; 0x30
10002564:	9303      	str	r3, [sp, #12]
10002566:	2300      	movs	r3, #0
10002568:	e2de      	b.n	10002b28 <_vsnprintf+0x80c>
1000256a:	7870      	ldrb	r0, [r6, #1]
1000256c:	2868      	cmp	r0, #104	; 0x68
1000256e:	d100      	bne.n	10002572 <_vsnprintf+0x256>
10002570:	e207      	b.n	10002982 <_vsnprintf+0x666>
10002572:	2380      	movs	r3, #128	; 0x80
10002574:	3601      	adds	r6, #1
10002576:	4319      	orrs	r1, r3
10002578:	e741      	b.n	100023fe <_vsnprintf+0xe2>
1000257a:	2380      	movs	r3, #128	; 0x80
1000257c:	009b      	lsls	r3, r3, #2
1000257e:	7870      	ldrb	r0, [r6, #1]
10002580:	4319      	orrs	r1, r3
10002582:	3601      	adds	r6, #1
10002584:	e73b      	b.n	100023fe <_vsnprintf+0xe2>
10002586:	2846      	cmp	r0, #70	; 0x46
10002588:	d100      	bne.n	1000258c <_vsnprintf+0x270>
1000258a:	e174      	b.n	10002876 <_vsnprintf+0x55a>
1000258c:	2207      	movs	r2, #7
1000258e:	9b09      	ldr	r3, [sp, #36]	; 0x24
10002590:	9104      	str	r1, [sp, #16]
10002592:	3307      	adds	r3, #7
10002594:	4393      	bics	r3, r2
10002596:	9a0a      	ldr	r2, [sp, #40]	; 0x28
10002598:	0019      	movs	r1, r3
1000259a:	9203      	str	r2, [sp, #12]
1000259c:	4642      	mov	r2, r8
1000259e:	9202      	str	r2, [sp, #8]
100025a0:	c90c      	ldmia	r1!, {r2, r3}
100025a2:	9808      	ldr	r0, [sp, #32]
100025a4:	9200      	str	r2, [sp, #0]
100025a6:	9301      	str	r3, [sp, #4]
100025a8:	9109      	str	r1, [sp, #36]	; 0x24
100025aa:	002a      	movs	r2, r5
100025ac:	465b      	mov	r3, fp
100025ae:	0021      	movs	r1, r4
100025b0:	f7ff fcc4 	bl	10001f3c <_ftoa>
100025b4:	3601      	adds	r6, #1
100025b6:	0005      	movs	r5, r0
100025b8:	e6d5      	b.n	10002366 <_vsnprintf+0x4a>
100025ba:	9b09      	ldr	r3, [sp, #36]	; 0x24
100025bc:	001a      	movs	r2, r3
100025be:	ca08      	ldmia	r2!, {r3}
100025c0:	4691      	mov	r9, r2
100025c2:	2b00      	cmp	r3, #0
100025c4:	d100      	bne.n	100025c8 <_vsnprintf+0x2ac>
100025c6:	e105      	b.n	100027d4 <_vsnprintf+0x4b8>
100025c8:	2221      	movs	r2, #33	; 0x21
100025ca:	4311      	orrs	r1, r2
100025cc:	468a      	mov	sl, r1
100025ce:	a80e      	add	r0, sp, #56	; 0x38
100025d0:	4684      	mov	ip, r0
100025d2:	211f      	movs	r1, #31
100025d4:	4461      	add	r1, ip
100025d6:	9509      	str	r5, [sp, #36]	; 0x24
100025d8:	2200      	movs	r2, #0
100025da:	270f      	movs	r7, #15
100025dc:	46a4      	mov	ip, r4
100025de:	000d      	movs	r5, r1
100025e0:	e002      	b.n	100025e8 <_vsnprintf+0x2cc>
100025e2:	2a20      	cmp	r2, #32
100025e4:	d00c      	beq.n	10002600 <_vsnprintf+0x2e4>
100025e6:	000b      	movs	r3, r1
100025e8:	003c      	movs	r4, r7
100025ea:	401c      	ands	r4, r3
100025ec:	0020      	movs	r0, r4
100025ee:	3037      	adds	r0, #55	; 0x37
100025f0:	2c09      	cmp	r4, #9
100025f2:	d800      	bhi.n	100025f6 <_vsnprintf+0x2da>
100025f4:	3807      	subs	r0, #7
100025f6:	3201      	adds	r2, #1
100025f8:	54a8      	strb	r0, [r5, r2]
100025fa:	0919      	lsrs	r1, r3, #4
100025fc:	2b0f      	cmp	r3, #15
100025fe:	d8f0      	bhi.n	100025e2 <_vsnprintf+0x2c6>
10002600:	4664      	mov	r4, ip
10002602:	9d09      	ldr	r5, [sp, #36]	; 0x24
10002604:	e0f0      	b.n	100027e8 <_vsnprintf+0x4cc>
10002606:	078b      	lsls	r3, r1, #30
10002608:	d400      	bmi.n	1000260c <_vsnprintf+0x2f0>
1000260a:	e1d1      	b.n	100029b0 <_vsnprintf+0x694>
1000260c:	9b09      	ldr	r3, [sp, #36]	; 0x24
1000260e:	002a      	movs	r2, r5
10002610:	4699      	mov	r9, r3
10002612:	1c6b      	adds	r3, r5, #1
10002614:	4698      	mov	r8, r3
10002616:	464b      	mov	r3, r9
10002618:	cb01      	ldmia	r3!, {r0}
1000261a:	0021      	movs	r1, r4
1000261c:	4699      	mov	r9, r3
1000261e:	9f08      	ldr	r7, [sp, #32]
10002620:	465b      	mov	r3, fp
10002622:	b2c0      	uxtb	r0, r0
10002624:	47b8      	blx	r7
10002626:	9b0a      	ldr	r3, [sp, #40]	; 0x28
10002628:	469c      	mov	ip, r3
1000262a:	4465      	add	r5, ip
1000262c:	2b01      	cmp	r3, #1
1000262e:	d800      	bhi.n	10002632 <_vsnprintf+0x316>
10002630:	e290      	b.n	10002b54 <_vsnprintf+0x838>
10002632:	46b2      	mov	sl, r6
10002634:	465e      	mov	r6, fp
10002636:	4647      	mov	r7, r8
10002638:	46a8      	mov	r8, r5
1000263a:	9d08      	ldr	r5, [sp, #32]
1000263c:	003a      	movs	r2, r7
1000263e:	0033      	movs	r3, r6
10002640:	3701      	adds	r7, #1
10002642:	0021      	movs	r1, r4
10002644:	2020      	movs	r0, #32
10002646:	47a8      	blx	r5
10002648:	4547      	cmp	r7, r8
1000264a:	d1f7      	bne.n	1000263c <_vsnprintf+0x320>
1000264c:	46b3      	mov	fp, r6
1000264e:	464b      	mov	r3, r9
10002650:	4656      	mov	r6, sl
10002652:	003d      	movs	r5, r7
10002654:	9309      	str	r3, [sp, #36]	; 0x24
10002656:	3601      	adds	r6, #1
10002658:	e685      	b.n	10002366 <_vsnprintf+0x4a>
1000265a:	002a      	movs	r2, r5
1000265c:	1c6f      	adds	r7, r5, #1
1000265e:	465b      	mov	r3, fp
10002660:	9d08      	ldr	r5, [sp, #32]
10002662:	0021      	movs	r1, r4
10002664:	2025      	movs	r0, #37	; 0x25
10002666:	47a8      	blx	r5
10002668:	3601      	adds	r6, #1
1000266a:	003d      	movs	r5, r7
1000266c:	e67b      	b.n	10002366 <_vsnprintf+0x4a>
1000266e:	46c0      	nop			; (mov r8, r8)
10002670:	1000231d 	.word	0x1000231d
10002674:	20000b08 	.word	0x20000b08
10002678:	10004f34 	.word	0x10004f34
1000267c:	10004f78 	.word	0x10004f78
10002680:	10004fc4 	.word	0x10004fc4
10002684:	9b09      	ldr	r3, [sp, #36]	; 0x24
10002686:	cb04      	ldmia	r3!, {r2}
10002688:	4699      	mov	r9, r3
1000268a:	4643      	mov	r3, r8
1000268c:	9209      	str	r2, [sp, #36]	; 0x24
1000268e:	2b00      	cmp	r3, #0
10002690:	d000      	beq.n	10002694 <_vsnprintf+0x378>
10002692:	e097      	b.n	100027c4 <_vsnprintf+0x4a8>
10002694:	7813      	ldrb	r3, [r2, #0]
10002696:	469c      	mov	ip, r3
10002698:	2b00      	cmp	r3, #0
1000269a:	d100      	bne.n	1000269e <_vsnprintf+0x382>
1000269c:	e3b3      	b.n	10002e06 <_vsnprintf+0xaea>
1000269e:	2302      	movs	r3, #2
100026a0:	425b      	negs	r3, r3
100026a2:	1c5a      	adds	r2, r3, #1
100026a4:	9b09      	ldr	r3, [sp, #36]	; 0x24
100026a6:	4692      	mov	sl, r2
100026a8:	0018      	movs	r0, r3
100026aa:	9f0a      	ldr	r7, [sp, #40]	; 0x28
100026ac:	920b      	str	r2, [sp, #44]	; 0x2c
100026ae:	4450      	add	r0, sl
100026b0:	e002      	b.n	100026b8 <_vsnprintf+0x39c>
100026b2:	4283      	cmp	r3, r0
100026b4:	d100      	bne.n	100026b8 <_vsnprintf+0x39c>
100026b6:	e169      	b.n	1000298c <_vsnprintf+0x670>
100026b8:	785a      	ldrb	r2, [r3, #1]
100026ba:	3301      	adds	r3, #1
100026bc:	2a00      	cmp	r2, #0
100026be:	d1f8      	bne.n	100026b2 <_vsnprintf+0x396>
100026c0:	9a09      	ldr	r2, [sp, #36]	; 0x24
100026c2:	970a      	str	r7, [sp, #40]	; 0x28
100026c4:	1a9b      	subs	r3, r3, r2
100026c6:	930b      	str	r3, [sp, #44]	; 0x2c
100026c8:	2380      	movs	r3, #128	; 0x80
100026ca:	000a      	movs	r2, r1
100026cc:	00db      	lsls	r3, r3, #3
100026ce:	401a      	ands	r2, r3
100026d0:	920c      	str	r2, [sp, #48]	; 0x30
100026d2:	4219      	tst	r1, r3
100026d4:	d004      	beq.n	100026e0 <_vsnprintf+0x3c4>
100026d6:	9b0b      	ldr	r3, [sp, #44]	; 0x2c
100026d8:	4543      	cmp	r3, r8
100026da:	d901      	bls.n	100026e0 <_vsnprintf+0x3c4>
100026dc:	4643      	mov	r3, r8
100026de:	930b      	str	r3, [sp, #44]	; 0x2c
100026e0:	2302      	movs	r3, #2
100026e2:	001a      	movs	r2, r3
100026e4:	400a      	ands	r2, r1
100026e6:	920d      	str	r2, [sp, #52]	; 0x34
100026e8:	420b      	tst	r3, r1
100026ea:	d100      	bne.n	100026ee <_vsnprintf+0x3d2>
100026ec:	e184      	b.n	100029f8 <_vsnprintf+0x6dc>
100026ee:	4660      	mov	r0, ip
100026f0:	2800      	cmp	r0, #0
100026f2:	d023      	beq.n	1000273c <_vsnprintf+0x420>
100026f4:	9b0c      	ldr	r3, [sp, #48]	; 0x30
100026f6:	2b00      	cmp	r3, #0
100026f8:	d100      	bne.n	100026fc <_vsnprintf+0x3e0>
100026fa:	e124      	b.n	10002946 <_vsnprintf+0x62a>
100026fc:	44a8      	add	r8, r5
100026fe:	46c2      	mov	sl, r8
10002700:	9b09      	ldr	r3, [sp, #36]	; 0x24
10002702:	4657      	mov	r7, sl
10002704:	1b5b      	subs	r3, r3, r5
10002706:	4698      	mov	r8, r3
10002708:	9b08      	ldr	r3, [sp, #32]
1000270a:	46b2      	mov	sl, r6
1000270c:	002a      	movs	r2, r5
1000270e:	0026      	movs	r6, r4
10002710:	465c      	mov	r4, fp
10002712:	469b      	mov	fp, r3
10002714:	e009      	b.n	1000272a <_vsnprintf+0x40e>
10002716:	0023      	movs	r3, r4
10002718:	0031      	movs	r1, r6
1000271a:	1c55      	adds	r5, r2, #1
1000271c:	47d8      	blx	fp
1000271e:	4643      	mov	r3, r8
10002720:	5d58      	ldrb	r0, [r3, r5]
10002722:	2800      	cmp	r0, #0
10002724:	d100      	bne.n	10002728 <_vsnprintf+0x40c>
10002726:	e13f      	b.n	100029a8 <_vsnprintf+0x68c>
10002728:	002a      	movs	r2, r5
1000272a:	4297      	cmp	r7, r2
1000272c:	d1f3      	bne.n	10002716 <_vsnprintf+0x3fa>
1000272e:	46a3      	mov	fp, r4
10002730:	003d      	movs	r5, r7
10002732:	0034      	movs	r4, r6
10002734:	4656      	mov	r6, sl
10002736:	9b0d      	ldr	r3, [sp, #52]	; 0x34
10002738:	2b00      	cmp	r3, #0
1000273a:	d069      	beq.n	10002810 <_vsnprintf+0x4f4>
1000273c:	9b0b      	ldr	r3, [sp, #44]	; 0x2c
1000273e:	990a      	ldr	r1, [sp, #40]	; 0x28
10002740:	46a8      	mov	r8, r5
10002742:	4299      	cmp	r1, r3
10002744:	d964      	bls.n	10002810 <_vsnprintf+0x4f4>
10002746:	468c      	mov	ip, r1
10002748:	4465      	add	r5, ip
1000274a:	1aed      	subs	r5, r5, r3
1000274c:	9b08      	ldr	r3, [sp, #32]
1000274e:	4647      	mov	r7, r8
10002750:	469a      	mov	sl, r3
10002752:	46b0      	mov	r8, r6
10002754:	0026      	movs	r6, r4
10002756:	465c      	mov	r4, fp
10002758:	003a      	movs	r2, r7
1000275a:	0023      	movs	r3, r4
1000275c:	3701      	adds	r7, #1
1000275e:	0031      	movs	r1, r6
10002760:	2020      	movs	r0, #32
10002762:	47d0      	blx	sl
10002764:	42af      	cmp	r7, r5
10002766:	d1f7      	bne.n	10002758 <_vsnprintf+0x43c>
10002768:	46a3      	mov	fp, r4
1000276a:	0034      	movs	r4, r6
1000276c:	4646      	mov	r6, r8
1000276e:	e04f      	b.n	10002810 <_vsnprintf+0x4f4>
10002770:	4bd2      	ldr	r3, [pc, #840]	; (10002abc <_vsnprintf+0x7a0>)
10002772:	7820      	ldrb	r0, [r4, #0]
10002774:	9308      	str	r3, [sp, #32]
10002776:	2300      	movs	r3, #0
10002778:	469a      	mov	sl, r3
1000277a:	2800      	cmp	r0, #0
1000277c:	d000      	beq.n	10002780 <_vsnprintf+0x464>
1000277e:	e5e6      	b.n	1000234e <_vsnprintf+0x32>
10002780:	2400      	movs	r4, #0
10002782:	e671      	b.n	10002468 <_vsnprintf+0x14c>
10002784:	4643      	mov	r3, r8
10002786:	0006      	movs	r6, r0
10002788:	9f0a      	ldr	r7, [sp, #40]	; 0x28
1000278a:	0098      	lsls	r0, r3, #2
1000278c:	18c0      	adds	r0, r0, r3
1000278e:	3201      	adds	r2, #1
10002790:	0040      	lsls	r0, r0, #1
10002792:	1980      	adds	r0, r0, r6
10002794:	7816      	ldrb	r6, [r2, #0]
10002796:	0003      	movs	r3, r0
10002798:	0030      	movs	r0, r6
1000279a:	3830      	subs	r0, #48	; 0x30
1000279c:	3b30      	subs	r3, #48	; 0x30
1000279e:	2809      	cmp	r0, #9
100027a0:	d9f3      	bls.n	1000278a <_vsnprintf+0x46e>
100027a2:	0030      	movs	r0, r6
100027a4:	4698      	mov	r8, r3
100027a6:	0016      	movs	r6, r2
100027a8:	970a      	str	r7, [sp, #40]	; 0x28
100027aa:	e603      	b.n	100023b4 <_vsnprintf+0x98>
100027ac:	9b09      	ldr	r3, [sp, #36]	; 0x24
100027ae:	3602      	adds	r6, #2
100027b0:	cb04      	ldmia	r3!, {r2}
100027b2:	4690      	mov	r8, r2
100027b4:	43d2      	mvns	r2, r2
100027b6:	4640      	mov	r0, r8
100027b8:	17d2      	asrs	r2, r2, #31
100027ba:	4010      	ands	r0, r2
100027bc:	4680      	mov	r8, r0
100027be:	9309      	str	r3, [sp, #36]	; 0x24
100027c0:	7830      	ldrb	r0, [r6, #0]
100027c2:	e5f7      	b.n	100023b4 <_vsnprintf+0x98>
100027c4:	7813      	ldrb	r3, [r2, #0]
100027c6:	469c      	mov	ip, r3
100027c8:	2b00      	cmp	r3, #0
100027ca:	d100      	bne.n	100027ce <_vsnprintf+0x4b2>
100027cc:	e31a      	b.n	10002e04 <_vsnprintf+0xae8>
100027ce:	4643      	mov	r3, r8
100027d0:	3b01      	subs	r3, #1
100027d2:	e766      	b.n	100026a2 <_vsnprintf+0x386>
100027d4:	2210      	movs	r2, #16
100027d6:	0008      	movs	r0, r1
100027d8:	4390      	bics	r0, r2
100027da:	3211      	adds	r2, #17
100027dc:	4310      	orrs	r0, r2
100027de:	4682      	mov	sl, r0
100027e0:	2200      	movs	r2, #0
100027e2:	0549      	lsls	r1, r1, #21
100027e4:	d400      	bmi.n	100027e8 <_vsnprintf+0x4cc>
100027e6:	e6f2      	b.n	100025ce <_vsnprintf+0x2b2>
100027e8:	4653      	mov	r3, sl
100027ea:	9306      	str	r3, [sp, #24]
100027ec:	2308      	movs	r3, #8
100027ee:	9305      	str	r3, [sp, #20]
100027f0:	4643      	mov	r3, r8
100027f2:	9304      	str	r3, [sp, #16]
100027f4:	2310      	movs	r3, #16
100027f6:	9303      	str	r3, [sp, #12]
100027f8:	2300      	movs	r3, #0
100027fa:	9302      	str	r3, [sp, #8]
100027fc:	ab16      	add	r3, sp, #88	; 0x58
100027fe:	9201      	str	r2, [sp, #4]
10002800:	9300      	str	r3, [sp, #0]
10002802:	002a      	movs	r2, r5
10002804:	465b      	mov	r3, fp
10002806:	0021      	movs	r1, r4
10002808:	9808      	ldr	r0, [sp, #32]
1000280a:	f7ff f879 	bl	10001900 <_ntoa_format>
1000280e:	0005      	movs	r5, r0
10002810:	464b      	mov	r3, r9
10002812:	3601      	adds	r6, #1
10002814:	9309      	str	r3, [sp, #36]	; 0x24
10002816:	e5a6      	b.n	10002366 <_vsnprintf+0x4a>
10002818:	2320      	movs	r3, #32
1000281a:	0002      	movs	r2, r0
1000281c:	439a      	bics	r2, r3
1000281e:	2a47      	cmp	r2, #71	; 0x47
10002820:	d104      	bne.n	1000282c <_vsnprintf+0x510>
10002822:	2380      	movs	r3, #128	; 0x80
10002824:	011b      	lsls	r3, r3, #4
10002826:	4319      	orrs	r1, r3
10002828:	2302      	movs	r3, #2
1000282a:	4398      	bics	r0, r3
1000282c:	2845      	cmp	r0, #69	; 0x45
1000282e:	d101      	bne.n	10002834 <_vsnprintf+0x518>
10002830:	2320      	movs	r3, #32
10002832:	4319      	orrs	r1, r3
10002834:	2207      	movs	r2, #7
10002836:	9b09      	ldr	r3, [sp, #36]	; 0x24
10002838:	9104      	str	r1, [sp, #16]
1000283a:	3307      	adds	r3, #7
1000283c:	4393      	bics	r3, r2
1000283e:	9a0a      	ldr	r2, [sp, #40]	; 0x28
10002840:	0019      	movs	r1, r3
10002842:	9203      	str	r2, [sp, #12]
10002844:	4642      	mov	r2, r8
10002846:	9202      	str	r2, [sp, #8]
10002848:	c90c      	ldmia	r1!, {r2, r3}
1000284a:	9808      	ldr	r0, [sp, #32]
1000284c:	9200      	str	r2, [sp, #0]
1000284e:	9301      	str	r3, [sp, #4]
10002850:	9109      	str	r1, [sp, #36]	; 0x24
10002852:	002a      	movs	r2, r5
10002854:	465b      	mov	r3, fp
10002856:	0021      	movs	r1, r4
10002858:	f7ff f94a 	bl	10001af0 <_etoa>
1000285c:	3601      	adds	r6, #1
1000285e:	0005      	movs	r5, r0
10002860:	e581      	b.n	10002366 <_vsnprintf+0x4a>
10002862:	2310      	movs	r3, #16
10002864:	930c      	str	r3, [sp, #48]	; 0x30
10002866:	230c      	movs	r3, #12
10002868:	000a      	movs	r2, r1
1000286a:	439a      	bics	r2, r3
1000286c:	920b      	str	r2, [sp, #44]	; 0x2c
1000286e:	054b      	lsls	r3, r1, #21
10002870:	d400      	bmi.n	10002874 <_vsnprintf+0x558>
10002872:	e63b      	b.n	100024ec <_vsnprintf+0x1d0>
10002874:	e636      	b.n	100024e4 <_vsnprintf+0x1c8>
10002876:	2320      	movs	r3, #32
10002878:	4319      	orrs	r1, r3
1000287a:	e687      	b.n	1000258c <_vsnprintf+0x270>
1000287c:	2302      	movs	r3, #2
1000287e:	930c      	str	r3, [sp, #48]	; 0x30
10002880:	910b      	str	r1, [sp, #44]	; 0x2c
10002882:	990b      	ldr	r1, [sp, #44]	; 0x2c
10002884:	2864      	cmp	r0, #100	; 0x64
10002886:	d1ee      	bne.n	10002866 <_vsnprintf+0x54a>
10002888:	9b0b      	ldr	r3, [sp, #44]	; 0x2c
1000288a:	055b      	lsls	r3, r3, #21
1000288c:	d500      	bpl.n	10002890 <_vsnprintf+0x574>
1000288e:	e629      	b.n	100024e4 <_vsnprintf+0x1c8>
10002890:	9a0b      	ldr	r2, [sp, #44]	; 0x2c
10002892:	2380      	movs	r3, #128	; 0x80
10002894:	0011      	movs	r1, r2
10002896:	009b      	lsls	r3, r3, #2
10002898:	4019      	ands	r1, r3
1000289a:	468a      	mov	sl, r1
1000289c:	421a      	tst	r2, r3
1000289e:	d000      	beq.n	100028a2 <_vsnprintf+0x586>
100028a0:	e0ce      	b.n	10002a40 <_vsnprintf+0x724>
100028a2:	2380      	movs	r3, #128	; 0x80
100028a4:	0011      	movs	r1, r2
100028a6:	005b      	lsls	r3, r3, #1
100028a8:	4019      	ands	r1, r3
100028aa:	4689      	mov	r9, r1
100028ac:	421a      	tst	r2, r3
100028ae:	d000      	beq.n	100028b2 <_vsnprintf+0x596>
100028b0:	e1db      	b.n	10002c6a <_vsnprintf+0x94e>
100028b2:	0013      	movs	r3, r2
100028b4:	065b      	lsls	r3, r3, #25
100028b6:	d500      	bpl.n	100028ba <_vsnprintf+0x59e>
100028b8:	e11d      	b.n	10002af6 <_vsnprintf+0x7da>
100028ba:	9b0b      	ldr	r3, [sp, #44]	; 0x2c
100028bc:	9909      	ldr	r1, [sp, #36]	; 0x24
100028be:	061b      	lsls	r3, r3, #24
100028c0:	d400      	bmi.n	100028c4 <_vsnprintf+0x5a8>
100028c2:	e299      	b.n	10002df8 <_vsnprintf+0xadc>
100028c4:	c908      	ldmia	r1!, {r3}
100028c6:	b21b      	sxth	r3, r3
100028c8:	17d8      	asrs	r0, r3, #31
100028ca:	181a      	adds	r2, r3, r0
100028cc:	4042      	eors	r2, r0
100028ce:	b292      	uxth	r2, r2
100028d0:	9109      	str	r1, [sp, #36]	; 0x24
100028d2:	4692      	mov	sl, r2
100028d4:	0fda      	lsrs	r2, r3, #31
100028d6:	9212      	str	r2, [sp, #72]	; 0x48
100028d8:	2b00      	cmp	r3, #0
100028da:	d109      	bne.n	100028f0 <_vsnprintf+0x5d4>
100028dc:	2380      	movs	r3, #128	; 0x80
100028de:	2210      	movs	r2, #16
100028e0:	990b      	ldr	r1, [sp, #44]	; 0x2c
100028e2:	00db      	lsls	r3, r3, #3
100028e4:	400b      	ands	r3, r1
100028e6:	4391      	bics	r1, r2
100028e8:	910b      	str	r1, [sp, #44]	; 0x2c
100028ea:	2b00      	cmp	r3, #0
100028ec:	d000      	beq.n	100028f0 <_vsnprintf+0x5d4>
100028ee:	e112      	b.n	10002b16 <_vsnprintf+0x7fa>
100028f0:	9a0b      	ldr	r2, [sp, #44]	; 0x2c
100028f2:	2361      	movs	r3, #97	; 0x61
100028f4:	0692      	lsls	r2, r2, #26
100028f6:	d500      	bpl.n	100028fa <_vsnprintf+0x5de>
100028f8:	2341      	movs	r3, #65	; 0x41
100028fa:	a90e      	add	r1, sp, #56	; 0x38
100028fc:	221f      	movs	r2, #31
100028fe:	468c      	mov	ip, r1
10002900:	b2db      	uxtb	r3, r3
10002902:	4462      	add	r2, ip
10002904:	3b0a      	subs	r3, #10
10002906:	4657      	mov	r7, sl
10002908:	9513      	str	r5, [sp, #76]	; 0x4c
1000290a:	46a2      	mov	sl, r4
1000290c:	464d      	mov	r5, r9
1000290e:	9c0c      	ldr	r4, [sp, #48]	; 0x30
10002910:	46b1      	mov	r9, r6
10002912:	930d      	str	r3, [sp, #52]	; 0x34
10002914:	0016      	movs	r6, r2
10002916:	e00a      	b.n	1000292e <_vsnprintf+0x612>
10002918:	3330      	adds	r3, #48	; 0x30
1000291a:	b2db      	uxtb	r3, r3
1000291c:	3501      	adds	r5, #1
1000291e:	5573      	strb	r3, [r6, r5]
10002920:	42a7      	cmp	r7, r4
10002922:	d200      	bcs.n	10002926 <_vsnprintf+0x60a>
10002924:	e11c      	b.n	10002b60 <_vsnprintf+0x844>
10002926:	2d20      	cmp	r5, #32
10002928:	d100      	bne.n	1000292c <_vsnprintf+0x610>
1000292a:	e119      	b.n	10002b60 <_vsnprintf+0x844>
1000292c:	0007      	movs	r7, r0
1000292e:	0021      	movs	r1, r4
10002930:	0038      	movs	r0, r7
10002932:	f000 fb15 	bl	10002f60 <__wrap___aeabi_uidiv>
10002936:	b2cb      	uxtb	r3, r1
10002938:	2909      	cmp	r1, #9
1000293a:	d9ed      	bls.n	10002918 <_vsnprintf+0x5fc>
1000293c:	9a0d      	ldr	r2, [sp, #52]	; 0x34
1000293e:	4694      	mov	ip, r2
10002940:	4463      	add	r3, ip
10002942:	b2db      	uxtb	r3, r3
10002944:	e7ea      	b.n	1000291c <_vsnprintf+0x600>
10002946:	9b09      	ldr	r3, [sp, #36]	; 0x24
10002948:	465f      	mov	r7, fp
1000294a:	1b5b      	subs	r3, r3, r5
1000294c:	4698      	mov	r8, r3
1000294e:	9b0a      	ldr	r3, [sp, #40]	; 0x28
10002950:	46b3      	mov	fp, r6
10002952:	469a      	mov	sl, r3
10002954:	0026      	movs	r6, r4
10002956:	9c08      	ldr	r4, [sp, #32]
10002958:	002a      	movs	r2, r5
1000295a:	003b      	movs	r3, r7
1000295c:	0031      	movs	r1, r6
1000295e:	47a0      	blx	r4
10002960:	4643      	mov	r3, r8
10002962:	3501      	adds	r5, #1
10002964:	5d58      	ldrb	r0, [r3, r5]
10002966:	2800      	cmp	r0, #0
10002968:	d1f6      	bne.n	10002958 <_vsnprintf+0x63c>
1000296a:	4653      	mov	r3, sl
1000296c:	0034      	movs	r4, r6
1000296e:	930a      	str	r3, [sp, #40]	; 0x28
10002970:	465e      	mov	r6, fp
10002972:	46bb      	mov	fp, r7
10002974:	e6df      	b.n	10002736 <_vsnprintf+0x41a>
10002976:	23c0      	movs	r3, #192	; 0xc0
10002978:	009b      	lsls	r3, r3, #2
1000297a:	78b0      	ldrb	r0, [r6, #2]
1000297c:	4319      	orrs	r1, r3
1000297e:	3602      	adds	r6, #2
10002980:	e53d      	b.n	100023fe <_vsnprintf+0xe2>
10002982:	23c0      	movs	r3, #192	; 0xc0
10002984:	78b0      	ldrb	r0, [r6, #2]
10002986:	4319      	orrs	r1, r3
10002988:	3602      	adds	r6, #2
1000298a:	e538      	b.n	100023fe <_vsnprintf+0xe2>
1000298c:	970a      	str	r7, [sp, #40]	; 0x28
1000298e:	e69b      	b.n	100026c8 <_vsnprintf+0x3ac>
10002990:	230c      	movs	r3, #12
10002992:	000a      	movs	r2, r1
10002994:	439a      	bics	r2, r3
10002996:	3314      	adds	r3, #20
10002998:	431a      	orrs	r2, r3
1000299a:	2310      	movs	r3, #16
1000299c:	920b      	str	r2, [sp, #44]	; 0x2c
1000299e:	930c      	str	r3, [sp, #48]	; 0x30
100029a0:	054b      	lsls	r3, r1, #21
100029a2:	d400      	bmi.n	100029a6 <_vsnprintf+0x68a>
100029a4:	e5a8      	b.n	100024f8 <_vsnprintf+0x1dc>
100029a6:	e59d      	b.n	100024e4 <_vsnprintf+0x1c8>
100029a8:	46a3      	mov	fp, r4
100029aa:	0034      	movs	r4, r6
100029ac:	4656      	mov	r6, sl
100029ae:	e6c2      	b.n	10002736 <_vsnprintf+0x41a>
100029b0:	9a0a      	ldr	r2, [sp, #40]	; 0x28
100029b2:	2a01      	cmp	r2, #1
100029b4:	d800      	bhi.n	100029b8 <_vsnprintf+0x69c>
100029b6:	e22e      	b.n	10002e16 <_vsnprintf+0xafa>
100029b8:	1e6b      	subs	r3, r5, #1
100029ba:	189f      	adds	r7, r3, r2
100029bc:	9b08      	ldr	r3, [sp, #32]
100029be:	46b0      	mov	r8, r6
100029c0:	4699      	mov	r9, r3
100029c2:	0026      	movs	r6, r4
100029c4:	465c      	mov	r4, fp
100029c6:	002a      	movs	r2, r5
100029c8:	0023      	movs	r3, r4
100029ca:	3501      	adds	r5, #1
100029cc:	0031      	movs	r1, r6
100029ce:	2020      	movs	r0, #32
100029d0:	47c8      	blx	r9
100029d2:	42bd      	cmp	r5, r7
100029d4:	d1f7      	bne.n	100029c6 <_vsnprintf+0x6aa>
100029d6:	46a3      	mov	fp, r4
100029d8:	0034      	movs	r4, r6
100029da:	4646      	mov	r6, r8
100029dc:	9b09      	ldr	r3, [sp, #36]	; 0x24
100029de:	003a      	movs	r2, r7
100029e0:	cb01      	ldmia	r3!, {r0}
100029e2:	0021      	movs	r1, r4
100029e4:	4698      	mov	r8, r3
100029e6:	1c7d      	adds	r5, r7, #1
100029e8:	465b      	mov	r3, fp
100029ea:	9f08      	ldr	r7, [sp, #32]
100029ec:	b2c0      	uxtb	r0, r0
100029ee:	47b8      	blx	r7
100029f0:	4643      	mov	r3, r8
100029f2:	3601      	adds	r6, #1
100029f4:	9309      	str	r3, [sp, #36]	; 0x24
100029f6:	e4b6      	b.n	10002366 <_vsnprintf+0x4a>
100029f8:	9a0b      	ldr	r2, [sp, #44]	; 0x2c
100029fa:	980a      	ldr	r0, [sp, #40]	; 0x28
100029fc:	1c53      	adds	r3, r2, #1
100029fe:	4290      	cmp	r0, r2
10002a00:	d800      	bhi.n	10002a04 <_vsnprintf+0x6e8>
10002a02:	e20a      	b.n	10002e1a <_vsnprintf+0xafe>
10002a04:	1943      	adds	r3, r0, r5
10002a06:	1a9b      	subs	r3, r3, r2
10002a08:	001f      	movs	r7, r3
10002a0a:	9b08      	ldr	r3, [sp, #32]
10002a0c:	46b2      	mov	sl, r6
10002a0e:	0026      	movs	r6, r4
10002a10:	465c      	mov	r4, fp
10002a12:	469b      	mov	fp, r3
10002a14:	002a      	movs	r2, r5
10002a16:	0023      	movs	r3, r4
10002a18:	3501      	adds	r5, #1
10002a1a:	0031      	movs	r1, r6
10002a1c:	2020      	movs	r0, #32
10002a1e:	47d8      	blx	fp
10002a20:	42bd      	cmp	r5, r7
10002a22:	d1f7      	bne.n	10002a14 <_vsnprintf+0x6f8>
10002a24:	9b0a      	ldr	r3, [sp, #40]	; 0x28
10002a26:	46a3      	mov	fp, r4
10002a28:	3301      	adds	r3, #1
10002a2a:	930b      	str	r3, [sp, #44]	; 0x2c
10002a2c:	9b09      	ldr	r3, [sp, #36]	; 0x24
10002a2e:	0034      	movs	r4, r6
10002a30:	781b      	ldrb	r3, [r3, #0]
10002a32:	4656      	mov	r6, sl
10002a34:	469c      	mov	ip, r3
10002a36:	4660      	mov	r0, ip
10002a38:	2800      	cmp	r0, #0
10002a3a:	d000      	beq.n	10002a3e <_vsnprintf+0x722>
10002a3c:	e65a      	b.n	100026f4 <_vsnprintf+0x3d8>
10002a3e:	e6e7      	b.n	10002810 <_vsnprintf+0x4f4>
10002a40:	2207      	movs	r2, #7
10002a42:	9b09      	ldr	r3, [sp, #36]	; 0x24
10002a44:	3307      	adds	r3, #7
10002a46:	4393      	bics	r3, r2
10002a48:	3201      	adds	r2, #1
10002a4a:	4694      	mov	ip, r2
10002a4c:	449c      	add	ip, r3
10002a4e:	4662      	mov	r2, ip
10002a50:	685f      	ldr	r7, [r3, #4]
10002a52:	9209      	str	r2, [sp, #36]	; 0x24
10002a54:	681a      	ldr	r2, [r3, #0]
10002a56:	17fb      	asrs	r3, r7, #31
10002a58:	9310      	str	r3, [sp, #64]	; 0x40
10002a5a:	9311      	str	r3, [sp, #68]	; 0x44
10002a5c:	9810      	ldr	r0, [sp, #64]	; 0x40
10002a5e:	9911      	ldr	r1, [sp, #68]	; 0x44
10002a60:	0003      	movs	r3, r0
10002a62:	4053      	eors	r3, r2
10002a64:	930e      	str	r3, [sp, #56]	; 0x38
10002a66:	000b      	movs	r3, r1
10002a68:	407b      	eors	r3, r7
10002a6a:	930f      	str	r3, [sp, #60]	; 0x3c
10002a6c:	4694      	mov	ip, r2
10002a6e:	9a0e      	ldr	r2, [sp, #56]	; 0x38
10002a70:	9b0f      	ldr	r3, [sp, #60]	; 0x3c
10002a72:	1a12      	subs	r2, r2, r0
10002a74:	418b      	sbcs	r3, r1
10002a76:	920e      	str	r2, [sp, #56]	; 0x38
10002a78:	930f      	str	r3, [sp, #60]	; 0x3c
10002a7a:	0ffb      	lsrs	r3, r7, #31
10002a7c:	4662      	mov	r2, ip
10002a7e:	9312      	str	r3, [sp, #72]	; 0x48
10002a80:	2300      	movs	r3, #0
10002a82:	433a      	orrs	r2, r7
10002a84:	469a      	mov	sl, r3
10002a86:	d03d      	beq.n	10002b04 <_vsnprintf+0x7e8>
10002a88:	9a0b      	ldr	r2, [sp, #44]	; 0x2c
10002a8a:	2361      	movs	r3, #97	; 0x61
10002a8c:	0692      	lsls	r2, r2, #26
10002a8e:	d500      	bpl.n	10002a92 <_vsnprintf+0x776>
10002a90:	2341      	movs	r3, #65	; 0x41
10002a92:	2200      	movs	r2, #0
10002a94:	b2db      	uxtb	r3, r3
10002a96:	a90e      	add	r1, sp, #56	; 0x38
10002a98:	3b0a      	subs	r3, #10
10002a9a:	468c      	mov	ip, r1
10002a9c:	4691      	mov	r9, r2
10002a9e:	930d      	str	r3, [sp, #52]	; 0x34
10002aa0:	4643      	mov	r3, r8
10002aa2:	321f      	adds	r2, #31
10002aa4:	4462      	add	r2, ip
10002aa6:	9513      	str	r5, [sp, #76]	; 0x4c
10002aa8:	9615      	str	r6, [sp, #84]	; 0x54
10002aaa:	464d      	mov	r5, r9
10002aac:	9e0e      	ldr	r6, [sp, #56]	; 0x38
10002aae:	9f0f      	ldr	r7, [sp, #60]	; 0x3c
10002ab0:	46a1      	mov	r9, r4
10002ab2:	4690      	mov	r8, r2
10002ab4:	9c0c      	ldr	r4, [sp, #48]	; 0x30
10002ab6:	9314      	str	r3, [sp, #80]	; 0x50
10002ab8:	e00f      	b.n	10002ada <_vsnprintf+0x7be>
10002aba:	46c0      	nop			; (mov r8, r8)
10002abc:	1000182d 	.word	0x1000182d
10002ac0:	3230      	adds	r2, #48	; 0x30
10002ac2:	b2d2      	uxtb	r2, r2
10002ac4:	4643      	mov	r3, r8
10002ac6:	3501      	adds	r5, #1
10002ac8:	555a      	strb	r2, [r3, r5]
10002aca:	45ba      	cmp	sl, r7
10002acc:	d100      	bne.n	10002ad0 <_vsnprintf+0x7b4>
10002ace:	e17c      	b.n	10002dca <_vsnprintf+0xaae>
10002ad0:	2d20      	cmp	r5, #32
10002ad2:	d100      	bne.n	10002ad6 <_vsnprintf+0x7ba>
10002ad4:	e17c      	b.n	10002dd0 <_vsnprintf+0xab4>
10002ad6:	0006      	movs	r6, r0
10002ad8:	000f      	movs	r7, r1
10002ada:	0022      	movs	r2, r4
10002adc:	2300      	movs	r3, #0
10002ade:	0030      	movs	r0, r6
10002ae0:	0039      	movs	r1, r7
10002ae2:	f000 fa83 	bl	10002fec <__wrap___aeabi_uldivmod>
10002ae6:	b2d2      	uxtb	r2, r2
10002ae8:	2a09      	cmp	r2, #9
10002aea:	d9e9      	bls.n	10002ac0 <_vsnprintf+0x7a4>
10002aec:	9b0d      	ldr	r3, [sp, #52]	; 0x34
10002aee:	469c      	mov	ip, r3
10002af0:	4462      	add	r2, ip
10002af2:	b2d2      	uxtb	r2, r2
10002af4:	e7e6      	b.n	10002ac4 <_vsnprintf+0x7a8>
10002af6:	23ff      	movs	r3, #255	; 0xff
10002af8:	9909      	ldr	r1, [sp, #36]	; 0x24
10002afa:	c904      	ldmia	r1!, {r2}
10002afc:	4013      	ands	r3, r2
10002afe:	001a      	movs	r2, r3
10002b00:	9109      	str	r1, [sp, #36]	; 0x24
10002b02:	e6e6      	b.n	100028d2 <_vsnprintf+0x5b6>
10002b04:	9a0b      	ldr	r2, [sp, #44]	; 0x2c
10002b06:	3310      	adds	r3, #16
10002b08:	0011      	movs	r1, r2
10002b0a:	4399      	bics	r1, r3
10002b0c:	910b      	str	r1, [sp, #44]	; 0x2c
10002b0e:	0552      	lsls	r2, r2, #21
10002b10:	d5ba      	bpl.n	10002a88 <_vsnprintf+0x76c>
10002b12:	2300      	movs	r3, #0
10002b14:	4699      	mov	r9, r3
10002b16:	9b0b      	ldr	r3, [sp, #44]	; 0x2c
10002b18:	9306      	str	r3, [sp, #24]
10002b1a:	9b0a      	ldr	r3, [sp, #40]	; 0x28
10002b1c:	9305      	str	r3, [sp, #20]
10002b1e:	4643      	mov	r3, r8
10002b20:	9304      	str	r3, [sp, #16]
10002b22:	9b0c      	ldr	r3, [sp, #48]	; 0x30
10002b24:	9303      	str	r3, [sp, #12]
10002b26:	9b12      	ldr	r3, [sp, #72]	; 0x48
10002b28:	9302      	str	r3, [sp, #8]
10002b2a:	464b      	mov	r3, r9
10002b2c:	9301      	str	r3, [sp, #4]
10002b2e:	ab16      	add	r3, sp, #88	; 0x58
10002b30:	002a      	movs	r2, r5
10002b32:	9300      	str	r3, [sp, #0]
10002b34:	0021      	movs	r1, r4
10002b36:	465b      	mov	r3, fp
10002b38:	9808      	ldr	r0, [sp, #32]
10002b3a:	f7fe fee1 	bl	10001900 <_ntoa_format>
10002b3e:	3601      	adds	r6, #1
10002b40:	0005      	movs	r5, r0
10002b42:	f7ff fc10 	bl	10002366 <_vsnprintf+0x4a>
10002b46:	22ff      	movs	r2, #255	; 0xff
10002b48:	9b09      	ldr	r3, [sp, #36]	; 0x24
10002b4a:	cb02      	ldmia	r3!, {r1}
10002b4c:	4011      	ands	r1, r2
10002b4e:	468a      	mov	sl, r1
10002b50:	9309      	str	r3, [sp, #36]	; 0x24
10002b52:	e4f2      	b.n	1000253a <_vsnprintf+0x21e>
10002b54:	464b      	mov	r3, r9
10002b56:	4645      	mov	r5, r8
10002b58:	9309      	str	r3, [sp, #36]	; 0x24
10002b5a:	3601      	adds	r6, #1
10002b5c:	f7ff fc03 	bl	10002366 <_vsnprintf+0x4a>
10002b60:	464e      	mov	r6, r9
10002b62:	4654      	mov	r4, sl
10002b64:	46a9      	mov	r9, r5
10002b66:	9d13      	ldr	r5, [sp, #76]	; 0x4c
10002b68:	e7d5      	b.n	10002b16 <_vsnprintf+0x7fa>
10002b6a:	2308      	movs	r3, #8
10002b6c:	930c      	str	r3, [sp, #48]	; 0x30
10002b6e:	e687      	b.n	10002880 <_vsnprintf+0x564>
10002b70:	2207      	movs	r2, #7
10002b72:	9b09      	ldr	r3, [sp, #36]	; 0x24
10002b74:	3307      	adds	r3, #7
10002b76:	4393      	bics	r3, r2
10002b78:	3201      	adds	r2, #1
10002b7a:	4694      	mov	ip, r2
10002b7c:	449c      	add	ip, r3
10002b7e:	4662      	mov	r2, ip
10002b80:	9209      	str	r2, [sp, #36]	; 0x24
10002b82:	681a      	ldr	r2, [r3, #0]
10002b84:	685b      	ldr	r3, [r3, #4]
10002b86:	0010      	movs	r0, r2
10002b88:	469a      	mov	sl, r3
10002b8a:	0013      	movs	r3, r2
10002b8c:	4652      	mov	r2, sl
10002b8e:	4313      	orrs	r3, r2
10002b90:	d107      	bne.n	10002ba2 <_vsnprintf+0x886>
10002b92:	9a0b      	ldr	r2, [sp, #44]	; 0x2c
10002b94:	3310      	adds	r3, #16
10002b96:	0011      	movs	r1, r2
10002b98:	4399      	bics	r1, r3
10002b9a:	910b      	str	r1, [sp, #44]	; 0x2c
10002b9c:	0552      	lsls	r2, r2, #21
10002b9e:	d500      	bpl.n	10002ba2 <_vsnprintf+0x886>
10002ba0:	e4d7      	b.n	10002552 <_vsnprintf+0x236>
10002ba2:	9a0b      	ldr	r2, [sp, #44]	; 0x2c
10002ba4:	2361      	movs	r3, #97	; 0x61
10002ba6:	0692      	lsls	r2, r2, #26
10002ba8:	d500      	bpl.n	10002bac <_vsnprintf+0x890>
10002baa:	2341      	movs	r3, #65	; 0x41
10002bac:	2200      	movs	r2, #0
10002bae:	b2db      	uxtb	r3, r3
10002bb0:	a90e      	add	r1, sp, #56	; 0x38
10002bb2:	3b0a      	subs	r3, #10
10002bb4:	468c      	mov	ip, r1
10002bb6:	4691      	mov	r9, r2
10002bb8:	930d      	str	r3, [sp, #52]	; 0x34
10002bba:	4643      	mov	r3, r8
10002bbc:	321f      	adds	r2, #31
10002bbe:	4462      	add	r2, ip
10002bc0:	4657      	mov	r7, sl
10002bc2:	9512      	str	r5, [sp, #72]	; 0x48
10002bc4:	46a2      	mov	sl, r4
10002bc6:	464d      	mov	r5, r9
10002bc8:	0004      	movs	r4, r0
10002bca:	46b1      	mov	r9, r6
10002bcc:	4690      	mov	r8, r2
10002bce:	9e0c      	ldr	r6, [sp, #48]	; 0x30
10002bd0:	9313      	str	r3, [sp, #76]	; 0x4c
10002bd2:	e00d      	b.n	10002bf0 <_vsnprintf+0x8d4>
10002bd4:	3230      	adds	r2, #48	; 0x30
10002bd6:	b2d2      	uxtb	r2, r2
10002bd8:	4643      	mov	r3, r8
10002bda:	3501      	adds	r5, #1
10002bdc:	555a      	strb	r2, [r3, r5]
10002bde:	2300      	movs	r3, #0
10002be0:	42bb      	cmp	r3, r7
10002be2:	d100      	bne.n	10002be6 <_vsnprintf+0x8ca>
10002be4:	e0fd      	b.n	10002de2 <_vsnprintf+0xac6>
10002be6:	2d20      	cmp	r5, #32
10002be8:	d100      	bne.n	10002bec <_vsnprintf+0x8d0>
10002bea:	e0fd      	b.n	10002de8 <_vsnprintf+0xacc>
10002bec:	0004      	movs	r4, r0
10002bee:	000f      	movs	r7, r1
10002bf0:	0032      	movs	r2, r6
10002bf2:	2300      	movs	r3, #0
10002bf4:	0020      	movs	r0, r4
10002bf6:	0039      	movs	r1, r7
10002bf8:	f000 f9f8 	bl	10002fec <__wrap___aeabi_uldivmod>
10002bfc:	b2d2      	uxtb	r2, r2
10002bfe:	2a09      	cmp	r2, #9
10002c00:	d9e8      	bls.n	10002bd4 <_vsnprintf+0x8b8>
10002c02:	9b0d      	ldr	r3, [sp, #52]	; 0x34
10002c04:	469c      	mov	ip, r3
10002c06:	4462      	add	r2, ip
10002c08:	b2d2      	uxtb	r2, r2
10002c0a:	e7e5      	b.n	10002bd8 <_vsnprintf+0x8bc>
10002c0c:	9a0b      	ldr	r2, [sp, #44]	; 0x2c
10002c0e:	2361      	movs	r3, #97	; 0x61
10002c10:	0692      	lsls	r2, r2, #26
10002c12:	d500      	bpl.n	10002c16 <_vsnprintf+0x8fa>
10002c14:	2341      	movs	r3, #65	; 0x41
10002c16:	b2db      	uxtb	r3, r3
10002c18:	a90e      	add	r1, sp, #56	; 0x38
10002c1a:	3b0a      	subs	r3, #10
10002c1c:	221f      	movs	r2, #31
10002c1e:	468c      	mov	ip, r1
10002c20:	930d      	str	r3, [sp, #52]	; 0x34
10002c22:	0023      	movs	r3, r4
10002c24:	4462      	add	r2, ip
10002c26:	4654      	mov	r4, sl
10002c28:	9512      	str	r5, [sp, #72]	; 0x48
10002c2a:	0017      	movs	r7, r2
10002c2c:	464d      	mov	r5, r9
10002c2e:	469a      	mov	sl, r3
10002c30:	46b1      	mov	r9, r6
10002c32:	9e0c      	ldr	r6, [sp, #48]	; 0x30
10002c34:	e008      	b.n	10002c48 <_vsnprintf+0x92c>
10002c36:	3330      	adds	r3, #48	; 0x30
10002c38:	b2db      	uxtb	r3, r3
10002c3a:	3501      	adds	r5, #1
10002c3c:	557b      	strb	r3, [r7, r5]
10002c3e:	42b4      	cmp	r4, r6
10002c40:	d30e      	bcc.n	10002c60 <_vsnprintf+0x944>
10002c42:	2d20      	cmp	r5, #32
10002c44:	d00c      	beq.n	10002c60 <_vsnprintf+0x944>
10002c46:	0004      	movs	r4, r0
10002c48:	0031      	movs	r1, r6
10002c4a:	0020      	movs	r0, r4
10002c4c:	f000 f988 	bl	10002f60 <__wrap___aeabi_uidiv>
10002c50:	b2cb      	uxtb	r3, r1
10002c52:	2909      	cmp	r1, #9
10002c54:	d9ef      	bls.n	10002c36 <_vsnprintf+0x91a>
10002c56:	9a0d      	ldr	r2, [sp, #52]	; 0x34
10002c58:	4694      	mov	ip, r2
10002c5a:	4463      	add	r3, ip
10002c5c:	b2db      	uxtb	r3, r3
10002c5e:	e7ec      	b.n	10002c3a <_vsnprintf+0x91e>
10002c60:	464e      	mov	r6, r9
10002c62:	4654      	mov	r4, sl
10002c64:	46a9      	mov	r9, r5
10002c66:	9d12      	ldr	r5, [sp, #72]	; 0x48
10002c68:	e475      	b.n	10002556 <_vsnprintf+0x23a>
10002c6a:	9b09      	ldr	r3, [sp, #36]	; 0x24
10002c6c:	001a      	movs	r2, r3
10002c6e:	ca08      	ldmia	r2!, {r3}
10002c70:	17d9      	asrs	r1, r3, #31
10002c72:	9213      	str	r2, [sp, #76]	; 0x4c
10002c74:	185a      	adds	r2, r3, r1
10002c76:	404a      	eors	r2, r1
10002c78:	4691      	mov	r9, r2
10002c7a:	0fda      	lsrs	r2, r3, #31
10002c7c:	9212      	str	r2, [sp, #72]	; 0x48
10002c7e:	2b00      	cmp	r3, #0
10002c80:	d108      	bne.n	10002c94 <_vsnprintf+0x978>
10002c82:	2380      	movs	r3, #128	; 0x80
10002c84:	2210      	movs	r2, #16
10002c86:	990b      	ldr	r1, [sp, #44]	; 0x2c
10002c88:	00db      	lsls	r3, r3, #3
10002c8a:	400b      	ands	r3, r1
10002c8c:	4391      	bics	r1, r2
10002c8e:	910b      	str	r1, [sp, #44]	; 0x2c
10002c90:	2b00      	cmp	r3, #0
10002c92:	d12b      	bne.n	10002cec <_vsnprintf+0x9d0>
10002c94:	9a0b      	ldr	r2, [sp, #44]	; 0x2c
10002c96:	2361      	movs	r3, #97	; 0x61
10002c98:	0692      	lsls	r2, r2, #26
10002c9a:	d500      	bpl.n	10002c9e <_vsnprintf+0x982>
10002c9c:	2341      	movs	r3, #65	; 0x41
10002c9e:	aa0e      	add	r2, sp, #56	; 0x38
10002ca0:	271f      	movs	r7, #31
10002ca2:	4694      	mov	ip, r2
10002ca4:	b2db      	uxtb	r3, r3
10002ca6:	3b0a      	subs	r3, #10
10002ca8:	950d      	str	r5, [sp, #52]	; 0x34
10002caa:	4467      	add	r7, ip
10002cac:	4655      	mov	r5, sl
10002cae:	9309      	str	r3, [sp, #36]	; 0x24
10002cb0:	46a2      	mov	sl, r4
10002cb2:	464c      	mov	r4, r9
10002cb4:	46b1      	mov	r9, r6
10002cb6:	9e0c      	ldr	r6, [sp, #48]	; 0x30
10002cb8:	e008      	b.n	10002ccc <_vsnprintf+0x9b0>
10002cba:	3330      	adds	r3, #48	; 0x30
10002cbc:	b2db      	uxtb	r3, r3
10002cbe:	3501      	adds	r5, #1
10002cc0:	557b      	strb	r3, [r7, r5]
10002cc2:	42b4      	cmp	r4, r6
10002cc4:	d30e      	bcc.n	10002ce4 <_vsnprintf+0x9c8>
10002cc6:	2d20      	cmp	r5, #32
10002cc8:	d00c      	beq.n	10002ce4 <_vsnprintf+0x9c8>
10002cca:	0004      	movs	r4, r0
10002ccc:	0031      	movs	r1, r6
10002cce:	0020      	movs	r0, r4
10002cd0:	f000 f946 	bl	10002f60 <__wrap___aeabi_uidiv>
10002cd4:	b2cb      	uxtb	r3, r1
10002cd6:	2909      	cmp	r1, #9
10002cd8:	d9ef      	bls.n	10002cba <_vsnprintf+0x99e>
10002cda:	9a09      	ldr	r2, [sp, #36]	; 0x24
10002cdc:	4694      	mov	ip, r2
10002cde:	4463      	add	r3, ip
10002ce0:	b2db      	uxtb	r3, r3
10002ce2:	e7ec      	b.n	10002cbe <_vsnprintf+0x9a2>
10002ce4:	464e      	mov	r6, r9
10002ce6:	4654      	mov	r4, sl
10002ce8:	46aa      	mov	sl, r5
10002cea:	9d0d      	ldr	r5, [sp, #52]	; 0x34
10002cec:	9b0b      	ldr	r3, [sp, #44]	; 0x2c
10002cee:	002a      	movs	r2, r5
10002cf0:	9306      	str	r3, [sp, #24]
10002cf2:	9b0a      	ldr	r3, [sp, #40]	; 0x28
10002cf4:	0021      	movs	r1, r4
10002cf6:	9305      	str	r3, [sp, #20]
10002cf8:	4643      	mov	r3, r8
10002cfa:	9304      	str	r3, [sp, #16]
10002cfc:	9b0c      	ldr	r3, [sp, #48]	; 0x30
10002cfe:	9808      	ldr	r0, [sp, #32]
10002d00:	9303      	str	r3, [sp, #12]
10002d02:	9b12      	ldr	r3, [sp, #72]	; 0x48
10002d04:	3601      	adds	r6, #1
10002d06:	9302      	str	r3, [sp, #8]
10002d08:	4653      	mov	r3, sl
10002d0a:	9301      	str	r3, [sp, #4]
10002d0c:	ab16      	add	r3, sp, #88	; 0x58
10002d0e:	9300      	str	r3, [sp, #0]
10002d10:	465b      	mov	r3, fp
10002d12:	f7fe fdf5 	bl	10001900 <_ntoa_format>
10002d16:	9b13      	ldr	r3, [sp, #76]	; 0x4c
10002d18:	0005      	movs	r5, r0
10002d1a:	9309      	str	r3, [sp, #36]	; 0x24
10002d1c:	f7ff fb23 	bl	10002366 <_vsnprintf+0x4a>
10002d20:	9b09      	ldr	r3, [sp, #36]	; 0x24
10002d22:	cb04      	ldmia	r3!, {r2}
10002d24:	4691      	mov	r9, r2
10002d26:	9312      	str	r3, [sp, #72]	; 0x48
10002d28:	2a00      	cmp	r2, #0
10002d2a:	d108      	bne.n	10002d3e <_vsnprintf+0xa22>
10002d2c:	2380      	movs	r3, #128	; 0x80
10002d2e:	2210      	movs	r2, #16
10002d30:	990b      	ldr	r1, [sp, #44]	; 0x2c
10002d32:	00db      	lsls	r3, r3, #3
10002d34:	400b      	ands	r3, r1
10002d36:	4391      	bics	r1, r2
10002d38:	910b      	str	r1, [sp, #44]	; 0x2c
10002d3a:	2b00      	cmp	r3, #0
10002d3c:	d12b      	bne.n	10002d96 <_vsnprintf+0xa7a>
10002d3e:	9a0b      	ldr	r2, [sp, #44]	; 0x2c
10002d40:	2361      	movs	r3, #97	; 0x61
10002d42:	0692      	lsls	r2, r2, #26
10002d44:	d500      	bpl.n	10002d48 <_vsnprintf+0xa2c>
10002d46:	2341      	movs	r3, #65	; 0x41
10002d48:	aa0e      	add	r2, sp, #56	; 0x38
10002d4a:	271f      	movs	r7, #31
10002d4c:	4694      	mov	ip, r2
10002d4e:	b2db      	uxtb	r3, r3
10002d50:	3b0a      	subs	r3, #10
10002d52:	950d      	str	r5, [sp, #52]	; 0x34
10002d54:	4467      	add	r7, ip
10002d56:	4655      	mov	r5, sl
10002d58:	9309      	str	r3, [sp, #36]	; 0x24
10002d5a:	46a2      	mov	sl, r4
10002d5c:	464c      	mov	r4, r9
10002d5e:	46b1      	mov	r9, r6
10002d60:	9e0c      	ldr	r6, [sp, #48]	; 0x30
10002d62:	e008      	b.n	10002d76 <_vsnprintf+0xa5a>
10002d64:	3330      	adds	r3, #48	; 0x30
10002d66:	b2db      	uxtb	r3, r3
10002d68:	3501      	adds	r5, #1
10002d6a:	557b      	strb	r3, [r7, r5]
10002d6c:	42b4      	cmp	r4, r6
10002d6e:	d30e      	bcc.n	10002d8e <_vsnprintf+0xa72>
10002d70:	2d20      	cmp	r5, #32
10002d72:	d00c      	beq.n	10002d8e <_vsnprintf+0xa72>
10002d74:	0004      	movs	r4, r0
10002d76:	0031      	movs	r1, r6
10002d78:	0020      	movs	r0, r4
10002d7a:	f000 f8f1 	bl	10002f60 <__wrap___aeabi_uidiv>
10002d7e:	b2cb      	uxtb	r3, r1
10002d80:	2909      	cmp	r1, #9
10002d82:	d9ef      	bls.n	10002d64 <_vsnprintf+0xa48>
10002d84:	9a09      	ldr	r2, [sp, #36]	; 0x24
10002d86:	4694      	mov	ip, r2
10002d88:	4463      	add	r3, ip
10002d8a:	b2db      	uxtb	r3, r3
10002d8c:	e7ec      	b.n	10002d68 <_vsnprintf+0xa4c>
10002d8e:	464e      	mov	r6, r9
10002d90:	4654      	mov	r4, sl
10002d92:	46aa      	mov	sl, r5
10002d94:	9d0d      	ldr	r5, [sp, #52]	; 0x34
10002d96:	9b0b      	ldr	r3, [sp, #44]	; 0x2c
10002d98:	002a      	movs	r2, r5
10002d9a:	9306      	str	r3, [sp, #24]
10002d9c:	9b0a      	ldr	r3, [sp, #40]	; 0x28
10002d9e:	0021      	movs	r1, r4
10002da0:	9305      	str	r3, [sp, #20]
10002da2:	4643      	mov	r3, r8
10002da4:	9304      	str	r3, [sp, #16]
10002da6:	9b0c      	ldr	r3, [sp, #48]	; 0x30
10002da8:	9808      	ldr	r0, [sp, #32]
10002daa:	9303      	str	r3, [sp, #12]
10002dac:	2300      	movs	r3, #0
10002dae:	9302      	str	r3, [sp, #8]
10002db0:	4653      	mov	r3, sl
10002db2:	9301      	str	r3, [sp, #4]
10002db4:	ab16      	add	r3, sp, #88	; 0x58
10002db6:	9300      	str	r3, [sp, #0]
10002db8:	465b      	mov	r3, fp
10002dba:	f7fe fda1 	bl	10001900 <_ntoa_format>
10002dbe:	9b12      	ldr	r3, [sp, #72]	; 0x48
10002dc0:	0005      	movs	r5, r0
10002dc2:	9309      	str	r3, [sp, #36]	; 0x24
10002dc4:	3601      	adds	r6, #1
10002dc6:	f7ff face 	bl	10002366 <_vsnprintf+0x4a>
10002dca:	42b4      	cmp	r4, r6
10002dcc:	d800      	bhi.n	10002dd0 <_vsnprintf+0xab4>
10002dce:	e67f      	b.n	10002ad0 <_vsnprintf+0x7b4>
10002dd0:	9b14      	ldr	r3, [sp, #80]	; 0x50
10002dd2:	464c      	mov	r4, r9
10002dd4:	960e      	str	r6, [sp, #56]	; 0x38
10002dd6:	970f      	str	r7, [sp, #60]	; 0x3c
10002dd8:	46a9      	mov	r9, r5
10002dda:	4698      	mov	r8, r3
10002ddc:	9e15      	ldr	r6, [sp, #84]	; 0x54
10002dde:	9d13      	ldr	r5, [sp, #76]	; 0x4c
10002de0:	e699      	b.n	10002b16 <_vsnprintf+0x7fa>
10002de2:	42a6      	cmp	r6, r4
10002de4:	d800      	bhi.n	10002de8 <_vsnprintf+0xacc>
10002de6:	e6fe      	b.n	10002be6 <_vsnprintf+0x8ca>
10002de8:	9b13      	ldr	r3, [sp, #76]	; 0x4c
10002dea:	464e      	mov	r6, r9
10002dec:	4698      	mov	r8, r3
10002dee:	46a9      	mov	r9, r5
10002df0:	4654      	mov	r4, sl
10002df2:	9d12      	ldr	r5, [sp, #72]	; 0x48
10002df4:	f7ff fbaf 	bl	10002556 <_vsnprintf+0x23a>
10002df8:	c908      	ldmia	r1!, {r3}
10002dfa:	17d8      	asrs	r0, r3, #31
10002dfc:	181a      	adds	r2, r3, r0
10002dfe:	4042      	eors	r2, r0
10002e00:	9109      	str	r1, [sp, #36]	; 0x24
10002e02:	e566      	b.n	100028d2 <_vsnprintf+0x5b6>
10002e04:	2300      	movs	r3, #0
10002e06:	930b      	str	r3, [sp, #44]	; 0x2c
10002e08:	e45e      	b.n	100026c8 <_vsnprintf+0x3ac>
10002e0a:	9b09      	ldr	r3, [sp, #36]	; 0x24
10002e0c:	cb04      	ldmia	r3!, {r2}
10002e0e:	4692      	mov	sl, r2
10002e10:	9309      	str	r3, [sp, #36]	; 0x24
10002e12:	f7ff fb92 	bl	1000253a <_vsnprintf+0x21e>
10002e16:	002f      	movs	r7, r5
10002e18:	e5e0      	b.n	100029dc <_vsnprintf+0x6c0>
10002e1a:	930b      	str	r3, [sp, #44]	; 0x2c
10002e1c:	e60b      	b.n	10002a36 <_vsnprintf+0x71a>
10002e1e:	3b06      	subs	r3, #6
10002e20:	930c      	str	r3, [sp, #48]	; 0x30
10002e22:	e52e      	b.n	10002882 <_vsnprintf+0x566>

10002e24 <__wrap_snprintf>:
10002e24:	b40c      	push	{r2, r3}
10002e26:	b510      	push	{r4, lr}
10002e28:	b084      	sub	sp, #16
10002e2a:	ac06      	add	r4, sp, #24
10002e2c:	cc08      	ldmia	r4!, {r3}
10002e2e:	000a      	movs	r2, r1
10002e30:	9400      	str	r4, [sp, #0]
10002e32:	0001      	movs	r1, r0
10002e34:	4804      	ldr	r0, [pc, #16]	; (10002e48 <__wrap_snprintf+0x24>)
10002e36:	9403      	str	r4, [sp, #12]
10002e38:	f7ff fa70 	bl	1000231c <_vsnprintf>
10002e3c:	b004      	add	sp, #16
10002e3e:	bc10      	pop	{r4}
10002e40:	bc08      	pop	{r3}
10002e42:	b002      	add	sp, #8
10002e44:	4718      	bx	r3
10002e46:	46c0      	nop			; (mov r8, r8)
10002e48:	10001825 	.word	0x10001825

10002e4c <vfctprintf>:
10002e4c:	b500      	push	{lr}
10002e4e:	b085      	sub	sp, #20
10002e50:	9103      	str	r1, [sp, #12]
10002e52:	2101      	movs	r1, #1
10002e54:	9002      	str	r0, [sp, #8]
10002e56:	9300      	str	r3, [sp, #0]
10002e58:	4803      	ldr	r0, [pc, #12]	; (10002e68 <vfctprintf+0x1c>)
10002e5a:	0013      	movs	r3, r2
10002e5c:	424a      	negs	r2, r1
10002e5e:	a902      	add	r1, sp, #8
10002e60:	f7ff fa5c 	bl	1000231c <_vsnprintf>
10002e64:	b005      	add	sp, #20
10002e66:	bd00      	pop	{pc}
10002e68:	10001ae1 	.word	0x10001ae1

10002e6c <weak_raw_vprintf>:
10002e6c:	b510      	push	{r4, lr}
10002e6e:	4a09      	ldr	r2, [pc, #36]	; (10002e94 <weak_raw_vprintf+0x28>)
10002e70:	0003      	movs	r3, r0
10002e72:	6814      	ldr	r4, [r2, #0]
10002e74:	b084      	sub	sp, #16
10002e76:	2c00      	cmp	r4, #0
10002e78:	d008      	beq.n	10002e8c <weak_raw_vprintf+0x20>
10002e7a:	2201      	movs	r2, #1
10002e7c:	9100      	str	r1, [sp, #0]
10002e7e:	4806      	ldr	r0, [pc, #24]	; (10002e98 <weak_raw_vprintf+0x2c>)
10002e80:	4252      	negs	r2, r2
10002e82:	a903      	add	r1, sp, #12
10002e84:	47a0      	blx	r4
10002e86:	2001      	movs	r0, #1
10002e88:	b004      	add	sp, #16
10002e8a:	bd10      	pop	{r4, pc}
10002e8c:	f001 f832 	bl	10003ef4 <__wrap_puts>
10002e90:	2000      	movs	r0, #0
10002e92:	e7f9      	b.n	10002e88 <weak_raw_vprintf+0x1c>
10002e94:	20000b08 	.word	0x20000b08
10002e98:	10001ad1 	.word	0x10001ad1

10002e9c <__aeabi_bits_init>:
10002e9c:	4801      	ldr	r0, [pc, #4]	; (10002ea4 <__aeabi_bits_init+0x8>)
10002e9e:	2104      	movs	r1, #4
10002ea0:	4b01      	ldr	r3, [pc, #4]	; (10002ea8 <__aeabi_bits_init+0xc>)
10002ea2:	4718      	bx	r3
10002ea4:	200001e0 	.word	0x200001e0
10002ea8:	10002ecd 	.word	0x10002ecd

10002eac <rom_func_lookup>:
10002eac:	2314      	movs	r3, #20
10002eae:	b510      	push	{r4, lr}
10002eb0:	0001      	movs	r1, r0
10002eb2:	8818      	ldrh	r0, [r3, #0]
10002eb4:	3304      	adds	r3, #4
10002eb6:	881b      	ldrh	r3, [r3, #0]
10002eb8:	4798      	blx	r3
10002eba:	bd10      	pop	{r4, pc}

10002ebc <rom_data_lookup>:
10002ebc:	2316      	movs	r3, #22
10002ebe:	b510      	push	{r4, lr}
10002ec0:	0001      	movs	r1, r0
10002ec2:	8818      	ldrh	r0, [r3, #0]
10002ec4:	3302      	adds	r3, #2
10002ec6:	881b      	ldrh	r3, [r3, #0]
10002ec8:	4798      	blx	r3
10002eca:	bd10      	pop	{r4, pc}

10002ecc <rom_funcs_lookup>:
10002ecc:	b5f0      	push	{r4, r5, r6, r7, lr}
10002ece:	46c6      	mov	lr, r8
10002ed0:	b500      	push	{lr}
10002ed2:	2900      	cmp	r1, #0
10002ed4:	d016      	beq.n	10002f04 <rom_funcs_lookup+0x38>
10002ed6:	2314      	movs	r3, #20
10002ed8:	0004      	movs	r4, r0
10002eda:	2501      	movs	r5, #1
10002edc:	4698      	mov	r8, r3
10002ede:	2718      	movs	r7, #24
10002ee0:	0089      	lsls	r1, r1, #2
10002ee2:	1846      	adds	r6, r0, r1
10002ee4:	4643      	mov	r3, r8
10002ee6:	6821      	ldr	r1, [r4, #0]
10002ee8:	8818      	ldrh	r0, [r3, #0]
10002eea:	883b      	ldrh	r3, [r7, #0]
10002eec:	4798      	blx	r3
10002eee:	c401      	stmia	r4!, {r0}
10002ef0:	1e43      	subs	r3, r0, #1
10002ef2:	4198      	sbcs	r0, r3
10002ef4:	4240      	negs	r0, r0
10002ef6:	4005      	ands	r5, r0
10002ef8:	42a6      	cmp	r6, r4
10002efa:	d1f3      	bne.n	10002ee4 <rom_funcs_lookup+0x18>
10002efc:	0028      	movs	r0, r5
10002efe:	bc04      	pop	{r2}
10002f00:	4690      	mov	r8, r2
10002f02:	bdf0      	pop	{r4, r5, r6, r7, pc}
10002f04:	2501      	movs	r5, #1
10002f06:	e7f9      	b.n	10002efc <rom_funcs_lookup+0x30>

10002f08 <__wrap___aeabi_idiv>:
10002f08:	4a14      	ldr	r2, [pc, #80]	; (10002f5c <divmod_s32s32_savestate+0x20>)
10002f0a:	6f93      	ldr	r3, [r2, #120]	; 0x78
10002f0c:	089b      	lsrs	r3, r3, #2
10002f0e:	d215      	bcs.n	10002f3c <divmod_s32s32_savestate>

10002f10 <divmod_s32s32_unsafe>:
10002f10:	6690      	str	r0, [r2, #104]	; 0x68
10002f12:	66d1      	str	r1, [r2, #108]	; 0x6c
10002f14:	2900      	cmp	r1, #0
10002f16:	d005      	beq.n	10002f24 <divmod_s32s32_unsafe+0x14>
10002f18:	e7ff      	b.n	10002f1a <divmod_s32s32_unsafe+0xa>
10002f1a:	e7ff      	b.n	10002f1c <divmod_s32s32_unsafe+0xc>
10002f1c:	e7ff      	b.n	10002f1e <divmod_s32s32_unsafe+0xe>
10002f1e:	6f51      	ldr	r1, [r2, #116]	; 0x74
10002f20:	6f10      	ldr	r0, [r2, #112]	; 0x70
10002f22:	4770      	bx	lr
10002f24:	b504      	push	{r2, lr}
10002f26:	2180      	movs	r1, #128	; 0x80
10002f28:	0609      	lsls	r1, r1, #24
10002f2a:	17c2      	asrs	r2, r0, #31
10002f2c:	4051      	eors	r1, r2
10002f2e:	2800      	cmp	r0, #0
10002f30:	d000      	beq.n	10002f34 <divmod_s32s32_unsafe+0x24>
10002f32:	43c8      	mvns	r0, r1
10002f34:	f001 ff14 	bl	10004d60 <____aeabi_idiv0_veneer>
10002f38:	2100      	movs	r1, #0
10002f3a:	bd04      	pop	{r2, pc}

10002f3c <divmod_s32s32_savestate>:
10002f3c:	6f93      	ldr	r3, [r2, #120]	; 0x78
10002f3e:	085b      	lsrs	r3, r3, #1
10002f40:	d3fd      	bcc.n	10002f3e <divmod_s32s32_savestate+0x2>
10002f42:	b5f0      	push	{r4, r5, r6, r7, lr}
10002f44:	6e94      	ldr	r4, [r2, #104]	; 0x68
10002f46:	6ed5      	ldr	r5, [r2, #108]	; 0x6c
10002f48:	6f57      	ldr	r7, [r2, #116]	; 0x74
10002f4a:	6f16      	ldr	r6, [r2, #112]	; 0x70
10002f4c:	f7ff ffe0 	bl	10002f10 <divmod_s32s32_unsafe>
10002f50:	6694      	str	r4, [r2, #104]	; 0x68
10002f52:	66d5      	str	r5, [r2, #108]	; 0x6c
10002f54:	6757      	str	r7, [r2, #116]	; 0x74
10002f56:	6716      	str	r6, [r2, #112]	; 0x70
10002f58:	bdf0      	pop	{r4, r5, r6, r7, pc}
10002f5a:	0000      	.short	0x0000
10002f5c:	d0000000 	.word	0xd0000000

10002f60 <__wrap___aeabi_uidiv>:
10002f60:	4a13      	ldr	r2, [pc, #76]	; (10002fb0 <divmod_u32u32_savestate+0x20>)
10002f62:	6f93      	ldr	r3, [r2, #120]	; 0x78
10002f64:	089b      	lsrs	r3, r3, #2
10002f66:	d213      	bcs.n	10002f90 <divmod_u32u32_savestate>

10002f68 <divmod_u32u32_unsafe>:
10002f68:	6610      	str	r0, [r2, #96]	; 0x60
10002f6a:	6651      	str	r1, [r2, #100]	; 0x64
10002f6c:	2900      	cmp	r1, #0
10002f6e:	d005      	beq.n	10002f7c <divmod_u32u32_unsafe+0x14>
10002f70:	e7ff      	b.n	10002f72 <divmod_u32u32_unsafe+0xa>
10002f72:	e7ff      	b.n	10002f74 <divmod_u32u32_unsafe+0xc>
10002f74:	e7ff      	b.n	10002f76 <divmod_u32u32_unsafe+0xe>
10002f76:	6f51      	ldr	r1, [r2, #116]	; 0x74
10002f78:	6f10      	ldr	r0, [r2, #112]	; 0x70
10002f7a:	4770      	bx	lr
10002f7c:	b504      	push	{r2, lr}
10002f7e:	2800      	cmp	r0, #0
10002f80:	d001      	beq.n	10002f86 <divmod_u32u32_unsafe+0x1e>
10002f82:	2000      	movs	r0, #0
10002f84:	43c0      	mvns	r0, r0
10002f86:	f001 feeb 	bl	10004d60 <____aeabi_idiv0_veneer>
10002f8a:	2100      	movs	r1, #0
10002f8c:	bd04      	pop	{r2, pc}
10002f8e:	46c0      	nop			; (mov r8, r8)

10002f90 <divmod_u32u32_savestate>:
10002f90:	6f93      	ldr	r3, [r2, #120]	; 0x78
10002f92:	085b      	lsrs	r3, r3, #1
10002f94:	d3fd      	bcc.n	10002f92 <divmod_u32u32_savestate+0x2>
10002f96:	b5f0      	push	{r4, r5, r6, r7, lr}
10002f98:	6e94      	ldr	r4, [r2, #104]	; 0x68
10002f9a:	6ed5      	ldr	r5, [r2, #108]	; 0x6c
10002f9c:	6f57      	ldr	r7, [r2, #116]	; 0x74
10002f9e:	6f16      	ldr	r6, [r2, #112]	; 0x70
10002fa0:	f7ff ffe2 	bl	10002f68 <divmod_u32u32_unsafe>
10002fa4:	6694      	str	r4, [r2, #104]	; 0x68
10002fa6:	66d5      	str	r5, [r2, #108]	; 0x6c
10002fa8:	6757      	str	r7, [r2, #116]	; 0x74
10002faa:	6716      	str	r6, [r2, #112]	; 0x70
10002fac:	bdf0      	pop	{r4, r5, r6, r7, pc}
10002fae:	0000      	.short	0x0000
10002fb0:	d0000000 	.word	0xd0000000

10002fb4 <__wrap___aeabi_ldivmod>:
10002fb4:	4694      	mov	ip, r2
10002fb6:	4a4e      	ldr	r2, [pc, #312]	; (100030f0 <udiv0+0x1a>)
10002fb8:	6f92      	ldr	r2, [r2, #120]	; 0x78
10002fba:	0892      	lsrs	r2, r2, #2
10002fbc:	4662      	mov	r2, ip
10002fbe:	d201      	bcs.n	10002fc4 <divmod_s64s64_savestate>
10002fc0:	e030      	b.n	10003024 <divmod_s64s64_unsafe>
10002fc2:	46c0      	nop			; (mov r8, r8)

10002fc4 <divmod_s64s64_savestate>:
10002fc4:	b5f0      	push	{r4, r5, r6, r7, lr}
10002fc6:	4e4a      	ldr	r6, [pc, #296]	; (100030f0 <udiv0+0x1a>)
10002fc8:	6fb5      	ldr	r5, [r6, #120]	; 0x78
10002fca:	086d      	lsrs	r5, r5, #1
10002fcc:	d3fc      	bcc.n	10002fc8 <divmod_s64s64_savestate+0x4>
10002fce:	6e34      	ldr	r4, [r6, #96]	; 0x60
10002fd0:	6e75      	ldr	r5, [r6, #100]	; 0x64
10002fd2:	6f77      	ldr	r7, [r6, #116]	; 0x74
10002fd4:	6f36      	ldr	r6, [r6, #112]	; 0x70
10002fd6:	f000 f825 	bl	10003024 <divmod_s64s64_unsafe>
10002fda:	4694      	mov	ip, r2
10002fdc:	4a44      	ldr	r2, [pc, #272]	; (100030f0 <udiv0+0x1a>)
10002fde:	6614      	str	r4, [r2, #96]	; 0x60
10002fe0:	6655      	str	r5, [r2, #100]	; 0x64
10002fe2:	6757      	str	r7, [r2, #116]	; 0x74
10002fe4:	6716      	str	r6, [r2, #112]	; 0x70
10002fe6:	4662      	mov	r2, ip
10002fe8:	bdf0      	pop	{r4, r5, r6, r7, pc}
10002fea:	46c0      	nop			; (mov r8, r8)

10002fec <__wrap___aeabi_uldivmod>:
10002fec:	4694      	mov	ip, r2
10002fee:	4a40      	ldr	r2, [pc, #256]	; (100030f0 <udiv0+0x1a>)
10002ff0:	6f92      	ldr	r2, [r2, #120]	; 0x78
10002ff2:	0892      	lsrs	r2, r2, #2
10002ff4:	4662      	mov	r2, ip
10002ff6:	d201      	bcs.n	10002ffc <divmod_u64u64_savestate>
10002ff8:	e058      	b.n	100030ac <divmod_u64u64_unsafe>
10002ffa:	46c0      	nop			; (mov r8, r8)

10002ffc <divmod_u64u64_savestate>:
10002ffc:	b5f0      	push	{r4, r5, r6, r7, lr}
10002ffe:	4e3c      	ldr	r6, [pc, #240]	; (100030f0 <udiv0+0x1a>)
10003000:	6fb5      	ldr	r5, [r6, #120]	; 0x78
10003002:	086d      	lsrs	r5, r5, #1
10003004:	d3fc      	bcc.n	10003000 <divmod_u64u64_savestate+0x4>
10003006:	6e34      	ldr	r4, [r6, #96]	; 0x60
10003008:	6e75      	ldr	r5, [r6, #100]	; 0x64
1000300a:	6f77      	ldr	r7, [r6, #116]	; 0x74
1000300c:	6f36      	ldr	r6, [r6, #112]	; 0x70
1000300e:	f000 f84d 	bl	100030ac <divmod_u64u64_unsafe>
10003012:	4694      	mov	ip, r2
10003014:	4a36      	ldr	r2, [pc, #216]	; (100030f0 <udiv0+0x1a>)
10003016:	6614      	str	r4, [r2, #96]	; 0x60
10003018:	6655      	str	r5, [r2, #100]	; 0x64
1000301a:	6757      	str	r7, [r2, #116]	; 0x74
1000301c:	6716      	str	r6, [r2, #112]	; 0x70
1000301e:	4662      	mov	r2, ip
10003020:	bdf0      	pop	{r4, r5, r6, r7, pc}
10003022:	46c0      	nop			; (mov r8, r8)

10003024 <divmod_s64s64_unsafe>:
10003024:	2b00      	cmp	r3, #0
10003026:	db24      	blt.n	10003072 <l41_1+0x26>
10003028:	d011      	beq.n	1000304e <l41_1+0x2>
1000302a:	2900      	cmp	r1, #0
1000302c:	da3e      	bge.n	100030ac <divmod_u64u64_unsafe>
1000302e:	b500      	push	{lr}
10003030:	43c9      	mvns	r1, r1
10003032:	4240      	negs	r0, r0
10003034:	d100      	bne.n	10003038 <l39_1>
10003036:	3101      	adds	r1, #1

10003038 <l39_1>:
10003038:	f000 f838 	bl	100030ac <divmod_u64u64_unsafe>
1000303c:	43c9      	mvns	r1, r1
1000303e:	4240      	negs	r0, r0
10003040:	d100      	bne.n	10003044 <l40_1>
10003042:	3101      	adds	r1, #1

10003044 <l40_1>:
10003044:	43db      	mvns	r3, r3
10003046:	4252      	negs	r2, r2
10003048:	d100      	bne.n	1000304c <l41_1>
1000304a:	3301      	adds	r3, #1

1000304c <l41_1>:
1000304c:	bd00      	pop	{pc}
1000304e:	2a00      	cmp	r2, #0
10003050:	d1eb      	bne.n	1000302a <divmod_s64s64_unsafe+0x6>
10003052:	2800      	cmp	r0, #0
10003054:	d101      	bne.n	1000305a <l41_1+0xe>
10003056:	2900      	cmp	r1, #0
10003058:	d005      	beq.n	10003066 <l41_1+0x1a>
1000305a:	2000      	movs	r0, #0
1000305c:	0fc9      	lsrs	r1, r1, #31
1000305e:	07c9      	lsls	r1, r1, #31
10003060:	d101      	bne.n	10003066 <l41_1+0x1a>
10003062:	43c0      	mvns	r0, r0
10003064:	0841      	lsrs	r1, r0, #1
10003066:	b500      	push	{lr}
10003068:	f001 fe72 	bl	10004d50 <____aeabi_ldiv0_veneer>
1000306c:	2200      	movs	r2, #0
1000306e:	2300      	movs	r3, #0
10003070:	bd00      	pop	{pc}
10003072:	b500      	push	{lr}
10003074:	2900      	cmp	r1, #0
10003076:	db0a      	blt.n	1000308e <l43_1+0x2>
10003078:	43db      	mvns	r3, r3
1000307a:	4252      	negs	r2, r2
1000307c:	d100      	bne.n	10003080 <l42_1>
1000307e:	3301      	adds	r3, #1

10003080 <l42_1>:
10003080:	f000 f814 	bl	100030ac <divmod_u64u64_unsafe>
10003084:	43c9      	mvns	r1, r1
10003086:	4240      	negs	r0, r0
10003088:	d100      	bne.n	1000308c <l43_1>
1000308a:	3101      	adds	r1, #1

1000308c <l43_1>:
1000308c:	bd00      	pop	{pc}
1000308e:	43c9      	mvns	r1, r1
10003090:	4240      	negs	r0, r0
10003092:	d100      	bne.n	10003096 <l44_1>
10003094:	3101      	adds	r1, #1

10003096 <l44_1>:
10003096:	43db      	mvns	r3, r3
10003098:	4252      	negs	r2, r2
1000309a:	d100      	bne.n	1000309e <l45_1>
1000309c:	3301      	adds	r3, #1

1000309e <l45_1>:
1000309e:	f000 f805 	bl	100030ac <divmod_u64u64_unsafe>
100030a2:	43db      	mvns	r3, r3
100030a4:	4252      	negs	r2, r2
100030a6:	d100      	bne.n	100030aa <l46_1>
100030a8:	3301      	adds	r3, #1

100030aa <l46_1>:
100030aa:	bd00      	pop	{pc}

100030ac <divmod_u64u64_unsafe>:
100030ac:	2900      	cmp	r1, #0
100030ae:	d123      	bne.n	100030f8 <y64>
100030b0:	2b00      	cmp	r3, #0
100030b2:	d118      	bne.n	100030e6 <udiv0+0x10>
100030b4:	2a00      	cmp	r2, #0
100030b6:	d00c      	beq.n	100030d2 <divmod_u64u64_unsafe+0x26>
100030b8:	46bc      	mov	ip, r7
100030ba:	4f0d      	ldr	r7, [pc, #52]	; (100030f0 <udiv0+0x1a>)
100030bc:	6638      	str	r0, [r7, #96]	; 0x60
100030be:	667a      	str	r2, [r7, #100]	; 0x64
100030c0:	2100      	movs	r1, #0
100030c2:	2300      	movs	r3, #0
100030c4:	e7ff      	b.n	100030c6 <divmod_u64u64_unsafe+0x1a>
100030c6:	e7ff      	b.n	100030c8 <divmod_u64u64_unsafe+0x1c>
100030c8:	e7ff      	b.n	100030ca <divmod_u64u64_unsafe+0x1e>
100030ca:	6f7a      	ldr	r2, [r7, #116]	; 0x74
100030cc:	6f38      	ldr	r0, [r7, #112]	; 0x70
100030ce:	4667      	mov	r7, ip
100030d0:	4770      	bx	lr
100030d2:	2800      	cmp	r0, #0
100030d4:	d001      	beq.n	100030da <udiv0+0x4>

100030d6 <udiv0>:
100030d6:	4807      	ldr	r0, [pc, #28]	; (100030f4 <udiv0+0x1e>)
100030d8:	0001      	movs	r1, r0
100030da:	b500      	push	{lr}
100030dc:	f001 fe38 	bl	10004d50 <____aeabi_ldiv0_veneer>
100030e0:	2200      	movs	r2, #0
100030e2:	2300      	movs	r3, #0
100030e4:	bd00      	pop	{pc}
100030e6:	0002      	movs	r2, r0
100030e8:	000b      	movs	r3, r1
100030ea:	2000      	movs	r0, #0
100030ec:	2100      	movs	r1, #0
100030ee:	4770      	bx	lr
100030f0:	d0000000 	.word	0xd0000000
100030f4:	ffffffff 	.word	0xffffffff

100030f8 <y64>:
100030f8:	2b00      	cmp	r3, #0
100030fa:	d000      	beq.n	100030fe <y64+0x6>
100030fc:	e0bd      	b.n	1000327a <y64_x48>
100030fe:	0c13      	lsrs	r3, r2, #16
10003100:	d126      	bne.n	10003150 <y64_x32>
10003102:	2a00      	cmp	r2, #0
10003104:	d0e7      	beq.n	100030d6 <udiv0>
10003106:	b480      	push	{r7}
10003108:	4f10      	ldr	r7, [pc, #64]	; (1000314c <y64+0x54>)
1000310a:	6639      	str	r1, [r7, #96]	; 0x60
1000310c:	667a      	str	r2, [r7, #100]	; 0x64
1000310e:	e7ff      	b.n	10003110 <y64+0x18>
10003110:	e7ff      	b.n	10003112 <y64+0x1a>
10003112:	b430      	push	{r4, r5}
10003114:	0c04      	lsrs	r4, r0, #16
10003116:	6f7b      	ldr	r3, [r7, #116]	; 0x74
10003118:	6f39      	ldr	r1, [r7, #112]	; 0x70
1000311a:	041b      	lsls	r3, r3, #16
1000311c:	4323      	orrs	r3, r4
1000311e:	663b      	str	r3, [r7, #96]	; 0x60
10003120:	e7ff      	b.n	10003122 <y64+0x2a>
10003122:	e7ff      	b.n	10003124 <y64+0x2c>
10003124:	e7ff      	b.n	10003126 <y64+0x2e>
10003126:	46c0      	nop			; (mov r8, r8)
10003128:	b284      	uxth	r4, r0
1000312a:	6f7b      	ldr	r3, [r7, #116]	; 0x74
1000312c:	6f3d      	ldr	r5, [r7, #112]	; 0x70
1000312e:	041b      	lsls	r3, r3, #16
10003130:	4323      	orrs	r3, r4
10003132:	663b      	str	r3, [r7, #96]	; 0x60
10003134:	e7ff      	b.n	10003136 <y64+0x3e>
10003136:	e7ff      	b.n	10003138 <y64+0x40>
10003138:	46c0      	nop			; (mov r8, r8)
1000313a:	2300      	movs	r3, #0
1000313c:	042c      	lsls	r4, r5, #16
1000313e:	0c2d      	lsrs	r5, r5, #16
10003140:	6f7a      	ldr	r2, [r7, #116]	; 0x74
10003142:	6f38      	ldr	r0, [r7, #112]	; 0x70
10003144:	1900      	adds	r0, r0, r4
10003146:	4169      	adcs	r1, r5
10003148:	bcb0      	pop	{r4, r5, r7}
1000314a:	4770      	bx	lr
1000314c:	d0000000 	.word	0xd0000000

10003150 <y64_x32>:
10003150:	b5f0      	push	{r4, r5, r6, r7, lr}
10003152:	4694      	mov	ip, r2
10003154:	2500      	movs	r5, #0
10003156:	0e14      	lsrs	r4, r2, #24
10003158:	d101      	bne.n	1000315e <y64_x32+0xe>
1000315a:	0212      	lsls	r2, r2, #8
1000315c:	3508      	adds	r5, #8
1000315e:	0f14      	lsrs	r4, r2, #28
10003160:	d101      	bne.n	10003166 <y64_x32+0x16>
10003162:	0112      	lsls	r2, r2, #4
10003164:	3504      	adds	r5, #4
10003166:	0f94      	lsrs	r4, r2, #30
10003168:	d101      	bne.n	1000316e <y64_x32+0x1e>
1000316a:	0092      	lsls	r2, r2, #2
1000316c:	3502      	adds	r5, #2
1000316e:	0fd4      	lsrs	r4, r2, #31
10003170:	d101      	bne.n	10003176 <y64_x32+0x26>
10003172:	0052      	lsls	r2, r2, #1
10003174:	3501      	adds	r5, #1
10003176:	0bd4      	lsrs	r4, r2, #15
10003178:	3401      	adds	r4, #1
1000317a:	4f25      	ldr	r7, [pc, #148]	; (10003210 <y64_x32+0xc0>)
1000317c:	667c      	str	r4, [r7, #100]	; 0x64
1000317e:	4c25      	ldr	r4, [pc, #148]	; (10003214 <y64_x32+0xc4>)
10003180:	663c      	str	r4, [r7, #96]	; 0x60
10003182:	0c0e      	lsrs	r6, r1, #16
10003184:	b293      	uxth	r3, r2
10003186:	e7ff      	b.n	10003188 <y64_x32+0x38>
10003188:	e7ff      	b.n	1000318a <y64_x32+0x3a>
1000318a:	e7ff      	b.n	1000318c <y64_x32+0x3c>
1000318c:	6f3c      	ldr	r4, [r7, #112]	; 0x70
1000318e:	4366      	muls	r6, r4
10003190:	0c36      	lsrs	r6, r6, #16
10003192:	0377      	lsls	r7, r6, #13
10003194:	46be      	mov	lr, r7
10003196:	4373      	muls	r3, r6
10003198:	0bdf      	lsrs	r7, r3, #15
1000319a:	045b      	lsls	r3, r3, #17
1000319c:	1ac0      	subs	r0, r0, r3
1000319e:	41b9      	sbcs	r1, r7
100031a0:	0c13      	lsrs	r3, r2, #16
100031a2:	4373      	muls	r3, r6
100031a4:	18db      	adds	r3, r3, r3
100031a6:	1ac9      	subs	r1, r1, r3
100031a8:	08ce      	lsrs	r6, r1, #3
100031aa:	4366      	muls	r6, r4
100031ac:	0c36      	lsrs	r6, r6, #16
100031ae:	44b6      	add	lr, r6
100031b0:	b293      	uxth	r3, r2
100031b2:	4373      	muls	r3, r6
100031b4:	0f1f      	lsrs	r7, r3, #28
100031b6:	011b      	lsls	r3, r3, #4
100031b8:	1ac0      	subs	r0, r0, r3
100031ba:	41b9      	sbcs	r1, r7
100031bc:	0c13      	lsrs	r3, r2, #16
100031be:	4373      	muls	r3, r6
100031c0:	0b1f      	lsrs	r7, r3, #12
100031c2:	051b      	lsls	r3, r3, #20
100031c4:	1ac0      	subs	r0, r0, r3
100031c6:	41b9      	sbcs	r1, r7
100031c8:	0d86      	lsrs	r6, r0, #22
100031ca:	028f      	lsls	r7, r1, #10
100031cc:	433e      	orrs	r6, r7
100031ce:	4366      	muls	r6, r4
100031d0:	0c36      	lsrs	r6, r6, #16
100031d2:	2d09      	cmp	r5, #9
100031d4:	db24      	blt.n	10003220 <last0>
100031d6:	0a52      	lsrs	r2, r2, #9
100031d8:	4372      	muls	r2, r6
100031da:	1a80      	subs	r0, r0, r2
100031dc:	0377      	lsls	r7, r6, #13
100031de:	0a46      	lsrs	r6, r0, #9
100031e0:	4366      	muls	r6, r4
100031e2:	0c36      	lsrs	r6, r6, #16
100031e4:	2316      	movs	r3, #22
100031e6:	1b5b      	subs	r3, r3, r5
100031e8:	40de      	lsrs	r6, r3
100031ea:	40df      	lsrs	r7, r3
100031ec:	19bf      	adds	r7, r7, r6
100031ee:	4664      	mov	r4, ip
100031f0:	4366      	muls	r6, r4
100031f2:	1b82      	subs	r2, r0, r6
100031f4:	4670      	mov	r0, lr
100031f6:	3504      	adds	r5, #4
100031f8:	3306      	adds	r3, #6
100031fa:	0001      	movs	r1, r0
100031fc:	40d9      	lsrs	r1, r3
100031fe:	40a8      	lsls	r0, r5
10003200:	19c0      	adds	r0, r0, r7
10003202:	d300      	bcc.n	10003206 <y64_x32+0xb6>
10003204:	3101      	adds	r1, #1
10003206:	42a2      	cmp	r2, r4
10003208:	d206      	bcs.n	10003218 <y64_x32+0xc8>
1000320a:	2300      	movs	r3, #0
1000320c:	bdf0      	pop	{r4, r5, r6, r7, pc}
1000320e:	0000      	.short	0x0000
10003210:	d0000000 	.word	0xd0000000
10003214:	ffffffff 	.word	0xffffffff
10003218:	1b12      	subs	r2, r2, r4
1000321a:	3001      	adds	r0, #1
1000321c:	d3f3      	bcc.n	10003206 <y64_x32+0xb6>
1000321e:	e7f1      	b.n	10003204 <y64_x32+0xb4>

10003220 <last0>:
10003220:	2709      	movs	r7, #9
10003222:	1b7f      	subs	r7, r7, r5
10003224:	40fe      	lsrs	r6, r7
10003226:	4664      	mov	r4, ip
10003228:	b2a2      	uxth	r2, r4
1000322a:	4372      	muls	r2, r6
1000322c:	1a80      	subs	r0, r0, r2
1000322e:	d200      	bcs.n	10003232 <last0+0x12>
10003230:	3901      	subs	r1, #1
10003232:	0c22      	lsrs	r2, r4, #16
10003234:	4372      	muls	r2, r6
10003236:	0c13      	lsrs	r3, r2, #16
10003238:	0412      	lsls	r2, r2, #16
1000323a:	1a82      	subs	r2, r0, r2
1000323c:	4199      	sbcs	r1, r3
1000323e:	000b      	movs	r3, r1
10003240:	4670      	mov	r0, lr
10003242:	3504      	adds	r5, #4
10003244:	3713      	adds	r7, #19
10003246:	0001      	movs	r1, r0
10003248:	40f9      	lsrs	r1, r7
1000324a:	40a8      	lsls	r0, r5
1000324c:	1980      	adds	r0, r0, r6
1000324e:	d300      	bcc.n	10003252 <last0+0x32>
10003250:	3101      	adds	r1, #1
10003252:	2b00      	cmp	r3, #0
10003254:	d102      	bne.n	1000325c <last0+0x3c>
10003256:	42a2      	cmp	r2, r4
10003258:	d20a      	bcs.n	10003270 <last0+0x50>
1000325a:	bdf0      	pop	{r4, r5, r6, r7, pc}
1000325c:	3001      	adds	r0, #1
1000325e:	d300      	bcc.n	10003262 <last0+0x42>
10003260:	3101      	adds	r1, #1
10003262:	1b12      	subs	r2, r2, r4
10003264:	d2fa      	bcs.n	1000325c <last0+0x3c>
10003266:	3b01      	subs	r3, #1
10003268:	d1f8      	bne.n	1000325c <last0+0x3c>
1000326a:	42a2      	cmp	r2, r4
1000326c:	d200      	bcs.n	10003270 <last0+0x50>
1000326e:	bdf0      	pop	{r4, r5, r6, r7, pc}
10003270:	3001      	adds	r0, #1
10003272:	d300      	bcc.n	10003276 <last0+0x56>
10003274:	3101      	adds	r1, #1
10003276:	1b12      	subs	r2, r2, r4
10003278:	e7f7      	b.n	1000326a <last0+0x4a>

1000327a <y64_x48>:
1000327a:	b5f0      	push	{r4, r5, r6, r7, lr}
1000327c:	0c1c      	lsrs	r4, r3, #16
1000327e:	d000      	beq.n	10003282 <y64_x48+0x8>
10003280:	e080      	b.n	10003384 <y64_x64>
10003282:	b40c      	push	{r2, r3}
10003284:	2500      	movs	r5, #0
10003286:	0a1c      	lsrs	r4, r3, #8
10003288:	d104      	bne.n	10003294 <y64_x48+0x1a>
1000328a:	021b      	lsls	r3, r3, #8
1000328c:	0e16      	lsrs	r6, r2, #24
1000328e:	4333      	orrs	r3, r6
10003290:	0212      	lsls	r2, r2, #8
10003292:	3508      	adds	r5, #8
10003294:	0b1c      	lsrs	r4, r3, #12
10003296:	d104      	bne.n	100032a2 <y64_x48+0x28>
10003298:	011b      	lsls	r3, r3, #4
1000329a:	0f16      	lsrs	r6, r2, #28
1000329c:	4333      	orrs	r3, r6
1000329e:	0112      	lsls	r2, r2, #4
100032a0:	3504      	adds	r5, #4
100032a2:	0b9c      	lsrs	r4, r3, #14
100032a4:	d104      	bne.n	100032b0 <y64_x48+0x36>
100032a6:	009b      	lsls	r3, r3, #2
100032a8:	0f96      	lsrs	r6, r2, #30
100032aa:	4333      	orrs	r3, r6
100032ac:	0092      	lsls	r2, r2, #2
100032ae:	3502      	adds	r5, #2
100032b0:	0bdc      	lsrs	r4, r3, #15
100032b2:	d102      	bne.n	100032ba <y64_x48+0x40>
100032b4:	1892      	adds	r2, r2, r2
100032b6:	415b      	adcs	r3, r3
100032b8:	3501      	adds	r5, #1
100032ba:	001c      	movs	r4, r3
100032bc:	1897      	adds	r7, r2, r2
100032be:	4164      	adcs	r4, r4
100032c0:	3401      	adds	r4, #1
100032c2:	4f46      	ldr	r7, [pc, #280]	; (100033dc <y64_x64+0x58>)
100032c4:	667c      	str	r4, [r7, #100]	; 0x64
100032c6:	4c46      	ldr	r4, [pc, #280]	; (100033e0 <y64_x64+0x5c>)
100032c8:	663c      	str	r4, [r7, #96]	; 0x60
100032ca:	0c0e      	lsrs	r6, r1, #16
100032cc:	e7ff      	b.n	100032ce <y64_x48+0x54>
100032ce:	e7ff      	b.n	100032d0 <y64_x48+0x56>
100032d0:	e7ff      	b.n	100032d2 <y64_x48+0x58>
100032d2:	46c0      	nop			; (mov r8, r8)
100032d4:	6f3c      	ldr	r4, [r7, #112]	; 0x70
100032d6:	4366      	muls	r6, r4
100032d8:	0c36      	lsrs	r6, r6, #16
100032da:	0377      	lsls	r7, r6, #13
100032dc:	46be      	mov	lr, r7
100032de:	b297      	uxth	r7, r2
100032e0:	4377      	muls	r7, r6
100032e2:	1bc0      	subs	r0, r0, r7
100032e4:	d200      	bcs.n	100032e8 <y64_x48+0x6e>
100032e6:	3901      	subs	r1, #1
100032e8:	1bc0      	subs	r0, r0, r7
100032ea:	d200      	bcs.n	100032ee <y64_x48+0x74>
100032ec:	3901      	subs	r1, #1
100032ee:	b29f      	uxth	r7, r3
100032f0:	4377      	muls	r7, r6
100032f2:	1bc9      	subs	r1, r1, r7
100032f4:	1bc9      	subs	r1, r1, r7
100032f6:	0c17      	lsrs	r7, r2, #16
100032f8:	4377      	muls	r7, r6
100032fa:	047e      	lsls	r6, r7, #17
100032fc:	0bff      	lsrs	r7, r7, #15
100032fe:	1b80      	subs	r0, r0, r6
10003300:	41b9      	sbcs	r1, r7
10003302:	08ce      	lsrs	r6, r1, #3
10003304:	4366      	muls	r6, r4
10003306:	0c36      	lsrs	r6, r6, #16
10003308:	2d0c      	cmp	r5, #12
1000330a:	db33      	blt.n	10003374 <last1>
1000330c:	44b6      	add	lr, r6
1000330e:	0b12      	lsrs	r2, r2, #12
10003310:	051f      	lsls	r7, r3, #20
10003312:	433a      	orrs	r2, r7
10003314:	0b1b      	lsrs	r3, r3, #12
10003316:	b297      	uxth	r7, r2
10003318:	4377      	muls	r7, r6
1000331a:	1bc0      	subs	r0, r0, r7
1000331c:	d200      	bcs.n	10003320 <y64_x48+0xa6>
1000331e:	3901      	subs	r1, #1
10003320:	b29f      	uxth	r7, r3
10003322:	4377      	muls	r7, r6
10003324:	1bc9      	subs	r1, r1, r7
10003326:	0c17      	lsrs	r7, r2, #16
10003328:	4377      	muls	r7, r6
1000332a:	043e      	lsls	r6, r7, #16
1000332c:	0c3f      	lsrs	r7, r7, #16
1000332e:	1b80      	subs	r0, r0, r6
10003330:	41b9      	sbcs	r1, r7
10003332:	0d86      	lsrs	r6, r0, #22
10003334:	028f      	lsls	r7, r1, #10
10003336:	433e      	orrs	r6, r7
10003338:	4366      	muls	r6, r4
1000333a:	2729      	movs	r7, #41	; 0x29
1000333c:	1b7f      	subs	r7, r7, r5
1000333e:	40fe      	lsrs	r6, r7
10003340:	3d0c      	subs	r5, #12
10003342:	4677      	mov	r7, lr
10003344:	40af      	lsls	r7, r5
10003346:	19bf      	adds	r7, r7, r6
10003348:	bc30      	pop	{r4, r5}
1000334a:	b2a2      	uxth	r2, r4
1000334c:	b2ab      	uxth	r3, r5
1000334e:	4372      	muls	r2, r6
10003350:	4373      	muls	r3, r6
10003352:	1a80      	subs	r0, r0, r2
10003354:	4199      	sbcs	r1, r3
10003356:	0c22      	lsrs	r2, r4, #16
10003358:	4372      	muls	r2, r6
1000335a:	0c13      	lsrs	r3, r2, #16
1000335c:	0412      	lsls	r2, r2, #16
1000335e:	1a80      	subs	r0, r0, r2
10003360:	4199      	sbcs	r1, r3
10003362:	0002      	movs	r2, r0
10003364:	000b      	movs	r3, r1
10003366:	3701      	adds	r7, #1
10003368:	1b00      	subs	r0, r0, r4
1000336a:	41a9      	sbcs	r1, r5
1000336c:	d2f9      	bcs.n	10003362 <y64_x48+0xe8>
1000336e:	1e78      	subs	r0, r7, #1
10003370:	2100      	movs	r1, #0
10003372:	bdf0      	pop	{r4, r5, r6, r7, pc}

10003374 <last1>:
10003374:	270c      	movs	r7, #12
10003376:	1b7f      	subs	r7, r7, r5
10003378:	40fe      	lsrs	r6, r7
1000337a:	4677      	mov	r7, lr
1000337c:	0b7f      	lsrs	r7, r7, #13
1000337e:	40af      	lsls	r7, r5
10003380:	19ff      	adds	r7, r7, r7
10003382:	e7e0      	b.n	10003346 <y64_x48+0xcc>

10003384 <y64_x64>:
10003384:	2400      	movs	r4, #0
10003386:	1c5d      	adds	r5, r3, #1
10003388:	d007      	beq.n	1000339a <y64_x64+0x16>
1000338a:	4f14      	ldr	r7, [pc, #80]	; (100033dc <y64_x64+0x58>)
1000338c:	667d      	str	r5, [r7, #100]	; 0x64
1000338e:	6639      	str	r1, [r7, #96]	; 0x60
10003390:	e7ff      	b.n	10003392 <y64_x64+0xe>
10003392:	e7ff      	b.n	10003394 <y64_x64+0x10>
10003394:	e7ff      	b.n	10003396 <y64_x64+0x12>
10003396:	e7ff      	b.n	10003398 <y64_x64+0x14>
10003398:	6f3c      	ldr	r4, [r7, #112]	; 0x70
1000339a:	b295      	uxth	r5, r2
1000339c:	b29e      	uxth	r6, r3
1000339e:	4365      	muls	r5, r4
100033a0:	4366      	muls	r6, r4
100033a2:	1b40      	subs	r0, r0, r5
100033a4:	41b1      	sbcs	r1, r6
100033a6:	0c15      	lsrs	r5, r2, #16
100033a8:	0c1e      	lsrs	r6, r3, #16
100033aa:	4365      	muls	r5, r4
100033ac:	4366      	muls	r6, r4
100033ae:	0436      	lsls	r6, r6, #16
100033b0:	0c2f      	lsrs	r7, r5, #16
100033b2:	433e      	orrs	r6, r7
100033b4:	042d      	lsls	r5, r5, #16
100033b6:	1b40      	subs	r0, r0, r5
100033b8:	41b1      	sbcs	r1, r6
100033ba:	4299      	cmp	r1, r3
100033bc:	d204      	bcs.n	100033c8 <y64_x64+0x44>
100033be:	0002      	movs	r2, r0
100033c0:	000b      	movs	r3, r1
100033c2:	0020      	movs	r0, r4
100033c4:	2100      	movs	r1, #0
100033c6:	bdf0      	pop	{r4, r5, r6, r7, pc}
100033c8:	d101      	bne.n	100033ce <y64_x64+0x4a>
100033ca:	4290      	cmp	r0, r2
100033cc:	d3f7      	bcc.n	100033be <y64_x64+0x3a>
100033ce:	1a80      	subs	r0, r0, r2
100033d0:	4199      	sbcs	r1, r3
100033d2:	3401      	adds	r4, #1
100033d4:	4299      	cmp	r1, r3
100033d6:	d3f2      	bcc.n	100033be <y64_x64+0x3a>
100033d8:	e7f6      	b.n	100033c8 <y64_x64+0x44>
100033da:	0000      	.short	0x0000
100033dc:	d0000000 	.word	0xd0000000
100033e0:	ffffffff 	.word	0xffffffff

100033e4 <__wrap___aeabi_drsub>:
100033e4:	4048      	eors	r0, r1
100033e6:	4041      	eors	r1, r0
100033e8:	4048      	eors	r0, r1

100033ea <__wrap___aeabi_dsub>:
100033ea:	b418      	push	{r3, r4}
100033ec:	4b11      	ldr	r3, [pc, #68]	; (10003434 <__wrap___aeabi_dmul+0x14>)
100033ee:	685b      	ldr	r3, [r3, #4]
100033f0:	46fc      	mov	ip, pc
100033f2:	9301      	str	r3, [sp, #4]
100033f4:	bd08      	pop	{r3, pc}
100033f6:	df04      	.short	0xdf04
100033f8:	1000366f 	.word	0x1000366f

100033fc <__wrap___aeabi_dadd>:
100033fc:	b418      	push	{r3, r4}
100033fe:	4b0d      	ldr	r3, [pc, #52]	; (10003434 <__wrap___aeabi_dmul+0x14>)
10003400:	681b      	ldr	r3, [r3, #0]
10003402:	46fc      	mov	ip, pc
10003404:	9301      	str	r3, [sp, #4]
10003406:	bd08      	pop	{r3, pc}
10003408:	3679df00 	.word	0x3679df00
1000340c:	1000      	.short	0x1000

1000340e <__wrap___aeabi_ddiv>:
1000340e:	b418      	push	{r3, r4}
10003410:	4b08      	ldr	r3, [pc, #32]	; (10003434 <__wrap___aeabi_dmul+0x14>)
10003412:	68db      	ldr	r3, [r3, #12]
10003414:	46fc      	mov	ip, pc
10003416:	9301      	str	r3, [sp, #4]
10003418:	bd08      	pop	{r3, pc}
1000341a:	df0c      	.short	0xdf0c
1000341c:	10003931 	.word	0x10003931

10003420 <__wrap___aeabi_dmul>:
10003420:	b418      	push	{r3, r4}
10003422:	4b04      	ldr	r3, [pc, #16]	; (10003434 <__wrap___aeabi_dmul+0x14>)
10003424:	689b      	ldr	r3, [r3, #8]
10003426:	46fc      	mov	ip, pc
10003428:	9301      	str	r3, [sp, #4]
1000342a:	bd08      	pop	{r3, pc}
1000342c:	37d5df08 	.word	0x37d5df08
10003430:	00001000 	.word	0x00001000
10003434:	20000b38 	.word	0x20000b38

10003438 <__wrap___aeabi_cdrcmple>:
10003438:	b5ff      	push	{r0, r1, r2, r3, r4, r5, r6, r7, lr}
1000343a:	4050      	eors	r0, r2
1000343c:	4042      	eors	r2, r0
1000343e:	4050      	eors	r0, r2
10003440:	4059      	eors	r1, r3
10003442:	404b      	eors	r3, r1
10003444:	4059      	eors	r1, r3
10003446:	e000      	b.n	1000344a <__aeabi_dfcmple_guts>

10003448 <__wrap___aeabi_cdcmpeq>:
10003448:	b5ff      	push	{r0, r1, r2, r3, r4, r5, r6, r7, lr}

1000344a <__aeabi_dfcmple_guts>:
1000344a:	4f15      	ldr	r7, [pc, #84]	; (100034a0 <__aeabi_dfcmple_guts+0x56>)
1000344c:	004c      	lsls	r4, r1, #1
1000344e:	0d64      	lsrs	r4, r4, #21
10003450:	d003      	beq.n	1000345a <__aeabi_dfcmple_guts+0x10>
10003452:	42bc      	cmp	r4, r7
10003454:	d104      	bne.n	10003460 <__aeabi_dfcmple_guts+0x16>
10003456:	030c      	lsls	r4, r1, #12
10003458:	d814      	bhi.n	10003484 <__aeabi_dfcmple_guts+0x3a>
1000345a:	2000      	movs	r0, #0
1000345c:	0d09      	lsrs	r1, r1, #20
1000345e:	0509      	lsls	r1, r1, #20
10003460:	005c      	lsls	r4, r3, #1
10003462:	0d64      	lsrs	r4, r4, #21
10003464:	d003      	beq.n	1000346e <__aeabi_dfcmple_guts+0x24>
10003466:	42bc      	cmp	r4, r7
10003468:	d104      	bne.n	10003474 <__aeabi_dfcmple_guts+0x2a>
1000346a:	031c      	lsls	r4, r3, #12
1000346c:	d80a      	bhi.n	10003484 <__aeabi_dfcmple_guts+0x3a>
1000346e:	2200      	movs	r2, #0
10003470:	0d1b      	lsrs	r3, r3, #20
10003472:	051b      	lsls	r3, r3, #20
10003474:	2601      	movs	r6, #1
10003476:	404b      	eors	r3, r1
10003478:	d409      	bmi.n	1000348e <__aeabi_dfcmple_guts+0x44>
1000347a:	404b      	eors	r3, r1
1000347c:	d503      	bpl.n	10003486 <__aeabi_dfcmple_guts+0x3c>
1000347e:	428b      	cmp	r3, r1
10003480:	d100      	bne.n	10003484 <__aeabi_dfcmple_guts+0x3a>
10003482:	4282      	cmp	r2, r0
10003484:	bdff      	pop	{r0, r1, r2, r3, r4, r5, r6, r7, pc}
10003486:	4299      	cmp	r1, r3
10003488:	d1fc      	bne.n	10003484 <__aeabi_dfcmple_guts+0x3a>
1000348a:	4290      	cmp	r0, r2
1000348c:	bdff      	pop	{r0, r1, r2, r3, r4, r5, r6, r7, pc}
1000348e:	430b      	orrs	r3, r1
10003490:	18db      	adds	r3, r3, r3
10003492:	4303      	orrs	r3, r0
10003494:	4313      	orrs	r3, r2
10003496:	d0f5      	beq.n	10003484 <__aeabi_dfcmple_guts+0x3a>
10003498:	43c9      	mvns	r1, r1
1000349a:	1849      	adds	r1, r1, r1
1000349c:	bdff      	pop	{r0, r1, r2, r3, r4, r5, r6, r7, pc}
1000349e:	0000      	.short	0x0000
100034a0:	000007ff 	.word	0x000007ff

100034a4 <__wrap___aeabi_dcmplt>:
100034a4:	b500      	push	{lr}
100034a6:	f7ff ffcf 	bl	10003448 <__wrap___aeabi_cdcmpeq>
100034aa:	4180      	sbcs	r0, r0
100034ac:	bd00      	pop	{pc}
100034ae:	46c0      	nop			; (mov r8, r8)

100034b0 <__wrap___aeabi_dcmple>:
100034b0:	b500      	push	{lr}
100034b2:	f7ff ffc9 	bl	10003448 <__wrap___aeabi_cdcmpeq>
100034b6:	d901      	bls.n	100034bc <__wrap___aeabi_dcmple+0xc>
100034b8:	2000      	movs	r0, #0
100034ba:	bd00      	pop	{pc}
100034bc:	2001      	movs	r0, #1
100034be:	bd00      	pop	{pc}

100034c0 <__wrap___aeabi_dcmpge>:
100034c0:	b500      	push	{lr}
100034c2:	f7ff ffb9 	bl	10003438 <__wrap___aeabi_cdrcmple>
100034c6:	d901      	bls.n	100034cc <__wrap___aeabi_dcmpge+0xc>
100034c8:	2000      	movs	r0, #0
100034ca:	bd00      	pop	{pc}
100034cc:	2001      	movs	r0, #1
100034ce:	bd00      	pop	{pc}

100034d0 <__wrap___aeabi_dcmpgt>:
100034d0:	b500      	push	{lr}
100034d2:	f7ff ffb1 	bl	10003438 <__wrap___aeabi_cdrcmple>
100034d6:	4180      	sbcs	r0, r0
100034d8:	bd00      	pop	{pc}

100034da <__wrap___aeabi_dcmpun>:
100034da:	2001      	movs	r0, #1
100034dc:	0540      	lsls	r0, r0, #21
100034de:	004a      	lsls	r2, r1, #1
100034e0:	1812      	adds	r2, r2, r0
100034e2:	d804      	bhi.n	100034ee <__wrap___aeabi_dcmpun+0x14>
100034e4:	005a      	lsls	r2, r3, #1
100034e6:	1812      	adds	r2, r2, r0
100034e8:	d801      	bhi.n	100034ee <__wrap___aeabi_dcmpun+0x14>
100034ea:	2000      	movs	r0, #0
100034ec:	4770      	bx	lr
100034ee:	2001      	movs	r0, #1
100034f0:	4770      	bx	lr
100034f2:	2000      	movs	r0, #0
100034f4:	4770      	bx	lr
	...

100034f8 <__wrap___aeabi_ui2d>:
100034f8:	2100      	movs	r1, #0
100034fa:	2800      	cmp	r0, #0
100034fc:	d105      	bne.n	1000350a <__wrap___aeabi_i2d+0xa>
100034fe:	4770      	bx	lr

10003500 <__wrap___aeabi_i2d>:
10003500:	17c1      	asrs	r1, r0, #31
10003502:	4048      	eors	r0, r1
10003504:	1a40      	subs	r0, r0, r1
10003506:	d0fa      	beq.n	100034fe <__wrap___aeabi_ui2d+0x6>
10003508:	07c9      	lsls	r1, r1, #31
1000350a:	b513      	push	{r0, r1, r4, lr}
1000350c:	4b06      	ldr	r3, [pc, #24]	; (10003528 <__wrap___aeabi_i2d+0x28>)
1000350e:	681b      	ldr	r3, [r3, #0]
10003510:	4798      	blx	r3
10003512:	bc0c      	pop	{r2, r3}
10003514:	1c44      	adds	r4, r0, #1
10003516:	40a2      	lsls	r2, r4
10003518:	0510      	lsls	r0, r2, #20
1000351a:	0b12      	lsrs	r2, r2, #12
1000351c:	4903      	ldr	r1, [pc, #12]	; (1000352c <__wrap___aeabi_i2d+0x2c>)
1000351e:	1b09      	subs	r1, r1, r4
10003520:	0509      	lsls	r1, r1, #20
10003522:	4319      	orrs	r1, r3
10003524:	4311      	orrs	r1, r2
10003526:	bd10      	pop	{r4, pc}
10003528:	20000d38 	.word	0x20000d38
1000352c:	0000041f 	.word	0x0000041f

10003530 <__wrap___aeabi_d2iz>:
10003530:	b510      	push	{r4, lr}
10003532:	004c      	lsls	r4, r1, #1
10003534:	0d62      	lsrs	r2, r4, #21
10003536:	2380      	movs	r3, #128	; 0x80
10003538:	18d2      	adds	r2, r2, r3
1000353a:	00db      	lsls	r3, r3, #3
1000353c:	1ad2      	subs	r2, r2, r3
1000353e:	055b      	lsls	r3, r3, #21
10003540:	2a7e      	cmp	r2, #126	; 0x7e
10003542:	dd10      	ble.n	10003566 <__wrap___aeabi_d2iz+0x36>
10003544:	3a9e      	subs	r2, #158	; 0x9e
10003546:	da13      	bge.n	10003570 <__wrap___aeabi_d2iz+0x40>
10003548:	17cc      	asrs	r4, r1, #31
1000354a:	0309      	lsls	r1, r1, #12
1000354c:	0849      	lsrs	r1, r1, #1
1000354e:	4319      	orrs	r1, r3
10003550:	4252      	negs	r2, r2
10003552:	40d1      	lsrs	r1, r2
10003554:	0064      	lsls	r4, r4, #1
10003556:	3401      	adds	r4, #1
10003558:	3215      	adds	r2, #21
1000355a:	2a20      	cmp	r2, #32
1000355c:	da05      	bge.n	1000356a <__wrap___aeabi_d2iz+0x3a>
1000355e:	40d0      	lsrs	r0, r2
10003560:	4308      	orrs	r0, r1
10003562:	4360      	muls	r0, r4
10003564:	bd10      	pop	{r4, pc}
10003566:	2000      	movs	r0, #0
10003568:	bd10      	pop	{r4, pc}
1000356a:	4608      	mov	r0, r1
1000356c:	4360      	muls	r0, r4
1000356e:	bd10      	pop	{r4, pc}
10003570:	0fc8      	lsrs	r0, r1, #31
10003572:	18c0      	adds	r0, r0, r3
10003574:	3801      	subs	r0, #1
10003576:	bd10      	pop	{r4, pc}

10003578 <__wrap___aeabi_d2uiz>:
10003578:	b418      	push	{r3, r4}
1000357a:	4b04      	ldr	r3, [pc, #16]	; (1000358c <__wrap___aeabi_d2uiz+0x14>)
1000357c:	6a5b      	ldr	r3, [r3, #36]	; 0x24
1000357e:	46fc      	mov	ip, pc
10003580:	9301      	str	r3, [sp, #4]
10003582:	bd08      	pop	{r3, pc}
10003584:	3b5ddf24 	.word	0x3b5ddf24
10003588:	00001000 	.word	0x00001000
1000358c:	20000b38 	.word	0x20000b38

10003590 <__aeabi_double_init>:
10003590:	2313      	movs	r3, #19
10003592:	b570      	push	{r4, r5, r6, lr}
10003594:	781d      	ldrb	r5, [r3, #0]
10003596:	2d01      	cmp	r5, #1
10003598:	d010      	beq.n	100035bc <__aeabi_double_init+0x2c>
1000359a:	dd0b      	ble.n	100035b4 <__aeabi_double_init+0x24>
1000359c:	4824      	ldr	r0, [pc, #144]	; (10003630 <__aeabi_double_init+0xa0>)
1000359e:	f7ff fc8d 	bl	10002ebc <rom_data_lookup>
100035a2:	4c24      	ldr	r4, [pc, #144]	; (10003634 <__aeabi_double_init+0xa4>)
100035a4:	0001      	movs	r1, r0
100035a6:	2280      	movs	r2, #128	; 0x80
100035a8:	0020      	movs	r0, r4
100035aa:	f000 fb91 	bl	10003cd0 <__wrap___aeabi_memcpy>
100035ae:	2d02      	cmp	r5, #2
100035b0:	d001      	beq.n	100035b6 <__aeabi_double_init+0x26>
100035b2:	bd70      	pop	{r4, r5, r6, pc}
100035b4:	4c1f      	ldr	r4, [pc, #124]	; (10003634 <__aeabi_double_init+0xa4>)
100035b6:	4a20      	ldr	r2, [pc, #128]	; (10003638 <__aeabi_double_init+0xa8>)
100035b8:	64a2      	str	r2, [r4, #72]	; 0x48
100035ba:	e7fa      	b.n	100035b2 <__aeabi_double_init+0x22>
100035bc:	002e      	movs	r6, r5
100035be:	4c1d      	ldr	r4, [pc, #116]	; (10003634 <__aeabi_double_init+0xa4>)
100035c0:	4a1d      	ldr	r2, [pc, #116]	; (10003638 <__aeabi_double_init+0xa8>)
100035c2:	08a3      	lsrs	r3, r4, #2
100035c4:	425b      	negs	r3, r3
100035c6:	401e      	ands	r6, r3
100035c8:	421d      	tst	r5, r3
100035ca:	d02f      	beq.n	1000362c <__aeabi_double_init+0x9c>
100035cc:	0033      	movs	r3, r6
100035ce:	6022      	str	r2, [r4, #0]
100035d0:	2020      	movs	r0, #32
100035d2:	00b1      	lsls	r1, r6, #2
100035d4:	1861      	adds	r1, r4, r1
100035d6:	1b80      	subs	r0, r0, r6
100035d8:	600a      	str	r2, [r1, #0]
100035da:	604a      	str	r2, [r1, #4]
100035dc:	608a      	str	r2, [r1, #8]
100035de:	60ca      	str	r2, [r1, #12]
100035e0:	610a      	str	r2, [r1, #16]
100035e2:	614a      	str	r2, [r1, #20]
100035e4:	618a      	str	r2, [r1, #24]
100035e6:	61ca      	str	r2, [r1, #28]
100035e8:	620a      	str	r2, [r1, #32]
100035ea:	624a      	str	r2, [r1, #36]	; 0x24
100035ec:	628a      	str	r2, [r1, #40]	; 0x28
100035ee:	62ca      	str	r2, [r1, #44]	; 0x2c
100035f0:	630a      	str	r2, [r1, #48]	; 0x30
100035f2:	634a      	str	r2, [r1, #52]	; 0x34
100035f4:	638a      	str	r2, [r1, #56]	; 0x38
100035f6:	63ca      	str	r2, [r1, #60]	; 0x3c
100035f8:	640a      	str	r2, [r1, #64]	; 0x40
100035fa:	644a      	str	r2, [r1, #68]	; 0x44
100035fc:	648a      	str	r2, [r1, #72]	; 0x48
100035fe:	64ca      	str	r2, [r1, #76]	; 0x4c
10003600:	650a      	str	r2, [r1, #80]	; 0x50
10003602:	654a      	str	r2, [r1, #84]	; 0x54
10003604:	658a      	str	r2, [r1, #88]	; 0x58
10003606:	65ca      	str	r2, [r1, #92]	; 0x5c
10003608:	660a      	str	r2, [r1, #96]	; 0x60
1000360a:	664a      	str	r2, [r1, #100]	; 0x64
1000360c:	668a      	str	r2, [r1, #104]	; 0x68
1000360e:	66ca      	str	r2, [r1, #108]	; 0x6c
10003610:	670a      	str	r2, [r1, #112]	; 0x70
10003612:	674a      	str	r2, [r1, #116]	; 0x74
10003614:	0840      	lsrs	r0, r0, #1
10003616:	2810      	cmp	r0, #16
10003618:	d103      	bne.n	10003622 <__aeabi_double_init+0x92>
1000361a:	678a      	str	r2, [r1, #120]	; 0x78
1000361c:	67ca      	str	r2, [r1, #124]	; 0x7c
1000361e:	64a2      	str	r2, [r4, #72]	; 0x48
10003620:	e7c7      	b.n	100035b2 <__aeabi_double_init+0x22>
10003622:	331e      	adds	r3, #30
10003624:	009b      	lsls	r3, r3, #2
10003626:	50e2      	str	r2, [r4, r3]
10003628:	64a2      	str	r2, [r4, #72]	; 0x48
1000362a:	e7c2      	b.n	100035b2 <__aeabi_double_init+0x22>
1000362c:	2300      	movs	r3, #0
1000362e:	e7cf      	b.n	100035d0 <__aeabi_double_init+0x40>
10003630:	00004453 	.word	0x00004453
10003634:	20000b38 	.word	0x20000b38
10003638:	1000363d 	.word	0x1000363d

1000363c <double_table_shim_on_use_helper>:
1000363c:	b507      	push	{r0, r1, r2, lr}
1000363e:	4660      	mov	r0, ip
10003640:	8801      	ldrh	r1, [r0, #0]
10003642:	0a0a      	lsrs	r2, r1, #8
10003644:	3002      	adds	r0, #2
10003646:	2adf      	cmp	r2, #223	; 0xdf
10003648:	d1fa      	bne.n	10003640 <double_table_shim_on_use_helper+0x4>
1000364a:	b2c9      	uxtb	r1, r1
1000364c:	0882      	lsrs	r2, r0, #2
1000364e:	d304      	bcc.n	1000365a <double_table_shim_on_use_helper+0x1e>
10003650:	8802      	ldrh	r2, [r0, #0]
10003652:	8840      	ldrh	r0, [r0, #2]
10003654:	0400      	lsls	r0, r0, #16
10003656:	4310      	orrs	r0, r2
10003658:	e000      	b.n	1000365c <double_table_shim_on_use_helper+0x20>
1000365a:	6800      	ldr	r0, [r0, #0]
1000365c:	4a01      	ldr	r2, [pc, #4]	; (10003664 <double_table_shim_on_use_helper+0x28>)
1000365e:	5050      	str	r0, [r2, r1]
10003660:	9003      	str	r0, [sp, #12]
10003662:	bd07      	pop	{r0, r1, r2, pc}
10003664:	20000b38 	.word	0x20000b38

10003668 <drsub_shim>:
10003668:	b40f      	push	{r0, r1, r2, r3}
1000366a:	bc03      	pop	{r0, r1}
1000366c:	bc0c      	pop	{r2, r3}

1000366e <dsub_shim>:
1000366e:	b5f0      	push	{r4, r5, r6, r7, lr}
10003670:	2401      	movs	r4, #1
10003672:	07e4      	lsls	r4, r4, #31
10003674:	4063      	eors	r3, r4
10003676:	e000      	b.n	1000367a <da_entry>

10003678 <dadd_shim>:
10003678:	b5f0      	push	{r4, r5, r6, r7, lr}

1000367a <da_entry>:
1000367a:	0d0c      	lsrs	r4, r1, #20
1000367c:	0fcf      	lsrs	r7, r1, #31
1000367e:	1e66      	subs	r6, r4, #1
10003680:	0536      	lsls	r6, r6, #20
10003682:	1b89      	subs	r1, r1, r6
10003684:	0564      	lsls	r4, r4, #21
10003686:	d303      	bcc.n	10003690 <l7_1>
10003688:	43c9      	mvns	r1, r1
1000368a:	4240      	negs	r0, r0
1000368c:	d300      	bcc.n	10003690 <l7_1>
1000368e:	3101      	adds	r1, #1

10003690 <l7_1>:
10003690:	0d64      	lsrs	r4, r4, #21
10003692:	d003      	beq.n	1000369c <l7_2>
10003694:	1c66      	adds	r6, r4, #1
10003696:	0af6      	lsrs	r6, r6, #11
10003698:	d007      	beq.n	100036aa <l7_3>
1000369a:	1be4      	subs	r4, r4, r7

1000369c <l7_2>:
1000369c:	2000      	movs	r0, #0
1000369e:	007f      	lsls	r7, r7, #1
100036a0:	1c79      	adds	r1, r7, #1
100036a2:	0789      	lsls	r1, r1, #30
100036a4:	1289      	asrs	r1, r1, #10
100036a6:	3c80      	subs	r4, #128	; 0x80
100036a8:	0324      	lsls	r4, r4, #12

100036aa <l7_3>:
100036aa:	0d1d      	lsrs	r5, r3, #20
100036ac:	0fdf      	lsrs	r7, r3, #31
100036ae:	1e6e      	subs	r6, r5, #1
100036b0:	0536      	lsls	r6, r6, #20
100036b2:	1b9b      	subs	r3, r3, r6
100036b4:	056d      	lsls	r5, r5, #21
100036b6:	d303      	bcc.n	100036c0 <l8_1>
100036b8:	43db      	mvns	r3, r3
100036ba:	4252      	negs	r2, r2
100036bc:	d300      	bcc.n	100036c0 <l8_1>
100036be:	3301      	adds	r3, #1

100036c0 <l8_1>:
100036c0:	0d6d      	lsrs	r5, r5, #21
100036c2:	d003      	beq.n	100036cc <l8_2>
100036c4:	1c6e      	adds	r6, r5, #1
100036c6:	0af6      	lsrs	r6, r6, #11
100036c8:	d007      	beq.n	100036da <l8_3>
100036ca:	1bed      	subs	r5, r5, r7

100036cc <l8_2>:
100036cc:	2200      	movs	r2, #0
100036ce:	007f      	lsls	r7, r7, #1
100036d0:	1c7b      	adds	r3, r7, #1
100036d2:	079b      	lsls	r3, r3, #30
100036d4:	129b      	asrs	r3, r3, #10
100036d6:	3d80      	subs	r5, #128	; 0x80
100036d8:	032d      	lsls	r5, r5, #12

100036da <l8_3>:
100036da:	1b2f      	subs	r7, r5, r4
100036dc:	1b66      	subs	r6, r4, r5
100036de:	d458      	bmi.n	10003792 <da_ygtx>
100036e0:	46a4      	mov	ip, r4
100036e2:	2e20      	cmp	r6, #32
100036e4:	da46      	bge.n	10003774 <da_xrgty>
100036e6:	3720      	adds	r7, #32
100036e8:	0014      	movs	r4, r2
100036ea:	40bc      	lsls	r4, r7

100036ec <da_xgty0>:
100036ec:	001d      	movs	r5, r3
100036ee:	40bd      	lsls	r5, r7
100036f0:	40f2      	lsrs	r2, r6
100036f2:	4133      	asrs	r3, r6
100036f4:	432a      	orrs	r2, r5

100036f6 <da_add>:
100036f6:	1880      	adds	r0, r0, r2
100036f8:	4159      	adcs	r1, r3

100036fa <da_pack>:
100036fa:	0fcb      	lsrs	r3, r1, #31
100036fc:	d005      	beq.n	1000370a <da_pack+0x10>
100036fe:	43c9      	mvns	r1, r1
10003700:	43c0      	mvns	r0, r0
10003702:	2200      	movs	r2, #0
10003704:	4264      	negs	r4, r4
10003706:	4150      	adcs	r0, r2
10003708:	4151      	adcs	r1, r2
1000370a:	4662      	mov	r2, ip
1000370c:	0d4d      	lsrs	r5, r1, #21
1000370e:	d128      	bne.n	10003762 <da_0>
10003710:	0d0d      	lsrs	r5, r1, #20
10003712:	d107      	bne.n	10003724 <da_1>
10003714:	2800      	cmp	r0, #0
10003716:	d01f      	beq.n	10003758 <da_5>

10003718 <da_2>:
10003718:	1924      	adds	r4, r4, r4
1000371a:	4140      	adcs	r0, r0
1000371c:	4149      	adcs	r1, r1
1000371e:	3a01      	subs	r2, #1
10003720:	0d0d      	lsrs	r5, r1, #20
10003722:	d0f9      	beq.n	10003718 <da_2>

10003724 <da_1>:
10003724:	0064      	lsls	r4, r4, #1
10003726:	d306      	bcc.n	10003736 <da_3>

10003728 <da_4>:
10003728:	3001      	adds	r0, #1
1000372a:	d300      	bcc.n	1000372e <da_4+0x6>
1000372c:	3101      	adds	r1, #1
1000372e:	2c00      	cmp	r4, #0
10003730:	d101      	bne.n	10003736 <da_3>
10003732:	0840      	lsrs	r0, r0, #1
10003734:	0040      	lsls	r0, r0, #1

10003736 <da_3>:
10003736:	3a01      	subs	r2, #1
10003738:	d40b      	bmi.n	10003752 <da_6>
1000373a:	1c94      	adds	r4, r2, #2
1000373c:	0ae4      	lsrs	r4, r4, #11
1000373e:	d104      	bne.n	1000374a <da_7>
10003740:	0512      	lsls	r2, r2, #20
10003742:	4411      	add	r1, r2
10003744:	07db      	lsls	r3, r3, #31
10003746:	4419      	add	r1, r3
10003748:	bdf0      	pop	{r4, r5, r6, r7, pc}

1000374a <da_7>:
1000374a:	07d9      	lsls	r1, r3, #31
1000374c:	4b20      	ldr	r3, [pc, #128]	; (100037d0 <da_xmgty+0x4>)
1000374e:	4319      	orrs	r1, r3
10003750:	e000      	b.n	10003754 <da_6+0x2>

10003752 <da_6>:
10003752:	07d9      	lsls	r1, r3, #31
10003754:	2000      	movs	r0, #0
10003756:	bdf0      	pop	{r4, r5, r6, r7, pc}

10003758 <da_5>:
10003758:	2900      	cmp	r1, #0
1000375a:	d1dd      	bne.n	10003718 <da_2>
1000375c:	2c00      	cmp	r4, #0
1000375e:	d1db      	bne.n	10003718 <da_2>
10003760:	bdf0      	pop	{r4, r5, r6, r7, pc}

10003762 <da_0>:
10003762:	3201      	adds	r2, #1
10003764:	07c6      	lsls	r6, r0, #31
10003766:	0840      	lsrs	r0, r0, #1
10003768:	07cd      	lsls	r5, r1, #31
1000376a:	4328      	orrs	r0, r5
1000376c:	0849      	lsrs	r1, r1, #1
1000376e:	2e00      	cmp	r6, #0
10003770:	d0e1      	beq.n	10003736 <da_3>
10003772:	e7d9      	b.n	10003728 <da_4>

10003774 <da_xrgty>:
10003774:	2e3c      	cmp	r6, #60	; 0x3c
10003776:	da29      	bge.n	100037cc <da_xmgty>
10003778:	3e20      	subs	r6, #32
1000377a:	3740      	adds	r7, #64	; 0x40
1000377c:	0014      	movs	r4, r2
1000377e:	40bc      	lsls	r4, r7
10003780:	d000      	beq.n	10003784 <da_xrgty+0x10>
10003782:	2401      	movs	r4, #1
10003784:	40f2      	lsrs	r2, r6
10003786:	4314      	orrs	r4, r2
10003788:	001a      	movs	r2, r3
1000378a:	40bb      	lsls	r3, r7
1000378c:	431c      	orrs	r4, r3
1000378e:	17d3      	asrs	r3, r2, #31
10003790:	e7ac      	b.n	100036ec <da_xgty0>

10003792 <da_ygtx>:
10003792:	46ac      	mov	ip, r5
10003794:	2f20      	cmp	r7, #32
10003796:	da08      	bge.n	100037aa <da_yrgtx>
10003798:	3620      	adds	r6, #32
1000379a:	0004      	movs	r4, r0
1000379c:	40b4      	lsls	r4, r6

1000379e <da_ygtx0>:
1000379e:	000d      	movs	r5, r1
100037a0:	40b5      	lsls	r5, r6
100037a2:	40f8      	lsrs	r0, r7
100037a4:	4139      	asrs	r1, r7
100037a6:	4328      	orrs	r0, r5
100037a8:	e7a5      	b.n	100036f6 <da_add>

100037aa <da_yrgtx>:
100037aa:	2f3c      	cmp	r7, #60	; 0x3c
100037ac:	da0c      	bge.n	100037c8 <da_ymgtx>
100037ae:	3f20      	subs	r7, #32
100037b0:	3640      	adds	r6, #64	; 0x40
100037b2:	0004      	movs	r4, r0
100037b4:	40b4      	lsls	r4, r6
100037b6:	d000      	beq.n	100037ba <da_yrgtx+0x10>
100037b8:	2401      	movs	r4, #1
100037ba:	40f8      	lsrs	r0, r7
100037bc:	4304      	orrs	r4, r0
100037be:	0008      	movs	r0, r1
100037c0:	40b1      	lsls	r1, r6
100037c2:	430c      	orrs	r4, r1
100037c4:	17c1      	asrs	r1, r0, #31
100037c6:	e7ea      	b.n	1000379e <da_ygtx0>

100037c8 <da_ymgtx>:
100037c8:	0010      	movs	r0, r2
100037ca:	0019      	movs	r1, r3

100037cc <da_xmgty>:
100037cc:	2400      	movs	r4, #0
100037ce:	e794      	b.n	100036fa <da_pack>
100037d0:	7ff00000 	.word	0x7ff00000

100037d4 <dmul_shim>:
100037d4:	b5f0      	push	{r4, r5, r6, r7, lr}
100037d6:	0d0c      	lsrs	r4, r1, #20
100037d8:	1e66      	subs	r6, r4, #1
100037da:	0536      	lsls	r6, r6, #20
100037dc:	1b89      	subs	r1, r1, r6
100037de:	0ae6      	lsrs	r6, r4, #11
100037e0:	0564      	lsls	r4, r4, #21
100037e2:	0d64      	lsrs	r4, r4, #21
100037e4:	d002      	beq.n	100037ec <l11_1>
100037e6:	1c65      	adds	r5, r4, #1
100037e8:	0aed      	lsrs	r5, r5, #11
100037ea:	d004      	beq.n	100037f6 <l11_2>

100037ec <l11_1>:
100037ec:	2000      	movs	r0, #0
100037ee:	2101      	movs	r1, #1
100037f0:	0509      	lsls	r1, r1, #20
100037f2:	3c80      	subs	r4, #128	; 0x80
100037f4:	0324      	lsls	r4, r4, #12

100037f6 <l11_2>:
100037f6:	46a4      	mov	ip, r4
100037f8:	0d1c      	lsrs	r4, r3, #20
100037fa:	1e67      	subs	r7, r4, #1
100037fc:	053f      	lsls	r7, r7, #20
100037fe:	1bdb      	subs	r3, r3, r7
10003800:	0ae7      	lsrs	r7, r4, #11
10003802:	0564      	lsls	r4, r4, #21
10003804:	0d64      	lsrs	r4, r4, #21
10003806:	d002      	beq.n	1000380e <l12_1>
10003808:	1c65      	adds	r5, r4, #1
1000380a:	0aed      	lsrs	r5, r5, #11
1000380c:	d004      	beq.n	10003818 <l12_2>

1000380e <l12_1>:
1000380e:	2200      	movs	r2, #0
10003810:	2301      	movs	r3, #1
10003812:	051b      	lsls	r3, r3, #20
10003814:	3c80      	subs	r4, #128	; 0x80
10003816:	0324      	lsls	r4, r4, #12

10003818 <l12_2>:
10003818:	4077      	eors	r7, r6
1000381a:	4464      	add	r4, ip
1000381c:	b497      	push	{r0, r1, r2, r4, r7}
1000381e:	b284      	uxth	r4, r0
10003820:	b296      	uxth	r6, r2
10003822:	4374      	muls	r4, r6
10003824:	0c07      	lsrs	r7, r0, #16
10003826:	437e      	muls	r6, r7
10003828:	0c15      	lsrs	r5, r2, #16
1000382a:	436f      	muls	r7, r5
1000382c:	b280      	uxth	r0, r0
1000382e:	4368      	muls	r0, r5
10003830:	1836      	adds	r6, r6, r0
10003832:	d302      	bcc.n	1000383a <l13_1>
10003834:	2001      	movs	r0, #1
10003836:	0400      	lsls	r0, r0, #16
10003838:	183f      	adds	r7, r7, r0

1000383a <l13_1>:
1000383a:	0430      	lsls	r0, r6, #16
1000383c:	0c35      	lsrs	r5, r6, #16
1000383e:	1900      	adds	r0, r0, r4
10003840:	417d      	adcs	r5, r7
10003842:	4684      	mov	ip, r0
10003844:	b288      	uxth	r0, r1
10003846:	b29a      	uxth	r2, r3
10003848:	4350      	muls	r0, r2
1000384a:	0c0c      	lsrs	r4, r1, #16
1000384c:	4362      	muls	r2, r4
1000384e:	0c1f      	lsrs	r7, r3, #16
10003850:	437c      	muls	r4, r7
10003852:	b28e      	uxth	r6, r1
10003854:	437e      	muls	r6, r7
10003856:	1992      	adds	r2, r2, r6
10003858:	d302      	bcc.n	10003860 <l14_1>
1000385a:	2601      	movs	r6, #1
1000385c:	0436      	lsls	r6, r6, #16
1000385e:	19a4      	adds	r4, r4, r6

10003860 <l14_1>:
10003860:	0416      	lsls	r6, r2, #16
10003862:	0c17      	lsrs	r7, r2, #16
10003864:	1836      	adds	r6, r6, r0
10003866:	4167      	adcs	r7, r4
10003868:	bc01      	pop	{r0}
1000386a:	b281      	uxth	r1, r0
1000386c:	b29a      	uxth	r2, r3
1000386e:	4351      	muls	r1, r2
10003870:	0c04      	lsrs	r4, r0, #16
10003872:	4362      	muls	r2, r4
10003874:	0c1b      	lsrs	r3, r3, #16
10003876:	435c      	muls	r4, r3
10003878:	b280      	uxth	r0, r0
1000387a:	4358      	muls	r0, r3
1000387c:	1812      	adds	r2, r2, r0
1000387e:	d302      	bcc.n	10003886 <l15_1>
10003880:	2001      	movs	r0, #1
10003882:	0400      	lsls	r0, r0, #16
10003884:	1824      	adds	r4, r4, r0

10003886 <l15_1>:
10003886:	0410      	lsls	r0, r2, #16
10003888:	0c13      	lsrs	r3, r2, #16
1000388a:	1840      	adds	r0, r0, r1
1000388c:	4163      	adcs	r3, r4
1000388e:	182d      	adds	r5, r5, r0
10003890:	415e      	adcs	r6, r3
10003892:	2000      	movs	r0, #0
10003894:	4147      	adcs	r7, r0
10003896:	bc06      	pop	{r1, r2}
10003898:	b288      	uxth	r0, r1
1000389a:	b293      	uxth	r3, r2
1000389c:	4358      	muls	r0, r3
1000389e:	0c0c      	lsrs	r4, r1, #16
100038a0:	4363      	muls	r3, r4
100038a2:	0c12      	lsrs	r2, r2, #16
100038a4:	4354      	muls	r4, r2
100038a6:	b289      	uxth	r1, r1
100038a8:	4351      	muls	r1, r2
100038aa:	185b      	adds	r3, r3, r1
100038ac:	d302      	bcc.n	100038b4 <l16_1>
100038ae:	2101      	movs	r1, #1
100038b0:	0409      	lsls	r1, r1, #16
100038b2:	1864      	adds	r4, r4, r1

100038b4 <l16_1>:
100038b4:	0419      	lsls	r1, r3, #16
100038b6:	0c1a      	lsrs	r2, r3, #16
100038b8:	1809      	adds	r1, r1, r0
100038ba:	4162      	adcs	r2, r4
100038bc:	186d      	adds	r5, r5, r1
100038be:	4156      	adcs	r6, r2
100038c0:	2000      	movs	r0, #0
100038c2:	4147      	adcs	r7, r0
100038c4:	bc18      	pop	{r3, r4}
100038c6:	02f9      	lsls	r1, r7, #11
100038c8:	0d72      	lsrs	r2, r6, #21
100038ca:	4311      	orrs	r1, r2
100038cc:	02f0      	lsls	r0, r6, #11
100038ce:	0d6a      	lsrs	r2, r5, #21
100038d0:	4310      	orrs	r0, r2
100038d2:	02ed      	lsls	r5, r5, #11
100038d4:	0d0a      	lsrs	r2, r1, #20
100038d6:	d103      	bne.n	100038e0 <l16_1+0x2c>
100038d8:	196d      	adds	r5, r5, r5
100038da:	4140      	adcs	r0, r0
100038dc:	4149      	adcs	r1, r1
100038de:	3b01      	subs	r3, #1
100038e0:	4e12      	ldr	r6, [pc, #72]	; (1000392c <dm_1+0xa>)
100038e2:	1b9b      	subs	r3, r3, r6
100038e4:	0076      	lsls	r6, r6, #1
100038e6:	42b3      	cmp	r3, r6
100038e8:	d20e      	bcs.n	10003908 <dm_0>
100038ea:	006d      	lsls	r5, r5, #1
100038ec:	d307      	bcc.n	100038fe <l16_1+0x4a>
100038ee:	3001      	adds	r0, #1
100038f0:	2600      	movs	r6, #0
100038f2:	4171      	adcs	r1, r6
100038f4:	4666      	mov	r6, ip
100038f6:	4335      	orrs	r5, r6
100038f8:	d101      	bne.n	100038fe <l16_1+0x4a>
100038fa:	0840      	lsrs	r0, r0, #1
100038fc:	0040      	lsls	r0, r0, #1
100038fe:	051b      	lsls	r3, r3, #20
10003900:	18c9      	adds	r1, r1, r3

10003902 <dm_2>:
10003902:	07e4      	lsls	r4, r4, #31
10003904:	4421      	add	r1, r4
10003906:	bdf0      	pop	{r4, r5, r6, r7, pc}

10003908 <dm_0>:
10003908:	da0b      	bge.n	10003922 <dm_1>
1000390a:	3301      	adds	r3, #1
1000390c:	d106      	bne.n	1000391c <dm_0+0x14>
1000390e:	3001      	adds	r0, #1
10003910:	d104      	bne.n	1000391c <dm_0+0x14>
10003912:	3101      	adds	r1, #1
10003914:	0d4f      	lsrs	r7, r1, #21
10003916:	d001      	beq.n	1000391c <dm_0+0x14>
10003918:	0849      	lsrs	r1, r1, #1
1000391a:	e7f2      	b.n	10003902 <dm_2>
1000391c:	07e1      	lsls	r1, r4, #31
1000391e:	2000      	movs	r0, #0
10003920:	bdf0      	pop	{r4, r5, r6, r7, pc}

10003922 <dm_1>:
10003922:	3601      	adds	r6, #1
10003924:	0531      	lsls	r1, r6, #20
10003926:	2000      	movs	r0, #0
10003928:	e7eb      	b.n	10003902 <dm_2>
1000392a:	0000      	.short	0x0000
1000392c:	000003ff 	.word	0x000003ff

10003930 <ddiv_shim>:
10003930:	b5f0      	push	{r4, r5, r6, r7, lr}

10003932 <ddiv0>:
10003932:	0d1c      	lsrs	r4, r3, #20
10003934:	1e67      	subs	r7, r4, #1
10003936:	053f      	lsls	r7, r7, #20
10003938:	1bdb      	subs	r3, r3, r7
1000393a:	0ae7      	lsrs	r7, r4, #11
1000393c:	0564      	lsls	r4, r4, #21
1000393e:	0d64      	lsrs	r4, r4, #21
10003940:	d002      	beq.n	10003948 <l19_1>
10003942:	1c66      	adds	r6, r4, #1
10003944:	0af6      	lsrs	r6, r6, #11
10003946:	d004      	beq.n	10003952 <l19_2>

10003948 <l19_1>:
10003948:	2200      	movs	r2, #0
1000394a:	2301      	movs	r3, #1
1000394c:	051b      	lsls	r3, r3, #20
1000394e:	3c80      	subs	r4, #128	; 0x80
10003950:	0324      	lsls	r4, r4, #12

10003952 <l19_2>:
10003952:	25d0      	movs	r5, #208	; 0xd0
10003954:	062d      	lsls	r5, r5, #24
10003956:	2600      	movs	r6, #0
10003958:	43f6      	mvns	r6, r6
1000395a:	662e      	str	r6, [r5, #96]	; 0x60
1000395c:	091e      	lsrs	r6, r3, #4
1000395e:	666e      	str	r6, [r5, #100]	; 0x64
10003960:	0fce      	lsrs	r6, r1, #31
10003962:	19f6      	adds	r6, r6, r7
10003964:	46b4      	mov	ip, r6
10003966:	0049      	lsls	r1, r1, #1
10003968:	0d4f      	lsrs	r7, r1, #21
1000396a:	d002      	beq.n	10003972 <l19_2+0x20>
1000396c:	1c7e      	adds	r6, r7, #1
1000396e:	0af6      	lsrs	r6, r6, #11
10003970:	d003      	beq.n	1000397a <l19_2+0x28>
10003972:	2000      	movs	r0, #0
10003974:	2100      	movs	r1, #0
10003976:	3f40      	subs	r7, #64	; 0x40
10003978:	033f      	lsls	r7, r7, #12
1000397a:	1b3e      	subs	r6, r7, r4
1000397c:	00b6      	lsls	r6, r6, #2
1000397e:	44b4      	add	ip, r6
10003980:	3f01      	subs	r7, #1
10003982:	057f      	lsls	r7, r7, #21
10003984:	1bc9      	subs	r1, r1, r7
10003986:	0849      	lsrs	r1, r1, #1
10003988:	6f2e      	ldr	r6, [r5, #112]	; 0x70
1000398a:	3601      	adds	r6, #1
1000398c:	0876      	lsrs	r6, r6, #1
1000398e:	029c      	lsls	r4, r3, #10
10003990:	0d95      	lsrs	r5, r2, #22
10003992:	4325      	orrs	r5, r4
10003994:	4375      	muls	r5, r6
10003996:	13ed      	asrs	r5, r5, #15
10003998:	4375      	muls	r5, r6
1000399a:	13ad      	asrs	r5, r5, #14
1000399c:	3501      	adds	r5, #1
1000399e:	106d      	asrs	r5, r5, #1
100039a0:	03f6      	lsls	r6, r6, #15
100039a2:	1b76      	subs	r6, r6, r5
100039a4:	b40c      	push	{r2, r3}
100039a6:	02cc      	lsls	r4, r1, #11
100039a8:	0d45      	lsrs	r5, r0, #21
100039aa:	432c      	orrs	r4, r5
100039ac:	b2a2      	uxth	r2, r4
100039ae:	b2b3      	uxth	r3, r6
100039b0:	435a      	muls	r2, r3
100039b2:	0c27      	lsrs	r7, r4, #16
100039b4:	437b      	muls	r3, r7
100039b6:	0c35      	lsrs	r5, r6, #16
100039b8:	436f      	muls	r7, r5
100039ba:	b2a4      	uxth	r4, r4
100039bc:	436c      	muls	r4, r5
100039be:	191b      	adds	r3, r3, r4
100039c0:	d302      	bcc.n	100039c8 <l20_1>
100039c2:	2401      	movs	r4, #1
100039c4:	0424      	lsls	r4, r4, #16
100039c6:	193f      	adds	r7, r7, r4

100039c8 <l20_1>:
100039c8:	041c      	lsls	r4, r3, #16
100039ca:	0c1d      	lsrs	r5, r3, #16
100039cc:	18a4      	adds	r4, r4, r2
100039ce:	417d      	adcs	r5, r7
100039d0:	1924      	adds	r4, r4, r4
100039d2:	416d      	adcs	r5, r5
100039d4:	9a00      	ldr	r2, [sp, #0]
100039d6:	b291      	uxth	r1, r2
100039d8:	b2ac      	uxth	r4, r5
100039da:	4361      	muls	r1, r4
100039dc:	0c17      	lsrs	r7, r2, #16
100039de:	437c      	muls	r4, r7
100039e0:	0c2b      	lsrs	r3, r5, #16
100039e2:	435f      	muls	r7, r3
100039e4:	b292      	uxth	r2, r2
100039e6:	435a      	muls	r2, r3
100039e8:	18a4      	adds	r4, r4, r2
100039ea:	d302      	bcc.n	100039f2 <l21_1>
100039ec:	2201      	movs	r2, #1
100039ee:	0412      	lsls	r2, r2, #16
100039f0:	18bf      	adds	r7, r7, r2

100039f2 <l21_1>:
100039f2:	0422      	lsls	r2, r4, #16
100039f4:	0c23      	lsrs	r3, r4, #16
100039f6:	1852      	adds	r2, r2, r1
100039f8:	417b      	adcs	r3, r7
100039fa:	9c01      	ldr	r4, [sp, #4]
100039fc:	436c      	muls	r4, r5
100039fe:	191b      	adds	r3, r3, r4
10003a00:	0e52      	lsrs	r2, r2, #25
10003a02:	01d9      	lsls	r1, r3, #7
10003a04:	430a      	orrs	r2, r1
10003a06:	0144      	lsls	r4, r0, #5
10003a08:	1aa0      	subs	r0, r4, r2
10003a0a:	b281      	uxth	r1, r0
10003a0c:	b2b2      	uxth	r2, r6
10003a0e:	4351      	muls	r1, r2
10003a10:	1403      	asrs	r3, r0, #16
10003a12:	435a      	muls	r2, r3
10003a14:	0c36      	lsrs	r6, r6, #16
10003a16:	4373      	muls	r3, r6
10003a18:	b287      	uxth	r7, r0
10003a1a:	4377      	muls	r7, r6
10003a1c:	17d6      	asrs	r6, r2, #31
10003a1e:	19d2      	adds	r2, r2, r7
10003a20:	2700      	movs	r7, #0
10003a22:	417e      	adcs	r6, r7
10003a24:	0436      	lsls	r6, r6, #16
10003a26:	199b      	adds	r3, r3, r6
10003a28:	0417      	lsls	r7, r2, #16
10003a2a:	0c16      	lsrs	r6, r2, #16
10003a2c:	187f      	adds	r7, r7, r1
10003a2e:	415e      	adcs	r6, r3
10003a30:	1673      	asrs	r3, r6, #25
10003a32:	18ed      	adds	r5, r5, r3
10003a34:	01f3      	lsls	r3, r6, #7
10003a36:	2600      	movs	r6, #0
10003a38:	3380      	adds	r3, #128	; 0x80
10003a3a:	4175      	adcs	r5, r6
10003a3c:	0fa9      	lsrs	r1, r5, #30
10003a3e:	d106      	bne.n	10003a4e <dd_0>
10003a40:	0064      	lsls	r4, r4, #1
10003a42:	0a69      	lsrs	r1, r5, #9
10003a44:	05e8      	lsls	r0, r5, #23
10003a46:	0a5b      	lsrs	r3, r3, #9
10003a48:	4318      	orrs	r0, r3
10003a4a:	d209      	bcs.n	10003a60 <dd_1>
10003a4c:	e02f      	b.n	10003aae <dd_2>

10003a4e <dd_0>:
10003a4e:	2204      	movs	r2, #4
10003a50:	4494      	add	ip, r2
10003a52:	3380      	adds	r3, #128	; 0x80
10003a54:	4175      	adcs	r5, r6
10003a56:	0aa9      	lsrs	r1, r5, #10
10003a58:	05a8      	lsls	r0, r5, #22
10003a5a:	0a9b      	lsrs	r3, r3, #10
10003a5c:	4318      	orrs	r0, r3
10003a5e:	d326      	bcc.n	10003aae <dd_2>

10003a60 <dd_1>:
10003a60:	4140      	adcs	r0, r0
10003a62:	4149      	adcs	r1, r1
10003a64:	0424      	lsls	r4, r4, #16
10003a66:	9a00      	ldr	r2, [sp, #0]
10003a68:	9b01      	ldr	r3, [sp, #4]
10003a6a:	000d      	movs	r5, r1
10003a6c:	4355      	muls	r5, r2
10003a6e:	1b64      	subs	r4, r4, r5
10003a70:	4343      	muls	r3, r0
10003a72:	1ae4      	subs	r4, r4, r3
10003a74:	b295      	uxth	r5, r2
10003a76:	b286      	uxth	r6, r0
10003a78:	4375      	muls	r5, r6
10003a7a:	0c17      	lsrs	r7, r2, #16
10003a7c:	437e      	muls	r6, r7
10003a7e:	0c03      	lsrs	r3, r0, #16
10003a80:	435f      	muls	r7, r3
10003a82:	b292      	uxth	r2, r2
10003a84:	435a      	muls	r2, r3
10003a86:	18b6      	adds	r6, r6, r2
10003a88:	d302      	bcc.n	10003a90 <l23_1>
10003a8a:	2201      	movs	r2, #1
10003a8c:	0412      	lsls	r2, r2, #16
10003a8e:	18bf      	adds	r7, r7, r2

10003a90 <l23_1>:
10003a90:	0432      	lsls	r2, r6, #16
10003a92:	0c33      	lsrs	r3, r6, #16
10003a94:	1952      	adds	r2, r2, r5
10003a96:	417b      	adcs	r3, r7
10003a98:	4252      	negs	r2, r2
10003a9a:	419c      	sbcs	r4, r3
10003a9c:	2c00      	cmp	r4, #0
10003a9e:	d402      	bmi.n	10003aa6 <l23_1+0x16>
10003aa0:	2200      	movs	r2, #0
10003aa2:	3001      	adds	r0, #1
10003aa4:	4151      	adcs	r1, r2
10003aa6:	0840      	lsrs	r0, r0, #1
10003aa8:	07ca      	lsls	r2, r1, #31
10003aaa:	4310      	orrs	r0, r2
10003aac:	0849      	lsrs	r1, r1, #1

10003aae <dd_2>:
10003aae:	b002      	add	sp, #8
10003ab0:	4662      	mov	r2, ip
10003ab2:	07d7      	lsls	r7, r2, #31
10003ab4:	1092      	asrs	r2, r2, #2
10003ab6:	4b08      	ldr	r3, [pc, #32]	; (10003ad8 <dd_4+0x6>)
10003ab8:	18d2      	adds	r2, r2, r3
10003aba:	4b08      	ldr	r3, [pc, #32]	; (10003adc <dd_4+0xa>)
10003abc:	429a      	cmp	r2, r3
10003abe:	d203      	bcs.n	10003ac8 <dd_3>
10003ac0:	0512      	lsls	r2, r2, #20
10003ac2:	1889      	adds	r1, r1, r2

10003ac4 <dd_5>:
10003ac4:	19c9      	adds	r1, r1, r7
10003ac6:	bdf0      	pop	{r4, r5, r6, r7, pc}

10003ac8 <dd_3>:
10003ac8:	2000      	movs	r0, #0
10003aca:	2a00      	cmp	r2, #0
10003acc:	dc01      	bgt.n	10003ad2 <dd_4>
10003ace:	0039      	movs	r1, r7
10003ad0:	bdf0      	pop	{r4, r5, r6, r7, pc}

10003ad2 <dd_4>:
10003ad2:	3301      	adds	r3, #1
10003ad4:	0519      	lsls	r1, r3, #20
10003ad6:	e7f5      	b.n	10003ac4 <dd_5>
10003ad8:	000003fd 	.word	0x000003fd
10003adc:	000007fe 	.word	0x000007fe

10003ae0 <dcordic_rot_step>:
10003ae0:	4662      	mov	r2, ip
10003ae2:	ca18      	ldmia	r2!, {r3, r4}
10003ae4:	4694      	mov	ip, r2
10003ae6:	2900      	cmp	r1, #0
10003ae8:	da1a      	bge.n	10003b20 <dcordic_rot_step+0x40>
10003aea:	18c0      	adds	r0, r0, r3
10003aec:	4161      	adcs	r1, r4
10003aee:	465b      	mov	r3, fp
10003af0:	413b      	asrs	r3, r7
10003af2:	465c      	mov	r4, fp
10003af4:	40b4      	lsls	r4, r6
10003af6:	4652      	mov	r2, sl
10003af8:	40fa      	lsrs	r2, r7
10003afa:	4322      	orrs	r2, r4
10003afc:	4644      	mov	r4, r8
10003afe:	464d      	mov	r5, r9
10003b00:	4162      	adcs	r2, r4
10003b02:	416b      	adcs	r3, r5
10003b04:	4690      	mov	r8, r2
10003b06:	4699      	mov	r9, r3
10003b08:	462b      	mov	r3, r5
10003b0a:	40b3      	lsls	r3, r6
10003b0c:	413d      	asrs	r5, r7
10003b0e:	40fc      	lsrs	r4, r7
10003b10:	431c      	orrs	r4, r3
10003b12:	4652      	mov	r2, sl
10003b14:	465b      	mov	r3, fp
10003b16:	41a2      	sbcs	r2, r4
10003b18:	41ab      	sbcs	r3, r5
10003b1a:	4692      	mov	sl, r2
10003b1c:	469b      	mov	fp, r3
10003b1e:	4770      	bx	lr
10003b20:	1ac0      	subs	r0, r0, r3
10003b22:	41a1      	sbcs	r1, r4
10003b24:	464b      	mov	r3, r9
10003b26:	413b      	asrs	r3, r7
10003b28:	464c      	mov	r4, r9
10003b2a:	40b4      	lsls	r4, r6
10003b2c:	4642      	mov	r2, r8
10003b2e:	40fa      	lsrs	r2, r7
10003b30:	4322      	orrs	r2, r4
10003b32:	4654      	mov	r4, sl
10003b34:	465d      	mov	r5, fp
10003b36:	4162      	adcs	r2, r4
10003b38:	416b      	adcs	r3, r5
10003b3a:	4692      	mov	sl, r2
10003b3c:	469b      	mov	fp, r3
10003b3e:	462b      	mov	r3, r5
10003b40:	40b3      	lsls	r3, r6
10003b42:	413d      	asrs	r5, r7
10003b44:	40fc      	lsrs	r4, r7
10003b46:	431c      	orrs	r4, r3
10003b48:	4642      	mov	r2, r8
10003b4a:	464b      	mov	r3, r9
10003b4c:	41a2      	sbcs	r2, r4
10003b4e:	41ab      	sbcs	r3, r5
10003b50:	4690      	mov	r8, r2
10003b52:	4699      	mov	r9, r3
10003b54:	4770      	bx	lr

10003b56 <ret_dzero>:
10003b56:	2000      	movs	r0, #0
10003b58:	2100      	movs	r1, #0
10003b5a:	4770      	bx	lr

10003b5c <double2uint_shim>:
10003b5c:	2200      	movs	r2, #0

10003b5e <double2ufix_shim>:
10003b5e:	b500      	push	{lr}
10003b60:	3220      	adds	r2, #32
10003b62:	f000 f804 	bl	10003b6e <double2ufix64_shim>
10003b66:	0008      	movs	r0, r1
10003b68:	bd00      	pop	{pc}
	...

10003b6c <double2uint64_shim>:
10003b6c:	2200      	movs	r2, #0

10003b6e <double2ufix64_shim>:
10003b6e:	150b      	asrs	r3, r1, #20
10003b70:	d4f1      	bmi.n	10003b56 <ret_dzero>

10003b72 <d2fix>:
10003b72:	b510      	push	{r4, lr}
10003b74:	4694      	mov	ip, r2
10003b76:	f000 f82f 	bl	10003bd8 <dunpacks>
10003b7a:	1414      	asrs	r4, r2, #16
10003b7c:	3401      	adds	r4, #1
10003b7e:	da00      	bge.n	10003b82 <d2fix+0x10>
10003b80:	2100      	movs	r1, #0
10003b82:	17cb      	asrs	r3, r1, #31
10003b84:	4c13      	ldr	r4, [pc, #76]	; (10003bd4 <d2fix_a+0x4c>)
10003b86:	4720      	bx	r4

10003b88 <d2fix_a>:
10003b88:	4462      	add	r2, ip
10003b8a:	3a34      	subs	r2, #52	; 0x34
10003b8c:	d40c      	bmi.n	10003ba8 <d2fix_a+0x20>
10003b8e:	2a0c      	cmp	r2, #12
10003b90:	da07      	bge.n	10003ba2 <d2fix_a+0x1a>
10003b92:	0004      	movs	r4, r0
10003b94:	4091      	lsls	r1, r2
10003b96:	4090      	lsls	r0, r2
10003b98:	4252      	negs	r2, r2
10003b9a:	3220      	adds	r2, #32
10003b9c:	40d4      	lsrs	r4, r2
10003b9e:	4321      	orrs	r1, r4
10003ba0:	bd10      	pop	{r4, pc}
10003ba2:	43d8      	mvns	r0, r3
10003ba4:	43d9      	mvns	r1, r3
10003ba6:	bd10      	pop	{r4, pc}
10003ba8:	3220      	adds	r2, #32
10003baa:	d407      	bmi.n	10003bbc <d2fix_a+0x34>
10003bac:	460c      	mov	r4, r1
10003bae:	4094      	lsls	r4, r2
10003bb0:	4252      	negs	r2, r2
10003bb2:	3220      	adds	r2, #32
10003bb4:	4111      	asrs	r1, r2
10003bb6:	40d0      	lsrs	r0, r2
10003bb8:	4320      	orrs	r0, r4
10003bba:	bd10      	pop	{r4, pc}
10003bbc:	0008      	movs	r0, r1
10003bbe:	17c9      	asrs	r1, r1, #31
10003bc0:	3220      	adds	r2, #32
10003bc2:	d403      	bmi.n	10003bcc <d2fix_a+0x44>
10003bc4:	4252      	negs	r2, r2
10003bc6:	3220      	adds	r2, #32
10003bc8:	4110      	asrs	r0, r2
10003bca:	bd10      	pop	{r4, pc}
10003bcc:	0018      	movs	r0, r3
10003bce:	0019      	movs	r1, r3
10003bd0:	bd10      	pop	{r4, pc}
10003bd2:	0000      	.short	0x0000
10003bd4:	10003b89 	.word	0x10003b89

10003bd8 <dunpacks>:
10003bd8:	0d0a      	lsrs	r2, r1, #20
10003bda:	0fcc      	lsrs	r4, r1, #31
10003bdc:	1e53      	subs	r3, r2, #1
10003bde:	051b      	lsls	r3, r3, #20
10003be0:	1ac9      	subs	r1, r1, r3
10003be2:	0552      	lsls	r2, r2, #21
10003be4:	d303      	bcc.n	10003bee <l60_1>
10003be6:	43c9      	mvns	r1, r1
10003be8:	4240      	negs	r0, r0
10003bea:	d300      	bcc.n	10003bee <l60_1>
10003bec:	3101      	adds	r1, #1

10003bee <l60_1>:
10003bee:	0d52      	lsrs	r2, r2, #21
10003bf0:	d003      	beq.n	10003bfa <l60_2>
10003bf2:	1c53      	adds	r3, r2, #1
10003bf4:	0adb      	lsrs	r3, r3, #11
10003bf6:	d007      	beq.n	10003c08 <l60_3>
10003bf8:	1b12      	subs	r2, r2, r4

10003bfa <l60_2>:
10003bfa:	2000      	movs	r0, #0
10003bfc:	0064      	lsls	r4, r4, #1
10003bfe:	1c61      	adds	r1, r4, #1
10003c00:	0789      	lsls	r1, r1, #30
10003c02:	1289      	asrs	r1, r1, #10
10003c04:	3a80      	subs	r2, #128	; 0x80
10003c06:	0312      	lsls	r2, r2, #12

10003c08 <l60_3>:
10003c08:	4b01      	ldr	r3, [pc, #4]	; (10003c10 <l60_3+0x8>)
10003c0a:	1ad2      	subs	r2, r2, r3
10003c0c:	4770      	bx	lr
10003c0e:	0000      	.short	0x0000
10003c10:	000003ff 	.word	0x000003ff

10003c14 <__aeabi_float_init>:
10003c14:	2313      	movs	r3, #19
10003c16:	b510      	push	{r4, lr}
10003c18:	4812      	ldr	r0, [pc, #72]	; (10003c64 <__aeabi_float_init+0x50>)
10003c1a:	781c      	ldrb	r4, [r3, #0]
10003c1c:	f7ff f94e 	bl	10002ebc <rom_data_lookup>
10003c20:	0001      	movs	r1, r0
10003c22:	2c01      	cmp	r4, #1
10003c24:	d00a      	beq.n	10003c3c <__aeabi_float_init+0x28>
10003c26:	dd03      	ble.n	10003c30 <__aeabi_float_init+0x1c>
10003c28:	2280      	movs	r2, #128	; 0x80
10003c2a:	480f      	ldr	r0, [pc, #60]	; (10003c68 <__aeabi_float_init+0x54>)
10003c2c:	f000 f850 	bl	10003cd0 <__wrap___aeabi_memcpy>
10003c30:	480e      	ldr	r0, [pc, #56]	; (10003c6c <__aeabi_float_init+0x58>)
10003c32:	f7ff f93b 	bl	10002eac <rom_func_lookup>
10003c36:	4b0e      	ldr	r3, [pc, #56]	; (10003c70 <__aeabi_float_init+0x5c>)
10003c38:	6018      	str	r0, [r3, #0]
10003c3a:	bd10      	pop	{r4, pc}
10003c3c:	4c0a      	ldr	r4, [pc, #40]	; (10003c68 <__aeabi_float_init+0x54>)
10003c3e:	2254      	movs	r2, #84	; 0x54
10003c40:	0020      	movs	r0, r4
10003c42:	f000 f845 	bl	10003cd0 <__wrap___aeabi_memcpy>
10003c46:	4b0b      	ldr	r3, [pc, #44]	; (10003c74 <__aeabi_float_init+0x60>)
10003c48:	6563      	str	r3, [r4, #84]	; 0x54
10003c4a:	65a3      	str	r3, [r4, #88]	; 0x58
10003c4c:	65e3      	str	r3, [r4, #92]	; 0x5c
10003c4e:	6623      	str	r3, [r4, #96]	; 0x60
10003c50:	6663      	str	r3, [r4, #100]	; 0x64
10003c52:	66a3      	str	r3, [r4, #104]	; 0x68
10003c54:	66e3      	str	r3, [r4, #108]	; 0x6c
10003c56:	6723      	str	r3, [r4, #112]	; 0x70
10003c58:	6763      	str	r3, [r4, #116]	; 0x74
10003c5a:	67a3      	str	r3, [r4, #120]	; 0x78
10003c5c:	67e3      	str	r3, [r4, #124]	; 0x7c
10003c5e:	6223      	str	r3, [r4, #32]
10003c60:	61e3      	str	r3, [r4, #28]
10003c62:	e7e5      	b.n	10003c30 <__aeabi_float_init+0x1c>
10003c64:	00004653 	.word	0x00004653
10003c68:	20000c38 	.word	0x20000c38
10003c6c:	0000334c 	.word	0x0000334c
10003c70:	20000d38 	.word	0x20000d38
10003c74:	10003c79 	.word	0x10003c79

10003c78 <float_table_shim_on_use_helper>:
10003c78:	b507      	push	{r0, r1, r2, lr}
10003c7a:	4660      	mov	r0, ip
10003c7c:	8801      	ldrh	r1, [r0, #0]
10003c7e:	0a0a      	lsrs	r2, r1, #8
10003c80:	3002      	adds	r0, #2
10003c82:	2adf      	cmp	r2, #223	; 0xdf
10003c84:	d1fa      	bne.n	10003c7c <float_table_shim_on_use_helper+0x4>
10003c86:	b2c9      	uxtb	r1, r1
10003c88:	0882      	lsrs	r2, r0, #2
10003c8a:	d304      	bcc.n	10003c96 <float_table_shim_on_use_helper+0x1e>
10003c8c:	8802      	ldrh	r2, [r0, #0]
10003c8e:	8840      	ldrh	r0, [r0, #2]
10003c90:	0400      	lsls	r0, r0, #16
10003c92:	4310      	orrs	r0, r2
10003c94:	e000      	b.n	10003c98 <float_table_shim_on_use_helper+0x20>
10003c96:	6800      	ldr	r0, [r0, #0]
10003c98:	4a01      	ldr	r2, [pc, #4]	; (10003ca0 <float_table_shim_on_use_helper+0x28>)
10003c9a:	5050      	str	r0, [r2, r1]
10003c9c:	9003      	str	r0, [sp, #12]
10003c9e:	bd07      	pop	{r0, r1, r2, pc}
10003ca0:	20000c38 	.word	0x20000c38

10003ca4 <__wrap_malloc>:
10003ca4:	b510      	push	{r4, lr}
10003ca6:	f000 fbfb 	bl	100044a0 <malloc>
10003caa:	bd10      	pop	{r4, pc}

10003cac <__wrap_calloc>:
10003cac:	b510      	push	{r4, lr}
10003cae:	f000 fbbd 	bl	1000442c <calloc>
10003cb2:	bd10      	pop	{r4, pc}

10003cb4 <__aeabi_mem_init>:
10003cb4:	4801      	ldr	r0, [pc, #4]	; (10003cbc <__aeabi_mem_init+0x8>)
10003cb6:	2104      	movs	r1, #4
10003cb8:	4b01      	ldr	r3, [pc, #4]	; (10003cc0 <__aeabi_mem_init+0xc>)
10003cba:	4718      	bx	r3
10003cbc:	200001f0 	.word	0x200001f0
10003cc0:	10002ecd 	.word	0x10002ecd

10003cc4 <__wrap_memset>:
10003cc4:	4b01      	ldr	r3, [pc, #4]	; (10003ccc <__wrap_memset+0x8>)
10003cc6:	681b      	ldr	r3, [r3, #0]
10003cc8:	4718      	bx	r3
10003cca:	0000      	.short	0x0000
10003ccc:	200001f0 	.word	0x200001f0

10003cd0 <__wrap___aeabi_memcpy>:
10003cd0:	4b01      	ldr	r3, [pc, #4]	; (10003cd8 <__wrap___aeabi_memcpy+0x8>)
10003cd2:	685b      	ldr	r3, [r3, #4]
10003cd4:	4718      	bx	r3
10003cd6:	0000      	.short	0x0000
10003cd8:	200001f0 	.word	0x200001f0

10003cdc <stdio_out_chars_crlf.part.0>:
10003cdc:	b5f8      	push	{r3, r4, r5, r6, r7, lr}
10003cde:	4647      	mov	r7, r8
10003ce0:	46ce      	mov	lr, r9
10003ce2:	000d      	movs	r5, r1
10003ce4:	b580      	push	{r7, lr}
10003ce6:	0016      	movs	r6, r2
10003ce8:	0007      	movs	r7, r0
10003cea:	2a00      	cmp	r2, #0
10003cec:	dd20      	ble.n	10003d30 <stdio_out_chars_crlf.part.0+0x54>
10003cee:	1e4b      	subs	r3, r1, #1
10003cf0:	4698      	mov	r8, r3
10003cf2:	4b1a      	ldr	r3, [pc, #104]	; (10003d5c <stdio_out_chars_crlf.part.0+0x80>)
10003cf4:	2400      	movs	r4, #0
10003cf6:	2000      	movs	r0, #0
10003cf8:	4699      	mov	r9, r3
10003cfa:	2c00      	cmp	r4, #0
10003cfc:	d02b      	beq.n	10003d56 <stdio_out_chars_crlf.part.0+0x7a>
10003cfe:	4643      	mov	r3, r8
10003d00:	5d1b      	ldrb	r3, [r3, r4]
10003d02:	3b0d      	subs	r3, #13
10003d04:	425a      	negs	r2, r3
10003d06:	4153      	adcs	r3, r2
10003d08:	b2db      	uxtb	r3, r3
10003d0a:	5d2a      	ldrb	r2, [r5, r4]
10003d0c:	2a0a      	cmp	r2, #10
10003d0e:	d013      	beq.n	10003d38 <stdio_out_chars_crlf.part.0+0x5c>
10003d10:	3401      	adds	r4, #1
10003d12:	42a6      	cmp	r6, r4
10003d14:	dcf1      	bgt.n	10003cfa <stdio_out_chars_crlf.part.0+0x1e>
10003d16:	4286      	cmp	r6, r0
10003d18:	dd03      	ble.n	10003d22 <stdio_out_chars_crlf.part.0+0x46>
10003d1a:	1a31      	subs	r1, r6, r0
10003d1c:	683b      	ldr	r3, [r7, #0]
10003d1e:	1828      	adds	r0, r5, r0
10003d20:	4798      	blx	r3
10003d22:	19ad      	adds	r5, r5, r6
10003d24:	3d01      	subs	r5, #1
10003d26:	782b      	ldrb	r3, [r5, #0]
10003d28:	3b0d      	subs	r3, #13
10003d2a:	425a      	negs	r2, r3
10003d2c:	4153      	adcs	r3, r2
10003d2e:	743b      	strb	r3, [r7, #16]
10003d30:	bc0c      	pop	{r2, r3}
10003d32:	4690      	mov	r8, r2
10003d34:	4699      	mov	r9, r3
10003d36:	bdf8      	pop	{r3, r4, r5, r6, r7, pc}
10003d38:	2b00      	cmp	r3, #0
10003d3a:	d1e9      	bne.n	10003d10 <stdio_out_chars_crlf.part.0+0x34>
10003d3c:	42a0      	cmp	r0, r4
10003d3e:	da03      	bge.n	10003d48 <stdio_out_chars_crlf.part.0+0x6c>
10003d40:	1a21      	subs	r1, r4, r0
10003d42:	683b      	ldr	r3, [r7, #0]
10003d44:	1828      	adds	r0, r5, r0
10003d46:	4798      	blx	r3
10003d48:	4648      	mov	r0, r9
10003d4a:	2102      	movs	r1, #2
10003d4c:	683b      	ldr	r3, [r7, #0]
10003d4e:	3401      	adds	r4, #1
10003d50:	4798      	blx	r3
10003d52:	0020      	movs	r0, r4
10003d54:	e7dd      	b.n	10003d12 <stdio_out_chars_crlf.part.0+0x36>
10003d56:	7c3b      	ldrb	r3, [r7, #16]
10003d58:	e7d7      	b.n	10003d0a <stdio_out_chars_crlf.part.0+0x2e>
10003d5a:	46c0      	nop			; (mov r8, r8)
10003d5c:	10005204 	.word	0x10005204

10003d60 <stdio_buffered_printer>:
10003d60:	b5f8      	push	{r3, r4, r5, r6, r7, lr}
10003d62:	4647      	mov	r7, r8
10003d64:	46ce      	mov	lr, r9
10003d66:	000c      	movs	r4, r1
10003d68:	6809      	ldr	r1, [r1, #0]
10003d6a:	b580      	push	{r7, lr}
10003d6c:	0007      	movs	r7, r0
10003d6e:	2980      	cmp	r1, #128	; 0x80
10003d70:	d007      	beq.n	10003d82 <stdio_buffered_printer+0x22>
10003d72:	1c4b      	adds	r3, r1, #1
10003d74:	6023      	str	r3, [r4, #0]
10003d76:	1864      	adds	r4, r4, r1
10003d78:	7127      	strb	r7, [r4, #4]
10003d7a:	bc0c      	pop	{r2, r3}
10003d7c:	4690      	mov	r8, r2
10003d7e:	4699      	mov	r9, r3
10003d80:	bdf8      	pop	{r3, r4, r5, r6, r7, pc}
10003d82:	4b13      	ldr	r3, [pc, #76]	; (10003dd0 <stdio_buffered_printer+0x70>)
10003d84:	681d      	ldr	r5, [r3, #0]
10003d86:	2d00      	cmp	r5, #0
10003d88:	d01b      	beq.n	10003dc2 <stdio_buffered_printer+0x62>
10003d8a:	4b12      	ldr	r3, [pc, #72]	; (10003dd4 <stdio_buffered_printer+0x74>)
10003d8c:	4698      	mov	r8, r3
10003d8e:	1d23      	adds	r3, r4, #4
10003d90:	4699      	mov	r9, r3
10003d92:	e002      	b.n	10003d9a <stdio_buffered_printer+0x3a>
10003d94:	68ed      	ldr	r5, [r5, #12]
10003d96:	2d00      	cmp	r5, #0
10003d98:	d013      	beq.n	10003dc2 <stdio_buffered_printer+0x62>
10003d9a:	682e      	ldr	r6, [r5, #0]
10003d9c:	2e00      	cmp	r6, #0
10003d9e:	d0f9      	beq.n	10003d94 <stdio_buffered_printer+0x34>
10003da0:	4643      	mov	r3, r8
10003da2:	681b      	ldr	r3, [r3, #0]
10003da4:	2b00      	cmp	r3, #0
10003da6:	d001      	beq.n	10003dac <stdio_buffered_printer+0x4c>
10003da8:	429d      	cmp	r5, r3
10003daa:	d1f3      	bne.n	10003d94 <stdio_buffered_printer+0x34>
10003dac:	7c6b      	ldrb	r3, [r5, #17]
10003dae:	6822      	ldr	r2, [r4, #0]
10003db0:	2b00      	cmp	r3, #0
10003db2:	d009      	beq.n	10003dc8 <stdio_buffered_printer+0x68>
10003db4:	0028      	movs	r0, r5
10003db6:	4649      	mov	r1, r9
10003db8:	f7ff ff90 	bl	10003cdc <stdio_out_chars_crlf.part.0>
10003dbc:	68ed      	ldr	r5, [r5, #12]
10003dbe:	2d00      	cmp	r5, #0
10003dc0:	d1eb      	bne.n	10003d9a <stdio_buffered_printer+0x3a>
10003dc2:	2301      	movs	r3, #1
10003dc4:	2100      	movs	r1, #0
10003dc6:	e7d5      	b.n	10003d74 <stdio_buffered_printer+0x14>
10003dc8:	0011      	movs	r1, r2
10003dca:	4648      	mov	r0, r9
10003dcc:	47b0      	blx	r6
10003dce:	e7e1      	b.n	10003d94 <stdio_buffered_printer+0x34>
10003dd0:	20000afc 	.word	0x20000afc
10003dd4:	20000b00 	.word	0x20000b00

10003dd8 <stdio_put_string>:
10003dd8:	b5f0      	push	{r4, r5, r6, r7, lr}
10003dda:	4657      	mov	r7, sl
10003ddc:	4645      	mov	r5, r8
10003dde:	46de      	mov	lr, fp
10003de0:	464e      	mov	r6, r9
10003de2:	23d0      	movs	r3, #208	; 0xd0
10003de4:	b5e0      	push	{r5, r6, r7, lr}
10003de6:	061b      	lsls	r3, r3, #24
10003de8:	681c      	ldr	r4, [r3, #0]
10003dea:	4b37      	ldr	r3, [pc, #220]	; (10003ec8 <stdio_put_string+0xf0>)
10003dec:	b083      	sub	sp, #12
10003dee:	0007      	movs	r7, r0
10003df0:	000d      	movs	r5, r1
10003df2:	0018      	movs	r0, r3
10003df4:	a901      	add	r1, sp, #4
10003df6:	4690      	mov	r8, r2
10003df8:	469a      	mov	sl, r3
10003dfa:	f000 ffb9 	bl	10004d70 <__mutex_try_enter_veneer>
10003dfe:	4681      	mov	r9, r0
10003e00:	2800      	cmp	r0, #0
10003e02:	d107      	bne.n	10003e14 <stdio_put_string+0x3c>
10003e04:	9b01      	ldr	r3, [sp, #4]
10003e06:	429c      	cmp	r4, r3
10003e08:	d004      	beq.n	10003e14 <stdio_put_string+0x3c>
10003e0a:	4650      	mov	r0, sl
10003e0c:	f000 ffb8 	bl	10004d80 <__mutex_enter_blocking_veneer>
10003e10:	2301      	movs	r3, #1
10003e12:	4699      	mov	r9, r3
10003e14:	1c6b      	adds	r3, r5, #1
10003e16:	d103      	bne.n	10003e20 <stdio_put_string+0x48>
10003e18:	0038      	movs	r0, r7
10003e1a:	f000 fe2d 	bl	10004a78 <strlen>
10003e1e:	0005      	movs	r5, r0
10003e20:	4b2a      	ldr	r3, [pc, #168]	; (10003ecc <stdio_put_string+0xf4>)
10003e22:	681c      	ldr	r4, [r3, #0]
10003e24:	2c00      	cmp	r4, #0
10003e26:	d02f      	beq.n	10003e88 <stdio_put_string+0xb0>
10003e28:	230a      	movs	r3, #10
10003e2a:	4e29      	ldr	r6, [pc, #164]	; (10003ed0 <stdio_put_string+0xf8>)
10003e2c:	469b      	mov	fp, r3
10003e2e:	e002      	b.n	10003e36 <stdio_put_string+0x5e>
10003e30:	68e4      	ldr	r4, [r4, #12]
10003e32:	2c00      	cmp	r4, #0
10003e34:	d028      	beq.n	10003e88 <stdio_put_string+0xb0>
10003e36:	6822      	ldr	r2, [r4, #0]
10003e38:	2a00      	cmp	r2, #0
10003e3a:	d0f9      	beq.n	10003e30 <stdio_put_string+0x58>
10003e3c:	6833      	ldr	r3, [r6, #0]
10003e3e:	2b00      	cmp	r3, #0
10003e40:	d001      	beq.n	10003e46 <stdio_put_string+0x6e>
10003e42:	42a3      	cmp	r3, r4
10003e44:	d1f4      	bne.n	10003e30 <stdio_put_string+0x58>
10003e46:	7c63      	ldrb	r3, [r4, #17]
10003e48:	2b00      	cmp	r3, #0
10003e4a:	d02a      	beq.n	10003ea2 <stdio_put_string+0xca>
10003e4c:	002a      	movs	r2, r5
10003e4e:	0039      	movs	r1, r7
10003e50:	0020      	movs	r0, r4
10003e52:	f7ff ff43 	bl	10003cdc <stdio_out_chars_crlf.part.0>
10003e56:	4643      	mov	r3, r8
10003e58:	2b00      	cmp	r3, #0
10003e5a:	d0e9      	beq.n	10003e30 <stdio_put_string+0x58>
10003e5c:	466b      	mov	r3, sp
10003e5e:	465a      	mov	r2, fp
10003e60:	711a      	strb	r2, [r3, #4]
10003e62:	7c63      	ldrb	r3, [r4, #17]
10003e64:	2b00      	cmp	r3, #0
10003e66:	d020      	beq.n	10003eaa <stdio_put_string+0xd2>
10003e68:	7c23      	ldrb	r3, [r4, #16]
10003e6a:	2b00      	cmp	r3, #0
10003e6c:	d026      	beq.n	10003ebc <stdio_put_string+0xe4>
10003e6e:	2101      	movs	r1, #1
10003e70:	6823      	ldr	r3, [r4, #0]
10003e72:	a801      	add	r0, sp, #4
10003e74:	4798      	blx	r3
10003e76:	466b      	mov	r3, sp
10003e78:	791b      	ldrb	r3, [r3, #4]
10003e7a:	3b0d      	subs	r3, #13
10003e7c:	425a      	negs	r2, r3
10003e7e:	4153      	adcs	r3, r2
10003e80:	7423      	strb	r3, [r4, #16]
10003e82:	68e4      	ldr	r4, [r4, #12]
10003e84:	2c00      	cmp	r4, #0
10003e86:	d1d6      	bne.n	10003e36 <stdio_put_string+0x5e>
10003e88:	464b      	mov	r3, r9
10003e8a:	2b00      	cmp	r3, #0
10003e8c:	d112      	bne.n	10003eb4 <stdio_put_string+0xdc>
10003e8e:	1e68      	subs	r0, r5, #1
10003e90:	4185      	sbcs	r5, r0
10003e92:	b2e8      	uxtb	r0, r5
10003e94:	b003      	add	sp, #12
10003e96:	bc3c      	pop	{r2, r3, r4, r5}
10003e98:	4690      	mov	r8, r2
10003e9a:	4699      	mov	r9, r3
10003e9c:	46a2      	mov	sl, r4
10003e9e:	46ab      	mov	fp, r5
10003ea0:	bdf0      	pop	{r4, r5, r6, r7, pc}
10003ea2:	0029      	movs	r1, r5
10003ea4:	0038      	movs	r0, r7
10003ea6:	4790      	blx	r2
10003ea8:	e7d5      	b.n	10003e56 <stdio_put_string+0x7e>
10003eaa:	2101      	movs	r1, #1
10003eac:	6823      	ldr	r3, [r4, #0]
10003eae:	a801      	add	r0, sp, #4
10003eb0:	4798      	blx	r3
10003eb2:	e7bd      	b.n	10003e30 <stdio_put_string+0x58>
10003eb4:	4650      	mov	r0, sl
10003eb6:	f000 ff43 	bl	10004d40 <__mutex_exit_veneer>
10003eba:	e7e8      	b.n	10003e8e <stdio_put_string+0xb6>
10003ebc:	2102      	movs	r1, #2
10003ebe:	4805      	ldr	r0, [pc, #20]	; (10003ed4 <stdio_put_string+0xfc>)
10003ec0:	6823      	ldr	r3, [r4, #0]
10003ec2:	4798      	blx	r3
10003ec4:	e7d7      	b.n	10003e76 <stdio_put_string+0x9e>
10003ec6:	46c0      	nop			; (mov r8, r8)
10003ec8:	20000a50 	.word	0x20000a50
10003ecc:	20000afc 	.word	0x20000afc
10003ed0:	20000b00 	.word	0x20000b00
10003ed4:	10005204 	.word	0x10005204

10003ed8 <__wrap_putchar>:
10003ed8:	b510      	push	{r4, lr}
10003eda:	b082      	sub	sp, #8
10003edc:	466b      	mov	r3, sp
10003ede:	0004      	movs	r4, r0
10003ee0:	2200      	movs	r2, #0
10003ee2:	1dd8      	adds	r0, r3, #7
10003ee4:	2101      	movs	r1, #1
10003ee6:	7004      	strb	r4, [r0, #0]
10003ee8:	f7ff ff76 	bl	10003dd8 <stdio_put_string>
10003eec:	0020      	movs	r0, r4
10003eee:	b002      	add	sp, #8
10003ef0:	bd10      	pop	{r4, pc}
10003ef2:	46c0      	nop			; (mov r8, r8)

10003ef4 <__wrap_puts>:
10003ef4:	b570      	push	{r4, r5, r6, lr}
10003ef6:	0004      	movs	r4, r0
10003ef8:	f000 fdbe 	bl	10004a78 <strlen>
10003efc:	2201      	movs	r2, #1
10003efe:	0001      	movs	r1, r0
10003f00:	0005      	movs	r5, r0
10003f02:	0020      	movs	r0, r4
10003f04:	f7ff ff68 	bl	10003dd8 <stdio_put_string>
10003f08:	4b08      	ldr	r3, [pc, #32]	; (10003f2c <__wrap_puts+0x38>)
10003f0a:	681c      	ldr	r4, [r3, #0]
10003f0c:	2c00      	cmp	r4, #0
10003f0e:	d006      	beq.n	10003f1e <__wrap_puts+0x2a>
10003f10:	6863      	ldr	r3, [r4, #4]
10003f12:	2b00      	cmp	r3, #0
10003f14:	d005      	beq.n	10003f22 <__wrap_puts+0x2e>
10003f16:	4798      	blx	r3
10003f18:	68e4      	ldr	r4, [r4, #12]
10003f1a:	2c00      	cmp	r4, #0
10003f1c:	d1f8      	bne.n	10003f10 <__wrap_puts+0x1c>
10003f1e:	0028      	movs	r0, r5
10003f20:	bd70      	pop	{r4, r5, r6, pc}
10003f22:	68e4      	ldr	r4, [r4, #12]
10003f24:	2c00      	cmp	r4, #0
10003f26:	d1f3      	bne.n	10003f10 <__wrap_puts+0x1c>
10003f28:	e7f9      	b.n	10003f1e <__wrap_puts+0x2a>
10003f2a:	46c0      	nop			; (mov r8, r8)
10003f2c:	20000afc 	.word	0x20000afc

10003f30 <stdio_set_driver_enabled>:
10003f30:	4a0d      	ldr	r2, [pc, #52]	; (10003f68 <stdio_set_driver_enabled+0x38>)
10003f32:	6813      	ldr	r3, [r2, #0]
10003f34:	2b00      	cmp	r3, #0
10003f36:	d013      	beq.n	10003f60 <stdio_set_driver_enabled+0x30>
10003f38:	4283      	cmp	r3, r0
10003f3a:	d102      	bne.n	10003f42 <stdio_set_driver_enabled+0x12>
10003f3c:	e009      	b.n	10003f52 <stdio_set_driver_enabled+0x22>
10003f3e:	4298      	cmp	r0, r3
10003f40:	d008      	beq.n	10003f54 <stdio_set_driver_enabled+0x24>
10003f42:	001a      	movs	r2, r3
10003f44:	68db      	ldr	r3, [r3, #12]
10003f46:	2b00      	cmp	r3, #0
10003f48:	d1f9      	bne.n	10003f3e <stdio_set_driver_enabled+0xe>
10003f4a:	2900      	cmp	r1, #0
10003f4c:	d000      	beq.n	10003f50 <stdio_set_driver_enabled+0x20>
10003f4e:	60d0      	str	r0, [r2, #12]
10003f50:	4770      	bx	lr
10003f52:	001a      	movs	r2, r3
10003f54:	2900      	cmp	r1, #0
10003f56:	d1fb      	bne.n	10003f50 <stdio_set_driver_enabled+0x20>
10003f58:	68db      	ldr	r3, [r3, #12]
10003f5a:	60d3      	str	r3, [r2, #12]
10003f5c:	60c1      	str	r1, [r0, #12]
10003f5e:	e7f7      	b.n	10003f50 <stdio_set_driver_enabled+0x20>
10003f60:	2900      	cmp	r1, #0
10003f62:	d0f5      	beq.n	10003f50 <stdio_set_driver_enabled+0x20>
10003f64:	6010      	str	r0, [r2, #0]
10003f66:	e7f3      	b.n	10003f50 <stdio_set_driver_enabled+0x20>
10003f68:	20000afc 	.word	0x20000afc

10003f6c <stdio_flush>:
10003f6c:	4b08      	ldr	r3, [pc, #32]	; (10003f90 <stdio_flush+0x24>)
10003f6e:	b510      	push	{r4, lr}
10003f70:	681c      	ldr	r4, [r3, #0]
10003f72:	2c00      	cmp	r4, #0
10003f74:	d006      	beq.n	10003f84 <stdio_flush+0x18>
10003f76:	6863      	ldr	r3, [r4, #4]
10003f78:	2b00      	cmp	r3, #0
10003f7a:	d004      	beq.n	10003f86 <stdio_flush+0x1a>
10003f7c:	4798      	blx	r3
10003f7e:	68e4      	ldr	r4, [r4, #12]
10003f80:	2c00      	cmp	r4, #0
10003f82:	d1f8      	bne.n	10003f76 <stdio_flush+0xa>
10003f84:	bd10      	pop	{r4, pc}
10003f86:	68e4      	ldr	r4, [r4, #12]
10003f88:	2c00      	cmp	r4, #0
10003f8a:	d1f4      	bne.n	10003f76 <stdio_flush+0xa>
10003f8c:	e7fa      	b.n	10003f84 <stdio_flush+0x18>
10003f8e:	46c0      	nop			; (mov r8, r8)
10003f90:	20000afc 	.word	0x20000afc

10003f94 <__wrap_vprintf>:
10003f94:	b5f0      	push	{r4, r5, r6, r7, lr}
10003f96:	4646      	mov	r6, r8
10003f98:	46d6      	mov	lr, sl
10003f9a:	464f      	mov	r7, r9
10003f9c:	23d0      	movs	r3, #208	; 0xd0
10003f9e:	b5c0      	push	{r6, r7, lr}
10003fa0:	061b      	lsls	r3, r3, #24
10003fa2:	681f      	ldr	r7, [r3, #0]
10003fa4:	4b31      	ldr	r3, [pc, #196]	; (1000406c <__wrap_vprintf+0xd8>)
10003fa6:	b0a2      	sub	sp, #136	; 0x88
10003fa8:	0004      	movs	r4, r0
10003faa:	000d      	movs	r5, r1
10003fac:	0018      	movs	r0, r3
10003fae:	a901      	add	r1, sp, #4
10003fb0:	4698      	mov	r8, r3
10003fb2:	f000 fedd 	bl	10004d70 <__mutex_try_enter_veneer>
10003fb6:	1e06      	subs	r6, r0, #0
10003fb8:	d106      	bne.n	10003fc8 <__wrap_vprintf+0x34>
10003fba:	9b01      	ldr	r3, [sp, #4]
10003fbc:	429f      	cmp	r7, r3
10003fbe:	d003      	beq.n	10003fc8 <__wrap_vprintf+0x34>
10003fc0:	4640      	mov	r0, r8
10003fc2:	f000 fedd 	bl	10004d80 <__mutex_enter_blocking_veneer>
10003fc6:	3601      	adds	r6, #1
10003fc8:	2284      	movs	r2, #132	; 0x84
10003fca:	2100      	movs	r1, #0
10003fcc:	a801      	add	r0, sp, #4
10003fce:	f7ff fe79 	bl	10003cc4 <__wrap_memset>
10003fd2:	002b      	movs	r3, r5
10003fd4:	0022      	movs	r2, r4
10003fd6:	4826      	ldr	r0, [pc, #152]	; (10004070 <__wrap_vprintf+0xdc>)
10003fd8:	a901      	add	r1, sp, #4
10003fda:	f7fe ff37 	bl	10002e4c <vfctprintf>
10003fde:	9b01      	ldr	r3, [sp, #4]
10003fe0:	0007      	movs	r7, r0
10003fe2:	2b00      	cmp	r3, #0
10003fe4:	d115      	bne.n	10004012 <__wrap_vprintf+0x7e>
10003fe6:	4b23      	ldr	r3, [pc, #140]	; (10004074 <__wrap_vprintf+0xe0>)
10003fe8:	681c      	ldr	r4, [r3, #0]
10003fea:	2c00      	cmp	r4, #0
10003fec:	d006      	beq.n	10003ffc <__wrap_vprintf+0x68>
10003fee:	6863      	ldr	r3, [r4, #4]
10003ff0:	2b00      	cmp	r3, #0
10003ff2:	d00c      	beq.n	1000400e <__wrap_vprintf+0x7a>
10003ff4:	4798      	blx	r3
10003ff6:	68e4      	ldr	r4, [r4, #12]
10003ff8:	2c00      	cmp	r4, #0
10003ffa:	d1f8      	bne.n	10003fee <__wrap_vprintf+0x5a>
10003ffc:	2e00      	cmp	r6, #0
10003ffe:	d12f      	bne.n	10004060 <__wrap_vprintf+0xcc>
10004000:	0038      	movs	r0, r7
10004002:	b022      	add	sp, #136	; 0x88
10004004:	bc1c      	pop	{r2, r3, r4}
10004006:	4690      	mov	r8, r2
10004008:	4699      	mov	r9, r3
1000400a:	46a2      	mov	sl, r4
1000400c:	bdf0      	pop	{r4, r5, r6, r7, pc}
1000400e:	68e4      	ldr	r4, [r4, #12]
10004010:	e7eb      	b.n	10003fea <__wrap_vprintf+0x56>
10004012:	4b18      	ldr	r3, [pc, #96]	; (10004074 <__wrap_vprintf+0xe0>)
10004014:	681d      	ldr	r5, [r3, #0]
10004016:	469a      	mov	sl, r3
10004018:	2d00      	cmp	r5, #0
1000401a:	d025      	beq.n	10004068 <__wrap_vprintf+0xd4>
1000401c:	4b16      	ldr	r3, [pc, #88]	; (10004078 <__wrap_vprintf+0xe4>)
1000401e:	4699      	mov	r9, r3
10004020:	e002      	b.n	10004028 <__wrap_vprintf+0x94>
10004022:	68ed      	ldr	r5, [r5, #12]
10004024:	2d00      	cmp	r5, #0
10004026:	d013      	beq.n	10004050 <__wrap_vprintf+0xbc>
10004028:	682c      	ldr	r4, [r5, #0]
1000402a:	2c00      	cmp	r4, #0
1000402c:	d0f9      	beq.n	10004022 <__wrap_vprintf+0x8e>
1000402e:	464b      	mov	r3, r9
10004030:	681b      	ldr	r3, [r3, #0]
10004032:	2b00      	cmp	r3, #0
10004034:	d001      	beq.n	1000403a <__wrap_vprintf+0xa6>
10004036:	429d      	cmp	r5, r3
10004038:	d1f3      	bne.n	10004022 <__wrap_vprintf+0x8e>
1000403a:	7c6b      	ldrb	r3, [r5, #17]
1000403c:	9a01      	ldr	r2, [sp, #4]
1000403e:	2b00      	cmp	r3, #0
10004040:	d00a      	beq.n	10004058 <__wrap_vprintf+0xc4>
10004042:	0028      	movs	r0, r5
10004044:	a902      	add	r1, sp, #8
10004046:	f7ff fe49 	bl	10003cdc <stdio_out_chars_crlf.part.0>
1000404a:	68ed      	ldr	r5, [r5, #12]
1000404c:	2d00      	cmp	r5, #0
1000404e:	d1eb      	bne.n	10004028 <__wrap_vprintf+0x94>
10004050:	4653      	mov	r3, sl
10004052:	9501      	str	r5, [sp, #4]
10004054:	681c      	ldr	r4, [r3, #0]
10004056:	e7c8      	b.n	10003fea <__wrap_vprintf+0x56>
10004058:	0011      	movs	r1, r2
1000405a:	a802      	add	r0, sp, #8
1000405c:	47a0      	blx	r4
1000405e:	e7e0      	b.n	10004022 <__wrap_vprintf+0x8e>
10004060:	4640      	mov	r0, r8
10004062:	f000 fe6d 	bl	10004d40 <__mutex_exit_veneer>
10004066:	e7cb      	b.n	10004000 <__wrap_vprintf+0x6c>
10004068:	9501      	str	r5, [sp, #4]
1000406a:	e7c7      	b.n	10003ffc <__wrap_vprintf+0x68>
1000406c:	20000a50 	.word	0x20000a50
10004070:	10003d61 	.word	0x10003d61
10004074:	20000afc 	.word	0x20000afc
10004078:	20000b00 	.word	0x20000b00

1000407c <__wrap_printf>:
1000407c:	b40f      	push	{r0, r1, r2, r3}
1000407e:	b500      	push	{lr}
10004080:	b083      	sub	sp, #12
10004082:	a904      	add	r1, sp, #16
10004084:	c901      	ldmia	r1!, {r0}
10004086:	9101      	str	r1, [sp, #4]
10004088:	f7ff ff84 	bl	10003f94 <__wrap_vprintf>
1000408c:	b003      	add	sp, #12
1000408e:	bc08      	pop	{r3}
10004090:	b004      	add	sp, #16
10004092:	4718      	bx	r3

10004094 <stdio_init_all>:
10004094:	b510      	push	{r4, lr}
10004096:	f000 f83b 	bl	10004110 <stdio_uart_init>
1000409a:	bd10      	pop	{r4, pc}

1000409c <stdio_uart_out_chars>:
1000409c:	b5f0      	push	{r4, r5, r6, r7, lr}
1000409e:	2900      	cmp	r1, #0
100040a0:	d010      	beq.n	100040c4 <stdio_uart_out_chars+0x28>
100040a2:	1845      	adds	r5, r0, r1
100040a4:	270d      	movs	r7, #13
100040a6:	2120      	movs	r1, #32
100040a8:	4b09      	ldr	r3, [pc, #36]	; (100040d0 <stdio_uart_out_chars+0x34>)
100040aa:	4a0a      	ldr	r2, [pc, #40]	; (100040d4 <stdio_uart_out_chars+0x38>)
100040ac:	2600      	movs	r6, #0
100040ae:	5f9e      	ldrsh	r6, [r3, r6]
100040b0:	7804      	ldrb	r4, [r0, #0]
100040b2:	42a6      	cmp	r6, r4
100040b4:	d007      	beq.n	100040c6 <stdio_uart_out_chars+0x2a>
100040b6:	6993      	ldr	r3, [r2, #24]
100040b8:	4219      	tst	r1, r3
100040ba:	d1fc      	bne.n	100040b6 <stdio_uart_out_chars+0x1a>
100040bc:	3001      	adds	r0, #1
100040be:	6014      	str	r4, [r2, #0]
100040c0:	42a8      	cmp	r0, r5
100040c2:	d1f5      	bne.n	100040b0 <stdio_uart_out_chars+0x14>
100040c4:	bdf0      	pop	{r4, r5, r6, r7, pc}
100040c6:	6993      	ldr	r3, [r2, #24]
100040c8:	4219      	tst	r1, r3
100040ca:	d1fc      	bne.n	100040c6 <stdio_uart_out_chars+0x2a>
100040cc:	6017      	str	r7, [r2, #0]
100040ce:	e7f2      	b.n	100040b6 <stdio_uart_out_chars+0x1a>
100040d0:	20000b34 	.word	0x20000b34
100040d4:	40034000 	.word	0x40034000

100040d8 <stdio_uart_in_chars>:
100040d8:	b530      	push	{r4, r5, lr}
100040da:	0005      	movs	r5, r0
100040dc:	2000      	movs	r0, #0
100040de:	2900      	cmp	r1, #0
100040e0:	dd10      	ble.n	10004104 <stdio_uart_in_chars+0x2c>
100040e2:	2410      	movs	r4, #16
100040e4:	4a09      	ldr	r2, [pc, #36]	; (1000410c <stdio_uart_in_chars+0x34>)
100040e6:	3d01      	subs	r5, #1
100040e8:	6993      	ldr	r3, [r2, #24]
100040ea:	421c      	tst	r4, r3
100040ec:	d108      	bne.n	10004100 <stdio_uart_in_chars+0x28>
100040ee:	3001      	adds	r0, #1
100040f0:	6993      	ldr	r3, [r2, #24]
100040f2:	421c      	tst	r4, r3
100040f4:	d1fc      	bne.n	100040f0 <stdio_uart_in_chars+0x18>
100040f6:	6813      	ldr	r3, [r2, #0]
100040f8:	542b      	strb	r3, [r5, r0]
100040fa:	4281      	cmp	r1, r0
100040fc:	d1f4      	bne.n	100040e8 <stdio_uart_in_chars+0x10>
100040fe:	bd30      	pop	{r4, r5, pc}
10004100:	2800      	cmp	r0, #0
10004102:	d1fc      	bne.n	100040fe <stdio_uart_in_chars+0x26>
10004104:	2003      	movs	r0, #3
10004106:	4240      	negs	r0, r0
10004108:	e7f9      	b.n	100040fe <stdio_uart_in_chars+0x26>
1000410a:	46c0      	nop			; (mov r8, r8)
1000410c:	40034000 	.word	0x40034000

10004110 <stdio_uart_init>:
10004110:	21e1      	movs	r1, #225	; 0xe1
10004112:	b510      	push	{r4, lr}
10004114:	4b0a      	ldr	r3, [pc, #40]	; (10004140 <stdio_uart_init+0x30>)
10004116:	0249      	lsls	r1, r1, #9
10004118:	781b      	ldrb	r3, [r3, #0]
1000411a:	4b0a      	ldr	r3, [pc, #40]	; (10004144 <stdio_uart_init+0x34>)
1000411c:	480a      	ldr	r0, [pc, #40]	; (10004148 <stdio_uart_init+0x38>)
1000411e:	781b      	ldrb	r3, [r3, #0]
10004120:	f7fc f9b0 	bl	10000484 <uart_init>
10004124:	2102      	movs	r1, #2
10004126:	2000      	movs	r0, #0
10004128:	f7fc f942 	bl	100003b0 <gpio_set_function>
1000412c:	2102      	movs	r1, #2
1000412e:	2001      	movs	r0, #1
10004130:	f7fc f93e 	bl	100003b0 <gpio_set_function>
10004134:	2101      	movs	r1, #1
10004136:	4805      	ldr	r0, [pc, #20]	; (1000414c <stdio_uart_init+0x3c>)
10004138:	f7ff fefa 	bl	10003f30 <stdio_set_driver_enabled>
1000413c:	bd10      	pop	{r4, pc}
1000413e:	46c0      	nop			; (mov r8, r8)
10004140:	10005264 	.word	0x10005264
10004144:	10005268 	.word	0x10005268
10004148:	40034000 	.word	0x40034000
1000414c:	20000200 	.word	0x20000200

10004150 <rtc_irq_handler>:
10004150:	2280      	movs	r2, #128	; 0x80
10004152:	4b0f      	ldr	r3, [pc, #60]	; (10004190 <rtc_irq_handler+0x40>)
10004154:	0552      	lsls	r2, r2, #21
10004156:	b510      	push	{r4, lr}
10004158:	601a      	str	r2, [r3, #0]
1000415a:	2280      	movs	r2, #128	; 0x80
1000415c:	490d      	ldr	r1, [pc, #52]	; (10004194 <rtc_irq_handler+0x44>)
1000415e:	0592      	lsls	r2, r2, #22
10004160:	690b      	ldr	r3, [r1, #16]
10004162:	4213      	tst	r3, r2
10004164:	d1fc      	bne.n	10004160 <rtc_irq_handler+0x10>
10004166:	4b0c      	ldr	r3, [pc, #48]	; (10004198 <rtc_irq_handler+0x48>)
10004168:	781b      	ldrb	r3, [r3, #0]
1000416a:	2b00      	cmp	r3, #0
1000416c:	d009      	beq.n	10004182 <rtc_irq_handler+0x32>
1000416e:	2280      	movs	r2, #128	; 0x80
10004170:	4b0a      	ldr	r3, [pc, #40]	; (1000419c <rtc_irq_handler+0x4c>)
10004172:	0552      	lsls	r2, r2, #21
10004174:	601a      	str	r2, [r3, #0]
10004176:	2280      	movs	r2, #128	; 0x80
10004178:	4906      	ldr	r1, [pc, #24]	; (10004194 <rtc_irq_handler+0x44>)
1000417a:	0592      	lsls	r2, r2, #22
1000417c:	690b      	ldr	r3, [r1, #16]
1000417e:	4213      	tst	r3, r2
10004180:	d0fc      	beq.n	1000417c <rtc_irq_handler+0x2c>
10004182:	4b07      	ldr	r3, [pc, #28]	; (100041a0 <rtc_irq_handler+0x50>)
10004184:	681b      	ldr	r3, [r3, #0]
10004186:	2b00      	cmp	r3, #0
10004188:	d000      	beq.n	1000418c <rtc_irq_handler+0x3c>
1000418a:	4798      	blx	r3
1000418c:	bd10      	pop	{r4, pc}
1000418e:	46c0      	nop			; (mov r8, r8)
10004190:	4005f010 	.word	0x4005f010
10004194:	4005c000 	.word	0x4005c000
10004198:	20000b2c 	.word	0x20000b2c
1000419c:	4005e010 	.word	0x4005e010
100041a0:	20000abc 	.word	0x20000abc

100041a4 <rtc_init>:
100041a4:	2009      	movs	r0, #9
100041a6:	b510      	push	{r4, lr}
100041a8:	f7fd f950 	bl	1000144c <clock_get_hz>
100041ac:	2280      	movs	r2, #128	; 0x80
100041ae:	4b07      	ldr	r3, [pc, #28]	; (100041cc <rtc_init+0x28>)
100041b0:	0212      	lsls	r2, r2, #8
100041b2:	601a      	str	r2, [r3, #0]
100041b4:	4b06      	ldr	r3, [pc, #24]	; (100041d0 <rtc_init+0x2c>)
100041b6:	4907      	ldr	r1, [pc, #28]	; (100041d4 <rtc_init+0x30>)
100041b8:	601a      	str	r2, [r3, #0]
100041ba:	0014      	movs	r4, r2
100041bc:	688b      	ldr	r3, [r1, #8]
100041be:	439c      	bics	r4, r3
100041c0:	d1fb      	bne.n	100041ba <rtc_init+0x16>
100041c2:	4b05      	ldr	r3, [pc, #20]	; (100041d8 <rtc_init+0x34>)
100041c4:	3801      	subs	r0, #1
100041c6:	6018      	str	r0, [r3, #0]
100041c8:	bd10      	pop	{r4, pc}
100041ca:	46c0      	nop			; (mov r8, r8)
100041cc:	4000e000 	.word	0x4000e000
100041d0:	4000f000 	.word	0x4000f000
100041d4:	4000c000 	.word	0x4000c000
100041d8:	4005c000 	.word	0x4005c000

100041dc <rtc_set_datetime>:
100041dc:	b5f0      	push	{r4, r5, r6, r7, lr}
100041de:	46ce      	mov	lr, r9
100041e0:	4647      	mov	r7, r8
100041e2:	2300      	movs	r3, #0
100041e4:	5ec5      	ldrsh	r5, [r0, r3]
100041e6:	2380      	movs	r3, #128	; 0x80
100041e8:	8802      	ldrh	r2, [r0, #0]
100041ea:	b580      	push	{r7, lr}
100041ec:	015b      	lsls	r3, r3, #5
100041ee:	429a      	cmp	r2, r3
100041f0:	d243      	bcs.n	1000427a <rtc_set_datetime+0x9e>
100041f2:	2402      	movs	r4, #2
100041f4:	5704      	ldrsb	r4, [r0, r4]
100041f6:	1e63      	subs	r3, r4, #1
100041f8:	b2db      	uxtb	r3, r3
100041fa:	2b0b      	cmp	r3, #11
100041fc:	d83d      	bhi.n	1000427a <rtc_set_datetime+0x9e>
100041fe:	2703      	movs	r7, #3
10004200:	57c7      	ldrsb	r7, [r0, r7]
10004202:	1e7b      	subs	r3, r7, #1
10004204:	b2db      	uxtb	r3, r3
10004206:	2b1e      	cmp	r3, #30
10004208:	d837      	bhi.n	1000427a <rtc_set_datetime+0x9e>
1000420a:	2304      	movs	r3, #4
1000420c:	56c3      	ldrsb	r3, [r0, r3]
1000420e:	4699      	mov	r9, r3
10004210:	7903      	ldrb	r3, [r0, #4]
10004212:	2b06      	cmp	r3, #6
10004214:	d831      	bhi.n	1000427a <rtc_set_datetime+0x9e>
10004216:	2305      	movs	r3, #5
10004218:	56c3      	ldrsb	r3, [r0, r3]
1000421a:	469c      	mov	ip, r3
1000421c:	7943      	ldrb	r3, [r0, #5]
1000421e:	2b17      	cmp	r3, #23
10004220:	d82b      	bhi.n	1000427a <rtc_set_datetime+0x9e>
10004222:	2606      	movs	r6, #6
10004224:	7983      	ldrb	r3, [r0, #6]
10004226:	5786      	ldrsb	r6, [r0, r6]
10004228:	2b3b      	cmp	r3, #59	; 0x3b
1000422a:	d826      	bhi.n	1000427a <rtc_set_datetime+0x9e>
1000422c:	2307      	movs	r3, #7
1000422e:	56c3      	ldrsb	r3, [r0, r3]
10004230:	4698      	mov	r8, r3
10004232:	79c3      	ldrb	r3, [r0, #7]
10004234:	2b3b      	cmp	r3, #59	; 0x3b
10004236:	d820      	bhi.n	1000427a <rtc_set_datetime+0x9e>
10004238:	2300      	movs	r3, #0
1000423a:	2102      	movs	r1, #2
1000423c:	4a11      	ldr	r2, [pc, #68]	; (10004284 <rtc_set_datetime+0xa8>)
1000423e:	60d3      	str	r3, [r2, #12]
10004240:	68d3      	ldr	r3, [r2, #12]
10004242:	4219      	tst	r1, r3
10004244:	d1fc      	bne.n	10004240 <rtc_set_datetime+0x64>
10004246:	0223      	lsls	r3, r4, #8
10004248:	032d      	lsls	r5, r5, #12
1000424a:	431d      	orrs	r5, r3
1000424c:	4661      	mov	r1, ip
1000424e:	464b      	mov	r3, r9
10004250:	0409      	lsls	r1, r1, #16
10004252:	061b      	lsls	r3, r3, #24
10004254:	430b      	orrs	r3, r1
10004256:	4641      	mov	r1, r8
10004258:	0236      	lsls	r6, r6, #8
1000425a:	430b      	orrs	r3, r1
1000425c:	4333      	orrs	r3, r6
1000425e:	433d      	orrs	r5, r7
10004260:	6055      	str	r5, [r2, #4]
10004262:	6093      	str	r3, [r2, #8]
10004264:	2310      	movs	r3, #16
10004266:	60d3      	str	r3, [r2, #12]
10004268:	3b0f      	subs	r3, #15
1000426a:	60d3      	str	r3, [r2, #12]
1000426c:	2202      	movs	r2, #2
1000426e:	4905      	ldr	r1, [pc, #20]	; (10004284 <rtc_set_datetime+0xa8>)
10004270:	68cb      	ldr	r3, [r1, #12]
10004272:	421a      	tst	r2, r3
10004274:	d0fc      	beq.n	10004270 <rtc_set_datetime+0x94>
10004276:	2001      	movs	r0, #1
10004278:	e000      	b.n	1000427c <rtc_set_datetime+0xa0>
1000427a:	2000      	movs	r0, #0
1000427c:	bc0c      	pop	{r2, r3}
1000427e:	4690      	mov	r8, r2
10004280:	4699      	mov	r9, r3
10004282:	bdf0      	pop	{r4, r5, r6, r7, pc}
10004284:	4005c000 	.word	0x4005c000

10004288 <rtc_get_datetime>:
10004288:	4b12      	ldr	r3, [pc, #72]	; (100042d4 <rtc_get_datetime+0x4c>)
1000428a:	b510      	push	{r4, lr}
1000428c:	68da      	ldr	r2, [r3, #12]
1000428e:	0792      	lsls	r2, r2, #30
10004290:	d51d      	bpl.n	100042ce <rtc_get_datetime+0x46>
10004292:	211f      	movs	r1, #31
10004294:	243f      	movs	r4, #63	; 0x3f
10004296:	69da      	ldr	r2, [r3, #28]
10004298:	0152      	lsls	r2, r2, #5
1000429a:	0f52      	lsrs	r2, r2, #29
1000429c:	7102      	strb	r2, [r0, #4]
1000429e:	69da      	ldr	r2, [r3, #28]
100042a0:	0c12      	lsrs	r2, r2, #16
100042a2:	400a      	ands	r2, r1
100042a4:	7142      	strb	r2, [r0, #5]
100042a6:	69da      	ldr	r2, [r3, #28]
100042a8:	0a12      	lsrs	r2, r2, #8
100042aa:	4022      	ands	r2, r4
100042ac:	7182      	strb	r2, [r0, #6]
100042ae:	69da      	ldr	r2, [r3, #28]
100042b0:	4014      	ands	r4, r2
100042b2:	71c4      	strb	r4, [r0, #7]
100042b4:	699a      	ldr	r2, [r3, #24]
100042b6:	0212      	lsls	r2, r2, #8
100042b8:	0d12      	lsrs	r2, r2, #20
100042ba:	8002      	strh	r2, [r0, #0]
100042bc:	699a      	ldr	r2, [r3, #24]
100042be:	0512      	lsls	r2, r2, #20
100042c0:	0f12      	lsrs	r2, r2, #28
100042c2:	7082      	strb	r2, [r0, #2]
100042c4:	699b      	ldr	r3, [r3, #24]
100042c6:	4019      	ands	r1, r3
100042c8:	70c1      	strb	r1, [r0, #3]
100042ca:	2001      	movs	r0, #1
100042cc:	bd10      	pop	{r4, pc}
100042ce:	2000      	movs	r0, #0
100042d0:	e7fc      	b.n	100042cc <rtc_get_datetime+0x44>
100042d2:	46c0      	nop			; (mov r8, r8)
100042d4:	4005c000 	.word	0x4005c000

100042d8 <rtc_set_alarm>:
100042d8:	2280      	movs	r2, #128	; 0x80
100042da:	b5f0      	push	{r4, r5, r6, r7, lr}
100042dc:	46c6      	mov	lr, r8
100042de:	4b4c      	ldr	r3, [pc, #304]	; (10004410 <rtc_set_alarm+0x138>)
100042e0:	0552      	lsls	r2, r2, #21
100042e2:	b500      	push	{lr}
100042e4:	601a      	str	r2, [r3, #0]
100042e6:	2280      	movs	r2, #128	; 0x80
100042e8:	4c4a      	ldr	r4, [pc, #296]	; (10004414 <rtc_set_alarm+0x13c>)
100042ea:	0592      	lsls	r2, r2, #22
100042ec:	6923      	ldr	r3, [r4, #16]
100042ee:	4213      	tst	r3, r2
100042f0:	d1fc      	bne.n	100042ec <rtc_set_alarm+0x14>
100042f2:	2300      	movs	r3, #0
100042f4:	5ec4      	ldrsh	r4, [r0, r3]
100042f6:	1c63      	adds	r3, r4, #1
100042f8:	d100      	bne.n	100042fc <rtc_set_alarm+0x24>
100042fa:	e087      	b.n	1000440c <rtc_set_alarm+0x134>
100042fc:	0323      	lsls	r3, r4, #12
100042fe:	2502      	movs	r5, #2
10004300:	5745      	ldrsb	r5, [r0, r5]
10004302:	1c6a      	adds	r2, r5, #1
10004304:	d001      	beq.n	1000430a <rtc_set_alarm+0x32>
10004306:	022a      	lsls	r2, r5, #8
10004308:	4313      	orrs	r3, r2
1000430a:	2603      	movs	r6, #3
1000430c:	5786      	ldrsb	r6, [r0, r6]
1000430e:	1c72      	adds	r2, r6, #1
10004310:	d000      	beq.n	10004314 <rtc_set_alarm+0x3c>
10004312:	4333      	orrs	r3, r6
10004314:	2704      	movs	r7, #4
10004316:	4a3f      	ldr	r2, [pc, #252]	; (10004414 <rtc_set_alarm+0x13c>)
10004318:	6113      	str	r3, [r2, #16]
1000431a:	57c7      	ldrsb	r7, [r0, r7]
1000431c:	1c7b      	adds	r3, r7, #1
1000431e:	d100      	bne.n	10004322 <rtc_set_alarm+0x4a>
10004320:	e072      	b.n	10004408 <rtc_set_alarm+0x130>
10004322:	063a      	lsls	r2, r7, #24
10004324:	2305      	movs	r3, #5
10004326:	56c3      	ldrsb	r3, [r0, r3]
10004328:	469c      	mov	ip, r3
1000432a:	3301      	adds	r3, #1
1000432c:	d002      	beq.n	10004334 <rtc_set_alarm+0x5c>
1000432e:	4663      	mov	r3, ip
10004330:	041b      	lsls	r3, r3, #16
10004332:	431a      	orrs	r2, r3
10004334:	2306      	movs	r3, #6
10004336:	56c3      	ldrsb	r3, [r0, r3]
10004338:	4698      	mov	r8, r3
1000433a:	3301      	adds	r3, #1
1000433c:	d002      	beq.n	10004344 <rtc_set_alarm+0x6c>
1000433e:	4643      	mov	r3, r8
10004340:	021b      	lsls	r3, r3, #8
10004342:	431a      	orrs	r2, r3
10004344:	2307      	movs	r3, #7
10004346:	56c3      	ldrsb	r3, [r0, r3]
10004348:	1c58      	adds	r0, r3, #1
1000434a:	d000      	beq.n	1000434e <rtc_set_alarm+0x76>
1000434c:	431a      	orrs	r2, r3
1000434e:	4831      	ldr	r0, [pc, #196]	; (10004414 <rtc_set_alarm+0x13c>)
10004350:	6142      	str	r2, [r0, #20]
10004352:	1c62      	adds	r2, r4, #1
10004354:	d003      	beq.n	1000435e <rtc_set_alarm+0x86>
10004356:	2080      	movs	r0, #128	; 0x80
10004358:	4a2f      	ldr	r2, [pc, #188]	; (10004418 <rtc_set_alarm+0x140>)
1000435a:	04c0      	lsls	r0, r0, #19
1000435c:	6010      	str	r0, [r2, #0]
1000435e:	1c6a      	adds	r2, r5, #1
10004360:	d003      	beq.n	1000436a <rtc_set_alarm+0x92>
10004362:	2080      	movs	r0, #128	; 0x80
10004364:	4a2c      	ldr	r2, [pc, #176]	; (10004418 <rtc_set_alarm+0x140>)
10004366:	0480      	lsls	r0, r0, #18
10004368:	6010      	str	r0, [r2, #0]
1000436a:	1c72      	adds	r2, r6, #1
1000436c:	d003      	beq.n	10004376 <rtc_set_alarm+0x9e>
1000436e:	2080      	movs	r0, #128	; 0x80
10004370:	4a29      	ldr	r2, [pc, #164]	; (10004418 <rtc_set_alarm+0x140>)
10004372:	0440      	lsls	r0, r0, #17
10004374:	6010      	str	r0, [r2, #0]
10004376:	1c7a      	adds	r2, r7, #1
10004378:	d003      	beq.n	10004382 <rtc_set_alarm+0xaa>
1000437a:	2080      	movs	r0, #128	; 0x80
1000437c:	4a27      	ldr	r2, [pc, #156]	; (1000441c <rtc_set_alarm+0x144>)
1000437e:	0600      	lsls	r0, r0, #24
10004380:	6010      	str	r0, [r2, #0]
10004382:	4662      	mov	r2, ip
10004384:	3201      	adds	r2, #1
10004386:	d003      	beq.n	10004390 <rtc_set_alarm+0xb8>
10004388:	2080      	movs	r0, #128	; 0x80
1000438a:	4a24      	ldr	r2, [pc, #144]	; (1000441c <rtc_set_alarm+0x144>)
1000438c:	05c0      	lsls	r0, r0, #23
1000438e:	6010      	str	r0, [r2, #0]
10004390:	4642      	mov	r2, r8
10004392:	3201      	adds	r2, #1
10004394:	d003      	beq.n	1000439e <rtc_set_alarm+0xc6>
10004396:	2080      	movs	r0, #128	; 0x80
10004398:	4a20      	ldr	r2, [pc, #128]	; (1000441c <rtc_set_alarm+0x144>)
1000439a:	0580      	lsls	r0, r0, #22
1000439c:	6010      	str	r0, [r2, #0]
1000439e:	1c5a      	adds	r2, r3, #1
100043a0:	d003      	beq.n	100043aa <rtc_set_alarm+0xd2>
100043a2:	2080      	movs	r0, #128	; 0x80
100043a4:	4a1d      	ldr	r2, [pc, #116]	; (1000441c <rtc_set_alarm+0x144>)
100043a6:	0540      	lsls	r0, r0, #21
100043a8:	6010      	str	r0, [r2, #0]
100043aa:	1c62      	adds	r2, r4, #1
100043ac:	d010      	beq.n	100043d0 <rtc_set_alarm+0xf8>
100043ae:	1c6a      	adds	r2, r5, #1
100043b0:	d00e      	beq.n	100043d0 <rtc_set_alarm+0xf8>
100043b2:	1c72      	adds	r2, r6, #1
100043b4:	d00c      	beq.n	100043d0 <rtc_set_alarm+0xf8>
100043b6:	1c7a      	adds	r2, r7, #1
100043b8:	d00a      	beq.n	100043d0 <rtc_set_alarm+0xf8>
100043ba:	4662      	mov	r2, ip
100043bc:	3201      	adds	r2, #1
100043be:	d007      	beq.n	100043d0 <rtc_set_alarm+0xf8>
100043c0:	4642      	mov	r2, r8
100043c2:	3201      	adds	r2, #1
100043c4:	d004      	beq.n	100043d0 <rtc_set_alarm+0xf8>
100043c6:	3301      	adds	r3, #1
100043c8:	425a      	negs	r2, r3
100043ca:	4153      	adcs	r3, r2
100043cc:	b2db      	uxtb	r3, r3
100043ce:	e000      	b.n	100043d2 <rtc_set_alarm+0xfa>
100043d0:	2301      	movs	r3, #1
100043d2:	4a13      	ldr	r2, [pc, #76]	; (10004420 <rtc_set_alarm+0x148>)
100043d4:	2019      	movs	r0, #25
100043d6:	7013      	strb	r3, [r2, #0]
100043d8:	4b12      	ldr	r3, [pc, #72]	; (10004424 <rtc_set_alarm+0x14c>)
100043da:	4c0e      	ldr	r4, [pc, #56]	; (10004414 <rtc_set_alarm+0x13c>)
100043dc:	6019      	str	r1, [r3, #0]
100043de:	4912      	ldr	r1, [pc, #72]	; (10004428 <rtc_set_alarm+0x150>)
100043e0:	f7fd f89a 	bl	10001518 <irq_set_exclusive_handler>
100043e4:	2301      	movs	r3, #1
100043e6:	2101      	movs	r1, #1
100043e8:	6263      	str	r3, [r4, #36]	; 0x24
100043ea:	2019      	movs	r0, #25
100043ec:	f7fd f87a 	bl	100014e4 <irq_set_enabled>
100043f0:	2280      	movs	r2, #128	; 0x80
100043f2:	2180      	movs	r1, #128	; 0x80
100043f4:	4b08      	ldr	r3, [pc, #32]	; (10004418 <rtc_set_alarm+0x140>)
100043f6:	0552      	lsls	r2, r2, #21
100043f8:	601a      	str	r2, [r3, #0]
100043fa:	0589      	lsls	r1, r1, #22
100043fc:	6923      	ldr	r3, [r4, #16]
100043fe:	420b      	tst	r3, r1
10004400:	d0fc      	beq.n	100043fc <rtc_set_alarm+0x124>
10004402:	bc04      	pop	{r2}
10004404:	4690      	mov	r8, r2
10004406:	bdf0      	pop	{r4, r5, r6, r7, pc}
10004408:	2200      	movs	r2, #0
1000440a:	e78b      	b.n	10004324 <rtc_set_alarm+0x4c>
1000440c:	2300      	movs	r3, #0
1000440e:	e776      	b.n	100042fe <rtc_set_alarm+0x26>
10004410:	4005f010 	.word	0x4005f010
10004414:	4005c000 	.word	0x4005c000
10004418:	4005e010 	.word	0x4005e010
1000441c:	4005e014 	.word	0x4005e014
10004420:	20000b2c 	.word	0x20000b2c
10004424:	20000abc 	.word	0x20000abc
10004428:	10004151 	.word	0x10004151

1000442c <calloc>:
1000442c:	0003      	movs	r3, r0
1000442e:	b510      	push	{r4, lr}
10004430:	000a      	movs	r2, r1
10004432:	4903      	ldr	r1, [pc, #12]	; (10004440 <calloc+0x14>)
10004434:	6808      	ldr	r0, [r1, #0]
10004436:	0019      	movs	r1, r3
10004438:	f000 f804 	bl	10004444 <_calloc_r>
1000443c:	bd10      	pop	{r4, pc}
1000443e:	46c0      	nop			; (mov r8, r8)
10004440:	20000214 	.word	0x20000214

10004444 <_calloc_r>:
10004444:	b510      	push	{r4, lr}
10004446:	4351      	muls	r1, r2
10004448:	f000 f834 	bl	100044b4 <_malloc_r>
1000444c:	1e04      	subs	r4, r0, #0
1000444e:	d00e      	beq.n	1000446e <_calloc_r+0x2a>
10004450:	0003      	movs	r3, r0
10004452:	3b08      	subs	r3, #8
10004454:	685a      	ldr	r2, [r3, #4]
10004456:	2303      	movs	r3, #3
10004458:	439a      	bics	r2, r3
1000445a:	3a04      	subs	r2, #4
1000445c:	2a24      	cmp	r2, #36	; 0x24
1000445e:	d815      	bhi.n	1000448c <_calloc_r+0x48>
10004460:	0003      	movs	r3, r0
10004462:	2a13      	cmp	r2, #19
10004464:	d805      	bhi.n	10004472 <_calloc_r+0x2e>
10004466:	2200      	movs	r2, #0
10004468:	601a      	str	r2, [r3, #0]
1000446a:	605a      	str	r2, [r3, #4]
1000446c:	609a      	str	r2, [r3, #8]
1000446e:	0020      	movs	r0, r4
10004470:	bd10      	pop	{r4, pc}
10004472:	2100      	movs	r1, #0
10004474:	3308      	adds	r3, #8
10004476:	6001      	str	r1, [r0, #0]
10004478:	6041      	str	r1, [r0, #4]
1000447a:	2a1b      	cmp	r2, #27
1000447c:	d9f3      	bls.n	10004466 <_calloc_r+0x22>
1000447e:	6081      	str	r1, [r0, #8]
10004480:	60c1      	str	r1, [r0, #12]
10004482:	2a24      	cmp	r2, #36	; 0x24
10004484:	d006      	beq.n	10004494 <_calloc_r+0x50>
10004486:	0003      	movs	r3, r0
10004488:	3310      	adds	r3, #16
1000448a:	e7ec      	b.n	10004466 <_calloc_r+0x22>
1000448c:	2100      	movs	r1, #0
1000448e:	f7ff fc19 	bl	10003cc4 <__wrap_memset>
10004492:	e7ec      	b.n	1000446e <_calloc_r+0x2a>
10004494:	0003      	movs	r3, r0
10004496:	6101      	str	r1, [r0, #16]
10004498:	3318      	adds	r3, #24
1000449a:	6141      	str	r1, [r0, #20]
1000449c:	e7e3      	b.n	10004466 <_calloc_r+0x22>
1000449e:	46c0      	nop			; (mov r8, r8)

100044a0 <malloc>:
100044a0:	b510      	push	{r4, lr}
100044a2:	4b03      	ldr	r3, [pc, #12]	; (100044b0 <malloc+0x10>)
100044a4:	0001      	movs	r1, r0
100044a6:	6818      	ldr	r0, [r3, #0]
100044a8:	f000 f804 	bl	100044b4 <_malloc_r>
100044ac:	bd10      	pop	{r4, pc}
100044ae:	46c0      	nop			; (mov r8, r8)
100044b0:	20000214 	.word	0x20000214

100044b4 <_malloc_r>:
100044b4:	b5f0      	push	{r4, r5, r6, r7, lr}
100044b6:	464e      	mov	r6, r9
100044b8:	4645      	mov	r5, r8
100044ba:	46de      	mov	lr, fp
100044bc:	4657      	mov	r7, sl
100044be:	b5e0      	push	{r5, r6, r7, lr}
100044c0:	000d      	movs	r5, r1
100044c2:	350b      	adds	r5, #11
100044c4:	0006      	movs	r6, r0
100044c6:	b083      	sub	sp, #12
100044c8:	2d16      	cmp	r5, #22
100044ca:	d822      	bhi.n	10004512 <_malloc_r+0x5e>
100044cc:	2910      	cmp	r1, #16
100044ce:	d900      	bls.n	100044d2 <_malloc_r+0x1e>
100044d0:	e0b2      	b.n	10004638 <_malloc_r+0x184>
100044d2:	f000 faaf 	bl	10004a34 <__malloc_lock>
100044d6:	2510      	movs	r5, #16
100044d8:	2002      	movs	r0, #2
100044da:	2318      	movs	r3, #24
100044dc:	4fcb      	ldr	r7, [pc, #812]	; (1000480c <_malloc_r+0x358>)
100044de:	18fb      	adds	r3, r7, r3
100044e0:	001a      	movs	r2, r3
100044e2:	685c      	ldr	r4, [r3, #4]
100044e4:	3a08      	subs	r2, #8
100044e6:	4294      	cmp	r4, r2
100044e8:	d100      	bne.n	100044ec <_malloc_r+0x38>
100044ea:	e0b5      	b.n	10004658 <_malloc_r+0x1a4>
100044ec:	2303      	movs	r3, #3
100044ee:	6862      	ldr	r2, [r4, #4]
100044f0:	439a      	bics	r2, r3
100044f2:	0013      	movs	r3, r2
100044f4:	68e2      	ldr	r2, [r4, #12]
100044f6:	68a1      	ldr	r1, [r4, #8]
100044f8:	60ca      	str	r2, [r1, #12]
100044fa:	6091      	str	r1, [r2, #8]
100044fc:	2201      	movs	r2, #1
100044fe:	18e3      	adds	r3, r4, r3
10004500:	6859      	ldr	r1, [r3, #4]
10004502:	0030      	movs	r0, r6
10004504:	430a      	orrs	r2, r1
10004506:	605a      	str	r2, [r3, #4]
10004508:	f000 fa9c 	bl	10004a44 <__malloc_unlock>
1000450c:	0020      	movs	r0, r4
1000450e:	3008      	adds	r0, #8
10004510:	e095      	b.n	1000463e <_malloc_r+0x18a>
10004512:	2307      	movs	r3, #7
10004514:	439d      	bics	r5, r3
10004516:	d500      	bpl.n	1000451a <_malloc_r+0x66>
10004518:	e08e      	b.n	10004638 <_malloc_r+0x184>
1000451a:	42a9      	cmp	r1, r5
1000451c:	d900      	bls.n	10004520 <_malloc_r+0x6c>
1000451e:	e08b      	b.n	10004638 <_malloc_r+0x184>
10004520:	f000 fa88 	bl	10004a34 <__malloc_lock>
10004524:	23fc      	movs	r3, #252	; 0xfc
10004526:	005b      	lsls	r3, r3, #1
10004528:	429d      	cmp	r5, r3
1000452a:	d200      	bcs.n	1000452e <_malloc_r+0x7a>
1000452c:	e1a5      	b.n	1000487a <_malloc_r+0x3c6>
1000452e:	0a68      	lsrs	r0, r5, #9
10004530:	d100      	bne.n	10004534 <_malloc_r+0x80>
10004532:	e08b      	b.n	1000464c <_malloc_r+0x198>
10004534:	2804      	cmp	r0, #4
10004536:	d900      	bls.n	1000453a <_malloc_r+0x86>
10004538:	e178      	b.n	1000482c <_malloc_r+0x378>
1000453a:	2338      	movs	r3, #56	; 0x38
1000453c:	4698      	mov	r8, r3
1000453e:	09a8      	lsrs	r0, r5, #6
10004540:	4480      	add	r8, r0
10004542:	3039      	adds	r0, #57	; 0x39
10004544:	00c1      	lsls	r1, r0, #3
10004546:	4fb1      	ldr	r7, [pc, #708]	; (1000480c <_malloc_r+0x358>)
10004548:	1879      	adds	r1, r7, r1
1000454a:	684c      	ldr	r4, [r1, #4]
1000454c:	3908      	subs	r1, #8
1000454e:	42a1      	cmp	r1, r4
10004550:	d00e      	beq.n	10004570 <_malloc_r+0xbc>
10004552:	2303      	movs	r3, #3
10004554:	469c      	mov	ip, r3
10004556:	e004      	b.n	10004562 <_malloc_r+0xae>
10004558:	2a00      	cmp	r2, #0
1000455a:	dacb      	bge.n	100044f4 <_malloc_r+0x40>
1000455c:	68e4      	ldr	r4, [r4, #12]
1000455e:	42a1      	cmp	r1, r4
10004560:	d006      	beq.n	10004570 <_malloc_r+0xbc>
10004562:	4662      	mov	r2, ip
10004564:	6863      	ldr	r3, [r4, #4]
10004566:	4393      	bics	r3, r2
10004568:	1b5a      	subs	r2, r3, r5
1000456a:	2a0f      	cmp	r2, #15
1000456c:	ddf4      	ble.n	10004558 <_malloc_r+0xa4>
1000456e:	4640      	mov	r0, r8
10004570:	003a      	movs	r2, r7
10004572:	693c      	ldr	r4, [r7, #16]
10004574:	3208      	adds	r2, #8
10004576:	4294      	cmp	r4, r2
10004578:	d100      	bne.n	1000457c <_malloc_r+0xc8>
1000457a:	e078      	b.n	1000466e <_malloc_r+0x1ba>
1000457c:	2303      	movs	r3, #3
1000457e:	6861      	ldr	r1, [r4, #4]
10004580:	4399      	bics	r1, r3
10004582:	4689      	mov	r9, r1
10004584:	000b      	movs	r3, r1
10004586:	1b49      	subs	r1, r1, r5
10004588:	290f      	cmp	r1, #15
1000458a:	dd00      	ble.n	1000458e <_malloc_r+0xda>
1000458c:	e179      	b.n	10004882 <_malloc_r+0x3ce>
1000458e:	617a      	str	r2, [r7, #20]
10004590:	613a      	str	r2, [r7, #16]
10004592:	2900      	cmp	r1, #0
10004594:	dab2      	bge.n	100044fc <_malloc_r+0x48>
10004596:	2280      	movs	r2, #128	; 0x80
10004598:	0092      	lsls	r2, r2, #2
1000459a:	4591      	cmp	r9, r2
1000459c:	d300      	bcc.n	100045a0 <_malloc_r+0xec>
1000459e:	e10e      	b.n	100047be <_malloc_r+0x30a>
100045a0:	0959      	lsrs	r1, r3, #5
100045a2:	08da      	lsrs	r2, r3, #3
100045a4:	2301      	movs	r3, #1
100045a6:	408b      	lsls	r3, r1
100045a8:	00d2      	lsls	r2, r2, #3
100045aa:	6879      	ldr	r1, [r7, #4]
100045ac:	19d2      	adds	r2, r2, r7
100045ae:	430b      	orrs	r3, r1
100045b0:	6891      	ldr	r1, [r2, #8]
100045b2:	607b      	str	r3, [r7, #4]
100045b4:	60e2      	str	r2, [r4, #12]
100045b6:	60a1      	str	r1, [r4, #8]
100045b8:	6094      	str	r4, [r2, #8]
100045ba:	60cc      	str	r4, [r1, #12]
100045bc:	2101      	movs	r1, #1
100045be:	1082      	asrs	r2, r0, #2
100045c0:	4091      	lsls	r1, r2
100045c2:	4299      	cmp	r1, r3
100045c4:	d859      	bhi.n	1000467a <_malloc_r+0x1c6>
100045c6:	420b      	tst	r3, r1
100045c8:	d105      	bne.n	100045d6 <_malloc_r+0x122>
100045ca:	2203      	movs	r2, #3
100045cc:	4390      	bics	r0, r2
100045ce:	0049      	lsls	r1, r1, #1
100045d0:	3004      	adds	r0, #4
100045d2:	420b      	tst	r3, r1
100045d4:	d0fb      	beq.n	100045ce <_malloc_r+0x11a>
100045d6:	2303      	movs	r3, #3
100045d8:	4698      	mov	r8, r3
100045da:	00c3      	lsls	r3, r0, #3
100045dc:	4699      	mov	r9, r3
100045de:	44b9      	add	r9, r7
100045e0:	46cc      	mov	ip, r9
100045e2:	4682      	mov	sl, r0
100045e4:	4663      	mov	r3, ip
100045e6:	68dc      	ldr	r4, [r3, #12]
100045e8:	45a4      	cmp	ip, r4
100045ea:	d107      	bne.n	100045fc <_malloc_r+0x148>
100045ec:	e12a      	b.n	10004844 <_malloc_r+0x390>
100045ee:	2a00      	cmp	r2, #0
100045f0:	db00      	blt.n	100045f4 <_malloc_r+0x140>
100045f2:	e133      	b.n	1000485c <_malloc_r+0x3a8>
100045f4:	68e4      	ldr	r4, [r4, #12]
100045f6:	45a4      	cmp	ip, r4
100045f8:	d100      	bne.n	100045fc <_malloc_r+0x148>
100045fa:	e123      	b.n	10004844 <_malloc_r+0x390>
100045fc:	4642      	mov	r2, r8
100045fe:	6863      	ldr	r3, [r4, #4]
10004600:	4393      	bics	r3, r2
10004602:	1b5a      	subs	r2, r3, r5
10004604:	2a0f      	cmp	r2, #15
10004606:	ddf2      	ble.n	100045ee <_malloc_r+0x13a>
10004608:	2001      	movs	r0, #1
1000460a:	4680      	mov	r8, r0
1000460c:	1961      	adds	r1, r4, r5
1000460e:	4305      	orrs	r5, r0
10004610:	6065      	str	r5, [r4, #4]
10004612:	68a0      	ldr	r0, [r4, #8]
10004614:	68e5      	ldr	r5, [r4, #12]
10004616:	3708      	adds	r7, #8
10004618:	60c5      	str	r5, [r0, #12]
1000461a:	60a8      	str	r0, [r5, #8]
1000461c:	4640      	mov	r0, r8
1000461e:	4310      	orrs	r0, r2
10004620:	60f9      	str	r1, [r7, #12]
10004622:	60b9      	str	r1, [r7, #8]
10004624:	6048      	str	r0, [r1, #4]
10004626:	60cf      	str	r7, [r1, #12]
10004628:	0030      	movs	r0, r6
1000462a:	608f      	str	r7, [r1, #8]
1000462c:	50e2      	str	r2, [r4, r3]
1000462e:	f000 fa09 	bl	10004a44 <__malloc_unlock>
10004632:	0020      	movs	r0, r4
10004634:	3008      	adds	r0, #8
10004636:	e002      	b.n	1000463e <_malloc_r+0x18a>
10004638:	230c      	movs	r3, #12
1000463a:	2000      	movs	r0, #0
1000463c:	6033      	str	r3, [r6, #0]
1000463e:	b003      	add	sp, #12
10004640:	bc3c      	pop	{r2, r3, r4, r5}
10004642:	4690      	mov	r8, r2
10004644:	4699      	mov	r9, r3
10004646:	46a2      	mov	sl, r4
10004648:	46ab      	mov	fp, r5
1000464a:	bdf0      	pop	{r4, r5, r6, r7, pc}
1000464c:	2180      	movs	r1, #128	; 0x80
1000464e:	233f      	movs	r3, #63	; 0x3f
10004650:	2040      	movs	r0, #64	; 0x40
10004652:	4698      	mov	r8, r3
10004654:	0089      	lsls	r1, r1, #2
10004656:	e776      	b.n	10004546 <_malloc_r+0x92>
10004658:	68dc      	ldr	r4, [r3, #12]
1000465a:	3002      	adds	r0, #2
1000465c:	42a3      	cmp	r3, r4
1000465e:	d000      	beq.n	10004662 <_malloc_r+0x1ae>
10004660:	e744      	b.n	100044ec <_malloc_r+0x38>
10004662:	003a      	movs	r2, r7
10004664:	693c      	ldr	r4, [r7, #16]
10004666:	3208      	adds	r2, #8
10004668:	4294      	cmp	r4, r2
1000466a:	d000      	beq.n	1000466e <_malloc_r+0x1ba>
1000466c:	e786      	b.n	1000457c <_malloc_r+0xc8>
1000466e:	2101      	movs	r1, #1
10004670:	687b      	ldr	r3, [r7, #4]
10004672:	1082      	asrs	r2, r0, #2
10004674:	4091      	lsls	r1, r2
10004676:	4299      	cmp	r1, r3
10004678:	d9a5      	bls.n	100045c6 <_malloc_r+0x112>
1000467a:	2303      	movs	r3, #3
1000467c:	68bc      	ldr	r4, [r7, #8]
1000467e:	6862      	ldr	r2, [r4, #4]
10004680:	439a      	bics	r2, r3
10004682:	4691      	mov	r9, r2
10004684:	4295      	cmp	r5, r2
10004686:	d803      	bhi.n	10004690 <_malloc_r+0x1dc>
10004688:	1b53      	subs	r3, r2, r5
1000468a:	2b0f      	cmp	r3, #15
1000468c:	dd00      	ble.n	10004690 <_malloc_r+0x1dc>
1000468e:	e088      	b.n	100047a2 <_malloc_r+0x2ee>
10004690:	0023      	movs	r3, r4
10004692:	444b      	add	r3, r9
10004694:	4a5e      	ldr	r2, [pc, #376]	; (10004810 <_malloc_r+0x35c>)
10004696:	9301      	str	r3, [sp, #4]
10004698:	4b5e      	ldr	r3, [pc, #376]	; (10004814 <_malloc_r+0x360>)
1000469a:	4693      	mov	fp, r2
1000469c:	681b      	ldr	r3, [r3, #0]
1000469e:	6812      	ldr	r2, [r2, #0]
100046a0:	18eb      	adds	r3, r5, r3
100046a2:	3201      	adds	r2, #1
100046a4:	d100      	bne.n	100046a8 <_malloc_r+0x1f4>
100046a6:	e13b      	b.n	10004920 <_malloc_r+0x46c>
100046a8:	4a5b      	ldr	r2, [pc, #364]	; (10004818 <_malloc_r+0x364>)
100046aa:	4694      	mov	ip, r2
100046ac:	4463      	add	r3, ip
100046ae:	0b1b      	lsrs	r3, r3, #12
100046b0:	031b      	lsls	r3, r3, #12
100046b2:	9300      	str	r3, [sp, #0]
100046b4:	0030      	movs	r0, r6
100046b6:	9900      	ldr	r1, [sp, #0]
100046b8:	f000 f9cc 	bl	10004a54 <_sbrk_r>
100046bc:	0003      	movs	r3, r0
100046be:	4680      	mov	r8, r0
100046c0:	3301      	adds	r3, #1
100046c2:	d100      	bne.n	100046c6 <_malloc_r+0x212>
100046c4:	e0f8      	b.n	100048b8 <_malloc_r+0x404>
100046c6:	9b01      	ldr	r3, [sp, #4]
100046c8:	4283      	cmp	r3, r0
100046ca:	d900      	bls.n	100046ce <_malloc_r+0x21a>
100046cc:	e0f2      	b.n	100048b4 <_malloc_r+0x400>
100046ce:	4b53      	ldr	r3, [pc, #332]	; (1000481c <_malloc_r+0x368>)
100046d0:	0019      	movs	r1, r3
100046d2:	469a      	mov	sl, r3
100046d4:	6809      	ldr	r1, [r1, #0]
100046d6:	9b00      	ldr	r3, [sp, #0]
100046d8:	468c      	mov	ip, r1
100046da:	4651      	mov	r1, sl
100046dc:	4463      	add	r3, ip
100046de:	600b      	str	r3, [r1, #0]
100046e0:	9901      	ldr	r1, [sp, #4]
100046e2:	001a      	movs	r2, r3
100046e4:	4281      	cmp	r1, r0
100046e6:	d100      	bne.n	100046ea <_malloc_r+0x236>
100046e8:	e150      	b.n	1000498c <_malloc_r+0x4d8>
100046ea:	465b      	mov	r3, fp
100046ec:	681b      	ldr	r3, [r3, #0]
100046ee:	3301      	adds	r3, #1
100046f0:	d100      	bne.n	100046f4 <_malloc_r+0x240>
100046f2:	e155      	b.n	100049a0 <_malloc_r+0x4ec>
100046f4:	4643      	mov	r3, r8
100046f6:	9901      	ldr	r1, [sp, #4]
100046f8:	1a5b      	subs	r3, r3, r1
100046fa:	189a      	adds	r2, r3, r2
100046fc:	4653      	mov	r3, sl
100046fe:	601a      	str	r2, [r3, #0]
10004700:	2307      	movs	r3, #7
10004702:	4642      	mov	r2, r8
10004704:	4641      	mov	r1, r8
10004706:	401a      	ands	r2, r3
10004708:	9201      	str	r2, [sp, #4]
1000470a:	4219      	tst	r1, r3
1000470c:	d100      	bne.n	10004710 <_malloc_r+0x25c>
1000470e:	e111      	b.n	10004934 <_malloc_r+0x480>
10004710:	2308      	movs	r3, #8
10004712:	4698      	mov	r8, r3
10004714:	1a88      	subs	r0, r1, r2
10004716:	4b42      	ldr	r3, [pc, #264]	; (10004820 <_malloc_r+0x36c>)
10004718:	9900      	ldr	r1, [sp, #0]
1000471a:	4480      	add	r8, r0
1000471c:	4441      	add	r1, r8
1000471e:	1a9b      	subs	r3, r3, r2
10004720:	1a5b      	subs	r3, r3, r1
10004722:	051b      	lsls	r3, r3, #20
10004724:	0d1b      	lsrs	r3, r3, #20
10004726:	9100      	str	r1, [sp, #0]
10004728:	0030      	movs	r0, r6
1000472a:	0019      	movs	r1, r3
1000472c:	469b      	mov	fp, r3
1000472e:	f000 f991 	bl	10004a54 <_sbrk_r>
10004732:	1c43      	adds	r3, r0, #1
10004734:	d100      	bne.n	10004738 <_malloc_r+0x284>
10004736:	e14f      	b.n	100049d8 <_malloc_r+0x524>
10004738:	4643      	mov	r3, r8
1000473a:	1ac0      	subs	r0, r0, r3
1000473c:	0003      	movs	r3, r0
1000473e:	445b      	add	r3, fp
10004740:	9300      	str	r3, [sp, #0]
10004742:	4653      	mov	r3, sl
10004744:	4652      	mov	r2, sl
10004746:	681b      	ldr	r3, [r3, #0]
10004748:	2101      	movs	r1, #1
1000474a:	445b      	add	r3, fp
1000474c:	6013      	str	r3, [r2, #0]
1000474e:	4642      	mov	r2, r8
10004750:	4640      	mov	r0, r8
10004752:	60ba      	str	r2, [r7, #8]
10004754:	9a00      	ldr	r2, [sp, #0]
10004756:	430a      	orrs	r2, r1
10004758:	6042      	str	r2, [r0, #4]
1000475a:	42bc      	cmp	r4, r7
1000475c:	d100      	bne.n	10004760 <_malloc_r+0x2ac>
1000475e:	e123      	b.n	100049a8 <_malloc_r+0x4f4>
10004760:	464a      	mov	r2, r9
10004762:	2a0f      	cmp	r2, #15
10004764:	d800      	bhi.n	10004768 <_malloc_r+0x2b4>
10004766:	e121      	b.n	100049ac <_malloc_r+0x4f8>
10004768:	2007      	movs	r0, #7
1000476a:	3a0c      	subs	r2, #12
1000476c:	4382      	bics	r2, r0
1000476e:	6860      	ldr	r0, [r4, #4]
10004770:	4001      	ands	r1, r0
10004772:	2005      	movs	r0, #5
10004774:	4311      	orrs	r1, r2
10004776:	6061      	str	r1, [r4, #4]
10004778:	18a1      	adds	r1, r4, r2
1000477a:	6048      	str	r0, [r1, #4]
1000477c:	6088      	str	r0, [r1, #8]
1000477e:	2a0f      	cmp	r2, #15
10004780:	d900      	bls.n	10004784 <_malloc_r+0x2d0>
10004782:	e134      	b.n	100049ee <_malloc_r+0x53a>
10004784:	4642      	mov	r2, r8
10004786:	4644      	mov	r4, r8
10004788:	6852      	ldr	r2, [r2, #4]
1000478a:	4926      	ldr	r1, [pc, #152]	; (10004824 <_malloc_r+0x370>)
1000478c:	6808      	ldr	r0, [r1, #0]
1000478e:	4298      	cmp	r0, r3
10004790:	d200      	bcs.n	10004794 <_malloc_r+0x2e0>
10004792:	600b      	str	r3, [r1, #0]
10004794:	4924      	ldr	r1, [pc, #144]	; (10004828 <_malloc_r+0x374>)
10004796:	6808      	ldr	r0, [r1, #0]
10004798:	4298      	cmp	r0, r3
1000479a:	d300      	bcc.n	1000479e <_malloc_r+0x2ea>
1000479c:	e08e      	b.n	100048bc <_malloc_r+0x408>
1000479e:	600b      	str	r3, [r1, #0]
100047a0:	e08c      	b.n	100048bc <_malloc_r+0x408>
100047a2:	2201      	movs	r2, #1
100047a4:	0029      	movs	r1, r5
100047a6:	4313      	orrs	r3, r2
100047a8:	4311      	orrs	r1, r2
100047aa:	1965      	adds	r5, r4, r5
100047ac:	6061      	str	r1, [r4, #4]
100047ae:	0030      	movs	r0, r6
100047b0:	60bd      	str	r5, [r7, #8]
100047b2:	606b      	str	r3, [r5, #4]
100047b4:	f000 f946 	bl	10004a44 <__malloc_unlock>
100047b8:	0020      	movs	r0, r4
100047ba:	3008      	adds	r0, #8
100047bc:	e73f      	b.n	1000463e <_malloc_r+0x18a>
100047be:	0a5a      	lsrs	r2, r3, #9
100047c0:	2a04      	cmp	r2, #4
100047c2:	d971      	bls.n	100048a8 <_malloc_r+0x3f4>
100047c4:	2a14      	cmp	r2, #20
100047c6:	d900      	bls.n	100047ca <_malloc_r+0x316>
100047c8:	e0c4      	b.n	10004954 <_malloc_r+0x4a0>
100047ca:	0011      	movs	r1, r2
100047cc:	325c      	adds	r2, #92	; 0x5c
100047ce:	315b      	adds	r1, #91	; 0x5b
100047d0:	00d2      	lsls	r2, r2, #3
100047d2:	2308      	movs	r3, #8
100047d4:	425b      	negs	r3, r3
100047d6:	469c      	mov	ip, r3
100047d8:	18ba      	adds	r2, r7, r2
100047da:	4494      	add	ip, r2
100047dc:	4663      	mov	r3, ip
100047de:	689a      	ldr	r2, [r3, #8]
100047e0:	2303      	movs	r3, #3
100047e2:	4698      	mov	r8, r3
100047e4:	4594      	cmp	ip, r2
100047e6:	d100      	bne.n	100047ea <_malloc_r+0x336>
100047e8:	e09d      	b.n	10004926 <_malloc_r+0x472>
100047ea:	4643      	mov	r3, r8
100047ec:	6851      	ldr	r1, [r2, #4]
100047ee:	4399      	bics	r1, r3
100047f0:	4549      	cmp	r1, r9
100047f2:	d902      	bls.n	100047fa <_malloc_r+0x346>
100047f4:	6892      	ldr	r2, [r2, #8]
100047f6:	4594      	cmp	ip, r2
100047f8:	d1f7      	bne.n	100047ea <_malloc_r+0x336>
100047fa:	68d3      	ldr	r3, [r2, #12]
100047fc:	469c      	mov	ip, r3
100047fe:	687b      	ldr	r3, [r7, #4]
10004800:	4661      	mov	r1, ip
10004802:	60a2      	str	r2, [r4, #8]
10004804:	60e1      	str	r1, [r4, #12]
10004806:	608c      	str	r4, [r1, #8]
10004808:	60d4      	str	r4, [r2, #12]
1000480a:	e6d7      	b.n	100045bc <_malloc_r+0x108>
1000480c:	20000640 	.word	0x20000640
10004810:	20000a48 	.word	0x20000a48
10004814:	20000ab8 	.word	0x20000ab8
10004818:	0000100f 	.word	0x0000100f
1000481c:	20000a88 	.word	0x20000a88
10004820:	00001008 	.word	0x00001008
10004824:	20000ab0 	.word	0x20000ab0
10004828:	20000ab4 	.word	0x20000ab4
1000482c:	2814      	cmp	r0, #20
1000482e:	d952      	bls.n	100048d6 <_malloc_r+0x422>
10004830:	2854      	cmp	r0, #84	; 0x54
10004832:	d900      	bls.n	10004836 <_malloc_r+0x382>
10004834:	e096      	b.n	10004964 <_malloc_r+0x4b0>
10004836:	236e      	movs	r3, #110	; 0x6e
10004838:	4698      	mov	r8, r3
1000483a:	0b28      	lsrs	r0, r5, #12
1000483c:	4480      	add	r8, r0
1000483e:	306f      	adds	r0, #111	; 0x6f
10004840:	00c1      	lsls	r1, r0, #3
10004842:	e680      	b.n	10004546 <_malloc_r+0x92>
10004844:	2308      	movs	r3, #8
10004846:	469b      	mov	fp, r3
10004848:	3b07      	subs	r3, #7
1000484a:	44dc      	add	ip, fp
1000484c:	469b      	mov	fp, r3
1000484e:	44da      	add	sl, fp
10004850:	4643      	mov	r3, r8
10004852:	4652      	mov	r2, sl
10004854:	4213      	tst	r3, r2
10004856:	d000      	beq.n	1000485a <_malloc_r+0x3a6>
10004858:	e6c4      	b.n	100045e4 <_malloc_r+0x130>
1000485a:	e04c      	b.n	100048f6 <_malloc_r+0x442>
1000485c:	2201      	movs	r2, #1
1000485e:	18e3      	adds	r3, r4, r3
10004860:	6859      	ldr	r1, [r3, #4]
10004862:	0030      	movs	r0, r6
10004864:	430a      	orrs	r2, r1
10004866:	605a      	str	r2, [r3, #4]
10004868:	68e3      	ldr	r3, [r4, #12]
1000486a:	68a2      	ldr	r2, [r4, #8]
1000486c:	60d3      	str	r3, [r2, #12]
1000486e:	609a      	str	r2, [r3, #8]
10004870:	f000 f8e8 	bl	10004a44 <__malloc_unlock>
10004874:	0020      	movs	r0, r4
10004876:	3008      	adds	r0, #8
10004878:	e6e1      	b.n	1000463e <_malloc_r+0x18a>
1000487a:	002b      	movs	r3, r5
1000487c:	08e8      	lsrs	r0, r5, #3
1000487e:	3308      	adds	r3, #8
10004880:	e62c      	b.n	100044dc <_malloc_r+0x28>
10004882:	2301      	movs	r3, #1
10004884:	1960      	adds	r0, r4, r5
10004886:	431d      	orrs	r5, r3
10004888:	6065      	str	r5, [r4, #4]
1000488a:	6178      	str	r0, [r7, #20]
1000488c:	6138      	str	r0, [r7, #16]
1000488e:	60c2      	str	r2, [r0, #12]
10004890:	6082      	str	r2, [r0, #8]
10004892:	001a      	movs	r2, r3
10004894:	464b      	mov	r3, r9
10004896:	430a      	orrs	r2, r1
10004898:	6042      	str	r2, [r0, #4]
1000489a:	0030      	movs	r0, r6
1000489c:	50e1      	str	r1, [r4, r3]
1000489e:	f000 f8d1 	bl	10004a44 <__malloc_unlock>
100048a2:	0020      	movs	r0, r4
100048a4:	3008      	adds	r0, #8
100048a6:	e6ca      	b.n	1000463e <_malloc_r+0x18a>
100048a8:	099a      	lsrs	r2, r3, #6
100048aa:	0011      	movs	r1, r2
100048ac:	3239      	adds	r2, #57	; 0x39
100048ae:	3138      	adds	r1, #56	; 0x38
100048b0:	00d2      	lsls	r2, r2, #3
100048b2:	e78e      	b.n	100047d2 <_malloc_r+0x31e>
100048b4:	42bc      	cmp	r4, r7
100048b6:	d060      	beq.n	1000497a <_malloc_r+0x4c6>
100048b8:	68bc      	ldr	r4, [r7, #8]
100048ba:	6862      	ldr	r2, [r4, #4]
100048bc:	2303      	movs	r3, #3
100048be:	439a      	bics	r2, r3
100048c0:	1b53      	subs	r3, r2, r5
100048c2:	4295      	cmp	r5, r2
100048c4:	d802      	bhi.n	100048cc <_malloc_r+0x418>
100048c6:	2b0f      	cmp	r3, #15
100048c8:	dd00      	ble.n	100048cc <_malloc_r+0x418>
100048ca:	e76a      	b.n	100047a2 <_malloc_r+0x2ee>
100048cc:	0030      	movs	r0, r6
100048ce:	f000 f8b9 	bl	10004a44 <__malloc_unlock>
100048d2:	2000      	movs	r0, #0
100048d4:	e6b3      	b.n	1000463e <_malloc_r+0x18a>
100048d6:	235b      	movs	r3, #91	; 0x5b
100048d8:	4698      	mov	r8, r3
100048da:	4480      	add	r8, r0
100048dc:	305c      	adds	r0, #92	; 0x5c
100048de:	00c1      	lsls	r1, r0, #3
100048e0:	e631      	b.n	10004546 <_malloc_r+0x92>
100048e2:	2308      	movs	r3, #8
100048e4:	425b      	negs	r3, r3
100048e6:	469c      	mov	ip, r3
100048e8:	44e1      	add	r9, ip
100048ea:	464b      	mov	r3, r9
100048ec:	689b      	ldr	r3, [r3, #8]
100048ee:	3801      	subs	r0, #1
100048f0:	454b      	cmp	r3, r9
100048f2:	d000      	beq.n	100048f6 <_malloc_r+0x442>
100048f4:	e098      	b.n	10004a28 <_malloc_r+0x574>
100048f6:	4643      	mov	r3, r8
100048f8:	4203      	tst	r3, r0
100048fa:	d1f2      	bne.n	100048e2 <_malloc_r+0x42e>
100048fc:	687b      	ldr	r3, [r7, #4]
100048fe:	438b      	bics	r3, r1
10004900:	607b      	str	r3, [r7, #4]
10004902:	0049      	lsls	r1, r1, #1
10004904:	4299      	cmp	r1, r3
10004906:	d900      	bls.n	1000490a <_malloc_r+0x456>
10004908:	e6b7      	b.n	1000467a <_malloc_r+0x1c6>
1000490a:	2900      	cmp	r1, #0
1000490c:	d104      	bne.n	10004918 <_malloc_r+0x464>
1000490e:	e6b4      	b.n	1000467a <_malloc_r+0x1c6>
10004910:	2204      	movs	r2, #4
10004912:	4694      	mov	ip, r2
10004914:	0049      	lsls	r1, r1, #1
10004916:	44e2      	add	sl, ip
10004918:	420b      	tst	r3, r1
1000491a:	d0f9      	beq.n	10004910 <_malloc_r+0x45c>
1000491c:	4650      	mov	r0, sl
1000491e:	e65c      	b.n	100045da <_malloc_r+0x126>
10004920:	3310      	adds	r3, #16
10004922:	9300      	str	r3, [sp, #0]
10004924:	e6c6      	b.n	100046b4 <_malloc_r+0x200>
10004926:	1089      	asrs	r1, r1, #2
10004928:	3b02      	subs	r3, #2
1000492a:	408b      	lsls	r3, r1
1000492c:	6879      	ldr	r1, [r7, #4]
1000492e:	430b      	orrs	r3, r1
10004930:	607b      	str	r3, [r7, #4]
10004932:	e765      	b.n	10004800 <_malloc_r+0x34c>
10004934:	9b00      	ldr	r3, [sp, #0]
10004936:	0030      	movs	r0, r6
10004938:	4443      	add	r3, r8
1000493a:	425b      	negs	r3, r3
1000493c:	051b      	lsls	r3, r3, #20
1000493e:	0d1b      	lsrs	r3, r3, #20
10004940:	0019      	movs	r1, r3
10004942:	469b      	mov	fp, r3
10004944:	f000 f886 	bl	10004a54 <_sbrk_r>
10004948:	1c43      	adds	r3, r0, #1
1000494a:	d000      	beq.n	1000494e <_malloc_r+0x49a>
1000494c:	e6f4      	b.n	10004738 <_malloc_r+0x284>
1000494e:	2300      	movs	r3, #0
10004950:	469b      	mov	fp, r3
10004952:	e6f6      	b.n	10004742 <_malloc_r+0x28e>
10004954:	2a54      	cmp	r2, #84	; 0x54
10004956:	d82b      	bhi.n	100049b0 <_malloc_r+0x4fc>
10004958:	0b1a      	lsrs	r2, r3, #12
1000495a:	0011      	movs	r1, r2
1000495c:	326f      	adds	r2, #111	; 0x6f
1000495e:	316e      	adds	r1, #110	; 0x6e
10004960:	00d2      	lsls	r2, r2, #3
10004962:	e736      	b.n	100047d2 <_malloc_r+0x31e>
10004964:	23aa      	movs	r3, #170	; 0xaa
10004966:	005b      	lsls	r3, r3, #1
10004968:	4298      	cmp	r0, r3
1000496a:	d82b      	bhi.n	100049c4 <_malloc_r+0x510>
1000496c:	3bdd      	subs	r3, #221	; 0xdd
1000496e:	4698      	mov	r8, r3
10004970:	0be8      	lsrs	r0, r5, #15
10004972:	4480      	add	r8, r0
10004974:	3078      	adds	r0, #120	; 0x78
10004976:	00c1      	lsls	r1, r0, #3
10004978:	e5e5      	b.n	10004546 <_malloc_r+0x92>
1000497a:	4b2c      	ldr	r3, [pc, #176]	; (10004a2c <_malloc_r+0x578>)
1000497c:	9a00      	ldr	r2, [sp, #0]
1000497e:	469a      	mov	sl, r3
10004980:	681b      	ldr	r3, [r3, #0]
10004982:	469c      	mov	ip, r3
10004984:	4653      	mov	r3, sl
10004986:	4462      	add	r2, ip
10004988:	601a      	str	r2, [r3, #0]
1000498a:	e6ae      	b.n	100046ea <_malloc_r+0x236>
1000498c:	0509      	lsls	r1, r1, #20
1000498e:	d000      	beq.n	10004992 <_malloc_r+0x4de>
10004990:	e6ab      	b.n	100046ea <_malloc_r+0x236>
10004992:	9a00      	ldr	r2, [sp, #0]
10004994:	68bc      	ldr	r4, [r7, #8]
10004996:	444a      	add	r2, r9
10004998:	3101      	adds	r1, #1
1000499a:	430a      	orrs	r2, r1
1000499c:	6062      	str	r2, [r4, #4]
1000499e:	e6f4      	b.n	1000478a <_malloc_r+0x2d6>
100049a0:	465b      	mov	r3, fp
100049a2:	4642      	mov	r2, r8
100049a4:	601a      	str	r2, [r3, #0]
100049a6:	e6ab      	b.n	10004700 <_malloc_r+0x24c>
100049a8:	4644      	mov	r4, r8
100049aa:	e6ee      	b.n	1000478a <_malloc_r+0x2d6>
100049ac:	6041      	str	r1, [r0, #4]
100049ae:	e78d      	b.n	100048cc <_malloc_r+0x418>
100049b0:	21aa      	movs	r1, #170	; 0xaa
100049b2:	0049      	lsls	r1, r1, #1
100049b4:	428a      	cmp	r2, r1
100049b6:	d824      	bhi.n	10004a02 <_malloc_r+0x54e>
100049b8:	0bda      	lsrs	r2, r3, #15
100049ba:	0011      	movs	r1, r2
100049bc:	3278      	adds	r2, #120	; 0x78
100049be:	3177      	adds	r1, #119	; 0x77
100049c0:	00d2      	lsls	r2, r2, #3
100049c2:	e706      	b.n	100047d2 <_malloc_r+0x31e>
100049c4:	4b1a      	ldr	r3, [pc, #104]	; (10004a30 <_malloc_r+0x57c>)
100049c6:	4298      	cmp	r0, r3
100049c8:	d824      	bhi.n	10004a14 <_malloc_r+0x560>
100049ca:	237c      	movs	r3, #124	; 0x7c
100049cc:	4698      	mov	r8, r3
100049ce:	0ca8      	lsrs	r0, r5, #18
100049d0:	4480      	add	r8, r0
100049d2:	307d      	adds	r0, #125	; 0x7d
100049d4:	00c1      	lsls	r1, r0, #3
100049d6:	e5b6      	b.n	10004546 <_malloc_r+0x92>
100049d8:	9a00      	ldr	r2, [sp, #0]
100049da:	9b01      	ldr	r3, [sp, #4]
100049dc:	4694      	mov	ip, r2
100049de:	4642      	mov	r2, r8
100049e0:	3b08      	subs	r3, #8
100049e2:	4463      	add	r3, ip
100049e4:	1a9b      	subs	r3, r3, r2
100049e6:	9300      	str	r3, [sp, #0]
100049e8:	2300      	movs	r3, #0
100049ea:	469b      	mov	fp, r3
100049ec:	e6a9      	b.n	10004742 <_malloc_r+0x28e>
100049ee:	0021      	movs	r1, r4
100049f0:	0030      	movs	r0, r6
100049f2:	3108      	adds	r1, #8
100049f4:	f000 f8bc 	bl	10004b70 <_free_r>
100049f8:	4653      	mov	r3, sl
100049fa:	68bc      	ldr	r4, [r7, #8]
100049fc:	681b      	ldr	r3, [r3, #0]
100049fe:	6862      	ldr	r2, [r4, #4]
10004a00:	e6c3      	b.n	1000478a <_malloc_r+0x2d6>
10004a02:	490b      	ldr	r1, [pc, #44]	; (10004a30 <_malloc_r+0x57c>)
10004a04:	428a      	cmp	r2, r1
10004a06:	d80b      	bhi.n	10004a20 <_malloc_r+0x56c>
10004a08:	0c9a      	lsrs	r2, r3, #18
10004a0a:	0011      	movs	r1, r2
10004a0c:	327d      	adds	r2, #125	; 0x7d
10004a0e:	317c      	adds	r1, #124	; 0x7c
10004a10:	00d2      	lsls	r2, r2, #3
10004a12:	e6de      	b.n	100047d2 <_malloc_r+0x31e>
10004a14:	21fe      	movs	r1, #254	; 0xfe
10004a16:	237e      	movs	r3, #126	; 0x7e
10004a18:	207f      	movs	r0, #127	; 0x7f
10004a1a:	4698      	mov	r8, r3
10004a1c:	0089      	lsls	r1, r1, #2
10004a1e:	e592      	b.n	10004546 <_malloc_r+0x92>
10004a20:	22fe      	movs	r2, #254	; 0xfe
10004a22:	217e      	movs	r1, #126	; 0x7e
10004a24:	0092      	lsls	r2, r2, #2
10004a26:	e6d4      	b.n	100047d2 <_malloc_r+0x31e>
10004a28:	687b      	ldr	r3, [r7, #4]
10004a2a:	e76a      	b.n	10004902 <_malloc_r+0x44e>
10004a2c:	20000a88 	.word	0x20000a88
10004a30:	00000554 	.word	0x00000554

10004a34 <__malloc_lock>:
10004a34:	b510      	push	{r4, lr}
10004a36:	4802      	ldr	r0, [pc, #8]	; (10004a40 <__malloc_lock+0xc>)
10004a38:	f000 f97c 	bl	10004d34 <__retarget_lock_acquire_recursive>
10004a3c:	bd10      	pop	{r4, pc}
10004a3e:	46c0      	nop			; (mov r8, r8)
10004a40:	20000d4c 	.word	0x20000d4c

10004a44 <__malloc_unlock>:
10004a44:	b510      	push	{r4, lr}
10004a46:	4802      	ldr	r0, [pc, #8]	; (10004a50 <__malloc_unlock+0xc>)
10004a48:	f000 f976 	bl	10004d38 <__retarget_lock_release_recursive>
10004a4c:	bd10      	pop	{r4, pc}
10004a4e:	46c0      	nop			; (mov r8, r8)
10004a50:	20000d4c 	.word	0x20000d4c

10004a54 <_sbrk_r>:
10004a54:	2300      	movs	r3, #0
10004a56:	b570      	push	{r4, r5, r6, lr}
10004a58:	4d06      	ldr	r5, [pc, #24]	; (10004a74 <_sbrk_r+0x20>)
10004a5a:	0004      	movs	r4, r0
10004a5c:	0008      	movs	r0, r1
10004a5e:	602b      	str	r3, [r5, #0]
10004a60:	f7fc fb4a 	bl	100010f8 <_sbrk>
10004a64:	1c43      	adds	r3, r0, #1
10004a66:	d000      	beq.n	10004a6a <_sbrk_r+0x16>
10004a68:	bd70      	pop	{r4, r5, r6, pc}
10004a6a:	682b      	ldr	r3, [r5, #0]
10004a6c:	2b00      	cmp	r3, #0
10004a6e:	d0fb      	beq.n	10004a68 <_sbrk_r+0x14>
10004a70:	6023      	str	r3, [r4, #0]
10004a72:	e7f9      	b.n	10004a68 <_sbrk_r+0x14>
10004a74:	20000d60 	.word	0x20000d60

10004a78 <strlen>:
10004a78:	b510      	push	{r4, lr}
10004a7a:	0783      	lsls	r3, r0, #30
10004a7c:	d00a      	beq.n	10004a94 <strlen+0x1c>
10004a7e:	0003      	movs	r3, r0
10004a80:	2103      	movs	r1, #3
10004a82:	e002      	b.n	10004a8a <strlen+0x12>
10004a84:	3301      	adds	r3, #1
10004a86:	420b      	tst	r3, r1
10004a88:	d005      	beq.n	10004a96 <strlen+0x1e>
10004a8a:	781a      	ldrb	r2, [r3, #0]
10004a8c:	2a00      	cmp	r2, #0
10004a8e:	d1f9      	bne.n	10004a84 <strlen+0xc>
10004a90:	1a18      	subs	r0, r3, r0
10004a92:	bd10      	pop	{r4, pc}
10004a94:	0003      	movs	r3, r0
10004a96:	6819      	ldr	r1, [r3, #0]
10004a98:	4a0c      	ldr	r2, [pc, #48]	; (10004acc <strlen+0x54>)
10004a9a:	4c0d      	ldr	r4, [pc, #52]	; (10004ad0 <strlen+0x58>)
10004a9c:	188a      	adds	r2, r1, r2
10004a9e:	438a      	bics	r2, r1
10004aa0:	4222      	tst	r2, r4
10004aa2:	d10f      	bne.n	10004ac4 <strlen+0x4c>
10004aa4:	6859      	ldr	r1, [r3, #4]
10004aa6:	4a09      	ldr	r2, [pc, #36]	; (10004acc <strlen+0x54>)
10004aa8:	3304      	adds	r3, #4
10004aaa:	188a      	adds	r2, r1, r2
10004aac:	438a      	bics	r2, r1
10004aae:	4222      	tst	r2, r4
10004ab0:	d108      	bne.n	10004ac4 <strlen+0x4c>
10004ab2:	6859      	ldr	r1, [r3, #4]
10004ab4:	4a05      	ldr	r2, [pc, #20]	; (10004acc <strlen+0x54>)
10004ab6:	3304      	adds	r3, #4
10004ab8:	188a      	adds	r2, r1, r2
10004aba:	438a      	bics	r2, r1
10004abc:	4222      	tst	r2, r4
10004abe:	d0f1      	beq.n	10004aa4 <strlen+0x2c>
10004ac0:	e000      	b.n	10004ac4 <strlen+0x4c>
10004ac2:	3301      	adds	r3, #1
10004ac4:	781a      	ldrb	r2, [r3, #0]
10004ac6:	2a00      	cmp	r2, #0
10004ac8:	d1fb      	bne.n	10004ac2 <strlen+0x4a>
10004aca:	e7e1      	b.n	10004a90 <strlen+0x18>
10004acc:	fefefeff 	.word	0xfefefeff
10004ad0:	80808080 	.word	0x80808080

10004ad4 <_malloc_trim_r>:
10004ad4:	b5f8      	push	{r3, r4, r5, r6, r7, lr}
10004ad6:	000c      	movs	r4, r1
10004ad8:	0005      	movs	r5, r0
10004ada:	f7ff ffab 	bl	10004a34 <__malloc_lock>
10004ade:	4f20      	ldr	r7, [pc, #128]	; (10004b60 <_malloc_trim_r+0x8c>)
10004ae0:	68bb      	ldr	r3, [r7, #8]
10004ae2:	685e      	ldr	r6, [r3, #4]
10004ae4:	2303      	movs	r3, #3
10004ae6:	439e      	bics	r6, r3
10004ae8:	4b1e      	ldr	r3, [pc, #120]	; (10004b64 <_malloc_trim_r+0x90>)
10004aea:	1b34      	subs	r4, r6, r4
10004aec:	469c      	mov	ip, r3
10004aee:	4464      	add	r4, ip
10004af0:	0b24      	lsrs	r4, r4, #12
10004af2:	3c01      	subs	r4, #1
10004af4:	3311      	adds	r3, #17
10004af6:	0324      	lsls	r4, r4, #12
10004af8:	429c      	cmp	r4, r3
10004afa:	db07      	blt.n	10004b0c <_malloc_trim_r+0x38>
10004afc:	2100      	movs	r1, #0
10004afe:	0028      	movs	r0, r5
10004b00:	f7ff ffa8 	bl	10004a54 <_sbrk_r>
10004b04:	68bb      	ldr	r3, [r7, #8]
10004b06:	199b      	adds	r3, r3, r6
10004b08:	4298      	cmp	r0, r3
10004b0a:	d004      	beq.n	10004b16 <_malloc_trim_r+0x42>
10004b0c:	0028      	movs	r0, r5
10004b0e:	f7ff ff99 	bl	10004a44 <__malloc_unlock>
10004b12:	2000      	movs	r0, #0
10004b14:	bdf8      	pop	{r3, r4, r5, r6, r7, pc}
10004b16:	0028      	movs	r0, r5
10004b18:	4261      	negs	r1, r4
10004b1a:	f7ff ff9b 	bl	10004a54 <_sbrk_r>
10004b1e:	1c43      	adds	r3, r0, #1
10004b20:	d00d      	beq.n	10004b3e <_malloc_trim_r+0x6a>
10004b22:	2201      	movs	r2, #1
10004b24:	68bb      	ldr	r3, [r7, #8]
10004b26:	1b36      	subs	r6, r6, r4
10004b28:	4316      	orrs	r6, r2
10004b2a:	605e      	str	r6, [r3, #4]
10004b2c:	4b0e      	ldr	r3, [pc, #56]	; (10004b68 <_malloc_trim_r+0x94>)
10004b2e:	0028      	movs	r0, r5
10004b30:	681a      	ldr	r2, [r3, #0]
10004b32:	1b14      	subs	r4, r2, r4
10004b34:	601c      	str	r4, [r3, #0]
10004b36:	f7ff ff85 	bl	10004a44 <__malloc_unlock>
10004b3a:	2001      	movs	r0, #1
10004b3c:	e7ea      	b.n	10004b14 <_malloc_trim_r+0x40>
10004b3e:	2100      	movs	r1, #0
10004b40:	0028      	movs	r0, r5
10004b42:	f7ff ff87 	bl	10004a54 <_sbrk_r>
10004b46:	68ba      	ldr	r2, [r7, #8]
10004b48:	1a83      	subs	r3, r0, r2
10004b4a:	2b0f      	cmp	r3, #15
10004b4c:	ddde      	ble.n	10004b0c <_malloc_trim_r+0x38>
10004b4e:	4907      	ldr	r1, [pc, #28]	; (10004b6c <_malloc_trim_r+0x98>)
10004b50:	6809      	ldr	r1, [r1, #0]
10004b52:	1a40      	subs	r0, r0, r1
10004b54:	4904      	ldr	r1, [pc, #16]	; (10004b68 <_malloc_trim_r+0x94>)
10004b56:	6008      	str	r0, [r1, #0]
10004b58:	2101      	movs	r1, #1
10004b5a:	430b      	orrs	r3, r1
10004b5c:	6053      	str	r3, [r2, #4]
10004b5e:	e7d5      	b.n	10004b0c <_malloc_trim_r+0x38>
10004b60:	20000640 	.word	0x20000640
10004b64:	00000fef 	.word	0x00000fef
10004b68:	20000a88 	.word	0x20000a88
10004b6c:	20000a48 	.word	0x20000a48

10004b70 <_free_r>:
10004b70:	b5f0      	push	{r4, r5, r6, r7, lr}
10004b72:	46c6      	mov	lr, r8
10004b74:	0005      	movs	r5, r0
10004b76:	000c      	movs	r4, r1
10004b78:	b500      	push	{lr}
10004b7a:	2900      	cmp	r1, #0
10004b7c:	d04f      	beq.n	10004c1e <_free_r+0xae>
10004b7e:	f7ff ff59 	bl	10004a34 <__malloc_lock>
10004b82:	0021      	movs	r1, r4
10004b84:	3908      	subs	r1, #8
10004b86:	684c      	ldr	r4, [r1, #4]
10004b88:	2601      	movs	r6, #1
10004b8a:	0022      	movs	r2, r4
10004b8c:	2003      	movs	r0, #3
10004b8e:	43b2      	bics	r2, r6
10004b90:	188f      	adds	r7, r1, r2
10004b92:	687b      	ldr	r3, [r7, #4]
10004b94:	4383      	bics	r3, r0
10004b96:	4862      	ldr	r0, [pc, #392]	; (10004d20 <_free_r+0x1b0>)
10004b98:	4698      	mov	r8, r3
10004b9a:	6883      	ldr	r3, [r0, #8]
10004b9c:	42bb      	cmp	r3, r7
10004b9e:	d06b      	beq.n	10004c78 <_free_r+0x108>
10004ba0:	4643      	mov	r3, r8
10004ba2:	607b      	str	r3, [r7, #4]
10004ba4:	4226      	tst	r6, r4
10004ba6:	d11e      	bne.n	10004be6 <_free_r+0x76>
10004ba8:	2308      	movs	r3, #8
10004baa:	469c      	mov	ip, r3
10004bac:	680c      	ldr	r4, [r1, #0]
10004bae:	4484      	add	ip, r0
10004bb0:	1b09      	subs	r1, r1, r4
10004bb2:	1912      	adds	r2, r2, r4
10004bb4:	688c      	ldr	r4, [r1, #8]
10004bb6:	4564      	cmp	r4, ip
10004bb8:	d04f      	beq.n	10004c5a <_free_r+0xea>
10004bba:	68cb      	ldr	r3, [r1, #12]
10004bbc:	60e3      	str	r3, [r4, #12]
10004bbe:	609c      	str	r4, [r3, #8]
10004bc0:	4643      	mov	r3, r8
10004bc2:	18fc      	adds	r4, r7, r3
10004bc4:	6864      	ldr	r4, [r4, #4]
10004bc6:	4234      	tst	r4, r6
10004bc8:	d111      	bne.n	10004bee <_free_r+0x7e>
10004bca:	68bb      	ldr	r3, [r7, #8]
10004bcc:	4c55      	ldr	r4, [pc, #340]	; (10004d24 <_free_r+0x1b4>)
10004bce:	4442      	add	r2, r8
10004bd0:	42a3      	cmp	r3, r4
10004bd2:	d100      	bne.n	10004bd6 <_free_r+0x66>
10004bd4:	e07f      	b.n	10004cd6 <_free_r+0x166>
10004bd6:	68fc      	ldr	r4, [r7, #12]
10004bd8:	60dc      	str	r4, [r3, #12]
10004bda:	60a3      	str	r3, [r4, #8]
10004bdc:	2301      	movs	r3, #1
10004bde:	4313      	orrs	r3, r2
10004be0:	604b      	str	r3, [r1, #4]
10004be2:	508a      	str	r2, [r1, r2]
10004be4:	e006      	b.n	10004bf4 <_free_r+0x84>
10004be6:	18fc      	adds	r4, r7, r3
10004be8:	6864      	ldr	r4, [r4, #4]
10004bea:	4234      	tst	r4, r6
10004bec:	d0ed      	beq.n	10004bca <_free_r+0x5a>
10004bee:	4316      	orrs	r6, r2
10004bf0:	604e      	str	r6, [r1, #4]
10004bf2:	603a      	str	r2, [r7, #0]
10004bf4:	2380      	movs	r3, #128	; 0x80
10004bf6:	009b      	lsls	r3, r3, #2
10004bf8:	429a      	cmp	r2, r3
10004bfa:	d213      	bcs.n	10004c24 <_free_r+0xb4>
10004bfc:	0954      	lsrs	r4, r2, #5
10004bfe:	08d3      	lsrs	r3, r2, #3
10004c00:	2201      	movs	r2, #1
10004c02:	40a2      	lsls	r2, r4
10004c04:	6844      	ldr	r4, [r0, #4]
10004c06:	00db      	lsls	r3, r3, #3
10004c08:	4322      	orrs	r2, r4
10004c0a:	6042      	str	r2, [r0, #4]
10004c0c:	1818      	adds	r0, r3, r0
10004c0e:	6883      	ldr	r3, [r0, #8]
10004c10:	60c8      	str	r0, [r1, #12]
10004c12:	608b      	str	r3, [r1, #8]
10004c14:	6081      	str	r1, [r0, #8]
10004c16:	60d9      	str	r1, [r3, #12]
10004c18:	0028      	movs	r0, r5
10004c1a:	f7ff ff13 	bl	10004a44 <__malloc_unlock>
10004c1e:	bc04      	pop	{r2}
10004c20:	4690      	mov	r8, r2
10004c22:	bdf0      	pop	{r4, r5, r6, r7, pc}
10004c24:	0a53      	lsrs	r3, r2, #9
10004c26:	2b04      	cmp	r3, #4
10004c28:	d83f      	bhi.n	10004caa <_free_r+0x13a>
10004c2a:	0994      	lsrs	r4, r2, #6
10004c2c:	0026      	movs	r6, r4
10004c2e:	3439      	adds	r4, #57	; 0x39
10004c30:	3638      	adds	r6, #56	; 0x38
10004c32:	00e4      	lsls	r4, r4, #3
10004c34:	1904      	adds	r4, r0, r4
10004c36:	6823      	ldr	r3, [r4, #0]
10004c38:	3c08      	subs	r4, #8
10004c3a:	2703      	movs	r7, #3
10004c3c:	429c      	cmp	r4, r3
10004c3e:	d043      	beq.n	10004cc8 <_free_r+0x158>
10004c40:	6858      	ldr	r0, [r3, #4]
10004c42:	43b8      	bics	r0, r7
10004c44:	4290      	cmp	r0, r2
10004c46:	d902      	bls.n	10004c4e <_free_r+0xde>
10004c48:	689b      	ldr	r3, [r3, #8]
10004c4a:	429c      	cmp	r4, r3
10004c4c:	d1f8      	bne.n	10004c40 <_free_r+0xd0>
10004c4e:	68dc      	ldr	r4, [r3, #12]
10004c50:	60cc      	str	r4, [r1, #12]
10004c52:	608b      	str	r3, [r1, #8]
10004c54:	60a1      	str	r1, [r4, #8]
10004c56:	60d9      	str	r1, [r3, #12]
10004c58:	e7de      	b.n	10004c18 <_free_r+0xa8>
10004c5a:	4643      	mov	r3, r8
10004c5c:	18f8      	adds	r0, r7, r3
10004c5e:	6840      	ldr	r0, [r0, #4]
10004c60:	4230      	tst	r0, r6
10004c62:	d158      	bne.n	10004d16 <_free_r+0x1a6>
10004c64:	0013      	movs	r3, r2
10004c66:	68b8      	ldr	r0, [r7, #8]
10004c68:	68fa      	ldr	r2, [r7, #12]
10004c6a:	4443      	add	r3, r8
10004c6c:	431e      	orrs	r6, r3
10004c6e:	60c2      	str	r2, [r0, #12]
10004c70:	6090      	str	r0, [r2, #8]
10004c72:	604e      	str	r6, [r1, #4]
10004c74:	50cb      	str	r3, [r1, r3]
10004c76:	e7cf      	b.n	10004c18 <_free_r+0xa8>
10004c78:	0013      	movs	r3, r2
10004c7a:	4443      	add	r3, r8
10004c7c:	4226      	tst	r6, r4
10004c7e:	d106      	bne.n	10004c8e <_free_r+0x11e>
10004c80:	680a      	ldr	r2, [r1, #0]
10004c82:	1a89      	subs	r1, r1, r2
10004c84:	688c      	ldr	r4, [r1, #8]
10004c86:	189b      	adds	r3, r3, r2
10004c88:	68ca      	ldr	r2, [r1, #12]
10004c8a:	60e2      	str	r2, [r4, #12]
10004c8c:	6094      	str	r4, [r2, #8]
10004c8e:	2201      	movs	r2, #1
10004c90:	431a      	orrs	r2, r3
10004c92:	604a      	str	r2, [r1, #4]
10004c94:	4a24      	ldr	r2, [pc, #144]	; (10004d28 <_free_r+0x1b8>)
10004c96:	6081      	str	r1, [r0, #8]
10004c98:	6812      	ldr	r2, [r2, #0]
10004c9a:	429a      	cmp	r2, r3
10004c9c:	d8bc      	bhi.n	10004c18 <_free_r+0xa8>
10004c9e:	4b23      	ldr	r3, [pc, #140]	; (10004d2c <_free_r+0x1bc>)
10004ca0:	0028      	movs	r0, r5
10004ca2:	6819      	ldr	r1, [r3, #0]
10004ca4:	f7ff ff16 	bl	10004ad4 <_malloc_trim_r>
10004ca8:	e7b6      	b.n	10004c18 <_free_r+0xa8>
10004caa:	2b14      	cmp	r3, #20
10004cac:	d907      	bls.n	10004cbe <_free_r+0x14e>
10004cae:	2b54      	cmp	r3, #84	; 0x54
10004cb0:	d81a      	bhi.n	10004ce8 <_free_r+0x178>
10004cb2:	0b14      	lsrs	r4, r2, #12
10004cb4:	0026      	movs	r6, r4
10004cb6:	346f      	adds	r4, #111	; 0x6f
10004cb8:	366e      	adds	r6, #110	; 0x6e
10004cba:	00e4      	lsls	r4, r4, #3
10004cbc:	e7ba      	b.n	10004c34 <_free_r+0xc4>
10004cbe:	001e      	movs	r6, r3
10004cc0:	335c      	adds	r3, #92	; 0x5c
10004cc2:	365b      	adds	r6, #91	; 0x5b
10004cc4:	00dc      	lsls	r4, r3, #3
10004cc6:	e7b5      	b.n	10004c34 <_free_r+0xc4>
10004cc8:	2201      	movs	r2, #1
10004cca:	10b6      	asrs	r6, r6, #2
10004ccc:	40b2      	lsls	r2, r6
10004cce:	6846      	ldr	r6, [r0, #4]
10004cd0:	4332      	orrs	r2, r6
10004cd2:	6042      	str	r2, [r0, #4]
10004cd4:	e7bc      	b.n	10004c50 <_free_r+0xe0>
10004cd6:	60d9      	str	r1, [r3, #12]
10004cd8:	6099      	str	r1, [r3, #8]
10004cda:	60cb      	str	r3, [r1, #12]
10004cdc:	608b      	str	r3, [r1, #8]
10004cde:	2301      	movs	r3, #1
10004ce0:	4313      	orrs	r3, r2
10004ce2:	604b      	str	r3, [r1, #4]
10004ce4:	508a      	str	r2, [r1, r2]
10004ce6:	e797      	b.n	10004c18 <_free_r+0xa8>
10004ce8:	24aa      	movs	r4, #170	; 0xaa
10004cea:	0064      	lsls	r4, r4, #1
10004cec:	42a3      	cmp	r3, r4
10004cee:	d805      	bhi.n	10004cfc <_free_r+0x18c>
10004cf0:	0bd4      	lsrs	r4, r2, #15
10004cf2:	0026      	movs	r6, r4
10004cf4:	3478      	adds	r4, #120	; 0x78
10004cf6:	3677      	adds	r6, #119	; 0x77
10004cf8:	00e4      	lsls	r4, r4, #3
10004cfa:	e79b      	b.n	10004c34 <_free_r+0xc4>
10004cfc:	4c0c      	ldr	r4, [pc, #48]	; (10004d30 <_free_r+0x1c0>)
10004cfe:	42a3      	cmp	r3, r4
10004d00:	d805      	bhi.n	10004d0e <_free_r+0x19e>
10004d02:	0c94      	lsrs	r4, r2, #18
10004d04:	0026      	movs	r6, r4
10004d06:	347d      	adds	r4, #125	; 0x7d
10004d08:	367c      	adds	r6, #124	; 0x7c
10004d0a:	00e4      	lsls	r4, r4, #3
10004d0c:	e792      	b.n	10004c34 <_free_r+0xc4>
10004d0e:	24fe      	movs	r4, #254	; 0xfe
10004d10:	267e      	movs	r6, #126	; 0x7e
10004d12:	00a4      	lsls	r4, r4, #2
10004d14:	e78e      	b.n	10004c34 <_free_r+0xc4>
10004d16:	0033      	movs	r3, r6
10004d18:	4313      	orrs	r3, r2
10004d1a:	604b      	str	r3, [r1, #4]
10004d1c:	603a      	str	r2, [r7, #0]
10004d1e:	e77b      	b.n	10004c18 <_free_r+0xa8>
10004d20:	20000640 	.word	0x20000640
10004d24:	20000648 	.word	0x20000648
10004d28:	20000a4c 	.word	0x20000a4c
10004d2c:	20000ab8 	.word	0x20000ab8
10004d30:	00000554 	.word	0x00000554

10004d34 <__retarget_lock_acquire_recursive>:
10004d34:	4770      	bx	lr
10004d36:	46c0      	nop			; (mov r8, r8)

10004d38 <__retarget_lock_release_recursive>:
10004d38:	4770      	bx	lr
10004d3a:	46c0      	nop			; (mov r8, r8)

10004d3c <_fini>:
10004d3c:	b5f8      	push	{r3, r4, r5, r6, r7, lr}
10004d3e:	46c0      	nop			; (mov r8, r8)

10004d40 <__mutex_exit_veneer>:
10004d40:	b401      	push	{r0}
10004d42:	4802      	ldr	r0, [pc, #8]	; (10004d4c <__mutex_exit_veneer+0xc>)
10004d44:	4684      	mov	ip, r0
10004d46:	bc01      	pop	{r0}
10004d48:	4760      	bx	ip
10004d4a:	bf00      	nop
10004d4c:	2000015d 	.word	0x2000015d

10004d50 <____aeabi_ldiv0_veneer>:
10004d50:	b401      	push	{r0}
10004d52:	4802      	ldr	r0, [pc, #8]	; (10004d5c <____aeabi_ldiv0_veneer+0xc>)
10004d54:	4684      	mov	ip, r0
10004d56:	bc01      	pop	{r0}
10004d58:	4760      	bx	ip
10004d5a:	bf00      	nop
10004d5c:	20000185 	.word	0x20000185

10004d60 <____aeabi_idiv0_veneer>:
10004d60:	b401      	push	{r0}
10004d62:	4802      	ldr	r0, [pc, #8]	; (10004d6c <____aeabi_idiv0_veneer+0xc>)
10004d64:	4684      	mov	ip, r0
10004d66:	bc01      	pop	{r0}
10004d68:	4760      	bx	ip
10004d6a:	bf00      	nop
10004d6c:	20000185 	.word	0x20000185

10004d70 <__mutex_try_enter_veneer>:
10004d70:	b401      	push	{r0}
10004d72:	4802      	ldr	r0, [pc, #8]	; (10004d7c <__mutex_try_enter_veneer+0xc>)
10004d74:	4684      	mov	ip, r0
10004d76:	bc01      	pop	{r0}
10004d78:	4760      	bx	ip
10004d7a:	bf00      	nop
10004d7c:	20000111 	.word	0x20000111

10004d80 <__mutex_enter_blocking_veneer>:
10004d80:	b401      	push	{r0}
10004d82:	4802      	ldr	r0, [pc, #8]	; (10004d8c <__mutex_enter_blocking_veneer+0xc>)
10004d84:	4684      	mov	ip, r0
10004d86:	bc01      	pop	{r0}
10004d88:	4760      	bx	ip
10004d8a:	bf00      	nop
10004d8c:	200000c1 	.word	0x200000c1

Disassembly of section .data:

200000c0 <mutex_enter_blocking>:
200000c0:	b510      	push	{r4, lr}
200000c2:	6802      	ldr	r2, [r0, #0]
200000c4:	2400      	movs	r4, #0
200000c6:	f3ef 8110 	mrs	r1, PRIMASK
200000ca:	b672      	cpsid	i
200000cc:	6813      	ldr	r3, [r2, #0]
200000ce:	2b00      	cmp	r3, #0
200000d0:	d0fc      	beq.n	200000cc <mutex_enter_blocking+0xc>
200000d2:	f3bf 8f5f 	dmb	sy
200000d6:	7903      	ldrb	r3, [r0, #4]
200000d8:	2b00      	cmp	r3, #0
200000da:	d00b      	beq.n	200000f4 <mutex_enter_blocking+0x34>
200000dc:	6803      	ldr	r3, [r0, #0]
200000de:	f3bf 8f5f 	dmb	sy
200000e2:	601c      	str	r4, [r3, #0]
200000e4:	f381 8810 	msr	PRIMASK, r1
200000e8:	bf20      	wfe
200000ea:	6802      	ldr	r2, [r0, #0]
200000ec:	f3ef 8110 	mrs	r1, PRIMASK
200000f0:	b672      	cpsid	i
200000f2:	e7eb      	b.n	200000cc <mutex_enter_blocking+0xc>
200000f4:	2201      	movs	r2, #1
200000f6:	7102      	strb	r2, [r0, #4]
200000f8:	22d0      	movs	r2, #208	; 0xd0
200000fa:	0612      	lsls	r2, r2, #24
200000fc:	6812      	ldr	r2, [r2, #0]
200000fe:	7142      	strb	r2, [r0, #5]
20000100:	6802      	ldr	r2, [r0, #0]
20000102:	f3bf 8f5f 	dmb	sy
20000106:	6013      	str	r3, [r2, #0]
20000108:	f381 8810 	msr	PRIMASK, r1
2000010c:	bd10      	pop	{r4, pc}
2000010e:	46c0      	nop			; (mov r8, r8)

20000110 <mutex_try_enter>:
20000110:	0003      	movs	r3, r0
20000112:	b510      	push	{r4, lr}
20000114:	6800      	ldr	r0, [r0, #0]
20000116:	f3ef 8410 	mrs	r4, PRIMASK
2000011a:	b672      	cpsid	i
2000011c:	6802      	ldr	r2, [r0, #0]
2000011e:	2a00      	cmp	r2, #0
20000120:	d0fc      	beq.n	2000011c <mutex_try_enter+0xc>
20000122:	f3bf 8f5f 	dmb	sy
20000126:	791a      	ldrb	r2, [r3, #4]
20000128:	2a00      	cmp	r2, #0
2000012a:	d00d      	beq.n	20000148 <mutex_try_enter+0x38>
2000012c:	2900      	cmp	r1, #0
2000012e:	d013      	beq.n	20000158 <mutex_try_enter+0x48>
20000130:	2205      	movs	r2, #5
20000132:	2000      	movs	r0, #0
20000134:	569a      	ldrsb	r2, [r3, r2]
20000136:	600a      	str	r2, [r1, #0]
20000138:	681b      	ldr	r3, [r3, #0]
2000013a:	f3bf 8f5f 	dmb	sy
2000013e:	2200      	movs	r2, #0
20000140:	601a      	str	r2, [r3, #0]
20000142:	f384 8810 	msr	PRIMASK, r4
20000146:	bd10      	pop	{r4, pc}
20000148:	3201      	adds	r2, #1
2000014a:	711a      	strb	r2, [r3, #4]
2000014c:	22d0      	movs	r2, #208	; 0xd0
2000014e:	0612      	lsls	r2, r2, #24
20000150:	6812      	ldr	r2, [r2, #0]
20000152:	2001      	movs	r0, #1
20000154:	715a      	strb	r2, [r3, #5]
20000156:	e7ef      	b.n	20000138 <mutex_try_enter+0x28>
20000158:	2000      	movs	r0, #0
2000015a:	e7ed      	b.n	20000138 <mutex_try_enter+0x28>

2000015c <mutex_exit>:
2000015c:	6802      	ldr	r2, [r0, #0]
2000015e:	f3ef 8110 	mrs	r1, PRIMASK
20000162:	b672      	cpsid	i
20000164:	6813      	ldr	r3, [r2, #0]
20000166:	2b00      	cmp	r3, #0
20000168:	d0fc      	beq.n	20000164 <mutex_exit+0x8>
2000016a:	f3bf 8f5f 	dmb	sy
2000016e:	2300      	movs	r3, #0
20000170:	7103      	strb	r3, [r0, #4]
20000172:	bf40      	sev
20000174:	6802      	ldr	r2, [r0, #0]
20000176:	f3bf 8f5f 	dmb	sy
2000017a:	6013      	str	r3, [r2, #0]
2000017c:	f381 8810 	msr	PRIMASK, r1
20000180:	4770      	bx	lr
20000182:	46c0      	nop			; (mov r8, r8)

20000184 <__aeabi_idiv0>:
20000184:	4770      	bx	lr
20000186:	46c0      	nop			; (mov r8, r8)

20000188 <striped_spin_lock_num>:
20000188:	0010 0000                                   ....

2000018c <irq_handler_chain_slots>:
2000018c:	00000000 	.word	0x00000000
20000190:	00010000 	.word	0x00010000
	...
2000019c:	00020000 	.word	0x00020000
	...
200001a8:	00030000 	.word	0x00030000
	...
200001b4:	00ff0000 	.word	0x00ff0000
200001b8:	00000000 	.word	0x00000000

200001bc <irq_handler_chain_first_slot>:
200001bc:	b500      	push	{lr}
200001be:	6848      	ldr	r0, [r1, #4]
200001c0:	3101      	adds	r1, #1
200001c2:	468e      	mov	lr, r1
200001c4:	4700      	bx	r0

200001c6 <irq_handler_chain_remove_tail>:
200001c6:	4670      	mov	r0, lr
200001c8:	3809      	subs	r0, #9
200001ca:	4901      	ldr	r1, [pc, #4]	; (200001d0 <irq_handler_chain_remove_tail+0xa>)
200001cc:	4788      	blx	r1
200001ce:	bd00      	pop	{pc}
200001d0:	10001731 	.word	0x10001731
	...

200001e0 <aeabi_bits_funcs>:
200001e0:	00003350 	.word	0x00003350
200001e4:	0000334c 	.word	0x0000334c
200001e8:	00003354 	.word	0x00003354
200001ec:	00003352 	.word	0x00003352

200001f0 <aeabi_bits_funcs_end>:
200001f0:	0000534d 	.word	0x0000534d
200001f4:	0000434d 	.word	0x0000434d
200001f8:	00003453 	.word	0x00003453
200001fc:	00003443 	.word	0x00003443

20000200 <stdio_uart>:
20000200:	1000409d 00000000 100040d9 00000000     .@.......@......
20000210:	00000100                                ....

20000214 <_impure_ptr>:
20000214:	20000218                                ... 

20000218 <impure_data>:
20000218:	00000000 20000504 2000056c 200005d4     ....... l.. ... 
	...
200002c0:	00000001 00000000 abcd330e e66d1234     .........3..4.m.
200002d0:	0005deec 0000000b 00000000 00000000     ................
	...

20000640 <__malloc_av_>:
	...
20000648:	20000640 20000640 20000648 20000648     @.. @.. H.. H.. 
20000658:	20000650 20000650 20000658 20000658     P.. P.. X.. X.. 
20000668:	20000660 20000660 20000668 20000668     `.. `.. h.. h.. 
20000678:	20000670 20000670 20000678 20000678     p.. p.. x.. x.. 
20000688:	20000680 20000680 20000688 20000688     ... ... ... ... 
20000698:	20000690 20000690 20000698 20000698     ... ... ... ... 
200006a8:	200006a0 200006a0 200006a8 200006a8     ... ... ... ... 
200006b8:	200006b0 200006b0 200006b8 200006b8     ... ... ... ... 
200006c8:	200006c0 200006c0 200006c8 200006c8     ... ... ... ... 
200006d8:	200006d0 200006d0 200006d8 200006d8     ... ... ... ... 
200006e8:	200006e0 200006e0 200006e8 200006e8     ... ... ... ... 
200006f8:	200006f0 200006f0 200006f8 200006f8     ... ... ... ... 
20000708:	20000700 20000700 20000708 20000708     ... ... ... ... 
20000718:	20000710 20000710 20000718 20000718     ... ... ... ... 
20000728:	20000720 20000720 20000728 20000728      ..  .. (.. (.. 
20000738:	20000730 20000730 20000738 20000738     0.. 0.. 8.. 8.. 
20000748:	20000740 20000740 20000748 20000748     @.. @.. H.. H.. 
20000758:	20000750 20000750 20000758 20000758     P.. P.. X.. X.. 
20000768:	20000760 20000760 20000768 20000768     `.. `.. h.. h.. 
20000778:	20000770 20000770 20000778 20000778     p.. p.. x.. x.. 
20000788:	20000780 20000780 20000788 20000788     ... ... ... ... 
20000798:	20000790 20000790 20000798 20000798     ... ... ... ... 
200007a8:	200007a0 200007a0 200007a8 200007a8     ... ... ... ... 
200007b8:	200007b0 200007b0 200007b8 200007b8     ... ... ... ... 
200007c8:	200007c0 200007c0 200007c8 200007c8     ... ... ... ... 
200007d8:	200007d0 200007d0 200007d8 200007d8     ... ... ... ... 
200007e8:	200007e0 200007e0 200007e8 200007e8     ... ... ... ... 
200007f8:	200007f0 200007f0 200007f8 200007f8     ... ... ... ... 
20000808:	20000800 20000800 20000808 20000808     ... ... ... ... 
20000818:	20000810 20000810 20000818 20000818     ... ... ... ... 
20000828:	20000820 20000820 20000828 20000828      ..  .. (.. (.. 
20000838:	20000830 20000830 20000838 20000838     0.. 0.. 8.. 8.. 
20000848:	20000840 20000840 20000848 20000848     @.. @.. H.. H.. 
20000858:	20000850 20000850 20000858 20000858     P.. P.. X.. X.. 
20000868:	20000860 20000860 20000868 20000868     `.. `.. h.. h.. 
20000878:	20000870 20000870 20000878 20000878     p.. p.. x.. x.. 
20000888:	20000880 20000880 20000888 20000888     ... ... ... ... 
20000898:	20000890 20000890 20000898 20000898     ... ... ... ... 
200008a8:	200008a0 200008a0 200008a8 200008a8     ... ... ... ... 
200008b8:	200008b0 200008b0 200008b8 200008b8     ... ... ... ... 
200008c8:	200008c0 200008c0 200008c8 200008c8     ... ... ... ... 
200008d8:	200008d0 200008d0 200008d8 200008d8     ... ... ... ... 
200008e8:	200008e0 200008e0 200008e8 200008e8     ... ... ... ... 
200008f8:	200008f0 200008f0 200008f8 200008f8     ... ... ... ... 
20000908:	20000900 20000900 20000908 20000908     ... ... ... ... 
20000918:	20000910 20000910 20000918 20000918     ... ... ... ... 
20000928:	20000920 20000920 20000928 20000928      ..  .. (.. (.. 
20000938:	20000930 20000930 20000938 20000938     0.. 0.. 8.. 8.. 
20000948:	20000940 20000940 20000948 20000948     @.. @.. H.. H.. 
20000958:	20000950 20000950 20000958 20000958     P.. P.. X.. X.. 
20000968:	20000960 20000960 20000968 20000968     `.. `.. h.. h.. 
20000978:	20000970 20000970 20000978 20000978     p.. p.. x.. x.. 
20000988:	20000980 20000980 20000988 20000988     ... ... ... ... 
20000998:	20000990 20000990 20000998 20000998     ... ... ... ... 
200009a8:	200009a0 200009a0 200009a8 200009a8     ... ... ... ... 
200009b8:	200009b0 200009b0 200009b8 200009b8     ... ... ... ... 
200009c8:	200009c0 200009c0 200009c8 200009c8     ... ... ... ... 
200009d8:	200009d0 200009d0 200009d8 200009d8     ... ... ... ... 
200009e8:	200009e0 200009e0 200009e8 200009e8     ... ... ... ... 
200009f8:	200009f0 200009f0 200009f8 200009f8     ... ... ... ... 
20000a08:	20000a00 20000a00 20000a08 20000a08     ... ... ... ... 
20000a18:	20000a10 20000a10 20000a18 20000a18     ... ... ... ... 
20000a28:	20000a20 20000a20 20000a28 20000a28      ..  .. (.. (.. 
20000a38:	20000a30 20000a30 20000a38 20000a38     0.. 0.. 8.. 8.. 

20000a48 <__malloc_sbrk_base>:
20000a48:	ffffffff                                ....

20000a4c <__malloc_trim_threshold>:
20000a4c:	00020000                                ....

20000a50 <print_mutex>:
	...

20000a58 <__mutex_array_end>:
20000a58:	10003cb5 	.word	0x10003cb5
20000a5c:	10002e9d 	.word	0x10002e9d
20000a60:	10003591 	.word	0x10003591
20000a64:	10003c15 	.word	0x10003c15

20000a68 <__frame_dummy_init_array_entry>:
20000a68:	10000301                                ....
