
hello_double_tap.elf:     file format elf32-littlearm

Sections:
Idx Name          Size      VMA       LMA       File off  Algn
  0 .boot2        00000100  10000000  10000000  00010000  2**0
                  CONTENTS, ALLOC, LOAD, READONLY, DATA
  1 .text         00002648  10000100  10000100  00010100  2**3
                  CONTENTS, ALLOC, LOAD, READONLY, CODE
  2 .rodata       000000f4  10002748  10002748  00012748  2**2
                  CONTENTS, ALLOC, LOAD, READONLY, DATA
  3 .binary_info  0000001c  1000283c  1000283c  0001283c  2**2
                  CONTENTS, ALLOC, LOAD, DATA
  4 .ram_vector_table 000000c0  20000000  20000000  00020a6c  2**2
                  CONTENTS
  5 .data         000009a0  200000c0  10002858  000200c0  2**4
                  CONTENTS, ALLOC, LOAD, CODE
  6 .uninitialized_ram.magic_location 0000000c  20000a60  100031f8  00020a60  2**2
                  CONTENTS, ALLOC, LOAD, DATA
  7 .uninitialized_data 00000000  20000a6c  20000a6c  00020b2c  2**0
                  CONTENTS
  8 .scratch_x    00000000  20040000  20040000  00020b2c  2**0
                  CONTENTS
  9 .scratch_y    00000000  20041000  20041000  00020b2c  2**0
                  CONTENTS
 10 .bss          000002ec  20000a6c  20000a6c  00020a6c  2**2
                  ALLOC
 11 .heap         00000800  20000d58  20000d58  00020b2c  2**2
                  CONTENTS, READONLY
 12 .stack_dummy  00000800  20041000  20041000  00021340  2**5
                  CONTENTS, READONLY
 13 .ARM.attributes 00000028  00000000  00000000  00021b40  2**0
                  CONTENTS, READONLY
 14 .comment      00000079  00000000  00000000  00021b68  2**0
                  CONTENTS, READONLY
 15 .debug_frame  000002ac  00000000  00000000  00021be4  2**2
                  CONTENTS, READONLY, DEBUGGING

hello_double_tap.elf:     file format elf32-littlearm


Disassembly of section .text:

10000100 <__reset_start>:
10000100:	4827      	ldr	r0, [pc, #156]	; (100001a0 <__get_current_exception+0xa>)
10000102:	e000      	b.n	10000106 <__vector_entry>

10000104 <_entry_point>:
10000104:	2000      	movs	r0, #0

10000106 <__vector_entry>:
10000106:	4927      	ldr	r1, [pc, #156]	; (100001a4 <__get_current_exception+0xe>)
10000108:	6088      	str	r0, [r1, #8]
1000010a:	c806      	ldmia	r0!, {r1, r2}
1000010c:	f381 8808 	msr	MSP, r1
10000110:	4710      	bx	r2

10000112 <_reset_handler>:
10000112:	4825      	ldr	r0, [pc, #148]	; (100001a8 <__get_current_exception+0x12>)
10000114:	6800      	ldr	r0, [r0, #0]
10000116:	2800      	cmp	r0, #0
10000118:	d139      	bne.n	1000018e <wait_for_vector>
1000011a:	a412      	add	r4, pc, #72	; (adr r4, 10000164 <data_cpy_table>)
1000011c:	cc0e      	ldmia	r4!, {r1, r2, r3}
1000011e:	2900      	cmp	r1, #0
10000120:	d002      	beq.n	10000128 <_reset_handler+0x16>
10000122:	f000 f812 	bl	1000014a <data_cpy>
10000126:	e7f9      	b.n	1000011c <_reset_handler+0xa>
10000128:	4920      	ldr	r1, [pc, #128]	; (100001ac <__get_current_exception+0x16>)
1000012a:	4a21      	ldr	r2, [pc, #132]	; (100001b0 <__get_current_exception+0x1a>)
1000012c:	2000      	movs	r0, #0
1000012e:	e000      	b.n	10000132 <bss_fill_test>

10000130 <bss_fill_loop>:
10000130:	c101      	stmia	r1!, {r0}

10000132 <bss_fill_test>:
10000132:	4291      	cmp	r1, r2
10000134:	d1fc      	bne.n	10000130 <bss_fill_loop>

10000136 <platform_entry>:
10000136:	491f      	ldr	r1, [pc, #124]	; (100001b4 <__get_current_exception+0x1e>)
10000138:	4788      	blx	r1
1000013a:	491f      	ldr	r1, [pc, #124]	; (100001b8 <__get_current_exception+0x22>)
1000013c:	4788      	blx	r1
1000013e:	491f      	ldr	r1, [pc, #124]	; (100001bc <__get_current_exception+0x26>)
10000140:	4788      	blx	r1
10000142:	be00      	bkpt	0x0000
10000144:	e7fd      	b.n	10000142 <platform_entry+0xc>

10000146 <data_cpy_loop>:
10000146:	c901      	ldmia	r1!, {r0}
10000148:	c201      	stmia	r2!, {r0}

1000014a <data_cpy>:
1000014a:	429a      	cmp	r2, r3
1000014c:	d3fb      	bcc.n	10000146 <data_cpy_loop>
1000014e:	4770      	bx	lr

10000150 <binary_info_header>:
10000150:	7188ebf2 	.word	0x7188ebf2
10000154:	1000283c 	.word	0x1000283c
10000158:	10002858 	.word	0x10002858
1000015c:	10000164 	.word	0x10000164
10000160:	e71aa390 	.word	0xe71aa390

10000164 <data_cpy_table>:
10000164:	10002858 	.word	0x10002858
10000168:	200000c0 	.word	0x200000c0
1000016c:	20000a60 	.word	0x20000a60
10000170:	10003204 	.word	0x10003204
10000174:	20040000 	.word	0x20040000
10000178:	20040000 	.word	0x20040000
1000017c:	10003204 	.word	0x10003204
10000180:	20041000 	.word	0x20041000
10000184:	20041000 	.word	0x20041000
10000188:	00000000 	.word	0x00000000
1000018c:	4770      	bx	lr

1000018e <wait_for_vector>:
1000018e:	480c      	ldr	r0, [pc, #48]	; (100001c0 <__get_current_exception+0x2a>)
10000190:	f001 fbce 	bl	10001930 <rom_func_lookup>
10000194:	4700      	bx	r0

10000196 <__get_current_exception>:
10000196:	f3ef 8005 	mrs	r0, IPSR
1000019a:	b2c0      	uxtb	r0, r0
1000019c:	4770      	bx	lr
1000019e:	0000      	.short	0x0000
100001a0:	10000200 	.word	0x10000200
100001a4:	e000ed00 	.word	0xe000ed00
100001a8:	d0000000 	.word	0xd0000000
100001ac:	20000a6c 	.word	0x20000a6c
100001b0:	20000d58 	.word	0x20000d58
100001b4:	100010d5 	.word	0x100010d5
100001b8:	10000321 	.word	0x10000321
100001bc:	100011f5 	.word	0x100011f5
100001c0:	00005657 	.word	0x00005657

100001c4 <__bi_46>:
100001c4:	50520006 5360b3ab 100027e4              ..RP..`S.'..

100001d0 <__bi_34>:
100001d0:	50520006 02031c86 100027f4              ..RP.....'..

100001dc <__bi_26>:
100001dc:	50520006 9da22254 10002808              ..RPT"...(..

100001e8 <__bi_18>:
100001e8:	50520005 68f465de 10003204 00000000     ..RP.e.h.2......
	...

10000200 <__reset_end>:
10000200:	20042000 	.word	0x20042000
10000204:	10000113 	.word	0x10000113
10000208:	100002c3 	.word	0x100002c3
1000020c:	100002c5 	.word	0x100002c5
10000210:	100002c1 	.word	0x100002c1
10000214:	100002c1 	.word	0x100002c1
10000218:	100002c1 	.word	0x100002c1
1000021c:	100002c1 	.word	0x100002c1
10000220:	100002c1 	.word	0x100002c1
10000224:	100002c1 	.word	0x100002c1
10000228:	100002c1 	.word	0x100002c1
1000022c:	100002c7 	.word	0x100002c7
10000230:	100002c1 	.word	0x100002c1
10000234:	100002c1 	.word	0x100002c1
10000238:	100002c9 	.word	0x100002c9
1000023c:	100002cb 	.word	0x100002cb
10000240:	100002cd 	.word	0x100002cd
10000244:	100002cd 	.word	0x100002cd
10000248:	100002cd 	.word	0x100002cd
1000024c:	100002cd 	.word	0x100002cd
10000250:	100002cd 	.word	0x100002cd
10000254:	100002cd 	.word	0x100002cd
10000258:	100002cd 	.word	0x100002cd
1000025c:	100002cd 	.word	0x100002cd
10000260:	100002cd 	.word	0x100002cd
10000264:	100002cd 	.word	0x100002cd
10000268:	100002cd 	.word	0x100002cd
1000026c:	100002cd 	.word	0x100002cd
10000270:	100002cd 	.word	0x100002cd
10000274:	100002cd 	.word	0x100002cd
10000278:	100002cd 	.word	0x100002cd
1000027c:	100002cd 	.word	0x100002cd
10000280:	100002cd 	.word	0x100002cd
10000284:	100002cd 	.word	0x100002cd
10000288:	100002cd 	.word	0x100002cd
1000028c:	100002cd 	.word	0x100002cd
10000290:	100002cd 	.word	0x100002cd
10000294:	100002cd 	.word	0x100002cd
10000298:	100002cd 	.word	0x100002cd
1000029c:	100002cd 	.word	0x100002cd
100002a0:	100002cd 	.word	0x100002cd
100002a4:	100002cd 	.word	0x100002cd
100002a8:	100002cd 	.word	0x100002cd
100002ac:	100002cd 	.word	0x100002cd
100002b0:	100002cd 	.word	0x100002cd
100002b4:	100002cd 	.word	0x100002cd
100002b8:	100002cd 	.word	0x100002cd
100002bc:	100002cd 	.word	0x100002cd

100002c0 <isr_invalid>:
100002c0:	be00      	bkpt	0x0000

100002c2 <isr_nmi>:
100002c2:	be00      	bkpt	0x0000

100002c4 <isr_hardfault>:
100002c4:	be00      	bkpt	0x0000

100002c6 <isr_svcall>:
100002c6:	be00      	bkpt	0x0000

100002c8 <isr_pendsv>:
100002c8:	be00      	bkpt	0x0000

100002ca <isr_systick>:
100002ca:	be00      	bkpt	0x0000

100002cc <__unhandled_user_irq>:
100002cc:	f7ff ff63 	bl	10000196 <__get_current_exception>
100002d0:	3810      	subs	r0, #16

100002d2 <unhandled_user_irq_num_in_r0>:
100002d2:	be00      	bkpt	0x0000

100002d4 <_init>:
100002d4:	b5f8      	push	{r3, r4, r5, r6, r7, lr}
100002d6:	46c0      	nop			; (mov r8, r8)

100002d8 <__do_global_dtors_aux>:
100002d8:	b510      	push	{r4, lr}
100002da:	4c06      	ldr	r4, [pc, #24]	; (100002f4 <__do_global_dtors_aux+0x1c>)
100002dc:	7823      	ldrb	r3, [r4, #0]
100002de:	2b00      	cmp	r3, #0
100002e0:	d107      	bne.n	100002f2 <__do_global_dtors_aux+0x1a>
100002e2:	4b05      	ldr	r3, [pc, #20]	; (100002f8 <__do_global_dtors_aux+0x20>)
100002e4:	2b00      	cmp	r3, #0
100002e6:	d002      	beq.n	100002ee <__do_global_dtors_aux+0x16>
100002e8:	4804      	ldr	r0, [pc, #16]	; (100002fc <__do_global_dtors_aux+0x24>)
100002ea:	e000      	b.n	100002ee <__do_global_dtors_aux+0x16>
100002ec:	bf00      	nop
100002ee:	2301      	movs	r3, #1
100002f0:	7023      	strb	r3, [r4, #0]
100002f2:	bd10      	pop	{r4, pc}
100002f4:	20000a6c 	.word	0x20000a6c
100002f8:	00000000 	.word	0x00000000
100002fc:	10002748 	.word	0x10002748

10000300 <frame_dummy>:
10000300:	4b04      	ldr	r3, [pc, #16]	; (10000314 <frame_dummy+0x14>)
10000302:	b510      	push	{r4, lr}
10000304:	2b00      	cmp	r3, #0
10000306:	d003      	beq.n	10000310 <frame_dummy+0x10>
10000308:	4903      	ldr	r1, [pc, #12]	; (10000318 <frame_dummy+0x18>)
1000030a:	4804      	ldr	r0, [pc, #16]	; (1000031c <frame_dummy+0x1c>)
1000030c:	e000      	b.n	10000310 <frame_dummy+0x10>
1000030e:	bf00      	nop
10000310:	bd10      	pop	{r4, pc}
10000312:	46c0      	nop			; (mov r8, r8)
10000314:	00000000 	.word	0x00000000
10000318:	20000a70 	.word	0x20000a70
1000031c:	10002748 	.word	0x10002748

10000320 <main>:
10000320:	b570      	push	{r4, r5, r6, lr}
10000322:	2580      	movs	r5, #128	; 0x80
10000324:	24d0      	movs	r4, #208	; 0xd0
10000326:	03ad      	lsls	r5, r5, #14
10000328:	002e      	movs	r6, r5
1000032a:	2015      	movs	r0, #21
1000032c:	0624      	lsls	r4, r4, #24
1000032e:	f000 f80b 	bl	10000348 <gpio_init>
10000332:	6265      	str	r5, [r4, #36]	; 0x24
10000334:	20fa      	movs	r0, #250	; 0xfa
10000336:	6166      	str	r6, [r4, #20]
10000338:	f000 faea 	bl	10000910 <sleep_ms>
1000033c:	20fa      	movs	r0, #250	; 0xfa
1000033e:	61a5      	str	r5, [r4, #24]
10000340:	f000 fae6 	bl	10000910 <sleep_ms>
10000344:	e7f6      	b.n	10000334 <main+0x14>
10000346:	46c0      	nop			; (mov r8, r8)

10000348 <gpio_init>:
10000348:	2301      	movs	r3, #1
1000034a:	22d0      	movs	r2, #208	; 0xd0
1000034c:	4083      	lsls	r3, r0
1000034e:	0612      	lsls	r2, r2, #24
10000350:	6293      	str	r3, [r2, #40]	; 0x28
10000352:	6193      	str	r3, [r2, #24]
10000354:	4a09      	ldr	r2, [pc, #36]	; (1000037c <gpio_init+0x34>)
10000356:	0083      	lsls	r3, r0, #2
10000358:	4694      	mov	ip, r2
1000035a:	2240      	movs	r2, #64	; 0x40
1000035c:	4463      	add	r3, ip
1000035e:	6819      	ldr	r1, [r3, #0]
10000360:	00c0      	lsls	r0, r0, #3
10000362:	404a      	eors	r2, r1
10000364:	21c0      	movs	r1, #192	; 0xc0
10000366:	4011      	ands	r1, r2
10000368:	2280      	movs	r2, #128	; 0x80
1000036a:	0152      	lsls	r2, r2, #5
1000036c:	4313      	orrs	r3, r2
1000036e:	6019      	str	r1, [r3, #0]
10000370:	4b03      	ldr	r3, [pc, #12]	; (10000380 <gpio_init+0x38>)
10000372:	469c      	mov	ip, r3
10000374:	2305      	movs	r3, #5
10000376:	4460      	add	r0, ip
10000378:	6043      	str	r3, [r0, #4]
1000037a:	4770      	bx	lr
1000037c:	4001c004 	.word	0x4001c004
10000380:	40014000 	.word	0x40014000

10000384 <hw_claim_or_assert>:
10000384:	b5f8      	push	{r3, r4, r5, r6, r7, lr}
10000386:	46ce      	mov	lr, r9
10000388:	4647      	mov	r7, r8
1000038a:	4691      	mov	r9, r2
1000038c:	b580      	push	{r7, lr}
1000038e:	f3ef 8710 	mrs	r7, PRIMASK
10000392:	b672      	cpsid	i
10000394:	4e12      	ldr	r6, [pc, #72]	; (100003e0 <hw_claim_or_assert+0x5c>)
10000396:	6833      	ldr	r3, [r6, #0]
10000398:	2b00      	cmp	r3, #0
1000039a:	d0fc      	beq.n	10000396 <hw_claim_or_assert+0x12>
1000039c:	f3bf 8f5f 	dmb	sy
100003a0:	08cb      	lsrs	r3, r1, #3
100003a2:	5cc5      	ldrb	r5, [r0, r3]
100003a4:	2407      	movs	r4, #7
100003a6:	18c2      	adds	r2, r0, r3
100003a8:	0028      	movs	r0, r5
100003aa:	2301      	movs	r3, #1
100003ac:	400c      	ands	r4, r1
100003ae:	4694      	mov	ip, r2
100003b0:	40e0      	lsrs	r0, r4
100003b2:	001a      	movs	r2, r3
100003b4:	4002      	ands	r2, r0
100003b6:	4690      	mov	r8, r2
100003b8:	4203      	tst	r3, r0
100003ba:	d10d      	bne.n	100003d8 <hw_claim_or_assert+0x54>
100003bc:	40a3      	lsls	r3, r4
100003be:	4662      	mov	r2, ip
100003c0:	432b      	orrs	r3, r5
100003c2:	7013      	strb	r3, [r2, #0]
100003c4:	f3bf 8f5f 	dmb	sy
100003c8:	4643      	mov	r3, r8
100003ca:	6033      	str	r3, [r6, #0]
100003cc:	f387 8810 	msr	PRIMASK, r7
100003d0:	bc0c      	pop	{r2, r3}
100003d2:	4690      	mov	r8, r2
100003d4:	4699      	mov	r9, r3
100003d6:	bdf8      	pop	{r3, r4, r5, r6, r7, pc}
100003d8:	4648      	mov	r0, r9
100003da:	f000 ff0d 	bl	100011f8 <panic>
100003de:	46c0      	nop			; (mov r8, r8)
100003e0:	d000012c 	.word	0xd000012c

100003e4 <spin_locks_reset>:
100003e4:	2100      	movs	r1, #0
100003e6:	4b04      	ldr	r3, [pc, #16]	; (100003f8 <spin_locks_reset+0x14>)
100003e8:	4a04      	ldr	r2, [pc, #16]	; (100003fc <spin_locks_reset+0x18>)
100003ea:	f3bf 8f5f 	dmb	sy
100003ee:	c302      	stmia	r3!, {r1}
100003f0:	4293      	cmp	r3, r2
100003f2:	d1fa      	bne.n	100003ea <spin_locks_reset+0x6>
100003f4:	4770      	bx	lr
100003f6:	46c0      	nop			; (mov r8, r8)
100003f8:	d0000100 	.word	0xd0000100
100003fc:	d0000180 	.word	0xd0000180

10000400 <next_striped_spin_lock_num>:
10000400:	4a04      	ldr	r2, [pc, #16]	; (10000414 <next_striped_spin_lock_num+0x14>)
10000402:	7810      	ldrb	r0, [r2, #0]
10000404:	1c43      	adds	r3, r0, #1
10000406:	b2db      	uxtb	r3, r3
10000408:	2b17      	cmp	r3, #23
1000040a:	d900      	bls.n	1000040e <next_striped_spin_lock_num+0xe>
1000040c:	2310      	movs	r3, #16
1000040e:	7013      	strb	r3, [r2, #0]
10000410:	4770      	bx	lr
10000412:	46c0      	nop			; (mov r8, r8)
10000414:	20000188 	.word	0x20000188

10000418 <running_on_fpga>:
10000418:	4b02      	ldr	r3, [pc, #8]	; (10000424 <running_on_fpga+0xc>)
1000041a:	6818      	ldr	r0, [r3, #0]
1000041c:	0780      	lsls	r0, r0, #30
1000041e:	0fc0      	lsrs	r0, r0, #31
10000420:	4770      	bx	lr
10000422:	46c0      	nop			; (mov r8, r8)
10000424:	4006c000 	.word	0x4006c000

10000428 <timer_pool_entry_comparator>:
10000428:	6883      	ldr	r3, [r0, #8]
1000042a:	480b      	ldr	r0, [pc, #44]	; (10000458 <timer_pool_entry_comparator+0x30>)
1000042c:	b510      	push	{r4, lr}
1000042e:	4684      	mov	ip, r0
10000430:	4461      	add	r1, ip
10000432:	4462      	add	r2, ip
10000434:	0109      	lsls	r1, r1, #4
10000436:	0112      	lsls	r2, r2, #4
10000438:	189a      	adds	r2, r3, r2
1000043a:	1859      	adds	r1, r3, r1
1000043c:	6854      	ldr	r4, [r2, #4]
1000043e:	684b      	ldr	r3, [r1, #4]
10000440:	2001      	movs	r0, #1
10000442:	429c      	cmp	r4, r3
10000444:	d801      	bhi.n	1000044a <timer_pool_entry_comparator+0x22>
10000446:	d002      	beq.n	1000044e <timer_pool_entry_comparator+0x26>
10000448:	2000      	movs	r0, #0
1000044a:	b2c0      	uxtb	r0, r0
1000044c:	bd10      	pop	{r4, pc}
1000044e:	6812      	ldr	r2, [r2, #0]
10000450:	680b      	ldr	r3, [r1, #0]
10000452:	429a      	cmp	r2, r3
10000454:	d8f9      	bhi.n	1000044a <timer_pool_entry_comparator+0x22>
10000456:	e7f7      	b.n	10000448 <timer_pool_entry_comparator+0x20>
10000458:	0fffffff 	.word	0x0fffffff

1000045c <sev_callback>:
1000045c:	bf40      	sev
1000045e:	2000      	movs	r0, #0
10000460:	2100      	movs	r1, #0
10000462:	4770      	bx	lr

10000464 <add_alarm_under_lock>:
10000464:	b5f0      	push	{r4, r5, r6, r7, lr}
10000466:	4657      	mov	r7, sl
10000468:	4645      	mov	r5, r8
1000046a:	46de      	mov	lr, fp
1000046c:	464e      	mov	r6, r9
1000046e:	b5e0      	push	{r5, r6, r7, lr}
10000470:	b083      	sub	sp, #12
10000472:	001f      	movs	r7, r3
10000474:	ab0f      	add	r3, sp, #60	; 0x3c
10000476:	781b      	ldrb	r3, [r3, #0]
10000478:	9c0e      	ldr	r4, [sp, #56]	; 0x38
1000047a:	0005      	movs	r5, r0
1000047c:	4692      	mov	sl, r2
1000047e:	9301      	str	r3, [sp, #4]
10000480:	2c00      	cmp	r4, #0
10000482:	d10d      	bne.n	100004a0 <add_alarm_under_lock+0x3c>
10000484:	6802      	ldr	r2, [r0, #0]
10000486:	7b94      	ldrb	r4, [r2, #14]
10000488:	2c00      	cmp	r4, #0
1000048a:	d056      	beq.n	1000053a <add_alarm_under_lock+0xd6>
1000048c:	6811      	ldr	r1, [r2, #0]
1000048e:	0063      	lsls	r3, r4, #1
10000490:	468c      	mov	ip, r1
10000492:	191b      	adds	r3, r3, r4
10000494:	4463      	add	r3, ip
10000496:	3b03      	subs	r3, #3
10000498:	785b      	ldrb	r3, [r3, #1]
1000049a:	7393      	strb	r3, [r2, #14]
1000049c:	2b00      	cmp	r3, #0
1000049e:	d054      	beq.n	1000054a <add_alarm_under_lock+0xe6>
100004a0:	68aa      	ldr	r2, [r5, #8]
100004a2:	b2e3      	uxtb	r3, r4
100004a4:	4694      	mov	ip, r2
100004a6:	4652      	mov	r2, sl
100004a8:	469b      	mov	fp, r3
100004aa:	4b38      	ldr	r3, [pc, #224]	; (1000058c <add_alarm_under_lock+0x128>)
100004ac:	682e      	ldr	r6, [r5, #0]
100004ae:	18e3      	adds	r3, r4, r3
100004b0:	011b      	lsls	r3, r3, #4
100004b2:	4463      	add	r3, ip
100004b4:	601a      	str	r2, [r3, #0]
100004b6:	9a0c      	ldr	r2, [sp, #48]	; 0x30
100004b8:	605f      	str	r7, [r3, #4]
100004ba:	609a      	str	r2, [r3, #8]
100004bc:	9a0d      	ldr	r2, [sp, #52]	; 0x34
100004be:	60da      	str	r2, [r3, #12]
100004c0:	23d0      	movs	r3, #208	; 0xd0
100004c2:	2280      	movs	r2, #128	; 0x80
100004c4:	061b      	lsls	r3, r3, #24
100004c6:	0312      	lsls	r2, r2, #12
100004c8:	615a      	str	r2, [r3, #20]
100004ca:	0063      	lsls	r3, r4, #1
100004cc:	191b      	adds	r3, r3, r4
100004ce:	3b03      	subs	r3, #3
100004d0:	4698      	mov	r8, r3
100004d2:	2200      	movs	r2, #0
100004d4:	6833      	ldr	r3, [r6, #0]
100004d6:	4443      	add	r3, r8
100004d8:	709a      	strb	r2, [r3, #2]
100004da:	705a      	strb	r2, [r3, #1]
100004dc:	701a      	strb	r2, [r3, #0]
100004de:	7b73      	ldrb	r3, [r6, #13]
100004e0:	4699      	mov	r9, r3
100004e2:	2b00      	cmp	r3, #0
100004e4:	d017      	beq.n	10000516 <add_alarm_under_lock+0xb2>
100004e6:	465a      	mov	r2, fp
100004e8:	0019      	movs	r1, r3
100004ea:	68b0      	ldr	r0, [r6, #8]
100004ec:	6873      	ldr	r3, [r6, #4]
100004ee:	4798      	blx	r3
100004f0:	6832      	ldr	r2, [r6, #0]
100004f2:	2800      	cmp	r0, #0
100004f4:	d12b      	bne.n	1000054e <add_alarm_under_lock+0xea>
100004f6:	4643      	mov	r3, r8
100004f8:	18d1      	adds	r1, r2, r3
100004fa:	464b      	mov	r3, r9
100004fc:	4658      	mov	r0, fp
100004fe:	005b      	lsls	r3, r3, #1
10000500:	444b      	add	r3, r9
10000502:	3b03      	subs	r3, #3
10000504:	18d3      	adds	r3, r2, r3
10000506:	7098      	strb	r0, [r3, #2]
10000508:	4640      	mov	r0, r8
1000050a:	5c12      	ldrb	r2, [r2, r0]
1000050c:	2a00      	cmp	r2, #0
1000050e:	d000      	beq.n	10000512 <add_alarm_under_lock+0xae>
10000510:	705a      	strb	r2, [r3, #1]
10000512:	464b      	mov	r3, r9
10000514:	700b      	strb	r3, [r1, #0]
10000516:	465b      	mov	r3, fp
10000518:	7373      	strb	r3, [r6, #13]
1000051a:	4652      	mov	r2, sl
1000051c:	003b      	movs	r3, r7
1000051e:	7d28      	ldrb	r0, [r5, #20]
10000520:	f000 fb3c 	bl	10000b9c <hardware_alarm_set_target>
10000524:	1e06      	subs	r6, r0, #0
10000526:	d002      	beq.n	1000052e <add_alarm_under_lock+0xca>
10000528:	9b01      	ldr	r3, [sp, #4]
1000052a:	2b00      	cmp	r3, #0
1000052c:	d026      	beq.n	1000057c <add_alarm_under_lock+0x118>
1000052e:	9b10      	ldr	r3, [sp, #64]	; 0x40
10000530:	2b00      	cmp	r3, #0
10000532:	d028      	beq.n	10000586 <add_alarm_under_lock+0x122>
10000534:	0020      	movs	r0, r4
10000536:	701e      	strb	r6, [r3, #0]
10000538:	e000      	b.n	1000053c <add_alarm_under_lock+0xd8>
1000053a:	2000      	movs	r0, #0
1000053c:	b003      	add	sp, #12
1000053e:	bc3c      	pop	{r2, r3, r4, r5}
10000540:	4690      	mov	r8, r2
10000542:	4699      	mov	r9, r3
10000544:	46a2      	mov	sl, r4
10000546:	46ab      	mov	fp, r5
10000548:	bdf0      	pop	{r4, r5, r6, r7, pc}
1000054a:	73d3      	strb	r3, [r2, #15]
1000054c:	e7a8      	b.n	100004a0 <add_alarm_under_lock+0x3c>
1000054e:	464b      	mov	r3, r9
10000550:	005b      	lsls	r3, r3, #1
10000552:	444b      	add	r3, r9
10000554:	3b03      	subs	r3, #3
10000556:	18d1      	adds	r1, r2, r3
10000558:	468c      	mov	ip, r1
1000055a:	4641      	mov	r1, r8
1000055c:	4648      	mov	r0, r9
1000055e:	1851      	adds	r1, r2, r1
10000560:	7088      	strb	r0, [r1, #2]
10000562:	5cd3      	ldrb	r3, [r2, r3]
10000564:	2b00      	cmp	r3, #0
10000566:	d000      	beq.n	1000056a <add_alarm_under_lock+0x106>
10000568:	704b      	strb	r3, [r1, #1]
1000056a:	465b      	mov	r3, fp
1000056c:	4662      	mov	r2, ip
1000056e:	7013      	strb	r3, [r2, #0]
10000570:	464b      	mov	r3, r9
10000572:	0020      	movs	r0, r4
10000574:	7373      	strb	r3, [r6, #13]
10000576:	45a1      	cmp	r9, r4
10000578:	d1e0      	bne.n	1000053c <add_alarm_under_lock+0xd8>
1000057a:	e7ce      	b.n	1000051a <add_alarm_under_lock+0xb6>
1000057c:	4659      	mov	r1, fp
1000057e:	6828      	ldr	r0, [r5, #0]
10000580:	f000 fd6a 	bl	10001058 <ph_delete>
10000584:	e7d3      	b.n	1000052e <add_alarm_under_lock+0xca>
10000586:	0020      	movs	r0, r4
10000588:	e7d8      	b.n	1000053c <add_alarm_under_lock+0xd8>
1000058a:	46c0      	nop			; (mov r8, r8)
1000058c:	0fffffff 	.word	0x0fffffff

10000590 <alarm_pool_alarm_callback>:
10000590:	b5f0      	push	{r4, r5, r6, r7, lr}
10000592:	46de      	mov	lr, fp
10000594:	464e      	mov	r6, r9
10000596:	4657      	mov	r7, sl
10000598:	4645      	mov	r5, r8
1000059a:	2300      	movs	r3, #0
1000059c:	b5e0      	push	{r5, r6, r7, lr}
1000059e:	b08d      	sub	sp, #52	; 0x34
100005a0:	930a      	str	r3, [sp, #40]	; 0x28
100005a2:	4b71      	ldr	r3, [pc, #452]	; (10000768 <alarm_pool_alarm_callback+0x1d8>)
100005a4:	0082      	lsls	r2, r0, #2
100005a6:	58d3      	ldr	r3, [r2, r3]
100005a8:	900b      	str	r0, [sp, #44]	; 0x2c
100005aa:	4699      	mov	r9, r3
100005ac:	2300      	movs	r3, #0
100005ae:	469b      	mov	fp, r3
100005b0:	464b      	mov	r3, r9
100005b2:	9307      	str	r3, [sp, #28]
100005b4:	f000 fa68 	bl	10000a88 <time_us_64>
100005b8:	9c07      	ldr	r4, [sp, #28]
100005ba:	0006      	movs	r6, r0
100005bc:	000f      	movs	r7, r1
100005be:	6862      	ldr	r2, [r4, #4]
100005c0:	f3ef 8510 	mrs	r5, PRIMASK
100005c4:	b672      	cpsid	i
100005c6:	6813      	ldr	r3, [r2, #0]
100005c8:	2b00      	cmp	r3, #0
100005ca:	d0fc      	beq.n	100005c6 <alarm_pool_alarm_callback+0x36>
100005cc:	0022      	movs	r2, r4
100005ce:	9407      	str	r4, [sp, #28]
100005d0:	f3bf 8f5f 	dmb	sy
100005d4:	6824      	ldr	r4, [r4, #0]
100005d6:	7b63      	ldrb	r3, [r4, #13]
100005d8:	4699      	mov	r9, r3
100005da:	2b00      	cmp	r3, #0
100005dc:	d100      	bne.n	100005e0 <alarm_pool_alarm_callback+0x50>
100005de:	e070      	b.n	100006c2 <alarm_pool_alarm_callback+0x132>
100005e0:	6892      	ldr	r2, [r2, #8]
100005e2:	4b62      	ldr	r3, [pc, #392]	; (1000076c <alarm_pool_alarm_callback+0x1dc>)
100005e4:	4690      	mov	r8, r2
100005e6:	444b      	add	r3, r9
100005e8:	011b      	lsls	r3, r3, #4
100005ea:	4498      	add	r8, r3
100005ec:	4643      	mov	r3, r8
100005ee:	681a      	ldr	r2, [r3, #0]
100005f0:	685b      	ldr	r3, [r3, #4]
100005f2:	0010      	movs	r0, r2
100005f4:	0019      	movs	r1, r3
100005f6:	1b80      	subs	r0, r0, r6
100005f8:	41b9      	sbcs	r1, r7
100005fa:	2900      	cmp	r1, #0
100005fc:	dd68      	ble.n	100006d0 <alarm_pool_alarm_callback+0x140>
100005fe:	980b      	ldr	r0, [sp, #44]	; 0x2c
10000600:	f000 facc 	bl	10000b9c <hardware_alarm_set_target>
10000604:	2300      	movs	r3, #0
10000606:	2600      	movs	r6, #0
10000608:	4698      	mov	r8, r3
1000060a:	2700      	movs	r7, #0
1000060c:	469a      	mov	sl, r3
1000060e:	9c07      	ldr	r4, [sp, #28]
10000610:	6863      	ldr	r3, [r4, #4]
10000612:	f3bf 8f5f 	dmb	sy
10000616:	465a      	mov	r2, fp
10000618:	601a      	str	r2, [r3, #0]
1000061a:	f385 8810 	msr	PRIMASK, r5
1000061e:	4653      	mov	r3, sl
10000620:	2b00      	cmp	r3, #0
10000622:	d108      	bne.n	10000636 <alarm_pool_alarm_callback+0xa6>
10000624:	2800      	cmp	r0, #0
10000626:	d1c5      	bne.n	100005b4 <alarm_pool_alarm_callback+0x24>
10000628:	b00d      	add	sp, #52	; 0x34
1000062a:	bc3c      	pop	{r2, r3, r4, r5}
1000062c:	4690      	mov	r8, r2
1000062e:	4699      	mov	r9, r3
10000630:	46a2      	mov	sl, r4
10000632:	46ab      	mov	fp, r5
10000634:	bdf0      	pop	{r4, r5, r6, r7, pc}
10000636:	23d0      	movs	r3, #208	; 0xd0
10000638:	2280      	movs	r2, #128	; 0x80
1000063a:	2180      	movs	r1, #128	; 0x80
1000063c:	061b      	lsls	r3, r3, #24
1000063e:	0392      	lsls	r2, r2, #14
10000640:	0309      	lsls	r1, r1, #12
10000642:	615a      	str	r2, [r3, #20]
10000644:	6199      	str	r1, [r3, #24]
10000646:	619a      	str	r2, [r3, #24]
10000648:	9b0a      	ldr	r3, [sp, #40]	; 0x28
1000064a:	4641      	mov	r1, r8
1000064c:	0218      	lsls	r0, r3, #8
1000064e:	464b      	mov	r3, r9
10000650:	4318      	orrs	r0, r3
10000652:	47d0      	blx	sl
10000654:	9008      	str	r0, [sp, #32]
10000656:	9109      	str	r1, [sp, #36]	; 0x24
10000658:	6862      	ldr	r2, [r4, #4]
1000065a:	f3ef 8510 	mrs	r5, PRIMASK
1000065e:	b672      	cpsid	i
10000660:	6813      	ldr	r3, [r2, #0]
10000662:	2b00      	cmp	r3, #0
10000664:	d0fc      	beq.n	10000660 <alarm_pool_alarm_callback+0xd0>
10000666:	9407      	str	r4, [sp, #28]
10000668:	f3bf 8f5f 	dmb	sy
1000066c:	9908      	ldr	r1, [sp, #32]
1000066e:	9a09      	ldr	r2, [sp, #36]	; 0x24
10000670:	2a00      	cmp	r2, #0
10000672:	db49      	blt.n	10000708 <alarm_pool_alarm_callback+0x178>
10000674:	4311      	orrs	r1, r2
10000676:	d003      	beq.n	10000680 <alarm_pool_alarm_callback+0xf0>
10000678:	9b07      	ldr	r3, [sp, #28]
1000067a:	691b      	ldr	r3, [r3, #16]
1000067c:	2b00      	cmp	r3, #0
1000067e:	d15e      	bne.n	1000073e <alarm_pool_alarm_callback+0x1ae>
10000680:	9b07      	ldr	r3, [sp, #28]
10000682:	681b      	ldr	r3, [r3, #0]
10000684:	7bda      	ldrb	r2, [r3, #15]
10000686:	2a00      	cmp	r2, #0
10000688:	d007      	beq.n	1000069a <alarm_pool_alarm_callback+0x10a>
1000068a:	0051      	lsls	r1, r2, #1
1000068c:	188a      	adds	r2, r1, r2
1000068e:	6819      	ldr	r1, [r3, #0]
10000690:	468c      	mov	ip, r1
10000692:	4649      	mov	r1, r9
10000694:	4462      	add	r2, ip
10000696:	3a03      	subs	r2, #3
10000698:	7051      	strb	r1, [r2, #1]
1000069a:	464a      	mov	r2, r9
1000069c:	73da      	strb	r2, [r3, #15]
1000069e:	464b      	mov	r3, r9
100006a0:	9a07      	ldr	r2, [sp, #28]
100006a2:	3b01      	subs	r3, #1
100006a4:	68d1      	ldr	r1, [r2, #12]
100006a6:	5cca      	ldrb	r2, [r1, r3]
100006a8:	3201      	adds	r2, #1
100006aa:	54ca      	strb	r2, [r1, r3]
100006ac:	465b      	mov	r3, fp
100006ae:	9a07      	ldr	r2, [sp, #28]
100006b0:	6113      	str	r3, [r2, #16]
100006b2:	6853      	ldr	r3, [r2, #4]
100006b4:	f3bf 8f5f 	dmb	sy
100006b8:	465a      	mov	r2, fp
100006ba:	601a      	str	r2, [r3, #0]
100006bc:	f385 8810 	msr	PRIMASK, r5
100006c0:	e778      	b.n	100005b4 <alarm_pool_alarm_callback+0x24>
100006c2:	2300      	movs	r3, #0
100006c4:	2600      	movs	r6, #0
100006c6:	4698      	mov	r8, r3
100006c8:	2700      	movs	r7, #0
100006ca:	469a      	mov	sl, r3
100006cc:	2000      	movs	r0, #0
100006ce:	e79e      	b.n	1000060e <alarm_pool_alarm_callback+0x7e>
100006d0:	2900      	cmp	r1, #0
100006d2:	d102      	bne.n	100006da <alarm_pool_alarm_callback+0x14a>
100006d4:	2800      	cmp	r0, #0
100006d6:	d000      	beq.n	100006da <alarm_pool_alarm_callback+0x14a>
100006d8:	e791      	b.n	100005fe <alarm_pool_alarm_callback+0x6e>
100006da:	2101      	movs	r1, #1
100006dc:	0020      	movs	r0, r4
100006de:	f000 fc1d 	bl	10000f1c <ph_remove_head_reserve>
100006e2:	4643      	mov	r3, r8
100006e4:	681e      	ldr	r6, [r3, #0]
100006e6:	685f      	ldr	r7, [r3, #4]
100006e8:	689b      	ldr	r3, [r3, #8]
100006ea:	9a07      	ldr	r2, [sp, #28]
100006ec:	469a      	mov	sl, r3
100006ee:	4643      	mov	r3, r8
100006f0:	68db      	ldr	r3, [r3, #12]
100006f2:	4698      	mov	r8, r3
100006f4:	68d3      	ldr	r3, [r2, #12]
100006f6:	444b      	add	r3, r9
100006f8:	3b01      	subs	r3, #1
100006fa:	781b      	ldrb	r3, [r3, #0]
100006fc:	930a      	str	r3, [sp, #40]	; 0x28
100006fe:	021b      	lsls	r3, r3, #8
10000700:	4303      	orrs	r3, r0
10000702:	6113      	str	r3, [r2, #16]
10000704:	2000      	movs	r0, #0
10000706:	e782      	b.n	1000060e <alarm_pool_alarm_callback+0x7e>
10000708:	6923      	ldr	r3, [r4, #16]
1000070a:	2b00      	cmp	r3, #0
1000070c:	d0b8      	beq.n	10000680 <alarm_pool_alarm_callback+0xf0>
1000070e:	0033      	movs	r3, r6
10000710:	003c      	movs	r4, r7
10000712:	1a5b      	subs	r3, r3, r1
10000714:	4194      	sbcs	r4, r2
10000716:	001a      	movs	r2, r3
10000718:	0023      	movs	r3, r4
1000071a:	42a7      	cmp	r7, r4
1000071c:	d819      	bhi.n	10000752 <alarm_pool_alarm_callback+0x1c2>
1000071e:	429f      	cmp	r7, r3
10000720:	d01b      	beq.n	1000075a <alarm_pool_alarm_callback+0x1ca>
10000722:	4659      	mov	r1, fp
10000724:	9104      	str	r1, [sp, #16]
10000726:	2101      	movs	r1, #1
10000728:	9103      	str	r1, [sp, #12]
1000072a:	4649      	mov	r1, r9
1000072c:	9102      	str	r1, [sp, #8]
1000072e:	4641      	mov	r1, r8
10000730:	9101      	str	r1, [sp, #4]
10000732:	4651      	mov	r1, sl
10000734:	9807      	ldr	r0, [sp, #28]
10000736:	9100      	str	r1, [sp, #0]
10000738:	f7ff fe94 	bl	10000464 <add_alarm_under_lock>
1000073c:	e7b6      	b.n	100006ac <alarm_pool_alarm_callback+0x11c>
1000073e:	f000 f9a3 	bl	10000a88 <time_us_64>
10000742:	9a08      	ldr	r2, [sp, #32]
10000744:	9b09      	ldr	r3, [sp, #36]	; 0x24
10000746:	0006      	movs	r6, r0
10000748:	000f      	movs	r7, r1
1000074a:	1992      	adds	r2, r2, r6
1000074c:	417b      	adcs	r3, r7
1000074e:	4299      	cmp	r1, r3
10000750:	d9e5      	bls.n	1000071e <alarm_pool_alarm_callback+0x18e>
10000752:	2201      	movs	r2, #1
10000754:	4252      	negs	r2, r2
10000756:	17d3      	asrs	r3, r2, #31
10000758:	e7e3      	b.n	10000722 <alarm_pool_alarm_callback+0x192>
1000075a:	4296      	cmp	r6, r2
1000075c:	d9e1      	bls.n	10000722 <alarm_pool_alarm_callback+0x192>
1000075e:	2201      	movs	r2, #1
10000760:	4252      	negs	r2, r2
10000762:	17d3      	asrs	r3, r2, #31
10000764:	e7dd      	b.n	10000722 <alarm_pool_alarm_callback+0x192>
10000766:	46c0      	nop			; (mov r8, r8)
10000768:	20000b08 	.word	0x20000b08
1000076c:	0fffffff 	.word	0x0fffffff

10000770 <alarm_pool_add_alarm_at.constprop.0>:
10000770:	b5f8      	push	{r3, r4, r5, r6, r7, lr}
10000772:	4657      	mov	r7, sl
10000774:	464e      	mov	r6, r9
10000776:	46de      	mov	lr, fp
10000778:	4645      	mov	r5, r8
1000077a:	4691      	mov	r9, r2
1000077c:	b5e0      	push	{r5, r6, r7, lr}
1000077e:	0004      	movs	r4, r0
10000780:	469a      	mov	sl, r3
10000782:	6842      	ldr	r2, [r0, #4]
10000784:	f3ef 8810 	mrs	r8, PRIMASK
10000788:	b672      	cpsid	i
1000078a:	6813      	ldr	r3, [r2, #0]
1000078c:	2b00      	cmp	r3, #0
1000078e:	d0fc      	beq.n	1000078a <alarm_pool_add_alarm_at.constprop.0+0x1a>
10000790:	f3bf 8f5f 	dmb	sy
10000794:	6826      	ldr	r6, [r4, #0]
10000796:	7bb5      	ldrb	r5, [r6, #14]
10000798:	2d00      	cmp	r5, #0
1000079a:	d040      	beq.n	1000081e <alarm_pool_add_alarm_at.constprop.0+0xae>
1000079c:	006f      	lsls	r7, r5, #1
1000079e:	6833      	ldr	r3, [r6, #0]
100007a0:	197f      	adds	r7, r7, r5
100007a2:	3f03      	subs	r7, #3
100007a4:	19db      	adds	r3, r3, r7
100007a6:	785b      	ldrb	r3, [r3, #1]
100007a8:	73b3      	strb	r3, [r6, #14]
100007aa:	2b00      	cmp	r3, #0
100007ac:	d100      	bne.n	100007b0 <alarm_pool_add_alarm_at.constprop.0+0x40>
100007ae:	73f3      	strb	r3, [r6, #15]
100007b0:	4b37      	ldr	r3, [pc, #220]	; (10000890 <alarm_pool_add_alarm_at.constprop.0+0x120>)
100007b2:	2200      	movs	r2, #0
100007b4:	18e9      	adds	r1, r5, r3
100007b6:	68a3      	ldr	r3, [r4, #8]
100007b8:	0109      	lsls	r1, r1, #4
100007ba:	469c      	mov	ip, r3
100007bc:	464b      	mov	r3, r9
100007be:	4461      	add	r1, ip
100007c0:	600b      	str	r3, [r1, #0]
100007c2:	4653      	mov	r3, sl
100007c4:	604b      	str	r3, [r1, #4]
100007c6:	4b33      	ldr	r3, [pc, #204]	; (10000894 <alarm_pool_add_alarm_at.constprop.0+0x124>)
100007c8:	60ca      	str	r2, [r1, #12]
100007ca:	608b      	str	r3, [r1, #8]
100007cc:	23d0      	movs	r3, #208	; 0xd0
100007ce:	2180      	movs	r1, #128	; 0x80
100007d0:	061b      	lsls	r3, r3, #24
100007d2:	0309      	lsls	r1, r1, #12
100007d4:	6159      	str	r1, [r3, #20]
100007d6:	6833      	ldr	r3, [r6, #0]
100007d8:	19db      	adds	r3, r3, r7
100007da:	709a      	strb	r2, [r3, #2]
100007dc:	705a      	strb	r2, [r3, #1]
100007de:	701a      	strb	r2, [r3, #0]
100007e0:	7b73      	ldrb	r3, [r6, #13]
100007e2:	469b      	mov	fp, r3
100007e4:	2b00      	cmp	r3, #0
100007e6:	d035      	beq.n	10000854 <alarm_pool_add_alarm_at.constprop.0+0xe4>
100007e8:	002a      	movs	r2, r5
100007ea:	0019      	movs	r1, r3
100007ec:	68b0      	ldr	r0, [r6, #8]
100007ee:	6873      	ldr	r3, [r6, #4]
100007f0:	4798      	blx	r3
100007f2:	6832      	ldr	r2, [r6, #0]
100007f4:	2800      	cmp	r0, #0
100007f6:	d020      	beq.n	1000083a <alarm_pool_add_alarm_at.constprop.0+0xca>
100007f8:	465b      	mov	r3, fp
100007fa:	4658      	mov	r0, fp
100007fc:	005b      	lsls	r3, r3, #1
100007fe:	445b      	add	r3, fp
10000800:	19d7      	adds	r7, r2, r7
10000802:	3b03      	subs	r3, #3
10000804:	70b8      	strb	r0, [r7, #2]
10000806:	18d1      	adds	r1, r2, r3
10000808:	5cd3      	ldrb	r3, [r2, r3]
1000080a:	2b00      	cmp	r3, #0
1000080c:	d000      	beq.n	10000810 <alarm_pool_add_alarm_at.constprop.0+0xa0>
1000080e:	707b      	strb	r3, [r7, #1]
10000810:	465b      	mov	r3, fp
10000812:	700d      	strb	r5, [r1, #0]
10000814:	7373      	strb	r3, [r6, #13]
10000816:	455d      	cmp	r5, fp
10000818:	d01d      	beq.n	10000856 <alarm_pool_add_alarm_at.constprop.0+0xe6>
1000081a:	2600      	movs	r6, #0
1000081c:	e026      	b.n	1000086c <alarm_pool_add_alarm_at.constprop.0+0xfc>
1000081e:	6863      	ldr	r3, [r4, #4]
10000820:	f3bf 8f5f 	dmb	sy
10000824:	601d      	str	r5, [r3, #0]
10000826:	f388 8810 	msr	PRIMASK, r8
1000082a:	2001      	movs	r0, #1
1000082c:	4240      	negs	r0, r0
1000082e:	bc3c      	pop	{r2, r3, r4, r5}
10000830:	4690      	mov	r8, r2
10000832:	4699      	mov	r9, r3
10000834:	46a2      	mov	sl, r4
10000836:	46ab      	mov	fp, r5
10000838:	bdf8      	pop	{r3, r4, r5, r6, r7, pc}
1000083a:	465b      	mov	r3, fp
1000083c:	005b      	lsls	r3, r3, #1
1000083e:	445b      	add	r3, fp
10000840:	3b03      	subs	r3, #3
10000842:	18d3      	adds	r3, r2, r3
10000844:	709d      	strb	r5, [r3, #2]
10000846:	19d1      	adds	r1, r2, r7
10000848:	5dd2      	ldrb	r2, [r2, r7]
1000084a:	2a00      	cmp	r2, #0
1000084c:	d000      	beq.n	10000850 <alarm_pool_add_alarm_at.constprop.0+0xe0>
1000084e:	705a      	strb	r2, [r3, #1]
10000850:	465b      	mov	r3, fp
10000852:	700b      	strb	r3, [r1, #0]
10000854:	7375      	strb	r5, [r6, #13]
10000856:	464a      	mov	r2, r9
10000858:	4653      	mov	r3, sl
1000085a:	7d20      	ldrb	r0, [r4, #20]
1000085c:	f000 f99e 	bl	10000b9c <hardware_alarm_set_target>
10000860:	1e06      	subs	r6, r0, #0
10000862:	d0da      	beq.n	1000081a <alarm_pool_add_alarm_at.constprop.0+0xaa>
10000864:	0029      	movs	r1, r5
10000866:	6820      	ldr	r0, [r4, #0]
10000868:	f000 fbf6 	bl	10001058 <ph_delete>
1000086c:	68e3      	ldr	r3, [r4, #12]
1000086e:	6862      	ldr	r2, [r4, #4]
10000870:	195b      	adds	r3, r3, r5
10000872:	3b01      	subs	r3, #1
10000874:	781b      	ldrb	r3, [r3, #0]
10000876:	f3bf 8f5f 	dmb	sy
1000087a:	2100      	movs	r1, #0
1000087c:	6011      	str	r1, [r2, #0]
1000087e:	f388 8810 	msr	PRIMASK, r8
10000882:	2000      	movs	r0, #0
10000884:	2e00      	cmp	r6, #0
10000886:	d1d2      	bne.n	1000082e <alarm_pool_add_alarm_at.constprop.0+0xbe>
10000888:	0218      	lsls	r0, r3, #8
1000088a:	4328      	orrs	r0, r5
1000088c:	e7cf      	b.n	1000082e <alarm_pool_add_alarm_at.constprop.0+0xbe>
1000088e:	46c0      	nop			; (mov r8, r8)
10000890:	0fffffff 	.word	0x0fffffff
10000894:	1000045d 	.word	0x1000045d

10000898 <alarm_pool_init_default>:
10000898:	b570      	push	{r4, r5, r6, lr}
1000089a:	4c18      	ldr	r4, [pc, #96]	; (100008fc <alarm_pool_init_default+0x64>)
1000089c:	6823      	ldr	r3, [r4, #0]
1000089e:	2b00      	cmp	r3, #0
100008a0:	d000      	beq.n	100008a4 <alarm_pool_init_default+0xc>
100008a2:	bd70      	pop	{r4, r5, r6, pc}
100008a4:	2003      	movs	r0, #3
100008a6:	f000 f8e3 	bl	10000a70 <hardware_alarm_claim>
100008aa:	2003      	movs	r0, #3
100008ac:	f000 f9d8 	bl	10000c60 <hardware_alarm_cancel>
100008b0:	4913      	ldr	r1, [pc, #76]	; (10000900 <alarm_pool_init_default+0x68>)
100008b2:	2003      	movs	r0, #3
100008b4:	f000 f92c 	bl	10000b10 <hardware_alarm_set_callback>
100008b8:	2018      	movs	r0, #24
100008ba:	f001 f95f 	bl	10001b7c <__wrap_malloc>
100008be:	0005      	movs	r5, r0
100008c0:	f7ff fd9e 	bl	10000400 <next_striped_spin_lock_num>
100008c4:	4b0f      	ldr	r3, [pc, #60]	; (10000904 <alarm_pool_init_default+0x6c>)
100008c6:	002a      	movs	r2, r5
100008c8:	469c      	mov	ip, r3
100008ca:	4460      	add	r0, ip
100008cc:	0080      	lsls	r0, r0, #2
100008ce:	490e      	ldr	r1, [pc, #56]	; (10000908 <alarm_pool_init_default+0x70>)
100008d0:	6068      	str	r0, [r5, #4]
100008d2:	2010      	movs	r0, #16
100008d4:	f000 fa2c 	bl	10000d30 <ph_create>
100008d8:	2110      	movs	r1, #16
100008da:	6028      	str	r0, [r5, #0]
100008dc:	2010      	movs	r0, #16
100008de:	f001 f951 	bl	10001b84 <__wrap_calloc>
100008e2:	2101      	movs	r1, #1
100008e4:	60a8      	str	r0, [r5, #8]
100008e6:	2010      	movs	r0, #16
100008e8:	f001 f94c 	bl	10001b84 <__wrap_calloc>
100008ec:	2303      	movs	r3, #3
100008ee:	752b      	strb	r3, [r5, #20]
100008f0:	4b06      	ldr	r3, [pc, #24]	; (1000090c <alarm_pool_init_default+0x74>)
100008f2:	60e8      	str	r0, [r5, #12]
100008f4:	60dd      	str	r5, [r3, #12]
100008f6:	6025      	str	r5, [r4, #0]
100008f8:	e7d3      	b.n	100008a2 <alarm_pool_init_default+0xa>
100008fa:	46c0      	nop			; (mov r8, r8)
100008fc:	20000af4 	.word	0x20000af4
10000900:	10000591 	.word	0x10000591
10000904:	34000040 	.word	0x34000040
10000908:	10000429 	.word	0x10000429
1000090c:	20000b08 	.word	0x20000b08

10000910 <sleep_ms>:
10000910:	b5f8      	push	{r3, r4, r5, r6, r7, lr}
10000912:	0004      	movs	r4, r0
10000914:	f000 f8b8 	bl	10000a88 <time_us_64>
10000918:	22fa      	movs	r2, #250	; 0xfa
1000091a:	0006      	movs	r6, r0
1000091c:	000f      	movs	r7, r1
1000091e:	0020      	movs	r0, r4
10000920:	2300      	movs	r3, #0
10000922:	2100      	movs	r1, #0
10000924:	0092      	lsls	r2, r2, #2
10000926:	f001 f8c7 	bl	10001ab8 <__wrap___aeabi_lmul>
1000092a:	1980      	adds	r0, r0, r6
1000092c:	4179      	adcs	r1, r7
1000092e:	0004      	movs	r4, r0
10000930:	000d      	movs	r5, r1
10000932:	428f      	cmp	r7, r1
10000934:	d82f      	bhi.n	10000996 <sleep_ms+0x86>
10000936:	d02c      	beq.n	10000992 <sleep_ms+0x82>
10000938:	2606      	movs	r6, #6
1000093a:	4276      	negs	r6, r6
1000093c:	17f7      	asrs	r7, r6, #31
1000093e:	1936      	adds	r6, r6, r4
10000940:	416f      	adcs	r7, r5
10000942:	42af      	cmp	r7, r5
10000944:	d92e      	bls.n	100009a4 <sleep_ms+0x94>
10000946:	2600      	movs	r6, #0
10000948:	2700      	movs	r7, #0
1000094a:	f000 f89d 	bl	10000a88 <time_us_64>
1000094e:	0032      	movs	r2, r6
10000950:	003b      	movs	r3, r7
10000952:	1a12      	subs	r2, r2, r0
10000954:	418b      	sbcs	r3, r1
10000956:	2b00      	cmp	r3, #0
10000958:	dc07      	bgt.n	1000096a <sleep_ms+0x5a>
1000095a:	d004      	beq.n	10000966 <sleep_ms+0x56>
1000095c:	0029      	movs	r1, r5
1000095e:	0020      	movs	r0, r4
10000960:	f000 f8c6 	bl	10000af0 <busy_wait_until>
10000964:	bdf8      	pop	{r3, r4, r5, r6, r7, pc}
10000966:	2a00      	cmp	r2, #0
10000968:	d0f8      	beq.n	1000095c <sleep_ms+0x4c>
1000096a:	4b11      	ldr	r3, [pc, #68]	; (100009b0 <sleep_ms+0xa0>)
1000096c:	0032      	movs	r2, r6
1000096e:	6818      	ldr	r0, [r3, #0]
10000970:	003b      	movs	r3, r7
10000972:	f7ff fefd 	bl	10000770 <alarm_pool_add_alarm_at.constprop.0>
10000976:	2800      	cmp	r0, #0
10000978:	dbf0      	blt.n	1000095c <sleep_ms+0x4c>
1000097a:	0038      	movs	r0, r7
1000097c:	4a0d      	ldr	r2, [pc, #52]	; (100009b4 <sleep_ms+0xa4>)
1000097e:	6a53      	ldr	r3, [r2, #36]	; 0x24
10000980:	4298      	cmp	r0, r3
10000982:	d804      	bhi.n	1000098e <sleep_ms+0x7e>
10000984:	6a91      	ldr	r1, [r2, #40]	; 0x28
10000986:	428e      	cmp	r6, r1
10000988:	d9e8      	bls.n	1000095c <sleep_ms+0x4c>
1000098a:	4298      	cmp	r0, r3
1000098c:	d1e6      	bne.n	1000095c <sleep_ms+0x4c>
1000098e:	bf20      	wfe
10000990:	e7f5      	b.n	1000097e <sleep_ms+0x6e>
10000992:	4286      	cmp	r6, r0
10000994:	d9d0      	bls.n	10000938 <sleep_ms+0x28>
10000996:	2401      	movs	r4, #1
10000998:	4264      	negs	r4, r4
1000099a:	17e5      	asrs	r5, r4, #31
1000099c:	2607      	movs	r6, #7
1000099e:	4276      	negs	r6, r6
100009a0:	17f7      	asrs	r7, r6, #31
100009a2:	e7d2      	b.n	1000094a <sleep_ms+0x3a>
100009a4:	42af      	cmp	r7, r5
100009a6:	d1d0      	bne.n	1000094a <sleep_ms+0x3a>
100009a8:	42a6      	cmp	r6, r4
100009aa:	d8cc      	bhi.n	10000946 <sleep_ms+0x36>
100009ac:	e7cd      	b.n	1000094a <sleep_ms+0x3a>
100009ae:	46c0      	nop			; (mov r8, r8)
100009b0:	20000af4 	.word	0x20000af4
100009b4:	40054000 	.word	0x40054000

100009b8 <hardware_alarm_irq_handler>:
100009b8:	b5f0      	push	{r4, r5, r6, r7, lr}
100009ba:	46d6      	mov	lr, sl
100009bc:	464f      	mov	r7, r9
100009be:	4646      	mov	r6, r8
100009c0:	b5c0      	push	{r6, r7, lr}
100009c2:	f3ef 8305 	mrs	r3, IPSR
100009c6:	223f      	movs	r2, #63	; 0x3f
100009c8:	4013      	ands	r3, r2
100009ca:	0018      	movs	r0, r3
100009cc:	3810      	subs	r0, #16
100009ce:	f3ef 8c10 	mrs	ip, PRIMASK
100009d2:	b672      	cpsid	i
100009d4:	4d20      	ldr	r5, [pc, #128]	; (10000a58 <hardware_alarm_irq_handler+0xa0>)
100009d6:	682a      	ldr	r2, [r5, #0]
100009d8:	2a00      	cmp	r2, #0
100009da:	d0fc      	beq.n	100009d6 <hardware_alarm_irq_handler+0x1e>
100009dc:	f3bf 8f5f 	dmb	sy
100009e0:	2201      	movs	r2, #1
100009e2:	0011      	movs	r1, r2
100009e4:	4081      	lsls	r1, r0
100009e6:	4c1d      	ldr	r4, [pc, #116]	; (10000a5c <hardware_alarm_irq_handler+0xa4>)
100009e8:	4688      	mov	r8, r1
100009ea:	6361      	str	r1, [r4, #52]	; 0x34
100009ec:	491c      	ldr	r1, [pc, #112]	; (10000a60 <hardware_alarm_irq_handler+0xa8>)
100009ee:	0017      	movs	r7, r2
100009f0:	780e      	ldrb	r6, [r1, #0]
100009f2:	468a      	mov	sl, r1
100009f4:	0031      	movs	r1, r6
100009f6:	40c1      	lsrs	r1, r0
100009f8:	400f      	ands	r7, r1
100009fa:	420a      	tst	r2, r1
100009fc:	d015      	beq.n	10000a2a <hardware_alarm_irq_handler+0x72>
100009fe:	4919      	ldr	r1, [pc, #100]	; (10000a64 <hardware_alarm_irq_handler+0xac>)
10000a00:	0082      	lsls	r2, r0, #2
10000a02:	6a64      	ldr	r4, [r4, #36]	; 0x24
10000a04:	5851      	ldr	r1, [r2, r1]
10000a06:	428c      	cmp	r4, r1
10000a08:	d319      	bcc.n	10000a3e <hardware_alarm_irq_handler+0x86>
10000a0a:	4b17      	ldr	r3, [pc, #92]	; (10000a68 <hardware_alarm_irq_handler+0xb0>)
10000a0c:	58d2      	ldr	r2, [r2, r3]
10000a0e:	4643      	mov	r3, r8
10000a10:	439e      	bics	r6, r3
10000a12:	4653      	mov	r3, sl
10000a14:	701e      	strb	r6, [r3, #0]
10000a16:	f3bf 8f5f 	dmb	sy
10000a1a:	2300      	movs	r3, #0
10000a1c:	602b      	str	r3, [r5, #0]
10000a1e:	f38c 8810 	msr	PRIMASK, ip
10000a22:	2a00      	cmp	r2, #0
10000a24:	d006      	beq.n	10000a34 <hardware_alarm_irq_handler+0x7c>
10000a26:	4790      	blx	r2
10000a28:	e004      	b.n	10000a34 <hardware_alarm_irq_handler+0x7c>
10000a2a:	f3bf 8f5f 	dmb	sy
10000a2e:	602f      	str	r7, [r5, #0]
10000a30:	f38c 8810 	msr	PRIMASK, ip
10000a34:	bc1c      	pop	{r2, r3, r4}
10000a36:	4690      	mov	r8, r2
10000a38:	4699      	mov	r9, r3
10000a3a:	46a2      	mov	sl, r4
10000a3c:	bdf0      	pop	{r4, r5, r6, r7, pc}
10000a3e:	4a0b      	ldr	r2, [pc, #44]	; (10000a6c <hardware_alarm_irq_handler+0xb4>)
10000a40:	009b      	lsls	r3, r3, #2
10000a42:	4690      	mov	r8, r2
10000a44:	4443      	add	r3, r8
10000a46:	681a      	ldr	r2, [r3, #0]
10000a48:	601a      	str	r2, [r3, #0]
10000a4a:	f3bf 8f5f 	dmb	sy
10000a4e:	2300      	movs	r3, #0
10000a50:	602b      	str	r3, [r5, #0]
10000a52:	f38c 8810 	msr	PRIMASK, ip
10000a56:	e7ed      	b.n	10000a34 <hardware_alarm_irq_handler+0x7c>
10000a58:	d0000128 	.word	0xd0000128
10000a5c:	40054000 	.word	0x40054000
10000a60:	20000b2a 	.word	0x20000b2a
10000a64:	20000b18 	.word	0x20000b18
10000a68:	20000abc 	.word	0x20000abc
10000a6c:	40053fd0 	.word	0x40053fd0

10000a70 <hardware_alarm_claim>:
10000a70:	b510      	push	{r4, lr}
10000a72:	0001      	movs	r1, r0
10000a74:	4a02      	ldr	r2, [pc, #8]	; (10000a80 <hardware_alarm_claim+0x10>)
10000a76:	4803      	ldr	r0, [pc, #12]	; (10000a84 <hardware_alarm_claim+0x14>)
10000a78:	f7ff fc84 	bl	10000384 <hw_claim_or_assert>
10000a7c:	bd10      	pop	{r4, pc}
10000a7e:	46c0      	nop			; (mov r8, r8)
10000a80:	10002748 	.word	0x10002748
10000a84:	20000b28 	.word	0x20000b28

10000a88 <time_us_64>:
10000a88:	4b03      	ldr	r3, [pc, #12]	; (10000a98 <time_us_64+0x10>)
10000a8a:	6a59      	ldr	r1, [r3, #36]	; 0x24
10000a8c:	000a      	movs	r2, r1
10000a8e:	6a98      	ldr	r0, [r3, #40]	; 0x28
10000a90:	6a59      	ldr	r1, [r3, #36]	; 0x24
10000a92:	428a      	cmp	r2, r1
10000a94:	d1fa      	bne.n	10000a8c <time_us_64+0x4>
10000a96:	4770      	bx	lr
10000a98:	40054000 	.word	0x40054000

10000a9c <busy_wait_us>:
10000a9c:	b570      	push	{r4, r5, r6, lr}
10000a9e:	0004      	movs	r4, r0
10000aa0:	000d      	movs	r5, r1
10000aa2:	4a12      	ldr	r2, [pc, #72]	; (10000aec <busy_wait_us+0x50>)
10000aa4:	6a53      	ldr	r3, [r2, #36]	; 0x24
10000aa6:	0019      	movs	r1, r3
10000aa8:	6a96      	ldr	r6, [r2, #40]	; 0x28
10000aaa:	6a53      	ldr	r3, [r2, #36]	; 0x24
10000aac:	428b      	cmp	r3, r1
10000aae:	d1fa      	bne.n	10000aa6 <busy_wait_us+0xa>
10000ab0:	0030      	movs	r0, r6
10000ab2:	0019      	movs	r1, r3
10000ab4:	1824      	adds	r4, r4, r0
10000ab6:	414d      	adcs	r5, r1
10000ab8:	42ab      	cmp	r3, r5
10000aba:	d811      	bhi.n	10000ae0 <busy_wait_us+0x44>
10000abc:	d00e      	beq.n	10000adc <busy_wait_us+0x40>
10000abe:	002b      	movs	r3, r5
10000ac0:	490a      	ldr	r1, [pc, #40]	; (10000aec <busy_wait_us+0x50>)
10000ac2:	6a4a      	ldr	r2, [r1, #36]	; 0x24
10000ac4:	429a      	cmp	r2, r3
10000ac6:	d3fc      	bcc.n	10000ac2 <busy_wait_us+0x26>
10000ac8:	d107      	bne.n	10000ada <busy_wait_us+0x3e>
10000aca:	4a08      	ldr	r2, [pc, #32]	; (10000aec <busy_wait_us+0x50>)
10000acc:	e002      	b.n	10000ad4 <busy_wait_us+0x38>
10000ace:	6a51      	ldr	r1, [r2, #36]	; 0x24
10000ad0:	4299      	cmp	r1, r3
10000ad2:	d102      	bne.n	10000ada <busy_wait_us+0x3e>
10000ad4:	6a91      	ldr	r1, [r2, #40]	; 0x28
10000ad6:	42a1      	cmp	r1, r4
10000ad8:	d3f9      	bcc.n	10000ace <busy_wait_us+0x32>
10000ada:	bd70      	pop	{r4, r5, r6, pc}
10000adc:	42a6      	cmp	r6, r4
10000ade:	d9ee      	bls.n	10000abe <busy_wait_us+0x22>
10000ae0:	2301      	movs	r3, #1
10000ae2:	2401      	movs	r4, #1
10000ae4:	4264      	negs	r4, r4
10000ae6:	17e5      	asrs	r5, r4, #31
10000ae8:	425b      	negs	r3, r3
10000aea:	e7e9      	b.n	10000ac0 <busy_wait_us+0x24>
10000aec:	40054000 	.word	0x40054000

10000af0 <busy_wait_until>:
10000af0:	4a06      	ldr	r2, [pc, #24]	; (10000b0c <busy_wait_until+0x1c>)
10000af2:	6a53      	ldr	r3, [r2, #36]	; 0x24
10000af4:	4299      	cmp	r1, r3
10000af6:	d8fc      	bhi.n	10000af2 <busy_wait_until+0x2>
10000af8:	d107      	bne.n	10000b0a <busy_wait_until+0x1a>
10000afa:	4b04      	ldr	r3, [pc, #16]	; (10000b0c <busy_wait_until+0x1c>)
10000afc:	e002      	b.n	10000b04 <busy_wait_until+0x14>
10000afe:	6a5a      	ldr	r2, [r3, #36]	; 0x24
10000b00:	4291      	cmp	r1, r2
10000b02:	d102      	bne.n	10000b0a <busy_wait_until+0x1a>
10000b04:	6a9a      	ldr	r2, [r3, #40]	; 0x28
10000b06:	4282      	cmp	r2, r0
10000b08:	d3f9      	bcc.n	10000afe <busy_wait_until+0xe>
10000b0a:	4770      	bx	lr
10000b0c:	40054000 	.word	0x40054000

10000b10 <hardware_alarm_set_callback>:
10000b10:	b570      	push	{r4, r5, r6, lr}
10000b12:	0004      	movs	r4, r0
10000b14:	000d      	movs	r5, r1
10000b16:	f3ef 8610 	mrs	r6, PRIMASK
10000b1a:	b672      	cpsid	i
10000b1c:	4a1a      	ldr	r2, [pc, #104]	; (10000b88 <hardware_alarm_set_callback+0x78>)
10000b1e:	6813      	ldr	r3, [r2, #0]
10000b20:	2b00      	cmp	r3, #0
10000b22:	d0fc      	beq.n	10000b1e <hardware_alarm_set_callback+0xe>
10000b24:	f3bf 8f5f 	dmb	sy
10000b28:	2d00      	cmp	r5, #0
10000b2a:	d01b      	beq.n	10000b64 <hardware_alarm_set_callback+0x54>
10000b2c:	0020      	movs	r0, r4
10000b2e:	f000 fd49 	bl	100015c4 <irq_get_vtable_handler>
10000b32:	4916      	ldr	r1, [pc, #88]	; (10000b8c <hardware_alarm_set_callback+0x7c>)
10000b34:	4281      	cmp	r1, r0
10000b36:	d00a      	beq.n	10000b4e <hardware_alarm_set_callback+0x3e>
10000b38:	0020      	movs	r0, r4
10000b3a:	f000 fd4b 	bl	100015d4 <irq_set_exclusive_handler>
10000b3e:	2101      	movs	r1, #1
10000b40:	0020      	movs	r0, r4
10000b42:	f000 fd2d 	bl	100015a0 <irq_set_enabled>
10000b46:	2301      	movs	r3, #1
10000b48:	40a3      	lsls	r3, r4
10000b4a:	4a11      	ldr	r2, [pc, #68]	; (10000b90 <hardware_alarm_set_callback+0x80>)
10000b4c:	6013      	str	r3, [r2, #0]
10000b4e:	4b11      	ldr	r3, [pc, #68]	; (10000b94 <hardware_alarm_set_callback+0x84>)
10000b50:	00a4      	lsls	r4, r4, #2
10000b52:	50e5      	str	r5, [r4, r3]
10000b54:	f3bf 8f5f 	dmb	sy
10000b58:	2200      	movs	r2, #0
10000b5a:	4b0b      	ldr	r3, [pc, #44]	; (10000b88 <hardware_alarm_set_callback+0x78>)
10000b5c:	601a      	str	r2, [r3, #0]
10000b5e:	f386 8810 	msr	PRIMASK, r6
10000b62:	bd70      	pop	{r4, r5, r6, pc}
10000b64:	4b0b      	ldr	r3, [pc, #44]	; (10000b94 <hardware_alarm_set_callback+0x84>)
10000b66:	00a2      	lsls	r2, r4, #2
10000b68:	50d5      	str	r5, [r2, r3]
10000b6a:	2201      	movs	r2, #1
10000b6c:	40a2      	lsls	r2, r4
10000b6e:	490a      	ldr	r1, [pc, #40]	; (10000b98 <hardware_alarm_set_callback+0x88>)
10000b70:	0020      	movs	r0, r4
10000b72:	780b      	ldrb	r3, [r1, #0]
10000b74:	4393      	bics	r3, r2
10000b76:	700b      	strb	r3, [r1, #0]
10000b78:	4904      	ldr	r1, [pc, #16]	; (10000b8c <hardware_alarm_set_callback+0x7c>)
10000b7a:	f000 fd55 	bl	10001628 <irq_remove_handler>
10000b7e:	2100      	movs	r1, #0
10000b80:	0020      	movs	r0, r4
10000b82:	f000 fd0d 	bl	100015a0 <irq_set_enabled>
10000b86:	e7e5      	b.n	10000b54 <hardware_alarm_set_callback+0x44>
10000b88:	d0000128 	.word	0xd0000128
10000b8c:	100009b9 	.word	0x100009b9
10000b90:	40056038 	.word	0x40056038
10000b94:	20000abc 	.word	0x20000abc
10000b98:	20000b2a 	.word	0x20000b2a

10000b9c <hardware_alarm_set_target>:
10000b9c:	b5f0      	push	{r4, r5, r6, r7, lr}
10000b9e:	46ce      	mov	lr, r9
10000ba0:	4647      	mov	r7, r8
10000ba2:	b580      	push	{r7, lr}
10000ba4:	4c2a      	ldr	r4, [pc, #168]	; (10000c50 <hardware_alarm_set_target+0xb4>)
10000ba6:	6a61      	ldr	r1, [r4, #36]	; 0x24
10000ba8:	000d      	movs	r5, r1
10000baa:	6aa6      	ldr	r6, [r4, #40]	; 0x28
10000bac:	6a61      	ldr	r1, [r4, #36]	; 0x24
10000bae:	42a9      	cmp	r1, r5
10000bb0:	d1fa      	bne.n	10000ba8 <hardware_alarm_set_target+0xc>
10000bb2:	428b      	cmp	r3, r1
10000bb4:	d807      	bhi.n	10000bc6 <hardware_alarm_set_target+0x2a>
10000bb6:	d004      	beq.n	10000bc2 <hardware_alarm_set_target+0x26>
10000bb8:	2001      	movs	r0, #1
10000bba:	bc0c      	pop	{r2, r3}
10000bbc:	4690      	mov	r8, r2
10000bbe:	4699      	mov	r9, r3
10000bc0:	bdf0      	pop	{r4, r5, r6, r7, pc}
10000bc2:	42b2      	cmp	r2, r6
10000bc4:	d9f8      	bls.n	10000bb8 <hardware_alarm_set_target+0x1c>
10000bc6:	f3ef 8810 	mrs	r8, PRIMASK
10000bca:	b672      	cpsid	i
10000bcc:	4c21      	ldr	r4, [pc, #132]	; (10000c54 <hardware_alarm_set_target+0xb8>)
10000bce:	6821      	ldr	r1, [r4, #0]
10000bd0:	2900      	cmp	r1, #0
10000bd2:	d0fc      	beq.n	10000bce <hardware_alarm_set_target+0x32>
10000bd4:	f3bf 8f5f 	dmb	sy
10000bd8:	2501      	movs	r5, #1
10000bda:	4085      	lsls	r5, r0
10000bdc:	4c1c      	ldr	r4, [pc, #112]	; (10000c50 <hardware_alarm_set_target+0xb4>)
10000bde:	4e1e      	ldr	r6, [pc, #120]	; (10000c58 <hardware_alarm_set_target+0xbc>)
10000be0:	6365      	str	r5, [r4, #52]	; 0x34
10000be2:	b2e9      	uxtb	r1, r5
10000be4:	468c      	mov	ip, r1
10000be6:	7831      	ldrb	r1, [r6, #0]
10000be8:	4689      	mov	r9, r1
10000bea:	4661      	mov	r1, ip
10000bec:	464f      	mov	r7, r9
10000bee:	4339      	orrs	r1, r7
10000bf0:	7031      	strb	r1, [r6, #0]
10000bf2:	1d01      	adds	r1, r0, #4
10000bf4:	0089      	lsls	r1, r1, #2
10000bf6:	510a      	str	r2, [r1, r4]
10000bf8:	4918      	ldr	r1, [pc, #96]	; (10000c5c <hardware_alarm_set_target+0xc0>)
10000bfa:	0080      	lsls	r0, r0, #2
10000bfc:	5043      	str	r3, [r0, r1]
10000bfe:	6a21      	ldr	r1, [r4, #32]
10000c00:	2000      	movs	r0, #0
10000c02:	4229      	tst	r1, r5
10000c04:	d00c      	beq.n	10000c20 <hardware_alarm_set_target+0x84>
10000c06:	0020      	movs	r0, r4
10000c08:	6a61      	ldr	r1, [r4, #36]	; 0x24
10000c0a:	000c      	movs	r4, r1
10000c0c:	6a87      	ldr	r7, [r0, #40]	; 0x28
10000c0e:	6a41      	ldr	r1, [r0, #36]	; 0x24
10000c10:	42a1      	cmp	r1, r4
10000c12:	d1fa      	bne.n	10000c0a <hardware_alarm_set_target+0x6e>
10000c14:	428b      	cmp	r3, r1
10000c16:	d802      	bhi.n	10000c1e <hardware_alarm_set_target+0x82>
10000c18:	d10a      	bne.n	10000c30 <hardware_alarm_set_target+0x94>
10000c1a:	42ba      	cmp	r2, r7
10000c1c:	d908      	bls.n	10000c30 <hardware_alarm_set_target+0x94>
10000c1e:	2000      	movs	r0, #0
10000c20:	f3bf 8f5f 	dmb	sy
10000c24:	2200      	movs	r2, #0
10000c26:	4b0b      	ldr	r3, [pc, #44]	; (10000c54 <hardware_alarm_set_target+0xb8>)
10000c28:	601a      	str	r2, [r3, #0]
10000c2a:	f388 8810 	msr	PRIMASK, r8
10000c2e:	e7c4      	b.n	10000bba <hardware_alarm_set_target+0x1e>
10000c30:	4b07      	ldr	r3, [pc, #28]	; (10000c50 <hardware_alarm_set_target+0xb4>)
10000c32:	464f      	mov	r7, r9
10000c34:	621d      	str	r5, [r3, #32]
10000c36:	635d      	str	r5, [r3, #52]	; 0x34
10000c38:	4663      	mov	r3, ip
10000c3a:	439f      	bics	r7, r3
10000c3c:	2001      	movs	r0, #1
10000c3e:	7037      	strb	r7, [r6, #0]
10000c40:	f3bf 8f5f 	dmb	sy
10000c44:	2200      	movs	r2, #0
10000c46:	4b03      	ldr	r3, [pc, #12]	; (10000c54 <hardware_alarm_set_target+0xb8>)
10000c48:	601a      	str	r2, [r3, #0]
10000c4a:	f388 8810 	msr	PRIMASK, r8
10000c4e:	e7b4      	b.n	10000bba <hardware_alarm_set_target+0x1e>
10000c50:	40054000 	.word	0x40054000
10000c54:	d0000128 	.word	0xd0000128
10000c58:	20000b2a 	.word	0x20000b2a
10000c5c:	20000b18 	.word	0x20000b18

10000c60 <hardware_alarm_cancel>:
10000c60:	b510      	push	{r4, lr}
10000c62:	f3ef 8410 	mrs	r4, PRIMASK
10000c66:	b672      	cpsid	i
10000c68:	490a      	ldr	r1, [pc, #40]	; (10000c94 <hardware_alarm_cancel+0x34>)
10000c6a:	680b      	ldr	r3, [r1, #0]
10000c6c:	2b00      	cmp	r3, #0
10000c6e:	d0fc      	beq.n	10000c6a <hardware_alarm_cancel+0xa>
10000c70:	f3bf 8f5f 	dmb	sy
10000c74:	2301      	movs	r3, #1
10000c76:	4083      	lsls	r3, r0
10000c78:	4a07      	ldr	r2, [pc, #28]	; (10000c98 <hardware_alarm_cancel+0x38>)
10000c7a:	4808      	ldr	r0, [pc, #32]	; (10000c9c <hardware_alarm_cancel+0x3c>)
10000c7c:	6213      	str	r3, [r2, #32]
10000c7e:	7802      	ldrb	r2, [r0, #0]
10000c80:	439a      	bics	r2, r3
10000c82:	7002      	strb	r2, [r0, #0]
10000c84:	f3bf 8f5f 	dmb	sy
10000c88:	2300      	movs	r3, #0
10000c8a:	600b      	str	r3, [r1, #0]
10000c8c:	f384 8810 	msr	PRIMASK, r4
10000c90:	bd10      	pop	{r4, pc}
10000c92:	46c0      	nop			; (mov r8, r8)
10000c94:	d0000128 	.word	0xd0000128
10000c98:	40054000 	.word	0x40054000
10000c9c:	20000b2a 	.word	0x20000b2a

10000ca0 <lock_init>:
10000ca0:	4b02      	ldr	r3, [pc, #8]	; (10000cac <lock_init+0xc>)
10000ca2:	469c      	mov	ip, r3
10000ca4:	4461      	add	r1, ip
10000ca6:	0089      	lsls	r1, r1, #2
10000ca8:	6001      	str	r1, [r0, #0]
10000caa:	4770      	bx	lr
10000cac:	34000040 	.word	0x34000040

10000cb0 <mutex_init>:
10000cb0:	b510      	push	{r4, lr}
10000cb2:	0004      	movs	r4, r0
10000cb4:	f7ff fba4 	bl	10000400 <next_striped_spin_lock_num>
10000cb8:	0001      	movs	r1, r0
10000cba:	0020      	movs	r0, r4
10000cbc:	f7ff fff0 	bl	10000ca0 <lock_init>
10000cc0:	f3bf 8f5f 	dmb	sy
10000cc4:	bd10      	pop	{r4, pc}
10000cc6:	46c0      	nop			; (mov r8, r8)

10000cc8 <ph_merge_nodes>:
10000cc8:	b570      	push	{r4, r5, r6, lr}
10000cca:	0005      	movs	r5, r0
10000ccc:	000e      	movs	r6, r1
10000cce:	0014      	movs	r4, r2
10000cd0:	2900      	cmp	r1, #0
10000cd2:	d024      	beq.n	10000d1e <ph_merge_nodes+0x56>
10000cd4:	2a00      	cmp	r2, #0
10000cd6:	d024      	beq.n	10000d22 <ph_merge_nodes+0x5a>
10000cd8:	6880      	ldr	r0, [r0, #8]
10000cda:	686b      	ldr	r3, [r5, #4]
10000cdc:	4798      	blx	r3
10000cde:	6829      	ldr	r1, [r5, #0]
10000ce0:	2800      	cmp	r0, #0
10000ce2:	d00e      	beq.n	10000d02 <ph_merge_nodes+0x3a>
10000ce4:	0063      	lsls	r3, r4, #1
10000ce6:	191b      	adds	r3, r3, r4
10000ce8:	0072      	lsls	r2, r6, #1
10000cea:	3b03      	subs	r3, #3
10000cec:	1992      	adds	r2, r2, r6
10000cee:	18cb      	adds	r3, r1, r3
10000cf0:	3a03      	subs	r2, #3
10000cf2:	709e      	strb	r6, [r3, #2]
10000cf4:	1888      	adds	r0, r1, r2
10000cf6:	5c8a      	ldrb	r2, [r1, r2]
10000cf8:	2a00      	cmp	r2, #0
10000cfa:	d114      	bne.n	10000d26 <ph_merge_nodes+0x5e>
10000cfc:	7004      	strb	r4, [r0, #0]
10000cfe:	0030      	movs	r0, r6
10000d00:	e00e      	b.n	10000d20 <ph_merge_nodes+0x58>
10000d02:	0073      	lsls	r3, r6, #1
10000d04:	199b      	adds	r3, r3, r6
10000d06:	0062      	lsls	r2, r4, #1
10000d08:	3b03      	subs	r3, #3
10000d0a:	1912      	adds	r2, r2, r4
10000d0c:	18cb      	adds	r3, r1, r3
10000d0e:	3a03      	subs	r2, #3
10000d10:	709c      	strb	r4, [r3, #2]
10000d12:	1888      	adds	r0, r1, r2
10000d14:	5c8a      	ldrb	r2, [r1, r2]
10000d16:	2a00      	cmp	r2, #0
10000d18:	d000      	beq.n	10000d1c <ph_merge_nodes+0x54>
10000d1a:	705a      	strb	r2, [r3, #1]
10000d1c:	7006      	strb	r6, [r0, #0]
10000d1e:	0020      	movs	r0, r4
10000d20:	bd70      	pop	{r4, r5, r6, pc}
10000d22:	0008      	movs	r0, r1
10000d24:	e7fc      	b.n	10000d20 <ph_merge_nodes+0x58>
10000d26:	705a      	strb	r2, [r3, #1]
10000d28:	7004      	strb	r4, [r0, #0]
10000d2a:	0030      	movs	r0, r6
10000d2c:	e7f8      	b.n	10000d20 <ph_merge_nodes+0x58>
10000d2e:	46c0      	nop			; (mov r8, r8)

10000d30 <ph_create>:
10000d30:	b5f0      	push	{r4, r5, r6, r7, lr}
10000d32:	46c6      	mov	lr, r8
10000d34:	0005      	movs	r5, r0
10000d36:	000f      	movs	r7, r1
10000d38:	b500      	push	{lr}
10000d3a:	2110      	movs	r1, #16
10000d3c:	2001      	movs	r0, #1
10000d3e:	0016      	movs	r6, r2
10000d40:	f000 ff20 	bl	10001b84 <__wrap_calloc>
10000d44:	b2eb      	uxtb	r3, r5
10000d46:	0004      	movs	r4, r0
10000d48:	7303      	strb	r3, [r0, #12]
10000d4a:	2103      	movs	r1, #3
10000d4c:	6047      	str	r7, [r0, #4]
10000d4e:	0028      	movs	r0, r5
10000d50:	4698      	mov	r8, r3
10000d52:	f000 ff17 	bl	10001b84 <__wrap_calloc>
10000d56:	2300      	movs	r3, #0
10000d58:	7363      	strb	r3, [r4, #13]
10000d5a:	3301      	adds	r3, #1
10000d5c:	73a3      	strb	r3, [r4, #14]
10000d5e:	4643      	mov	r3, r8
10000d60:	21ff      	movs	r1, #255	; 0xff
10000d62:	73e3      	strb	r3, [r4, #15]
10000d64:	23fe      	movs	r3, #254	; 0xfe
10000d66:	6020      	str	r0, [r4, #0]
10000d68:	60a6      	str	r6, [r4, #8]
10000d6a:	4029      	ands	r1, r5
10000d6c:	422b      	tst	r3, r5
10000d6e:	d006      	beq.n	10000d7e <ph_create+0x4e>
10000d70:	1c42      	adds	r2, r0, #1
10000d72:	3bfd      	subs	r3, #253	; 0xfd
10000d74:	3301      	adds	r3, #1
10000d76:	7013      	strb	r3, [r2, #0]
10000d78:	3203      	adds	r2, #3
10000d7a:	428b      	cmp	r3, r1
10000d7c:	d3fa      	bcc.n	10000d74 <ph_create+0x44>
10000d7e:	004b      	lsls	r3, r1, #1
10000d80:	1859      	adds	r1, r3, r1
10000d82:	2300      	movs	r3, #0
10000d84:	1840      	adds	r0, r0, r1
10000d86:	3803      	subs	r0, #3
10000d88:	7043      	strb	r3, [r0, #1]
10000d8a:	0020      	movs	r0, r4
10000d8c:	bc04      	pop	{r2}
10000d8e:	4690      	mov	r8, r2
10000d90:	bdf0      	pop	{r4, r5, r6, r7, pc}
10000d92:	46c0      	nop			; (mov r8, r8)

10000d94 <ph_merge_two_pass>:
10000d94:	b5f8      	push	{r3, r4, r5, r6, r7, lr}
10000d96:	46ce      	mov	lr, r9
10000d98:	4647      	mov	r7, r8
10000d9a:	0006      	movs	r6, r0
10000d9c:	000c      	movs	r4, r1
10000d9e:	b580      	push	{r7, lr}
10000da0:	2900      	cmp	r1, #0
10000da2:	d007      	beq.n	10000db4 <ph_merge_two_pass+0x20>
10000da4:	004d      	lsls	r5, r1, #1
10000da6:	6803      	ldr	r3, [r0, #0]
10000da8:	186d      	adds	r5, r5, r1
10000daa:	3d03      	subs	r5, #3
10000dac:	195a      	adds	r2, r3, r5
10000dae:	7857      	ldrb	r7, [r2, #1]
10000db0:	2f00      	cmp	r7, #0
10000db2:	d104      	bne.n	10000dbe <ph_merge_two_pass+0x2a>
10000db4:	0020      	movs	r0, r4
10000db6:	bc0c      	pop	{r2, r3}
10000db8:	4690      	mov	r8, r2
10000dba:	4699      	mov	r9, r3
10000dbc:	bdf8      	pop	{r3, r4, r5, r6, r7, pc}
10000dbe:	0079      	lsls	r1, r7, #1
10000dc0:	19c9      	adds	r1, r1, r7
10000dc2:	3903      	subs	r1, #3
10000dc4:	4688      	mov	r8, r1
10000dc6:	4443      	add	r3, r8
10000dc8:	7859      	ldrb	r1, [r3, #1]
10000dca:	4689      	mov	r9, r1
10000dcc:	2100      	movs	r1, #0
10000dce:	7059      	strb	r1, [r3, #1]
10000dd0:	7051      	strb	r1, [r2, #1]
10000dd2:	6873      	ldr	r3, [r6, #4]
10000dd4:	003a      	movs	r2, r7
10000dd6:	0021      	movs	r1, r4
10000dd8:	6880      	ldr	r0, [r0, #8]
10000dda:	4798      	blx	r3
10000ddc:	6833      	ldr	r3, [r6, #0]
10000dde:	2800      	cmp	r0, #0
10000de0:	d014      	beq.n	10000e0c <ph_merge_two_pass+0x78>
10000de2:	4642      	mov	r2, r8
10000de4:	189a      	adds	r2, r3, r2
10000de6:	7094      	strb	r4, [r2, #2]
10000de8:	1959      	adds	r1, r3, r5
10000dea:	5d5b      	ldrb	r3, [r3, r5]
10000dec:	2b00      	cmp	r3, #0
10000dee:	d000      	beq.n	10000df2 <ph_merge_two_pass+0x5e>
10000df0:	7053      	strb	r3, [r2, #1]
10000df2:	700f      	strb	r7, [r1, #0]
10000df4:	0027      	movs	r7, r4
10000df6:	4649      	mov	r1, r9
10000df8:	0030      	movs	r0, r6
10000dfa:	f7ff ffcb 	bl	10000d94 <ph_merge_two_pass>
10000dfe:	0039      	movs	r1, r7
10000e00:	0002      	movs	r2, r0
10000e02:	0030      	movs	r0, r6
10000e04:	f7ff ff60 	bl	10000cc8 <ph_merge_nodes>
10000e08:	0004      	movs	r4, r0
10000e0a:	e7d3      	b.n	10000db4 <ph_merge_two_pass+0x20>
10000e0c:	4642      	mov	r2, r8
10000e0e:	4641      	mov	r1, r8
10000e10:	195d      	adds	r5, r3, r5
10000e12:	70af      	strb	r7, [r5, #2]
10000e14:	189a      	adds	r2, r3, r2
10000e16:	5c5b      	ldrb	r3, [r3, r1]
10000e18:	2b00      	cmp	r3, #0
10000e1a:	d000      	beq.n	10000e1e <ph_merge_two_pass+0x8a>
10000e1c:	706b      	strb	r3, [r5, #1]
10000e1e:	7014      	strb	r4, [r2, #0]
10000e20:	e7e9      	b.n	10000df6 <ph_merge_two_pass+0x62>
10000e22:	46c0      	nop			; (mov r8, r8)

10000e24 <ph_remove_any_head>:
10000e24:	b5f0      	push	{r4, r5, r6, r7, lr}
10000e26:	4657      	mov	r7, sl
10000e28:	4645      	mov	r5, r8
10000e2a:	46de      	mov	lr, fp
10000e2c:	464e      	mov	r6, r9
10000e2e:	b5e0      	push	{r5, r6, r7, lr}
10000e30:	000d      	movs	r5, r1
10000e32:	006b      	lsls	r3, r5, #1
10000e34:	6801      	ldr	r1, [r0, #0]
10000e36:	195b      	adds	r3, r3, r5
10000e38:	1edf      	subs	r7, r3, #3
10000e3a:	0004      	movs	r4, r0
10000e3c:	5dc8      	ldrb	r0, [r1, r7]
10000e3e:	b083      	sub	sp, #12
10000e40:	9201      	str	r2, [sp, #4]
10000e42:	19ca      	adds	r2, r1, r7
10000e44:	2800      	cmp	r0, #0
10000e46:	d04c      	beq.n	10000ee2 <ph_remove_any_head+0xbe>
10000e48:	0043      	lsls	r3, r0, #1
10000e4a:	181b      	adds	r3, r3, r0
10000e4c:	3b03      	subs	r3, #3
10000e4e:	18cb      	adds	r3, r1, r3
10000e50:	785e      	ldrb	r6, [r3, #1]
10000e52:	46b4      	mov	ip, r6
10000e54:	2e00      	cmp	r6, #0
10000e56:	d116      	bne.n	10000e86 <ph_remove_any_head+0x62>
10000e58:	9e01      	ldr	r6, [sp, #4]
10000e5a:	2e00      	cmp	r6, #0
10000e5c:	d13e      	bne.n	10000edc <ph_remove_any_head+0xb8>
10000e5e:	7be6      	ldrb	r6, [r4, #15]
10000e60:	2e00      	cmp	r6, #0
10000e62:	d004      	beq.n	10000e6e <ph_remove_any_head+0x4a>
10000e64:	0073      	lsls	r3, r6, #1
10000e66:	199b      	adds	r3, r3, r6
10000e68:	18cb      	adds	r3, r1, r3
10000e6a:	3b03      	subs	r3, #3
10000e6c:	705d      	strb	r5, [r3, #1]
10000e6e:	73e5      	strb	r5, [r4, #15]
10000e70:	2800      	cmp	r0, #0
10000e72:	d12f      	bne.n	10000ed4 <ph_remove_any_head+0xb0>
10000e74:	2300      	movs	r3, #0
10000e76:	7053      	strb	r3, [r2, #1]
10000e78:	b003      	add	sp, #12
10000e7a:	bc3c      	pop	{r2, r3, r4, r5}
10000e7c:	4690      	mov	r8, r2
10000e7e:	4699      	mov	r9, r3
10000e80:	46a2      	mov	sl, r4
10000e82:	46ab      	mov	fp, r5
10000e84:	bdf0      	pop	{r4, r5, r6, r7, pc}
10000e86:	0072      	lsls	r2, r6, #1
10000e88:	4462      	add	r2, ip
10000e8a:	3a03      	subs	r2, #3
10000e8c:	1889      	adds	r1, r1, r2
10000e8e:	784a      	ldrb	r2, [r1, #1]
10000e90:	4690      	mov	r8, r2
10000e92:	2200      	movs	r2, #0
10000e94:	704a      	strb	r2, [r1, #1]
10000e96:	4691      	mov	r9, r2
10000e98:	705a      	strb	r2, [r3, #1]
10000e9a:	0001      	movs	r1, r0
10000e9c:	0032      	movs	r2, r6
10000e9e:	0020      	movs	r0, r4
10000ea0:	f7ff ff12 	bl	10000cc8 <ph_merge_nodes>
10000ea4:	4643      	mov	r3, r8
10000ea6:	4682      	mov	sl, r0
10000ea8:	2b00      	cmp	r3, #0
10000eaa:	d007      	beq.n	10000ebc <ph_remove_any_head+0x98>
10000eac:	005b      	lsls	r3, r3, #1
10000eae:	6821      	ldr	r1, [r4, #0]
10000eb0:	4443      	add	r3, r8
10000eb2:	3b03      	subs	r3, #3
10000eb4:	18cb      	adds	r3, r1, r3
10000eb6:	785a      	ldrb	r2, [r3, #1]
10000eb8:	2a00      	cmp	r2, #0
10000eba:	d116      	bne.n	10000eea <ph_remove_any_head+0xc6>
10000ebc:	4642      	mov	r2, r8
10000ebe:	4651      	mov	r1, sl
10000ec0:	0020      	movs	r0, r4
10000ec2:	f7ff ff01 	bl	10000cc8 <ph_merge_nodes>
10000ec6:	6821      	ldr	r1, [r4, #0]
10000ec8:	9b01      	ldr	r3, [sp, #4]
10000eca:	19ca      	adds	r2, r1, r7
10000ecc:	2b00      	cmp	r3, #0
10000ece:	d0c6      	beq.n	10000e5e <ph_remove_any_head+0x3a>
10000ed0:	2800      	cmp	r0, #0
10000ed2:	d0cf      	beq.n	10000e74 <ph_remove_any_head+0x50>
10000ed4:	0043      	lsls	r3, r0, #1
10000ed6:	181b      	adds	r3, r3, r0
10000ed8:	3b03      	subs	r3, #3
10000eda:	18cb      	adds	r3, r1, r3
10000edc:	2100      	movs	r1, #0
10000ede:	7099      	strb	r1, [r3, #2]
10000ee0:	e7c8      	b.n	10000e74 <ph_remove_any_head+0x50>
10000ee2:	9b01      	ldr	r3, [sp, #4]
10000ee4:	2b00      	cmp	r3, #0
10000ee6:	d1c5      	bne.n	10000e74 <ph_remove_any_head+0x50>
10000ee8:	e7b9      	b.n	10000e5e <ph_remove_any_head+0x3a>
10000eea:	0050      	lsls	r0, r2, #1
10000eec:	1880      	adds	r0, r0, r2
10000eee:	3803      	subs	r0, #3
10000ef0:	1809      	adds	r1, r1, r0
10000ef2:	7848      	ldrb	r0, [r1, #1]
10000ef4:	4683      	mov	fp, r0
10000ef6:	4648      	mov	r0, r9
10000ef8:	7048      	strb	r0, [r1, #1]
10000efa:	7058      	strb	r0, [r3, #1]
10000efc:	4641      	mov	r1, r8
10000efe:	0020      	movs	r0, r4
10000f00:	f7ff fee2 	bl	10000cc8 <ph_merge_nodes>
10000f04:	4659      	mov	r1, fp
10000f06:	4680      	mov	r8, r0
10000f08:	0020      	movs	r0, r4
10000f0a:	f7ff ff43 	bl	10000d94 <ph_merge_two_pass>
10000f0e:	4641      	mov	r1, r8
10000f10:	0002      	movs	r2, r0
10000f12:	0020      	movs	r0, r4
10000f14:	f7ff fed8 	bl	10000cc8 <ph_merge_nodes>
10000f18:	4680      	mov	r8, r0
10000f1a:	e7cf      	b.n	10000ebc <ph_remove_any_head+0x98>

10000f1c <ph_remove_head_reserve>:
10000f1c:	b5f0      	push	{r4, r5, r6, r7, lr}
10000f1e:	464e      	mov	r6, r9
10000f20:	4645      	mov	r5, r8
10000f22:	46de      	mov	lr, fp
10000f24:	4657      	mov	r7, sl
10000f26:	b5e0      	push	{r5, r6, r7, lr}
10000f28:	7b46      	ldrb	r6, [r0, #13]
10000f2a:	0004      	movs	r4, r0
10000f2c:	0075      	lsls	r5, r6, #1
10000f2e:	6800      	ldr	r0, [r0, #0]
10000f30:	19ad      	adds	r5, r5, r6
10000f32:	3d03      	subs	r5, #3
10000f34:	b083      	sub	sp, #12
10000f36:	9101      	str	r1, [sp, #4]
10000f38:	5d41      	ldrb	r1, [r0, r5]
10000f3a:	1942      	adds	r2, r0, r5
10000f3c:	2900      	cmp	r1, #0
10000f3e:	d04e      	beq.n	10000fde <ph_remove_head_reserve+0xc2>
10000f40:	004b      	lsls	r3, r1, #1
10000f42:	185b      	adds	r3, r3, r1
10000f44:	3b03      	subs	r3, #3
10000f46:	18c3      	adds	r3, r0, r3
10000f48:	785f      	ldrb	r7, [r3, #1]
10000f4a:	46bc      	mov	ip, r7
10000f4c:	2f00      	cmp	r7, #0
10000f4e:	d118      	bne.n	10000f82 <ph_remove_head_reserve+0x66>
10000f50:	9d01      	ldr	r5, [sp, #4]
10000f52:	2d00      	cmp	r5, #0
10000f54:	d140      	bne.n	10000fd8 <ph_remove_head_reserve+0xbc>
10000f56:	7be5      	ldrb	r5, [r4, #15]
10000f58:	2d00      	cmp	r5, #0
10000f5a:	d004      	beq.n	10000f66 <ph_remove_head_reserve+0x4a>
10000f5c:	006b      	lsls	r3, r5, #1
10000f5e:	195b      	adds	r3, r3, r5
10000f60:	18c3      	adds	r3, r0, r3
10000f62:	3b03      	subs	r3, #3
10000f64:	705e      	strb	r6, [r3, #1]
10000f66:	73e6      	strb	r6, [r4, #15]
10000f68:	2900      	cmp	r1, #0
10000f6a:	d131      	bne.n	10000fd0 <ph_remove_head_reserve+0xb4>
10000f6c:	2300      	movs	r3, #0
10000f6e:	0030      	movs	r0, r6
10000f70:	7053      	strb	r3, [r2, #1]
10000f72:	7361      	strb	r1, [r4, #13]
10000f74:	b003      	add	sp, #12
10000f76:	bc3c      	pop	{r2, r3, r4, r5}
10000f78:	4690      	mov	r8, r2
10000f7a:	4699      	mov	r9, r3
10000f7c:	46a2      	mov	sl, r4
10000f7e:	46ab      	mov	fp, r5
10000f80:	bdf0      	pop	{r4, r5, r6, r7, pc}
10000f82:	007a      	lsls	r2, r7, #1
10000f84:	4462      	add	r2, ip
10000f86:	3a03      	subs	r2, #3
10000f88:	1880      	adds	r0, r0, r2
10000f8a:	7842      	ldrb	r2, [r0, #1]
10000f8c:	4693      	mov	fp, r2
10000f8e:	2200      	movs	r2, #0
10000f90:	7042      	strb	r2, [r0, #1]
10000f92:	4691      	mov	r9, r2
10000f94:	705a      	strb	r2, [r3, #1]
10000f96:	0020      	movs	r0, r4
10000f98:	003a      	movs	r2, r7
10000f9a:	f7ff fe95 	bl	10000cc8 <ph_merge_nodes>
10000f9e:	465b      	mov	r3, fp
10000fa0:	4680      	mov	r8, r0
10000fa2:	2b00      	cmp	r3, #0
10000fa4:	d007      	beq.n	10000fb6 <ph_remove_head_reserve+0x9a>
10000fa6:	005b      	lsls	r3, r3, #1
10000fa8:	6821      	ldr	r1, [r4, #0]
10000faa:	445b      	add	r3, fp
10000fac:	3b03      	subs	r3, #3
10000fae:	18cb      	adds	r3, r1, r3
10000fb0:	785a      	ldrb	r2, [r3, #1]
10000fb2:	2a00      	cmp	r2, #0
10000fb4:	d117      	bne.n	10000fe6 <ph_remove_head_reserve+0xca>
10000fb6:	465a      	mov	r2, fp
10000fb8:	4641      	mov	r1, r8
10000fba:	0020      	movs	r0, r4
10000fbc:	f7ff fe84 	bl	10000cc8 <ph_merge_nodes>
10000fc0:	9b01      	ldr	r3, [sp, #4]
10000fc2:	0001      	movs	r1, r0
10000fc4:	6820      	ldr	r0, [r4, #0]
10000fc6:	1942      	adds	r2, r0, r5
10000fc8:	2b00      	cmp	r3, #0
10000fca:	d0c4      	beq.n	10000f56 <ph_remove_head_reserve+0x3a>
10000fcc:	2900      	cmp	r1, #0
10000fce:	d0cd      	beq.n	10000f6c <ph_remove_head_reserve+0x50>
10000fd0:	004b      	lsls	r3, r1, #1
10000fd2:	185b      	adds	r3, r3, r1
10000fd4:	3b03      	subs	r3, #3
10000fd6:	18c3      	adds	r3, r0, r3
10000fd8:	2000      	movs	r0, #0
10000fda:	7098      	strb	r0, [r3, #2]
10000fdc:	e7c6      	b.n	10000f6c <ph_remove_head_reserve+0x50>
10000fde:	9b01      	ldr	r3, [sp, #4]
10000fe0:	2b00      	cmp	r3, #0
10000fe2:	d1c3      	bne.n	10000f6c <ph_remove_head_reserve+0x50>
10000fe4:	e7b7      	b.n	10000f56 <ph_remove_head_reserve+0x3a>
10000fe6:	0050      	lsls	r0, r2, #1
10000fe8:	1880      	adds	r0, r0, r2
10000fea:	3803      	subs	r0, #3
10000fec:	1809      	adds	r1, r1, r0
10000fee:	7848      	ldrb	r0, [r1, #1]
10000ff0:	4682      	mov	sl, r0
10000ff2:	4648      	mov	r0, r9
10000ff4:	7048      	strb	r0, [r1, #1]
10000ff6:	7058      	strb	r0, [r3, #1]
10000ff8:	4659      	mov	r1, fp
10000ffa:	0020      	movs	r0, r4
10000ffc:	f7ff fe64 	bl	10000cc8 <ph_merge_nodes>
10001000:	4653      	mov	r3, sl
10001002:	4683      	mov	fp, r0
10001004:	2b00      	cmp	r3, #0
10001006:	d007      	beq.n	10001018 <ph_remove_head_reserve+0xfc>
10001008:	005b      	lsls	r3, r3, #1
1000100a:	6821      	ldr	r1, [r4, #0]
1000100c:	4453      	add	r3, sl
1000100e:	3b03      	subs	r3, #3
10001010:	18cb      	adds	r3, r1, r3
10001012:	785a      	ldrb	r2, [r3, #1]
10001014:	2a00      	cmp	r2, #0
10001016:	d106      	bne.n	10001026 <ph_remove_head_reserve+0x10a>
10001018:	4659      	mov	r1, fp
1000101a:	4652      	mov	r2, sl
1000101c:	0020      	movs	r0, r4
1000101e:	f7ff fe53 	bl	10000cc8 <ph_merge_nodes>
10001022:	4683      	mov	fp, r0
10001024:	e7c7      	b.n	10000fb6 <ph_remove_head_reserve+0x9a>
10001026:	0050      	lsls	r0, r2, #1
10001028:	1880      	adds	r0, r0, r2
1000102a:	3803      	subs	r0, #3
1000102c:	1809      	adds	r1, r1, r0
1000102e:	4648      	mov	r0, r9
10001030:	784f      	ldrb	r7, [r1, #1]
10001032:	7048      	strb	r0, [r1, #1]
10001034:	7058      	strb	r0, [r3, #1]
10001036:	4651      	mov	r1, sl
10001038:	0020      	movs	r0, r4
1000103a:	f7ff fe45 	bl	10000cc8 <ph_merge_nodes>
1000103e:	0039      	movs	r1, r7
10001040:	4681      	mov	r9, r0
10001042:	0020      	movs	r0, r4
10001044:	f7ff fea6 	bl	10000d94 <ph_merge_two_pass>
10001048:	4649      	mov	r1, r9
1000104a:	0002      	movs	r2, r0
1000104c:	0020      	movs	r0, r4
1000104e:	f7ff fe3b 	bl	10000cc8 <ph_merge_nodes>
10001052:	4682      	mov	sl, r0
10001054:	e7e0      	b.n	10001018 <ph_remove_head_reserve+0xfc>
10001056:	46c0      	nop			; (mov r8, r8)

10001058 <ph_delete>:
10001058:	b570      	push	{r4, r5, r6, lr}
1000105a:	0004      	movs	r4, r0
1000105c:	2900      	cmp	r1, #0
1000105e:	d02c      	beq.n	100010ba <ph_delete+0x62>
10001060:	7b43      	ldrb	r3, [r0, #13]
10001062:	428b      	cmp	r3, r1
10001064:	d02e      	beq.n	100010c4 <ph_delete+0x6c>
10001066:	6805      	ldr	r5, [r0, #0]
10001068:	0048      	lsls	r0, r1, #1
1000106a:	1840      	adds	r0, r0, r1
1000106c:	3803      	subs	r0, #3
1000106e:	1828      	adds	r0, r5, r0
10001070:	7882      	ldrb	r2, [r0, #2]
10001072:	2a00      	cmp	r2, #0
10001074:	d021      	beq.n	100010ba <ph_delete+0x62>
10001076:	0053      	lsls	r3, r2, #1
10001078:	189b      	adds	r3, r3, r2
1000107a:	3b03      	subs	r3, #3
1000107c:	5cea      	ldrb	r2, [r5, r3]
1000107e:	18ee      	adds	r6, r5, r3
10001080:	428a      	cmp	r2, r1
10001082:	d102      	bne.n	1000108a <ph_delete+0x32>
10001084:	e01b      	b.n	100010be <ph_delete+0x66>
10001086:	2a00      	cmp	r2, #0
10001088:	d008      	beq.n	1000109c <ph_delete+0x44>
1000108a:	0053      	lsls	r3, r2, #1
1000108c:	189b      	adds	r3, r3, r2
1000108e:	3b03      	subs	r3, #3
10001090:	18eb      	adds	r3, r5, r3
10001092:	785a      	ldrb	r2, [r3, #1]
10001094:	428a      	cmp	r2, r1
10001096:	d1f6      	bne.n	10001086 <ph_delete+0x2e>
10001098:	7842      	ldrb	r2, [r0, #1]
1000109a:	705a      	strb	r2, [r3, #1]
1000109c:	2300      	movs	r3, #0
1000109e:	2200      	movs	r2, #0
100010a0:	7083      	strb	r3, [r0, #2]
100010a2:	7043      	strb	r3, [r0, #1]
100010a4:	0020      	movs	r0, r4
100010a6:	f7ff febd 	bl	10000e24 <ph_remove_any_head>
100010aa:	7b61      	ldrb	r1, [r4, #13]
100010ac:	0002      	movs	r2, r0
100010ae:	0020      	movs	r0, r4
100010b0:	f7ff fe0a 	bl	10000cc8 <ph_merge_nodes>
100010b4:	7360      	strb	r0, [r4, #13]
100010b6:	2001      	movs	r0, #1
100010b8:	e000      	b.n	100010bc <ph_delete+0x64>
100010ba:	2000      	movs	r0, #0
100010bc:	bd70      	pop	{r4, r5, r6, pc}
100010be:	7843      	ldrb	r3, [r0, #1]
100010c0:	7033      	strb	r3, [r6, #0]
100010c2:	e7eb      	b.n	1000109c <ph_delete+0x44>
100010c4:	2200      	movs	r2, #0
100010c6:	0019      	movs	r1, r3
100010c8:	f7ff feac 	bl	10000e24 <ph_remove_any_head>
100010cc:	7360      	strb	r0, [r4, #13]
100010ce:	2001      	movs	r0, #1
100010d0:	e7f4      	b.n	100010bc <ph_delete+0x64>
100010d2:	46c0      	nop			; (mov r8, r8)

100010d4 <runtime_init>:
100010d4:	4b2b      	ldr	r3, [pc, #172]	; (10001184 <runtime_init+0xb0>)
100010d6:	4a2c      	ldr	r2, [pc, #176]	; (10001188 <runtime_init+0xb4>)
100010d8:	b570      	push	{r4, r5, r6, lr}
100010da:	601a      	str	r2, [r3, #0]
100010dc:	4a2b      	ldr	r2, [pc, #172]	; (1000118c <runtime_init+0xb8>)
100010de:	4b2c      	ldr	r3, [pc, #176]	; (10001190 <runtime_init+0xbc>)
100010e0:	492c      	ldr	r1, [pc, #176]	; (10001194 <runtime_init+0xc0>)
100010e2:	601a      	str	r2, [r3, #0]
100010e4:	0010      	movs	r0, r2
100010e6:	688b      	ldr	r3, [r1, #8]
100010e8:	4398      	bics	r0, r3
100010ea:	d1fb      	bne.n	100010e4 <runtime_init+0x10>
100010ec:	4c2a      	ldr	r4, [pc, #168]	; (10001198 <runtime_init+0xc4>)
100010ee:	4b2b      	ldr	r3, [pc, #172]	; (1000119c <runtime_init+0xc8>)
100010f0:	429c      	cmp	r4, r3
100010f2:	d209      	bcs.n	10001108 <runtime_init+0x34>
100010f4:	3b01      	subs	r3, #1
100010f6:	1b1d      	subs	r5, r3, r4
100010f8:	08ad      	lsrs	r5, r5, #2
100010fa:	3501      	adds	r5, #1
100010fc:	00ad      	lsls	r5, r5, #2
100010fe:	192d      	adds	r5, r5, r4
10001100:	cc08      	ldmia	r4!, {r3}
10001102:	4798      	blx	r3
10001104:	42ac      	cmp	r4, r5
10001106:	d1fb      	bne.n	10001100 <runtime_init+0x2c>
10001108:	f000 f894 	bl	10001234 <clocks_init>
1000110c:	4a24      	ldr	r2, [pc, #144]	; (100011a0 <runtime_init+0xcc>)
1000110e:	4b20      	ldr	r3, [pc, #128]	; (10001190 <runtime_init+0xbc>)
10001110:	601a      	str	r2, [r3, #0]
10001112:	4a20      	ldr	r2, [pc, #128]	; (10001194 <runtime_init+0xc0>)
10001114:	6893      	ldr	r3, [r2, #8]
10001116:	01db      	lsls	r3, r3, #7
10001118:	3380      	adds	r3, #128	; 0x80
1000111a:	d1fb      	bne.n	10001114 <runtime_init+0x40>
1000111c:	2240      	movs	r2, #64	; 0x40
1000111e:	4b21      	ldr	r3, [pc, #132]	; (100011a4 <runtime_init+0xd0>)
10001120:	4c21      	ldr	r4, [pc, #132]	; (100011a8 <runtime_init+0xd4>)
10001122:	679a      	str	r2, [r3, #120]	; 0x78
10001124:	675a      	str	r2, [r3, #116]	; 0x74
10001126:	671a      	str	r2, [r3, #112]	; 0x70
10001128:	66da      	str	r2, [r3, #108]	; 0x6c
1000112a:	4b20      	ldr	r3, [pc, #128]	; (100011ac <runtime_init+0xd8>)
1000112c:	429c      	cmp	r4, r3
1000112e:	d20b      	bcs.n	10001148 <runtime_init+0x74>
10001130:	3b01      	subs	r3, #1
10001132:	1b1d      	subs	r5, r3, r4
10001134:	08ed      	lsrs	r5, r5, #3
10001136:	3501      	adds	r5, #1
10001138:	00ed      	lsls	r5, r5, #3
1000113a:	192d      	adds	r5, r5, r4
1000113c:	0020      	movs	r0, r4
1000113e:	3408      	adds	r4, #8
10001140:	f7ff fdb6 	bl	10000cb0 <mutex_init>
10001144:	42ac      	cmp	r4, r5
10001146:	d1f9      	bne.n	1000113c <runtime_init+0x68>
10001148:	4c19      	ldr	r4, [pc, #100]	; (100011b0 <runtime_init+0xdc>)
1000114a:	4d1a      	ldr	r5, [pc, #104]	; (100011b4 <runtime_init+0xe0>)
1000114c:	68a1      	ldr	r1, [r4, #8]
1000114e:	22c0      	movs	r2, #192	; 0xc0
10001150:	0028      	movs	r0, r5
10001152:	f000 fd29 	bl	10001ba8 <__wrap___aeabi_memcpy>
10001156:	60a5      	str	r5, [r4, #8]
10001158:	f7ff f944 	bl	100003e4 <spin_locks_reset>
1000115c:	f000 fba4 	bl	100018a8 <irq_init_priorities>
10001160:	f7ff fb9a 	bl	10000898 <alarm_pool_init_default>
10001164:	4c14      	ldr	r4, [pc, #80]	; (100011b8 <runtime_init+0xe4>)
10001166:	4b15      	ldr	r3, [pc, #84]	; (100011bc <runtime_init+0xe8>)
10001168:	429c      	cmp	r4, r3
1000116a:	d209      	bcs.n	10001180 <runtime_init+0xac>
1000116c:	3b01      	subs	r3, #1
1000116e:	1b1d      	subs	r5, r3, r4
10001170:	08ad      	lsrs	r5, r5, #2
10001172:	3501      	adds	r5, #1
10001174:	00ad      	lsls	r5, r5, #2
10001176:	192d      	adds	r5, r5, r4
10001178:	cc08      	ldmia	r4!, {r3}
1000117a:	4798      	blx	r3
1000117c:	42a5      	cmp	r5, r4
1000117e:	d1fb      	bne.n	10001178 <runtime_init+0xa4>
10001180:	bd70      	pop	{r4, r5, r6, pc}
10001182:	46c0      	nop			; (mov r8, r8)
10001184:	4000e000 	.word	0x4000e000
10001188:	ffffcdbf 	.word	0xffffcdbf
1000118c:	003c7ffe 	.word	0x003c7ffe
10001190:	4000f000 	.word	0x4000f000
10001194:	4000c000 	.word	0x4000c000
10001198:	20000a48 	.word	0x20000a48
1000119c:	20000a58 	.word	0x20000a58
100011a0:	01ffffff 	.word	0x01ffffff
100011a4:	4001f000 	.word	0x4001f000
100011a8:	20000a40 	.word	0x20000a40
100011ac:	20000a48 	.word	0x20000a48
100011b0:	e000ed00 	.word	0xe000ed00
100011b4:	20000000 	.word	0x20000000
100011b8:	20000a58 	.word	0x20000a58
100011bc:	20000a60 	.word	0x20000a60

100011c0 <_sbrk>:
100011c0:	4a09      	ldr	r2, [pc, #36]	; (100011e8 <_sbrk+0x28>)
100011c2:	0003      	movs	r3, r0
100011c4:	6810      	ldr	r0, [r2, #0]
100011c6:	2800      	cmp	r0, #0
100011c8:	d005      	beq.n	100011d6 <_sbrk+0x16>
100011ca:	4908      	ldr	r1, [pc, #32]	; (100011ec <_sbrk+0x2c>)
100011cc:	18c3      	adds	r3, r0, r3
100011ce:	428b      	cmp	r3, r1
100011d0:	d207      	bcs.n	100011e2 <_sbrk+0x22>
100011d2:	6013      	str	r3, [r2, #0]
100011d4:	4770      	bx	lr
100011d6:	4806      	ldr	r0, [pc, #24]	; (100011f0 <_sbrk+0x30>)
100011d8:	4904      	ldr	r1, [pc, #16]	; (100011ec <_sbrk+0x2c>)
100011da:	18c3      	adds	r3, r0, r3
100011dc:	6010      	str	r0, [r2, #0]
100011de:	428b      	cmp	r3, r1
100011e0:	d3f7      	bcc.n	100011d2 <_sbrk+0x12>
100011e2:	2001      	movs	r0, #1
100011e4:	4240      	negs	r0, r0
100011e6:	e7f5      	b.n	100011d4 <_sbrk+0x14>
100011e8:	20000b00 	.word	0x20000b00
100011ec:	20040000 	.word	0x20040000
100011f0:	20000d58 	.word	0x20000d58

100011f4 <exit>:
100011f4:	be00      	bkpt	0x0000
100011f6:	e7fd      	b.n	100011f4 <exit>

100011f8 <panic>:
100011f8:	b40f      	push	{r0, r1, r2, r3}
100011fa:	b500      	push	{lr}
100011fc:	4808      	ldr	r0, [pc, #32]	; (10001220 <panic+0x28>)
100011fe:	b083      	sub	sp, #12
10001200:	f000 fda8 	bl	10001d54 <__wrap_puts>
10001204:	9b04      	ldr	r3, [sp, #16]
10001206:	2b00      	cmp	r3, #0
10001208:	d007      	beq.n	1000121a <panic+0x22>
1000120a:	a905      	add	r1, sp, #20
1000120c:	0018      	movs	r0, r3
1000120e:	9101      	str	r1, [sp, #4]
10001210:	f000 fb6e 	bl	100018f0 <weak_raw_vprintf>
10001214:	4803      	ldr	r0, [pc, #12]	; (10001224 <panic+0x2c>)
10001216:	f000 fd9d 	bl	10001d54 <__wrap_puts>
1000121a:	be00      	bkpt	0x0000
1000121c:	e7fd      	b.n	1000121a <panic+0x22>
1000121e:	46c0      	nop			; (mov r8, r8)
10001220:	1000276c 	.word	0x1000276c
10001224:	1000277c 	.word	0x1000277c

10001228 <hard_assertion_failure>:
10001228:	b510      	push	{r4, lr}
1000122a:	4801      	ldr	r0, [pc, #4]	; (10001230 <hard_assertion_failure+0x8>)
1000122c:	f7ff ffe4 	bl	100011f8 <panic>
10001230:	10002780 	.word	0x10002780

10001234 <clocks_init>:
10001234:	b530      	push	{r4, r5, lr}
10001236:	200c      	movs	r0, #12
10001238:	b083      	sub	sp, #12
1000123a:	f000 f96b 	bl	10001514 <watchdog_start_tick>
1000123e:	f7ff f8eb 	bl	10000418 <running_on_fpga>
10001242:	2800      	cmp	r0, #0
10001244:	d00e      	beq.n	10001264 <clocks_init+0x30>
10001246:	4b9a      	ldr	r3, [pc, #616]	; (100014b0 <clocks_init+0x27c>)
10001248:	4a9a      	ldr	r2, [pc, #616]	; (100014b4 <clocks_init+0x280>)
1000124a:	601a      	str	r2, [r3, #0]
1000124c:	605a      	str	r2, [r3, #4]
1000124e:	609a      	str	r2, [r3, #8]
10001250:	60da      	str	r2, [r3, #12]
10001252:	611a      	str	r2, [r3, #16]
10001254:	615a      	str	r2, [r3, #20]
10001256:	619a      	str	r2, [r3, #24]
10001258:	61da      	str	r2, [r3, #28]
1000125a:	621a      	str	r2, [r3, #32]
1000125c:	4a96      	ldr	r2, [pc, #600]	; (100014b8 <clocks_init+0x284>)
1000125e:	625a      	str	r2, [r3, #36]	; 0x24
10001260:	b003      	add	sp, #12
10001262:	bd30      	pop	{r4, r5, pc}
10001264:	4c95      	ldr	r4, [pc, #596]	; (100014bc <clocks_init+0x288>)
10001266:	67a0      	str	r0, [r4, #120]	; 0x78
10001268:	f000 f95c 	bl	10001524 <xosc_init>
1000126c:	2201      	movs	r2, #1
1000126e:	4b94      	ldr	r3, [pc, #592]	; (100014c0 <clocks_init+0x28c>)
10001270:	601a      	str	r2, [r3, #0]
10001272:	6c63      	ldr	r3, [r4, #68]	; 0x44
10001274:	2b01      	cmp	r3, #1
10001276:	d1fc      	bne.n	10001272 <clocks_init+0x3e>
10001278:	2203      	movs	r2, #3
1000127a:	4b92      	ldr	r3, [pc, #584]	; (100014c4 <clocks_init+0x290>)
1000127c:	601a      	str	r2, [r3, #0]
1000127e:	4a8f      	ldr	r2, [pc, #572]	; (100014bc <clocks_init+0x288>)
10001280:	6b93      	ldr	r3, [r2, #56]	; 0x38
10001282:	2b01      	cmp	r3, #1
10001284:	d1fc      	bne.n	10001280 <clocks_init+0x4c>
10001286:	22c0      	movs	r2, #192	; 0xc0
10001288:	4b8f      	ldr	r3, [pc, #572]	; (100014c8 <clocks_init+0x294>)
1000128a:	0192      	lsls	r2, r2, #6
1000128c:	601a      	str	r2, [r3, #0]
1000128e:	4b8f      	ldr	r3, [pc, #572]	; (100014cc <clocks_init+0x298>)
10001290:	498f      	ldr	r1, [pc, #572]	; (100014d0 <clocks_init+0x29c>)
10001292:	601a      	str	r2, [r3, #0]
10001294:	0010      	movs	r0, r2
10001296:	688b      	ldr	r3, [r1, #8]
10001298:	4398      	bics	r0, r3
1000129a:	1e03      	subs	r3, r0, #0
1000129c:	d1fa      	bne.n	10001294 <clocks_init+0x60>
1000129e:	2402      	movs	r4, #2
100012a0:	2101      	movs	r1, #1
100012a2:	4a8c      	ldr	r2, [pc, #560]	; (100014d4 <clocks_init+0x2a0>)
100012a4:	488c      	ldr	r0, [pc, #560]	; (100014d8 <clocks_init+0x2a4>)
100012a6:	3306      	adds	r3, #6
100012a8:	9400      	str	r4, [sp, #0]
100012aa:	f000 f94f 	bl	1000154c <pll_init>
100012ae:	2305      	movs	r3, #5
100012b0:	4a8a      	ldr	r2, [pc, #552]	; (100014dc <clocks_init+0x2a8>)
100012b2:	2101      	movs	r1, #1
100012b4:	488a      	ldr	r0, [pc, #552]	; (100014e0 <clocks_init+0x2ac>)
100012b6:	9400      	str	r4, [sp, #0]
100012b8:	f000 f948 	bl	1000154c <pll_init>
100012bc:	4b89      	ldr	r3, [pc, #548]	; (100014e4 <clocks_init+0x2b0>)
100012be:	685a      	ldr	r2, [r3, #4]
100012c0:	2aff      	cmp	r2, #255	; 0xff
100012c2:	d802      	bhi.n	100012ca <clocks_init+0x96>
100012c4:	2280      	movs	r2, #128	; 0x80
100012c6:	0052      	lsls	r2, r2, #1
100012c8:	605a      	str	r2, [r3, #4]
100012ca:	2280      	movs	r2, #128	; 0x80
100012cc:	4c78      	ldr	r4, [pc, #480]	; (100014b0 <clocks_init+0x27c>)
100012ce:	4b7d      	ldr	r3, [pc, #500]	; (100014c4 <clocks_init+0x290>)
100012d0:	6921      	ldr	r1, [r4, #16]
100012d2:	0112      	lsls	r2, r2, #4
100012d4:	4d83      	ldr	r5, [pc, #524]	; (100014e4 <clocks_init+0x2b0>)
100012d6:	601a      	str	r2, [r3, #0]
100012d8:	2900      	cmp	r1, #0
100012da:	d005      	beq.n	100012e8 <clocks_init+0xb4>
100012dc:	6960      	ldr	r0, [r4, #20]
100012de:	f000 fb55 	bl	1000198c <__wrap___aeabi_uidiv>
100012e2:	3001      	adds	r0, #1
100012e4:	3801      	subs	r0, #1
100012e6:	d1fd      	bne.n	100012e4 <clocks_init+0xb0>
100012e8:	21e0      	movs	r1, #224	; 0xe0
100012ea:	4b7e      	ldr	r3, [pc, #504]	; (100014e4 <clocks_init+0x2b0>)
100012ec:	2002      	movs	r0, #2
100012ee:	681a      	ldr	r2, [r3, #0]
100012f0:	4011      	ands	r1, r2
100012f2:	2280      	movs	r2, #128	; 0x80
100012f4:	0152      	lsls	r2, r2, #5
100012f6:	432a      	orrs	r2, r5
100012f8:	6011      	str	r1, [r2, #0]
100012fa:	6819      	ldr	r1, [r3, #0]
100012fc:	4048      	eors	r0, r1
100012fe:	2103      	movs	r1, #3
10001300:	4001      	ands	r1, r0
10001302:	6011      	str	r1, [r2, #0]
10001304:	2104      	movs	r1, #4
10001306:	689a      	ldr	r2, [r3, #8]
10001308:	4211      	tst	r1, r2
1000130a:	d0fc      	beq.n	10001306 <clocks_init+0xd2>
1000130c:	2280      	movs	r2, #128	; 0x80
1000130e:	2180      	movs	r1, #128	; 0x80
10001310:	0192      	lsls	r2, r2, #6
10001312:	432a      	orrs	r2, r5
10001314:	0109      	lsls	r1, r1, #4
10001316:	6011      	str	r1, [r2, #0]
10001318:	2280      	movs	r2, #128	; 0x80
1000131a:	0052      	lsls	r2, r2, #1
1000131c:	605a      	str	r2, [r3, #4]
1000131e:	4b72      	ldr	r3, [pc, #456]	; (100014e8 <clocks_init+0x2b4>)
10001320:	6123      	str	r3, [r4, #16]
10001322:	4b72      	ldr	r3, [pc, #456]	; (100014ec <clocks_init+0x2b8>)
10001324:	6859      	ldr	r1, [r3, #4]
10001326:	29ff      	cmp	r1, #255	; 0xff
10001328:	d800      	bhi.n	1000132c <clocks_init+0xf8>
1000132a:	605a      	str	r2, [r3, #4]
1000132c:	2203      	movs	r2, #3
1000132e:	486f      	ldr	r0, [pc, #444]	; (100014ec <clocks_init+0x2b8>)
10001330:	4b63      	ldr	r3, [pc, #396]	; (100014c0 <clocks_init+0x28c>)
10001332:	2101      	movs	r1, #1
10001334:	601a      	str	r2, [r3, #0]
10001336:	0002      	movs	r2, r0
10001338:	6893      	ldr	r3, [r2, #8]
1000133a:	4219      	tst	r1, r3
1000133c:	d0fc      	beq.n	10001338 <clocks_init+0x104>
1000133e:	25e0      	movs	r5, #224	; 0xe0
10001340:	6813      	ldr	r3, [r2, #0]
10001342:	401d      	ands	r5, r3
10001344:	2380      	movs	r3, #128	; 0x80
10001346:	015b      	lsls	r3, r3, #5
10001348:	4303      	orrs	r3, r0
1000134a:	601d      	str	r5, [r3, #0]
1000134c:	6812      	ldr	r2, [r2, #0]
1000134e:	404a      	eors	r2, r1
10001350:	2103      	movs	r1, #3
10001352:	4011      	ands	r1, r2
10001354:	6019      	str	r1, [r3, #0]
10001356:	2102      	movs	r1, #2
10001358:	4a64      	ldr	r2, [pc, #400]	; (100014ec <clocks_init+0x2b8>)
1000135a:	6893      	ldr	r3, [r2, #8]
1000135c:	4219      	tst	r1, r3
1000135e:	d0fc      	beq.n	1000135a <clocks_init+0x126>
10001360:	2380      	movs	r3, #128	; 0x80
10001362:	2180      	movs	r1, #128	; 0x80
10001364:	019b      	lsls	r3, r3, #6
10001366:	4303      	orrs	r3, r0
10001368:	0109      	lsls	r1, r1, #4
1000136a:	6019      	str	r1, [r3, #0]
1000136c:	2180      	movs	r1, #128	; 0x80
1000136e:	4b60      	ldr	r3, [pc, #384]	; (100014f0 <clocks_init+0x2bc>)
10001370:	0049      	lsls	r1, r1, #1
10001372:	6051      	str	r1, [r2, #4]
10001374:	6163      	str	r3, [r4, #20]
10001376:	4b5f      	ldr	r3, [pc, #380]	; (100014f4 <clocks_init+0x2c0>)
10001378:	685a      	ldr	r2, [r3, #4]
1000137a:	2aff      	cmp	r2, #255	; 0xff
1000137c:	d800      	bhi.n	10001380 <clocks_init+0x14c>
1000137e:	6059      	str	r1, [r3, #4]
10001380:	2280      	movs	r2, #128	; 0x80
10001382:	4b5d      	ldr	r3, [pc, #372]	; (100014f8 <clocks_init+0x2c4>)
10001384:	69e1      	ldr	r1, [r4, #28]
10001386:	0112      	lsls	r2, r2, #4
10001388:	4d5a      	ldr	r5, [pc, #360]	; (100014f4 <clocks_init+0x2c0>)
1000138a:	601a      	str	r2, [r3, #0]
1000138c:	2900      	cmp	r1, #0
1000138e:	d005      	beq.n	1000139c <clocks_init+0x168>
10001390:	6960      	ldr	r0, [r4, #20]
10001392:	f000 fafb 	bl	1000198c <__wrap___aeabi_uidiv>
10001396:	3001      	adds	r0, #1
10001398:	3801      	subs	r0, #1
1000139a:	d1fd      	bne.n	10001398 <clocks_init+0x164>
1000139c:	22e0      	movs	r2, #224	; 0xe0
1000139e:	4955      	ldr	r1, [pc, #340]	; (100014f4 <clocks_init+0x2c0>)
100013a0:	680b      	ldr	r3, [r1, #0]
100013a2:	401a      	ands	r2, r3
100013a4:	2380      	movs	r3, #128	; 0x80
100013a6:	015b      	lsls	r3, r3, #5
100013a8:	432b      	orrs	r3, r5
100013aa:	601a      	str	r2, [r3, #0]
100013ac:	2380      	movs	r3, #128	; 0x80
100013ae:	2280      	movs	r2, #128	; 0x80
100013b0:	019b      	lsls	r3, r3, #6
100013b2:	432b      	orrs	r3, r5
100013b4:	0112      	lsls	r2, r2, #4
100013b6:	601a      	str	r2, [r3, #0]
100013b8:	2280      	movs	r2, #128	; 0x80
100013ba:	4b3e      	ldr	r3, [pc, #248]	; (100014b4 <clocks_init+0x280>)
100013bc:	0052      	lsls	r2, r2, #1
100013be:	604a      	str	r2, [r1, #4]
100013c0:	61e3      	str	r3, [r4, #28]
100013c2:	4b4e      	ldr	r3, [pc, #312]	; (100014fc <clocks_init+0x2c8>)
100013c4:	6859      	ldr	r1, [r3, #4]
100013c6:	29ff      	cmp	r1, #255	; 0xff
100013c8:	d800      	bhi.n	100013cc <clocks_init+0x198>
100013ca:	605a      	str	r2, [r3, #4]
100013cc:	2280      	movs	r2, #128	; 0x80
100013ce:	4b4c      	ldr	r3, [pc, #304]	; (10001500 <clocks_init+0x2cc>)
100013d0:	6a21      	ldr	r1, [r4, #32]
100013d2:	0112      	lsls	r2, r2, #4
100013d4:	4d49      	ldr	r5, [pc, #292]	; (100014fc <clocks_init+0x2c8>)
100013d6:	601a      	str	r2, [r3, #0]
100013d8:	2900      	cmp	r1, #0
100013da:	d005      	beq.n	100013e8 <clocks_init+0x1b4>
100013dc:	6960      	ldr	r0, [r4, #20]
100013de:	f000 fad5 	bl	1000198c <__wrap___aeabi_uidiv>
100013e2:	3001      	adds	r0, #1
100013e4:	3801      	subs	r0, #1
100013e6:	d1fd      	bne.n	100013e4 <clocks_init+0x1b0>
100013e8:	22e0      	movs	r2, #224	; 0xe0
100013ea:	4944      	ldr	r1, [pc, #272]	; (100014fc <clocks_init+0x2c8>)
100013ec:	680b      	ldr	r3, [r1, #0]
100013ee:	401a      	ands	r2, r3
100013f0:	2380      	movs	r3, #128	; 0x80
100013f2:	015b      	lsls	r3, r3, #5
100013f4:	432b      	orrs	r3, r5
100013f6:	601a      	str	r2, [r3, #0]
100013f8:	2380      	movs	r3, #128	; 0x80
100013fa:	2280      	movs	r2, #128	; 0x80
100013fc:	019b      	lsls	r3, r3, #6
100013fe:	432b      	orrs	r3, r5
10001400:	0112      	lsls	r2, r2, #4
10001402:	601a      	str	r2, [r3, #0]
10001404:	2380      	movs	r3, #128	; 0x80
10001406:	2280      	movs	r2, #128	; 0x80
10001408:	005b      	lsls	r3, r3, #1
1000140a:	604b      	str	r3, [r1, #4]
1000140c:	4b29      	ldr	r3, [pc, #164]	; (100014b4 <clocks_init+0x280>)
1000140e:	02d2      	lsls	r2, r2, #11
10001410:	6223      	str	r3, [r4, #32]
10001412:	4b3c      	ldr	r3, [pc, #240]	; (10001504 <clocks_init+0x2d0>)
10001414:	6859      	ldr	r1, [r3, #4]
10001416:	4291      	cmp	r1, r2
10001418:	d200      	bcs.n	1000141c <clocks_init+0x1e8>
1000141a:	605a      	str	r2, [r3, #4]
1000141c:	2280      	movs	r2, #128	; 0x80
1000141e:	4b3a      	ldr	r3, [pc, #232]	; (10001508 <clocks_init+0x2d4>)
10001420:	6a61      	ldr	r1, [r4, #36]	; 0x24
10001422:	0112      	lsls	r2, r2, #4
10001424:	4d37      	ldr	r5, [pc, #220]	; (10001504 <clocks_init+0x2d0>)
10001426:	601a      	str	r2, [r3, #0]
10001428:	2900      	cmp	r1, #0
1000142a:	d005      	beq.n	10001438 <clocks_init+0x204>
1000142c:	6960      	ldr	r0, [r4, #20]
1000142e:	f000 faad 	bl	1000198c <__wrap___aeabi_uidiv>
10001432:	3001      	adds	r0, #1
10001434:	3801      	subs	r0, #1
10001436:	d1fd      	bne.n	10001434 <clocks_init+0x200>
10001438:	22e0      	movs	r2, #224	; 0xe0
1000143a:	4932      	ldr	r1, [pc, #200]	; (10001504 <clocks_init+0x2d0>)
1000143c:	680b      	ldr	r3, [r1, #0]
1000143e:	401a      	ands	r2, r3
10001440:	2380      	movs	r3, #128	; 0x80
10001442:	015b      	lsls	r3, r3, #5
10001444:	432b      	orrs	r3, r5
10001446:	601a      	str	r2, [r3, #0]
10001448:	2380      	movs	r3, #128	; 0x80
1000144a:	2280      	movs	r2, #128	; 0x80
1000144c:	019b      	lsls	r3, r3, #6
1000144e:	432b      	orrs	r3, r5
10001450:	0112      	lsls	r2, r2, #4
10001452:	601a      	str	r2, [r3, #0]
10001454:	2380      	movs	r3, #128	; 0x80
10001456:	02db      	lsls	r3, r3, #11
10001458:	604b      	str	r3, [r1, #4]
1000145a:	4b17      	ldr	r3, [pc, #92]	; (100014b8 <clocks_init+0x284>)
1000145c:	6263      	str	r3, [r4, #36]	; 0x24
1000145e:	4b2b      	ldr	r3, [pc, #172]	; (1000150c <clocks_init+0x2d8>)
10001460:	685a      	ldr	r2, [r3, #4]
10001462:	2aff      	cmp	r2, #255	; 0xff
10001464:	d802      	bhi.n	1000146c <clocks_init+0x238>
10001466:	2280      	movs	r2, #128	; 0x80
10001468:	0052      	lsls	r2, r2, #1
1000146a:	605a      	str	r2, [r3, #4]
1000146c:	2280      	movs	r2, #128	; 0x80
1000146e:	4b28      	ldr	r3, [pc, #160]	; (10001510 <clocks_init+0x2dc>)
10001470:	69a1      	ldr	r1, [r4, #24]
10001472:	0112      	lsls	r2, r2, #4
10001474:	4d25      	ldr	r5, [pc, #148]	; (1000150c <clocks_init+0x2d8>)
10001476:	601a      	str	r2, [r3, #0]
10001478:	2900      	cmp	r1, #0
1000147a:	d005      	beq.n	10001488 <clocks_init+0x254>
1000147c:	6960      	ldr	r0, [r4, #20]
1000147e:	f000 fa85 	bl	1000198c <__wrap___aeabi_uidiv>
10001482:	3001      	adds	r0, #1
10001484:	3801      	subs	r0, #1
10001486:	d1fd      	bne.n	10001484 <clocks_init+0x250>
10001488:	22e0      	movs	r2, #224	; 0xe0
1000148a:	4920      	ldr	r1, [pc, #128]	; (1000150c <clocks_init+0x2d8>)
1000148c:	680b      	ldr	r3, [r1, #0]
1000148e:	401a      	ands	r2, r3
10001490:	2380      	movs	r3, #128	; 0x80
10001492:	015b      	lsls	r3, r3, #5
10001494:	432b      	orrs	r3, r5
10001496:	601a      	str	r2, [r3, #0]
10001498:	2380      	movs	r3, #128	; 0x80
1000149a:	2280      	movs	r2, #128	; 0x80
1000149c:	019b      	lsls	r3, r3, #6
1000149e:	432b      	orrs	r3, r5
100014a0:	0112      	lsls	r2, r2, #4
100014a2:	601a      	str	r2, [r3, #0]
100014a4:	2380      	movs	r3, #128	; 0x80
100014a6:	005b      	lsls	r3, r3, #1
100014a8:	604b      	str	r3, [r1, #4]
100014aa:	4b11      	ldr	r3, [pc, #68]	; (100014f0 <clocks_init+0x2bc>)
100014ac:	61a3      	str	r3, [r4, #24]
100014ae:	e6d7      	b.n	10001260 <clocks_init+0x2c>
100014b0:	20000acc 	.word	0x20000acc
100014b4:	02dc6c00 	.word	0x02dc6c00
100014b8:	0000b71b 	.word	0x0000b71b
100014bc:	40008000 	.word	0x40008000
100014c0:	4000b03c 	.word	0x4000b03c
100014c4:	4000b030 	.word	0x4000b030
100014c8:	4000e000 	.word	0x4000e000
100014cc:	4000f000 	.word	0x4000f000
100014d0:	4000c000 	.word	0x4000c000
100014d4:	59682f00 	.word	0x59682f00
100014d8:	40028000 	.word	0x40028000
100014dc:	1c9c3800 	.word	0x1c9c3800
100014e0:	4002c000 	.word	0x4002c000
100014e4:	40008030 	.word	0x40008030
100014e8:	00b71b00 	.word	0x00b71b00
100014ec:	4000803c 	.word	0x4000803c
100014f0:	07735940 	.word	0x07735940
100014f4:	40008054 	.word	0x40008054
100014f8:	4000b054 	.word	0x4000b054
100014fc:	40008060 	.word	0x40008060
10001500:	4000b060 	.word	0x4000b060
10001504:	4000806c 	.word	0x4000806c
10001508:	4000b06c 	.word	0x4000b06c
1000150c:	40008048 	.word	0x40008048
10001510:	4000b048 	.word	0x4000b048

10001514 <watchdog_start_tick>:
10001514:	2380      	movs	r3, #128	; 0x80
10001516:	4a02      	ldr	r2, [pc, #8]	; (10001520 <watchdog_start_tick+0xc>)
10001518:	009b      	lsls	r3, r3, #2
1000151a:	4303      	orrs	r3, r0
1000151c:	62d3      	str	r3, [r2, #44]	; 0x2c
1000151e:	4770      	bx	lr
10001520:	40058000 	.word	0x40058000

10001524 <xosc_init>:
10001524:	23aa      	movs	r3, #170	; 0xaa
10001526:	4a06      	ldr	r2, [pc, #24]	; (10001540 <xosc_init+0x1c>)
10001528:	011b      	lsls	r3, r3, #4
1000152a:	6013      	str	r3, [r2, #0]
1000152c:	232f      	movs	r3, #47	; 0x2f
1000152e:	4905      	ldr	r1, [pc, #20]	; (10001544 <xosc_init+0x20>)
10001530:	60d3      	str	r3, [r2, #12]
10001532:	4b05      	ldr	r3, [pc, #20]	; (10001548 <xosc_init+0x24>)
10001534:	6019      	str	r1, [r3, #0]
10001536:	6853      	ldr	r3, [r2, #4]
10001538:	2b00      	cmp	r3, #0
1000153a:	dafc      	bge.n	10001536 <xosc_init+0x12>
1000153c:	4770      	bx	lr
1000153e:	46c0      	nop			; (mov r8, r8)
10001540:	40024000 	.word	0x40024000
10001544:	00fab000 	.word	0x00fab000
10001548:	40026000 	.word	0x40026000

1000154c <pll_init>:
1000154c:	b5f8      	push	{r3, r4, r5, r6, r7, lr}
1000154e:	001d      	movs	r5, r3
10001550:	ab06      	add	r3, sp, #24
10001552:	781e      	ldrb	r6, [r3, #0]
10001554:	2301      	movs	r3, #1
10001556:	425b      	negs	r3, r3
10001558:	6043      	str	r3, [r0, #4]
1000155a:	2300      	movs	r3, #0
1000155c:	0004      	movs	r4, r0
1000155e:	6083      	str	r3, [r0, #8]
10001560:	6001      	str	r1, [r0, #0]
10001562:	200c      	movs	r0, #12
10001564:	0017      	movs	r7, r2
10001566:	f000 fa11 	bl	1000198c <__wrap___aeabi_uidiv>
1000156a:	0141      	lsls	r1, r0, #5
1000156c:	1a09      	subs	r1, r1, r0
1000156e:	018b      	lsls	r3, r1, #6
10001570:	1a59      	subs	r1, r3, r1
10001572:	00c9      	lsls	r1, r1, #3
10001574:	1809      	adds	r1, r1, r0
10001576:	0189      	lsls	r1, r1, #6
10001578:	0038      	movs	r0, r7
1000157a:	f000 fa07 	bl	1000198c <__wrap___aeabi_uidiv>
1000157e:	21c0      	movs	r1, #192	; 0xc0
10001580:	1d23      	adds	r3, r4, #4
10001582:	0189      	lsls	r1, r1, #6
10001584:	4319      	orrs	r1, r3
10001586:	2321      	movs	r3, #33	; 0x21
10001588:	60a0      	str	r0, [r4, #8]
1000158a:	600b      	str	r3, [r1, #0]
1000158c:	6822      	ldr	r2, [r4, #0]
1000158e:	2a00      	cmp	r2, #0
10001590:	dafc      	bge.n	1000158c <pll_init+0x40>
10001592:	2308      	movs	r3, #8
10001594:	042d      	lsls	r5, r5, #16
10001596:	0336      	lsls	r6, r6, #12
10001598:	432e      	orrs	r6, r5
1000159a:	60e6      	str	r6, [r4, #12]
1000159c:	600b      	str	r3, [r1, #0]
1000159e:	bdf8      	pop	{r3, r4, r5, r6, r7, pc}

100015a0 <irq_set_enabled>:
100015a0:	2301      	movs	r3, #1
100015a2:	4083      	lsls	r3, r0
100015a4:	2900      	cmp	r1, #0
100015a6:	d004      	beq.n	100015b2 <irq_set_enabled+0x12>
100015a8:	4a03      	ldr	r2, [pc, #12]	; (100015b8 <irq_set_enabled+0x18>)
100015aa:	6013      	str	r3, [r2, #0]
100015ac:	4a03      	ldr	r2, [pc, #12]	; (100015bc <irq_set_enabled+0x1c>)
100015ae:	6013      	str	r3, [r2, #0]
100015b0:	4770      	bx	lr
100015b2:	4a03      	ldr	r2, [pc, #12]	; (100015c0 <irq_set_enabled+0x20>)
100015b4:	6013      	str	r3, [r2, #0]
100015b6:	e7fb      	b.n	100015b0 <irq_set_enabled+0x10>
100015b8:	e000e280 	.word	0xe000e280
100015bc:	e000e100 	.word	0xe000e100
100015c0:	e000e180 	.word	0xe000e180

100015c4 <irq_get_vtable_handler>:
100015c4:	4b02      	ldr	r3, [pc, #8]	; (100015d0 <irq_get_vtable_handler+0xc>)
100015c6:	3010      	adds	r0, #16
100015c8:	689b      	ldr	r3, [r3, #8]
100015ca:	0080      	lsls	r0, r0, #2
100015cc:	58c0      	ldr	r0, [r0, r3]
100015ce:	4770      	bx	lr
100015d0:	e000ed00 	.word	0xe000ed00

100015d4 <irq_set_exclusive_handler>:
100015d4:	b570      	push	{r4, r5, r6, lr}
100015d6:	000d      	movs	r5, r1
100015d8:	f3ef 8610 	mrs	r6, PRIMASK
100015dc:	b672      	cpsid	i
100015de:	4a0f      	ldr	r2, [pc, #60]	; (1000161c <irq_set_exclusive_handler+0x48>)
100015e0:	6813      	ldr	r3, [r2, #0]
100015e2:	2b00      	cmp	r3, #0
100015e4:	d0fc      	beq.n	100015e0 <irq_set_exclusive_handler+0xc>
100015e6:	f3bf 8f5f 	dmb	sy
100015ea:	4b0d      	ldr	r3, [pc, #52]	; (10001620 <irq_set_exclusive_handler+0x4c>)
100015ec:	3010      	adds	r0, #16
100015ee:	689b      	ldr	r3, [r3, #8]
100015f0:	0084      	lsls	r4, r0, #2
100015f2:	591b      	ldr	r3, [r3, r4]
100015f4:	4a0b      	ldr	r2, [pc, #44]	; (10001624 <irq_set_exclusive_handler+0x50>)
100015f6:	4293      	cmp	r3, r2
100015f8:	d003      	beq.n	10001602 <irq_set_exclusive_handler+0x2e>
100015fa:	429d      	cmp	r5, r3
100015fc:	d001      	beq.n	10001602 <irq_set_exclusive_handler+0x2e>
100015fe:	f7ff fe13 	bl	10001228 <hard_assertion_failure>
10001602:	4b07      	ldr	r3, [pc, #28]	; (10001620 <irq_set_exclusive_handler+0x4c>)
10001604:	689b      	ldr	r3, [r3, #8]
10001606:	511d      	str	r5, [r3, r4]
10001608:	f3bf 8f5f 	dmb	sy
1000160c:	f3bf 8f5f 	dmb	sy
10001610:	2200      	movs	r2, #0
10001612:	4b02      	ldr	r3, [pc, #8]	; (1000161c <irq_set_exclusive_handler+0x48>)
10001614:	601a      	str	r2, [r3, #0]
10001616:	f386 8810 	msr	PRIMASK, r6
1000161a:	bd70      	pop	{r4, r5, r6, pc}
1000161c:	d0000124 	.word	0xd0000124
10001620:	e000ed00 	.word	0xe000ed00
10001624:	100002cd 	.word	0x100002cd

10001628 <irq_remove_handler>:
10001628:	b5f0      	push	{r4, r5, r6, r7, lr}
1000162a:	46de      	mov	lr, fp
1000162c:	4657      	mov	r7, sl
1000162e:	464e      	mov	r6, r9
10001630:	4645      	mov	r5, r8
10001632:	b5e0      	push	{r5, r6, r7, lr}
10001634:	000c      	movs	r4, r1
10001636:	b083      	sub	sp, #12
10001638:	f3ef 8a10 	mrs	sl, PRIMASK
1000163c:	b672      	cpsid	i
1000163e:	4a5f      	ldr	r2, [pc, #380]	; (100017bc <irq_remove_handler+0x194>)
10001640:	6813      	ldr	r3, [r2, #0]
10001642:	2b00      	cmp	r3, #0
10001644:	d0fc      	beq.n	10001640 <irq_remove_handler+0x18>
10001646:	f3bf 8f5f 	dmb	sy
1000164a:	2210      	movs	r2, #16
1000164c:	4691      	mov	r9, r2
1000164e:	4481      	add	r9, r0
10001650:	464a      	mov	r2, r9
10001652:	4b5b      	ldr	r3, [pc, #364]	; (100017c0 <irq_remove_handler+0x198>)
10001654:	0096      	lsls	r6, r2, #2
10001656:	689b      	ldr	r3, [r3, #8]
10001658:	599d      	ldr	r5, [r3, r6]
1000165a:	4b5a      	ldr	r3, [pc, #360]	; (100017c4 <irq_remove_handler+0x19c>)
1000165c:	4698      	mov	r8, r3
1000165e:	429d      	cmp	r5, r3
10001660:	d005      	beq.n	1000166e <irq_remove_handler+0x46>
10001662:	42a5      	cmp	r5, r4
10001664:	d016      	beq.n	10001694 <irq_remove_handler+0x6c>
10001666:	4f58      	ldr	r7, [pc, #352]	; (100017c8 <irq_remove_handler+0x1a0>)
10001668:	1beb      	subs	r3, r5, r7
1000166a:	2b2f      	cmp	r3, #47	; 0x2f
1000166c:	d914      	bls.n	10001698 <irq_remove_handler+0x70>
1000166e:	4b54      	ldr	r3, [pc, #336]	; (100017c0 <irq_remove_handler+0x198>)
10001670:	689b      	ldr	r3, [r3, #8]
10001672:	519d      	str	r5, [r3, r6]
10001674:	f3bf 8f5f 	dmb	sy
10001678:	f3bf 8f5f 	dmb	sy
1000167c:	2200      	movs	r2, #0
1000167e:	4b4f      	ldr	r3, [pc, #316]	; (100017bc <irq_remove_handler+0x194>)
10001680:	601a      	str	r2, [r3, #0]
10001682:	f38a 8810 	msr	PRIMASK, sl
10001686:	b003      	add	sp, #12
10001688:	bc3c      	pop	{r2, r3, r4, r5}
1000168a:	4690      	mov	r8, r2
1000168c:	4699      	mov	r9, r3
1000168e:	46a2      	mov	sl, r4
10001690:	46ab      	mov	fp, r5
10001692:	bdf0      	pop	{r4, r5, r6, r7, pc}
10001694:	001d      	movs	r5, r3
10001696:	e7ea      	b.n	1000166e <irq_remove_handler+0x46>
10001698:	2301      	movs	r3, #1
1000169a:	4083      	lsls	r3, r0
1000169c:	469b      	mov	fp, r3
1000169e:	465a      	mov	r2, fp
100016a0:	4b4a      	ldr	r3, [pc, #296]	; (100017cc <irq_remove_handler+0x1a4>)
100016a2:	681b      	ldr	r3, [r3, #0]
100016a4:	401a      	ands	r2, r3
100016a6:	9200      	str	r2, [sp, #0]
100016a8:	465a      	mov	r2, fp
100016aa:	4b49      	ldr	r3, [pc, #292]	; (100017d0 <irq_remove_handler+0x1a8>)
100016ac:	601a      	str	r2, [r3, #0]
100016ae:	f3bf 8f5f 	dmb	sy
100016b2:	f7fe fd70 	bl	10000196 <__get_current_exception>
100016b6:	9001      	str	r0, [sp, #4]
100016b8:	2800      	cmp	r0, #0
100016ba:	d003      	beq.n	100016c4 <irq_remove_handler+0x9c>
100016bc:	4581      	cmp	r9, r0
100016be:	d001      	beq.n	100016c4 <irq_remove_handler+0x9c>
100016c0:	f7ff fdb2 	bl	10001228 <hard_assertion_failure>
100016c4:	2301      	movs	r3, #1
100016c6:	0029      	movs	r1, r5
100016c8:	4399      	bics	r1, r3
100016ca:	688b      	ldr	r3, [r1, #8]
100016cc:	42a3      	cmp	r3, r4
100016ce:	d069      	beq.n	100017a4 <irq_remove_handler+0x17c>
100016d0:	000a      	movs	r2, r1
100016d2:	e007      	b.n	100016e4 <irq_remove_handler+0xbc>
100016d4:	0043      	lsls	r3, r0, #1
100016d6:	181b      	adds	r3, r3, r0
100016d8:	009b      	lsls	r3, r3, #2
100016da:	18fb      	adds	r3, r7, r3
100016dc:	6898      	ldr	r0, [r3, #8]
100016de:	42a0      	cmp	r0, r4
100016e0:	d011      	beq.n	10001706 <irq_remove_handler+0xde>
100016e2:	001a      	movs	r2, r3
100016e4:	2006      	movs	r0, #6
100016e6:	5610      	ldrsb	r0, [r2, r0]
100016e8:	2800      	cmp	r0, #0
100016ea:	daf3      	bge.n	100016d4 <irq_remove_handler+0xac>
100016ec:	9b00      	ldr	r3, [sp, #0]
100016ee:	2b00      	cmp	r3, #0
100016f0:	d005      	beq.n	100016fe <irq_remove_handler+0xd6>
100016f2:	465a      	mov	r2, fp
100016f4:	4b37      	ldr	r3, [pc, #220]	; (100017d4 <irq_remove_handler+0x1ac>)
100016f6:	601a      	str	r2, [r3, #0]
100016f8:	4b34      	ldr	r3, [pc, #208]	; (100017cc <irq_remove_handler+0x1a4>)
100016fa:	601a      	str	r2, [r3, #0]
100016fc:	e7b7      	b.n	1000166e <irq_remove_handler+0x46>
100016fe:	465a      	mov	r2, fp
10001700:	4b33      	ldr	r3, [pc, #204]	; (100017d0 <irq_remove_handler+0x1a8>)
10001702:	601a      	str	r2, [r3, #0]
10001704:	e7b3      	b.n	1000166e <irq_remove_handler+0x46>
10001706:	2006      	movs	r0, #6
10001708:	5618      	ldrsb	r0, [r3, r0]
1000170a:	2800      	cmp	r0, #0
1000170c:	db22      	blt.n	10001754 <irq_remove_handler+0x12c>
1000170e:	0042      	lsls	r2, r0, #1
10001710:	1811      	adds	r1, r2, r0
10001712:	0089      	lsls	r1, r1, #2
10001714:	187c      	adds	r4, r7, r1
10001716:	4688      	mov	r8, r1
10001718:	68a1      	ldr	r1, [r4, #8]
1000171a:	6099      	str	r1, [r3, #8]
1000171c:	79e1      	ldrb	r1, [r4, #7]
1000171e:	71d9      	strb	r1, [r3, #7]
10001720:	2106      	movs	r1, #6
10001722:	5661      	ldrsb	r1, [r4, r1]
10001724:	7199      	strb	r1, [r3, #6]
10001726:	79a1      	ldrb	r1, [r4, #6]
10001728:	297f      	cmp	r1, #127	; 0x7f
1000172a:	d82b      	bhi.n	10001784 <irq_remove_handler+0x15c>
1000172c:	88a4      	ldrh	r4, [r4, #4]
1000172e:	1af9      	subs	r1, r7, r3
10001730:	0564      	lsls	r4, r4, #21
10001732:	1524      	asrs	r4, r4, #20
10001734:	4444      	add	r4, r8
10001736:	1909      	adds	r1, r1, r4
10001738:	24e0      	movs	r4, #224	; 0xe0
1000173a:	0509      	lsls	r1, r1, #20
1000173c:	0d49      	lsrs	r1, r1, #21
1000173e:	0224      	lsls	r4, r4, #8
10001740:	4321      	orrs	r1, r4
10001742:	8099      	strh	r1, [r3, #4]
10001744:	1812      	adds	r2, r2, r0
10001746:	4b24      	ldr	r3, [pc, #144]	; (100017d8 <irq_remove_handler+0x1b0>)
10001748:	0092      	lsls	r2, r2, #2
1000174a:	18bf      	adds	r7, r7, r2
1000174c:	781a      	ldrb	r2, [r3, #0]
1000174e:	7018      	strb	r0, [r3, #0]
10001750:	71ba      	strb	r2, [r7, #6]
10001752:	e7cb      	b.n	100016ec <irq_remove_handler+0xc4>
10001754:	9801      	ldr	r0, [sp, #4]
10001756:	2800      	cmp	r0, #0
10001758:	d117      	bne.n	1000178a <irq_remove_handler+0x162>
1000175a:	30ff      	adds	r0, #255	; 0xff
1000175c:	7190      	strb	r0, [r2, #6]
1000175e:	481f      	ldr	r0, [pc, #124]	; (100017dc <irq_remove_handler+0x1b4>)
10001760:	8090      	strh	r0, [r2, #4]
10001762:	4a1d      	ldr	r2, [pc, #116]	; (100017d8 <irq_remove_handler+0x1b0>)
10001764:	1bcf      	subs	r7, r1, r7
10001766:	7810      	ldrb	r0, [r2, #0]
10001768:	10bf      	asrs	r7, r7, #2
1000176a:	7198      	strb	r0, [r3, #6]
1000176c:	00bb      	lsls	r3, r7, #2
1000176e:	19db      	adds	r3, r3, r7
10001770:	0119      	lsls	r1, r3, #4
10001772:	185b      	adds	r3, r3, r1
10001774:	0219      	lsls	r1, r3, #8
10001776:	185b      	adds	r3, r3, r1
10001778:	0419      	lsls	r1, r3, #16
1000177a:	185b      	adds	r3, r3, r1
1000177c:	005b      	lsls	r3, r3, #1
1000177e:	19db      	adds	r3, r3, r7
10001780:	7013      	strb	r3, [r2, #0]
10001782:	e7b3      	b.n	100016ec <irq_remove_handler+0xc4>
10001784:	21bd      	movs	r1, #189	; 0xbd
10001786:	0209      	lsls	r1, r1, #8
10001788:	e7db      	b.n	10001742 <irq_remove_handler+0x11a>
1000178a:	4a15      	ldr	r2, [pc, #84]	; (100017e0 <irq_remove_handler+0x1b8>)
1000178c:	4915      	ldr	r1, [pc, #84]	; (100017e4 <irq_remove_handler+0x1bc>)
1000178e:	1ad2      	subs	r2, r2, r3
10001790:	3a08      	subs	r2, #8
10001792:	0250      	lsls	r0, r2, #9
10001794:	0d40      	lsrs	r0, r0, #21
10001796:	4301      	orrs	r1, r0
10001798:	8099      	strh	r1, [r3, #4]
1000179a:	4913      	ldr	r1, [pc, #76]	; (100017e8 <irq_remove_handler+0x1c0>)
1000179c:	0852      	lsrs	r2, r2, #1
1000179e:	430a      	orrs	r2, r1
100017a0:	80da      	strh	r2, [r3, #6]
100017a2:	e7a3      	b.n	100016ec <irq_remove_handler+0xc4>
100017a4:	2006      	movs	r0, #6
100017a6:	5608      	ldrsb	r0, [r1, r0]
100017a8:	000b      	movs	r3, r1
100017aa:	2800      	cmp	r0, #0
100017ac:	daaf      	bge.n	1000170e <irq_remove_handler+0xe6>
100017ae:	9a01      	ldr	r2, [sp, #4]
100017b0:	2a00      	cmp	r2, #0
100017b2:	d1ea      	bne.n	1000178a <irq_remove_handler+0x162>
100017b4:	000b      	movs	r3, r1
100017b6:	4645      	mov	r5, r8
100017b8:	e7d3      	b.n	10001762 <irq_remove_handler+0x13a>
100017ba:	46c0      	nop			; (mov r8, r8)
100017bc:	d0000124 	.word	0xd0000124
100017c0:	e000ed00 	.word	0xe000ed00
100017c4:	100002cd 	.word	0x100002cd
100017c8:	2000018c 	.word	0x2000018c
100017cc:	e000e100 	.word	0xe000e100
100017d0:	e000e180 	.word	0xe000e180
100017d4:	e000e280 	.word	0xe000e280
100017d8:	20000b29 	.word	0x20000b29
100017dc:	ffffbd00 	.word	0xffffbd00
100017e0:	200001c6 	.word	0x200001c6
100017e4:	fffff000 	.word	0xfffff000
100017e8:	fffff800 	.word	0xfffff800

100017ec <irq_add_tail_to_free_list>:
100017ec:	b5f8      	push	{r3, r4, r5, r6, r7, lr}
100017ee:	2501      	movs	r5, #1
100017f0:	0004      	movs	r4, r0
100017f2:	4305      	orrs	r5, r0
100017f4:	f7fe fccf 	bl	10000196 <__get_current_exception>
100017f8:	f3ef 8610 	mrs	r6, PRIMASK
100017fc:	b672      	cpsid	i
100017fe:	4a24      	ldr	r2, [pc, #144]	; (10001890 <irq_add_tail_to_free_list+0xa4>)
10001800:	6813      	ldr	r3, [r2, #0]
10001802:	2b00      	cmp	r3, #0
10001804:	d0fc      	beq.n	10001800 <irq_add_tail_to_free_list+0x14>
10001806:	f3bf 8f5f 	dmb	sy
1000180a:	4f22      	ldr	r7, [pc, #136]	; (10001894 <irq_add_tail_to_free_list+0xa8>)
1000180c:	0080      	lsls	r0, r0, #2
1000180e:	1be1      	subs	r1, r4, r7
10001810:	1089      	asrs	r1, r1, #2
10001812:	008a      	lsls	r2, r1, #2
10001814:	1852      	adds	r2, r2, r1
10001816:	0113      	lsls	r3, r2, #4
10001818:	18d2      	adds	r2, r2, r3
1000181a:	0213      	lsls	r3, r2, #8
1000181c:	18d2      	adds	r2, r2, r3
1000181e:	0413      	lsls	r3, r2, #16
10001820:	18d3      	adds	r3, r2, r3
10001822:	4a1d      	ldr	r2, [pc, #116]	; (10001898 <irq_add_tail_to_free_list+0xac>)
10001824:	005b      	lsls	r3, r3, #1
10001826:	185b      	adds	r3, r3, r1
10001828:	6891      	ldr	r1, [r2, #8]
1000182a:	5809      	ldr	r1, [r1, r0]
1000182c:	42a9      	cmp	r1, r5
1000182e:	d01c      	beq.n	1000186a <irq_add_tail_to_free_list+0x7e>
10001830:	2206      	movs	r2, #6
10001832:	56ba      	ldrsb	r2, [r7, r2]
10001834:	4293      	cmp	r3, r2
10001836:	d01c      	beq.n	10001872 <irq_add_tail_to_free_list+0x86>
10001838:	2212      	movs	r2, #18
1000183a:	56ba      	ldrsb	r2, [r7, r2]
1000183c:	4293      	cmp	r3, r2
1000183e:	d022      	beq.n	10001886 <irq_add_tail_to_free_list+0x9a>
10001840:	221e      	movs	r2, #30
10001842:	56ba      	ldrsb	r2, [r7, r2]
10001844:	4293      	cmp	r3, r2
10001846:	d020      	beq.n	1000188a <irq_add_tail_to_free_list+0x9e>
10001848:	222a      	movs	r2, #42	; 0x2a
1000184a:	56ba      	ldrsb	r2, [r7, r2]
1000184c:	2103      	movs	r1, #3
1000184e:	429a      	cmp	r2, r3
10001850:	d010      	beq.n	10001874 <irq_add_tail_to_free_list+0x88>
10001852:	4a12      	ldr	r2, [pc, #72]	; (1000189c <irq_add_tail_to_free_list+0xb0>)
10001854:	7811      	ldrb	r1, [r2, #0]
10001856:	7013      	strb	r3, [r2, #0]
10001858:	71a1      	strb	r1, [r4, #6]
1000185a:	f3bf 8f5f 	dmb	sy
1000185e:	2200      	movs	r2, #0
10001860:	4b0b      	ldr	r3, [pc, #44]	; (10001890 <irq_add_tail_to_free_list+0xa4>)
10001862:	601a      	str	r2, [r3, #0]
10001864:	f386 8810 	msr	PRIMASK, r6
10001868:	bdf8      	pop	{r3, r4, r5, r6, r7, pc}
1000186a:	6892      	ldr	r2, [r2, #8]
1000186c:	490c      	ldr	r1, [pc, #48]	; (100018a0 <irq_add_tail_to_free_list+0xb4>)
1000186e:	5011      	str	r1, [r2, r0]
10001870:	e7ef      	b.n	10001852 <irq_add_tail_to_free_list+0x66>
10001872:	2100      	movs	r1, #0
10001874:	004a      	lsls	r2, r1, #1
10001876:	1852      	adds	r2, r2, r1
10001878:	21ff      	movs	r1, #255	; 0xff
1000187a:	0092      	lsls	r2, r2, #2
1000187c:	18ba      	adds	r2, r7, r2
1000187e:	7191      	strb	r1, [r2, #6]
10001880:	4908      	ldr	r1, [pc, #32]	; (100018a4 <irq_add_tail_to_free_list+0xb8>)
10001882:	8091      	strh	r1, [r2, #4]
10001884:	e7e5      	b.n	10001852 <irq_add_tail_to_free_list+0x66>
10001886:	2101      	movs	r1, #1
10001888:	e7f4      	b.n	10001874 <irq_add_tail_to_free_list+0x88>
1000188a:	2102      	movs	r1, #2
1000188c:	e7f2      	b.n	10001874 <irq_add_tail_to_free_list+0x88>
1000188e:	46c0      	nop			; (mov r8, r8)
10001890:	d0000124 	.word	0xd0000124
10001894:	2000018c 	.word	0x2000018c
10001898:	e000ed00 	.word	0xe000ed00
1000189c:	20000b29 	.word	0x20000b29
100018a0:	100002cd 	.word	0x100002cd
100018a4:	ffffbd00 	.word	0xffffbd00

100018a8 <irq_init_priorities>:
100018a8:	b5f0      	push	{r4, r5, r6, r7, lr}
100018aa:	2200      	movs	r2, #0
100018ac:	2403      	movs	r4, #3
100018ae:	27ff      	movs	r7, #255	; 0xff
100018b0:	2680      	movs	r6, #128	; 0x80
100018b2:	0020      	movs	r0, r4
100018b4:	003d      	movs	r5, r7
100018b6:	4b09      	ldr	r3, [pc, #36]	; (100018dc <irq_init_priorities+0x34>)
100018b8:	0011      	movs	r1, r2
100018ba:	469c      	mov	ip, r3
100018bc:	4010      	ands	r0, r2
100018be:	00c0      	lsls	r0, r0, #3
100018c0:	4085      	lsls	r5, r0
100018c2:	43a1      	bics	r1, r4
100018c4:	4461      	add	r1, ip
100018c6:	680b      	ldr	r3, [r1, #0]
100018c8:	3201      	adds	r2, #1
100018ca:	43ab      	bics	r3, r5
100018cc:	0035      	movs	r5, r6
100018ce:	4085      	lsls	r5, r0
100018d0:	432b      	orrs	r3, r5
100018d2:	600b      	str	r3, [r1, #0]
100018d4:	2a20      	cmp	r2, #32
100018d6:	d1ec      	bne.n	100018b2 <irq_init_priorities+0xa>
100018d8:	bdf0      	pop	{r4, r5, r6, r7, pc}
100018da:	46c0      	nop			; (mov r8, r8)
100018dc:	e000e400 	.word	0xe000e400

100018e0 <_out_char>:
100018e0:	b510      	push	{r4, lr}
100018e2:	2800      	cmp	r0, #0
100018e4:	d100      	bne.n	100018e8 <_out_char+0x8>
100018e6:	bd10      	pop	{r4, pc}
100018e8:	f000 fa26 	bl	10001d38 <__wrap_putchar>
100018ec:	e7fb      	b.n	100018e6 <_out_char+0x6>
100018ee:	46c0      	nop			; (mov r8, r8)

100018f0 <weak_raw_vprintf>:
100018f0:	b510      	push	{r4, lr}
100018f2:	4a09      	ldr	r2, [pc, #36]	; (10001918 <weak_raw_vprintf+0x28>)
100018f4:	0003      	movs	r3, r0
100018f6:	6814      	ldr	r4, [r2, #0]
100018f8:	b084      	sub	sp, #16
100018fa:	2c00      	cmp	r4, #0
100018fc:	d008      	beq.n	10001910 <weak_raw_vprintf+0x20>
100018fe:	2201      	movs	r2, #1
10001900:	9100      	str	r1, [sp, #0]
10001902:	4806      	ldr	r0, [pc, #24]	; (1000191c <weak_raw_vprintf+0x2c>)
10001904:	4252      	negs	r2, r2
10001906:	a903      	add	r1, sp, #12
10001908:	47a0      	blx	r4
1000190a:	2001      	movs	r0, #1
1000190c:	b004      	add	sp, #16
1000190e:	bd10      	pop	{r4, pc}
10001910:	f000 fa20 	bl	10001d54 <__wrap_puts>
10001914:	2000      	movs	r0, #0
10001916:	e7f9      	b.n	1000190c <weak_raw_vprintf+0x1c>
10001918:	20000b04 	.word	0x20000b04
1000191c:	100018e1 	.word	0x100018e1

10001920 <__aeabi_bits_init>:
10001920:	4801      	ldr	r0, [pc, #4]	; (10001928 <__aeabi_bits_init+0x8>)
10001922:	2104      	movs	r1, #4
10001924:	4b01      	ldr	r3, [pc, #4]	; (1000192c <__aeabi_bits_init+0xc>)
10001926:	4718      	bx	r3
10001928:	200001e0 	.word	0x200001e0
1000192c:	10001951 	.word	0x10001951

10001930 <rom_func_lookup>:
10001930:	2314      	movs	r3, #20
10001932:	b510      	push	{r4, lr}
10001934:	0001      	movs	r1, r0
10001936:	8818      	ldrh	r0, [r3, #0]
10001938:	3304      	adds	r3, #4
1000193a:	881b      	ldrh	r3, [r3, #0]
1000193c:	4798      	blx	r3
1000193e:	bd10      	pop	{r4, pc}

10001940 <rom_data_lookup>:
10001940:	2316      	movs	r3, #22
10001942:	b510      	push	{r4, lr}
10001944:	0001      	movs	r1, r0
10001946:	8818      	ldrh	r0, [r3, #0]
10001948:	3302      	adds	r3, #2
1000194a:	881b      	ldrh	r3, [r3, #0]
1000194c:	4798      	blx	r3
1000194e:	bd10      	pop	{r4, pc}

10001950 <rom_funcs_lookup>:
10001950:	b5f0      	push	{r4, r5, r6, r7, lr}
10001952:	46c6      	mov	lr, r8
10001954:	b500      	push	{lr}
10001956:	2900      	cmp	r1, #0
10001958:	d016      	beq.n	10001988 <rom_funcs_lookup+0x38>
1000195a:	2314      	movs	r3, #20
1000195c:	0004      	movs	r4, r0
1000195e:	2501      	movs	r5, #1
10001960:	4698      	mov	r8, r3
10001962:	2718      	movs	r7, #24
10001964:	0089      	lsls	r1, r1, #2
10001966:	1846      	adds	r6, r0, r1
10001968:	4643      	mov	r3, r8
1000196a:	6821      	ldr	r1, [r4, #0]
1000196c:	8818      	ldrh	r0, [r3, #0]
1000196e:	883b      	ldrh	r3, [r7, #0]
10001970:	4798      	blx	r3
10001972:	c401      	stmia	r4!, {r0}
10001974:	1e43      	subs	r3, r0, #1
10001976:	4198      	sbcs	r0, r3
10001978:	4240      	negs	r0, r0
1000197a:	4005      	ands	r5, r0
1000197c:	42a6      	cmp	r6, r4
1000197e:	d1f3      	bne.n	10001968 <rom_funcs_lookup+0x18>
10001980:	0028      	movs	r0, r5
10001982:	bc04      	pop	{r2}
10001984:	4690      	mov	r8, r2
10001986:	bdf0      	pop	{r4, r5, r6, r7, pc}
10001988:	2501      	movs	r5, #1
1000198a:	e7f9      	b.n	10001980 <rom_funcs_lookup+0x30>

1000198c <__wrap___aeabi_uidiv>:
1000198c:	4a13      	ldr	r2, [pc, #76]	; (100019dc <divmod_u32u32_savestate+0x20>)
1000198e:	6f93      	ldr	r3, [r2, #120]	; 0x78
10001990:	089b      	lsrs	r3, r3, #2
10001992:	d213      	bcs.n	100019bc <divmod_u32u32_savestate>

10001994 <divmod_u32u32_unsafe>:
10001994:	6610      	str	r0, [r2, #96]	; 0x60
10001996:	6651      	str	r1, [r2, #100]	; 0x64
10001998:	2900      	cmp	r1, #0
1000199a:	d005      	beq.n	100019a8 <divmod_u32u32_unsafe+0x14>
1000199c:	e7ff      	b.n	1000199e <divmod_u32u32_unsafe+0xa>
1000199e:	e7ff      	b.n	100019a0 <divmod_u32u32_unsafe+0xc>
100019a0:	e7ff      	b.n	100019a2 <divmod_u32u32_unsafe+0xe>
100019a2:	6f51      	ldr	r1, [r2, #116]	; 0x74
100019a4:	6f10      	ldr	r0, [r2, #112]	; 0x70
100019a6:	4770      	bx	lr
100019a8:	b504      	push	{r2, lr}
100019aa:	2800      	cmp	r0, #0
100019ac:	d001      	beq.n	100019b2 <divmod_u32u32_unsafe+0x1e>
100019ae:	2000      	movs	r0, #0
100019b0:	43c0      	mvns	r0, r0
100019b2:	f000 feb1 	bl	10002718 <____aeabi_idiv0_veneer>
100019b6:	2100      	movs	r1, #0
100019b8:	bd04      	pop	{r2, pc}
100019ba:	46c0      	nop			; (mov r8, r8)

100019bc <divmod_u32u32_savestate>:
100019bc:	6f93      	ldr	r3, [r2, #120]	; 0x78
100019be:	085b      	lsrs	r3, r3, #1
100019c0:	d3fd      	bcc.n	100019be <divmod_u32u32_savestate+0x2>
100019c2:	b5f0      	push	{r4, r5, r6, r7, lr}
100019c4:	6e94      	ldr	r4, [r2, #104]	; 0x68
100019c6:	6ed5      	ldr	r5, [r2, #108]	; 0x6c
100019c8:	6f57      	ldr	r7, [r2, #116]	; 0x74
100019ca:	6f16      	ldr	r6, [r2, #112]	; 0x70
100019cc:	f7ff ffe2 	bl	10001994 <divmod_u32u32_unsafe>
100019d0:	6694      	str	r4, [r2, #104]	; 0x68
100019d2:	66d5      	str	r5, [r2, #108]	; 0x6c
100019d4:	6757      	str	r7, [r2, #116]	; 0x74
100019d6:	6716      	str	r6, [r2, #112]	; 0x70
100019d8:	bdf0      	pop	{r4, r5, r6, r7, pc}
100019da:	0000      	.short	0x0000
100019dc:	d0000000 	.word	0xd0000000

100019e0 <__aeabi_double_init>:
100019e0:	2313      	movs	r3, #19
100019e2:	b570      	push	{r4, r5, r6, lr}
100019e4:	781d      	ldrb	r5, [r3, #0]
100019e6:	2d01      	cmp	r5, #1
100019e8:	d010      	beq.n	10001a0c <__aeabi_double_init+0x2c>
100019ea:	dd0b      	ble.n	10001a04 <__aeabi_double_init+0x24>
100019ec:	4824      	ldr	r0, [pc, #144]	; (10001a80 <__aeabi_double_init+0xa0>)
100019ee:	f7ff ffa7 	bl	10001940 <rom_data_lookup>
100019f2:	4c24      	ldr	r4, [pc, #144]	; (10001a84 <__aeabi_double_init+0xa4>)
100019f4:	0001      	movs	r1, r0
100019f6:	2280      	movs	r2, #128	; 0x80
100019f8:	0020      	movs	r0, r4
100019fa:	f000 f8d5 	bl	10001ba8 <__wrap___aeabi_memcpy>
100019fe:	2d02      	cmp	r5, #2
10001a00:	d001      	beq.n	10001a06 <__aeabi_double_init+0x26>
10001a02:	bd70      	pop	{r4, r5, r6, pc}
10001a04:	4c1f      	ldr	r4, [pc, #124]	; (10001a84 <__aeabi_double_init+0xa4>)
10001a06:	4a20      	ldr	r2, [pc, #128]	; (10001a88 <__aeabi_double_init+0xa8>)
10001a08:	64a2      	str	r2, [r4, #72]	; 0x48
10001a0a:	e7fa      	b.n	10001a02 <__aeabi_double_init+0x22>
10001a0c:	002e      	movs	r6, r5
10001a0e:	4c1d      	ldr	r4, [pc, #116]	; (10001a84 <__aeabi_double_init+0xa4>)
10001a10:	4a1d      	ldr	r2, [pc, #116]	; (10001a88 <__aeabi_double_init+0xa8>)
10001a12:	08a3      	lsrs	r3, r4, #2
10001a14:	425b      	negs	r3, r3
10001a16:	401e      	ands	r6, r3
10001a18:	421d      	tst	r5, r3
10001a1a:	d02f      	beq.n	10001a7c <__aeabi_double_init+0x9c>
10001a1c:	0033      	movs	r3, r6
10001a1e:	6022      	str	r2, [r4, #0]
10001a20:	2020      	movs	r0, #32
10001a22:	00b1      	lsls	r1, r6, #2
10001a24:	1861      	adds	r1, r4, r1
10001a26:	1b80      	subs	r0, r0, r6
10001a28:	600a      	str	r2, [r1, #0]
10001a2a:	604a      	str	r2, [r1, #4]
10001a2c:	608a      	str	r2, [r1, #8]
10001a2e:	60ca      	str	r2, [r1, #12]
10001a30:	610a      	str	r2, [r1, #16]
10001a32:	614a      	str	r2, [r1, #20]
10001a34:	618a      	str	r2, [r1, #24]
10001a36:	61ca      	str	r2, [r1, #28]
10001a38:	620a      	str	r2, [r1, #32]
10001a3a:	624a      	str	r2, [r1, #36]	; 0x24
10001a3c:	628a      	str	r2, [r1, #40]	; 0x28
10001a3e:	62ca      	str	r2, [r1, #44]	; 0x2c
10001a40:	630a      	str	r2, [r1, #48]	; 0x30
10001a42:	634a      	str	r2, [r1, #52]	; 0x34
10001a44:	638a      	str	r2, [r1, #56]	; 0x38
10001a46:	63ca      	str	r2, [r1, #60]	; 0x3c
10001a48:	640a      	str	r2, [r1, #64]	; 0x40
10001a4a:	644a      	str	r2, [r1, #68]	; 0x44
10001a4c:	648a      	str	r2, [r1, #72]	; 0x48
10001a4e:	64ca      	str	r2, [r1, #76]	; 0x4c
10001a50:	650a      	str	r2, [r1, #80]	; 0x50
10001a52:	654a      	str	r2, [r1, #84]	; 0x54
10001a54:	658a      	str	r2, [r1, #88]	; 0x58
10001a56:	65ca      	str	r2, [r1, #92]	; 0x5c
10001a58:	660a      	str	r2, [r1, #96]	; 0x60
10001a5a:	664a      	str	r2, [r1, #100]	; 0x64
10001a5c:	668a      	str	r2, [r1, #104]	; 0x68
10001a5e:	66ca      	str	r2, [r1, #108]	; 0x6c
10001a60:	670a      	str	r2, [r1, #112]	; 0x70
10001a62:	674a      	str	r2, [r1, #116]	; 0x74
10001a64:	0840      	lsrs	r0, r0, #1
10001a66:	2810      	cmp	r0, #16
10001a68:	d103      	bne.n	10001a72 <__aeabi_double_init+0x92>
10001a6a:	678a      	str	r2, [r1, #120]	; 0x78
10001a6c:	67ca      	str	r2, [r1, #124]	; 0x7c
10001a6e:	64a2      	str	r2, [r4, #72]	; 0x48
10001a70:	e7c7      	b.n	10001a02 <__aeabi_double_init+0x22>
10001a72:	331e      	adds	r3, #30
10001a74:	009b      	lsls	r3, r3, #2
10001a76:	50e2      	str	r2, [r4, r3]
10001a78:	64a2      	str	r2, [r4, #72]	; 0x48
10001a7a:	e7c2      	b.n	10001a02 <__aeabi_double_init+0x22>
10001a7c:	2300      	movs	r3, #0
10001a7e:	e7cf      	b.n	10001a20 <__aeabi_double_init+0x40>
10001a80:	00004453 	.word	0x00004453
10001a84:	20000b2c 	.word	0x20000b2c
10001a88:	10001a8d 	.word	0x10001a8d

10001a8c <double_table_shim_on_use_helper>:
10001a8c:	b507      	push	{r0, r1, r2, lr}
10001a8e:	4660      	mov	r0, ip
10001a90:	8801      	ldrh	r1, [r0, #0]
10001a92:	0a0a      	lsrs	r2, r1, #8
10001a94:	3002      	adds	r0, #2
10001a96:	2adf      	cmp	r2, #223	; 0xdf
10001a98:	d1fa      	bne.n	10001a90 <double_table_shim_on_use_helper+0x4>
10001a9a:	b2c9      	uxtb	r1, r1
10001a9c:	0882      	lsrs	r2, r0, #2
10001a9e:	d304      	bcc.n	10001aaa <double_table_shim_on_use_helper+0x1e>
10001aa0:	8802      	ldrh	r2, [r0, #0]
10001aa2:	8840      	ldrh	r0, [r0, #2]
10001aa4:	0400      	lsls	r0, r0, #16
10001aa6:	4310      	orrs	r0, r2
10001aa8:	e000      	b.n	10001aac <double_table_shim_on_use_helper+0x20>
10001aaa:	6800      	ldr	r0, [r0, #0]
10001aac:	4a01      	ldr	r2, [pc, #4]	; (10001ab4 <double_table_shim_on_use_helper+0x28>)
10001aae:	5050      	str	r0, [r2, r1]
10001ab0:	9003      	str	r0, [sp, #12]
10001ab2:	bd07      	pop	{r0, r1, r2, pc}
10001ab4:	20000b2c 	.word	0x20000b2c

10001ab8 <__wrap___aeabi_lmul>:
10001ab8:	4351      	muls	r1, r2
10001aba:	4343      	muls	r3, r0
10001abc:	18c9      	adds	r1, r1, r3
10001abe:	468c      	mov	ip, r1
10001ac0:	0c11      	lsrs	r1, r2, #16
10001ac2:	b283      	uxth	r3, r0
10001ac4:	434b      	muls	r3, r1
10001ac6:	b410      	push	{r4}
10001ac8:	0c04      	lsrs	r4, r0, #16
10001aca:	4361      	muls	r1, r4
10001acc:	b292      	uxth	r2, r2
10001ace:	b280      	uxth	r0, r0
10001ad0:	4350      	muls	r0, r2
10001ad2:	4362      	muls	r2, r4
10001ad4:	041c      	lsls	r4, r3, #16
10001ad6:	0c1b      	lsrs	r3, r3, #16
10001ad8:	1900      	adds	r0, r0, r4
10001ada:	bc10      	pop	{r4}
10001adc:	4159      	adcs	r1, r3
10001ade:	0413      	lsls	r3, r2, #16
10001ae0:	0c12      	lsrs	r2, r2, #16
10001ae2:	18c0      	adds	r0, r0, r3
10001ae4:	4151      	adcs	r1, r2
10001ae6:	4461      	add	r1, ip
10001ae8:	4770      	bx	lr
	...

10001aec <__aeabi_float_init>:
10001aec:	2313      	movs	r3, #19
10001aee:	b510      	push	{r4, lr}
10001af0:	4812      	ldr	r0, [pc, #72]	; (10001b3c <__aeabi_float_init+0x50>)
10001af2:	781c      	ldrb	r4, [r3, #0]
10001af4:	f7ff ff24 	bl	10001940 <rom_data_lookup>
10001af8:	0001      	movs	r1, r0
10001afa:	2c01      	cmp	r4, #1
10001afc:	d00a      	beq.n	10001b14 <__aeabi_float_init+0x28>
10001afe:	dd03      	ble.n	10001b08 <__aeabi_float_init+0x1c>
10001b00:	2280      	movs	r2, #128	; 0x80
10001b02:	480f      	ldr	r0, [pc, #60]	; (10001b40 <__aeabi_float_init+0x54>)
10001b04:	f000 f850 	bl	10001ba8 <__wrap___aeabi_memcpy>
10001b08:	480e      	ldr	r0, [pc, #56]	; (10001b44 <__aeabi_float_init+0x58>)
10001b0a:	f7ff ff11 	bl	10001930 <rom_func_lookup>
10001b0e:	4b0e      	ldr	r3, [pc, #56]	; (10001b48 <__aeabi_float_init+0x5c>)
10001b10:	6018      	str	r0, [r3, #0]
10001b12:	bd10      	pop	{r4, pc}
10001b14:	4c0a      	ldr	r4, [pc, #40]	; (10001b40 <__aeabi_float_init+0x54>)
10001b16:	2254      	movs	r2, #84	; 0x54
10001b18:	0020      	movs	r0, r4
10001b1a:	f000 f845 	bl	10001ba8 <__wrap___aeabi_memcpy>
10001b1e:	4b0b      	ldr	r3, [pc, #44]	; (10001b4c <__aeabi_float_init+0x60>)
10001b20:	6563      	str	r3, [r4, #84]	; 0x54
10001b22:	65a3      	str	r3, [r4, #88]	; 0x58
10001b24:	65e3      	str	r3, [r4, #92]	; 0x5c
10001b26:	6623      	str	r3, [r4, #96]	; 0x60
10001b28:	6663      	str	r3, [r4, #100]	; 0x64
10001b2a:	66a3      	str	r3, [r4, #104]	; 0x68
10001b2c:	66e3      	str	r3, [r4, #108]	; 0x6c
10001b2e:	6723      	str	r3, [r4, #112]	; 0x70
10001b30:	6763      	str	r3, [r4, #116]	; 0x74
10001b32:	67a3      	str	r3, [r4, #120]	; 0x78
10001b34:	67e3      	str	r3, [r4, #124]	; 0x7c
10001b36:	6223      	str	r3, [r4, #32]
10001b38:	61e3      	str	r3, [r4, #28]
10001b3a:	e7e5      	b.n	10001b08 <__aeabi_float_init+0x1c>
10001b3c:	00004653 	.word	0x00004653
10001b40:	20000c2c 	.word	0x20000c2c
10001b44:	0000334c 	.word	0x0000334c
10001b48:	20000d2c 	.word	0x20000d2c
10001b4c:	10001b51 	.word	0x10001b51

10001b50 <float_table_shim_on_use_helper>:
10001b50:	b507      	push	{r0, r1, r2, lr}
10001b52:	4660      	mov	r0, ip
10001b54:	8801      	ldrh	r1, [r0, #0]
10001b56:	0a0a      	lsrs	r2, r1, #8
10001b58:	3002      	adds	r0, #2
10001b5a:	2adf      	cmp	r2, #223	; 0xdf
10001b5c:	d1fa      	bne.n	10001b54 <float_table_shim_on_use_helper+0x4>
10001b5e:	b2c9      	uxtb	r1, r1
10001b60:	0882      	lsrs	r2, r0, #2
10001b62:	d304      	bcc.n	10001b6e <float_table_shim_on_use_helper+0x1e>
10001b64:	8802      	ldrh	r2, [r0, #0]
10001b66:	8840      	ldrh	r0, [r0, #2]
10001b68:	0400      	lsls	r0, r0, #16
10001b6a:	4310      	orrs	r0, r2
10001b6c:	e000      	b.n	10001b70 <float_table_shim_on_use_helper+0x20>
10001b6e:	6800      	ldr	r0, [r0, #0]
10001b70:	4a01      	ldr	r2, [pc, #4]	; (10001b78 <float_table_shim_on_use_helper+0x28>)
10001b72:	5050      	str	r0, [r2, r1]
10001b74:	9003      	str	r0, [sp, #12]
10001b76:	bd07      	pop	{r0, r1, r2, pc}
10001b78:	20000c2c 	.word	0x20000c2c

10001b7c <__wrap_malloc>:
10001b7c:	b510      	push	{r4, lr}
10001b7e:	f000 f971 	bl	10001e64 <malloc>
10001b82:	bd10      	pop	{r4, pc}

10001b84 <__wrap_calloc>:
10001b84:	b510      	push	{r4, lr}
10001b86:	f000 f933 	bl	10001df0 <calloc>
10001b8a:	bd10      	pop	{r4, pc}

10001b8c <__aeabi_mem_init>:
10001b8c:	4801      	ldr	r0, [pc, #4]	; (10001b94 <__aeabi_mem_init+0x8>)
10001b8e:	2104      	movs	r1, #4
10001b90:	4b01      	ldr	r3, [pc, #4]	; (10001b98 <__aeabi_mem_init+0xc>)
10001b92:	4718      	bx	r3
10001b94:	200001f0 	.word	0x200001f0
10001b98:	10001951 	.word	0x10001951

10001b9c <__wrap_memset>:
10001b9c:	4b01      	ldr	r3, [pc, #4]	; (10001ba4 <__wrap_memset+0x8>)
10001b9e:	681b      	ldr	r3, [r3, #0]
10001ba0:	4718      	bx	r3
10001ba2:	0000      	.short	0x0000
10001ba4:	200001f0 	.word	0x200001f0

10001ba8 <__wrap___aeabi_memcpy>:
10001ba8:	4b01      	ldr	r3, [pc, #4]	; (10001bb0 <__wrap___aeabi_memcpy+0x8>)
10001baa:	685b      	ldr	r3, [r3, #4]
10001bac:	4718      	bx	r3
10001bae:	0000      	.short	0x0000
10001bb0:	200001f0 	.word	0x200001f0

10001bb4 <stdio_out_chars_crlf.part.0>:
10001bb4:	b5f8      	push	{r3, r4, r5, r6, r7, lr}
10001bb6:	4647      	mov	r7, r8
10001bb8:	46ce      	mov	lr, r9
10001bba:	000d      	movs	r5, r1
10001bbc:	b580      	push	{r7, lr}
10001bbe:	0016      	movs	r6, r2
10001bc0:	0007      	movs	r7, r0
10001bc2:	2a00      	cmp	r2, #0
10001bc4:	dd20      	ble.n	10001c08 <stdio_out_chars_crlf.part.0+0x54>
10001bc6:	1e4b      	subs	r3, r1, #1
10001bc8:	4698      	mov	r8, r3
10001bca:	4b1a      	ldr	r3, [pc, #104]	; (10001c34 <stdio_out_chars_crlf.part.0+0x80>)
10001bcc:	2400      	movs	r4, #0
10001bce:	2000      	movs	r0, #0
10001bd0:	4699      	mov	r9, r3
10001bd2:	2c00      	cmp	r4, #0
10001bd4:	d02b      	beq.n	10001c2e <stdio_out_chars_crlf.part.0+0x7a>
10001bd6:	4643      	mov	r3, r8
10001bd8:	5d1b      	ldrb	r3, [r3, r4]
10001bda:	3b0d      	subs	r3, #13
10001bdc:	425a      	negs	r2, r3
10001bde:	4153      	adcs	r3, r2
10001be0:	b2db      	uxtb	r3, r3
10001be2:	5d2a      	ldrb	r2, [r5, r4]
10001be4:	2a0a      	cmp	r2, #10
10001be6:	d013      	beq.n	10001c10 <stdio_out_chars_crlf.part.0+0x5c>
10001be8:	3401      	adds	r4, #1
10001bea:	42a6      	cmp	r6, r4
10001bec:	dcf1      	bgt.n	10001bd2 <stdio_out_chars_crlf.part.0+0x1e>
10001bee:	4286      	cmp	r6, r0
10001bf0:	dd03      	ble.n	10001bfa <stdio_out_chars_crlf.part.0+0x46>
10001bf2:	1a31      	subs	r1, r6, r0
10001bf4:	683b      	ldr	r3, [r7, #0]
10001bf6:	1828      	adds	r0, r5, r0
10001bf8:	4798      	blx	r3
10001bfa:	19ad      	adds	r5, r5, r6
10001bfc:	3d01      	subs	r5, #1
10001bfe:	782b      	ldrb	r3, [r5, #0]
10001c00:	3b0d      	subs	r3, #13
10001c02:	425a      	negs	r2, r3
10001c04:	4153      	adcs	r3, r2
10001c06:	743b      	strb	r3, [r7, #16]
10001c08:	bc0c      	pop	{r2, r3}
10001c0a:	4690      	mov	r8, r2
10001c0c:	4699      	mov	r9, r3
10001c0e:	bdf8      	pop	{r3, r4, r5, r6, r7, pc}
10001c10:	2b00      	cmp	r3, #0
10001c12:	d1e9      	bne.n	10001be8 <stdio_out_chars_crlf.part.0+0x34>
10001c14:	42a0      	cmp	r0, r4
10001c16:	da03      	bge.n	10001c20 <stdio_out_chars_crlf.part.0+0x6c>
10001c18:	1a21      	subs	r1, r4, r0
10001c1a:	683b      	ldr	r3, [r7, #0]
10001c1c:	1828      	adds	r0, r5, r0
10001c1e:	4798      	blx	r3
10001c20:	4648      	mov	r0, r9
10001c22:	2102      	movs	r1, #2
10001c24:	683b      	ldr	r3, [r7, #0]
10001c26:	3401      	adds	r4, #1
10001c28:	4798      	blx	r3
10001c2a:	0020      	movs	r0, r4
10001c2c:	e7dd      	b.n	10001bea <stdio_out_chars_crlf.part.0+0x36>
10001c2e:	7c3b      	ldrb	r3, [r7, #16]
10001c30:	e7d7      	b.n	10001be2 <stdio_out_chars_crlf.part.0+0x2e>
10001c32:	46c0      	nop			; (mov r8, r8)
10001c34:	10002838 	.word	0x10002838

10001c38 <stdio_put_string>:
10001c38:	b5f0      	push	{r4, r5, r6, r7, lr}
10001c3a:	4657      	mov	r7, sl
10001c3c:	4645      	mov	r5, r8
10001c3e:	46de      	mov	lr, fp
10001c40:	464e      	mov	r6, r9
10001c42:	23d0      	movs	r3, #208	; 0xd0
10001c44:	b5e0      	push	{r5, r6, r7, lr}
10001c46:	061b      	lsls	r3, r3, #24
10001c48:	681c      	ldr	r4, [r3, #0]
10001c4a:	4b37      	ldr	r3, [pc, #220]	; (10001d28 <stdio_put_string+0xf0>)
10001c4c:	b083      	sub	sp, #12
10001c4e:	0007      	movs	r7, r0
10001c50:	000d      	movs	r5, r1
10001c52:	0018      	movs	r0, r3
10001c54:	a901      	add	r1, sp, #4
10001c56:	4690      	mov	r8, r2
10001c58:	469a      	mov	sl, r3
10001c5a:	f000 fd65 	bl	10002728 <__mutex_try_enter_veneer>
10001c5e:	4681      	mov	r9, r0
10001c60:	2800      	cmp	r0, #0
10001c62:	d107      	bne.n	10001c74 <stdio_put_string+0x3c>
10001c64:	9b01      	ldr	r3, [sp, #4]
10001c66:	429c      	cmp	r4, r3
10001c68:	d004      	beq.n	10001c74 <stdio_put_string+0x3c>
10001c6a:	4650      	mov	r0, sl
10001c6c:	f000 fd64 	bl	10002738 <__mutex_enter_blocking_veneer>
10001c70:	2301      	movs	r3, #1
10001c72:	4699      	mov	r9, r3
10001c74:	1c6b      	adds	r3, r5, #1
10001c76:	d103      	bne.n	10001c80 <stdio_put_string+0x48>
10001c78:	0038      	movs	r0, r7
10001c7a:	f000 fbdf 	bl	1000243c <strlen>
10001c7e:	0005      	movs	r5, r0
10001c80:	4b2a      	ldr	r3, [pc, #168]	; (10001d2c <stdio_put_string+0xf4>)
10001c82:	681c      	ldr	r4, [r3, #0]
10001c84:	2c00      	cmp	r4, #0
10001c86:	d02f      	beq.n	10001ce8 <stdio_put_string+0xb0>
10001c88:	230a      	movs	r3, #10
10001c8a:	4e29      	ldr	r6, [pc, #164]	; (10001d30 <stdio_put_string+0xf8>)
10001c8c:	469b      	mov	fp, r3
10001c8e:	e002      	b.n	10001c96 <stdio_put_string+0x5e>
10001c90:	68e4      	ldr	r4, [r4, #12]
10001c92:	2c00      	cmp	r4, #0
10001c94:	d028      	beq.n	10001ce8 <stdio_put_string+0xb0>
10001c96:	6822      	ldr	r2, [r4, #0]
10001c98:	2a00      	cmp	r2, #0
10001c9a:	d0f9      	beq.n	10001c90 <stdio_put_string+0x58>
10001c9c:	6833      	ldr	r3, [r6, #0]
10001c9e:	2b00      	cmp	r3, #0
10001ca0:	d001      	beq.n	10001ca6 <stdio_put_string+0x6e>
10001ca2:	42a3      	cmp	r3, r4
10001ca4:	d1f4      	bne.n	10001c90 <stdio_put_string+0x58>
10001ca6:	7c63      	ldrb	r3, [r4, #17]
10001ca8:	2b00      	cmp	r3, #0
10001caa:	d02a      	beq.n	10001d02 <stdio_put_string+0xca>
10001cac:	002a      	movs	r2, r5
10001cae:	0039      	movs	r1, r7
10001cb0:	0020      	movs	r0, r4
10001cb2:	f7ff ff7f 	bl	10001bb4 <stdio_out_chars_crlf.part.0>
10001cb6:	4643      	mov	r3, r8
10001cb8:	2b00      	cmp	r3, #0
10001cba:	d0e9      	beq.n	10001c90 <stdio_put_string+0x58>
10001cbc:	466b      	mov	r3, sp
10001cbe:	465a      	mov	r2, fp
10001cc0:	711a      	strb	r2, [r3, #4]
10001cc2:	7c63      	ldrb	r3, [r4, #17]
10001cc4:	2b00      	cmp	r3, #0
10001cc6:	d020      	beq.n	10001d0a <stdio_put_string+0xd2>
10001cc8:	7c23      	ldrb	r3, [r4, #16]
10001cca:	2b00      	cmp	r3, #0
10001ccc:	d026      	beq.n	10001d1c <stdio_put_string+0xe4>
10001cce:	2101      	movs	r1, #1
10001cd0:	6823      	ldr	r3, [r4, #0]
10001cd2:	a801      	add	r0, sp, #4
10001cd4:	4798      	blx	r3
10001cd6:	466b      	mov	r3, sp
10001cd8:	791b      	ldrb	r3, [r3, #4]
10001cda:	3b0d      	subs	r3, #13
10001cdc:	425a      	negs	r2, r3
10001cde:	4153      	adcs	r3, r2
10001ce0:	7423      	strb	r3, [r4, #16]
10001ce2:	68e4      	ldr	r4, [r4, #12]
10001ce4:	2c00      	cmp	r4, #0
10001ce6:	d1d6      	bne.n	10001c96 <stdio_put_string+0x5e>
10001ce8:	464b      	mov	r3, r9
10001cea:	2b00      	cmp	r3, #0
10001cec:	d112      	bne.n	10001d14 <stdio_put_string+0xdc>
10001cee:	1e68      	subs	r0, r5, #1
10001cf0:	4185      	sbcs	r5, r0
10001cf2:	b2e8      	uxtb	r0, r5
10001cf4:	b003      	add	sp, #12
10001cf6:	bc3c      	pop	{r2, r3, r4, r5}
10001cf8:	4690      	mov	r8, r2
10001cfa:	4699      	mov	r9, r3
10001cfc:	46a2      	mov	sl, r4
10001cfe:	46ab      	mov	fp, r5
10001d00:	bdf0      	pop	{r4, r5, r6, r7, pc}
10001d02:	0029      	movs	r1, r5
10001d04:	0038      	movs	r0, r7
10001d06:	4790      	blx	r2
10001d08:	e7d5      	b.n	10001cb6 <stdio_put_string+0x7e>
10001d0a:	2101      	movs	r1, #1
10001d0c:	6823      	ldr	r3, [r4, #0]
10001d0e:	a801      	add	r0, sp, #4
10001d10:	4798      	blx	r3
10001d12:	e7bd      	b.n	10001c90 <stdio_put_string+0x58>
10001d14:	4650      	mov	r0, sl
10001d16:	f000 fcf7 	bl	10002708 <__mutex_exit_veneer>
10001d1a:	e7e8      	b.n	10001cee <stdio_put_string+0xb6>
10001d1c:	2102      	movs	r1, #2
10001d1e:	4805      	ldr	r0, [pc, #20]	; (10001d34 <stdio_put_string+0xfc>)
10001d20:	6823      	ldr	r3, [r4, #0]
10001d22:	4798      	blx	r3
10001d24:	e7d7      	b.n	10001cd6 <stdio_put_string+0x9e>
10001d26:	46c0      	nop			; (mov r8, r8)
10001d28:	20000a40 	.word	0x20000a40
10001d2c:	20000af8 	.word	0x20000af8
10001d30:	20000afc 	.word	0x20000afc
10001d34:	10002838 	.word	0x10002838

10001d38 <__wrap_putchar>:
10001d38:	b510      	push	{r4, lr}
10001d3a:	b082      	sub	sp, #8
10001d3c:	466b      	mov	r3, sp
10001d3e:	0004      	movs	r4, r0
10001d40:	2200      	movs	r2, #0
10001d42:	1dd8      	adds	r0, r3, #7
10001d44:	2101      	movs	r1, #1
10001d46:	7004      	strb	r4, [r0, #0]
10001d48:	f7ff ff76 	bl	10001c38 <stdio_put_string>
10001d4c:	0020      	movs	r0, r4
10001d4e:	b002      	add	sp, #8
10001d50:	bd10      	pop	{r4, pc}
10001d52:	46c0      	nop			; (mov r8, r8)

10001d54 <__wrap_puts>:
10001d54:	b570      	push	{r4, r5, r6, lr}
10001d56:	0004      	movs	r4, r0
10001d58:	f000 fb70 	bl	1000243c <strlen>
10001d5c:	2201      	movs	r2, #1
10001d5e:	0001      	movs	r1, r0
10001d60:	0005      	movs	r5, r0
10001d62:	0020      	movs	r0, r4
10001d64:	f7ff ff68 	bl	10001c38 <stdio_put_string>
10001d68:	4b08      	ldr	r3, [pc, #32]	; (10001d8c <__wrap_puts+0x38>)
10001d6a:	681c      	ldr	r4, [r3, #0]
10001d6c:	2c00      	cmp	r4, #0
10001d6e:	d006      	beq.n	10001d7e <__wrap_puts+0x2a>
10001d70:	6863      	ldr	r3, [r4, #4]
10001d72:	2b00      	cmp	r3, #0
10001d74:	d005      	beq.n	10001d82 <__wrap_puts+0x2e>
10001d76:	4798      	blx	r3
10001d78:	68e4      	ldr	r4, [r4, #12]
10001d7a:	2c00      	cmp	r4, #0
10001d7c:	d1f8      	bne.n	10001d70 <__wrap_puts+0x1c>
10001d7e:	0028      	movs	r0, r5
10001d80:	bd70      	pop	{r4, r5, r6, pc}
10001d82:	68e4      	ldr	r4, [r4, #12]
10001d84:	2c00      	cmp	r4, #0
10001d86:	d1f3      	bne.n	10001d70 <__wrap_puts+0x1c>
10001d88:	e7f9      	b.n	10001d7e <__wrap_puts+0x2a>
10001d8a:	46c0      	nop			; (mov r8, r8)
10001d8c:	20000af8 	.word	0x20000af8

10001d90 <boot_double_tap_check>:
10001d90:	b510      	push	{r4, lr}
10001d92:	4c11      	ldr	r4, [pc, #68]	; (10001dd8 <boot_double_tap_check+0x48>)
10001d94:	4b11      	ldr	r3, [pc, #68]	; (10001ddc <boot_double_tap_check+0x4c>)
10001d96:	6822      	ldr	r2, [r4, #0]
10001d98:	429a      	cmp	r2, r3
10001d9a:	d110      	bne.n	10001dbe <boot_double_tap_check+0x2e>
10001d9c:	4b10      	ldr	r3, [pc, #64]	; (10001de0 <boot_double_tap_check+0x50>)
10001d9e:	6862      	ldr	r2, [r4, #4]
10001da0:	429a      	cmp	r2, r3
10001da2:	d10c      	bne.n	10001dbe <boot_double_tap_check+0x2e>
10001da4:	4b0f      	ldr	r3, [pc, #60]	; (10001de4 <boot_double_tap_check+0x54>)
10001da6:	68a2      	ldr	r2, [r4, #8]
10001da8:	429a      	cmp	r2, r3
10001daa:	d108      	bne.n	10001dbe <boot_double_tap_check+0x2e>
10001dac:	2300      	movs	r3, #0
10001dae:	480e      	ldr	r0, [pc, #56]	; (10001de8 <boot_double_tap_check+0x58>)
10001db0:	6023      	str	r3, [r4, #0]
10001db2:	f7ff fdbd 	bl	10001930 <rom_func_lookup>
10001db6:	2100      	movs	r1, #0
10001db8:	0003      	movs	r3, r0
10001dba:	2000      	movs	r0, #0
10001dbc:	4798      	blx	r3
10001dbe:	4b07      	ldr	r3, [pc, #28]	; (10001ddc <boot_double_tap_check+0x4c>)
10001dc0:	2100      	movs	r1, #0
10001dc2:	6023      	str	r3, [r4, #0]
10001dc4:	4b06      	ldr	r3, [pc, #24]	; (10001de0 <boot_double_tap_check+0x50>)
10001dc6:	4809      	ldr	r0, [pc, #36]	; (10001dec <boot_double_tap_check+0x5c>)
10001dc8:	6063      	str	r3, [r4, #4]
10001dca:	4b06      	ldr	r3, [pc, #24]	; (10001de4 <boot_double_tap_check+0x54>)
10001dcc:	60a3      	str	r3, [r4, #8]
10001dce:	f7fe fe65 	bl	10000a9c <busy_wait_us>
10001dd2:	2300      	movs	r3, #0
10001dd4:	6023      	str	r3, [r4, #0]
10001dd6:	bd10      	pop	{r4, pc}
10001dd8:	20000a60 	.word	0x20000a60
10001ddc:	f01681de 	.word	0xf01681de
10001de0:	bd729b29 	.word	0xbd729b29
10001de4:	d359be7a 	.word	0xd359be7a
10001de8:	00004255 	.word	0x00004255
10001dec:	000186a0 	.word	0x000186a0

10001df0 <calloc>:
10001df0:	0003      	movs	r3, r0
10001df2:	b510      	push	{r4, lr}
10001df4:	000a      	movs	r2, r1
10001df6:	4903      	ldr	r1, [pc, #12]	; (10001e04 <calloc+0x14>)
10001df8:	6808      	ldr	r0, [r1, #0]
10001dfa:	0019      	movs	r1, r3
10001dfc:	f000 f804 	bl	10001e08 <_calloc_r>
10001e00:	bd10      	pop	{r4, pc}
10001e02:	46c0      	nop			; (mov r8, r8)
10001e04:	20000200 	.word	0x20000200

10001e08 <_calloc_r>:
10001e08:	b510      	push	{r4, lr}
10001e0a:	4351      	muls	r1, r2
10001e0c:	f000 f834 	bl	10001e78 <_malloc_r>
10001e10:	1e04      	subs	r4, r0, #0
10001e12:	d00e      	beq.n	10001e32 <_calloc_r+0x2a>
10001e14:	0003      	movs	r3, r0
10001e16:	3b08      	subs	r3, #8
10001e18:	685a      	ldr	r2, [r3, #4]
10001e1a:	2303      	movs	r3, #3
10001e1c:	439a      	bics	r2, r3
10001e1e:	3a04      	subs	r2, #4
10001e20:	2a24      	cmp	r2, #36	; 0x24
10001e22:	d815      	bhi.n	10001e50 <_calloc_r+0x48>
10001e24:	0003      	movs	r3, r0
10001e26:	2a13      	cmp	r2, #19
10001e28:	d805      	bhi.n	10001e36 <_calloc_r+0x2e>
10001e2a:	2200      	movs	r2, #0
10001e2c:	601a      	str	r2, [r3, #0]
10001e2e:	605a      	str	r2, [r3, #4]
10001e30:	609a      	str	r2, [r3, #8]
10001e32:	0020      	movs	r0, r4
10001e34:	bd10      	pop	{r4, pc}
10001e36:	2100      	movs	r1, #0
10001e38:	3308      	adds	r3, #8
10001e3a:	6001      	str	r1, [r0, #0]
10001e3c:	6041      	str	r1, [r0, #4]
10001e3e:	2a1b      	cmp	r2, #27
10001e40:	d9f3      	bls.n	10001e2a <_calloc_r+0x22>
10001e42:	6081      	str	r1, [r0, #8]
10001e44:	60c1      	str	r1, [r0, #12]
10001e46:	2a24      	cmp	r2, #36	; 0x24
10001e48:	d006      	beq.n	10001e58 <_calloc_r+0x50>
10001e4a:	0003      	movs	r3, r0
10001e4c:	3310      	adds	r3, #16
10001e4e:	e7ec      	b.n	10001e2a <_calloc_r+0x22>
10001e50:	2100      	movs	r1, #0
10001e52:	f7ff fea3 	bl	10001b9c <__wrap_memset>
10001e56:	e7ec      	b.n	10001e32 <_calloc_r+0x2a>
10001e58:	0003      	movs	r3, r0
10001e5a:	6101      	str	r1, [r0, #16]
10001e5c:	3318      	adds	r3, #24
10001e5e:	6141      	str	r1, [r0, #20]
10001e60:	e7e3      	b.n	10001e2a <_calloc_r+0x22>
10001e62:	46c0      	nop			; (mov r8, r8)

10001e64 <malloc>:
10001e64:	b510      	push	{r4, lr}
10001e66:	4b03      	ldr	r3, [pc, #12]	; (10001e74 <malloc+0x10>)
10001e68:	0001      	movs	r1, r0
10001e6a:	6818      	ldr	r0, [r3, #0]
10001e6c:	f000 f804 	bl	10001e78 <_malloc_r>
10001e70:	bd10      	pop	{r4, pc}
10001e72:	46c0      	nop			; (mov r8, r8)
10001e74:	20000200 	.word	0x20000200

10001e78 <_malloc_r>:
10001e78:	b5f0      	push	{r4, r5, r6, r7, lr}
10001e7a:	464e      	mov	r6, r9
10001e7c:	4645      	mov	r5, r8
10001e7e:	46de      	mov	lr, fp
10001e80:	4657      	mov	r7, sl
10001e82:	b5e0      	push	{r5, r6, r7, lr}
10001e84:	000d      	movs	r5, r1
10001e86:	350b      	adds	r5, #11
10001e88:	0006      	movs	r6, r0
10001e8a:	b083      	sub	sp, #12
10001e8c:	2d16      	cmp	r5, #22
10001e8e:	d822      	bhi.n	10001ed6 <_malloc_r+0x5e>
10001e90:	2910      	cmp	r1, #16
10001e92:	d900      	bls.n	10001e96 <_malloc_r+0x1e>
10001e94:	e0b2      	b.n	10001ffc <_malloc_r+0x184>
10001e96:	f000 faaf 	bl	100023f8 <__malloc_lock>
10001e9a:	2510      	movs	r5, #16
10001e9c:	2002      	movs	r0, #2
10001e9e:	2318      	movs	r3, #24
10001ea0:	4fcb      	ldr	r7, [pc, #812]	; (100021d0 <_malloc_r+0x358>)
10001ea2:	18fb      	adds	r3, r7, r3
10001ea4:	001a      	movs	r2, r3
10001ea6:	685c      	ldr	r4, [r3, #4]
10001ea8:	3a08      	subs	r2, #8
10001eaa:	4294      	cmp	r4, r2
10001eac:	d100      	bne.n	10001eb0 <_malloc_r+0x38>
10001eae:	e0b5      	b.n	1000201c <_malloc_r+0x1a4>
10001eb0:	2303      	movs	r3, #3
10001eb2:	6862      	ldr	r2, [r4, #4]
10001eb4:	439a      	bics	r2, r3
10001eb6:	0013      	movs	r3, r2
10001eb8:	68e2      	ldr	r2, [r4, #12]
10001eba:	68a1      	ldr	r1, [r4, #8]
10001ebc:	60ca      	str	r2, [r1, #12]
10001ebe:	6091      	str	r1, [r2, #8]
10001ec0:	2201      	movs	r2, #1
10001ec2:	18e3      	adds	r3, r4, r3
10001ec4:	6859      	ldr	r1, [r3, #4]
10001ec6:	0030      	movs	r0, r6
10001ec8:	430a      	orrs	r2, r1
10001eca:	605a      	str	r2, [r3, #4]
10001ecc:	f000 fa9c 	bl	10002408 <__malloc_unlock>
10001ed0:	0020      	movs	r0, r4
10001ed2:	3008      	adds	r0, #8
10001ed4:	e095      	b.n	10002002 <_malloc_r+0x18a>
10001ed6:	2307      	movs	r3, #7
10001ed8:	439d      	bics	r5, r3
10001eda:	d500      	bpl.n	10001ede <_malloc_r+0x66>
10001edc:	e08e      	b.n	10001ffc <_malloc_r+0x184>
10001ede:	42a9      	cmp	r1, r5
10001ee0:	d900      	bls.n	10001ee4 <_malloc_r+0x6c>
10001ee2:	e08b      	b.n	10001ffc <_malloc_r+0x184>
10001ee4:	f000 fa88 	bl	100023f8 <__malloc_lock>
10001ee8:	23fc      	movs	r3, #252	; 0xfc
10001eea:	005b      	lsls	r3, r3, #1
10001eec:	429d      	cmp	r5, r3
10001eee:	d200      	bcs.n	10001ef2 <_malloc_r+0x7a>
10001ef0:	e1a5      	b.n	1000223e <_malloc_r+0x3c6>
10001ef2:	0a68      	lsrs	r0, r5, #9
10001ef4:	d100      	bne.n	10001ef8 <_malloc_r+0x80>
10001ef6:	e08b      	b.n	10002010 <_malloc_r+0x198>
10001ef8:	2804      	cmp	r0, #4
10001efa:	d900      	bls.n	10001efe <_malloc_r+0x86>
10001efc:	e178      	b.n	100021f0 <_malloc_r+0x378>
10001efe:	2338      	movs	r3, #56	; 0x38
10001f00:	4698      	mov	r8, r3
10001f02:	09a8      	lsrs	r0, r5, #6
10001f04:	4480      	add	r8, r0
10001f06:	3039      	adds	r0, #57	; 0x39
10001f08:	00c1      	lsls	r1, r0, #3
10001f0a:	4fb1      	ldr	r7, [pc, #708]	; (100021d0 <_malloc_r+0x358>)
10001f0c:	1879      	adds	r1, r7, r1
10001f0e:	684c      	ldr	r4, [r1, #4]
10001f10:	3908      	subs	r1, #8
10001f12:	42a1      	cmp	r1, r4
10001f14:	d00e      	beq.n	10001f34 <_malloc_r+0xbc>
10001f16:	2303      	movs	r3, #3
10001f18:	469c      	mov	ip, r3
10001f1a:	e004      	b.n	10001f26 <_malloc_r+0xae>
10001f1c:	2a00      	cmp	r2, #0
10001f1e:	dacb      	bge.n	10001eb8 <_malloc_r+0x40>
10001f20:	68e4      	ldr	r4, [r4, #12]
10001f22:	42a1      	cmp	r1, r4
10001f24:	d006      	beq.n	10001f34 <_malloc_r+0xbc>
10001f26:	4662      	mov	r2, ip
10001f28:	6863      	ldr	r3, [r4, #4]
10001f2a:	4393      	bics	r3, r2
10001f2c:	1b5a      	subs	r2, r3, r5
10001f2e:	2a0f      	cmp	r2, #15
10001f30:	ddf4      	ble.n	10001f1c <_malloc_r+0xa4>
10001f32:	4640      	mov	r0, r8
10001f34:	003a      	movs	r2, r7
10001f36:	693c      	ldr	r4, [r7, #16]
10001f38:	3208      	adds	r2, #8
10001f3a:	4294      	cmp	r4, r2
10001f3c:	d100      	bne.n	10001f40 <_malloc_r+0xc8>
10001f3e:	e078      	b.n	10002032 <_malloc_r+0x1ba>
10001f40:	2303      	movs	r3, #3
10001f42:	6861      	ldr	r1, [r4, #4]
10001f44:	4399      	bics	r1, r3
10001f46:	4689      	mov	r9, r1
10001f48:	000b      	movs	r3, r1
10001f4a:	1b49      	subs	r1, r1, r5
10001f4c:	290f      	cmp	r1, #15
10001f4e:	dd00      	ble.n	10001f52 <_malloc_r+0xda>
10001f50:	e179      	b.n	10002246 <_malloc_r+0x3ce>
10001f52:	617a      	str	r2, [r7, #20]
10001f54:	613a      	str	r2, [r7, #16]
10001f56:	2900      	cmp	r1, #0
10001f58:	dab2      	bge.n	10001ec0 <_malloc_r+0x48>
10001f5a:	2280      	movs	r2, #128	; 0x80
10001f5c:	0092      	lsls	r2, r2, #2
10001f5e:	4591      	cmp	r9, r2
10001f60:	d300      	bcc.n	10001f64 <_malloc_r+0xec>
10001f62:	e10e      	b.n	10002182 <_malloc_r+0x30a>
10001f64:	0959      	lsrs	r1, r3, #5
10001f66:	08da      	lsrs	r2, r3, #3
10001f68:	2301      	movs	r3, #1
10001f6a:	408b      	lsls	r3, r1
10001f6c:	00d2      	lsls	r2, r2, #3
10001f6e:	6879      	ldr	r1, [r7, #4]
10001f70:	19d2      	adds	r2, r2, r7
10001f72:	430b      	orrs	r3, r1
10001f74:	6891      	ldr	r1, [r2, #8]
10001f76:	607b      	str	r3, [r7, #4]
10001f78:	60e2      	str	r2, [r4, #12]
10001f7a:	60a1      	str	r1, [r4, #8]
10001f7c:	6094      	str	r4, [r2, #8]
10001f7e:	60cc      	str	r4, [r1, #12]
10001f80:	2101      	movs	r1, #1
10001f82:	1082      	asrs	r2, r0, #2
10001f84:	4091      	lsls	r1, r2
10001f86:	4299      	cmp	r1, r3
10001f88:	d859      	bhi.n	1000203e <_malloc_r+0x1c6>
10001f8a:	420b      	tst	r3, r1
10001f8c:	d105      	bne.n	10001f9a <_malloc_r+0x122>
10001f8e:	2203      	movs	r2, #3
10001f90:	4390      	bics	r0, r2
10001f92:	0049      	lsls	r1, r1, #1
10001f94:	3004      	adds	r0, #4
10001f96:	420b      	tst	r3, r1
10001f98:	d0fb      	beq.n	10001f92 <_malloc_r+0x11a>
10001f9a:	2303      	movs	r3, #3
10001f9c:	4698      	mov	r8, r3
10001f9e:	00c3      	lsls	r3, r0, #3
10001fa0:	4699      	mov	r9, r3
10001fa2:	44b9      	add	r9, r7
10001fa4:	46cc      	mov	ip, r9
10001fa6:	4682      	mov	sl, r0
10001fa8:	4663      	mov	r3, ip
10001faa:	68dc      	ldr	r4, [r3, #12]
10001fac:	45a4      	cmp	ip, r4
10001fae:	d107      	bne.n	10001fc0 <_malloc_r+0x148>
10001fb0:	e12a      	b.n	10002208 <_malloc_r+0x390>
10001fb2:	2a00      	cmp	r2, #0
10001fb4:	db00      	blt.n	10001fb8 <_malloc_r+0x140>
10001fb6:	e133      	b.n	10002220 <_malloc_r+0x3a8>
10001fb8:	68e4      	ldr	r4, [r4, #12]
10001fba:	45a4      	cmp	ip, r4
10001fbc:	d100      	bne.n	10001fc0 <_malloc_r+0x148>
10001fbe:	e123      	b.n	10002208 <_malloc_r+0x390>
10001fc0:	4642      	mov	r2, r8
10001fc2:	6863      	ldr	r3, [r4, #4]
10001fc4:	4393      	bics	r3, r2
10001fc6:	1b5a      	subs	r2, r3, r5
10001fc8:	2a0f      	cmp	r2, #15
10001fca:	ddf2      	ble.n	10001fb2 <_malloc_r+0x13a>
10001fcc:	2001      	movs	r0, #1
10001fce:	4680      	mov	r8, r0
10001fd0:	1961      	adds	r1, r4, r5
10001fd2:	4305      	orrs	r5, r0
10001fd4:	6065      	str	r5, [r4, #4]
10001fd6:	68a0      	ldr	r0, [r4, #8]
10001fd8:	68e5      	ldr	r5, [r4, #12]
10001fda:	3708      	adds	r7, #8
10001fdc:	60c5      	str	r5, [r0, #12]
10001fde:	60a8      	str	r0, [r5, #8]
10001fe0:	4640      	mov	r0, r8
10001fe2:	4310      	orrs	r0, r2
10001fe4:	60f9      	str	r1, [r7, #12]
10001fe6:	60b9      	str	r1, [r7, #8]
10001fe8:	6048      	str	r0, [r1, #4]
10001fea:	60cf      	str	r7, [r1, #12]
10001fec:	0030      	movs	r0, r6
10001fee:	608f      	str	r7, [r1, #8]
10001ff0:	50e2      	str	r2, [r4, r3]
10001ff2:	f000 fa09 	bl	10002408 <__malloc_unlock>
10001ff6:	0020      	movs	r0, r4
10001ff8:	3008      	adds	r0, #8
10001ffa:	e002      	b.n	10002002 <_malloc_r+0x18a>
10001ffc:	230c      	movs	r3, #12
10001ffe:	2000      	movs	r0, #0
10002000:	6033      	str	r3, [r6, #0]
10002002:	b003      	add	sp, #12
10002004:	bc3c      	pop	{r2, r3, r4, r5}
10002006:	4690      	mov	r8, r2
10002008:	4699      	mov	r9, r3
1000200a:	46a2      	mov	sl, r4
1000200c:	46ab      	mov	fp, r5
1000200e:	bdf0      	pop	{r4, r5, r6, r7, pc}
10002010:	2180      	movs	r1, #128	; 0x80
10002012:	233f      	movs	r3, #63	; 0x3f
10002014:	2040      	movs	r0, #64	; 0x40
10002016:	4698      	mov	r8, r3
10002018:	0089      	lsls	r1, r1, #2
1000201a:	e776      	b.n	10001f0a <_malloc_r+0x92>
1000201c:	68dc      	ldr	r4, [r3, #12]
1000201e:	3002      	adds	r0, #2
10002020:	42a3      	cmp	r3, r4
10002022:	d000      	beq.n	10002026 <_malloc_r+0x1ae>
10002024:	e744      	b.n	10001eb0 <_malloc_r+0x38>
10002026:	003a      	movs	r2, r7
10002028:	693c      	ldr	r4, [r7, #16]
1000202a:	3208      	adds	r2, #8
1000202c:	4294      	cmp	r4, r2
1000202e:	d000      	beq.n	10002032 <_malloc_r+0x1ba>
10002030:	e786      	b.n	10001f40 <_malloc_r+0xc8>
10002032:	2101      	movs	r1, #1
10002034:	687b      	ldr	r3, [r7, #4]
10002036:	1082      	asrs	r2, r0, #2
10002038:	4091      	lsls	r1, r2
1000203a:	4299      	cmp	r1, r3
1000203c:	d9a5      	bls.n	10001f8a <_malloc_r+0x112>
1000203e:	2303      	movs	r3, #3
10002040:	68bc      	ldr	r4, [r7, #8]
10002042:	6862      	ldr	r2, [r4, #4]
10002044:	439a      	bics	r2, r3
10002046:	4691      	mov	r9, r2
10002048:	4295      	cmp	r5, r2
1000204a:	d803      	bhi.n	10002054 <_malloc_r+0x1dc>
1000204c:	1b53      	subs	r3, r2, r5
1000204e:	2b0f      	cmp	r3, #15
10002050:	dd00      	ble.n	10002054 <_malloc_r+0x1dc>
10002052:	e088      	b.n	10002166 <_malloc_r+0x2ee>
10002054:	0023      	movs	r3, r4
10002056:	444b      	add	r3, r9
10002058:	4a5e      	ldr	r2, [pc, #376]	; (100021d4 <_malloc_r+0x35c>)
1000205a:	9301      	str	r3, [sp, #4]
1000205c:	4b5e      	ldr	r3, [pc, #376]	; (100021d8 <_malloc_r+0x360>)
1000205e:	4693      	mov	fp, r2
10002060:	681b      	ldr	r3, [r3, #0]
10002062:	6812      	ldr	r2, [r2, #0]
10002064:	18eb      	adds	r3, r5, r3
10002066:	3201      	adds	r2, #1
10002068:	d100      	bne.n	1000206c <_malloc_r+0x1f4>
1000206a:	e13b      	b.n	100022e4 <_malloc_r+0x46c>
1000206c:	4a5b      	ldr	r2, [pc, #364]	; (100021dc <_malloc_r+0x364>)
1000206e:	4694      	mov	ip, r2
10002070:	4463      	add	r3, ip
10002072:	0b1b      	lsrs	r3, r3, #12
10002074:	031b      	lsls	r3, r3, #12
10002076:	9300      	str	r3, [sp, #0]
10002078:	0030      	movs	r0, r6
1000207a:	9900      	ldr	r1, [sp, #0]
1000207c:	f000 f9cc 	bl	10002418 <_sbrk_r>
10002080:	0003      	movs	r3, r0
10002082:	4680      	mov	r8, r0
10002084:	3301      	adds	r3, #1
10002086:	d100      	bne.n	1000208a <_malloc_r+0x212>
10002088:	e0f8      	b.n	1000227c <_malloc_r+0x404>
1000208a:	9b01      	ldr	r3, [sp, #4]
1000208c:	4283      	cmp	r3, r0
1000208e:	d900      	bls.n	10002092 <_malloc_r+0x21a>
10002090:	e0f2      	b.n	10002278 <_malloc_r+0x400>
10002092:	4b53      	ldr	r3, [pc, #332]	; (100021e0 <_malloc_r+0x368>)
10002094:	0019      	movs	r1, r3
10002096:	469a      	mov	sl, r3
10002098:	6809      	ldr	r1, [r1, #0]
1000209a:	9b00      	ldr	r3, [sp, #0]
1000209c:	468c      	mov	ip, r1
1000209e:	4651      	mov	r1, sl
100020a0:	4463      	add	r3, ip
100020a2:	600b      	str	r3, [r1, #0]
100020a4:	9901      	ldr	r1, [sp, #4]
100020a6:	001a      	movs	r2, r3
100020a8:	4281      	cmp	r1, r0
100020aa:	d100      	bne.n	100020ae <_malloc_r+0x236>
100020ac:	e150      	b.n	10002350 <_malloc_r+0x4d8>
100020ae:	465b      	mov	r3, fp
100020b0:	681b      	ldr	r3, [r3, #0]
100020b2:	3301      	adds	r3, #1
100020b4:	d100      	bne.n	100020b8 <_malloc_r+0x240>
100020b6:	e155      	b.n	10002364 <_malloc_r+0x4ec>
100020b8:	4643      	mov	r3, r8
100020ba:	9901      	ldr	r1, [sp, #4]
100020bc:	1a5b      	subs	r3, r3, r1
100020be:	189a      	adds	r2, r3, r2
100020c0:	4653      	mov	r3, sl
100020c2:	601a      	str	r2, [r3, #0]
100020c4:	2307      	movs	r3, #7
100020c6:	4642      	mov	r2, r8
100020c8:	4641      	mov	r1, r8
100020ca:	401a      	ands	r2, r3
100020cc:	9201      	str	r2, [sp, #4]
100020ce:	4219      	tst	r1, r3
100020d0:	d100      	bne.n	100020d4 <_malloc_r+0x25c>
100020d2:	e111      	b.n	100022f8 <_malloc_r+0x480>
100020d4:	2308      	movs	r3, #8
100020d6:	4698      	mov	r8, r3
100020d8:	1a88      	subs	r0, r1, r2
100020da:	4b42      	ldr	r3, [pc, #264]	; (100021e4 <_malloc_r+0x36c>)
100020dc:	9900      	ldr	r1, [sp, #0]
100020de:	4480      	add	r8, r0
100020e0:	4441      	add	r1, r8
100020e2:	1a9b      	subs	r3, r3, r2
100020e4:	1a5b      	subs	r3, r3, r1
100020e6:	051b      	lsls	r3, r3, #20
100020e8:	0d1b      	lsrs	r3, r3, #20
100020ea:	9100      	str	r1, [sp, #0]
100020ec:	0030      	movs	r0, r6
100020ee:	0019      	movs	r1, r3
100020f0:	469b      	mov	fp, r3
100020f2:	f000 f991 	bl	10002418 <_sbrk_r>
100020f6:	1c43      	adds	r3, r0, #1
100020f8:	d100      	bne.n	100020fc <_malloc_r+0x284>
100020fa:	e14f      	b.n	1000239c <_malloc_r+0x524>
100020fc:	4643      	mov	r3, r8
100020fe:	1ac0      	subs	r0, r0, r3
10002100:	0003      	movs	r3, r0
10002102:	445b      	add	r3, fp
10002104:	9300      	str	r3, [sp, #0]
10002106:	4653      	mov	r3, sl
10002108:	4652      	mov	r2, sl
1000210a:	681b      	ldr	r3, [r3, #0]
1000210c:	2101      	movs	r1, #1
1000210e:	445b      	add	r3, fp
10002110:	6013      	str	r3, [r2, #0]
10002112:	4642      	mov	r2, r8
10002114:	4640      	mov	r0, r8
10002116:	60ba      	str	r2, [r7, #8]
10002118:	9a00      	ldr	r2, [sp, #0]
1000211a:	430a      	orrs	r2, r1
1000211c:	6042      	str	r2, [r0, #4]
1000211e:	42bc      	cmp	r4, r7
10002120:	d100      	bne.n	10002124 <_malloc_r+0x2ac>
10002122:	e123      	b.n	1000236c <_malloc_r+0x4f4>
10002124:	464a      	mov	r2, r9
10002126:	2a0f      	cmp	r2, #15
10002128:	d800      	bhi.n	1000212c <_malloc_r+0x2b4>
1000212a:	e121      	b.n	10002370 <_malloc_r+0x4f8>
1000212c:	2007      	movs	r0, #7
1000212e:	3a0c      	subs	r2, #12
10002130:	4382      	bics	r2, r0
10002132:	6860      	ldr	r0, [r4, #4]
10002134:	4001      	ands	r1, r0
10002136:	2005      	movs	r0, #5
10002138:	4311      	orrs	r1, r2
1000213a:	6061      	str	r1, [r4, #4]
1000213c:	18a1      	adds	r1, r4, r2
1000213e:	6048      	str	r0, [r1, #4]
10002140:	6088      	str	r0, [r1, #8]
10002142:	2a0f      	cmp	r2, #15
10002144:	d900      	bls.n	10002148 <_malloc_r+0x2d0>
10002146:	e134      	b.n	100023b2 <_malloc_r+0x53a>
10002148:	4642      	mov	r2, r8
1000214a:	4644      	mov	r4, r8
1000214c:	6852      	ldr	r2, [r2, #4]
1000214e:	4926      	ldr	r1, [pc, #152]	; (100021e8 <_malloc_r+0x370>)
10002150:	6808      	ldr	r0, [r1, #0]
10002152:	4298      	cmp	r0, r3
10002154:	d200      	bcs.n	10002158 <_malloc_r+0x2e0>
10002156:	600b      	str	r3, [r1, #0]
10002158:	4924      	ldr	r1, [pc, #144]	; (100021ec <_malloc_r+0x374>)
1000215a:	6808      	ldr	r0, [r1, #0]
1000215c:	4298      	cmp	r0, r3
1000215e:	d300      	bcc.n	10002162 <_malloc_r+0x2ea>
10002160:	e08e      	b.n	10002280 <_malloc_r+0x408>
10002162:	600b      	str	r3, [r1, #0]
10002164:	e08c      	b.n	10002280 <_malloc_r+0x408>
10002166:	2201      	movs	r2, #1
10002168:	0029      	movs	r1, r5
1000216a:	4313      	orrs	r3, r2
1000216c:	4311      	orrs	r1, r2
1000216e:	1965      	adds	r5, r4, r5
10002170:	6061      	str	r1, [r4, #4]
10002172:	0030      	movs	r0, r6
10002174:	60bd      	str	r5, [r7, #8]
10002176:	606b      	str	r3, [r5, #4]
10002178:	f000 f946 	bl	10002408 <__malloc_unlock>
1000217c:	0020      	movs	r0, r4
1000217e:	3008      	adds	r0, #8
10002180:	e73f      	b.n	10002002 <_malloc_r+0x18a>
10002182:	0a5a      	lsrs	r2, r3, #9
10002184:	2a04      	cmp	r2, #4
10002186:	d971      	bls.n	1000226c <_malloc_r+0x3f4>
10002188:	2a14      	cmp	r2, #20
1000218a:	d900      	bls.n	1000218e <_malloc_r+0x316>
1000218c:	e0c4      	b.n	10002318 <_malloc_r+0x4a0>
1000218e:	0011      	movs	r1, r2
10002190:	325c      	adds	r2, #92	; 0x5c
10002192:	315b      	adds	r1, #91	; 0x5b
10002194:	00d2      	lsls	r2, r2, #3
10002196:	2308      	movs	r3, #8
10002198:	425b      	negs	r3, r3
1000219a:	469c      	mov	ip, r3
1000219c:	18ba      	adds	r2, r7, r2
1000219e:	4494      	add	ip, r2
100021a0:	4663      	mov	r3, ip
100021a2:	689a      	ldr	r2, [r3, #8]
100021a4:	2303      	movs	r3, #3
100021a6:	4698      	mov	r8, r3
100021a8:	4594      	cmp	ip, r2
100021aa:	d100      	bne.n	100021ae <_malloc_r+0x336>
100021ac:	e09d      	b.n	100022ea <_malloc_r+0x472>
100021ae:	4643      	mov	r3, r8
100021b0:	6851      	ldr	r1, [r2, #4]
100021b2:	4399      	bics	r1, r3
100021b4:	4549      	cmp	r1, r9
100021b6:	d902      	bls.n	100021be <_malloc_r+0x346>
100021b8:	6892      	ldr	r2, [r2, #8]
100021ba:	4594      	cmp	ip, r2
100021bc:	d1f7      	bne.n	100021ae <_malloc_r+0x336>
100021be:	68d3      	ldr	r3, [r2, #12]
100021c0:	469c      	mov	ip, r3
100021c2:	687b      	ldr	r3, [r7, #4]
100021c4:	4661      	mov	r1, ip
100021c6:	60a2      	str	r2, [r4, #8]
100021c8:	60e1      	str	r1, [r4, #12]
100021ca:	608c      	str	r4, [r1, #8]
100021cc:	60d4      	str	r4, [r2, #12]
100021ce:	e6d7      	b.n	10001f80 <_malloc_r+0x108>
100021d0:	20000630 	.word	0x20000630
100021d4:	20000a38 	.word	0x20000a38
100021d8:	20000ab8 	.word	0x20000ab8
100021dc:	0000100f 	.word	0x0000100f
100021e0:	20000a88 	.word	0x20000a88
100021e4:	00001008 	.word	0x00001008
100021e8:	20000ab0 	.word	0x20000ab0
100021ec:	20000ab4 	.word	0x20000ab4
100021f0:	2814      	cmp	r0, #20
100021f2:	d952      	bls.n	1000229a <_malloc_r+0x422>
100021f4:	2854      	cmp	r0, #84	; 0x54
100021f6:	d900      	bls.n	100021fa <_malloc_r+0x382>
100021f8:	e096      	b.n	10002328 <_malloc_r+0x4b0>
100021fa:	236e      	movs	r3, #110	; 0x6e
100021fc:	4698      	mov	r8, r3
100021fe:	0b28      	lsrs	r0, r5, #12
10002200:	4480      	add	r8, r0
10002202:	306f      	adds	r0, #111	; 0x6f
10002204:	00c1      	lsls	r1, r0, #3
10002206:	e680      	b.n	10001f0a <_malloc_r+0x92>
10002208:	2308      	movs	r3, #8
1000220a:	469b      	mov	fp, r3
1000220c:	3b07      	subs	r3, #7
1000220e:	44dc      	add	ip, fp
10002210:	469b      	mov	fp, r3
10002212:	44da      	add	sl, fp
10002214:	4643      	mov	r3, r8
10002216:	4652      	mov	r2, sl
10002218:	4213      	tst	r3, r2
1000221a:	d000      	beq.n	1000221e <_malloc_r+0x3a6>
1000221c:	e6c4      	b.n	10001fa8 <_malloc_r+0x130>
1000221e:	e04c      	b.n	100022ba <_malloc_r+0x442>
10002220:	2201      	movs	r2, #1
10002222:	18e3      	adds	r3, r4, r3
10002224:	6859      	ldr	r1, [r3, #4]
10002226:	0030      	movs	r0, r6
10002228:	430a      	orrs	r2, r1
1000222a:	605a      	str	r2, [r3, #4]
1000222c:	68e3      	ldr	r3, [r4, #12]
1000222e:	68a2      	ldr	r2, [r4, #8]
10002230:	60d3      	str	r3, [r2, #12]
10002232:	609a      	str	r2, [r3, #8]
10002234:	f000 f8e8 	bl	10002408 <__malloc_unlock>
10002238:	0020      	movs	r0, r4
1000223a:	3008      	adds	r0, #8
1000223c:	e6e1      	b.n	10002002 <_malloc_r+0x18a>
1000223e:	002b      	movs	r3, r5
10002240:	08e8      	lsrs	r0, r5, #3
10002242:	3308      	adds	r3, #8
10002244:	e62c      	b.n	10001ea0 <_malloc_r+0x28>
10002246:	2301      	movs	r3, #1
10002248:	1960      	adds	r0, r4, r5
1000224a:	431d      	orrs	r5, r3
1000224c:	6065      	str	r5, [r4, #4]
1000224e:	6178      	str	r0, [r7, #20]
10002250:	6138      	str	r0, [r7, #16]
10002252:	60c2      	str	r2, [r0, #12]
10002254:	6082      	str	r2, [r0, #8]
10002256:	001a      	movs	r2, r3
10002258:	464b      	mov	r3, r9
1000225a:	430a      	orrs	r2, r1
1000225c:	6042      	str	r2, [r0, #4]
1000225e:	0030      	movs	r0, r6
10002260:	50e1      	str	r1, [r4, r3]
10002262:	f000 f8d1 	bl	10002408 <__malloc_unlock>
10002266:	0020      	movs	r0, r4
10002268:	3008      	adds	r0, #8
1000226a:	e6ca      	b.n	10002002 <_malloc_r+0x18a>
1000226c:	099a      	lsrs	r2, r3, #6
1000226e:	0011      	movs	r1, r2
10002270:	3239      	adds	r2, #57	; 0x39
10002272:	3138      	adds	r1, #56	; 0x38
10002274:	00d2      	lsls	r2, r2, #3
10002276:	e78e      	b.n	10002196 <_malloc_r+0x31e>
10002278:	42bc      	cmp	r4, r7
1000227a:	d060      	beq.n	1000233e <_malloc_r+0x4c6>
1000227c:	68bc      	ldr	r4, [r7, #8]
1000227e:	6862      	ldr	r2, [r4, #4]
10002280:	2303      	movs	r3, #3
10002282:	439a      	bics	r2, r3
10002284:	1b53      	subs	r3, r2, r5
10002286:	4295      	cmp	r5, r2
10002288:	d802      	bhi.n	10002290 <_malloc_r+0x418>
1000228a:	2b0f      	cmp	r3, #15
1000228c:	dd00      	ble.n	10002290 <_malloc_r+0x418>
1000228e:	e76a      	b.n	10002166 <_malloc_r+0x2ee>
10002290:	0030      	movs	r0, r6
10002292:	f000 f8b9 	bl	10002408 <__malloc_unlock>
10002296:	2000      	movs	r0, #0
10002298:	e6b3      	b.n	10002002 <_malloc_r+0x18a>
1000229a:	235b      	movs	r3, #91	; 0x5b
1000229c:	4698      	mov	r8, r3
1000229e:	4480      	add	r8, r0
100022a0:	305c      	adds	r0, #92	; 0x5c
100022a2:	00c1      	lsls	r1, r0, #3
100022a4:	e631      	b.n	10001f0a <_malloc_r+0x92>
100022a6:	2308      	movs	r3, #8
100022a8:	425b      	negs	r3, r3
100022aa:	469c      	mov	ip, r3
100022ac:	44e1      	add	r9, ip
100022ae:	464b      	mov	r3, r9
100022b0:	689b      	ldr	r3, [r3, #8]
100022b2:	3801      	subs	r0, #1
100022b4:	454b      	cmp	r3, r9
100022b6:	d000      	beq.n	100022ba <_malloc_r+0x442>
100022b8:	e098      	b.n	100023ec <_malloc_r+0x574>
100022ba:	4643      	mov	r3, r8
100022bc:	4203      	tst	r3, r0
100022be:	d1f2      	bne.n	100022a6 <_malloc_r+0x42e>
100022c0:	687b      	ldr	r3, [r7, #4]
100022c2:	438b      	bics	r3, r1
100022c4:	607b      	str	r3, [r7, #4]
100022c6:	0049      	lsls	r1, r1, #1
100022c8:	4299      	cmp	r1, r3
100022ca:	d900      	bls.n	100022ce <_malloc_r+0x456>
100022cc:	e6b7      	b.n	1000203e <_malloc_r+0x1c6>
100022ce:	2900      	cmp	r1, #0
100022d0:	d104      	bne.n	100022dc <_malloc_r+0x464>
100022d2:	e6b4      	b.n	1000203e <_malloc_r+0x1c6>
100022d4:	2204      	movs	r2, #4
100022d6:	4694      	mov	ip, r2
100022d8:	0049      	lsls	r1, r1, #1
100022da:	44e2      	add	sl, ip
100022dc:	420b      	tst	r3, r1
100022de:	d0f9      	beq.n	100022d4 <_malloc_r+0x45c>
100022e0:	4650      	mov	r0, sl
100022e2:	e65c      	b.n	10001f9e <_malloc_r+0x126>
100022e4:	3310      	adds	r3, #16
100022e6:	9300      	str	r3, [sp, #0]
100022e8:	e6c6      	b.n	10002078 <_malloc_r+0x200>
100022ea:	1089      	asrs	r1, r1, #2
100022ec:	3b02      	subs	r3, #2
100022ee:	408b      	lsls	r3, r1
100022f0:	6879      	ldr	r1, [r7, #4]
100022f2:	430b      	orrs	r3, r1
100022f4:	607b      	str	r3, [r7, #4]
100022f6:	e765      	b.n	100021c4 <_malloc_r+0x34c>
100022f8:	9b00      	ldr	r3, [sp, #0]
100022fa:	0030      	movs	r0, r6
100022fc:	4443      	add	r3, r8
100022fe:	425b      	negs	r3, r3
10002300:	051b      	lsls	r3, r3, #20
10002302:	0d1b      	lsrs	r3, r3, #20
10002304:	0019      	movs	r1, r3
10002306:	469b      	mov	fp, r3
10002308:	f000 f886 	bl	10002418 <_sbrk_r>
1000230c:	1c43      	adds	r3, r0, #1
1000230e:	d000      	beq.n	10002312 <_malloc_r+0x49a>
10002310:	e6f4      	b.n	100020fc <_malloc_r+0x284>
10002312:	2300      	movs	r3, #0
10002314:	469b      	mov	fp, r3
10002316:	e6f6      	b.n	10002106 <_malloc_r+0x28e>
10002318:	2a54      	cmp	r2, #84	; 0x54
1000231a:	d82b      	bhi.n	10002374 <_malloc_r+0x4fc>
1000231c:	0b1a      	lsrs	r2, r3, #12
1000231e:	0011      	movs	r1, r2
10002320:	326f      	adds	r2, #111	; 0x6f
10002322:	316e      	adds	r1, #110	; 0x6e
10002324:	00d2      	lsls	r2, r2, #3
10002326:	e736      	b.n	10002196 <_malloc_r+0x31e>
10002328:	23aa      	movs	r3, #170	; 0xaa
1000232a:	005b      	lsls	r3, r3, #1
1000232c:	4298      	cmp	r0, r3
1000232e:	d82b      	bhi.n	10002388 <_malloc_r+0x510>
10002330:	3bdd      	subs	r3, #221	; 0xdd
10002332:	4698      	mov	r8, r3
10002334:	0be8      	lsrs	r0, r5, #15
10002336:	4480      	add	r8, r0
10002338:	3078      	adds	r0, #120	; 0x78
1000233a:	00c1      	lsls	r1, r0, #3
1000233c:	e5e5      	b.n	10001f0a <_malloc_r+0x92>
1000233e:	4b2c      	ldr	r3, [pc, #176]	; (100023f0 <_malloc_r+0x578>)
10002340:	9a00      	ldr	r2, [sp, #0]
10002342:	469a      	mov	sl, r3
10002344:	681b      	ldr	r3, [r3, #0]
10002346:	469c      	mov	ip, r3
10002348:	4653      	mov	r3, sl
1000234a:	4462      	add	r2, ip
1000234c:	601a      	str	r2, [r3, #0]
1000234e:	e6ae      	b.n	100020ae <_malloc_r+0x236>
10002350:	0509      	lsls	r1, r1, #20
10002352:	d000      	beq.n	10002356 <_malloc_r+0x4de>
10002354:	e6ab      	b.n	100020ae <_malloc_r+0x236>
10002356:	9a00      	ldr	r2, [sp, #0]
10002358:	68bc      	ldr	r4, [r7, #8]
1000235a:	444a      	add	r2, r9
1000235c:	3101      	adds	r1, #1
1000235e:	430a      	orrs	r2, r1
10002360:	6062      	str	r2, [r4, #4]
10002362:	e6f4      	b.n	1000214e <_malloc_r+0x2d6>
10002364:	465b      	mov	r3, fp
10002366:	4642      	mov	r2, r8
10002368:	601a      	str	r2, [r3, #0]
1000236a:	e6ab      	b.n	100020c4 <_malloc_r+0x24c>
1000236c:	4644      	mov	r4, r8
1000236e:	e6ee      	b.n	1000214e <_malloc_r+0x2d6>
10002370:	6041      	str	r1, [r0, #4]
10002372:	e78d      	b.n	10002290 <_malloc_r+0x418>
10002374:	21aa      	movs	r1, #170	; 0xaa
10002376:	0049      	lsls	r1, r1, #1
10002378:	428a      	cmp	r2, r1
1000237a:	d824      	bhi.n	100023c6 <_malloc_r+0x54e>
1000237c:	0bda      	lsrs	r2, r3, #15
1000237e:	0011      	movs	r1, r2
10002380:	3278      	adds	r2, #120	; 0x78
10002382:	3177      	adds	r1, #119	; 0x77
10002384:	00d2      	lsls	r2, r2, #3
10002386:	e706      	b.n	10002196 <_malloc_r+0x31e>
10002388:	4b1a      	ldr	r3, [pc, #104]	; (100023f4 <_malloc_r+0x57c>)
1000238a:	4298      	cmp	r0, r3
1000238c:	d824      	bhi.n	100023d8 <_malloc_r+0x560>
1000238e:	237c      	movs	r3, #124	; 0x7c
10002390:	4698      	mov	r8, r3
10002392:	0ca8      	lsrs	r0, r5, #18
10002394:	4480      	add	r8, r0
10002396:	307d      	adds	r0, #125	; 0x7d
10002398:	00c1      	lsls	r1, r0, #3
1000239a:	e5b6      	b.n	10001f0a <_malloc_r+0x92>
1000239c:	9a00      	ldr	r2, [sp, #0]
1000239e:	9b01      	ldr	r3, [sp, #4]
100023a0:	4694      	mov	ip, r2
100023a2:	4642      	mov	r2, r8
100023a4:	3b08      	subs	r3, #8
100023a6:	4463      	add	r3, ip
100023a8:	1a9b      	subs	r3, r3, r2
100023aa:	9300      	str	r3, [sp, #0]
100023ac:	2300      	movs	r3, #0
100023ae:	469b      	mov	fp, r3
100023b0:	e6a9      	b.n	10002106 <_malloc_r+0x28e>
100023b2:	0021      	movs	r1, r4
100023b4:	0030      	movs	r0, r6
100023b6:	3108      	adds	r1, #8
100023b8:	f000 f8bc 	bl	10002534 <_free_r>
100023bc:	4653      	mov	r3, sl
100023be:	68bc      	ldr	r4, [r7, #8]
100023c0:	681b      	ldr	r3, [r3, #0]
100023c2:	6862      	ldr	r2, [r4, #4]
100023c4:	e6c3      	b.n	1000214e <_malloc_r+0x2d6>
100023c6:	490b      	ldr	r1, [pc, #44]	; (100023f4 <_malloc_r+0x57c>)
100023c8:	428a      	cmp	r2, r1
100023ca:	d80b      	bhi.n	100023e4 <_malloc_r+0x56c>
100023cc:	0c9a      	lsrs	r2, r3, #18
100023ce:	0011      	movs	r1, r2
100023d0:	327d      	adds	r2, #125	; 0x7d
100023d2:	317c      	adds	r1, #124	; 0x7c
100023d4:	00d2      	lsls	r2, r2, #3
100023d6:	e6de      	b.n	10002196 <_malloc_r+0x31e>
100023d8:	21fe      	movs	r1, #254	; 0xfe
100023da:	237e      	movs	r3, #126	; 0x7e
100023dc:	207f      	movs	r0, #127	; 0x7f
100023de:	4698      	mov	r8, r3
100023e0:	0089      	lsls	r1, r1, #2
100023e2:	e592      	b.n	10001f0a <_malloc_r+0x92>
100023e4:	22fe      	movs	r2, #254	; 0xfe
100023e6:	217e      	movs	r1, #126	; 0x7e
100023e8:	0092      	lsls	r2, r2, #2
100023ea:	e6d4      	b.n	10002196 <_malloc_r+0x31e>
100023ec:	687b      	ldr	r3, [r7, #4]
100023ee:	e76a      	b.n	100022c6 <_malloc_r+0x44e>
100023f0:	20000a88 	.word	0x20000a88
100023f4:	00000554 	.word	0x00000554

100023f8 <__malloc_lock>:
100023f8:	b510      	push	{r4, lr}
100023fa:	4802      	ldr	r0, [pc, #8]	; (10002404 <__malloc_lock+0xc>)
100023fc:	f000 f97c 	bl	100026f8 <__retarget_lock_acquire_recursive>
10002400:	bd10      	pop	{r4, pc}
10002402:	46c0      	nop			; (mov r8, r8)
10002404:	20000d40 	.word	0x20000d40

10002408 <__malloc_unlock>:
10002408:	b510      	push	{r4, lr}
1000240a:	4802      	ldr	r0, [pc, #8]	; (10002414 <__malloc_unlock+0xc>)
1000240c:	f000 f976 	bl	100026fc <__retarget_lock_release_recursive>
10002410:	bd10      	pop	{r4, pc}
10002412:	46c0      	nop			; (mov r8, r8)
10002414:	20000d40 	.word	0x20000d40

10002418 <_sbrk_r>:
10002418:	2300      	movs	r3, #0
1000241a:	b570      	push	{r4, r5, r6, lr}
1000241c:	4d06      	ldr	r5, [pc, #24]	; (10002438 <_sbrk_r+0x20>)
1000241e:	0004      	movs	r4, r0
10002420:	0008      	movs	r0, r1
10002422:	602b      	str	r3, [r5, #0]
10002424:	f7fe fecc 	bl	100011c0 <_sbrk>
10002428:	1c43      	adds	r3, r0, #1
1000242a:	d000      	beq.n	1000242e <_sbrk_r+0x16>
1000242c:	bd70      	pop	{r4, r5, r6, pc}
1000242e:	682b      	ldr	r3, [r5, #0]
10002430:	2b00      	cmp	r3, #0
10002432:	d0fb      	beq.n	1000242c <_sbrk_r+0x14>
10002434:	6023      	str	r3, [r4, #0]
10002436:	e7f9      	b.n	1000242c <_sbrk_r+0x14>
10002438:	20000d54 	.word	0x20000d54

1000243c <strlen>:
1000243c:	b510      	push	{r4, lr}
1000243e:	0783      	lsls	r3, r0, #30
10002440:	d00a      	beq.n	10002458 <strlen+0x1c>
10002442:	0003      	movs	r3, r0
10002444:	2103      	movs	r1, #3
10002446:	e002      	b.n	1000244e <strlen+0x12>
10002448:	3301      	adds	r3, #1
1000244a:	420b      	tst	r3, r1
1000244c:	d005      	beq.n	1000245a <strlen+0x1e>
1000244e:	781a      	ldrb	r2, [r3, #0]
10002450:	2a00      	cmp	r2, #0
10002452:	d1f9      	bne.n	10002448 <strlen+0xc>
10002454:	1a18      	subs	r0, r3, r0
10002456:	bd10      	pop	{r4, pc}
10002458:	0003      	movs	r3, r0
1000245a:	6819      	ldr	r1, [r3, #0]
1000245c:	4a0c      	ldr	r2, [pc, #48]	; (10002490 <strlen+0x54>)
1000245e:	4c0d      	ldr	r4, [pc, #52]	; (10002494 <strlen+0x58>)
10002460:	188a      	adds	r2, r1, r2
10002462:	438a      	bics	r2, r1
10002464:	4222      	tst	r2, r4
10002466:	d10f      	bne.n	10002488 <strlen+0x4c>
10002468:	6859      	ldr	r1, [r3, #4]
1000246a:	4a09      	ldr	r2, [pc, #36]	; (10002490 <strlen+0x54>)
1000246c:	3304      	adds	r3, #4
1000246e:	188a      	adds	r2, r1, r2
10002470:	438a      	bics	r2, r1
10002472:	4222      	tst	r2, r4
10002474:	d108      	bne.n	10002488 <strlen+0x4c>
10002476:	6859      	ldr	r1, [r3, #4]
10002478:	4a05      	ldr	r2, [pc, #20]	; (10002490 <strlen+0x54>)
1000247a:	3304      	adds	r3, #4
1000247c:	188a      	adds	r2, r1, r2
1000247e:	438a      	bics	r2, r1
10002480:	4222      	tst	r2, r4
10002482:	d0f1      	beq.n	10002468 <strlen+0x2c>
10002484:	e000      	b.n	10002488 <strlen+0x4c>
10002486:	3301      	adds	r3, #1
10002488:	781a      	ldrb	r2, [r3, #0]
1000248a:	2a00      	cmp	r2, #0
1000248c:	d1fb      	bne.n	10002486 <strlen+0x4a>
1000248e:	e7e1      	b.n	10002454 <strlen+0x18>
10002490:	fefefeff 	.word	0xfefefeff
10002494:	80808080 	.word	0x80808080

10002498 <_malloc_trim_r>:
10002498:	b5f8      	push	{r3, r4, r5, r6, r7, lr}
1000249a:	000c      	movs	r4, r1
1000249c:	0005      	movs	r5, r0
1000249e:	f7ff ffab 	bl	100023f8 <__malloc_lock>
100024a2:	4f20      	ldr	r7, [pc, #128]	; (10002524 <_malloc_trim_r+0x8c>)
100024a4:	68bb      	ldr	r3, [r7, #8]
100024a6:	685e      	ldr	r6, [r3, #4]
100024a8:	2303      	movs	r3, #3
100024aa:	439e      	bics	r6, r3
100024ac:	4b1e      	ldr	r3, [pc, #120]	; (10002528 <_malloc_trim_r+0x90>)
100024ae:	1b34      	subs	r4, r6, r4
100024b0:	469c      	mov	ip, r3
100024b2:	4464      	add	r4, ip
100024b4:	0b24      	lsrs	r4, r4, #12
100024b6:	3c01      	subs	r4, #1
100024b8:	3311      	adds	r3, #17
100024ba:	0324      	lsls	r4, r4, #12
100024bc:	429c      	cmp	r4, r3
100024be:	db07      	blt.n	100024d0 <_malloc_trim_r+0x38>
100024c0:	2100      	movs	r1, #0
100024c2:	0028      	movs	r0, r5
100024c4:	f7ff ffa8 	bl	10002418 <_sbrk_r>
100024c8:	68bb      	ldr	r3, [r7, #8]
100024ca:	199b      	adds	r3, r3, r6
100024cc:	4298      	cmp	r0, r3
100024ce:	d004      	beq.n	100024da <_malloc_trim_r+0x42>
100024d0:	0028      	movs	r0, r5
100024d2:	f7ff ff99 	bl	10002408 <__malloc_unlock>
100024d6:	2000      	movs	r0, #0
100024d8:	bdf8      	pop	{r3, r4, r5, r6, r7, pc}
100024da:	0028      	movs	r0, r5
100024dc:	4261      	negs	r1, r4
100024de:	f7ff ff9b 	bl	10002418 <_sbrk_r>
100024e2:	1c43      	adds	r3, r0, #1
100024e4:	d00d      	beq.n	10002502 <_malloc_trim_r+0x6a>
100024e6:	2201      	movs	r2, #1
100024e8:	68bb      	ldr	r3, [r7, #8]
100024ea:	1b36      	subs	r6, r6, r4
100024ec:	4316      	orrs	r6, r2
100024ee:	605e      	str	r6, [r3, #4]
100024f0:	4b0e      	ldr	r3, [pc, #56]	; (1000252c <_malloc_trim_r+0x94>)
100024f2:	0028      	movs	r0, r5
100024f4:	681a      	ldr	r2, [r3, #0]
100024f6:	1b14      	subs	r4, r2, r4
100024f8:	601c      	str	r4, [r3, #0]
100024fa:	f7ff ff85 	bl	10002408 <__malloc_unlock>
100024fe:	2001      	movs	r0, #1
10002500:	e7ea      	b.n	100024d8 <_malloc_trim_r+0x40>
10002502:	2100      	movs	r1, #0
10002504:	0028      	movs	r0, r5
10002506:	f7ff ff87 	bl	10002418 <_sbrk_r>
1000250a:	68ba      	ldr	r2, [r7, #8]
1000250c:	1a83      	subs	r3, r0, r2
1000250e:	2b0f      	cmp	r3, #15
10002510:	ddde      	ble.n	100024d0 <_malloc_trim_r+0x38>
10002512:	4907      	ldr	r1, [pc, #28]	; (10002530 <_malloc_trim_r+0x98>)
10002514:	6809      	ldr	r1, [r1, #0]
10002516:	1a40      	subs	r0, r0, r1
10002518:	4904      	ldr	r1, [pc, #16]	; (1000252c <_malloc_trim_r+0x94>)
1000251a:	6008      	str	r0, [r1, #0]
1000251c:	2101      	movs	r1, #1
1000251e:	430b      	orrs	r3, r1
10002520:	6053      	str	r3, [r2, #4]
10002522:	e7d5      	b.n	100024d0 <_malloc_trim_r+0x38>
10002524:	20000630 	.word	0x20000630
10002528:	00000fef 	.word	0x00000fef
1000252c:	20000a88 	.word	0x20000a88
10002530:	20000a38 	.word	0x20000a38

10002534 <_free_r>:
10002534:	b5f0      	push	{r4, r5, r6, r7, lr}
10002536:	46c6      	mov	lr, r8
10002538:	0005      	movs	r5, r0
1000253a:	000c      	movs	r4, r1
1000253c:	b500      	push	{lr}
1000253e:	2900      	cmp	r1, #0
10002540:	d04f      	beq.n	100025e2 <_free_r+0xae>
10002542:	f7ff ff59 	bl	100023f8 <__malloc_lock>
10002546:	0021      	movs	r1, r4
10002548:	3908      	subs	r1, #8
1000254a:	684c      	ldr	r4, [r1, #4]
1000254c:	2601      	movs	r6, #1
1000254e:	0022      	movs	r2, r4
10002550:	2003      	movs	r0, #3
10002552:	43b2      	bics	r2, r6
10002554:	188f      	adds	r7, r1, r2
10002556:	687b      	ldr	r3, [r7, #4]
10002558:	4383      	bics	r3, r0
1000255a:	4862      	ldr	r0, [pc, #392]	; (100026e4 <_free_r+0x1b0>)
1000255c:	4698      	mov	r8, r3
1000255e:	6883      	ldr	r3, [r0, #8]
10002560:	42bb      	cmp	r3, r7
10002562:	d06b      	beq.n	1000263c <_free_r+0x108>
10002564:	4643      	mov	r3, r8
10002566:	607b      	str	r3, [r7, #4]
10002568:	4226      	tst	r6, r4
1000256a:	d11e      	bne.n	100025aa <_free_r+0x76>
1000256c:	2308      	movs	r3, #8
1000256e:	469c      	mov	ip, r3
10002570:	680c      	ldr	r4, [r1, #0]
10002572:	4484      	add	ip, r0
10002574:	1b09      	subs	r1, r1, r4
10002576:	1912      	adds	r2, r2, r4
10002578:	688c      	ldr	r4, [r1, #8]
1000257a:	4564      	cmp	r4, ip
1000257c:	d04f      	beq.n	1000261e <_free_r+0xea>
1000257e:	68cb      	ldr	r3, [r1, #12]
10002580:	60e3      	str	r3, [r4, #12]
10002582:	609c      	str	r4, [r3, #8]
10002584:	4643      	mov	r3, r8
10002586:	18fc      	adds	r4, r7, r3
10002588:	6864      	ldr	r4, [r4, #4]
1000258a:	4234      	tst	r4, r6
1000258c:	d111      	bne.n	100025b2 <_free_r+0x7e>
1000258e:	68bb      	ldr	r3, [r7, #8]
10002590:	4c55      	ldr	r4, [pc, #340]	; (100026e8 <_free_r+0x1b4>)
10002592:	4442      	add	r2, r8
10002594:	42a3      	cmp	r3, r4
10002596:	d100      	bne.n	1000259a <_free_r+0x66>
10002598:	e07f      	b.n	1000269a <_free_r+0x166>
1000259a:	68fc      	ldr	r4, [r7, #12]
1000259c:	60dc      	str	r4, [r3, #12]
1000259e:	60a3      	str	r3, [r4, #8]
100025a0:	2301      	movs	r3, #1
100025a2:	4313      	orrs	r3, r2
100025a4:	604b      	str	r3, [r1, #4]
100025a6:	508a      	str	r2, [r1, r2]
100025a8:	e006      	b.n	100025b8 <_free_r+0x84>
100025aa:	18fc      	adds	r4, r7, r3
100025ac:	6864      	ldr	r4, [r4, #4]
100025ae:	4234      	tst	r4, r6
100025b0:	d0ed      	beq.n	1000258e <_free_r+0x5a>
100025b2:	4316      	orrs	r6, r2
100025b4:	604e      	str	r6, [r1, #4]
100025b6:	603a      	str	r2, [r7, #0]
100025b8:	2380      	movs	r3, #128	; 0x80
100025ba:	009b      	lsls	r3, r3, #2
100025bc:	429a      	cmp	r2, r3
100025be:	d213      	bcs.n	100025e8 <_free_r+0xb4>
100025c0:	0954      	lsrs	r4, r2, #5
100025c2:	08d3      	lsrs	r3, r2, #3
100025c4:	2201      	movs	r2, #1
100025c6:	40a2      	lsls	r2, r4
100025c8:	6844      	ldr	r4, [r0, #4]
100025ca:	00db      	lsls	r3, r3, #3
100025cc:	4322      	orrs	r2, r4
100025ce:	6042      	str	r2, [r0, #4]
100025d0:	1818      	adds	r0, r3, r0
100025d2:	6883      	ldr	r3, [r0, #8]
100025d4:	60c8      	str	r0, [r1, #12]
100025d6:	608b      	str	r3, [r1, #8]
100025d8:	6081      	str	r1, [r0, #8]
100025da:	60d9      	str	r1, [r3, #12]
100025dc:	0028      	movs	r0, r5
100025de:	f7ff ff13 	bl	10002408 <__malloc_unlock>
100025e2:	bc04      	pop	{r2}
100025e4:	4690      	mov	r8, r2
100025e6:	bdf0      	pop	{r4, r5, r6, r7, pc}
100025e8:	0a53      	lsrs	r3, r2, #9
100025ea:	2b04      	cmp	r3, #4
100025ec:	d83f      	bhi.n	1000266e <_free_r+0x13a>
100025ee:	0994      	lsrs	r4, r2, #6
100025f0:	0026      	movs	r6, r4
100025f2:	3439      	adds	r4, #57	; 0x39
100025f4:	3638      	adds	r6, #56	; 0x38
100025f6:	00e4      	lsls	r4, r4, #3
100025f8:	1904      	adds	r4, r0, r4
100025fa:	6823      	ldr	r3, [r4, #0]
100025fc:	3c08      	subs	r4, #8
100025fe:	2703      	movs	r7, #3
10002600:	429c      	cmp	r4, r3
10002602:	d043      	beq.n	1000268c <_free_r+0x158>
10002604:	6858      	ldr	r0, [r3, #4]
10002606:	43b8      	bics	r0, r7
10002608:	4290      	cmp	r0, r2
1000260a:	d902      	bls.n	10002612 <_free_r+0xde>
1000260c:	689b      	ldr	r3, [r3, #8]
1000260e:	429c      	cmp	r4, r3
10002610:	d1f8      	bne.n	10002604 <_free_r+0xd0>
10002612:	68dc      	ldr	r4, [r3, #12]
10002614:	60cc      	str	r4, [r1, #12]
10002616:	608b      	str	r3, [r1, #8]
10002618:	60a1      	str	r1, [r4, #8]
1000261a:	60d9      	str	r1, [r3, #12]
1000261c:	e7de      	b.n	100025dc <_free_r+0xa8>
1000261e:	4643      	mov	r3, r8
10002620:	18f8      	adds	r0, r7, r3
10002622:	6840      	ldr	r0, [r0, #4]
10002624:	4230      	tst	r0, r6
10002626:	d158      	bne.n	100026da <_free_r+0x1a6>
10002628:	0013      	movs	r3, r2
1000262a:	68b8      	ldr	r0, [r7, #8]
1000262c:	68fa      	ldr	r2, [r7, #12]
1000262e:	4443      	add	r3, r8
10002630:	431e      	orrs	r6, r3
10002632:	60c2      	str	r2, [r0, #12]
10002634:	6090      	str	r0, [r2, #8]
10002636:	604e      	str	r6, [r1, #4]
10002638:	50cb      	str	r3, [r1, r3]
1000263a:	e7cf      	b.n	100025dc <_free_r+0xa8>
1000263c:	0013      	movs	r3, r2
1000263e:	4443      	add	r3, r8
10002640:	4226      	tst	r6, r4
10002642:	d106      	bne.n	10002652 <_free_r+0x11e>
10002644:	680a      	ldr	r2, [r1, #0]
10002646:	1a89      	subs	r1, r1, r2
10002648:	688c      	ldr	r4, [r1, #8]
1000264a:	189b      	adds	r3, r3, r2
1000264c:	68ca      	ldr	r2, [r1, #12]
1000264e:	60e2      	str	r2, [r4, #12]
10002650:	6094      	str	r4, [r2, #8]
10002652:	2201      	movs	r2, #1
10002654:	431a      	orrs	r2, r3
10002656:	604a      	str	r2, [r1, #4]
10002658:	4a24      	ldr	r2, [pc, #144]	; (100026ec <_free_r+0x1b8>)
1000265a:	6081      	str	r1, [r0, #8]
1000265c:	6812      	ldr	r2, [r2, #0]
1000265e:	429a      	cmp	r2, r3
10002660:	d8bc      	bhi.n	100025dc <_free_r+0xa8>
10002662:	4b23      	ldr	r3, [pc, #140]	; (100026f0 <_free_r+0x1bc>)
10002664:	0028      	movs	r0, r5
10002666:	6819      	ldr	r1, [r3, #0]
10002668:	f7ff ff16 	bl	10002498 <_malloc_trim_r>
1000266c:	e7b6      	b.n	100025dc <_free_r+0xa8>
1000266e:	2b14      	cmp	r3, #20
10002670:	d907      	bls.n	10002682 <_free_r+0x14e>
10002672:	2b54      	cmp	r3, #84	; 0x54
10002674:	d81a      	bhi.n	100026ac <_free_r+0x178>
10002676:	0b14      	lsrs	r4, r2, #12
10002678:	0026      	movs	r6, r4
1000267a:	346f      	adds	r4, #111	; 0x6f
1000267c:	366e      	adds	r6, #110	; 0x6e
1000267e:	00e4      	lsls	r4, r4, #3
10002680:	e7ba      	b.n	100025f8 <_free_r+0xc4>
10002682:	001e      	movs	r6, r3
10002684:	335c      	adds	r3, #92	; 0x5c
10002686:	365b      	adds	r6, #91	; 0x5b
10002688:	00dc      	lsls	r4, r3, #3
1000268a:	e7b5      	b.n	100025f8 <_free_r+0xc4>
1000268c:	2201      	movs	r2, #1
1000268e:	10b6      	asrs	r6, r6, #2
10002690:	40b2      	lsls	r2, r6
10002692:	6846      	ldr	r6, [r0, #4]
10002694:	4332      	orrs	r2, r6
10002696:	6042      	str	r2, [r0, #4]
10002698:	e7bc      	b.n	10002614 <_free_r+0xe0>
1000269a:	60d9      	str	r1, [r3, #12]
1000269c:	6099      	str	r1, [r3, #8]
1000269e:	60cb      	str	r3, [r1, #12]
100026a0:	608b      	str	r3, [r1, #8]
100026a2:	2301      	movs	r3, #1
100026a4:	4313      	orrs	r3, r2
100026a6:	604b      	str	r3, [r1, #4]
100026a8:	508a      	str	r2, [r1, r2]
100026aa:	e797      	b.n	100025dc <_free_r+0xa8>
100026ac:	24aa      	movs	r4, #170	; 0xaa
100026ae:	0064      	lsls	r4, r4, #1
100026b0:	42a3      	cmp	r3, r4
100026b2:	d805      	bhi.n	100026c0 <_free_r+0x18c>
100026b4:	0bd4      	lsrs	r4, r2, #15
100026b6:	0026      	movs	r6, r4
100026b8:	3478      	adds	r4, #120	; 0x78
100026ba:	3677      	adds	r6, #119	; 0x77
100026bc:	00e4      	lsls	r4, r4, #3
100026be:	e79b      	b.n	100025f8 <_free_r+0xc4>
100026c0:	4c0c      	ldr	r4, [pc, #48]	; (100026f4 <_free_r+0x1c0>)
100026c2:	42a3      	cmp	r3, r4
100026c4:	d805      	bhi.n	100026d2 <_free_r+0x19e>
100026c6:	0c94      	lsrs	r4, r2, #18
100026c8:	0026      	movs	r6, r4
100026ca:	347d      	adds	r4, #125	; 0x7d
100026cc:	367c      	adds	r6, #124	; 0x7c
100026ce:	00e4      	lsls	r4, r4, #3
100026d0:	e792      	b.n	100025f8 <_free_r+0xc4>
100026d2:	24fe      	movs	r4, #254	; 0xfe
100026d4:	267e      	movs	r6, #126	; 0x7e
100026d6:	00a4      	lsls	r4, r4, #2
100026d8:	e78e      	b.n	100025f8 <_free_r+0xc4>
100026da:	0033      	movs	r3, r6
100026dc:	4313      	orrs	r3, r2
100026de:	604b      	str	r3, [r1, #4]
100026e0:	603a      	str	r2, [r7, #0]
100026e2:	e77b      	b.n	100025dc <_free_r+0xa8>
100026e4:	20000630 	.word	0x20000630
100026e8:	20000638 	.word	0x20000638
100026ec:	20000a3c 	.word	0x20000a3c
100026f0:	20000ab8 	.word	0x20000ab8
100026f4:	00000554 	.word	0x00000554

100026f8 <__retarget_lock_acquire_recursive>:
100026f8:	4770      	bx	lr
100026fa:	46c0      	nop			; (mov r8, r8)

100026fc <__retarget_lock_release_recursive>:
100026fc:	4770      	bx	lr
100026fe:	46c0      	nop			; (mov r8, r8)

10002700 <_fini>:
10002700:	b5f8      	push	{r3, r4, r5, r6, r7, lr}
10002702:	46c0      	nop			; (mov r8, r8)
10002704:	0000      	movs	r0, r0
	...

10002708 <__mutex_exit_veneer>:
10002708:	b401      	push	{r0}
1000270a:	4802      	ldr	r0, [pc, #8]	; (10002714 <__mutex_exit_veneer+0xc>)
1000270c:	4684      	mov	ip, r0
1000270e:	bc01      	pop	{r0}
10002710:	4760      	bx	ip
10002712:	bf00      	nop
10002714:	2000015d 	.word	0x2000015d

10002718 <____aeabi_idiv0_veneer>:
10002718:	b401      	push	{r0}
1000271a:	4802      	ldr	r0, [pc, #8]	; (10002724 <____aeabi_idiv0_veneer+0xc>)
1000271c:	4684      	mov	ip, r0
1000271e:	bc01      	pop	{r0}
10002720:	4760      	bx	ip
10002722:	bf00      	nop
10002724:	20000185 	.word	0x20000185

10002728 <__mutex_try_enter_veneer>:
10002728:	b401      	push	{r0}
1000272a:	4802      	ldr	r0, [pc, #8]	; (10002734 <__mutex_try_enter_veneer+0xc>)
1000272c:	4684      	mov	ip, r0
1000272e:	bc01      	pop	{r0}
10002730:	4760      	bx	ip
10002732:	bf00      	nop
10002734:	20000111 	.word	0x20000111

10002738 <__mutex_enter_blocking_veneer>:
10002738:	b401      	push	{r0}
1000273a:	4802      	ldr	r0, [pc, #8]	; (10002744 <__mutex_enter_blocking_veneer+0xc>)
1000273c:	4684      	mov	ip, r0
1000273e:	bc01      	pop	{r0}
10002740:	4760      	bx	ip
10002742:	bf00      	nop
10002744:	200000c1 	.word	0x200000c1

Disassembly of section .data:

200000c0 <mutex_enter_blocking>:
200000c0:	b510      	push	{r4, lr}
200000c2:	6802      	ldr	r2, [r0, #0]
200000c4:	2400      	movs	r4, #0
200000c6:	f3ef 8110 	mrs	r1, PRIMASK
200000ca:	b672      	cpsid	i
200000cc:	6813      	ldr	r3, [r2, #0]
200000ce:	2b00      	cmp	r3, #0
200000d0:	d0fc      	beq.n	200000cc <mutex_enter_blocking+0xc>
200000d2:	f3bf 8f5f 	dmb	sy
200000d6:	7903      	ldrb	r3, [r0, #4]
200000d8:	2b00      	cmp	r3, #0
200000da:	d00b      	beq.n	200000f4 <mutex_enter_blocking+0x34>
200000dc:	6803      	ldr	r3, [r0, #0]
200000de:	f3bf 8f5f 	dmb	sy
200000e2:	601c      	str	r4, [r3, #0]
200000e4:	f381 8810 	msr	PRIMASK, r1
200000e8:	bf20      	wfe
200000ea:	6802      	ldr	r2, [r0, #0]
200000ec:	f3ef 8110 	mrs	r1, PRIMASK
200000f0:	b672      	cpsid	i
200000f2:	e7eb      	b.n	200000cc <mutex_enter_blocking+0xc>
200000f4:	2201      	movs	r2, #1
200000f6:	7102      	strb	r2, [r0, #4]
200000f8:	22d0      	movs	r2, #208	; 0xd0
200000fa:	0612      	lsls	r2, r2, #24
200000fc:	6812      	ldr	r2, [r2, #0]
200000fe:	7142      	strb	r2, [r0, #5]
20000100:	6802      	ldr	r2, [r0, #0]
20000102:	f3bf 8f5f 	dmb	sy
20000106:	6013      	str	r3, [r2, #0]
20000108:	f381 8810 	msr	PRIMASK, r1
2000010c:	bd10      	pop	{r4, pc}
2000010e:	46c0      	nop			; (mov r8, r8)

20000110 <mutex_try_enter>:
20000110:	0003      	movs	r3, r0
20000112:	b510      	push	{r4, lr}
20000114:	6800      	ldr	r0, [r0, #0]
20000116:	f3ef 8410 	mrs	r4, PRIMASK
2000011a:	b672      	cpsid	i
2000011c:	6802      	ldr	r2, [r0, #0]
2000011e:	2a00      	cmp	r2, #0
20000120:	d0fc      	beq.n	2000011c <mutex_try_enter+0xc>
20000122:	f3bf 8f5f 	dmb	sy
20000126:	791a      	ldrb	r2, [r3, #4]
20000128:	2a00      	cmp	r2, #0
2000012a:	d00d      	beq.n	20000148 <mutex_try_enter+0x38>
2000012c:	2900      	cmp	r1, #0
2000012e:	d013      	beq.n	20000158 <mutex_try_enter+0x48>
20000130:	2205      	movs	r2, #5
20000132:	2000      	movs	r0, #0
20000134:	569a      	ldrsb	r2, [r3, r2]
20000136:	600a      	str	r2, [r1, #0]
20000138:	681b      	ldr	r3, [r3, #0]
2000013a:	f3bf 8f5f 	dmb	sy
2000013e:	2200      	movs	r2, #0
20000140:	601a      	str	r2, [r3, #0]
20000142:	f384 8810 	msr	PRIMASK, r4
20000146:	bd10      	pop	{r4, pc}
20000148:	3201      	adds	r2, #1
2000014a:	711a      	strb	r2, [r3, #4]
2000014c:	22d0      	movs	r2, #208	; 0xd0
2000014e:	0612      	lsls	r2, r2, #24
20000150:	6812      	ldr	r2, [r2, #0]
20000152:	2001      	movs	r0, #1
20000154:	715a      	strb	r2, [r3, #5]
20000156:	e7ef      	b.n	20000138 <mutex_try_enter+0x28>
20000158:	2000      	movs	r0, #0
2000015a:	e7ed      	b.n	20000138 <mutex_try_enter+0x28>

2000015c <mutex_exit>:
2000015c:	6802      	ldr	r2, [r0, #0]
2000015e:	f3ef 8110 	mrs	r1, PRIMASK
20000162:	b672      	cpsid	i
20000164:	6813      	ldr	r3, [r2, #0]
20000166:	2b00      	cmp	r3, #0
20000168:	d0fc      	beq.n	20000164 <mutex_exit+0x8>
2000016a:	f3bf 8f5f 	dmb	sy
2000016e:	2300      	movs	r3, #0
20000170:	7103      	strb	r3, [r0, #4]
20000172:	bf40      	sev
20000174:	6802      	ldr	r2, [r0, #0]
20000176:	f3bf 8f5f 	dmb	sy
2000017a:	6013      	str	r3, [r2, #0]
2000017c:	f381 8810 	msr	PRIMASK, r1
20000180:	4770      	bx	lr
20000182:	46c0      	nop			; (mov r8, r8)

20000184 <__aeabi_idiv0>:
20000184:	4770      	bx	lr
20000186:	46c0      	nop			; (mov r8, r8)

20000188 <striped_spin_lock_num>:
20000188:	0010 0000                                   ....

2000018c <irq_handler_chain_slots>:
2000018c:	00000000 	.word	0x00000000
20000190:	00010000 	.word	0x00010000
	...
2000019c:	00020000 	.word	0x00020000
	...
200001a8:	00030000 	.word	0x00030000
	...
200001b4:	00ff0000 	.word	0x00ff0000
200001b8:	00000000 	.word	0x00000000

200001bc <irq_handler_chain_first_slot>:
200001bc:	b500      	push	{lr}
200001be:	6848      	ldr	r0, [r1, #4]
200001c0:	3101      	adds	r1, #1
200001c2:	468e      	mov	lr, r1
200001c4:	4700      	bx	r0

200001c6 <irq_handler_chain_remove_tail>:
200001c6:	4670      	mov	r0, lr
200001c8:	3809      	subs	r0, #9
200001ca:	4901      	ldr	r1, [pc, #4]	; (200001d0 <irq_handler_chain_remove_tail+0xa>)
200001cc:	4788      	blx	r1
200001ce:	bd00      	pop	{pc}
200001d0:	100017ed 	.word	0x100017ed
	...

200001e0 <aeabi_bits_funcs>:
200001e0:	00003350 	.word	0x00003350
200001e4:	0000334c 	.word	0x0000334c
200001e8:	00003354 	.word	0x00003354
200001ec:	00003352 	.word	0x00003352

200001f0 <aeabi_bits_funcs_end>:
200001f0:	0000534d 	.word	0x0000534d
200001f4:	0000434d 	.word	0x0000434d
200001f8:	00003453 	.word	0x00003453
200001fc:	00003443 	.word	0x00003443

20000200 <_impure_ptr>:
20000200:	20000208 00000000                       ... ....

20000208 <impure_data>:
20000208:	00000000 200004f4 2000055c 200005c4     ....... \.. ... 
	...
200002b0:	00000001 00000000 abcd330e e66d1234     .........3..4.m.
200002c0:	0005deec 0000000b 00000000 00000000     ................
	...

20000630 <__malloc_av_>:
	...
20000638:	20000630 20000630 20000638 20000638     0.. 0.. 8.. 8.. 
20000648:	20000640 20000640 20000648 20000648     @.. @.. H.. H.. 
20000658:	20000650 20000650 20000658 20000658     P.. P.. X.. X.. 
20000668:	20000660 20000660 20000668 20000668     `.. `.. h.. h.. 
20000678:	20000670 20000670 20000678 20000678     p.. p.. x.. x.. 
20000688:	20000680 20000680 20000688 20000688     ... ... ... ... 
20000698:	20000690 20000690 20000698 20000698     ... ... ... ... 
200006a8:	200006a0 200006a0 200006a8 200006a8     ... ... ... ... 
200006b8:	200006b0 200006b0 200006b8 200006b8     ... ... ... ... 
200006c8:	200006c0 200006c0 200006c8 200006c8     ... ... ... ... 
200006d8:	200006d0 200006d0 200006d8 200006d8     ... ... ... ... 
200006e8:	200006e0 200006e0 200006e8 200006e8     ... ... ... ... 
200006f8:	200006f0 200006f0 200006f8 200006f8     ... ... ... ... 
20000708:	20000700 20000700 20000708 20000708     ... ... ... ... 
20000718:	20000710 20000710 20000718 20000718     ... ... ... ... 
20000728:	20000720 20000720 20000728 20000728      ..  .. (.. (.. 
20000738:	20000730 20000730 20000738 20000738     0.. 0.. 8.. 8.. 
20000748:	20000740 20000740 20000748 20000748     @.. @.. H.. H.. 
20000758:	20000750 20000750 20000758 20000758     P.. P.. X.. X.. 
20000768:	20000760 20000760 20000768 20000768     `.. `.. h.. h.. 
20000778:	20000770 20000770 20000778 20000778     p.. p.. x.. x.. 
20000788:	20000780 20000780 20000788 20000788     ... ... ... ... 
20000798:	20000790 20000790 20000798 20000798     ... ... ... ... 
200007a8:	200007a0 200007a0 200007a8 200007a8     ... ... ... ... 
200007b8:	200007b0 200007b0 200007b8 200007b8     ... ... ... ... 
200007c8:	200007c0 200007c0 200007c8 200007c8     ... ... ... ... 
200007d8:	200007d0 200007d0 200007d8 200007d8     ... ... ... ... 
200007e8:	200007e0 200007e0 200007e8 200007e8     ... ... ... ... 
200007f8:	200007f0 200007f0 200007f8 200007f8     ... ... ... ... 
20000808:	20000800 20000800 20000808 20000808     ... ... ... ... 
20000818:	20000810 20000810 20000818 20000818     ... ... ... ... 
20000828:	20000820 20000820 20000828 20000828      ..  .. (.. (.. 
20000838:	20000830 20000830 20000838 20000838     0.. 0.. 8.. 8.. 
20000848:	20000840 20000840 20000848 20000848     @.. @.. H.. H.. 
20000858:	20000850 20000850 20000858 20000858     P.. P.. X.. X.. 
20000868:	20000860 20000860 20000868 20000868     `.. `.. h.. h.. 
20000878:	20000870 20000870 20000878 20000878     p.. p.. x.. x.. 
20000888:	20000880 20000880 20000888 20000888     ... ... ... ... 
20000898:	20000890 20000890 20000898 20000898     ... ... ... ... 
200008a8:	200008a0 200008a0 200008a8 200008a8     ... ... ... ... 
200008b8:	200008b0 200008b0 200008b8 200008b8     ... ... ... ... 
200008c8:	200008c0 200008c0 200008c8 200008c8     ... ... ... ... 
200008d8:	200008d0 200008d0 200008d8 200008d8     ... ... ... ... 
200008e8:	200008e0 200008e0 200008e8 200008e8     ... ... ... ... 
200008f8:	200008f0 200008f0 200008f8 200008f8     ... ... ... ... 
20000908:	20000900 20000900 20000908 20000908     ... ... ... ... 
20000918:	20000910 20000910 20000918 20000918     ... ... ... ... 
20000928:	20000920 20000920 20000928 20000928      ..  .. (.. (.. 
20000938:	20000930 20000930 20000938 20000938     0.. 0.. 8.. 8.. 
20000948:	20000940 20000940 20000948 20000948     @.. @.. H.. H.. 
20000958:	20000950 20000950 20000958 20000958     P.. P.. X.. X.. 
20000968:	20000960 20000960 20000968 20000968     `.. `.. h.. h.. 
20000978:	20000970 20000970 20000978 20000978     p.. p.. x.. x.. 
20000988:	20000980 20000980 20000988 20000988     ... ... ... ... 
20000998:	20000990 20000990 20000998 20000998     ... ... ... ... 
200009a8:	200009a0 200009a0 200009a8 200009a8     ... ... ... ... 
200009b8:	200009b0 200009b0 200009b8 200009b8     ... ... ... ... 
200009c8:	200009c0 200009c0 200009c8 200009c8     ... ... ... ... 
200009d8:	200009d0 200009d0 200009d8 200009d8     ... ... ... ... 
200009e8:	200009e0 200009e0 200009e8 200009e8     ... ... ... ... 
200009f8:	200009f0 200009f0 200009f8 200009f8     ... ... ... ... 
20000a08:	20000a00 20000a00 20000a08 20000a08     ... ... ... ... 
20000a18:	20000a10 20000a10 20000a18 20000a18     ... ... ... ... 
20000a28:	20000a20 20000a20 20000a28 20000a28      ..  .. (.. (.. 

20000a38 <__malloc_sbrk_base>:
20000a38:	ffffffff                                ....

20000a3c <__malloc_trim_threshold>:
20000a3c:	00020000                                ....

20000a40 <print_mutex>:
	...

20000a48 <__mutex_array_end>:
20000a48:	10001b8d 	.word	0x10001b8d
20000a4c:	10001921 	.word	0x10001921
20000a50:	100019e1 	.word	0x100019e1
20000a54:	10001aed 	.word	0x10001aed

20000a58 <__frame_dummy_init_array_entry>:
20000a58:	10000301 10001d91                       ........
