
hello_usb.elf:     file format elf32-littlearm

Sections:
Idx Name          Size      VMA       LMA       File off  Algn
  0 .boot2        00000100  10000000  10000000  00010000  2**0
                  CONTENTS, ALLOC, LOAD, READONLY, DATA
  1 .text         00004a28  10000100  10000100  00010100  2**3
                  CONTENTS, ALLOC, LOAD, READONLY, CODE
  2 .rodata       00000334  10004b28  10004b28  00014b28  2**2
                  CONTENTS, ALLOC, LOAD, READONLY, DATA
  3 .binary_info  00000020  10004e5c  10004e5c  00014e5c  2**2
                  CONTENTS, ALLOC, LOAD, DATA
  4 .ram_vector_table 000000c0  20000000  20000000  00020b54  2**2
                  CONTENTS
  5 .data         00000a94  200000c0  10004e7c  000200c0  2**4
                  CONTENTS, ALLOC, LOAD, CODE
  6 .uninitialized_data 00000000  20000b54  20000b54  00020c14  2**0
                  CONTENTS
  7 .scratch_x    00000000  20040000  20040000  00020c14  2**0
                  CONTENTS
  8 .scratch_y    00000000  20041000  20041000  00020c14  2**0
                  CONTENTS
  9 .bss          00000de0  20000b58  20000b58  00020b58  2**3
                  ALLOC
 10 .heap         00000800  20001938  20001938  00020c14  2**2
                  CONTENTS, READONLY
 11 .stack_dummy  00000800  20041000  20041000  00021420  2**5
                  CONTENTS, READONLY
 12 .ARM.attributes 00000028  00000000  00000000  00021c20  2**0
                  CONTENTS, READONLY
 13 .comment      00000079  00000000  00000000  00021c48  2**0
                  CONTENTS, READONLY
 14 .debug_frame  000002ac  00000000  00000000  00021cc4  2**2
                  CONTENTS, READONLY, DEBUGGING

hello_usb.elf:     file format elf32-littlearm


Disassembly of section .text:

10000100 <__reset_start>:
10000100:	4827      	ldr	r0, [pc, #156]	; (100001a0 <__get_current_exception+0xa>)
10000102:	e000      	b.n	10000106 <__vector_entry>

10000104 <_entry_point>:
10000104:	2000      	movs	r0, #0

10000106 <__vector_entry>:
10000106:	4927      	ldr	r1, [pc, #156]	; (100001a4 <__get_current_exception+0xe>)
10000108:	6088      	str	r0, [r1, #8]
1000010a:	c806      	ldmia	r0!, {r1, r2}
1000010c:	f381 8808 	msr	MSP, r1
10000110:	4710      	bx	r2

10000112 <_reset_handler>:
10000112:	4825      	ldr	r0, [pc, #148]	; (100001a8 <__get_current_exception+0x12>)
10000114:	6800      	ldr	r0, [r0, #0]
10000116:	2800      	cmp	r0, #0
10000118:	d139      	bne.n	1000018e <wait_for_vector>
1000011a:	a412      	add	r4, pc, #72	; (adr r4, 10000164 <data_cpy_table>)
1000011c:	cc0e      	ldmia	r4!, {r1, r2, r3}
1000011e:	2900      	cmp	r1, #0
10000120:	d002      	beq.n	10000128 <_reset_handler+0x16>
10000122:	f000 f812 	bl	1000014a <data_cpy>
10000126:	e7f9      	b.n	1000011c <_reset_handler+0xa>
10000128:	4920      	ldr	r1, [pc, #128]	; (100001ac <__get_current_exception+0x16>)
1000012a:	4a21      	ldr	r2, [pc, #132]	; (100001b0 <__get_current_exception+0x1a>)
1000012c:	2000      	movs	r0, #0
1000012e:	e000      	b.n	10000132 <bss_fill_test>

10000130 <bss_fill_loop>:
10000130:	c101      	stmia	r1!, {r0}

10000132 <bss_fill_test>:
10000132:	4291      	cmp	r1, r2
10000134:	d1fc      	bne.n	10000130 <bss_fill_loop>

10000136 <platform_entry>:
10000136:	491f      	ldr	r1, [pc, #124]	; (100001b4 <__get_current_exception+0x1e>)
10000138:	4788      	blx	r1
1000013a:	491f      	ldr	r1, [pc, #124]	; (100001b8 <__get_current_exception+0x22>)
1000013c:	4788      	blx	r1
1000013e:	491f      	ldr	r1, [pc, #124]	; (100001bc <__get_current_exception+0x26>)
10000140:	4788      	blx	r1
10000142:	be00      	bkpt	0x0000
10000144:	e7fd      	b.n	10000142 <platform_entry+0xc>

10000146 <data_cpy_loop>:
10000146:	c901      	ldmia	r1!, {r0}
10000148:	c201      	stmia	r2!, {r0}

1000014a <data_cpy>:
1000014a:	429a      	cmp	r2, r3
1000014c:	d3fb      	bcc.n	10000146 <data_cpy_loop>
1000014e:	4770      	bx	lr

10000150 <binary_info_header>:
10000150:	7188ebf2 	.word	0x7188ebf2
10000154:	10004e5c 	.word	0x10004e5c
10000158:	10004e7c 	.word	0x10004e7c
1000015c:	10000164 	.word	0x10000164
10000160:	e71aa390 	.word	0xe71aa390

10000164 <data_cpy_table>:
10000164:	10004e7c 	.word	0x10004e7c
10000168:	200000c0 	.word	0x200000c0
1000016c:	20000b54 	.word	0x20000b54
10000170:	10005910 	.word	0x10005910
10000174:	20040000 	.word	0x20040000
10000178:	20040000 	.word	0x20040000
1000017c:	10005910 	.word	0x10005910
10000180:	20041000 	.word	0x20041000
10000184:	20041000 	.word	0x20041000
10000188:	00000000 	.word	0x00000000
1000018c:	4770      	bx	lr

1000018e <wait_for_vector>:
1000018e:	480c      	ldr	r0, [pc, #48]	; (100001c0 <__get_current_exception+0x2a>)
10000190:	f001 fd2e 	bl	10001bf0 <rom_func_lookup>
10000194:	4700      	bx	r0

10000196 <__get_current_exception>:
10000196:	f3ef 8005 	mrs	r0, IPSR
1000019a:	b2c0      	uxtb	r0, r0
1000019c:	4770      	bx	lr
1000019e:	0000      	.short	0x0000
100001a0:	10000200 	.word	0x10000200
100001a4:	e000ed00 	.word	0xe000ed00
100001a8:	d0000000 	.word	0xd0000000
100001ac:	20000b58 	.word	0x20000b58
100001b0:	20001938 	.word	0x20001938
100001b4:	10001385 	.word	0x10001385
100001b8:	10000321 	.word	0x10000321
100001bc:	100014a5 	.word	0x100014a5
100001c0:	00005657 	.word	0x00005657

100001c4 <__bi_46>:
100001c4:	50520006 5360b3ab 10004be8              ..RP..`S.K..

100001d0 <__bi_34>:
100001d0:	50520006 02031c86 10004bf8              ..RP.....K..

100001dc <__bi_26>:
100001dc:	50520006 9da22254 10004c04              ..RPT"...L..

100001e8 <__bi_18>:
100001e8:	50520005 68f465de 10005910 00000000     ..RP.e.h.Y......
	...

10000200 <__reset_end>:
10000200:	20042000 	.word	0x20042000
10000204:	10000113 	.word	0x10000113
10000208:	100002c3 	.word	0x100002c3
1000020c:	100002c5 	.word	0x100002c5
10000210:	100002c1 	.word	0x100002c1
10000214:	100002c1 	.word	0x100002c1
10000218:	100002c1 	.word	0x100002c1
1000021c:	100002c1 	.word	0x100002c1
10000220:	100002c1 	.word	0x100002c1
10000224:	100002c1 	.word	0x100002c1
10000228:	100002c1 	.word	0x100002c1
1000022c:	100002c7 	.word	0x100002c7
10000230:	100002c1 	.word	0x100002c1
10000234:	100002c1 	.word	0x100002c1
10000238:	100002c9 	.word	0x100002c9
1000023c:	100002cb 	.word	0x100002cb
10000240:	100002cd 	.word	0x100002cd
10000244:	100002cd 	.word	0x100002cd
10000248:	100002cd 	.word	0x100002cd
1000024c:	100002cd 	.word	0x100002cd
10000250:	100002cd 	.word	0x100002cd
10000254:	100002cd 	.word	0x100002cd
10000258:	100002cd 	.word	0x100002cd
1000025c:	100002cd 	.word	0x100002cd
10000260:	100002cd 	.word	0x100002cd
10000264:	100002cd 	.word	0x100002cd
10000268:	100002cd 	.word	0x100002cd
1000026c:	100002cd 	.word	0x100002cd
10000270:	100002cd 	.word	0x100002cd
10000274:	100002cd 	.word	0x100002cd
10000278:	100002cd 	.word	0x100002cd
1000027c:	100002cd 	.word	0x100002cd
10000280:	100002cd 	.word	0x100002cd
10000284:	100002cd 	.word	0x100002cd
10000288:	100002cd 	.word	0x100002cd
1000028c:	100002cd 	.word	0x100002cd
10000290:	100002cd 	.word	0x100002cd
10000294:	100002cd 	.word	0x100002cd
10000298:	100002cd 	.word	0x100002cd
1000029c:	100002cd 	.word	0x100002cd
100002a0:	100002cd 	.word	0x100002cd
100002a4:	100002cd 	.word	0x100002cd
100002a8:	100002cd 	.word	0x100002cd
100002ac:	100002cd 	.word	0x100002cd
100002b0:	100002cd 	.word	0x100002cd
100002b4:	100002cd 	.word	0x100002cd
100002b8:	100002cd 	.word	0x100002cd
100002bc:	100002cd 	.word	0x100002cd

100002c0 <isr_invalid>:
100002c0:	be00      	bkpt	0x0000

100002c2 <isr_nmi>:
100002c2:	be00      	bkpt	0x0000

100002c4 <isr_hardfault>:
100002c4:	be00      	bkpt	0x0000

100002c6 <isr_svcall>:
100002c6:	be00      	bkpt	0x0000

100002c8 <isr_pendsv>:
100002c8:	be00      	bkpt	0x0000

100002ca <isr_systick>:
100002ca:	be00      	bkpt	0x0000

100002cc <__unhandled_user_irq>:
100002cc:	f7ff ff63 	bl	10000196 <__get_current_exception>
100002d0:	3810      	subs	r0, #16

100002d2 <unhandled_user_irq_num_in_r0>:
100002d2:	be00      	bkpt	0x0000

100002d4 <_init>:
100002d4:	b5f8      	push	{r3, r4, r5, r6, r7, lr}
100002d6:	46c0      	nop			; (mov r8, r8)

100002d8 <__do_global_dtors_aux>:
100002d8:	b510      	push	{r4, lr}
100002da:	4c06      	ldr	r4, [pc, #24]	; (100002f4 <__do_global_dtors_aux+0x1c>)
100002dc:	7823      	ldrb	r3, [r4, #0]
100002de:	2b00      	cmp	r3, #0
100002e0:	d107      	bne.n	100002f2 <__do_global_dtors_aux+0x1a>
100002e2:	4b05      	ldr	r3, [pc, #20]	; (100002f8 <__do_global_dtors_aux+0x20>)
100002e4:	2b00      	cmp	r3, #0
100002e6:	d002      	beq.n	100002ee <__do_global_dtors_aux+0x16>
100002e8:	4804      	ldr	r0, [pc, #16]	; (100002fc <__do_global_dtors_aux+0x24>)
100002ea:	e000      	b.n	100002ee <__do_global_dtors_aux+0x16>
100002ec:	bf00      	nop
100002ee:	2301      	movs	r3, #1
100002f0:	7023      	strb	r3, [r4, #0]
100002f2:	bd10      	pop	{r4, pc}
100002f4:	20000b60 	.word	0x20000b60
100002f8:	00000000 	.word	0x00000000
100002fc:	10004b28 	.word	0x10004b28

10000300 <frame_dummy>:
10000300:	4b04      	ldr	r3, [pc, #16]	; (10000314 <frame_dummy+0x14>)
10000302:	b510      	push	{r4, lr}
10000304:	2b00      	cmp	r3, #0
10000306:	d003      	beq.n	10000310 <frame_dummy+0x10>
10000308:	4903      	ldr	r1, [pc, #12]	; (10000318 <frame_dummy+0x18>)
1000030a:	4804      	ldr	r0, [pc, #16]	; (1000031c <frame_dummy+0x1c>)
1000030c:	e000      	b.n	10000310 <frame_dummy+0x10>
1000030e:	bf00      	nop
10000310:	bd10      	pop	{r4, pc}
10000312:	46c0      	nop			; (mov r8, r8)
10000314:	00000000 	.word	0x00000000
10000318:	20000b64 	.word	0x20000b64
1000031c:	10004b28 	.word	0x10004b28

10000320 <main>:
10000320:	b510      	push	{r4, lr}
10000322:	f001 feb3 	bl	1000208c <stdio_init_all>
10000326:	4c04      	ldr	r4, [pc, #16]	; (10000338 <main+0x18>)
10000328:	0020      	movs	r0, r4
1000032a:	f001 fe73 	bl	10002014 <__wrap_puts>
1000032e:	20fa      	movs	r0, #250	; 0xfa
10000330:	0080      	lsls	r0, r0, #2
10000332:	f000 fc41 	bl	10000bb8 <sleep_ms>
10000336:	e7f7      	b.n	10000328 <main+0x8>
10000338:	10004b28 	.word	0x10004b28

1000033c <hw_claim_or_assert>:
1000033c:	b5f8      	push	{r3, r4, r5, r6, r7, lr}
1000033e:	46ce      	mov	lr, r9
10000340:	4647      	mov	r7, r8
10000342:	4691      	mov	r9, r2
10000344:	b580      	push	{r7, lr}
10000346:	f3ef 8710 	mrs	r7, PRIMASK
1000034a:	b672      	cpsid	i
1000034c:	4e12      	ldr	r6, [pc, #72]	; (10000398 <hw_claim_or_assert+0x5c>)
1000034e:	6833      	ldr	r3, [r6, #0]
10000350:	2b00      	cmp	r3, #0
10000352:	d0fc      	beq.n	1000034e <hw_claim_or_assert+0x12>
10000354:	f3bf 8f5f 	dmb	sy
10000358:	08cb      	lsrs	r3, r1, #3
1000035a:	5cc5      	ldrb	r5, [r0, r3]
1000035c:	2407      	movs	r4, #7
1000035e:	18c2      	adds	r2, r0, r3
10000360:	0028      	movs	r0, r5
10000362:	2301      	movs	r3, #1
10000364:	400c      	ands	r4, r1
10000366:	4694      	mov	ip, r2
10000368:	40e0      	lsrs	r0, r4
1000036a:	001a      	movs	r2, r3
1000036c:	4002      	ands	r2, r0
1000036e:	4690      	mov	r8, r2
10000370:	4203      	tst	r3, r0
10000372:	d10d      	bne.n	10000390 <hw_claim_or_assert+0x54>
10000374:	40a3      	lsls	r3, r4
10000376:	4662      	mov	r2, ip
10000378:	432b      	orrs	r3, r5
1000037a:	7013      	strb	r3, [r2, #0]
1000037c:	f3bf 8f5f 	dmb	sy
10000380:	4643      	mov	r3, r8
10000382:	6033      	str	r3, [r6, #0]
10000384:	f387 8810 	msr	PRIMASK, r7
10000388:	bc0c      	pop	{r2, r3}
1000038a:	4690      	mov	r8, r2
1000038c:	4699      	mov	r9, r3
1000038e:	bdf8      	pop	{r3, r4, r5, r6, r7, pc}
10000390:	4648      	mov	r0, r9
10000392:	f001 f889 	bl	100014a8 <panic>
10000396:	46c0      	nop			; (mov r8, r8)
10000398:	d000012c 	.word	0xd000012c

1000039c <hw_claim_unused_from_range>:
1000039c:	b5f8      	push	{r3, r4, r5, r6, r7, lr}
1000039e:	4647      	mov	r7, r8
100003a0:	46ce      	mov	lr, r9
100003a2:	4688      	mov	r8, r1
100003a4:	b580      	push	{r7, lr}
100003a6:	f3ef 8c10 	mrs	ip, PRIMASK
100003aa:	b672      	cpsid	i
100003ac:	4d21      	ldr	r5, [pc, #132]	; (10000434 <hw_claim_unused_from_range+0x98>)
100003ae:	682c      	ldr	r4, [r5, #0]
100003b0:	2c00      	cmp	r4, #0
100003b2:	d0fc      	beq.n	100003ae <hw_claim_unused_from_range+0x12>
100003b4:	f3bf 8f5f 	dmb	sy
100003b8:	429a      	cmp	r2, r3
100003ba:	d82d      	bhi.n	10000418 <hw_claim_unused_from_range+0x7c>
100003bc:	08d4      	lsrs	r4, r2, #3
100003be:	5d05      	ldrb	r5, [r0, r4]
100003c0:	1907      	adds	r7, r0, r4
100003c2:	2407      	movs	r4, #7
100003c4:	002e      	movs	r6, r5
100003c6:	4014      	ands	r4, r2
100003c8:	40e6      	lsrs	r6, r4
100003ca:	07f1      	lsls	r1, r6, #31
100003cc:	d51e      	bpl.n	1000040c <hw_claim_unused_from_range+0x70>
100003ce:	2107      	movs	r1, #7
100003d0:	4689      	mov	r9, r1
100003d2:	3906      	subs	r1, #6
100003d4:	e008      	b.n	100003e8 <hw_claim_unused_from_range+0x4c>
100003d6:	08d4      	lsrs	r4, r2, #3
100003d8:	5d05      	ldrb	r5, [r0, r4]
100003da:	1907      	adds	r7, r0, r4
100003dc:	464c      	mov	r4, r9
100003de:	002e      	movs	r6, r5
100003e0:	4014      	ands	r4, r2
100003e2:	40e6      	lsrs	r6, r4
100003e4:	4231      	tst	r1, r6
100003e6:	d011      	beq.n	1000040c <hw_claim_unused_from_range+0x70>
100003e8:	3201      	adds	r2, #1
100003ea:	4293      	cmp	r3, r2
100003ec:	d2f3      	bcs.n	100003d6 <hw_claim_unused_from_range+0x3a>
100003ee:	2001      	movs	r0, #1
100003f0:	4240      	negs	r0, r0
100003f2:	f3bf 8f5f 	dmb	sy
100003f6:	2200      	movs	r2, #0
100003f8:	4b0e      	ldr	r3, [pc, #56]	; (10000434 <hw_claim_unused_from_range+0x98>)
100003fa:	601a      	str	r2, [r3, #0]
100003fc:	f38c 8810 	msr	PRIMASK, ip
10000400:	2800      	cmp	r0, #0
10000402:	db11      	blt.n	10000428 <hw_claim_unused_from_range+0x8c>
10000404:	bc0c      	pop	{r2, r3}
10000406:	4690      	mov	r8, r2
10000408:	4699      	mov	r9, r3
1000040a:	bdf8      	pop	{r3, r4, r5, r6, r7, pc}
1000040c:	2301      	movs	r3, #1
1000040e:	40a3      	lsls	r3, r4
10000410:	431d      	orrs	r5, r3
10000412:	0010      	movs	r0, r2
10000414:	703d      	strb	r5, [r7, #0]
10000416:	e7ec      	b.n	100003f2 <hw_claim_unused_from_range+0x56>
10000418:	f3bf 8f5f 	dmb	sy
1000041c:	2300      	movs	r3, #0
1000041e:	602b      	str	r3, [r5, #0]
10000420:	f38c 8810 	msr	PRIMASK, ip
10000424:	2001      	movs	r0, #1
10000426:	4240      	negs	r0, r0
10000428:	4643      	mov	r3, r8
1000042a:	2b00      	cmp	r3, #0
1000042c:	d0ea      	beq.n	10000404 <hw_claim_unused_from_range+0x68>
1000042e:	9808      	ldr	r0, [sp, #32]
10000430:	f001 f83a 	bl	100014a8 <panic>
10000434:	d000012c 	.word	0xd000012c

10000438 <spin_locks_reset>:
10000438:	2100      	movs	r1, #0
1000043a:	4b04      	ldr	r3, [pc, #16]	; (1000044c <spin_locks_reset+0x14>)
1000043c:	4a04      	ldr	r2, [pc, #16]	; (10000450 <spin_locks_reset+0x18>)
1000043e:	f3bf 8f5f 	dmb	sy
10000442:	c302      	stmia	r3!, {r1}
10000444:	4293      	cmp	r3, r2
10000446:	d1fa      	bne.n	1000043e <spin_locks_reset+0x6>
10000448:	4770      	bx	lr
1000044a:	46c0      	nop			; (mov r8, r8)
1000044c:	d0000100 	.word	0xd0000100
10000450:	d0000180 	.word	0xd0000180

10000454 <next_striped_spin_lock_num>:
10000454:	4a04      	ldr	r2, [pc, #16]	; (10000468 <next_striped_spin_lock_num+0x14>)
10000456:	7810      	ldrb	r0, [r2, #0]
10000458:	1c43      	adds	r3, r0, #1
1000045a:	b2db      	uxtb	r3, r3
1000045c:	2b17      	cmp	r3, #23
1000045e:	d900      	bls.n	10000462 <next_striped_spin_lock_num+0xe>
10000460:	2310      	movs	r3, #16
10000462:	7013      	strb	r3, [r2, #0]
10000464:	4770      	bx	lr
10000466:	46c0      	nop			; (mov r8, r8)
10000468:	20000250 	.word	0x20000250

1000046c <spin_lock_claim_unused>:
1000046c:	b500      	push	{lr}
1000046e:	4b05      	ldr	r3, [pc, #20]	; (10000484 <spin_lock_claim_unused+0x18>)
10000470:	b083      	sub	sp, #12
10000472:	0001      	movs	r1, r0
10000474:	9300      	str	r3, [sp, #0]
10000476:	2218      	movs	r2, #24
10000478:	231f      	movs	r3, #31
1000047a:	4803      	ldr	r0, [pc, #12]	; (10000488 <spin_lock_claim_unused+0x1c>)
1000047c:	f7ff ff8e 	bl	1000039c <hw_claim_unused_from_range>
10000480:	b003      	add	sp, #12
10000482:	bd00      	pop	{pc}
10000484:	10004b38 	.word	0x10004b38
10000488:	20000f30 	.word	0x20000f30

1000048c <running_on_fpga>:
1000048c:	4b02      	ldr	r3, [pc, #8]	; (10000498 <running_on_fpga+0xc>)
1000048e:	6818      	ldr	r0, [r3, #0]
10000490:	0780      	lsls	r0, r0, #30
10000492:	0fc0      	lsrs	r0, r0, #31
10000494:	4770      	bx	lr
10000496:	46c0      	nop			; (mov r8, r8)
10000498:	4006c000 	.word	0x4006c000

1000049c <timer_pool_entry_comparator>:
1000049c:	6883      	ldr	r3, [r0, #8]
1000049e:	480b      	ldr	r0, [pc, #44]	; (100004cc <timer_pool_entry_comparator+0x30>)
100004a0:	b510      	push	{r4, lr}
100004a2:	4684      	mov	ip, r0
100004a4:	4461      	add	r1, ip
100004a6:	4462      	add	r2, ip
100004a8:	0109      	lsls	r1, r1, #4
100004aa:	0112      	lsls	r2, r2, #4
100004ac:	189a      	adds	r2, r3, r2
100004ae:	1859      	adds	r1, r3, r1
100004b0:	6854      	ldr	r4, [r2, #4]
100004b2:	684b      	ldr	r3, [r1, #4]
100004b4:	2001      	movs	r0, #1
100004b6:	429c      	cmp	r4, r3
100004b8:	d801      	bhi.n	100004be <timer_pool_entry_comparator+0x22>
100004ba:	d002      	beq.n	100004c2 <timer_pool_entry_comparator+0x26>
100004bc:	2000      	movs	r0, #0
100004be:	b2c0      	uxtb	r0, r0
100004c0:	bd10      	pop	{r4, pc}
100004c2:	6812      	ldr	r2, [r2, #0]
100004c4:	680b      	ldr	r3, [r1, #0]
100004c6:	429a      	cmp	r2, r3
100004c8:	d8f9      	bhi.n	100004be <timer_pool_entry_comparator+0x22>
100004ca:	e7f7      	b.n	100004bc <timer_pool_entry_comparator+0x20>
100004cc:	0fffffff 	.word	0x0fffffff

100004d0 <sev_callback>:
100004d0:	bf40      	sev
100004d2:	2000      	movs	r0, #0
100004d4:	2100      	movs	r1, #0
100004d6:	4770      	bx	lr

100004d8 <add_alarm_under_lock>:
100004d8:	b5f0      	push	{r4, r5, r6, r7, lr}
100004da:	4657      	mov	r7, sl
100004dc:	4645      	mov	r5, r8
100004de:	46de      	mov	lr, fp
100004e0:	464e      	mov	r6, r9
100004e2:	b5e0      	push	{r5, r6, r7, lr}
100004e4:	b083      	sub	sp, #12
100004e6:	001f      	movs	r7, r3
100004e8:	ab0f      	add	r3, sp, #60	; 0x3c
100004ea:	781b      	ldrb	r3, [r3, #0]
100004ec:	9c0e      	ldr	r4, [sp, #56]	; 0x38
100004ee:	0005      	movs	r5, r0
100004f0:	4692      	mov	sl, r2
100004f2:	9301      	str	r3, [sp, #4]
100004f4:	2c00      	cmp	r4, #0
100004f6:	d10d      	bne.n	10000514 <add_alarm_under_lock+0x3c>
100004f8:	6802      	ldr	r2, [r0, #0]
100004fa:	7b94      	ldrb	r4, [r2, #14]
100004fc:	2c00      	cmp	r4, #0
100004fe:	d056      	beq.n	100005ae <add_alarm_under_lock+0xd6>
10000500:	6811      	ldr	r1, [r2, #0]
10000502:	0063      	lsls	r3, r4, #1
10000504:	468c      	mov	ip, r1
10000506:	191b      	adds	r3, r3, r4
10000508:	4463      	add	r3, ip
1000050a:	3b03      	subs	r3, #3
1000050c:	785b      	ldrb	r3, [r3, #1]
1000050e:	7393      	strb	r3, [r2, #14]
10000510:	2b00      	cmp	r3, #0
10000512:	d054      	beq.n	100005be <add_alarm_under_lock+0xe6>
10000514:	68aa      	ldr	r2, [r5, #8]
10000516:	b2e3      	uxtb	r3, r4
10000518:	4694      	mov	ip, r2
1000051a:	4652      	mov	r2, sl
1000051c:	469b      	mov	fp, r3
1000051e:	4b38      	ldr	r3, [pc, #224]	; (10000600 <add_alarm_under_lock+0x128>)
10000520:	682e      	ldr	r6, [r5, #0]
10000522:	18e3      	adds	r3, r4, r3
10000524:	011b      	lsls	r3, r3, #4
10000526:	4463      	add	r3, ip
10000528:	601a      	str	r2, [r3, #0]
1000052a:	9a0c      	ldr	r2, [sp, #48]	; 0x30
1000052c:	605f      	str	r7, [r3, #4]
1000052e:	609a      	str	r2, [r3, #8]
10000530:	9a0d      	ldr	r2, [sp, #52]	; 0x34
10000532:	60da      	str	r2, [r3, #12]
10000534:	23d0      	movs	r3, #208	; 0xd0
10000536:	2280      	movs	r2, #128	; 0x80
10000538:	061b      	lsls	r3, r3, #24
1000053a:	0312      	lsls	r2, r2, #12
1000053c:	615a      	str	r2, [r3, #20]
1000053e:	0063      	lsls	r3, r4, #1
10000540:	191b      	adds	r3, r3, r4
10000542:	3b03      	subs	r3, #3
10000544:	4698      	mov	r8, r3
10000546:	2200      	movs	r2, #0
10000548:	6833      	ldr	r3, [r6, #0]
1000054a:	4443      	add	r3, r8
1000054c:	709a      	strb	r2, [r3, #2]
1000054e:	705a      	strb	r2, [r3, #1]
10000550:	701a      	strb	r2, [r3, #0]
10000552:	7b73      	ldrb	r3, [r6, #13]
10000554:	4699      	mov	r9, r3
10000556:	2b00      	cmp	r3, #0
10000558:	d017      	beq.n	1000058a <add_alarm_under_lock+0xb2>
1000055a:	465a      	mov	r2, fp
1000055c:	0019      	movs	r1, r3
1000055e:	68b0      	ldr	r0, [r6, #8]
10000560:	6873      	ldr	r3, [r6, #4]
10000562:	4798      	blx	r3
10000564:	6832      	ldr	r2, [r6, #0]
10000566:	2800      	cmp	r0, #0
10000568:	d12b      	bne.n	100005c2 <add_alarm_under_lock+0xea>
1000056a:	4643      	mov	r3, r8
1000056c:	18d1      	adds	r1, r2, r3
1000056e:	464b      	mov	r3, r9
10000570:	4658      	mov	r0, fp
10000572:	005b      	lsls	r3, r3, #1
10000574:	444b      	add	r3, r9
10000576:	3b03      	subs	r3, #3
10000578:	18d3      	adds	r3, r2, r3
1000057a:	7098      	strb	r0, [r3, #2]
1000057c:	4640      	mov	r0, r8
1000057e:	5c12      	ldrb	r2, [r2, r0]
10000580:	2a00      	cmp	r2, #0
10000582:	d000      	beq.n	10000586 <add_alarm_under_lock+0xae>
10000584:	705a      	strb	r2, [r3, #1]
10000586:	464b      	mov	r3, r9
10000588:	700b      	strb	r3, [r1, #0]
1000058a:	465b      	mov	r3, fp
1000058c:	7373      	strb	r3, [r6, #13]
1000058e:	4652      	mov	r2, sl
10000590:	003b      	movs	r3, r7
10000592:	7d28      	ldrb	r0, [r5, #20]
10000594:	f000 fc4e 	bl	10000e34 <hardware_alarm_set_target>
10000598:	1e06      	subs	r6, r0, #0
1000059a:	d002      	beq.n	100005a2 <add_alarm_under_lock+0xca>
1000059c:	9b01      	ldr	r3, [sp, #4]
1000059e:	2b00      	cmp	r3, #0
100005a0:	d026      	beq.n	100005f0 <add_alarm_under_lock+0x118>
100005a2:	9b10      	ldr	r3, [sp, #64]	; 0x40
100005a4:	2b00      	cmp	r3, #0
100005a6:	d028      	beq.n	100005fa <add_alarm_under_lock+0x122>
100005a8:	0020      	movs	r0, r4
100005aa:	701e      	strb	r6, [r3, #0]
100005ac:	e000      	b.n	100005b0 <add_alarm_under_lock+0xd8>
100005ae:	2000      	movs	r0, #0
100005b0:	b003      	add	sp, #12
100005b2:	bc3c      	pop	{r2, r3, r4, r5}
100005b4:	4690      	mov	r8, r2
100005b6:	4699      	mov	r9, r3
100005b8:	46a2      	mov	sl, r4
100005ba:	46ab      	mov	fp, r5
100005bc:	bdf0      	pop	{r4, r5, r6, r7, pc}
100005be:	73d3      	strb	r3, [r2, #15]
100005c0:	e7a8      	b.n	10000514 <add_alarm_under_lock+0x3c>
100005c2:	464b      	mov	r3, r9
100005c4:	005b      	lsls	r3, r3, #1
100005c6:	444b      	add	r3, r9
100005c8:	3b03      	subs	r3, #3
100005ca:	18d1      	adds	r1, r2, r3
100005cc:	468c      	mov	ip, r1
100005ce:	4641      	mov	r1, r8
100005d0:	4648      	mov	r0, r9
100005d2:	1851      	adds	r1, r2, r1
100005d4:	7088      	strb	r0, [r1, #2]
100005d6:	5cd3      	ldrb	r3, [r2, r3]
100005d8:	2b00      	cmp	r3, #0
100005da:	d000      	beq.n	100005de <add_alarm_under_lock+0x106>
100005dc:	704b      	strb	r3, [r1, #1]
100005de:	465b      	mov	r3, fp
100005e0:	4662      	mov	r2, ip
100005e2:	7013      	strb	r3, [r2, #0]
100005e4:	464b      	mov	r3, r9
100005e6:	0020      	movs	r0, r4
100005e8:	7373      	strb	r3, [r6, #13]
100005ea:	45a1      	cmp	r9, r4
100005ec:	d1e0      	bne.n	100005b0 <add_alarm_under_lock+0xd8>
100005ee:	e7ce      	b.n	1000058e <add_alarm_under_lock+0xb6>
100005f0:	4659      	mov	r1, fp
100005f2:	6828      	ldr	r0, [r5, #0]
100005f4:	f000 fe88 	bl	10001308 <ph_delete>
100005f8:	e7d3      	b.n	100005a2 <add_alarm_under_lock+0xca>
100005fa:	0020      	movs	r0, r4
100005fc:	e7d8      	b.n	100005b0 <add_alarm_under_lock+0xd8>
100005fe:	46c0      	nop			; (mov r8, r8)
10000600:	0fffffff 	.word	0x0fffffff

10000604 <alarm_pool_alarm_callback>:
10000604:	b5f0      	push	{r4, r5, r6, r7, lr}
10000606:	46de      	mov	lr, fp
10000608:	464e      	mov	r6, r9
1000060a:	4657      	mov	r7, sl
1000060c:	4645      	mov	r5, r8
1000060e:	2300      	movs	r3, #0
10000610:	b5e0      	push	{r5, r6, r7, lr}
10000612:	b08d      	sub	sp, #52	; 0x34
10000614:	930a      	str	r3, [sp, #40]	; 0x28
10000616:	4b71      	ldr	r3, [pc, #452]	; (100007dc <alarm_pool_alarm_callback+0x1d8>)
10000618:	0082      	lsls	r2, r0, #2
1000061a:	58d3      	ldr	r3, [r2, r3]
1000061c:	900b      	str	r0, [sp, #44]	; 0x2c
1000061e:	4699      	mov	r9, r3
10000620:	2300      	movs	r3, #0
10000622:	469b      	mov	fp, r3
10000624:	464b      	mov	r3, r9
10000626:	9307      	str	r3, [sp, #28]
10000628:	f000 fba4 	bl	10000d74 <time_us_64>
1000062c:	9c07      	ldr	r4, [sp, #28]
1000062e:	0006      	movs	r6, r0
10000630:	000f      	movs	r7, r1
10000632:	6862      	ldr	r2, [r4, #4]
10000634:	f3ef 8510 	mrs	r5, PRIMASK
10000638:	b672      	cpsid	i
1000063a:	6813      	ldr	r3, [r2, #0]
1000063c:	2b00      	cmp	r3, #0
1000063e:	d0fc      	beq.n	1000063a <alarm_pool_alarm_callback+0x36>
10000640:	0022      	movs	r2, r4
10000642:	9407      	str	r4, [sp, #28]
10000644:	f3bf 8f5f 	dmb	sy
10000648:	6824      	ldr	r4, [r4, #0]
1000064a:	7b63      	ldrb	r3, [r4, #13]
1000064c:	4699      	mov	r9, r3
1000064e:	2b00      	cmp	r3, #0
10000650:	d100      	bne.n	10000654 <alarm_pool_alarm_callback+0x50>
10000652:	e070      	b.n	10000736 <alarm_pool_alarm_callback+0x132>
10000654:	6892      	ldr	r2, [r2, #8]
10000656:	4b62      	ldr	r3, [pc, #392]	; (100007e0 <alarm_pool_alarm_callback+0x1dc>)
10000658:	4690      	mov	r8, r2
1000065a:	444b      	add	r3, r9
1000065c:	011b      	lsls	r3, r3, #4
1000065e:	4498      	add	r8, r3
10000660:	4643      	mov	r3, r8
10000662:	681a      	ldr	r2, [r3, #0]
10000664:	685b      	ldr	r3, [r3, #4]
10000666:	0010      	movs	r0, r2
10000668:	0019      	movs	r1, r3
1000066a:	1b80      	subs	r0, r0, r6
1000066c:	41b9      	sbcs	r1, r7
1000066e:	2900      	cmp	r1, #0
10000670:	dd68      	ble.n	10000744 <alarm_pool_alarm_callback+0x140>
10000672:	980b      	ldr	r0, [sp, #44]	; 0x2c
10000674:	f000 fbde 	bl	10000e34 <hardware_alarm_set_target>
10000678:	2300      	movs	r3, #0
1000067a:	2600      	movs	r6, #0
1000067c:	4698      	mov	r8, r3
1000067e:	2700      	movs	r7, #0
10000680:	469a      	mov	sl, r3
10000682:	9c07      	ldr	r4, [sp, #28]
10000684:	6863      	ldr	r3, [r4, #4]
10000686:	f3bf 8f5f 	dmb	sy
1000068a:	465a      	mov	r2, fp
1000068c:	601a      	str	r2, [r3, #0]
1000068e:	f385 8810 	msr	PRIMASK, r5
10000692:	4653      	mov	r3, sl
10000694:	2b00      	cmp	r3, #0
10000696:	d108      	bne.n	100006aa <alarm_pool_alarm_callback+0xa6>
10000698:	2800      	cmp	r0, #0
1000069a:	d1c5      	bne.n	10000628 <alarm_pool_alarm_callback+0x24>
1000069c:	b00d      	add	sp, #52	; 0x34
1000069e:	bc3c      	pop	{r2, r3, r4, r5}
100006a0:	4690      	mov	r8, r2
100006a2:	4699      	mov	r9, r3
100006a4:	46a2      	mov	sl, r4
100006a6:	46ab      	mov	fp, r5
100006a8:	bdf0      	pop	{r4, r5, r6, r7, pc}
100006aa:	23d0      	movs	r3, #208	; 0xd0
100006ac:	2280      	movs	r2, #128	; 0x80
100006ae:	2180      	movs	r1, #128	; 0x80
100006b0:	061b      	lsls	r3, r3, #24
100006b2:	0392      	lsls	r2, r2, #14
100006b4:	0309      	lsls	r1, r1, #12
100006b6:	615a      	str	r2, [r3, #20]
100006b8:	6199      	str	r1, [r3, #24]
100006ba:	619a      	str	r2, [r3, #24]
100006bc:	9b0a      	ldr	r3, [sp, #40]	; 0x28
100006be:	4641      	mov	r1, r8
100006c0:	0218      	lsls	r0, r3, #8
100006c2:	464b      	mov	r3, r9
100006c4:	4318      	orrs	r0, r3
100006c6:	47d0      	blx	sl
100006c8:	9008      	str	r0, [sp, #32]
100006ca:	9109      	str	r1, [sp, #36]	; 0x24
100006cc:	6862      	ldr	r2, [r4, #4]
100006ce:	f3ef 8510 	mrs	r5, PRIMASK
100006d2:	b672      	cpsid	i
100006d4:	6813      	ldr	r3, [r2, #0]
100006d6:	2b00      	cmp	r3, #0
100006d8:	d0fc      	beq.n	100006d4 <alarm_pool_alarm_callback+0xd0>
100006da:	9407      	str	r4, [sp, #28]
100006dc:	f3bf 8f5f 	dmb	sy
100006e0:	9908      	ldr	r1, [sp, #32]
100006e2:	9a09      	ldr	r2, [sp, #36]	; 0x24
100006e4:	2a00      	cmp	r2, #0
100006e6:	db49      	blt.n	1000077c <alarm_pool_alarm_callback+0x178>
100006e8:	4311      	orrs	r1, r2
100006ea:	d003      	beq.n	100006f4 <alarm_pool_alarm_callback+0xf0>
100006ec:	9b07      	ldr	r3, [sp, #28]
100006ee:	691b      	ldr	r3, [r3, #16]
100006f0:	2b00      	cmp	r3, #0
100006f2:	d15e      	bne.n	100007b2 <alarm_pool_alarm_callback+0x1ae>
100006f4:	9b07      	ldr	r3, [sp, #28]
100006f6:	681b      	ldr	r3, [r3, #0]
100006f8:	7bda      	ldrb	r2, [r3, #15]
100006fa:	2a00      	cmp	r2, #0
100006fc:	d007      	beq.n	1000070e <alarm_pool_alarm_callback+0x10a>
100006fe:	0051      	lsls	r1, r2, #1
10000700:	188a      	adds	r2, r1, r2
10000702:	6819      	ldr	r1, [r3, #0]
10000704:	468c      	mov	ip, r1
10000706:	4649      	mov	r1, r9
10000708:	4462      	add	r2, ip
1000070a:	3a03      	subs	r2, #3
1000070c:	7051      	strb	r1, [r2, #1]
1000070e:	464a      	mov	r2, r9
10000710:	73da      	strb	r2, [r3, #15]
10000712:	464b      	mov	r3, r9
10000714:	9a07      	ldr	r2, [sp, #28]
10000716:	3b01      	subs	r3, #1
10000718:	68d1      	ldr	r1, [r2, #12]
1000071a:	5cca      	ldrb	r2, [r1, r3]
1000071c:	3201      	adds	r2, #1
1000071e:	54ca      	strb	r2, [r1, r3]
10000720:	465b      	mov	r3, fp
10000722:	9a07      	ldr	r2, [sp, #28]
10000724:	6113      	str	r3, [r2, #16]
10000726:	6853      	ldr	r3, [r2, #4]
10000728:	f3bf 8f5f 	dmb	sy
1000072c:	465a      	mov	r2, fp
1000072e:	601a      	str	r2, [r3, #0]
10000730:	f385 8810 	msr	PRIMASK, r5
10000734:	e778      	b.n	10000628 <alarm_pool_alarm_callback+0x24>
10000736:	2300      	movs	r3, #0
10000738:	2600      	movs	r6, #0
1000073a:	4698      	mov	r8, r3
1000073c:	2700      	movs	r7, #0
1000073e:	469a      	mov	sl, r3
10000740:	2000      	movs	r0, #0
10000742:	e79e      	b.n	10000682 <alarm_pool_alarm_callback+0x7e>
10000744:	2900      	cmp	r1, #0
10000746:	d102      	bne.n	1000074e <alarm_pool_alarm_callback+0x14a>
10000748:	2800      	cmp	r0, #0
1000074a:	d000      	beq.n	1000074e <alarm_pool_alarm_callback+0x14a>
1000074c:	e791      	b.n	10000672 <alarm_pool_alarm_callback+0x6e>
1000074e:	2101      	movs	r1, #1
10000750:	0020      	movs	r0, r4
10000752:	f000 fd3b 	bl	100011cc <ph_remove_head_reserve>
10000756:	4643      	mov	r3, r8
10000758:	681e      	ldr	r6, [r3, #0]
1000075a:	685f      	ldr	r7, [r3, #4]
1000075c:	689b      	ldr	r3, [r3, #8]
1000075e:	9a07      	ldr	r2, [sp, #28]
10000760:	469a      	mov	sl, r3
10000762:	4643      	mov	r3, r8
10000764:	68db      	ldr	r3, [r3, #12]
10000766:	4698      	mov	r8, r3
10000768:	68d3      	ldr	r3, [r2, #12]
1000076a:	444b      	add	r3, r9
1000076c:	3b01      	subs	r3, #1
1000076e:	781b      	ldrb	r3, [r3, #0]
10000770:	930a      	str	r3, [sp, #40]	; 0x28
10000772:	021b      	lsls	r3, r3, #8
10000774:	4303      	orrs	r3, r0
10000776:	6113      	str	r3, [r2, #16]
10000778:	2000      	movs	r0, #0
1000077a:	e782      	b.n	10000682 <alarm_pool_alarm_callback+0x7e>
1000077c:	6923      	ldr	r3, [r4, #16]
1000077e:	2b00      	cmp	r3, #0
10000780:	d0b8      	beq.n	100006f4 <alarm_pool_alarm_callback+0xf0>
10000782:	0033      	movs	r3, r6
10000784:	003c      	movs	r4, r7
10000786:	1a5b      	subs	r3, r3, r1
10000788:	4194      	sbcs	r4, r2
1000078a:	001a      	movs	r2, r3
1000078c:	0023      	movs	r3, r4
1000078e:	42a7      	cmp	r7, r4
10000790:	d819      	bhi.n	100007c6 <alarm_pool_alarm_callback+0x1c2>
10000792:	429f      	cmp	r7, r3
10000794:	d01b      	beq.n	100007ce <alarm_pool_alarm_callback+0x1ca>
10000796:	4659      	mov	r1, fp
10000798:	9104      	str	r1, [sp, #16]
1000079a:	2101      	movs	r1, #1
1000079c:	9103      	str	r1, [sp, #12]
1000079e:	4649      	mov	r1, r9
100007a0:	9102      	str	r1, [sp, #8]
100007a2:	4641      	mov	r1, r8
100007a4:	9101      	str	r1, [sp, #4]
100007a6:	4651      	mov	r1, sl
100007a8:	9807      	ldr	r0, [sp, #28]
100007aa:	9100      	str	r1, [sp, #0]
100007ac:	f7ff fe94 	bl	100004d8 <add_alarm_under_lock>
100007b0:	e7b6      	b.n	10000720 <alarm_pool_alarm_callback+0x11c>
100007b2:	f000 fadf 	bl	10000d74 <time_us_64>
100007b6:	9a08      	ldr	r2, [sp, #32]
100007b8:	9b09      	ldr	r3, [sp, #36]	; 0x24
100007ba:	0006      	movs	r6, r0
100007bc:	000f      	movs	r7, r1
100007be:	1992      	adds	r2, r2, r6
100007c0:	417b      	adcs	r3, r7
100007c2:	4299      	cmp	r1, r3
100007c4:	d9e5      	bls.n	10000792 <alarm_pool_alarm_callback+0x18e>
100007c6:	2201      	movs	r2, #1
100007c8:	4252      	negs	r2, r2
100007ca:	17d3      	asrs	r3, r2, #31
100007cc:	e7e3      	b.n	10000796 <alarm_pool_alarm_callback+0x192>
100007ce:	4296      	cmp	r6, r2
100007d0:	d9e1      	bls.n	10000796 <alarm_pool_alarm_callback+0x192>
100007d2:	2201      	movs	r2, #1
100007d4:	4252      	negs	r2, r2
100007d6:	17d3      	asrs	r3, r2, #31
100007d8:	e7dd      	b.n	10000796 <alarm_pool_alarm_callback+0x192>
100007da:	46c0      	nop			; (mov r8, r8)
100007dc:	2000161c 	.word	0x2000161c
100007e0:	0fffffff 	.word	0x0fffffff

100007e4 <alarm_pool_add_alarm_at.constprop.0>:
100007e4:	b5f8      	push	{r3, r4, r5, r6, r7, lr}
100007e6:	4657      	mov	r7, sl
100007e8:	464e      	mov	r6, r9
100007ea:	46de      	mov	lr, fp
100007ec:	4645      	mov	r5, r8
100007ee:	4691      	mov	r9, r2
100007f0:	b5e0      	push	{r5, r6, r7, lr}
100007f2:	0004      	movs	r4, r0
100007f4:	469a      	mov	sl, r3
100007f6:	6842      	ldr	r2, [r0, #4]
100007f8:	f3ef 8810 	mrs	r8, PRIMASK
100007fc:	b672      	cpsid	i
100007fe:	6813      	ldr	r3, [r2, #0]
10000800:	2b00      	cmp	r3, #0
10000802:	d0fc      	beq.n	100007fe <alarm_pool_add_alarm_at.constprop.0+0x1a>
10000804:	f3bf 8f5f 	dmb	sy
10000808:	6826      	ldr	r6, [r4, #0]
1000080a:	7bb5      	ldrb	r5, [r6, #14]
1000080c:	2d00      	cmp	r5, #0
1000080e:	d040      	beq.n	10000892 <alarm_pool_add_alarm_at.constprop.0+0xae>
10000810:	006f      	lsls	r7, r5, #1
10000812:	6833      	ldr	r3, [r6, #0]
10000814:	197f      	adds	r7, r7, r5
10000816:	3f03      	subs	r7, #3
10000818:	19db      	adds	r3, r3, r7
1000081a:	785b      	ldrb	r3, [r3, #1]
1000081c:	73b3      	strb	r3, [r6, #14]
1000081e:	2b00      	cmp	r3, #0
10000820:	d100      	bne.n	10000824 <alarm_pool_add_alarm_at.constprop.0+0x40>
10000822:	73f3      	strb	r3, [r6, #15]
10000824:	4b37      	ldr	r3, [pc, #220]	; (10000904 <alarm_pool_add_alarm_at.constprop.0+0x120>)
10000826:	2200      	movs	r2, #0
10000828:	18e9      	adds	r1, r5, r3
1000082a:	68a3      	ldr	r3, [r4, #8]
1000082c:	0109      	lsls	r1, r1, #4
1000082e:	469c      	mov	ip, r3
10000830:	464b      	mov	r3, r9
10000832:	4461      	add	r1, ip
10000834:	600b      	str	r3, [r1, #0]
10000836:	4653      	mov	r3, sl
10000838:	604b      	str	r3, [r1, #4]
1000083a:	4b33      	ldr	r3, [pc, #204]	; (10000908 <alarm_pool_add_alarm_at.constprop.0+0x124>)
1000083c:	60ca      	str	r2, [r1, #12]
1000083e:	608b      	str	r3, [r1, #8]
10000840:	23d0      	movs	r3, #208	; 0xd0
10000842:	2180      	movs	r1, #128	; 0x80
10000844:	061b      	lsls	r3, r3, #24
10000846:	0309      	lsls	r1, r1, #12
10000848:	6159      	str	r1, [r3, #20]
1000084a:	6833      	ldr	r3, [r6, #0]
1000084c:	19db      	adds	r3, r3, r7
1000084e:	709a      	strb	r2, [r3, #2]
10000850:	705a      	strb	r2, [r3, #1]
10000852:	701a      	strb	r2, [r3, #0]
10000854:	7b73      	ldrb	r3, [r6, #13]
10000856:	469b      	mov	fp, r3
10000858:	2b00      	cmp	r3, #0
1000085a:	d035      	beq.n	100008c8 <alarm_pool_add_alarm_at.constprop.0+0xe4>
1000085c:	002a      	movs	r2, r5
1000085e:	0019      	movs	r1, r3
10000860:	68b0      	ldr	r0, [r6, #8]
10000862:	6873      	ldr	r3, [r6, #4]
10000864:	4798      	blx	r3
10000866:	6832      	ldr	r2, [r6, #0]
10000868:	2800      	cmp	r0, #0
1000086a:	d020      	beq.n	100008ae <alarm_pool_add_alarm_at.constprop.0+0xca>
1000086c:	465b      	mov	r3, fp
1000086e:	4658      	mov	r0, fp
10000870:	005b      	lsls	r3, r3, #1
10000872:	445b      	add	r3, fp
10000874:	19d7      	adds	r7, r2, r7
10000876:	3b03      	subs	r3, #3
10000878:	70b8      	strb	r0, [r7, #2]
1000087a:	18d1      	adds	r1, r2, r3
1000087c:	5cd3      	ldrb	r3, [r2, r3]
1000087e:	2b00      	cmp	r3, #0
10000880:	d000      	beq.n	10000884 <alarm_pool_add_alarm_at.constprop.0+0xa0>
10000882:	707b      	strb	r3, [r7, #1]
10000884:	465b      	mov	r3, fp
10000886:	700d      	strb	r5, [r1, #0]
10000888:	7373      	strb	r3, [r6, #13]
1000088a:	455d      	cmp	r5, fp
1000088c:	d01d      	beq.n	100008ca <alarm_pool_add_alarm_at.constprop.0+0xe6>
1000088e:	2600      	movs	r6, #0
10000890:	e026      	b.n	100008e0 <alarm_pool_add_alarm_at.constprop.0+0xfc>
10000892:	6863      	ldr	r3, [r4, #4]
10000894:	f3bf 8f5f 	dmb	sy
10000898:	601d      	str	r5, [r3, #0]
1000089a:	f388 8810 	msr	PRIMASK, r8
1000089e:	2001      	movs	r0, #1
100008a0:	4240      	negs	r0, r0
100008a2:	bc3c      	pop	{r2, r3, r4, r5}
100008a4:	4690      	mov	r8, r2
100008a6:	4699      	mov	r9, r3
100008a8:	46a2      	mov	sl, r4
100008aa:	46ab      	mov	fp, r5
100008ac:	bdf8      	pop	{r3, r4, r5, r6, r7, pc}
100008ae:	465b      	mov	r3, fp
100008b0:	005b      	lsls	r3, r3, #1
100008b2:	445b      	add	r3, fp
100008b4:	3b03      	subs	r3, #3
100008b6:	18d3      	adds	r3, r2, r3
100008b8:	709d      	strb	r5, [r3, #2]
100008ba:	19d1      	adds	r1, r2, r7
100008bc:	5dd2      	ldrb	r2, [r2, r7]
100008be:	2a00      	cmp	r2, #0
100008c0:	d000      	beq.n	100008c4 <alarm_pool_add_alarm_at.constprop.0+0xe0>
100008c2:	705a      	strb	r2, [r3, #1]
100008c4:	465b      	mov	r3, fp
100008c6:	700b      	strb	r3, [r1, #0]
100008c8:	7375      	strb	r5, [r6, #13]
100008ca:	464a      	mov	r2, r9
100008cc:	4653      	mov	r3, sl
100008ce:	7d20      	ldrb	r0, [r4, #20]
100008d0:	f000 fab0 	bl	10000e34 <hardware_alarm_set_target>
100008d4:	1e06      	subs	r6, r0, #0
100008d6:	d0da      	beq.n	1000088e <alarm_pool_add_alarm_at.constprop.0+0xaa>
100008d8:	0029      	movs	r1, r5
100008da:	6820      	ldr	r0, [r4, #0]
100008dc:	f000 fd14 	bl	10001308 <ph_delete>
100008e0:	68e3      	ldr	r3, [r4, #12]
100008e2:	6862      	ldr	r2, [r4, #4]
100008e4:	195b      	adds	r3, r3, r5
100008e6:	3b01      	subs	r3, #1
100008e8:	781b      	ldrb	r3, [r3, #0]
100008ea:	f3bf 8f5f 	dmb	sy
100008ee:	2100      	movs	r1, #0
100008f0:	6011      	str	r1, [r2, #0]
100008f2:	f388 8810 	msr	PRIMASK, r8
100008f6:	2000      	movs	r0, #0
100008f8:	2e00      	cmp	r6, #0
100008fa:	d1d2      	bne.n	100008a2 <alarm_pool_add_alarm_at.constprop.0+0xbe>
100008fc:	0218      	lsls	r0, r3, #8
100008fe:	4328      	orrs	r0, r5
10000900:	e7cf      	b.n	100008a2 <alarm_pool_add_alarm_at.constprop.0+0xbe>
10000902:	46c0      	nop			; (mov r8, r8)
10000904:	0fffffff 	.word	0x0fffffff
10000908:	100004d1 	.word	0x100004d1

1000090c <alarm_pool_init_default>:
1000090c:	b570      	push	{r4, r5, r6, lr}
1000090e:	4c18      	ldr	r4, [pc, #96]	; (10000970 <alarm_pool_init_default+0x64>)
10000910:	6823      	ldr	r3, [r4, #0]
10000912:	2b00      	cmp	r3, #0
10000914:	d000      	beq.n	10000918 <alarm_pool_init_default+0xc>
10000916:	bd70      	pop	{r4, r5, r6, pc}
10000918:	2003      	movs	r0, #3
1000091a:	f000 fa1f 	bl	10000d5c <hardware_alarm_claim>
1000091e:	2003      	movs	r0, #3
10000920:	f000 faea 	bl	10000ef8 <hardware_alarm_cancel>
10000924:	4913      	ldr	r1, [pc, #76]	; (10000974 <alarm_pool_init_default+0x68>)
10000926:	2003      	movs	r0, #3
10000928:	f000 fa3e 	bl	10000da8 <hardware_alarm_set_callback>
1000092c:	2018      	movs	r0, #24
1000092e:	f001 fa85 	bl	10001e3c <__wrap_malloc>
10000932:	0005      	movs	r5, r0
10000934:	f7ff fd8e 	bl	10000454 <next_striped_spin_lock_num>
10000938:	4b0f      	ldr	r3, [pc, #60]	; (10000978 <alarm_pool_init_default+0x6c>)
1000093a:	002a      	movs	r2, r5
1000093c:	469c      	mov	ip, r3
1000093e:	4460      	add	r0, ip
10000940:	0080      	lsls	r0, r0, #2
10000942:	490e      	ldr	r1, [pc, #56]	; (1000097c <alarm_pool_init_default+0x70>)
10000944:	6068      	str	r0, [r5, #4]
10000946:	2010      	movs	r0, #16
10000948:	f000 fb4a 	bl	10000fe0 <ph_create>
1000094c:	2110      	movs	r1, #16
1000094e:	6028      	str	r0, [r5, #0]
10000950:	2010      	movs	r0, #16
10000952:	f001 fa77 	bl	10001e44 <__wrap_calloc>
10000956:	2101      	movs	r1, #1
10000958:	60a8      	str	r0, [r5, #8]
1000095a:	2010      	movs	r0, #16
1000095c:	f001 fa72 	bl	10001e44 <__wrap_calloc>
10000960:	2303      	movs	r3, #3
10000962:	752b      	strb	r3, [r5, #20]
10000964:	4b06      	ldr	r3, [pc, #24]	; (10000980 <alarm_pool_init_default+0x74>)
10000966:	60e8      	str	r0, [r5, #12]
10000968:	60dd      	str	r5, [r3, #12]
1000096a:	6025      	str	r5, [r4, #0]
1000096c:	e7d3      	b.n	10000916 <alarm_pool_init_default+0xa>
1000096e:	46c0      	nop			; (mov r8, r8)
10000970:	20000f5c 	.word	0x20000f5c
10000974:	10000605 	.word	0x10000605
10000978:	34000040 	.word	0x34000040
1000097c:	1000049d 	.word	0x1000049d
10000980:	2000161c 	.word	0x2000161c

10000984 <alarm_pool_get_default>:
10000984:	4b01      	ldr	r3, [pc, #4]	; (1000098c <alarm_pool_get_default+0x8>)
10000986:	6818      	ldr	r0, [r3, #0]
10000988:	4770      	bx	lr
1000098a:	46c0      	nop			; (mov r8, r8)
1000098c:	20000f5c 	.word	0x20000f5c

10000990 <alarm_pool_add_alarm_at>:
10000990:	b5f0      	push	{r4, r5, r6, r7, lr}
10000992:	464e      	mov	r6, r9
10000994:	4657      	mov	r7, sl
10000996:	46de      	mov	lr, fp
10000998:	4645      	mov	r5, r8
1000099a:	b5e0      	push	{r5, r6, r7, lr}
1000099c:	b085      	sub	sp, #20
1000099e:	9301      	str	r3, [sp, #4]
100009a0:	ab10      	add	r3, sp, #64	; 0x40
100009a2:	781b      	ldrb	r3, [r3, #0]
100009a4:	0006      	movs	r6, r0
100009a6:	9303      	str	r3, [sp, #12]
100009a8:	2300      	movs	r3, #0
100009aa:	469a      	mov	sl, r3
100009ac:	23d0      	movs	r3, #208	; 0xd0
100009ae:	061b      	lsls	r3, r3, #24
100009b0:	4699      	mov	r9, r3
100009b2:	9200      	str	r2, [sp, #0]
100009b4:	6872      	ldr	r2, [r6, #4]
100009b6:	f3ef 8b10 	mrs	fp, PRIMASK
100009ba:	b672      	cpsid	i
100009bc:	6813      	ldr	r3, [r2, #0]
100009be:	2b00      	cmp	r3, #0
100009c0:	d0fc      	beq.n	100009bc <alarm_pool_add_alarm_at+0x2c>
100009c2:	f3bf 8f5f 	dmb	sy
100009c6:	6835      	ldr	r5, [r6, #0]
100009c8:	7bac      	ldrb	r4, [r5, #14]
100009ca:	2c00      	cmp	r4, #0
100009cc:	d100      	bne.n	100009d0 <alarm_pool_add_alarm_at+0x40>
100009ce:	e088      	b.n	10000ae2 <alarm_pool_add_alarm_at+0x152>
100009d0:	0067      	lsls	r7, r4, #1
100009d2:	682b      	ldr	r3, [r5, #0]
100009d4:	193f      	adds	r7, r7, r4
100009d6:	3f03      	subs	r7, #3
100009d8:	19db      	adds	r3, r3, r7
100009da:	785b      	ldrb	r3, [r3, #1]
100009dc:	73ab      	strb	r3, [r5, #14]
100009de:	2b00      	cmp	r3, #0
100009e0:	d100      	bne.n	100009e4 <alarm_pool_add_alarm_at+0x54>
100009e2:	73eb      	strb	r3, [r5, #15]
100009e4:	68b2      	ldr	r2, [r6, #8]
100009e6:	4b57      	ldr	r3, [pc, #348]	; (10000b44 <alarm_pool_add_alarm_at+0x1b4>)
100009e8:	4694      	mov	ip, r2
100009ea:	9900      	ldr	r1, [sp, #0]
100009ec:	9a01      	ldr	r2, [sp, #4]
100009ee:	18e3      	adds	r3, r4, r3
100009f0:	011b      	lsls	r3, r3, #4
100009f2:	4463      	add	r3, ip
100009f4:	6019      	str	r1, [r3, #0]
100009f6:	605a      	str	r2, [r3, #4]
100009f8:	9a0e      	ldr	r2, [sp, #56]	; 0x38
100009fa:	609a      	str	r2, [r3, #8]
100009fc:	9a0f      	ldr	r2, [sp, #60]	; 0x3c
100009fe:	60da      	str	r2, [r3, #12]
10000a00:	2280      	movs	r2, #128	; 0x80
10000a02:	464b      	mov	r3, r9
10000a04:	0312      	lsls	r2, r2, #12
10000a06:	615a      	str	r2, [r3, #20]
10000a08:	2200      	movs	r2, #0
10000a0a:	682b      	ldr	r3, [r5, #0]
10000a0c:	19db      	adds	r3, r3, r7
10000a0e:	709a      	strb	r2, [r3, #2]
10000a10:	705a      	strb	r2, [r3, #1]
10000a12:	701a      	strb	r2, [r3, #0]
10000a14:	7b6b      	ldrb	r3, [r5, #13]
10000a16:	4698      	mov	r8, r3
10000a18:	2b00      	cmp	r3, #0
10000a1a:	d100      	bne.n	10000a1e <alarm_pool_add_alarm_at+0x8e>
10000a1c:	e080      	b.n	10000b20 <alarm_pool_add_alarm_at+0x190>
10000a1e:	0022      	movs	r2, r4
10000a20:	0019      	movs	r1, r3
10000a22:	68a8      	ldr	r0, [r5, #8]
10000a24:	686b      	ldr	r3, [r5, #4]
10000a26:	4798      	blx	r3
10000a28:	682a      	ldr	r2, [r5, #0]
10000a2a:	2800      	cmp	r0, #0
10000a2c:	d06b      	beq.n	10000b06 <alarm_pool_add_alarm_at+0x176>
10000a2e:	4643      	mov	r3, r8
10000a30:	4640      	mov	r0, r8
10000a32:	005b      	lsls	r3, r3, #1
10000a34:	4443      	add	r3, r8
10000a36:	19d7      	adds	r7, r2, r7
10000a38:	3b03      	subs	r3, #3
10000a3a:	70b8      	strb	r0, [r7, #2]
10000a3c:	18d1      	adds	r1, r2, r3
10000a3e:	5cd3      	ldrb	r3, [r2, r3]
10000a40:	2b00      	cmp	r3, #0
10000a42:	d000      	beq.n	10000a46 <alarm_pool_add_alarm_at+0xb6>
10000a44:	707b      	strb	r3, [r7, #1]
10000a46:	4643      	mov	r3, r8
10000a48:	700c      	strb	r4, [r1, #0]
10000a4a:	736b      	strb	r3, [r5, #13]
10000a4c:	4544      	cmp	r4, r8
10000a4e:	d068      	beq.n	10000b22 <alarm_pool_add_alarm_at+0x192>
10000a50:	68f3      	ldr	r3, [r6, #12]
10000a52:	191b      	adds	r3, r3, r4
10000a54:	3b01      	subs	r3, #1
10000a56:	7818      	ldrb	r0, [r3, #0]
10000a58:	6873      	ldr	r3, [r6, #4]
10000a5a:	f3bf 8f5f 	dmb	sy
10000a5e:	2200      	movs	r2, #0
10000a60:	601a      	str	r2, [r3, #0]
10000a62:	f38b 8810 	msr	PRIMASK, fp
10000a66:	4653      	mov	r3, sl
10000a68:	2b00      	cmp	r3, #0
10000a6a:	d108      	bne.n	10000a7e <alarm_pool_add_alarm_at+0xee>
10000a6c:	0200      	lsls	r0, r0, #8
10000a6e:	4320      	orrs	r0, r4
10000a70:	b005      	add	sp, #20
10000a72:	bc3c      	pop	{r2, r3, r4, r5}
10000a74:	4690      	mov	r8, r2
10000a76:	4699      	mov	r9, r3
10000a78:	46a2      	mov	sl, r4
10000a7a:	46ab      	mov	fp, r5
10000a7c:	bdf0      	pop	{r4, r5, r6, r7, pc}
10000a7e:	9b03      	ldr	r3, [sp, #12]
10000a80:	2b00      	cmp	r3, #0
10000a82:	d05c      	beq.n	10000b3e <alarm_pool_add_alarm_at+0x1ae>
10000a84:	9b0e      	ldr	r3, [sp, #56]	; 0x38
10000a86:	2000      	movs	r0, #0
10000a88:	990f      	ldr	r1, [sp, #60]	; 0x3c
10000a8a:	4798      	blx	r3
10000a8c:	0003      	movs	r3, r0
10000a8e:	0004      	movs	r4, r0
10000a90:	000d      	movs	r5, r1
10000a92:	430b      	orrs	r3, r1
10000a94:	d053      	beq.n	10000b3e <alarm_pool_add_alarm_at+0x1ae>
10000a96:	2900      	cmp	r1, #0
10000a98:	da0d      	bge.n	10000ab6 <alarm_pool_add_alarm_at+0x126>
10000a9a:	9800      	ldr	r0, [sp, #0]
10000a9c:	9901      	ldr	r1, [sp, #4]
10000a9e:	0002      	movs	r2, r0
10000aa0:	000b      	movs	r3, r1
10000aa2:	1b12      	subs	r2, r2, r4
10000aa4:	41ab      	sbcs	r3, r5
10000aa6:	4299      	cmp	r1, r3
10000aa8:	d815      	bhi.n	10000ad6 <alarm_pool_add_alarm_at+0x146>
10000aaa:	d023      	beq.n	10000af4 <alarm_pool_add_alarm_at+0x164>
10000aac:	9200      	str	r2, [sp, #0]
10000aae:	9301      	str	r3, [sp, #4]
10000ab0:	9b03      	ldr	r3, [sp, #12]
10000ab2:	469a      	mov	sl, r3
10000ab4:	e77e      	b.n	100009b4 <alarm_pool_add_alarm_at+0x24>
10000ab6:	f000 f95d 	bl	10000d74 <time_us_64>
10000aba:	0002      	movs	r2, r0
10000abc:	000b      	movs	r3, r1
10000abe:	18a4      	adds	r4, r4, r2
10000ac0:	415d      	adcs	r5, r3
10000ac2:	0020      	movs	r0, r4
10000ac4:	0029      	movs	r1, r5
10000ac6:	9000      	str	r0, [sp, #0]
10000ac8:	9101      	str	r1, [sp, #4]
10000aca:	42ab      	cmp	r3, r5
10000acc:	d803      	bhi.n	10000ad6 <alarm_pool_add_alarm_at+0x146>
10000ace:	d1ef      	bne.n	10000ab0 <alarm_pool_add_alarm_at+0x120>
10000ad0:	9900      	ldr	r1, [sp, #0]
10000ad2:	428a      	cmp	r2, r1
10000ad4:	d9ec      	bls.n	10000ab0 <alarm_pool_add_alarm_at+0x120>
10000ad6:	2301      	movs	r3, #1
10000ad8:	425b      	negs	r3, r3
10000ada:	17dc      	asrs	r4, r3, #31
10000adc:	9300      	str	r3, [sp, #0]
10000ade:	9401      	str	r4, [sp, #4]
10000ae0:	e7e6      	b.n	10000ab0 <alarm_pool_add_alarm_at+0x120>
10000ae2:	6873      	ldr	r3, [r6, #4]
10000ae4:	f3bf 8f5f 	dmb	sy
10000ae8:	601c      	str	r4, [r3, #0]
10000aea:	f38b 8810 	msr	PRIMASK, fp
10000aee:	2001      	movs	r0, #1
10000af0:	4240      	negs	r0, r0
10000af2:	e7bd      	b.n	10000a70 <alarm_pool_add_alarm_at+0xe0>
10000af4:	9900      	ldr	r1, [sp, #0]
10000af6:	4291      	cmp	r1, r2
10000af8:	d9d8      	bls.n	10000aac <alarm_pool_add_alarm_at+0x11c>
10000afa:	2301      	movs	r3, #1
10000afc:	425b      	negs	r3, r3
10000afe:	17dc      	asrs	r4, r3, #31
10000b00:	9300      	str	r3, [sp, #0]
10000b02:	9401      	str	r4, [sp, #4]
10000b04:	e7d4      	b.n	10000ab0 <alarm_pool_add_alarm_at+0x120>
10000b06:	4643      	mov	r3, r8
10000b08:	005b      	lsls	r3, r3, #1
10000b0a:	4443      	add	r3, r8
10000b0c:	3b03      	subs	r3, #3
10000b0e:	18d3      	adds	r3, r2, r3
10000b10:	709c      	strb	r4, [r3, #2]
10000b12:	19d1      	adds	r1, r2, r7
10000b14:	5dd2      	ldrb	r2, [r2, r7]
10000b16:	2a00      	cmp	r2, #0
10000b18:	d000      	beq.n	10000b1c <alarm_pool_add_alarm_at+0x18c>
10000b1a:	705a      	strb	r2, [r3, #1]
10000b1c:	4643      	mov	r3, r8
10000b1e:	700b      	strb	r3, [r1, #0]
10000b20:	736c      	strb	r4, [r5, #13]
10000b22:	7d30      	ldrb	r0, [r6, #20]
10000b24:	9a00      	ldr	r2, [sp, #0]
10000b26:	9b01      	ldr	r3, [sp, #4]
10000b28:	f000 f984 	bl	10000e34 <hardware_alarm_set_target>
10000b2c:	4682      	mov	sl, r0
10000b2e:	2800      	cmp	r0, #0
10000b30:	d100      	bne.n	10000b34 <alarm_pool_add_alarm_at+0x1a4>
10000b32:	e78d      	b.n	10000a50 <alarm_pool_add_alarm_at+0xc0>
10000b34:	0021      	movs	r1, r4
10000b36:	6830      	ldr	r0, [r6, #0]
10000b38:	f000 fbe6 	bl	10001308 <ph_delete>
10000b3c:	e788      	b.n	10000a50 <alarm_pool_add_alarm_at+0xc0>
10000b3e:	2000      	movs	r0, #0
10000b40:	e796      	b.n	10000a70 <alarm_pool_add_alarm_at+0xe0>
10000b42:	46c0      	nop			; (mov r8, r8)
10000b44:	0fffffff 	.word	0x0fffffff

10000b48 <alarm_pool_cancel_alarm>:
10000b48:	b570      	push	{r4, r5, r6, lr}
10000b4a:	6842      	ldr	r2, [r0, #4]
10000b4c:	0004      	movs	r4, r0
10000b4e:	f3ef 8510 	mrs	r5, PRIMASK
10000b52:	b672      	cpsid	i
10000b54:	6813      	ldr	r3, [r2, #0]
10000b56:	2b00      	cmp	r3, #0
10000b58:	d0fc      	beq.n	10000b54 <alarm_pool_cancel_alarm+0xc>
10000b5a:	f3bf 8f5f 	dmb	sy
10000b5e:	6820      	ldr	r0, [r4, #0]
10000b60:	b2ca      	uxtb	r2, r1
10000b62:	7b43      	ldrb	r3, [r0, #13]
10000b64:	4293      	cmp	r3, r2
10000b66:	d00a      	beq.n	10000b7e <alarm_pool_cancel_alarm+0x36>
10000b68:	23ff      	movs	r3, #255	; 0xff
10000b6a:	400b      	ands	r3, r1
10000b6c:	005e      	lsls	r6, r3, #1
10000b6e:	18f3      	adds	r3, r6, r3
10000b70:	6806      	ldr	r6, [r0, #0]
10000b72:	46b4      	mov	ip, r6
10000b74:	4463      	add	r3, ip
10000b76:	3b03      	subs	r3, #3
10000b78:	789b      	ldrb	r3, [r3, #2]
10000b7a:	2b00      	cmp	r3, #0
10000b7c:	d013      	beq.n	10000ba6 <alarm_pool_cancel_alarm+0x5e>
10000b7e:	68e6      	ldr	r6, [r4, #12]
10000b80:	23ff      	movs	r3, #255	; 0xff
10000b82:	46b4      	mov	ip, r6
10000b84:	400b      	ands	r3, r1
10000b86:	4463      	add	r3, ip
10000b88:	3b01      	subs	r3, #1
10000b8a:	0a09      	lsrs	r1, r1, #8
10000b8c:	781e      	ldrb	r6, [r3, #0]
10000b8e:	b2c9      	uxtb	r1, r1
10000b90:	428e      	cmp	r6, r1
10000b92:	d00d      	beq.n	10000bb0 <alarm_pool_cancel_alarm+0x68>
10000b94:	2000      	movs	r0, #0
10000b96:	6863      	ldr	r3, [r4, #4]
10000b98:	f3bf 8f5f 	dmb	sy
10000b9c:	2200      	movs	r2, #0
10000b9e:	601a      	str	r2, [r3, #0]
10000ba0:	f385 8810 	msr	PRIMASK, r5
10000ba4:	bd70      	pop	{r4, r5, r6, pc}
10000ba6:	6922      	ldr	r2, [r4, #16]
10000ba8:	428a      	cmp	r2, r1
10000baa:	d1f3      	bne.n	10000b94 <alarm_pool_cancel_alarm+0x4c>
10000bac:	6123      	str	r3, [r4, #16]
10000bae:	e7f1      	b.n	10000b94 <alarm_pool_cancel_alarm+0x4c>
10000bb0:	0011      	movs	r1, r2
10000bb2:	f000 fba9 	bl	10001308 <ph_delete>
10000bb6:	e7ee      	b.n	10000b96 <alarm_pool_cancel_alarm+0x4e>

10000bb8 <sleep_ms>:
10000bb8:	b5f8      	push	{r3, r4, r5, r6, r7, lr}
10000bba:	0004      	movs	r4, r0
10000bbc:	f000 f8da 	bl	10000d74 <time_us_64>
10000bc0:	22fa      	movs	r2, #250	; 0xfa
10000bc2:	0006      	movs	r6, r0
10000bc4:	000f      	movs	r7, r1
10000bc6:	0020      	movs	r0, r4
10000bc8:	2300      	movs	r3, #0
10000bca:	2100      	movs	r1, #0
10000bcc:	0092      	lsls	r2, r2, #2
10000bce:	f001 f8d3 	bl	10001d78 <__wrap___aeabi_lmul>
10000bd2:	1980      	adds	r0, r0, r6
10000bd4:	4179      	adcs	r1, r7
10000bd6:	0004      	movs	r4, r0
10000bd8:	000d      	movs	r5, r1
10000bda:	428f      	cmp	r7, r1
10000bdc:	d82f      	bhi.n	10000c3e <sleep_ms+0x86>
10000bde:	d02c      	beq.n	10000c3a <sleep_ms+0x82>
10000be0:	2606      	movs	r6, #6
10000be2:	4276      	negs	r6, r6
10000be4:	17f7      	asrs	r7, r6, #31
10000be6:	1936      	adds	r6, r6, r4
10000be8:	416f      	adcs	r7, r5
10000bea:	42af      	cmp	r7, r5
10000bec:	d92e      	bls.n	10000c4c <sleep_ms+0x94>
10000bee:	2600      	movs	r6, #0
10000bf0:	2700      	movs	r7, #0
10000bf2:	f000 f8bf 	bl	10000d74 <time_us_64>
10000bf6:	0032      	movs	r2, r6
10000bf8:	003b      	movs	r3, r7
10000bfa:	1a12      	subs	r2, r2, r0
10000bfc:	418b      	sbcs	r3, r1
10000bfe:	2b00      	cmp	r3, #0
10000c00:	dc07      	bgt.n	10000c12 <sleep_ms+0x5a>
10000c02:	d004      	beq.n	10000c0e <sleep_ms+0x56>
10000c04:	0029      	movs	r1, r5
10000c06:	0020      	movs	r0, r4
10000c08:	f000 f8be 	bl	10000d88 <busy_wait_until>
10000c0c:	bdf8      	pop	{r3, r4, r5, r6, r7, pc}
10000c0e:	2a00      	cmp	r2, #0
10000c10:	d0f8      	beq.n	10000c04 <sleep_ms+0x4c>
10000c12:	4b11      	ldr	r3, [pc, #68]	; (10000c58 <sleep_ms+0xa0>)
10000c14:	0032      	movs	r2, r6
10000c16:	6818      	ldr	r0, [r3, #0]
10000c18:	003b      	movs	r3, r7
10000c1a:	f7ff fde3 	bl	100007e4 <alarm_pool_add_alarm_at.constprop.0>
10000c1e:	2800      	cmp	r0, #0
10000c20:	dbf0      	blt.n	10000c04 <sleep_ms+0x4c>
10000c22:	0038      	movs	r0, r7
10000c24:	4a0d      	ldr	r2, [pc, #52]	; (10000c5c <sleep_ms+0xa4>)
10000c26:	6a53      	ldr	r3, [r2, #36]	; 0x24
10000c28:	4298      	cmp	r0, r3
10000c2a:	d804      	bhi.n	10000c36 <sleep_ms+0x7e>
10000c2c:	6a91      	ldr	r1, [r2, #40]	; 0x28
10000c2e:	428e      	cmp	r6, r1
10000c30:	d9e8      	bls.n	10000c04 <sleep_ms+0x4c>
10000c32:	4298      	cmp	r0, r3
10000c34:	d1e6      	bne.n	10000c04 <sleep_ms+0x4c>
10000c36:	bf20      	wfe
10000c38:	e7f5      	b.n	10000c26 <sleep_ms+0x6e>
10000c3a:	4286      	cmp	r6, r0
10000c3c:	d9d0      	bls.n	10000be0 <sleep_ms+0x28>
10000c3e:	2401      	movs	r4, #1
10000c40:	4264      	negs	r4, r4
10000c42:	17e5      	asrs	r5, r4, #31
10000c44:	2607      	movs	r6, #7
10000c46:	4276      	negs	r6, r6
10000c48:	17f7      	asrs	r7, r6, #31
10000c4a:	e7d2      	b.n	10000bf2 <sleep_ms+0x3a>
10000c4c:	42af      	cmp	r7, r5
10000c4e:	d1d0      	bne.n	10000bf2 <sleep_ms+0x3a>
10000c50:	42a6      	cmp	r6, r4
10000c52:	d8cc      	bhi.n	10000bee <sleep_ms+0x36>
10000c54:	e7cd      	b.n	10000bf2 <sleep_ms+0x3a>
10000c56:	46c0      	nop			; (mov r8, r8)
10000c58:	20000f5c 	.word	0x20000f5c
10000c5c:	40054000 	.word	0x40054000

10000c60 <best_effort_wfe_or_timeout>:
10000c60:	b570      	push	{r4, r5, r6, lr}
10000c62:	4d0e      	ldr	r5, [pc, #56]	; (10000c9c <best_effort_wfe_or_timeout+0x3c>)
10000c64:	0002      	movs	r2, r0
10000c66:	000b      	movs	r3, r1
10000c68:	0006      	movs	r6, r0
10000c6a:	6828      	ldr	r0, [r5, #0]
10000c6c:	000c      	movs	r4, r1
10000c6e:	f7ff fdb9 	bl	100007e4 <alarm_pool_add_alarm_at.constprop.0>
10000c72:	1e01      	subs	r1, r0, #0
10000c74:	dd03      	ble.n	10000c7e <best_effort_wfe_or_timeout+0x1e>
10000c76:	bf20      	wfe
10000c78:	6828      	ldr	r0, [r5, #0]
10000c7a:	f7ff ff65 	bl	10000b48 <alarm_pool_cancel_alarm>
10000c7e:	4b08      	ldr	r3, [pc, #32]	; (10000ca0 <best_effort_wfe_or_timeout+0x40>)
10000c80:	2000      	movs	r0, #0
10000c82:	6a59      	ldr	r1, [r3, #36]	; 0x24
10000c84:	428c      	cmp	r4, r1
10000c86:	d803      	bhi.n	10000c90 <best_effort_wfe_or_timeout+0x30>
10000c88:	6a9b      	ldr	r3, [r3, #40]	; 0x28
10000c8a:	3001      	adds	r0, #1
10000c8c:	42b3      	cmp	r3, r6
10000c8e:	d300      	bcc.n	10000c92 <best_effort_wfe_or_timeout+0x32>
10000c90:	bd70      	pop	{r4, r5, r6, pc}
10000c92:	1a64      	subs	r4, r4, r1
10000c94:	1e61      	subs	r1, r4, #1
10000c96:	418c      	sbcs	r4, r1
10000c98:	b2e0      	uxtb	r0, r4
10000c9a:	e7f9      	b.n	10000c90 <best_effort_wfe_or_timeout+0x30>
10000c9c:	20000f5c 	.word	0x20000f5c
10000ca0:	40054000 	.word	0x40054000

10000ca4 <hardware_alarm_irq_handler>:
10000ca4:	b5f0      	push	{r4, r5, r6, r7, lr}
10000ca6:	46d6      	mov	lr, sl
10000ca8:	464f      	mov	r7, r9
10000caa:	4646      	mov	r6, r8
10000cac:	b5c0      	push	{r6, r7, lr}
10000cae:	f3ef 8305 	mrs	r3, IPSR
10000cb2:	223f      	movs	r2, #63	; 0x3f
10000cb4:	4013      	ands	r3, r2
10000cb6:	0018      	movs	r0, r3
10000cb8:	3810      	subs	r0, #16
10000cba:	f3ef 8c10 	mrs	ip, PRIMASK
10000cbe:	b672      	cpsid	i
10000cc0:	4d20      	ldr	r5, [pc, #128]	; (10000d44 <hardware_alarm_irq_handler+0xa0>)
10000cc2:	682a      	ldr	r2, [r5, #0]
10000cc4:	2a00      	cmp	r2, #0
10000cc6:	d0fc      	beq.n	10000cc2 <hardware_alarm_irq_handler+0x1e>
10000cc8:	f3bf 8f5f 	dmb	sy
10000ccc:	2201      	movs	r2, #1
10000cce:	0011      	movs	r1, r2
10000cd0:	4081      	lsls	r1, r0
10000cd2:	4c1d      	ldr	r4, [pc, #116]	; (10000d48 <hardware_alarm_irq_handler+0xa4>)
10000cd4:	4688      	mov	r8, r1
10000cd6:	6361      	str	r1, [r4, #52]	; 0x34
10000cd8:	491c      	ldr	r1, [pc, #112]	; (10000d4c <hardware_alarm_irq_handler+0xa8>)
10000cda:	0017      	movs	r7, r2
10000cdc:	780e      	ldrb	r6, [r1, #0]
10000cde:	468a      	mov	sl, r1
10000ce0:	0031      	movs	r1, r6
10000ce2:	40c1      	lsrs	r1, r0
10000ce4:	400f      	ands	r7, r1
10000ce6:	420a      	tst	r2, r1
10000ce8:	d015      	beq.n	10000d16 <hardware_alarm_irq_handler+0x72>
10000cea:	4919      	ldr	r1, [pc, #100]	; (10000d50 <hardware_alarm_irq_handler+0xac>)
10000cec:	0082      	lsls	r2, r0, #2
10000cee:	6a64      	ldr	r4, [r4, #36]	; 0x24
10000cf0:	5851      	ldr	r1, [r2, r1]
10000cf2:	428c      	cmp	r4, r1
10000cf4:	d319      	bcc.n	10000d2a <hardware_alarm_irq_handler+0x86>
10000cf6:	4b17      	ldr	r3, [pc, #92]	; (10000d54 <hardware_alarm_irq_handler+0xb0>)
10000cf8:	58d2      	ldr	r2, [r2, r3]
10000cfa:	4643      	mov	r3, r8
10000cfc:	439e      	bics	r6, r3
10000cfe:	4653      	mov	r3, sl
10000d00:	701e      	strb	r6, [r3, #0]
10000d02:	f3bf 8f5f 	dmb	sy
10000d06:	2300      	movs	r3, #0
10000d08:	602b      	str	r3, [r5, #0]
10000d0a:	f38c 8810 	msr	PRIMASK, ip
10000d0e:	2a00      	cmp	r2, #0
10000d10:	d006      	beq.n	10000d20 <hardware_alarm_irq_handler+0x7c>
10000d12:	4790      	blx	r2
10000d14:	e004      	b.n	10000d20 <hardware_alarm_irq_handler+0x7c>
10000d16:	f3bf 8f5f 	dmb	sy
10000d1a:	602f      	str	r7, [r5, #0]
10000d1c:	f38c 8810 	msr	PRIMASK, ip
10000d20:	bc1c      	pop	{r2, r3, r4}
10000d22:	4690      	mov	r8, r2
10000d24:	4699      	mov	r9, r3
10000d26:	46a2      	mov	sl, r4
10000d28:	bdf0      	pop	{r4, r5, r6, r7, pc}
10000d2a:	4a0b      	ldr	r2, [pc, #44]	; (10000d58 <hardware_alarm_irq_handler+0xb4>)
10000d2c:	009b      	lsls	r3, r3, #2
10000d2e:	4690      	mov	r8, r2
10000d30:	4443      	add	r3, r8
10000d32:	681a      	ldr	r2, [r3, #0]
10000d34:	601a      	str	r2, [r3, #0]
10000d36:	f3bf 8f5f 	dmb	sy
10000d3a:	2300      	movs	r3, #0
10000d3c:	602b      	str	r3, [r5, #0]
10000d3e:	f38c 8810 	msr	PRIMASK, ip
10000d42:	e7ed      	b.n	10000d20 <hardware_alarm_irq_handler+0x7c>
10000d44:	d0000128 	.word	0xd0000128
10000d48:	40054000 	.word	0x40054000
10000d4c:	20001649 	.word	0x20001649
10000d50:	20001634 	.word	0x20001634
10000d54:	20000f20 	.word	0x20000f20
10000d58:	40053fd0 	.word	0x40053fd0

10000d5c <hardware_alarm_claim>:
10000d5c:	b510      	push	{r4, lr}
10000d5e:	0001      	movs	r1, r0
10000d60:	4a02      	ldr	r2, [pc, #8]	; (10000d6c <hardware_alarm_claim+0x10>)
10000d62:	4803      	ldr	r0, [pc, #12]	; (10000d70 <hardware_alarm_claim+0x14>)
10000d64:	f7ff faea 	bl	1000033c <hw_claim_or_assert>
10000d68:	bd10      	pop	{r4, pc}
10000d6a:	46c0      	nop			; (mov r8, r8)
10000d6c:	10004b54 	.word	0x10004b54
10000d70:	20001647 	.word	0x20001647

10000d74 <time_us_64>:
10000d74:	4b03      	ldr	r3, [pc, #12]	; (10000d84 <time_us_64+0x10>)
10000d76:	6a59      	ldr	r1, [r3, #36]	; 0x24
10000d78:	000a      	movs	r2, r1
10000d7a:	6a98      	ldr	r0, [r3, #40]	; 0x28
10000d7c:	6a59      	ldr	r1, [r3, #36]	; 0x24
10000d7e:	428a      	cmp	r2, r1
10000d80:	d1fa      	bne.n	10000d78 <time_us_64+0x4>
10000d82:	4770      	bx	lr
10000d84:	40054000 	.word	0x40054000

10000d88 <busy_wait_until>:
10000d88:	4a06      	ldr	r2, [pc, #24]	; (10000da4 <busy_wait_until+0x1c>)
10000d8a:	6a53      	ldr	r3, [r2, #36]	; 0x24
10000d8c:	4299      	cmp	r1, r3
10000d8e:	d8fc      	bhi.n	10000d8a <busy_wait_until+0x2>
10000d90:	d107      	bne.n	10000da2 <busy_wait_until+0x1a>
10000d92:	4b04      	ldr	r3, [pc, #16]	; (10000da4 <busy_wait_until+0x1c>)
10000d94:	e002      	b.n	10000d9c <busy_wait_until+0x14>
10000d96:	6a5a      	ldr	r2, [r3, #36]	; 0x24
10000d98:	4291      	cmp	r1, r2
10000d9a:	d102      	bne.n	10000da2 <busy_wait_until+0x1a>
10000d9c:	6a9a      	ldr	r2, [r3, #40]	; 0x28
10000d9e:	4282      	cmp	r2, r0
10000da0:	d3f9      	bcc.n	10000d96 <busy_wait_until+0xe>
10000da2:	4770      	bx	lr
10000da4:	40054000 	.word	0x40054000

10000da8 <hardware_alarm_set_callback>:
10000da8:	b570      	push	{r4, r5, r6, lr}
10000daa:	0004      	movs	r4, r0
10000dac:	000d      	movs	r5, r1
10000dae:	f3ef 8610 	mrs	r6, PRIMASK
10000db2:	b672      	cpsid	i
10000db4:	4a1a      	ldr	r2, [pc, #104]	; (10000e20 <hardware_alarm_set_callback+0x78>)
10000db6:	6813      	ldr	r3, [r2, #0]
10000db8:	2b00      	cmp	r3, #0
10000dba:	d0fc      	beq.n	10000db6 <hardware_alarm_set_callback+0xe>
10000dbc:	f3bf 8f5f 	dmb	sy
10000dc0:	2d00      	cmp	r5, #0
10000dc2:	d01b      	beq.n	10000dfc <hardware_alarm_set_callback+0x54>
10000dc4:	0020      	movs	r0, r4
10000dc6:	f000 fd5d 	bl	10001884 <irq_get_vtable_handler>
10000dca:	4916      	ldr	r1, [pc, #88]	; (10000e24 <hardware_alarm_set_callback+0x7c>)
10000dcc:	4281      	cmp	r1, r0
10000dce:	d00a      	beq.n	10000de6 <hardware_alarm_set_callback+0x3e>
10000dd0:	0020      	movs	r0, r4
10000dd2:	f000 fd5f 	bl	10001894 <irq_set_exclusive_handler>
10000dd6:	2101      	movs	r1, #1
10000dd8:	0020      	movs	r0, r4
10000dda:	f000 fd39 	bl	10001850 <irq_set_enabled>
10000dde:	2301      	movs	r3, #1
10000de0:	40a3      	lsls	r3, r4
10000de2:	4a11      	ldr	r2, [pc, #68]	; (10000e28 <hardware_alarm_set_callback+0x80>)
10000de4:	6013      	str	r3, [r2, #0]
10000de6:	4b11      	ldr	r3, [pc, #68]	; (10000e2c <hardware_alarm_set_callback+0x84>)
10000de8:	00a4      	lsls	r4, r4, #2
10000dea:	50e5      	str	r5, [r4, r3]
10000dec:	f3bf 8f5f 	dmb	sy
10000df0:	2200      	movs	r2, #0
10000df2:	4b0b      	ldr	r3, [pc, #44]	; (10000e20 <hardware_alarm_set_callback+0x78>)
10000df4:	601a      	str	r2, [r3, #0]
10000df6:	f386 8810 	msr	PRIMASK, r6
10000dfa:	bd70      	pop	{r4, r5, r6, pc}
10000dfc:	4b0b      	ldr	r3, [pc, #44]	; (10000e2c <hardware_alarm_set_callback+0x84>)
10000dfe:	00a2      	lsls	r2, r4, #2
10000e00:	50d5      	str	r5, [r2, r3]
10000e02:	2201      	movs	r2, #1
10000e04:	40a2      	lsls	r2, r4
10000e06:	490a      	ldr	r1, [pc, #40]	; (10000e30 <hardware_alarm_set_callback+0x88>)
10000e08:	0020      	movs	r0, r4
10000e0a:	780b      	ldrb	r3, [r1, #0]
10000e0c:	4393      	bics	r3, r2
10000e0e:	700b      	strb	r3, [r1, #0]
10000e10:	4904      	ldr	r1, [pc, #16]	; (10000e24 <hardware_alarm_set_callback+0x7c>)
10000e12:	f000 fd69 	bl	100018e8 <irq_remove_handler>
10000e16:	2100      	movs	r1, #0
10000e18:	0020      	movs	r0, r4
10000e1a:	f000 fd19 	bl	10001850 <irq_set_enabled>
10000e1e:	e7e5      	b.n	10000dec <hardware_alarm_set_callback+0x44>
10000e20:	d0000128 	.word	0xd0000128
10000e24:	10000ca5 	.word	0x10000ca5
10000e28:	40056038 	.word	0x40056038
10000e2c:	20000f20 	.word	0x20000f20
10000e30:	20001649 	.word	0x20001649

10000e34 <hardware_alarm_set_target>:
10000e34:	b5f0      	push	{r4, r5, r6, r7, lr}
10000e36:	46ce      	mov	lr, r9
10000e38:	4647      	mov	r7, r8
10000e3a:	b580      	push	{r7, lr}
10000e3c:	4c2a      	ldr	r4, [pc, #168]	; (10000ee8 <hardware_alarm_set_target+0xb4>)
10000e3e:	6a61      	ldr	r1, [r4, #36]	; 0x24
10000e40:	000d      	movs	r5, r1
10000e42:	6aa6      	ldr	r6, [r4, #40]	; 0x28
10000e44:	6a61      	ldr	r1, [r4, #36]	; 0x24
10000e46:	42a9      	cmp	r1, r5
10000e48:	d1fa      	bne.n	10000e40 <hardware_alarm_set_target+0xc>
10000e4a:	428b      	cmp	r3, r1
10000e4c:	d807      	bhi.n	10000e5e <hardware_alarm_set_target+0x2a>
10000e4e:	d004      	beq.n	10000e5a <hardware_alarm_set_target+0x26>
10000e50:	2001      	movs	r0, #1
10000e52:	bc0c      	pop	{r2, r3}
10000e54:	4690      	mov	r8, r2
10000e56:	4699      	mov	r9, r3
10000e58:	bdf0      	pop	{r4, r5, r6, r7, pc}
10000e5a:	42b2      	cmp	r2, r6
10000e5c:	d9f8      	bls.n	10000e50 <hardware_alarm_set_target+0x1c>
10000e5e:	f3ef 8810 	mrs	r8, PRIMASK
10000e62:	b672      	cpsid	i
10000e64:	4c21      	ldr	r4, [pc, #132]	; (10000eec <hardware_alarm_set_target+0xb8>)
10000e66:	6821      	ldr	r1, [r4, #0]
10000e68:	2900      	cmp	r1, #0
10000e6a:	d0fc      	beq.n	10000e66 <hardware_alarm_set_target+0x32>
10000e6c:	f3bf 8f5f 	dmb	sy
10000e70:	2501      	movs	r5, #1
10000e72:	4085      	lsls	r5, r0
10000e74:	4c1c      	ldr	r4, [pc, #112]	; (10000ee8 <hardware_alarm_set_target+0xb4>)
10000e76:	4e1e      	ldr	r6, [pc, #120]	; (10000ef0 <hardware_alarm_set_target+0xbc>)
10000e78:	6365      	str	r5, [r4, #52]	; 0x34
10000e7a:	b2e9      	uxtb	r1, r5
10000e7c:	468c      	mov	ip, r1
10000e7e:	7831      	ldrb	r1, [r6, #0]
10000e80:	4689      	mov	r9, r1
10000e82:	4661      	mov	r1, ip
10000e84:	464f      	mov	r7, r9
10000e86:	4339      	orrs	r1, r7
10000e88:	7031      	strb	r1, [r6, #0]
10000e8a:	1d01      	adds	r1, r0, #4
10000e8c:	0089      	lsls	r1, r1, #2
10000e8e:	510a      	str	r2, [r1, r4]
10000e90:	4918      	ldr	r1, [pc, #96]	; (10000ef4 <hardware_alarm_set_target+0xc0>)
10000e92:	0080      	lsls	r0, r0, #2
10000e94:	5043      	str	r3, [r0, r1]
10000e96:	6a21      	ldr	r1, [r4, #32]
10000e98:	2000      	movs	r0, #0
10000e9a:	4229      	tst	r1, r5
10000e9c:	d00c      	beq.n	10000eb8 <hardware_alarm_set_target+0x84>
10000e9e:	0020      	movs	r0, r4
10000ea0:	6a61      	ldr	r1, [r4, #36]	; 0x24
10000ea2:	000c      	movs	r4, r1
10000ea4:	6a87      	ldr	r7, [r0, #40]	; 0x28
10000ea6:	6a41      	ldr	r1, [r0, #36]	; 0x24
10000ea8:	42a1      	cmp	r1, r4
10000eaa:	d1fa      	bne.n	10000ea2 <hardware_alarm_set_target+0x6e>
10000eac:	428b      	cmp	r3, r1
10000eae:	d802      	bhi.n	10000eb6 <hardware_alarm_set_target+0x82>
10000eb0:	d10a      	bne.n	10000ec8 <hardware_alarm_set_target+0x94>
10000eb2:	42ba      	cmp	r2, r7
10000eb4:	d908      	bls.n	10000ec8 <hardware_alarm_set_target+0x94>
10000eb6:	2000      	movs	r0, #0
10000eb8:	f3bf 8f5f 	dmb	sy
10000ebc:	2200      	movs	r2, #0
10000ebe:	4b0b      	ldr	r3, [pc, #44]	; (10000eec <hardware_alarm_set_target+0xb8>)
10000ec0:	601a      	str	r2, [r3, #0]
10000ec2:	f388 8810 	msr	PRIMASK, r8
10000ec6:	e7c4      	b.n	10000e52 <hardware_alarm_set_target+0x1e>
10000ec8:	4b07      	ldr	r3, [pc, #28]	; (10000ee8 <hardware_alarm_set_target+0xb4>)
10000eca:	464f      	mov	r7, r9
10000ecc:	621d      	str	r5, [r3, #32]
10000ece:	635d      	str	r5, [r3, #52]	; 0x34
10000ed0:	4663      	mov	r3, ip
10000ed2:	439f      	bics	r7, r3
10000ed4:	2001      	movs	r0, #1
10000ed6:	7037      	strb	r7, [r6, #0]
10000ed8:	f3bf 8f5f 	dmb	sy
10000edc:	2200      	movs	r2, #0
10000ede:	4b03      	ldr	r3, [pc, #12]	; (10000eec <hardware_alarm_set_target+0xb8>)
10000ee0:	601a      	str	r2, [r3, #0]
10000ee2:	f388 8810 	msr	PRIMASK, r8
10000ee6:	e7b4      	b.n	10000e52 <hardware_alarm_set_target+0x1e>
10000ee8:	40054000 	.word	0x40054000
10000eec:	d0000128 	.word	0xd0000128
10000ef0:	20001649 	.word	0x20001649
10000ef4:	20001634 	.word	0x20001634

10000ef8 <hardware_alarm_cancel>:
10000ef8:	b510      	push	{r4, lr}
10000efa:	f3ef 8410 	mrs	r4, PRIMASK
10000efe:	b672      	cpsid	i
10000f00:	490a      	ldr	r1, [pc, #40]	; (10000f2c <hardware_alarm_cancel+0x34>)
10000f02:	680b      	ldr	r3, [r1, #0]
10000f04:	2b00      	cmp	r3, #0
10000f06:	d0fc      	beq.n	10000f02 <hardware_alarm_cancel+0xa>
10000f08:	f3bf 8f5f 	dmb	sy
10000f0c:	2301      	movs	r3, #1
10000f0e:	4083      	lsls	r3, r0
10000f10:	4a07      	ldr	r2, [pc, #28]	; (10000f30 <hardware_alarm_cancel+0x38>)
10000f12:	4808      	ldr	r0, [pc, #32]	; (10000f34 <hardware_alarm_cancel+0x3c>)
10000f14:	6213      	str	r3, [r2, #32]
10000f16:	7802      	ldrb	r2, [r0, #0]
10000f18:	439a      	bics	r2, r3
10000f1a:	7002      	strb	r2, [r0, #0]
10000f1c:	f3bf 8f5f 	dmb	sy
10000f20:	2300      	movs	r3, #0
10000f22:	600b      	str	r3, [r1, #0]
10000f24:	f384 8810 	msr	PRIMASK, r4
10000f28:	bd10      	pop	{r4, pc}
10000f2a:	46c0      	nop			; (mov r8, r8)
10000f2c:	d0000128 	.word	0xd0000128
10000f30:	40054000 	.word	0x40054000
10000f34:	20001649 	.word	0x20001649

10000f38 <lock_init>:
10000f38:	4b02      	ldr	r3, [pc, #8]	; (10000f44 <lock_init+0xc>)
10000f3a:	469c      	mov	ip, r3
10000f3c:	4461      	add	r1, ip
10000f3e:	0089      	lsls	r1, r1, #2
10000f40:	6001      	str	r1, [r0, #0]
10000f42:	4770      	bx	lr
10000f44:	34000040 	.word	0x34000040

10000f48 <mutex_init>:
10000f48:	b510      	push	{r4, lr}
10000f4a:	0004      	movs	r4, r0
10000f4c:	f7ff fa82 	bl	10000454 <next_striped_spin_lock_num>
10000f50:	0001      	movs	r1, r0
10000f52:	0020      	movs	r0, r4
10000f54:	f7ff fff0 	bl	10000f38 <lock_init>
10000f58:	f3bf 8f5f 	dmb	sy
10000f5c:	bd10      	pop	{r4, pc}
10000f5e:	46c0      	nop			; (mov r8, r8)

10000f60 <critical_section_init>:
10000f60:	b510      	push	{r4, lr}
10000f62:	0004      	movs	r4, r0
10000f64:	2001      	movs	r0, #1
10000f66:	f7ff fa81 	bl	1000046c <spin_lock_claim_unused>
10000f6a:	0001      	movs	r1, r0
10000f6c:	0020      	movs	r0, r4
10000f6e:	f7ff ffe3 	bl	10000f38 <lock_init>
10000f72:	f3bf 8f5f 	dmb	sy
10000f76:	bd10      	pop	{r4, pc}

10000f78 <ph_merge_nodes>:
10000f78:	b570      	push	{r4, r5, r6, lr}
10000f7a:	0005      	movs	r5, r0
10000f7c:	000e      	movs	r6, r1
10000f7e:	0014      	movs	r4, r2
10000f80:	2900      	cmp	r1, #0
10000f82:	d024      	beq.n	10000fce <ph_merge_nodes+0x56>
10000f84:	2a00      	cmp	r2, #0
10000f86:	d024      	beq.n	10000fd2 <ph_merge_nodes+0x5a>
10000f88:	6880      	ldr	r0, [r0, #8]
10000f8a:	686b      	ldr	r3, [r5, #4]
10000f8c:	4798      	blx	r3
10000f8e:	6829      	ldr	r1, [r5, #0]
10000f90:	2800      	cmp	r0, #0
10000f92:	d00e      	beq.n	10000fb2 <ph_merge_nodes+0x3a>
10000f94:	0063      	lsls	r3, r4, #1
10000f96:	191b      	adds	r3, r3, r4
10000f98:	0072      	lsls	r2, r6, #1
10000f9a:	3b03      	subs	r3, #3
10000f9c:	1992      	adds	r2, r2, r6
10000f9e:	18cb      	adds	r3, r1, r3
10000fa0:	3a03      	subs	r2, #3
10000fa2:	709e      	strb	r6, [r3, #2]
10000fa4:	1888      	adds	r0, r1, r2
10000fa6:	5c8a      	ldrb	r2, [r1, r2]
10000fa8:	2a00      	cmp	r2, #0
10000faa:	d114      	bne.n	10000fd6 <ph_merge_nodes+0x5e>
10000fac:	7004      	strb	r4, [r0, #0]
10000fae:	0030      	movs	r0, r6
10000fb0:	e00e      	b.n	10000fd0 <ph_merge_nodes+0x58>
10000fb2:	0073      	lsls	r3, r6, #1
10000fb4:	199b      	adds	r3, r3, r6
10000fb6:	0062      	lsls	r2, r4, #1
10000fb8:	3b03      	subs	r3, #3
10000fba:	1912      	adds	r2, r2, r4
10000fbc:	18cb      	adds	r3, r1, r3
10000fbe:	3a03      	subs	r2, #3
10000fc0:	709c      	strb	r4, [r3, #2]
10000fc2:	1888      	adds	r0, r1, r2
10000fc4:	5c8a      	ldrb	r2, [r1, r2]
10000fc6:	2a00      	cmp	r2, #0
10000fc8:	d000      	beq.n	10000fcc <ph_merge_nodes+0x54>
10000fca:	705a      	strb	r2, [r3, #1]
10000fcc:	7006      	strb	r6, [r0, #0]
10000fce:	0020      	movs	r0, r4
10000fd0:	bd70      	pop	{r4, r5, r6, pc}
10000fd2:	0008      	movs	r0, r1
10000fd4:	e7fc      	b.n	10000fd0 <ph_merge_nodes+0x58>
10000fd6:	705a      	strb	r2, [r3, #1]
10000fd8:	7004      	strb	r4, [r0, #0]
10000fda:	0030      	movs	r0, r6
10000fdc:	e7f8      	b.n	10000fd0 <ph_merge_nodes+0x58>
10000fde:	46c0      	nop			; (mov r8, r8)

10000fe0 <ph_create>:
10000fe0:	b5f0      	push	{r4, r5, r6, r7, lr}
10000fe2:	46c6      	mov	lr, r8
10000fe4:	0005      	movs	r5, r0
10000fe6:	000f      	movs	r7, r1
10000fe8:	b500      	push	{lr}
10000fea:	2110      	movs	r1, #16
10000fec:	2001      	movs	r0, #1
10000fee:	0016      	movs	r6, r2
10000ff0:	f000 ff28 	bl	10001e44 <__wrap_calloc>
10000ff4:	b2eb      	uxtb	r3, r5
10000ff6:	0004      	movs	r4, r0
10000ff8:	7303      	strb	r3, [r0, #12]
10000ffa:	2103      	movs	r1, #3
10000ffc:	6047      	str	r7, [r0, #4]
10000ffe:	0028      	movs	r0, r5
10001000:	4698      	mov	r8, r3
10001002:	f000 ff1f 	bl	10001e44 <__wrap_calloc>
10001006:	2300      	movs	r3, #0
10001008:	7363      	strb	r3, [r4, #13]
1000100a:	3301      	adds	r3, #1
1000100c:	73a3      	strb	r3, [r4, #14]
1000100e:	4643      	mov	r3, r8
10001010:	21ff      	movs	r1, #255	; 0xff
10001012:	73e3      	strb	r3, [r4, #15]
10001014:	23fe      	movs	r3, #254	; 0xfe
10001016:	6020      	str	r0, [r4, #0]
10001018:	60a6      	str	r6, [r4, #8]
1000101a:	4029      	ands	r1, r5
1000101c:	422b      	tst	r3, r5
1000101e:	d006      	beq.n	1000102e <ph_create+0x4e>
10001020:	1c42      	adds	r2, r0, #1
10001022:	3bfd      	subs	r3, #253	; 0xfd
10001024:	3301      	adds	r3, #1
10001026:	7013      	strb	r3, [r2, #0]
10001028:	3203      	adds	r2, #3
1000102a:	428b      	cmp	r3, r1
1000102c:	d3fa      	bcc.n	10001024 <ph_create+0x44>
1000102e:	004b      	lsls	r3, r1, #1
10001030:	1859      	adds	r1, r3, r1
10001032:	2300      	movs	r3, #0
10001034:	1840      	adds	r0, r0, r1
10001036:	3803      	subs	r0, #3
10001038:	7043      	strb	r3, [r0, #1]
1000103a:	0020      	movs	r0, r4
1000103c:	bc04      	pop	{r2}
1000103e:	4690      	mov	r8, r2
10001040:	bdf0      	pop	{r4, r5, r6, r7, pc}
10001042:	46c0      	nop			; (mov r8, r8)

10001044 <ph_merge_two_pass>:
10001044:	b5f8      	push	{r3, r4, r5, r6, r7, lr}
10001046:	46ce      	mov	lr, r9
10001048:	4647      	mov	r7, r8
1000104a:	0006      	movs	r6, r0
1000104c:	000c      	movs	r4, r1
1000104e:	b580      	push	{r7, lr}
10001050:	2900      	cmp	r1, #0
10001052:	d007      	beq.n	10001064 <ph_merge_two_pass+0x20>
10001054:	004d      	lsls	r5, r1, #1
10001056:	6803      	ldr	r3, [r0, #0]
10001058:	186d      	adds	r5, r5, r1
1000105a:	3d03      	subs	r5, #3
1000105c:	195a      	adds	r2, r3, r5
1000105e:	7857      	ldrb	r7, [r2, #1]
10001060:	2f00      	cmp	r7, #0
10001062:	d104      	bne.n	1000106e <ph_merge_two_pass+0x2a>
10001064:	0020      	movs	r0, r4
10001066:	bc0c      	pop	{r2, r3}
10001068:	4690      	mov	r8, r2
1000106a:	4699      	mov	r9, r3
1000106c:	bdf8      	pop	{r3, r4, r5, r6, r7, pc}
1000106e:	0079      	lsls	r1, r7, #1
10001070:	19c9      	adds	r1, r1, r7
10001072:	3903      	subs	r1, #3
10001074:	4688      	mov	r8, r1
10001076:	4443      	add	r3, r8
10001078:	7859      	ldrb	r1, [r3, #1]
1000107a:	4689      	mov	r9, r1
1000107c:	2100      	movs	r1, #0
1000107e:	7059      	strb	r1, [r3, #1]
10001080:	7051      	strb	r1, [r2, #1]
10001082:	6873      	ldr	r3, [r6, #4]
10001084:	003a      	movs	r2, r7
10001086:	0021      	movs	r1, r4
10001088:	6880      	ldr	r0, [r0, #8]
1000108a:	4798      	blx	r3
1000108c:	6833      	ldr	r3, [r6, #0]
1000108e:	2800      	cmp	r0, #0
10001090:	d014      	beq.n	100010bc <ph_merge_two_pass+0x78>
10001092:	4642      	mov	r2, r8
10001094:	189a      	adds	r2, r3, r2
10001096:	7094      	strb	r4, [r2, #2]
10001098:	1959      	adds	r1, r3, r5
1000109a:	5d5b      	ldrb	r3, [r3, r5]
1000109c:	2b00      	cmp	r3, #0
1000109e:	d000      	beq.n	100010a2 <ph_merge_two_pass+0x5e>
100010a0:	7053      	strb	r3, [r2, #1]
100010a2:	700f      	strb	r7, [r1, #0]
100010a4:	0027      	movs	r7, r4
100010a6:	4649      	mov	r1, r9
100010a8:	0030      	movs	r0, r6
100010aa:	f7ff ffcb 	bl	10001044 <ph_merge_two_pass>
100010ae:	0039      	movs	r1, r7
100010b0:	0002      	movs	r2, r0
100010b2:	0030      	movs	r0, r6
100010b4:	f7ff ff60 	bl	10000f78 <ph_merge_nodes>
100010b8:	0004      	movs	r4, r0
100010ba:	e7d3      	b.n	10001064 <ph_merge_two_pass+0x20>
100010bc:	4642      	mov	r2, r8
100010be:	4641      	mov	r1, r8
100010c0:	195d      	adds	r5, r3, r5
100010c2:	70af      	strb	r7, [r5, #2]
100010c4:	189a      	adds	r2, r3, r2
100010c6:	5c5b      	ldrb	r3, [r3, r1]
100010c8:	2b00      	cmp	r3, #0
100010ca:	d000      	beq.n	100010ce <ph_merge_two_pass+0x8a>
100010cc:	706b      	strb	r3, [r5, #1]
100010ce:	7014      	strb	r4, [r2, #0]
100010d0:	e7e9      	b.n	100010a6 <ph_merge_two_pass+0x62>
100010d2:	46c0      	nop			; (mov r8, r8)

100010d4 <ph_remove_any_head>:
100010d4:	b5f0      	push	{r4, r5, r6, r7, lr}
100010d6:	4657      	mov	r7, sl
100010d8:	4645      	mov	r5, r8
100010da:	46de      	mov	lr, fp
100010dc:	464e      	mov	r6, r9
100010de:	b5e0      	push	{r5, r6, r7, lr}
100010e0:	000d      	movs	r5, r1
100010e2:	006b      	lsls	r3, r5, #1
100010e4:	6801      	ldr	r1, [r0, #0]
100010e6:	195b      	adds	r3, r3, r5
100010e8:	1edf      	subs	r7, r3, #3
100010ea:	0004      	movs	r4, r0
100010ec:	5dc8      	ldrb	r0, [r1, r7]
100010ee:	b083      	sub	sp, #12
100010f0:	9201      	str	r2, [sp, #4]
100010f2:	19ca      	adds	r2, r1, r7
100010f4:	2800      	cmp	r0, #0
100010f6:	d04c      	beq.n	10001192 <ph_remove_any_head+0xbe>
100010f8:	0043      	lsls	r3, r0, #1
100010fa:	181b      	adds	r3, r3, r0
100010fc:	3b03      	subs	r3, #3
100010fe:	18cb      	adds	r3, r1, r3
10001100:	785e      	ldrb	r6, [r3, #1]
10001102:	46b4      	mov	ip, r6
10001104:	2e00      	cmp	r6, #0
10001106:	d116      	bne.n	10001136 <ph_remove_any_head+0x62>
10001108:	9e01      	ldr	r6, [sp, #4]
1000110a:	2e00      	cmp	r6, #0
1000110c:	d13e      	bne.n	1000118c <ph_remove_any_head+0xb8>
1000110e:	7be6      	ldrb	r6, [r4, #15]
10001110:	2e00      	cmp	r6, #0
10001112:	d004      	beq.n	1000111e <ph_remove_any_head+0x4a>
10001114:	0073      	lsls	r3, r6, #1
10001116:	199b      	adds	r3, r3, r6
10001118:	18cb      	adds	r3, r1, r3
1000111a:	3b03      	subs	r3, #3
1000111c:	705d      	strb	r5, [r3, #1]
1000111e:	73e5      	strb	r5, [r4, #15]
10001120:	2800      	cmp	r0, #0
10001122:	d12f      	bne.n	10001184 <ph_remove_any_head+0xb0>
10001124:	2300      	movs	r3, #0
10001126:	7053      	strb	r3, [r2, #1]
10001128:	b003      	add	sp, #12
1000112a:	bc3c      	pop	{r2, r3, r4, r5}
1000112c:	4690      	mov	r8, r2
1000112e:	4699      	mov	r9, r3
10001130:	46a2      	mov	sl, r4
10001132:	46ab      	mov	fp, r5
10001134:	bdf0      	pop	{r4, r5, r6, r7, pc}
10001136:	0072      	lsls	r2, r6, #1
10001138:	4462      	add	r2, ip
1000113a:	3a03      	subs	r2, #3
1000113c:	1889      	adds	r1, r1, r2
1000113e:	784a      	ldrb	r2, [r1, #1]
10001140:	4690      	mov	r8, r2
10001142:	2200      	movs	r2, #0
10001144:	704a      	strb	r2, [r1, #1]
10001146:	4691      	mov	r9, r2
10001148:	705a      	strb	r2, [r3, #1]
1000114a:	0001      	movs	r1, r0
1000114c:	0032      	movs	r2, r6
1000114e:	0020      	movs	r0, r4
10001150:	f7ff ff12 	bl	10000f78 <ph_merge_nodes>
10001154:	4643      	mov	r3, r8
10001156:	4682      	mov	sl, r0
10001158:	2b00      	cmp	r3, #0
1000115a:	d007      	beq.n	1000116c <ph_remove_any_head+0x98>
1000115c:	005b      	lsls	r3, r3, #1
1000115e:	6821      	ldr	r1, [r4, #0]
10001160:	4443      	add	r3, r8
10001162:	3b03      	subs	r3, #3
10001164:	18cb      	adds	r3, r1, r3
10001166:	785a      	ldrb	r2, [r3, #1]
10001168:	2a00      	cmp	r2, #0
1000116a:	d116      	bne.n	1000119a <ph_remove_any_head+0xc6>
1000116c:	4642      	mov	r2, r8
1000116e:	4651      	mov	r1, sl
10001170:	0020      	movs	r0, r4
10001172:	f7ff ff01 	bl	10000f78 <ph_merge_nodes>
10001176:	6821      	ldr	r1, [r4, #0]
10001178:	9b01      	ldr	r3, [sp, #4]
1000117a:	19ca      	adds	r2, r1, r7
1000117c:	2b00      	cmp	r3, #0
1000117e:	d0c6      	beq.n	1000110e <ph_remove_any_head+0x3a>
10001180:	2800      	cmp	r0, #0
10001182:	d0cf      	beq.n	10001124 <ph_remove_any_head+0x50>
10001184:	0043      	lsls	r3, r0, #1
10001186:	181b      	adds	r3, r3, r0
10001188:	3b03      	subs	r3, #3
1000118a:	18cb      	adds	r3, r1, r3
1000118c:	2100      	movs	r1, #0
1000118e:	7099      	strb	r1, [r3, #2]
10001190:	e7c8      	b.n	10001124 <ph_remove_any_head+0x50>
10001192:	9b01      	ldr	r3, [sp, #4]
10001194:	2b00      	cmp	r3, #0
10001196:	d1c5      	bne.n	10001124 <ph_remove_any_head+0x50>
10001198:	e7b9      	b.n	1000110e <ph_remove_any_head+0x3a>
1000119a:	0050      	lsls	r0, r2, #1
1000119c:	1880      	adds	r0, r0, r2
1000119e:	3803      	subs	r0, #3
100011a0:	1809      	adds	r1, r1, r0
100011a2:	7848      	ldrb	r0, [r1, #1]
100011a4:	4683      	mov	fp, r0
100011a6:	4648      	mov	r0, r9
100011a8:	7048      	strb	r0, [r1, #1]
100011aa:	7058      	strb	r0, [r3, #1]
100011ac:	4641      	mov	r1, r8
100011ae:	0020      	movs	r0, r4
100011b0:	f7ff fee2 	bl	10000f78 <ph_merge_nodes>
100011b4:	4659      	mov	r1, fp
100011b6:	4680      	mov	r8, r0
100011b8:	0020      	movs	r0, r4
100011ba:	f7ff ff43 	bl	10001044 <ph_merge_two_pass>
100011be:	4641      	mov	r1, r8
100011c0:	0002      	movs	r2, r0
100011c2:	0020      	movs	r0, r4
100011c4:	f7ff fed8 	bl	10000f78 <ph_merge_nodes>
100011c8:	4680      	mov	r8, r0
100011ca:	e7cf      	b.n	1000116c <ph_remove_any_head+0x98>

100011cc <ph_remove_head_reserve>:
100011cc:	b5f0      	push	{r4, r5, r6, r7, lr}
100011ce:	464e      	mov	r6, r9
100011d0:	4645      	mov	r5, r8
100011d2:	46de      	mov	lr, fp
100011d4:	4657      	mov	r7, sl
100011d6:	b5e0      	push	{r5, r6, r7, lr}
100011d8:	7b46      	ldrb	r6, [r0, #13]
100011da:	0004      	movs	r4, r0
100011dc:	0075      	lsls	r5, r6, #1
100011de:	6800      	ldr	r0, [r0, #0]
100011e0:	19ad      	adds	r5, r5, r6
100011e2:	3d03      	subs	r5, #3
100011e4:	b083      	sub	sp, #12
100011e6:	9101      	str	r1, [sp, #4]
100011e8:	5d41      	ldrb	r1, [r0, r5]
100011ea:	1942      	adds	r2, r0, r5
100011ec:	2900      	cmp	r1, #0
100011ee:	d04e      	beq.n	1000128e <ph_remove_head_reserve+0xc2>
100011f0:	004b      	lsls	r3, r1, #1
100011f2:	185b      	adds	r3, r3, r1
100011f4:	3b03      	subs	r3, #3
100011f6:	18c3      	adds	r3, r0, r3
100011f8:	785f      	ldrb	r7, [r3, #1]
100011fa:	46bc      	mov	ip, r7
100011fc:	2f00      	cmp	r7, #0
100011fe:	d118      	bne.n	10001232 <ph_remove_head_reserve+0x66>
10001200:	9d01      	ldr	r5, [sp, #4]
10001202:	2d00      	cmp	r5, #0
10001204:	d140      	bne.n	10001288 <ph_remove_head_reserve+0xbc>
10001206:	7be5      	ldrb	r5, [r4, #15]
10001208:	2d00      	cmp	r5, #0
1000120a:	d004      	beq.n	10001216 <ph_remove_head_reserve+0x4a>
1000120c:	006b      	lsls	r3, r5, #1
1000120e:	195b      	adds	r3, r3, r5
10001210:	18c3      	adds	r3, r0, r3
10001212:	3b03      	subs	r3, #3
10001214:	705e      	strb	r6, [r3, #1]
10001216:	73e6      	strb	r6, [r4, #15]
10001218:	2900      	cmp	r1, #0
1000121a:	d131      	bne.n	10001280 <ph_remove_head_reserve+0xb4>
1000121c:	2300      	movs	r3, #0
1000121e:	0030      	movs	r0, r6
10001220:	7053      	strb	r3, [r2, #1]
10001222:	7361      	strb	r1, [r4, #13]
10001224:	b003      	add	sp, #12
10001226:	bc3c      	pop	{r2, r3, r4, r5}
10001228:	4690      	mov	r8, r2
1000122a:	4699      	mov	r9, r3
1000122c:	46a2      	mov	sl, r4
1000122e:	46ab      	mov	fp, r5
10001230:	bdf0      	pop	{r4, r5, r6, r7, pc}
10001232:	007a      	lsls	r2, r7, #1
10001234:	4462      	add	r2, ip
10001236:	3a03      	subs	r2, #3
10001238:	1880      	adds	r0, r0, r2
1000123a:	7842      	ldrb	r2, [r0, #1]
1000123c:	4693      	mov	fp, r2
1000123e:	2200      	movs	r2, #0
10001240:	7042      	strb	r2, [r0, #1]
10001242:	4691      	mov	r9, r2
10001244:	705a      	strb	r2, [r3, #1]
10001246:	0020      	movs	r0, r4
10001248:	003a      	movs	r2, r7
1000124a:	f7ff fe95 	bl	10000f78 <ph_merge_nodes>
1000124e:	465b      	mov	r3, fp
10001250:	4680      	mov	r8, r0
10001252:	2b00      	cmp	r3, #0
10001254:	d007      	beq.n	10001266 <ph_remove_head_reserve+0x9a>
10001256:	005b      	lsls	r3, r3, #1
10001258:	6821      	ldr	r1, [r4, #0]
1000125a:	445b      	add	r3, fp
1000125c:	3b03      	subs	r3, #3
1000125e:	18cb      	adds	r3, r1, r3
10001260:	785a      	ldrb	r2, [r3, #1]
10001262:	2a00      	cmp	r2, #0
10001264:	d117      	bne.n	10001296 <ph_remove_head_reserve+0xca>
10001266:	465a      	mov	r2, fp
10001268:	4641      	mov	r1, r8
1000126a:	0020      	movs	r0, r4
1000126c:	f7ff fe84 	bl	10000f78 <ph_merge_nodes>
10001270:	9b01      	ldr	r3, [sp, #4]
10001272:	0001      	movs	r1, r0
10001274:	6820      	ldr	r0, [r4, #0]
10001276:	1942      	adds	r2, r0, r5
10001278:	2b00      	cmp	r3, #0
1000127a:	d0c4      	beq.n	10001206 <ph_remove_head_reserve+0x3a>
1000127c:	2900      	cmp	r1, #0
1000127e:	d0cd      	beq.n	1000121c <ph_remove_head_reserve+0x50>
10001280:	004b      	lsls	r3, r1, #1
10001282:	185b      	adds	r3, r3, r1
10001284:	3b03      	subs	r3, #3
10001286:	18c3      	adds	r3, r0, r3
10001288:	2000      	movs	r0, #0
1000128a:	7098      	strb	r0, [r3, #2]
1000128c:	e7c6      	b.n	1000121c <ph_remove_head_reserve+0x50>
1000128e:	9b01      	ldr	r3, [sp, #4]
10001290:	2b00      	cmp	r3, #0
10001292:	d1c3      	bne.n	1000121c <ph_remove_head_reserve+0x50>
10001294:	e7b7      	b.n	10001206 <ph_remove_head_reserve+0x3a>
10001296:	0050      	lsls	r0, r2, #1
10001298:	1880      	adds	r0, r0, r2
1000129a:	3803      	subs	r0, #3
1000129c:	1809      	adds	r1, r1, r0
1000129e:	7848      	ldrb	r0, [r1, #1]
100012a0:	4682      	mov	sl, r0
100012a2:	4648      	mov	r0, r9
100012a4:	7048      	strb	r0, [r1, #1]
100012a6:	7058      	strb	r0, [r3, #1]
100012a8:	4659      	mov	r1, fp
100012aa:	0020      	movs	r0, r4
100012ac:	f7ff fe64 	bl	10000f78 <ph_merge_nodes>
100012b0:	4653      	mov	r3, sl
100012b2:	4683      	mov	fp, r0
100012b4:	2b00      	cmp	r3, #0
100012b6:	d007      	beq.n	100012c8 <ph_remove_head_reserve+0xfc>
100012b8:	005b      	lsls	r3, r3, #1
100012ba:	6821      	ldr	r1, [r4, #0]
100012bc:	4453      	add	r3, sl
100012be:	3b03      	subs	r3, #3
100012c0:	18cb      	adds	r3, r1, r3
100012c2:	785a      	ldrb	r2, [r3, #1]
100012c4:	2a00      	cmp	r2, #0
100012c6:	d106      	bne.n	100012d6 <ph_remove_head_reserve+0x10a>
100012c8:	4659      	mov	r1, fp
100012ca:	4652      	mov	r2, sl
100012cc:	0020      	movs	r0, r4
100012ce:	f7ff fe53 	bl	10000f78 <ph_merge_nodes>
100012d2:	4683      	mov	fp, r0
100012d4:	e7c7      	b.n	10001266 <ph_remove_head_reserve+0x9a>
100012d6:	0050      	lsls	r0, r2, #1
100012d8:	1880      	adds	r0, r0, r2
100012da:	3803      	subs	r0, #3
100012dc:	1809      	adds	r1, r1, r0
100012de:	4648      	mov	r0, r9
100012e0:	784f      	ldrb	r7, [r1, #1]
100012e2:	7048      	strb	r0, [r1, #1]
100012e4:	7058      	strb	r0, [r3, #1]
100012e6:	4651      	mov	r1, sl
100012e8:	0020      	movs	r0, r4
100012ea:	f7ff fe45 	bl	10000f78 <ph_merge_nodes>
100012ee:	0039      	movs	r1, r7
100012f0:	4681      	mov	r9, r0
100012f2:	0020      	movs	r0, r4
100012f4:	f7ff fea6 	bl	10001044 <ph_merge_two_pass>
100012f8:	4649      	mov	r1, r9
100012fa:	0002      	movs	r2, r0
100012fc:	0020      	movs	r0, r4
100012fe:	f7ff fe3b 	bl	10000f78 <ph_merge_nodes>
10001302:	4682      	mov	sl, r0
10001304:	e7e0      	b.n	100012c8 <ph_remove_head_reserve+0xfc>
10001306:	46c0      	nop			; (mov r8, r8)

10001308 <ph_delete>:
10001308:	b570      	push	{r4, r5, r6, lr}
1000130a:	0004      	movs	r4, r0
1000130c:	2900      	cmp	r1, #0
1000130e:	d02c      	beq.n	1000136a <ph_delete+0x62>
10001310:	7b43      	ldrb	r3, [r0, #13]
10001312:	428b      	cmp	r3, r1
10001314:	d02e      	beq.n	10001374 <ph_delete+0x6c>
10001316:	6805      	ldr	r5, [r0, #0]
10001318:	0048      	lsls	r0, r1, #1
1000131a:	1840      	adds	r0, r0, r1
1000131c:	3803      	subs	r0, #3
1000131e:	1828      	adds	r0, r5, r0
10001320:	7882      	ldrb	r2, [r0, #2]
10001322:	2a00      	cmp	r2, #0
10001324:	d021      	beq.n	1000136a <ph_delete+0x62>
10001326:	0053      	lsls	r3, r2, #1
10001328:	189b      	adds	r3, r3, r2
1000132a:	3b03      	subs	r3, #3
1000132c:	5cea      	ldrb	r2, [r5, r3]
1000132e:	18ee      	adds	r6, r5, r3
10001330:	428a      	cmp	r2, r1
10001332:	d102      	bne.n	1000133a <ph_delete+0x32>
10001334:	e01b      	b.n	1000136e <ph_delete+0x66>
10001336:	2a00      	cmp	r2, #0
10001338:	d008      	beq.n	1000134c <ph_delete+0x44>
1000133a:	0053      	lsls	r3, r2, #1
1000133c:	189b      	adds	r3, r3, r2
1000133e:	3b03      	subs	r3, #3
10001340:	18eb      	adds	r3, r5, r3
10001342:	785a      	ldrb	r2, [r3, #1]
10001344:	428a      	cmp	r2, r1
10001346:	d1f6      	bne.n	10001336 <ph_delete+0x2e>
10001348:	7842      	ldrb	r2, [r0, #1]
1000134a:	705a      	strb	r2, [r3, #1]
1000134c:	2300      	movs	r3, #0
1000134e:	2200      	movs	r2, #0
10001350:	7083      	strb	r3, [r0, #2]
10001352:	7043      	strb	r3, [r0, #1]
10001354:	0020      	movs	r0, r4
10001356:	f7ff febd 	bl	100010d4 <ph_remove_any_head>
1000135a:	7b61      	ldrb	r1, [r4, #13]
1000135c:	0002      	movs	r2, r0
1000135e:	0020      	movs	r0, r4
10001360:	f7ff fe0a 	bl	10000f78 <ph_merge_nodes>
10001364:	7360      	strb	r0, [r4, #13]
10001366:	2001      	movs	r0, #1
10001368:	e000      	b.n	1000136c <ph_delete+0x64>
1000136a:	2000      	movs	r0, #0
1000136c:	bd70      	pop	{r4, r5, r6, pc}
1000136e:	7843      	ldrb	r3, [r0, #1]
10001370:	7033      	strb	r3, [r6, #0]
10001372:	e7eb      	b.n	1000134c <ph_delete+0x44>
10001374:	2200      	movs	r2, #0
10001376:	0019      	movs	r1, r3
10001378:	f7ff feac 	bl	100010d4 <ph_remove_any_head>
1000137c:	7360      	strb	r0, [r4, #13]
1000137e:	2001      	movs	r0, #1
10001380:	e7f4      	b.n	1000136c <ph_delete+0x64>
10001382:	46c0      	nop			; (mov r8, r8)

10001384 <runtime_init>:
10001384:	4b2b      	ldr	r3, [pc, #172]	; (10001434 <runtime_init+0xb0>)
10001386:	4a2c      	ldr	r2, [pc, #176]	; (10001438 <runtime_init+0xb4>)
10001388:	b570      	push	{r4, r5, r6, lr}
1000138a:	601a      	str	r2, [r3, #0]
1000138c:	4a2b      	ldr	r2, [pc, #172]	; (1000143c <runtime_init+0xb8>)
1000138e:	4b2c      	ldr	r3, [pc, #176]	; (10001440 <runtime_init+0xbc>)
10001390:	492c      	ldr	r1, [pc, #176]	; (10001444 <runtime_init+0xc0>)
10001392:	601a      	str	r2, [r3, #0]
10001394:	0010      	movs	r0, r2
10001396:	688b      	ldr	r3, [r1, #8]
10001398:	4398      	bics	r0, r3
1000139a:	d1fb      	bne.n	10001394 <runtime_init+0x10>
1000139c:	4c2a      	ldr	r4, [pc, #168]	; (10001448 <runtime_init+0xc4>)
1000139e:	4b2b      	ldr	r3, [pc, #172]	; (1000144c <runtime_init+0xc8>)
100013a0:	429c      	cmp	r4, r3
100013a2:	d209      	bcs.n	100013b8 <runtime_init+0x34>
100013a4:	3b01      	subs	r3, #1
100013a6:	1b1d      	subs	r5, r3, r4
100013a8:	08ad      	lsrs	r5, r5, #2
100013aa:	3501      	adds	r5, #1
100013ac:	00ad      	lsls	r5, r5, #2
100013ae:	192d      	adds	r5, r5, r4
100013b0:	cc08      	ldmia	r4!, {r3}
100013b2:	4798      	blx	r3
100013b4:	42ac      	cmp	r4, r5
100013b6:	d1fb      	bne.n	100013b0 <runtime_init+0x2c>
100013b8:	f000 f894 	bl	100014e4 <clocks_init>
100013bc:	4a24      	ldr	r2, [pc, #144]	; (10001450 <runtime_init+0xcc>)
100013be:	4b20      	ldr	r3, [pc, #128]	; (10001440 <runtime_init+0xbc>)
100013c0:	601a      	str	r2, [r3, #0]
100013c2:	4a20      	ldr	r2, [pc, #128]	; (10001444 <runtime_init+0xc0>)
100013c4:	6893      	ldr	r3, [r2, #8]
100013c6:	01db      	lsls	r3, r3, #7
100013c8:	3380      	adds	r3, #128	; 0x80
100013ca:	d1fb      	bne.n	100013c4 <runtime_init+0x40>
100013cc:	2240      	movs	r2, #64	; 0x40
100013ce:	4b21      	ldr	r3, [pc, #132]	; (10001454 <runtime_init+0xd0>)
100013d0:	4c21      	ldr	r4, [pc, #132]	; (10001458 <runtime_init+0xd4>)
100013d2:	679a      	str	r2, [r3, #120]	; 0x78
100013d4:	675a      	str	r2, [r3, #116]	; 0x74
100013d6:	671a      	str	r2, [r3, #112]	; 0x70
100013d8:	66da      	str	r2, [r3, #108]	; 0x6c
100013da:	4b20      	ldr	r3, [pc, #128]	; (1000145c <runtime_init+0xd8>)
100013dc:	429c      	cmp	r4, r3
100013de:	d20b      	bcs.n	100013f8 <runtime_init+0x74>
100013e0:	3b01      	subs	r3, #1
100013e2:	1b1d      	subs	r5, r3, r4
100013e4:	08ed      	lsrs	r5, r5, #3
100013e6:	3501      	adds	r5, #1
100013e8:	00ed      	lsls	r5, r5, #3
100013ea:	192d      	adds	r5, r5, r4
100013ec:	0020      	movs	r0, r4
100013ee:	3408      	adds	r4, #8
100013f0:	f7ff fdaa 	bl	10000f48 <mutex_init>
100013f4:	42ac      	cmp	r4, r5
100013f6:	d1f9      	bne.n	100013ec <runtime_init+0x68>
100013f8:	4c19      	ldr	r4, [pc, #100]	; (10001460 <runtime_init+0xdc>)
100013fa:	4d1a      	ldr	r5, [pc, #104]	; (10001464 <runtime_init+0xe0>)
100013fc:	68a1      	ldr	r1, [r4, #8]
100013fe:	22c0      	movs	r2, #192	; 0xc0
10001400:	0028      	movs	r0, r5
10001402:	f000 fd31 	bl	10001e68 <__wrap___aeabi_memcpy>
10001406:	60a5      	str	r5, [r4, #8]
10001408:	f7ff f816 	bl	10000438 <spin_locks_reset>
1000140c:	f000 fbac 	bl	10001b68 <irq_init_priorities>
10001410:	f7ff fa7c 	bl	1000090c <alarm_pool_init_default>
10001414:	4c14      	ldr	r4, [pc, #80]	; (10001468 <runtime_init+0xe4>)
10001416:	4b15      	ldr	r3, [pc, #84]	; (1000146c <runtime_init+0xe8>)
10001418:	429c      	cmp	r4, r3
1000141a:	d209      	bcs.n	10001430 <runtime_init+0xac>
1000141c:	3b01      	subs	r3, #1
1000141e:	1b1d      	subs	r5, r3, r4
10001420:	08ad      	lsrs	r5, r5, #2
10001422:	3501      	adds	r5, #1
10001424:	00ad      	lsls	r5, r5, #2
10001426:	192d      	adds	r5, r5, r4
10001428:	cc08      	ldmia	r4!, {r3}
1000142a:	4798      	blx	r3
1000142c:	42a5      	cmp	r5, r4
1000142e:	d1fb      	bne.n	10001428 <runtime_init+0xa4>
10001430:	bd70      	pop	{r4, r5, r6, pc}
10001432:	46c0      	nop			; (mov r8, r8)
10001434:	4000e000 	.word	0x4000e000
10001438:	ffffcdbf 	.word	0xffffcdbf
1000143c:	003c7ffe 	.word	0x003c7ffe
10001440:	4000f000 	.word	0x4000f000
10001444:	4000c000 	.word	0x4000c000
10001448:	20000b40 	.word	0x20000b40
1000144c:	20000b50 	.word	0x20000b50
10001450:	01ffffff 	.word	0x01ffffff
10001454:	4001f000 	.word	0x4001f000
10001458:	20000b38 	.word	0x20000b38
1000145c:	20000b40 	.word	0x20000b40
10001460:	e000ed00 	.word	0xe000ed00
10001464:	20000000 	.word	0x20000000
10001468:	20000b50 	.word	0x20000b50
1000146c:	20000b54 	.word	0x20000b54

10001470 <_sbrk>:
10001470:	4a09      	ldr	r2, [pc, #36]	; (10001498 <_sbrk+0x28>)
10001472:	0003      	movs	r3, r0
10001474:	6810      	ldr	r0, [r2, #0]
10001476:	2800      	cmp	r0, #0
10001478:	d005      	beq.n	10001486 <_sbrk+0x16>
1000147a:	4908      	ldr	r1, [pc, #32]	; (1000149c <_sbrk+0x2c>)
1000147c:	18c3      	adds	r3, r0, r3
1000147e:	428b      	cmp	r3, r1
10001480:	d207      	bcs.n	10001492 <_sbrk+0x22>
10001482:	6013      	str	r3, [r2, #0]
10001484:	4770      	bx	lr
10001486:	4806      	ldr	r0, [pc, #24]	; (100014a0 <_sbrk+0x30>)
10001488:	4904      	ldr	r1, [pc, #16]	; (1000149c <_sbrk+0x2c>)
1000148a:	18c3      	adds	r3, r0, r3
1000148c:	6010      	str	r0, [r2, #0]
1000148e:	428b      	cmp	r3, r1
10001490:	d3f7      	bcc.n	10001482 <_sbrk+0x12>
10001492:	2001      	movs	r0, #1
10001494:	4240      	negs	r0, r0
10001496:	e7f5      	b.n	10001484 <_sbrk+0x14>
10001498:	20000f90 	.word	0x20000f90
1000149c:	20040000 	.word	0x20040000
100014a0:	20001938 	.word	0x20001938

100014a4 <exit>:
100014a4:	be00      	bkpt	0x0000
100014a6:	e7fd      	b.n	100014a4 <exit>

100014a8 <panic>:
100014a8:	b40f      	push	{r0, r1, r2, r3}
100014aa:	b500      	push	{lr}
100014ac:	4808      	ldr	r0, [pc, #32]	; (100014d0 <panic+0x28>)
100014ae:	b083      	sub	sp, #12
100014b0:	f000 fdb0 	bl	10002014 <__wrap_puts>
100014b4:	9b04      	ldr	r3, [sp, #16]
100014b6:	2b00      	cmp	r3, #0
100014b8:	d007      	beq.n	100014ca <panic+0x22>
100014ba:	a905      	add	r1, sp, #20
100014bc:	0018      	movs	r0, r3
100014be:	9101      	str	r1, [sp, #4]
100014c0:	f000 fb76 	bl	10001bb0 <weak_raw_vprintf>
100014c4:	4803      	ldr	r0, [pc, #12]	; (100014d4 <panic+0x2c>)
100014c6:	f000 fda5 	bl	10002014 <__wrap_puts>
100014ca:	be00      	bkpt	0x0000
100014cc:	e7fd      	b.n	100014ca <panic+0x22>
100014ce:	46c0      	nop			; (mov r8, r8)
100014d0:	10004b78 	.word	0x10004b78
100014d4:	10004b88 	.word	0x10004b88

100014d8 <hard_assertion_failure>:
100014d8:	b510      	push	{r4, lr}
100014da:	4801      	ldr	r0, [pc, #4]	; (100014e0 <hard_assertion_failure+0x8>)
100014dc:	f7ff ffe4 	bl	100014a8 <panic>
100014e0:	10004b8c 	.word	0x10004b8c

100014e4 <clocks_init>:
100014e4:	b530      	push	{r4, r5, lr}
100014e6:	200c      	movs	r0, #12
100014e8:	b083      	sub	sp, #12
100014ea:	f000 f96b 	bl	100017c4 <watchdog_start_tick>
100014ee:	f7fe ffcd 	bl	1000048c <running_on_fpga>
100014f2:	2800      	cmp	r0, #0
100014f4:	d00e      	beq.n	10001514 <clocks_init+0x30>
100014f6:	4b9a      	ldr	r3, [pc, #616]	; (10001760 <clocks_init+0x27c>)
100014f8:	4a9a      	ldr	r2, [pc, #616]	; (10001764 <clocks_init+0x280>)
100014fa:	601a      	str	r2, [r3, #0]
100014fc:	605a      	str	r2, [r3, #4]
100014fe:	609a      	str	r2, [r3, #8]
10001500:	60da      	str	r2, [r3, #12]
10001502:	611a      	str	r2, [r3, #16]
10001504:	615a      	str	r2, [r3, #20]
10001506:	619a      	str	r2, [r3, #24]
10001508:	61da      	str	r2, [r3, #28]
1000150a:	621a      	str	r2, [r3, #32]
1000150c:	4a96      	ldr	r2, [pc, #600]	; (10001768 <clocks_init+0x284>)
1000150e:	625a      	str	r2, [r3, #36]	; 0x24
10001510:	b003      	add	sp, #12
10001512:	bd30      	pop	{r4, r5, pc}
10001514:	4c95      	ldr	r4, [pc, #596]	; (1000176c <clocks_init+0x288>)
10001516:	67a0      	str	r0, [r4, #120]	; 0x78
10001518:	f000 f95c 	bl	100017d4 <xosc_init>
1000151c:	2201      	movs	r2, #1
1000151e:	4b94      	ldr	r3, [pc, #592]	; (10001770 <clocks_init+0x28c>)
10001520:	601a      	str	r2, [r3, #0]
10001522:	6c63      	ldr	r3, [r4, #68]	; 0x44
10001524:	2b01      	cmp	r3, #1
10001526:	d1fc      	bne.n	10001522 <clocks_init+0x3e>
10001528:	2203      	movs	r2, #3
1000152a:	4b92      	ldr	r3, [pc, #584]	; (10001774 <clocks_init+0x290>)
1000152c:	601a      	str	r2, [r3, #0]
1000152e:	4a8f      	ldr	r2, [pc, #572]	; (1000176c <clocks_init+0x288>)
10001530:	6b93      	ldr	r3, [r2, #56]	; 0x38
10001532:	2b01      	cmp	r3, #1
10001534:	d1fc      	bne.n	10001530 <clocks_init+0x4c>
10001536:	22c0      	movs	r2, #192	; 0xc0
10001538:	4b8f      	ldr	r3, [pc, #572]	; (10001778 <clocks_init+0x294>)
1000153a:	0192      	lsls	r2, r2, #6
1000153c:	601a      	str	r2, [r3, #0]
1000153e:	4b8f      	ldr	r3, [pc, #572]	; (1000177c <clocks_init+0x298>)
10001540:	498f      	ldr	r1, [pc, #572]	; (10001780 <clocks_init+0x29c>)
10001542:	601a      	str	r2, [r3, #0]
10001544:	0010      	movs	r0, r2
10001546:	688b      	ldr	r3, [r1, #8]
10001548:	4398      	bics	r0, r3
1000154a:	1e03      	subs	r3, r0, #0
1000154c:	d1fa      	bne.n	10001544 <clocks_init+0x60>
1000154e:	2402      	movs	r4, #2
10001550:	2101      	movs	r1, #1
10001552:	4a8c      	ldr	r2, [pc, #560]	; (10001784 <clocks_init+0x2a0>)
10001554:	488c      	ldr	r0, [pc, #560]	; (10001788 <clocks_init+0x2a4>)
10001556:	3306      	adds	r3, #6
10001558:	9400      	str	r4, [sp, #0]
1000155a:	f000 f94f 	bl	100017fc <pll_init>
1000155e:	2305      	movs	r3, #5
10001560:	4a8a      	ldr	r2, [pc, #552]	; (1000178c <clocks_init+0x2a8>)
10001562:	2101      	movs	r1, #1
10001564:	488a      	ldr	r0, [pc, #552]	; (10001790 <clocks_init+0x2ac>)
10001566:	9400      	str	r4, [sp, #0]
10001568:	f000 f948 	bl	100017fc <pll_init>
1000156c:	4b89      	ldr	r3, [pc, #548]	; (10001794 <clocks_init+0x2b0>)
1000156e:	685a      	ldr	r2, [r3, #4]
10001570:	2aff      	cmp	r2, #255	; 0xff
10001572:	d802      	bhi.n	1000157a <clocks_init+0x96>
10001574:	2280      	movs	r2, #128	; 0x80
10001576:	0052      	lsls	r2, r2, #1
10001578:	605a      	str	r2, [r3, #4]
1000157a:	2280      	movs	r2, #128	; 0x80
1000157c:	4c78      	ldr	r4, [pc, #480]	; (10001760 <clocks_init+0x27c>)
1000157e:	4b7d      	ldr	r3, [pc, #500]	; (10001774 <clocks_init+0x290>)
10001580:	6921      	ldr	r1, [r4, #16]
10001582:	0112      	lsls	r2, r2, #4
10001584:	4d83      	ldr	r5, [pc, #524]	; (10001794 <clocks_init+0x2b0>)
10001586:	601a      	str	r2, [r3, #0]
10001588:	2900      	cmp	r1, #0
1000158a:	d005      	beq.n	10001598 <clocks_init+0xb4>
1000158c:	6960      	ldr	r0, [r4, #20]
1000158e:	f000 fb5d 	bl	10001c4c <__wrap___aeabi_uidiv>
10001592:	3001      	adds	r0, #1
10001594:	3801      	subs	r0, #1
10001596:	d1fd      	bne.n	10001594 <clocks_init+0xb0>
10001598:	21e0      	movs	r1, #224	; 0xe0
1000159a:	4b7e      	ldr	r3, [pc, #504]	; (10001794 <clocks_init+0x2b0>)
1000159c:	2002      	movs	r0, #2
1000159e:	681a      	ldr	r2, [r3, #0]
100015a0:	4011      	ands	r1, r2
100015a2:	2280      	movs	r2, #128	; 0x80
100015a4:	0152      	lsls	r2, r2, #5
100015a6:	432a      	orrs	r2, r5
100015a8:	6011      	str	r1, [r2, #0]
100015aa:	6819      	ldr	r1, [r3, #0]
100015ac:	4048      	eors	r0, r1
100015ae:	2103      	movs	r1, #3
100015b0:	4001      	ands	r1, r0
100015b2:	6011      	str	r1, [r2, #0]
100015b4:	2104      	movs	r1, #4
100015b6:	689a      	ldr	r2, [r3, #8]
100015b8:	4211      	tst	r1, r2
100015ba:	d0fc      	beq.n	100015b6 <clocks_init+0xd2>
100015bc:	2280      	movs	r2, #128	; 0x80
100015be:	2180      	movs	r1, #128	; 0x80
100015c0:	0192      	lsls	r2, r2, #6
100015c2:	432a      	orrs	r2, r5
100015c4:	0109      	lsls	r1, r1, #4
100015c6:	6011      	str	r1, [r2, #0]
100015c8:	2280      	movs	r2, #128	; 0x80
100015ca:	0052      	lsls	r2, r2, #1
100015cc:	605a      	str	r2, [r3, #4]
100015ce:	4b72      	ldr	r3, [pc, #456]	; (10001798 <clocks_init+0x2b4>)
100015d0:	6123      	str	r3, [r4, #16]
100015d2:	4b72      	ldr	r3, [pc, #456]	; (1000179c <clocks_init+0x2b8>)
100015d4:	6859      	ldr	r1, [r3, #4]
100015d6:	29ff      	cmp	r1, #255	; 0xff
100015d8:	d800      	bhi.n	100015dc <clocks_init+0xf8>
100015da:	605a      	str	r2, [r3, #4]
100015dc:	2203      	movs	r2, #3
100015de:	486f      	ldr	r0, [pc, #444]	; (1000179c <clocks_init+0x2b8>)
100015e0:	4b63      	ldr	r3, [pc, #396]	; (10001770 <clocks_init+0x28c>)
100015e2:	2101      	movs	r1, #1
100015e4:	601a      	str	r2, [r3, #0]
100015e6:	0002      	movs	r2, r0
100015e8:	6893      	ldr	r3, [r2, #8]
100015ea:	4219      	tst	r1, r3
100015ec:	d0fc      	beq.n	100015e8 <clocks_init+0x104>
100015ee:	25e0      	movs	r5, #224	; 0xe0
100015f0:	6813      	ldr	r3, [r2, #0]
100015f2:	401d      	ands	r5, r3
100015f4:	2380      	movs	r3, #128	; 0x80
100015f6:	015b      	lsls	r3, r3, #5
100015f8:	4303      	orrs	r3, r0
100015fa:	601d      	str	r5, [r3, #0]
100015fc:	6812      	ldr	r2, [r2, #0]
100015fe:	404a      	eors	r2, r1
10001600:	2103      	movs	r1, #3
10001602:	4011      	ands	r1, r2
10001604:	6019      	str	r1, [r3, #0]
10001606:	2102      	movs	r1, #2
10001608:	4a64      	ldr	r2, [pc, #400]	; (1000179c <clocks_init+0x2b8>)
1000160a:	6893      	ldr	r3, [r2, #8]
1000160c:	4219      	tst	r1, r3
1000160e:	d0fc      	beq.n	1000160a <clocks_init+0x126>
10001610:	2380      	movs	r3, #128	; 0x80
10001612:	2180      	movs	r1, #128	; 0x80
10001614:	019b      	lsls	r3, r3, #6
10001616:	4303      	orrs	r3, r0
10001618:	0109      	lsls	r1, r1, #4
1000161a:	6019      	str	r1, [r3, #0]
1000161c:	2180      	movs	r1, #128	; 0x80
1000161e:	4b60      	ldr	r3, [pc, #384]	; (100017a0 <clocks_init+0x2bc>)
10001620:	0049      	lsls	r1, r1, #1
10001622:	6051      	str	r1, [r2, #4]
10001624:	6163      	str	r3, [r4, #20]
10001626:	4b5f      	ldr	r3, [pc, #380]	; (100017a4 <clocks_init+0x2c0>)
10001628:	685a      	ldr	r2, [r3, #4]
1000162a:	2aff      	cmp	r2, #255	; 0xff
1000162c:	d800      	bhi.n	10001630 <clocks_init+0x14c>
1000162e:	6059      	str	r1, [r3, #4]
10001630:	2280      	movs	r2, #128	; 0x80
10001632:	4b5d      	ldr	r3, [pc, #372]	; (100017a8 <clocks_init+0x2c4>)
10001634:	69e1      	ldr	r1, [r4, #28]
10001636:	0112      	lsls	r2, r2, #4
10001638:	4d5a      	ldr	r5, [pc, #360]	; (100017a4 <clocks_init+0x2c0>)
1000163a:	601a      	str	r2, [r3, #0]
1000163c:	2900      	cmp	r1, #0
1000163e:	d005      	beq.n	1000164c <clocks_init+0x168>
10001640:	6960      	ldr	r0, [r4, #20]
10001642:	f000 fb03 	bl	10001c4c <__wrap___aeabi_uidiv>
10001646:	3001      	adds	r0, #1
10001648:	3801      	subs	r0, #1
1000164a:	d1fd      	bne.n	10001648 <clocks_init+0x164>
1000164c:	22e0      	movs	r2, #224	; 0xe0
1000164e:	4955      	ldr	r1, [pc, #340]	; (100017a4 <clocks_init+0x2c0>)
10001650:	680b      	ldr	r3, [r1, #0]
10001652:	401a      	ands	r2, r3
10001654:	2380      	movs	r3, #128	; 0x80
10001656:	015b      	lsls	r3, r3, #5
10001658:	432b      	orrs	r3, r5
1000165a:	601a      	str	r2, [r3, #0]
1000165c:	2380      	movs	r3, #128	; 0x80
1000165e:	2280      	movs	r2, #128	; 0x80
10001660:	019b      	lsls	r3, r3, #6
10001662:	432b      	orrs	r3, r5
10001664:	0112      	lsls	r2, r2, #4
10001666:	601a      	str	r2, [r3, #0]
10001668:	2280      	movs	r2, #128	; 0x80
1000166a:	4b3e      	ldr	r3, [pc, #248]	; (10001764 <clocks_init+0x280>)
1000166c:	0052      	lsls	r2, r2, #1
1000166e:	604a      	str	r2, [r1, #4]
10001670:	61e3      	str	r3, [r4, #28]
10001672:	4b4e      	ldr	r3, [pc, #312]	; (100017ac <clocks_init+0x2c8>)
10001674:	6859      	ldr	r1, [r3, #4]
10001676:	29ff      	cmp	r1, #255	; 0xff
10001678:	d800      	bhi.n	1000167c <clocks_init+0x198>
1000167a:	605a      	str	r2, [r3, #4]
1000167c:	2280      	movs	r2, #128	; 0x80
1000167e:	4b4c      	ldr	r3, [pc, #304]	; (100017b0 <clocks_init+0x2cc>)
10001680:	6a21      	ldr	r1, [r4, #32]
10001682:	0112      	lsls	r2, r2, #4
10001684:	4d49      	ldr	r5, [pc, #292]	; (100017ac <clocks_init+0x2c8>)
10001686:	601a      	str	r2, [r3, #0]
10001688:	2900      	cmp	r1, #0
1000168a:	d005      	beq.n	10001698 <clocks_init+0x1b4>
1000168c:	6960      	ldr	r0, [r4, #20]
1000168e:	f000 fadd 	bl	10001c4c <__wrap___aeabi_uidiv>
10001692:	3001      	adds	r0, #1
10001694:	3801      	subs	r0, #1
10001696:	d1fd      	bne.n	10001694 <clocks_init+0x1b0>
10001698:	22e0      	movs	r2, #224	; 0xe0
1000169a:	4944      	ldr	r1, [pc, #272]	; (100017ac <clocks_init+0x2c8>)
1000169c:	680b      	ldr	r3, [r1, #0]
1000169e:	401a      	ands	r2, r3
100016a0:	2380      	movs	r3, #128	; 0x80
100016a2:	015b      	lsls	r3, r3, #5
100016a4:	432b      	orrs	r3, r5
100016a6:	601a      	str	r2, [r3, #0]
100016a8:	2380      	movs	r3, #128	; 0x80
100016aa:	2280      	movs	r2, #128	; 0x80
100016ac:	019b      	lsls	r3, r3, #6
100016ae:	432b      	orrs	r3, r5
100016b0:	0112      	lsls	r2, r2, #4
100016b2:	601a      	str	r2, [r3, #0]
100016b4:	2380      	movs	r3, #128	; 0x80
100016b6:	2280      	movs	r2, #128	; 0x80
100016b8:	005b      	lsls	r3, r3, #1
100016ba:	604b      	str	r3, [r1, #4]
100016bc:	4b29      	ldr	r3, [pc, #164]	; (10001764 <clocks_init+0x280>)
100016be:	02d2      	lsls	r2, r2, #11
100016c0:	6223      	str	r3, [r4, #32]
100016c2:	4b3c      	ldr	r3, [pc, #240]	; (100017b4 <clocks_init+0x2d0>)
100016c4:	6859      	ldr	r1, [r3, #4]
100016c6:	4291      	cmp	r1, r2
100016c8:	d200      	bcs.n	100016cc <clocks_init+0x1e8>
100016ca:	605a      	str	r2, [r3, #4]
100016cc:	2280      	movs	r2, #128	; 0x80
100016ce:	4b3a      	ldr	r3, [pc, #232]	; (100017b8 <clocks_init+0x2d4>)
100016d0:	6a61      	ldr	r1, [r4, #36]	; 0x24
100016d2:	0112      	lsls	r2, r2, #4
100016d4:	4d37      	ldr	r5, [pc, #220]	; (100017b4 <clocks_init+0x2d0>)
100016d6:	601a      	str	r2, [r3, #0]
100016d8:	2900      	cmp	r1, #0
100016da:	d005      	beq.n	100016e8 <clocks_init+0x204>
100016dc:	6960      	ldr	r0, [r4, #20]
100016de:	f000 fab5 	bl	10001c4c <__wrap___aeabi_uidiv>
100016e2:	3001      	adds	r0, #1
100016e4:	3801      	subs	r0, #1
100016e6:	d1fd      	bne.n	100016e4 <clocks_init+0x200>
100016e8:	22e0      	movs	r2, #224	; 0xe0
100016ea:	4932      	ldr	r1, [pc, #200]	; (100017b4 <clocks_init+0x2d0>)
100016ec:	680b      	ldr	r3, [r1, #0]
100016ee:	401a      	ands	r2, r3
100016f0:	2380      	movs	r3, #128	; 0x80
100016f2:	015b      	lsls	r3, r3, #5
100016f4:	432b      	orrs	r3, r5
100016f6:	601a      	str	r2, [r3, #0]
100016f8:	2380      	movs	r3, #128	; 0x80
100016fa:	2280      	movs	r2, #128	; 0x80
100016fc:	019b      	lsls	r3, r3, #6
100016fe:	432b      	orrs	r3, r5
10001700:	0112      	lsls	r2, r2, #4
10001702:	601a      	str	r2, [r3, #0]
10001704:	2380      	movs	r3, #128	; 0x80
10001706:	02db      	lsls	r3, r3, #11
10001708:	604b      	str	r3, [r1, #4]
1000170a:	4b17      	ldr	r3, [pc, #92]	; (10001768 <clocks_init+0x284>)
1000170c:	6263      	str	r3, [r4, #36]	; 0x24
1000170e:	4b2b      	ldr	r3, [pc, #172]	; (100017bc <clocks_init+0x2d8>)
10001710:	685a      	ldr	r2, [r3, #4]
10001712:	2aff      	cmp	r2, #255	; 0xff
10001714:	d802      	bhi.n	1000171c <clocks_init+0x238>
10001716:	2280      	movs	r2, #128	; 0x80
10001718:	0052      	lsls	r2, r2, #1
1000171a:	605a      	str	r2, [r3, #4]
1000171c:	2280      	movs	r2, #128	; 0x80
1000171e:	4b28      	ldr	r3, [pc, #160]	; (100017c0 <clocks_init+0x2dc>)
10001720:	69a1      	ldr	r1, [r4, #24]
10001722:	0112      	lsls	r2, r2, #4
10001724:	4d25      	ldr	r5, [pc, #148]	; (100017bc <clocks_init+0x2d8>)
10001726:	601a      	str	r2, [r3, #0]
10001728:	2900      	cmp	r1, #0
1000172a:	d005      	beq.n	10001738 <clocks_init+0x254>
1000172c:	6960      	ldr	r0, [r4, #20]
1000172e:	f000 fa8d 	bl	10001c4c <__wrap___aeabi_uidiv>
10001732:	3001      	adds	r0, #1
10001734:	3801      	subs	r0, #1
10001736:	d1fd      	bne.n	10001734 <clocks_init+0x250>
10001738:	22e0      	movs	r2, #224	; 0xe0
1000173a:	4920      	ldr	r1, [pc, #128]	; (100017bc <clocks_init+0x2d8>)
1000173c:	680b      	ldr	r3, [r1, #0]
1000173e:	401a      	ands	r2, r3
10001740:	2380      	movs	r3, #128	; 0x80
10001742:	015b      	lsls	r3, r3, #5
10001744:	432b      	orrs	r3, r5
10001746:	601a      	str	r2, [r3, #0]
10001748:	2380      	movs	r3, #128	; 0x80
1000174a:	2280      	movs	r2, #128	; 0x80
1000174c:	019b      	lsls	r3, r3, #6
1000174e:	432b      	orrs	r3, r5
10001750:	0112      	lsls	r2, r2, #4
10001752:	601a      	str	r2, [r3, #0]
10001754:	2380      	movs	r3, #128	; 0x80
10001756:	005b      	lsls	r3, r3, #1
10001758:	604b      	str	r3, [r1, #4]
1000175a:	4b11      	ldr	r3, [pc, #68]	; (100017a0 <clocks_init+0x2bc>)
1000175c:	61a3      	str	r3, [r4, #24]
1000175e:	e6d7      	b.n	10001510 <clocks_init+0x2c>
10001760:	20000f34 	.word	0x20000f34
10001764:	02dc6c00 	.word	0x02dc6c00
10001768:	0000b71b 	.word	0x0000b71b
1000176c:	40008000 	.word	0x40008000
10001770:	4000b03c 	.word	0x4000b03c
10001774:	4000b030 	.word	0x4000b030
10001778:	4000e000 	.word	0x4000e000
1000177c:	4000f000 	.word	0x4000f000
10001780:	4000c000 	.word	0x4000c000
10001784:	59682f00 	.word	0x59682f00
10001788:	40028000 	.word	0x40028000
1000178c:	1c9c3800 	.word	0x1c9c3800
10001790:	4002c000 	.word	0x4002c000
10001794:	40008030 	.word	0x40008030
10001798:	00b71b00 	.word	0x00b71b00
1000179c:	4000803c 	.word	0x4000803c
100017a0:	07735940 	.word	0x07735940
100017a4:	40008054 	.word	0x40008054
100017a8:	4000b054 	.word	0x4000b054
100017ac:	40008060 	.word	0x40008060
100017b0:	4000b060 	.word	0x4000b060
100017b4:	4000806c 	.word	0x4000806c
100017b8:	4000b06c 	.word	0x4000b06c
100017bc:	40008048 	.word	0x40008048
100017c0:	4000b048 	.word	0x4000b048

100017c4 <watchdog_start_tick>:
100017c4:	2380      	movs	r3, #128	; 0x80
100017c6:	4a02      	ldr	r2, [pc, #8]	; (100017d0 <watchdog_start_tick+0xc>)
100017c8:	009b      	lsls	r3, r3, #2
100017ca:	4303      	orrs	r3, r0
100017cc:	62d3      	str	r3, [r2, #44]	; 0x2c
100017ce:	4770      	bx	lr
100017d0:	40058000 	.word	0x40058000

100017d4 <xosc_init>:
100017d4:	23aa      	movs	r3, #170	; 0xaa
100017d6:	4a06      	ldr	r2, [pc, #24]	; (100017f0 <xosc_init+0x1c>)
100017d8:	011b      	lsls	r3, r3, #4
100017da:	6013      	str	r3, [r2, #0]
100017dc:	232f      	movs	r3, #47	; 0x2f
100017de:	4905      	ldr	r1, [pc, #20]	; (100017f4 <xosc_init+0x20>)
100017e0:	60d3      	str	r3, [r2, #12]
100017e2:	4b05      	ldr	r3, [pc, #20]	; (100017f8 <xosc_init+0x24>)
100017e4:	6019      	str	r1, [r3, #0]
100017e6:	6853      	ldr	r3, [r2, #4]
100017e8:	2b00      	cmp	r3, #0
100017ea:	dafc      	bge.n	100017e6 <xosc_init+0x12>
100017ec:	4770      	bx	lr
100017ee:	46c0      	nop			; (mov r8, r8)
100017f0:	40024000 	.word	0x40024000
100017f4:	00fab000 	.word	0x00fab000
100017f8:	40026000 	.word	0x40026000

100017fc <pll_init>:
100017fc:	b5f8      	push	{r3, r4, r5, r6, r7, lr}
100017fe:	001d      	movs	r5, r3
10001800:	ab06      	add	r3, sp, #24
10001802:	781e      	ldrb	r6, [r3, #0]
10001804:	2301      	movs	r3, #1
10001806:	425b      	negs	r3, r3
10001808:	6043      	str	r3, [r0, #4]
1000180a:	2300      	movs	r3, #0
1000180c:	0004      	movs	r4, r0
1000180e:	6083      	str	r3, [r0, #8]
10001810:	6001      	str	r1, [r0, #0]
10001812:	200c      	movs	r0, #12
10001814:	0017      	movs	r7, r2
10001816:	f000 fa19 	bl	10001c4c <__wrap___aeabi_uidiv>
1000181a:	0141      	lsls	r1, r0, #5
1000181c:	1a09      	subs	r1, r1, r0
1000181e:	018b      	lsls	r3, r1, #6
10001820:	1a59      	subs	r1, r3, r1
10001822:	00c9      	lsls	r1, r1, #3
10001824:	1809      	adds	r1, r1, r0
10001826:	0189      	lsls	r1, r1, #6
10001828:	0038      	movs	r0, r7
1000182a:	f000 fa0f 	bl	10001c4c <__wrap___aeabi_uidiv>
1000182e:	21c0      	movs	r1, #192	; 0xc0
10001830:	1d23      	adds	r3, r4, #4
10001832:	0189      	lsls	r1, r1, #6
10001834:	4319      	orrs	r1, r3
10001836:	2321      	movs	r3, #33	; 0x21
10001838:	60a0      	str	r0, [r4, #8]
1000183a:	600b      	str	r3, [r1, #0]
1000183c:	6822      	ldr	r2, [r4, #0]
1000183e:	2a00      	cmp	r2, #0
10001840:	dafc      	bge.n	1000183c <pll_init+0x40>
10001842:	2308      	movs	r3, #8
10001844:	042d      	lsls	r5, r5, #16
10001846:	0336      	lsls	r6, r6, #12
10001848:	432e      	orrs	r6, r5
1000184a:	60e6      	str	r6, [r4, #12]
1000184c:	600b      	str	r3, [r1, #0]
1000184e:	bdf8      	pop	{r3, r4, r5, r6, r7, pc}

10001850 <irq_set_enabled>:
10001850:	2301      	movs	r3, #1
10001852:	4083      	lsls	r3, r0
10001854:	2900      	cmp	r1, #0
10001856:	d004      	beq.n	10001862 <irq_set_enabled+0x12>
10001858:	4a03      	ldr	r2, [pc, #12]	; (10001868 <irq_set_enabled+0x18>)
1000185a:	6013      	str	r3, [r2, #0]
1000185c:	4a03      	ldr	r2, [pc, #12]	; (1000186c <irq_set_enabled+0x1c>)
1000185e:	6013      	str	r3, [r2, #0]
10001860:	4770      	bx	lr
10001862:	4a03      	ldr	r2, [pc, #12]	; (10001870 <irq_set_enabled+0x20>)
10001864:	6013      	str	r3, [r2, #0]
10001866:	e7fb      	b.n	10001860 <irq_set_enabled+0x10>
10001868:	e000e280 	.word	0xe000e280
1000186c:	e000e100 	.word	0xe000e100
10001870:	e000e180 	.word	0xe000e180

10001874 <irq_set_pending>:
10001874:	2301      	movs	r3, #1
10001876:	4083      	lsls	r3, r0
10001878:	4a01      	ldr	r2, [pc, #4]	; (10001880 <irq_set_pending+0xc>)
1000187a:	6013      	str	r3, [r2, #0]
1000187c:	4770      	bx	lr
1000187e:	46c0      	nop			; (mov r8, r8)
10001880:	e000e200 	.word	0xe000e200

10001884 <irq_get_vtable_handler>:
10001884:	4b02      	ldr	r3, [pc, #8]	; (10001890 <irq_get_vtable_handler+0xc>)
10001886:	3010      	adds	r0, #16
10001888:	689b      	ldr	r3, [r3, #8]
1000188a:	0080      	lsls	r0, r0, #2
1000188c:	58c0      	ldr	r0, [r0, r3]
1000188e:	4770      	bx	lr
10001890:	e000ed00 	.word	0xe000ed00

10001894 <irq_set_exclusive_handler>:
10001894:	b570      	push	{r4, r5, r6, lr}
10001896:	000d      	movs	r5, r1
10001898:	f3ef 8610 	mrs	r6, PRIMASK
1000189c:	b672      	cpsid	i
1000189e:	4a0f      	ldr	r2, [pc, #60]	; (100018dc <irq_set_exclusive_handler+0x48>)
100018a0:	6813      	ldr	r3, [r2, #0]
100018a2:	2b00      	cmp	r3, #0
100018a4:	d0fc      	beq.n	100018a0 <irq_set_exclusive_handler+0xc>
100018a6:	f3bf 8f5f 	dmb	sy
100018aa:	4b0d      	ldr	r3, [pc, #52]	; (100018e0 <irq_set_exclusive_handler+0x4c>)
100018ac:	3010      	adds	r0, #16
100018ae:	689b      	ldr	r3, [r3, #8]
100018b0:	0084      	lsls	r4, r0, #2
100018b2:	591b      	ldr	r3, [r3, r4]
100018b4:	4a0b      	ldr	r2, [pc, #44]	; (100018e4 <irq_set_exclusive_handler+0x50>)
100018b6:	4293      	cmp	r3, r2
100018b8:	d003      	beq.n	100018c2 <irq_set_exclusive_handler+0x2e>
100018ba:	429d      	cmp	r5, r3
100018bc:	d001      	beq.n	100018c2 <irq_set_exclusive_handler+0x2e>
100018be:	f7ff fe0b 	bl	100014d8 <hard_assertion_failure>
100018c2:	4b07      	ldr	r3, [pc, #28]	; (100018e0 <irq_set_exclusive_handler+0x4c>)
100018c4:	689b      	ldr	r3, [r3, #8]
100018c6:	511d      	str	r5, [r3, r4]
100018c8:	f3bf 8f5f 	dmb	sy
100018cc:	f3bf 8f5f 	dmb	sy
100018d0:	2200      	movs	r2, #0
100018d2:	4b02      	ldr	r3, [pc, #8]	; (100018dc <irq_set_exclusive_handler+0x48>)
100018d4:	601a      	str	r2, [r3, #0]
100018d6:	f386 8810 	msr	PRIMASK, r6
100018da:	bd70      	pop	{r4, r5, r6, pc}
100018dc:	d0000124 	.word	0xd0000124
100018e0:	e000ed00 	.word	0xe000ed00
100018e4:	100002cd 	.word	0x100002cd

100018e8 <irq_remove_handler>:
100018e8:	b5f0      	push	{r4, r5, r6, r7, lr}
100018ea:	46de      	mov	lr, fp
100018ec:	4657      	mov	r7, sl
100018ee:	464e      	mov	r6, r9
100018f0:	4645      	mov	r5, r8
100018f2:	b5e0      	push	{r5, r6, r7, lr}
100018f4:	000c      	movs	r4, r1
100018f6:	b083      	sub	sp, #12
100018f8:	f3ef 8a10 	mrs	sl, PRIMASK
100018fc:	b672      	cpsid	i
100018fe:	4a5f      	ldr	r2, [pc, #380]	; (10001a7c <irq_remove_handler+0x194>)
10001900:	6813      	ldr	r3, [r2, #0]
10001902:	2b00      	cmp	r3, #0
10001904:	d0fc      	beq.n	10001900 <irq_remove_handler+0x18>
10001906:	f3bf 8f5f 	dmb	sy
1000190a:	2210      	movs	r2, #16
1000190c:	4691      	mov	r9, r2
1000190e:	4481      	add	r9, r0
10001910:	464a      	mov	r2, r9
10001912:	4b5b      	ldr	r3, [pc, #364]	; (10001a80 <irq_remove_handler+0x198>)
10001914:	0096      	lsls	r6, r2, #2
10001916:	689b      	ldr	r3, [r3, #8]
10001918:	599d      	ldr	r5, [r3, r6]
1000191a:	4b5a      	ldr	r3, [pc, #360]	; (10001a84 <irq_remove_handler+0x19c>)
1000191c:	4698      	mov	r8, r3
1000191e:	429d      	cmp	r5, r3
10001920:	d005      	beq.n	1000192e <irq_remove_handler+0x46>
10001922:	42a5      	cmp	r5, r4
10001924:	d016      	beq.n	10001954 <irq_remove_handler+0x6c>
10001926:	4f58      	ldr	r7, [pc, #352]	; (10001a88 <irq_remove_handler+0x1a0>)
10001928:	1beb      	subs	r3, r5, r7
1000192a:	2b2f      	cmp	r3, #47	; 0x2f
1000192c:	d914      	bls.n	10001958 <irq_remove_handler+0x70>
1000192e:	4b54      	ldr	r3, [pc, #336]	; (10001a80 <irq_remove_handler+0x198>)
10001930:	689b      	ldr	r3, [r3, #8]
10001932:	519d      	str	r5, [r3, r6]
10001934:	f3bf 8f5f 	dmb	sy
10001938:	f3bf 8f5f 	dmb	sy
1000193c:	2200      	movs	r2, #0
1000193e:	4b4f      	ldr	r3, [pc, #316]	; (10001a7c <irq_remove_handler+0x194>)
10001940:	601a      	str	r2, [r3, #0]
10001942:	f38a 8810 	msr	PRIMASK, sl
10001946:	b003      	add	sp, #12
10001948:	bc3c      	pop	{r2, r3, r4, r5}
1000194a:	4690      	mov	r8, r2
1000194c:	4699      	mov	r9, r3
1000194e:	46a2      	mov	sl, r4
10001950:	46ab      	mov	fp, r5
10001952:	bdf0      	pop	{r4, r5, r6, r7, pc}
10001954:	001d      	movs	r5, r3
10001956:	e7ea      	b.n	1000192e <irq_remove_handler+0x46>
10001958:	2301      	movs	r3, #1
1000195a:	4083      	lsls	r3, r0
1000195c:	469b      	mov	fp, r3
1000195e:	465a      	mov	r2, fp
10001960:	4b4a      	ldr	r3, [pc, #296]	; (10001a8c <irq_remove_handler+0x1a4>)
10001962:	681b      	ldr	r3, [r3, #0]
10001964:	401a      	ands	r2, r3
10001966:	9200      	str	r2, [sp, #0]
10001968:	465a      	mov	r2, fp
1000196a:	4b49      	ldr	r3, [pc, #292]	; (10001a90 <irq_remove_handler+0x1a8>)
1000196c:	601a      	str	r2, [r3, #0]
1000196e:	f3bf 8f5f 	dmb	sy
10001972:	f7fe fc10 	bl	10000196 <__get_current_exception>
10001976:	9001      	str	r0, [sp, #4]
10001978:	2800      	cmp	r0, #0
1000197a:	d003      	beq.n	10001984 <irq_remove_handler+0x9c>
1000197c:	4581      	cmp	r9, r0
1000197e:	d001      	beq.n	10001984 <irq_remove_handler+0x9c>
10001980:	f7ff fdaa 	bl	100014d8 <hard_assertion_failure>
10001984:	2301      	movs	r3, #1
10001986:	0029      	movs	r1, r5
10001988:	4399      	bics	r1, r3
1000198a:	688b      	ldr	r3, [r1, #8]
1000198c:	42a3      	cmp	r3, r4
1000198e:	d069      	beq.n	10001a64 <irq_remove_handler+0x17c>
10001990:	000a      	movs	r2, r1
10001992:	e007      	b.n	100019a4 <irq_remove_handler+0xbc>
10001994:	0043      	lsls	r3, r0, #1
10001996:	181b      	adds	r3, r3, r0
10001998:	009b      	lsls	r3, r3, #2
1000199a:	18fb      	adds	r3, r7, r3
1000199c:	6898      	ldr	r0, [r3, #8]
1000199e:	42a0      	cmp	r0, r4
100019a0:	d011      	beq.n	100019c6 <irq_remove_handler+0xde>
100019a2:	001a      	movs	r2, r3
100019a4:	2006      	movs	r0, #6
100019a6:	5610      	ldrsb	r0, [r2, r0]
100019a8:	2800      	cmp	r0, #0
100019aa:	daf3      	bge.n	10001994 <irq_remove_handler+0xac>
100019ac:	9b00      	ldr	r3, [sp, #0]
100019ae:	2b00      	cmp	r3, #0
100019b0:	d005      	beq.n	100019be <irq_remove_handler+0xd6>
100019b2:	465a      	mov	r2, fp
100019b4:	4b37      	ldr	r3, [pc, #220]	; (10001a94 <irq_remove_handler+0x1ac>)
100019b6:	601a      	str	r2, [r3, #0]
100019b8:	4b34      	ldr	r3, [pc, #208]	; (10001a8c <irq_remove_handler+0x1a4>)
100019ba:	601a      	str	r2, [r3, #0]
100019bc:	e7b7      	b.n	1000192e <irq_remove_handler+0x46>
100019be:	465a      	mov	r2, fp
100019c0:	4b33      	ldr	r3, [pc, #204]	; (10001a90 <irq_remove_handler+0x1a8>)
100019c2:	601a      	str	r2, [r3, #0]
100019c4:	e7b3      	b.n	1000192e <irq_remove_handler+0x46>
100019c6:	2006      	movs	r0, #6
100019c8:	5618      	ldrsb	r0, [r3, r0]
100019ca:	2800      	cmp	r0, #0
100019cc:	db22      	blt.n	10001a14 <irq_remove_handler+0x12c>
100019ce:	0042      	lsls	r2, r0, #1
100019d0:	1811      	adds	r1, r2, r0
100019d2:	0089      	lsls	r1, r1, #2
100019d4:	187c      	adds	r4, r7, r1
100019d6:	4688      	mov	r8, r1
100019d8:	68a1      	ldr	r1, [r4, #8]
100019da:	6099      	str	r1, [r3, #8]
100019dc:	79e1      	ldrb	r1, [r4, #7]
100019de:	71d9      	strb	r1, [r3, #7]
100019e0:	2106      	movs	r1, #6
100019e2:	5661      	ldrsb	r1, [r4, r1]
100019e4:	7199      	strb	r1, [r3, #6]
100019e6:	79a1      	ldrb	r1, [r4, #6]
100019e8:	297f      	cmp	r1, #127	; 0x7f
100019ea:	d82b      	bhi.n	10001a44 <irq_remove_handler+0x15c>
100019ec:	88a4      	ldrh	r4, [r4, #4]
100019ee:	1af9      	subs	r1, r7, r3
100019f0:	0564      	lsls	r4, r4, #21
100019f2:	1524      	asrs	r4, r4, #20
100019f4:	4444      	add	r4, r8
100019f6:	1909      	adds	r1, r1, r4
100019f8:	24e0      	movs	r4, #224	; 0xe0
100019fa:	0509      	lsls	r1, r1, #20
100019fc:	0d49      	lsrs	r1, r1, #21
100019fe:	0224      	lsls	r4, r4, #8
10001a00:	4321      	orrs	r1, r4
10001a02:	8099      	strh	r1, [r3, #4]
10001a04:	1812      	adds	r2, r2, r0
10001a06:	4b24      	ldr	r3, [pc, #144]	; (10001a98 <irq_remove_handler+0x1b0>)
10001a08:	0092      	lsls	r2, r2, #2
10001a0a:	18bf      	adds	r7, r7, r2
10001a0c:	781a      	ldrb	r2, [r3, #0]
10001a0e:	7018      	strb	r0, [r3, #0]
10001a10:	71ba      	strb	r2, [r7, #6]
10001a12:	e7cb      	b.n	100019ac <irq_remove_handler+0xc4>
10001a14:	9801      	ldr	r0, [sp, #4]
10001a16:	2800      	cmp	r0, #0
10001a18:	d117      	bne.n	10001a4a <irq_remove_handler+0x162>
10001a1a:	30ff      	adds	r0, #255	; 0xff
10001a1c:	7190      	strb	r0, [r2, #6]
10001a1e:	481f      	ldr	r0, [pc, #124]	; (10001a9c <irq_remove_handler+0x1b4>)
10001a20:	8090      	strh	r0, [r2, #4]
10001a22:	4a1d      	ldr	r2, [pc, #116]	; (10001a98 <irq_remove_handler+0x1b0>)
10001a24:	1bcf      	subs	r7, r1, r7
10001a26:	7810      	ldrb	r0, [r2, #0]
10001a28:	10bf      	asrs	r7, r7, #2
10001a2a:	7198      	strb	r0, [r3, #6]
10001a2c:	00bb      	lsls	r3, r7, #2
10001a2e:	19db      	adds	r3, r3, r7
10001a30:	0119      	lsls	r1, r3, #4
10001a32:	185b      	adds	r3, r3, r1
10001a34:	0219      	lsls	r1, r3, #8
10001a36:	185b      	adds	r3, r3, r1
10001a38:	0419      	lsls	r1, r3, #16
10001a3a:	185b      	adds	r3, r3, r1
10001a3c:	005b      	lsls	r3, r3, #1
10001a3e:	19db      	adds	r3, r3, r7
10001a40:	7013      	strb	r3, [r2, #0]
10001a42:	e7b3      	b.n	100019ac <irq_remove_handler+0xc4>
10001a44:	21bd      	movs	r1, #189	; 0xbd
10001a46:	0209      	lsls	r1, r1, #8
10001a48:	e7db      	b.n	10001a02 <irq_remove_handler+0x11a>
10001a4a:	4a15      	ldr	r2, [pc, #84]	; (10001aa0 <irq_remove_handler+0x1b8>)
10001a4c:	4915      	ldr	r1, [pc, #84]	; (10001aa4 <irq_remove_handler+0x1bc>)
10001a4e:	1ad2      	subs	r2, r2, r3
10001a50:	3a08      	subs	r2, #8
10001a52:	0250      	lsls	r0, r2, #9
10001a54:	0d40      	lsrs	r0, r0, #21
10001a56:	4301      	orrs	r1, r0
10001a58:	8099      	strh	r1, [r3, #4]
10001a5a:	4913      	ldr	r1, [pc, #76]	; (10001aa8 <irq_remove_handler+0x1c0>)
10001a5c:	0852      	lsrs	r2, r2, #1
10001a5e:	430a      	orrs	r2, r1
10001a60:	80da      	strh	r2, [r3, #6]
10001a62:	e7a3      	b.n	100019ac <irq_remove_handler+0xc4>
10001a64:	2006      	movs	r0, #6
10001a66:	5608      	ldrsb	r0, [r1, r0]
10001a68:	000b      	movs	r3, r1
10001a6a:	2800      	cmp	r0, #0
10001a6c:	daaf      	bge.n	100019ce <irq_remove_handler+0xe6>
10001a6e:	9a01      	ldr	r2, [sp, #4]
10001a70:	2a00      	cmp	r2, #0
10001a72:	d1ea      	bne.n	10001a4a <irq_remove_handler+0x162>
10001a74:	000b      	movs	r3, r1
10001a76:	4645      	mov	r5, r8
10001a78:	e7d3      	b.n	10001a22 <irq_remove_handler+0x13a>
10001a7a:	46c0      	nop			; (mov r8, r8)
10001a7c:	d0000124 	.word	0xd0000124
10001a80:	e000ed00 	.word	0xe000ed00
10001a84:	100002cd 	.word	0x100002cd
10001a88:	20000254 	.word	0x20000254
10001a8c:	e000e100 	.word	0xe000e100
10001a90:	e000e180 	.word	0xe000e180
10001a94:	e000e280 	.word	0xe000e280
10001a98:	20001648 	.word	0x20001648
10001a9c:	ffffbd00 	.word	0xffffbd00
10001aa0:	2000028e 	.word	0x2000028e
10001aa4:	fffff000 	.word	0xfffff000
10001aa8:	fffff800 	.word	0xfffff800

10001aac <irq_add_tail_to_free_list>:
10001aac:	b5f8      	push	{r3, r4, r5, r6, r7, lr}
10001aae:	2501      	movs	r5, #1
10001ab0:	0004      	movs	r4, r0
10001ab2:	4305      	orrs	r5, r0
10001ab4:	f7fe fb6f 	bl	10000196 <__get_current_exception>
10001ab8:	f3ef 8610 	mrs	r6, PRIMASK
10001abc:	b672      	cpsid	i
10001abe:	4a24      	ldr	r2, [pc, #144]	; (10001b50 <irq_add_tail_to_free_list+0xa4>)
10001ac0:	6813      	ldr	r3, [r2, #0]
10001ac2:	2b00      	cmp	r3, #0
10001ac4:	d0fc      	beq.n	10001ac0 <irq_add_tail_to_free_list+0x14>
10001ac6:	f3bf 8f5f 	dmb	sy
10001aca:	4f22      	ldr	r7, [pc, #136]	; (10001b54 <irq_add_tail_to_free_list+0xa8>)
10001acc:	0080      	lsls	r0, r0, #2
10001ace:	1be1      	subs	r1, r4, r7
10001ad0:	1089      	asrs	r1, r1, #2
10001ad2:	008a      	lsls	r2, r1, #2
10001ad4:	1852      	adds	r2, r2, r1
10001ad6:	0113      	lsls	r3, r2, #4
10001ad8:	18d2      	adds	r2, r2, r3
10001ada:	0213      	lsls	r3, r2, #8
10001adc:	18d2      	adds	r2, r2, r3
10001ade:	0413      	lsls	r3, r2, #16
10001ae0:	18d3      	adds	r3, r2, r3
10001ae2:	4a1d      	ldr	r2, [pc, #116]	; (10001b58 <irq_add_tail_to_free_list+0xac>)
10001ae4:	005b      	lsls	r3, r3, #1
10001ae6:	185b      	adds	r3, r3, r1
10001ae8:	6891      	ldr	r1, [r2, #8]
10001aea:	5809      	ldr	r1, [r1, r0]
10001aec:	42a9      	cmp	r1, r5
10001aee:	d01c      	beq.n	10001b2a <irq_add_tail_to_free_list+0x7e>
10001af0:	2206      	movs	r2, #6
10001af2:	56ba      	ldrsb	r2, [r7, r2]
10001af4:	4293      	cmp	r3, r2
10001af6:	d01c      	beq.n	10001b32 <irq_add_tail_to_free_list+0x86>
10001af8:	2212      	movs	r2, #18
10001afa:	56ba      	ldrsb	r2, [r7, r2]
10001afc:	4293      	cmp	r3, r2
10001afe:	d022      	beq.n	10001b46 <irq_add_tail_to_free_list+0x9a>
10001b00:	221e      	movs	r2, #30
10001b02:	56ba      	ldrsb	r2, [r7, r2]
10001b04:	4293      	cmp	r3, r2
10001b06:	d020      	beq.n	10001b4a <irq_add_tail_to_free_list+0x9e>
10001b08:	222a      	movs	r2, #42	; 0x2a
10001b0a:	56ba      	ldrsb	r2, [r7, r2]
10001b0c:	2103      	movs	r1, #3
10001b0e:	429a      	cmp	r2, r3
10001b10:	d010      	beq.n	10001b34 <irq_add_tail_to_free_list+0x88>
10001b12:	4a12      	ldr	r2, [pc, #72]	; (10001b5c <irq_add_tail_to_free_list+0xb0>)
10001b14:	7811      	ldrb	r1, [r2, #0]
10001b16:	7013      	strb	r3, [r2, #0]
10001b18:	71a1      	strb	r1, [r4, #6]
10001b1a:	f3bf 8f5f 	dmb	sy
10001b1e:	2200      	movs	r2, #0
10001b20:	4b0b      	ldr	r3, [pc, #44]	; (10001b50 <irq_add_tail_to_free_list+0xa4>)
10001b22:	601a      	str	r2, [r3, #0]
10001b24:	f386 8810 	msr	PRIMASK, r6
10001b28:	bdf8      	pop	{r3, r4, r5, r6, r7, pc}
10001b2a:	6892      	ldr	r2, [r2, #8]
10001b2c:	490c      	ldr	r1, [pc, #48]	; (10001b60 <irq_add_tail_to_free_list+0xb4>)
10001b2e:	5011      	str	r1, [r2, r0]
10001b30:	e7ef      	b.n	10001b12 <irq_add_tail_to_free_list+0x66>
10001b32:	2100      	movs	r1, #0
10001b34:	004a      	lsls	r2, r1, #1
10001b36:	1852      	adds	r2, r2, r1
10001b38:	21ff      	movs	r1, #255	; 0xff
10001b3a:	0092      	lsls	r2, r2, #2
10001b3c:	18ba      	adds	r2, r7, r2
10001b3e:	7191      	strb	r1, [r2, #6]
10001b40:	4908      	ldr	r1, [pc, #32]	; (10001b64 <irq_add_tail_to_free_list+0xb8>)
10001b42:	8091      	strh	r1, [r2, #4]
10001b44:	e7e5      	b.n	10001b12 <irq_add_tail_to_free_list+0x66>
10001b46:	2101      	movs	r1, #1
10001b48:	e7f4      	b.n	10001b34 <irq_add_tail_to_free_list+0x88>
10001b4a:	2102      	movs	r1, #2
10001b4c:	e7f2      	b.n	10001b34 <irq_add_tail_to_free_list+0x88>
10001b4e:	46c0      	nop			; (mov r8, r8)
10001b50:	d0000124 	.word	0xd0000124
10001b54:	20000254 	.word	0x20000254
10001b58:	e000ed00 	.word	0xe000ed00
10001b5c:	20001648 	.word	0x20001648
10001b60:	100002cd 	.word	0x100002cd
10001b64:	ffffbd00 	.word	0xffffbd00

10001b68 <irq_init_priorities>:
10001b68:	b5f0      	push	{r4, r5, r6, r7, lr}
10001b6a:	2200      	movs	r2, #0
10001b6c:	2403      	movs	r4, #3
10001b6e:	27ff      	movs	r7, #255	; 0xff
10001b70:	2680      	movs	r6, #128	; 0x80
10001b72:	0020      	movs	r0, r4
10001b74:	003d      	movs	r5, r7
10001b76:	4b09      	ldr	r3, [pc, #36]	; (10001b9c <irq_init_priorities+0x34>)
10001b78:	0011      	movs	r1, r2
10001b7a:	469c      	mov	ip, r3
10001b7c:	4010      	ands	r0, r2
10001b7e:	00c0      	lsls	r0, r0, #3
10001b80:	4085      	lsls	r5, r0
10001b82:	43a1      	bics	r1, r4
10001b84:	4461      	add	r1, ip
10001b86:	680b      	ldr	r3, [r1, #0]
10001b88:	3201      	adds	r2, #1
10001b8a:	43ab      	bics	r3, r5
10001b8c:	0035      	movs	r5, r6
10001b8e:	4085      	lsls	r5, r0
10001b90:	432b      	orrs	r3, r5
10001b92:	600b      	str	r3, [r1, #0]
10001b94:	2a20      	cmp	r2, #32
10001b96:	d1ec      	bne.n	10001b72 <irq_init_priorities+0xa>
10001b98:	bdf0      	pop	{r4, r5, r6, r7, pc}
10001b9a:	46c0      	nop			; (mov r8, r8)
10001b9c:	e000e400 	.word	0xe000e400

10001ba0 <_out_char>:
10001ba0:	b510      	push	{r4, lr}
10001ba2:	2800      	cmp	r0, #0
10001ba4:	d100      	bne.n	10001ba8 <_out_char+0x8>
10001ba6:	bd10      	pop	{r4, pc}
10001ba8:	f000 fa26 	bl	10001ff8 <__wrap_putchar>
10001bac:	e7fb      	b.n	10001ba6 <_out_char+0x6>
10001bae:	46c0      	nop			; (mov r8, r8)

10001bb0 <weak_raw_vprintf>:
10001bb0:	b510      	push	{r4, lr}
10001bb2:	4a09      	ldr	r2, [pc, #36]	; (10001bd8 <weak_raw_vprintf+0x28>)
10001bb4:	0003      	movs	r3, r0
10001bb6:	6814      	ldr	r4, [r2, #0]
10001bb8:	b084      	sub	sp, #16
10001bba:	2c00      	cmp	r4, #0
10001bbc:	d008      	beq.n	10001bd0 <weak_raw_vprintf+0x20>
10001bbe:	2201      	movs	r2, #1
10001bc0:	9100      	str	r1, [sp, #0]
10001bc2:	4806      	ldr	r0, [pc, #24]	; (10001bdc <weak_raw_vprintf+0x2c>)
10001bc4:	4252      	negs	r2, r2
10001bc6:	a903      	add	r1, sp, #12
10001bc8:	47a0      	blx	r4
10001bca:	2001      	movs	r0, #1
10001bcc:	b004      	add	sp, #16
10001bce:	bd10      	pop	{r4, pc}
10001bd0:	f000 fa20 	bl	10002014 <__wrap_puts>
10001bd4:	2000      	movs	r0, #0
10001bd6:	e7f9      	b.n	10001bcc <weak_raw_vprintf+0x1c>
10001bd8:	20001614 	.word	0x20001614
10001bdc:	10001ba1 	.word	0x10001ba1

10001be0 <__aeabi_bits_init>:
10001be0:	4801      	ldr	r0, [pc, #4]	; (10001be8 <__aeabi_bits_init+0x8>)
10001be2:	2104      	movs	r1, #4
10001be4:	4b01      	ldr	r3, [pc, #4]	; (10001bec <__aeabi_bits_init+0xc>)
10001be6:	4718      	bx	r3
10001be8:	200002a0 	.word	0x200002a0
10001bec:	10001c11 	.word	0x10001c11

10001bf0 <rom_func_lookup>:
10001bf0:	2314      	movs	r3, #20
10001bf2:	b510      	push	{r4, lr}
10001bf4:	0001      	movs	r1, r0
10001bf6:	8818      	ldrh	r0, [r3, #0]
10001bf8:	3304      	adds	r3, #4
10001bfa:	881b      	ldrh	r3, [r3, #0]
10001bfc:	4798      	blx	r3
10001bfe:	bd10      	pop	{r4, pc}

10001c00 <rom_data_lookup>:
10001c00:	2316      	movs	r3, #22
10001c02:	b510      	push	{r4, lr}
10001c04:	0001      	movs	r1, r0
10001c06:	8818      	ldrh	r0, [r3, #0]
10001c08:	3302      	adds	r3, #2
10001c0a:	881b      	ldrh	r3, [r3, #0]
10001c0c:	4798      	blx	r3
10001c0e:	bd10      	pop	{r4, pc}

10001c10 <rom_funcs_lookup>:
10001c10:	b5f0      	push	{r4, r5, r6, r7, lr}
10001c12:	46c6      	mov	lr, r8
10001c14:	b500      	push	{lr}
10001c16:	2900      	cmp	r1, #0
10001c18:	d016      	beq.n	10001c48 <rom_funcs_lookup+0x38>
10001c1a:	2314      	movs	r3, #20
10001c1c:	0004      	movs	r4, r0
10001c1e:	2501      	movs	r5, #1
10001c20:	4698      	mov	r8, r3
10001c22:	2718      	movs	r7, #24
10001c24:	0089      	lsls	r1, r1, #2
10001c26:	1846      	adds	r6, r0, r1
10001c28:	4643      	mov	r3, r8
10001c2a:	6821      	ldr	r1, [r4, #0]
10001c2c:	8818      	ldrh	r0, [r3, #0]
10001c2e:	883b      	ldrh	r3, [r7, #0]
10001c30:	4798      	blx	r3
10001c32:	c401      	stmia	r4!, {r0}
10001c34:	1e43      	subs	r3, r0, #1
10001c36:	4198      	sbcs	r0, r3
10001c38:	4240      	negs	r0, r0
10001c3a:	4005      	ands	r5, r0
10001c3c:	42a6      	cmp	r6, r4
10001c3e:	d1f3      	bne.n	10001c28 <rom_funcs_lookup+0x18>
10001c40:	0028      	movs	r0, r5
10001c42:	bc04      	pop	{r2}
10001c44:	4690      	mov	r8, r2
10001c46:	bdf0      	pop	{r4, r5, r6, r7, pc}
10001c48:	2501      	movs	r5, #1
10001c4a:	e7f9      	b.n	10001c40 <rom_funcs_lookup+0x30>

10001c4c <__wrap___aeabi_uidiv>:
10001c4c:	4a13      	ldr	r2, [pc, #76]	; (10001c9c <divmod_u32u32_savestate+0x20>)
10001c4e:	6f93      	ldr	r3, [r2, #120]	; 0x78
10001c50:	089b      	lsrs	r3, r3, #2
10001c52:	d213      	bcs.n	10001c7c <divmod_u32u32_savestate>

10001c54 <divmod_u32u32_unsafe>:
10001c54:	6610      	str	r0, [r2, #96]	; 0x60
10001c56:	6651      	str	r1, [r2, #100]	; 0x64
10001c58:	2900      	cmp	r1, #0
10001c5a:	d005      	beq.n	10001c68 <divmod_u32u32_unsafe+0x14>
10001c5c:	e7ff      	b.n	10001c5e <divmod_u32u32_unsafe+0xa>
10001c5e:	e7ff      	b.n	10001c60 <divmod_u32u32_unsafe+0xc>
10001c60:	e7ff      	b.n	10001c62 <divmod_u32u32_unsafe+0xe>
10001c62:	6f51      	ldr	r1, [r2, #116]	; 0x74
10001c64:	6f10      	ldr	r0, [r2, #112]	; 0x70
10001c66:	4770      	bx	lr
10001c68:	b504      	push	{r2, lr}
10001c6a:	2800      	cmp	r0, #0
10001c6c:	d001      	beq.n	10001c72 <divmod_u32u32_unsafe+0x1e>
10001c6e:	2000      	movs	r0, #0
10001c70:	43c0      	mvns	r0, r0
10001c72:	f002 ff39 	bl	10004ae8 <____aeabi_idiv0_veneer>
10001c76:	2100      	movs	r1, #0
10001c78:	bd04      	pop	{r2, pc}
10001c7a:	46c0      	nop			; (mov r8, r8)

10001c7c <divmod_u32u32_savestate>:
10001c7c:	6f93      	ldr	r3, [r2, #120]	; 0x78
10001c7e:	085b      	lsrs	r3, r3, #1
10001c80:	d3fd      	bcc.n	10001c7e <divmod_u32u32_savestate+0x2>
10001c82:	b5f0      	push	{r4, r5, r6, r7, lr}
10001c84:	6e94      	ldr	r4, [r2, #104]	; 0x68
10001c86:	6ed5      	ldr	r5, [r2, #108]	; 0x6c
10001c88:	6f57      	ldr	r7, [r2, #116]	; 0x74
10001c8a:	6f16      	ldr	r6, [r2, #112]	; 0x70
10001c8c:	f7ff ffe2 	bl	10001c54 <divmod_u32u32_unsafe>
10001c90:	6694      	str	r4, [r2, #104]	; 0x68
10001c92:	66d5      	str	r5, [r2, #108]	; 0x6c
10001c94:	6757      	str	r7, [r2, #116]	; 0x74
10001c96:	6716      	str	r6, [r2, #112]	; 0x70
10001c98:	bdf0      	pop	{r4, r5, r6, r7, pc}
10001c9a:	0000      	.short	0x0000
10001c9c:	d0000000 	.word	0xd0000000

10001ca0 <__aeabi_double_init>:
10001ca0:	2313      	movs	r3, #19
10001ca2:	b570      	push	{r4, r5, r6, lr}
10001ca4:	781d      	ldrb	r5, [r3, #0]
10001ca6:	2d01      	cmp	r5, #1
10001ca8:	d010      	beq.n	10001ccc <__aeabi_double_init+0x2c>
10001caa:	dd0b      	ble.n	10001cc4 <__aeabi_double_init+0x24>
10001cac:	4824      	ldr	r0, [pc, #144]	; (10001d40 <__aeabi_double_init+0xa0>)
10001cae:	f7ff ffa7 	bl	10001c00 <rom_data_lookup>
10001cb2:	4c24      	ldr	r4, [pc, #144]	; (10001d44 <__aeabi_double_init+0xa4>)
10001cb4:	0001      	movs	r1, r0
10001cb6:	2280      	movs	r2, #128	; 0x80
10001cb8:	0020      	movs	r0, r4
10001cba:	f000 f8d5 	bl	10001e68 <__wrap___aeabi_memcpy>
10001cbe:	2d02      	cmp	r5, #2
10001cc0:	d001      	beq.n	10001cc6 <__aeabi_double_init+0x26>
10001cc2:	bd70      	pop	{r4, r5, r6, pc}
10001cc4:	4c1f      	ldr	r4, [pc, #124]	; (10001d44 <__aeabi_double_init+0xa4>)
10001cc6:	4a20      	ldr	r2, [pc, #128]	; (10001d48 <__aeabi_double_init+0xa8>)
10001cc8:	64a2      	str	r2, [r4, #72]	; 0x48
10001cca:	e7fa      	b.n	10001cc2 <__aeabi_double_init+0x22>
10001ccc:	002e      	movs	r6, r5
10001cce:	4c1d      	ldr	r4, [pc, #116]	; (10001d44 <__aeabi_double_init+0xa4>)
10001cd0:	4a1d      	ldr	r2, [pc, #116]	; (10001d48 <__aeabi_double_init+0xa8>)
10001cd2:	08a3      	lsrs	r3, r4, #2
10001cd4:	425b      	negs	r3, r3
10001cd6:	401e      	ands	r6, r3
10001cd8:	421d      	tst	r5, r3
10001cda:	d02f      	beq.n	10001d3c <__aeabi_double_init+0x9c>
10001cdc:	0033      	movs	r3, r6
10001cde:	6022      	str	r2, [r4, #0]
10001ce0:	2020      	movs	r0, #32
10001ce2:	00b1      	lsls	r1, r6, #2
10001ce4:	1861      	adds	r1, r4, r1
10001ce6:	1b80      	subs	r0, r0, r6
10001ce8:	600a      	str	r2, [r1, #0]
10001cea:	604a      	str	r2, [r1, #4]
10001cec:	608a      	str	r2, [r1, #8]
10001cee:	60ca      	str	r2, [r1, #12]
10001cf0:	610a      	str	r2, [r1, #16]
10001cf2:	614a      	str	r2, [r1, #20]
10001cf4:	618a      	str	r2, [r1, #24]
10001cf6:	61ca      	str	r2, [r1, #28]
10001cf8:	620a      	str	r2, [r1, #32]
10001cfa:	624a      	str	r2, [r1, #36]	; 0x24
10001cfc:	628a      	str	r2, [r1, #40]	; 0x28
10001cfe:	62ca      	str	r2, [r1, #44]	; 0x2c
10001d00:	630a      	str	r2, [r1, #48]	; 0x30
10001d02:	634a      	str	r2, [r1, #52]	; 0x34
10001d04:	638a      	str	r2, [r1, #56]	; 0x38
10001d06:	63ca      	str	r2, [r1, #60]	; 0x3c
10001d08:	640a      	str	r2, [r1, #64]	; 0x40
10001d0a:	644a      	str	r2, [r1, #68]	; 0x44
10001d0c:	648a      	str	r2, [r1, #72]	; 0x48
10001d0e:	64ca      	str	r2, [r1, #76]	; 0x4c
10001d10:	650a      	str	r2, [r1, #80]	; 0x50
10001d12:	654a      	str	r2, [r1, #84]	; 0x54
10001d14:	658a      	str	r2, [r1, #88]	; 0x58
10001d16:	65ca      	str	r2, [r1, #92]	; 0x5c
10001d18:	660a      	str	r2, [r1, #96]	; 0x60
10001d1a:	664a      	str	r2, [r1, #100]	; 0x64
10001d1c:	668a      	str	r2, [r1, #104]	; 0x68
10001d1e:	66ca      	str	r2, [r1, #108]	; 0x6c
10001d20:	670a      	str	r2, [r1, #112]	; 0x70
10001d22:	674a      	str	r2, [r1, #116]	; 0x74
10001d24:	0840      	lsrs	r0, r0, #1
10001d26:	2810      	cmp	r0, #16
10001d28:	d103      	bne.n	10001d32 <__aeabi_double_init+0x92>
10001d2a:	678a      	str	r2, [r1, #120]	; 0x78
10001d2c:	67ca      	str	r2, [r1, #124]	; 0x7c
10001d2e:	64a2      	str	r2, [r4, #72]	; 0x48
10001d30:	e7c7      	b.n	10001cc2 <__aeabi_double_init+0x22>
10001d32:	331e      	adds	r3, #30
10001d34:	009b      	lsls	r3, r3, #2
10001d36:	50e2      	str	r2, [r4, r3]
10001d38:	64a2      	str	r2, [r4, #72]	; 0x48
10001d3a:	e7c2      	b.n	10001cc2 <__aeabi_double_init+0x22>
10001d3c:	2300      	movs	r3, #0
10001d3e:	e7cf      	b.n	10001ce0 <__aeabi_double_init+0x40>
10001d40:	00004453 	.word	0x00004453
10001d44:	2000164c 	.word	0x2000164c
10001d48:	10001d4d 	.word	0x10001d4d

10001d4c <double_table_shim_on_use_helper>:
10001d4c:	b507      	push	{r0, r1, r2, lr}
10001d4e:	4660      	mov	r0, ip
10001d50:	8801      	ldrh	r1, [r0, #0]
10001d52:	0a0a      	lsrs	r2, r1, #8
10001d54:	3002      	adds	r0, #2
10001d56:	2adf      	cmp	r2, #223	; 0xdf
10001d58:	d1fa      	bne.n	10001d50 <double_table_shim_on_use_helper+0x4>
10001d5a:	b2c9      	uxtb	r1, r1
10001d5c:	0882      	lsrs	r2, r0, #2
10001d5e:	d304      	bcc.n	10001d6a <double_table_shim_on_use_helper+0x1e>
10001d60:	8802      	ldrh	r2, [r0, #0]
10001d62:	8840      	ldrh	r0, [r0, #2]
10001d64:	0400      	lsls	r0, r0, #16
10001d66:	4310      	orrs	r0, r2
10001d68:	e000      	b.n	10001d6c <double_table_shim_on_use_helper+0x20>
10001d6a:	6800      	ldr	r0, [r0, #0]
10001d6c:	4a01      	ldr	r2, [pc, #4]	; (10001d74 <double_table_shim_on_use_helper+0x28>)
10001d6e:	5050      	str	r0, [r2, r1]
10001d70:	9003      	str	r0, [sp, #12]
10001d72:	bd07      	pop	{r0, r1, r2, pc}
10001d74:	2000164c 	.word	0x2000164c

10001d78 <__wrap___aeabi_lmul>:
10001d78:	4351      	muls	r1, r2
10001d7a:	4343      	muls	r3, r0
10001d7c:	18c9      	adds	r1, r1, r3
10001d7e:	468c      	mov	ip, r1
10001d80:	0c11      	lsrs	r1, r2, #16
10001d82:	b283      	uxth	r3, r0
10001d84:	434b      	muls	r3, r1
10001d86:	b410      	push	{r4}
10001d88:	0c04      	lsrs	r4, r0, #16
10001d8a:	4361      	muls	r1, r4
10001d8c:	b292      	uxth	r2, r2
10001d8e:	b280      	uxth	r0, r0
10001d90:	4350      	muls	r0, r2
10001d92:	4362      	muls	r2, r4
10001d94:	041c      	lsls	r4, r3, #16
10001d96:	0c1b      	lsrs	r3, r3, #16
10001d98:	1900      	adds	r0, r0, r4
10001d9a:	bc10      	pop	{r4}
10001d9c:	4159      	adcs	r1, r3
10001d9e:	0413      	lsls	r3, r2, #16
10001da0:	0c12      	lsrs	r2, r2, #16
10001da2:	18c0      	adds	r0, r0, r3
10001da4:	4151      	adcs	r1, r2
10001da6:	4461      	add	r1, ip
10001da8:	4770      	bx	lr
	...

10001dac <__aeabi_float_init>:
10001dac:	2313      	movs	r3, #19
10001dae:	b510      	push	{r4, lr}
10001db0:	4812      	ldr	r0, [pc, #72]	; (10001dfc <__aeabi_float_init+0x50>)
10001db2:	781c      	ldrb	r4, [r3, #0]
10001db4:	f7ff ff24 	bl	10001c00 <rom_data_lookup>
10001db8:	0001      	movs	r1, r0
10001dba:	2c01      	cmp	r4, #1
10001dbc:	d00a      	beq.n	10001dd4 <__aeabi_float_init+0x28>
10001dbe:	dd03      	ble.n	10001dc8 <__aeabi_float_init+0x1c>
10001dc0:	2280      	movs	r2, #128	; 0x80
10001dc2:	480f      	ldr	r0, [pc, #60]	; (10001e00 <__aeabi_float_init+0x54>)
10001dc4:	f000 f850 	bl	10001e68 <__wrap___aeabi_memcpy>
10001dc8:	480e      	ldr	r0, [pc, #56]	; (10001e04 <__aeabi_float_init+0x58>)
10001dca:	f7ff ff11 	bl	10001bf0 <rom_func_lookup>
10001dce:	4b0e      	ldr	r3, [pc, #56]	; (10001e08 <__aeabi_float_init+0x5c>)
10001dd0:	6018      	str	r0, [r3, #0]
10001dd2:	bd10      	pop	{r4, pc}
10001dd4:	4c0a      	ldr	r4, [pc, #40]	; (10001e00 <__aeabi_float_init+0x54>)
10001dd6:	2254      	movs	r2, #84	; 0x54
10001dd8:	0020      	movs	r0, r4
10001dda:	f000 f845 	bl	10001e68 <__wrap___aeabi_memcpy>
10001dde:	4b0b      	ldr	r3, [pc, #44]	; (10001e0c <__aeabi_float_init+0x60>)
10001de0:	6563      	str	r3, [r4, #84]	; 0x54
10001de2:	65a3      	str	r3, [r4, #88]	; 0x58
10001de4:	65e3      	str	r3, [r4, #92]	; 0x5c
10001de6:	6623      	str	r3, [r4, #96]	; 0x60
10001de8:	6663      	str	r3, [r4, #100]	; 0x64
10001dea:	66a3      	str	r3, [r4, #104]	; 0x68
10001dec:	66e3      	str	r3, [r4, #108]	; 0x6c
10001dee:	6723      	str	r3, [r4, #112]	; 0x70
10001df0:	6763      	str	r3, [r4, #116]	; 0x74
10001df2:	67a3      	str	r3, [r4, #120]	; 0x78
10001df4:	67e3      	str	r3, [r4, #124]	; 0x7c
10001df6:	6223      	str	r3, [r4, #32]
10001df8:	61e3      	str	r3, [r4, #28]
10001dfa:	e7e5      	b.n	10001dc8 <__aeabi_float_init+0x1c>
10001dfc:	00004653 	.word	0x00004653
10001e00:	2000174c 	.word	0x2000174c
10001e04:	0000334c 	.word	0x0000334c
10001e08:	2000184c 	.word	0x2000184c
10001e0c:	10001e11 	.word	0x10001e11

10001e10 <float_table_shim_on_use_helper>:
10001e10:	b507      	push	{r0, r1, r2, lr}
10001e12:	4660      	mov	r0, ip
10001e14:	8801      	ldrh	r1, [r0, #0]
10001e16:	0a0a      	lsrs	r2, r1, #8
10001e18:	3002      	adds	r0, #2
10001e1a:	2adf      	cmp	r2, #223	; 0xdf
10001e1c:	d1fa      	bne.n	10001e14 <float_table_shim_on_use_helper+0x4>
10001e1e:	b2c9      	uxtb	r1, r1
10001e20:	0882      	lsrs	r2, r0, #2
10001e22:	d304      	bcc.n	10001e2e <float_table_shim_on_use_helper+0x1e>
10001e24:	8802      	ldrh	r2, [r0, #0]
10001e26:	8840      	ldrh	r0, [r0, #2]
10001e28:	0400      	lsls	r0, r0, #16
10001e2a:	4310      	orrs	r0, r2
10001e2c:	e000      	b.n	10001e30 <float_table_shim_on_use_helper+0x20>
10001e2e:	6800      	ldr	r0, [r0, #0]
10001e30:	4a01      	ldr	r2, [pc, #4]	; (10001e38 <float_table_shim_on_use_helper+0x28>)
10001e32:	5050      	str	r0, [r2, r1]
10001e34:	9003      	str	r0, [sp, #12]
10001e36:	bd07      	pop	{r0, r1, r2, pc}
10001e38:	2000174c 	.word	0x2000174c

10001e3c <__wrap_malloc>:
10001e3c:	b510      	push	{r4, lr}
10001e3e:	f002 f9fb 	bl	10004238 <malloc>
10001e42:	bd10      	pop	{r4, pc}

10001e44 <__wrap_calloc>:
10001e44:	b510      	push	{r4, lr}
10001e46:	f002 f9bd 	bl	100041c4 <calloc>
10001e4a:	bd10      	pop	{r4, pc}

10001e4c <__aeabi_mem_init>:
10001e4c:	4801      	ldr	r0, [pc, #4]	; (10001e54 <__aeabi_mem_init+0x8>)
10001e4e:	2104      	movs	r1, #4
10001e50:	4b01      	ldr	r3, [pc, #4]	; (10001e58 <__aeabi_mem_init+0xc>)
10001e52:	4718      	bx	r3
10001e54:	200002b0 	.word	0x200002b0
10001e58:	10001c11 	.word	0x10001c11

10001e5c <__wrap_memset>:
10001e5c:	4b01      	ldr	r3, [pc, #4]	; (10001e64 <__wrap_memset+0x8>)
10001e5e:	681b      	ldr	r3, [r3, #0]
10001e60:	4718      	bx	r3
10001e62:	0000      	.short	0x0000
10001e64:	200002b0 	.word	0x200002b0

10001e68 <__wrap___aeabi_memcpy>:
10001e68:	4b01      	ldr	r3, [pc, #4]	; (10001e70 <__wrap___aeabi_memcpy+0x8>)
10001e6a:	685b      	ldr	r3, [r3, #4]
10001e6c:	4718      	bx	r3
10001e6e:	0000      	.short	0x0000
10001e70:	200002b0 	.word	0x200002b0

10001e74 <stdio_out_chars_crlf.part.0>:
10001e74:	b5f8      	push	{r3, r4, r5, r6, r7, lr}
10001e76:	4647      	mov	r7, r8
10001e78:	46ce      	mov	lr, r9
10001e7a:	000d      	movs	r5, r1
10001e7c:	b580      	push	{r7, lr}
10001e7e:	0016      	movs	r6, r2
10001e80:	0007      	movs	r7, r0
10001e82:	2a00      	cmp	r2, #0
10001e84:	dd20      	ble.n	10001ec8 <stdio_out_chars_crlf.part.0+0x54>
10001e86:	1e4b      	subs	r3, r1, #1
10001e88:	4698      	mov	r8, r3
10001e8a:	4b1a      	ldr	r3, [pc, #104]	; (10001ef4 <stdio_out_chars_crlf.part.0+0x80>)
10001e8c:	2400      	movs	r4, #0
10001e8e:	2000      	movs	r0, #0
10001e90:	4699      	mov	r9, r3
10001e92:	2c00      	cmp	r4, #0
10001e94:	d02b      	beq.n	10001eee <stdio_out_chars_crlf.part.0+0x7a>
10001e96:	4643      	mov	r3, r8
10001e98:	5d1b      	ldrb	r3, [r3, r4]
10001e9a:	3b0d      	subs	r3, #13
10001e9c:	425a      	negs	r2, r3
10001e9e:	4153      	adcs	r3, r2
10001ea0:	b2db      	uxtb	r3, r3
10001ea2:	5d2a      	ldrb	r2, [r5, r4]
10001ea4:	2a0a      	cmp	r2, #10
10001ea6:	d013      	beq.n	10001ed0 <stdio_out_chars_crlf.part.0+0x5c>
10001ea8:	3401      	adds	r4, #1
10001eaa:	42a6      	cmp	r6, r4
10001eac:	dcf1      	bgt.n	10001e92 <stdio_out_chars_crlf.part.0+0x1e>
10001eae:	4286      	cmp	r6, r0
10001eb0:	dd03      	ble.n	10001eba <stdio_out_chars_crlf.part.0+0x46>
10001eb2:	1a31      	subs	r1, r6, r0
10001eb4:	683b      	ldr	r3, [r7, #0]
10001eb6:	1828      	adds	r0, r5, r0
10001eb8:	4798      	blx	r3
10001eba:	19ad      	adds	r5, r5, r6
10001ebc:	3d01      	subs	r5, #1
10001ebe:	782b      	ldrb	r3, [r5, #0]
10001ec0:	3b0d      	subs	r3, #13
10001ec2:	425a      	negs	r2, r3
10001ec4:	4153      	adcs	r3, r2
10001ec6:	743b      	strb	r3, [r7, #16]
10001ec8:	bc0c      	pop	{r2, r3}
10001eca:	4690      	mov	r8, r2
10001ecc:	4699      	mov	r9, r3
10001ece:	bdf8      	pop	{r3, r4, r5, r6, r7, pc}
10001ed0:	2b00      	cmp	r3, #0
10001ed2:	d1e9      	bne.n	10001ea8 <stdio_out_chars_crlf.part.0+0x34>
10001ed4:	42a0      	cmp	r0, r4
10001ed6:	da03      	bge.n	10001ee0 <stdio_out_chars_crlf.part.0+0x6c>
10001ed8:	1a21      	subs	r1, r4, r0
10001eda:	683b      	ldr	r3, [r7, #0]
10001edc:	1828      	adds	r0, r5, r0
10001ede:	4798      	blx	r3
10001ee0:	4648      	mov	r0, r9
10001ee2:	2102      	movs	r1, #2
10001ee4:	683b      	ldr	r3, [r7, #0]
10001ee6:	3401      	adds	r4, #1
10001ee8:	4798      	blx	r3
10001eea:	0020      	movs	r0, r4
10001eec:	e7dd      	b.n	10001eaa <stdio_out_chars_crlf.part.0+0x36>
10001eee:	7c3b      	ldrb	r3, [r7, #16]
10001ef0:	e7d7      	b.n	10001ea2 <stdio_out_chars_crlf.part.0+0x2e>
10001ef2:	46c0      	nop			; (mov r8, r8)
10001ef4:	10004c34 	.word	0x10004c34

10001ef8 <stdio_put_string>:
10001ef8:	b5f0      	push	{r4, r5, r6, r7, lr}
10001efa:	4657      	mov	r7, sl
10001efc:	4645      	mov	r5, r8
10001efe:	46de      	mov	lr, fp
10001f00:	464e      	mov	r6, r9
10001f02:	23d0      	movs	r3, #208	; 0xd0
10001f04:	b5e0      	push	{r5, r6, r7, lr}
10001f06:	061b      	lsls	r3, r3, #24
10001f08:	681c      	ldr	r4, [r3, #0]
10001f0a:	4b37      	ldr	r3, [pc, #220]	; (10001fe8 <stdio_put_string+0xf0>)
10001f0c:	b083      	sub	sp, #12
10001f0e:	0007      	movs	r7, r0
10001f10:	000d      	movs	r5, r1
10001f12:	0018      	movs	r0, r3
10001f14:	a901      	add	r1, sp, #4
10001f16:	4690      	mov	r8, r2
10001f18:	469a      	mov	sl, r3
10001f1a:	f002 fded 	bl	10004af8 <__mutex_try_enter_veneer>
10001f1e:	4681      	mov	r9, r0
10001f20:	2800      	cmp	r0, #0
10001f22:	d107      	bne.n	10001f34 <stdio_put_string+0x3c>
10001f24:	9b01      	ldr	r3, [sp, #4]
10001f26:	429c      	cmp	r4, r3
10001f28:	d004      	beq.n	10001f34 <stdio_put_string+0x3c>
10001f2a:	4650      	mov	r0, sl
10001f2c:	f002 fdf4 	bl	10004b18 <__mutex_enter_blocking_veneer>
10001f30:	2301      	movs	r3, #1
10001f32:	4699      	mov	r9, r3
10001f34:	1c6b      	adds	r3, r5, #1
10001f36:	d103      	bne.n	10001f40 <stdio_put_string+0x48>
10001f38:	0038      	movs	r0, r7
10001f3a:	f002 fc69 	bl	10004810 <strlen>
10001f3e:	0005      	movs	r5, r0
10001f40:	4b2a      	ldr	r3, [pc, #168]	; (10001fec <stdio_put_string+0xf4>)
10001f42:	681c      	ldr	r4, [r3, #0]
10001f44:	2c00      	cmp	r4, #0
10001f46:	d02f      	beq.n	10001fa8 <stdio_put_string+0xb0>
10001f48:	230a      	movs	r3, #10
10001f4a:	4e29      	ldr	r6, [pc, #164]	; (10001ff0 <stdio_put_string+0xf8>)
10001f4c:	469b      	mov	fp, r3
10001f4e:	e002      	b.n	10001f56 <stdio_put_string+0x5e>
10001f50:	68e4      	ldr	r4, [r4, #12]
10001f52:	2c00      	cmp	r4, #0
10001f54:	d028      	beq.n	10001fa8 <stdio_put_string+0xb0>
10001f56:	6822      	ldr	r2, [r4, #0]
10001f58:	2a00      	cmp	r2, #0
10001f5a:	d0f9      	beq.n	10001f50 <stdio_put_string+0x58>
10001f5c:	6833      	ldr	r3, [r6, #0]
10001f5e:	2b00      	cmp	r3, #0
10001f60:	d001      	beq.n	10001f66 <stdio_put_string+0x6e>
10001f62:	42a3      	cmp	r3, r4
10001f64:	d1f4      	bne.n	10001f50 <stdio_put_string+0x58>
10001f66:	7c63      	ldrb	r3, [r4, #17]
10001f68:	2b00      	cmp	r3, #0
10001f6a:	d02a      	beq.n	10001fc2 <stdio_put_string+0xca>
10001f6c:	002a      	movs	r2, r5
10001f6e:	0039      	movs	r1, r7
10001f70:	0020      	movs	r0, r4
10001f72:	f7ff ff7f 	bl	10001e74 <stdio_out_chars_crlf.part.0>
10001f76:	4643      	mov	r3, r8
10001f78:	2b00      	cmp	r3, #0
10001f7a:	d0e9      	beq.n	10001f50 <stdio_put_string+0x58>
10001f7c:	466b      	mov	r3, sp
10001f7e:	465a      	mov	r2, fp
10001f80:	711a      	strb	r2, [r3, #4]
10001f82:	7c63      	ldrb	r3, [r4, #17]
10001f84:	2b00      	cmp	r3, #0
10001f86:	d020      	beq.n	10001fca <stdio_put_string+0xd2>
10001f88:	7c23      	ldrb	r3, [r4, #16]
10001f8a:	2b00      	cmp	r3, #0
10001f8c:	d026      	beq.n	10001fdc <stdio_put_string+0xe4>
10001f8e:	2101      	movs	r1, #1
10001f90:	6823      	ldr	r3, [r4, #0]
10001f92:	a801      	add	r0, sp, #4
10001f94:	4798      	blx	r3
10001f96:	466b      	mov	r3, sp
10001f98:	791b      	ldrb	r3, [r3, #4]
10001f9a:	3b0d      	subs	r3, #13
10001f9c:	425a      	negs	r2, r3
10001f9e:	4153      	adcs	r3, r2
10001fa0:	7423      	strb	r3, [r4, #16]
10001fa2:	68e4      	ldr	r4, [r4, #12]
10001fa4:	2c00      	cmp	r4, #0
10001fa6:	d1d6      	bne.n	10001f56 <stdio_put_string+0x5e>
10001fa8:	464b      	mov	r3, r9
10001faa:	2b00      	cmp	r3, #0
10001fac:	d112      	bne.n	10001fd4 <stdio_put_string+0xdc>
10001fae:	1e68      	subs	r0, r5, #1
10001fb0:	4185      	sbcs	r5, r0
10001fb2:	b2e8      	uxtb	r0, r5
10001fb4:	b003      	add	sp, #12
10001fb6:	bc3c      	pop	{r2, r3, r4, r5}
10001fb8:	4690      	mov	r8, r2
10001fba:	4699      	mov	r9, r3
10001fbc:	46a2      	mov	sl, r4
10001fbe:	46ab      	mov	fp, r5
10001fc0:	bdf0      	pop	{r4, r5, r6, r7, pc}
10001fc2:	0029      	movs	r1, r5
10001fc4:	0038      	movs	r0, r7
10001fc6:	4790      	blx	r2
10001fc8:	e7d5      	b.n	10001f76 <stdio_put_string+0x7e>
10001fca:	2101      	movs	r1, #1
10001fcc:	6823      	ldr	r3, [r4, #0]
10001fce:	a801      	add	r0, sp, #4
10001fd0:	4798      	blx	r3
10001fd2:	e7bd      	b.n	10001f50 <stdio_put_string+0x58>
10001fd4:	4650      	mov	r0, sl
10001fd6:	f002 fd7f 	bl	10004ad8 <__mutex_exit_veneer>
10001fda:	e7e8      	b.n	10001fae <stdio_put_string+0xb6>
10001fdc:	2102      	movs	r1, #2
10001fde:	4805      	ldr	r0, [pc, #20]	; (10001ff4 <stdio_put_string+0xfc>)
10001fe0:	6823      	ldr	r3, [r4, #0]
10001fe2:	4798      	blx	r3
10001fe4:	e7d7      	b.n	10001f96 <stdio_put_string+0x9e>
10001fe6:	46c0      	nop			; (mov r8, r8)
10001fe8:	20000b38 	.word	0x20000b38
10001fec:	20000f88 	.word	0x20000f88
10001ff0:	20000f8c 	.word	0x20000f8c
10001ff4:	10004c34 	.word	0x10004c34

10001ff8 <__wrap_putchar>:
10001ff8:	b510      	push	{r4, lr}
10001ffa:	b082      	sub	sp, #8
10001ffc:	466b      	mov	r3, sp
10001ffe:	0004      	movs	r4, r0
10002000:	2200      	movs	r2, #0
10002002:	1dd8      	adds	r0, r3, #7
10002004:	2101      	movs	r1, #1
10002006:	7004      	strb	r4, [r0, #0]
10002008:	f7ff ff76 	bl	10001ef8 <stdio_put_string>
1000200c:	0020      	movs	r0, r4
1000200e:	b002      	add	sp, #8
10002010:	bd10      	pop	{r4, pc}
10002012:	46c0      	nop			; (mov r8, r8)

10002014 <__wrap_puts>:
10002014:	b570      	push	{r4, r5, r6, lr}
10002016:	0004      	movs	r4, r0
10002018:	f002 fbfa 	bl	10004810 <strlen>
1000201c:	2201      	movs	r2, #1
1000201e:	0001      	movs	r1, r0
10002020:	0005      	movs	r5, r0
10002022:	0020      	movs	r0, r4
10002024:	f7ff ff68 	bl	10001ef8 <stdio_put_string>
10002028:	4b08      	ldr	r3, [pc, #32]	; (1000204c <__wrap_puts+0x38>)
1000202a:	681c      	ldr	r4, [r3, #0]
1000202c:	2c00      	cmp	r4, #0
1000202e:	d006      	beq.n	1000203e <__wrap_puts+0x2a>
10002030:	6863      	ldr	r3, [r4, #4]
10002032:	2b00      	cmp	r3, #0
10002034:	d005      	beq.n	10002042 <__wrap_puts+0x2e>
10002036:	4798      	blx	r3
10002038:	68e4      	ldr	r4, [r4, #12]
1000203a:	2c00      	cmp	r4, #0
1000203c:	d1f8      	bne.n	10002030 <__wrap_puts+0x1c>
1000203e:	0028      	movs	r0, r5
10002040:	bd70      	pop	{r4, r5, r6, pc}
10002042:	68e4      	ldr	r4, [r4, #12]
10002044:	2c00      	cmp	r4, #0
10002046:	d1f3      	bne.n	10002030 <__wrap_puts+0x1c>
10002048:	e7f9      	b.n	1000203e <__wrap_puts+0x2a>
1000204a:	46c0      	nop			; (mov r8, r8)
1000204c:	20000f88 	.word	0x20000f88

10002050 <stdio_set_driver_enabled>:
10002050:	4a0d      	ldr	r2, [pc, #52]	; (10002088 <stdio_set_driver_enabled+0x38>)
10002052:	6813      	ldr	r3, [r2, #0]
10002054:	2b00      	cmp	r3, #0
10002056:	d013      	beq.n	10002080 <stdio_set_driver_enabled+0x30>
10002058:	4283      	cmp	r3, r0
1000205a:	d102      	bne.n	10002062 <stdio_set_driver_enabled+0x12>
1000205c:	e009      	b.n	10002072 <stdio_set_driver_enabled+0x22>
1000205e:	4298      	cmp	r0, r3
10002060:	d008      	beq.n	10002074 <stdio_set_driver_enabled+0x24>
10002062:	001a      	movs	r2, r3
10002064:	68db      	ldr	r3, [r3, #12]
10002066:	2b00      	cmp	r3, #0
10002068:	d1f9      	bne.n	1000205e <stdio_set_driver_enabled+0xe>
1000206a:	2900      	cmp	r1, #0
1000206c:	d000      	beq.n	10002070 <stdio_set_driver_enabled+0x20>
1000206e:	60d0      	str	r0, [r2, #12]
10002070:	4770      	bx	lr
10002072:	001a      	movs	r2, r3
10002074:	2900      	cmp	r1, #0
10002076:	d1fb      	bne.n	10002070 <stdio_set_driver_enabled+0x20>
10002078:	68db      	ldr	r3, [r3, #12]
1000207a:	60d3      	str	r3, [r2, #12]
1000207c:	60c1      	str	r1, [r0, #12]
1000207e:	e7f7      	b.n	10002070 <stdio_set_driver_enabled+0x20>
10002080:	2900      	cmp	r1, #0
10002082:	d0f5      	beq.n	10002070 <stdio_set_driver_enabled+0x20>
10002084:	6010      	str	r0, [r2, #0]
10002086:	e7f3      	b.n	10002070 <stdio_set_driver_enabled+0x20>
10002088:	20000f88 	.word	0x20000f88

1000208c <stdio_init_all>:
1000208c:	b510      	push	{r4, lr}
1000208e:	f000 f8c5 	bl	1000221c <stdio_usb_init>
10002092:	bd10      	pop	{r4, pc}

10002094 <stdio_usb_in_chars>:
10002094:	b570      	push	{r4, r5, r6, lr}
10002096:	4c18      	ldr	r4, [pc, #96]	; (100020f8 <stdio_usb_in_chars+0x64>)
10002098:	b082      	sub	sp, #8
1000209a:	0006      	movs	r6, r0
1000209c:	000d      	movs	r5, r1
1000209e:	0020      	movs	r0, r4
100020a0:	a901      	add	r1, sp, #4
100020a2:	f002 fd29 	bl	10004af8 <__mutex_try_enter_veneer>
100020a6:	2800      	cmp	r0, #0
100020a8:	d108      	bne.n	100020bc <stdio_usb_in_chars+0x28>
100020aa:	23d0      	movs	r3, #208	; 0xd0
100020ac:	061b      	lsls	r3, r3, #24
100020ae:	681b      	ldr	r3, [r3, #0]
100020b0:	9a01      	ldr	r2, [sp, #4]
100020b2:	429a      	cmp	r2, r3
100020b4:	d01c      	beq.n	100020f0 <stdio_usb_in_chars+0x5c>
100020b6:	0020      	movs	r0, r4
100020b8:	f002 fd2e 	bl	10004b18 <__mutex_enter_blocking_veneer>
100020bc:	2000      	movs	r0, #0
100020be:	f001 fb9d 	bl	100037fc <tud_cdc_n_connected>
100020c2:	2800      	cmp	r0, #0
100020c4:	d107      	bne.n	100020d6 <stdio_usb_in_chars+0x42>
100020c6:	2503      	movs	r5, #3
100020c8:	426d      	negs	r5, r5
100020ca:	0020      	movs	r0, r4
100020cc:	f002 fd04 	bl	10004ad8 <__mutex_exit_veneer>
100020d0:	0028      	movs	r0, r5
100020d2:	b002      	add	sp, #8
100020d4:	bd70      	pop	{r4, r5, r6, pc}
100020d6:	2000      	movs	r0, #0
100020d8:	f001 fbaa 	bl	10003830 <tud_cdc_n_available>
100020dc:	2800      	cmp	r0, #0
100020de:	d0f2      	beq.n	100020c6 <stdio_usb_in_chars+0x32>
100020e0:	002a      	movs	r2, r5
100020e2:	0031      	movs	r1, r6
100020e4:	2000      	movs	r0, #0
100020e6:	f001 fbb3 	bl	10003850 <tud_cdc_n_read>
100020ea:	1e05      	subs	r5, r0, #0
100020ec:	d0eb      	beq.n	100020c6 <stdio_usb_in_chars+0x32>
100020ee:	e7ec      	b.n	100020ca <stdio_usb_in_chars+0x36>
100020f0:	2503      	movs	r5, #3
100020f2:	426d      	negs	r5, r5
100020f4:	e7ec      	b.n	100020d0 <stdio_usb_in_chars+0x3c>
100020f6:	46c0      	nop			; (mov r8, r8)
100020f8:	2000162c 	.word	0x2000162c

100020fc <stdio_usb_out_chars>:
100020fc:	b5f0      	push	{r4, r5, r6, r7, lr}
100020fe:	464f      	mov	r7, r9
10002100:	46d6      	mov	lr, sl
10002102:	4646      	mov	r6, r8
10002104:	b5c0      	push	{r6, r7, lr}
10002106:	4b35      	ldr	r3, [pc, #212]	; (100021dc <stdio_usb_out_chars+0xe0>)
10002108:	b082      	sub	sp, #8
1000210a:	0007      	movs	r7, r0
1000210c:	000d      	movs	r5, r1
1000210e:	0018      	movs	r0, r3
10002110:	a901      	add	r1, sp, #4
10002112:	4699      	mov	r9, r3
10002114:	f002 fcf0 	bl	10004af8 <__mutex_try_enter_veneer>
10002118:	2800      	cmp	r0, #0
1000211a:	d108      	bne.n	1000212e <stdio_usb_out_chars+0x32>
1000211c:	23d0      	movs	r3, #208	; 0xd0
1000211e:	061b      	lsls	r3, r3, #24
10002120:	681b      	ldr	r3, [r3, #0]
10002122:	9a01      	ldr	r2, [sp, #4]
10002124:	429a      	cmp	r2, r3
10002126:	d052      	beq.n	100021ce <stdio_usb_out_chars+0xd2>
10002128:	4648      	mov	r0, r9
1000212a:	f002 fcf5 	bl	10004b18 <__mutex_enter_blocking_veneer>
1000212e:	2000      	movs	r0, #0
10002130:	f001 fb64 	bl	100037fc <tud_cdc_n_connected>
10002134:	2800      	cmp	r0, #0
10002136:	d042      	beq.n	100021be <stdio_usb_out_chars+0xc2>
10002138:	2400      	movs	r4, #0
1000213a:	2d00      	cmp	r5, #0
1000213c:	dd44      	ble.n	100021c8 <stdio_usb_out_chars+0xcc>
1000213e:	4b28      	ldr	r3, [pc, #160]	; (100021e0 <stdio_usb_out_chars+0xe4>)
10002140:	469a      	mov	sl, r3
10002142:	4698      	mov	r8, r3
10002144:	e011      	b.n	1000216a <stdio_usb_out_chars+0x6e>
10002146:	1939      	adds	r1, r7, r4
10002148:	2000      	movs	r0, #0
1000214a:	f001 fc0d 	bl	10003968 <tud_cdc_n_write>
1000214e:	0006      	movs	r6, r0
10002150:	f000 fcc8 	bl	10002ae4 <tud_task>
10002154:	2000      	movs	r0, #0
10002156:	f001 fbb5 	bl	100038c4 <tud_cdc_n_write_flush>
1000215a:	f7fe fe0b 	bl	10000d74 <time_us_64>
1000215e:	4643      	mov	r3, r8
10002160:	6018      	str	r0, [r3, #0]
10002162:	6059      	str	r1, [r3, #4]
10002164:	19a4      	adds	r4, r4, r6
10002166:	42ac      	cmp	r4, r5
10002168:	da2e      	bge.n	100021c8 <stdio_usb_out_chars+0xcc>
1000216a:	2000      	movs	r0, #0
1000216c:	f001 fc18 	bl	100039a0 <tud_cdc_n_write_available>
10002170:	1b2e      	subs	r6, r5, r4
10002172:	0002      	movs	r2, r0
10002174:	42b0      	cmp	r0, r6
10002176:	dd00      	ble.n	1000217a <stdio_usb_out_chars+0x7e>
10002178:	0032      	movs	r2, r6
1000217a:	2a00      	cmp	r2, #0
1000217c:	d1e3      	bne.n	10002146 <stdio_usb_out_chars+0x4a>
1000217e:	f000 fcb1 	bl	10002ae4 <tud_task>
10002182:	2000      	movs	r0, #0
10002184:	f001 fb9e 	bl	100038c4 <tud_cdc_n_write_flush>
10002188:	2000      	movs	r0, #0
1000218a:	f001 fb37 	bl	100037fc <tud_cdc_n_connected>
1000218e:	2800      	cmp	r0, #0
10002190:	d01a      	beq.n	100021c8 <stdio_usb_out_chars+0xcc>
10002192:	2000      	movs	r0, #0
10002194:	f001 fc04 	bl	100039a0 <tud_cdc_n_write_available>
10002198:	2800      	cmp	r0, #0
1000219a:	d1e4      	bne.n	10002166 <stdio_usb_out_chars+0x6a>
1000219c:	f7fe fdea 	bl	10000d74 <time_us_64>
100021a0:	4653      	mov	r3, sl
100021a2:	000e      	movs	r6, r1
100021a4:	681a      	ldr	r2, [r3, #0]
100021a6:	685b      	ldr	r3, [r3, #4]
100021a8:	2100      	movs	r1, #0
100021aa:	4684      	mov	ip, r0
100021ac:	480d      	ldr	r0, [pc, #52]	; (100021e4 <stdio_usb_out_chars+0xe8>)
100021ae:	1812      	adds	r2, r2, r0
100021b0:	414b      	adcs	r3, r1
100021b2:	429e      	cmp	r6, r3
100021b4:	d808      	bhi.n	100021c8 <stdio_usb_out_chars+0xcc>
100021b6:	d1d6      	bne.n	10002166 <stdio_usb_out_chars+0x6a>
100021b8:	4594      	cmp	ip, r2
100021ba:	d9d4      	bls.n	10002166 <stdio_usb_out_chars+0x6a>
100021bc:	e004      	b.n	100021c8 <stdio_usb_out_chars+0xcc>
100021be:	2000      	movs	r0, #0
100021c0:	2100      	movs	r1, #0
100021c2:	4b07      	ldr	r3, [pc, #28]	; (100021e0 <stdio_usb_out_chars+0xe4>)
100021c4:	6018      	str	r0, [r3, #0]
100021c6:	6059      	str	r1, [r3, #4]
100021c8:	4648      	mov	r0, r9
100021ca:	f002 fc85 	bl	10004ad8 <__mutex_exit_veneer>
100021ce:	b002      	add	sp, #8
100021d0:	bc1c      	pop	{r2, r3, r4}
100021d2:	4690      	mov	r8, r2
100021d4:	4699      	mov	r9, r3
100021d6:	46a2      	mov	sl, r4
100021d8:	bdf0      	pop	{r4, r5, r6, r7, pc}
100021da:	46c0      	nop			; (mov r8, r8)
100021dc:	2000162c 	.word	0x2000162c
100021e0:	20000b58 	.word	0x20000b58
100021e4:	0007a120 	.word	0x0007a120

100021e8 <timer_task>:
100021e8:	201f      	movs	r0, #31
100021ea:	b510      	push	{r4, lr}
100021ec:	f7ff fb42 	bl	10001874 <irq_set_pending>
100021f0:	20fa      	movs	r0, #250	; 0xfa
100021f2:	2100      	movs	r1, #0
100021f4:	0080      	lsls	r0, r0, #2
100021f6:	bd10      	pop	{r4, pc}

100021f8 <low_priority_worker_irq>:
100021f8:	b510      	push	{r4, lr}
100021fa:	4c07      	ldr	r4, [pc, #28]	; (10002218 <low_priority_worker_irq+0x20>)
100021fc:	2100      	movs	r1, #0
100021fe:	0020      	movs	r0, r4
10002200:	f002 fc7a 	bl	10004af8 <__mutex_try_enter_veneer>
10002204:	2800      	cmp	r0, #0
10002206:	d100      	bne.n	1000220a <low_priority_worker_irq+0x12>
10002208:	bd10      	pop	{r4, pc}
1000220a:	f000 fc6b 	bl	10002ae4 <tud_task>
1000220e:	0020      	movs	r0, r4
10002210:	f002 fc62 	bl	10004ad8 <__mutex_exit_veneer>
10002214:	e7f8      	b.n	10002208 <low_priority_worker_irq+0x10>
10002216:	46c0      	nop			; (mov r8, r8)
10002218:	2000162c 	.word	0x2000162c

1000221c <stdio_usb_init>:
1000221c:	b570      	push	{r4, r5, r6, lr}
1000221e:	4b1e      	ldr	r3, [pc, #120]	; (10002298 <stdio_usb_init+0x7c>)
10002220:	b084      	sub	sp, #16
10002222:	781b      	ldrb	r3, [r3, #0]
10002224:	f001 fdc0 	bl	10003da8 <tusb_init>
10002228:	201f      	movs	r0, #31
1000222a:	491c      	ldr	r1, [pc, #112]	; (1000229c <stdio_usb_init+0x80>)
1000222c:	f7ff fb32 	bl	10001894 <irq_set_exclusive_handler>
10002230:	2101      	movs	r1, #1
10002232:	201f      	movs	r0, #31
10002234:	f7ff fb0c 	bl	10001850 <irq_set_enabled>
10002238:	4819      	ldr	r0, [pc, #100]	; (100022a0 <stdio_usb_init+0x84>)
1000223a:	f7fe fe85 	bl	10000f48 <mutex_init>
1000223e:	f7fe fba1 	bl	10000984 <alarm_pool_get_default>
10002242:	0006      	movs	r6, r0
10002244:	f7fe fd96 	bl	10000d74 <time_us_64>
10002248:	22fa      	movs	r2, #250	; 0xfa
1000224a:	0004      	movs	r4, r0
1000224c:	000d      	movs	r5, r1
1000224e:	2300      	movs	r3, #0
10002250:	0092      	lsls	r2, r2, #2
10002252:	1912      	adds	r2, r2, r4
10002254:	416b      	adcs	r3, r5
10002256:	4299      	cmp	r1, r3
10002258:	d814      	bhi.n	10002284 <stdio_usb_init+0x68>
1000225a:	d011      	beq.n	10002280 <stdio_usb_init+0x64>
1000225c:	2101      	movs	r1, #1
1000225e:	9102      	str	r1, [sp, #8]
10002260:	2100      	movs	r1, #0
10002262:	9101      	str	r1, [sp, #4]
10002264:	490f      	ldr	r1, [pc, #60]	; (100022a4 <stdio_usb_init+0x88>)
10002266:	0030      	movs	r0, r6
10002268:	9100      	str	r1, [sp, #0]
1000226a:	f7fe fb91 	bl	10000990 <alarm_pool_add_alarm_at>
1000226e:	0004      	movs	r4, r0
10002270:	1e63      	subs	r3, r4, #1
10002272:	419c      	sbcs	r4, r3
10002274:	b2e4      	uxtb	r4, r4
10002276:	2800      	cmp	r0, #0
10002278:	d108      	bne.n	1000228c <stdio_usb_init+0x70>
1000227a:	0020      	movs	r0, r4
1000227c:	b004      	add	sp, #16
1000227e:	bd70      	pop	{r4, r5, r6, pc}
10002280:	4290      	cmp	r0, r2
10002282:	d9eb      	bls.n	1000225c <stdio_usb_init+0x40>
10002284:	2201      	movs	r2, #1
10002286:	4252      	negs	r2, r2
10002288:	17d3      	asrs	r3, r2, #31
1000228a:	e7e7      	b.n	1000225c <stdio_usb_init+0x40>
1000228c:	2101      	movs	r1, #1
1000228e:	4806      	ldr	r0, [pc, #24]	; (100022a8 <stdio_usb_init+0x8c>)
10002290:	f7ff fede 	bl	10002050 <stdio_set_driver_enabled>
10002294:	e7f1      	b.n	1000227a <stdio_usb_init+0x5e>
10002296:	46c0      	nop			; (mov r8, r8)
10002298:	10004e78 	.word	0x10004e78
1000229c:	100021f9 	.word	0x100021f9
100022a0:	2000162c 	.word	0x2000162c
100022a4:	100021e9 	.word	0x100021e9
100022a8:	200002c0 	.word	0x200002c0

100022ac <tud_descriptor_device_cb>:
100022ac:	4800      	ldr	r0, [pc, #0]	; (100022b0 <tud_descriptor_device_cb+0x4>)
100022ae:	4770      	bx	lr
100022b0:	10004cd8 	.word	0x10004cd8

100022b4 <tud_descriptor_configuration_cb>:
100022b4:	4800      	ldr	r0, [pc, #0]	; (100022b8 <tud_descriptor_configuration_cb+0x4>)
100022b6:	4770      	bx	lr
100022b8:	10004c8c 	.word	0x10004c8c

100022bc <tud_descriptor_string_cb>:
100022bc:	b510      	push	{r4, lr}
100022be:	2800      	cmp	r0, #0
100022c0:	d106      	bne.n	100022d0 <tud_descriptor_string_cb+0x14>
100022c2:	4b12      	ldr	r3, [pc, #72]	; (1000230c <tud_descriptor_string_cb+0x50>)
100022c4:	4812      	ldr	r0, [pc, #72]	; (10002310 <tud_descriptor_string_cb+0x54>)
100022c6:	8043      	strh	r3, [r0, #2]
100022c8:	3b06      	subs	r3, #6
100022ca:	3bff      	subs	r3, #255	; 0xff
100022cc:	8003      	strh	r3, [r0, #0]
100022ce:	bd10      	pop	{r4, pc}
100022d0:	2804      	cmp	r0, #4
100022d2:	d818      	bhi.n	10002306 <tud_descriptor_string_cb+0x4a>
100022d4:	4b0f      	ldr	r3, [pc, #60]	; (10002314 <tud_descriptor_string_cb+0x58>)
100022d6:	0080      	lsls	r0, r0, #2
100022d8:	58c4      	ldr	r4, [r0, r3]
100022da:	480d      	ldr	r0, [pc, #52]	; (10002310 <tud_descriptor_string_cb+0x54>)
100022dc:	2300      	movs	r3, #0
100022de:	1c81      	adds	r1, r0, #2
100022e0:	e004      	b.n	100022ec <tud_descriptor_string_cb+0x30>
100022e2:	3301      	adds	r3, #1
100022e4:	800a      	strh	r2, [r1, #0]
100022e6:	3102      	adds	r1, #2
100022e8:	2b13      	cmp	r3, #19
100022ea:	d009      	beq.n	10002300 <tud_descriptor_string_cb+0x44>
100022ec:	5ce2      	ldrb	r2, [r4, r3]
100022ee:	2a00      	cmp	r2, #0
100022f0:	d1f7      	bne.n	100022e2 <tud_descriptor_string_cb+0x26>
100022f2:	22c0      	movs	r2, #192	; 0xc0
100022f4:	3301      	adds	r3, #1
100022f6:	005b      	lsls	r3, r3, #1
100022f8:	0092      	lsls	r2, r2, #2
100022fa:	4313      	orrs	r3, r2
100022fc:	b29b      	uxth	r3, r3
100022fe:	e7e5      	b.n	100022cc <tud_descriptor_string_cb+0x10>
10002300:	23ca      	movs	r3, #202	; 0xca
10002302:	009b      	lsls	r3, r3, #2
10002304:	e7e2      	b.n	100022cc <tud_descriptor_string_cb+0x10>
10002306:	2000      	movs	r0, #0
10002308:	e7e1      	b.n	100022ce <tud_descriptor_string_cb+0x12>
1000230a:	46c0      	nop			; (mov r8, r8)
1000230c:	00000409 	.word	0x00000409
10002310:	20000f60 	.word	0x20000f60
10002314:	10004cec 	.word	0x10004cec

10002318 <dcd_rp2040_irq>:
10002318:	b5f0      	push	{r4, r5, r6, r7, lr}
1000231a:	2398      	movs	r3, #152	; 0x98
1000231c:	4657      	mov	r7, sl
1000231e:	4645      	mov	r5, r8
10002320:	46de      	mov	lr, fp
10002322:	464e      	mov	r6, r9
10002324:	4a41      	ldr	r2, [pc, #260]	; (1000242c <dcd_rp2040_irq+0x114>)
10002326:	b5e0      	push	{r5, r6, r7, lr}
10002328:	58d7      	ldr	r7, [r2, r3]
1000232a:	2480      	movs	r4, #128	; 0x80
1000232c:	003d      	movs	r5, r7
1000232e:	b085      	sub	sp, #20
10002330:	0264      	lsls	r4, r4, #9
10002332:	3b88      	subs	r3, #136	; 0x88
10002334:	4025      	ands	r5, r4
10002336:	9303      	str	r3, [sp, #12]
10002338:	4227      	tst	r7, r4
1000233a:	d014      	beq.n	10002366 <dcd_rp2040_irq+0x4e>
1000233c:	2101      	movs	r1, #1
1000233e:	2039      	movs	r0, #57	; 0x39
10002340:	2200      	movs	r2, #0
10002342:	4b3b      	ldr	r3, [pc, #236]	; (10002430 <dcd_rp2040_irq+0x118>)
10002344:	0025      	movs	r5, r4
10002346:	5419      	strb	r1, [r3, r0]
10002348:	7159      	strb	r1, [r3, #5]
1000234a:	3147      	adds	r1, #71	; 0x47
1000234c:	545a      	strb	r2, [r3, r1]
1000234e:	751a      	strb	r2, [r3, #20]
10002350:	2000      	movs	r0, #0
10002352:	3201      	adds	r2, #1
10002354:	4937      	ldr	r1, [pc, #220]	; (10002434 <dcd_rp2040_irq+0x11c>)
10002356:	f001 f83b 	bl	100033d0 <dcd_event_setup_received>
1000235a:	2280      	movs	r2, #128	; 0x80
1000235c:	4b36      	ldr	r3, [pc, #216]	; (10002438 <dcd_rp2040_irq+0x120>)
1000235e:	0292      	lsls	r2, r2, #10
10002360:	651a      	str	r2, [r3, #80]	; 0x50
10002362:	4b36      	ldr	r3, [pc, #216]	; (1000243c <dcd_rp2040_irq+0x124>)
10002364:	9303      	str	r3, [sp, #12]
10002366:	06fb      	lsls	r3, r7, #27
10002368:	d40c      	bmi.n	10002384 <dcd_rp2040_irq+0x6c>
1000236a:	2380      	movs	r3, #128	; 0x80
1000236c:	015b      	lsls	r3, r3, #5
1000236e:	421f      	tst	r7, r3
10002370:	d13a      	bne.n	100023e8 <dcd_rp2040_irq+0xd0>
10002372:	42bd      	cmp	r5, r7
10002374:	d154      	bne.n	10002420 <dcd_rp2040_irq+0x108>
10002376:	b005      	add	sp, #20
10002378:	bc3c      	pop	{r2, r3, r4, r5}
1000237a:	4690      	mov	r8, r2
1000237c:	4699      	mov	r9, r3
1000237e:	46a2      	mov	sl, r4
10002380:	46ab      	mov	fp, r5
10002382:	bdf0      	pop	{r4, r5, r6, r7, pc}
10002384:	4b29      	ldr	r3, [pc, #164]	; (1000242c <dcd_rp2040_irq+0x114>)
10002386:	6d9a      	ldr	r2, [r3, #88]	; 0x58
10002388:	2a00      	cmp	r2, #0
1000238a:	d028      	beq.n	100023de <dcd_rp2040_irq+0xc6>
1000238c:	469a      	mov	sl, r3
1000238e:	4b2a      	ldr	r3, [pc, #168]	; (10002438 <dcd_rp2040_irq+0x120>)
10002390:	46b9      	mov	r9, r7
10002392:	2600      	movs	r6, #0
10002394:	2501      	movs	r5, #1
10002396:	469b      	mov	fp, r3
10002398:	0017      	movs	r7, r2
1000239a:	e003      	b.n	100023a4 <dcd_rp2040_irq+0x8c>
1000239c:	006d      	lsls	r5, r5, #1
1000239e:	3601      	adds	r6, #1
100023a0:	2e20      	cmp	r6, #32
100023a2:	d01b      	beq.n	100023dc <dcd_rp2040_irq+0xc4>
100023a4:	422f      	tst	r7, r5
100023a6:	d0f9      	beq.n	1000239c <dcd_rp2040_irq+0x84>
100023a8:	4653      	mov	r3, sl
100023aa:	6ddb      	ldr	r3, [r3, #92]	; 0x5c
100023ac:	465b      	mov	r3, fp
100023ae:	2468      	movs	r4, #104	; 0x68
100023b0:	2201      	movs	r2, #1
100023b2:	659d      	str	r5, [r3, #88]	; 0x58
100023b4:	0873      	lsrs	r3, r6, #1
100023b6:	435c      	muls	r4, r3
100023b8:	2334      	movs	r3, #52	; 0x34
100023ba:	4690      	mov	r8, r2
100023bc:	43b2      	bics	r2, r6
100023be:	4353      	muls	r3, r2
100023c0:	18e4      	adds	r4, r4, r3
100023c2:	4b1b      	ldr	r3, [pc, #108]	; (10002430 <dcd_rp2040_irq+0x118>)
100023c4:	469c      	mov	ip, r3
100023c6:	4464      	add	r4, ip
100023c8:	0020      	movs	r0, r4
100023ca:	f000 fa3d 	bl	10002848 <_hw_endpoint_xfer_continue>
100023ce:	2800      	cmp	r0, #0
100023d0:	d11a      	bne.n	10002408 <dcd_rp2040_irq+0xf0>
100023d2:	43af      	bics	r7, r5
100023d4:	3601      	adds	r6, #1
100023d6:	006d      	lsls	r5, r5, #1
100023d8:	2f00      	cmp	r7, #0
100023da:	d1e1      	bne.n	100023a0 <dcd_rp2040_irq+0x88>
100023dc:	464f      	mov	r7, r9
100023de:	2380      	movs	r3, #128	; 0x80
100023e0:	015b      	lsls	r3, r3, #5
100023e2:	9d03      	ldr	r5, [sp, #12]
100023e4:	421f      	tst	r7, r3
100023e6:	d0c4      	beq.n	10002372 <dcd_rp2040_irq+0x5a>
100023e8:	2200      	movs	r2, #0
100023ea:	4915      	ldr	r1, [pc, #84]	; (10002440 <dcd_rp2040_irq+0x128>)
100023ec:	2000      	movs	r0, #0
100023ee:	700a      	strb	r2, [r1, #0]
100023f0:	490e      	ldr	r1, [pc, #56]	; (1000242c <dcd_rp2040_irq+0x114>)
100023f2:	431d      	orrs	r5, r3
100023f4:	600a      	str	r2, [r1, #0]
100023f6:	3201      	adds	r2, #1
100023f8:	2101      	movs	r1, #1
100023fa:	f000 ff79 	bl	100032f0 <dcd_event_bus_signal>
100023fe:	2280      	movs	r2, #128	; 0x80
10002400:	4b0d      	ldr	r3, [pc, #52]	; (10002438 <dcd_rp2040_irq+0x120>)
10002402:	0312      	lsls	r2, r2, #12
10002404:	651a      	str	r2, [r3, #80]	; 0x50
10002406:	e7b4      	b.n	10002372 <dcd_rp2040_irq+0x5a>
10002408:	4643      	mov	r3, r8
1000240a:	69e2      	ldr	r2, [r4, #28]
1000240c:	7921      	ldrb	r1, [r4, #4]
1000240e:	2000      	movs	r0, #0
10002410:	9300      	str	r3, [sp, #0]
10002412:	2300      	movs	r3, #0
10002414:	f001 f804 	bl	10003420 <dcd_event_xfer_complete>
10002418:	0020      	movs	r0, r4
1000241a:	f000 f9e1 	bl	100027e0 <hw_endpoint_reset_transfer>
1000241e:	e7d8      	b.n	100023d2 <dcd_rp2040_irq+0xba>
10002420:	0029      	movs	r1, r5
10002422:	4808      	ldr	r0, [pc, #32]	; (10002444 <dcd_rp2040_irq+0x12c>)
10002424:	4079      	eors	r1, r7
10002426:	f7ff f83f 	bl	100014a8 <panic>
1000242a:	46c0      	nop			; (mov r8, r8)
1000242c:	50110000 	.word	0x50110000
10002430:	20000f94 	.word	0x20000f94
10002434:	50100000 	.word	0x50100000
10002438:	50113000 	.word	0x50113000
1000243c:	00010010 	.word	0x00010010
10002440:	20001646 	.word	0x20001646
10002444:	10004d00 	.word	0x10004d00

10002448 <dcd_int_enable>:
10002448:	b510      	push	{r4, lr}
1000244a:	2101      	movs	r1, #1
1000244c:	2005      	movs	r0, #5
1000244e:	f7ff f9ff 	bl	10001850 <irq_set_enabled>
10002452:	bd10      	pop	{r4, pc}

10002454 <dcd_set_address>:
10002454:	4b09      	ldr	r3, [pc, #36]	; (1000247c <dcd_set_address+0x28>)
10002456:	b510      	push	{r4, lr}
10002458:	2201      	movs	r2, #1
1000245a:	7019      	strb	r1, [r3, #0]
1000245c:	2139      	movs	r1, #57	; 0x39
1000245e:	2300      	movs	r3, #0
10002460:	4807      	ldr	r0, [pc, #28]	; (10002480 <dcd_set_address+0x2c>)
10002462:	5442      	strb	r2, [r0, r1]
10002464:	7142      	strb	r2, [r0, #5]
10002466:	3247      	adds	r2, #71	; 0x47
10002468:	5483      	strb	r3, [r0, r2]
1000246a:	7503      	strb	r3, [r0, #20]
1000246c:	2200      	movs	r2, #0
1000246e:	2100      	movs	r1, #0
10002470:	3034      	adds	r0, #52	; 0x34
10002472:	3301      	adds	r3, #1
10002474:	f000 fa6e 	bl	10002954 <_hw_endpoint_xfer>
10002478:	bd10      	pop	{r4, pc}
1000247a:	46c0      	nop			; (mov r8, r8)
1000247c:	20001646 	.word	0x20001646
10002480:	20000f94 	.word	0x20000f94

10002484 <dcd_connect>:
10002484:	2280      	movs	r2, #128	; 0x80
10002486:	4b02      	ldr	r3, [pc, #8]	; (10002490 <dcd_connect+0xc>)
10002488:	0252      	lsls	r2, r2, #9
1000248a:	64da      	str	r2, [r3, #76]	; 0x4c
1000248c:	4770      	bx	lr
1000248e:	46c0      	nop			; (mov r8, r8)
10002490:	50112000 	.word	0x50112000

10002494 <dcd_init>:
10002494:	b570      	push	{r4, r5, r6, lr}
10002496:	0005      	movs	r5, r0
10002498:	f000 f97a 	bl	10002790 <rp2040_usb_init>
1000249c:	2005      	movs	r0, #5
1000249e:	491f      	ldr	r1, [pc, #124]	; (1000251c <dcd_init+0x88>)
100024a0:	f7ff f9f8 	bl	10001894 <irq_set_exclusive_handler>
100024a4:	22d0      	movs	r2, #208	; 0xd0
100024a6:	4c1e      	ldr	r4, [pc, #120]	; (10002520 <dcd_init+0x8c>)
100024a8:	2100      	movs	r1, #0
100024aa:	0020      	movs	r0, r4
100024ac:	00d2      	lsls	r2, r2, #3
100024ae:	f7ff fcd5 	bl	10001e5c <__wrap_memset>
100024b2:	2300      	movs	r3, #0
100024b4:	4a1b      	ldr	r2, [pc, #108]	; (10002524 <dcd_init+0x90>)
100024b6:	491c      	ldr	r1, [pc, #112]	; (10002528 <dcd_init+0x94>)
100024b8:	7013      	strb	r3, [r2, #0]
100024ba:	4a1c      	ldr	r2, [pc, #112]	; (1000252c <dcd_init+0x98>)
100024bc:	2040      	movs	r0, #64	; 0x40
100024be:	6011      	str	r1, [r2, #0]
100024c0:	2280      	movs	r2, #128	; 0x80
100024c2:	0052      	lsls	r2, r2, #1
100024c4:	8062      	strh	r2, [r4, #2]
100024c6:	80a2      	strh	r2, [r4, #4]
100024c8:	3ad0      	subs	r2, #208	; 0xd0
100024ca:	54a3      	strb	r3, [r4, r2]
100024cc:	4a18      	ldr	r2, [pc, #96]	; (10002530 <dcd_init+0x9c>)
100024ce:	7063      	strb	r3, [r4, #1]
100024d0:	62e0      	str	r0, [r4, #44]	; 0x2c
100024d2:	60e2      	str	r2, [r4, #12]
100024d4:	2635      	movs	r6, #53	; 0x35
100024d6:	6013      	str	r3, [r2, #0]
100024d8:	2201      	movs	r2, #1
100024da:	55a2      	strb	r2, [r4, r6]
100024dc:	364c      	adds	r6, #76	; 0x4c
100024de:	36ff      	adds	r6, #255	; 0xff
100024e0:	8726      	strh	r6, [r4, #56]	; 0x38
100024e2:	2600      	movs	r6, #0
100024e4:	6620      	str	r0, [r4, #96]	; 0x60
100024e6:	3024      	adds	r0, #36	; 0x24
100024e8:	5426      	strb	r6, [r4, r0]
100024ea:	4912      	ldr	r1, [pc, #72]	; (10002534 <dcd_init+0xa0>)
100024ec:	4812      	ldr	r0, [pc, #72]	; (10002538 <dcd_init+0xa4>)
100024ee:	60a3      	str	r3, [r4, #8]
100024f0:	6121      	str	r1, [r4, #16]
100024f2:	7022      	strb	r2, [r4, #0]
100024f4:	86e3      	strh	r3, [r4, #54]	; 0x36
100024f6:	6420      	str	r0, [r4, #64]	; 0x40
100024f8:	6003      	str	r3, [r0, #0]
100024fa:	63e3      	str	r3, [r4, #60]	; 0x3c
100024fc:	3334      	adds	r3, #52	; 0x34
100024fe:	54e2      	strb	r2, [r4, r3]
10002500:	4b0e      	ldr	r3, [pc, #56]	; (1000253c <dcd_init+0xa8>)
10002502:	6461      	str	r1, [r4, #68]	; 0x44
10002504:	641a      	str	r2, [r3, #64]	; 0x40
10002506:	2280      	movs	r2, #128	; 0x80
10002508:	0592      	lsls	r2, r2, #22
1000250a:	64da      	str	r2, [r3, #76]	; 0x4c
1000250c:	2290      	movs	r2, #144	; 0x90
1000250e:	490c      	ldr	r1, [pc, #48]	; (10002540 <dcd_init+0xac>)
10002510:	0028      	movs	r0, r5
10002512:	5099      	str	r1, [r3, r2]
10002514:	f7ff ffb6 	bl	10002484 <dcd_connect>
10002518:	bd70      	pop	{r4, r5, r6, pc}
1000251a:	46c0      	nop			; (mov r8, r8)
1000251c:	10002319 	.word	0x10002319
10002520:	20000f94 	.word	0x20000f94
10002524:	20001646 	.word	0x20001646
10002528:	50100180 	.word	0x50100180
1000252c:	20001618 	.word	0x20001618
10002530:	50100084 	.word	0x50100084
10002534:	50100100 	.word	0x50100100
10002538:	50100080 	.word	0x50100080
1000253c:	50110000 	.word	0x50110000
10002540:	00011010 	.word	0x00011010

10002544 <dcd_edpt0_status_complete>:
10002544:	780b      	ldrb	r3, [r1, #0]
10002546:	065b      	lsls	r3, r3, #25
10002548:	d102      	bne.n	10002550 <dcd_edpt0_status_complete+0xc>
1000254a:	784b      	ldrb	r3, [r1, #1]
1000254c:	2b05      	cmp	r3, #5
1000254e:	d009      	beq.n	10002564 <dcd_edpt0_status_complete+0x20>
10002550:	2101      	movs	r1, #1
10002552:	2039      	movs	r0, #57	; 0x39
10002554:	2200      	movs	r2, #0
10002556:	4b06      	ldr	r3, [pc, #24]	; (10002570 <dcd_edpt0_status_complete+0x2c>)
10002558:	7159      	strb	r1, [r3, #5]
1000255a:	5419      	strb	r1, [r3, r0]
1000255c:	3147      	adds	r1, #71	; 0x47
1000255e:	751a      	strb	r2, [r3, #20]
10002560:	545a      	strb	r2, [r3, r1]
10002562:	4770      	bx	lr
10002564:	4b03      	ldr	r3, [pc, #12]	; (10002574 <dcd_edpt0_status_complete+0x30>)
10002566:	781a      	ldrb	r2, [r3, #0]
10002568:	4b03      	ldr	r3, [pc, #12]	; (10002578 <dcd_edpt0_status_complete+0x34>)
1000256a:	601a      	str	r2, [r3, #0]
1000256c:	e7f0      	b.n	10002550 <dcd_edpt0_status_complete+0xc>
1000256e:	46c0      	nop			; (mov r8, r8)
10002570:	20000f94 	.word	0x20000f94
10002574:	20001646 	.word	0x20001646
10002578:	50110000 	.word	0x50110000

1000257c <dcd_edpt_open>:
1000257c:	000a      	movs	r2, r1
1000257e:	b5f8      	push	{r3, r4, r5, r6, r7, lr}
10002580:	2307      	movs	r3, #7
10002582:	4647      	mov	r7, r8
10002584:	46ce      	mov	lr, r9
10002586:	7954      	ldrb	r4, [r2, #5]
10002588:	7910      	ldrb	r0, [r2, #4]
1000258a:	4023      	ands	r3, r4
1000258c:	78d4      	ldrb	r4, [r2, #3]
1000258e:	021b      	lsls	r3, r3, #8
10002590:	07a4      	lsls	r4, r4, #30
10002592:	4303      	orrs	r3, r0
10002594:	207f      	movs	r0, #127	; 0x7f
10002596:	0fa2      	lsrs	r2, r4, #30
10002598:	2468      	movs	r4, #104	; 0x68
1000259a:	b580      	push	{r7, lr}
1000259c:	7889      	ldrb	r1, [r1, #2]
1000259e:	4694      	mov	ip, r2
100025a0:	4008      	ands	r0, r1
100025a2:	4691      	mov	r9, r2
100025a4:	4344      	muls	r4, r0
100025a6:	2234      	movs	r2, #52	; 0x34
100025a8:	46a0      	mov	r8, r4
100025aa:	09ce      	lsrs	r6, r1, #7
100025ac:	4372      	muls	r2, r6
100025ae:	4d3d      	ldr	r5, [pc, #244]	; (100026a4 <dcd_edpt_open+0x128>)
100025b0:	4442      	add	r2, r8
100025b2:	18aa      	adds	r2, r5, r2
100025b4:	b24f      	sxtb	r7, r1
100025b6:	7111      	strb	r1, [r2, #4]
100025b8:	43f9      	mvns	r1, r7
100025ba:	0fc9      	lsrs	r1, r1, #31
100025bc:	70d1      	strb	r1, [r2, #3]
100025be:	4241      	negs	r1, r0
100025c0:	4141      	adcs	r1, r0
100025c2:	7056      	strb	r6, [r2, #1]
100025c4:	7090      	strb	r0, [r2, #2]
100025c6:	7151      	strb	r1, [r2, #5]
100025c8:	4662      	mov	r2, ip
100025ca:	2a01      	cmp	r2, #1
100025cc:	d05c      	beq.n	10002688 <dcd_edpt_open+0x10c>
100025ce:	2b40      	cmp	r3, #64	; 0x40
100025d0:	d85e      	bhi.n	10002690 <dcd_edpt_open+0x114>
100025d2:	2234      	movs	r2, #52	; 0x34
100025d4:	2168      	movs	r1, #104	; 0x68
100025d6:	4372      	muls	r2, r6
100025d8:	4341      	muls	r1, r0
100025da:	1852      	adds	r2, r2, r1
100025dc:	18aa      	adds	r2, r5, r2
100025de:	0011      	movs	r1, r2
100025e0:	4664      	mov	r4, ip
100025e2:	3130      	adds	r1, #48	; 0x30
100025e4:	700c      	strb	r4, [r1, #0]
100025e6:	62d3      	str	r3, [r2, #44]	; 0x2c
100025e8:	00c1      	lsls	r1, r0, #3
100025ea:	2f00      	cmp	r7, #0
100025ec:	db3c      	blt.n	10002668 <dcd_edpt_open+0xec>
100025ee:	4c2e      	ldr	r4, [pc, #184]	; (100026a8 <dcd_edpt_open+0x12c>)
100025f0:	2700      	movs	r7, #0
100025f2:	46a4      	mov	ip, r4
100025f4:	4461      	add	r1, ip
100025f6:	60d1      	str	r1, [r2, #12]
100025f8:	600f      	str	r7, [r1, #0]
100025fa:	2800      	cmp	r0, #0
100025fc:	d03c      	beq.n	10002678 <dcd_edpt_open+0xfc>
100025fe:	4c2b      	ldr	r4, [pc, #172]	; (100026ac <dcd_edpt_open+0x130>)
10002600:	00c1      	lsls	r1, r0, #3
10002602:	46a4      	mov	ip, r4
10002604:	4461      	add	r1, ip
10002606:	6091      	str	r1, [r2, #8]
10002608:	2468      	movs	r4, #104	; 0x68
1000260a:	2234      	movs	r2, #52	; 0x34
1000260c:	4344      	muls	r4, r0
1000260e:	46a4      	mov	ip, r4
10002610:	4372      	muls	r2, r6
10002612:	4f27      	ldr	r7, [pc, #156]	; (100026b0 <dcd_edpt_open+0x134>)
10002614:	4462      	add	r2, ip
10002616:	6839      	ldr	r1, [r7, #0]
10002618:	18aa      	adds	r2, r5, r2
1000261a:	6111      	str	r1, [r2, #16]
1000261c:	2b40      	cmp	r3, #64	; 0x40
1000261e:	d200      	bcs.n	10002622 <dcd_edpt_open+0xa6>
10002620:	2340      	movs	r3, #64	; 0x40
10002622:	223f      	movs	r2, #63	; 0x3f
10002624:	18cb      	adds	r3, r1, r3
10002626:	4213      	tst	r3, r2
10002628:	d001      	beq.n	1000262e <dcd_edpt_open+0xb2>
1000262a:	4393      	bics	r3, r2
1000262c:	3340      	adds	r3, #64	; 0x40
1000262e:	603b      	str	r3, [r7, #0]
10002630:	4b20      	ldr	r3, [pc, #128]	; (100026b4 <dcd_edpt_open+0x138>)
10002632:	2268      	movs	r2, #104	; 0x68
10002634:	4059      	eors	r1, r3
10002636:	464b      	mov	r3, r9
10002638:	069c      	lsls	r4, r3, #26
1000263a:	2334      	movs	r3, #52	; 0x34
1000263c:	430c      	orrs	r4, r1
1000263e:	21a0      	movs	r1, #160	; 0xa0
10002640:	4373      	muls	r3, r6
10002642:	4342      	muls	r2, r0
10002644:	189b      	adds	r3, r3, r2
10002646:	18eb      	adds	r3, r5, r3
10002648:	689b      	ldr	r3, [r3, #8]
1000264a:	0609      	lsls	r1, r1, #24
1000264c:	430c      	orrs	r4, r1
1000264e:	601c      	str	r4, [r3, #0]
10002650:	2334      	movs	r3, #52	; 0x34
10002652:	435e      	muls	r6, r3
10002654:	3334      	adds	r3, #52	; 0x34
10002656:	4358      	muls	r0, r3
10002658:	3b67      	subs	r3, #103	; 0x67
1000265a:	1830      	adds	r0, r6, r0
1000265c:	542b      	strb	r3, [r5, r0]
1000265e:	2001      	movs	r0, #1
10002660:	bc0c      	pop	{r2, r3}
10002662:	4690      	mov	r8, r2
10002664:	4699      	mov	r9, r3
10002666:	bdf8      	pop	{r3, r4, r5, r6, r7, pc}
10002668:	4c13      	ldr	r4, [pc, #76]	; (100026b8 <dcd_edpt_open+0x13c>)
1000266a:	2700      	movs	r7, #0
1000266c:	46a4      	mov	ip, r4
1000266e:	4461      	add	r1, ip
10002670:	60d1      	str	r1, [r2, #12]
10002672:	600f      	str	r7, [r1, #0]
10002674:	2800      	cmp	r0, #0
10002676:	d10f      	bne.n	10002698 <dcd_edpt_open+0x11c>
10002678:	2334      	movs	r3, #52	; 0x34
1000267a:	2200      	movs	r2, #0
1000267c:	4373      	muls	r3, r6
1000267e:	18eb      	adds	r3, r5, r3
10002680:	609a      	str	r2, [r3, #8]
10002682:	4a0e      	ldr	r2, [pc, #56]	; (100026bc <dcd_edpt_open+0x140>)
10002684:	611a      	str	r2, [r3, #16]
10002686:	e7e3      	b.n	10002650 <dcd_edpt_open+0xd4>
10002688:	2280      	movs	r2, #128	; 0x80
1000268a:	00d2      	lsls	r2, r2, #3
1000268c:	4293      	cmp	r3, r2
1000268e:	d3a0      	bcc.n	100025d2 <dcd_edpt_open+0x56>
10002690:	0019      	movs	r1, r3
10002692:	480b      	ldr	r0, [pc, #44]	; (100026c0 <dcd_edpt_open+0x144>)
10002694:	f7fe ff08 	bl	100014a8 <panic>
10002698:	4c06      	ldr	r4, [pc, #24]	; (100026b4 <dcd_edpt_open+0x138>)
1000269a:	00c1      	lsls	r1, r0, #3
1000269c:	46a4      	mov	ip, r4
1000269e:	4461      	add	r1, ip
100026a0:	6091      	str	r1, [r2, #8]
100026a2:	e7b1      	b.n	10002608 <dcd_edpt_open+0x8c>
100026a4:	20000f94 	.word	0x20000f94
100026a8:	50100084 	.word	0x50100084
100026ac:	50100004 	.word	0x50100004
100026b0:	20001618 	.word	0x20001618
100026b4:	50100000 	.word	0x50100000
100026b8:	50100080 	.word	0x50100080
100026bc:	50100100 	.word	0x50100100
100026c0:	10004d14 	.word	0x10004d14

100026c4 <dcd_edpt_xfer>:
100026c4:	b510      	push	{r4, lr}
100026c6:	000c      	movs	r4, r1
100026c8:	2034      	movs	r0, #52	; 0x34
100026ca:	0011      	movs	r1, r2
100026cc:	001a      	movs	r2, r3
100026ce:	09e3      	lsrs	r3, r4, #7
100026d0:	4358      	muls	r0, r3
100026d2:	237f      	movs	r3, #127	; 0x7f
100026d4:	4023      	ands	r3, r4
100026d6:	2468      	movs	r4, #104	; 0x68
100026d8:	435c      	muls	r4, r3
100026da:	4b04      	ldr	r3, [pc, #16]	; (100026ec <dcd_edpt_xfer+0x28>)
100026dc:	1900      	adds	r0, r0, r4
100026de:	18c0      	adds	r0, r0, r3
100026e0:	2301      	movs	r3, #1
100026e2:	f000 f937 	bl	10002954 <_hw_endpoint_xfer>
100026e6:	2001      	movs	r0, #1
100026e8:	bd10      	pop	{r4, pc}
100026ea:	46c0      	nop			; (mov r8, r8)
100026ec:	20000f94 	.word	0x20000f94

100026f0 <dcd_edpt_stall>:
100026f0:	b570      	push	{r4, r5, r6, lr}
100026f2:	257f      	movs	r5, #127	; 0x7f
100026f4:	2034      	movs	r0, #52	; 0x34
100026f6:	2368      	movs	r3, #104	; 0x68
100026f8:	400d      	ands	r5, r1
100026fa:	09cc      	lsrs	r4, r1, #7
100026fc:	436b      	muls	r3, r5
100026fe:	4360      	muls	r0, r4
10002700:	4e0c      	ldr	r6, [pc, #48]	; (10002734 <dcd_edpt_stall+0x44>)
10002702:	18c0      	adds	r0, r0, r3
10002704:	1830      	adds	r0, r6, r0
10002706:	7883      	ldrb	r3, [r0, #2]
10002708:	2b00      	cmp	r3, #0
1000270a:	d105      	bne.n	10002718 <dcd_edpt_stall+0x28>
1000270c:	7843      	ldrb	r3, [r0, #1]
1000270e:	425a      	negs	r2, r3
10002710:	4153      	adcs	r3, r2
10002712:	4a09      	ldr	r2, [pc, #36]	; (10002738 <dcd_edpt_stall+0x48>)
10002714:	3301      	adds	r3, #1
10002716:	6693      	str	r3, [r2, #104]	; 0x68
10002718:	2280      	movs	r2, #128	; 0x80
1000271a:	4908      	ldr	r1, [pc, #32]	; (1000273c <dcd_edpt_stall+0x4c>)
1000271c:	0112      	lsls	r2, r2, #4
1000271e:	f000 f869 	bl	100027f4 <_hw_endpoint_buffer_control_update32>
10002722:	2134      	movs	r1, #52	; 0x34
10002724:	2301      	movs	r3, #1
10002726:	434c      	muls	r4, r1
10002728:	3134      	adds	r1, #52	; 0x34
1000272a:	434d      	muls	r5, r1
1000272c:	1964      	adds	r4, r4, r5
1000272e:	1934      	adds	r4, r6, r4
10002730:	7523      	strb	r3, [r4, #20]
10002732:	bd70      	pop	{r4, r5, r6, pc}
10002734:	20000f94 	.word	0x20000f94
10002738:	50112000 	.word	0x50112000
1000273c:	fffff7ff 	.word	0xfffff7ff

10002740 <dcd_edpt_clear_stall>:
10002740:	b570      	push	{r4, r5, r6, lr}
10002742:	257f      	movs	r5, #127	; 0x7f
10002744:	2034      	movs	r0, #52	; 0x34
10002746:	2368      	movs	r3, #104	; 0x68
10002748:	400d      	ands	r5, r1
1000274a:	09cc      	lsrs	r4, r1, #7
1000274c:	436b      	muls	r3, r5
1000274e:	4360      	muls	r0, r4
10002750:	4e0c      	ldr	r6, [pc, #48]	; (10002784 <dcd_edpt_clear_stall+0x44>)
10002752:	18c0      	adds	r0, r0, r3
10002754:	1830      	adds	r0, r6, r0
10002756:	7883      	ldrb	r3, [r0, #2]
10002758:	2b00      	cmp	r3, #0
1000275a:	d105      	bne.n	10002768 <dcd_edpt_clear_stall+0x28>
1000275c:	7843      	ldrb	r3, [r0, #1]
1000275e:	425a      	negs	r2, r3
10002760:	4153      	adcs	r3, r2
10002762:	4a09      	ldr	r2, [pc, #36]	; (10002788 <dcd_edpt_clear_stall+0x48>)
10002764:	3301      	adds	r3, #1
10002766:	6693      	str	r3, [r2, #104]	; 0x68
10002768:	2200      	movs	r2, #0
1000276a:	4908      	ldr	r1, [pc, #32]	; (1000278c <dcd_edpt_clear_stall+0x4c>)
1000276c:	f000 f842 	bl	100027f4 <_hw_endpoint_buffer_control_update32>
10002770:	2134      	movs	r1, #52	; 0x34
10002772:	2300      	movs	r3, #0
10002774:	434c      	muls	r4, r1
10002776:	3134      	adds	r1, #52	; 0x34
10002778:	434d      	muls	r5, r1
1000277a:	1964      	adds	r4, r4, r5
1000277c:	1934      	adds	r4, r6, r4
1000277e:	7523      	strb	r3, [r4, #20]
10002780:	bd70      	pop	{r4, r5, r6, pc}
10002782:	46c0      	nop			; (mov r8, r8)
10002784:	20000f94 	.word	0x20000f94
10002788:	50113000 	.word	0x50113000
1000278c:	fffff7ff 	.word	0xfffff7ff

10002790 <rp2040_usb_init>:
10002790:	2280      	movs	r2, #128	; 0x80
10002792:	4b0e      	ldr	r3, [pc, #56]	; (100027cc <rp2040_usb_init+0x3c>)
10002794:	0452      	lsls	r2, r2, #17
10002796:	b510      	push	{r4, lr}
10002798:	601a      	str	r2, [r3, #0]
1000279a:	4b0d      	ldr	r3, [pc, #52]	; (100027d0 <rp2040_usb_init+0x40>)
1000279c:	490d      	ldr	r1, [pc, #52]	; (100027d4 <rp2040_usb_init+0x44>)
1000279e:	601a      	str	r2, [r3, #0]
100027a0:	0010      	movs	r0, r2
100027a2:	688b      	ldr	r3, [r1, #8]
100027a4:	4398      	bics	r0, r3
100027a6:	d1fb      	bne.n	100027a0 <rp2040_usb_init+0x10>
100027a8:	4c0b      	ldr	r4, [pc, #44]	; (100027d8 <rp2040_usb_init+0x48>)
100027aa:	229c      	movs	r2, #156	; 0x9c
100027ac:	2100      	movs	r1, #0
100027ae:	0020      	movs	r0, r4
100027b0:	f7ff fb54 	bl	10001e5c <__wrap_memset>
100027b4:	2280      	movs	r2, #128	; 0x80
100027b6:	2100      	movs	r1, #0
100027b8:	0152      	lsls	r2, r2, #5
100027ba:	4808      	ldr	r0, [pc, #32]	; (100027dc <rp2040_usb_init+0x4c>)
100027bc:	f7ff fb4e 	bl	10001e5c <__wrap_memset>
100027c0:	2309      	movs	r3, #9
100027c2:	6763      	str	r3, [r4, #116]	; 0x74
100027c4:	3303      	adds	r3, #3
100027c6:	67a3      	str	r3, [r4, #120]	; 0x78
100027c8:	bd10      	pop	{r4, pc}
100027ca:	46c0      	nop			; (mov r8, r8)
100027cc:	4000e000 	.word	0x4000e000
100027d0:	4000f000 	.word	0x4000f000
100027d4:	4000c000 	.word	0x4000c000
100027d8:	50110000 	.word	0x50110000
100027dc:	50100000 	.word	0x50100000

100027e0 <hw_endpoint_reset_transfer>:
100027e0:	2300      	movs	r3, #0
100027e2:	2100      	movs	r1, #0
100027e4:	2232      	movs	r2, #50	; 0x32
100027e6:	8283      	strh	r3, [r0, #20]
100027e8:	5481      	strb	r1, [r0, r2]
100027ea:	6183      	str	r3, [r0, #24]
100027ec:	61c3      	str	r3, [r0, #28]
100027ee:	6203      	str	r3, [r0, #32]
100027f0:	6283      	str	r3, [r0, #40]	; 0x28
100027f2:	4770      	bx	lr

100027f4 <_hw_endpoint_buffer_control_update32>:
100027f4:	b510      	push	{r4, lr}
100027f6:	68c3      	ldr	r3, [r0, #12]
100027f8:	2900      	cmp	r1, #0
100027fa:	d001      	beq.n	10002800 <_hw_endpoint_buffer_control_update32+0xc>
100027fc:	681c      	ldr	r4, [r3, #0]
100027fe:	4021      	ands	r1, r4
10002800:	2a00      	cmp	r2, #0
10002802:	d011      	beq.n	10002828 <_hw_endpoint_buffer_control_update32+0x34>
10002804:	2480      	movs	r4, #128	; 0x80
10002806:	00e4      	lsls	r4, r4, #3
10002808:	4311      	orrs	r1, r2
1000280a:	4222      	tst	r2, r4
1000280c:	d00c      	beq.n	10002828 <_hw_endpoint_buffer_control_update32+0x34>
1000280e:	681a      	ldr	r2, [r3, #0]
10002810:	4222      	tst	r2, r4
10002812:	d10b      	bne.n	1000282c <_hw_endpoint_buffer_control_update32+0x38>
10002814:	4a09      	ldr	r2, [pc, #36]	; (1000283c <_hw_endpoint_buffer_control_update32+0x48>)
10002816:	400a      	ands	r2, r1
10002818:	601a      	str	r2, [r3, #0]
1000281a:	e7ff      	b.n	1000281c <_hw_endpoint_buffer_control_update32+0x28>
1000281c:	e7ff      	b.n	1000281e <_hw_endpoint_buffer_control_update32+0x2a>
1000281e:	e7ff      	b.n	10002820 <_hw_endpoint_buffer_control_update32+0x2c>
10002820:	e7ff      	b.n	10002822 <_hw_endpoint_buffer_control_update32+0x2e>
10002822:	e7ff      	b.n	10002824 <_hw_endpoint_buffer_control_update32+0x30>
10002824:	e7ff      	b.n	10002826 <_hw_endpoint_buffer_control_update32+0x32>
10002826:	68c3      	ldr	r3, [r0, #12]
10002828:	6019      	str	r1, [r3, #0]
1000282a:	bd10      	pop	{r4, pc}
1000282c:	7843      	ldrb	r3, [r0, #1]
1000282e:	4a04      	ldr	r2, [pc, #16]	; (10002840 <_hw_endpoint_buffer_control_update32+0x4c>)
10002830:	009b      	lsls	r3, r3, #2
10002832:	7881      	ldrb	r1, [r0, #2]
10002834:	589a      	ldr	r2, [r3, r2]
10002836:	4803      	ldr	r0, [pc, #12]	; (10002844 <_hw_endpoint_buffer_control_update32+0x50>)
10002838:	f7fe fe36 	bl	100014a8 <panic>
1000283c:	fffffbff 	.word	0xfffffbff
10002840:	200002d4 	.word	0x200002d4
10002844:	10004d3c 	.word	0x10004d3c

10002848 <_hw_endpoint_xfer_continue>:
10002848:	b5f8      	push	{r3, r4, r5, r6, r7, lr}
1000284a:	7d46      	ldrb	r6, [r0, #21]
1000284c:	0004      	movs	r4, r0
1000284e:	2e00      	cmp	r6, #0
10002850:	d100      	bne.n	10002854 <_hw_endpoint_xfer_continue+0xc>
10002852:	e068      	b.n	10002926 <_hw_endpoint_xfer_continue+0xde>
10002854:	68c3      	ldr	r3, [r0, #12]
10002856:	78c0      	ldrb	r0, [r0, #3]
10002858:	681d      	ldr	r5, [r3, #0]
1000285a:	05ad      	lsls	r5, r5, #22
1000285c:	0dad      	lsrs	r5, r5, #22
1000285e:	2800      	cmp	r0, #0
10002860:	d143      	bne.n	100028ea <_hw_endpoint_xfer_continue+0xa2>
10002862:	69e3      	ldr	r3, [r4, #28]
10002864:	18e9      	adds	r1, r5, r3
10002866:	61e1      	str	r1, [r4, #28]
10002868:	69a2      	ldr	r2, [r4, #24]
1000286a:	1a55      	subs	r5, r2, r1
1000286c:	2d40      	cmp	r5, #64	; 0x40
1000286e:	d82e      	bhi.n	100028ce <_hw_endpoint_xfer_continue+0x86>
10002870:	186b      	adds	r3, r5, r1
10002872:	1a9b      	subs	r3, r3, r2
10002874:	425f      	negs	r7, r3
10002876:	417b      	adcs	r3, r7
10002878:	2724      	movs	r7, #36	; 0x24
1000287a:	b2db      	uxtb	r3, r3
1000287c:	6225      	str	r5, [r4, #32]
1000287e:	55e3      	strb	r3, [r4, r7]
10002880:	428a      	cmp	r2, r1
10002882:	d34d      	bcc.n	10002920 <_hw_endpoint_xfer_continue+0xd8>
10002884:	d04a      	beq.n	1000291c <_hw_endpoint_xfer_continue+0xd4>
10002886:	2800      	cmp	r0, #0
10002888:	d023      	beq.n	100028d2 <_hw_endpoint_xfer_continue+0x8a>
1000288a:	2280      	movs	r2, #128	; 0x80
1000288c:	00d2      	lsls	r2, r2, #3
1000288e:	432a      	orrs	r2, r5
10002890:	7961      	ldrb	r1, [r4, #5]
10002892:	2900      	cmp	r1, #0
10002894:	d002      	beq.n	1000289c <_hw_endpoint_xfer_continue+0x54>
10002896:	2080      	movs	r0, #128	; 0x80
10002898:	0180      	lsls	r0, r0, #6
1000289a:	4302      	orrs	r2, r0
1000289c:	2001      	movs	r0, #1
1000289e:	4041      	eors	r1, r0
100028a0:	7161      	strb	r1, [r4, #5]
100028a2:	2b00      	cmp	r3, #0
100028a4:	d002      	beq.n	100028ac <_hw_endpoint_xfer_continue+0x64>
100028a6:	2380      	movs	r3, #128	; 0x80
100028a8:	01db      	lsls	r3, r3, #7
100028aa:	431a      	orrs	r2, r3
100028ac:	68e1      	ldr	r1, [r4, #12]
100028ae:	680b      	ldr	r3, [r1, #0]
100028b0:	055b      	lsls	r3, r3, #21
100028b2:	d43d      	bmi.n	10002930 <_hw_endpoint_xfer_continue+0xe8>
100028b4:	4b22      	ldr	r3, [pc, #136]	; (10002940 <_hw_endpoint_xfer_continue+0xf8>)
100028b6:	4013      	ands	r3, r2
100028b8:	600b      	str	r3, [r1, #0]
100028ba:	e7ff      	b.n	100028bc <_hw_endpoint_xfer_continue+0x74>
100028bc:	e7ff      	b.n	100028be <_hw_endpoint_xfer_continue+0x76>
100028be:	e7ff      	b.n	100028c0 <_hw_endpoint_xfer_continue+0x78>
100028c0:	e7ff      	b.n	100028c2 <_hw_endpoint_xfer_continue+0x7a>
100028c2:	e7ff      	b.n	100028c4 <_hw_endpoint_xfer_continue+0x7c>
100028c4:	e7ff      	b.n	100028c6 <_hw_endpoint_xfer_continue+0x7e>
100028c6:	2000      	movs	r0, #0
100028c8:	68e3      	ldr	r3, [r4, #12]
100028ca:	601a      	str	r2, [r3, #0]
100028cc:	bdf8      	pop	{r3, r4, r5, r6, r7, pc}
100028ce:	2540      	movs	r5, #64	; 0x40
100028d0:	e7ce      	b.n	10002870 <_hw_endpoint_xfer_continue+0x28>
100028d2:	6aa3      	ldr	r3, [r4, #40]	; 0x28
100028d4:	002a      	movs	r2, r5
100028d6:	469c      	mov	ip, r3
100028d8:	6920      	ldr	r0, [r4, #16]
100028da:	4461      	add	r1, ip
100028dc:	f7ff fac4 	bl	10001e68 <__wrap___aeabi_memcpy>
100028e0:	2284      	movs	r2, #132	; 0x84
100028e2:	0212      	lsls	r2, r2, #8
100028e4:	5de3      	ldrb	r3, [r4, r7]
100028e6:	432a      	orrs	r2, r5
100028e8:	e7d2      	b.n	10002890 <_hw_endpoint_xfer_continue+0x48>
100028ea:	69e2      	ldr	r2, [r4, #28]
100028ec:	6aa3      	ldr	r3, [r4, #40]	; 0x28
100028ee:	4694      	mov	ip, r2
100028f0:	4463      	add	r3, ip
100028f2:	0018      	movs	r0, r3
100028f4:	6921      	ldr	r1, [r4, #16]
100028f6:	002a      	movs	r2, r5
100028f8:	f7ff fab6 	bl	10001e68 <__wrap___aeabi_memcpy>
100028fc:	69e3      	ldr	r3, [r4, #28]
100028fe:	78e0      	ldrb	r0, [r4, #3]
10002900:	18e9      	adds	r1, r5, r3
10002902:	61e1      	str	r1, [r4, #28]
10002904:	2800      	cmp	r0, #0
10002906:	d0af      	beq.n	10002868 <_hw_endpoint_xfer_continue+0x20>
10002908:	6a23      	ldr	r3, [r4, #32]
1000290a:	429d      	cmp	r5, r3
1000290c:	d2ac      	bcs.n	10002868 <_hw_endpoint_xfer_continue+0x20>
1000290e:	2300      	movs	r3, #0
10002910:	2201      	movs	r2, #1
10002912:	6223      	str	r3, [r4, #32]
10002914:	3324      	adds	r3, #36	; 0x24
10002916:	61a1      	str	r1, [r4, #24]
10002918:	54e2      	strb	r2, [r4, r3]
1000291a:	e7d7      	b.n	100028cc <_hw_endpoint_xfer_continue+0x84>
1000291c:	0030      	movs	r0, r6
1000291e:	e7d5      	b.n	100028cc <_hw_endpoint_xfer_continue+0x84>
10002920:	4808      	ldr	r0, [pc, #32]	; (10002944 <_hw_endpoint_xfer_continue+0xfc>)
10002922:	f7fe fdc1 	bl	100014a8 <panic>
10002926:	7881      	ldrb	r1, [r0, #2]
10002928:	4a07      	ldr	r2, [pc, #28]	; (10002948 <_hw_endpoint_xfer_continue+0x100>)
1000292a:	4808      	ldr	r0, [pc, #32]	; (1000294c <_hw_endpoint_xfer_continue+0x104>)
1000292c:	f7fe fdbc 	bl	100014a8 <panic>
10002930:	7863      	ldrb	r3, [r4, #1]
10002932:	4a05      	ldr	r2, [pc, #20]	; (10002948 <_hw_endpoint_xfer_continue+0x100>)
10002934:	009b      	lsls	r3, r3, #2
10002936:	78a1      	ldrb	r1, [r4, #2]
10002938:	589a      	ldr	r2, [r3, r2]
1000293a:	4805      	ldr	r0, [pc, #20]	; (10002950 <_hw_endpoint_xfer_continue+0x108>)
1000293c:	f7fe fdb4 	bl	100014a8 <panic>
10002940:	fffffbff 	.word	0xfffffbff
10002944:	10004d88 	.word	0x10004d88
10002948:	200002d4 	.word	0x200002d4
1000294c:	10004d5c 	.word	0x10004d5c
10002950:	10004d3c 	.word	0x10004d3c

10002954 <_hw_endpoint_xfer>:
10002954:	b570      	push	{r4, r5, r6, lr}
10002956:	0004      	movs	r4, r0
10002958:	2b00      	cmp	r3, #0
1000295a:	d049      	beq.n	100029f0 <_hw_endpoint_xfer+0x9c>
1000295c:	7d43      	ldrb	r3, [r0, #21]
1000295e:	2b00      	cmp	r3, #0
10002960:	d003      	beq.n	1000296a <_hw_endpoint_xfer+0x16>
10002962:	2300      	movs	r3, #0
10002964:	7503      	strb	r3, [r0, #20]
10002966:	2032      	movs	r0, #50	; 0x32
10002968:	5423      	strb	r3, [r4, r0]
1000296a:	2300      	movs	r3, #0
1000296c:	61a2      	str	r2, [r4, #24]
1000296e:	61e3      	str	r3, [r4, #28]
10002970:	1c15      	adds	r5, r2, #0
10002972:	2a40      	cmp	r2, #64	; 0x40
10002974:	d831      	bhi.n	100029da <_hw_endpoint_xfer+0x86>
10002976:	2301      	movs	r3, #1
10002978:	b2ad      	uxth	r5, r5
1000297a:	1b52      	subs	r2, r2, r5
1000297c:	7563      	strb	r3, [r4, #21]
1000297e:	4253      	negs	r3, r2
10002980:	4153      	adcs	r3, r2
10002982:	2624      	movs	r6, #36	; 0x24
10002984:	2225      	movs	r2, #37	; 0x25
10002986:	2000      	movs	r0, #0
10002988:	b2db      	uxtb	r3, r3
1000298a:	6225      	str	r5, [r4, #32]
1000298c:	62a1      	str	r1, [r4, #40]	; 0x28
1000298e:	55a3      	strb	r3, [r4, r6]
10002990:	54a0      	strb	r0, [r4, r2]
10002992:	78e2      	ldrb	r2, [r4, #3]
10002994:	2a00      	cmp	r2, #0
10002996:	d022      	beq.n	100029de <_hw_endpoint_xfer+0x8a>
10002998:	2280      	movs	r2, #128	; 0x80
1000299a:	00d2      	lsls	r2, r2, #3
1000299c:	432a      	orrs	r2, r5
1000299e:	7961      	ldrb	r1, [r4, #5]
100029a0:	2900      	cmp	r1, #0
100029a2:	d002      	beq.n	100029aa <_hw_endpoint_xfer+0x56>
100029a4:	2080      	movs	r0, #128	; 0x80
100029a6:	0180      	lsls	r0, r0, #6
100029a8:	4302      	orrs	r2, r0
100029aa:	2001      	movs	r0, #1
100029ac:	4041      	eors	r1, r0
100029ae:	7161      	strb	r1, [r4, #5]
100029b0:	2b00      	cmp	r3, #0
100029b2:	d002      	beq.n	100029ba <_hw_endpoint_xfer+0x66>
100029b4:	2380      	movs	r3, #128	; 0x80
100029b6:	01db      	lsls	r3, r3, #7
100029b8:	431a      	orrs	r2, r3
100029ba:	68e1      	ldr	r1, [r4, #12]
100029bc:	680b      	ldr	r3, [r1, #0]
100029be:	055b      	lsls	r3, r3, #21
100029c0:	d419      	bmi.n	100029f6 <_hw_endpoint_xfer+0xa2>
100029c2:	4b11      	ldr	r3, [pc, #68]	; (10002a08 <_hw_endpoint_xfer+0xb4>)
100029c4:	4013      	ands	r3, r2
100029c6:	600b      	str	r3, [r1, #0]
100029c8:	e7ff      	b.n	100029ca <_hw_endpoint_xfer+0x76>
100029ca:	e7ff      	b.n	100029cc <_hw_endpoint_xfer+0x78>
100029cc:	e7ff      	b.n	100029ce <_hw_endpoint_xfer+0x7a>
100029ce:	e7ff      	b.n	100029d0 <_hw_endpoint_xfer+0x7c>
100029d0:	e7ff      	b.n	100029d2 <_hw_endpoint_xfer+0x7e>
100029d2:	e7ff      	b.n	100029d4 <_hw_endpoint_xfer+0x80>
100029d4:	68e3      	ldr	r3, [r4, #12]
100029d6:	601a      	str	r2, [r3, #0]
100029d8:	bd70      	pop	{r4, r5, r6, pc}
100029da:	2540      	movs	r5, #64	; 0x40
100029dc:	e7cb      	b.n	10002976 <_hw_endpoint_xfer+0x22>
100029de:	002a      	movs	r2, r5
100029e0:	6920      	ldr	r0, [r4, #16]
100029e2:	f7ff fa41 	bl	10001e68 <__wrap___aeabi_memcpy>
100029e6:	2284      	movs	r2, #132	; 0x84
100029e8:	0212      	lsls	r2, r2, #8
100029ea:	5da3      	ldrb	r3, [r4, r6]
100029ec:	432a      	orrs	r2, r5
100029ee:	e7d6      	b.n	1000299e <_hw_endpoint_xfer+0x4a>
100029f0:	f7ff ff2a 	bl	10002848 <_hw_endpoint_xfer_continue>
100029f4:	e7f0      	b.n	100029d8 <_hw_endpoint_xfer+0x84>
100029f6:	7863      	ldrb	r3, [r4, #1]
100029f8:	4a04      	ldr	r2, [pc, #16]	; (10002a0c <_hw_endpoint_xfer+0xb8>)
100029fa:	009b      	lsls	r3, r3, #2
100029fc:	78a1      	ldrb	r1, [r4, #2]
100029fe:	589a      	ldr	r2, [r3, r2]
10002a00:	4803      	ldr	r0, [pc, #12]	; (10002a10 <_hw_endpoint_xfer+0xbc>)
10002a02:	f7fe fd51 	bl	100014a8 <panic>
10002a06:	46c0      	nop			; (mov r8, r8)
10002a08:	fffffbff 	.word	0xfffffbff
10002a0c:	200002d4 	.word	0x200002d4
10002a10:	10004d3c 	.word	0x10004d3c

10002a14 <tud_mounted>:
10002a14:	4b02      	ldr	r3, [pc, #8]	; (10002a20 <tud_mounted+0xc>)
10002a16:	7858      	ldrb	r0, [r3, #1]
10002a18:	1e43      	subs	r3, r0, #1
10002a1a:	4198      	sbcs	r0, r3
10002a1c:	b2c0      	uxtb	r0, r0
10002a1e:	4770      	bx	lr
10002a20:	20000ee0 	.word	0x20000ee0

10002a24 <tud_suspended>:
10002a24:	4b02      	ldr	r3, [pc, #8]	; (10002a30 <tud_suspended+0xc>)
10002a26:	7818      	ldrb	r0, [r3, #0]
10002a28:	0740      	lsls	r0, r0, #29
10002a2a:	0fc0      	lsrs	r0, r0, #31
10002a2c:	4770      	bx	lr
10002a2e:	46c0      	nop			; (mov r8, r8)
10002a30:	20000ee0 	.word	0x20000ee0

10002a34 <tud_init>:
10002a34:	b5f8      	push	{r3, r4, r5, r6, r7, lr}
10002a36:	2237      	movs	r2, #55	; 0x37
10002a38:	2100      	movs	r1, #0
10002a3a:	4821      	ldr	r0, [pc, #132]	; (10002ac0 <tud_init+0x8c>)
10002a3c:	f7ff fa0e 	bl	10001e5c <__wrap_memset>
10002a40:	4c20      	ldr	r4, [pc, #128]	; (10002ac4 <tud_init+0x90>)
10002a42:	0020      	movs	r0, r4
10002a44:	f7fe fa80 	bl	10000f48 <mutex_init>
10002a48:	4b1f      	ldr	r3, [pc, #124]	; (10002ac8 <tud_init+0x94>)
10002a4a:	601c      	str	r4, [r3, #0]
10002a4c:	4c1f      	ldr	r4, [pc, #124]	; (10002acc <tud_init+0x98>)
10002a4e:	0020      	movs	r0, r4
10002a50:	3018      	adds	r0, #24
10002a52:	f7fe fa85 	bl	10000f60 <critical_section_init>
10002a56:	0020      	movs	r0, r4
10002a58:	f001 fb9e 	bl	10004198 <tu_fifo_clear>
10002a5c:	4b1c      	ldr	r3, [pc, #112]	; (10002ad0 <tud_init+0x9c>)
10002a5e:	4e1d      	ldr	r6, [pc, #116]	; (10002ad4 <tud_init+0xa0>)
10002a60:	4d1d      	ldr	r5, [pc, #116]	; (10002ad8 <tud_init+0xa4>)
10002a62:	601c      	str	r4, [r3, #0]
10002a64:	2e00      	cmp	r6, #0
10002a66:	d004      	beq.n	10002a72 <tud_init+0x3e>
10002a68:	0028      	movs	r0, r5
10002a6a:	e000      	b.n	10002a6e <tud_init+0x3a>
10002a6c:	bf00      	nop
10002a6e:	4b1b      	ldr	r3, [pc, #108]	; (10002adc <tud_init+0xa8>)
10002a70:	6018      	str	r0, [r3, #0]
10002a72:	2400      	movs	r4, #0
10002a74:	782b      	ldrb	r3, [r5, #0]
10002a76:	2e00      	cmp	r6, #0
10002a78:	d019      	beq.n	10002aae <tud_init+0x7a>
10002a7a:	4e19      	ldr	r6, [pc, #100]	; (10002ae0 <tud_init+0xac>)
10002a7c:	4f17      	ldr	r7, [pc, #92]	; (10002adc <tud_init+0xa8>)
10002a7e:	429c      	cmp	r4, r3
10002a80:	d30f      	bcc.n	10002aa2 <tud_init+0x6e>
10002a82:	d119      	bne.n	10002ab8 <tud_init+0x84>
10002a84:	0033      	movs	r3, r6
10002a86:	4798      	blx	r3
10002a88:	3401      	adds	r4, #1
10002a8a:	782b      	ldrb	r3, [r5, #0]
10002a8c:	b2e4      	uxtb	r4, r4
10002a8e:	42a3      	cmp	r3, r4
10002a90:	d2f5      	bcs.n	10002a7e <tud_init+0x4a>
10002a92:	2000      	movs	r0, #0
10002a94:	f7ff fcfe 	bl	10002494 <dcd_init>
10002a98:	2000      	movs	r0, #0
10002a9a:	f7ff fcd5 	bl	10002448 <dcd_int_enable>
10002a9e:	2001      	movs	r0, #1
10002aa0:	bdf8      	pop	{r3, r4, r5, r6, r7, pc}
10002aa2:	00e3      	lsls	r3, r4, #3
10002aa4:	683a      	ldr	r2, [r7, #0]
10002aa6:	1b1b      	subs	r3, r3, r4
10002aa8:	009b      	lsls	r3, r3, #2
10002aaa:	589b      	ldr	r3, [r3, r2]
10002aac:	e7eb      	b.n	10002a86 <tud_init+0x52>
10002aae:	f000 ff87 	bl	100039c0 <cdcd_init>
10002ab2:	782b      	ldrb	r3, [r5, #0]
10002ab4:	2b00      	cmp	r3, #0
10002ab6:	d0ec      	beq.n	10002a92 <tud_init+0x5e>
10002ab8:	2300      	movs	r3, #0
10002aba:	681b      	ldr	r3, [r3, #0]
10002abc:	deff      	udf	#255	; 0xff
10002abe:	46c0      	nop			; (mov r8, r8)
10002ac0:	20000ee0 	.word	0x20000ee0
10002ac4:	20000e98 	.word	0x20000e98
10002ac8:	20000f18 	.word	0x20000f18
10002acc:	200002dc 	.word	0x200002dc
10002ad0:	20000f1c 	.word	0x20000f1c
10002ad4:	00000000 	.word	0x00000000
10002ad8:	20001644 	.word	0x20001644
10002adc:	20000bb0 	.word	0x20000bb0
10002ae0:	100039c1 	.word	0x100039c1

10002ae4 <tud_task>:
10002ae4:	b5f0      	push	{r4, r5, r6, r7, lr}
10002ae6:	46de      	mov	lr, fp
10002ae8:	4657      	mov	r7, sl
10002aea:	464e      	mov	r6, r9
10002aec:	4645      	mov	r5, r8
10002aee:	b5e0      	push	{r5, r6, r7, lr}
10002af0:	b08b      	sub	sp, #44	; 0x2c
10002af2:	f001 f969 	bl	10003dc8 <tusb_inited>
10002af6:	2800      	cmp	r0, #0
10002af8:	d100      	bne.n	10002afc <tud_task+0x18>
10002afa:	e122      	b.n	10002d42 <tud_task+0x25e>
10002afc:	4bb2      	ldr	r3, [pc, #712]	; (10002dc8 <tud_task+0x2e4>)
10002afe:	ad07      	add	r5, sp, #28
10002b00:	469a      	mov	sl, r3
10002b02:	4bb2      	ldr	r3, [pc, #712]	; (10002dcc <tud_task+0x2e8>)
10002b04:	469b      	mov	fp, r3
10002b06:	4653      	mov	r3, sl
10002b08:	681e      	ldr	r6, [r3, #0]
10002b0a:	69b2      	ldr	r2, [r6, #24]
10002b0c:	f3ef 8310 	mrs	r3, PRIMASK
10002b10:	b672      	cpsid	i
10002b12:	6811      	ldr	r1, [r2, #0]
10002b14:	2900      	cmp	r1, #0
10002b16:	d0fc      	beq.n	10002b12 <tud_task+0x2e>
10002b18:	f3bf 8f5f 	dmb	sy
10002b1c:	61f3      	str	r3, [r6, #28]
10002b1e:	0029      	movs	r1, r5
10002b20:	0030      	movs	r0, r6
10002b22:	f001 f9ad 	bl	10003e80 <tu_fifo_read>
10002b26:	69b2      	ldr	r2, [r6, #24]
10002b28:	0004      	movs	r4, r0
10002b2a:	69f3      	ldr	r3, [r6, #28]
10002b2c:	f3bf 8f5f 	dmb	sy
10002b30:	2100      	movs	r1, #0
10002b32:	6011      	str	r1, [r2, #0]
10002b34:	f383 8810 	msr	PRIMASK, r3
10002b38:	2800      	cmp	r0, #0
10002b3a:	d100      	bne.n	10002b3e <tud_task+0x5a>
10002b3c:	e101      	b.n	10002d42 <tud_task+0x25e>
10002b3e:	786b      	ldrb	r3, [r5, #1]
10002b40:	2b08      	cmp	r3, #8
10002b42:	d8e0      	bhi.n	10002b06 <tud_task+0x22>
10002b44:	465a      	mov	r2, fp
10002b46:	009b      	lsls	r3, r3, #2
10002b48:	58d3      	ldr	r3, [r2, r3]
10002b4a:	469f      	mov	pc, r3
10002b4c:	686b      	ldr	r3, [r5, #4]
10002b4e:	2b00      	cmp	r3, #0
10002b50:	d0d9      	beq.n	10002b06 <tud_task+0x22>
10002b52:	68a8      	ldr	r0, [r5, #8]
10002b54:	4798      	blx	r3
10002b56:	e7d6      	b.n	10002b06 <tud_task+0x22>
10002b58:	227f      	movs	r2, #127	; 0x7f
10002b5a:	7929      	ldrb	r1, [r5, #4]
10002b5c:	4b9c      	ldr	r3, [pc, #624]	; (10002dd0 <tud_task+0x2ec>)
10002b5e:	400a      	ands	r2, r1
10002b60:	0054      	lsls	r4, r2, #1
10002b62:	09c8      	lsrs	r0, r1, #7
10002b64:	191b      	adds	r3, r3, r4
10002b66:	181b      	adds	r3, r3, r0
10002b68:	0018      	movs	r0, r3
10002b6a:	2601      	movs	r6, #1
10002b6c:	3020      	adds	r0, #32
10002b6e:	7944      	ldrb	r4, [r0, #5]
10002b70:	43b4      	bics	r4, r6
10002b72:	7144      	strb	r4, [r0, #5]
10002b74:	7944      	ldrb	r4, [r0, #5]
10002b76:	3603      	adds	r6, #3
10002b78:	43b4      	bics	r4, r6
10002b7a:	7144      	strb	r4, [r0, #5]
10002b7c:	2a00      	cmp	r2, #0
10002b7e:	d100      	bne.n	10002b82 <tud_task+0x9e>
10002b80:	e0e6      	b.n	10002d50 <tud_task+0x26c>
10002b82:	4a94      	ldr	r2, [pc, #592]	; (10002dd4 <tud_task+0x2f0>)
10002b84:	7cdb      	ldrb	r3, [r3, #19]
10002b86:	2a00      	cmp	r2, #0
10002b88:	d006      	beq.n	10002b98 <tud_task+0xb4>
10002b8a:	4a93      	ldr	r2, [pc, #588]	; (10002dd8 <tud_task+0x2f4>)
10002b8c:	7812      	ldrb	r2, [r2, #0]
10002b8e:	4293      	cmp	r3, r2
10002b90:	d200      	bcs.n	10002b94 <tud_task+0xb0>
10002b92:	e16d      	b.n	10002e70 <tud_task+0x38c>
10002b94:	1a9b      	subs	r3, r3, r2
10002b96:	b2db      	uxtb	r3, r3
10002b98:	2b00      	cmp	r3, #0
10002b9a:	d000      	beq.n	10002b9e <tud_task+0xba>
10002b9c:	e0d1      	b.n	10002d42 <tud_task+0x25e>
10002b9e:	4c8f      	ldr	r4, [pc, #572]	; (10002ddc <tud_task+0x2f8>)
10002ba0:	796a      	ldrb	r2, [r5, #5]
10002ba2:	7828      	ldrb	r0, [r5, #0]
10002ba4:	68ab      	ldr	r3, [r5, #8]
10002ba6:	47a0      	blx	r4
10002ba8:	e7ad      	b.n	10002b06 <tud_task+0x22>
10002baa:	4b89      	ldr	r3, [pc, #548]	; (10002dd0 <tud_task+0x2ec>)
10002bac:	2701      	movs	r7, #1
10002bae:	4698      	mov	r8, r3
10002bb0:	4642      	mov	r2, r8
10002bb2:	781b      	ldrb	r3, [r3, #0]
10002bb4:	2000      	movs	r0, #0
10002bb6:	433b      	orrs	r3, r7
10002bb8:	7013      	strb	r3, [r2, #0]
10002bba:	782b      	ldrb	r3, [r5, #0]
10002bbc:	4699      	mov	r9, r3
10002bbe:	f000 fd95 	bl	100036ec <usbd_control_set_complete_callback>
10002bc2:	2360      	movs	r3, #96	; 0x60
10002bc4:	792e      	ldrb	r6, [r5, #4]
10002bc6:	4033      	ands	r3, r6
10002bc8:	2b60      	cmp	r3, #96	; 0x60
10002bca:	d00d      	beq.n	10002be8 <tud_task+0x104>
10002bcc:	2b40      	cmp	r3, #64	; 0x40
10002bce:	d100      	bne.n	10002bd2 <tud_task+0xee>
10002bd0:	e0da      	b.n	10002d88 <tud_task+0x2a4>
10002bd2:	06f6      	lsls	r6, r6, #27
10002bd4:	0ef6      	lsrs	r6, r6, #27
10002bd6:	2e01      	cmp	r6, #1
10002bd8:	d100      	bne.n	10002bdc <tud_task+0xf8>
10002bda:	e154      	b.n	10002e86 <tud_task+0x3a2>
10002bdc:	2e02      	cmp	r6, #2
10002bde:	d100      	bne.n	10002be2 <tud_task+0xfe>
10002be0:	e110      	b.n	10002e04 <tud_task+0x320>
10002be2:	2e00      	cmp	r6, #0
10002be4:	d100      	bne.n	10002be8 <tud_task+0x104>
10002be6:	e0e1      	b.n	10002dac <tud_task+0x2c8>
10002be8:	7828      	ldrb	r0, [r5, #0]
10002bea:	2100      	movs	r1, #0
10002bec:	f7ff fd80 	bl	100026f0 <dcd_edpt_stall>
10002bf0:	2180      	movs	r1, #128	; 0x80
10002bf2:	7828      	ldrb	r0, [r5, #0]
10002bf4:	f7ff fd7c 	bl	100026f0 <dcd_edpt_stall>
10002bf8:	e785      	b.n	10002b06 <tud_task+0x22>
10002bfa:	4b79      	ldr	r3, [pc, #484]	; (10002de0 <tud_task+0x2fc>)
10002bfc:	2b00      	cmp	r3, #0
10002bfe:	d082      	beq.n	10002b06 <tud_task+0x22>
10002c00:	e000      	b.n	10002c04 <tud_task+0x120>
10002c02:	bf00      	nop
10002c04:	e77f      	b.n	10002b06 <tud_task+0x22>
10002c06:	4b77      	ldr	r3, [pc, #476]	; (10002de4 <tud_task+0x300>)
10002c08:	2b00      	cmp	r3, #0
10002c0a:	d100      	bne.n	10002c0e <tud_task+0x12a>
10002c0c:	e77b      	b.n	10002b06 <tud_task+0x22>
10002c0e:	4b70      	ldr	r3, [pc, #448]	; (10002dd0 <tud_task+0x2ec>)
10002c10:	7818      	ldrb	r0, [r3, #0]
10002c12:	0700      	lsls	r0, r0, #28
10002c14:	0fc0      	lsrs	r0, r0, #31
10002c16:	e000      	b.n	10002c1a <tud_task+0x136>
10002c18:	bf00      	nop
10002c1a:	e774      	b.n	10002b06 <tud_task+0x22>
10002c1c:	4e6e      	ldr	r6, [pc, #440]	; (10002dd8 <tud_task+0x2f4>)
10002c1e:	4a6d      	ldr	r2, [pc, #436]	; (10002dd4 <tud_task+0x2f0>)
10002c20:	2400      	movs	r4, #0
10002c22:	7833      	ldrb	r3, [r6, #0]
10002c24:	2a00      	cmp	r2, #0
10002c26:	d100      	bne.n	10002c2a <tud_task+0x146>
10002c28:	e098      	b.n	10002d5c <tud_task+0x278>
10002c2a:	4f6f      	ldr	r7, [pc, #444]	; (10002de8 <tud_task+0x304>)
10002c2c:	42a3      	cmp	r3, r4
10002c2e:	d808      	bhi.n	10002c42 <tud_task+0x15e>
10002c30:	42a3      	cmp	r3, r4
10002c32:	d000      	beq.n	10002c36 <tud_task+0x152>
10002c34:	e095      	b.n	10002d62 <tud_task+0x27e>
10002c36:	3401      	adds	r4, #1
10002c38:	b2e4      	uxtb	r4, r4
10002c3a:	42a3      	cmp	r3, r4
10002c3c:	d200      	bcs.n	10002c40 <tud_task+0x15c>
10002c3e:	e762      	b.n	10002b06 <tud_task+0x22>
10002c40:	d9f6      	bls.n	10002c30 <tud_task+0x14c>
10002c42:	6839      	ldr	r1, [r7, #0]
10002c44:	00e2      	lsls	r2, r4, #3
10002c46:	468c      	mov	ip, r1
10002c48:	1b12      	subs	r2, r2, r4
10002c4a:	0092      	lsls	r2, r2, #2
10002c4c:	4462      	add	r2, ip
10002c4e:	6992      	ldr	r2, [r2, #24]
10002c50:	2a00      	cmp	r2, #0
10002c52:	d0f0      	beq.n	10002c36 <tud_task+0x152>
10002c54:	7828      	ldrb	r0, [r5, #0]
10002c56:	4790      	blx	r2
10002c58:	3401      	adds	r4, #1
10002c5a:	7833      	ldrb	r3, [r6, #0]
10002c5c:	b2e4      	uxtb	r4, r4
10002c5e:	42a3      	cmp	r3, r4
10002c60:	d2e4      	bcs.n	10002c2c <tud_task+0x148>
10002c62:	e750      	b.n	10002b06 <tud_task+0x22>
10002c64:	2237      	movs	r2, #55	; 0x37
10002c66:	2100      	movs	r1, #0
10002c68:	4859      	ldr	r0, [pc, #356]	; (10002dd0 <tud_task+0x2ec>)
10002c6a:	782f      	ldrb	r7, [r5, #0]
10002c6c:	f7ff f8f6 	bl	10001e5c <__wrap_memset>
10002c70:	2210      	movs	r2, #16
10002c72:	21ff      	movs	r1, #255	; 0xff
10002c74:	485d      	ldr	r0, [pc, #372]	; (10002dec <tud_task+0x308>)
10002c76:	f7ff f8f1 	bl	10001e5c <__wrap_memset>
10002c7a:	4855      	ldr	r0, [pc, #340]	; (10002dd0 <tud_task+0x2ec>)
10002c7c:	2212      	movs	r2, #18
10002c7e:	21ff      	movs	r1, #255	; 0xff
10002c80:	3013      	adds	r0, #19
10002c82:	f7ff f8eb 	bl	10001e5c <__wrap_memset>
10002c86:	f000 fd27 	bl	100036d8 <usbd_control_reset>
10002c8a:	4e53      	ldr	r6, [pc, #332]	; (10002dd8 <tud_task+0x2f4>)
10002c8c:	4a51      	ldr	r2, [pc, #324]	; (10002dd4 <tud_task+0x2f0>)
10002c8e:	2400      	movs	r4, #0
10002c90:	7833      	ldrb	r3, [r6, #0]
10002c92:	2a00      	cmp	r2, #0
10002c94:	d100      	bne.n	10002c98 <tud_task+0x1b4>
10002c96:	e070      	b.n	10002d7a <tud_task+0x296>
10002c98:	4a55      	ldr	r2, [pc, #340]	; (10002df0 <tud_task+0x30c>)
10002c9a:	4690      	mov	r8, r2
10002c9c:	4a52      	ldr	r2, [pc, #328]	; (10002de8 <tud_task+0x304>)
10002c9e:	4691      	mov	r9, r2
10002ca0:	42a3      	cmp	r3, r4
10002ca2:	d845      	bhi.n	10002d30 <tud_task+0x24c>
10002ca4:	d166      	bne.n	10002d74 <tud_task+0x290>
10002ca6:	4643      	mov	r3, r8
10002ca8:	0038      	movs	r0, r7
10002caa:	4798      	blx	r3
10002cac:	3401      	adds	r4, #1
10002cae:	7833      	ldrb	r3, [r6, #0]
10002cb0:	b2e4      	uxtb	r4, r4
10002cb2:	42a3      	cmp	r3, r4
10002cb4:	d2f4      	bcs.n	10002ca0 <tud_task+0x1bc>
10002cb6:	4b4f      	ldr	r3, [pc, #316]	; (10002df4 <tud_task+0x310>)
10002cb8:	2b00      	cmp	r3, #0
10002cba:	d100      	bne.n	10002cbe <tud_task+0x1da>
10002cbc:	e723      	b.n	10002b06 <tud_task+0x22>
10002cbe:	e000      	b.n	10002cc2 <tud_task+0x1de>
10002cc0:	bf00      	nop
10002cc2:	e720      	b.n	10002b06 <tud_task+0x22>
10002cc4:	4b42      	ldr	r3, [pc, #264]	; (10002dd0 <tud_task+0x2ec>)
10002cc6:	2237      	movs	r2, #55	; 0x37
10002cc8:	4698      	mov	r8, r3
10002cca:	2100      	movs	r1, #0
10002ccc:	0018      	movs	r0, r3
10002cce:	782f      	ldrb	r7, [r5, #0]
10002cd0:	f7ff f8c4 	bl	10001e5c <__wrap_memset>
10002cd4:	4643      	mov	r3, r8
10002cd6:	2210      	movs	r2, #16
10002cd8:	1cd8      	adds	r0, r3, #3
10002cda:	21ff      	movs	r1, #255	; 0xff
10002cdc:	f7ff f8be 	bl	10001e5c <__wrap_memset>
10002ce0:	4640      	mov	r0, r8
10002ce2:	2212      	movs	r2, #18
10002ce4:	21ff      	movs	r1, #255	; 0xff
10002ce6:	3013      	adds	r0, #19
10002ce8:	f7ff f8b8 	bl	10001e5c <__wrap_memset>
10002cec:	f000 fcf4 	bl	100036d8 <usbd_control_reset>
10002cf0:	4e39      	ldr	r6, [pc, #228]	; (10002dd8 <tud_task+0x2f4>)
10002cf2:	4a38      	ldr	r2, [pc, #224]	; (10002dd4 <tud_task+0x2f0>)
10002cf4:	2400      	movs	r4, #0
10002cf6:	7833      	ldrb	r3, [r6, #0]
10002cf8:	2a00      	cmp	r2, #0
10002cfa:	d035      	beq.n	10002d68 <tud_task+0x284>
10002cfc:	4a3a      	ldr	r2, [pc, #232]	; (10002de8 <tud_task+0x304>)
10002cfe:	4691      	mov	r9, r2
10002d00:	429c      	cmp	r4, r3
10002d02:	d30c      	bcc.n	10002d1e <tud_task+0x23a>
10002d04:	d136      	bne.n	10002d74 <tud_task+0x290>
10002d06:	4b3a      	ldr	r3, [pc, #232]	; (10002df0 <tud_task+0x30c>)
10002d08:	0038      	movs	r0, r7
10002d0a:	4798      	blx	r3
10002d0c:	3401      	adds	r4, #1
10002d0e:	7833      	ldrb	r3, [r6, #0]
10002d10:	b2e4      	uxtb	r4, r4
10002d12:	42a3      	cmp	r3, r4
10002d14:	d2f4      	bcs.n	10002d00 <tud_task+0x21c>
10002d16:	4642      	mov	r2, r8
10002d18:	792b      	ldrb	r3, [r5, #4]
10002d1a:	7093      	strb	r3, [r2, #2]
10002d1c:	e6f3      	b.n	10002b06 <tud_task+0x22>
10002d1e:	464a      	mov	r2, r9
10002d20:	6812      	ldr	r2, [r2, #0]
10002d22:	00e3      	lsls	r3, r4, #3
10002d24:	4694      	mov	ip, r2
10002d26:	1b1b      	subs	r3, r3, r4
10002d28:	009b      	lsls	r3, r3, #2
10002d2a:	4463      	add	r3, ip
10002d2c:	685b      	ldr	r3, [r3, #4]
10002d2e:	e7eb      	b.n	10002d08 <tud_task+0x224>
10002d30:	464a      	mov	r2, r9
10002d32:	6812      	ldr	r2, [r2, #0]
10002d34:	00e3      	lsls	r3, r4, #3
10002d36:	4694      	mov	ip, r2
10002d38:	1b1b      	subs	r3, r3, r4
10002d3a:	009b      	lsls	r3, r3, #2
10002d3c:	4463      	add	r3, ip
10002d3e:	685b      	ldr	r3, [r3, #4]
10002d40:	e7b2      	b.n	10002ca8 <tud_task+0x1c4>
10002d42:	b00b      	add	sp, #44	; 0x2c
10002d44:	bc3c      	pop	{r2, r3, r4, r5}
10002d46:	4690      	mov	r8, r2
10002d48:	4699      	mov	r9, r3
10002d4a:	46a2      	mov	sl, r4
10002d4c:	46ab      	mov	fp, r5
10002d4e:	bdf0      	pop	{r4, r5, r6, r7, pc}
10002d50:	796a      	ldrb	r2, [r5, #5]
10002d52:	7828      	ldrb	r0, [r5, #0]
10002d54:	68ab      	ldr	r3, [r5, #8]
10002d56:	f000 fcdd 	bl	10003714 <usbd_control_xfer_cb>
10002d5a:	e6d4      	b.n	10002b06 <tud_task+0x22>
10002d5c:	2b00      	cmp	r3, #0
10002d5e:	d100      	bne.n	10002d62 <tud_task+0x27e>
10002d60:	e6d1      	b.n	10002b06 <tud_task+0x22>
10002d62:	2300      	movs	r3, #0
10002d64:	699b      	ldr	r3, [r3, #24]
10002d66:	deff      	udf	#255	; 0xff
10002d68:	0038      	movs	r0, r7
10002d6a:	f000 fe65 	bl	10003a38 <cdcd_reset>
10002d6e:	7833      	ldrb	r3, [r6, #0]
10002d70:	2b00      	cmp	r3, #0
10002d72:	d0d0      	beq.n	10002d16 <tud_task+0x232>
10002d74:	2300      	movs	r3, #0
10002d76:	685b      	ldr	r3, [r3, #4]
10002d78:	deff      	udf	#255	; 0xff
10002d7a:	0038      	movs	r0, r7
10002d7c:	f000 fe5c 	bl	10003a38 <cdcd_reset>
10002d80:	7833      	ldrb	r3, [r6, #0]
10002d82:	2b00      	cmp	r3, #0
10002d84:	d097      	beq.n	10002cb6 <tud_task+0x1d2>
10002d86:	e7f5      	b.n	10002d74 <tud_task+0x290>
10002d88:	4b1b      	ldr	r3, [pc, #108]	; (10002df8 <tud_task+0x314>)
10002d8a:	2b00      	cmp	r3, #0
10002d8c:	d100      	bne.n	10002d90 <tud_task+0x2ac>
10002d8e:	e72b      	b.n	10002be8 <tud_task+0x104>
10002d90:	481a      	ldr	r0, [pc, #104]	; (10002dfc <tud_task+0x318>)
10002d92:	2800      	cmp	r0, #0
10002d94:	d001      	beq.n	10002d9a <tud_task+0x2b6>
10002d96:	f000 fca9 	bl	100036ec <usbd_control_set_complete_callback>
10002d9a:	4648      	mov	r0, r9
10002d9c:	a908      	add	r1, sp, #32
10002d9e:	e000      	b.n	10002da2 <tud_task+0x2be>
10002da0:	bf00      	nop
10002da2:	0004      	movs	r4, r0
10002da4:	2c00      	cmp	r4, #0
10002da6:	d000      	beq.n	10002daa <tud_task+0x2c6>
10002da8:	e6ad      	b.n	10002b06 <tud_task+0x22>
10002daa:	e71d      	b.n	10002be8 <tud_task+0x104>
10002dac:	2b20      	cmp	r3, #32
10002dae:	d100      	bne.n	10002db2 <tud_task+0x2ce>
10002db0:	e09a      	b.n	10002ee8 <tud_task+0x404>
10002db2:	2b00      	cmp	r3, #0
10002db4:	d000      	beq.n	10002db8 <tud_task+0x2d4>
10002db6:	e717      	b.n	10002be8 <tud_task+0x104>
10002db8:	796b      	ldrb	r3, [r5, #5]
10002dba:	2b09      	cmp	r3, #9
10002dbc:	d900      	bls.n	10002dc0 <tud_task+0x2dc>
10002dbe:	e713      	b.n	10002be8 <tud_task+0x104>
10002dc0:	4a0f      	ldr	r2, [pc, #60]	; (10002e00 <tud_task+0x31c>)
10002dc2:	009b      	lsls	r3, r3, #2
10002dc4:	58d3      	ldr	r3, [r2, r3]
10002dc6:	469f      	mov	pc, r3
10002dc8:	20000f1c 	.word	0x20000f1c
10002dcc:	10004db4 	.word	0x10004db4
10002dd0:	20000ee0 	.word	0x20000ee0
10002dd4:	00000000 	.word	0x00000000
10002dd8:	20001644 	.word	0x20001644
10002ddc:	10003bf5 	.word	0x10003bf5
	...
10002de8:	20000bb0 	.word	0x20000bb0
10002dec:	20000ee3 	.word	0x20000ee3
10002df0:	10003a39 	.word	0x10003a39
	...
10002e00:	10004dd8 	.word	0x10004dd8
10002e04:	227f      	movs	r2, #127	; 0x7f
10002e06:	7a29      	ldrb	r1, [r5, #8]
10002e08:	400a      	ands	r2, r1
10002e0a:	9202      	str	r2, [sp, #8]
10002e0c:	2a08      	cmp	r2, #8
10002e0e:	d900      	bls.n	10002e12 <tud_task+0x32e>
10002e10:	e6ea      	b.n	10002be8 <tud_task+0x104>
10002e12:	09c8      	lsrs	r0, r1, #7
10002e14:	9001      	str	r0, [sp, #4]
10002e16:	2b00      	cmp	r3, #0
10002e18:	d100      	bne.n	10002e1c <tud_task+0x338>
10002e1a:	e082      	b.n	10002f22 <tud_task+0x43e>
10002e1c:	2400      	movs	r4, #0
10002e1e:	0053      	lsls	r3, r2, #1
10002e20:	9302      	str	r3, [sp, #8]
10002e22:	9a01      	ldr	r2, [sp, #4]
10002e24:	9b02      	ldr	r3, [sp, #8]
10002e26:	4694      	mov	ip, r2
10002e28:	4443      	add	r3, r8
10002e2a:	4ac7      	ldr	r2, [pc, #796]	; (10003148 <tud_task+0x664>)
10002e2c:	4463      	add	r3, ip
10002e2e:	7cdb      	ldrb	r3, [r3, #19]
10002e30:	2a00      	cmp	r2, #0
10002e32:	d006      	beq.n	10002e42 <tud_task+0x35e>
10002e34:	4ac5      	ldr	r2, [pc, #788]	; (1000314c <tud_task+0x668>)
10002e36:	7812      	ldrb	r2, [r2, #0]
10002e38:	4293      	cmp	r3, r2
10002e3a:	d200      	bcs.n	10002e3e <tud_task+0x35a>
10002e3c:	e13b      	b.n	100030b6 <tud_task+0x5d2>
10002e3e:	1a9b      	subs	r3, r3, r2
10002e40:	b2db      	uxtb	r3, r3
10002e42:	2b00      	cmp	r3, #0
10002e44:	d000      	beq.n	10002e48 <tud_task+0x364>
10002e46:	e12d      	b.n	100030a4 <tud_task+0x5c0>
10002e48:	48c1      	ldr	r0, [pc, #772]	; (10003150 <tud_task+0x66c>)
10002e4a:	4ec2      	ldr	r6, [pc, #776]	; (10003154 <tud_task+0x670>)
10002e4c:	f000 fc4e 	bl	100036ec <usbd_control_set_complete_callback>
10002e50:	4648      	mov	r0, r9
10002e52:	68f3      	ldr	r3, [r6, #12]
10002e54:	a908      	add	r1, sp, #32
10002e56:	4798      	blx	r3
10002e58:	2800      	cmp	r0, #0
10002e5a:	d100      	bne.n	10002e5e <tud_task+0x37a>
10002e5c:	e122      	b.n	100030a4 <tud_task+0x5c0>
10002e5e:	2260      	movs	r2, #96	; 0x60
10002e60:	792b      	ldrb	r3, [r5, #4]
10002e62:	421a      	tst	r2, r3
10002e64:	d000      	beq.n	10002e68 <tud_task+0x384>
10002e66:	e64e      	b.n	10002b06 <tud_task+0x22>
10002e68:	2000      	movs	r0, #0
10002e6a:	f000 fc3f 	bl	100036ec <usbd_control_set_complete_callback>
10002e6e:	e64a      	b.n	10002b06 <tud_task+0x22>
10002e70:	00da      	lsls	r2, r3, #3
10002e72:	1ad3      	subs	r3, r2, r3
10002e74:	4ab8      	ldr	r2, [pc, #736]	; (10003158 <tud_task+0x674>)
10002e76:	009b      	lsls	r3, r3, #2
10002e78:	6812      	ldr	r2, [r2, #0]
10002e7a:	18d3      	adds	r3, r2, r3
10002e7c:	2b00      	cmp	r3, #0
10002e7e:	d100      	bne.n	10002e82 <tud_task+0x39e>
10002e80:	e75f      	b.n	10002d42 <tud_task+0x25e>
10002e82:	695c      	ldr	r4, [r3, #20]
10002e84:	e68c      	b.n	10002ba0 <tud_task+0xbc>
10002e86:	7a2b      	ldrb	r3, [r5, #8]
10002e88:	2b0f      	cmp	r3, #15
10002e8a:	d900      	bls.n	10002e8e <tud_task+0x3aa>
10002e8c:	e6ac      	b.n	10002be8 <tud_task+0x104>
10002e8e:	4aae      	ldr	r2, [pc, #696]	; (10003148 <tud_task+0x664>)
10002e90:	4443      	add	r3, r8
10002e92:	78db      	ldrb	r3, [r3, #3]
10002e94:	2a00      	cmp	r2, #0
10002e96:	d005      	beq.n	10002ea4 <tud_task+0x3c0>
10002e98:	4aac      	ldr	r2, [pc, #688]	; (1000314c <tud_task+0x668>)
10002e9a:	7812      	ldrb	r2, [r2, #0]
10002e9c:	4293      	cmp	r3, r2
10002e9e:	d35e      	bcc.n	10002f5e <tud_task+0x47a>
10002ea0:	1a9b      	subs	r3, r3, r2
10002ea2:	b2db      	uxtb	r3, r3
10002ea4:	2b00      	cmp	r3, #0
10002ea6:	d000      	beq.n	10002eaa <tud_task+0x3c6>
10002ea8:	e69e      	b.n	10002be8 <tud_task+0x104>
10002eaa:	48a9      	ldr	r0, [pc, #676]	; (10003150 <tud_task+0x66c>)
10002eac:	4ca9      	ldr	r4, [pc, #676]	; (10003154 <tud_task+0x670>)
10002eae:	f000 fc1d 	bl	100036ec <usbd_control_set_complete_callback>
10002eb2:	4648      	mov	r0, r9
10002eb4:	68e3      	ldr	r3, [r4, #12]
10002eb6:	a908      	add	r1, sp, #32
10002eb8:	4798      	blx	r3
10002eba:	2800      	cmp	r0, #0
10002ebc:	d000      	beq.n	10002ec0 <tud_task+0x3dc>
10002ebe:	e622      	b.n	10002b06 <tud_task+0x22>
10002ec0:	2260      	movs	r2, #96	; 0x60
10002ec2:	0011      	movs	r1, r2
10002ec4:	792b      	ldrb	r3, [r5, #4]
10002ec6:	4019      	ands	r1, r3
10002ec8:	421a      	tst	r2, r3
10002eca:	d000      	beq.n	10002ece <tud_task+0x3ea>
10002ecc:	e68c      	b.n	10002be8 <tud_task+0x104>
10002ece:	796b      	ldrb	r3, [r5, #5]
10002ed0:	2b0a      	cmp	r3, #10
10002ed2:	d000      	beq.n	10002ed6 <tud_task+0x3f2>
10002ed4:	e688      	b.n	10002be8 <tud_task+0x104>
10002ed6:	ab06      	add	r3, sp, #24
10002ed8:	1c9a      	adds	r2, r3, #2
10002eda:	7011      	strb	r1, [r2, #0]
10002edc:	2301      	movs	r3, #1
10002ede:	4648      	mov	r0, r9
10002ee0:	a908      	add	r1, sp, #32
10002ee2:	f000 fb9d 	bl	10003620 <tud_control_xfer>
10002ee6:	e60e      	b.n	10002b06 <tud_task+0x22>
10002ee8:	7a2b      	ldrb	r3, [r5, #8]
10002eea:	2b0f      	cmp	r3, #15
10002eec:	d900      	bls.n	10002ef0 <tud_task+0x40c>
10002eee:	e67b      	b.n	10002be8 <tud_task+0x104>
10002ef0:	4a95      	ldr	r2, [pc, #596]	; (10003148 <tud_task+0x664>)
10002ef2:	4443      	add	r3, r8
10002ef4:	78db      	ldrb	r3, [r3, #3]
10002ef6:	2a00      	cmp	r2, #0
10002ef8:	d006      	beq.n	10002f08 <tud_task+0x424>
10002efa:	4a94      	ldr	r2, [pc, #592]	; (1000314c <tud_task+0x668>)
10002efc:	7812      	ldrb	r2, [r2, #0]
10002efe:	4293      	cmp	r3, r2
10002f00:	d200      	bcs.n	10002f04 <tud_task+0x420>
10002f02:	e102      	b.n	1000310a <tud_task+0x626>
10002f04:	1a9b      	subs	r3, r3, r2
10002f06:	b2db      	uxtb	r3, r3
10002f08:	2b00      	cmp	r3, #0
10002f0a:	d000      	beq.n	10002f0e <tud_task+0x42a>
10002f0c:	e66c      	b.n	10002be8 <tud_task+0x104>
10002f0e:	4890      	ldr	r0, [pc, #576]	; (10003150 <tud_task+0x66c>)
10002f10:	4c90      	ldr	r4, [pc, #576]	; (10003154 <tud_task+0x670>)
10002f12:	f000 fbeb 	bl	100036ec <usbd_control_set_complete_callback>
10002f16:	68e3      	ldr	r3, [r4, #12]
10002f18:	4648      	mov	r0, r9
10002f1a:	a908      	add	r1, sp, #32
10002f1c:	4798      	blx	r3
10002f1e:	0004      	movs	r4, r0
10002f20:	e740      	b.n	10002da4 <tud_task+0x2c0>
10002f22:	796b      	ldrb	r3, [r5, #5]
10002f24:	9303      	str	r3, [sp, #12]
10002f26:	2b01      	cmp	r3, #1
10002f28:	d100      	bne.n	10002f2c <tud_task+0x448>
10002f2a:	e0d8      	b.n	100030de <tud_task+0x5fa>
10002f2c:	2b03      	cmp	r3, #3
10002f2e:	d100      	bne.n	10002f32 <tud_task+0x44e>
10002f30:	e0cb      	b.n	100030ca <tud_task+0x5e6>
10002f32:	2b00      	cmp	r3, #0
10002f34:	d000      	beq.n	10002f38 <tud_task+0x454>
10002f36:	e657      	b.n	10002be8 <tud_task+0x104>
10002f38:	0053      	lsls	r3, r2, #1
10002f3a:	9a01      	ldr	r2, [sp, #4]
10002f3c:	9302      	str	r3, [sp, #8]
10002f3e:	4694      	mov	ip, r2
10002f40:	4443      	add	r3, r8
10002f42:	4463      	add	r3, ip
10002f44:	3320      	adds	r3, #32
10002f46:	795b      	ldrb	r3, [r3, #5]
10002f48:	aa06      	add	r2, sp, #24
10002f4a:	079b      	lsls	r3, r3, #30
10002f4c:	0fdb      	lsrs	r3, r3, #31
10002f4e:	3202      	adds	r2, #2
10002f50:	8013      	strh	r3, [r2, #0]
10002f52:	4648      	mov	r0, r9
10002f54:	2302      	movs	r3, #2
10002f56:	a908      	add	r1, sp, #32
10002f58:	f000 fb62 	bl	10003620 <tud_control_xfer>
10002f5c:	e761      	b.n	10002e22 <tud_task+0x33e>
10002f5e:	4a7e      	ldr	r2, [pc, #504]	; (10003158 <tud_task+0x674>)
10002f60:	00dc      	lsls	r4, r3, #3
10002f62:	1ae3      	subs	r3, r4, r3
10002f64:	6814      	ldr	r4, [r2, #0]
10002f66:	009b      	lsls	r3, r3, #2
10002f68:	18e4      	adds	r4, r4, r3
10002f6a:	2c00      	cmp	r4, #0
10002f6c:	d100      	bne.n	10002f70 <tud_task+0x48c>
10002f6e:	e63b      	b.n	10002be8 <tud_task+0x104>
10002f70:	6920      	ldr	r0, [r4, #16]
10002f72:	e79c      	b.n	10002eae <tud_task+0x3ca>
10002f74:	88eb      	ldrh	r3, [r5, #6]
10002f76:	2b01      	cmp	r3, #1
10002f78:	d000      	beq.n	10002f7c <tud_task+0x498>
10002f7a:	e635      	b.n	10002be8 <tud_task+0x104>
10002f7c:	4643      	mov	r3, r8
10002f7e:	2208      	movs	r2, #8
10002f80:	781b      	ldrb	r3, [r3, #0]
10002f82:	4393      	bics	r3, r2
10002f84:	4642      	mov	r2, r8
10002f86:	4648      	mov	r0, r9
10002f88:	a908      	add	r1, sp, #32
10002f8a:	7013      	strb	r3, [r2, #0]
10002f8c:	f000 fb30 	bl	100035f0 <tud_control_status>
10002f90:	e5b9      	b.n	10002b06 <tud_task+0x22>
10002f92:	4643      	mov	r3, r8
10002f94:	2002      	movs	r0, #2
10002f96:	7819      	ldrb	r1, [r3, #0]
10002f98:	ab06      	add	r3, sp, #24
10002f9a:	1c9a      	adds	r2, r3, #2
10002f9c:	068b      	lsls	r3, r1, #26
10002f9e:	0889      	lsrs	r1, r1, #2
10002fa0:	4001      	ands	r1, r0
10002fa2:	0fdb      	lsrs	r3, r3, #31
10002fa4:	430b      	orrs	r3, r1
10002fa6:	8013      	strh	r3, [r2, #0]
10002fa8:	4648      	mov	r0, r9
10002faa:	2302      	movs	r3, #2
10002fac:	a908      	add	r1, sp, #32
10002fae:	f000 fb37 	bl	10003620 <tud_control_xfer>
10002fb2:	e5a8      	b.n	10002b06 <tud_task+0x22>
10002fb4:	4643      	mov	r3, r8
10002fb6:	79aa      	ldrb	r2, [r5, #6]
10002fb8:	9203      	str	r2, [sp, #12]
10002fba:	785b      	ldrb	r3, [r3, #1]
10002fbc:	2b00      	cmp	r3, #0
10002fbe:	d102      	bne.n	10002fc6 <tud_task+0x4e2>
10002fc0:	2a00      	cmp	r2, #0
10002fc2:	d000      	beq.n	10002fc6 <tud_task+0x4e2>
10002fc4:	e0d0      	b.n	10003168 <tud_task+0x684>
10002fc6:	4643      	mov	r3, r8
10002fc8:	9a03      	ldr	r2, [sp, #12]
10002fca:	4648      	mov	r0, r9
10002fcc:	a908      	add	r1, sp, #32
10002fce:	705a      	strb	r2, [r3, #1]
10002fd0:	f000 fb0e 	bl	100035f0 <tud_control_status>
10002fd4:	e597      	b.n	10002b06 <tud_task+0x22>
10002fd6:	4643      	mov	r3, r8
10002fd8:	aa06      	add	r2, sp, #24
10002fda:	785b      	ldrb	r3, [r3, #1]
10002fdc:	3202      	adds	r2, #2
10002fde:	7013      	strb	r3, [r2, #0]
10002fe0:	4648      	mov	r0, r9
10002fe2:	2301      	movs	r3, #1
10002fe4:	a908      	add	r1, sp, #32
10002fe6:	f000 fb1b 	bl	10003620 <tud_control_xfer>
10002fea:	e58c      	b.n	10002b06 <tud_task+0x22>
10002fec:	88eb      	ldrh	r3, [r5, #6]
10002fee:	79a8      	ldrb	r0, [r5, #6]
10002ff0:	0a1b      	lsrs	r3, r3, #8
10002ff2:	2b0f      	cmp	r3, #15
10002ff4:	d900      	bls.n	10002ff8 <tud_task+0x514>
10002ff6:	e5f7      	b.n	10002be8 <tud_task+0x104>
10002ff8:	4a58      	ldr	r2, [pc, #352]	; (1000315c <tud_task+0x678>)
10002ffa:	009b      	lsls	r3, r3, #2
10002ffc:	58d3      	ldr	r3, [r2, r3]
10002ffe:	469f      	mov	pc, r3
10003000:	a808      	add	r0, sp, #32
10003002:	f000 fb79 	bl	100036f8 <usbd_control_set_request>
10003006:	4648      	mov	r0, r9
10003008:	79a9      	ldrb	r1, [r5, #6]
1000300a:	f7ff fa23 	bl	10002454 <dcd_set_address>
1000300e:	4643      	mov	r3, r8
10003010:	2202      	movs	r2, #2
10003012:	781b      	ldrb	r3, [r3, #0]
10003014:	4313      	orrs	r3, r2
10003016:	4642      	mov	r2, r8
10003018:	7013      	strb	r3, [r2, #0]
1000301a:	e574      	b.n	10002b06 <tud_task+0x22>
1000301c:	88eb      	ldrh	r3, [r5, #6]
1000301e:	2b01      	cmp	r3, #1
10003020:	d000      	beq.n	10003024 <tud_task+0x540>
10003022:	e5e1      	b.n	10002be8 <tud_task+0x104>
10003024:	4643      	mov	r3, r8
10003026:	2208      	movs	r2, #8
10003028:	781b      	ldrb	r3, [r3, #0]
1000302a:	4313      	orrs	r3, r2
1000302c:	e7aa      	b.n	10002f84 <tud_task+0x4a0>
1000302e:	4b4c      	ldr	r3, [pc, #304]	; (10003160 <tud_task+0x67c>)
10003030:	2b00      	cmp	r3, #0
10003032:	d100      	bne.n	10003036 <tud_task+0x552>
10003034:	e5d8      	b.n	10002be8 <tud_task+0x104>
10003036:	e000      	b.n	1000303a <tud_task+0x556>
10003038:	bf00      	nop
1000303a:	0004      	movs	r4, r0
1000303c:	ab06      	add	r3, sp, #24
1000303e:	1c9e      	adds	r6, r3, #2
10003040:	2202      	movs	r2, #2
10003042:	1ca1      	adds	r1, r4, #2
10003044:	0030      	movs	r0, r6
10003046:	f7fe ff0f 	bl	10001e68 <__wrap___aeabi_memcpy>
1000304a:	0022      	movs	r2, r4
1000304c:	4648      	mov	r0, r9
1000304e:	8833      	ldrh	r3, [r6, #0]
10003050:	a908      	add	r1, sp, #32
10003052:	f000 fae5 	bl	10003620 <tud_control_xfer>
10003056:	2800      	cmp	r0, #0
10003058:	d000      	beq.n	1000305c <tud_task+0x578>
1000305a:	e554      	b.n	10002b06 <tud_task+0x22>
1000305c:	e5c4      	b.n	10002be8 <tud_task+0x104>
1000305e:	4b41      	ldr	r3, [pc, #260]	; (10003164 <tud_task+0x680>)
10003060:	2b00      	cmp	r3, #0
10003062:	d100      	bne.n	10003066 <tud_task+0x582>
10003064:	e5c0      	b.n	10002be8 <tud_task+0x104>
10003066:	e000      	b.n	1000306a <tud_task+0x586>
10003068:	bf00      	nop
1000306a:	1e02      	subs	r2, r0, #0
1000306c:	d100      	bne.n	10003070 <tud_task+0x58c>
1000306e:	e5bb      	b.n	10002be8 <tud_task+0x104>
10003070:	4648      	mov	r0, r9
10003072:	7813      	ldrb	r3, [r2, #0]
10003074:	a908      	add	r1, sp, #32
10003076:	f000 fad3 	bl	10003620 <tud_control_xfer>
1000307a:	e7ec      	b.n	10003056 <tud_task+0x572>
1000307c:	8929      	ldrh	r1, [r5, #8]
1000307e:	f7ff f91d 	bl	100022bc <tud_descriptor_string_cb>
10003082:	1e02      	subs	r2, r0, #0
10003084:	d1f4      	bne.n	10003070 <tud_task+0x58c>
10003086:	e5af      	b.n	10002be8 <tud_task+0x104>
10003088:	f7ff f914 	bl	100022b4 <tud_descriptor_configuration_cb>
1000308c:	1e04      	subs	r4, r0, #0
1000308e:	d1d5      	bne.n	1000303c <tud_task+0x558>
10003090:	e5aa      	b.n	10002be8 <tud_task+0x104>
10003092:	f7ff f90b 	bl	100022ac <tud_descriptor_device_cb>
10003096:	2312      	movs	r3, #18
10003098:	0002      	movs	r2, r0
1000309a:	a908      	add	r1, sp, #32
1000309c:	4648      	mov	r0, r9
1000309e:	f000 fabf 	bl	10003620 <tud_control_xfer>
100030a2:	e7d8      	b.n	10003056 <tud_task+0x572>
100030a4:	2260      	movs	r2, #96	; 0x60
100030a6:	792b      	ldrb	r3, [r5, #4]
100030a8:	421a      	tst	r2, r3
100030aa:	d000      	beq.n	100030ae <tud_task+0x5ca>
100030ac:	e67a      	b.n	10002da4 <tud_task+0x2c0>
100030ae:	2000      	movs	r0, #0
100030b0:	f000 fb1c 	bl	100036ec <usbd_control_set_complete_callback>
100030b4:	e676      	b.n	10002da4 <tud_task+0x2c0>
100030b6:	4a28      	ldr	r2, [pc, #160]	; (10003158 <tud_task+0x674>)
100030b8:	00de      	lsls	r6, r3, #3
100030ba:	1af3      	subs	r3, r6, r3
100030bc:	6816      	ldr	r6, [r2, #0]
100030be:	009b      	lsls	r3, r3, #2
100030c0:	18f6      	adds	r6, r6, r3
100030c2:	2e00      	cmp	r6, #0
100030c4:	d0ee      	beq.n	100030a4 <tud_task+0x5c0>
100030c6:	6930      	ldr	r0, [r6, #16]
100030c8:	e6c0      	b.n	10002e4c <tud_task+0x368>
100030ca:	88eb      	ldrh	r3, [r5, #6]
100030cc:	2b00      	cmp	r3, #0
100030ce:	d027      	beq.n	10003120 <tud_task+0x63c>
100030d0:	0053      	lsls	r3, r2, #1
100030d2:	9302      	str	r3, [sp, #8]
100030d4:	4648      	mov	r0, r9
100030d6:	a908      	add	r1, sp, #32
100030d8:	f000 fa8a 	bl	100035f0 <tud_control_status>
100030dc:	e6a1      	b.n	10002e22 <tud_task+0x33e>
100030de:	88eb      	ldrh	r3, [r5, #6]
100030e0:	2b00      	cmp	r3, #0
100030e2:	d1f5      	bne.n	100030d0 <tud_task+0x5ec>
100030e4:	4648      	mov	r0, r9
100030e6:	f7ff fb2b 	bl	10002740 <dcd_edpt_clear_stall>
100030ea:	9a01      	ldr	r2, [sp, #4]
100030ec:	9b02      	ldr	r3, [sp, #8]
100030ee:	4694      	mov	ip, r2
100030f0:	005b      	lsls	r3, r3, #1
100030f2:	9302      	str	r3, [sp, #8]
100030f4:	4443      	add	r3, r8
100030f6:	4463      	add	r3, ip
100030f8:	3320      	adds	r3, #32
100030fa:	795a      	ldrb	r2, [r3, #5]
100030fc:	9903      	ldr	r1, [sp, #12]
100030fe:	43b2      	bics	r2, r6
10003100:	715a      	strb	r2, [r3, #5]
10003102:	795a      	ldrb	r2, [r3, #5]
10003104:	438a      	bics	r2, r1
10003106:	715a      	strb	r2, [r3, #5]
10003108:	e7e4      	b.n	100030d4 <tud_task+0x5f0>
1000310a:	4a13      	ldr	r2, [pc, #76]	; (10003158 <tud_task+0x674>)
1000310c:	00dc      	lsls	r4, r3, #3
1000310e:	1ae3      	subs	r3, r4, r3
10003110:	6814      	ldr	r4, [r2, #0]
10003112:	009b      	lsls	r3, r3, #2
10003114:	18e4      	adds	r4, r4, r3
10003116:	2c00      	cmp	r4, #0
10003118:	d100      	bne.n	1000311c <tud_task+0x638>
1000311a:	e565      	b.n	10002be8 <tud_task+0x104>
1000311c:	6920      	ldr	r0, [r4, #16]
1000311e:	e6f8      	b.n	10002f12 <tud_task+0x42e>
10003120:	4648      	mov	r0, r9
10003122:	f7ff fae5 	bl	100026f0 <dcd_edpt_stall>
10003126:	9a01      	ldr	r2, [sp, #4]
10003128:	2102      	movs	r1, #2
1000312a:	4694      	mov	ip, r2
1000312c:	9b02      	ldr	r3, [sp, #8]
1000312e:	005b      	lsls	r3, r3, #1
10003130:	9302      	str	r3, [sp, #8]
10003132:	4443      	add	r3, r8
10003134:	4463      	add	r3, ip
10003136:	3320      	adds	r3, #32
10003138:	795a      	ldrb	r2, [r3, #5]
1000313a:	430a      	orrs	r2, r1
1000313c:	715a      	strb	r2, [r3, #5]
1000313e:	795a      	ldrb	r2, [r3, #5]
10003140:	4317      	orrs	r7, r2
10003142:	715f      	strb	r7, [r3, #5]
10003144:	e7c6      	b.n	100030d4 <tud_task+0x5f0>
10003146:	46c0      	nop			; (mov r8, r8)
10003148:	00000000 	.word	0x00000000
1000314c:	20001644 	.word	0x20001644
10003150:	10003b49 	.word	0x10003b49
10003154:	10004e40 	.word	0x10004e40
10003158:	20000bb0 	.word	0x20000bb0
1000315c:	10004e00 	.word	0x10004e00
	...
10003168:	1e50      	subs	r0, r2, #1
1000316a:	b2c0      	uxtb	r0, r0
1000316c:	f7ff f8a2 	bl	100022b4 <tud_descriptor_configuration_cb>
10003170:	2800      	cmp	r0, #0
10003172:	d100      	bne.n	10003176 <tud_task+0x692>
10003174:	e538      	b.n	10002be8 <tud_task+0x104>
10003176:	7843      	ldrb	r3, [r0, #1]
10003178:	2b02      	cmp	r3, #2
1000317a:	d000      	beq.n	1000317e <tud_task+0x69a>
1000317c:	e534      	b.n	10002be8 <tud_task+0x104>
1000317e:	2101      	movs	r1, #1
10003180:	79c2      	ldrb	r2, [r0, #7]
10003182:	0006      	movs	r6, r0
10003184:	1193      	asrs	r3, r2, #6
10003186:	1152      	asrs	r2, r2, #5
10003188:	400b      	ands	r3, r1
1000318a:	400a      	ands	r2, r1
1000318c:	0112      	lsls	r2, r2, #4
1000318e:	015b      	lsls	r3, r3, #5
10003190:	4313      	orrs	r3, r2
10003192:	4642      	mov	r2, r8
10003194:	7812      	ldrb	r2, [r2, #0]
10003196:	312f      	adds	r1, #47	; 0x2f
10003198:	438a      	bics	r2, r1
1000319a:	4313      	orrs	r3, r2
1000319c:	4642      	mov	r2, r8
1000319e:	7013      	strb	r3, [r2, #0]
100031a0:	78c3      	ldrb	r3, [r0, #3]
100031a2:	7882      	ldrb	r2, [r0, #2]
100031a4:	021b      	lsls	r3, r3, #8
100031a6:	4313      	orrs	r3, r2
100031a8:	18c3      	adds	r3, r0, r3
100031aa:	3609      	adds	r6, #9
100031ac:	9304      	str	r3, [sp, #16]
100031ae:	9b04      	ldr	r3, [sp, #16]
100031b0:	42b3      	cmp	r3, r6
100031b2:	d800      	bhi.n	100031b6 <tud_task+0x6d2>
100031b4:	e088      	b.n	100032c8 <tud_task+0x7e4>
100031b6:	2300      	movs	r3, #0
100031b8:	7872      	ldrb	r2, [r6, #1]
100031ba:	9302      	str	r3, [sp, #8]
100031bc:	2a0b      	cmp	r2, #11
100031be:	d104      	bne.n	100031ca <tud_task+0x6e6>
100031c0:	7833      	ldrb	r3, [r6, #0]
100031c2:	9602      	str	r6, [sp, #8]
100031c4:	18f3      	adds	r3, r6, r3
100031c6:	001e      	movs	r6, r3
100031c8:	785a      	ldrb	r2, [r3, #1]
100031ca:	2a04      	cmp	r2, #4
100031cc:	d000      	beq.n	100031d0 <tud_task+0x6ec>
100031ce:	e50b      	b.n	10002be8 <tud_task+0x104>
100031d0:	9b04      	ldr	r3, [sp, #16]
100031d2:	4a42      	ldr	r2, [pc, #264]	; (100032dc <tud_task+0x7f8>)
100031d4:	1b9b      	subs	r3, r3, r6
100031d6:	b29b      	uxth	r3, r3
100031d8:	9301      	str	r3, [sp, #4]
100031da:	4b41      	ldr	r3, [pc, #260]	; (100032e0 <tud_task+0x7fc>)
100031dc:	2400      	movs	r4, #0
100031de:	781b      	ldrb	r3, [r3, #0]
100031e0:	2a00      	cmp	r2, #0
100031e2:	d110      	bne.n	10003206 <tud_task+0x722>
100031e4:	e01c      	b.n	10003220 <tud_task+0x73c>
100031e6:	429c      	cmp	r4, r3
100031e8:	d126      	bne.n	10003238 <tud_task+0x754>
100031ea:	4b3e      	ldr	r3, [pc, #248]	; (100032e4 <tud_task+0x800>)
100031ec:	0031      	movs	r1, r6
100031ee:	4648      	mov	r0, r9
100031f0:	9a01      	ldr	r2, [sp, #4]
100031f2:	4798      	blx	r3
100031f4:	2800      	cmp	r0, #0
100031f6:	d122      	bne.n	1000323e <tud_task+0x75a>
100031f8:	4b39      	ldr	r3, [pc, #228]	; (100032e0 <tud_task+0x7fc>)
100031fa:	3401      	adds	r4, #1
100031fc:	781b      	ldrb	r3, [r3, #0]
100031fe:	b2e4      	uxtb	r4, r4
10003200:	42a3      	cmp	r3, r4
10003202:	d200      	bcs.n	10003206 <tud_task+0x722>
10003204:	e4f0      	b.n	10002be8 <tud_task+0x104>
10003206:	429c      	cmp	r4, r3
10003208:	d2ed      	bcs.n	100031e6 <tud_task+0x702>
1000320a:	4b37      	ldr	r3, [pc, #220]	; (100032e8 <tud_task+0x804>)
1000320c:	681b      	ldr	r3, [r3, #0]
1000320e:	9305      	str	r3, [sp, #20]
10003210:	9a05      	ldr	r2, [sp, #20]
10003212:	00e3      	lsls	r3, r4, #3
10003214:	4694      	mov	ip, r2
10003216:	1b1b      	subs	r3, r3, r4
10003218:	009b      	lsls	r3, r3, #2
1000321a:	4463      	add	r3, ip
1000321c:	689b      	ldr	r3, [r3, #8]
1000321e:	e7e5      	b.n	100031ec <tud_task+0x708>
10003220:	0031      	movs	r1, r6
10003222:	4648      	mov	r0, r9
10003224:	9a01      	ldr	r2, [sp, #4]
10003226:	f000 fc19 	bl	10003a5c <cdcd_open>
1000322a:	1e07      	subs	r7, r0, #0
1000322c:	d153      	bne.n	100032d6 <tud_task+0x7f2>
1000322e:	4b2c      	ldr	r3, [pc, #176]	; (100032e0 <tud_task+0x7fc>)
10003230:	781b      	ldrb	r3, [r3, #0]
10003232:	2b00      	cmp	r3, #0
10003234:	d100      	bne.n	10003238 <tud_task+0x754>
10003236:	e4d7      	b.n	10002be8 <tud_task+0x104>
10003238:	2300      	movs	r3, #0
1000323a:	689b      	ldr	r3, [r3, #8]
1000323c:	deff      	udf	#255	; 0xff
1000323e:	0007      	movs	r7, r0
10003240:	2f08      	cmp	r7, #8
10003242:	d800      	bhi.n	10003246 <tud_task+0x762>
10003244:	e4d0      	b.n	10002be8 <tud_task+0x104>
10003246:	9b01      	ldr	r3, [sp, #4]
10003248:	42bb      	cmp	r3, r7
1000324a:	d200      	bcs.n	1000324e <tud_task+0x76a>
1000324c:	e4cc      	b.n	10002be8 <tud_task+0x104>
1000324e:	4642      	mov	r2, r8
10003250:	78b3      	ldrb	r3, [r6, #2]
10003252:	18d2      	adds	r2, r2, r3
10003254:	78d1      	ldrb	r1, [r2, #3]
10003256:	29ff      	cmp	r1, #255	; 0xff
10003258:	d000      	beq.n	1000325c <tud_task+0x778>
1000325a:	e4c5      	b.n	10002be8 <tud_task+0x104>
1000325c:	70d4      	strb	r4, [r2, #3]
1000325e:	9a02      	ldr	r2, [sp, #8]
10003260:	2a00      	cmp	r2, #0
10003262:	d015      	beq.n	10003290 <tud_task+0x7ac>
10003264:	7891      	ldrb	r1, [r2, #2]
10003266:	0010      	movs	r0, r2
10003268:	4299      	cmp	r1, r3
1000326a:	d000      	beq.n	1000326e <tud_task+0x78a>
1000326c:	e4bc      	b.n	10002be8 <tud_task+0x104>
1000326e:	7912      	ldrb	r2, [r2, #4]
10003270:	7973      	ldrb	r3, [r6, #5]
10003272:	429a      	cmp	r2, r3
10003274:	d000      	beq.n	10003278 <tud_task+0x794>
10003276:	e4b7      	b.n	10002be8 <tud_task+0x104>
10003278:	78c2      	ldrb	r2, [r0, #3]
1000327a:	2a01      	cmp	r2, #1
1000327c:	d908      	bls.n	10003290 <tud_task+0x7ac>
1000327e:	3a02      	subs	r2, #2
10003280:	3104      	adds	r1, #4
10003282:	4441      	add	r1, r8
10003284:	b2d2      	uxtb	r2, r2
10003286:	0008      	movs	r0, r1
10003288:	3201      	adds	r2, #1
1000328a:	0021      	movs	r1, r4
1000328c:	f7fe fde6 	bl	10001e5c <__wrap_memset>
10003290:	217f      	movs	r1, #127	; 0x7f
10003292:	0032      	movs	r2, r6
10003294:	2300      	movs	r3, #0
10003296:	468c      	mov	ip, r1
10003298:	7851      	ldrb	r1, [r2, #1]
1000329a:	2905      	cmp	r1, #5
1000329c:	d107      	bne.n	100032ae <tud_task+0x7ca>
1000329e:	4661      	mov	r1, ip
100032a0:	7890      	ldrb	r0, [r2, #2]
100032a2:	4001      	ands	r1, r0
100032a4:	0049      	lsls	r1, r1, #1
100032a6:	4441      	add	r1, r8
100032a8:	3113      	adds	r1, #19
100032aa:	09c0      	lsrs	r0, r0, #7
100032ac:	540c      	strb	r4, [r1, r0]
100032ae:	7811      	ldrb	r1, [r2, #0]
100032b0:	185b      	adds	r3, r3, r1
100032b2:	b29b      	uxth	r3, r3
100032b4:	1852      	adds	r2, r2, r1
100032b6:	42bb      	cmp	r3, r7
100032b8:	d3ee      	bcc.n	10003298 <tud_task+0x7b4>
100032ba:	4b09      	ldr	r3, [pc, #36]	; (100032e0 <tud_task+0x7fc>)
100032bc:	19f6      	adds	r6, r6, r7
100032be:	781b      	ldrb	r3, [r3, #0]
100032c0:	42a3      	cmp	r3, r4
100032c2:	d300      	bcc.n	100032c6 <tud_task+0x7e2>
100032c4:	e773      	b.n	100031ae <tud_task+0x6ca>
100032c6:	e48f      	b.n	10002be8 <tud_task+0x104>
100032c8:	4b08      	ldr	r3, [pc, #32]	; (100032ec <tud_task+0x808>)
100032ca:	2b00      	cmp	r3, #0
100032cc:	d100      	bne.n	100032d0 <tud_task+0x7ec>
100032ce:	e67a      	b.n	10002fc6 <tud_task+0x4e2>
100032d0:	e000      	b.n	100032d4 <tud_task+0x7f0>
100032d2:	bf00      	nop
100032d4:	e677      	b.n	10002fc6 <tud_task+0x4e2>
100032d6:	4c01      	ldr	r4, [pc, #4]	; (100032dc <tud_task+0x7f8>)
100032d8:	e7b2      	b.n	10003240 <tud_task+0x75c>
100032da:	46c0      	nop			; (mov r8, r8)
100032dc:	00000000 	.word	0x00000000
100032e0:	20001644 	.word	0x20001644
100032e4:	10003a5d 	.word	0x10003a5d
100032e8:	20000bb0 	.word	0x20000bb0
100032ec:	00000000 	.word	0x00000000

100032f0 <dcd_event_bus_signal>:
100032f0:	b530      	push	{r4, r5, lr}
100032f2:	b085      	sub	sp, #20
100032f4:	0005      	movs	r5, r0
100032f6:	000c      	movs	r4, r1
100032f8:	220c      	movs	r2, #12
100032fa:	2100      	movs	r1, #0
100032fc:	a801      	add	r0, sp, #4
100032fe:	f7fe fdad 	bl	10001e5c <__wrap_memset>
10003302:	466b      	mov	r3, sp
10003304:	711d      	strb	r5, [r3, #4]
10003306:	715c      	strb	r4, [r3, #5]
10003308:	2c04      	cmp	r4, #4
1000330a:	d04b      	beq.n	100033a4 <dcd_event_bus_signal+0xb4>
1000330c:	d805      	bhi.n	1000331a <dcd_event_bus_signal+0x2a>
1000330e:	2c02      	cmp	r4, #2
10003310:	d030      	beq.n	10003374 <dcd_event_bus_signal+0x84>
10003312:	2c03      	cmp	r4, #3
10003314:	d124      	bne.n	10003360 <dcd_event_bus_signal+0x70>
10003316:	b005      	add	sp, #20
10003318:	bd30      	pop	{r4, r5, pc}
1000331a:	2c05      	cmp	r4, #5
1000331c:	d120      	bne.n	10003360 <dcd_event_bus_signal+0x70>
1000331e:	4b2a      	ldr	r3, [pc, #168]	; (100033c8 <dcd_event_bus_signal+0xd8>)
10003320:	781a      	ldrb	r2, [r3, #0]
10003322:	07d2      	lsls	r2, r2, #31
10003324:	d5f7      	bpl.n	10003316 <dcd_event_bus_signal+0x26>
10003326:	2104      	movs	r1, #4
10003328:	781a      	ldrb	r2, [r3, #0]
1000332a:	438a      	bics	r2, r1
1000332c:	701a      	strb	r2, [r3, #0]
1000332e:	4b27      	ldr	r3, [pc, #156]	; (100033cc <dcd_event_bus_signal+0xdc>)
10003330:	681c      	ldr	r4, [r3, #0]
10003332:	69a2      	ldr	r2, [r4, #24]
10003334:	f3ef 8110 	mrs	r1, PRIMASK
10003338:	b672      	cpsid	i
1000333a:	6813      	ldr	r3, [r2, #0]
1000333c:	2b00      	cmp	r3, #0
1000333e:	d0fc      	beq.n	1000333a <dcd_event_bus_signal+0x4a>
10003340:	f3bf 8f5f 	dmb	sy
10003344:	61e1      	str	r1, [r4, #28]
10003346:	0020      	movs	r0, r4
10003348:	a901      	add	r1, sp, #4
1000334a:	f000 fe65 	bl	10004018 <tu_fifo_write>
1000334e:	69a2      	ldr	r2, [r4, #24]
10003350:	69e3      	ldr	r3, [r4, #28]
10003352:	f3bf 8f5f 	dmb	sy
10003356:	2100      	movs	r1, #0
10003358:	6011      	str	r1, [r2, #0]
1000335a:	f383 8810 	msr	PRIMASK, r3
1000335e:	e7da      	b.n	10003316 <dcd_event_bus_signal+0x26>
10003360:	4b1a      	ldr	r3, [pc, #104]	; (100033cc <dcd_event_bus_signal+0xdc>)
10003362:	681c      	ldr	r4, [r3, #0]
10003364:	69a2      	ldr	r2, [r4, #24]
10003366:	f3ef 8110 	mrs	r1, PRIMASK
1000336a:	b672      	cpsid	i
1000336c:	6813      	ldr	r3, [r2, #0]
1000336e:	2b00      	cmp	r3, #0
10003370:	d1e6      	bne.n	10003340 <dcd_event_bus_signal+0x50>
10003372:	e7fb      	b.n	1000336c <dcd_event_bus_signal+0x7c>
10003374:	2101      	movs	r1, #1
10003376:	4b14      	ldr	r3, [pc, #80]	; (100033c8 <dcd_event_bus_signal+0xd8>)
10003378:	781a      	ldrb	r2, [r3, #0]
1000337a:	438a      	bics	r2, r1
1000337c:	701a      	strb	r2, [r3, #0]
1000337e:	781a      	ldrb	r2, [r3, #0]
10003380:	3103      	adds	r1, #3
10003382:	43a2      	bics	r2, r4
10003384:	701a      	strb	r2, [r3, #0]
10003386:	2200      	movs	r2, #0
10003388:	705a      	strb	r2, [r3, #1]
1000338a:	781a      	ldrb	r2, [r3, #0]
1000338c:	438a      	bics	r2, r1
1000338e:	701a      	strb	r2, [r3, #0]
10003390:	4b0e      	ldr	r3, [pc, #56]	; (100033cc <dcd_event_bus_signal+0xdc>)
10003392:	681c      	ldr	r4, [r3, #0]
10003394:	69a2      	ldr	r2, [r4, #24]
10003396:	f3ef 8110 	mrs	r1, PRIMASK
1000339a:	b672      	cpsid	i
1000339c:	6813      	ldr	r3, [r2, #0]
1000339e:	2b00      	cmp	r3, #0
100033a0:	d1ce      	bne.n	10003340 <dcd_event_bus_signal+0x50>
100033a2:	e7fb      	b.n	1000339c <dcd_event_bus_signal+0xac>
100033a4:	4b08      	ldr	r3, [pc, #32]	; (100033c8 <dcd_event_bus_signal+0xd8>)
100033a6:	781a      	ldrb	r2, [r3, #0]
100033a8:	07d2      	lsls	r2, r2, #31
100033aa:	d5b4      	bpl.n	10003316 <dcd_event_bus_signal+0x26>
100033ac:	2104      	movs	r1, #4
100033ae:	781a      	ldrb	r2, [r3, #0]
100033b0:	430a      	orrs	r2, r1
100033b2:	701a      	strb	r2, [r3, #0]
100033b4:	4b05      	ldr	r3, [pc, #20]	; (100033cc <dcd_event_bus_signal+0xdc>)
100033b6:	681c      	ldr	r4, [r3, #0]
100033b8:	69a2      	ldr	r2, [r4, #24]
100033ba:	f3ef 8110 	mrs	r1, PRIMASK
100033be:	b672      	cpsid	i
100033c0:	6813      	ldr	r3, [r2, #0]
100033c2:	2b00      	cmp	r3, #0
100033c4:	d1bc      	bne.n	10003340 <dcd_event_bus_signal+0x50>
100033c6:	e7fb      	b.n	100033c0 <dcd_event_bus_signal+0xd0>
100033c8:	20000ee0 	.word	0x20000ee0
100033cc:	20000f1c 	.word	0x20000f1c

100033d0 <dcd_event_setup_received>:
100033d0:	2300      	movs	r3, #0
100033d2:	b530      	push	{r4, r5, lr}
100033d4:	b085      	sub	sp, #20
100033d6:	ad01      	add	r5, sp, #4
100033d8:	806b      	strh	r3, [r5, #2]
100033da:	7028      	strb	r0, [r5, #0]
100033dc:	3306      	adds	r3, #6
100033de:	2208      	movs	r2, #8
100033e0:	a802      	add	r0, sp, #8
100033e2:	706b      	strb	r3, [r5, #1]
100033e4:	f7fe fd40 	bl	10001e68 <__wrap___aeabi_memcpy>
100033e8:	4b0c      	ldr	r3, [pc, #48]	; (1000341c <dcd_event_setup_received+0x4c>)
100033ea:	681c      	ldr	r4, [r3, #0]
100033ec:	69a2      	ldr	r2, [r4, #24]
100033ee:	f3ef 8310 	mrs	r3, PRIMASK
100033f2:	b672      	cpsid	i
100033f4:	6811      	ldr	r1, [r2, #0]
100033f6:	2900      	cmp	r1, #0
100033f8:	d0fc      	beq.n	100033f4 <dcd_event_setup_received+0x24>
100033fa:	f3bf 8f5f 	dmb	sy
100033fe:	61e3      	str	r3, [r4, #28]
10003400:	0029      	movs	r1, r5
10003402:	0020      	movs	r0, r4
10003404:	f000 fe08 	bl	10004018 <tu_fifo_write>
10003408:	69a2      	ldr	r2, [r4, #24]
1000340a:	69e3      	ldr	r3, [r4, #28]
1000340c:	f3bf 8f5f 	dmb	sy
10003410:	2100      	movs	r1, #0
10003412:	6011      	str	r1, [r2, #0]
10003414:	f383 8810 	msr	PRIMASK, r3
10003418:	b005      	add	sp, #20
1000341a:	bd30      	pop	{r4, r5, pc}
1000341c:	20000f1c 	.word	0x20000f1c

10003420 <dcd_event_xfer_complete>:
10003420:	b5f0      	push	{r4, r5, r6, r7, lr}
10003422:	46c6      	mov	lr, r8
10003424:	4680      	mov	r8, r0
10003426:	b500      	push	{lr}
10003428:	b084      	sub	sp, #16
1000342a:	ac01      	add	r4, sp, #4
1000342c:	000f      	movs	r7, r1
1000342e:	0016      	movs	r6, r2
10003430:	2100      	movs	r1, #0
10003432:	2208      	movs	r2, #8
10003434:	0020      	movs	r0, r4
10003436:	001d      	movs	r5, r3
10003438:	f7fe fd10 	bl	10001e5c <__wrap_memset>
1000343c:	4643      	mov	r3, r8
1000343e:	7023      	strb	r3, [r4, #0]
10003440:	2307      	movs	r3, #7
10003442:	7063      	strb	r3, [r4, #1]
10003444:	4b0f      	ldr	r3, [pc, #60]	; (10003484 <dcd_event_xfer_complete+0x64>)
10003446:	7165      	strb	r5, [r4, #5]
10003448:	681d      	ldr	r5, [r3, #0]
1000344a:	7127      	strb	r7, [r4, #4]
1000344c:	60a6      	str	r6, [r4, #8]
1000344e:	69aa      	ldr	r2, [r5, #24]
10003450:	f3ef 8310 	mrs	r3, PRIMASK
10003454:	b672      	cpsid	i
10003456:	6811      	ldr	r1, [r2, #0]
10003458:	2900      	cmp	r1, #0
1000345a:	d0fc      	beq.n	10003456 <dcd_event_xfer_complete+0x36>
1000345c:	f3bf 8f5f 	dmb	sy
10003460:	61eb      	str	r3, [r5, #28]
10003462:	0021      	movs	r1, r4
10003464:	0028      	movs	r0, r5
10003466:	f000 fdd7 	bl	10004018 <tu_fifo_write>
1000346a:	69aa      	ldr	r2, [r5, #24]
1000346c:	69eb      	ldr	r3, [r5, #28]
1000346e:	f3bf 8f5f 	dmb	sy
10003472:	2100      	movs	r1, #0
10003474:	6011      	str	r1, [r2, #0]
10003476:	f383 8810 	msr	PRIMASK, r3
1000347a:	b004      	add	sp, #16
1000347c:	bc04      	pop	{r2}
1000347e:	4690      	mov	r8, r2
10003480:	bdf0      	pop	{r4, r5, r6, r7, pc}
10003482:	46c0      	nop			; (mov r8, r8)
10003484:	20000f1c 	.word	0x20000f1c

10003488 <usbd_open_edpt_pair>:
10003488:	b5f8      	push	{r3, r4, r5, r6, r7, lr}
1000348a:	4647      	mov	r7, r8
1000348c:	46d6      	mov	lr, sl
1000348e:	b580      	push	{r7, lr}
10003490:	4698      	mov	r8, r3
10003492:	9b08      	ldr	r3, [sp, #32]
10003494:	0006      	movs	r6, r0
10003496:	000c      	movs	r4, r1
10003498:	1e17      	subs	r7, r2, #0
1000349a:	469a      	mov	sl, r3
1000349c:	d021      	beq.n	100034e2 <usbd_open_edpt_pair+0x5a>
1000349e:	2500      	movs	r5, #0
100034a0:	e006      	b.n	100034b0 <usbd_open_edpt_pair+0x28>
100034a2:	4652      	mov	r2, sl
100034a4:	7013      	strb	r3, [r2, #0]
100034a6:	7823      	ldrb	r3, [r4, #0]
100034a8:	3501      	adds	r5, #1
100034aa:	18e4      	adds	r4, r4, r3
100034ac:	42bd      	cmp	r5, r7
100034ae:	da18      	bge.n	100034e2 <usbd_open_edpt_pair+0x5a>
100034b0:	7863      	ldrb	r3, [r4, #1]
100034b2:	2b05      	cmp	r3, #5
100034b4:	d117      	bne.n	100034e6 <usbd_open_edpt_pair+0x5e>
100034b6:	78e1      	ldrb	r1, [r4, #3]
100034b8:	0789      	lsls	r1, r1, #30
100034ba:	0f89      	lsrs	r1, r1, #30
100034bc:	4541      	cmp	r1, r8
100034be:	d112      	bne.n	100034e6 <usbd_open_edpt_pair+0x5e>
100034c0:	0021      	movs	r1, r4
100034c2:	0030      	movs	r0, r6
100034c4:	f7ff f85a 	bl	1000257c <dcd_edpt_open>
100034c8:	2800      	cmp	r0, #0
100034ca:	d00c      	beq.n	100034e6 <usbd_open_edpt_pair+0x5e>
100034cc:	78a3      	ldrb	r3, [r4, #2]
100034ce:	09da      	lsrs	r2, r3, #7
100034d0:	2a01      	cmp	r2, #1
100034d2:	d1e6      	bne.n	100034a2 <usbd_open_edpt_pair+0x1a>
100034d4:	9a09      	ldr	r2, [sp, #36]	; 0x24
100034d6:	3501      	adds	r5, #1
100034d8:	7013      	strb	r3, [r2, #0]
100034da:	7823      	ldrb	r3, [r4, #0]
100034dc:	18e4      	adds	r4, r4, r3
100034de:	42bd      	cmp	r5, r7
100034e0:	dbe6      	blt.n	100034b0 <usbd_open_edpt_pair+0x28>
100034e2:	2001      	movs	r0, #1
100034e4:	e000      	b.n	100034e8 <usbd_open_edpt_pair+0x60>
100034e6:	2000      	movs	r0, #0
100034e8:	bc0c      	pop	{r2, r3}
100034ea:	4690      	mov	r8, r2
100034ec:	469a      	mov	sl, r3
100034ee:	bdf8      	pop	{r3, r4, r5, r6, r7, pc}

100034f0 <usbd_edpt_open>:
100034f0:	b510      	push	{r4, lr}
100034f2:	f7ff f843 	bl	1000257c <dcd_edpt_open>
100034f6:	bd10      	pop	{r4, pc}

100034f8 <usbd_edpt_claim>:
100034f8:	b570      	push	{r4, r5, r6, lr}
100034fa:	247f      	movs	r4, #127	; 0x7f
100034fc:	400c      	ands	r4, r1
100034fe:	0063      	lsls	r3, r4, #1
10003500:	4c14      	ldr	r4, [pc, #80]	; (10003554 <usbd_edpt_claim+0x5c>)
10003502:	09c9      	lsrs	r1, r1, #7
10003504:	18e4      	adds	r4, r4, r3
10003506:	1864      	adds	r4, r4, r1
10003508:	3420      	adds	r4, #32
1000350a:	7963      	ldrb	r3, [r4, #5]
1000350c:	07db      	lsls	r3, r3, #31
1000350e:	0fdd      	lsrs	r5, r3, #31
10003510:	2b00      	cmp	r3, #0
10003512:	d118      	bne.n	10003546 <usbd_edpt_claim+0x4e>
10003514:	7963      	ldrb	r3, [r4, #5]
10003516:	075b      	lsls	r3, r3, #29
10003518:	d501      	bpl.n	1000351e <usbd_edpt_claim+0x26>
1000351a:	0028      	movs	r0, r5
1000351c:	bd70      	pop	{r4, r5, r6, pc}
1000351e:	2101      	movs	r1, #1
10003520:	4e0d      	ldr	r6, [pc, #52]	; (10003558 <usbd_edpt_claim+0x60>)
10003522:	4249      	negs	r1, r1
10003524:	6830      	ldr	r0, [r6, #0]
10003526:	f001 faef 	bl	10004b08 <__mutex_enter_timeout_ms_veneer>
1000352a:	7963      	ldrb	r3, [r4, #5]
1000352c:	07db      	lsls	r3, r3, #31
1000352e:	0fdd      	lsrs	r5, r3, #31
10003530:	2b00      	cmp	r3, #0
10003532:	d10a      	bne.n	1000354a <usbd_edpt_claim+0x52>
10003534:	7963      	ldrb	r3, [r4, #5]
10003536:	075b      	lsls	r3, r3, #29
10003538:	d408      	bmi.n	1000354c <usbd_edpt_claim+0x54>
1000353a:	2204      	movs	r2, #4
1000353c:	7963      	ldrb	r3, [r4, #5]
1000353e:	2501      	movs	r5, #1
10003540:	4313      	orrs	r3, r2
10003542:	7163      	strb	r3, [r4, #5]
10003544:	e002      	b.n	1000354c <usbd_edpt_claim+0x54>
10003546:	2500      	movs	r5, #0
10003548:	e7e7      	b.n	1000351a <usbd_edpt_claim+0x22>
1000354a:	2500      	movs	r5, #0
1000354c:	6830      	ldr	r0, [r6, #0]
1000354e:	f001 fac3 	bl	10004ad8 <__mutex_exit_veneer>
10003552:	e7e2      	b.n	1000351a <usbd_edpt_claim+0x22>
10003554:	20000ee0 	.word	0x20000ee0
10003558:	20000f18 	.word	0x20000f18

1000355c <usbd_edpt_release>:
1000355c:	b570      	push	{r4, r5, r6, lr}
1000355e:	000c      	movs	r4, r1
10003560:	2101      	movs	r1, #1
10003562:	4d0f      	ldr	r5, [pc, #60]	; (100035a0 <usbd_edpt_release+0x44>)
10003564:	4249      	negs	r1, r1
10003566:	6828      	ldr	r0, [r5, #0]
10003568:	f001 face 	bl	10004b08 <__mutex_enter_timeout_ms_veneer>
1000356c:	217f      	movs	r1, #127	; 0x7f
1000356e:	4021      	ands	r1, r4
10003570:	004b      	lsls	r3, r1, #1
10003572:	490c      	ldr	r1, [pc, #48]	; (100035a4 <usbd_edpt_release+0x48>)
10003574:	09e4      	lsrs	r4, r4, #7
10003576:	18c9      	adds	r1, r1, r3
10003578:	1909      	adds	r1, r1, r4
1000357a:	3120      	adds	r1, #32
1000357c:	794b      	ldrb	r3, [r1, #5]
1000357e:	2400      	movs	r4, #0
10003580:	07db      	lsls	r3, r3, #31
10003582:	d408      	bmi.n	10003596 <usbd_edpt_release+0x3a>
10003584:	794b      	ldrb	r3, [r1, #5]
10003586:	075b      	lsls	r3, r3, #29
10003588:	0fdc      	lsrs	r4, r3, #31
1000358a:	2b00      	cmp	r3, #0
1000358c:	da03      	bge.n	10003596 <usbd_edpt_release+0x3a>
1000358e:	2204      	movs	r2, #4
10003590:	794b      	ldrb	r3, [r1, #5]
10003592:	4393      	bics	r3, r2
10003594:	714b      	strb	r3, [r1, #5]
10003596:	6828      	ldr	r0, [r5, #0]
10003598:	f001 fa9e 	bl	10004ad8 <__mutex_exit_veneer>
1000359c:	0020      	movs	r0, r4
1000359e:	bd70      	pop	{r4, r5, r6, pc}
100035a0:	20000f18 	.word	0x20000f18
100035a4:	20000ee0 	.word	0x20000ee0

100035a8 <usbd_edpt_xfer>:
100035a8:	b570      	push	{r4, r5, r6, lr}
100035aa:	247f      	movs	r4, #127	; 0x7f
100035ac:	400c      	ands	r4, r1
100035ae:	0065      	lsls	r5, r4, #1
100035b0:	4c0e      	ldr	r4, [pc, #56]	; (100035ec <usbd_edpt_xfer+0x44>)
100035b2:	0006      	movs	r6, r0
100035b4:	1964      	adds	r4, r4, r5
100035b6:	09c8      	lsrs	r0, r1, #7
100035b8:	1824      	adds	r4, r4, r0
100035ba:	3420      	adds	r4, #32
100035bc:	7965      	ldrb	r5, [r4, #5]
100035be:	2000      	movs	r0, #0
100035c0:	07ed      	lsls	r5, r5, #31
100035c2:	d500      	bpl.n	100035c6 <usbd_edpt_xfer+0x1e>
100035c4:	bd70      	pop	{r4, r5, r6, pc}
100035c6:	2501      	movs	r5, #1
100035c8:	7960      	ldrb	r0, [r4, #5]
100035ca:	4328      	orrs	r0, r5
100035cc:	7160      	strb	r0, [r4, #5]
100035ce:	0030      	movs	r0, r6
100035d0:	f7ff f878 	bl	100026c4 <dcd_edpt_xfer>
100035d4:	2800      	cmp	r0, #0
100035d6:	d1f5      	bne.n	100035c4 <usbd_edpt_xfer+0x1c>
100035d8:	2201      	movs	r2, #1
100035da:	7963      	ldrb	r3, [r4, #5]
100035dc:	4393      	bics	r3, r2
100035de:	7163      	strb	r3, [r4, #5]
100035e0:	7963      	ldrb	r3, [r4, #5]
100035e2:	3203      	adds	r2, #3
100035e4:	4393      	bics	r3, r2
100035e6:	7163      	strb	r3, [r4, #5]
100035e8:	e7ec      	b.n	100035c4 <usbd_edpt_xfer+0x1c>
100035ea:	46c0      	nop			; (mov r8, r8)
100035ec:	20000ee0 	.word	0x20000ee0

100035f0 <tud_control_status>:
100035f0:	b570      	push	{r4, r5, r6, lr}
100035f2:	4e0a      	ldr	r6, [pc, #40]	; (1000361c <tud_control_status+0x2c>)
100035f4:	0005      	movs	r5, r0
100035f6:	2208      	movs	r2, #8
100035f8:	0030      	movs	r0, r6
100035fa:	000c      	movs	r4, r1
100035fc:	f7fe fc34 	bl	10001e68 <__wrap___aeabi_memcpy>
10003600:	2100      	movs	r1, #0
10003602:	5661      	ldrsb	r1, [r4, r1]
10003604:	2300      	movs	r3, #0
10003606:	43c9      	mvns	r1, r1
10003608:	0fc9      	lsrs	r1, r1, #31
1000360a:	0028      	movs	r0, r5
1000360c:	60f3      	str	r3, [r6, #12]
1000360e:	2200      	movs	r2, #0
10003610:	01c9      	lsls	r1, r1, #7
10003612:	60b3      	str	r3, [r6, #8]
10003614:	f7ff f856 	bl	100026c4 <dcd_edpt_xfer>
10003618:	bd70      	pop	{r4, r5, r6, pc}
1000361a:	46c0      	nop			; (mov r8, r8)
1000361c:	20000e84 	.word	0x20000e84

10003620 <tud_control_xfer>:
10003620:	b5f8      	push	{r3, r4, r5, r6, r7, lr}
10003622:	46ce      	mov	lr, r9
10003624:	4647      	mov	r7, r8
10003626:	4690      	mov	r8, r2
10003628:	4e29      	ldr	r6, [pc, #164]	; (100036d0 <tud_control_xfer+0xb0>)
1000362a:	b580      	push	{r7, lr}
1000362c:	4681      	mov	r9, r0
1000362e:	2208      	movs	r2, #8
10003630:	0030      	movs	r0, r6
10003632:	000d      	movs	r5, r1
10003634:	001f      	movs	r7, r3
10003636:	f7fe fc17 	bl	10001e68 <__wrap___aeabi_memcpy>
1000363a:	4643      	mov	r3, r8
1000363c:	60b3      	str	r3, [r6, #8]
1000363e:	2300      	movs	r3, #0
10003640:	81f3      	strh	r3, [r6, #14]
10003642:	79ec      	ldrb	r4, [r5, #7]
10003644:	79ab      	ldrb	r3, [r5, #6]
10003646:	0224      	lsls	r4, r4, #8
10003648:	431c      	orrs	r4, r3
1000364a:	1c23      	adds	r3, r4, #0
1000364c:	42bc      	cmp	r4, r7
1000364e:	d900      	bls.n	10003652 <tud_control_xfer+0x32>
10003650:	1c3b      	adds	r3, r7, #0
10003652:	b29f      	uxth	r7, r3
10003654:	81b3      	strh	r3, [r6, #12]
10003656:	2c00      	cmp	r4, #0
10003658:	d012      	beq.n	10003680 <tud_control_xfer+0x60>
1000365a:	2f00      	cmp	r7, #0
1000365c:	d01e      	beq.n	1000369c <tud_control_xfer+0x7c>
1000365e:	4643      	mov	r3, r8
10003660:	2b00      	cmp	r3, #0
10003662:	d032      	beq.n	100036ca <tud_control_xfer+0xaa>
10003664:	1c3b      	adds	r3, r7, #0
10003666:	2f40      	cmp	r7, #64	; 0x40
10003668:	d81e      	bhi.n	100036a8 <tud_control_xfer+0x88>
1000366a:	b29f      	uxth	r7, r3
1000366c:	7833      	ldrb	r3, [r6, #0]
1000366e:	2b7f      	cmp	r3, #127	; 0x7f
10003670:	d81f      	bhi.n	100036b2 <tud_control_xfer+0x92>
10003672:	2100      	movs	r1, #0
10003674:	4a17      	ldr	r2, [pc, #92]	; (100036d4 <tud_control_xfer+0xb4>)
10003676:	003b      	movs	r3, r7
10003678:	4648      	mov	r0, r9
1000367a:	f7ff f823 	bl	100026c4 <dcd_edpt_xfer>
1000367e:	e009      	b.n	10003694 <tud_control_xfer+0x74>
10003680:	2100      	movs	r1, #0
10003682:	5669      	ldrsb	r1, [r5, r1]
10003684:	2300      	movs	r3, #0
10003686:	43c9      	mvns	r1, r1
10003688:	0fc9      	lsrs	r1, r1, #31
1000368a:	2200      	movs	r2, #0
1000368c:	4648      	mov	r0, r9
1000368e:	01c9      	lsls	r1, r1, #7
10003690:	f7ff f818 	bl	100026c4 <dcd_edpt_xfer>
10003694:	bc0c      	pop	{r2, r3}
10003696:	4690      	mov	r8, r2
10003698:	4699      	mov	r9, r3
1000369a:	bdf8      	pop	{r3, r4, r5, r6, r7, pc}
1000369c:	7833      	ldrb	r3, [r6, #0]
1000369e:	2b7f      	cmp	r3, #127	; 0x7f
100036a0:	d910      	bls.n	100036c4 <tud_control_xfer+0xa4>
100036a2:	2180      	movs	r1, #128	; 0x80
100036a4:	2200      	movs	r2, #0
100036a6:	e7e6      	b.n	10003676 <tud_control_xfer+0x56>
100036a8:	2340      	movs	r3, #64	; 0x40
100036aa:	b29f      	uxth	r7, r3
100036ac:	7833      	ldrb	r3, [r6, #0]
100036ae:	2b7f      	cmp	r3, #127	; 0x7f
100036b0:	d9df      	bls.n	10003672 <tud_control_xfer+0x52>
100036b2:	4c08      	ldr	r4, [pc, #32]	; (100036d4 <tud_control_xfer+0xb4>)
100036b4:	003a      	movs	r2, r7
100036b6:	4641      	mov	r1, r8
100036b8:	0020      	movs	r0, r4
100036ba:	f7fe fbd5 	bl	10001e68 <__wrap___aeabi_memcpy>
100036be:	2180      	movs	r1, #128	; 0x80
100036c0:	0022      	movs	r2, r4
100036c2:	e7d8      	b.n	10003676 <tud_control_xfer+0x56>
100036c4:	2100      	movs	r1, #0
100036c6:	2200      	movs	r2, #0
100036c8:	e7d5      	b.n	10003676 <tud_control_xfer+0x56>
100036ca:	2000      	movs	r0, #0
100036cc:	e7e2      	b.n	10003694 <tud_control_xfer+0x74>
100036ce:	46c0      	nop			; (mov r8, r8)
100036d0:	20000e84 	.word	0x20000e84
100036d4:	20000ea0 	.word	0x20000ea0

100036d8 <usbd_control_reset>:
100036d8:	b510      	push	{r4, lr}
100036da:	2214      	movs	r2, #20
100036dc:	2100      	movs	r1, #0
100036de:	4802      	ldr	r0, [pc, #8]	; (100036e8 <usbd_control_reset+0x10>)
100036e0:	f7fe fbbc 	bl	10001e5c <__wrap_memset>
100036e4:	bd10      	pop	{r4, pc}
100036e6:	46c0      	nop			; (mov r8, r8)
100036e8:	20000e84 	.word	0x20000e84

100036ec <usbd_control_set_complete_callback>:
100036ec:	4b01      	ldr	r3, [pc, #4]	; (100036f4 <usbd_control_set_complete_callback+0x8>)
100036ee:	6118      	str	r0, [r3, #16]
100036f0:	4770      	bx	lr
100036f2:	46c0      	nop			; (mov r8, r8)
100036f4:	20000e84 	.word	0x20000e84

100036f8 <usbd_control_set_request>:
100036f8:	b510      	push	{r4, lr}
100036fa:	4c05      	ldr	r4, [pc, #20]	; (10003710 <usbd_control_set_request+0x18>)
100036fc:	0001      	movs	r1, r0
100036fe:	2208      	movs	r2, #8
10003700:	0020      	movs	r0, r4
10003702:	f7fe fbb1 	bl	10001e68 <__wrap___aeabi_memcpy>
10003706:	2300      	movs	r3, #0
10003708:	60a3      	str	r3, [r4, #8]
1000370a:	60e3      	str	r3, [r4, #12]
1000370c:	bd10      	pop	{r4, pc}
1000370e:	46c0      	nop			; (mov r8, r8)
10003710:	20000e84 	.word	0x20000e84

10003714 <usbd_control_xfer_cb>:
10003714:	b5f8      	push	{r3, r4, r5, r6, r7, lr}
10003716:	4d36      	ldr	r5, [pc, #216]	; (100037f0 <usbd_control_xfer_cb+0xdc>)
10003718:	001c      	movs	r4, r3
1000371a:	782b      	ldrb	r3, [r5, #0]
1000371c:	0006      	movs	r6, r0
1000371e:	09da      	lsrs	r2, r3, #7
10003720:	09c9      	lsrs	r1, r1, #7
10003722:	428a      	cmp	r2, r1
10003724:	d00c      	beq.n	10003740 <usbd_control_xfer_cb+0x2c>
10003726:	2700      	movs	r7, #0
10003728:	2c00      	cmp	r4, #0
1000372a:	d001      	beq.n	10003730 <usbd_control_xfer_cb+0x1c>
1000372c:	0038      	movs	r0, r7
1000372e:	bdf8      	pop	{r3, r4, r5, r6, r7, pc}
10003730:	4b30      	ldr	r3, [pc, #192]	; (100037f4 <usbd_control_xfer_cb+0xe0>)
10003732:	3701      	adds	r7, #1
10003734:	2b00      	cmp	r3, #0
10003736:	d0f9      	beq.n	1000372c <usbd_control_xfer_cb+0x18>
10003738:	0029      	movs	r1, r5
1000373a:	f7fe ff03 	bl	10002544 <dcd_edpt0_status_complete>
1000373e:	e7f5      	b.n	1000372c <usbd_control_xfer_cb+0x18>
10003740:	2b7f      	cmp	r3, #127	; 0x7f
10003742:	d806      	bhi.n	10003752 <usbd_control_xfer_cb+0x3e>
10003744:	68a8      	ldr	r0, [r5, #8]
10003746:	2800      	cmp	r0, #0
10003748:	d037      	beq.n	100037ba <usbd_control_xfer_cb+0xa6>
1000374a:	0022      	movs	r2, r4
1000374c:	492a      	ldr	r1, [pc, #168]	; (100037f8 <usbd_control_xfer_cb+0xe4>)
1000374e:	f7fe fb8b 	bl	10001e68 <__wrap___aeabi_memcpy>
10003752:	68ab      	ldr	r3, [r5, #8]
10003754:	89ea      	ldrh	r2, [r5, #14]
10003756:	1919      	adds	r1, r3, r4
10003758:	1912      	adds	r2, r2, r4
1000375a:	88eb      	ldrh	r3, [r5, #6]
1000375c:	b292      	uxth	r2, r2
1000375e:	81ea      	strh	r2, [r5, #14]
10003760:	60a9      	str	r1, [r5, #8]
10003762:	4293      	cmp	r3, r2
10003764:	d015      	beq.n	10003792 <usbd_control_xfer_cb+0x7e>
10003766:	2c3f      	cmp	r4, #63	; 0x3f
10003768:	d913      	bls.n	10003792 <usbd_control_xfer_cb+0x7e>
1000376a:	89ac      	ldrh	r4, [r5, #12]
1000376c:	1aa0      	subs	r0, r4, r2
1000376e:	1c07      	adds	r7, r0, #0
10003770:	b280      	uxth	r0, r0
10003772:	2840      	cmp	r0, #64	; 0x40
10003774:	d82d      	bhi.n	100037d2 <usbd_control_xfer_cb+0xbe>
10003776:	782b      	ldrb	r3, [r5, #0]
10003778:	b2bf      	uxth	r7, r7
1000377a:	2b7f      	cmp	r3, #127	; 0x7f
1000377c:	d82b      	bhi.n	100037d6 <usbd_control_xfer_cb+0xc2>
1000377e:	2100      	movs	r1, #0
10003780:	42a2      	cmp	r2, r4
10003782:	d033      	beq.n	100037ec <usbd_control_xfer_cb+0xd8>
10003784:	4a1c      	ldr	r2, [pc, #112]	; (100037f8 <usbd_control_xfer_cb+0xe4>)
10003786:	003b      	movs	r3, r7
10003788:	0030      	movs	r0, r6
1000378a:	f7fe ff9b 	bl	100026c4 <dcd_edpt_xfer>
1000378e:	0007      	movs	r7, r0
10003790:	e7cc      	b.n	1000372c <usbd_control_xfer_cb+0x18>
10003792:	692b      	ldr	r3, [r5, #16]
10003794:	2b00      	cmp	r3, #0
10003796:	d004      	beq.n	100037a2 <usbd_control_xfer_cb+0x8e>
10003798:	0029      	movs	r1, r5
1000379a:	0030      	movs	r0, r6
1000379c:	4798      	blx	r3
1000379e:	2800      	cmp	r0, #0
100037a0:	d00d      	beq.n	100037be <usbd_control_xfer_cb+0xaa>
100037a2:	2100      	movs	r1, #0
100037a4:	5669      	ldrsb	r1, [r5, r1]
100037a6:	2300      	movs	r3, #0
100037a8:	43c9      	mvns	r1, r1
100037aa:	0fc9      	lsrs	r1, r1, #31
100037ac:	2200      	movs	r2, #0
100037ae:	0030      	movs	r0, r6
100037b0:	01c9      	lsls	r1, r1, #7
100037b2:	f7fe ff87 	bl	100026c4 <dcd_edpt_xfer>
100037b6:	0007      	movs	r7, r0
100037b8:	e7b8      	b.n	1000372c <usbd_control_xfer_cb+0x18>
100037ba:	2700      	movs	r7, #0
100037bc:	e7b6      	b.n	1000372c <usbd_control_xfer_cb+0x18>
100037be:	2100      	movs	r1, #0
100037c0:	0030      	movs	r0, r6
100037c2:	f7fe ff95 	bl	100026f0 <dcd_edpt_stall>
100037c6:	2180      	movs	r1, #128	; 0x80
100037c8:	0030      	movs	r0, r6
100037ca:	f7fe ff91 	bl	100026f0 <dcd_edpt_stall>
100037ce:	2701      	movs	r7, #1
100037d0:	e7ac      	b.n	1000372c <usbd_control_xfer_cb+0x18>
100037d2:	2740      	movs	r7, #64	; 0x40
100037d4:	e7cf      	b.n	10003776 <usbd_control_xfer_cb+0x62>
100037d6:	42a2      	cmp	r2, r4
100037d8:	d007      	beq.n	100037ea <usbd_control_xfer_cb+0xd6>
100037da:	4c07      	ldr	r4, [pc, #28]	; (100037f8 <usbd_control_xfer_cb+0xe4>)
100037dc:	003a      	movs	r2, r7
100037de:	0020      	movs	r0, r4
100037e0:	f7fe fb42 	bl	10001e68 <__wrap___aeabi_memcpy>
100037e4:	2180      	movs	r1, #128	; 0x80
100037e6:	0022      	movs	r2, r4
100037e8:	e7cd      	b.n	10003786 <usbd_control_xfer_cb+0x72>
100037ea:	2180      	movs	r1, #128	; 0x80
100037ec:	2200      	movs	r2, #0
100037ee:	e7ca      	b.n	10003786 <usbd_control_xfer_cb+0x72>
100037f0:	20000e84 	.word	0x20000e84
100037f4:	10002545 	.word	0x10002545
100037f8:	20000ea0 	.word	0x20000ea0

100037fc <tud_cdc_n_connected>:
100037fc:	b510      	push	{r4, lr}
100037fe:	0004      	movs	r4, r0
10003800:	f7ff f908 	bl	10002a14 <tud_mounted>
10003804:	2800      	cmp	r0, #0
10003806:	d101      	bne.n	1000380c <tud_cdc_n_connected+0x10>
10003808:	2000      	movs	r0, #0
1000380a:	bd10      	pop	{r4, pc}
1000380c:	f7ff f90a 	bl	10002a24 <tud_suspended>
10003810:	2800      	cmp	r0, #0
10003812:	d1f9      	bne.n	10003808 <tud_cdc_n_connected+0xc>
10003814:	0060      	lsls	r0, r4, #1
10003816:	1904      	adds	r4, r0, r4
10003818:	0123      	lsls	r3, r4, #4
1000381a:	4804      	ldr	r0, [pc, #16]	; (1000382c <tud_cdc_n_connected+0x30>)
1000381c:	1b1c      	subs	r4, r3, r4
1000381e:	0124      	lsls	r4, r4, #4
10003820:	1904      	adds	r4, r0, r4
10003822:	2001      	movs	r0, #1
10003824:	7923      	ldrb	r3, [r4, #4]
10003826:	4018      	ands	r0, r3
10003828:	e7ef      	b.n	1000380a <tud_cdc_n_connected+0xe>
1000382a:	46c0      	nop			; (mov r8, r8)
1000382c:	20000bb4 	.word	0x20000bb4

10003830 <tud_cdc_n_available>:
10003830:	0003      	movs	r3, r0
10003832:	0040      	lsls	r0, r0, #1
10003834:	18c0      	adds	r0, r0, r3
10003836:	b510      	push	{r4, lr}
10003838:	0103      	lsls	r3, r0, #4
1000383a:	1a18      	subs	r0, r3, r0
1000383c:	0100      	lsls	r0, r0, #4
1000383e:	4b03      	ldr	r3, [pc, #12]	; (1000384c <tud_cdc_n_available+0x1c>)
10003840:	3010      	adds	r0, #16
10003842:	18c0      	adds	r0, r0, r3
10003844:	f000 fb02 	bl	10003e4c <tu_fifo_count>
10003848:	bd10      	pop	{r4, pc}
1000384a:	46c0      	nop			; (mov r8, r8)
1000384c:	20000bb4 	.word	0x20000bb4

10003850 <tud_cdc_n_read>:
10003850:	b5f0      	push	{r4, r5, r6, r7, lr}
10003852:	0044      	lsls	r4, r0, #1
10003854:	1820      	adds	r0, r4, r0
10003856:	0104      	lsls	r4, r0, #4
10003858:	1a24      	subs	r4, r4, r0
1000385a:	0124      	lsls	r4, r4, #4
1000385c:	0026      	movs	r6, r4
1000385e:	46c6      	mov	lr, r8
10003860:	4f17      	ldr	r7, [pc, #92]	; (100038c0 <tud_cdc_n_read+0x70>)
10003862:	3610      	adds	r6, #16
10003864:	19f6      	adds	r6, r6, r7
10003866:	b500      	push	{lr}
10003868:	0030      	movs	r0, r6
1000386a:	b292      	uxth	r2, r2
1000386c:	f000 fb5c 	bl	10003f28 <tu_fifo_read_n>
10003870:	0005      	movs	r5, r0
10003872:	0030      	movs	r0, r6
10003874:	f000 faf6 	bl	10003e64 <tu_fifo_remaining>
10003878:	283f      	cmp	r0, #63	; 0x3f
1000387a:	d803      	bhi.n	10003884 <tud_cdc_n_read+0x34>
1000387c:	0028      	movs	r0, r5
1000387e:	bc04      	pop	{r2}
10003880:	4690      	mov	r8, r2
10003882:	bdf0      	pop	{r4, r5, r6, r7, pc}
10003884:	193b      	adds	r3, r7, r4
10003886:	2000      	movs	r0, #0
10003888:	78d9      	ldrb	r1, [r3, #3]
1000388a:	4698      	mov	r8, r3
1000388c:	f7ff fe34 	bl	100034f8 <usbd_edpt_claim>
10003890:	2800      	cmp	r0, #0
10003892:	d0f3      	beq.n	1000387c <tud_cdc_n_read+0x2c>
10003894:	0030      	movs	r0, r6
10003896:	f000 fae5 	bl	10003e64 <tu_fifo_remaining>
1000389a:	283f      	cmp	r0, #63	; 0x3f
1000389c:	d90a      	bls.n	100038b4 <tud_cdc_n_read+0x64>
1000389e:	2394      	movs	r3, #148	; 0x94
100038a0:	009b      	lsls	r3, r3, #2
100038a2:	18e2      	adds	r2, r4, r3
100038a4:	4643      	mov	r3, r8
100038a6:	19d2      	adds	r2, r2, r7
100038a8:	78d9      	ldrb	r1, [r3, #3]
100038aa:	2000      	movs	r0, #0
100038ac:	2340      	movs	r3, #64	; 0x40
100038ae:	f7ff fe7b 	bl	100035a8 <usbd_edpt_xfer>
100038b2:	e7e3      	b.n	1000387c <tud_cdc_n_read+0x2c>
100038b4:	4643      	mov	r3, r8
100038b6:	2000      	movs	r0, #0
100038b8:	78d9      	ldrb	r1, [r3, #3]
100038ba:	f7ff fe4f 	bl	1000355c <usbd_edpt_release>
100038be:	e7dd      	b.n	1000387c <tud_cdc_n_read+0x2c>
100038c0:	20000bb4 	.word	0x20000bb4

100038c4 <tud_cdc_n_write_flush>:
100038c4:	b5f8      	push	{r3, r4, r5, r6, r7, lr}
100038c6:	4647      	mov	r7, r8
100038c8:	46ce      	mov	lr, r9
100038ca:	b580      	push	{r7, lr}
100038cc:	0047      	lsls	r7, r0, #1
100038ce:	183b      	adds	r3, r7, r0
100038d0:	011c      	lsls	r4, r3, #4
100038d2:	1ae4      	subs	r4, r4, r3
100038d4:	0124      	lsls	r4, r4, #4
100038d6:	4b23      	ldr	r3, [pc, #140]	; (10003964 <tud_cdc_n_write_flush+0xa0>)
100038d8:	0026      	movs	r6, r4
100038da:	4698      	mov	r8, r3
100038dc:	3628      	adds	r6, #40	; 0x28
100038de:	4446      	add	r6, r8
100038e0:	0005      	movs	r5, r0
100038e2:	0030      	movs	r0, r6
100038e4:	f000 fab2 	bl	10003e4c <tu_fifo_count>
100038e8:	2800      	cmp	r0, #0
100038ea:	d104      	bne.n	100038f6 <tud_cdc_n_write_flush+0x32>
100038ec:	2000      	movs	r0, #0
100038ee:	bc0c      	pop	{r2, r3}
100038f0:	4690      	mov	r8, r2
100038f2:	4699      	mov	r9, r3
100038f4:	bdf8      	pop	{r3, r4, r5, r6, r7, pc}
100038f6:	46a1      	mov	r9, r4
100038f8:	44c1      	add	r9, r8
100038fa:	464b      	mov	r3, r9
100038fc:	2000      	movs	r0, #0
100038fe:	7899      	ldrb	r1, [r3, #2]
10003900:	f7ff fdfa 	bl	100034f8 <usbd_edpt_claim>
10003904:	2800      	cmp	r0, #0
10003906:	d0f1      	beq.n	100038ec <tud_cdc_n_write_flush+0x28>
10003908:	23a4      	movs	r3, #164	; 0xa4
1000390a:	009b      	lsls	r3, r3, #2
1000390c:	469c      	mov	ip, r3
1000390e:	4464      	add	r4, ip
10003910:	4444      	add	r4, r8
10003912:	0030      	movs	r0, r6
10003914:	2240      	movs	r2, #64	; 0x40
10003916:	0021      	movs	r1, r4
10003918:	f000 fb06 	bl	10003f28 <tu_fifo_read_n>
1000391c:	1e06      	subs	r6, r0, #0
1000391e:	d016      	beq.n	1000394e <tud_cdc_n_write_flush+0x8a>
10003920:	f7ff f878 	bl	10002a14 <tud_mounted>
10003924:	2800      	cmp	r0, #0
10003926:	d012      	beq.n	1000394e <tud_cdc_n_write_flush+0x8a>
10003928:	f7ff f87c 	bl	10002a24 <tud_suspended>
1000392c:	2800      	cmp	r0, #0
1000392e:	d10e      	bne.n	1000394e <tud_cdc_n_write_flush+0x8a>
10003930:	464b      	mov	r3, r9
10003932:	791b      	ldrb	r3, [r3, #4]
10003934:	07db      	lsls	r3, r3, #31
10003936:	d50a      	bpl.n	1000394e <tud_cdc_n_write_flush+0x8a>
10003938:	464b      	mov	r3, r9
1000393a:	0022      	movs	r2, r4
1000393c:	7899      	ldrb	r1, [r3, #2]
1000393e:	2000      	movs	r0, #0
10003940:	0033      	movs	r3, r6
10003942:	f7ff fe31 	bl	100035a8 <usbd_edpt_xfer>
10003946:	2800      	cmp	r0, #0
10003948:	d0d0      	beq.n	100038ec <tud_cdc_n_write_flush+0x28>
1000394a:	0030      	movs	r0, r6
1000394c:	e7cf      	b.n	100038ee <tud_cdc_n_write_flush+0x2a>
1000394e:	197d      	adds	r5, r7, r5
10003950:	012b      	lsls	r3, r5, #4
10003952:	1b5d      	subs	r5, r3, r5
10003954:	012d      	lsls	r5, r5, #4
10003956:	4445      	add	r5, r8
10003958:	78a9      	ldrb	r1, [r5, #2]
1000395a:	2000      	movs	r0, #0
1000395c:	f7ff fdfe 	bl	1000355c <usbd_edpt_release>
10003960:	e7c4      	b.n	100038ec <tud_cdc_n_write_flush+0x28>
10003962:	46c0      	nop			; (mov r8, r8)
10003964:	20000bb4 	.word	0x20000bb4

10003968 <tud_cdc_n_write>:
10003968:	0043      	lsls	r3, r0, #1
1000396a:	181b      	adds	r3, r3, r0
1000396c:	b570      	push	{r4, r5, r6, lr}
1000396e:	011c      	lsls	r4, r3, #4
10003970:	1ae4      	subs	r4, r4, r3
10003972:	0124      	lsls	r4, r4, #4
10003974:	4b09      	ldr	r3, [pc, #36]	; (1000399c <tud_cdc_n_write+0x34>)
10003976:	3428      	adds	r4, #40	; 0x28
10003978:	18e4      	adds	r4, r4, r3
1000397a:	0005      	movs	r5, r0
1000397c:	b292      	uxth	r2, r2
1000397e:	0020      	movs	r0, r4
10003980:	f000 fb8c 	bl	1000409c <tu_fifo_write_n>
10003984:	0006      	movs	r6, r0
10003986:	0020      	movs	r0, r4
10003988:	f000 fa60 	bl	10003e4c <tu_fifo_count>
1000398c:	283f      	cmp	r0, #63	; 0x3f
1000398e:	d801      	bhi.n	10003994 <tud_cdc_n_write+0x2c>
10003990:	0030      	movs	r0, r6
10003992:	bd70      	pop	{r4, r5, r6, pc}
10003994:	0028      	movs	r0, r5
10003996:	f7ff ff95 	bl	100038c4 <tud_cdc_n_write_flush>
1000399a:	e7f9      	b.n	10003990 <tud_cdc_n_write+0x28>
1000399c:	20000bb4 	.word	0x20000bb4

100039a0 <tud_cdc_n_write_available>:
100039a0:	0003      	movs	r3, r0
100039a2:	0040      	lsls	r0, r0, #1
100039a4:	18c0      	adds	r0, r0, r3
100039a6:	b510      	push	{r4, lr}
100039a8:	0103      	lsls	r3, r0, #4
100039aa:	1a18      	subs	r0, r3, r0
100039ac:	0100      	lsls	r0, r0, #4
100039ae:	4b03      	ldr	r3, [pc, #12]	; (100039bc <tud_cdc_n_write_available+0x1c>)
100039b0:	3028      	adds	r0, #40	; 0x28
100039b2:	18c0      	adds	r0, r0, r3
100039b4:	f000 fa56 	bl	10003e64 <tu_fifo_remaining>
100039b8:	bd10      	pop	{r4, pc}
100039ba:	46c0      	nop			; (mov r8, r8)
100039bc:	20000bb4 	.word	0x20000bb4

100039c0 <cdcd_init>:
100039c0:	22b4      	movs	r2, #180	; 0xb4
100039c2:	b570      	push	{r4, r5, r6, lr}
100039c4:	4c1a      	ldr	r4, [pc, #104]	; (10003a30 <cdcd_init+0x70>)
100039c6:	b082      	sub	sp, #8
100039c8:	2100      	movs	r1, #0
100039ca:	0020      	movs	r0, r4
100039cc:	0092      	lsls	r2, r2, #2
100039ce:	f7fe fa45 	bl	10001e5c <__wrap_memset>
100039d2:	23ff      	movs	r3, #255	; 0xff
100039d4:	7163      	strb	r3, [r4, #5]
100039d6:	4b17      	ldr	r3, [pc, #92]	; (10003a34 <cdcd_init+0x74>)
100039d8:	2680      	movs	r6, #128	; 0x80
100039da:	80e3      	strh	r3, [r4, #6]
100039dc:	2301      	movs	r3, #1
100039de:	2500      	movs	r5, #0
100039e0:	0021      	movs	r1, r4
100039e2:	0020      	movs	r0, r4
100039e4:	8123      	strh	r3, [r4, #8]
100039e6:	0076      	lsls	r6, r6, #1
100039e8:	3307      	adds	r3, #7
100039ea:	8165      	strh	r5, [r4, #10]
100039ec:	7323      	strb	r3, [r4, #12]
100039ee:	0032      	movs	r2, r6
100039f0:	9500      	str	r5, [sp, #0]
100039f2:	3140      	adds	r1, #64	; 0x40
100039f4:	3b07      	subs	r3, #7
100039f6:	3010      	adds	r0, #16
100039f8:	f000 f9ec 	bl	10003dd4 <tu_fifo_config>
100039fc:	0021      	movs	r1, r4
100039fe:	0020      	movs	r0, r4
10003a00:	3141      	adds	r1, #65	; 0x41
10003a02:	0032      	movs	r2, r6
10003a04:	31ff      	adds	r1, #255	; 0xff
10003a06:	9500      	str	r5, [sp, #0]
10003a08:	2301      	movs	r3, #1
10003a0a:	3028      	adds	r0, #40	; 0x28
10003a0c:	f000 f9e2 	bl	10003dd4 <tu_fifo_config>
10003a10:	2390      	movs	r3, #144	; 0x90
10003a12:	009b      	lsls	r3, r3, #2
10003a14:	18e5      	adds	r5, r4, r3
10003a16:	0028      	movs	r0, r5
10003a18:	f7fd fa96 	bl	10000f48 <mutex_init>
10003a1c:	2392      	movs	r3, #146	; 0x92
10003a1e:	009b      	lsls	r3, r3, #2
10003a20:	6265      	str	r5, [r4, #36]	; 0x24
10003a22:	18e5      	adds	r5, r4, r3
10003a24:	0028      	movs	r0, r5
10003a26:	f7fd fa8f 	bl	10000f48 <mutex_init>
10003a2a:	63e5      	str	r5, [r4, #60]	; 0x3c
10003a2c:	b002      	add	sp, #8
10003a2e:	bd70      	pop	{r4, r5, r6, pc}
10003a30:	20000bb4 	.word	0x20000bb4
10003a34:	ffffc200 	.word	0xffffc200

10003a38 <cdcd_reset>:
10003a38:	b510      	push	{r4, lr}
10003a3a:	4c07      	ldr	r4, [pc, #28]	; (10003a58 <cdcd_reset+0x20>)
10003a3c:	2205      	movs	r2, #5
10003a3e:	2100      	movs	r1, #0
10003a40:	0020      	movs	r0, r4
10003a42:	f7fe fa0b 	bl	10001e5c <__wrap_memset>
10003a46:	0020      	movs	r0, r4
10003a48:	3010      	adds	r0, #16
10003a4a:	f000 fba5 	bl	10004198 <tu_fifo_clear>
10003a4e:	0020      	movs	r0, r4
10003a50:	3028      	adds	r0, #40	; 0x28
10003a52:	f000 fba1 	bl	10004198 <tu_fifo_clear>
10003a56:	bd10      	pop	{r4, pc}
10003a58:	20000bb4 	.word	0x20000bb4

10003a5c <cdcd_open>:
10003a5c:	b5f0      	push	{r4, r5, r6, r7, lr}
10003a5e:	794b      	ldrb	r3, [r1, #5]
10003a60:	0006      	movs	r6, r0
10003a62:	b083      	sub	sp, #12
10003a64:	2b02      	cmp	r3, #2
10003a66:	d102      	bne.n	10003a6e <cdcd_open+0x12>
10003a68:	798b      	ldrb	r3, [r1, #6]
10003a6a:	2b02      	cmp	r3, #2
10003a6c:	d003      	beq.n	10003a76 <cdcd_open+0x1a>
10003a6e:	2500      	movs	r5, #0
10003a70:	0028      	movs	r0, r5
10003a72:	b003      	add	sp, #12
10003a74:	bdf0      	pop	{r4, r5, r6, r7, pc}
10003a76:	79cb      	ldrb	r3, [r1, #7]
10003a78:	2b06      	cmp	r3, #6
10003a7a:	d8f8      	bhi.n	10003a6e <cdcd_open+0x12>
10003a7c:	4f2f      	ldr	r7, [pc, #188]	; (10003b3c <cdcd_open+0xe0>)
10003a7e:	78bb      	ldrb	r3, [r7, #2]
10003a80:	2b00      	cmp	r3, #0
10003a82:	d1f4      	bne.n	10003a6e <cdcd_open+0x12>
10003a84:	788b      	ldrb	r3, [r1, #2]
10003a86:	2509      	movs	r5, #9
10003a88:	703b      	strb	r3, [r7, #0]
10003a8a:	780c      	ldrb	r4, [r1, #0]
10003a8c:	190c      	adds	r4, r1, r4
10003a8e:	7863      	ldrb	r3, [r4, #1]
10003a90:	2b24      	cmp	r3, #36	; 0x24
10003a92:	d10b      	bne.n	10003aac <cdcd_open+0x50>
10003a94:	2a08      	cmp	r2, #8
10003a96:	d802      	bhi.n	10003a9e <cdcd_open+0x42>
10003a98:	e00f      	b.n	10003aba <cdcd_open+0x5e>
10003a9a:	42aa      	cmp	r2, r5
10003a9c:	d30d      	bcc.n	10003aba <cdcd_open+0x5e>
10003a9e:	7823      	ldrb	r3, [r4, #0]
10003aa0:	18e4      	adds	r4, r4, r3
10003aa2:	18ed      	adds	r5, r5, r3
10003aa4:	7863      	ldrb	r3, [r4, #1]
10003aa6:	b2ad      	uxth	r5, r5
10003aa8:	2b24      	cmp	r3, #36	; 0x24
10003aaa:	d0f6      	beq.n	10003a9a <cdcd_open+0x3e>
10003aac:	2b05      	cmp	r3, #5
10003aae:	d020      	beq.n	10003af2 <cdcd_open+0x96>
10003ab0:	2b04      	cmp	r3, #4
10003ab2:	d102      	bne.n	10003aba <cdcd_open+0x5e>
10003ab4:	7963      	ldrb	r3, [r4, #5]
10003ab6:	2b0a      	cmp	r3, #10
10003ab8:	d02e      	beq.n	10003b18 <cdcd_open+0xbc>
10003aba:	4c21      	ldr	r4, [pc, #132]	; (10003b40 <cdcd_open+0xe4>)
10003abc:	0020      	movs	r0, r4
10003abe:	f000 f9d1 	bl	10003e64 <tu_fifo_remaining>
10003ac2:	283f      	cmp	r0, #63	; 0x3f
10003ac4:	d9d4      	bls.n	10003a70 <cdcd_open+0x14>
10003ac6:	0026      	movs	r6, r4
10003ac8:	3e10      	subs	r6, #16
10003aca:	2000      	movs	r0, #0
10003acc:	78f1      	ldrb	r1, [r6, #3]
10003ace:	f7ff fd13 	bl	100034f8 <usbd_edpt_claim>
10003ad2:	2800      	cmp	r0, #0
10003ad4:	d0cc      	beq.n	10003a70 <cdcd_open+0x14>
10003ad6:	0020      	movs	r0, r4
10003ad8:	f000 f9c4 	bl	10003e64 <tu_fifo_remaining>
10003adc:	283f      	cmp	r0, #63	; 0x3f
10003ade:	d916      	bls.n	10003b0e <cdcd_open+0xb2>
10003ae0:	2390      	movs	r3, #144	; 0x90
10003ae2:	009b      	lsls	r3, r3, #2
10003ae4:	18e2      	adds	r2, r4, r3
10003ae6:	78f1      	ldrb	r1, [r6, #3]
10003ae8:	2340      	movs	r3, #64	; 0x40
10003aea:	2000      	movs	r0, #0
10003aec:	f7ff fd5c 	bl	100035a8 <usbd_edpt_xfer>
10003af0:	e7be      	b.n	10003a70 <cdcd_open+0x14>
10003af2:	0021      	movs	r1, r4
10003af4:	0030      	movs	r0, r6
10003af6:	f7ff fcfb 	bl	100034f0 <usbd_edpt_open>
10003afa:	2800      	cmp	r0, #0
10003afc:	d0b7      	beq.n	10003a6e <cdcd_open+0x12>
10003afe:	78a3      	ldrb	r3, [r4, #2]
10003b00:	707b      	strb	r3, [r7, #1]
10003b02:	7823      	ldrb	r3, [r4, #0]
10003b04:	18ed      	adds	r5, r5, r3
10003b06:	18e4      	adds	r4, r4, r3
10003b08:	7863      	ldrb	r3, [r4, #1]
10003b0a:	b2ad      	uxth	r5, r5
10003b0c:	e7d0      	b.n	10003ab0 <cdcd_open+0x54>
10003b0e:	78f1      	ldrb	r1, [r6, #3]
10003b10:	2000      	movs	r0, #0
10003b12:	f7ff fd23 	bl	1000355c <usbd_edpt_release>
10003b16:	e7ab      	b.n	10003a70 <cdcd_open+0x14>
10003b18:	4b0a      	ldr	r3, [pc, #40]	; (10003b44 <cdcd_open+0xe8>)
10003b1a:	7827      	ldrb	r7, [r4, #0]
10003b1c:	9301      	str	r3, [sp, #4]
10003b1e:	3301      	adds	r3, #1
10003b20:	9300      	str	r3, [sp, #0]
10003b22:	2202      	movs	r2, #2
10003b24:	2302      	movs	r3, #2
10003b26:	0030      	movs	r0, r6
10003b28:	19e1      	adds	r1, r4, r7
10003b2a:	f7ff fcad 	bl	10003488 <usbd_open_edpt_pair>
10003b2e:	2800      	cmp	r0, #0
10003b30:	d09d      	beq.n	10003a6e <cdcd_open+0x12>
10003b32:	350e      	adds	r5, #14
10003b34:	19ed      	adds	r5, r5, r7
10003b36:	b2ad      	uxth	r5, r5
10003b38:	e7bf      	b.n	10003aba <cdcd_open+0x5e>
10003b3a:	46c0      	nop			; (mov r8, r8)
10003b3c:	20000bb4 	.word	0x20000bb4
10003b40:	20000bc4 	.word	0x20000bc4
10003b44:	20000bb6 	.word	0x20000bb6

10003b48 <cdcd_control_complete>:
10003b48:	2360      	movs	r3, #96	; 0x60
10003b4a:	780a      	ldrb	r2, [r1, #0]
10003b4c:	b570      	push	{r4, r5, r6, lr}
10003b4e:	4013      	ands	r3, r2
10003b50:	2400      	movs	r4, #0
10003b52:	2b20      	cmp	r3, #32
10003b54:	d10b      	bne.n	10003b6e <cdcd_control_complete+0x26>
10003b56:	4a0b      	ldr	r2, [pc, #44]	; (10003b84 <cdcd_control_complete+0x3c>)
10003b58:	794b      	ldrb	r3, [r1, #5]
10003b5a:	790d      	ldrb	r5, [r1, #4]
10003b5c:	7810      	ldrb	r0, [r2, #0]
10003b5e:	021b      	lsls	r3, r3, #8
10003b60:	432b      	orrs	r3, r5
10003b62:	4298      	cmp	r0, r3
10003b64:	d103      	bne.n	10003b6e <cdcd_control_complete+0x26>
10003b66:	784b      	ldrb	r3, [r1, #1]
10003b68:	3401      	adds	r4, #1
10003b6a:	2b20      	cmp	r3, #32
10003b6c:	d001      	beq.n	10003b72 <cdcd_control_complete+0x2a>
10003b6e:	0020      	movs	r0, r4
10003b70:	bd70      	pop	{r4, r5, r6, pc}
10003b72:	4b05      	ldr	r3, [pc, #20]	; (10003b88 <cdcd_control_complete+0x40>)
10003b74:	2b00      	cmp	r3, #0
10003b76:	d0fa      	beq.n	10003b6e <cdcd_control_complete+0x26>
10003b78:	2000      	movs	r0, #0
10003b7a:	1d91      	adds	r1, r2, #6
10003b7c:	e000      	b.n	10003b80 <cdcd_control_complete+0x38>
10003b7e:	bf00      	nop
10003b80:	e7f5      	b.n	10003b6e <cdcd_control_complete+0x26>
10003b82:	46c0      	nop			; (mov r8, r8)
10003b84:	20000bb4 	.word	0x20000bb4
10003b88:	00000000 	.word	0x00000000

10003b8c <cdcd_control_request>:
10003b8c:	2360      	movs	r3, #96	; 0x60
10003b8e:	780a      	ldrb	r2, [r1, #0]
10003b90:	b570      	push	{r4, r5, r6, lr}
10003b92:	4013      	ands	r3, r2
10003b94:	2400      	movs	r4, #0
10003b96:	2b20      	cmp	r3, #32
10003b98:	d111      	bne.n	10003bbe <cdcd_control_request+0x32>
10003b9a:	4a14      	ldr	r2, [pc, #80]	; (10003bec <cdcd_control_request+0x60>)
10003b9c:	794b      	ldrb	r3, [r1, #5]
10003b9e:	790e      	ldrb	r6, [r1, #4]
10003ba0:	7815      	ldrb	r5, [r2, #0]
10003ba2:	021b      	lsls	r3, r3, #8
10003ba4:	4333      	orrs	r3, r6
10003ba6:	429d      	cmp	r5, r3
10003ba8:	d109      	bne.n	10003bbe <cdcd_control_request+0x32>
10003baa:	784b      	ldrb	r3, [r1, #1]
10003bac:	2b21      	cmp	r3, #33	; 0x21
10003bae:	d808      	bhi.n	10003bc2 <cdcd_control_request+0x36>
10003bb0:	2b1f      	cmp	r3, #31
10003bb2:	d904      	bls.n	10003bbe <cdcd_control_request+0x32>
10003bb4:	2307      	movs	r3, #7
10003bb6:	3206      	adds	r2, #6
10003bb8:	f7ff fd32 	bl	10003620 <tud_control_xfer>
10003bbc:	2401      	movs	r4, #1
10003bbe:	0020      	movs	r0, r4
10003bc0:	bd70      	pop	{r4, r5, r6, pc}
10003bc2:	2b22      	cmp	r3, #34	; 0x22
10003bc4:	d1fb      	bne.n	10003bbe <cdcd_control_request+0x32>
10003bc6:	78cd      	ldrb	r5, [r1, #3]
10003bc8:	788b      	ldrb	r3, [r1, #2]
10003bca:	022d      	lsls	r5, r5, #8
10003bcc:	431d      	orrs	r5, r3
10003bce:	7115      	strb	r5, [r2, #4]
10003bd0:	f7ff fd0e 	bl	100035f0 <tud_control_status>
10003bd4:	4b06      	ldr	r3, [pc, #24]	; (10003bf0 <cdcd_control_request+0x64>)
10003bd6:	2401      	movs	r4, #1
10003bd8:	2b00      	cmp	r3, #0
10003bda:	d0f0      	beq.n	10003bbe <cdcd_control_request+0x32>
10003bdc:	0029      	movs	r1, r5
10003bde:	086a      	lsrs	r2, r5, #1
10003be0:	2000      	movs	r0, #0
10003be2:	4022      	ands	r2, r4
10003be4:	4021      	ands	r1, r4
10003be6:	e000      	b.n	10003bea <cdcd_control_request+0x5e>
10003be8:	bf00      	nop
10003bea:	e7e8      	b.n	10003bbe <cdcd_control_request+0x32>
10003bec:	20000bb4 	.word	0x20000bb4
10003bf0:	00000000 	.word	0x00000000

10003bf4 <cdcd_xfer_cb>:
10003bf4:	b5f8      	push	{r3, r4, r5, r6, r7, lr}
10003bf6:	464e      	mov	r6, r9
10003bf8:	4645      	mov	r5, r8
10003bfa:	46de      	mov	lr, fp
10003bfc:	4657      	mov	r7, sl
10003bfe:	b5e0      	push	{r5, r6, r7, lr}
10003c00:	001e      	movs	r6, r3
10003c02:	4b64      	ldr	r3, [pc, #400]	; (10003d94 <cdcd_xfer_cb+0x1a0>)
10003c04:	4680      	mov	r8, r0
10003c06:	4699      	mov	r9, r3
10003c08:	78db      	ldrb	r3, [r3, #3]
10003c0a:	000d      	movs	r5, r1
10003c0c:	428b      	cmp	r3, r1
10003c0e:	d000      	beq.n	10003c12 <cdcd_xfer_cb+0x1e>
10003c10:	e072      	b.n	10003cf8 <cdcd_xfer_cb+0x104>
10003c12:	464f      	mov	r7, r9
10003c14:	3710      	adds	r7, #16
10003c16:	2e00      	cmp	r6, #0
10003c18:	d019      	beq.n	10003c4e <cdcd_xfer_cb+0x5a>
10003c1a:	2494      	movs	r4, #148	; 0x94
10003c1c:	4b5e      	ldr	r3, [pc, #376]	; (10003d98 <cdcd_xfer_cb+0x1a4>)
10003c1e:	00a4      	lsls	r4, r4, #2
10003c20:	444c      	add	r4, r9
10003c22:	2b00      	cmp	r3, #0
10003c24:	d100      	bne.n	10003c28 <cdcd_xfer_cb+0x34>
10003c26:	e094      	b.n	10003d52 <cdcd_xfer_cb+0x15e>
10003c28:	464f      	mov	r7, r9
10003c2a:	19a3      	adds	r3, r4, r6
10003c2c:	469b      	mov	fp, r3
10003c2e:	46ca      	mov	sl, r9
10003c30:	3710      	adds	r7, #16
10003c32:	0021      	movs	r1, r4
10003c34:	0038      	movs	r0, r7
10003c36:	f000 f9ef 	bl	10004018 <tu_fifo_write>
10003c3a:	4653      	mov	r3, sl
10003c3c:	795b      	ldrb	r3, [r3, #5]
10003c3e:	2bff      	cmp	r3, #255	; 0xff
10003c40:	d002      	beq.n	10003c48 <cdcd_xfer_cb+0x54>
10003c42:	7821      	ldrb	r1, [r4, #0]
10003c44:	4299      	cmp	r1, r3
10003c46:	d05d      	beq.n	10003d04 <cdcd_xfer_cb+0x110>
10003c48:	3401      	adds	r4, #1
10003c4a:	45a3      	cmp	fp, r4
10003c4c:	d1f1      	bne.n	10003c32 <cdcd_xfer_cb+0x3e>
10003c4e:	4b53      	ldr	r3, [pc, #332]	; (10003d9c <cdcd_xfer_cb+0x1a8>)
10003c50:	2b00      	cmp	r3, #0
10003c52:	d005      	beq.n	10003c60 <cdcd_xfer_cb+0x6c>
10003c54:	0038      	movs	r0, r7
10003c56:	f000 f8f9 	bl	10003e4c <tu_fifo_count>
10003c5a:	2800      	cmp	r0, #0
10003c5c:	d000      	beq.n	10003c60 <cdcd_xfer_cb+0x6c>
10003c5e:	e084      	b.n	10003d6a <cdcd_xfer_cb+0x176>
10003c60:	0038      	movs	r0, r7
10003c62:	f000 f8ff 	bl	10003e64 <tu_fifo_remaining>
10003c66:	283f      	cmp	r0, #63	; 0x3f
10003c68:	d82f      	bhi.n	10003cca <cdcd_xfer_cb+0xd6>
10003c6a:	3f10      	subs	r7, #16
10003c6c:	78bb      	ldrb	r3, [r7, #2]
10003c6e:	429d      	cmp	r5, r3
10003c70:	d007      	beq.n	10003c82 <cdcd_xfer_cb+0x8e>
10003c72:	2401      	movs	r4, #1
10003c74:	0020      	movs	r0, r4
10003c76:	bc3c      	pop	{r2, r3, r4, r5}
10003c78:	4690      	mov	r8, r2
10003c7a:	4699      	mov	r9, r3
10003c7c:	46a2      	mov	sl, r4
10003c7e:	46ab      	mov	fp, r5
10003c80:	bdf8      	pop	{r3, r4, r5, r6, r7, pc}
10003c82:	4b47      	ldr	r3, [pc, #284]	; (10003da0 <cdcd_xfer_cb+0x1ac>)
10003c84:	2b00      	cmp	r3, #0
10003c86:	d002      	beq.n	10003c8e <cdcd_xfer_cb+0x9a>
10003c88:	2000      	movs	r0, #0
10003c8a:	e000      	b.n	10003c8e <cdcd_xfer_cb+0x9a>
10003c8c:	bf00      	nop
10003c8e:	4c45      	ldr	r4, [pc, #276]	; (10003da4 <cdcd_xfer_cb+0x1b0>)
10003c90:	0020      	movs	r0, r4
10003c92:	f000 f8db 	bl	10003e4c <tu_fifo_count>
10003c96:	2800      	cmp	r0, #0
10003c98:	d138      	bne.n	10003d0c <cdcd_xfer_cb+0x118>
10003c9a:	0020      	movs	r0, r4
10003c9c:	f000 f8d6 	bl	10003e4c <tu_fifo_count>
10003ca0:	2800      	cmp	r0, #0
10003ca2:	d1e6      	bne.n	10003c72 <cdcd_xfer_cb+0x7e>
10003ca4:	2e00      	cmp	r6, #0
10003ca6:	d0e4      	beq.n	10003c72 <cdcd_xfer_cb+0x7e>
10003ca8:	06b3      	lsls	r3, r6, #26
10003caa:	d1e2      	bne.n	10003c72 <cdcd_xfer_cb+0x7e>
10003cac:	3c28      	subs	r4, #40	; 0x28
10003cae:	78a1      	ldrb	r1, [r4, #2]
10003cb0:	4640      	mov	r0, r8
10003cb2:	f7ff fc21 	bl	100034f8 <usbd_edpt_claim>
10003cb6:	0025      	movs	r5, r4
10003cb8:	1e04      	subs	r4, r0, #0
10003cba:	d0da      	beq.n	10003c72 <cdcd_xfer_cb+0x7e>
10003cbc:	2300      	movs	r3, #0
10003cbe:	2200      	movs	r2, #0
10003cc0:	4640      	mov	r0, r8
10003cc2:	78a9      	ldrb	r1, [r5, #2]
10003cc4:	f7ff fc70 	bl	100035a8 <usbd_edpt_xfer>
10003cc8:	e7d4      	b.n	10003c74 <cdcd_xfer_cb+0x80>
10003cca:	003c      	movs	r4, r7
10003ccc:	3c10      	subs	r4, #16
10003cce:	2000      	movs	r0, #0
10003cd0:	78e1      	ldrb	r1, [r4, #3]
10003cd2:	f7ff fc11 	bl	100034f8 <usbd_edpt_claim>
10003cd6:	2800      	cmp	r0, #0
10003cd8:	d039      	beq.n	10003d4e <cdcd_xfer_cb+0x15a>
10003cda:	0038      	movs	r0, r7
10003cdc:	f000 f8c2 	bl	10003e64 <tu_fifo_remaining>
10003ce0:	283f      	cmp	r0, #63	; 0x3f
10003ce2:	d930      	bls.n	10003d46 <cdcd_xfer_cb+0x152>
10003ce4:	2390      	movs	r3, #144	; 0x90
10003ce6:	009b      	lsls	r3, r3, #2
10003ce8:	18fa      	adds	r2, r7, r3
10003cea:	2000      	movs	r0, #0
10003cec:	2340      	movs	r3, #64	; 0x40
10003cee:	78e1      	ldrb	r1, [r4, #3]
10003cf0:	f7ff fc5a 	bl	100035a8 <usbd_edpt_xfer>
10003cf4:	78a3      	ldrb	r3, [r4, #2]
10003cf6:	e7ba      	b.n	10003c6e <cdcd_xfer_cb+0x7a>
10003cf8:	464b      	mov	r3, r9
10003cfa:	789b      	ldrb	r3, [r3, #2]
10003cfc:	428b      	cmp	r3, r1
10003cfe:	d0c0      	beq.n	10003c82 <cdcd_xfer_cb+0x8e>
10003d00:	2400      	movs	r4, #0
10003d02:	e7b7      	b.n	10003c74 <cdcd_xfer_cb+0x80>
10003d04:	2000      	movs	r0, #0
10003d06:	e000      	b.n	10003d0a <cdcd_xfer_cb+0x116>
10003d08:	bf00      	nop
10003d0a:	e79d      	b.n	10003c48 <cdcd_xfer_cb+0x54>
10003d0c:	0025      	movs	r5, r4
10003d0e:	3d28      	subs	r5, #40	; 0x28
10003d10:	2000      	movs	r0, #0
10003d12:	78a9      	ldrb	r1, [r5, #2]
10003d14:	f7ff fbf0 	bl	100034f8 <usbd_edpt_claim>
10003d18:	2800      	cmp	r0, #0
10003d1a:	d0be      	beq.n	10003c9a <cdcd_xfer_cb+0xa6>
10003d1c:	239a      	movs	r3, #154	; 0x9a
10003d1e:	009b      	lsls	r3, r3, #2
10003d20:	18e7      	adds	r7, r4, r3
10003d22:	2240      	movs	r2, #64	; 0x40
10003d24:	0039      	movs	r1, r7
10003d26:	0020      	movs	r0, r4
10003d28:	f000 f8fe 	bl	10003f28 <tu_fifo_read_n>
10003d2c:	4682      	mov	sl, r0
10003d2e:	2800      	cmp	r0, #0
10003d30:	d003      	beq.n	10003d3a <cdcd_xfer_cb+0x146>
10003d32:	f7fe fe6f 	bl	10002a14 <tud_mounted>
10003d36:	2800      	cmp	r0, #0
10003d38:	d11b      	bne.n	10003d72 <cdcd_xfer_cb+0x17e>
10003d3a:	464b      	mov	r3, r9
10003d3c:	2000      	movs	r0, #0
10003d3e:	7899      	ldrb	r1, [r3, #2]
10003d40:	f7ff fc0c 	bl	1000355c <usbd_edpt_release>
10003d44:	e7a9      	b.n	10003c9a <cdcd_xfer_cb+0xa6>
10003d46:	2000      	movs	r0, #0
10003d48:	78e1      	ldrb	r1, [r4, #3]
10003d4a:	f7ff fc07 	bl	1000355c <usbd_edpt_release>
10003d4e:	78a3      	ldrb	r3, [r4, #2]
10003d50:	e78d      	b.n	10003c6e <cdcd_xfer_cb+0x7a>
10003d52:	464f      	mov	r7, r9
10003d54:	19a3      	adds	r3, r4, r6
10003d56:	469a      	mov	sl, r3
10003d58:	3710      	adds	r7, #16
10003d5a:	0021      	movs	r1, r4
10003d5c:	0038      	movs	r0, r7
10003d5e:	3401      	adds	r4, #1
10003d60:	f000 f95a 	bl	10004018 <tu_fifo_write>
10003d64:	45a2      	cmp	sl, r4
10003d66:	d1f8      	bne.n	10003d5a <cdcd_xfer_cb+0x166>
10003d68:	e771      	b.n	10003c4e <cdcd_xfer_cb+0x5a>
10003d6a:	2000      	movs	r0, #0
10003d6c:	e000      	b.n	10003d70 <cdcd_xfer_cb+0x17c>
10003d6e:	bf00      	nop
10003d70:	e776      	b.n	10003c60 <cdcd_xfer_cb+0x6c>
10003d72:	f7fe fe57 	bl	10002a24 <tud_suspended>
10003d76:	2800      	cmp	r0, #0
10003d78:	d1df      	bne.n	10003d3a <cdcd_xfer_cb+0x146>
10003d7a:	792b      	ldrb	r3, [r5, #4]
10003d7c:	07db      	lsls	r3, r3, #31
10003d7e:	d5dc      	bpl.n	10003d3a <cdcd_xfer_cb+0x146>
10003d80:	4653      	mov	r3, sl
10003d82:	003a      	movs	r2, r7
10003d84:	2000      	movs	r0, #0
10003d86:	78a9      	ldrb	r1, [r5, #2]
10003d88:	f7ff fc0e 	bl	100035a8 <usbd_edpt_xfer>
10003d8c:	2800      	cmp	r0, #0
10003d8e:	d000      	beq.n	10003d92 <cdcd_xfer_cb+0x19e>
10003d90:	e76f      	b.n	10003c72 <cdcd_xfer_cb+0x7e>
10003d92:	e782      	b.n	10003c9a <cdcd_xfer_cb+0xa6>
10003d94:	20000bb4 	.word	0x20000bb4
	...
10003da4:	20000bdc 	.word	0x20000bdc

10003da8 <tusb_init>:
10003da8:	b570      	push	{r4, r5, r6, lr}
10003daa:	4d06      	ldr	r5, [pc, #24]	; (10003dc4 <tusb_init+0x1c>)
10003dac:	782c      	ldrb	r4, [r5, #0]
10003dae:	2c00      	cmp	r4, #0
10003db0:	d001      	beq.n	10003db6 <tusb_init+0xe>
10003db2:	0020      	movs	r0, r4
10003db4:	bd70      	pop	{r4, r5, r6, pc}
10003db6:	f7fe fe3d 	bl	10002a34 <tud_init>
10003dba:	2800      	cmp	r0, #0
10003dbc:	d0f9      	beq.n	10003db2 <tusb_init+0xa>
10003dbe:	2301      	movs	r3, #1
10003dc0:	702b      	strb	r3, [r5, #0]
10003dc2:	e7f6      	b.n	10003db2 <tusb_init+0xa>
10003dc4:	20001645 	.word	0x20001645

10003dc8 <tusb_inited>:
10003dc8:	4b01      	ldr	r3, [pc, #4]	; (10003dd0 <tusb_inited+0x8>)
10003dca:	7818      	ldrb	r0, [r3, #0]
10003dcc:	4770      	bx	lr
10003dce:	46c0      	nop			; (mov r8, r8)
10003dd0:	20001645 	.word	0x20001645

10003dd4 <tu_fifo_config>:
10003dd4:	b5f0      	push	{r4, r5, r6, r7, lr}
10003dd6:	46c6      	mov	lr, r8
10003dd8:	b500      	push	{lr}
10003dda:	0014      	movs	r4, r2
10003ddc:	aa06      	add	r2, sp, #24
10003dde:	001e      	movs	r6, r3
10003de0:	7813      	ldrb	r3, [r2, #0]
10003de2:	2280      	movs	r2, #128	; 0x80
10003de4:	0005      	movs	r5, r0
10003de6:	000f      	movs	r7, r1
10003de8:	4698      	mov	r8, r3
10003dea:	0212      	lsls	r2, r2, #8
10003dec:	4294      	cmp	r4, r2
10003dee:	d82b      	bhi.n	10003e48 <tu_fifo_config+0x74>
10003df0:	6940      	ldr	r0, [r0, #20]
10003df2:	2800      	cmp	r0, #0
10003df4:	d01a      	beq.n	10003e2c <tu_fifo_config+0x58>
10003df6:	2101      	movs	r1, #1
10003df8:	4249      	negs	r1, r1
10003dfa:	f000 fe85 	bl	10004b08 <__mutex_enter_timeout_ms_veneer>
10003dfe:	4643      	mov	r3, r8
10003e00:	80ac      	strh	r4, [r5, #4]
10003e02:	0064      	lsls	r4, r4, #1
10003e04:	b2a4      	uxth	r4, r4
10003e06:	722b      	strb	r3, [r5, #8]
10003e08:	1e63      	subs	r3, r4, #1
10003e0a:	81ab      	strh	r3, [r5, #12]
10003e0c:	2300      	movs	r3, #0
10003e0e:	6968      	ldr	r0, [r5, #20]
10003e10:	4264      	negs	r4, r4
10003e12:	81eb      	strh	r3, [r5, #14]
10003e14:	602f      	str	r7, [r5, #0]
10003e16:	80ee      	strh	r6, [r5, #6]
10003e18:	816c      	strh	r4, [r5, #10]
10003e1a:	822b      	strh	r3, [r5, #16]
10003e1c:	2800      	cmp	r0, #0
10003e1e:	d011      	beq.n	10003e44 <tu_fifo_config+0x70>
10003e20:	f000 fe5a 	bl	10004ad8 <__mutex_exit_veneer>
10003e24:	2001      	movs	r0, #1
10003e26:	bc04      	pop	{r2}
10003e28:	4690      	mov	r8, r2
10003e2a:	bdf0      	pop	{r4, r5, r6, r7, pc}
10003e2c:	80ac      	strh	r4, [r5, #4]
10003e2e:	0064      	lsls	r4, r4, #1
10003e30:	b2a4      	uxth	r4, r4
10003e32:	722b      	strb	r3, [r5, #8]
10003e34:	1e63      	subs	r3, r4, #1
10003e36:	4264      	negs	r4, r4
10003e38:	81e8      	strh	r0, [r5, #14]
10003e3a:	6029      	str	r1, [r5, #0]
10003e3c:	80ee      	strh	r6, [r5, #6]
10003e3e:	81ab      	strh	r3, [r5, #12]
10003e40:	816c      	strh	r4, [r5, #10]
10003e42:	8228      	strh	r0, [r5, #16]
10003e44:	2001      	movs	r0, #1
10003e46:	e7ee      	b.n	10003e26 <tu_fifo_config+0x52>
10003e48:	2000      	movs	r0, #0
10003e4a:	e7ec      	b.n	10003e26 <tu_fifo_config+0x52>

10003e4c <tu_fifo_count>:
10003e4c:	b510      	push	{r4, lr}
10003e4e:	89c4      	ldrh	r4, [r0, #14]
10003e50:	8a01      	ldrh	r1, [r0, #16]
10003e52:	0002      	movs	r2, r0
10003e54:	1a60      	subs	r0, r4, r1
10003e56:	b280      	uxth	r0, r0
10003e58:	428c      	cmp	r4, r1
10003e5a:	d202      	bcs.n	10003e62 <tu_fifo_count+0x16>
10003e5c:	8953      	ldrh	r3, [r2, #10]
10003e5e:	1ac0      	subs	r0, r0, r3
10003e60:	b280      	uxth	r0, r0
10003e62:	bd10      	pop	{r4, pc}

10003e64 <tu_fifo_remaining>:
10003e64:	b510      	push	{r4, lr}
10003e66:	89c4      	ldrh	r4, [r0, #14]
10003e68:	8a01      	ldrh	r1, [r0, #16]
10003e6a:	8883      	ldrh	r3, [r0, #4]
10003e6c:	1a62      	subs	r2, r4, r1
10003e6e:	b292      	uxth	r2, r2
10003e70:	428c      	cmp	r4, r1
10003e72:	d202      	bcs.n	10003e7a <tu_fifo_remaining+0x16>
10003e74:	8940      	ldrh	r0, [r0, #10]
10003e76:	1a12      	subs	r2, r2, r0
10003e78:	b292      	uxth	r2, r2
10003e7a:	1a98      	subs	r0, r3, r2
10003e7c:	b280      	uxth	r0, r0
10003e7e:	bd10      	pop	{r4, pc}

10003e80 <tu_fifo_read>:
10003e80:	b5f8      	push	{r3, r4, r5, r6, r7, lr}
10003e82:	0004      	movs	r4, r0
10003e84:	6940      	ldr	r0, [r0, #20]
10003e86:	000e      	movs	r6, r1
10003e88:	2800      	cmp	r0, #0
10003e8a:	d003      	beq.n	10003e94 <tu_fifo_read+0x14>
10003e8c:	2101      	movs	r1, #1
10003e8e:	4249      	negs	r1, r1
10003e90:	f000 fe3a 	bl	10004b08 <__mutex_enter_timeout_ms_veneer>
10003e94:	89e5      	ldrh	r5, [r4, #14]
10003e96:	8a20      	ldrh	r0, [r4, #16]
10003e98:	b2a9      	uxth	r1, r5
10003e9a:	1a2a      	subs	r2, r5, r0
10003e9c:	b283      	uxth	r3, r0
10003e9e:	b292      	uxth	r2, r2
10003ea0:	4285      	cmp	r5, r0
10003ea2:	d202      	bcs.n	10003eaa <tu_fifo_read+0x2a>
10003ea4:	8960      	ldrh	r0, [r4, #10]
10003ea6:	1a12      	subs	r2, r2, r0
10003ea8:	b292      	uxth	r2, r2
10003eaa:	88a0      	ldrh	r0, [r4, #4]
10003eac:	89a7      	ldrh	r7, [r4, #12]
10003eae:	4290      	cmp	r0, r2
10003eb0:	d205      	bcs.n	10003ebe <tu_fifo_read+0x3e>
10003eb2:	1a0a      	subs	r2, r1, r0
10003eb4:	42ba      	cmp	r2, r7
10003eb6:	dc2b      	bgt.n	10003f10 <tu_fifo_read+0x90>
10003eb8:	b292      	uxth	r2, r2
10003eba:	8222      	strh	r2, [r4, #16]
10003ebc:	0002      	movs	r2, r0
10003ebe:	2a00      	cmp	r2, #0
10003ec0:	d02e      	beq.n	10003f20 <tu_fifo_read+0xa0>
10003ec2:	42bb      	cmp	r3, r7
10003ec4:	d906      	bls.n	10003ed4 <tu_fifo_read+0x54>
10003ec6:	8961      	ldrh	r1, [r4, #10]
10003ec8:	185b      	adds	r3, r3, r1
10003eca:	b29b      	uxth	r3, r3
10003ecc:	4298      	cmp	r0, r3
10003ece:	d803      	bhi.n	10003ed8 <tu_fifo_read+0x58>
10003ed0:	1a1b      	subs	r3, r3, r0
10003ed2:	b29b      	uxth	r3, r3
10003ed4:	4298      	cmp	r0, r3
10003ed6:	d9fb      	bls.n	10003ed0 <tu_fifo_read+0x50>
10003ed8:	88e2      	ldrh	r2, [r4, #6]
10003eda:	6821      	ldr	r1, [r4, #0]
10003edc:	4353      	muls	r3, r2
10003ede:	0030      	movs	r0, r6
10003ee0:	18c9      	adds	r1, r1, r3
10003ee2:	f7fd ffc1 	bl	10001e68 <__wrap___aeabi_memcpy>
10003ee6:	2501      	movs	r5, #1
10003ee8:	2001      	movs	r0, #1
10003eea:	2201      	movs	r2, #1
10003eec:	89a7      	ldrh	r7, [r4, #12]
10003eee:	8a21      	ldrh	r1, [r4, #16]
10003ef0:	b28b      	uxth	r3, r1
10003ef2:	1809      	adds	r1, r1, r0
10003ef4:	42b9      	cmp	r1, r7
10003ef6:	dd10      	ble.n	10003f1a <tu_fifo_read+0x9a>
10003ef8:	8961      	ldrh	r1, [r4, #10]
10003efa:	185b      	adds	r3, r3, r1
10003efc:	18d3      	adds	r3, r2, r3
10003efe:	b29b      	uxth	r3, r3
10003f00:	6960      	ldr	r0, [r4, #20]
10003f02:	8223      	strh	r3, [r4, #16]
10003f04:	2800      	cmp	r0, #0
10003f06:	d001      	beq.n	10003f0c <tu_fifo_read+0x8c>
10003f08:	f000 fde6 	bl	10004ad8 <__mutex_exit_veneer>
10003f0c:	0028      	movs	r0, r5
10003f0e:	bdf8      	pop	{r3, r4, r5, r6, r7, pc}
10003f10:	8962      	ldrh	r2, [r4, #10]
10003f12:	1882      	adds	r2, r0, r2
10003f14:	1a8a      	subs	r2, r1, r2
10003f16:	b292      	uxth	r2, r2
10003f18:	e7cf      	b.n	10003eba <tu_fifo_read+0x3a>
10003f1a:	189b      	adds	r3, r3, r2
10003f1c:	b29b      	uxth	r3, r3
10003f1e:	e7ef      	b.n	10003f00 <tu_fifo_read+0x80>
10003f20:	2000      	movs	r0, #0
10003f22:	2500      	movs	r5, #0
10003f24:	e7e3      	b.n	10003eee <tu_fifo_read+0x6e>
10003f26:	46c0      	nop			; (mov r8, r8)

10003f28 <tu_fifo_read_n>:
10003f28:	b5f0      	push	{r4, r5, r6, r7, lr}
10003f2a:	46c6      	mov	lr, r8
10003f2c:	0004      	movs	r4, r0
10003f2e:	6940      	ldr	r0, [r0, #20]
10003f30:	4688      	mov	r8, r1
10003f32:	0017      	movs	r7, r2
10003f34:	b500      	push	{lr}
10003f36:	2800      	cmp	r0, #0
10003f38:	d003      	beq.n	10003f42 <tu_fifo_read_n+0x1a>
10003f3a:	2101      	movs	r1, #1
10003f3c:	4249      	negs	r1, r1
10003f3e:	f000 fde3 	bl	10004b08 <__mutex_enter_timeout_ms_veneer>
10003f42:	89e0      	ldrh	r0, [r4, #14]
10003f44:	8a21      	ldrh	r1, [r4, #16]
10003f46:	b282      	uxth	r2, r0
10003f48:	1a45      	subs	r5, r0, r1
10003f4a:	b28b      	uxth	r3, r1
10003f4c:	b2ad      	uxth	r5, r5
10003f4e:	4288      	cmp	r0, r1
10003f50:	d202      	bcs.n	10003f58 <tu_fifo_read_n+0x30>
10003f52:	8961      	ldrh	r1, [r4, #10]
10003f54:	1a6d      	subs	r5, r5, r1
10003f56:	b2ad      	uxth	r5, r5
10003f58:	88a6      	ldrh	r6, [r4, #4]
10003f5a:	89a0      	ldrh	r0, [r4, #12]
10003f5c:	42ae      	cmp	r6, r5
10003f5e:	d207      	bcs.n	10003f70 <tu_fifo_read_n+0x48>
10003f60:	1b93      	subs	r3, r2, r6
10003f62:	4283      	cmp	r3, r0
10003f64:	dc36      	bgt.n	10003fd4 <tu_fifo_read_n+0xac>
10003f66:	b29b      	uxth	r3, r3
10003f68:	0035      	movs	r5, r6
10003f6a:	8223      	strh	r3, [r4, #16]
10003f6c:	8a23      	ldrh	r3, [r4, #16]
10003f6e:	b29b      	uxth	r3, r3
10003f70:	2d00      	cmp	r5, #0
10003f72:	d039      	beq.n	10003fe8 <tu_fifo_read_n+0xc0>
10003f74:	1c3a      	adds	r2, r7, #0
10003f76:	42af      	cmp	r7, r5
10003f78:	d831      	bhi.n	10003fde <tu_fifo_read_n+0xb6>
10003f7a:	b295      	uxth	r5, r2
10003f7c:	4283      	cmp	r3, r0
10003f7e:	d905      	bls.n	10003f8c <tu_fifo_read_n+0x64>
10003f80:	8961      	ldrh	r1, [r4, #10]
10003f82:	185b      	adds	r3, r3, r1
10003f84:	b29b      	uxth	r3, r3
10003f86:	e001      	b.n	10003f8c <tu_fifo_read_n+0x64>
10003f88:	1b9b      	subs	r3, r3, r6
10003f8a:	b29b      	uxth	r3, r3
10003f8c:	429e      	cmp	r6, r3
10003f8e:	d9fb      	bls.n	10003f88 <tu_fifo_read_n+0x60>
10003f90:	195a      	adds	r2, r3, r5
10003f92:	002f      	movs	r7, r5
10003f94:	88e1      	ldrh	r1, [r4, #6]
10003f96:	42b2      	cmp	r2, r6
10003f98:	dc28      	bgt.n	10003fec <tu_fifo_read_n+0xc4>
10003f9a:	000a      	movs	r2, r1
10003f9c:	4359      	muls	r1, r3
10003f9e:	6823      	ldr	r3, [r4, #0]
10003fa0:	4640      	mov	r0, r8
10003fa2:	469c      	mov	ip, r3
10003fa4:	436a      	muls	r2, r5
10003fa6:	4461      	add	r1, ip
10003fa8:	f7fd ff5e 	bl	10001e68 <__wrap___aeabi_memcpy>
10003fac:	89a0      	ldrh	r0, [r4, #12]
10003fae:	8a22      	ldrh	r2, [r4, #16]
10003fb0:	19d7      	adds	r7, r2, r7
10003fb2:	b293      	uxth	r3, r2
10003fb4:	4287      	cmp	r7, r0
10003fb6:	dd14      	ble.n	10003fe2 <tu_fifo_read_n+0xba>
10003fb8:	8962      	ldrh	r2, [r4, #10]
10003fba:	189b      	adds	r3, r3, r2
10003fbc:	18eb      	adds	r3, r5, r3
10003fbe:	b29b      	uxth	r3, r3
10003fc0:	6960      	ldr	r0, [r4, #20]
10003fc2:	8223      	strh	r3, [r4, #16]
10003fc4:	2800      	cmp	r0, #0
10003fc6:	d001      	beq.n	10003fcc <tu_fifo_read_n+0xa4>
10003fc8:	f000 fd86 	bl	10004ad8 <__mutex_exit_veneer>
10003fcc:	0028      	movs	r0, r5
10003fce:	bc04      	pop	{r2}
10003fd0:	4690      	mov	r8, r2
10003fd2:	bdf0      	pop	{r4, r5, r6, r7, pc}
10003fd4:	8963      	ldrh	r3, [r4, #10]
10003fd6:	18f3      	adds	r3, r6, r3
10003fd8:	1ad3      	subs	r3, r2, r3
10003fda:	b29b      	uxth	r3, r3
10003fdc:	e7c4      	b.n	10003f68 <tu_fifo_read_n+0x40>
10003fde:	1c2a      	adds	r2, r5, #0
10003fe0:	e7cb      	b.n	10003f7a <tu_fifo_read_n+0x52>
10003fe2:	195b      	adds	r3, r3, r5
10003fe4:	b29b      	uxth	r3, r3
10003fe6:	e7eb      	b.n	10003fc0 <tu_fifo_read_n+0x98>
10003fe8:	2700      	movs	r7, #0
10003fea:	e7e0      	b.n	10003fae <tu_fifo_read_n+0x86>
10003fec:	1af6      	subs	r6, r6, r3
10003fee:	b2b6      	uxth	r6, r6
10003ff0:	0032      	movs	r2, r6
10003ff2:	434a      	muls	r2, r1
10003ff4:	4359      	muls	r1, r3
10003ff6:	6823      	ldr	r3, [r4, #0]
10003ff8:	4640      	mov	r0, r8
10003ffa:	469c      	mov	ip, r3
10003ffc:	4461      	add	r1, ip
10003ffe:	f7fd ff33 	bl	10001e68 <__wrap___aeabi_memcpy>
10004002:	88e3      	ldrh	r3, [r4, #6]
10004004:	1baa      	subs	r2, r5, r6
10004006:	0018      	movs	r0, r3
10004008:	4370      	muls	r0, r6
1000400a:	435a      	muls	r2, r3
1000400c:	6821      	ldr	r1, [r4, #0]
1000400e:	4440      	add	r0, r8
10004010:	f7fd ff2a 	bl	10001e68 <__wrap___aeabi_memcpy>
10004014:	89a0      	ldrh	r0, [r4, #12]
10004016:	e7ca      	b.n	10003fae <tu_fifo_read_n+0x86>

10004018 <tu_fifo_write>:
10004018:	b5f8      	push	{r3, r4, r5, r6, r7, lr}
1000401a:	0004      	movs	r4, r0
1000401c:	6940      	ldr	r0, [r0, #20]
1000401e:	000e      	movs	r6, r1
10004020:	2800      	cmp	r0, #0
10004022:	d003      	beq.n	1000402c <tu_fifo_write+0x14>
10004024:	2101      	movs	r1, #1
10004026:	4249      	negs	r1, r1
10004028:	f000 fd6e 	bl	10004b08 <__mutex_enter_timeout_ms_veneer>
1000402c:	89e2      	ldrh	r2, [r4, #14]
1000402e:	8a21      	ldrh	r1, [r4, #16]
10004030:	b295      	uxth	r5, r2
10004032:	1a53      	subs	r3, r2, r1
10004034:	b29b      	uxth	r3, r3
10004036:	4291      	cmp	r1, r2
10004038:	d902      	bls.n	10004040 <tu_fifo_write+0x28>
1000403a:	8962      	ldrh	r2, [r4, #10]
1000403c:	1a9b      	subs	r3, r3, r2
1000403e:	b29b      	uxth	r3, r3
10004040:	88a2      	ldrh	r2, [r4, #4]
10004042:	429a      	cmp	r2, r3
10004044:	d026      	beq.n	10004094 <tu_fifo_write+0x7c>
10004046:	89a1      	ldrh	r1, [r4, #12]
10004048:	002b      	movs	r3, r5
1000404a:	42a9      	cmp	r1, r5
1000404c:	d206      	bcs.n	1000405c <tu_fifo_write+0x44>
1000404e:	8963      	ldrh	r3, [r4, #10]
10004050:	18eb      	adds	r3, r5, r3
10004052:	b29b      	uxth	r3, r3
10004054:	429a      	cmp	r2, r3
10004056:	d803      	bhi.n	10004060 <tu_fifo_write+0x48>
10004058:	1a9b      	subs	r3, r3, r2
1000405a:	b29b      	uxth	r3, r3
1000405c:	429a      	cmp	r2, r3
1000405e:	d9fb      	bls.n	10004058 <tu_fifo_write+0x40>
10004060:	88e2      	ldrh	r2, [r4, #6]
10004062:	6821      	ldr	r1, [r4, #0]
10004064:	4353      	muls	r3, r2
10004066:	18c8      	adds	r0, r1, r3
10004068:	0031      	movs	r1, r6
1000406a:	f7fd fefd 	bl	10001e68 <__wrap___aeabi_memcpy>
1000406e:	89a3      	ldrh	r3, [r4, #12]
10004070:	42ab      	cmp	r3, r5
10004072:	d90a      	bls.n	1000408a <tu_fifo_write+0x72>
10004074:	3501      	adds	r5, #1
10004076:	b2ad      	uxth	r5, r5
10004078:	6960      	ldr	r0, [r4, #20]
1000407a:	2701      	movs	r7, #1
1000407c:	81e5      	strh	r5, [r4, #14]
1000407e:	2800      	cmp	r0, #0
10004080:	d001      	beq.n	10004086 <tu_fifo_write+0x6e>
10004082:	f000 fd29 	bl	10004ad8 <__mutex_exit_veneer>
10004086:	0038      	movs	r0, r7
10004088:	bdf8      	pop	{r3, r4, r5, r6, r7, pc}
1000408a:	8963      	ldrh	r3, [r4, #10]
1000408c:	18ed      	adds	r5, r5, r3
1000408e:	3501      	adds	r5, #1
10004090:	b2ad      	uxth	r5, r5
10004092:	e7f1      	b.n	10004078 <tu_fifo_write+0x60>
10004094:	7a27      	ldrb	r7, [r4, #8]
10004096:	2f00      	cmp	r7, #0
10004098:	d1d5      	bne.n	10004046 <tu_fifo_write+0x2e>
1000409a:	e7f4      	b.n	10004086 <tu_fifo_write+0x6e>

1000409c <tu_fifo_write_n>:
1000409c:	b5f8      	push	{r3, r4, r5, r6, r7, lr}
1000409e:	4647      	mov	r7, r8
100040a0:	46ce      	mov	lr, r9
100040a2:	0004      	movs	r4, r0
100040a4:	b580      	push	{r7, lr}
100040a6:	0015      	movs	r5, r2
100040a8:	000f      	movs	r7, r1
100040aa:	2a00      	cmp	r2, #0
100040ac:	d052      	beq.n	10004154 <tu_fifo_write_n+0xb8>
100040ae:	6940      	ldr	r0, [r0, #20]
100040b0:	2800      	cmp	r0, #0
100040b2:	d003      	beq.n	100040bc <tu_fifo_write_n+0x20>
100040b4:	2101      	movs	r1, #1
100040b6:	4249      	negs	r1, r1
100040b8:	f000 fd26 	bl	10004b08 <__mutex_enter_timeout_ms_veneer>
100040bc:	89e6      	ldrh	r6, [r4, #14]
100040be:	7a23      	ldrb	r3, [r4, #8]
100040c0:	8a20      	ldrh	r0, [r4, #16]
100040c2:	88a1      	ldrh	r1, [r4, #4]
100040c4:	b2b6      	uxth	r6, r6
100040c6:	b280      	uxth	r0, r0
100040c8:	2b00      	cmp	r3, #0
100040ca:	d138      	bne.n	1000413e <tu_fifo_write_n+0xa2>
100040cc:	1a33      	subs	r3, r6, r0
100040ce:	b29b      	uxth	r3, r3
100040d0:	4286      	cmp	r6, r0
100040d2:	d202      	bcs.n	100040da <tu_fifo_write_n+0x3e>
100040d4:	8962      	ldrh	r2, [r4, #10]
100040d6:	1a9b      	subs	r3, r3, r2
100040d8:	b29b      	uxth	r3, r3
100040da:	1acb      	subs	r3, r1, r3
100040dc:	1c1a      	adds	r2, r3, #0
100040de:	b29b      	uxth	r3, r3
100040e0:	42ab      	cmp	r3, r5
100040e2:	d852      	bhi.n	1000418a <tu_fifo_write_n+0xee>
100040e4:	b293      	uxth	r3, r2
100040e6:	4698      	mov	r8, r3
100040e8:	001d      	movs	r5, r3
100040ea:	88e2      	ldrh	r2, [r4, #6]
100040ec:	89a0      	ldrh	r0, [r4, #12]
100040ee:	0033      	movs	r3, r6
100040f0:	42b0      	cmp	r0, r6
100040f2:	d205      	bcs.n	10004100 <tu_fifo_write_n+0x64>
100040f4:	8963      	ldrh	r3, [r4, #10]
100040f6:	18f3      	adds	r3, r6, r3
100040f8:	b29b      	uxth	r3, r3
100040fa:	e001      	b.n	10004100 <tu_fifo_write_n+0x64>
100040fc:	1a5b      	subs	r3, r3, r1
100040fe:	b29b      	uxth	r3, r3
10004100:	428b      	cmp	r3, r1
10004102:	d2fb      	bcs.n	100040fc <tu_fifo_write_n+0x60>
10004104:	1958      	adds	r0, r3, r5
10004106:	4288      	cmp	r0, r1
10004108:	dc2a      	bgt.n	10004160 <tu_fifo_write_n+0xc4>
1000410a:	4353      	muls	r3, r2
1000410c:	6821      	ldr	r1, [r4, #0]
1000410e:	436a      	muls	r2, r5
10004110:	18c8      	adds	r0, r1, r3
10004112:	0039      	movs	r1, r7
10004114:	f7fd fea8 	bl	10001e68 <__wrap___aeabi_memcpy>
10004118:	89a3      	ldrh	r3, [r4, #12]
1000411a:	1975      	adds	r5, r6, r5
1000411c:	429d      	cmp	r5, r3
1000411e:	dd1c      	ble.n	1000415a <tu_fifo_write_n+0xbe>
10004120:	8963      	ldrh	r3, [r4, #10]
10004122:	18f6      	adds	r6, r6, r3
10004124:	4446      	add	r6, r8
10004126:	b2b6      	uxth	r6, r6
10004128:	6960      	ldr	r0, [r4, #20]
1000412a:	81e6      	strh	r6, [r4, #14]
1000412c:	2800      	cmp	r0, #0
1000412e:	d001      	beq.n	10004134 <tu_fifo_write_n+0x98>
10004130:	f000 fcd2 	bl	10004ad8 <__mutex_exit_veneer>
10004134:	4640      	mov	r0, r8
10004136:	bc0c      	pop	{r2, r3}
10004138:	4690      	mov	r8, r2
1000413a:	4699      	mov	r9, r3
1000413c:	bdf8      	pop	{r3, r4, r5, r6, r7, pc}
1000413e:	46a8      	mov	r8, r5
10004140:	88e2      	ldrh	r2, [r4, #6]
10004142:	42a9      	cmp	r1, r5
10004144:	d2d2      	bcs.n	100040ec <tu_fifo_write_n+0x50>
10004146:	1a6d      	subs	r5, r5, r1
10004148:	4355      	muls	r5, r2
1000414a:	4688      	mov	r8, r1
1000414c:	197f      	adds	r7, r7, r5
1000414e:	81e0      	strh	r0, [r4, #14]
10004150:	000d      	movs	r5, r1
10004152:	e7cb      	b.n	100040ec <tu_fifo_write_n+0x50>
10004154:	2300      	movs	r3, #0
10004156:	4698      	mov	r8, r3
10004158:	e7ec      	b.n	10004134 <tu_fifo_write_n+0x98>
1000415a:	4446      	add	r6, r8
1000415c:	b2b6      	uxth	r6, r6
1000415e:	e7e3      	b.n	10004128 <tu_fifo_write_n+0x8c>
10004160:	1ac9      	subs	r1, r1, r3
10004162:	b289      	uxth	r1, r1
10004164:	4689      	mov	r9, r1
10004166:	4353      	muls	r3, r2
10004168:	6821      	ldr	r1, [r4, #0]
1000416a:	18c8      	adds	r0, r1, r3
1000416c:	464b      	mov	r3, r9
1000416e:	0039      	movs	r1, r7
10004170:	435a      	muls	r2, r3
10004172:	f7fd fe79 	bl	10001e68 <__wrap___aeabi_memcpy>
10004176:	464b      	mov	r3, r9
10004178:	88e1      	ldrh	r1, [r4, #6]
1000417a:	1aea      	subs	r2, r5, r3
1000417c:	434a      	muls	r2, r1
1000417e:	4359      	muls	r1, r3
10004180:	6820      	ldr	r0, [r4, #0]
10004182:	1879      	adds	r1, r7, r1
10004184:	f7fd fe70 	bl	10001e68 <__wrap___aeabi_memcpy>
10004188:	e7c6      	b.n	10004118 <tu_fifo_write_n+0x7c>
1000418a:	1c2a      	adds	r2, r5, #0
1000418c:	b293      	uxth	r3, r2
1000418e:	4698      	mov	r8, r3
10004190:	001d      	movs	r5, r3
10004192:	88e2      	ldrh	r2, [r4, #6]
10004194:	e7aa      	b.n	100040ec <tu_fifo_write_n+0x50>
10004196:	46c0      	nop			; (mov r8, r8)

10004198 <tu_fifo_clear>:
10004198:	b510      	push	{r4, lr}
1000419a:	0004      	movs	r4, r0
1000419c:	6940      	ldr	r0, [r0, #20]
1000419e:	2800      	cmp	r0, #0
100041a0:	d00d      	beq.n	100041be <tu_fifo_clear+0x26>
100041a2:	2101      	movs	r1, #1
100041a4:	4249      	negs	r1, r1
100041a6:	f000 fcaf 	bl	10004b08 <__mutex_enter_timeout_ms_veneer>
100041aa:	2300      	movs	r3, #0
100041ac:	6960      	ldr	r0, [r4, #20]
100041ae:	81e3      	strh	r3, [r4, #14]
100041b0:	8223      	strh	r3, [r4, #16]
100041b2:	2800      	cmp	r0, #0
100041b4:	d001      	beq.n	100041ba <tu_fifo_clear+0x22>
100041b6:	f000 fc8f 	bl	10004ad8 <__mutex_exit_veneer>
100041ba:	2001      	movs	r0, #1
100041bc:	bd10      	pop	{r4, pc}
100041be:	81e0      	strh	r0, [r4, #14]
100041c0:	8220      	strh	r0, [r4, #16]
100041c2:	e7fa      	b.n	100041ba <tu_fifo_clear+0x22>

100041c4 <calloc>:
100041c4:	0003      	movs	r3, r0
100041c6:	b510      	push	{r4, lr}
100041c8:	000a      	movs	r2, r1
100041ca:	4903      	ldr	r1, [pc, #12]	; (100041d8 <calloc+0x14>)
100041cc:	6808      	ldr	r0, [r1, #0]
100041ce:	0019      	movs	r1, r3
100041d0:	f000 f804 	bl	100041dc <_calloc_r>
100041d4:	bd10      	pop	{r4, pc}
100041d6:	46c0      	nop			; (mov r8, r8)
100041d8:	200002fc 	.word	0x200002fc

100041dc <_calloc_r>:
100041dc:	b510      	push	{r4, lr}
100041de:	4351      	muls	r1, r2
100041e0:	f000 f834 	bl	1000424c <_malloc_r>
100041e4:	1e04      	subs	r4, r0, #0
100041e6:	d00e      	beq.n	10004206 <_calloc_r+0x2a>
100041e8:	0003      	movs	r3, r0
100041ea:	3b08      	subs	r3, #8
100041ec:	685a      	ldr	r2, [r3, #4]
100041ee:	2303      	movs	r3, #3
100041f0:	439a      	bics	r2, r3
100041f2:	3a04      	subs	r2, #4
100041f4:	2a24      	cmp	r2, #36	; 0x24
100041f6:	d815      	bhi.n	10004224 <_calloc_r+0x48>
100041f8:	0003      	movs	r3, r0
100041fa:	2a13      	cmp	r2, #19
100041fc:	d805      	bhi.n	1000420a <_calloc_r+0x2e>
100041fe:	2200      	movs	r2, #0
10004200:	601a      	str	r2, [r3, #0]
10004202:	605a      	str	r2, [r3, #4]
10004204:	609a      	str	r2, [r3, #8]
10004206:	0020      	movs	r0, r4
10004208:	bd10      	pop	{r4, pc}
1000420a:	2100      	movs	r1, #0
1000420c:	3308      	adds	r3, #8
1000420e:	6001      	str	r1, [r0, #0]
10004210:	6041      	str	r1, [r0, #4]
10004212:	2a1b      	cmp	r2, #27
10004214:	d9f3      	bls.n	100041fe <_calloc_r+0x22>
10004216:	6081      	str	r1, [r0, #8]
10004218:	60c1      	str	r1, [r0, #12]
1000421a:	2a24      	cmp	r2, #36	; 0x24
1000421c:	d006      	beq.n	1000422c <_calloc_r+0x50>
1000421e:	0003      	movs	r3, r0
10004220:	3310      	adds	r3, #16
10004222:	e7ec      	b.n	100041fe <_calloc_r+0x22>
10004224:	2100      	movs	r1, #0
10004226:	f7fd fe19 	bl	10001e5c <__wrap_memset>
1000422a:	e7ec      	b.n	10004206 <_calloc_r+0x2a>
1000422c:	0003      	movs	r3, r0
1000422e:	6101      	str	r1, [r0, #16]
10004230:	3318      	adds	r3, #24
10004232:	6141      	str	r1, [r0, #20]
10004234:	e7e3      	b.n	100041fe <_calloc_r+0x22>
10004236:	46c0      	nop			; (mov r8, r8)

10004238 <malloc>:
10004238:	b510      	push	{r4, lr}
1000423a:	4b03      	ldr	r3, [pc, #12]	; (10004248 <malloc+0x10>)
1000423c:	0001      	movs	r1, r0
1000423e:	6818      	ldr	r0, [r3, #0]
10004240:	f000 f804 	bl	1000424c <_malloc_r>
10004244:	bd10      	pop	{r4, pc}
10004246:	46c0      	nop			; (mov r8, r8)
10004248:	200002fc 	.word	0x200002fc

1000424c <_malloc_r>:
1000424c:	b5f0      	push	{r4, r5, r6, r7, lr}
1000424e:	464e      	mov	r6, r9
10004250:	4645      	mov	r5, r8
10004252:	46de      	mov	lr, fp
10004254:	4657      	mov	r7, sl
10004256:	b5e0      	push	{r5, r6, r7, lr}
10004258:	000d      	movs	r5, r1
1000425a:	350b      	adds	r5, #11
1000425c:	0006      	movs	r6, r0
1000425e:	b083      	sub	sp, #12
10004260:	2d16      	cmp	r5, #22
10004262:	d822      	bhi.n	100042aa <_malloc_r+0x5e>
10004264:	2910      	cmp	r1, #16
10004266:	d900      	bls.n	1000426a <_malloc_r+0x1e>
10004268:	e0b2      	b.n	100043d0 <_malloc_r+0x184>
1000426a:	f000 faaf 	bl	100047cc <__malloc_lock>
1000426e:	2510      	movs	r5, #16
10004270:	2002      	movs	r0, #2
10004272:	2318      	movs	r3, #24
10004274:	4fcb      	ldr	r7, [pc, #812]	; (100045a4 <_malloc_r+0x358>)
10004276:	18fb      	adds	r3, r7, r3
10004278:	001a      	movs	r2, r3
1000427a:	685c      	ldr	r4, [r3, #4]
1000427c:	3a08      	subs	r2, #8
1000427e:	4294      	cmp	r4, r2
10004280:	d100      	bne.n	10004284 <_malloc_r+0x38>
10004282:	e0b5      	b.n	100043f0 <_malloc_r+0x1a4>
10004284:	2303      	movs	r3, #3
10004286:	6862      	ldr	r2, [r4, #4]
10004288:	439a      	bics	r2, r3
1000428a:	0013      	movs	r3, r2
1000428c:	68e2      	ldr	r2, [r4, #12]
1000428e:	68a1      	ldr	r1, [r4, #8]
10004290:	60ca      	str	r2, [r1, #12]
10004292:	6091      	str	r1, [r2, #8]
10004294:	2201      	movs	r2, #1
10004296:	18e3      	adds	r3, r4, r3
10004298:	6859      	ldr	r1, [r3, #4]
1000429a:	0030      	movs	r0, r6
1000429c:	430a      	orrs	r2, r1
1000429e:	605a      	str	r2, [r3, #4]
100042a0:	f000 fa9c 	bl	100047dc <__malloc_unlock>
100042a4:	0020      	movs	r0, r4
100042a6:	3008      	adds	r0, #8
100042a8:	e095      	b.n	100043d6 <_malloc_r+0x18a>
100042aa:	2307      	movs	r3, #7
100042ac:	439d      	bics	r5, r3
100042ae:	d500      	bpl.n	100042b2 <_malloc_r+0x66>
100042b0:	e08e      	b.n	100043d0 <_malloc_r+0x184>
100042b2:	42a9      	cmp	r1, r5
100042b4:	d900      	bls.n	100042b8 <_malloc_r+0x6c>
100042b6:	e08b      	b.n	100043d0 <_malloc_r+0x184>
100042b8:	f000 fa88 	bl	100047cc <__malloc_lock>
100042bc:	23fc      	movs	r3, #252	; 0xfc
100042be:	005b      	lsls	r3, r3, #1
100042c0:	429d      	cmp	r5, r3
100042c2:	d200      	bcs.n	100042c6 <_malloc_r+0x7a>
100042c4:	e1a5      	b.n	10004612 <_malloc_r+0x3c6>
100042c6:	0a68      	lsrs	r0, r5, #9
100042c8:	d100      	bne.n	100042cc <_malloc_r+0x80>
100042ca:	e08b      	b.n	100043e4 <_malloc_r+0x198>
100042cc:	2804      	cmp	r0, #4
100042ce:	d900      	bls.n	100042d2 <_malloc_r+0x86>
100042d0:	e178      	b.n	100045c4 <_malloc_r+0x378>
100042d2:	2338      	movs	r3, #56	; 0x38
100042d4:	4698      	mov	r8, r3
100042d6:	09a8      	lsrs	r0, r5, #6
100042d8:	4480      	add	r8, r0
100042da:	3039      	adds	r0, #57	; 0x39
100042dc:	00c1      	lsls	r1, r0, #3
100042de:	4fb1      	ldr	r7, [pc, #708]	; (100045a4 <_malloc_r+0x358>)
100042e0:	1879      	adds	r1, r7, r1
100042e2:	684c      	ldr	r4, [r1, #4]
100042e4:	3908      	subs	r1, #8
100042e6:	42a1      	cmp	r1, r4
100042e8:	d00e      	beq.n	10004308 <_malloc_r+0xbc>
100042ea:	2303      	movs	r3, #3
100042ec:	469c      	mov	ip, r3
100042ee:	e004      	b.n	100042fa <_malloc_r+0xae>
100042f0:	2a00      	cmp	r2, #0
100042f2:	dacb      	bge.n	1000428c <_malloc_r+0x40>
100042f4:	68e4      	ldr	r4, [r4, #12]
100042f6:	42a1      	cmp	r1, r4
100042f8:	d006      	beq.n	10004308 <_malloc_r+0xbc>
100042fa:	4662      	mov	r2, ip
100042fc:	6863      	ldr	r3, [r4, #4]
100042fe:	4393      	bics	r3, r2
10004300:	1b5a      	subs	r2, r3, r5
10004302:	2a0f      	cmp	r2, #15
10004304:	ddf4      	ble.n	100042f0 <_malloc_r+0xa4>
10004306:	4640      	mov	r0, r8
10004308:	003a      	movs	r2, r7
1000430a:	693c      	ldr	r4, [r7, #16]
1000430c:	3208      	adds	r2, #8
1000430e:	4294      	cmp	r4, r2
10004310:	d100      	bne.n	10004314 <_malloc_r+0xc8>
10004312:	e078      	b.n	10004406 <_malloc_r+0x1ba>
10004314:	2303      	movs	r3, #3
10004316:	6861      	ldr	r1, [r4, #4]
10004318:	4399      	bics	r1, r3
1000431a:	4689      	mov	r9, r1
1000431c:	000b      	movs	r3, r1
1000431e:	1b49      	subs	r1, r1, r5
10004320:	290f      	cmp	r1, #15
10004322:	dd00      	ble.n	10004326 <_malloc_r+0xda>
10004324:	e179      	b.n	1000461a <_malloc_r+0x3ce>
10004326:	617a      	str	r2, [r7, #20]
10004328:	613a      	str	r2, [r7, #16]
1000432a:	2900      	cmp	r1, #0
1000432c:	dab2      	bge.n	10004294 <_malloc_r+0x48>
1000432e:	2280      	movs	r2, #128	; 0x80
10004330:	0092      	lsls	r2, r2, #2
10004332:	4591      	cmp	r9, r2
10004334:	d300      	bcc.n	10004338 <_malloc_r+0xec>
10004336:	e10e      	b.n	10004556 <_malloc_r+0x30a>
10004338:	0959      	lsrs	r1, r3, #5
1000433a:	08da      	lsrs	r2, r3, #3
1000433c:	2301      	movs	r3, #1
1000433e:	408b      	lsls	r3, r1
10004340:	00d2      	lsls	r2, r2, #3
10004342:	6879      	ldr	r1, [r7, #4]
10004344:	19d2      	adds	r2, r2, r7
10004346:	430b      	orrs	r3, r1
10004348:	6891      	ldr	r1, [r2, #8]
1000434a:	607b      	str	r3, [r7, #4]
1000434c:	60e2      	str	r2, [r4, #12]
1000434e:	60a1      	str	r1, [r4, #8]
10004350:	6094      	str	r4, [r2, #8]
10004352:	60cc      	str	r4, [r1, #12]
10004354:	2101      	movs	r1, #1
10004356:	1082      	asrs	r2, r0, #2
10004358:	4091      	lsls	r1, r2
1000435a:	4299      	cmp	r1, r3
1000435c:	d859      	bhi.n	10004412 <_malloc_r+0x1c6>
1000435e:	420b      	tst	r3, r1
10004360:	d105      	bne.n	1000436e <_malloc_r+0x122>
10004362:	2203      	movs	r2, #3
10004364:	4390      	bics	r0, r2
10004366:	0049      	lsls	r1, r1, #1
10004368:	3004      	adds	r0, #4
1000436a:	420b      	tst	r3, r1
1000436c:	d0fb      	beq.n	10004366 <_malloc_r+0x11a>
1000436e:	2303      	movs	r3, #3
10004370:	4698      	mov	r8, r3
10004372:	00c3      	lsls	r3, r0, #3
10004374:	4699      	mov	r9, r3
10004376:	44b9      	add	r9, r7
10004378:	46cc      	mov	ip, r9
1000437a:	4682      	mov	sl, r0
1000437c:	4663      	mov	r3, ip
1000437e:	68dc      	ldr	r4, [r3, #12]
10004380:	45a4      	cmp	ip, r4
10004382:	d107      	bne.n	10004394 <_malloc_r+0x148>
10004384:	e12a      	b.n	100045dc <_malloc_r+0x390>
10004386:	2a00      	cmp	r2, #0
10004388:	db00      	blt.n	1000438c <_malloc_r+0x140>
1000438a:	e133      	b.n	100045f4 <_malloc_r+0x3a8>
1000438c:	68e4      	ldr	r4, [r4, #12]
1000438e:	45a4      	cmp	ip, r4
10004390:	d100      	bne.n	10004394 <_malloc_r+0x148>
10004392:	e123      	b.n	100045dc <_malloc_r+0x390>
10004394:	4642      	mov	r2, r8
10004396:	6863      	ldr	r3, [r4, #4]
10004398:	4393      	bics	r3, r2
1000439a:	1b5a      	subs	r2, r3, r5
1000439c:	2a0f      	cmp	r2, #15
1000439e:	ddf2      	ble.n	10004386 <_malloc_r+0x13a>
100043a0:	2001      	movs	r0, #1
100043a2:	4680      	mov	r8, r0
100043a4:	1961      	adds	r1, r4, r5
100043a6:	4305      	orrs	r5, r0
100043a8:	6065      	str	r5, [r4, #4]
100043aa:	68a0      	ldr	r0, [r4, #8]
100043ac:	68e5      	ldr	r5, [r4, #12]
100043ae:	3708      	adds	r7, #8
100043b0:	60c5      	str	r5, [r0, #12]
100043b2:	60a8      	str	r0, [r5, #8]
100043b4:	4640      	mov	r0, r8
100043b6:	4310      	orrs	r0, r2
100043b8:	60f9      	str	r1, [r7, #12]
100043ba:	60b9      	str	r1, [r7, #8]
100043bc:	6048      	str	r0, [r1, #4]
100043be:	60cf      	str	r7, [r1, #12]
100043c0:	0030      	movs	r0, r6
100043c2:	608f      	str	r7, [r1, #8]
100043c4:	50e2      	str	r2, [r4, r3]
100043c6:	f000 fa09 	bl	100047dc <__malloc_unlock>
100043ca:	0020      	movs	r0, r4
100043cc:	3008      	adds	r0, #8
100043ce:	e002      	b.n	100043d6 <_malloc_r+0x18a>
100043d0:	230c      	movs	r3, #12
100043d2:	2000      	movs	r0, #0
100043d4:	6033      	str	r3, [r6, #0]
100043d6:	b003      	add	sp, #12
100043d8:	bc3c      	pop	{r2, r3, r4, r5}
100043da:	4690      	mov	r8, r2
100043dc:	4699      	mov	r9, r3
100043de:	46a2      	mov	sl, r4
100043e0:	46ab      	mov	fp, r5
100043e2:	bdf0      	pop	{r4, r5, r6, r7, pc}
100043e4:	2180      	movs	r1, #128	; 0x80
100043e6:	233f      	movs	r3, #63	; 0x3f
100043e8:	2040      	movs	r0, #64	; 0x40
100043ea:	4698      	mov	r8, r3
100043ec:	0089      	lsls	r1, r1, #2
100043ee:	e776      	b.n	100042de <_malloc_r+0x92>
100043f0:	68dc      	ldr	r4, [r3, #12]
100043f2:	3002      	adds	r0, #2
100043f4:	42a3      	cmp	r3, r4
100043f6:	d000      	beq.n	100043fa <_malloc_r+0x1ae>
100043f8:	e744      	b.n	10004284 <_malloc_r+0x38>
100043fa:	003a      	movs	r2, r7
100043fc:	693c      	ldr	r4, [r7, #16]
100043fe:	3208      	adds	r2, #8
10004400:	4294      	cmp	r4, r2
10004402:	d000      	beq.n	10004406 <_malloc_r+0x1ba>
10004404:	e786      	b.n	10004314 <_malloc_r+0xc8>
10004406:	2101      	movs	r1, #1
10004408:	687b      	ldr	r3, [r7, #4]
1000440a:	1082      	asrs	r2, r0, #2
1000440c:	4091      	lsls	r1, r2
1000440e:	4299      	cmp	r1, r3
10004410:	d9a5      	bls.n	1000435e <_malloc_r+0x112>
10004412:	2303      	movs	r3, #3
10004414:	68bc      	ldr	r4, [r7, #8]
10004416:	6862      	ldr	r2, [r4, #4]
10004418:	439a      	bics	r2, r3
1000441a:	4691      	mov	r9, r2
1000441c:	4295      	cmp	r5, r2
1000441e:	d803      	bhi.n	10004428 <_malloc_r+0x1dc>
10004420:	1b53      	subs	r3, r2, r5
10004422:	2b0f      	cmp	r3, #15
10004424:	dd00      	ble.n	10004428 <_malloc_r+0x1dc>
10004426:	e088      	b.n	1000453a <_malloc_r+0x2ee>
10004428:	0023      	movs	r3, r4
1000442a:	444b      	add	r3, r9
1000442c:	4a5e      	ldr	r2, [pc, #376]	; (100045a8 <_malloc_r+0x35c>)
1000442e:	9301      	str	r3, [sp, #4]
10004430:	4b5e      	ldr	r3, [pc, #376]	; (100045ac <_malloc_r+0x360>)
10004432:	4693      	mov	fp, r2
10004434:	681b      	ldr	r3, [r3, #0]
10004436:	6812      	ldr	r2, [r2, #0]
10004438:	18eb      	adds	r3, r5, r3
1000443a:	3201      	adds	r2, #1
1000443c:	d100      	bne.n	10004440 <_malloc_r+0x1f4>
1000443e:	e13b      	b.n	100046b8 <_malloc_r+0x46c>
10004440:	4a5b      	ldr	r2, [pc, #364]	; (100045b0 <_malloc_r+0x364>)
10004442:	4694      	mov	ip, r2
10004444:	4463      	add	r3, ip
10004446:	0b1b      	lsrs	r3, r3, #12
10004448:	031b      	lsls	r3, r3, #12
1000444a:	9300      	str	r3, [sp, #0]
1000444c:	0030      	movs	r0, r6
1000444e:	9900      	ldr	r1, [sp, #0]
10004450:	f000 f9cc 	bl	100047ec <_sbrk_r>
10004454:	0003      	movs	r3, r0
10004456:	4680      	mov	r8, r0
10004458:	3301      	adds	r3, #1
1000445a:	d100      	bne.n	1000445e <_malloc_r+0x212>
1000445c:	e0f8      	b.n	10004650 <_malloc_r+0x404>
1000445e:	9b01      	ldr	r3, [sp, #4]
10004460:	4283      	cmp	r3, r0
10004462:	d900      	bls.n	10004466 <_malloc_r+0x21a>
10004464:	e0f2      	b.n	1000464c <_malloc_r+0x400>
10004466:	4b53      	ldr	r3, [pc, #332]	; (100045b4 <_malloc_r+0x368>)
10004468:	0019      	movs	r1, r3
1000446a:	469a      	mov	sl, r3
1000446c:	6809      	ldr	r1, [r1, #0]
1000446e:	9b00      	ldr	r3, [sp, #0]
10004470:	468c      	mov	ip, r1
10004472:	4651      	mov	r1, sl
10004474:	4463      	add	r3, ip
10004476:	600b      	str	r3, [r1, #0]
10004478:	9901      	ldr	r1, [sp, #4]
1000447a:	001a      	movs	r2, r3
1000447c:	4281      	cmp	r1, r0
1000447e:	d100      	bne.n	10004482 <_malloc_r+0x236>
10004480:	e150      	b.n	10004724 <_malloc_r+0x4d8>
10004482:	465b      	mov	r3, fp
10004484:	681b      	ldr	r3, [r3, #0]
10004486:	3301      	adds	r3, #1
10004488:	d100      	bne.n	1000448c <_malloc_r+0x240>
1000448a:	e155      	b.n	10004738 <_malloc_r+0x4ec>
1000448c:	4643      	mov	r3, r8
1000448e:	9901      	ldr	r1, [sp, #4]
10004490:	1a5b      	subs	r3, r3, r1
10004492:	189a      	adds	r2, r3, r2
10004494:	4653      	mov	r3, sl
10004496:	601a      	str	r2, [r3, #0]
10004498:	2307      	movs	r3, #7
1000449a:	4642      	mov	r2, r8
1000449c:	4641      	mov	r1, r8
1000449e:	401a      	ands	r2, r3
100044a0:	9201      	str	r2, [sp, #4]
100044a2:	4219      	tst	r1, r3
100044a4:	d100      	bne.n	100044a8 <_malloc_r+0x25c>
100044a6:	e111      	b.n	100046cc <_malloc_r+0x480>
100044a8:	2308      	movs	r3, #8
100044aa:	4698      	mov	r8, r3
100044ac:	1a88      	subs	r0, r1, r2
100044ae:	4b42      	ldr	r3, [pc, #264]	; (100045b8 <_malloc_r+0x36c>)
100044b0:	9900      	ldr	r1, [sp, #0]
100044b2:	4480      	add	r8, r0
100044b4:	4441      	add	r1, r8
100044b6:	1a9b      	subs	r3, r3, r2
100044b8:	1a5b      	subs	r3, r3, r1
100044ba:	051b      	lsls	r3, r3, #20
100044bc:	0d1b      	lsrs	r3, r3, #20
100044be:	9100      	str	r1, [sp, #0]
100044c0:	0030      	movs	r0, r6
100044c2:	0019      	movs	r1, r3
100044c4:	469b      	mov	fp, r3
100044c6:	f000 f991 	bl	100047ec <_sbrk_r>
100044ca:	1c43      	adds	r3, r0, #1
100044cc:	d100      	bne.n	100044d0 <_malloc_r+0x284>
100044ce:	e14f      	b.n	10004770 <_malloc_r+0x524>
100044d0:	4643      	mov	r3, r8
100044d2:	1ac0      	subs	r0, r0, r3
100044d4:	0003      	movs	r3, r0
100044d6:	445b      	add	r3, fp
100044d8:	9300      	str	r3, [sp, #0]
100044da:	4653      	mov	r3, sl
100044dc:	4652      	mov	r2, sl
100044de:	681b      	ldr	r3, [r3, #0]
100044e0:	2101      	movs	r1, #1
100044e2:	445b      	add	r3, fp
100044e4:	6013      	str	r3, [r2, #0]
100044e6:	4642      	mov	r2, r8
100044e8:	4640      	mov	r0, r8
100044ea:	60ba      	str	r2, [r7, #8]
100044ec:	9a00      	ldr	r2, [sp, #0]
100044ee:	430a      	orrs	r2, r1
100044f0:	6042      	str	r2, [r0, #4]
100044f2:	42bc      	cmp	r4, r7
100044f4:	d100      	bne.n	100044f8 <_malloc_r+0x2ac>
100044f6:	e123      	b.n	10004740 <_malloc_r+0x4f4>
100044f8:	464a      	mov	r2, r9
100044fa:	2a0f      	cmp	r2, #15
100044fc:	d800      	bhi.n	10004500 <_malloc_r+0x2b4>
100044fe:	e121      	b.n	10004744 <_malloc_r+0x4f8>
10004500:	2007      	movs	r0, #7
10004502:	3a0c      	subs	r2, #12
10004504:	4382      	bics	r2, r0
10004506:	6860      	ldr	r0, [r4, #4]
10004508:	4001      	ands	r1, r0
1000450a:	2005      	movs	r0, #5
1000450c:	4311      	orrs	r1, r2
1000450e:	6061      	str	r1, [r4, #4]
10004510:	18a1      	adds	r1, r4, r2
10004512:	6048      	str	r0, [r1, #4]
10004514:	6088      	str	r0, [r1, #8]
10004516:	2a0f      	cmp	r2, #15
10004518:	d900      	bls.n	1000451c <_malloc_r+0x2d0>
1000451a:	e134      	b.n	10004786 <_malloc_r+0x53a>
1000451c:	4642      	mov	r2, r8
1000451e:	4644      	mov	r4, r8
10004520:	6852      	ldr	r2, [r2, #4]
10004522:	4926      	ldr	r1, [pc, #152]	; (100045bc <_malloc_r+0x370>)
10004524:	6808      	ldr	r0, [r1, #0]
10004526:	4298      	cmp	r0, r3
10004528:	d200      	bcs.n	1000452c <_malloc_r+0x2e0>
1000452a:	600b      	str	r3, [r1, #0]
1000452c:	4924      	ldr	r1, [pc, #144]	; (100045c0 <_malloc_r+0x374>)
1000452e:	6808      	ldr	r0, [r1, #0]
10004530:	4298      	cmp	r0, r3
10004532:	d300      	bcc.n	10004536 <_malloc_r+0x2ea>
10004534:	e08e      	b.n	10004654 <_malloc_r+0x408>
10004536:	600b      	str	r3, [r1, #0]
10004538:	e08c      	b.n	10004654 <_malloc_r+0x408>
1000453a:	2201      	movs	r2, #1
1000453c:	0029      	movs	r1, r5
1000453e:	4313      	orrs	r3, r2
10004540:	4311      	orrs	r1, r2
10004542:	1965      	adds	r5, r4, r5
10004544:	6061      	str	r1, [r4, #4]
10004546:	0030      	movs	r0, r6
10004548:	60bd      	str	r5, [r7, #8]
1000454a:	606b      	str	r3, [r5, #4]
1000454c:	f000 f946 	bl	100047dc <__malloc_unlock>
10004550:	0020      	movs	r0, r4
10004552:	3008      	adds	r0, #8
10004554:	e73f      	b.n	100043d6 <_malloc_r+0x18a>
10004556:	0a5a      	lsrs	r2, r3, #9
10004558:	2a04      	cmp	r2, #4
1000455a:	d971      	bls.n	10004640 <_malloc_r+0x3f4>
1000455c:	2a14      	cmp	r2, #20
1000455e:	d900      	bls.n	10004562 <_malloc_r+0x316>
10004560:	e0c4      	b.n	100046ec <_malloc_r+0x4a0>
10004562:	0011      	movs	r1, r2
10004564:	325c      	adds	r2, #92	; 0x5c
10004566:	315b      	adds	r1, #91	; 0x5b
10004568:	00d2      	lsls	r2, r2, #3
1000456a:	2308      	movs	r3, #8
1000456c:	425b      	negs	r3, r3
1000456e:	469c      	mov	ip, r3
10004570:	18ba      	adds	r2, r7, r2
10004572:	4494      	add	ip, r2
10004574:	4663      	mov	r3, ip
10004576:	689a      	ldr	r2, [r3, #8]
10004578:	2303      	movs	r3, #3
1000457a:	4698      	mov	r8, r3
1000457c:	4594      	cmp	ip, r2
1000457e:	d100      	bne.n	10004582 <_malloc_r+0x336>
10004580:	e09d      	b.n	100046be <_malloc_r+0x472>
10004582:	4643      	mov	r3, r8
10004584:	6851      	ldr	r1, [r2, #4]
10004586:	4399      	bics	r1, r3
10004588:	4549      	cmp	r1, r9
1000458a:	d902      	bls.n	10004592 <_malloc_r+0x346>
1000458c:	6892      	ldr	r2, [r2, #8]
1000458e:	4594      	cmp	ip, r2
10004590:	d1f7      	bne.n	10004582 <_malloc_r+0x336>
10004592:	68d3      	ldr	r3, [r2, #12]
10004594:	469c      	mov	ip, r3
10004596:	687b      	ldr	r3, [r7, #4]
10004598:	4661      	mov	r1, ip
1000459a:	60a2      	str	r2, [r4, #8]
1000459c:	60e1      	str	r1, [r4, #12]
1000459e:	608c      	str	r4, [r1, #8]
100045a0:	60d4      	str	r4, [r2, #12]
100045a2:	e6d7      	b.n	10004354 <_malloc_r+0x108>
100045a4:	20000728 	.word	0x20000728
100045a8:	20000b30 	.word	0x20000b30
100045ac:	20000bac 	.word	0x20000bac
100045b0:	0000100f 	.word	0x0000100f
100045b4:	20000b7c 	.word	0x20000b7c
100045b8:	00001008 	.word	0x00001008
100045bc:	20000ba4 	.word	0x20000ba4
100045c0:	20000ba8 	.word	0x20000ba8
100045c4:	2814      	cmp	r0, #20
100045c6:	d952      	bls.n	1000466e <_malloc_r+0x422>
100045c8:	2854      	cmp	r0, #84	; 0x54
100045ca:	d900      	bls.n	100045ce <_malloc_r+0x382>
100045cc:	e096      	b.n	100046fc <_malloc_r+0x4b0>
100045ce:	236e      	movs	r3, #110	; 0x6e
100045d0:	4698      	mov	r8, r3
100045d2:	0b28      	lsrs	r0, r5, #12
100045d4:	4480      	add	r8, r0
100045d6:	306f      	adds	r0, #111	; 0x6f
100045d8:	00c1      	lsls	r1, r0, #3
100045da:	e680      	b.n	100042de <_malloc_r+0x92>
100045dc:	2308      	movs	r3, #8
100045de:	469b      	mov	fp, r3
100045e0:	3b07      	subs	r3, #7
100045e2:	44dc      	add	ip, fp
100045e4:	469b      	mov	fp, r3
100045e6:	44da      	add	sl, fp
100045e8:	4643      	mov	r3, r8
100045ea:	4652      	mov	r2, sl
100045ec:	4213      	tst	r3, r2
100045ee:	d000      	beq.n	100045f2 <_malloc_r+0x3a6>
100045f0:	e6c4      	b.n	1000437c <_malloc_r+0x130>
100045f2:	e04c      	b.n	1000468e <_malloc_r+0x442>
100045f4:	2201      	movs	r2, #1
100045f6:	18e3      	adds	r3, r4, r3
100045f8:	6859      	ldr	r1, [r3, #4]
100045fa:	0030      	movs	r0, r6
100045fc:	430a      	orrs	r2, r1
100045fe:	605a      	str	r2, [r3, #4]
10004600:	68e3      	ldr	r3, [r4, #12]
10004602:	68a2      	ldr	r2, [r4, #8]
10004604:	60d3      	str	r3, [r2, #12]
10004606:	609a      	str	r2, [r3, #8]
10004608:	f000 f8e8 	bl	100047dc <__malloc_unlock>
1000460c:	0020      	movs	r0, r4
1000460e:	3008      	adds	r0, #8
10004610:	e6e1      	b.n	100043d6 <_malloc_r+0x18a>
10004612:	002b      	movs	r3, r5
10004614:	08e8      	lsrs	r0, r5, #3
10004616:	3308      	adds	r3, #8
10004618:	e62c      	b.n	10004274 <_malloc_r+0x28>
1000461a:	2301      	movs	r3, #1
1000461c:	1960      	adds	r0, r4, r5
1000461e:	431d      	orrs	r5, r3
10004620:	6065      	str	r5, [r4, #4]
10004622:	6178      	str	r0, [r7, #20]
10004624:	6138      	str	r0, [r7, #16]
10004626:	60c2      	str	r2, [r0, #12]
10004628:	6082      	str	r2, [r0, #8]
1000462a:	001a      	movs	r2, r3
1000462c:	464b      	mov	r3, r9
1000462e:	430a      	orrs	r2, r1
10004630:	6042      	str	r2, [r0, #4]
10004632:	0030      	movs	r0, r6
10004634:	50e1      	str	r1, [r4, r3]
10004636:	f000 f8d1 	bl	100047dc <__malloc_unlock>
1000463a:	0020      	movs	r0, r4
1000463c:	3008      	adds	r0, #8
1000463e:	e6ca      	b.n	100043d6 <_malloc_r+0x18a>
10004640:	099a      	lsrs	r2, r3, #6
10004642:	0011      	movs	r1, r2
10004644:	3239      	adds	r2, #57	; 0x39
10004646:	3138      	adds	r1, #56	; 0x38
10004648:	00d2      	lsls	r2, r2, #3
1000464a:	e78e      	b.n	1000456a <_malloc_r+0x31e>
1000464c:	42bc      	cmp	r4, r7
1000464e:	d060      	beq.n	10004712 <_malloc_r+0x4c6>
10004650:	68bc      	ldr	r4, [r7, #8]
10004652:	6862      	ldr	r2, [r4, #4]
10004654:	2303      	movs	r3, #3
10004656:	439a      	bics	r2, r3
10004658:	1b53      	subs	r3, r2, r5
1000465a:	4295      	cmp	r5, r2
1000465c:	d802      	bhi.n	10004664 <_malloc_r+0x418>
1000465e:	2b0f      	cmp	r3, #15
10004660:	dd00      	ble.n	10004664 <_malloc_r+0x418>
10004662:	e76a      	b.n	1000453a <_malloc_r+0x2ee>
10004664:	0030      	movs	r0, r6
10004666:	f000 f8b9 	bl	100047dc <__malloc_unlock>
1000466a:	2000      	movs	r0, #0
1000466c:	e6b3      	b.n	100043d6 <_malloc_r+0x18a>
1000466e:	235b      	movs	r3, #91	; 0x5b
10004670:	4698      	mov	r8, r3
10004672:	4480      	add	r8, r0
10004674:	305c      	adds	r0, #92	; 0x5c
10004676:	00c1      	lsls	r1, r0, #3
10004678:	e631      	b.n	100042de <_malloc_r+0x92>
1000467a:	2308      	movs	r3, #8
1000467c:	425b      	negs	r3, r3
1000467e:	469c      	mov	ip, r3
10004680:	44e1      	add	r9, ip
10004682:	464b      	mov	r3, r9
10004684:	689b      	ldr	r3, [r3, #8]
10004686:	3801      	subs	r0, #1
10004688:	454b      	cmp	r3, r9
1000468a:	d000      	beq.n	1000468e <_malloc_r+0x442>
1000468c:	e098      	b.n	100047c0 <_malloc_r+0x574>
1000468e:	4643      	mov	r3, r8
10004690:	4203      	tst	r3, r0
10004692:	d1f2      	bne.n	1000467a <_malloc_r+0x42e>
10004694:	687b      	ldr	r3, [r7, #4]
10004696:	438b      	bics	r3, r1
10004698:	607b      	str	r3, [r7, #4]
1000469a:	0049      	lsls	r1, r1, #1
1000469c:	4299      	cmp	r1, r3
1000469e:	d900      	bls.n	100046a2 <_malloc_r+0x456>
100046a0:	e6b7      	b.n	10004412 <_malloc_r+0x1c6>
100046a2:	2900      	cmp	r1, #0
100046a4:	d104      	bne.n	100046b0 <_malloc_r+0x464>
100046a6:	e6b4      	b.n	10004412 <_malloc_r+0x1c6>
100046a8:	2204      	movs	r2, #4
100046aa:	4694      	mov	ip, r2
100046ac:	0049      	lsls	r1, r1, #1
100046ae:	44e2      	add	sl, ip
100046b0:	420b      	tst	r3, r1
100046b2:	d0f9      	beq.n	100046a8 <_malloc_r+0x45c>
100046b4:	4650      	mov	r0, sl
100046b6:	e65c      	b.n	10004372 <_malloc_r+0x126>
100046b8:	3310      	adds	r3, #16
100046ba:	9300      	str	r3, [sp, #0]
100046bc:	e6c6      	b.n	1000444c <_malloc_r+0x200>
100046be:	1089      	asrs	r1, r1, #2
100046c0:	3b02      	subs	r3, #2
100046c2:	408b      	lsls	r3, r1
100046c4:	6879      	ldr	r1, [r7, #4]
100046c6:	430b      	orrs	r3, r1
100046c8:	607b      	str	r3, [r7, #4]
100046ca:	e765      	b.n	10004598 <_malloc_r+0x34c>
100046cc:	9b00      	ldr	r3, [sp, #0]
100046ce:	0030      	movs	r0, r6
100046d0:	4443      	add	r3, r8
100046d2:	425b      	negs	r3, r3
100046d4:	051b      	lsls	r3, r3, #20
100046d6:	0d1b      	lsrs	r3, r3, #20
100046d8:	0019      	movs	r1, r3
100046da:	469b      	mov	fp, r3
100046dc:	f000 f886 	bl	100047ec <_sbrk_r>
100046e0:	1c43      	adds	r3, r0, #1
100046e2:	d000      	beq.n	100046e6 <_malloc_r+0x49a>
100046e4:	e6f4      	b.n	100044d0 <_malloc_r+0x284>
100046e6:	2300      	movs	r3, #0
100046e8:	469b      	mov	fp, r3
100046ea:	e6f6      	b.n	100044da <_malloc_r+0x28e>
100046ec:	2a54      	cmp	r2, #84	; 0x54
100046ee:	d82b      	bhi.n	10004748 <_malloc_r+0x4fc>
100046f0:	0b1a      	lsrs	r2, r3, #12
100046f2:	0011      	movs	r1, r2
100046f4:	326f      	adds	r2, #111	; 0x6f
100046f6:	316e      	adds	r1, #110	; 0x6e
100046f8:	00d2      	lsls	r2, r2, #3
100046fa:	e736      	b.n	1000456a <_malloc_r+0x31e>
100046fc:	23aa      	movs	r3, #170	; 0xaa
100046fe:	005b      	lsls	r3, r3, #1
10004700:	4298      	cmp	r0, r3
10004702:	d82b      	bhi.n	1000475c <_malloc_r+0x510>
10004704:	3bdd      	subs	r3, #221	; 0xdd
10004706:	4698      	mov	r8, r3
10004708:	0be8      	lsrs	r0, r5, #15
1000470a:	4480      	add	r8, r0
1000470c:	3078      	adds	r0, #120	; 0x78
1000470e:	00c1      	lsls	r1, r0, #3
10004710:	e5e5      	b.n	100042de <_malloc_r+0x92>
10004712:	4b2c      	ldr	r3, [pc, #176]	; (100047c4 <_malloc_r+0x578>)
10004714:	9a00      	ldr	r2, [sp, #0]
10004716:	469a      	mov	sl, r3
10004718:	681b      	ldr	r3, [r3, #0]
1000471a:	469c      	mov	ip, r3
1000471c:	4653      	mov	r3, sl
1000471e:	4462      	add	r2, ip
10004720:	601a      	str	r2, [r3, #0]
10004722:	e6ae      	b.n	10004482 <_malloc_r+0x236>
10004724:	0509      	lsls	r1, r1, #20
10004726:	d000      	beq.n	1000472a <_malloc_r+0x4de>
10004728:	e6ab      	b.n	10004482 <_malloc_r+0x236>
1000472a:	9a00      	ldr	r2, [sp, #0]
1000472c:	68bc      	ldr	r4, [r7, #8]
1000472e:	444a      	add	r2, r9
10004730:	3101      	adds	r1, #1
10004732:	430a      	orrs	r2, r1
10004734:	6062      	str	r2, [r4, #4]
10004736:	e6f4      	b.n	10004522 <_malloc_r+0x2d6>
10004738:	465b      	mov	r3, fp
1000473a:	4642      	mov	r2, r8
1000473c:	601a      	str	r2, [r3, #0]
1000473e:	e6ab      	b.n	10004498 <_malloc_r+0x24c>
10004740:	4644      	mov	r4, r8
10004742:	e6ee      	b.n	10004522 <_malloc_r+0x2d6>
10004744:	6041      	str	r1, [r0, #4]
10004746:	e78d      	b.n	10004664 <_malloc_r+0x418>
10004748:	21aa      	movs	r1, #170	; 0xaa
1000474a:	0049      	lsls	r1, r1, #1
1000474c:	428a      	cmp	r2, r1
1000474e:	d824      	bhi.n	1000479a <_malloc_r+0x54e>
10004750:	0bda      	lsrs	r2, r3, #15
10004752:	0011      	movs	r1, r2
10004754:	3278      	adds	r2, #120	; 0x78
10004756:	3177      	adds	r1, #119	; 0x77
10004758:	00d2      	lsls	r2, r2, #3
1000475a:	e706      	b.n	1000456a <_malloc_r+0x31e>
1000475c:	4b1a      	ldr	r3, [pc, #104]	; (100047c8 <_malloc_r+0x57c>)
1000475e:	4298      	cmp	r0, r3
10004760:	d824      	bhi.n	100047ac <_malloc_r+0x560>
10004762:	237c      	movs	r3, #124	; 0x7c
10004764:	4698      	mov	r8, r3
10004766:	0ca8      	lsrs	r0, r5, #18
10004768:	4480      	add	r8, r0
1000476a:	307d      	adds	r0, #125	; 0x7d
1000476c:	00c1      	lsls	r1, r0, #3
1000476e:	e5b6      	b.n	100042de <_malloc_r+0x92>
10004770:	9a00      	ldr	r2, [sp, #0]
10004772:	9b01      	ldr	r3, [sp, #4]
10004774:	4694      	mov	ip, r2
10004776:	4642      	mov	r2, r8
10004778:	3b08      	subs	r3, #8
1000477a:	4463      	add	r3, ip
1000477c:	1a9b      	subs	r3, r3, r2
1000477e:	9300      	str	r3, [sp, #0]
10004780:	2300      	movs	r3, #0
10004782:	469b      	mov	fp, r3
10004784:	e6a9      	b.n	100044da <_malloc_r+0x28e>
10004786:	0021      	movs	r1, r4
10004788:	0030      	movs	r0, r6
1000478a:	3108      	adds	r1, #8
1000478c:	f000 f8bc 	bl	10004908 <_free_r>
10004790:	4653      	mov	r3, sl
10004792:	68bc      	ldr	r4, [r7, #8]
10004794:	681b      	ldr	r3, [r3, #0]
10004796:	6862      	ldr	r2, [r4, #4]
10004798:	e6c3      	b.n	10004522 <_malloc_r+0x2d6>
1000479a:	490b      	ldr	r1, [pc, #44]	; (100047c8 <_malloc_r+0x57c>)
1000479c:	428a      	cmp	r2, r1
1000479e:	d80b      	bhi.n	100047b8 <_malloc_r+0x56c>
100047a0:	0c9a      	lsrs	r2, r3, #18
100047a2:	0011      	movs	r1, r2
100047a4:	327d      	adds	r2, #125	; 0x7d
100047a6:	317c      	adds	r1, #124	; 0x7c
100047a8:	00d2      	lsls	r2, r2, #3
100047aa:	e6de      	b.n	1000456a <_malloc_r+0x31e>
100047ac:	21fe      	movs	r1, #254	; 0xfe
100047ae:	237e      	movs	r3, #126	; 0x7e
100047b0:	207f      	movs	r0, #127	; 0x7f
100047b2:	4698      	mov	r8, r3
100047b4:	0089      	lsls	r1, r1, #2
100047b6:	e592      	b.n	100042de <_malloc_r+0x92>
100047b8:	22fe      	movs	r2, #254	; 0xfe
100047ba:	217e      	movs	r1, #126	; 0x7e
100047bc:	0092      	lsls	r2, r2, #2
100047be:	e6d4      	b.n	1000456a <_malloc_r+0x31e>
100047c0:	687b      	ldr	r3, [r7, #4]
100047c2:	e76a      	b.n	1000469a <_malloc_r+0x44e>
100047c4:	20000b7c 	.word	0x20000b7c
100047c8:	00000554 	.word	0x00000554

100047cc <__malloc_lock>:
100047cc:	b510      	push	{r4, lr}
100047ce:	4802      	ldr	r0, [pc, #8]	; (100047d8 <__malloc_lock+0xc>)
100047d0:	f000 f97c 	bl	10004acc <__retarget_lock_acquire_recursive>
100047d4:	bd10      	pop	{r4, pc}
100047d6:	46c0      	nop			; (mov r8, r8)
100047d8:	20001920 	.word	0x20001920

100047dc <__malloc_unlock>:
100047dc:	b510      	push	{r4, lr}
100047de:	4802      	ldr	r0, [pc, #8]	; (100047e8 <__malloc_unlock+0xc>)
100047e0:	f000 f976 	bl	10004ad0 <__retarget_lock_release_recursive>
100047e4:	bd10      	pop	{r4, pc}
100047e6:	46c0      	nop			; (mov r8, r8)
100047e8:	20001920 	.word	0x20001920

100047ec <_sbrk_r>:
100047ec:	2300      	movs	r3, #0
100047ee:	b570      	push	{r4, r5, r6, lr}
100047f0:	4d06      	ldr	r5, [pc, #24]	; (1000480c <_sbrk_r+0x20>)
100047f2:	0004      	movs	r4, r0
100047f4:	0008      	movs	r0, r1
100047f6:	602b      	str	r3, [r5, #0]
100047f8:	f7fc fe3a 	bl	10001470 <_sbrk>
100047fc:	1c43      	adds	r3, r0, #1
100047fe:	d000      	beq.n	10004802 <_sbrk_r+0x16>
10004800:	bd70      	pop	{r4, r5, r6, pc}
10004802:	682b      	ldr	r3, [r5, #0]
10004804:	2b00      	cmp	r3, #0
10004806:	d0fb      	beq.n	10004800 <_sbrk_r+0x14>
10004808:	6023      	str	r3, [r4, #0]
1000480a:	e7f9      	b.n	10004800 <_sbrk_r+0x14>
1000480c:	20001934 	.word	0x20001934

10004810 <strlen>:
10004810:	b510      	push	{r4, lr}
10004812:	0783      	lsls	r3, r0, #30
10004814:	d00a      	beq.n	1000482c <strlen+0x1c>
10004816:	0003      	movs	r3, r0
10004818:	2103      	movs	r1, #3
1000481a:	e002      	b.n	10004822 <strlen+0x12>
1000481c:	3301      	adds	r3, #1
1000481e:	420b      	tst	r3, r1
10004820:	d005      	beq.n	1000482e <strlen+0x1e>
10004822:	781a      	ldrb	r2, [r3, #0]
10004824:	2a00      	cmp	r2, #0
10004826:	d1f9      	bne.n	1000481c <strlen+0xc>
10004828:	1a18      	subs	r0, r3, r0
1000482a:	bd10      	pop	{r4, pc}
1000482c:	0003      	movs	r3, r0
1000482e:	6819      	ldr	r1, [r3, #0]
10004830:	4a0c      	ldr	r2, [pc, #48]	; (10004864 <strlen+0x54>)
10004832:	4c0d      	ldr	r4, [pc, #52]	; (10004868 <strlen+0x58>)
10004834:	188a      	adds	r2, r1, r2
10004836:	438a      	bics	r2, r1
10004838:	4222      	tst	r2, r4
1000483a:	d10f      	bne.n	1000485c <strlen+0x4c>
1000483c:	6859      	ldr	r1, [r3, #4]
1000483e:	4a09      	ldr	r2, [pc, #36]	; (10004864 <strlen+0x54>)
10004840:	3304      	adds	r3, #4
10004842:	188a      	adds	r2, r1, r2
10004844:	438a      	bics	r2, r1
10004846:	4222      	tst	r2, r4
10004848:	d108      	bne.n	1000485c <strlen+0x4c>
1000484a:	6859      	ldr	r1, [r3, #4]
1000484c:	4a05      	ldr	r2, [pc, #20]	; (10004864 <strlen+0x54>)
1000484e:	3304      	adds	r3, #4
10004850:	188a      	adds	r2, r1, r2
10004852:	438a      	bics	r2, r1
10004854:	4222      	tst	r2, r4
10004856:	d0f1      	beq.n	1000483c <strlen+0x2c>
10004858:	e000      	b.n	1000485c <strlen+0x4c>
1000485a:	3301      	adds	r3, #1
1000485c:	781a      	ldrb	r2, [r3, #0]
1000485e:	2a00      	cmp	r2, #0
10004860:	d1fb      	bne.n	1000485a <strlen+0x4a>
10004862:	e7e1      	b.n	10004828 <strlen+0x18>
10004864:	fefefeff 	.word	0xfefefeff
10004868:	80808080 	.word	0x80808080

1000486c <_malloc_trim_r>:
1000486c:	b5f8      	push	{r3, r4, r5, r6, r7, lr}
1000486e:	000c      	movs	r4, r1
10004870:	0005      	movs	r5, r0
10004872:	f7ff ffab 	bl	100047cc <__malloc_lock>
10004876:	4f20      	ldr	r7, [pc, #128]	; (100048f8 <_malloc_trim_r+0x8c>)
10004878:	68bb      	ldr	r3, [r7, #8]
1000487a:	685e      	ldr	r6, [r3, #4]
1000487c:	2303      	movs	r3, #3
1000487e:	439e      	bics	r6, r3
10004880:	4b1e      	ldr	r3, [pc, #120]	; (100048fc <_malloc_trim_r+0x90>)
10004882:	1b34      	subs	r4, r6, r4
10004884:	469c      	mov	ip, r3
10004886:	4464      	add	r4, ip
10004888:	0b24      	lsrs	r4, r4, #12
1000488a:	3c01      	subs	r4, #1
1000488c:	3311      	adds	r3, #17
1000488e:	0324      	lsls	r4, r4, #12
10004890:	429c      	cmp	r4, r3
10004892:	db07      	blt.n	100048a4 <_malloc_trim_r+0x38>
10004894:	2100      	movs	r1, #0
10004896:	0028      	movs	r0, r5
10004898:	f7ff ffa8 	bl	100047ec <_sbrk_r>
1000489c:	68bb      	ldr	r3, [r7, #8]
1000489e:	199b      	adds	r3, r3, r6
100048a0:	4298      	cmp	r0, r3
100048a2:	d004      	beq.n	100048ae <_malloc_trim_r+0x42>
100048a4:	0028      	movs	r0, r5
100048a6:	f7ff ff99 	bl	100047dc <__malloc_unlock>
100048aa:	2000      	movs	r0, #0
100048ac:	bdf8      	pop	{r3, r4, r5, r6, r7, pc}
100048ae:	0028      	movs	r0, r5
100048b0:	4261      	negs	r1, r4
100048b2:	f7ff ff9b 	bl	100047ec <_sbrk_r>
100048b6:	1c43      	adds	r3, r0, #1
100048b8:	d00d      	beq.n	100048d6 <_malloc_trim_r+0x6a>
100048ba:	2201      	movs	r2, #1
100048bc:	68bb      	ldr	r3, [r7, #8]
100048be:	1b36      	subs	r6, r6, r4
100048c0:	4316      	orrs	r6, r2
100048c2:	605e      	str	r6, [r3, #4]
100048c4:	4b0e      	ldr	r3, [pc, #56]	; (10004900 <_malloc_trim_r+0x94>)
100048c6:	0028      	movs	r0, r5
100048c8:	681a      	ldr	r2, [r3, #0]
100048ca:	1b14      	subs	r4, r2, r4
100048cc:	601c      	str	r4, [r3, #0]
100048ce:	f7ff ff85 	bl	100047dc <__malloc_unlock>
100048d2:	2001      	movs	r0, #1
100048d4:	e7ea      	b.n	100048ac <_malloc_trim_r+0x40>
100048d6:	2100      	movs	r1, #0
100048d8:	0028      	movs	r0, r5
100048da:	f7ff ff87 	bl	100047ec <_sbrk_r>
100048de:	68ba      	ldr	r2, [r7, #8]
100048e0:	1a83      	subs	r3, r0, r2
100048e2:	2b0f      	cmp	r3, #15
100048e4:	ddde      	ble.n	100048a4 <_malloc_trim_r+0x38>
100048e6:	4907      	ldr	r1, [pc, #28]	; (10004904 <_malloc_trim_r+0x98>)
100048e8:	6809      	ldr	r1, [r1, #0]
100048ea:	1a40      	subs	r0, r0, r1
100048ec:	4904      	ldr	r1, [pc, #16]	; (10004900 <_malloc_trim_r+0x94>)
100048ee:	6008      	str	r0, [r1, #0]
100048f0:	2101      	movs	r1, #1
100048f2:	430b      	orrs	r3, r1
100048f4:	6053      	str	r3, [r2, #4]
100048f6:	e7d5      	b.n	100048a4 <_malloc_trim_r+0x38>
100048f8:	20000728 	.word	0x20000728
100048fc:	00000fef 	.word	0x00000fef
10004900:	20000b7c 	.word	0x20000b7c
10004904:	20000b30 	.word	0x20000b30

10004908 <_free_r>:
10004908:	b5f0      	push	{r4, r5, r6, r7, lr}
1000490a:	46c6      	mov	lr, r8
1000490c:	0005      	movs	r5, r0
1000490e:	000c      	movs	r4, r1
10004910:	b500      	push	{lr}
10004912:	2900      	cmp	r1, #0
10004914:	d04f      	beq.n	100049b6 <_free_r+0xae>
10004916:	f7ff ff59 	bl	100047cc <__malloc_lock>
1000491a:	0021      	movs	r1, r4
1000491c:	3908      	subs	r1, #8
1000491e:	684c      	ldr	r4, [r1, #4]
10004920:	2601      	movs	r6, #1
10004922:	0022      	movs	r2, r4
10004924:	2003      	movs	r0, #3
10004926:	43b2      	bics	r2, r6
10004928:	188f      	adds	r7, r1, r2
1000492a:	687b      	ldr	r3, [r7, #4]
1000492c:	4383      	bics	r3, r0
1000492e:	4862      	ldr	r0, [pc, #392]	; (10004ab8 <_free_r+0x1b0>)
10004930:	4698      	mov	r8, r3
10004932:	6883      	ldr	r3, [r0, #8]
10004934:	42bb      	cmp	r3, r7
10004936:	d06b      	beq.n	10004a10 <_free_r+0x108>
10004938:	4643      	mov	r3, r8
1000493a:	607b      	str	r3, [r7, #4]
1000493c:	4226      	tst	r6, r4
1000493e:	d11e      	bne.n	1000497e <_free_r+0x76>
10004940:	2308      	movs	r3, #8
10004942:	469c      	mov	ip, r3
10004944:	680c      	ldr	r4, [r1, #0]
10004946:	4484      	add	ip, r0
10004948:	1b09      	subs	r1, r1, r4
1000494a:	1912      	adds	r2, r2, r4
1000494c:	688c      	ldr	r4, [r1, #8]
1000494e:	4564      	cmp	r4, ip
10004950:	d04f      	beq.n	100049f2 <_free_r+0xea>
10004952:	68cb      	ldr	r3, [r1, #12]
10004954:	60e3      	str	r3, [r4, #12]
10004956:	609c      	str	r4, [r3, #8]
10004958:	4643      	mov	r3, r8
1000495a:	18fc      	adds	r4, r7, r3
1000495c:	6864      	ldr	r4, [r4, #4]
1000495e:	4234      	tst	r4, r6
10004960:	d111      	bne.n	10004986 <_free_r+0x7e>
10004962:	68bb      	ldr	r3, [r7, #8]
10004964:	4c55      	ldr	r4, [pc, #340]	; (10004abc <_free_r+0x1b4>)
10004966:	4442      	add	r2, r8
10004968:	42a3      	cmp	r3, r4
1000496a:	d100      	bne.n	1000496e <_free_r+0x66>
1000496c:	e07f      	b.n	10004a6e <_free_r+0x166>
1000496e:	68fc      	ldr	r4, [r7, #12]
10004970:	60dc      	str	r4, [r3, #12]
10004972:	60a3      	str	r3, [r4, #8]
10004974:	2301      	movs	r3, #1
10004976:	4313      	orrs	r3, r2
10004978:	604b      	str	r3, [r1, #4]
1000497a:	508a      	str	r2, [r1, r2]
1000497c:	e006      	b.n	1000498c <_free_r+0x84>
1000497e:	18fc      	adds	r4, r7, r3
10004980:	6864      	ldr	r4, [r4, #4]
10004982:	4234      	tst	r4, r6
10004984:	d0ed      	beq.n	10004962 <_free_r+0x5a>
10004986:	4316      	orrs	r6, r2
10004988:	604e      	str	r6, [r1, #4]
1000498a:	603a      	str	r2, [r7, #0]
1000498c:	2380      	movs	r3, #128	; 0x80
1000498e:	009b      	lsls	r3, r3, #2
10004990:	429a      	cmp	r2, r3
10004992:	d213      	bcs.n	100049bc <_free_r+0xb4>
10004994:	0954      	lsrs	r4, r2, #5
10004996:	08d3      	lsrs	r3, r2, #3
10004998:	2201      	movs	r2, #1
1000499a:	40a2      	lsls	r2, r4
1000499c:	6844      	ldr	r4, [r0, #4]
1000499e:	00db      	lsls	r3, r3, #3
100049a0:	4322      	orrs	r2, r4
100049a2:	6042      	str	r2, [r0, #4]
100049a4:	1818      	adds	r0, r3, r0
100049a6:	6883      	ldr	r3, [r0, #8]
100049a8:	60c8      	str	r0, [r1, #12]
100049aa:	608b      	str	r3, [r1, #8]
100049ac:	6081      	str	r1, [r0, #8]
100049ae:	60d9      	str	r1, [r3, #12]
100049b0:	0028      	movs	r0, r5
100049b2:	f7ff ff13 	bl	100047dc <__malloc_unlock>
100049b6:	bc04      	pop	{r2}
100049b8:	4690      	mov	r8, r2
100049ba:	bdf0      	pop	{r4, r5, r6, r7, pc}
100049bc:	0a53      	lsrs	r3, r2, #9
100049be:	2b04      	cmp	r3, #4
100049c0:	d83f      	bhi.n	10004a42 <_free_r+0x13a>
100049c2:	0994      	lsrs	r4, r2, #6
100049c4:	0026      	movs	r6, r4
100049c6:	3439      	adds	r4, #57	; 0x39
100049c8:	3638      	adds	r6, #56	; 0x38
100049ca:	00e4      	lsls	r4, r4, #3
100049cc:	1904      	adds	r4, r0, r4
100049ce:	6823      	ldr	r3, [r4, #0]
100049d0:	3c08      	subs	r4, #8
100049d2:	2703      	movs	r7, #3
100049d4:	429c      	cmp	r4, r3
100049d6:	d043      	beq.n	10004a60 <_free_r+0x158>
100049d8:	6858      	ldr	r0, [r3, #4]
100049da:	43b8      	bics	r0, r7
100049dc:	4290      	cmp	r0, r2
100049de:	d902      	bls.n	100049e6 <_free_r+0xde>
100049e0:	689b      	ldr	r3, [r3, #8]
100049e2:	429c      	cmp	r4, r3
100049e4:	d1f8      	bne.n	100049d8 <_free_r+0xd0>
100049e6:	68dc      	ldr	r4, [r3, #12]
100049e8:	60cc      	str	r4, [r1, #12]
100049ea:	608b      	str	r3, [r1, #8]
100049ec:	60a1      	str	r1, [r4, #8]
100049ee:	60d9      	str	r1, [r3, #12]
100049f0:	e7de      	b.n	100049b0 <_free_r+0xa8>
100049f2:	4643      	mov	r3, r8
100049f4:	18f8      	adds	r0, r7, r3
100049f6:	6840      	ldr	r0, [r0, #4]
100049f8:	4230      	tst	r0, r6
100049fa:	d158      	bne.n	10004aae <_free_r+0x1a6>
100049fc:	0013      	movs	r3, r2
100049fe:	68b8      	ldr	r0, [r7, #8]
10004a00:	68fa      	ldr	r2, [r7, #12]
10004a02:	4443      	add	r3, r8
10004a04:	431e      	orrs	r6, r3
10004a06:	60c2      	str	r2, [r0, #12]
10004a08:	6090      	str	r0, [r2, #8]
10004a0a:	604e      	str	r6, [r1, #4]
10004a0c:	50cb      	str	r3, [r1, r3]
10004a0e:	e7cf      	b.n	100049b0 <_free_r+0xa8>
10004a10:	0013      	movs	r3, r2
10004a12:	4443      	add	r3, r8
10004a14:	4226      	tst	r6, r4
10004a16:	d106      	bne.n	10004a26 <_free_r+0x11e>
10004a18:	680a      	ldr	r2, [r1, #0]
10004a1a:	1a89      	subs	r1, r1, r2
10004a1c:	688c      	ldr	r4, [r1, #8]
10004a1e:	189b      	adds	r3, r3, r2
10004a20:	68ca      	ldr	r2, [r1, #12]
10004a22:	60e2      	str	r2, [r4, #12]
10004a24:	6094      	str	r4, [r2, #8]
10004a26:	2201      	movs	r2, #1
10004a28:	431a      	orrs	r2, r3
10004a2a:	604a      	str	r2, [r1, #4]
10004a2c:	4a24      	ldr	r2, [pc, #144]	; (10004ac0 <_free_r+0x1b8>)
10004a2e:	6081      	str	r1, [r0, #8]
10004a30:	6812      	ldr	r2, [r2, #0]
10004a32:	429a      	cmp	r2, r3
10004a34:	d8bc      	bhi.n	100049b0 <_free_r+0xa8>
10004a36:	4b23      	ldr	r3, [pc, #140]	; (10004ac4 <_free_r+0x1bc>)
10004a38:	0028      	movs	r0, r5
10004a3a:	6819      	ldr	r1, [r3, #0]
10004a3c:	f7ff ff16 	bl	1000486c <_malloc_trim_r>
10004a40:	e7b6      	b.n	100049b0 <_free_r+0xa8>
10004a42:	2b14      	cmp	r3, #20
10004a44:	d907      	bls.n	10004a56 <_free_r+0x14e>
10004a46:	2b54      	cmp	r3, #84	; 0x54
10004a48:	d81a      	bhi.n	10004a80 <_free_r+0x178>
10004a4a:	0b14      	lsrs	r4, r2, #12
10004a4c:	0026      	movs	r6, r4
10004a4e:	346f      	adds	r4, #111	; 0x6f
10004a50:	366e      	adds	r6, #110	; 0x6e
10004a52:	00e4      	lsls	r4, r4, #3
10004a54:	e7ba      	b.n	100049cc <_free_r+0xc4>
10004a56:	001e      	movs	r6, r3
10004a58:	335c      	adds	r3, #92	; 0x5c
10004a5a:	365b      	adds	r6, #91	; 0x5b
10004a5c:	00dc      	lsls	r4, r3, #3
10004a5e:	e7b5      	b.n	100049cc <_free_r+0xc4>
10004a60:	2201      	movs	r2, #1
10004a62:	10b6      	asrs	r6, r6, #2
10004a64:	40b2      	lsls	r2, r6
10004a66:	6846      	ldr	r6, [r0, #4]
10004a68:	4332      	orrs	r2, r6
10004a6a:	6042      	str	r2, [r0, #4]
10004a6c:	e7bc      	b.n	100049e8 <_free_r+0xe0>
10004a6e:	60d9      	str	r1, [r3, #12]
10004a70:	6099      	str	r1, [r3, #8]
10004a72:	60cb      	str	r3, [r1, #12]
10004a74:	608b      	str	r3, [r1, #8]
10004a76:	2301      	movs	r3, #1
10004a78:	4313      	orrs	r3, r2
10004a7a:	604b      	str	r3, [r1, #4]
10004a7c:	508a      	str	r2, [r1, r2]
10004a7e:	e797      	b.n	100049b0 <_free_r+0xa8>
10004a80:	24aa      	movs	r4, #170	; 0xaa
10004a82:	0064      	lsls	r4, r4, #1
10004a84:	42a3      	cmp	r3, r4
10004a86:	d805      	bhi.n	10004a94 <_free_r+0x18c>
10004a88:	0bd4      	lsrs	r4, r2, #15
10004a8a:	0026      	movs	r6, r4
10004a8c:	3478      	adds	r4, #120	; 0x78
10004a8e:	3677      	adds	r6, #119	; 0x77
10004a90:	00e4      	lsls	r4, r4, #3
10004a92:	e79b      	b.n	100049cc <_free_r+0xc4>
10004a94:	4c0c      	ldr	r4, [pc, #48]	; (10004ac8 <_free_r+0x1c0>)
10004a96:	42a3      	cmp	r3, r4
10004a98:	d805      	bhi.n	10004aa6 <_free_r+0x19e>
10004a9a:	0c94      	lsrs	r4, r2, #18
10004a9c:	0026      	movs	r6, r4
10004a9e:	347d      	adds	r4, #125	; 0x7d
10004aa0:	367c      	adds	r6, #124	; 0x7c
10004aa2:	00e4      	lsls	r4, r4, #3
10004aa4:	e792      	b.n	100049cc <_free_r+0xc4>
10004aa6:	24fe      	movs	r4, #254	; 0xfe
10004aa8:	267e      	movs	r6, #126	; 0x7e
10004aaa:	00a4      	lsls	r4, r4, #2
10004aac:	e78e      	b.n	100049cc <_free_r+0xc4>
10004aae:	0033      	movs	r3, r6
10004ab0:	4313      	orrs	r3, r2
10004ab2:	604b      	str	r3, [r1, #4]
10004ab4:	603a      	str	r2, [r7, #0]
10004ab6:	e77b      	b.n	100049b0 <_free_r+0xa8>
10004ab8:	20000728 	.word	0x20000728
10004abc:	20000730 	.word	0x20000730
10004ac0:	20000b34 	.word	0x20000b34
10004ac4:	20000bac 	.word	0x20000bac
10004ac8:	00000554 	.word	0x00000554

10004acc <__retarget_lock_acquire_recursive>:
10004acc:	4770      	bx	lr
10004ace:	46c0      	nop			; (mov r8, r8)

10004ad0 <__retarget_lock_release_recursive>:
10004ad0:	4770      	bx	lr
10004ad2:	46c0      	nop			; (mov r8, r8)

10004ad4 <_fini>:
10004ad4:	b5f8      	push	{r3, r4, r5, r6, r7, lr}
10004ad6:	46c0      	nop			; (mov r8, r8)

10004ad8 <__mutex_exit_veneer>:
10004ad8:	b401      	push	{r0}
10004ada:	4802      	ldr	r0, [pc, #8]	; (10004ae4 <__mutex_exit_veneer+0xc>)
10004adc:	4684      	mov	ip, r0
10004ade:	bc01      	pop	{r0}
10004ae0:	4760      	bx	ip
10004ae2:	bf00      	nop
10004ae4:	200001f5 	.word	0x200001f5

10004ae8 <____aeabi_idiv0_veneer>:
10004ae8:	b401      	push	{r0}
10004aea:	4802      	ldr	r0, [pc, #8]	; (10004af4 <____aeabi_idiv0_veneer+0xc>)
10004aec:	4684      	mov	ip, r0
10004aee:	bc01      	pop	{r0}
10004af0:	4760      	bx	ip
10004af2:	bf00      	nop
10004af4:	2000021d 	.word	0x2000021d

10004af8 <__mutex_try_enter_veneer>:
10004af8:	b401      	push	{r0}
10004afa:	4802      	ldr	r0, [pc, #8]	; (10004b04 <__mutex_try_enter_veneer+0xc>)
10004afc:	4684      	mov	ip, r0
10004afe:	bc01      	pop	{r0}
10004b00:	4760      	bx	ip
10004b02:	bf00      	nop
10004b04:	20000111 	.word	0x20000111

10004b08 <__mutex_enter_timeout_ms_veneer>:
10004b08:	b401      	push	{r0}
10004b0a:	4802      	ldr	r0, [pc, #8]	; (10004b14 <__mutex_enter_timeout_ms_veneer+0xc>)
10004b0c:	4684      	mov	ip, r0
10004b0e:	bc01      	pop	{r0}
10004b10:	4760      	bx	ip
10004b12:	bf00      	nop
10004b14:	2000015d 	.word	0x2000015d

10004b18 <__mutex_enter_blocking_veneer>:
10004b18:	b401      	push	{r0}
10004b1a:	4802      	ldr	r0, [pc, #8]	; (10004b24 <__mutex_enter_blocking_veneer+0xc>)
10004b1c:	4684      	mov	ip, r0
10004b1e:	bc01      	pop	{r0}
10004b20:	4760      	bx	ip
10004b22:	bf00      	nop
10004b24:	200000c1 	.word	0x200000c1

Disassembly of section .data:

200000c0 <mutex_enter_blocking>:
200000c0:	b510      	push	{r4, lr}
200000c2:	6802      	ldr	r2, [r0, #0]
200000c4:	2400      	movs	r4, #0
200000c6:	f3ef 8110 	mrs	r1, PRIMASK
200000ca:	b672      	cpsid	i
200000cc:	6813      	ldr	r3, [r2, #0]
200000ce:	2b00      	cmp	r3, #0
200000d0:	d0fc      	beq.n	200000cc <mutex_enter_blocking+0xc>
200000d2:	f3bf 8f5f 	dmb	sy
200000d6:	7903      	ldrb	r3, [r0, #4]
200000d8:	2b00      	cmp	r3, #0
200000da:	d00b      	beq.n	200000f4 <mutex_enter_blocking+0x34>
200000dc:	6803      	ldr	r3, [r0, #0]
200000de:	f3bf 8f5f 	dmb	sy
200000e2:	601c      	str	r4, [r3, #0]
200000e4:	f381 8810 	msr	PRIMASK, r1
200000e8:	bf20      	wfe
200000ea:	6802      	ldr	r2, [r0, #0]
200000ec:	f3ef 8110 	mrs	r1, PRIMASK
200000f0:	b672      	cpsid	i
200000f2:	e7eb      	b.n	200000cc <mutex_enter_blocking+0xc>
200000f4:	2201      	movs	r2, #1
200000f6:	7102      	strb	r2, [r0, #4]
200000f8:	22d0      	movs	r2, #208	; 0xd0
200000fa:	0612      	lsls	r2, r2, #24
200000fc:	6812      	ldr	r2, [r2, #0]
200000fe:	7142      	strb	r2, [r0, #5]
20000100:	6802      	ldr	r2, [r0, #0]
20000102:	f3bf 8f5f 	dmb	sy
20000106:	6013      	str	r3, [r2, #0]
20000108:	f381 8810 	msr	PRIMASK, r1
2000010c:	bd10      	pop	{r4, pc}
2000010e:	46c0      	nop			; (mov r8, r8)

20000110 <mutex_try_enter>:
20000110:	0003      	movs	r3, r0
20000112:	b510      	push	{r4, lr}
20000114:	6800      	ldr	r0, [r0, #0]
20000116:	f3ef 8410 	mrs	r4, PRIMASK
2000011a:	b672      	cpsid	i
2000011c:	6802      	ldr	r2, [r0, #0]
2000011e:	2a00      	cmp	r2, #0
20000120:	d0fc      	beq.n	2000011c <mutex_try_enter+0xc>
20000122:	f3bf 8f5f 	dmb	sy
20000126:	791a      	ldrb	r2, [r3, #4]
20000128:	2a00      	cmp	r2, #0
2000012a:	d00d      	beq.n	20000148 <mutex_try_enter+0x38>
2000012c:	2900      	cmp	r1, #0
2000012e:	d013      	beq.n	20000158 <mutex_try_enter+0x48>
20000130:	2205      	movs	r2, #5
20000132:	2000      	movs	r0, #0
20000134:	569a      	ldrsb	r2, [r3, r2]
20000136:	600a      	str	r2, [r1, #0]
20000138:	681b      	ldr	r3, [r3, #0]
2000013a:	f3bf 8f5f 	dmb	sy
2000013e:	2200      	movs	r2, #0
20000140:	601a      	str	r2, [r3, #0]
20000142:	f384 8810 	msr	PRIMASK, r4
20000146:	bd10      	pop	{r4, pc}
20000148:	3201      	adds	r2, #1
2000014a:	711a      	strb	r2, [r3, #4]
2000014c:	22d0      	movs	r2, #208	; 0xd0
2000014e:	0612      	lsls	r2, r2, #24
20000150:	6812      	ldr	r2, [r2, #0]
20000152:	2001      	movs	r0, #1
20000154:	715a      	strb	r2, [r3, #5]
20000156:	e7ef      	b.n	20000138 <mutex_try_enter+0x28>
20000158:	2000      	movs	r0, #0
2000015a:	e7ed      	b.n	20000138 <mutex_try_enter+0x28>

2000015c <mutex_enter_timeout_ms>:
2000015c:	b5f0      	push	{r4, r5, r6, r7, lr}
2000015e:	46c6      	mov	lr, r8
20000160:	b500      	push	{lr}
20000162:	000c      	movs	r4, r1
20000164:	4680      	mov	r8, r0
20000166:	f000 f863 	bl	20000230 <__time_us_64_veneer>
2000016a:	22fa      	movs	r2, #250	; 0xfa
2000016c:	0006      	movs	r6, r0
2000016e:	000f      	movs	r7, r1
20000170:	0020      	movs	r0, r4
20000172:	2300      	movs	r3, #0
20000174:	2100      	movs	r1, #0
20000176:	0092      	lsls	r2, r2, #2
20000178:	f000 f852 	bl	20000220 <____wrap___aeabi_lmul_veneer>
2000017c:	1980      	adds	r0, r0, r6
2000017e:	4179      	adcs	r1, r7
20000180:	0004      	movs	r4, r0
20000182:	000d      	movs	r5, r1
20000184:	428f      	cmp	r7, r1
20000186:	d831      	bhi.n	200001ec <mutex_enter_timeout_ms+0x90>
20000188:	d02e      	beq.n	200001e8 <mutex_enter_timeout_ms+0x8c>
2000018a:	2600      	movs	r6, #0
2000018c:	4643      	mov	r3, r8
2000018e:	681b      	ldr	r3, [r3, #0]
20000190:	f3ef 8210 	mrs	r2, PRIMASK
20000194:	b672      	cpsid	i
20000196:	6819      	ldr	r1, [r3, #0]
20000198:	2900      	cmp	r1, #0
2000019a:	d0fc      	beq.n	20000196 <mutex_enter_timeout_ms+0x3a>
2000019c:	f3bf 8f5f 	dmb	sy
200001a0:	4643      	mov	r3, r8
200001a2:	791b      	ldrb	r3, [r3, #4]
200001a4:	2b00      	cmp	r3, #0
200001a6:	d00e      	beq.n	200001c6 <mutex_enter_timeout_ms+0x6a>
200001a8:	4643      	mov	r3, r8
200001aa:	681b      	ldr	r3, [r3, #0]
200001ac:	f3bf 8f5f 	dmb	sy
200001b0:	601e      	str	r6, [r3, #0]
200001b2:	f382 8810 	msr	PRIMASK, r2
200001b6:	0020      	movs	r0, r4
200001b8:	0029      	movs	r1, r5
200001ba:	f000 f841 	bl	20000240 <__best_effort_wfe_or_timeout_veneer>
200001be:	2800      	cmp	r0, #0
200001c0:	d0e4      	beq.n	2000018c <mutex_enter_timeout_ms+0x30>
200001c2:	2000      	movs	r0, #0
200001c4:	e00d      	b.n	200001e2 <mutex_enter_timeout_ms+0x86>
200001c6:	4640      	mov	r0, r8
200001c8:	2101      	movs	r1, #1
200001ca:	7101      	strb	r1, [r0, #4]
200001cc:	21d0      	movs	r1, #208	; 0xd0
200001ce:	0609      	lsls	r1, r1, #24
200001d0:	6809      	ldr	r1, [r1, #0]
200001d2:	7141      	strb	r1, [r0, #5]
200001d4:	6801      	ldr	r1, [r0, #0]
200001d6:	f3bf 8f5f 	dmb	sy
200001da:	600b      	str	r3, [r1, #0]
200001dc:	f382 8810 	msr	PRIMASK, r2
200001e0:	2001      	movs	r0, #1
200001e2:	bc04      	pop	{r2}
200001e4:	4690      	mov	r8, r2
200001e6:	bdf0      	pop	{r4, r5, r6, r7, pc}
200001e8:	4286      	cmp	r6, r0
200001ea:	d9ce      	bls.n	2000018a <mutex_enter_timeout_ms+0x2e>
200001ec:	2401      	movs	r4, #1
200001ee:	4264      	negs	r4, r4
200001f0:	17e5      	asrs	r5, r4, #31
200001f2:	e7ca      	b.n	2000018a <mutex_enter_timeout_ms+0x2e>

200001f4 <mutex_exit>:
200001f4:	6802      	ldr	r2, [r0, #0]
200001f6:	f3ef 8110 	mrs	r1, PRIMASK
200001fa:	b672      	cpsid	i
200001fc:	6813      	ldr	r3, [r2, #0]
200001fe:	2b00      	cmp	r3, #0
20000200:	d0fc      	beq.n	200001fc <mutex_exit+0x8>
20000202:	f3bf 8f5f 	dmb	sy
20000206:	2300      	movs	r3, #0
20000208:	7103      	strb	r3, [r0, #4]
2000020a:	bf40      	sev
2000020c:	6802      	ldr	r2, [r0, #0]
2000020e:	f3bf 8f5f 	dmb	sy
20000212:	6013      	str	r3, [r2, #0]
20000214:	f381 8810 	msr	PRIMASK, r1
20000218:	4770      	bx	lr
2000021a:	46c0      	nop			; (mov r8, r8)

2000021c <__aeabi_idiv0>:
2000021c:	4770      	bx	lr
2000021e:	46c0      	nop			; (mov r8, r8)

20000220 <____wrap___aeabi_lmul_veneer>:
20000220:	b401      	push	{r0}
20000222:	4802      	ldr	r0, [pc, #8]	; (2000022c <____wrap___aeabi_lmul_veneer+0xc>)
20000224:	4684      	mov	ip, r0
20000226:	bc01      	pop	{r0}
20000228:	4760      	bx	ip
2000022a:	bf00      	nop
2000022c:	10001d79 	.word	0x10001d79

20000230 <__time_us_64_veneer>:
20000230:	b401      	push	{r0}
20000232:	4802      	ldr	r0, [pc, #8]	; (2000023c <__time_us_64_veneer+0xc>)
20000234:	4684      	mov	ip, r0
20000236:	bc01      	pop	{r0}
20000238:	4760      	bx	ip
2000023a:	bf00      	nop
2000023c:	10000d75 	.word	0x10000d75

20000240 <__best_effort_wfe_or_timeout_veneer>:
20000240:	b401      	push	{r0}
20000242:	4802      	ldr	r0, [pc, #8]	; (2000024c <__best_effort_wfe_or_timeout_veneer+0xc>)
20000244:	4684      	mov	ip, r0
20000246:	bc01      	pop	{r0}
20000248:	4760      	bx	ip
2000024a:	bf00      	nop
2000024c:	10000c61 	.word	0x10000c61

20000250 <striped_spin_lock_num>:
20000250:	00000010                                ....

20000254 <irq_handler_chain_slots>:
20000254:	00000000 	.word	0x00000000
20000258:	00010000 	.word	0x00010000
	...
20000264:	00020000 	.word	0x00020000
	...
20000270:	00030000 	.word	0x00030000
	...
2000027c:	00ff0000 	.word	0x00ff0000
20000280:	00000000 	.word	0x00000000

20000284 <irq_handler_chain_first_slot>:
20000284:	b500      	push	{lr}
20000286:	6848      	ldr	r0, [r1, #4]
20000288:	3101      	adds	r1, #1
2000028a:	468e      	mov	lr, r1
2000028c:	4700      	bx	r0

2000028e <irq_handler_chain_remove_tail>:
2000028e:	4670      	mov	r0, lr
20000290:	3809      	subs	r0, #9
20000292:	4901      	ldr	r1, [pc, #4]	; (20000298 <irq_handler_chain_remove_tail+0xa>)
20000294:	4788      	blx	r1
20000296:	bd00      	pop	{pc}
20000298:	10001aad 	.word	0x10001aad
2000029c:	00000000 	.word	0x00000000

200002a0 <aeabi_bits_funcs>:
200002a0:	00003350 	.word	0x00003350
200002a4:	0000334c 	.word	0x0000334c
200002a8:	00003354 	.word	0x00003354
200002ac:	00003352 	.word	0x00003352

200002b0 <aeabi_bits_funcs_end>:
200002b0:	0000534d 	.word	0x0000534d
200002b4:	0000434d 	.word	0x0000434d
200002b8:	00003453 	.word	0x00003453
200002bc:	00003443 	.word	0x00003443

200002c0 <stdio_usb>:
200002c0:	100020fd 00000000 10002095 00000000     . ....... ......
200002d0:	00000100                                ....

200002d4 <ep_dir_string>:
200002d4:	10004dac 10004db0                       .M...M..

200002dc <_usbd_qdef>:
200002dc:	20001850 000c0010 00000000 00000000     P.. ............
	...

200002fc <_impure_ptr>:
200002fc:	20000300                                ... 

20000300 <impure_data>:
20000300:	00000000 200005ec 20000654 200006bc     ....... T.. ... 
	...
200003a8:	00000001 00000000 abcd330e e66d1234     .........3..4.m.
200003b8:	0005deec 0000000b 00000000 00000000     ................
	...

20000728 <__malloc_av_>:
	...
20000730:	20000728 20000728 20000730 20000730     (.. (.. 0.. 0.. 
20000740:	20000738 20000738 20000740 20000740     8.. 8.. @.. @.. 
20000750:	20000748 20000748 20000750 20000750     H.. H.. P.. P.. 
20000760:	20000758 20000758 20000760 20000760     X.. X.. `.. `.. 
20000770:	20000768 20000768 20000770 20000770     h.. h.. p.. p.. 
20000780:	20000778 20000778 20000780 20000780     x.. x.. ... ... 
20000790:	20000788 20000788 20000790 20000790     ... ... ... ... 
200007a0:	20000798 20000798 200007a0 200007a0     ... ... ... ... 
200007b0:	200007a8 200007a8 200007b0 200007b0     ... ... ... ... 
200007c0:	200007b8 200007b8 200007c0 200007c0     ... ... ... ... 
200007d0:	200007c8 200007c8 200007d0 200007d0     ... ... ... ... 
200007e0:	200007d8 200007d8 200007e0 200007e0     ... ... ... ... 
200007f0:	200007e8 200007e8 200007f0 200007f0     ... ... ... ... 
20000800:	200007f8 200007f8 20000800 20000800     ... ... ... ... 
20000810:	20000808 20000808 20000810 20000810     ... ... ... ... 
20000820:	20000818 20000818 20000820 20000820     ... ...  ..  .. 
20000830:	20000828 20000828 20000830 20000830     (.. (.. 0.. 0.. 
20000840:	20000838 20000838 20000840 20000840     8.. 8.. @.. @.. 
20000850:	20000848 20000848 20000850 20000850     H.. H.. P.. P.. 
20000860:	20000858 20000858 20000860 20000860     X.. X.. `.. `.. 
20000870:	20000868 20000868 20000870 20000870     h.. h.. p.. p.. 
20000880:	20000878 20000878 20000880 20000880     x.. x.. ... ... 
20000890:	20000888 20000888 20000890 20000890     ... ... ... ... 
200008a0:	20000898 20000898 200008a0 200008a0     ... ... ... ... 
200008b0:	200008a8 200008a8 200008b0 200008b0     ... ... ... ... 
200008c0:	200008b8 200008b8 200008c0 200008c0     ... ... ... ... 
200008d0:	200008c8 200008c8 200008d0 200008d0     ... ... ... ... 
200008e0:	200008d8 200008d8 200008e0 200008e0     ... ... ... ... 
200008f0:	200008e8 200008e8 200008f0 200008f0     ... ... ... ... 
20000900:	200008f8 200008f8 20000900 20000900     ... ... ... ... 
20000910:	20000908 20000908 20000910 20000910     ... ... ... ... 
20000920:	20000918 20000918 20000920 20000920     ... ...  ..  .. 
20000930:	20000928 20000928 20000930 20000930     (.. (.. 0.. 0.. 
20000940:	20000938 20000938 20000940 20000940     8.. 8.. @.. @.. 
20000950:	20000948 20000948 20000950 20000950     H.. H.. P.. P.. 
20000960:	20000958 20000958 20000960 20000960     X.. X.. `.. `.. 
20000970:	20000968 20000968 20000970 20000970     h.. h.. p.. p.. 
20000980:	20000978 20000978 20000980 20000980     x.. x.. ... ... 
20000990:	20000988 20000988 20000990 20000990     ... ... ... ... 
200009a0:	20000998 20000998 200009a0 200009a0     ... ... ... ... 
200009b0:	200009a8 200009a8 200009b0 200009b0     ... ... ... ... 
200009c0:	200009b8 200009b8 200009c0 200009c0     ... ... ... ... 
200009d0:	200009c8 200009c8 200009d0 200009d0     ... ... ... ... 
200009e0:	200009d8 200009d8 200009e0 200009e0     ... ... ... ... 
200009f0:	200009e8 200009e8 200009f0 200009f0     ... ... ... ... 
20000a00:	200009f8 200009f8 20000a00 20000a00     ... ... ... ... 
20000a10:	20000a08 20000a08 20000a10 20000a10     ... ... ... ... 
20000a20:	20000a18 20000a18 20000a20 20000a20     ... ...  ..  .. 
20000a30:	20000a28 20000a28 20000a30 20000a30     (.. (.. 0.. 0.. 
20000a40:	20000a38 20000a38 20000a40 20000a40     8.. 8.. @.. @.. 
20000a50:	20000a48 20000a48 20000a50 20000a50     H.. H.. P.. P.. 
20000a60:	20000a58 20000a58 20000a60 20000a60     X.. X.. `.. `.. 
20000a70:	20000a68 20000a68 20000a70 20000a70     h.. h.. p.. p.. 
20000a80:	20000a78 20000a78 20000a80 20000a80     x.. x.. ... ... 
20000a90:	20000a88 20000a88 20000a90 20000a90     ... ... ... ... 
20000aa0:	20000a98 20000a98 20000aa0 20000aa0     ... ... ... ... 
20000ab0:	20000aa8 20000aa8 20000ab0 20000ab0     ... ... ... ... 
20000ac0:	20000ab8 20000ab8 20000ac0 20000ac0     ... ... ... ... 
20000ad0:	20000ac8 20000ac8 20000ad0 20000ad0     ... ... ... ... 
20000ae0:	20000ad8 20000ad8 20000ae0 20000ae0     ... ... ... ... 
20000af0:	20000ae8 20000ae8 20000af0 20000af0     ... ... ... ... 
20000b00:	20000af8 20000af8 20000b00 20000b00     ... ... ... ... 
20000b10:	20000b08 20000b08 20000b10 20000b10     ... ... ... ... 
20000b20:	20000b18 20000b18 20000b20 20000b20     ... ...  ..  .. 

20000b30 <__malloc_sbrk_base>:
20000b30:	ffffffff                                ....

20000b34 <__malloc_trim_threshold>:
20000b34:	00020000                                ....

20000b38 <print_mutex>:
	...

20000b40 <__mutex_array_end>:
20000b40:	10001e4d 	.word	0x10001e4d
20000b44:	10001be1 	.word	0x10001be1
20000b48:	10001ca1 	.word	0x10001ca1
20000b4c:	10001dad 	.word	0x10001dad

20000b50 <__frame_dummy_init_array_entry>:
20000b50:	10000301                                ....
