
adc_console.elf:     file format elf32-littlearm

Sections:
Idx Name          Size      VMA       LMA       File off  Algn
  0 .boot2        00000100  10000000  10000000  00010000  2**0
                  CONTENTS, ALLOC, LOAD, READONLY, DATA
  1 .text         000056c8  10000100  10000100  00010100  2**3
                  CONTENTS, ALLOC, LOAD, READONLY, CODE
  2 .rodata       00000574  100057c8  100057c8  000157c8  2**3
                  CONTENTS, ALLOC, LOAD, READONLY, DATA
  3 .binary_info  00000024  10005d3c  10005d3c  00015d3c  2**2
                  CONTENTS, ALLOC, LOAD, DATA
  4 .ram_vector_table 000000c0  20000000  20000000  00020a6c  2**2
                  CONTENTS
  5 .data         000009ac  200000c0  10005d60  000200c0  2**4
                  CONTENTS, ALLOC, LOAD, CODE
  6 .uninitialized_data 00000000  20000a6c  20000a6c  00020b2c  2**0
                  CONTENTS
  7 .scratch_x    00000000  20040000  20040000  00020b2c  2**0
                  CONTENTS
  8 .scratch_y    00000000  20041000  20041000  00020b2c  2**0
                  CONTENTS
  9 .bss          00000ac0  20000a6c  20000a6c  00020a6c  2**2
                  ALLOC
 10 .heap         00000800  2000152c  2000152c  00020b2c  2**2
                  CONTENTS, READONLY
 11 .stack_dummy  00000800  20041000  20041000  00021340  2**5
                  CONTENTS, READONLY
 12 .ARM.attributes 00000028  00000000  00000000  00021b40  2**0
                  CONTENTS, READONLY
 13 .comment      00000079  00000000  00000000  00021b68  2**0
                  CONTENTS, READONLY
 14 .debug_frame  000008a8  00000000  00000000  00021be4  2**2
                  CONTENTS, READONLY, DEBUGGING
 15 .stab         0000006c  00000000  00000000  0002248c  2**2
                  CONTENTS, READONLY, DEBUGGING
 16 .stabstr      000000e3  00000000  00000000  000224f8  2**0
                  CONTENTS, READONLY, DEBUGGING

adc_console.elf:     file format elf32-littlearm


Disassembly of section .text:

10000100 <__reset_start>:
10000100:	4827      	ldr	r0, [pc, #156]	; (100001a0 <__get_current_exception+0xa>)
10000102:	e000      	b.n	10000106 <__vector_entry>

10000104 <_entry_point>:
10000104:	2000      	movs	r0, #0

10000106 <__vector_entry>:
10000106:	4927      	ldr	r1, [pc, #156]	; (100001a4 <__get_current_exception+0xe>)
10000108:	6088      	str	r0, [r1, #8]
1000010a:	c806      	ldmia	r0!, {r1, r2}
1000010c:	f381 8808 	msr	MSP, r1
10000110:	4710      	bx	r2

10000112 <_reset_handler>:
10000112:	4825      	ldr	r0, [pc, #148]	; (100001a8 <__get_current_exception+0x12>)
10000114:	6800      	ldr	r0, [r0, #0]
10000116:	2800      	cmp	r0, #0
10000118:	d139      	bne.n	1000018e <wait_for_vector>
1000011a:	a412      	add	r4, pc, #72	; (adr r4, 10000164 <data_cpy_table>)
1000011c:	cc0e      	ldmia	r4!, {r1, r2, r3}
1000011e:	2900      	cmp	r1, #0
10000120:	d002      	beq.n	10000128 <_reset_handler+0x16>
10000122:	f000 f812 	bl	1000014a <data_cpy>
10000126:	e7f9      	b.n	1000011c <_reset_handler+0xa>
10000128:	4920      	ldr	r1, [pc, #128]	; (100001ac <__get_current_exception+0x16>)
1000012a:	4a21      	ldr	r2, [pc, #132]	; (100001b0 <__get_current_exception+0x1a>)
1000012c:	2000      	movs	r0, #0
1000012e:	e000      	b.n	10000132 <bss_fill_test>

10000130 <bss_fill_loop>:
10000130:	c101      	stmia	r1!, {r0}

10000132 <bss_fill_test>:
10000132:	4291      	cmp	r1, r2
10000134:	d1fc      	bne.n	10000130 <bss_fill_loop>

10000136 <platform_entry>:
10000136:	491f      	ldr	r1, [pc, #124]	; (100001b4 <__get_current_exception+0x1e>)
10000138:	4788      	blx	r1
1000013a:	491f      	ldr	r1, [pc, #124]	; (100001b8 <__get_current_exception+0x22>)
1000013c:	4788      	blx	r1
1000013e:	491f      	ldr	r1, [pc, #124]	; (100001bc <__get_current_exception+0x26>)
10000140:	4788      	blx	r1
10000142:	be00      	bkpt	0x0000
10000144:	e7fd      	b.n	10000142 <platform_entry+0xc>

10000146 <data_cpy_loop>:
10000146:	c901      	ldmia	r1!, {r0}
10000148:	c201      	stmia	r2!, {r0}

1000014a <data_cpy>:
1000014a:	429a      	cmp	r2, r3
1000014c:	d3fb      	bcc.n	10000146 <data_cpy_loop>
1000014e:	4770      	bx	lr

10000150 <binary_info_header>:
10000150:	7188ebf2 	.word	0x7188ebf2
10000154:	10005d3c 	.word	0x10005d3c
10000158:	10005d60 	.word	0x10005d60
1000015c:	10000164 	.word	0x10000164
10000160:	e71aa390 	.word	0xe71aa390

10000164 <data_cpy_table>:
10000164:	10005d60 	.word	0x10005d60
10000168:	200000c0 	.word	0x200000c0
1000016c:	20000a6c 	.word	0x20000a6c
10000170:	1000670c 	.word	0x1000670c
10000174:	20040000 	.word	0x20040000
10000178:	20040000 	.word	0x20040000
1000017c:	1000670c 	.word	0x1000670c
10000180:	20041000 	.word	0x20041000
10000184:	20041000 	.word	0x20041000
10000188:	00000000 	.word	0x00000000
1000018c:	4770      	bx	lr

1000018e <wait_for_vector>:
1000018e:	480c      	ldr	r0, [pc, #48]	; (100001c0 <__get_current_exception+0x2a>)
10000190:	f002 ffa6 	bl	100030e0 <rom_func_lookup>
10000194:	4700      	bx	r0

10000196 <__get_current_exception>:
10000196:	f3ef 8005 	mrs	r0, IPSR
1000019a:	b2c0      	uxtb	r0, r0
1000019c:	4770      	bx	lr
1000019e:	0000      	.short	0x0000
100001a0:	10000200 	.word	0x10000200
100001a4:	e000ed00 	.word	0xe000ed00
100001a8:	d0000000 	.word	0xd0000000
100001ac:	20000a6c 	.word	0x20000a6c
100001b0:	2000152c 	.word	0x2000152c
100001b4:	10001271 	.word	0x10001271
100001b8:	10000359 	.word	0x10000359
100001bc:	10001391 	.word	0x10001391
100001c0:	00005657 	.word	0x00005657

100001c4 <__bi_46>:
100001c4:	50520006 5360b3ab 10005ca8              ..RP..`S.\..

100001d0 <__bi_34>:
100001d0:	50520006 02031c86 10005cb8              ..RP.....\..

100001dc <__bi_26>:
100001dc:	50520006 9da22254 10005cc4              ..RPT"...\..

100001e8 <__bi_18>:
100001e8:	50520005 68f465de 1000670c 00000000     ..RP.e.h.g......
	...

10000200 <__reset_end>:
10000200:	20042000 	.word	0x20042000
10000204:	10000113 	.word	0x10000113
10000208:	100002c3 	.word	0x100002c3
1000020c:	100002c5 	.word	0x100002c5
10000210:	100002c1 	.word	0x100002c1
10000214:	100002c1 	.word	0x100002c1
10000218:	100002c1 	.word	0x100002c1
1000021c:	100002c1 	.word	0x100002c1
10000220:	100002c1 	.word	0x100002c1
10000224:	100002c1 	.word	0x100002c1
10000228:	100002c1 	.word	0x100002c1
1000022c:	100002c7 	.word	0x100002c7
10000230:	100002c1 	.word	0x100002c1
10000234:	100002c1 	.word	0x100002c1
10000238:	100002c9 	.word	0x100002c9
1000023c:	100002cb 	.word	0x100002cb
10000240:	100002cd 	.word	0x100002cd
10000244:	100002cd 	.word	0x100002cd
10000248:	100002cd 	.word	0x100002cd
1000024c:	100002cd 	.word	0x100002cd
10000250:	100002cd 	.word	0x100002cd
10000254:	100002cd 	.word	0x100002cd
10000258:	100002cd 	.word	0x100002cd
1000025c:	100002cd 	.word	0x100002cd
10000260:	100002cd 	.word	0x100002cd
10000264:	100002cd 	.word	0x100002cd
10000268:	100002cd 	.word	0x100002cd
1000026c:	100002cd 	.word	0x100002cd
10000270:	100002cd 	.word	0x100002cd
10000274:	100002cd 	.word	0x100002cd
10000278:	100002cd 	.word	0x100002cd
1000027c:	100002cd 	.word	0x100002cd
10000280:	100002cd 	.word	0x100002cd
10000284:	100002cd 	.word	0x100002cd
10000288:	100002cd 	.word	0x100002cd
1000028c:	100002cd 	.word	0x100002cd
10000290:	100002cd 	.word	0x100002cd
10000294:	100002cd 	.word	0x100002cd
10000298:	100002cd 	.word	0x100002cd
1000029c:	100002cd 	.word	0x100002cd
100002a0:	100002cd 	.word	0x100002cd
100002a4:	100002cd 	.word	0x100002cd
100002a8:	100002cd 	.word	0x100002cd
100002ac:	100002cd 	.word	0x100002cd
100002b0:	100002cd 	.word	0x100002cd
100002b4:	100002cd 	.word	0x100002cd
100002b8:	100002cd 	.word	0x100002cd
100002bc:	100002cd 	.word	0x100002cd

100002c0 <isr_invalid>:
100002c0:	be00      	bkpt	0x0000

100002c2 <isr_nmi>:
100002c2:	be00      	bkpt	0x0000

100002c4 <isr_hardfault>:
100002c4:	be00      	bkpt	0x0000

100002c6 <isr_svcall>:
100002c6:	be00      	bkpt	0x0000

100002c8 <isr_pendsv>:
100002c8:	be00      	bkpt	0x0000

100002ca <isr_systick>:
100002ca:	be00      	bkpt	0x0000

100002cc <__unhandled_user_irq>:
100002cc:	f7ff ff63 	bl	10000196 <__get_current_exception>
100002d0:	3810      	subs	r0, #16

100002d2 <unhandled_user_irq_num_in_r0>:
100002d2:	be00      	bkpt	0x0000

100002d4 <_init>:
100002d4:	b5f8      	push	{r3, r4, r5, r6, r7, lr}
100002d6:	46c0      	nop			; (mov r8, r8)

100002d8 <__do_global_dtors_aux>:
100002d8:	b510      	push	{r4, lr}
100002da:	4c06      	ldr	r4, [pc, #24]	; (100002f4 <__do_global_dtors_aux+0x1c>)
100002dc:	7823      	ldrb	r3, [r4, #0]
100002de:	2b00      	cmp	r3, #0
100002e0:	d107      	bne.n	100002f2 <__do_global_dtors_aux+0x1a>
100002e2:	4b05      	ldr	r3, [pc, #20]	; (100002f8 <__do_global_dtors_aux+0x20>)
100002e4:	2b00      	cmp	r3, #0
100002e6:	d002      	beq.n	100002ee <__do_global_dtors_aux+0x16>
100002e8:	4804      	ldr	r0, [pc, #16]	; (100002fc <__do_global_dtors_aux+0x24>)
100002ea:	e000      	b.n	100002ee <__do_global_dtors_aux+0x16>
100002ec:	bf00      	nop
100002ee:	2301      	movs	r3, #1
100002f0:	7023      	strb	r3, [r4, #0]
100002f2:	bd10      	pop	{r4, pc}
100002f4:	20000a6c 	.word	0x20000a6c
100002f8:	00000000 	.word	0x00000000
100002fc:	100057c8 	.word	0x100057c8

10000300 <frame_dummy>:
10000300:	4b04      	ldr	r3, [pc, #16]	; (10000314 <frame_dummy+0x14>)
10000302:	b510      	push	{r4, lr}
10000304:	2b00      	cmp	r3, #0
10000306:	d003      	beq.n	10000310 <frame_dummy+0x10>
10000308:	4903      	ldr	r1, [pc, #12]	; (10000318 <frame_dummy+0x18>)
1000030a:	4804      	ldr	r0, [pc, #16]	; (1000031c <frame_dummy+0x1c>)
1000030c:	e000      	b.n	10000310 <frame_dummy+0x10>
1000030e:	bf00      	nop
10000310:	bd10      	pop	{r4, pc}
10000312:	46c0      	nop			; (mov r8, r8)
10000314:	00000000 	.word	0x00000000
10000318:	20000a70 	.word	0x20000a70
1000031c:	100057c8 	.word	0x100057c8

10000320 <printhelp>:
10000320:	b510      	push	{r4, lr}
10000322:	4808      	ldr	r0, [pc, #32]	; (10000344 <printhelp+0x24>)
10000324:	f003 ff5c 	bl	100041e0 <__wrap_puts>
10000328:	4807      	ldr	r0, [pc, #28]	; (10000348 <printhelp+0x28>)
1000032a:	f003 ff59 	bl	100041e0 <__wrap_puts>
1000032e:	4807      	ldr	r0, [pc, #28]	; (1000034c <printhelp+0x2c>)
10000330:	f003 ff56 	bl	100041e0 <__wrap_puts>
10000334:	4806      	ldr	r0, [pc, #24]	; (10000350 <printhelp+0x30>)
10000336:	f003 ff53 	bl	100041e0 <__wrap_puts>
1000033a:	4806      	ldr	r0, [pc, #24]	; (10000354 <printhelp+0x34>)
1000033c:	f003 ff50 	bl	100041e0 <__wrap_puts>
10000340:	bd10      	pop	{r4, pc}
10000342:	46c0      	nop			; (mov r8, r8)
10000344:	100057c8 	.word	0x100057c8
10000348:	100057d4 	.word	0x100057d4
1000034c:	100057f4 	.word	0x100057f4
10000350:	10005804 	.word	0x10005804
10000354:	10005814 	.word	0x10005814

10000358 <main>:
10000358:	b5f8      	push	{r3, r4, r5, r6, r7, lr}
1000035a:	46de      	mov	lr, fp
1000035c:	4657      	mov	r7, sl
1000035e:	464e      	mov	r6, r9
10000360:	4645      	mov	r5, r8
10000362:	b5e0      	push	{r5, r6, r7, lr}
10000364:	f004 f850 	bl	10004408 <stdio_init_all>
10000368:	f004 f8fa 	bl	10004560 <adc_init>
1000036c:	2202      	movs	r2, #2
1000036e:	4b8b      	ldr	r3, [pc, #556]	; (1000059c <main+0x244>)
10000370:	2105      	movs	r1, #5
10000372:	601a      	str	r2, [r3, #0]
10000374:	23d0      	movs	r3, #208	; 0xd0
10000376:	2200      	movs	r2, #0
10000378:	061b      	lsls	r3, r3, #24
1000037a:	2002      	movs	r0, #2
1000037c:	621a      	str	r2, [r3, #32]
1000037e:	f000 f945 	bl	1000060c <gpio_set_function>
10000382:	2403      	movs	r4, #3
10000384:	e002      	b.n	1000038c <main+0x34>
10000386:	3401      	adds	r4, #1
10000388:	2c1e      	cmp	r4, #30
1000038a:	d011      	beq.n	100003b0 <main+0x58>
1000038c:	2105      	movs	r1, #5
1000038e:	0020      	movs	r0, r4
10000390:	f000 f93c 	bl	1000060c <gpio_set_function>
10000394:	2c19      	cmp	r4, #25
10000396:	ddf6      	ble.n	10000386 <main+0x2e>
10000398:	0020      	movs	r0, r4
1000039a:	2200      	movs	r2, #0
1000039c:	2100      	movs	r1, #0
1000039e:	f000 f94d 	bl	1000063c <gpio_set_pulls>
100003a2:	0020      	movs	r0, r4
100003a4:	2100      	movs	r1, #0
100003a6:	3401      	adds	r4, #1
100003a8:	f000 f960 	bl	1000066c <gpio_set_input_enabled>
100003ac:	2c1e      	cmp	r4, #30
100003ae:	d1ed      	bne.n	1000038c <main+0x34>
100003b0:	487b      	ldr	r0, [pc, #492]	; (100005a0 <main+0x248>)
100003b2:	f003 ff15 	bl	100041e0 <__wrap_puts>
100003b6:	487b      	ldr	r0, [pc, #492]	; (100005a4 <main+0x24c>)
100003b8:	f003 ff12 	bl	100041e0 <__wrap_puts>
100003bc:	487a      	ldr	r0, [pc, #488]	; (100005a8 <main+0x250>)
100003be:	f003 ff0f 	bl	100041e0 <__wrap_puts>
100003c2:	f7ff ffad 	bl	10000320 <printhelp>
100003c6:	4b79      	ldr	r3, [pc, #484]	; (100005ac <main+0x254>)
100003c8:	4c79      	ldr	r4, [pc, #484]	; (100005b0 <main+0x258>)
100003ca:	469b      	mov	fp, r3
100003cc:	4b79      	ldr	r3, [pc, #484]	; (100005b4 <main+0x25c>)
100003ce:	4d7a      	ldr	r5, [pc, #488]	; (100005b8 <main+0x260>)
100003d0:	469a      	mov	sl, r3
100003d2:	4b7a      	ldr	r3, [pc, #488]	; (100005bc <main+0x264>)
100003d4:	4699      	mov	r9, r3
100003d6:	27ff      	movs	r7, #255	; 0xff
100003d8:	f004 f918 	bl	1000460c <getchar>
100003dc:	4038      	ands	r0, r7
100003de:	0006      	movs	r6, r0
100003e0:	f003 fef0 	bl	100041c4 <__wrap_putchar>
100003e4:	2e77      	cmp	r6, #119	; 0x77
100003e6:	dc6b      	bgt.n	100004c0 <main+0x168>
100003e8:	2e52      	cmp	r6, #82	; 0x52
100003ea:	dd65      	ble.n	100004b8 <main+0x160>
100003ec:	0033      	movs	r3, r6
100003ee:	3b53      	subs	r3, #83	; 0x53
100003f0:	2b24      	cmp	r3, #36	; 0x24
100003f2:	d865      	bhi.n	100004c0 <main+0x168>
100003f4:	009b      	lsls	r3, r3, #2
100003f6:	58e3      	ldr	r3, [r4, r3]
100003f8:	469f      	mov	pc, r3
100003fa:	f004 f907 	bl	1000460c <getchar>
100003fe:	27ff      	movs	r7, #255	; 0xff
10000400:	0006      	movs	r6, r0
10000402:	4007      	ands	r7, r0
10000404:	3e30      	subs	r6, #48	; 0x30
10000406:	0039      	movs	r1, r7
10000408:	486d      	ldr	r0, [pc, #436]	; (100005c0 <main+0x268>)
1000040a:	b2f6      	uxtb	r6, r6
1000040c:	f003 fff0 	bl	100043f0 <__wrap_printf>
10000410:	2e07      	cmp	r6, #7
10000412:	d800      	bhi.n	10000416 <main+0xbe>
10000414:	e0b2      	b.n	1000057c <main+0x224>
10000416:	486b      	ldr	r0, [pc, #428]	; (100005c4 <main+0x26c>)
10000418:	f003 fee2 	bl	100041e0 <__wrap_puts>
1000041c:	4658      	mov	r0, fp
1000041e:	f003 fedf 	bl	100041e0 <__wrap_puts>
10000422:	4650      	mov	r0, sl
10000424:	f003 fedc 	bl	100041e0 <__wrap_puts>
10000428:	4867      	ldr	r0, [pc, #412]	; (100005c8 <main+0x270>)
1000042a:	f003 fed9 	bl	100041e0 <__wrap_puts>
1000042e:	4867      	ldr	r0, [pc, #412]	; (100005cc <main+0x274>)
10000430:	f003 fed6 	bl	100041e0 <__wrap_puts>
10000434:	4648      	mov	r0, r9
10000436:	f003 fed3 	bl	100041e0 <__wrap_puts>
1000043a:	e7cc      	b.n	100003d6 <main+0x7e>
1000043c:	4864      	ldr	r0, [pc, #400]	; (100005d0 <main+0x278>)
1000043e:	f003 fecf 	bl	100041e0 <__wrap_puts>
10000442:	2201      	movs	r2, #1
10000444:	4b63      	ldr	r3, [pc, #396]	; (100005d4 <main+0x27c>)
10000446:	4e64      	ldr	r6, [pc, #400]	; (100005d8 <main+0x280>)
10000448:	681b      	ldr	r3, [r3, #0]
1000044a:	2180      	movs	r1, #128	; 0x80
1000044c:	4053      	eors	r3, r2
1000044e:	4a63      	ldr	r2, [pc, #396]	; (100005dc <main+0x284>)
10000450:	0030      	movs	r0, r6
10000452:	4013      	ands	r3, r2
10000454:	4a62      	ldr	r2, [pc, #392]	; (100005e0 <main+0x288>)
10000456:	0049      	lsls	r1, r1, #1
10000458:	6013      	str	r3, [r2, #0]
1000045a:	2208      	movs	r2, #8
1000045c:	4b4f      	ldr	r3, [pc, #316]	; (1000059c <main+0x244>)
1000045e:	601a      	str	r2, [r3, #0]
10000460:	22fa      	movs	r2, #250	; 0xfa
10000462:	00d2      	lsls	r2, r2, #3
10000464:	4694      	mov	ip, r2
10000466:	0033      	movs	r3, r6
10000468:	4463      	add	r3, ip
1000046a:	001f      	movs	r7, r3
1000046c:	4a5d      	ldr	r2, [pc, #372]	; (100005e4 <main+0x28c>)
1000046e:	6893      	ldr	r3, [r2, #8]
10000470:	420b      	tst	r3, r1
10000472:	d1fc      	bne.n	1000046e <main+0x116>
10000474:	68d3      	ldr	r3, [r2, #12]
10000476:	8003      	strh	r3, [r0, #0]
10000478:	3002      	adds	r0, #2
1000047a:	4287      	cmp	r7, r0
1000047c:	d1f7      	bne.n	1000046e <main+0x116>
1000047e:	2208      	movs	r2, #8
10000480:	4b59      	ldr	r3, [pc, #356]	; (100005e8 <main+0x290>)
10000482:	4958      	ldr	r1, [pc, #352]	; (100005e4 <main+0x28c>)
10000484:	601a      	str	r2, [r3, #0]
10000486:	32f8      	adds	r2, #248	; 0xf8
10000488:	680b      	ldr	r3, [r1, #0]
1000048a:	4213      	tst	r3, r2
1000048c:	d0fc      	beq.n	10000488 <main+0x130>
1000048e:	688b      	ldr	r3, [r1, #8]
10000490:	4213      	tst	r3, r2
10000492:	d106      	bne.n	100004a2 <main+0x14a>
10000494:	2180      	movs	r1, #128	; 0x80
10000496:	4b53      	ldr	r3, [pc, #332]	; (100005e4 <main+0x28c>)
10000498:	0049      	lsls	r1, r1, #1
1000049a:	68da      	ldr	r2, [r3, #12]
1000049c:	689a      	ldr	r2, [r3, #8]
1000049e:	420a      	tst	r2, r1
100004a0:	d0fb      	beq.n	1000049a <main+0x142>
100004a2:	4852      	ldr	r0, [pc, #328]	; (100005ec <main+0x294>)
100004a4:	f003 fe9c 	bl	100041e0 <__wrap_puts>
100004a8:	8831      	ldrh	r1, [r6, #0]
100004aa:	0028      	movs	r0, r5
100004ac:	3602      	adds	r6, #2
100004ae:	f003 ff9f 	bl	100043f0 <__wrap_printf>
100004b2:	42b7      	cmp	r7, r6
100004b4:	d1f8      	bne.n	100004a8 <main+0x150>
100004b6:	e78e      	b.n	100003d6 <main+0x7e>
100004b8:	2e0a      	cmp	r6, #10
100004ba:	d08d      	beq.n	100003d8 <main+0x80>
100004bc:	2e0d      	cmp	r6, #13
100004be:	d08b      	beq.n	100003d8 <main+0x80>
100004c0:	0031      	movs	r1, r6
100004c2:	484b      	ldr	r0, [pc, #300]	; (100005f0 <main+0x298>)
100004c4:	f003 ff94 	bl	100043f0 <__wrap_printf>
100004c8:	e7a8      	b.n	1000041c <main+0xc4>
100004ca:	484a      	ldr	r0, [pc, #296]	; (100005f4 <main+0x29c>)
100004cc:	f003 fe88 	bl	100041e0 <__wrap_puts>
100004d0:	2301      	movs	r3, #1
100004d2:	22d0      	movs	r2, #208	; 0xd0
100004d4:	425b      	negs	r3, r3
100004d6:	0612      	lsls	r2, r2, #24
100004d8:	6213      	str	r3, [r2, #32]
100004da:	3302      	adds	r3, #2
100004dc:	4698      	mov	r8, r3
100004de:	2601      	movs	r6, #1
100004e0:	2702      	movs	r7, #2
100004e2:	2000      	movs	r0, #0
100004e4:	f003 ff94 	bl	10004410 <getchar_timeout_us>
100004e8:	1c43      	adds	r3, r0, #1
100004ea:	d13f      	bne.n	1000056c <main+0x214>
100004ec:	4643      	mov	r3, r8
100004ee:	2b00      	cmp	r3, #0
100004f0:	d131      	bne.n	10000556 <main+0x1fe>
100004f2:	23d0      	movs	r3, #208	; 0xd0
100004f4:	061b      	lsls	r3, r3, #24
100004f6:	611e      	str	r6, [r3, #16]
100004f8:	2000      	movs	r0, #0
100004fa:	f003 ff89 	bl	10004410 <getchar_timeout_us>
100004fe:	1c43      	adds	r3, r0, #1
10000500:	d134      	bne.n	1000056c <main+0x214>
10000502:	23d0      	movs	r3, #208	; 0xd0
10000504:	061b      	lsls	r3, r3, #24
10000506:	611f      	str	r7, [r3, #16]
10000508:	2000      	movs	r0, #0
1000050a:	f003 ff81 	bl	10004410 <getchar_timeout_us>
1000050e:	1c43      	adds	r3, r0, #1
10000510:	d12c      	bne.n	1000056c <main+0x214>
10000512:	2304      	movs	r3, #4
10000514:	4698      	mov	r8, r3
10000516:	23d0      	movs	r3, #208	; 0xd0
10000518:	4642      	mov	r2, r8
1000051a:	061b      	lsls	r3, r3, #24
1000051c:	611a      	str	r2, [r3, #16]
1000051e:	e7e0      	b.n	100004e2 <main+0x18a>
10000520:	2204      	movs	r2, #4
10000522:	2180      	movs	r1, #128	; 0x80
10000524:	4b1d      	ldr	r3, [pc, #116]	; (1000059c <main+0x244>)
10000526:	0049      	lsls	r1, r1, #1
10000528:	601a      	str	r2, [r3, #0]
1000052a:	4a2e      	ldr	r2, [pc, #184]	; (100005e4 <main+0x28c>)
1000052c:	6813      	ldr	r3, [r2, #0]
1000052e:	420b      	tst	r3, r1
10000530:	d0fc      	beq.n	1000052c <main+0x1d4>
10000532:	6856      	ldr	r6, [r2, #4]
10000534:	0436      	lsls	r6, r6, #16
10000536:	0c36      	lsrs	r6, r6, #16
10000538:	0030      	movs	r0, r6
1000053a:	f003 fc97 	bl	10003e6c <__wrap___aeabi_ui2f>
1000053e:	492e      	ldr	r1, [pc, #184]	; (100005f8 <main+0x2a0>)
10000540:	f003 fc8e 	bl	10003e60 <__wrap___aeabi_fmul>
10000544:	f003 fcba 	bl	10003ebc <__wrap___aeabi_f2d>
10000548:	0002      	movs	r2, r0
1000054a:	000b      	movs	r3, r1
1000054c:	482b      	ldr	r0, [pc, #172]	; (100005fc <main+0x2a4>)
1000054e:	0031      	movs	r1, r6
10000550:	f003 ff4e 	bl	100043f0 <__wrap_printf>
10000554:	e73f      	b.n	100003d6 <main+0x7e>
10000556:	005b      	lsls	r3, r3, #1
10000558:	4698      	mov	r8, r3
1000055a:	d1dc      	bne.n	10000516 <main+0x1be>
1000055c:	23d0      	movs	r3, #208	; 0xd0
1000055e:	061b      	lsls	r3, r3, #24
10000560:	6118      	str	r0, [r3, #16]
10000562:	2000      	movs	r0, #0
10000564:	f003 ff54 	bl	10004410 <getchar_timeout_us>
10000568:	1c43      	adds	r3, r0, #1
1000056a:	d0c2      	beq.n	100004f2 <main+0x19a>
1000056c:	22d0      	movs	r2, #208	; 0xd0
1000056e:	2300      	movs	r3, #0
10000570:	0612      	lsls	r2, r2, #24
10000572:	6213      	str	r3, [r2, #32]
10000574:	4822      	ldr	r0, [pc, #136]	; (10000600 <main+0x2a8>)
10000576:	f003 fe33 	bl	100041e0 <__wrap_puts>
1000057a:	e72c      	b.n	100003d6 <main+0x7e>
1000057c:	4b19      	ldr	r3, [pc, #100]	; (100005e4 <main+0x28c>)
1000057e:	0039      	movs	r1, r7
10000580:	681a      	ldr	r2, [r3, #0]
10000582:	003b      	movs	r3, r7
10000584:	3b30      	subs	r3, #48	; 0x30
10000586:	031b      	lsls	r3, r3, #12
10000588:	4053      	eors	r3, r2
1000058a:	22e0      	movs	r2, #224	; 0xe0
1000058c:	01d2      	lsls	r2, r2, #7
1000058e:	4013      	ands	r3, r2
10000590:	4a1c      	ldr	r2, [pc, #112]	; (10000604 <main+0x2ac>)
10000592:	481d      	ldr	r0, [pc, #116]	; (10000608 <main+0x2b0>)
10000594:	6013      	str	r3, [r2, #0]
10000596:	f003 ff2b 	bl	100043f0 <__wrap_printf>
1000059a:	e71c      	b.n	100003d6 <main+0x7e>
1000059c:	4004e000 	.word	0x4004e000
100005a0:	10005824 	.word	0x10005824
100005a4:	10005844 	.word	0x10005844
100005a8:	10005860 	.word	0x10005860
100005ac:	100057c8 	.word	0x100057c8
100005b0:	10005934 	.word	0x10005934
100005b4:	100057d4 	.word	0x100057d4
100005b8:	100058dc 	.word	0x100058dc
100005bc:	10005814 	.word	0x10005814
100005c0:	100058a8 	.word	0x100058a8
100005c4:	1000587c 	.word	0x1000587c
100005c8:	100057f4 	.word	0x100057f4
100005cc:	10005804 	.word	0x10005804
100005d0:	100058c0 	.word	0x100058c0
100005d4:	4004c008 	.word	0x4004c008
100005d8:	20000b2c 	.word	0x20000b2c
100005dc:	0f00000f 	.word	0x0f00000f
100005e0:	4004d008 	.word	0x4004d008
100005e4:	4004c000 	.word	0x4004c000
100005e8:	4004f000 	.word	0x4004f000
100005ec:	100058d4 	.word	0x100058d4
100005f0:	10005918 	.word	0x10005918
100005f4:	100058e4 	.word	0x100058e4
100005f8:	3a533333 	.word	0x3a533333
100005fc:	100058ac 	.word	0x100058ac
10000600:	10005904 	.word	0x10005904
10000604:	4004d000 	.word	0x4004d000
10000608:	10005894 	.word	0x10005894

1000060c <gpio_set_function>:
1000060c:	4a09      	ldr	r2, [pc, #36]	; (10000634 <gpio_set_function+0x28>)
1000060e:	0083      	lsls	r3, r0, #2
10000610:	4694      	mov	ip, r2
10000612:	2240      	movs	r2, #64	; 0x40
10000614:	4463      	add	r3, ip
10000616:	b510      	push	{r4, lr}
10000618:	681c      	ldr	r4, [r3, #0]
1000061a:	00c0      	lsls	r0, r0, #3
1000061c:	4062      	eors	r2, r4
1000061e:	24c0      	movs	r4, #192	; 0xc0
10000620:	4014      	ands	r4, r2
10000622:	2280      	movs	r2, #128	; 0x80
10000624:	0152      	lsls	r2, r2, #5
10000626:	4313      	orrs	r3, r2
10000628:	601c      	str	r4, [r3, #0]
1000062a:	4b03      	ldr	r3, [pc, #12]	; (10000638 <gpio_set_function+0x2c>)
1000062c:	469c      	mov	ip, r3
1000062e:	4460      	add	r0, ip
10000630:	6041      	str	r1, [r0, #4]
10000632:	bd10      	pop	{r4, pc}
10000634:	4001c004 	.word	0x4001c004
10000638:	40014000 	.word	0x40014000

1000063c <gpio_set_pulls>:
1000063c:	4b0a      	ldr	r3, [pc, #40]	; (10000668 <gpio_set_pulls+0x2c>)
1000063e:	0080      	lsls	r0, r0, #2
10000640:	469c      	mov	ip, r3
10000642:	2304      	movs	r3, #4
10000644:	4460      	add	r0, ip
10000646:	2900      	cmp	r1, #0
10000648:	d001      	beq.n	1000064e <gpio_set_pulls+0x12>
1000064a:	2108      	movs	r1, #8
1000064c:	230c      	movs	r3, #12
1000064e:	2a00      	cmp	r2, #0
10000650:	d100      	bne.n	10000654 <gpio_set_pulls+0x18>
10000652:	000b      	movs	r3, r1
10000654:	6802      	ldr	r2, [r0, #0]
10000656:	4053      	eors	r3, r2
10000658:	220c      	movs	r2, #12
1000065a:	401a      	ands	r2, r3
1000065c:	2380      	movs	r3, #128	; 0x80
1000065e:	015b      	lsls	r3, r3, #5
10000660:	4318      	orrs	r0, r3
10000662:	6002      	str	r2, [r0, #0]
10000664:	4770      	bx	lr
10000666:	46c0      	nop			; (mov r8, r8)
10000668:	4001c004 	.word	0x4001c004

1000066c <gpio_set_input_enabled>:
1000066c:	4b08      	ldr	r3, [pc, #32]	; (10000690 <gpio_set_input_enabled+0x24>)
1000066e:	0080      	lsls	r0, r0, #2
10000670:	469c      	mov	ip, r3
10000672:	4460      	add	r0, ip
10000674:	2900      	cmp	r1, #0
10000676:	d005      	beq.n	10000684 <gpio_set_input_enabled+0x18>
10000678:	2380      	movs	r3, #128	; 0x80
1000067a:	019b      	lsls	r3, r3, #6
1000067c:	4318      	orrs	r0, r3
1000067e:	2340      	movs	r3, #64	; 0x40
10000680:	6003      	str	r3, [r0, #0]
10000682:	4770      	bx	lr
10000684:	23c0      	movs	r3, #192	; 0xc0
10000686:	019b      	lsls	r3, r3, #6
10000688:	4318      	orrs	r0, r3
1000068a:	2340      	movs	r3, #64	; 0x40
1000068c:	6003      	str	r3, [r0, #0]
1000068e:	e7f8      	b.n	10000682 <gpio_set_input_enabled+0x16>
10000690:	4001c004 	.word	0x4001c004

10000694 <hw_claim_or_assert>:
10000694:	b5f8      	push	{r3, r4, r5, r6, r7, lr}
10000696:	46ce      	mov	lr, r9
10000698:	4647      	mov	r7, r8
1000069a:	4691      	mov	r9, r2
1000069c:	b580      	push	{r7, lr}
1000069e:	f3ef 8710 	mrs	r7, PRIMASK
100006a2:	b672      	cpsid	i
100006a4:	4e12      	ldr	r6, [pc, #72]	; (100006f0 <hw_claim_or_assert+0x5c>)
100006a6:	6833      	ldr	r3, [r6, #0]
100006a8:	2b00      	cmp	r3, #0
100006aa:	d0fc      	beq.n	100006a6 <hw_claim_or_assert+0x12>
100006ac:	f3bf 8f5f 	dmb	sy
100006b0:	08cb      	lsrs	r3, r1, #3
100006b2:	5cc5      	ldrb	r5, [r0, r3]
100006b4:	2407      	movs	r4, #7
100006b6:	18c2      	adds	r2, r0, r3
100006b8:	0028      	movs	r0, r5
100006ba:	2301      	movs	r3, #1
100006bc:	400c      	ands	r4, r1
100006be:	4694      	mov	ip, r2
100006c0:	40e0      	lsrs	r0, r4
100006c2:	001a      	movs	r2, r3
100006c4:	4002      	ands	r2, r0
100006c6:	4690      	mov	r8, r2
100006c8:	4203      	tst	r3, r0
100006ca:	d10d      	bne.n	100006e8 <hw_claim_or_assert+0x54>
100006cc:	40a3      	lsls	r3, r4
100006ce:	4662      	mov	r2, ip
100006d0:	432b      	orrs	r3, r5
100006d2:	7013      	strb	r3, [r2, #0]
100006d4:	f3bf 8f5f 	dmb	sy
100006d8:	4643      	mov	r3, r8
100006da:	6033      	str	r3, [r6, #0]
100006dc:	f387 8810 	msr	PRIMASK, r7
100006e0:	bc0c      	pop	{r2, r3}
100006e2:	4690      	mov	r8, r2
100006e4:	4699      	mov	r9, r3
100006e6:	bdf8      	pop	{r3, r4, r5, r6, r7, pc}
100006e8:	4648      	mov	r0, r9
100006ea:	f000 fe53 	bl	10001394 <panic>
100006ee:	46c0      	nop			; (mov r8, r8)
100006f0:	d000012c 	.word	0xd000012c

100006f4 <spin_locks_reset>:
100006f4:	2100      	movs	r1, #0
100006f6:	4b04      	ldr	r3, [pc, #16]	; (10000708 <spin_locks_reset+0x14>)
100006f8:	4a04      	ldr	r2, [pc, #16]	; (1000070c <spin_locks_reset+0x18>)
100006fa:	f3bf 8f5f 	dmb	sy
100006fe:	c302      	stmia	r3!, {r1}
10000700:	4293      	cmp	r3, r2
10000702:	d1fa      	bne.n	100006fa <spin_locks_reset+0x6>
10000704:	4770      	bx	lr
10000706:	46c0      	nop			; (mov r8, r8)
10000708:	d0000100 	.word	0xd0000100
1000070c:	d0000180 	.word	0xd0000180

10000710 <next_striped_spin_lock_num>:
10000710:	4a04      	ldr	r2, [pc, #16]	; (10000724 <next_striped_spin_lock_num+0x14>)
10000712:	7810      	ldrb	r0, [r2, #0]
10000714:	1c43      	adds	r3, r0, #1
10000716:	b2db      	uxtb	r3, r3
10000718:	2b17      	cmp	r3, #23
1000071a:	d900      	bls.n	1000071e <next_striped_spin_lock_num+0xe>
1000071c:	2310      	movs	r3, #16
1000071e:	7013      	strb	r3, [r2, #0]
10000720:	4770      	bx	lr
10000722:	46c0      	nop			; (mov r8, r8)
10000724:	20000188 	.word	0x20000188

10000728 <running_on_fpga>:
10000728:	4b02      	ldr	r3, [pc, #8]	; (10000734 <running_on_fpga+0xc>)
1000072a:	6818      	ldr	r0, [r3, #0]
1000072c:	0780      	lsls	r0, r0, #30
1000072e:	0fc0      	lsrs	r0, r0, #31
10000730:	4770      	bx	lr
10000732:	46c0      	nop			; (mov r8, r8)
10000734:	4006c000 	.word	0x4006c000

10000738 <uart_init>:
10000738:	b5f0      	push	{r4, r5, r6, r7, lr}
1000073a:	46c6      	mov	lr, r8
1000073c:	0005      	movs	r5, r0
1000073e:	b500      	push	{lr}
10000740:	2006      	movs	r0, #6
10000742:	000e      	movs	r6, r1
10000744:	f000 ffb4 	bl	100016b0 <clock_get_hz>
10000748:	2800      	cmp	r0, #0
1000074a:	d04d      	beq.n	100007e8 <uart_init+0xb0>
1000074c:	4b29      	ldr	r3, [pc, #164]	; (100007f4 <uart_init+0xbc>)
1000074e:	492a      	ldr	r1, [pc, #168]	; (100007f8 <uart_init+0xc0>)
10000750:	18eb      	adds	r3, r5, r3
10000752:	425a      	negs	r2, r3
10000754:	4153      	adcs	r3, r2
10000756:	2280      	movs	r2, #128	; 0x80
10000758:	03d2      	lsls	r2, r2, #15
1000075a:	4694      	mov	ip, r2
1000075c:	425b      	negs	r3, r3
1000075e:	4013      	ands	r3, r2
10000760:	4a26      	ldr	r2, [pc, #152]	; (100007fc <uart_init+0xc4>)
10000762:	4463      	add	r3, ip
10000764:	6013      	str	r3, [r2, #0]
10000766:	4a26      	ldr	r2, [pc, #152]	; (10000800 <uart_init+0xc8>)
10000768:	6013      	str	r3, [r2, #0]
1000076a:	001c      	movs	r4, r3
1000076c:	688a      	ldr	r2, [r1, #8]
1000076e:	4394      	bics	r4, r2
10000770:	d1fb      	bne.n	1000076a <uart_init+0x32>
10000772:	4b20      	ldr	r3, [pc, #128]	; (100007f4 <uart_init+0xbc>)
10000774:	2180      	movs	r1, #128	; 0x80
10000776:	18eb      	adds	r3, r5, r3
10000778:	425a      	negs	r2, r3
1000077a:	4153      	adcs	r3, r2
1000077c:	4a21      	ldr	r2, [pc, #132]	; (10000804 <uart_init+0xcc>)
1000077e:	005b      	lsls	r3, r3, #1
10000780:	0049      	lsls	r1, r1, #1
10000782:	2006      	movs	r0, #6
10000784:	5299      	strh	r1, [r3, r2]
10000786:	f000 ff93 	bl	100016b0 <clock_get_hz>
1000078a:	0031      	movs	r1, r6
1000078c:	00c0      	lsls	r0, r0, #3
1000078e:	f002 fd01 	bl	10003194 <__wrap___aeabi_uidiv>
10000792:	267f      	movs	r6, #127	; 0x7f
10000794:	4b1c      	ldr	r3, [pc, #112]	; (10000808 <uart_init+0xd0>)
10000796:	4006      	ands	r6, r0
10000798:	09c7      	lsrs	r7, r0, #7
1000079a:	3601      	adds	r6, #1
1000079c:	0876      	lsrs	r6, r6, #1
1000079e:	626f      	str	r7, [r5, #36]	; 0x24
100007a0:	429f      	cmp	r7, r3
100007a2:	d024      	beq.n	100007ee <uart_init+0xb6>
100007a4:	62ae      	str	r6, [r5, #40]	; 0x28
100007a6:	232c      	movs	r3, #44	; 0x2c
100007a8:	4698      	mov	r8, r3
100007aa:	2480      	movs	r4, #128	; 0x80
100007ac:	44a8      	add	r8, r5
100007ae:	4643      	mov	r3, r8
100007b0:	01a4      	lsls	r4, r4, #6
100007b2:	431c      	orrs	r4, r3
100007b4:	2300      	movs	r3, #0
100007b6:	2006      	movs	r0, #6
100007b8:	6023      	str	r3, [r4, #0]
100007ba:	f000 ff79 	bl	100016b0 <clock_get_hz>
100007be:	01b9      	lsls	r1, r7, #6
100007c0:	1989      	adds	r1, r1, r6
100007c2:	0080      	lsls	r0, r0, #2
100007c4:	f002 fce6 	bl	10003194 <__wrap___aeabi_uidiv>
100007c8:	2360      	movs	r3, #96	; 0x60
100007ca:	6aea      	ldr	r2, [r5, #44]	; 0x2c
100007cc:	4641      	mov	r1, r8
100007ce:	4053      	eors	r3, r2
100007d0:	226e      	movs	r2, #110	; 0x6e
100007d2:	401a      	ands	r2, r3
100007d4:	2380      	movs	r3, #128	; 0x80
100007d6:	015b      	lsls	r3, r3, #5
100007d8:	430b      	orrs	r3, r1
100007da:	601a      	str	r2, [r3, #0]
100007dc:	4b0b      	ldr	r3, [pc, #44]	; (1000080c <uart_init+0xd4>)
100007de:	632b      	str	r3, [r5, #48]	; 0x30
100007e0:	2310      	movs	r3, #16
100007e2:	6023      	str	r3, [r4, #0]
100007e4:	3b0d      	subs	r3, #13
100007e6:	64ab      	str	r3, [r5, #72]	; 0x48
100007e8:	bc04      	pop	{r2}
100007ea:	4690      	mov	r8, r2
100007ec:	bdf0      	pop	{r4, r5, r6, r7, pc}
100007ee:	62ac      	str	r4, [r5, #40]	; 0x28
100007f0:	e7d9      	b.n	100007a6 <uart_init+0x6e>
100007f2:	46c0      	nop			; (mov r8, r8)
100007f4:	bffc8000 	.word	0xbffc8000
100007f8:	4000c000 	.word	0x4000c000
100007fc:	4000e000 	.word	0x4000e000
10000800:	4000f000 	.word	0x4000f000
10000804:	200012fc 	.word	0x200012fc
10000808:	0000ffff 	.word	0x0000ffff
1000080c:	00000301 	.word	0x00000301

10000810 <timer_pool_entry_comparator>:
10000810:	6883      	ldr	r3, [r0, #8]
10000812:	480b      	ldr	r0, [pc, #44]	; (10000840 <timer_pool_entry_comparator+0x30>)
10000814:	b510      	push	{r4, lr}
10000816:	4684      	mov	ip, r0
10000818:	4461      	add	r1, ip
1000081a:	4462      	add	r2, ip
1000081c:	0109      	lsls	r1, r1, #4
1000081e:	0112      	lsls	r2, r2, #4
10000820:	189a      	adds	r2, r3, r2
10000822:	1859      	adds	r1, r3, r1
10000824:	6854      	ldr	r4, [r2, #4]
10000826:	684b      	ldr	r3, [r1, #4]
10000828:	2001      	movs	r0, #1
1000082a:	429c      	cmp	r4, r3
1000082c:	d801      	bhi.n	10000832 <timer_pool_entry_comparator+0x22>
1000082e:	d002      	beq.n	10000836 <timer_pool_entry_comparator+0x26>
10000830:	2000      	movs	r0, #0
10000832:	b2c0      	uxtb	r0, r0
10000834:	bd10      	pop	{r4, pc}
10000836:	6812      	ldr	r2, [r2, #0]
10000838:	680b      	ldr	r3, [r1, #0]
1000083a:	429a      	cmp	r2, r3
1000083c:	d8f9      	bhi.n	10000832 <timer_pool_entry_comparator+0x22>
1000083e:	e7f7      	b.n	10000830 <timer_pool_entry_comparator+0x20>
10000840:	0fffffff 	.word	0x0fffffff

10000844 <add_alarm_under_lock>:
10000844:	b5f0      	push	{r4, r5, r6, r7, lr}
10000846:	4657      	mov	r7, sl
10000848:	4645      	mov	r5, r8
1000084a:	46de      	mov	lr, fp
1000084c:	464e      	mov	r6, r9
1000084e:	b5e0      	push	{r5, r6, r7, lr}
10000850:	b083      	sub	sp, #12
10000852:	001f      	movs	r7, r3
10000854:	ab0f      	add	r3, sp, #60	; 0x3c
10000856:	781b      	ldrb	r3, [r3, #0]
10000858:	9c0e      	ldr	r4, [sp, #56]	; 0x38
1000085a:	0005      	movs	r5, r0
1000085c:	4692      	mov	sl, r2
1000085e:	9301      	str	r3, [sp, #4]
10000860:	2c00      	cmp	r4, #0
10000862:	d10d      	bne.n	10000880 <add_alarm_under_lock+0x3c>
10000864:	6802      	ldr	r2, [r0, #0]
10000866:	7b94      	ldrb	r4, [r2, #14]
10000868:	2c00      	cmp	r4, #0
1000086a:	d056      	beq.n	1000091a <add_alarm_under_lock+0xd6>
1000086c:	6811      	ldr	r1, [r2, #0]
1000086e:	0063      	lsls	r3, r4, #1
10000870:	468c      	mov	ip, r1
10000872:	191b      	adds	r3, r3, r4
10000874:	4463      	add	r3, ip
10000876:	3b03      	subs	r3, #3
10000878:	785b      	ldrb	r3, [r3, #1]
1000087a:	7393      	strb	r3, [r2, #14]
1000087c:	2b00      	cmp	r3, #0
1000087e:	d054      	beq.n	1000092a <add_alarm_under_lock+0xe6>
10000880:	68aa      	ldr	r2, [r5, #8]
10000882:	b2e3      	uxtb	r3, r4
10000884:	4694      	mov	ip, r2
10000886:	4652      	mov	r2, sl
10000888:	469b      	mov	fp, r3
1000088a:	4b38      	ldr	r3, [pc, #224]	; (1000096c <add_alarm_under_lock+0x128>)
1000088c:	682e      	ldr	r6, [r5, #0]
1000088e:	18e3      	adds	r3, r4, r3
10000890:	011b      	lsls	r3, r3, #4
10000892:	4463      	add	r3, ip
10000894:	601a      	str	r2, [r3, #0]
10000896:	9a0c      	ldr	r2, [sp, #48]	; 0x30
10000898:	605f      	str	r7, [r3, #4]
1000089a:	609a      	str	r2, [r3, #8]
1000089c:	9a0d      	ldr	r2, [sp, #52]	; 0x34
1000089e:	60da      	str	r2, [r3, #12]
100008a0:	23d0      	movs	r3, #208	; 0xd0
100008a2:	2280      	movs	r2, #128	; 0x80
100008a4:	061b      	lsls	r3, r3, #24
100008a6:	0312      	lsls	r2, r2, #12
100008a8:	615a      	str	r2, [r3, #20]
100008aa:	0063      	lsls	r3, r4, #1
100008ac:	191b      	adds	r3, r3, r4
100008ae:	3b03      	subs	r3, #3
100008b0:	4698      	mov	r8, r3
100008b2:	2200      	movs	r2, #0
100008b4:	6833      	ldr	r3, [r6, #0]
100008b6:	4443      	add	r3, r8
100008b8:	709a      	strb	r2, [r3, #2]
100008ba:	705a      	strb	r2, [r3, #1]
100008bc:	701a      	strb	r2, [r3, #0]
100008be:	7b73      	ldrb	r3, [r6, #13]
100008c0:	4699      	mov	r9, r3
100008c2:	2b00      	cmp	r3, #0
100008c4:	d017      	beq.n	100008f6 <add_alarm_under_lock+0xb2>
100008c6:	465a      	mov	r2, fp
100008c8:	0019      	movs	r1, r3
100008ca:	68b0      	ldr	r0, [r6, #8]
100008cc:	6873      	ldr	r3, [r6, #4]
100008ce:	4798      	blx	r3
100008d0:	6832      	ldr	r2, [r6, #0]
100008d2:	2800      	cmp	r0, #0
100008d4:	d12b      	bne.n	1000092e <add_alarm_under_lock+0xea>
100008d6:	4643      	mov	r3, r8
100008d8:	18d1      	adds	r1, r2, r3
100008da:	464b      	mov	r3, r9
100008dc:	4658      	mov	r0, fp
100008de:	005b      	lsls	r3, r3, #1
100008e0:	444b      	add	r3, r9
100008e2:	3b03      	subs	r3, #3
100008e4:	18d3      	adds	r3, r2, r3
100008e6:	7098      	strb	r0, [r3, #2]
100008e8:	4640      	mov	r0, r8
100008ea:	5c12      	ldrb	r2, [r2, r0]
100008ec:	2a00      	cmp	r2, #0
100008ee:	d000      	beq.n	100008f2 <add_alarm_under_lock+0xae>
100008f0:	705a      	strb	r2, [r3, #1]
100008f2:	464b      	mov	r3, r9
100008f4:	700b      	strb	r3, [r1, #0]
100008f6:	465b      	mov	r3, fp
100008f8:	7373      	strb	r3, [r6, #13]
100008fa:	4652      	mov	r2, sl
100008fc:	003b      	movs	r3, r7
100008fe:	7d28      	ldrb	r0, [r5, #20]
10000900:	f000 fa1a 	bl	10000d38 <hardware_alarm_set_target>
10000904:	1e06      	subs	r6, r0, #0
10000906:	d002      	beq.n	1000090e <add_alarm_under_lock+0xca>
10000908:	9b01      	ldr	r3, [sp, #4]
1000090a:	2b00      	cmp	r3, #0
1000090c:	d026      	beq.n	1000095c <add_alarm_under_lock+0x118>
1000090e:	9b10      	ldr	r3, [sp, #64]	; 0x40
10000910:	2b00      	cmp	r3, #0
10000912:	d028      	beq.n	10000966 <add_alarm_under_lock+0x122>
10000914:	0020      	movs	r0, r4
10000916:	701e      	strb	r6, [r3, #0]
10000918:	e000      	b.n	1000091c <add_alarm_under_lock+0xd8>
1000091a:	2000      	movs	r0, #0
1000091c:	b003      	add	sp, #12
1000091e:	bc3c      	pop	{r2, r3, r4, r5}
10000920:	4690      	mov	r8, r2
10000922:	4699      	mov	r9, r3
10000924:	46a2      	mov	sl, r4
10000926:	46ab      	mov	fp, r5
10000928:	bdf0      	pop	{r4, r5, r6, r7, pc}
1000092a:	73d3      	strb	r3, [r2, #15]
1000092c:	e7a8      	b.n	10000880 <add_alarm_under_lock+0x3c>
1000092e:	464b      	mov	r3, r9
10000930:	005b      	lsls	r3, r3, #1
10000932:	444b      	add	r3, r9
10000934:	3b03      	subs	r3, #3
10000936:	18d1      	adds	r1, r2, r3
10000938:	468c      	mov	ip, r1
1000093a:	4641      	mov	r1, r8
1000093c:	4648      	mov	r0, r9
1000093e:	1851      	adds	r1, r2, r1
10000940:	7088      	strb	r0, [r1, #2]
10000942:	5cd3      	ldrb	r3, [r2, r3]
10000944:	2b00      	cmp	r3, #0
10000946:	d000      	beq.n	1000094a <add_alarm_under_lock+0x106>
10000948:	704b      	strb	r3, [r1, #1]
1000094a:	465b      	mov	r3, fp
1000094c:	4662      	mov	r2, ip
1000094e:	7013      	strb	r3, [r2, #0]
10000950:	464b      	mov	r3, r9
10000952:	0020      	movs	r0, r4
10000954:	7373      	strb	r3, [r6, #13]
10000956:	45a1      	cmp	r9, r4
10000958:	d1e0      	bne.n	1000091c <add_alarm_under_lock+0xd8>
1000095a:	e7ce      	b.n	100008fa <add_alarm_under_lock+0xb6>
1000095c:	4659      	mov	r1, fp
1000095e:	6828      	ldr	r0, [r5, #0]
10000960:	f000 fc48 	bl	100011f4 <ph_delete>
10000964:	e7d3      	b.n	1000090e <add_alarm_under_lock+0xca>
10000966:	0020      	movs	r0, r4
10000968:	e7d8      	b.n	1000091c <add_alarm_under_lock+0xd8>
1000096a:	46c0      	nop			; (mov r8, r8)
1000096c:	0fffffff 	.word	0x0fffffff

10000970 <alarm_pool_alarm_callback>:
10000970:	b5f0      	push	{r4, r5, r6, r7, lr}
10000972:	46de      	mov	lr, fp
10000974:	464e      	mov	r6, r9
10000976:	4657      	mov	r7, sl
10000978:	4645      	mov	r5, r8
1000097a:	2300      	movs	r3, #0
1000097c:	b5e0      	push	{r5, r6, r7, lr}
1000097e:	b08d      	sub	sp, #52	; 0x34
10000980:	930a      	str	r3, [sp, #40]	; 0x28
10000982:	4b71      	ldr	r3, [pc, #452]	; (10000b48 <alarm_pool_alarm_callback+0x1d8>)
10000984:	0082      	lsls	r2, r0, #2
10000986:	58d3      	ldr	r3, [r2, r3]
10000988:	900b      	str	r0, [sp, #44]	; 0x2c
1000098a:	4699      	mov	r9, r3
1000098c:	2300      	movs	r3, #0
1000098e:	469b      	mov	fp, r3
10000990:	464b      	mov	r3, r9
10000992:	9307      	str	r3, [sp, #28]
10000994:	f000 f980 	bl	10000c98 <time_us_64>
10000998:	9c07      	ldr	r4, [sp, #28]
1000099a:	0006      	movs	r6, r0
1000099c:	000f      	movs	r7, r1
1000099e:	6862      	ldr	r2, [r4, #4]
100009a0:	f3ef 8510 	mrs	r5, PRIMASK
100009a4:	b672      	cpsid	i
100009a6:	6813      	ldr	r3, [r2, #0]
100009a8:	2b00      	cmp	r3, #0
100009aa:	d0fc      	beq.n	100009a6 <alarm_pool_alarm_callback+0x36>
100009ac:	0022      	movs	r2, r4
100009ae:	9407      	str	r4, [sp, #28]
100009b0:	f3bf 8f5f 	dmb	sy
100009b4:	6824      	ldr	r4, [r4, #0]
100009b6:	7b63      	ldrb	r3, [r4, #13]
100009b8:	4699      	mov	r9, r3
100009ba:	2b00      	cmp	r3, #0
100009bc:	d100      	bne.n	100009c0 <alarm_pool_alarm_callback+0x50>
100009be:	e070      	b.n	10000aa2 <alarm_pool_alarm_callback+0x132>
100009c0:	6892      	ldr	r2, [r2, #8]
100009c2:	4b62      	ldr	r3, [pc, #392]	; (10000b4c <alarm_pool_alarm_callback+0x1dc>)
100009c4:	4690      	mov	r8, r2
100009c6:	444b      	add	r3, r9
100009c8:	011b      	lsls	r3, r3, #4
100009ca:	4498      	add	r8, r3
100009cc:	4643      	mov	r3, r8
100009ce:	681a      	ldr	r2, [r3, #0]
100009d0:	685b      	ldr	r3, [r3, #4]
100009d2:	0010      	movs	r0, r2
100009d4:	0019      	movs	r1, r3
100009d6:	1b80      	subs	r0, r0, r6
100009d8:	41b9      	sbcs	r1, r7
100009da:	2900      	cmp	r1, #0
100009dc:	dd68      	ble.n	10000ab0 <alarm_pool_alarm_callback+0x140>
100009de:	980b      	ldr	r0, [sp, #44]	; 0x2c
100009e0:	f000 f9aa 	bl	10000d38 <hardware_alarm_set_target>
100009e4:	2300      	movs	r3, #0
100009e6:	2600      	movs	r6, #0
100009e8:	4698      	mov	r8, r3
100009ea:	2700      	movs	r7, #0
100009ec:	469a      	mov	sl, r3
100009ee:	9c07      	ldr	r4, [sp, #28]
100009f0:	6863      	ldr	r3, [r4, #4]
100009f2:	f3bf 8f5f 	dmb	sy
100009f6:	465a      	mov	r2, fp
100009f8:	601a      	str	r2, [r3, #0]
100009fa:	f385 8810 	msr	PRIMASK, r5
100009fe:	4653      	mov	r3, sl
10000a00:	2b00      	cmp	r3, #0
10000a02:	d108      	bne.n	10000a16 <alarm_pool_alarm_callback+0xa6>
10000a04:	2800      	cmp	r0, #0
10000a06:	d1c5      	bne.n	10000994 <alarm_pool_alarm_callback+0x24>
10000a08:	b00d      	add	sp, #52	; 0x34
10000a0a:	bc3c      	pop	{r2, r3, r4, r5}
10000a0c:	4690      	mov	r8, r2
10000a0e:	4699      	mov	r9, r3
10000a10:	46a2      	mov	sl, r4
10000a12:	46ab      	mov	fp, r5
10000a14:	bdf0      	pop	{r4, r5, r6, r7, pc}
10000a16:	23d0      	movs	r3, #208	; 0xd0
10000a18:	2280      	movs	r2, #128	; 0x80
10000a1a:	2180      	movs	r1, #128	; 0x80
10000a1c:	061b      	lsls	r3, r3, #24
10000a1e:	0392      	lsls	r2, r2, #14
10000a20:	0309      	lsls	r1, r1, #12
10000a22:	615a      	str	r2, [r3, #20]
10000a24:	6199      	str	r1, [r3, #24]
10000a26:	619a      	str	r2, [r3, #24]
10000a28:	9b0a      	ldr	r3, [sp, #40]	; 0x28
10000a2a:	4641      	mov	r1, r8
10000a2c:	0218      	lsls	r0, r3, #8
10000a2e:	464b      	mov	r3, r9
10000a30:	4318      	orrs	r0, r3
10000a32:	47d0      	blx	sl
10000a34:	9008      	str	r0, [sp, #32]
10000a36:	9109      	str	r1, [sp, #36]	; 0x24
10000a38:	6862      	ldr	r2, [r4, #4]
10000a3a:	f3ef 8510 	mrs	r5, PRIMASK
10000a3e:	b672      	cpsid	i
10000a40:	6813      	ldr	r3, [r2, #0]
10000a42:	2b00      	cmp	r3, #0
10000a44:	d0fc      	beq.n	10000a40 <alarm_pool_alarm_callback+0xd0>
10000a46:	9407      	str	r4, [sp, #28]
10000a48:	f3bf 8f5f 	dmb	sy
10000a4c:	9908      	ldr	r1, [sp, #32]
10000a4e:	9a09      	ldr	r2, [sp, #36]	; 0x24
10000a50:	2a00      	cmp	r2, #0
10000a52:	db49      	blt.n	10000ae8 <alarm_pool_alarm_callback+0x178>
10000a54:	4311      	orrs	r1, r2
10000a56:	d003      	beq.n	10000a60 <alarm_pool_alarm_callback+0xf0>
10000a58:	9b07      	ldr	r3, [sp, #28]
10000a5a:	691b      	ldr	r3, [r3, #16]
10000a5c:	2b00      	cmp	r3, #0
10000a5e:	d15e      	bne.n	10000b1e <alarm_pool_alarm_callback+0x1ae>
10000a60:	9b07      	ldr	r3, [sp, #28]
10000a62:	681b      	ldr	r3, [r3, #0]
10000a64:	7bda      	ldrb	r2, [r3, #15]
10000a66:	2a00      	cmp	r2, #0
10000a68:	d007      	beq.n	10000a7a <alarm_pool_alarm_callback+0x10a>
10000a6a:	0051      	lsls	r1, r2, #1
10000a6c:	188a      	adds	r2, r1, r2
10000a6e:	6819      	ldr	r1, [r3, #0]
10000a70:	468c      	mov	ip, r1
10000a72:	4649      	mov	r1, r9
10000a74:	4462      	add	r2, ip
10000a76:	3a03      	subs	r2, #3
10000a78:	7051      	strb	r1, [r2, #1]
10000a7a:	464a      	mov	r2, r9
10000a7c:	73da      	strb	r2, [r3, #15]
10000a7e:	464b      	mov	r3, r9
10000a80:	9a07      	ldr	r2, [sp, #28]
10000a82:	3b01      	subs	r3, #1
10000a84:	68d1      	ldr	r1, [r2, #12]
10000a86:	5cca      	ldrb	r2, [r1, r3]
10000a88:	3201      	adds	r2, #1
10000a8a:	54ca      	strb	r2, [r1, r3]
10000a8c:	465b      	mov	r3, fp
10000a8e:	9a07      	ldr	r2, [sp, #28]
10000a90:	6113      	str	r3, [r2, #16]
10000a92:	6853      	ldr	r3, [r2, #4]
10000a94:	f3bf 8f5f 	dmb	sy
10000a98:	465a      	mov	r2, fp
10000a9a:	601a      	str	r2, [r3, #0]
10000a9c:	f385 8810 	msr	PRIMASK, r5
10000aa0:	e778      	b.n	10000994 <alarm_pool_alarm_callback+0x24>
10000aa2:	2300      	movs	r3, #0
10000aa4:	2600      	movs	r6, #0
10000aa6:	4698      	mov	r8, r3
10000aa8:	2700      	movs	r7, #0
10000aaa:	469a      	mov	sl, r3
10000aac:	2000      	movs	r0, #0
10000aae:	e79e      	b.n	100009ee <alarm_pool_alarm_callback+0x7e>
10000ab0:	2900      	cmp	r1, #0
10000ab2:	d102      	bne.n	10000aba <alarm_pool_alarm_callback+0x14a>
10000ab4:	2800      	cmp	r0, #0
10000ab6:	d000      	beq.n	10000aba <alarm_pool_alarm_callback+0x14a>
10000ab8:	e791      	b.n	100009de <alarm_pool_alarm_callback+0x6e>
10000aba:	2101      	movs	r1, #1
10000abc:	0020      	movs	r0, r4
10000abe:	f000 fafb 	bl	100010b8 <ph_remove_head_reserve>
10000ac2:	4643      	mov	r3, r8
10000ac4:	681e      	ldr	r6, [r3, #0]
10000ac6:	685f      	ldr	r7, [r3, #4]
10000ac8:	689b      	ldr	r3, [r3, #8]
10000aca:	9a07      	ldr	r2, [sp, #28]
10000acc:	469a      	mov	sl, r3
10000ace:	4643      	mov	r3, r8
10000ad0:	68db      	ldr	r3, [r3, #12]
10000ad2:	4698      	mov	r8, r3
10000ad4:	68d3      	ldr	r3, [r2, #12]
10000ad6:	444b      	add	r3, r9
10000ad8:	3b01      	subs	r3, #1
10000ada:	781b      	ldrb	r3, [r3, #0]
10000adc:	930a      	str	r3, [sp, #40]	; 0x28
10000ade:	021b      	lsls	r3, r3, #8
10000ae0:	4303      	orrs	r3, r0
10000ae2:	6113      	str	r3, [r2, #16]
10000ae4:	2000      	movs	r0, #0
10000ae6:	e782      	b.n	100009ee <alarm_pool_alarm_callback+0x7e>
10000ae8:	6923      	ldr	r3, [r4, #16]
10000aea:	2b00      	cmp	r3, #0
10000aec:	d0b8      	beq.n	10000a60 <alarm_pool_alarm_callback+0xf0>
10000aee:	0033      	movs	r3, r6
10000af0:	003c      	movs	r4, r7
10000af2:	1a5b      	subs	r3, r3, r1
10000af4:	4194      	sbcs	r4, r2
10000af6:	001a      	movs	r2, r3
10000af8:	0023      	movs	r3, r4
10000afa:	42a7      	cmp	r7, r4
10000afc:	d819      	bhi.n	10000b32 <alarm_pool_alarm_callback+0x1c2>
10000afe:	429f      	cmp	r7, r3
10000b00:	d01b      	beq.n	10000b3a <alarm_pool_alarm_callback+0x1ca>
10000b02:	4659      	mov	r1, fp
10000b04:	9104      	str	r1, [sp, #16]
10000b06:	2101      	movs	r1, #1
10000b08:	9103      	str	r1, [sp, #12]
10000b0a:	4649      	mov	r1, r9
10000b0c:	9102      	str	r1, [sp, #8]
10000b0e:	4641      	mov	r1, r8
10000b10:	9101      	str	r1, [sp, #4]
10000b12:	4651      	mov	r1, sl
10000b14:	9807      	ldr	r0, [sp, #28]
10000b16:	9100      	str	r1, [sp, #0]
10000b18:	f7ff fe94 	bl	10000844 <add_alarm_under_lock>
10000b1c:	e7b6      	b.n	10000a8c <alarm_pool_alarm_callback+0x11c>
10000b1e:	f000 f8bb 	bl	10000c98 <time_us_64>
10000b22:	9a08      	ldr	r2, [sp, #32]
10000b24:	9b09      	ldr	r3, [sp, #36]	; 0x24
10000b26:	0006      	movs	r6, r0
10000b28:	000f      	movs	r7, r1
10000b2a:	1992      	adds	r2, r2, r6
10000b2c:	417b      	adcs	r3, r7
10000b2e:	4299      	cmp	r1, r3
10000b30:	d9e5      	bls.n	10000afe <alarm_pool_alarm_callback+0x18e>
10000b32:	2201      	movs	r2, #1
10000b34:	4252      	negs	r2, r2
10000b36:	17d3      	asrs	r3, r2, #31
10000b38:	e7e3      	b.n	10000b02 <alarm_pool_alarm_callback+0x192>
10000b3a:	4296      	cmp	r6, r2
10000b3c:	d9e1      	bls.n	10000b02 <alarm_pool_alarm_callback+0x192>
10000b3e:	2201      	movs	r2, #1
10000b40:	4252      	negs	r2, r2
10000b42:	17d3      	asrs	r3, r2, #31
10000b44:	e7dd      	b.n	10000b02 <alarm_pool_alarm_callback+0x192>
10000b46:	46c0      	nop			; (mov r8, r8)
10000b48:	20000b08 	.word	0x20000b08
10000b4c:	0fffffff 	.word	0x0fffffff

10000b50 <alarm_pool_init_default>:
10000b50:	b570      	push	{r4, r5, r6, lr}
10000b52:	4c18      	ldr	r4, [pc, #96]	; (10000bb4 <alarm_pool_init_default+0x64>)
10000b54:	6823      	ldr	r3, [r4, #0]
10000b56:	2b00      	cmp	r3, #0
10000b58:	d000      	beq.n	10000b5c <alarm_pool_init_default+0xc>
10000b5a:	bd70      	pop	{r4, r5, r6, pc}
10000b5c:	2003      	movs	r0, #3
10000b5e:	f000 f88f 	bl	10000c80 <hardware_alarm_claim>
10000b62:	2003      	movs	r0, #3
10000b64:	f000 f94a 	bl	10000dfc <hardware_alarm_cancel>
10000b68:	4913      	ldr	r1, [pc, #76]	; (10000bb8 <alarm_pool_init_default+0x68>)
10000b6a:	2003      	movs	r0, #3
10000b6c:	f000 f89e 	bl	10000cac <hardware_alarm_set_callback>
10000b70:	2018      	movs	r0, #24
10000b72:	f003 fa0d 	bl	10003f90 <__wrap_malloc>
10000b76:	0005      	movs	r5, r0
10000b78:	f7ff fdca 	bl	10000710 <next_striped_spin_lock_num>
10000b7c:	4b0f      	ldr	r3, [pc, #60]	; (10000bbc <alarm_pool_init_default+0x6c>)
10000b7e:	002a      	movs	r2, r5
10000b80:	469c      	mov	ip, r3
10000b82:	4460      	add	r0, ip
10000b84:	0080      	lsls	r0, r0, #2
10000b86:	490e      	ldr	r1, [pc, #56]	; (10000bc0 <alarm_pool_init_default+0x70>)
10000b88:	6068      	str	r0, [r5, #4]
10000b8a:	2010      	movs	r0, #16
10000b8c:	f000 f99e 	bl	10000ecc <ph_create>
10000b90:	2110      	movs	r1, #16
10000b92:	6028      	str	r0, [r5, #0]
10000b94:	2010      	movs	r0, #16
10000b96:	f003 f9ff 	bl	10003f98 <__wrap_calloc>
10000b9a:	2101      	movs	r1, #1
10000b9c:	60a8      	str	r0, [r5, #8]
10000b9e:	2010      	movs	r0, #16
10000ba0:	f003 f9fa 	bl	10003f98 <__wrap_calloc>
10000ba4:	2303      	movs	r3, #3
10000ba6:	752b      	strb	r3, [r5, #20]
10000ba8:	4b06      	ldr	r3, [pc, #24]	; (10000bc4 <alarm_pool_init_default+0x74>)
10000baa:	60e8      	str	r0, [r5, #12]
10000bac:	60dd      	str	r5, [r3, #12]
10000bae:	6025      	str	r5, [r4, #0]
10000bb0:	e7d3      	b.n	10000b5a <alarm_pool_init_default+0xa>
10000bb2:	46c0      	nop			; (mov r8, r8)
10000bb4:	20000af4 	.word	0x20000af4
10000bb8:	10000971 	.word	0x10000971
10000bbc:	34000040 	.word	0x34000040
10000bc0:	10000811 	.word	0x10000811
10000bc4:	20000b08 	.word	0x20000b08

10000bc8 <hardware_alarm_irq_handler>:
10000bc8:	b5f0      	push	{r4, r5, r6, r7, lr}
10000bca:	46d6      	mov	lr, sl
10000bcc:	464f      	mov	r7, r9
10000bce:	4646      	mov	r6, r8
10000bd0:	b5c0      	push	{r6, r7, lr}
10000bd2:	f3ef 8305 	mrs	r3, IPSR
10000bd6:	223f      	movs	r2, #63	; 0x3f
10000bd8:	4013      	ands	r3, r2
10000bda:	0018      	movs	r0, r3
10000bdc:	3810      	subs	r0, #16
10000bde:	f3ef 8c10 	mrs	ip, PRIMASK
10000be2:	b672      	cpsid	i
10000be4:	4d20      	ldr	r5, [pc, #128]	; (10000c68 <hardware_alarm_irq_handler+0xa0>)
10000be6:	682a      	ldr	r2, [r5, #0]
10000be8:	2a00      	cmp	r2, #0
10000bea:	d0fc      	beq.n	10000be6 <hardware_alarm_irq_handler+0x1e>
10000bec:	f3bf 8f5f 	dmb	sy
10000bf0:	2201      	movs	r2, #1
10000bf2:	0011      	movs	r1, r2
10000bf4:	4081      	lsls	r1, r0
10000bf6:	4c1d      	ldr	r4, [pc, #116]	; (10000c6c <hardware_alarm_irq_handler+0xa4>)
10000bf8:	4688      	mov	r8, r1
10000bfa:	6361      	str	r1, [r4, #52]	; 0x34
10000bfc:	491c      	ldr	r1, [pc, #112]	; (10000c70 <hardware_alarm_irq_handler+0xa8>)
10000bfe:	0017      	movs	r7, r2
10000c00:	780e      	ldrb	r6, [r1, #0]
10000c02:	468a      	mov	sl, r1
10000c04:	0031      	movs	r1, r6
10000c06:	40c1      	lsrs	r1, r0
10000c08:	400f      	ands	r7, r1
10000c0a:	420a      	tst	r2, r1
10000c0c:	d015      	beq.n	10000c3a <hardware_alarm_irq_handler+0x72>
10000c0e:	4919      	ldr	r1, [pc, #100]	; (10000c74 <hardware_alarm_irq_handler+0xac>)
10000c10:	0082      	lsls	r2, r0, #2
10000c12:	6a64      	ldr	r4, [r4, #36]	; 0x24
10000c14:	5851      	ldr	r1, [r2, r1]
10000c16:	428c      	cmp	r4, r1
10000c18:	d319      	bcc.n	10000c4e <hardware_alarm_irq_handler+0x86>
10000c1a:	4b17      	ldr	r3, [pc, #92]	; (10000c78 <hardware_alarm_irq_handler+0xb0>)
10000c1c:	58d2      	ldr	r2, [r2, r3]
10000c1e:	4643      	mov	r3, r8
10000c20:	439e      	bics	r6, r3
10000c22:	4653      	mov	r3, sl
10000c24:	701e      	strb	r6, [r3, #0]
10000c26:	f3bf 8f5f 	dmb	sy
10000c2a:	2300      	movs	r3, #0
10000c2c:	602b      	str	r3, [r5, #0]
10000c2e:	f38c 8810 	msr	PRIMASK, ip
10000c32:	2a00      	cmp	r2, #0
10000c34:	d006      	beq.n	10000c44 <hardware_alarm_irq_handler+0x7c>
10000c36:	4790      	blx	r2
10000c38:	e004      	b.n	10000c44 <hardware_alarm_irq_handler+0x7c>
10000c3a:	f3bf 8f5f 	dmb	sy
10000c3e:	602f      	str	r7, [r5, #0]
10000c40:	f38c 8810 	msr	PRIMASK, ip
10000c44:	bc1c      	pop	{r2, r3, r4}
10000c46:	4690      	mov	r8, r2
10000c48:	4699      	mov	r9, r3
10000c4a:	46a2      	mov	sl, r4
10000c4c:	bdf0      	pop	{r4, r5, r6, r7, pc}
10000c4e:	4a0b      	ldr	r2, [pc, #44]	; (10000c7c <hardware_alarm_irq_handler+0xb4>)
10000c50:	009b      	lsls	r3, r3, #2
10000c52:	4690      	mov	r8, r2
10000c54:	4443      	add	r3, r8
10000c56:	681a      	ldr	r2, [r3, #0]
10000c58:	601a      	str	r2, [r3, #0]
10000c5a:	f3bf 8f5f 	dmb	sy
10000c5e:	2300      	movs	r3, #0
10000c60:	602b      	str	r3, [r5, #0]
10000c62:	f38c 8810 	msr	PRIMASK, ip
10000c66:	e7ed      	b.n	10000c44 <hardware_alarm_irq_handler+0x7c>
10000c68:	d0000128 	.word	0xd0000128
10000c6c:	40054000 	.word	0x40054000
10000c70:	20000b2a 	.word	0x20000b2a
10000c74:	20000b18 	.word	0x20000b18
10000c78:	20000abc 	.word	0x20000abc
10000c7c:	40053fd0 	.word	0x40053fd0

10000c80 <hardware_alarm_claim>:
10000c80:	b510      	push	{r4, lr}
10000c82:	0001      	movs	r1, r0
10000c84:	4a02      	ldr	r2, [pc, #8]	; (10000c90 <hardware_alarm_claim+0x10>)
10000c86:	4803      	ldr	r0, [pc, #12]	; (10000c94 <hardware_alarm_claim+0x14>)
10000c88:	f7ff fd04 	bl	10000694 <hw_claim_or_assert>
10000c8c:	bd10      	pop	{r4, pc}
10000c8e:	46c0      	nop			; (mov r8, r8)
10000c90:	100059d0 	.word	0x100059d0
10000c94:	20000b28 	.word	0x20000b28

10000c98 <time_us_64>:
10000c98:	4b03      	ldr	r3, [pc, #12]	; (10000ca8 <time_us_64+0x10>)
10000c9a:	6a59      	ldr	r1, [r3, #36]	; 0x24
10000c9c:	000a      	movs	r2, r1
10000c9e:	6a98      	ldr	r0, [r3, #40]	; 0x28
10000ca0:	6a59      	ldr	r1, [r3, #36]	; 0x24
10000ca2:	428a      	cmp	r2, r1
10000ca4:	d1fa      	bne.n	10000c9c <time_us_64+0x4>
10000ca6:	4770      	bx	lr
10000ca8:	40054000 	.word	0x40054000

10000cac <hardware_alarm_set_callback>:
10000cac:	b570      	push	{r4, r5, r6, lr}
10000cae:	0004      	movs	r4, r0
10000cb0:	000d      	movs	r5, r1
10000cb2:	f3ef 8610 	mrs	r6, PRIMASK
10000cb6:	b672      	cpsid	i
10000cb8:	4a1a      	ldr	r2, [pc, #104]	; (10000d24 <hardware_alarm_set_callback+0x78>)
10000cba:	6813      	ldr	r3, [r2, #0]
10000cbc:	2b00      	cmp	r3, #0
10000cbe:	d0fc      	beq.n	10000cba <hardware_alarm_set_callback+0xe>
10000cc0:	f3bf 8f5f 	dmb	sy
10000cc4:	2d00      	cmp	r5, #0
10000cc6:	d01b      	beq.n	10000d00 <hardware_alarm_set_callback+0x54>
10000cc8:	0020      	movs	r0, r4
10000cca:	f000 fd4f 	bl	1000176c <irq_get_vtable_handler>
10000cce:	4916      	ldr	r1, [pc, #88]	; (10000d28 <hardware_alarm_set_callback+0x7c>)
10000cd0:	4281      	cmp	r1, r0
10000cd2:	d00a      	beq.n	10000cea <hardware_alarm_set_callback+0x3e>
10000cd4:	0020      	movs	r0, r4
10000cd6:	f000 fd51 	bl	1000177c <irq_set_exclusive_handler>
10000cda:	2101      	movs	r1, #1
10000cdc:	0020      	movs	r0, r4
10000cde:	f000 fd33 	bl	10001748 <irq_set_enabled>
10000ce2:	2301      	movs	r3, #1
10000ce4:	40a3      	lsls	r3, r4
10000ce6:	4a11      	ldr	r2, [pc, #68]	; (10000d2c <hardware_alarm_set_callback+0x80>)
10000ce8:	6013      	str	r3, [r2, #0]
10000cea:	4b11      	ldr	r3, [pc, #68]	; (10000d30 <hardware_alarm_set_callback+0x84>)
10000cec:	00a4      	lsls	r4, r4, #2
10000cee:	50e5      	str	r5, [r4, r3]
10000cf0:	f3bf 8f5f 	dmb	sy
10000cf4:	2200      	movs	r2, #0
10000cf6:	4b0b      	ldr	r3, [pc, #44]	; (10000d24 <hardware_alarm_set_callback+0x78>)
10000cf8:	601a      	str	r2, [r3, #0]
10000cfa:	f386 8810 	msr	PRIMASK, r6
10000cfe:	bd70      	pop	{r4, r5, r6, pc}
10000d00:	4b0b      	ldr	r3, [pc, #44]	; (10000d30 <hardware_alarm_set_callback+0x84>)
10000d02:	00a2      	lsls	r2, r4, #2
10000d04:	50d5      	str	r5, [r2, r3]
10000d06:	2201      	movs	r2, #1
10000d08:	40a2      	lsls	r2, r4
10000d0a:	490a      	ldr	r1, [pc, #40]	; (10000d34 <hardware_alarm_set_callback+0x88>)
10000d0c:	0020      	movs	r0, r4
10000d0e:	780b      	ldrb	r3, [r1, #0]
10000d10:	4393      	bics	r3, r2
10000d12:	700b      	strb	r3, [r1, #0]
10000d14:	4904      	ldr	r1, [pc, #16]	; (10000d28 <hardware_alarm_set_callback+0x7c>)
10000d16:	f000 fd5b 	bl	100017d0 <irq_remove_handler>
10000d1a:	2100      	movs	r1, #0
10000d1c:	0020      	movs	r0, r4
10000d1e:	f000 fd13 	bl	10001748 <irq_set_enabled>
10000d22:	e7e5      	b.n	10000cf0 <hardware_alarm_set_callback+0x44>
10000d24:	d0000128 	.word	0xd0000128
10000d28:	10000bc9 	.word	0x10000bc9
10000d2c:	40056038 	.word	0x40056038
10000d30:	20000abc 	.word	0x20000abc
10000d34:	20000b2a 	.word	0x20000b2a

10000d38 <hardware_alarm_set_target>:
10000d38:	b5f0      	push	{r4, r5, r6, r7, lr}
10000d3a:	46ce      	mov	lr, r9
10000d3c:	4647      	mov	r7, r8
10000d3e:	b580      	push	{r7, lr}
10000d40:	4c2a      	ldr	r4, [pc, #168]	; (10000dec <hardware_alarm_set_target+0xb4>)
10000d42:	6a61      	ldr	r1, [r4, #36]	; 0x24
10000d44:	000d      	movs	r5, r1
10000d46:	6aa6      	ldr	r6, [r4, #40]	; 0x28
10000d48:	6a61      	ldr	r1, [r4, #36]	; 0x24
10000d4a:	42a9      	cmp	r1, r5
10000d4c:	d1fa      	bne.n	10000d44 <hardware_alarm_set_target+0xc>
10000d4e:	428b      	cmp	r3, r1
10000d50:	d807      	bhi.n	10000d62 <hardware_alarm_set_target+0x2a>
10000d52:	d004      	beq.n	10000d5e <hardware_alarm_set_target+0x26>
10000d54:	2001      	movs	r0, #1
10000d56:	bc0c      	pop	{r2, r3}
10000d58:	4690      	mov	r8, r2
10000d5a:	4699      	mov	r9, r3
10000d5c:	bdf0      	pop	{r4, r5, r6, r7, pc}
10000d5e:	42b2      	cmp	r2, r6
10000d60:	d9f8      	bls.n	10000d54 <hardware_alarm_set_target+0x1c>
10000d62:	f3ef 8810 	mrs	r8, PRIMASK
10000d66:	b672      	cpsid	i
10000d68:	4c21      	ldr	r4, [pc, #132]	; (10000df0 <hardware_alarm_set_target+0xb8>)
10000d6a:	6821      	ldr	r1, [r4, #0]
10000d6c:	2900      	cmp	r1, #0
10000d6e:	d0fc      	beq.n	10000d6a <hardware_alarm_set_target+0x32>
10000d70:	f3bf 8f5f 	dmb	sy
10000d74:	2501      	movs	r5, #1
10000d76:	4085      	lsls	r5, r0
10000d78:	4c1c      	ldr	r4, [pc, #112]	; (10000dec <hardware_alarm_set_target+0xb4>)
10000d7a:	4e1e      	ldr	r6, [pc, #120]	; (10000df4 <hardware_alarm_set_target+0xbc>)
10000d7c:	6365      	str	r5, [r4, #52]	; 0x34
10000d7e:	b2e9      	uxtb	r1, r5
10000d80:	468c      	mov	ip, r1
10000d82:	7831      	ldrb	r1, [r6, #0]
10000d84:	4689      	mov	r9, r1
10000d86:	4661      	mov	r1, ip
10000d88:	464f      	mov	r7, r9
10000d8a:	4339      	orrs	r1, r7
10000d8c:	7031      	strb	r1, [r6, #0]
10000d8e:	1d01      	adds	r1, r0, #4
10000d90:	0089      	lsls	r1, r1, #2
10000d92:	510a      	str	r2, [r1, r4]
10000d94:	4918      	ldr	r1, [pc, #96]	; (10000df8 <hardware_alarm_set_target+0xc0>)
10000d96:	0080      	lsls	r0, r0, #2
10000d98:	5043      	str	r3, [r0, r1]
10000d9a:	6a21      	ldr	r1, [r4, #32]
10000d9c:	2000      	movs	r0, #0
10000d9e:	4229      	tst	r1, r5
10000da0:	d00c      	beq.n	10000dbc <hardware_alarm_set_target+0x84>
10000da2:	0020      	movs	r0, r4
10000da4:	6a61      	ldr	r1, [r4, #36]	; 0x24
10000da6:	000c      	movs	r4, r1
10000da8:	6a87      	ldr	r7, [r0, #40]	; 0x28
10000daa:	6a41      	ldr	r1, [r0, #36]	; 0x24
10000dac:	42a1      	cmp	r1, r4
10000dae:	d1fa      	bne.n	10000da6 <hardware_alarm_set_target+0x6e>
10000db0:	428b      	cmp	r3, r1
10000db2:	d802      	bhi.n	10000dba <hardware_alarm_set_target+0x82>
10000db4:	d10a      	bne.n	10000dcc <hardware_alarm_set_target+0x94>
10000db6:	42ba      	cmp	r2, r7
10000db8:	d908      	bls.n	10000dcc <hardware_alarm_set_target+0x94>
10000dba:	2000      	movs	r0, #0
10000dbc:	f3bf 8f5f 	dmb	sy
10000dc0:	2200      	movs	r2, #0
10000dc2:	4b0b      	ldr	r3, [pc, #44]	; (10000df0 <hardware_alarm_set_target+0xb8>)
10000dc4:	601a      	str	r2, [r3, #0]
10000dc6:	f388 8810 	msr	PRIMASK, r8
10000dca:	e7c4      	b.n	10000d56 <hardware_alarm_set_target+0x1e>
10000dcc:	4b07      	ldr	r3, [pc, #28]	; (10000dec <hardware_alarm_set_target+0xb4>)
10000dce:	464f      	mov	r7, r9
10000dd0:	621d      	str	r5, [r3, #32]
10000dd2:	635d      	str	r5, [r3, #52]	; 0x34
10000dd4:	4663      	mov	r3, ip
10000dd6:	439f      	bics	r7, r3
10000dd8:	2001      	movs	r0, #1
10000dda:	7037      	strb	r7, [r6, #0]
10000ddc:	f3bf 8f5f 	dmb	sy
10000de0:	2200      	movs	r2, #0
10000de2:	4b03      	ldr	r3, [pc, #12]	; (10000df0 <hardware_alarm_set_target+0xb8>)
10000de4:	601a      	str	r2, [r3, #0]
10000de6:	f388 8810 	msr	PRIMASK, r8
10000dea:	e7b4      	b.n	10000d56 <hardware_alarm_set_target+0x1e>
10000dec:	40054000 	.word	0x40054000
10000df0:	d0000128 	.word	0xd0000128
10000df4:	20000b2a 	.word	0x20000b2a
10000df8:	20000b18 	.word	0x20000b18

10000dfc <hardware_alarm_cancel>:
10000dfc:	b510      	push	{r4, lr}
10000dfe:	f3ef 8410 	mrs	r4, PRIMASK
10000e02:	b672      	cpsid	i
10000e04:	490a      	ldr	r1, [pc, #40]	; (10000e30 <hardware_alarm_cancel+0x34>)
10000e06:	680b      	ldr	r3, [r1, #0]
10000e08:	2b00      	cmp	r3, #0
10000e0a:	d0fc      	beq.n	10000e06 <hardware_alarm_cancel+0xa>
10000e0c:	f3bf 8f5f 	dmb	sy
10000e10:	2301      	movs	r3, #1
10000e12:	4083      	lsls	r3, r0
10000e14:	4a07      	ldr	r2, [pc, #28]	; (10000e34 <hardware_alarm_cancel+0x38>)
10000e16:	4808      	ldr	r0, [pc, #32]	; (10000e38 <hardware_alarm_cancel+0x3c>)
10000e18:	6213      	str	r3, [r2, #32]
10000e1a:	7802      	ldrb	r2, [r0, #0]
10000e1c:	439a      	bics	r2, r3
10000e1e:	7002      	strb	r2, [r0, #0]
10000e20:	f3bf 8f5f 	dmb	sy
10000e24:	2300      	movs	r3, #0
10000e26:	600b      	str	r3, [r1, #0]
10000e28:	f384 8810 	msr	PRIMASK, r4
10000e2c:	bd10      	pop	{r4, pc}
10000e2e:	46c0      	nop			; (mov r8, r8)
10000e30:	d0000128 	.word	0xd0000128
10000e34:	40054000 	.word	0x40054000
10000e38:	20000b2a 	.word	0x20000b2a

10000e3c <lock_init>:
10000e3c:	4b02      	ldr	r3, [pc, #8]	; (10000e48 <lock_init+0xc>)
10000e3e:	469c      	mov	ip, r3
10000e40:	4461      	add	r1, ip
10000e42:	0089      	lsls	r1, r1, #2
10000e44:	6001      	str	r1, [r0, #0]
10000e46:	4770      	bx	lr
10000e48:	34000040 	.word	0x34000040

10000e4c <mutex_init>:
10000e4c:	b510      	push	{r4, lr}
10000e4e:	0004      	movs	r4, r0
10000e50:	f7ff fc5e 	bl	10000710 <next_striped_spin_lock_num>
10000e54:	0001      	movs	r1, r0
10000e56:	0020      	movs	r0, r4
10000e58:	f7ff fff0 	bl	10000e3c <lock_init>
10000e5c:	f3bf 8f5f 	dmb	sy
10000e60:	bd10      	pop	{r4, pc}
10000e62:	46c0      	nop			; (mov r8, r8)

10000e64 <ph_merge_nodes>:
10000e64:	b570      	push	{r4, r5, r6, lr}
10000e66:	0005      	movs	r5, r0
10000e68:	000e      	movs	r6, r1
10000e6a:	0014      	movs	r4, r2
10000e6c:	2900      	cmp	r1, #0
10000e6e:	d024      	beq.n	10000eba <ph_merge_nodes+0x56>
10000e70:	2a00      	cmp	r2, #0
10000e72:	d024      	beq.n	10000ebe <ph_merge_nodes+0x5a>
10000e74:	6880      	ldr	r0, [r0, #8]
10000e76:	686b      	ldr	r3, [r5, #4]
10000e78:	4798      	blx	r3
10000e7a:	6829      	ldr	r1, [r5, #0]
10000e7c:	2800      	cmp	r0, #0
10000e7e:	d00e      	beq.n	10000e9e <ph_merge_nodes+0x3a>
10000e80:	0063      	lsls	r3, r4, #1
10000e82:	191b      	adds	r3, r3, r4
10000e84:	0072      	lsls	r2, r6, #1
10000e86:	3b03      	subs	r3, #3
10000e88:	1992      	adds	r2, r2, r6
10000e8a:	18cb      	adds	r3, r1, r3
10000e8c:	3a03      	subs	r2, #3
10000e8e:	709e      	strb	r6, [r3, #2]
10000e90:	1888      	adds	r0, r1, r2
10000e92:	5c8a      	ldrb	r2, [r1, r2]
10000e94:	2a00      	cmp	r2, #0
10000e96:	d114      	bne.n	10000ec2 <ph_merge_nodes+0x5e>
10000e98:	7004      	strb	r4, [r0, #0]
10000e9a:	0030      	movs	r0, r6
10000e9c:	e00e      	b.n	10000ebc <ph_merge_nodes+0x58>
10000e9e:	0073      	lsls	r3, r6, #1
10000ea0:	199b      	adds	r3, r3, r6
10000ea2:	0062      	lsls	r2, r4, #1
10000ea4:	3b03      	subs	r3, #3
10000ea6:	1912      	adds	r2, r2, r4
10000ea8:	18cb      	adds	r3, r1, r3
10000eaa:	3a03      	subs	r2, #3
10000eac:	709c      	strb	r4, [r3, #2]
10000eae:	1888      	adds	r0, r1, r2
10000eb0:	5c8a      	ldrb	r2, [r1, r2]
10000eb2:	2a00      	cmp	r2, #0
10000eb4:	d000      	beq.n	10000eb8 <ph_merge_nodes+0x54>
10000eb6:	705a      	strb	r2, [r3, #1]
10000eb8:	7006      	strb	r6, [r0, #0]
10000eba:	0020      	movs	r0, r4
10000ebc:	bd70      	pop	{r4, r5, r6, pc}
10000ebe:	0008      	movs	r0, r1
10000ec0:	e7fc      	b.n	10000ebc <ph_merge_nodes+0x58>
10000ec2:	705a      	strb	r2, [r3, #1]
10000ec4:	7004      	strb	r4, [r0, #0]
10000ec6:	0030      	movs	r0, r6
10000ec8:	e7f8      	b.n	10000ebc <ph_merge_nodes+0x58>
10000eca:	46c0      	nop			; (mov r8, r8)

10000ecc <ph_create>:
10000ecc:	b5f0      	push	{r4, r5, r6, r7, lr}
10000ece:	46c6      	mov	lr, r8
10000ed0:	0005      	movs	r5, r0
10000ed2:	000f      	movs	r7, r1
10000ed4:	b500      	push	{lr}
10000ed6:	2110      	movs	r1, #16
10000ed8:	2001      	movs	r0, #1
10000eda:	0016      	movs	r6, r2
10000edc:	f003 f85c 	bl	10003f98 <__wrap_calloc>
10000ee0:	b2eb      	uxtb	r3, r5
10000ee2:	0004      	movs	r4, r0
10000ee4:	7303      	strb	r3, [r0, #12]
10000ee6:	2103      	movs	r1, #3
10000ee8:	6047      	str	r7, [r0, #4]
10000eea:	0028      	movs	r0, r5
10000eec:	4698      	mov	r8, r3
10000eee:	f003 f853 	bl	10003f98 <__wrap_calloc>
10000ef2:	2300      	movs	r3, #0
10000ef4:	7363      	strb	r3, [r4, #13]
10000ef6:	3301      	adds	r3, #1
10000ef8:	73a3      	strb	r3, [r4, #14]
10000efa:	4643      	mov	r3, r8
10000efc:	21ff      	movs	r1, #255	; 0xff
10000efe:	73e3      	strb	r3, [r4, #15]
10000f00:	23fe      	movs	r3, #254	; 0xfe
10000f02:	6020      	str	r0, [r4, #0]
10000f04:	60a6      	str	r6, [r4, #8]
10000f06:	4029      	ands	r1, r5
10000f08:	422b      	tst	r3, r5
10000f0a:	d006      	beq.n	10000f1a <ph_create+0x4e>
10000f0c:	1c42      	adds	r2, r0, #1
10000f0e:	3bfd      	subs	r3, #253	; 0xfd
10000f10:	3301      	adds	r3, #1
10000f12:	7013      	strb	r3, [r2, #0]
10000f14:	3203      	adds	r2, #3
10000f16:	428b      	cmp	r3, r1
10000f18:	d3fa      	bcc.n	10000f10 <ph_create+0x44>
10000f1a:	004b      	lsls	r3, r1, #1
10000f1c:	1859      	adds	r1, r3, r1
10000f1e:	2300      	movs	r3, #0
10000f20:	1840      	adds	r0, r0, r1
10000f22:	3803      	subs	r0, #3
10000f24:	7043      	strb	r3, [r0, #1]
10000f26:	0020      	movs	r0, r4
10000f28:	bc04      	pop	{r2}
10000f2a:	4690      	mov	r8, r2
10000f2c:	bdf0      	pop	{r4, r5, r6, r7, pc}
10000f2e:	46c0      	nop			; (mov r8, r8)

10000f30 <ph_merge_two_pass>:
10000f30:	b5f8      	push	{r3, r4, r5, r6, r7, lr}
10000f32:	46ce      	mov	lr, r9
10000f34:	4647      	mov	r7, r8
10000f36:	0006      	movs	r6, r0
10000f38:	000c      	movs	r4, r1
10000f3a:	b580      	push	{r7, lr}
10000f3c:	2900      	cmp	r1, #0
10000f3e:	d007      	beq.n	10000f50 <ph_merge_two_pass+0x20>
10000f40:	004d      	lsls	r5, r1, #1
10000f42:	6803      	ldr	r3, [r0, #0]
10000f44:	186d      	adds	r5, r5, r1
10000f46:	3d03      	subs	r5, #3
10000f48:	195a      	adds	r2, r3, r5
10000f4a:	7857      	ldrb	r7, [r2, #1]
10000f4c:	2f00      	cmp	r7, #0
10000f4e:	d104      	bne.n	10000f5a <ph_merge_two_pass+0x2a>
10000f50:	0020      	movs	r0, r4
10000f52:	bc0c      	pop	{r2, r3}
10000f54:	4690      	mov	r8, r2
10000f56:	4699      	mov	r9, r3
10000f58:	bdf8      	pop	{r3, r4, r5, r6, r7, pc}
10000f5a:	0079      	lsls	r1, r7, #1
10000f5c:	19c9      	adds	r1, r1, r7
10000f5e:	3903      	subs	r1, #3
10000f60:	4688      	mov	r8, r1
10000f62:	4443      	add	r3, r8
10000f64:	7859      	ldrb	r1, [r3, #1]
10000f66:	4689      	mov	r9, r1
10000f68:	2100      	movs	r1, #0
10000f6a:	7059      	strb	r1, [r3, #1]
10000f6c:	7051      	strb	r1, [r2, #1]
10000f6e:	6873      	ldr	r3, [r6, #4]
10000f70:	003a      	movs	r2, r7
10000f72:	0021      	movs	r1, r4
10000f74:	6880      	ldr	r0, [r0, #8]
10000f76:	4798      	blx	r3
10000f78:	6833      	ldr	r3, [r6, #0]
10000f7a:	2800      	cmp	r0, #0
10000f7c:	d014      	beq.n	10000fa8 <ph_merge_two_pass+0x78>
10000f7e:	4642      	mov	r2, r8
10000f80:	189a      	adds	r2, r3, r2
10000f82:	7094      	strb	r4, [r2, #2]
10000f84:	1959      	adds	r1, r3, r5
10000f86:	5d5b      	ldrb	r3, [r3, r5]
10000f88:	2b00      	cmp	r3, #0
10000f8a:	d000      	beq.n	10000f8e <ph_merge_two_pass+0x5e>
10000f8c:	7053      	strb	r3, [r2, #1]
10000f8e:	700f      	strb	r7, [r1, #0]
10000f90:	0027      	movs	r7, r4
10000f92:	4649      	mov	r1, r9
10000f94:	0030      	movs	r0, r6
10000f96:	f7ff ffcb 	bl	10000f30 <ph_merge_two_pass>
10000f9a:	0039      	movs	r1, r7
10000f9c:	0002      	movs	r2, r0
10000f9e:	0030      	movs	r0, r6
10000fa0:	f7ff ff60 	bl	10000e64 <ph_merge_nodes>
10000fa4:	0004      	movs	r4, r0
10000fa6:	e7d3      	b.n	10000f50 <ph_merge_two_pass+0x20>
10000fa8:	4642      	mov	r2, r8
10000faa:	4641      	mov	r1, r8
10000fac:	195d      	adds	r5, r3, r5
10000fae:	70af      	strb	r7, [r5, #2]
10000fb0:	189a      	adds	r2, r3, r2
10000fb2:	5c5b      	ldrb	r3, [r3, r1]
10000fb4:	2b00      	cmp	r3, #0
10000fb6:	d000      	beq.n	10000fba <ph_merge_two_pass+0x8a>
10000fb8:	706b      	strb	r3, [r5, #1]
10000fba:	7014      	strb	r4, [r2, #0]
10000fbc:	e7e9      	b.n	10000f92 <ph_merge_two_pass+0x62>
10000fbe:	46c0      	nop			; (mov r8, r8)

10000fc0 <ph_remove_any_head>:
10000fc0:	b5f0      	push	{r4, r5, r6, r7, lr}
10000fc2:	4657      	mov	r7, sl
10000fc4:	4645      	mov	r5, r8
10000fc6:	46de      	mov	lr, fp
10000fc8:	464e      	mov	r6, r9
10000fca:	b5e0      	push	{r5, r6, r7, lr}
10000fcc:	000d      	movs	r5, r1
10000fce:	006b      	lsls	r3, r5, #1
10000fd0:	6801      	ldr	r1, [r0, #0]
10000fd2:	195b      	adds	r3, r3, r5
10000fd4:	1edf      	subs	r7, r3, #3
10000fd6:	0004      	movs	r4, r0
10000fd8:	5dc8      	ldrb	r0, [r1, r7]
10000fda:	b083      	sub	sp, #12
10000fdc:	9201      	str	r2, [sp, #4]
10000fde:	19ca      	adds	r2, r1, r7
10000fe0:	2800      	cmp	r0, #0
10000fe2:	d04c      	beq.n	1000107e <ph_remove_any_head+0xbe>
10000fe4:	0043      	lsls	r3, r0, #1
10000fe6:	181b      	adds	r3, r3, r0
10000fe8:	3b03      	subs	r3, #3
10000fea:	18cb      	adds	r3, r1, r3
10000fec:	785e      	ldrb	r6, [r3, #1]
10000fee:	46b4      	mov	ip, r6
10000ff0:	2e00      	cmp	r6, #0
10000ff2:	d116      	bne.n	10001022 <ph_remove_any_head+0x62>
10000ff4:	9e01      	ldr	r6, [sp, #4]
10000ff6:	2e00      	cmp	r6, #0
10000ff8:	d13e      	bne.n	10001078 <ph_remove_any_head+0xb8>
10000ffa:	7be6      	ldrb	r6, [r4, #15]
10000ffc:	2e00      	cmp	r6, #0
10000ffe:	d004      	beq.n	1000100a <ph_remove_any_head+0x4a>
10001000:	0073      	lsls	r3, r6, #1
10001002:	199b      	adds	r3, r3, r6
10001004:	18cb      	adds	r3, r1, r3
10001006:	3b03      	subs	r3, #3
10001008:	705d      	strb	r5, [r3, #1]
1000100a:	73e5      	strb	r5, [r4, #15]
1000100c:	2800      	cmp	r0, #0
1000100e:	d12f      	bne.n	10001070 <ph_remove_any_head+0xb0>
10001010:	2300      	movs	r3, #0
10001012:	7053      	strb	r3, [r2, #1]
10001014:	b003      	add	sp, #12
10001016:	bc3c      	pop	{r2, r3, r4, r5}
10001018:	4690      	mov	r8, r2
1000101a:	4699      	mov	r9, r3
1000101c:	46a2      	mov	sl, r4
1000101e:	46ab      	mov	fp, r5
10001020:	bdf0      	pop	{r4, r5, r6, r7, pc}
10001022:	0072      	lsls	r2, r6, #1
10001024:	4462      	add	r2, ip
10001026:	3a03      	subs	r2, #3
10001028:	1889      	adds	r1, r1, r2
1000102a:	784a      	ldrb	r2, [r1, #1]
1000102c:	4690      	mov	r8, r2
1000102e:	2200      	movs	r2, #0
10001030:	704a      	strb	r2, [r1, #1]
10001032:	4691      	mov	r9, r2
10001034:	705a      	strb	r2, [r3, #1]
10001036:	0001      	movs	r1, r0
10001038:	0032      	movs	r2, r6
1000103a:	0020      	movs	r0, r4
1000103c:	f7ff ff12 	bl	10000e64 <ph_merge_nodes>
10001040:	4643      	mov	r3, r8
10001042:	4682      	mov	sl, r0
10001044:	2b00      	cmp	r3, #0
10001046:	d007      	beq.n	10001058 <ph_remove_any_head+0x98>
10001048:	005b      	lsls	r3, r3, #1
1000104a:	6821      	ldr	r1, [r4, #0]
1000104c:	4443      	add	r3, r8
1000104e:	3b03      	subs	r3, #3
10001050:	18cb      	adds	r3, r1, r3
10001052:	785a      	ldrb	r2, [r3, #1]
10001054:	2a00      	cmp	r2, #0
10001056:	d116      	bne.n	10001086 <ph_remove_any_head+0xc6>
10001058:	4642      	mov	r2, r8
1000105a:	4651      	mov	r1, sl
1000105c:	0020      	movs	r0, r4
1000105e:	f7ff ff01 	bl	10000e64 <ph_merge_nodes>
10001062:	6821      	ldr	r1, [r4, #0]
10001064:	9b01      	ldr	r3, [sp, #4]
10001066:	19ca      	adds	r2, r1, r7
10001068:	2b00      	cmp	r3, #0
1000106a:	d0c6      	beq.n	10000ffa <ph_remove_any_head+0x3a>
1000106c:	2800      	cmp	r0, #0
1000106e:	d0cf      	beq.n	10001010 <ph_remove_any_head+0x50>
10001070:	0043      	lsls	r3, r0, #1
10001072:	181b      	adds	r3, r3, r0
10001074:	3b03      	subs	r3, #3
10001076:	18cb      	adds	r3, r1, r3
10001078:	2100      	movs	r1, #0
1000107a:	7099      	strb	r1, [r3, #2]
1000107c:	e7c8      	b.n	10001010 <ph_remove_any_head+0x50>
1000107e:	9b01      	ldr	r3, [sp, #4]
10001080:	2b00      	cmp	r3, #0
10001082:	d1c5      	bne.n	10001010 <ph_remove_any_head+0x50>
10001084:	e7b9      	b.n	10000ffa <ph_remove_any_head+0x3a>
10001086:	0050      	lsls	r0, r2, #1
10001088:	1880      	adds	r0, r0, r2
1000108a:	3803      	subs	r0, #3
1000108c:	1809      	adds	r1, r1, r0
1000108e:	7848      	ldrb	r0, [r1, #1]
10001090:	4683      	mov	fp, r0
10001092:	4648      	mov	r0, r9
10001094:	7048      	strb	r0, [r1, #1]
10001096:	7058      	strb	r0, [r3, #1]
10001098:	4641      	mov	r1, r8
1000109a:	0020      	movs	r0, r4
1000109c:	f7ff fee2 	bl	10000e64 <ph_merge_nodes>
100010a0:	4659      	mov	r1, fp
100010a2:	4680      	mov	r8, r0
100010a4:	0020      	movs	r0, r4
100010a6:	f7ff ff43 	bl	10000f30 <ph_merge_two_pass>
100010aa:	4641      	mov	r1, r8
100010ac:	0002      	movs	r2, r0
100010ae:	0020      	movs	r0, r4
100010b0:	f7ff fed8 	bl	10000e64 <ph_merge_nodes>
100010b4:	4680      	mov	r8, r0
100010b6:	e7cf      	b.n	10001058 <ph_remove_any_head+0x98>

100010b8 <ph_remove_head_reserve>:
100010b8:	b5f0      	push	{r4, r5, r6, r7, lr}
100010ba:	464e      	mov	r6, r9
100010bc:	4645      	mov	r5, r8
100010be:	46de      	mov	lr, fp
100010c0:	4657      	mov	r7, sl
100010c2:	b5e0      	push	{r5, r6, r7, lr}
100010c4:	7b46      	ldrb	r6, [r0, #13]
100010c6:	0004      	movs	r4, r0
100010c8:	0075      	lsls	r5, r6, #1
100010ca:	6800      	ldr	r0, [r0, #0]
100010cc:	19ad      	adds	r5, r5, r6
100010ce:	3d03      	subs	r5, #3
100010d0:	b083      	sub	sp, #12
100010d2:	9101      	str	r1, [sp, #4]
100010d4:	5d41      	ldrb	r1, [r0, r5]
100010d6:	1942      	adds	r2, r0, r5
100010d8:	2900      	cmp	r1, #0
100010da:	d04e      	beq.n	1000117a <ph_remove_head_reserve+0xc2>
100010dc:	004b      	lsls	r3, r1, #1
100010de:	185b      	adds	r3, r3, r1
100010e0:	3b03      	subs	r3, #3
100010e2:	18c3      	adds	r3, r0, r3
100010e4:	785f      	ldrb	r7, [r3, #1]
100010e6:	46bc      	mov	ip, r7
100010e8:	2f00      	cmp	r7, #0
100010ea:	d118      	bne.n	1000111e <ph_remove_head_reserve+0x66>
100010ec:	9d01      	ldr	r5, [sp, #4]
100010ee:	2d00      	cmp	r5, #0
100010f0:	d140      	bne.n	10001174 <ph_remove_head_reserve+0xbc>
100010f2:	7be5      	ldrb	r5, [r4, #15]
100010f4:	2d00      	cmp	r5, #0
100010f6:	d004      	beq.n	10001102 <ph_remove_head_reserve+0x4a>
100010f8:	006b      	lsls	r3, r5, #1
100010fa:	195b      	adds	r3, r3, r5
100010fc:	18c3      	adds	r3, r0, r3
100010fe:	3b03      	subs	r3, #3
10001100:	705e      	strb	r6, [r3, #1]
10001102:	73e6      	strb	r6, [r4, #15]
10001104:	2900      	cmp	r1, #0
10001106:	d131      	bne.n	1000116c <ph_remove_head_reserve+0xb4>
10001108:	2300      	movs	r3, #0
1000110a:	0030      	movs	r0, r6
1000110c:	7053      	strb	r3, [r2, #1]
1000110e:	7361      	strb	r1, [r4, #13]
10001110:	b003      	add	sp, #12
10001112:	bc3c      	pop	{r2, r3, r4, r5}
10001114:	4690      	mov	r8, r2
10001116:	4699      	mov	r9, r3
10001118:	46a2      	mov	sl, r4
1000111a:	46ab      	mov	fp, r5
1000111c:	bdf0      	pop	{r4, r5, r6, r7, pc}
1000111e:	007a      	lsls	r2, r7, #1
10001120:	4462      	add	r2, ip
10001122:	3a03      	subs	r2, #3
10001124:	1880      	adds	r0, r0, r2
10001126:	7842      	ldrb	r2, [r0, #1]
10001128:	4693      	mov	fp, r2
1000112a:	2200      	movs	r2, #0
1000112c:	7042      	strb	r2, [r0, #1]
1000112e:	4691      	mov	r9, r2
10001130:	705a      	strb	r2, [r3, #1]
10001132:	0020      	movs	r0, r4
10001134:	003a      	movs	r2, r7
10001136:	f7ff fe95 	bl	10000e64 <ph_merge_nodes>
1000113a:	465b      	mov	r3, fp
1000113c:	4680      	mov	r8, r0
1000113e:	2b00      	cmp	r3, #0
10001140:	d007      	beq.n	10001152 <ph_remove_head_reserve+0x9a>
10001142:	005b      	lsls	r3, r3, #1
10001144:	6821      	ldr	r1, [r4, #0]
10001146:	445b      	add	r3, fp
10001148:	3b03      	subs	r3, #3
1000114a:	18cb      	adds	r3, r1, r3
1000114c:	785a      	ldrb	r2, [r3, #1]
1000114e:	2a00      	cmp	r2, #0
10001150:	d117      	bne.n	10001182 <ph_remove_head_reserve+0xca>
10001152:	465a      	mov	r2, fp
10001154:	4641      	mov	r1, r8
10001156:	0020      	movs	r0, r4
10001158:	f7ff fe84 	bl	10000e64 <ph_merge_nodes>
1000115c:	9b01      	ldr	r3, [sp, #4]
1000115e:	0001      	movs	r1, r0
10001160:	6820      	ldr	r0, [r4, #0]
10001162:	1942      	adds	r2, r0, r5
10001164:	2b00      	cmp	r3, #0
10001166:	d0c4      	beq.n	100010f2 <ph_remove_head_reserve+0x3a>
10001168:	2900      	cmp	r1, #0
1000116a:	d0cd      	beq.n	10001108 <ph_remove_head_reserve+0x50>
1000116c:	004b      	lsls	r3, r1, #1
1000116e:	185b      	adds	r3, r3, r1
10001170:	3b03      	subs	r3, #3
10001172:	18c3      	adds	r3, r0, r3
10001174:	2000      	movs	r0, #0
10001176:	7098      	strb	r0, [r3, #2]
10001178:	e7c6      	b.n	10001108 <ph_remove_head_reserve+0x50>
1000117a:	9b01      	ldr	r3, [sp, #4]
1000117c:	2b00      	cmp	r3, #0
1000117e:	d1c3      	bne.n	10001108 <ph_remove_head_reserve+0x50>
10001180:	e7b7      	b.n	100010f2 <ph_remove_head_reserve+0x3a>
10001182:	0050      	lsls	r0, r2, #1
10001184:	1880      	adds	r0, r0, r2
10001186:	3803      	subs	r0, #3
10001188:	1809      	adds	r1, r1, r0
1000118a:	7848      	ldrb	r0, [r1, #1]
1000118c:	4682      	mov	sl, r0
1000118e:	4648      	mov	r0, r9
10001190:	7048      	strb	r0, [r1, #1]
10001192:	7058      	strb	r0, [r3, #1]
10001194:	4659      	mov	r1, fp
10001196:	0020      	movs	r0, r4
10001198:	f7ff fe64 	bl	10000e64 <ph_merge_nodes>
1000119c:	4653      	mov	r3, sl
1000119e:	4683      	mov	fp, r0
100011a0:	2b00      	cmp	r3, #0
100011a2:	d007      	beq.n	100011b4 <ph_remove_head_reserve+0xfc>
100011a4:	005b      	lsls	r3, r3, #1
100011a6:	6821      	ldr	r1, [r4, #0]
100011a8:	4453      	add	r3, sl
100011aa:	3b03      	subs	r3, #3
100011ac:	18cb      	adds	r3, r1, r3
100011ae:	785a      	ldrb	r2, [r3, #1]
100011b0:	2a00      	cmp	r2, #0
100011b2:	d106      	bne.n	100011c2 <ph_remove_head_reserve+0x10a>
100011b4:	4659      	mov	r1, fp
100011b6:	4652      	mov	r2, sl
100011b8:	0020      	movs	r0, r4
100011ba:	f7ff fe53 	bl	10000e64 <ph_merge_nodes>
100011be:	4683      	mov	fp, r0
100011c0:	e7c7      	b.n	10001152 <ph_remove_head_reserve+0x9a>
100011c2:	0050      	lsls	r0, r2, #1
100011c4:	1880      	adds	r0, r0, r2
100011c6:	3803      	subs	r0, #3
100011c8:	1809      	adds	r1, r1, r0
100011ca:	4648      	mov	r0, r9
100011cc:	784f      	ldrb	r7, [r1, #1]
100011ce:	7048      	strb	r0, [r1, #1]
100011d0:	7058      	strb	r0, [r3, #1]
100011d2:	4651      	mov	r1, sl
100011d4:	0020      	movs	r0, r4
100011d6:	f7ff fe45 	bl	10000e64 <ph_merge_nodes>
100011da:	0039      	movs	r1, r7
100011dc:	4681      	mov	r9, r0
100011de:	0020      	movs	r0, r4
100011e0:	f7ff fea6 	bl	10000f30 <ph_merge_two_pass>
100011e4:	4649      	mov	r1, r9
100011e6:	0002      	movs	r2, r0
100011e8:	0020      	movs	r0, r4
100011ea:	f7ff fe3b 	bl	10000e64 <ph_merge_nodes>
100011ee:	4682      	mov	sl, r0
100011f0:	e7e0      	b.n	100011b4 <ph_remove_head_reserve+0xfc>
100011f2:	46c0      	nop			; (mov r8, r8)

100011f4 <ph_delete>:
100011f4:	b570      	push	{r4, r5, r6, lr}
100011f6:	0004      	movs	r4, r0
100011f8:	2900      	cmp	r1, #0
100011fa:	d02c      	beq.n	10001256 <ph_delete+0x62>
100011fc:	7b43      	ldrb	r3, [r0, #13]
100011fe:	428b      	cmp	r3, r1
10001200:	d02e      	beq.n	10001260 <ph_delete+0x6c>
10001202:	6805      	ldr	r5, [r0, #0]
10001204:	0048      	lsls	r0, r1, #1
10001206:	1840      	adds	r0, r0, r1
10001208:	3803      	subs	r0, #3
1000120a:	1828      	adds	r0, r5, r0
1000120c:	7882      	ldrb	r2, [r0, #2]
1000120e:	2a00      	cmp	r2, #0
10001210:	d021      	beq.n	10001256 <ph_delete+0x62>
10001212:	0053      	lsls	r3, r2, #1
10001214:	189b      	adds	r3, r3, r2
10001216:	3b03      	subs	r3, #3
10001218:	5cea      	ldrb	r2, [r5, r3]
1000121a:	18ee      	adds	r6, r5, r3
1000121c:	428a      	cmp	r2, r1
1000121e:	d102      	bne.n	10001226 <ph_delete+0x32>
10001220:	e01b      	b.n	1000125a <ph_delete+0x66>
10001222:	2a00      	cmp	r2, #0
10001224:	d008      	beq.n	10001238 <ph_delete+0x44>
10001226:	0053      	lsls	r3, r2, #1
10001228:	189b      	adds	r3, r3, r2
1000122a:	3b03      	subs	r3, #3
1000122c:	18eb      	adds	r3, r5, r3
1000122e:	785a      	ldrb	r2, [r3, #1]
10001230:	428a      	cmp	r2, r1
10001232:	d1f6      	bne.n	10001222 <ph_delete+0x2e>
10001234:	7842      	ldrb	r2, [r0, #1]
10001236:	705a      	strb	r2, [r3, #1]
10001238:	2300      	movs	r3, #0
1000123a:	2200      	movs	r2, #0
1000123c:	7083      	strb	r3, [r0, #2]
1000123e:	7043      	strb	r3, [r0, #1]
10001240:	0020      	movs	r0, r4
10001242:	f7ff febd 	bl	10000fc0 <ph_remove_any_head>
10001246:	7b61      	ldrb	r1, [r4, #13]
10001248:	0002      	movs	r2, r0
1000124a:	0020      	movs	r0, r4
1000124c:	f7ff fe0a 	bl	10000e64 <ph_merge_nodes>
10001250:	7360      	strb	r0, [r4, #13]
10001252:	2001      	movs	r0, #1
10001254:	e000      	b.n	10001258 <ph_delete+0x64>
10001256:	2000      	movs	r0, #0
10001258:	bd70      	pop	{r4, r5, r6, pc}
1000125a:	7843      	ldrb	r3, [r0, #1]
1000125c:	7033      	strb	r3, [r6, #0]
1000125e:	e7eb      	b.n	10001238 <ph_delete+0x44>
10001260:	2200      	movs	r2, #0
10001262:	0019      	movs	r1, r3
10001264:	f7ff feac 	bl	10000fc0 <ph_remove_any_head>
10001268:	7360      	strb	r0, [r4, #13]
1000126a:	2001      	movs	r0, #1
1000126c:	e7f4      	b.n	10001258 <ph_delete+0x64>
1000126e:	46c0      	nop			; (mov r8, r8)

10001270 <runtime_init>:
10001270:	4b2b      	ldr	r3, [pc, #172]	; (10001320 <runtime_init+0xb0>)
10001272:	4a2c      	ldr	r2, [pc, #176]	; (10001324 <runtime_init+0xb4>)
10001274:	b570      	push	{r4, r5, r6, lr}
10001276:	601a      	str	r2, [r3, #0]
10001278:	4a2b      	ldr	r2, [pc, #172]	; (10001328 <runtime_init+0xb8>)
1000127a:	4b2c      	ldr	r3, [pc, #176]	; (1000132c <runtime_init+0xbc>)
1000127c:	492c      	ldr	r1, [pc, #176]	; (10001330 <runtime_init+0xc0>)
1000127e:	601a      	str	r2, [r3, #0]
10001280:	0010      	movs	r0, r2
10001282:	688b      	ldr	r3, [r1, #8]
10001284:	4398      	bics	r0, r3
10001286:	d1fb      	bne.n	10001280 <runtime_init+0x10>
10001288:	4c2a      	ldr	r4, [pc, #168]	; (10001334 <runtime_init+0xc4>)
1000128a:	4b2b      	ldr	r3, [pc, #172]	; (10001338 <runtime_init+0xc8>)
1000128c:	429c      	cmp	r4, r3
1000128e:	d209      	bcs.n	100012a4 <runtime_init+0x34>
10001290:	3b01      	subs	r3, #1
10001292:	1b1d      	subs	r5, r3, r4
10001294:	08ad      	lsrs	r5, r5, #2
10001296:	3501      	adds	r5, #1
10001298:	00ad      	lsls	r5, r5, #2
1000129a:	192d      	adds	r5, r5, r4
1000129c:	cc08      	ldmia	r4!, {r3}
1000129e:	4798      	blx	r3
100012a0:	42ac      	cmp	r4, r5
100012a2:	d1fb      	bne.n	1000129c <runtime_init+0x2c>
100012a4:	f000 f894 	bl	100013d0 <clocks_init>
100012a8:	4a24      	ldr	r2, [pc, #144]	; (1000133c <runtime_init+0xcc>)
100012aa:	4b20      	ldr	r3, [pc, #128]	; (1000132c <runtime_init+0xbc>)
100012ac:	601a      	str	r2, [r3, #0]
100012ae:	4a20      	ldr	r2, [pc, #128]	; (10001330 <runtime_init+0xc0>)
100012b0:	6893      	ldr	r3, [r2, #8]
100012b2:	01db      	lsls	r3, r3, #7
100012b4:	3380      	adds	r3, #128	; 0x80
100012b6:	d1fb      	bne.n	100012b0 <runtime_init+0x40>
100012b8:	2240      	movs	r2, #64	; 0x40
100012ba:	4b21      	ldr	r3, [pc, #132]	; (10001340 <runtime_init+0xd0>)
100012bc:	4c21      	ldr	r4, [pc, #132]	; (10001344 <runtime_init+0xd4>)
100012be:	679a      	str	r2, [r3, #120]	; 0x78
100012c0:	675a      	str	r2, [r3, #116]	; 0x74
100012c2:	671a      	str	r2, [r3, #112]	; 0x70
100012c4:	66da      	str	r2, [r3, #108]	; 0x6c
100012c6:	4b20      	ldr	r3, [pc, #128]	; (10001348 <runtime_init+0xd8>)
100012c8:	429c      	cmp	r4, r3
100012ca:	d20b      	bcs.n	100012e4 <runtime_init+0x74>
100012cc:	3b01      	subs	r3, #1
100012ce:	1b1d      	subs	r5, r3, r4
100012d0:	08ed      	lsrs	r5, r5, #3
100012d2:	3501      	adds	r5, #1
100012d4:	00ed      	lsls	r5, r5, #3
100012d6:	192d      	adds	r5, r5, r4
100012d8:	0020      	movs	r0, r4
100012da:	3408      	adds	r4, #8
100012dc:	f7ff fdb6 	bl	10000e4c <mutex_init>
100012e0:	42ac      	cmp	r4, r5
100012e2:	d1f9      	bne.n	100012d8 <runtime_init+0x68>
100012e4:	4c19      	ldr	r4, [pc, #100]	; (1000134c <runtime_init+0xdc>)
100012e6:	4d1a      	ldr	r5, [pc, #104]	; (10001350 <runtime_init+0xe0>)
100012e8:	68a1      	ldr	r1, [r4, #8]
100012ea:	22c0      	movs	r2, #192	; 0xc0
100012ec:	0028      	movs	r0, r5
100012ee:	f002 fe65 	bl	10003fbc <__wrap___aeabi_memcpy>
100012f2:	60a5      	str	r5, [r4, #8]
100012f4:	f7ff f9fe 	bl	100006f4 <spin_locks_reset>
100012f8:	f000 fbaa 	bl	10001a50 <irq_init_priorities>
100012fc:	f7ff fc28 	bl	10000b50 <alarm_pool_init_default>
10001300:	4c14      	ldr	r4, [pc, #80]	; (10001354 <runtime_init+0xe4>)
10001302:	4b15      	ldr	r3, [pc, #84]	; (10001358 <runtime_init+0xe8>)
10001304:	429c      	cmp	r4, r3
10001306:	d209      	bcs.n	1000131c <runtime_init+0xac>
10001308:	3b01      	subs	r3, #1
1000130a:	1b1d      	subs	r5, r3, r4
1000130c:	08ad      	lsrs	r5, r5, #2
1000130e:	3501      	adds	r5, #1
10001310:	00ad      	lsls	r5, r5, #2
10001312:	192d      	adds	r5, r5, r4
10001314:	cc08      	ldmia	r4!, {r3}
10001316:	4798      	blx	r3
10001318:	42a5      	cmp	r5, r4
1000131a:	d1fb      	bne.n	10001314 <runtime_init+0xa4>
1000131c:	bd70      	pop	{r4, r5, r6, pc}
1000131e:	46c0      	nop			; (mov r8, r8)
10001320:	4000e000 	.word	0x4000e000
10001324:	ffffcdbf 	.word	0xffffcdbf
10001328:	003c7ffe 	.word	0x003c7ffe
1000132c:	4000f000 	.word	0x4000f000
10001330:	4000c000 	.word	0x4000c000
10001334:	20000a58 	.word	0x20000a58
10001338:	20000a68 	.word	0x20000a68
1000133c:	01ffffff 	.word	0x01ffffff
10001340:	4001f000 	.word	0x4001f000
10001344:	20000a50 	.word	0x20000a50
10001348:	20000a58 	.word	0x20000a58
1000134c:	e000ed00 	.word	0xe000ed00
10001350:	20000000 	.word	0x20000000
10001354:	20000a68 	.word	0x20000a68
10001358:	20000a6c 	.word	0x20000a6c

1000135c <_sbrk>:
1000135c:	4a09      	ldr	r2, [pc, #36]	; (10001384 <_sbrk+0x28>)
1000135e:	0003      	movs	r3, r0
10001360:	6810      	ldr	r0, [r2, #0]
10001362:	2800      	cmp	r0, #0
10001364:	d005      	beq.n	10001372 <_sbrk+0x16>
10001366:	4908      	ldr	r1, [pc, #32]	; (10001388 <_sbrk+0x2c>)
10001368:	18c3      	adds	r3, r0, r3
1000136a:	428b      	cmp	r3, r1
1000136c:	d207      	bcs.n	1000137e <_sbrk+0x22>
1000136e:	6013      	str	r3, [r2, #0]
10001370:	4770      	bx	lr
10001372:	4806      	ldr	r0, [pc, #24]	; (1000138c <_sbrk+0x30>)
10001374:	4904      	ldr	r1, [pc, #16]	; (10001388 <_sbrk+0x2c>)
10001376:	18c3      	adds	r3, r0, r3
10001378:	6010      	str	r0, [r2, #0]
1000137a:	428b      	cmp	r3, r1
1000137c:	d3f7      	bcc.n	1000136e <_sbrk+0x12>
1000137e:	2001      	movs	r0, #1
10001380:	4240      	negs	r0, r0
10001382:	e7f5      	b.n	10001370 <_sbrk+0x14>
10001384:	20000b00 	.word	0x20000b00
10001388:	20040000 	.word	0x20040000
1000138c:	2000152c 	.word	0x2000152c

10001390 <exit>:
10001390:	be00      	bkpt	0x0000
10001392:	e7fd      	b.n	10001390 <exit>

10001394 <panic>:
10001394:	b40f      	push	{r0, r1, r2, r3}
10001396:	b500      	push	{lr}
10001398:	4808      	ldr	r0, [pc, #32]	; (100013bc <panic+0x28>)
1000139a:	b083      	sub	sp, #12
1000139c:	f002 ff20 	bl	100041e0 <__wrap_puts>
100013a0:	9b04      	ldr	r3, [sp, #16]
100013a2:	2b00      	cmp	r3, #0
100013a4:	d007      	beq.n	100013b6 <panic+0x22>
100013a6:	a905      	add	r1, sp, #20
100013a8:	0018      	movs	r0, r3
100013aa:	9101      	str	r1, [sp, #4]
100013ac:	f001 fe78 	bl	100030a0 <weak_raw_vprintf>
100013b0:	4803      	ldr	r0, [pc, #12]	; (100013c0 <panic+0x2c>)
100013b2:	f002 ff15 	bl	100041e0 <__wrap_puts>
100013b6:	be00      	bkpt	0x0000
100013b8:	e7fd      	b.n	100013b6 <panic+0x22>
100013ba:	46c0      	nop			; (mov r8, r8)
100013bc:	100059f4 	.word	0x100059f4
100013c0:	100058e0 	.word	0x100058e0

100013c4 <hard_assertion_failure>:
100013c4:	b510      	push	{r4, lr}
100013c6:	4801      	ldr	r0, [pc, #4]	; (100013cc <hard_assertion_failure+0x8>)
100013c8:	f7ff ffe4 	bl	10001394 <panic>
100013cc:	10005a04 	.word	0x10005a04

100013d0 <clocks_init>:
100013d0:	b530      	push	{r4, r5, lr}
100013d2:	200c      	movs	r0, #12
100013d4:	b083      	sub	sp, #12
100013d6:	f000 f971 	bl	100016bc <watchdog_start_tick>
100013da:	f7ff f9a5 	bl	10000728 <running_on_fpga>
100013de:	2800      	cmp	r0, #0
100013e0:	d00e      	beq.n	10001400 <clocks_init+0x30>
100013e2:	4b9a      	ldr	r3, [pc, #616]	; (1000164c <clocks_init+0x27c>)
100013e4:	4a9a      	ldr	r2, [pc, #616]	; (10001650 <clocks_init+0x280>)
100013e6:	601a      	str	r2, [r3, #0]
100013e8:	605a      	str	r2, [r3, #4]
100013ea:	609a      	str	r2, [r3, #8]
100013ec:	60da      	str	r2, [r3, #12]
100013ee:	611a      	str	r2, [r3, #16]
100013f0:	615a      	str	r2, [r3, #20]
100013f2:	619a      	str	r2, [r3, #24]
100013f4:	61da      	str	r2, [r3, #28]
100013f6:	621a      	str	r2, [r3, #32]
100013f8:	4a96      	ldr	r2, [pc, #600]	; (10001654 <clocks_init+0x284>)
100013fa:	625a      	str	r2, [r3, #36]	; 0x24
100013fc:	b003      	add	sp, #12
100013fe:	bd30      	pop	{r4, r5, pc}
10001400:	4c95      	ldr	r4, [pc, #596]	; (10001658 <clocks_init+0x288>)
10001402:	67a0      	str	r0, [r4, #120]	; 0x78
10001404:	f000 f962 	bl	100016cc <xosc_init>
10001408:	2201      	movs	r2, #1
1000140a:	4b94      	ldr	r3, [pc, #592]	; (1000165c <clocks_init+0x28c>)
1000140c:	601a      	str	r2, [r3, #0]
1000140e:	6c63      	ldr	r3, [r4, #68]	; 0x44
10001410:	2b01      	cmp	r3, #1
10001412:	d1fc      	bne.n	1000140e <clocks_init+0x3e>
10001414:	2203      	movs	r2, #3
10001416:	4b92      	ldr	r3, [pc, #584]	; (10001660 <clocks_init+0x290>)
10001418:	601a      	str	r2, [r3, #0]
1000141a:	4a8f      	ldr	r2, [pc, #572]	; (10001658 <clocks_init+0x288>)
1000141c:	6b93      	ldr	r3, [r2, #56]	; 0x38
1000141e:	2b01      	cmp	r3, #1
10001420:	d1fc      	bne.n	1000141c <clocks_init+0x4c>
10001422:	22c0      	movs	r2, #192	; 0xc0
10001424:	4b8f      	ldr	r3, [pc, #572]	; (10001664 <clocks_init+0x294>)
10001426:	0192      	lsls	r2, r2, #6
10001428:	601a      	str	r2, [r3, #0]
1000142a:	4b8f      	ldr	r3, [pc, #572]	; (10001668 <clocks_init+0x298>)
1000142c:	498f      	ldr	r1, [pc, #572]	; (1000166c <clocks_init+0x29c>)
1000142e:	601a      	str	r2, [r3, #0]
10001430:	0010      	movs	r0, r2
10001432:	688b      	ldr	r3, [r1, #8]
10001434:	4398      	bics	r0, r3
10001436:	1e03      	subs	r3, r0, #0
10001438:	d1fa      	bne.n	10001430 <clocks_init+0x60>
1000143a:	2402      	movs	r4, #2
1000143c:	2101      	movs	r1, #1
1000143e:	4a8c      	ldr	r2, [pc, #560]	; (10001670 <clocks_init+0x2a0>)
10001440:	488c      	ldr	r0, [pc, #560]	; (10001674 <clocks_init+0x2a4>)
10001442:	3306      	adds	r3, #6
10001444:	9400      	str	r4, [sp, #0]
10001446:	f000 f955 	bl	100016f4 <pll_init>
1000144a:	2305      	movs	r3, #5
1000144c:	4a8a      	ldr	r2, [pc, #552]	; (10001678 <clocks_init+0x2a8>)
1000144e:	2101      	movs	r1, #1
10001450:	488a      	ldr	r0, [pc, #552]	; (1000167c <clocks_init+0x2ac>)
10001452:	9400      	str	r4, [sp, #0]
10001454:	f000 f94e 	bl	100016f4 <pll_init>
10001458:	4b89      	ldr	r3, [pc, #548]	; (10001680 <clocks_init+0x2b0>)
1000145a:	685a      	ldr	r2, [r3, #4]
1000145c:	2aff      	cmp	r2, #255	; 0xff
1000145e:	d802      	bhi.n	10001466 <clocks_init+0x96>
10001460:	2280      	movs	r2, #128	; 0x80
10001462:	0052      	lsls	r2, r2, #1
10001464:	605a      	str	r2, [r3, #4]
10001466:	2280      	movs	r2, #128	; 0x80
10001468:	4c78      	ldr	r4, [pc, #480]	; (1000164c <clocks_init+0x27c>)
1000146a:	4b7d      	ldr	r3, [pc, #500]	; (10001660 <clocks_init+0x290>)
1000146c:	6921      	ldr	r1, [r4, #16]
1000146e:	0112      	lsls	r2, r2, #4
10001470:	4d83      	ldr	r5, [pc, #524]	; (10001680 <clocks_init+0x2b0>)
10001472:	601a      	str	r2, [r3, #0]
10001474:	2900      	cmp	r1, #0
10001476:	d005      	beq.n	10001484 <clocks_init+0xb4>
10001478:	6960      	ldr	r0, [r4, #20]
1000147a:	f001 fe8b 	bl	10003194 <__wrap___aeabi_uidiv>
1000147e:	3001      	adds	r0, #1
10001480:	3801      	subs	r0, #1
10001482:	d1fd      	bne.n	10001480 <clocks_init+0xb0>
10001484:	21e0      	movs	r1, #224	; 0xe0
10001486:	4b7e      	ldr	r3, [pc, #504]	; (10001680 <clocks_init+0x2b0>)
10001488:	2002      	movs	r0, #2
1000148a:	681a      	ldr	r2, [r3, #0]
1000148c:	4011      	ands	r1, r2
1000148e:	2280      	movs	r2, #128	; 0x80
10001490:	0152      	lsls	r2, r2, #5
10001492:	432a      	orrs	r2, r5
10001494:	6011      	str	r1, [r2, #0]
10001496:	6819      	ldr	r1, [r3, #0]
10001498:	4048      	eors	r0, r1
1000149a:	2103      	movs	r1, #3
1000149c:	4001      	ands	r1, r0
1000149e:	6011      	str	r1, [r2, #0]
100014a0:	2104      	movs	r1, #4
100014a2:	689a      	ldr	r2, [r3, #8]
100014a4:	4211      	tst	r1, r2
100014a6:	d0fc      	beq.n	100014a2 <clocks_init+0xd2>
100014a8:	2280      	movs	r2, #128	; 0x80
100014aa:	2180      	movs	r1, #128	; 0x80
100014ac:	0192      	lsls	r2, r2, #6
100014ae:	432a      	orrs	r2, r5
100014b0:	0109      	lsls	r1, r1, #4
100014b2:	6011      	str	r1, [r2, #0]
100014b4:	2280      	movs	r2, #128	; 0x80
100014b6:	0052      	lsls	r2, r2, #1
100014b8:	605a      	str	r2, [r3, #4]
100014ba:	4b72      	ldr	r3, [pc, #456]	; (10001684 <clocks_init+0x2b4>)
100014bc:	6123      	str	r3, [r4, #16]
100014be:	4b72      	ldr	r3, [pc, #456]	; (10001688 <clocks_init+0x2b8>)
100014c0:	6859      	ldr	r1, [r3, #4]
100014c2:	29ff      	cmp	r1, #255	; 0xff
100014c4:	d800      	bhi.n	100014c8 <clocks_init+0xf8>
100014c6:	605a      	str	r2, [r3, #4]
100014c8:	2203      	movs	r2, #3
100014ca:	486f      	ldr	r0, [pc, #444]	; (10001688 <clocks_init+0x2b8>)
100014cc:	4b63      	ldr	r3, [pc, #396]	; (1000165c <clocks_init+0x28c>)
100014ce:	2101      	movs	r1, #1
100014d0:	601a      	str	r2, [r3, #0]
100014d2:	0002      	movs	r2, r0
100014d4:	6893      	ldr	r3, [r2, #8]
100014d6:	4219      	tst	r1, r3
100014d8:	d0fc      	beq.n	100014d4 <clocks_init+0x104>
100014da:	25e0      	movs	r5, #224	; 0xe0
100014dc:	6813      	ldr	r3, [r2, #0]
100014de:	401d      	ands	r5, r3
100014e0:	2380      	movs	r3, #128	; 0x80
100014e2:	015b      	lsls	r3, r3, #5
100014e4:	4303      	orrs	r3, r0
100014e6:	601d      	str	r5, [r3, #0]
100014e8:	6812      	ldr	r2, [r2, #0]
100014ea:	404a      	eors	r2, r1
100014ec:	2103      	movs	r1, #3
100014ee:	4011      	ands	r1, r2
100014f0:	6019      	str	r1, [r3, #0]
100014f2:	2102      	movs	r1, #2
100014f4:	4a64      	ldr	r2, [pc, #400]	; (10001688 <clocks_init+0x2b8>)
100014f6:	6893      	ldr	r3, [r2, #8]
100014f8:	4219      	tst	r1, r3
100014fa:	d0fc      	beq.n	100014f6 <clocks_init+0x126>
100014fc:	2380      	movs	r3, #128	; 0x80
100014fe:	2180      	movs	r1, #128	; 0x80
10001500:	019b      	lsls	r3, r3, #6
10001502:	4303      	orrs	r3, r0
10001504:	0109      	lsls	r1, r1, #4
10001506:	6019      	str	r1, [r3, #0]
10001508:	2180      	movs	r1, #128	; 0x80
1000150a:	4b60      	ldr	r3, [pc, #384]	; (1000168c <clocks_init+0x2bc>)
1000150c:	0049      	lsls	r1, r1, #1
1000150e:	6051      	str	r1, [r2, #4]
10001510:	6163      	str	r3, [r4, #20]
10001512:	4b5f      	ldr	r3, [pc, #380]	; (10001690 <clocks_init+0x2c0>)
10001514:	685a      	ldr	r2, [r3, #4]
10001516:	2aff      	cmp	r2, #255	; 0xff
10001518:	d800      	bhi.n	1000151c <clocks_init+0x14c>
1000151a:	6059      	str	r1, [r3, #4]
1000151c:	2280      	movs	r2, #128	; 0x80
1000151e:	4b5d      	ldr	r3, [pc, #372]	; (10001694 <clocks_init+0x2c4>)
10001520:	69e1      	ldr	r1, [r4, #28]
10001522:	0112      	lsls	r2, r2, #4
10001524:	4d5a      	ldr	r5, [pc, #360]	; (10001690 <clocks_init+0x2c0>)
10001526:	601a      	str	r2, [r3, #0]
10001528:	2900      	cmp	r1, #0
1000152a:	d005      	beq.n	10001538 <clocks_init+0x168>
1000152c:	6960      	ldr	r0, [r4, #20]
1000152e:	f001 fe31 	bl	10003194 <__wrap___aeabi_uidiv>
10001532:	3001      	adds	r0, #1
10001534:	3801      	subs	r0, #1
10001536:	d1fd      	bne.n	10001534 <clocks_init+0x164>
10001538:	22e0      	movs	r2, #224	; 0xe0
1000153a:	4955      	ldr	r1, [pc, #340]	; (10001690 <clocks_init+0x2c0>)
1000153c:	680b      	ldr	r3, [r1, #0]
1000153e:	401a      	ands	r2, r3
10001540:	2380      	movs	r3, #128	; 0x80
10001542:	015b      	lsls	r3, r3, #5
10001544:	432b      	orrs	r3, r5
10001546:	601a      	str	r2, [r3, #0]
10001548:	2380      	movs	r3, #128	; 0x80
1000154a:	2280      	movs	r2, #128	; 0x80
1000154c:	019b      	lsls	r3, r3, #6
1000154e:	432b      	orrs	r3, r5
10001550:	0112      	lsls	r2, r2, #4
10001552:	601a      	str	r2, [r3, #0]
10001554:	2280      	movs	r2, #128	; 0x80
10001556:	4b3e      	ldr	r3, [pc, #248]	; (10001650 <clocks_init+0x280>)
10001558:	0052      	lsls	r2, r2, #1
1000155a:	604a      	str	r2, [r1, #4]
1000155c:	61e3      	str	r3, [r4, #28]
1000155e:	4b4e      	ldr	r3, [pc, #312]	; (10001698 <clocks_init+0x2c8>)
10001560:	6859      	ldr	r1, [r3, #4]
10001562:	29ff      	cmp	r1, #255	; 0xff
10001564:	d800      	bhi.n	10001568 <clocks_init+0x198>
10001566:	605a      	str	r2, [r3, #4]
10001568:	2280      	movs	r2, #128	; 0x80
1000156a:	4b4c      	ldr	r3, [pc, #304]	; (1000169c <clocks_init+0x2cc>)
1000156c:	6a21      	ldr	r1, [r4, #32]
1000156e:	0112      	lsls	r2, r2, #4
10001570:	4d49      	ldr	r5, [pc, #292]	; (10001698 <clocks_init+0x2c8>)
10001572:	601a      	str	r2, [r3, #0]
10001574:	2900      	cmp	r1, #0
10001576:	d005      	beq.n	10001584 <clocks_init+0x1b4>
10001578:	6960      	ldr	r0, [r4, #20]
1000157a:	f001 fe0b 	bl	10003194 <__wrap___aeabi_uidiv>
1000157e:	3001      	adds	r0, #1
10001580:	3801      	subs	r0, #1
10001582:	d1fd      	bne.n	10001580 <clocks_init+0x1b0>
10001584:	22e0      	movs	r2, #224	; 0xe0
10001586:	4944      	ldr	r1, [pc, #272]	; (10001698 <clocks_init+0x2c8>)
10001588:	680b      	ldr	r3, [r1, #0]
1000158a:	401a      	ands	r2, r3
1000158c:	2380      	movs	r3, #128	; 0x80
1000158e:	015b      	lsls	r3, r3, #5
10001590:	432b      	orrs	r3, r5
10001592:	601a      	str	r2, [r3, #0]
10001594:	2380      	movs	r3, #128	; 0x80
10001596:	2280      	movs	r2, #128	; 0x80
10001598:	019b      	lsls	r3, r3, #6
1000159a:	432b      	orrs	r3, r5
1000159c:	0112      	lsls	r2, r2, #4
1000159e:	601a      	str	r2, [r3, #0]
100015a0:	2380      	movs	r3, #128	; 0x80
100015a2:	2280      	movs	r2, #128	; 0x80
100015a4:	005b      	lsls	r3, r3, #1
100015a6:	604b      	str	r3, [r1, #4]
100015a8:	4b29      	ldr	r3, [pc, #164]	; (10001650 <clocks_init+0x280>)
100015aa:	02d2      	lsls	r2, r2, #11
100015ac:	6223      	str	r3, [r4, #32]
100015ae:	4b3c      	ldr	r3, [pc, #240]	; (100016a0 <clocks_init+0x2d0>)
100015b0:	6859      	ldr	r1, [r3, #4]
100015b2:	4291      	cmp	r1, r2
100015b4:	d200      	bcs.n	100015b8 <clocks_init+0x1e8>
100015b6:	605a      	str	r2, [r3, #4]
100015b8:	2280      	movs	r2, #128	; 0x80
100015ba:	4b3a      	ldr	r3, [pc, #232]	; (100016a4 <clocks_init+0x2d4>)
100015bc:	6a61      	ldr	r1, [r4, #36]	; 0x24
100015be:	0112      	lsls	r2, r2, #4
100015c0:	4d37      	ldr	r5, [pc, #220]	; (100016a0 <clocks_init+0x2d0>)
100015c2:	601a      	str	r2, [r3, #0]
100015c4:	2900      	cmp	r1, #0
100015c6:	d005      	beq.n	100015d4 <clocks_init+0x204>
100015c8:	6960      	ldr	r0, [r4, #20]
100015ca:	f001 fde3 	bl	10003194 <__wrap___aeabi_uidiv>
100015ce:	3001      	adds	r0, #1
100015d0:	3801      	subs	r0, #1
100015d2:	d1fd      	bne.n	100015d0 <clocks_init+0x200>
100015d4:	22e0      	movs	r2, #224	; 0xe0
100015d6:	4932      	ldr	r1, [pc, #200]	; (100016a0 <clocks_init+0x2d0>)
100015d8:	680b      	ldr	r3, [r1, #0]
100015da:	401a      	ands	r2, r3
100015dc:	2380      	movs	r3, #128	; 0x80
100015de:	015b      	lsls	r3, r3, #5
100015e0:	432b      	orrs	r3, r5
100015e2:	601a      	str	r2, [r3, #0]
100015e4:	2380      	movs	r3, #128	; 0x80
100015e6:	2280      	movs	r2, #128	; 0x80
100015e8:	019b      	lsls	r3, r3, #6
100015ea:	432b      	orrs	r3, r5
100015ec:	0112      	lsls	r2, r2, #4
100015ee:	601a      	str	r2, [r3, #0]
100015f0:	2380      	movs	r3, #128	; 0x80
100015f2:	02db      	lsls	r3, r3, #11
100015f4:	604b      	str	r3, [r1, #4]
100015f6:	4b17      	ldr	r3, [pc, #92]	; (10001654 <clocks_init+0x284>)
100015f8:	6263      	str	r3, [r4, #36]	; 0x24
100015fa:	4b2b      	ldr	r3, [pc, #172]	; (100016a8 <clocks_init+0x2d8>)
100015fc:	685a      	ldr	r2, [r3, #4]
100015fe:	2aff      	cmp	r2, #255	; 0xff
10001600:	d802      	bhi.n	10001608 <clocks_init+0x238>
10001602:	2280      	movs	r2, #128	; 0x80
10001604:	0052      	lsls	r2, r2, #1
10001606:	605a      	str	r2, [r3, #4]
10001608:	2280      	movs	r2, #128	; 0x80
1000160a:	4b28      	ldr	r3, [pc, #160]	; (100016ac <clocks_init+0x2dc>)
1000160c:	69a1      	ldr	r1, [r4, #24]
1000160e:	0112      	lsls	r2, r2, #4
10001610:	4d25      	ldr	r5, [pc, #148]	; (100016a8 <clocks_init+0x2d8>)
10001612:	601a      	str	r2, [r3, #0]
10001614:	2900      	cmp	r1, #0
10001616:	d005      	beq.n	10001624 <clocks_init+0x254>
10001618:	6960      	ldr	r0, [r4, #20]
1000161a:	f001 fdbb 	bl	10003194 <__wrap___aeabi_uidiv>
1000161e:	3001      	adds	r0, #1
10001620:	3801      	subs	r0, #1
10001622:	d1fd      	bne.n	10001620 <clocks_init+0x250>
10001624:	22e0      	movs	r2, #224	; 0xe0
10001626:	4920      	ldr	r1, [pc, #128]	; (100016a8 <clocks_init+0x2d8>)
10001628:	680b      	ldr	r3, [r1, #0]
1000162a:	401a      	ands	r2, r3
1000162c:	2380      	movs	r3, #128	; 0x80
1000162e:	015b      	lsls	r3, r3, #5
10001630:	432b      	orrs	r3, r5
10001632:	601a      	str	r2, [r3, #0]
10001634:	2380      	movs	r3, #128	; 0x80
10001636:	2280      	movs	r2, #128	; 0x80
10001638:	019b      	lsls	r3, r3, #6
1000163a:	432b      	orrs	r3, r5
1000163c:	0112      	lsls	r2, r2, #4
1000163e:	601a      	str	r2, [r3, #0]
10001640:	2380      	movs	r3, #128	; 0x80
10001642:	005b      	lsls	r3, r3, #1
10001644:	604b      	str	r3, [r1, #4]
10001646:	4b11      	ldr	r3, [pc, #68]	; (1000168c <clocks_init+0x2bc>)
10001648:	61a3      	str	r3, [r4, #24]
1000164a:	e6d7      	b.n	100013fc <clocks_init+0x2c>
1000164c:	20000acc 	.word	0x20000acc
10001650:	02dc6c00 	.word	0x02dc6c00
10001654:	0000b71b 	.word	0x0000b71b
10001658:	40008000 	.word	0x40008000
1000165c:	4000b03c 	.word	0x4000b03c
10001660:	4000b030 	.word	0x4000b030
10001664:	4000e000 	.word	0x4000e000
10001668:	4000f000 	.word	0x4000f000
1000166c:	4000c000 	.word	0x4000c000
10001670:	59682f00 	.word	0x59682f00
10001674:	40028000 	.word	0x40028000
10001678:	1c9c3800 	.word	0x1c9c3800
1000167c:	4002c000 	.word	0x4002c000
10001680:	40008030 	.word	0x40008030
10001684:	00b71b00 	.word	0x00b71b00
10001688:	4000803c 	.word	0x4000803c
1000168c:	07735940 	.word	0x07735940
10001690:	40008054 	.word	0x40008054
10001694:	4000b054 	.word	0x4000b054
10001698:	40008060 	.word	0x40008060
1000169c:	4000b060 	.word	0x4000b060
100016a0:	4000806c 	.word	0x4000806c
100016a4:	4000b06c 	.word	0x4000b06c
100016a8:	40008048 	.word	0x40008048
100016ac:	4000b048 	.word	0x4000b048

100016b0 <clock_get_hz>:
100016b0:	4b01      	ldr	r3, [pc, #4]	; (100016b8 <clock_get_hz+0x8>)
100016b2:	0080      	lsls	r0, r0, #2
100016b4:	58c0      	ldr	r0, [r0, r3]
100016b6:	4770      	bx	lr
100016b8:	20000acc 	.word	0x20000acc

100016bc <watchdog_start_tick>:
100016bc:	2380      	movs	r3, #128	; 0x80
100016be:	4a02      	ldr	r2, [pc, #8]	; (100016c8 <watchdog_start_tick+0xc>)
100016c0:	009b      	lsls	r3, r3, #2
100016c2:	4303      	orrs	r3, r0
100016c4:	62d3      	str	r3, [r2, #44]	; 0x2c
100016c6:	4770      	bx	lr
100016c8:	40058000 	.word	0x40058000

100016cc <xosc_init>:
100016cc:	23aa      	movs	r3, #170	; 0xaa
100016ce:	4a06      	ldr	r2, [pc, #24]	; (100016e8 <xosc_init+0x1c>)
100016d0:	011b      	lsls	r3, r3, #4
100016d2:	6013      	str	r3, [r2, #0]
100016d4:	232f      	movs	r3, #47	; 0x2f
100016d6:	4905      	ldr	r1, [pc, #20]	; (100016ec <xosc_init+0x20>)
100016d8:	60d3      	str	r3, [r2, #12]
100016da:	4b05      	ldr	r3, [pc, #20]	; (100016f0 <xosc_init+0x24>)
100016dc:	6019      	str	r1, [r3, #0]
100016de:	6853      	ldr	r3, [r2, #4]
100016e0:	2b00      	cmp	r3, #0
100016e2:	dafc      	bge.n	100016de <xosc_init+0x12>
100016e4:	4770      	bx	lr
100016e6:	46c0      	nop			; (mov r8, r8)
100016e8:	40024000 	.word	0x40024000
100016ec:	00fab000 	.word	0x00fab000
100016f0:	40026000 	.word	0x40026000

100016f4 <pll_init>:
100016f4:	b5f8      	push	{r3, r4, r5, r6, r7, lr}
100016f6:	001d      	movs	r5, r3
100016f8:	ab06      	add	r3, sp, #24
100016fa:	781e      	ldrb	r6, [r3, #0]
100016fc:	2301      	movs	r3, #1
100016fe:	425b      	negs	r3, r3
10001700:	6043      	str	r3, [r0, #4]
10001702:	2300      	movs	r3, #0
10001704:	0004      	movs	r4, r0
10001706:	6083      	str	r3, [r0, #8]
10001708:	6001      	str	r1, [r0, #0]
1000170a:	200c      	movs	r0, #12
1000170c:	0017      	movs	r7, r2
1000170e:	f001 fd41 	bl	10003194 <__wrap___aeabi_uidiv>
10001712:	0141      	lsls	r1, r0, #5
10001714:	1a09      	subs	r1, r1, r0
10001716:	018b      	lsls	r3, r1, #6
10001718:	1a59      	subs	r1, r3, r1
1000171a:	00c9      	lsls	r1, r1, #3
1000171c:	1809      	adds	r1, r1, r0
1000171e:	0189      	lsls	r1, r1, #6
10001720:	0038      	movs	r0, r7
10001722:	f001 fd37 	bl	10003194 <__wrap___aeabi_uidiv>
10001726:	21c0      	movs	r1, #192	; 0xc0
10001728:	1d23      	adds	r3, r4, #4
1000172a:	0189      	lsls	r1, r1, #6
1000172c:	4319      	orrs	r1, r3
1000172e:	2321      	movs	r3, #33	; 0x21
10001730:	60a0      	str	r0, [r4, #8]
10001732:	600b      	str	r3, [r1, #0]
10001734:	6822      	ldr	r2, [r4, #0]
10001736:	2a00      	cmp	r2, #0
10001738:	dafc      	bge.n	10001734 <pll_init+0x40>
1000173a:	2308      	movs	r3, #8
1000173c:	042d      	lsls	r5, r5, #16
1000173e:	0336      	lsls	r6, r6, #12
10001740:	432e      	orrs	r6, r5
10001742:	60e6      	str	r6, [r4, #12]
10001744:	600b      	str	r3, [r1, #0]
10001746:	bdf8      	pop	{r3, r4, r5, r6, r7, pc}

10001748 <irq_set_enabled>:
10001748:	2301      	movs	r3, #1
1000174a:	4083      	lsls	r3, r0
1000174c:	2900      	cmp	r1, #0
1000174e:	d004      	beq.n	1000175a <irq_set_enabled+0x12>
10001750:	4a03      	ldr	r2, [pc, #12]	; (10001760 <irq_set_enabled+0x18>)
10001752:	6013      	str	r3, [r2, #0]
10001754:	4a03      	ldr	r2, [pc, #12]	; (10001764 <irq_set_enabled+0x1c>)
10001756:	6013      	str	r3, [r2, #0]
10001758:	4770      	bx	lr
1000175a:	4a03      	ldr	r2, [pc, #12]	; (10001768 <irq_set_enabled+0x20>)
1000175c:	6013      	str	r3, [r2, #0]
1000175e:	e7fb      	b.n	10001758 <irq_set_enabled+0x10>
10001760:	e000e280 	.word	0xe000e280
10001764:	e000e100 	.word	0xe000e100
10001768:	e000e180 	.word	0xe000e180

1000176c <irq_get_vtable_handler>:
1000176c:	4b02      	ldr	r3, [pc, #8]	; (10001778 <irq_get_vtable_handler+0xc>)
1000176e:	3010      	adds	r0, #16
10001770:	689b      	ldr	r3, [r3, #8]
10001772:	0080      	lsls	r0, r0, #2
10001774:	58c0      	ldr	r0, [r0, r3]
10001776:	4770      	bx	lr
10001778:	e000ed00 	.word	0xe000ed00

1000177c <irq_set_exclusive_handler>:
1000177c:	b570      	push	{r4, r5, r6, lr}
1000177e:	000d      	movs	r5, r1
10001780:	f3ef 8610 	mrs	r6, PRIMASK
10001784:	b672      	cpsid	i
10001786:	4a0f      	ldr	r2, [pc, #60]	; (100017c4 <irq_set_exclusive_handler+0x48>)
10001788:	6813      	ldr	r3, [r2, #0]
1000178a:	2b00      	cmp	r3, #0
1000178c:	d0fc      	beq.n	10001788 <irq_set_exclusive_handler+0xc>
1000178e:	f3bf 8f5f 	dmb	sy
10001792:	4b0d      	ldr	r3, [pc, #52]	; (100017c8 <irq_set_exclusive_handler+0x4c>)
10001794:	3010      	adds	r0, #16
10001796:	689b      	ldr	r3, [r3, #8]
10001798:	0084      	lsls	r4, r0, #2
1000179a:	591b      	ldr	r3, [r3, r4]
1000179c:	4a0b      	ldr	r2, [pc, #44]	; (100017cc <irq_set_exclusive_handler+0x50>)
1000179e:	4293      	cmp	r3, r2
100017a0:	d003      	beq.n	100017aa <irq_set_exclusive_handler+0x2e>
100017a2:	429d      	cmp	r5, r3
100017a4:	d001      	beq.n	100017aa <irq_set_exclusive_handler+0x2e>
100017a6:	f7ff fe0d 	bl	100013c4 <hard_assertion_failure>
100017aa:	4b07      	ldr	r3, [pc, #28]	; (100017c8 <irq_set_exclusive_handler+0x4c>)
100017ac:	689b      	ldr	r3, [r3, #8]
100017ae:	511d      	str	r5, [r3, r4]
100017b0:	f3bf 8f5f 	dmb	sy
100017b4:	f3bf 8f5f 	dmb	sy
100017b8:	2200      	movs	r2, #0
100017ba:	4b02      	ldr	r3, [pc, #8]	; (100017c4 <irq_set_exclusive_handler+0x48>)
100017bc:	601a      	str	r2, [r3, #0]
100017be:	f386 8810 	msr	PRIMASK, r6
100017c2:	bd70      	pop	{r4, r5, r6, pc}
100017c4:	d0000124 	.word	0xd0000124
100017c8:	e000ed00 	.word	0xe000ed00
100017cc:	100002cd 	.word	0x100002cd

100017d0 <irq_remove_handler>:
100017d0:	b5f0      	push	{r4, r5, r6, r7, lr}
100017d2:	46de      	mov	lr, fp
100017d4:	4657      	mov	r7, sl
100017d6:	464e      	mov	r6, r9
100017d8:	4645      	mov	r5, r8
100017da:	b5e0      	push	{r5, r6, r7, lr}
100017dc:	000c      	movs	r4, r1
100017de:	b083      	sub	sp, #12
100017e0:	f3ef 8a10 	mrs	sl, PRIMASK
100017e4:	b672      	cpsid	i
100017e6:	4a5f      	ldr	r2, [pc, #380]	; (10001964 <irq_remove_handler+0x194>)
100017e8:	6813      	ldr	r3, [r2, #0]
100017ea:	2b00      	cmp	r3, #0
100017ec:	d0fc      	beq.n	100017e8 <irq_remove_handler+0x18>
100017ee:	f3bf 8f5f 	dmb	sy
100017f2:	2210      	movs	r2, #16
100017f4:	4691      	mov	r9, r2
100017f6:	4481      	add	r9, r0
100017f8:	464a      	mov	r2, r9
100017fa:	4b5b      	ldr	r3, [pc, #364]	; (10001968 <irq_remove_handler+0x198>)
100017fc:	0096      	lsls	r6, r2, #2
100017fe:	689b      	ldr	r3, [r3, #8]
10001800:	599d      	ldr	r5, [r3, r6]
10001802:	4b5a      	ldr	r3, [pc, #360]	; (1000196c <irq_remove_handler+0x19c>)
10001804:	4698      	mov	r8, r3
10001806:	429d      	cmp	r5, r3
10001808:	d005      	beq.n	10001816 <irq_remove_handler+0x46>
1000180a:	42a5      	cmp	r5, r4
1000180c:	d016      	beq.n	1000183c <irq_remove_handler+0x6c>
1000180e:	4f58      	ldr	r7, [pc, #352]	; (10001970 <irq_remove_handler+0x1a0>)
10001810:	1beb      	subs	r3, r5, r7
10001812:	2b2f      	cmp	r3, #47	; 0x2f
10001814:	d914      	bls.n	10001840 <irq_remove_handler+0x70>
10001816:	4b54      	ldr	r3, [pc, #336]	; (10001968 <irq_remove_handler+0x198>)
10001818:	689b      	ldr	r3, [r3, #8]
1000181a:	519d      	str	r5, [r3, r6]
1000181c:	f3bf 8f5f 	dmb	sy
10001820:	f3bf 8f5f 	dmb	sy
10001824:	2200      	movs	r2, #0
10001826:	4b4f      	ldr	r3, [pc, #316]	; (10001964 <irq_remove_handler+0x194>)
10001828:	601a      	str	r2, [r3, #0]
1000182a:	f38a 8810 	msr	PRIMASK, sl
1000182e:	b003      	add	sp, #12
10001830:	bc3c      	pop	{r2, r3, r4, r5}
10001832:	4690      	mov	r8, r2
10001834:	4699      	mov	r9, r3
10001836:	46a2      	mov	sl, r4
10001838:	46ab      	mov	fp, r5
1000183a:	bdf0      	pop	{r4, r5, r6, r7, pc}
1000183c:	001d      	movs	r5, r3
1000183e:	e7ea      	b.n	10001816 <irq_remove_handler+0x46>
10001840:	2301      	movs	r3, #1
10001842:	4083      	lsls	r3, r0
10001844:	469b      	mov	fp, r3
10001846:	465a      	mov	r2, fp
10001848:	4b4a      	ldr	r3, [pc, #296]	; (10001974 <irq_remove_handler+0x1a4>)
1000184a:	681b      	ldr	r3, [r3, #0]
1000184c:	401a      	ands	r2, r3
1000184e:	9200      	str	r2, [sp, #0]
10001850:	465a      	mov	r2, fp
10001852:	4b49      	ldr	r3, [pc, #292]	; (10001978 <irq_remove_handler+0x1a8>)
10001854:	601a      	str	r2, [r3, #0]
10001856:	f3bf 8f5f 	dmb	sy
1000185a:	f7fe fc9c 	bl	10000196 <__get_current_exception>
1000185e:	9001      	str	r0, [sp, #4]
10001860:	2800      	cmp	r0, #0
10001862:	d003      	beq.n	1000186c <irq_remove_handler+0x9c>
10001864:	4581      	cmp	r9, r0
10001866:	d001      	beq.n	1000186c <irq_remove_handler+0x9c>
10001868:	f7ff fdac 	bl	100013c4 <hard_assertion_failure>
1000186c:	2301      	movs	r3, #1
1000186e:	0029      	movs	r1, r5
10001870:	4399      	bics	r1, r3
10001872:	688b      	ldr	r3, [r1, #8]
10001874:	42a3      	cmp	r3, r4
10001876:	d069      	beq.n	1000194c <irq_remove_handler+0x17c>
10001878:	000a      	movs	r2, r1
1000187a:	e007      	b.n	1000188c <irq_remove_handler+0xbc>
1000187c:	0043      	lsls	r3, r0, #1
1000187e:	181b      	adds	r3, r3, r0
10001880:	009b      	lsls	r3, r3, #2
10001882:	18fb      	adds	r3, r7, r3
10001884:	6898      	ldr	r0, [r3, #8]
10001886:	42a0      	cmp	r0, r4
10001888:	d011      	beq.n	100018ae <irq_remove_handler+0xde>
1000188a:	001a      	movs	r2, r3
1000188c:	2006      	movs	r0, #6
1000188e:	5610      	ldrsb	r0, [r2, r0]
10001890:	2800      	cmp	r0, #0
10001892:	daf3      	bge.n	1000187c <irq_remove_handler+0xac>
10001894:	9b00      	ldr	r3, [sp, #0]
10001896:	2b00      	cmp	r3, #0
10001898:	d005      	beq.n	100018a6 <irq_remove_handler+0xd6>
1000189a:	465a      	mov	r2, fp
1000189c:	4b37      	ldr	r3, [pc, #220]	; (1000197c <irq_remove_handler+0x1ac>)
1000189e:	601a      	str	r2, [r3, #0]
100018a0:	4b34      	ldr	r3, [pc, #208]	; (10001974 <irq_remove_handler+0x1a4>)
100018a2:	601a      	str	r2, [r3, #0]
100018a4:	e7b7      	b.n	10001816 <irq_remove_handler+0x46>
100018a6:	465a      	mov	r2, fp
100018a8:	4b33      	ldr	r3, [pc, #204]	; (10001978 <irq_remove_handler+0x1a8>)
100018aa:	601a      	str	r2, [r3, #0]
100018ac:	e7b3      	b.n	10001816 <irq_remove_handler+0x46>
100018ae:	2006      	movs	r0, #6
100018b0:	5618      	ldrsb	r0, [r3, r0]
100018b2:	2800      	cmp	r0, #0
100018b4:	db22      	blt.n	100018fc <irq_remove_handler+0x12c>
100018b6:	0042      	lsls	r2, r0, #1
100018b8:	1811      	adds	r1, r2, r0
100018ba:	0089      	lsls	r1, r1, #2
100018bc:	187c      	adds	r4, r7, r1
100018be:	4688      	mov	r8, r1
100018c0:	68a1      	ldr	r1, [r4, #8]
100018c2:	6099      	str	r1, [r3, #8]
100018c4:	79e1      	ldrb	r1, [r4, #7]
100018c6:	71d9      	strb	r1, [r3, #7]
100018c8:	2106      	movs	r1, #6
100018ca:	5661      	ldrsb	r1, [r4, r1]
100018cc:	7199      	strb	r1, [r3, #6]
100018ce:	79a1      	ldrb	r1, [r4, #6]
100018d0:	297f      	cmp	r1, #127	; 0x7f
100018d2:	d82b      	bhi.n	1000192c <irq_remove_handler+0x15c>
100018d4:	88a4      	ldrh	r4, [r4, #4]
100018d6:	1af9      	subs	r1, r7, r3
100018d8:	0564      	lsls	r4, r4, #21
100018da:	1524      	asrs	r4, r4, #20
100018dc:	4444      	add	r4, r8
100018de:	1909      	adds	r1, r1, r4
100018e0:	24e0      	movs	r4, #224	; 0xe0
100018e2:	0509      	lsls	r1, r1, #20
100018e4:	0d49      	lsrs	r1, r1, #21
100018e6:	0224      	lsls	r4, r4, #8
100018e8:	4321      	orrs	r1, r4
100018ea:	8099      	strh	r1, [r3, #4]
100018ec:	1812      	adds	r2, r2, r0
100018ee:	4b24      	ldr	r3, [pc, #144]	; (10001980 <irq_remove_handler+0x1b0>)
100018f0:	0092      	lsls	r2, r2, #2
100018f2:	18bf      	adds	r7, r7, r2
100018f4:	781a      	ldrb	r2, [r3, #0]
100018f6:	7018      	strb	r0, [r3, #0]
100018f8:	71ba      	strb	r2, [r7, #6]
100018fa:	e7cb      	b.n	10001894 <irq_remove_handler+0xc4>
100018fc:	9801      	ldr	r0, [sp, #4]
100018fe:	2800      	cmp	r0, #0
10001900:	d117      	bne.n	10001932 <irq_remove_handler+0x162>
10001902:	30ff      	adds	r0, #255	; 0xff
10001904:	7190      	strb	r0, [r2, #6]
10001906:	481f      	ldr	r0, [pc, #124]	; (10001984 <irq_remove_handler+0x1b4>)
10001908:	8090      	strh	r0, [r2, #4]
1000190a:	4a1d      	ldr	r2, [pc, #116]	; (10001980 <irq_remove_handler+0x1b0>)
1000190c:	1bcf      	subs	r7, r1, r7
1000190e:	7810      	ldrb	r0, [r2, #0]
10001910:	10bf      	asrs	r7, r7, #2
10001912:	7198      	strb	r0, [r3, #6]
10001914:	00bb      	lsls	r3, r7, #2
10001916:	19db      	adds	r3, r3, r7
10001918:	0119      	lsls	r1, r3, #4
1000191a:	185b      	adds	r3, r3, r1
1000191c:	0219      	lsls	r1, r3, #8
1000191e:	185b      	adds	r3, r3, r1
10001920:	0419      	lsls	r1, r3, #16
10001922:	185b      	adds	r3, r3, r1
10001924:	005b      	lsls	r3, r3, #1
10001926:	19db      	adds	r3, r3, r7
10001928:	7013      	strb	r3, [r2, #0]
1000192a:	e7b3      	b.n	10001894 <irq_remove_handler+0xc4>
1000192c:	21bd      	movs	r1, #189	; 0xbd
1000192e:	0209      	lsls	r1, r1, #8
10001930:	e7db      	b.n	100018ea <irq_remove_handler+0x11a>
10001932:	4a15      	ldr	r2, [pc, #84]	; (10001988 <irq_remove_handler+0x1b8>)
10001934:	4915      	ldr	r1, [pc, #84]	; (1000198c <irq_remove_handler+0x1bc>)
10001936:	1ad2      	subs	r2, r2, r3
10001938:	3a08      	subs	r2, #8
1000193a:	0250      	lsls	r0, r2, #9
1000193c:	0d40      	lsrs	r0, r0, #21
1000193e:	4301      	orrs	r1, r0
10001940:	8099      	strh	r1, [r3, #4]
10001942:	4913      	ldr	r1, [pc, #76]	; (10001990 <irq_remove_handler+0x1c0>)
10001944:	0852      	lsrs	r2, r2, #1
10001946:	430a      	orrs	r2, r1
10001948:	80da      	strh	r2, [r3, #6]
1000194a:	e7a3      	b.n	10001894 <irq_remove_handler+0xc4>
1000194c:	2006      	movs	r0, #6
1000194e:	5608      	ldrsb	r0, [r1, r0]
10001950:	000b      	movs	r3, r1
10001952:	2800      	cmp	r0, #0
10001954:	daaf      	bge.n	100018b6 <irq_remove_handler+0xe6>
10001956:	9a01      	ldr	r2, [sp, #4]
10001958:	2a00      	cmp	r2, #0
1000195a:	d1ea      	bne.n	10001932 <irq_remove_handler+0x162>
1000195c:	000b      	movs	r3, r1
1000195e:	4645      	mov	r5, r8
10001960:	e7d3      	b.n	1000190a <irq_remove_handler+0x13a>
10001962:	46c0      	nop			; (mov r8, r8)
10001964:	d0000124 	.word	0xd0000124
10001968:	e000ed00 	.word	0xe000ed00
1000196c:	100002cd 	.word	0x100002cd
10001970:	2000018c 	.word	0x2000018c
10001974:	e000e100 	.word	0xe000e100
10001978:	e000e180 	.word	0xe000e180
1000197c:	e000e280 	.word	0xe000e280
10001980:	20000b29 	.word	0x20000b29
10001984:	ffffbd00 	.word	0xffffbd00
10001988:	200001c6 	.word	0x200001c6
1000198c:	fffff000 	.word	0xfffff000
10001990:	fffff800 	.word	0xfffff800

10001994 <irq_add_tail_to_free_list>:
10001994:	b5f8      	push	{r3, r4, r5, r6, r7, lr}
10001996:	2501      	movs	r5, #1
10001998:	0004      	movs	r4, r0
1000199a:	4305      	orrs	r5, r0
1000199c:	f7fe fbfb 	bl	10000196 <__get_current_exception>
100019a0:	f3ef 8610 	mrs	r6, PRIMASK
100019a4:	b672      	cpsid	i
100019a6:	4a24      	ldr	r2, [pc, #144]	; (10001a38 <irq_add_tail_to_free_list+0xa4>)
100019a8:	6813      	ldr	r3, [r2, #0]
100019aa:	2b00      	cmp	r3, #0
100019ac:	d0fc      	beq.n	100019a8 <irq_add_tail_to_free_list+0x14>
100019ae:	f3bf 8f5f 	dmb	sy
100019b2:	4f22      	ldr	r7, [pc, #136]	; (10001a3c <irq_add_tail_to_free_list+0xa8>)
100019b4:	0080      	lsls	r0, r0, #2
100019b6:	1be1      	subs	r1, r4, r7
100019b8:	1089      	asrs	r1, r1, #2
100019ba:	008a      	lsls	r2, r1, #2
100019bc:	1852      	adds	r2, r2, r1
100019be:	0113      	lsls	r3, r2, #4
100019c0:	18d2      	adds	r2, r2, r3
100019c2:	0213      	lsls	r3, r2, #8
100019c4:	18d2      	adds	r2, r2, r3
100019c6:	0413      	lsls	r3, r2, #16
100019c8:	18d3      	adds	r3, r2, r3
100019ca:	4a1d      	ldr	r2, [pc, #116]	; (10001a40 <irq_add_tail_to_free_list+0xac>)
100019cc:	005b      	lsls	r3, r3, #1
100019ce:	185b      	adds	r3, r3, r1
100019d0:	6891      	ldr	r1, [r2, #8]
100019d2:	5809      	ldr	r1, [r1, r0]
100019d4:	42a9      	cmp	r1, r5
100019d6:	d01c      	beq.n	10001a12 <irq_add_tail_to_free_list+0x7e>
100019d8:	2206      	movs	r2, #6
100019da:	56ba      	ldrsb	r2, [r7, r2]
100019dc:	4293      	cmp	r3, r2
100019de:	d01c      	beq.n	10001a1a <irq_add_tail_to_free_list+0x86>
100019e0:	2212      	movs	r2, #18
100019e2:	56ba      	ldrsb	r2, [r7, r2]
100019e4:	4293      	cmp	r3, r2
100019e6:	d022      	beq.n	10001a2e <irq_add_tail_to_free_list+0x9a>
100019e8:	221e      	movs	r2, #30
100019ea:	56ba      	ldrsb	r2, [r7, r2]
100019ec:	4293      	cmp	r3, r2
100019ee:	d020      	beq.n	10001a32 <irq_add_tail_to_free_list+0x9e>
100019f0:	222a      	movs	r2, #42	; 0x2a
100019f2:	56ba      	ldrsb	r2, [r7, r2]
100019f4:	2103      	movs	r1, #3
100019f6:	429a      	cmp	r2, r3
100019f8:	d010      	beq.n	10001a1c <irq_add_tail_to_free_list+0x88>
100019fa:	4a12      	ldr	r2, [pc, #72]	; (10001a44 <irq_add_tail_to_free_list+0xb0>)
100019fc:	7811      	ldrb	r1, [r2, #0]
100019fe:	7013      	strb	r3, [r2, #0]
10001a00:	71a1      	strb	r1, [r4, #6]
10001a02:	f3bf 8f5f 	dmb	sy
10001a06:	2200      	movs	r2, #0
10001a08:	4b0b      	ldr	r3, [pc, #44]	; (10001a38 <irq_add_tail_to_free_list+0xa4>)
10001a0a:	601a      	str	r2, [r3, #0]
10001a0c:	f386 8810 	msr	PRIMASK, r6
10001a10:	bdf8      	pop	{r3, r4, r5, r6, r7, pc}
10001a12:	6892      	ldr	r2, [r2, #8]
10001a14:	490c      	ldr	r1, [pc, #48]	; (10001a48 <irq_add_tail_to_free_list+0xb4>)
10001a16:	5011      	str	r1, [r2, r0]
10001a18:	e7ef      	b.n	100019fa <irq_add_tail_to_free_list+0x66>
10001a1a:	2100      	movs	r1, #0
10001a1c:	004a      	lsls	r2, r1, #1
10001a1e:	1852      	adds	r2, r2, r1
10001a20:	21ff      	movs	r1, #255	; 0xff
10001a22:	0092      	lsls	r2, r2, #2
10001a24:	18ba      	adds	r2, r7, r2
10001a26:	7191      	strb	r1, [r2, #6]
10001a28:	4908      	ldr	r1, [pc, #32]	; (10001a4c <irq_add_tail_to_free_list+0xb8>)
10001a2a:	8091      	strh	r1, [r2, #4]
10001a2c:	e7e5      	b.n	100019fa <irq_add_tail_to_free_list+0x66>
10001a2e:	2101      	movs	r1, #1
10001a30:	e7f4      	b.n	10001a1c <irq_add_tail_to_free_list+0x88>
10001a32:	2102      	movs	r1, #2
10001a34:	e7f2      	b.n	10001a1c <irq_add_tail_to_free_list+0x88>
10001a36:	46c0      	nop			; (mov r8, r8)
10001a38:	d0000124 	.word	0xd0000124
10001a3c:	2000018c 	.word	0x2000018c
10001a40:	e000ed00 	.word	0xe000ed00
10001a44:	20000b29 	.word	0x20000b29
10001a48:	100002cd 	.word	0x100002cd
10001a4c:	ffffbd00 	.word	0xffffbd00

10001a50 <irq_init_priorities>:
10001a50:	b5f0      	push	{r4, r5, r6, r7, lr}
10001a52:	2200      	movs	r2, #0
10001a54:	2403      	movs	r4, #3
10001a56:	27ff      	movs	r7, #255	; 0xff
10001a58:	2680      	movs	r6, #128	; 0x80
10001a5a:	0020      	movs	r0, r4
10001a5c:	003d      	movs	r5, r7
10001a5e:	4b09      	ldr	r3, [pc, #36]	; (10001a84 <irq_init_priorities+0x34>)
10001a60:	0011      	movs	r1, r2
10001a62:	469c      	mov	ip, r3
10001a64:	4010      	ands	r0, r2
10001a66:	00c0      	lsls	r0, r0, #3
10001a68:	4085      	lsls	r5, r0
10001a6a:	43a1      	bics	r1, r4
10001a6c:	4461      	add	r1, ip
10001a6e:	680b      	ldr	r3, [r1, #0]
10001a70:	3201      	adds	r2, #1
10001a72:	43ab      	bics	r3, r5
10001a74:	0035      	movs	r5, r6
10001a76:	4085      	lsls	r5, r0
10001a78:	432b      	orrs	r3, r5
10001a7a:	600b      	str	r3, [r1, #0]
10001a7c:	2a20      	cmp	r2, #32
10001a7e:	d1ec      	bne.n	10001a5a <irq_init_priorities+0xa>
10001a80:	bdf0      	pop	{r4, r5, r6, r7, pc}
10001a82:	46c0      	nop			; (mov r8, r8)
10001a84:	e000e400 	.word	0xe000e400

10001a88 <_out_null>:
10001a88:	4770      	bx	lr
10001a8a:	46c0      	nop			; (mov r8, r8)

10001a8c <_out_rev>:
10001a8c:	b5f8      	push	{r3, r4, r5, r6, r7, lr}
10001a8e:	4657      	mov	r7, sl
10001a90:	464e      	mov	r6, r9
10001a92:	46de      	mov	lr, fp
10001a94:	4645      	mov	r5, r8
10001a96:	b5e0      	push	{r5, r6, r7, lr}
10001a98:	001f      	movs	r7, r3
10001a9a:	9b0a      	ldr	r3, [sp, #40]	; 0x28
10001a9c:	0005      	movs	r5, r0
10001a9e:	469b      	mov	fp, r3
10001aa0:	9b0d      	ldr	r3, [sp, #52]	; 0x34
10001aa2:	000e      	movs	r6, r1
10001aa4:	4691      	mov	r9, r2
10001aa6:	4692      	mov	sl, r2
10001aa8:	079b      	lsls	r3, r3, #30
10001aaa:	d118      	bne.n	10001ade <_out_rev+0x52>
10001aac:	9b0b      	ldr	r3, [sp, #44]	; 0x2c
10001aae:	9a0c      	ldr	r2, [sp, #48]	; 0x30
10001ab0:	4293      	cmp	r3, r2
10001ab2:	d214      	bcs.n	10001ade <_out_rev+0x52>
10001ab4:	0013      	movs	r3, r2
10001ab6:	9a0b      	ldr	r2, [sp, #44]	; 0x2c
10001ab8:	46b8      	mov	r8, r7
10001aba:	1a9b      	subs	r3, r3, r2
10001abc:	444b      	add	r3, r9
10001abe:	464c      	mov	r4, r9
10001ac0:	000f      	movs	r7, r1
10001ac2:	0006      	movs	r6, r0
10001ac4:	001d      	movs	r5, r3
10001ac6:	0022      	movs	r2, r4
10001ac8:	4643      	mov	r3, r8
10001aca:	3401      	adds	r4, #1
10001acc:	0039      	movs	r1, r7
10001ace:	2020      	movs	r0, #32
10001ad0:	47b0      	blx	r6
10001ad2:	42ac      	cmp	r4, r5
10001ad4:	d1f7      	bne.n	10001ac6 <_out_rev+0x3a>
10001ad6:	46aa      	mov	sl, r5
10001ad8:	0035      	movs	r5, r6
10001ada:	003e      	movs	r6, r7
10001adc:	4647      	mov	r7, r8
10001ade:	9b0b      	ldr	r3, [sp, #44]	; 0x2c
10001ae0:	2b00      	cmp	r3, #0
10001ae2:	d038      	beq.n	10001b56 <_out_rev+0xca>
10001ae4:	449a      	add	sl, r3
10001ae6:	001c      	movs	r4, r3
10001ae8:	46d0      	mov	r8, sl
10001aea:	4653      	mov	r3, sl
10001aec:	1b1a      	subs	r2, r3, r4
10001aee:	465b      	mov	r3, fp
10001af0:	3c01      	subs	r4, #1
10001af2:	5d18      	ldrb	r0, [r3, r4]
10001af4:	0031      	movs	r1, r6
10001af6:	003b      	movs	r3, r7
10001af8:	47a8      	blx	r5
10001afa:	2c00      	cmp	r4, #0
10001afc:	d1f5      	bne.n	10001aea <_out_rev+0x5e>
10001afe:	9b0d      	ldr	r3, [sp, #52]	; 0x34
10001b00:	079b      	lsls	r3, r3, #30
10001b02:	d521      	bpl.n	10001b48 <_out_rev+0xbc>
10001b04:	4643      	mov	r3, r8
10001b06:	464a      	mov	r2, r9
10001b08:	1a9c      	subs	r4, r3, r2
10001b0a:	9b0c      	ldr	r3, [sp, #48]	; 0x30
10001b0c:	42a3      	cmp	r3, r4
10001b0e:	d91b      	bls.n	10001b48 <_out_rev+0xbc>
10001b10:	003a      	movs	r2, r7
10001b12:	469a      	mov	sl, r3
10001b14:	464f      	mov	r7, r9
10001b16:	4691      	mov	r9, r2
10001b18:	19e2      	adds	r2, r4, r7
10001b1a:	464b      	mov	r3, r9
10001b1c:	0031      	movs	r1, r6
10001b1e:	2020      	movs	r0, #32
10001b20:	3401      	adds	r4, #1
10001b22:	47a8      	blx	r5
10001b24:	4554      	cmp	r4, sl
10001b26:	d3f7      	bcc.n	10001b18 <_out_rev+0x8c>
10001b28:	4643      	mov	r3, r8
10001b2a:	990c      	ldr	r1, [sp, #48]	; 0x30
10001b2c:	1bdb      	subs	r3, r3, r7
10001b2e:	3301      	adds	r3, #1
10001b30:	46b9      	mov	r9, r7
10001b32:	2200      	movs	r2, #0
10001b34:	4299      	cmp	r1, r3
10001b36:	d303      	bcc.n	10001b40 <_out_rev+0xb4>
10001b38:	4643      	mov	r3, r8
10001b3a:	1e4a      	subs	r2, r1, #1
10001b3c:	444a      	add	r2, r9
10001b3e:	1ad2      	subs	r2, r2, r3
10001b40:	4643      	mov	r3, r8
10001b42:	4690      	mov	r8, r2
10001b44:	3301      	adds	r3, #1
10001b46:	4498      	add	r8, r3
10001b48:	4640      	mov	r0, r8
10001b4a:	bc3c      	pop	{r2, r3, r4, r5}
10001b4c:	4690      	mov	r8, r2
10001b4e:	4699      	mov	r9, r3
10001b50:	46a2      	mov	sl, r4
10001b52:	46ab      	mov	fp, r5
10001b54:	bdf8      	pop	{r3, r4, r5, r6, r7, pc}
10001b56:	46d0      	mov	r8, sl
10001b58:	e7d1      	b.n	10001afe <_out_rev+0x72>
10001b5a:	46c0      	nop			; (mov r8, r8)

10001b5c <_ntoa_format>:
10001b5c:	b5f0      	push	{r4, r5, r6, r7, lr}
10001b5e:	464f      	mov	r7, r9
10001b60:	4646      	mov	r6, r8
10001b62:	46d6      	mov	lr, sl
10001b64:	b5c0      	push	{r6, r7, lr}
10001b66:	b084      	sub	sp, #16
10001b68:	4698      	mov	r8, r3
10001b6a:	ab0e      	add	r3, sp, #56	; 0x38
10001b6c:	781b      	ldrb	r3, [r3, #0]
10001b6e:	9f12      	ldr	r7, [sp, #72]	; 0x48
10001b70:	4699      	mov	r9, r3
10001b72:	4694      	mov	ip, r2
10001b74:	9c0d      	ldr	r4, [sp, #52]	; 0x34
10001b76:	9b10      	ldr	r3, [sp, #64]	; 0x40
10001b78:	9e11      	ldr	r6, [sp, #68]	; 0x44
10001b7a:	07ba      	lsls	r2, r7, #30
10001b7c:	d425      	bmi.n	10001bca <_ntoa_format+0x6e>
10001b7e:	2e00      	cmp	r6, #0
10001b80:	d169      	bne.n	10001c56 <_ntoa_format+0xfa>
10001b82:	429c      	cmp	r4, r3
10001b84:	d300      	bcc.n	10001b88 <_ntoa_format+0x2c>
10001b86:	e0c2      	b.n	10001d0e <_ntoa_format+0x1b2>
10001b88:	2201      	movs	r2, #1
10001b8a:	403a      	ands	r2, r7
10001b8c:	4692      	mov	sl, r2
10001b8e:	2c1f      	cmp	r4, #31
10001b90:	d900      	bls.n	10001b94 <_ntoa_format+0x38>
10001b92:	e0bb      	b.n	10001d0c <_ntoa_format+0x1b0>
10001b94:	9a0c      	ldr	r2, [sp, #48]	; 0x30
10001b96:	1e55      	subs	r5, r2, #1
10001b98:	2230      	movs	r2, #48	; 0x30
10001b9a:	e001      	b.n	10001ba0 <_ntoa_format+0x44>
10001b9c:	2c20      	cmp	r4, #32
10001b9e:	d003      	beq.n	10001ba8 <_ntoa_format+0x4c>
10001ba0:	3401      	adds	r4, #1
10001ba2:	552a      	strb	r2, [r5, r4]
10001ba4:	42a3      	cmp	r3, r4
10001ba6:	d8f9      	bhi.n	10001b9c <_ntoa_format+0x40>
10001ba8:	4652      	mov	r2, sl
10001baa:	2a00      	cmp	r2, #0
10001bac:	d00d      	beq.n	10001bca <_ntoa_format+0x6e>
10001bae:	42b4      	cmp	r4, r6
10001bb0:	d20b      	bcs.n	10001bca <_ntoa_format+0x6e>
10001bb2:	2c1f      	cmp	r4, #31
10001bb4:	d862      	bhi.n	10001c7c <_ntoa_format+0x120>
10001bb6:	9a0c      	ldr	r2, [sp, #48]	; 0x30
10001bb8:	1e55      	subs	r5, r2, #1
10001bba:	2230      	movs	r2, #48	; 0x30
10001bbc:	e001      	b.n	10001bc2 <_ntoa_format+0x66>
10001bbe:	2c20      	cmp	r4, #32
10001bc0:	d05c      	beq.n	10001c7c <_ntoa_format+0x120>
10001bc2:	3401      	adds	r4, #1
10001bc4:	552a      	strb	r2, [r5, r4]
10001bc6:	42b4      	cmp	r4, r6
10001bc8:	d1f9      	bne.n	10001bbe <_ntoa_format+0x62>
10001bca:	06fa      	lsls	r2, r7, #27
10001bcc:	d535      	bpl.n	10001c3a <_ntoa_format+0xde>
10001bce:	057a      	lsls	r2, r7, #21
10001bd0:	d45d      	bmi.n	10001c8e <_ntoa_format+0x132>
10001bd2:	2c00      	cmp	r4, #0
10001bd4:	d157      	bne.n	10001c86 <_ntoa_format+0x12a>
10001bd6:	9b0f      	ldr	r3, [sp, #60]	; 0x3c
10001bd8:	2b10      	cmp	r3, #16
10001bda:	d100      	bne.n	10001bde <_ntoa_format+0x82>
10001bdc:	e07c      	b.n	10001cd8 <_ntoa_format+0x17c>
10001bde:	9b0f      	ldr	r3, [sp, #60]	; 0x3c
10001be0:	2b02      	cmp	r3, #2
10001be2:	d100      	bne.n	10001be6 <_ntoa_format+0x8a>
10001be4:	e08d      	b.n	10001d02 <_ntoa_format+0x1a6>
10001be6:	2330      	movs	r3, #48	; 0x30
10001be8:	9a0c      	ldr	r2, [sp, #48]	; 0x30
10001bea:	2401      	movs	r4, #1
10001bec:	7013      	strb	r3, [r2, #0]
10001bee:	464b      	mov	r3, r9
10001bf0:	2b00      	cmp	r3, #0
10001bf2:	d027      	beq.n	10001c44 <_ntoa_format+0xe8>
10001bf4:	232d      	movs	r3, #45	; 0x2d
10001bf6:	9a0c      	ldr	r2, [sp, #48]	; 0x30
10001bf8:	5513      	strb	r3, [r2, r4]
10001bfa:	3401      	adds	r4, #1
10001bfc:	9b0c      	ldr	r3, [sp, #48]	; 0x30
10001bfe:	4662      	mov	r2, ip
10001c00:	9300      	str	r3, [sp, #0]
10001c02:	9703      	str	r7, [sp, #12]
10001c04:	4643      	mov	r3, r8
10001c06:	9602      	str	r6, [sp, #8]
10001c08:	9401      	str	r4, [sp, #4]
10001c0a:	f7ff ff3f 	bl	10001a8c <_out_rev>
10001c0e:	b004      	add	sp, #16
10001c10:	bc1c      	pop	{r2, r3, r4}
10001c12:	4690      	mov	r8, r2
10001c14:	4699      	mov	r9, r3
10001c16:	46a2      	mov	sl, r4
10001c18:	bdf0      	pop	{r4, r5, r6, r7, pc}
10001c1a:	06bb      	lsls	r3, r7, #26
10001c1c:	d463      	bmi.n	10001ce6 <_ntoa_format+0x18a>
10001c1e:	2c20      	cmp	r4, #32
10001c20:	d0ec      	beq.n	10001bfc <_ntoa_format+0xa0>
10001c22:	9b0c      	ldr	r3, [sp, #48]	; 0x30
10001c24:	191a      	adds	r2, r3, r4
10001c26:	3401      	adds	r4, #1
10001c28:	2378      	movs	r3, #120	; 0x78
10001c2a:	7013      	strb	r3, [r2, #0]
10001c2c:	2c20      	cmp	r4, #32
10001c2e:	d0e5      	beq.n	10001bfc <_ntoa_format+0xa0>
10001c30:	2230      	movs	r2, #48	; 0x30
10001c32:	9b0c      	ldr	r3, [sp, #48]	; 0x30
10001c34:	191b      	adds	r3, r3, r4
10001c36:	701a      	strb	r2, [r3, #0]
10001c38:	3401      	adds	r4, #1
10001c3a:	2c20      	cmp	r4, #32
10001c3c:	d0de      	beq.n	10001bfc <_ntoa_format+0xa0>
10001c3e:	464b      	mov	r3, r9
10001c40:	2b00      	cmp	r3, #0
10001c42:	d1d7      	bne.n	10001bf4 <_ntoa_format+0x98>
10001c44:	077b      	lsls	r3, r7, #29
10001c46:	d435      	bmi.n	10001cb4 <_ntoa_format+0x158>
10001c48:	073b      	lsls	r3, r7, #28
10001c4a:	d5d7      	bpl.n	10001bfc <_ntoa_format+0xa0>
10001c4c:	2320      	movs	r3, #32
10001c4e:	9a0c      	ldr	r2, [sp, #48]	; 0x30
10001c50:	5513      	strb	r3, [r2, r4]
10001c52:	3401      	adds	r4, #1
10001c54:	e7d2      	b.n	10001bfc <_ntoa_format+0xa0>
10001c56:	2201      	movs	r2, #1
10001c58:	0015      	movs	r5, r2
10001c5a:	403d      	ands	r5, r7
10001c5c:	46aa      	mov	sl, r5
10001c5e:	423a      	tst	r2, r7
10001c60:	d020      	beq.n	10001ca4 <_ntoa_format+0x148>
10001c62:	464a      	mov	r2, r9
10001c64:	2a00      	cmp	r2, #0
10001c66:	d12a      	bne.n	10001cbe <_ntoa_format+0x162>
10001c68:	320c      	adds	r2, #12
10001c6a:	423a      	tst	r2, r7
10001c6c:	d127      	bne.n	10001cbe <_ntoa_format+0x162>
10001c6e:	429c      	cmp	r4, r3
10001c70:	d29d      	bcs.n	10001bae <_ntoa_format+0x52>
10001c72:	2c1f      	cmp	r4, #31
10001c74:	d800      	bhi.n	10001c78 <_ntoa_format+0x11c>
10001c76:	e78d      	b.n	10001b94 <_ntoa_format+0x38>
10001c78:	2e20      	cmp	r6, #32
10001c7a:	d919      	bls.n	10001cb0 <_ntoa_format+0x154>
10001c7c:	2420      	movs	r4, #32
10001c7e:	06fa      	lsls	r2, r7, #27
10001c80:	d5bc      	bpl.n	10001bfc <_ntoa_format+0xa0>
10001c82:	057a      	lsls	r2, r7, #21
10001c84:	d403      	bmi.n	10001c8e <_ntoa_format+0x132>
10001c86:	42a3      	cmp	r3, r4
10001c88:	d01b      	beq.n	10001cc2 <_ntoa_format+0x166>
10001c8a:	42a6      	cmp	r6, r4
10001c8c:	d019      	beq.n	10001cc2 <_ntoa_format+0x166>
10001c8e:	9b0f      	ldr	r3, [sp, #60]	; 0x3c
10001c90:	2b10      	cmp	r3, #16
10001c92:	d0c2      	beq.n	10001c1a <_ntoa_format+0xbe>
10001c94:	2b02      	cmp	r3, #2
10001c96:	d1c9      	bne.n	10001c2c <_ntoa_format+0xd0>
10001c98:	2c20      	cmp	r4, #32
10001c9a:	d0af      	beq.n	10001bfc <_ntoa_format+0xa0>
10001c9c:	9b0c      	ldr	r3, [sp, #48]	; 0x30
10001c9e:	191b      	adds	r3, r3, r4
10001ca0:	3401      	adds	r4, #1
10001ca2:	e040      	b.n	10001d26 <_ntoa_format+0x1ca>
10001ca4:	429c      	cmp	r4, r3
10001ca6:	d300      	bcc.n	10001caa <_ntoa_format+0x14e>
10001ca8:	e78f      	b.n	10001bca <_ntoa_format+0x6e>
10001caa:	2c1f      	cmp	r4, #31
10001cac:	d800      	bhi.n	10001cb0 <_ntoa_format+0x154>
10001cae:	e771      	b.n	10001b94 <_ntoa_format+0x38>
10001cb0:	2420      	movs	r4, #32
10001cb2:	e78a      	b.n	10001bca <_ntoa_format+0x6e>
10001cb4:	232b      	movs	r3, #43	; 0x2b
10001cb6:	9a0c      	ldr	r2, [sp, #48]	; 0x30
10001cb8:	5513      	strb	r3, [r2, r4]
10001cba:	3401      	adds	r4, #1
10001cbc:	e79e      	b.n	10001bfc <_ntoa_format+0xa0>
10001cbe:	3e01      	subs	r6, #1
10001cc0:	e7d5      	b.n	10001c6e <_ntoa_format+0x112>
10001cc2:	1e63      	subs	r3, r4, #1
10001cc4:	2c01      	cmp	r4, #1
10001cc6:	d100      	bne.n	10001cca <_ntoa_format+0x16e>
10001cc8:	e785      	b.n	10001bd6 <_ntoa_format+0x7a>
10001cca:	9a0f      	ldr	r2, [sp, #60]	; 0x3c
10001ccc:	2a10      	cmp	r2, #16
10001cce:	d020      	beq.n	10001d12 <_ntoa_format+0x1b6>
10001cd0:	2a02      	cmp	r2, #2
10001cd2:	d025      	beq.n	10001d20 <_ntoa_format+0x1c4>
10001cd4:	001c      	movs	r4, r3
10001cd6:	e7ab      	b.n	10001c30 <_ntoa_format+0xd4>
10001cd8:	06bb      	lsls	r3, r7, #26
10001cda:	d40d      	bmi.n	10001cf8 <_ntoa_format+0x19c>
10001cdc:	2378      	movs	r3, #120	; 0x78
10001cde:	9a0c      	ldr	r2, [sp, #48]	; 0x30
10001ce0:	2401      	movs	r4, #1
10001ce2:	7013      	strb	r3, [r2, #0]
10001ce4:	e7a4      	b.n	10001c30 <_ntoa_format+0xd4>
10001ce6:	2c20      	cmp	r4, #32
10001ce8:	d100      	bne.n	10001cec <_ntoa_format+0x190>
10001cea:	e787      	b.n	10001bfc <_ntoa_format+0xa0>
10001cec:	2258      	movs	r2, #88	; 0x58
10001cee:	9b0c      	ldr	r3, [sp, #48]	; 0x30
10001cf0:	191b      	adds	r3, r3, r4
10001cf2:	701a      	strb	r2, [r3, #0]
10001cf4:	3401      	adds	r4, #1
10001cf6:	e799      	b.n	10001c2c <_ntoa_format+0xd0>
10001cf8:	2358      	movs	r3, #88	; 0x58
10001cfa:	9a0c      	ldr	r2, [sp, #48]	; 0x30
10001cfc:	2401      	movs	r4, #1
10001cfe:	7013      	strb	r3, [r2, #0]
10001d00:	e796      	b.n	10001c30 <_ntoa_format+0xd4>
10001d02:	9a0c      	ldr	r2, [sp, #48]	; 0x30
10001d04:	3360      	adds	r3, #96	; 0x60
10001d06:	2401      	movs	r4, #1
10001d08:	7013      	strb	r3, [r2, #0]
10001d0a:	e791      	b.n	10001c30 <_ntoa_format+0xd4>
10001d0c:	2420      	movs	r4, #32
10001d0e:	2600      	movs	r6, #0
10001d10:	e75b      	b.n	10001bca <_ntoa_format+0x6e>
10001d12:	3c02      	subs	r4, #2
10001d14:	06ba      	lsls	r2, r7, #26
10001d16:	d4e9      	bmi.n	10001cec <_ntoa_format+0x190>
10001d18:	9a0c      	ldr	r2, [sp, #48]	; 0x30
10001d1a:	1912      	adds	r2, r2, r4
10001d1c:	001c      	movs	r4, r3
10001d1e:	e783      	b.n	10001c28 <_ntoa_format+0xcc>
10001d20:	9a0c      	ldr	r2, [sp, #48]	; 0x30
10001d22:	4692      	mov	sl, r2
10001d24:	4453      	add	r3, sl
10001d26:	2262      	movs	r2, #98	; 0x62
10001d28:	701a      	strb	r2, [r3, #0]
10001d2a:	e77f      	b.n	10001c2c <_ntoa_format+0xd0>

10001d2c <_out_char>:
10001d2c:	b510      	push	{r4, lr}
10001d2e:	2800      	cmp	r0, #0
10001d30:	d100      	bne.n	10001d34 <_out_char+0x8>
10001d32:	bd10      	pop	{r4, pc}
10001d34:	f002 fa46 	bl	100041c4 <__wrap_putchar>
10001d38:	e7fb      	b.n	10001d32 <_out_char+0x6>
10001d3a:	46c0      	nop			; (mov r8, r8)

10001d3c <_out_fct>:
10001d3c:	000b      	movs	r3, r1
10001d3e:	b510      	push	{r4, lr}
10001d40:	2800      	cmp	r0, #0
10001d42:	d002      	beq.n	10001d4a <_out_fct+0xe>
10001d44:	6849      	ldr	r1, [r1, #4]
10001d46:	681b      	ldr	r3, [r3, #0]
10001d48:	4798      	blx	r3
10001d4a:	bd10      	pop	{r4, pc}

10001d4c <_etoa>:
10001d4c:	b5f0      	push	{r4, r5, r6, r7, lr}
10001d4e:	46de      	mov	lr, fp
10001d50:	4657      	mov	r7, sl
10001d52:	464e      	mov	r6, r9
10001d54:	4645      	mov	r5, r8
10001d56:	b5e0      	push	{r5, r6, r7, lr}
10001d58:	b09b      	sub	sp, #108	; 0x6c
10001d5a:	469a      	mov	sl, r3
10001d5c:	9b24      	ldr	r3, [sp, #144]	; 0x90
10001d5e:	468b      	mov	fp, r1
10001d60:	4699      	mov	r9, r3
10001d62:	9b25      	ldr	r3, [sp, #148]	; 0x94
10001d64:	900b      	str	r0, [sp, #44]	; 0x2c
10001d66:	4698      	mov	r8, r3
10001d68:	920c      	str	r2, [sp, #48]	; 0x30
10001d6a:	4643      	mov	r3, r8
10001d6c:	464a      	mov	r2, r9
10001d6e:	4648      	mov	r0, r9
10001d70:	4641      	mov	r1, r8
10001d72:	f001 fccc 	bl	1000370e <__wrap___aeabi_dcmpun>
10001d76:	2800      	cmp	r0, #0
10001d78:	d000      	beq.n	10001d7c <_etoa+0x30>
10001d7a:	e1a3      	b.n	100020c4 <_etoa+0x378>
10001d7c:	2201      	movs	r2, #1
10001d7e:	4648      	mov	r0, r9
10001d80:	4641      	mov	r1, r8
10001d82:	4be2      	ldr	r3, [pc, #904]	; (1000210c <_etoa+0x3c0>)
10001d84:	4252      	negs	r2, r2
10001d86:	f001 fcbd 	bl	10003704 <__wrap___aeabi_dcmpgt>
10001d8a:	2800      	cmp	r0, #0
10001d8c:	d000      	beq.n	10001d90 <_etoa+0x44>
10001d8e:	e199      	b.n	100020c4 <_etoa+0x378>
10001d90:	2201      	movs	r2, #1
10001d92:	4648      	mov	r0, r9
10001d94:	4641      	mov	r1, r8
10001d96:	4bde      	ldr	r3, [pc, #888]	; (10002110 <_etoa+0x3c4>)
10001d98:	4252      	negs	r2, r2
10001d9a:	f001 fc9d 	bl	100036d8 <__wrap___aeabi_dcmplt>
10001d9e:	2800      	cmp	r0, #0
10001da0:	d000      	beq.n	10001da4 <_etoa+0x58>
10001da2:	e18f      	b.n	100020c4 <_etoa+0x378>
10001da4:	2200      	movs	r2, #0
10001da6:	2300      	movs	r3, #0
10001da8:	4648      	mov	r0, r9
10001daa:	4641      	mov	r1, r8
10001dac:	f001 fc94 	bl	100036d8 <__wrap___aeabi_dcmplt>
10001db0:	2800      	cmp	r0, #0
10001db2:	d000      	beq.n	10001db6 <_etoa+0x6a>
10001db4:	e1de      	b.n	10002174 <_etoa+0x428>
10001db6:	464a      	mov	r2, r9
10001db8:	4643      	mov	r3, r8
10001dba:	920a      	str	r2, [sp, #40]	; 0x28
10001dbc:	9309      	str	r3, [sp, #36]	; 0x24
10001dbe:	2380      	movs	r3, #128	; 0x80
10001dc0:	9a28      	ldr	r2, [sp, #160]	; 0xa0
10001dc2:	00db      	lsls	r3, r3, #3
10001dc4:	401a      	ands	r2, r3
10001dc6:	9211      	str	r2, [sp, #68]	; 0x44
10001dc8:	9a28      	ldr	r2, [sp, #160]	; 0xa0
10001dca:	421a      	tst	r2, r3
10001dcc:	d101      	bne.n	10001dd2 <_etoa+0x86>
10001dce:	2306      	movs	r3, #6
10001dd0:	9326      	str	r3, [sp, #152]	; 0x98
10001dd2:	4bd0      	ldr	r3, [pc, #832]	; (10002114 <_etoa+0x3c8>)
10001dd4:	9f09      	ldr	r7, [sp, #36]	; 0x24
10001dd6:	469c      	mov	ip, r3
10001dd8:	0078      	lsls	r0, r7, #1
10001dda:	0d40      	lsrs	r0, r0, #21
10001ddc:	4460      	add	r0, ip
10001dde:	f001 fca9 	bl	10003734 <__wrap___aeabi_i2d>
10001de2:	4acd      	ldr	r2, [pc, #820]	; (10002118 <_etoa+0x3cc>)
10001de4:	4bcd      	ldr	r3, [pc, #820]	; (1000211c <_etoa+0x3d0>)
10001de6:	f001 fc35 	bl	10003654 <__wrap___aeabi_dmul>
10001dea:	4acd      	ldr	r2, [pc, #820]	; (10002120 <_etoa+0x3d4>)
10001dec:	4bcd      	ldr	r3, [pc, #820]	; (10002124 <_etoa+0x3d8>)
10001dee:	f001 fc1f 	bl	10003630 <__wrap___aeabi_dadd>
10001df2:	033b      	lsls	r3, r7, #12
10001df4:	4acc      	ldr	r2, [pc, #816]	; (10002128 <_etoa+0x3dc>)
10001df6:	9e0a      	ldr	r6, [sp, #40]	; 0x28
10001df8:	0b1b      	lsrs	r3, r3, #12
10001dfa:	431a      	orrs	r2, r3
10001dfc:	0004      	movs	r4, r0
10001dfe:	000d      	movs	r5, r1
10001e00:	0030      	movs	r0, r6
10001e02:	0011      	movs	r1, r2
10001e04:	4bc9      	ldr	r3, [pc, #804]	; (1000212c <_etoa+0x3e0>)
10001e06:	2200      	movs	r2, #0
10001e08:	9709      	str	r7, [sp, #36]	; 0x24
10001e0a:	f001 fc08 	bl	1000361e <__wrap___aeabi_dsub>
10001e0e:	4ac8      	ldr	r2, [pc, #800]	; (10002130 <_etoa+0x3e4>)
10001e10:	4bc8      	ldr	r3, [pc, #800]	; (10002134 <_etoa+0x3e8>)
10001e12:	f001 fc1f 	bl	10003654 <__wrap___aeabi_dmul>
10001e16:	0002      	movs	r2, r0
10001e18:	000b      	movs	r3, r1
10001e1a:	0020      	movs	r0, r4
10001e1c:	0029      	movs	r1, r5
10001e1e:	f001 fc07 	bl	10003630 <__wrap___aeabi_dadd>
10001e22:	f001 fc9f 	bl	10003764 <__wrap___aeabi_d2iz>
10001e26:	900d      	str	r0, [sp, #52]	; 0x34
10001e28:	f001 fc84 	bl	10003734 <__wrap___aeabi_i2d>
10001e2c:	4ac2      	ldr	r2, [pc, #776]	; (10002138 <_etoa+0x3ec>)
10001e2e:	4bc3      	ldr	r3, [pc, #780]	; (1000213c <_etoa+0x3f0>)
10001e30:	0004      	movs	r4, r0
10001e32:	000d      	movs	r5, r1
10001e34:	f001 fc0e 	bl	10003654 <__wrap___aeabi_dmul>
10001e38:	2200      	movs	r2, #0
10001e3a:	4bc1      	ldr	r3, [pc, #772]	; (10002140 <_etoa+0x3f4>)
10001e3c:	f001 fbf8 	bl	10003630 <__wrap___aeabi_dadd>
10001e40:	f001 fc90 	bl	10003764 <__wrap___aeabi_d2iz>
10001e44:	4abf      	ldr	r2, [pc, #764]	; (10002144 <_etoa+0x3f8>)
10001e46:	0006      	movs	r6, r0
10001e48:	4bbf      	ldr	r3, [pc, #764]	; (10002148 <_etoa+0x3fc>)
10001e4a:	0020      	movs	r0, r4
10001e4c:	0029      	movs	r1, r5
10001e4e:	f001 fc01 	bl	10003654 <__wrap___aeabi_dmul>
10001e52:	0004      	movs	r4, r0
10001e54:	0030      	movs	r0, r6
10001e56:	000d      	movs	r5, r1
10001e58:	9610      	str	r6, [sp, #64]	; 0x40
10001e5a:	f001 fc6b 	bl	10003734 <__wrap___aeabi_i2d>
10001e5e:	4abb      	ldr	r2, [pc, #748]	; (1000214c <_etoa+0x400>)
10001e60:	4bbb      	ldr	r3, [pc, #748]	; (10002150 <_etoa+0x404>)
10001e62:	f001 fbf7 	bl	10003654 <__wrap___aeabi_dmul>
10001e66:	0002      	movs	r2, r0
10001e68:	000b      	movs	r3, r1
10001e6a:	0020      	movs	r0, r4
10001e6c:	0029      	movs	r1, r5
10001e6e:	f001 fbd6 	bl	1000361e <__wrap___aeabi_dsub>
10001e72:	0002      	movs	r2, r0
10001e74:	000b      	movs	r3, r1
10001e76:	0006      	movs	r6, r0
10001e78:	000f      	movs	r7, r1
10001e7a:	f001 fbeb 	bl	10003654 <__wrap___aeabi_dmul>
10001e7e:	0032      	movs	r2, r6
10001e80:	0004      	movs	r4, r0
10001e82:	000d      	movs	r5, r1
10001e84:	003b      	movs	r3, r7
10001e86:	0030      	movs	r0, r6
10001e88:	0039      	movs	r1, r7
10001e8a:	f001 fbd1 	bl	10003630 <__wrap___aeabi_dadd>
10001e8e:	2200      	movs	r2, #0
10001e90:	900e      	str	r0, [sp, #56]	; 0x38
10001e92:	910f      	str	r1, [sp, #60]	; 0x3c
10001e94:	4baf      	ldr	r3, [pc, #700]	; (10002154 <_etoa+0x408>)
10001e96:	0020      	movs	r0, r4
10001e98:	0029      	movs	r1, r5
10001e9a:	f001 fbd2 	bl	10003642 <__wrap___aeabi_ddiv>
10001e9e:	2200      	movs	r2, #0
10001ea0:	4bad      	ldr	r3, [pc, #692]	; (10002158 <_etoa+0x40c>)
10001ea2:	f001 fbc5 	bl	10003630 <__wrap___aeabi_dadd>
10001ea6:	0002      	movs	r2, r0
10001ea8:	000b      	movs	r3, r1
10001eaa:	0020      	movs	r0, r4
10001eac:	0029      	movs	r1, r5
10001eae:	f001 fbc8 	bl	10003642 <__wrap___aeabi_ddiv>
10001eb2:	2200      	movs	r2, #0
10001eb4:	4ba9      	ldr	r3, [pc, #676]	; (1000215c <_etoa+0x410>)
10001eb6:	f001 fbbb 	bl	10003630 <__wrap___aeabi_dadd>
10001eba:	0002      	movs	r2, r0
10001ebc:	000b      	movs	r3, r1
10001ebe:	0020      	movs	r0, r4
10001ec0:	0029      	movs	r1, r5
10001ec2:	f001 fbbe 	bl	10003642 <__wrap___aeabi_ddiv>
10001ec6:	000d      	movs	r5, r1
10001ec8:	2180      	movs	r1, #128	; 0x80
10001eca:	0004      	movs	r4, r0
10001ecc:	0032      	movs	r2, r6
10001ece:	003b      	movs	r3, r7
10001ed0:	2000      	movs	r0, #0
10001ed2:	05c9      	lsls	r1, r1, #23
10001ed4:	f001 fba3 	bl	1000361e <__wrap___aeabi_dsub>
10001ed8:	0002      	movs	r2, r0
10001eda:	000b      	movs	r3, r1
10001edc:	0020      	movs	r0, r4
10001ede:	0029      	movs	r1, r5
10001ee0:	f001 fba6 	bl	10003630 <__wrap___aeabi_dadd>
10001ee4:	0002      	movs	r2, r0
10001ee6:	000b      	movs	r3, r1
10001ee8:	980e      	ldr	r0, [sp, #56]	; 0x38
10001eea:	990f      	ldr	r1, [sp, #60]	; 0x3c
10001eec:	f001 fba9 	bl	10003642 <__wrap___aeabi_ddiv>
10001ef0:	2200      	movs	r2, #0
10001ef2:	4b8d      	ldr	r3, [pc, #564]	; (10002128 <_etoa+0x3dc>)
10001ef4:	f001 fb9c 	bl	10003630 <__wrap___aeabi_dadd>
10001ef8:	9b10      	ldr	r3, [sp, #64]	; 0x40
10001efa:	4a99      	ldr	r2, [pc, #612]	; (10002160 <_etoa+0x414>)
10001efc:	001c      	movs	r4, r3
10001efe:	4694      	mov	ip, r2
10001f00:	4464      	add	r4, ip
10001f02:	2200      	movs	r2, #0
10001f04:	0523      	lsls	r3, r4, #20
10001f06:	f001 fba5 	bl	10003654 <__wrap___aeabi_dmul>
10001f0a:	0006      	movs	r6, r0
10001f0c:	000f      	movs	r7, r1
10001f0e:	0002      	movs	r2, r0
10001f10:	000b      	movs	r3, r1
10001f12:	980a      	ldr	r0, [sp, #40]	; 0x28
10001f14:	9909      	ldr	r1, [sp, #36]	; 0x24
10001f16:	f001 fbdf 	bl	100036d8 <__wrap___aeabi_dcmplt>
10001f1a:	2800      	cmp	r0, #0
10001f1c:	d00a      	beq.n	10001f34 <_etoa+0x1e8>
10001f1e:	9b0d      	ldr	r3, [sp, #52]	; 0x34
10001f20:	0030      	movs	r0, r6
10001f22:	3b01      	subs	r3, #1
10001f24:	0039      	movs	r1, r7
10001f26:	930d      	str	r3, [sp, #52]	; 0x34
10001f28:	2200      	movs	r2, #0
10001f2a:	4b8b      	ldr	r3, [pc, #556]	; (10002158 <_etoa+0x40c>)
10001f2c:	f001 fb89 	bl	10003642 <__wrap___aeabi_ddiv>
10001f30:	0006      	movs	r6, r0
10001f32:	000f      	movs	r7, r1
10001f34:	9d0d      	ldr	r5, [sp, #52]	; 0x34
10001f36:	24c6      	movs	r4, #198	; 0xc6
10001f38:	002b      	movs	r3, r5
10001f3a:	3363      	adds	r3, #99	; 0x63
10001f3c:	429c      	cmp	r4, r3
10001f3e:	41a4      	sbcs	r4, r4
10001f40:	9b28      	ldr	r3, [sp, #160]	; 0xa0
10001f42:	4264      	negs	r4, r4
10001f44:	3404      	adds	r4, #4
10001f46:	051b      	lsls	r3, r3, #20
10001f48:	d51f      	bpl.n	10001f8a <_etoa+0x23e>
10001f4a:	4a86      	ldr	r2, [pc, #536]	; (10002164 <_etoa+0x418>)
10001f4c:	4b86      	ldr	r3, [pc, #536]	; (10002168 <_etoa+0x41c>)
10001f4e:	980a      	ldr	r0, [sp, #40]	; 0x28
10001f50:	9909      	ldr	r1, [sp, #36]	; 0x24
10001f52:	f001 fbcf 	bl	100036f4 <__wrap___aeabi_dcmpge>
10001f56:	2800      	cmp	r0, #0
10001f58:	d100      	bne.n	10001f5c <_etoa+0x210>
10001f5a:	e0cc      	b.n	100020f6 <_etoa+0x3aa>
10001f5c:	2200      	movs	r2, #0
10001f5e:	4b83      	ldr	r3, [pc, #524]	; (1000216c <_etoa+0x420>)
10001f60:	980a      	ldr	r0, [sp, #40]	; 0x28
10001f62:	9909      	ldr	r1, [sp, #36]	; 0x24
10001f64:	f001 fbb8 	bl	100036d8 <__wrap___aeabi_dcmplt>
10001f68:	2800      	cmp	r0, #0
10001f6a:	d100      	bne.n	10001f6e <_etoa+0x222>
10001f6c:	e0c3      	b.n	100020f6 <_etoa+0x3aa>
10001f6e:	9a26      	ldr	r2, [sp, #152]	; 0x98
10001f70:	4295      	cmp	r5, r2
10001f72:	da00      	bge.n	10001f76 <_etoa+0x22a>
10001f74:	e10b      	b.n	1000218e <_etoa+0x442>
10001f76:	2300      	movs	r3, #0
10001f78:	9326      	str	r3, [sp, #152]	; 0x98
10001f7a:	2380      	movs	r3, #128	; 0x80
10001f7c:	9a28      	ldr	r2, [sp, #160]	; 0xa0
10001f7e:	00db      	lsls	r3, r3, #3
10001f80:	431a      	orrs	r2, r3
10001f82:	2300      	movs	r3, #0
10001f84:	2400      	movs	r4, #0
10001f86:	9228      	str	r2, [sp, #160]	; 0xa0
10001f88:	930d      	str	r3, [sp, #52]	; 0x34
10001f8a:	9b27      	ldr	r3, [sp, #156]	; 0x9c
10001f8c:	2500      	movs	r5, #0
10001f8e:	42a3      	cmp	r3, r4
10001f90:	d900      	bls.n	10001f94 <_etoa+0x248>
10001f92:	1b1d      	subs	r5, r3, r4
10001f94:	2302      	movs	r3, #2
10001f96:	9a28      	ldr	r2, [sp, #160]	; 0xa0
10001f98:	401a      	ands	r2, r3
10001f9a:	9210      	str	r2, [sp, #64]	; 0x40
10001f9c:	9a28      	ldr	r2, [sp, #160]	; 0xa0
10001f9e:	4213      	tst	r3, r2
10001fa0:	d003      	beq.n	10001faa <_etoa+0x25e>
10001fa2:	4263      	negs	r3, r4
10001fa4:	4163      	adcs	r3, r4
10001fa6:	425b      	negs	r3, r3
10001fa8:	401d      	ands	r5, r3
10001faa:	9b0d      	ldr	r3, [sp, #52]	; 0x34
10001fac:	2b00      	cmp	r3, #0
10001fae:	d007      	beq.n	10001fc0 <_etoa+0x274>
10001fb0:	980a      	ldr	r0, [sp, #40]	; 0x28
10001fb2:	9909      	ldr	r1, [sp, #36]	; 0x24
10001fb4:	0032      	movs	r2, r6
10001fb6:	003b      	movs	r3, r7
10001fb8:	f001 fb43 	bl	10003642 <__wrap___aeabi_ddiv>
10001fbc:	900a      	str	r0, [sp, #40]	; 0x28
10001fbe:	9109      	str	r1, [sp, #36]	; 0x24
10001fc0:	2200      	movs	r2, #0
10001fc2:	2300      	movs	r3, #0
10001fc4:	4648      	mov	r0, r9
10001fc6:	4641      	mov	r1, r8
10001fc8:	f001 fb86 	bl	100036d8 <__wrap___aeabi_dcmplt>
10001fcc:	2800      	cmp	r0, #0
10001fce:	d005      	beq.n	10001fdc <_etoa+0x290>
10001fd0:	2080      	movs	r0, #128	; 0x80
10001fd2:	0600      	lsls	r0, r0, #24
10001fd4:	4684      	mov	ip, r0
10001fd6:	9909      	ldr	r1, [sp, #36]	; 0x24
10001fd8:	4461      	add	r1, ip
10001fda:	9109      	str	r1, [sp, #36]	; 0x24
10001fdc:	9a28      	ldr	r2, [sp, #160]	; 0xa0
10001fde:	4b64      	ldr	r3, [pc, #400]	; (10002170 <_etoa+0x424>)
10001fe0:	9e0b      	ldr	r6, [sp, #44]	; 0x2c
10001fe2:	4013      	ands	r3, r2
10001fe4:	9304      	str	r3, [sp, #16]
10001fe6:	9b26      	ldr	r3, [sp, #152]	; 0x98
10001fe8:	9a0a      	ldr	r2, [sp, #40]	; 0x28
10001fea:	9302      	str	r3, [sp, #8]
10001fec:	9b09      	ldr	r3, [sp, #36]	; 0x24
10001fee:	9503      	str	r5, [sp, #12]
10001ff0:	9200      	str	r2, [sp, #0]
10001ff2:	9301      	str	r3, [sp, #4]
10001ff4:	4659      	mov	r1, fp
10001ff6:	4653      	mov	r3, sl
10001ff8:	0030      	movs	r0, r6
10001ffa:	9a0c      	ldr	r2, [sp, #48]	; 0x30
10001ffc:	f000 f8cc 	bl	10002198 <_ftoa>
10002000:	0005      	movs	r5, r0
10002002:	2c00      	cmp	r4, #0
10002004:	d06f      	beq.n	100020e6 <_etoa+0x39a>
10002006:	9b28      	ldr	r3, [sp, #160]	; 0xa0
10002008:	002a      	movs	r2, r5
1000200a:	0698      	lsls	r0, r3, #26
1000200c:	231f      	movs	r3, #31
1000200e:	17c0      	asrs	r0, r0, #31
10002010:	4398      	bics	r0, r3
10002012:	1c6b      	adds	r3, r5, #1
10002014:	4698      	mov	r8, r3
10002016:	4659      	mov	r1, fp
10002018:	4653      	mov	r3, sl
1000201a:	3065      	adds	r0, #101	; 0x65
1000201c:	47b0      	blx	r6
1000201e:	9b0d      	ldr	r3, [sp, #52]	; 0x34
10002020:	2600      	movs	r6, #0
10002022:	17da      	asrs	r2, r3, #31
10002024:	189d      	adds	r5, r3, r2
10002026:	0fdb      	lsrs	r3, r3, #31
10002028:	4699      	mov	r9, r3
1000202a:	4055      	eors	r5, r2
1000202c:	3c01      	subs	r4, #1
1000202e:	e001      	b.n	10002034 <_etoa+0x2e8>
10002030:	2e20      	cmp	r6, #32
10002032:	d013      	beq.n	1000205c <_etoa+0x310>
10002034:	aa0a      	add	r2, sp, #40	; 0x28
10002036:	4694      	mov	ip, r2
10002038:	231f      	movs	r3, #31
1000203a:	0028      	movs	r0, r5
1000203c:	4463      	add	r3, ip
1000203e:	210a      	movs	r1, #10
10002040:	3601      	adds	r6, #1
10002042:	199f      	adds	r7, r3, r6
10002044:	f001 f8a6 	bl	10003194 <__wrap___aeabi_uidiv>
10002048:	3130      	adds	r1, #48	; 0x30
1000204a:	7039      	strb	r1, [r7, #0]
1000204c:	0028      	movs	r0, r5
1000204e:	210a      	movs	r1, #10
10002050:	f001 f8a0 	bl	10003194 <__wrap___aeabi_uidiv>
10002054:	002f      	movs	r7, r5
10002056:	0005      	movs	r5, r0
10002058:	2f09      	cmp	r7, #9
1000205a:	d8e9      	bhi.n	10002030 <_etoa+0x2e4>
1000205c:	2305      	movs	r3, #5
1000205e:	9306      	str	r3, [sp, #24]
10002060:	2300      	movs	r3, #0
10002062:	9304      	str	r3, [sp, #16]
10002064:	330a      	adds	r3, #10
10002066:	9303      	str	r3, [sp, #12]
10002068:	464b      	mov	r3, r9
1000206a:	9601      	str	r6, [sp, #4]
1000206c:	9e0b      	ldr	r6, [sp, #44]	; 0x2c
1000206e:	9302      	str	r3, [sp, #8]
10002070:	ab12      	add	r3, sp, #72	; 0x48
10002072:	9300      	str	r3, [sp, #0]
10002074:	4642      	mov	r2, r8
10002076:	4653      	mov	r3, sl
10002078:	4659      	mov	r1, fp
1000207a:	0030      	movs	r0, r6
1000207c:	9405      	str	r4, [sp, #20]
1000207e:	f7ff fd6d 	bl	10001b5c <_ntoa_format>
10002082:	9b10      	ldr	r3, [sp, #64]	; 0x40
10002084:	0005      	movs	r5, r0
10002086:	2b00      	cmp	r3, #0
10002088:	d02d      	beq.n	100020e6 <_etoa+0x39a>
1000208a:	9b0c      	ldr	r3, [sp, #48]	; 0x30
1000208c:	9a27      	ldr	r2, [sp, #156]	; 0x9c
1000208e:	1ac4      	subs	r4, r0, r3
10002090:	42a2      	cmp	r2, r4
10002092:	d928      	bls.n	100020e6 <_etoa+0x39a>
10002094:	4681      	mov	r9, r0
10002096:	465d      	mov	r5, fp
10002098:	4698      	mov	r8, r3
1000209a:	0017      	movs	r7, r2
1000209c:	4643      	mov	r3, r8
1000209e:	0029      	movs	r1, r5
100020a0:	191a      	adds	r2, r3, r4
100020a2:	2020      	movs	r0, #32
100020a4:	4653      	mov	r3, sl
100020a6:	3401      	adds	r4, #1
100020a8:	47b0      	blx	r6
100020aa:	42a7      	cmp	r7, r4
100020ac:	d8f6      	bhi.n	1000209c <_etoa+0x350>
100020ae:	464d      	mov	r5, r9
100020b0:	990c      	ldr	r1, [sp, #48]	; 0x30
100020b2:	9827      	ldr	r0, [sp, #156]	; 0x9c
100020b4:	1a6b      	subs	r3, r5, r1
100020b6:	3301      	adds	r3, #1
100020b8:	2200      	movs	r2, #0
100020ba:	4298      	cmp	r0, r3
100020bc:	d261      	bcs.n	10002182 <_etoa+0x436>
100020be:	3501      	adds	r5, #1
100020c0:	1955      	adds	r5, r2, r5
100020c2:	e010      	b.n	100020e6 <_etoa+0x39a>
100020c4:	9b28      	ldr	r3, [sp, #160]	; 0xa0
100020c6:	464a      	mov	r2, r9
100020c8:	9304      	str	r3, [sp, #16]
100020ca:	9b27      	ldr	r3, [sp, #156]	; 0x9c
100020cc:	4659      	mov	r1, fp
100020ce:	9303      	str	r3, [sp, #12]
100020d0:	9b26      	ldr	r3, [sp, #152]	; 0x98
100020d2:	980b      	ldr	r0, [sp, #44]	; 0x2c
100020d4:	9302      	str	r3, [sp, #8]
100020d6:	4643      	mov	r3, r8
100020d8:	9200      	str	r2, [sp, #0]
100020da:	9301      	str	r3, [sp, #4]
100020dc:	4653      	mov	r3, sl
100020de:	9a0c      	ldr	r2, [sp, #48]	; 0x30
100020e0:	f000 f85a 	bl	10002198 <_ftoa>
100020e4:	0005      	movs	r5, r0
100020e6:	0028      	movs	r0, r5
100020e8:	b01b      	add	sp, #108	; 0x6c
100020ea:	bc3c      	pop	{r2, r3, r4, r5}
100020ec:	4690      	mov	r8, r2
100020ee:	4699      	mov	r9, r3
100020f0:	46a2      	mov	sl, r4
100020f2:	46ab      	mov	fp, r5
100020f4:	bdf0      	pop	{r4, r5, r6, r7, pc}
100020f6:	9b26      	ldr	r3, [sp, #152]	; 0x98
100020f8:	2b00      	cmp	r3, #0
100020fa:	d100      	bne.n	100020fe <_etoa+0x3b2>
100020fc:	e745      	b.n	10001f8a <_etoa+0x23e>
100020fe:	9b11      	ldr	r3, [sp, #68]	; 0x44
10002100:	1e5a      	subs	r2, r3, #1
10002102:	4193      	sbcs	r3, r2
10002104:	9a26      	ldr	r2, [sp, #152]	; 0x98
10002106:	1ad3      	subs	r3, r2, r3
10002108:	9326      	str	r3, [sp, #152]	; 0x98
1000210a:	e73e      	b.n	10001f8a <_etoa+0x23e>
1000210c:	7fefffff 	.word	0x7fefffff
10002110:	ffefffff 	.word	0xffefffff
10002114:	fffffc01 	.word	0xfffffc01
10002118:	509f79fb 	.word	0x509f79fb
1000211c:	3fd34413 	.word	0x3fd34413
10002120:	8b60c8b3 	.word	0x8b60c8b3
10002124:	3fc68a28 	.word	0x3fc68a28
10002128:	3ff00000 	.word	0x3ff00000
1000212c:	3ff80000 	.word	0x3ff80000
10002130:	636f4361 	.word	0x636f4361
10002134:	3fd287a7 	.word	0x3fd287a7
10002138:	0979a371 	.word	0x0979a371
1000213c:	400a934f 	.word	0x400a934f
10002140:	3fe00000 	.word	0x3fe00000
10002144:	bbb55516 	.word	0xbbb55516
10002148:	40026bb1 	.word	0x40026bb1
1000214c:	fefa39ef 	.word	0xfefa39ef
10002150:	3fe62e42 	.word	0x3fe62e42
10002154:	402c0000 	.word	0x402c0000
10002158:	40240000 	.word	0x40240000
1000215c:	40180000 	.word	0x40180000
10002160:	000003ff 	.word	0x000003ff
10002164:	eb1c432d 	.word	0xeb1c432d
10002168:	3f1a36e2 	.word	0x3f1a36e2
1000216c:	412e8480 	.word	0x412e8480
10002170:	fffff7ff 	.word	0xfffff7ff
10002174:	464b      	mov	r3, r9
10002176:	930a      	str	r3, [sp, #40]	; 0x28
10002178:	2380      	movs	r3, #128	; 0x80
1000217a:	061b      	lsls	r3, r3, #24
1000217c:	4443      	add	r3, r8
1000217e:	9309      	str	r3, [sp, #36]	; 0x24
10002180:	e61d      	b.n	10001dbe <_etoa+0x72>
10002182:	000a      	movs	r2, r1
10002184:	4684      	mov	ip, r0
10002186:	3a01      	subs	r2, #1
10002188:	4462      	add	r2, ip
1000218a:	1b52      	subs	r2, r2, r5
1000218c:	e797      	b.n	100020be <_etoa+0x372>
1000218e:	1b50      	subs	r0, r2, r5
10002190:	1e43      	subs	r3, r0, #1
10002192:	9326      	str	r3, [sp, #152]	; 0x98
10002194:	e6f1      	b.n	10001f7a <_etoa+0x22e>
10002196:	46c0      	nop			; (mov r8, r8)

10002198 <_ftoa>:
10002198:	b5f0      	push	{r4, r5, r6, r7, lr}
1000219a:	464e      	mov	r6, r9
1000219c:	46de      	mov	lr, fp
1000219e:	4657      	mov	r7, sl
100021a0:	4645      	mov	r5, r8
100021a2:	b5e0      	push	{r5, r6, r7, lr}
100021a4:	b097      	sub	sp, #92	; 0x5c
100021a6:	4699      	mov	r9, r3
100021a8:	9e20      	ldr	r6, [sp, #128]	; 0x80
100021aa:	9f21      	ldr	r7, [sp, #132]	; 0x84
100021ac:	9b22      	ldr	r3, [sp, #136]	; 0x88
100021ae:	4683      	mov	fp, r0
100021b0:	4698      	mov	r8, r3
100021b2:	9107      	str	r1, [sp, #28]
100021b4:	920c      	str	r2, [sp, #48]	; 0x30
100021b6:	003b      	movs	r3, r7
100021b8:	0032      	movs	r2, r6
100021ba:	0030      	movs	r0, r6
100021bc:	0039      	movs	r1, r7
100021be:	f001 faa6 	bl	1000370e <__wrap___aeabi_dcmpun>
100021c2:	2800      	cmp	r0, #0
100021c4:	d000      	beq.n	100021c8 <_ftoa+0x30>
100021c6:	e1c1      	b.n	1000254c <_ftoa+0x3b4>
100021c8:	2201      	movs	r2, #1
100021ca:	0030      	movs	r0, r6
100021cc:	0039      	movs	r1, r7
100021ce:	4bca      	ldr	r3, [pc, #808]	; (100024f8 <_ftoa+0x360>)
100021d0:	4252      	negs	r2, r2
100021d2:	f001 fa81 	bl	100036d8 <__wrap___aeabi_dcmplt>
100021d6:	2800      	cmp	r0, #0
100021d8:	d000      	beq.n	100021dc <_ftoa+0x44>
100021da:	e0e0      	b.n	1000239e <_ftoa+0x206>
100021dc:	2201      	movs	r2, #1
100021de:	0030      	movs	r0, r6
100021e0:	0039      	movs	r1, r7
100021e2:	4bc6      	ldr	r3, [pc, #792]	; (100024fc <_ftoa+0x364>)
100021e4:	4252      	negs	r2, r2
100021e6:	f001 fa8d 	bl	10003704 <__wrap___aeabi_dcmpgt>
100021ea:	2800      	cmp	r0, #0
100021ec:	d000      	beq.n	100021f0 <_ftoa+0x58>
100021ee:	e0b6      	b.n	1000235e <_ftoa+0x1c6>
100021f0:	2200      	movs	r2, #0
100021f2:	0030      	movs	r0, r6
100021f4:	0039      	movs	r1, r7
100021f6:	4bc2      	ldr	r3, [pc, #776]	; (10002500 <_ftoa+0x368>)
100021f8:	f001 fa84 	bl	10003704 <__wrap___aeabi_dcmpgt>
100021fc:	2800      	cmp	r0, #0
100021fe:	d000      	beq.n	10002202 <_ftoa+0x6a>
10002200:	e098      	b.n	10002334 <_ftoa+0x19c>
10002202:	2200      	movs	r2, #0
10002204:	0030      	movs	r0, r6
10002206:	0039      	movs	r1, r7
10002208:	4bbe      	ldr	r3, [pc, #760]	; (10002504 <_ftoa+0x36c>)
1000220a:	f001 fa65 	bl	100036d8 <__wrap___aeabi_dcmplt>
1000220e:	2800      	cmp	r0, #0
10002210:	d000      	beq.n	10002214 <_ftoa+0x7c>
10002212:	e08f      	b.n	10002334 <_ftoa+0x19c>
10002214:	2200      	movs	r2, #0
10002216:	2300      	movs	r3, #0
10002218:	0030      	movs	r0, r6
1000221a:	0039      	movs	r1, r7
1000221c:	f001 fa5c 	bl	100036d8 <__wrap___aeabi_dcmplt>
10002220:	2800      	cmp	r0, #0
10002222:	d000      	beq.n	10002226 <_ftoa+0x8e>
10002224:	e0b0      	b.n	10002388 <_ftoa+0x1f0>
10002226:	2300      	movs	r3, #0
10002228:	930d      	str	r3, [sp, #52]	; 0x34
1000222a:	9b24      	ldr	r3, [sp, #144]	; 0x90
1000222c:	055b      	lsls	r3, r3, #21
1000222e:	d401      	bmi.n	10002234 <_ftoa+0x9c>
10002230:	2306      	movs	r3, #6
10002232:	4698      	mov	r8, r3
10002234:	ab08      	add	r3, sp, #32
10002236:	469c      	mov	ip, r3
10002238:	2217      	movs	r2, #23
1000223a:	2400      	movs	r4, #0
1000223c:	2330      	movs	r3, #48	; 0x30
1000223e:	4641      	mov	r1, r8
10002240:	4462      	add	r2, ip
10002242:	e004      	b.n	1000224e <_ftoa+0xb6>
10002244:	3401      	adds	r4, #1
10002246:	5513      	strb	r3, [r2, r4]
10002248:	3901      	subs	r1, #1
1000224a:	2c20      	cmp	r4, #32
1000224c:	d001      	beq.n	10002252 <_ftoa+0xba>
1000224e:	2909      	cmp	r1, #9
10002250:	d8f8      	bhi.n	10002244 <_ftoa+0xac>
10002252:	4688      	mov	r8, r1
10002254:	0030      	movs	r0, r6
10002256:	0039      	movs	r1, r7
10002258:	f001 fa84 	bl	10003764 <__wrap___aeabi_d2iz>
1000225c:	4643      	mov	r3, r8
1000225e:	00da      	lsls	r2, r3, #3
10002260:	4ba9      	ldr	r3, [pc, #676]	; (10002508 <_ftoa+0x370>)
10002262:	0005      	movs	r5, r0
10002264:	189b      	adds	r3, r3, r2
10002266:	681a      	ldr	r2, [r3, #0]
10002268:	685b      	ldr	r3, [r3, #4]
1000226a:	9208      	str	r2, [sp, #32]
1000226c:	9309      	str	r3, [sp, #36]	; 0x24
1000226e:	f001 fa61 	bl	10003734 <__wrap___aeabi_i2d>
10002272:	0002      	movs	r2, r0
10002274:	000b      	movs	r3, r1
10002276:	0030      	movs	r0, r6
10002278:	0039      	movs	r1, r7
1000227a:	f001 f9d0 	bl	1000361e <__wrap___aeabi_dsub>
1000227e:	9a08      	ldr	r2, [sp, #32]
10002280:	9b09      	ldr	r3, [sp, #36]	; 0x24
10002282:	f001 f9e7 	bl	10003654 <__wrap___aeabi_dmul>
10002286:	900a      	str	r0, [sp, #40]	; 0x28
10002288:	910b      	str	r1, [sp, #44]	; 0x2c
1000228a:	f001 fa8f 	bl	100037ac <__wrap___aeabi_d2uiz>
1000228e:	4682      	mov	sl, r0
10002290:	f001 fa4c 	bl	1000372c <__wrap___aeabi_ui2d>
10002294:	0002      	movs	r2, r0
10002296:	000b      	movs	r3, r1
10002298:	980a      	ldr	r0, [sp, #40]	; 0x28
1000229a:	990b      	ldr	r1, [sp, #44]	; 0x2c
1000229c:	f001 f9bf 	bl	1000361e <__wrap___aeabi_dsub>
100022a0:	2200      	movs	r2, #0
100022a2:	4b9a      	ldr	r3, [pc, #616]	; (1000250c <_ftoa+0x374>)
100022a4:	900a      	str	r0, [sp, #40]	; 0x28
100022a6:	910b      	str	r1, [sp, #44]	; 0x2c
100022a8:	f001 fa2c 	bl	10003704 <__wrap___aeabi_dcmpgt>
100022ac:	2800      	cmp	r0, #0
100022ae:	d100      	bne.n	100022b2 <_ftoa+0x11a>
100022b0:	e0c0      	b.n	10002434 <_ftoa+0x29c>
100022b2:	2301      	movs	r3, #1
100022b4:	469c      	mov	ip, r3
100022b6:	44e2      	add	sl, ip
100022b8:	4650      	mov	r0, sl
100022ba:	f001 fa37 	bl	1000372c <__wrap___aeabi_ui2d>
100022be:	0002      	movs	r2, r0
100022c0:	000b      	movs	r3, r1
100022c2:	9808      	ldr	r0, [sp, #32]
100022c4:	9909      	ldr	r1, [sp, #36]	; 0x24
100022c6:	f001 fa0d 	bl	100036e4 <__wrap___aeabi_dcmple>
100022ca:	2800      	cmp	r0, #0
100022cc:	d002      	beq.n	100022d4 <_ftoa+0x13c>
100022ce:	2300      	movs	r3, #0
100022d0:	469a      	mov	sl, r3
100022d2:	3501      	adds	r5, #1
100022d4:	4643      	mov	r3, r8
100022d6:	2b00      	cmp	r3, #0
100022d8:	d069      	beq.n	100023ae <_ftoa+0x216>
100022da:	ab08      	add	r3, sp, #32
100022dc:	2617      	movs	r6, #23
100022de:	469c      	mov	ip, r3
100022e0:	9508      	str	r5, [sp, #32]
100022e2:	4466      	add	r6, ip
100022e4:	4655      	mov	r5, sl
100022e6:	e014      	b.n	10002312 <_ftoa+0x17a>
100022e8:	2301      	movs	r3, #1
100022ea:	425b      	negs	r3, r3
100022ec:	4443      	add	r3, r8
100022ee:	210a      	movs	r1, #10
100022f0:	0028      	movs	r0, r5
100022f2:	469a      	mov	sl, r3
100022f4:	f000 ff4e 	bl	10003194 <__wrap___aeabi_uidiv>
100022f8:	3401      	adds	r4, #1
100022fa:	3130      	adds	r1, #48	; 0x30
100022fc:	1937      	adds	r7, r6, r4
100022fe:	7039      	strb	r1, [r7, #0]
10002300:	0028      	movs	r0, r5
10002302:	210a      	movs	r1, #10
10002304:	f000 ff46 	bl	10003194 <__wrap___aeabi_uidiv>
10002308:	2d09      	cmp	r5, #9
1000230a:	d800      	bhi.n	1000230e <_ftoa+0x176>
1000230c:	e0d5      	b.n	100024ba <_ftoa+0x322>
1000230e:	46d0      	mov	r8, sl
10002310:	0005      	movs	r5, r0
10002312:	2c20      	cmp	r4, #32
10002314:	d1e8      	bne.n	100022e8 <_ftoa+0x150>
10002316:	2303      	movs	r3, #3
10002318:	9a24      	ldr	r2, [sp, #144]	; 0x90
1000231a:	4013      	ands	r3, r2
1000231c:	2b01      	cmp	r3, #1
1000231e:	d100      	bne.n	10002322 <_ftoa+0x18a>
10002320:	e100      	b.n	10002524 <_ftoa+0x38c>
10002322:	ab0e      	add	r3, sp, #56	; 0x38
10002324:	4698      	mov	r8, r3
10002326:	9b24      	ldr	r3, [sp, #144]	; 0x90
10002328:	9401      	str	r4, [sp, #4]
1000232a:	9303      	str	r3, [sp, #12]
1000232c:	9b23      	ldr	r3, [sp, #140]	; 0x8c
1000232e:	9302      	str	r3, [sp, #8]
10002330:	4643      	mov	r3, r8
10002332:	e01e      	b.n	10002372 <_ftoa+0x1da>
10002334:	9b24      	ldr	r3, [sp, #144]	; 0x90
10002336:	4658      	mov	r0, fp
10002338:	9304      	str	r3, [sp, #16]
1000233a:	9b23      	ldr	r3, [sp, #140]	; 0x8c
1000233c:	9600      	str	r6, [sp, #0]
1000233e:	9701      	str	r7, [sp, #4]
10002340:	9303      	str	r3, [sp, #12]
10002342:	4643      	mov	r3, r8
10002344:	9a0c      	ldr	r2, [sp, #48]	; 0x30
10002346:	9302      	str	r3, [sp, #8]
10002348:	9907      	ldr	r1, [sp, #28]
1000234a:	464b      	mov	r3, r9
1000234c:	f7ff fcfe 	bl	10001d4c <_etoa>
10002350:	b017      	add	sp, #92	; 0x5c
10002352:	bc3c      	pop	{r2, r3, r4, r5}
10002354:	4690      	mov	r8, r2
10002356:	4699      	mov	r9, r3
10002358:	46a2      	mov	sl, r4
1000235a:	46ab      	mov	fp, r5
1000235c:	bdf0      	pop	{r4, r5, r6, r7, pc}
1000235e:	9b24      	ldr	r3, [sp, #144]	; 0x90
10002360:	075b      	lsls	r3, r3, #29
10002362:	d40e      	bmi.n	10002382 <_ftoa+0x1ea>
10002364:	2203      	movs	r2, #3
10002366:	4b6a      	ldr	r3, [pc, #424]	; (10002510 <_ftoa+0x378>)
10002368:	9924      	ldr	r1, [sp, #144]	; 0x90
1000236a:	9201      	str	r2, [sp, #4]
1000236c:	9103      	str	r1, [sp, #12]
1000236e:	9923      	ldr	r1, [sp, #140]	; 0x8c
10002370:	9102      	str	r1, [sp, #8]
10002372:	9300      	str	r3, [sp, #0]
10002374:	4658      	mov	r0, fp
10002376:	464b      	mov	r3, r9
10002378:	9a0c      	ldr	r2, [sp, #48]	; 0x30
1000237a:	9907      	ldr	r1, [sp, #28]
1000237c:	f7ff fb86 	bl	10001a8c <_out_rev>
10002380:	e7e6      	b.n	10002350 <_ftoa+0x1b8>
10002382:	2204      	movs	r2, #4
10002384:	4b63      	ldr	r3, [pc, #396]	; (10002514 <_ftoa+0x37c>)
10002386:	e7ef      	b.n	10002368 <_ftoa+0x1d0>
10002388:	003b      	movs	r3, r7
1000238a:	0032      	movs	r2, r6
1000238c:	2000      	movs	r0, #0
1000238e:	2100      	movs	r1, #0
10002390:	f001 f945 	bl	1000361e <__wrap___aeabi_dsub>
10002394:	2301      	movs	r3, #1
10002396:	0006      	movs	r6, r0
10002398:	000f      	movs	r7, r1
1000239a:	930d      	str	r3, [sp, #52]	; 0x34
1000239c:	e745      	b.n	1000222a <_ftoa+0x92>
1000239e:	9b24      	ldr	r3, [sp, #144]	; 0x90
100023a0:	9303      	str	r3, [sp, #12]
100023a2:	9b23      	ldr	r3, [sp, #140]	; 0x8c
100023a4:	9302      	str	r3, [sp, #8]
100023a6:	2304      	movs	r3, #4
100023a8:	9301      	str	r3, [sp, #4]
100023aa:	4b5b      	ldr	r3, [pc, #364]	; (10002518 <_ftoa+0x380>)
100023ac:	e7e1      	b.n	10002372 <_ftoa+0x1da>
100023ae:	0028      	movs	r0, r5
100023b0:	f001 f9c0 	bl	10003734 <__wrap___aeabi_i2d>
100023b4:	0002      	movs	r2, r0
100023b6:	000b      	movs	r3, r1
100023b8:	0030      	movs	r0, r6
100023ba:	0039      	movs	r1, r7
100023bc:	f001 f92f 	bl	1000361e <__wrap___aeabi_dsub>
100023c0:	4b52      	ldr	r3, [pc, #328]	; (1000250c <_ftoa+0x374>)
100023c2:	2200      	movs	r2, #0
100023c4:	0006      	movs	r6, r0
100023c6:	000f      	movs	r7, r1
100023c8:	f001 f986 	bl	100036d8 <__wrap___aeabi_dcmplt>
100023cc:	ab0e      	add	r3, sp, #56	; 0x38
100023ce:	4698      	mov	r8, r3
100023d0:	2800      	cmp	r0, #0
100023d2:	d10a      	bne.n	100023ea <_ftoa+0x252>
100023d4:	2200      	movs	r2, #0
100023d6:	0030      	movs	r0, r6
100023d8:	0039      	movs	r1, r7
100023da:	4b4c      	ldr	r3, [pc, #304]	; (1000250c <_ftoa+0x374>)
100023dc:	f001 f992 	bl	10003704 <__wrap___aeabi_dcmpgt>
100023e0:	2800      	cmp	r0, #0
100023e2:	d102      	bne.n	100023ea <_ftoa+0x252>
100023e4:	07eb      	lsls	r3, r5, #31
100023e6:	d500      	bpl.n	100023ea <_ftoa+0x252>
100023e8:	3501      	adds	r5, #1
100023ea:	2c20      	cmp	r4, #32
100023ec:	d032      	beq.n	10002454 <_ftoa+0x2bc>
100023ee:	aa08      	add	r2, sp, #32
100023f0:	4694      	mov	ip, r2
100023f2:	2317      	movs	r3, #23
100023f4:	0028      	movs	r0, r5
100023f6:	4463      	add	r3, ip
100023f8:	210a      	movs	r1, #10
100023fa:	3401      	adds	r4, #1
100023fc:	191e      	adds	r6, r3, r4
100023fe:	f000 fe9d 	bl	1000313c <__wrap___aeabi_idiv>
10002402:	3130      	adds	r1, #48	; 0x30
10002404:	0028      	movs	r0, r5
10002406:	7031      	strb	r1, [r6, #0]
10002408:	210a      	movs	r1, #10
1000240a:	f000 fe97 	bl	1000313c <__wrap___aeabi_idiv>
1000240e:	1e05      	subs	r5, r0, #0
10002410:	d1eb      	bne.n	100023ea <_ftoa+0x252>
10002412:	2303      	movs	r3, #3
10002414:	9a24      	ldr	r2, [sp, #144]	; 0x90
10002416:	4013      	ands	r3, r2
10002418:	2b01      	cmp	r3, #1
1000241a:	d100      	bne.n	1000241e <_ftoa+0x286>
1000241c:	e091      	b.n	10002542 <_ftoa+0x3aa>
1000241e:	2c1f      	cmp	r4, #31
10002420:	d900      	bls.n	10002424 <_ftoa+0x28c>
10002422:	e780      	b.n	10002326 <_ftoa+0x18e>
10002424:	9b0d      	ldr	r3, [sp, #52]	; 0x34
10002426:	2b00      	cmp	r3, #0
10002428:	d03b      	beq.n	100024a2 <_ftoa+0x30a>
1000242a:	232d      	movs	r3, #45	; 0x2d
1000242c:	4642      	mov	r2, r8
1000242e:	5513      	strb	r3, [r2, r4]
10002430:	3401      	adds	r4, #1
10002432:	e778      	b.n	10002326 <_ftoa+0x18e>
10002434:	2200      	movs	r2, #0
10002436:	980a      	ldr	r0, [sp, #40]	; 0x28
10002438:	990b      	ldr	r1, [sp, #44]	; 0x2c
1000243a:	4b34      	ldr	r3, [pc, #208]	; (1000250c <_ftoa+0x374>)
1000243c:	f001 f94c 	bl	100036d8 <__wrap___aeabi_dcmplt>
10002440:	2800      	cmp	r0, #0
10002442:	d000      	beq.n	10002446 <_ftoa+0x2ae>
10002444:	e746      	b.n	100022d4 <_ftoa+0x13c>
10002446:	4653      	mov	r3, sl
10002448:	2b00      	cmp	r3, #0
1000244a:	d167      	bne.n	1000251c <_ftoa+0x384>
1000244c:	2301      	movs	r3, #1
1000244e:	469c      	mov	ip, r3
10002450:	44e2      	add	sl, ip
10002452:	e73f      	b.n	100022d4 <_ftoa+0x13c>
10002454:	2303      	movs	r3, #3
10002456:	9a24      	ldr	r2, [sp, #144]	; 0x90
10002458:	4013      	ands	r3, r2
1000245a:	2b01      	cmp	r3, #1
1000245c:	d000      	beq.n	10002460 <_ftoa+0x2c8>
1000245e:	e762      	b.n	10002326 <_ftoa+0x18e>
10002460:	9b23      	ldr	r3, [sp, #140]	; 0x8c
10002462:	2b00      	cmp	r3, #0
10002464:	d100      	bne.n	10002468 <_ftoa+0x2d0>
10002466:	e75e      	b.n	10002326 <_ftoa+0x18e>
10002468:	9b0d      	ldr	r3, [sp, #52]	; 0x34
1000246a:	2b00      	cmp	r3, #0
1000246c:	d103      	bne.n	10002476 <_ftoa+0x2de>
1000246e:	9a24      	ldr	r2, [sp, #144]	; 0x90
10002470:	330c      	adds	r3, #12
10002472:	4213      	tst	r3, r2
10002474:	d002      	beq.n	1000247c <_ftoa+0x2e4>
10002476:	9b23      	ldr	r3, [sp, #140]	; 0x8c
10002478:	3b01      	subs	r3, #1
1000247a:	9323      	str	r3, [sp, #140]	; 0x8c
1000247c:	9b23      	ldr	r3, [sp, #140]	; 0x8c
1000247e:	429c      	cmp	r4, r3
10002480:	d2cd      	bcs.n	1000241e <_ftoa+0x286>
10002482:	ab08      	add	r3, sp, #32
10002484:	469c      	mov	ip, r3
10002486:	2217      	movs	r2, #23
10002488:	2330      	movs	r3, #48	; 0x30
1000248a:	4462      	add	r2, ip
1000248c:	2c1f      	cmp	r4, #31
1000248e:	d806      	bhi.n	1000249e <_ftoa+0x306>
10002490:	9923      	ldr	r1, [sp, #140]	; 0x8c
10002492:	3401      	adds	r4, #1
10002494:	5513      	strb	r3, [r2, r4]
10002496:	428c      	cmp	r4, r1
10002498:	d0c1      	beq.n	1000241e <_ftoa+0x286>
1000249a:	2c20      	cmp	r4, #32
1000249c:	d1f8      	bne.n	10002490 <_ftoa+0x2f8>
1000249e:	2420      	movs	r4, #32
100024a0:	e741      	b.n	10002326 <_ftoa+0x18e>
100024a2:	9b24      	ldr	r3, [sp, #144]	; 0x90
100024a4:	075b      	lsls	r3, r3, #29
100024a6:	d421      	bmi.n	100024ec <_ftoa+0x354>
100024a8:	9b24      	ldr	r3, [sp, #144]	; 0x90
100024aa:	071b      	lsls	r3, r3, #28
100024ac:	d400      	bmi.n	100024b0 <_ftoa+0x318>
100024ae:	e73a      	b.n	10002326 <_ftoa+0x18e>
100024b0:	2320      	movs	r3, #32
100024b2:	4642      	mov	r2, r8
100024b4:	5513      	strb	r3, [r2, r4]
100024b6:	3401      	adds	r4, #1
100024b8:	e735      	b.n	10002326 <_ftoa+0x18e>
100024ba:	4657      	mov	r7, sl
100024bc:	9d08      	ldr	r5, [sp, #32]
100024be:	2c20      	cmp	r4, #32
100024c0:	d037      	beq.n	10002532 <_ftoa+0x39a>
100024c2:	0022      	movs	r2, r4
100024c4:	2130      	movs	r1, #48	; 0x30
100024c6:	4640      	mov	r0, r8
100024c8:	2f00      	cmp	r7, #0
100024ca:	d008      	beq.n	100024de <_ftoa+0x346>
100024cc:	3201      	adds	r2, #1
100024ce:	54b1      	strb	r1, [r6, r2]
100024d0:	2a20      	cmp	r2, #32
100024d2:	d043      	beq.n	1000255c <_ftoa+0x3c4>
100024d4:	43d3      	mvns	r3, r2
100024d6:	191b      	adds	r3, r3, r4
100024d8:	181b      	adds	r3, r3, r0
100024da:	2b00      	cmp	r3, #0
100024dc:	d1f6      	bne.n	100024cc <_ftoa+0x334>
100024de:	ab0e      	add	r3, sp, #56	; 0x38
100024e0:	4698      	mov	r8, r3
100024e2:	232e      	movs	r3, #46	; 0x2e
100024e4:	4641      	mov	r1, r8
100024e6:	1c54      	adds	r4, r2, #1
100024e8:	548b      	strb	r3, [r1, r2]
100024ea:	e77e      	b.n	100023ea <_ftoa+0x252>
100024ec:	232b      	movs	r3, #43	; 0x2b
100024ee:	4642      	mov	r2, r8
100024f0:	5513      	strb	r3, [r2, r4]
100024f2:	3401      	adds	r4, #1
100024f4:	e717      	b.n	10002326 <_ftoa+0x18e>
100024f6:	46c0      	nop			; (mov r8, r8)
100024f8:	ffefffff 	.word	0xffefffff
100024fc:	7fefffff 	.word	0x7fefffff
10002500:	41cdcd65 	.word	0x41cdcd65
10002504:	c1cdcd65 	.word	0xc1cdcd65
10002508:	10005c08 	.word	0x10005c08
1000250c:	3fe00000 	.word	0x3fe00000
10002510:	10005a10 	.word	0x10005a10
10002514:	10005a14 	.word	0x10005a14
10002518:	10005a20 	.word	0x10005a20
1000251c:	07db      	lsls	r3, r3, #31
1000251e:	d400      	bmi.n	10002522 <_ftoa+0x38a>
10002520:	e6d8      	b.n	100022d4 <_ftoa+0x13c>
10002522:	e793      	b.n	1000244c <_ftoa+0x2b4>
10002524:	9b23      	ldr	r3, [sp, #140]	; 0x8c
10002526:	2b00      	cmp	r3, #0
10002528:	d100      	bne.n	1000252c <_ftoa+0x394>
1000252a:	e6fa      	b.n	10002322 <_ftoa+0x18a>
1000252c:	ab0e      	add	r3, sp, #56	; 0x38
1000252e:	4698      	mov	r8, r3
10002530:	e79a      	b.n	10002468 <_ftoa+0x2d0>
10002532:	2303      	movs	r3, #3
10002534:	9a24      	ldr	r2, [sp, #144]	; 0x90
10002536:	4013      	ands	r3, r2
10002538:	2b01      	cmp	r3, #1
1000253a:	d000      	beq.n	1000253e <_ftoa+0x3a6>
1000253c:	e6f1      	b.n	10002322 <_ftoa+0x18a>
1000253e:	ab0e      	add	r3, sp, #56	; 0x38
10002540:	4698      	mov	r8, r3
10002542:	9b23      	ldr	r3, [sp, #140]	; 0x8c
10002544:	2b00      	cmp	r3, #0
10002546:	d100      	bne.n	1000254a <_ftoa+0x3b2>
10002548:	e769      	b.n	1000241e <_ftoa+0x286>
1000254a:	e78d      	b.n	10002468 <_ftoa+0x2d0>
1000254c:	9b24      	ldr	r3, [sp, #144]	; 0x90
1000254e:	9303      	str	r3, [sp, #12]
10002550:	9b23      	ldr	r3, [sp, #140]	; 0x8c
10002552:	9302      	str	r3, [sp, #8]
10002554:	2303      	movs	r3, #3
10002556:	9301      	str	r3, [sp, #4]
10002558:	4b06      	ldr	r3, [pc, #24]	; (10002574 <_ftoa+0x3dc>)
1000255a:	e70a      	b.n	10002372 <_ftoa+0x1da>
1000255c:	2303      	movs	r3, #3
1000255e:	9a24      	ldr	r2, [sp, #144]	; 0x90
10002560:	2420      	movs	r4, #32
10002562:	4013      	ands	r3, r2
10002564:	2b01      	cmp	r3, #1
10002566:	d000      	beq.n	1000256a <_ftoa+0x3d2>
10002568:	e6db      	b.n	10002322 <_ftoa+0x18a>
1000256a:	9b23      	ldr	r3, [sp, #140]	; 0x8c
1000256c:	2420      	movs	r4, #32
1000256e:	2b00      	cmp	r3, #0
10002570:	d1dc      	bne.n	1000252c <_ftoa+0x394>
10002572:	e6d6      	b.n	10002322 <_ftoa+0x18a>
10002574:	10005a1c 	.word	0x10005a1c

10002578 <_vsnprintf>:
10002578:	b5f0      	push	{r4, r5, r6, r7, lr}
1000257a:	46de      	mov	lr, fp
1000257c:	464e      	mov	r6, r9
1000257e:	4657      	mov	r7, sl
10002580:	4645      	mov	r5, r8
10002582:	b5e0      	push	{r5, r6, r7, lr}
10002584:	b09f      	sub	sp, #124	; 0x7c
10002586:	001c      	movs	r4, r3
10002588:	9b28      	ldr	r3, [sp, #160]	; 0xa0
1000258a:	4693      	mov	fp, r2
1000258c:	9309      	str	r3, [sp, #36]	; 0x24
1000258e:	4acf      	ldr	r2, [pc, #828]	; (100028cc <_vsnprintf+0x354>)
10002590:	4bcf      	ldr	r3, [pc, #828]	; (100028d0 <_vsnprintf+0x358>)
10002592:	4689      	mov	r9, r1
10002594:	9008      	str	r0, [sp, #32]
10002596:	601a      	str	r2, [r3, #0]
10002598:	2900      	cmp	r1, #0
1000259a:	d100      	bne.n	1000259e <_vsnprintf+0x26>
1000259c:	e216      	b.n	100029cc <_vsnprintf+0x454>
1000259e:	2300      	movs	r3, #0
100025a0:	7820      	ldrb	r0, [r4, #0]
100025a2:	469a      	mov	sl, r3
100025a4:	2800      	cmp	r0, #0
100025a6:	d100      	bne.n	100025aa <_vsnprintf+0x32>
100025a8:	e218      	b.n	100029dc <_vsnprintf+0x464>
100025aa:	0026      	movs	r6, r4
100025ac:	001d      	movs	r5, r3
100025ae:	464c      	mov	r4, r9
100025b0:	e00a      	b.n	100025c8 <_vsnprintf+0x50>
100025b2:	002a      	movs	r2, r5
100025b4:	1c6f      	adds	r7, r5, #1
100025b6:	465b      	mov	r3, fp
100025b8:	9d08      	ldr	r5, [sp, #32]
100025ba:	0021      	movs	r1, r4
100025bc:	47a8      	blx	r5
100025be:	003d      	movs	r5, r7
100025c0:	3601      	adds	r6, #1
100025c2:	7830      	ldrb	r0, [r6, #0]
100025c4:	2800      	cmp	r0, #0
100025c6:	d07a      	beq.n	100026be <_vsnprintf+0x146>
100025c8:	2825      	cmp	r0, #37	; 0x25
100025ca:	d1f2      	bne.n	100025b2 <_vsnprintf+0x3a>
100025cc:	2310      	movs	r3, #16
100025ce:	469a      	mov	sl, r3
100025d0:	3b08      	subs	r3, #8
100025d2:	4699      	mov	r9, r3
100025d4:	3b04      	subs	r3, #4
100025d6:	4698      	mov	r8, r3
100025d8:	3b02      	subs	r3, #2
100025da:	2100      	movs	r1, #0
100025dc:	469c      	mov	ip, r3
100025de:	1c72      	adds	r2, r6, #1
100025e0:	7810      	ldrb	r0, [r2, #0]
100025e2:	0016      	movs	r6, r2
100025e4:	0003      	movs	r3, r0
100025e6:	3b20      	subs	r3, #32
100025e8:	b2db      	uxtb	r3, r3
100025ea:	2b10      	cmp	r3, #16
100025ec:	d803      	bhi.n	100025f6 <_vsnprintf+0x7e>
100025ee:	4fb9      	ldr	r7, [pc, #740]	; (100028d4 <_vsnprintf+0x35c>)
100025f0:	009b      	lsls	r3, r3, #2
100025f2:	58fb      	ldr	r3, [r7, r3]
100025f4:	469f      	mov	pc, r3
100025f6:	0003      	movs	r3, r0
100025f8:	3b30      	subs	r3, #48	; 0x30
100025fa:	2b09      	cmp	r3, #9
100025fc:	d93c      	bls.n	10002678 <_vsnprintf+0x100>
100025fe:	2300      	movs	r3, #0
10002600:	930a      	str	r3, [sp, #40]	; 0x28
10002602:	282a      	cmp	r0, #42	; 0x2a
10002604:	d100      	bne.n	10002608 <_vsnprintf+0x90>
10002606:	e071      	b.n	100026ec <_vsnprintf+0x174>
10002608:	2300      	movs	r3, #0
1000260a:	4698      	mov	r8, r3
1000260c:	282e      	cmp	r0, #46	; 0x2e
1000260e:	d047      	beq.n	100026a0 <_vsnprintf+0x128>
10002610:	0003      	movs	r3, r0
10002612:	3b68      	subs	r3, #104	; 0x68
10002614:	b2db      	uxtb	r3, r3
10002616:	2b12      	cmp	r3, #18
10002618:	d81f      	bhi.n	1000265a <_vsnprintf+0xe2>
1000261a:	4aaf      	ldr	r2, [pc, #700]	; (100028d8 <_vsnprintf+0x360>)
1000261c:	009b      	lsls	r3, r3, #2
1000261e:	58d3      	ldr	r3, [r2, r3]
10002620:	469f      	mov	pc, r3
10002622:	2301      	movs	r3, #1
10002624:	3201      	adds	r2, #1
10002626:	4319      	orrs	r1, r3
10002628:	e7da      	b.n	100025e0 <_vsnprintf+0x68>
1000262a:	4663      	mov	r3, ip
1000262c:	3201      	adds	r2, #1
1000262e:	4319      	orrs	r1, r3
10002630:	e7d6      	b.n	100025e0 <_vsnprintf+0x68>
10002632:	4643      	mov	r3, r8
10002634:	3201      	adds	r2, #1
10002636:	4319      	orrs	r1, r3
10002638:	e7d2      	b.n	100025e0 <_vsnprintf+0x68>
1000263a:	4653      	mov	r3, sl
1000263c:	3201      	adds	r2, #1
1000263e:	4319      	orrs	r1, r3
10002640:	e7ce      	b.n	100025e0 <_vsnprintf+0x68>
10002642:	464b      	mov	r3, r9
10002644:	3201      	adds	r2, #1
10002646:	4319      	orrs	r1, r3
10002648:	e7ca      	b.n	100025e0 <_vsnprintf+0x68>
1000264a:	7870      	ldrb	r0, [r6, #1]
1000264c:	286c      	cmp	r0, #108	; 0x6c
1000264e:	d100      	bne.n	10002652 <_vsnprintf+0xda>
10002650:	e2bf      	b.n	10002bd2 <_vsnprintf+0x65a>
10002652:	2380      	movs	r3, #128	; 0x80
10002654:	005b      	lsls	r3, r3, #1
10002656:	4319      	orrs	r1, r3
10002658:	3601      	adds	r6, #1
1000265a:	0003      	movs	r3, r0
1000265c:	3b25      	subs	r3, #37	; 0x25
1000265e:	b2db      	uxtb	r3, r3
10002660:	2b53      	cmp	r3, #83	; 0x53
10002662:	d8a6      	bhi.n	100025b2 <_vsnprintf+0x3a>
10002664:	4a9d      	ldr	r2, [pc, #628]	; (100028dc <_vsnprintf+0x364>)
10002666:	009b      	lsls	r3, r3, #2
10002668:	58d3      	ldr	r3, [r2, r3]
1000266a:	469f      	mov	pc, r3
1000266c:	2380      	movs	r3, #128	; 0x80
1000266e:	005b      	lsls	r3, r3, #1
10002670:	7870      	ldrb	r0, [r6, #1]
10002672:	4319      	orrs	r1, r3
10002674:	3601      	adds	r6, #1
10002676:	e7f0      	b.n	1000265a <_vsnprintf+0xe2>
10002678:	2700      	movs	r7, #0
1000267a:	0003      	movs	r3, r0
1000267c:	00b8      	lsls	r0, r7, #2
1000267e:	19c0      	adds	r0, r0, r7
10002680:	3601      	adds	r6, #1
10002682:	0040      	lsls	r0, r0, #1
10002684:	18c0      	adds	r0, r0, r3
10002686:	7833      	ldrb	r3, [r6, #0]
10002688:	3830      	subs	r0, #48	; 0x30
1000268a:	001a      	movs	r2, r3
1000268c:	3a30      	subs	r2, #48	; 0x30
1000268e:	0007      	movs	r7, r0
10002690:	2a09      	cmp	r2, #9
10002692:	d9f3      	bls.n	1000267c <_vsnprintf+0x104>
10002694:	900a      	str	r0, [sp, #40]	; 0x28
10002696:	0018      	movs	r0, r3
10002698:	2300      	movs	r3, #0
1000269a:	4698      	mov	r8, r3
1000269c:	282e      	cmp	r0, #46	; 0x2e
1000269e:	d1b7      	bne.n	10002610 <_vsnprintf+0x98>
100026a0:	2380      	movs	r3, #128	; 0x80
100026a2:	7870      	ldrb	r0, [r6, #1]
100026a4:	00db      	lsls	r3, r3, #3
100026a6:	4319      	orrs	r1, r3
100026a8:	0003      	movs	r3, r0
100026aa:	3b30      	subs	r3, #48	; 0x30
100026ac:	1c72      	adds	r2, r6, #1
100026ae:	2b09      	cmp	r3, #9
100026b0:	d800      	bhi.n	100026b4 <_vsnprintf+0x13c>
100026b2:	e195      	b.n	100029e0 <_vsnprintf+0x468>
100026b4:	282a      	cmp	r0, #42	; 0x2a
100026b6:	d100      	bne.n	100026ba <_vsnprintf+0x142>
100026b8:	e1a6      	b.n	10002a08 <_vsnprintf+0x490>
100026ba:	0016      	movs	r6, r2
100026bc:	e7a8      	b.n	10002610 <_vsnprintf+0x98>
100026be:	46a1      	mov	r9, r4
100026c0:	46aa      	mov	sl, r5
100026c2:	002c      	movs	r4, r5
100026c4:	45d3      	cmp	fp, sl
100026c6:	d803      	bhi.n	100026d0 <_vsnprintf+0x158>
100026c8:	2301      	movs	r3, #1
100026ca:	425b      	negs	r3, r3
100026cc:	445b      	add	r3, fp
100026ce:	469a      	mov	sl, r3
100026d0:	465b      	mov	r3, fp
100026d2:	4652      	mov	r2, sl
100026d4:	4649      	mov	r1, r9
100026d6:	2000      	movs	r0, #0
100026d8:	9d08      	ldr	r5, [sp, #32]
100026da:	47a8      	blx	r5
100026dc:	0020      	movs	r0, r4
100026de:	b01f      	add	sp, #124	; 0x7c
100026e0:	bc3c      	pop	{r2, r3, r4, r5}
100026e2:	4690      	mov	r8, r2
100026e4:	4699      	mov	r9, r3
100026e6:	46a2      	mov	sl, r4
100026e8:	46ab      	mov	fp, r5
100026ea:	bdf0      	pop	{r4, r5, r6, r7, pc}
100026ec:	9b09      	ldr	r3, [sp, #36]	; 0x24
100026ee:	cb40      	ldmia	r3!, {r6}
100026f0:	960a      	str	r6, [sp, #40]	; 0x28
100026f2:	2e00      	cmp	r6, #0
100026f4:	db03      	blt.n	100026fe <_vsnprintf+0x186>
100026f6:	7850      	ldrb	r0, [r2, #1]
100026f8:	9309      	str	r3, [sp, #36]	; 0x24
100026fa:	1c56      	adds	r6, r2, #1
100026fc:	e784      	b.n	10002608 <_vsnprintf+0x90>
100026fe:	3828      	subs	r0, #40	; 0x28
10002700:	4301      	orrs	r1, r0
10002702:	4270      	negs	r0, r6
10002704:	900a      	str	r0, [sp, #40]	; 0x28
10002706:	9309      	str	r3, [sp, #36]	; 0x24
10002708:	7850      	ldrb	r0, [r2, #1]
1000270a:	1c56      	adds	r6, r2, #1
1000270c:	e77c      	b.n	10002608 <_vsnprintf+0x90>
1000270e:	2878      	cmp	r0, #120	; 0x78
10002710:	d100      	bne.n	10002714 <_vsnprintf+0x19c>
10002712:	e1d4      	b.n	10002abe <_vsnprintf+0x546>
10002714:	2858      	cmp	r0, #88	; 0x58
10002716:	d100      	bne.n	1000271a <_vsnprintf+0x1a2>
10002718:	e268      	b.n	10002bec <_vsnprintf+0x674>
1000271a:	286f      	cmp	r0, #111	; 0x6f
1000271c:	d100      	bne.n	10002720 <_vsnprintf+0x1a8>
1000271e:	e352      	b.n	10002dc6 <_vsnprintf+0x84e>
10002720:	2862      	cmp	r0, #98	; 0x62
10002722:	d100      	bne.n	10002726 <_vsnprintf+0x1ae>
10002724:	e1d8      	b.n	10002ad8 <_vsnprintf+0x560>
10002726:	2310      	movs	r3, #16
10002728:	000a      	movs	r2, r1
1000272a:	439a      	bics	r2, r3
1000272c:	920b      	str	r2, [sp, #44]	; 0x2c
1000272e:	2869      	cmp	r0, #105	; 0x69
10002730:	d001      	beq.n	10002736 <_vsnprintf+0x1be>
10002732:	f000 fca2 	bl	1000307a <_vsnprintf+0xb02>
10002736:	230a      	movs	r3, #10
10002738:	930c      	str	r3, [sp, #48]	; 0x30
1000273a:	054b      	lsls	r3, r1, #21
1000273c:	d400      	bmi.n	10002740 <_vsnprintf+0x1c8>
1000273e:	e1d5      	b.n	10002aec <_vsnprintf+0x574>
10002740:	2301      	movs	r3, #1
10002742:	9a0b      	ldr	r2, [sp, #44]	; 0x2c
10002744:	439a      	bics	r2, r3
10002746:	920b      	str	r2, [sp, #44]	; 0x2c
10002748:	2869      	cmp	r0, #105	; 0x69
1000274a:	d100      	bne.n	1000274e <_vsnprintf+0x1d6>
1000274c:	e1ce      	b.n	10002aec <_vsnprintf+0x574>
1000274e:	2864      	cmp	r0, #100	; 0x64
10002750:	d100      	bne.n	10002754 <_vsnprintf+0x1dc>
10002752:	e1cb      	b.n	10002aec <_vsnprintf+0x574>
10002754:	9a0b      	ldr	r2, [sp, #44]	; 0x2c
10002756:	2380      	movs	r3, #128	; 0x80
10002758:	0011      	movs	r1, r2
1000275a:	009b      	lsls	r3, r3, #2
1000275c:	4019      	ands	r1, r3
1000275e:	468a      	mov	sl, r1
10002760:	421a      	tst	r2, r3
10002762:	d000      	beq.n	10002766 <_vsnprintf+0x1ee>
10002764:	e332      	b.n	10002dcc <_vsnprintf+0x854>
10002766:	2380      	movs	r3, #128	; 0x80
10002768:	0011      	movs	r1, r2
1000276a:	005b      	lsls	r3, r3, #1
1000276c:	4019      	ands	r1, r3
1000276e:	4689      	mov	r9, r1
10002770:	421a      	tst	r2, r3
10002772:	d001      	beq.n	10002778 <_vsnprintf+0x200>
10002774:	f000 fc02 	bl	10002f7c <_vsnprintf+0xa04>
10002778:	0013      	movs	r3, r2
1000277a:	065b      	lsls	r3, r3, #25
1000277c:	d500      	bpl.n	10002780 <_vsnprintf+0x208>
1000277e:	e310      	b.n	10002da2 <_vsnprintf+0x82a>
10002780:	9b0b      	ldr	r3, [sp, #44]	; 0x2c
10002782:	061b      	lsls	r3, r3, #24
10002784:	d401      	bmi.n	1000278a <_vsnprintf+0x212>
10002786:	f000 fc6e 	bl	10003066 <_vsnprintf+0xaee>
1000278a:	9b09      	ldr	r3, [sp, #36]	; 0x24
1000278c:	cb04      	ldmia	r3!, {r2}
1000278e:	0412      	lsls	r2, r2, #16
10002790:	0c12      	lsrs	r2, r2, #16
10002792:	4692      	mov	sl, r2
10002794:	9309      	str	r3, [sp, #36]	; 0x24
10002796:	4653      	mov	r3, sl
10002798:	2b00      	cmp	r3, #0
1000279a:	d000      	beq.n	1000279e <_vsnprintf+0x226>
1000279c:	e364      	b.n	10002e68 <_vsnprintf+0x8f0>
1000279e:	9a0b      	ldr	r2, [sp, #44]	; 0x2c
100027a0:	3310      	adds	r3, #16
100027a2:	0011      	movs	r1, r2
100027a4:	4399      	bics	r1, r3
100027a6:	910b      	str	r1, [sp, #44]	; 0x2c
100027a8:	0552      	lsls	r2, r2, #21
100027aa:	d400      	bmi.n	100027ae <_vsnprintf+0x236>
100027ac:	e35c      	b.n	10002e68 <_vsnprintf+0x8f0>
100027ae:	2300      	movs	r3, #0
100027b0:	4699      	mov	r9, r3
100027b2:	9b0b      	ldr	r3, [sp, #44]	; 0x2c
100027b4:	9306      	str	r3, [sp, #24]
100027b6:	9b0a      	ldr	r3, [sp, #40]	; 0x28
100027b8:	9305      	str	r3, [sp, #20]
100027ba:	4643      	mov	r3, r8
100027bc:	9304      	str	r3, [sp, #16]
100027be:	9b0c      	ldr	r3, [sp, #48]	; 0x30
100027c0:	9303      	str	r3, [sp, #12]
100027c2:	2300      	movs	r3, #0
100027c4:	e2de      	b.n	10002d84 <_vsnprintf+0x80c>
100027c6:	7870      	ldrb	r0, [r6, #1]
100027c8:	2868      	cmp	r0, #104	; 0x68
100027ca:	d100      	bne.n	100027ce <_vsnprintf+0x256>
100027cc:	e207      	b.n	10002bde <_vsnprintf+0x666>
100027ce:	2380      	movs	r3, #128	; 0x80
100027d0:	3601      	adds	r6, #1
100027d2:	4319      	orrs	r1, r3
100027d4:	e741      	b.n	1000265a <_vsnprintf+0xe2>
100027d6:	2380      	movs	r3, #128	; 0x80
100027d8:	009b      	lsls	r3, r3, #2
100027da:	7870      	ldrb	r0, [r6, #1]
100027dc:	4319      	orrs	r1, r3
100027de:	3601      	adds	r6, #1
100027e0:	e73b      	b.n	1000265a <_vsnprintf+0xe2>
100027e2:	2846      	cmp	r0, #70	; 0x46
100027e4:	d100      	bne.n	100027e8 <_vsnprintf+0x270>
100027e6:	e174      	b.n	10002ad2 <_vsnprintf+0x55a>
100027e8:	2207      	movs	r2, #7
100027ea:	9b09      	ldr	r3, [sp, #36]	; 0x24
100027ec:	9104      	str	r1, [sp, #16]
100027ee:	3307      	adds	r3, #7
100027f0:	4393      	bics	r3, r2
100027f2:	9a0a      	ldr	r2, [sp, #40]	; 0x28
100027f4:	0019      	movs	r1, r3
100027f6:	9203      	str	r2, [sp, #12]
100027f8:	4642      	mov	r2, r8
100027fa:	9202      	str	r2, [sp, #8]
100027fc:	c90c      	ldmia	r1!, {r2, r3}
100027fe:	9808      	ldr	r0, [sp, #32]
10002800:	9200      	str	r2, [sp, #0]
10002802:	9301      	str	r3, [sp, #4]
10002804:	9109      	str	r1, [sp, #36]	; 0x24
10002806:	002a      	movs	r2, r5
10002808:	465b      	mov	r3, fp
1000280a:	0021      	movs	r1, r4
1000280c:	f7ff fcc4 	bl	10002198 <_ftoa>
10002810:	3601      	adds	r6, #1
10002812:	0005      	movs	r5, r0
10002814:	e6d5      	b.n	100025c2 <_vsnprintf+0x4a>
10002816:	9b09      	ldr	r3, [sp, #36]	; 0x24
10002818:	001a      	movs	r2, r3
1000281a:	ca08      	ldmia	r2!, {r3}
1000281c:	4691      	mov	r9, r2
1000281e:	2b00      	cmp	r3, #0
10002820:	d100      	bne.n	10002824 <_vsnprintf+0x2ac>
10002822:	e105      	b.n	10002a30 <_vsnprintf+0x4b8>
10002824:	2221      	movs	r2, #33	; 0x21
10002826:	4311      	orrs	r1, r2
10002828:	468a      	mov	sl, r1
1000282a:	a80e      	add	r0, sp, #56	; 0x38
1000282c:	4684      	mov	ip, r0
1000282e:	211f      	movs	r1, #31
10002830:	4461      	add	r1, ip
10002832:	9509      	str	r5, [sp, #36]	; 0x24
10002834:	2200      	movs	r2, #0
10002836:	270f      	movs	r7, #15
10002838:	46a4      	mov	ip, r4
1000283a:	000d      	movs	r5, r1
1000283c:	e002      	b.n	10002844 <_vsnprintf+0x2cc>
1000283e:	2a20      	cmp	r2, #32
10002840:	d00c      	beq.n	1000285c <_vsnprintf+0x2e4>
10002842:	000b      	movs	r3, r1
10002844:	003c      	movs	r4, r7
10002846:	401c      	ands	r4, r3
10002848:	0020      	movs	r0, r4
1000284a:	3037      	adds	r0, #55	; 0x37
1000284c:	2c09      	cmp	r4, #9
1000284e:	d800      	bhi.n	10002852 <_vsnprintf+0x2da>
10002850:	3807      	subs	r0, #7
10002852:	3201      	adds	r2, #1
10002854:	54a8      	strb	r0, [r5, r2]
10002856:	0919      	lsrs	r1, r3, #4
10002858:	2b0f      	cmp	r3, #15
1000285a:	d8f0      	bhi.n	1000283e <_vsnprintf+0x2c6>
1000285c:	4664      	mov	r4, ip
1000285e:	9d09      	ldr	r5, [sp, #36]	; 0x24
10002860:	e0f0      	b.n	10002a44 <_vsnprintf+0x4cc>
10002862:	078b      	lsls	r3, r1, #30
10002864:	d400      	bmi.n	10002868 <_vsnprintf+0x2f0>
10002866:	e1d1      	b.n	10002c0c <_vsnprintf+0x694>
10002868:	9b09      	ldr	r3, [sp, #36]	; 0x24
1000286a:	002a      	movs	r2, r5
1000286c:	4699      	mov	r9, r3
1000286e:	1c6b      	adds	r3, r5, #1
10002870:	4698      	mov	r8, r3
10002872:	464b      	mov	r3, r9
10002874:	cb01      	ldmia	r3!, {r0}
10002876:	0021      	movs	r1, r4
10002878:	4699      	mov	r9, r3
1000287a:	9f08      	ldr	r7, [sp, #32]
1000287c:	465b      	mov	r3, fp
1000287e:	b2c0      	uxtb	r0, r0
10002880:	47b8      	blx	r7
10002882:	9b0a      	ldr	r3, [sp, #40]	; 0x28
10002884:	469c      	mov	ip, r3
10002886:	4465      	add	r5, ip
10002888:	2b01      	cmp	r3, #1
1000288a:	d800      	bhi.n	1000288e <_vsnprintf+0x316>
1000288c:	e290      	b.n	10002db0 <_vsnprintf+0x838>
1000288e:	46b2      	mov	sl, r6
10002890:	465e      	mov	r6, fp
10002892:	4647      	mov	r7, r8
10002894:	46a8      	mov	r8, r5
10002896:	9d08      	ldr	r5, [sp, #32]
10002898:	003a      	movs	r2, r7
1000289a:	0033      	movs	r3, r6
1000289c:	3701      	adds	r7, #1
1000289e:	0021      	movs	r1, r4
100028a0:	2020      	movs	r0, #32
100028a2:	47a8      	blx	r5
100028a4:	4547      	cmp	r7, r8
100028a6:	d1f7      	bne.n	10002898 <_vsnprintf+0x320>
100028a8:	46b3      	mov	fp, r6
100028aa:	464b      	mov	r3, r9
100028ac:	4656      	mov	r6, sl
100028ae:	003d      	movs	r5, r7
100028b0:	9309      	str	r3, [sp, #36]	; 0x24
100028b2:	3601      	adds	r6, #1
100028b4:	e685      	b.n	100025c2 <_vsnprintf+0x4a>
100028b6:	002a      	movs	r2, r5
100028b8:	1c6f      	adds	r7, r5, #1
100028ba:	465b      	mov	r3, fp
100028bc:	9d08      	ldr	r5, [sp, #32]
100028be:	0021      	movs	r1, r4
100028c0:	2025      	movs	r0, #37	; 0x25
100028c2:	47a8      	blx	r5
100028c4:	3601      	adds	r6, #1
100028c6:	003d      	movs	r5, r7
100028c8:	e67b      	b.n	100025c2 <_vsnprintf+0x4a>
100028ca:	46c0      	nop			; (mov r8, r8)
100028cc:	10002579 	.word	0x10002579
100028d0:	20000b04 	.word	0x20000b04
100028d4:	10005a28 	.word	0x10005a28
100028d8:	10005a6c 	.word	0x10005a6c
100028dc:	10005ab8 	.word	0x10005ab8
100028e0:	9b09      	ldr	r3, [sp, #36]	; 0x24
100028e2:	cb04      	ldmia	r3!, {r2}
100028e4:	4699      	mov	r9, r3
100028e6:	4643      	mov	r3, r8
100028e8:	9209      	str	r2, [sp, #36]	; 0x24
100028ea:	2b00      	cmp	r3, #0
100028ec:	d000      	beq.n	100028f0 <_vsnprintf+0x378>
100028ee:	e097      	b.n	10002a20 <_vsnprintf+0x4a8>
100028f0:	7813      	ldrb	r3, [r2, #0]
100028f2:	469c      	mov	ip, r3
100028f4:	2b00      	cmp	r3, #0
100028f6:	d100      	bne.n	100028fa <_vsnprintf+0x382>
100028f8:	e3b3      	b.n	10003062 <_vsnprintf+0xaea>
100028fa:	2302      	movs	r3, #2
100028fc:	425b      	negs	r3, r3
100028fe:	1c5a      	adds	r2, r3, #1
10002900:	9b09      	ldr	r3, [sp, #36]	; 0x24
10002902:	4692      	mov	sl, r2
10002904:	0018      	movs	r0, r3
10002906:	9f0a      	ldr	r7, [sp, #40]	; 0x28
10002908:	920b      	str	r2, [sp, #44]	; 0x2c
1000290a:	4450      	add	r0, sl
1000290c:	e002      	b.n	10002914 <_vsnprintf+0x39c>
1000290e:	4283      	cmp	r3, r0
10002910:	d100      	bne.n	10002914 <_vsnprintf+0x39c>
10002912:	e169      	b.n	10002be8 <_vsnprintf+0x670>
10002914:	785a      	ldrb	r2, [r3, #1]
10002916:	3301      	adds	r3, #1
10002918:	2a00      	cmp	r2, #0
1000291a:	d1f8      	bne.n	1000290e <_vsnprintf+0x396>
1000291c:	9a09      	ldr	r2, [sp, #36]	; 0x24
1000291e:	970a      	str	r7, [sp, #40]	; 0x28
10002920:	1a9b      	subs	r3, r3, r2
10002922:	930b      	str	r3, [sp, #44]	; 0x2c
10002924:	2380      	movs	r3, #128	; 0x80
10002926:	000a      	movs	r2, r1
10002928:	00db      	lsls	r3, r3, #3
1000292a:	401a      	ands	r2, r3
1000292c:	920c      	str	r2, [sp, #48]	; 0x30
1000292e:	4219      	tst	r1, r3
10002930:	d004      	beq.n	1000293c <_vsnprintf+0x3c4>
10002932:	9b0b      	ldr	r3, [sp, #44]	; 0x2c
10002934:	4543      	cmp	r3, r8
10002936:	d901      	bls.n	1000293c <_vsnprintf+0x3c4>
10002938:	4643      	mov	r3, r8
1000293a:	930b      	str	r3, [sp, #44]	; 0x2c
1000293c:	2302      	movs	r3, #2
1000293e:	001a      	movs	r2, r3
10002940:	400a      	ands	r2, r1
10002942:	920d      	str	r2, [sp, #52]	; 0x34
10002944:	420b      	tst	r3, r1
10002946:	d100      	bne.n	1000294a <_vsnprintf+0x3d2>
10002948:	e184      	b.n	10002c54 <_vsnprintf+0x6dc>
1000294a:	4660      	mov	r0, ip
1000294c:	2800      	cmp	r0, #0
1000294e:	d023      	beq.n	10002998 <_vsnprintf+0x420>
10002950:	9b0c      	ldr	r3, [sp, #48]	; 0x30
10002952:	2b00      	cmp	r3, #0
10002954:	d100      	bne.n	10002958 <_vsnprintf+0x3e0>
10002956:	e124      	b.n	10002ba2 <_vsnprintf+0x62a>
10002958:	44a8      	add	r8, r5
1000295a:	46c2      	mov	sl, r8
1000295c:	9b09      	ldr	r3, [sp, #36]	; 0x24
1000295e:	4657      	mov	r7, sl
10002960:	1b5b      	subs	r3, r3, r5
10002962:	4698      	mov	r8, r3
10002964:	9b08      	ldr	r3, [sp, #32]
10002966:	46b2      	mov	sl, r6
10002968:	002a      	movs	r2, r5
1000296a:	0026      	movs	r6, r4
1000296c:	465c      	mov	r4, fp
1000296e:	469b      	mov	fp, r3
10002970:	e009      	b.n	10002986 <_vsnprintf+0x40e>
10002972:	0023      	movs	r3, r4
10002974:	0031      	movs	r1, r6
10002976:	1c55      	adds	r5, r2, #1
10002978:	47d8      	blx	fp
1000297a:	4643      	mov	r3, r8
1000297c:	5d58      	ldrb	r0, [r3, r5]
1000297e:	2800      	cmp	r0, #0
10002980:	d100      	bne.n	10002984 <_vsnprintf+0x40c>
10002982:	e13f      	b.n	10002c04 <_vsnprintf+0x68c>
10002984:	002a      	movs	r2, r5
10002986:	4297      	cmp	r7, r2
10002988:	d1f3      	bne.n	10002972 <_vsnprintf+0x3fa>
1000298a:	46a3      	mov	fp, r4
1000298c:	003d      	movs	r5, r7
1000298e:	0034      	movs	r4, r6
10002990:	4656      	mov	r6, sl
10002992:	9b0d      	ldr	r3, [sp, #52]	; 0x34
10002994:	2b00      	cmp	r3, #0
10002996:	d069      	beq.n	10002a6c <_vsnprintf+0x4f4>
10002998:	9b0b      	ldr	r3, [sp, #44]	; 0x2c
1000299a:	990a      	ldr	r1, [sp, #40]	; 0x28
1000299c:	46a8      	mov	r8, r5
1000299e:	4299      	cmp	r1, r3
100029a0:	d964      	bls.n	10002a6c <_vsnprintf+0x4f4>
100029a2:	468c      	mov	ip, r1
100029a4:	4465      	add	r5, ip
100029a6:	1aed      	subs	r5, r5, r3
100029a8:	9b08      	ldr	r3, [sp, #32]
100029aa:	4647      	mov	r7, r8
100029ac:	469a      	mov	sl, r3
100029ae:	46b0      	mov	r8, r6
100029b0:	0026      	movs	r6, r4
100029b2:	465c      	mov	r4, fp
100029b4:	003a      	movs	r2, r7
100029b6:	0023      	movs	r3, r4
100029b8:	3701      	adds	r7, #1
100029ba:	0031      	movs	r1, r6
100029bc:	2020      	movs	r0, #32
100029be:	47d0      	blx	sl
100029c0:	42af      	cmp	r7, r5
100029c2:	d1f7      	bne.n	100029b4 <_vsnprintf+0x43c>
100029c4:	46a3      	mov	fp, r4
100029c6:	0034      	movs	r4, r6
100029c8:	4646      	mov	r6, r8
100029ca:	e04f      	b.n	10002a6c <_vsnprintf+0x4f4>
100029cc:	4bd2      	ldr	r3, [pc, #840]	; (10002d18 <_vsnprintf+0x7a0>)
100029ce:	7820      	ldrb	r0, [r4, #0]
100029d0:	9308      	str	r3, [sp, #32]
100029d2:	2300      	movs	r3, #0
100029d4:	469a      	mov	sl, r3
100029d6:	2800      	cmp	r0, #0
100029d8:	d000      	beq.n	100029dc <_vsnprintf+0x464>
100029da:	e5e6      	b.n	100025aa <_vsnprintf+0x32>
100029dc:	2400      	movs	r4, #0
100029de:	e671      	b.n	100026c4 <_vsnprintf+0x14c>
100029e0:	4643      	mov	r3, r8
100029e2:	0006      	movs	r6, r0
100029e4:	9f0a      	ldr	r7, [sp, #40]	; 0x28
100029e6:	0098      	lsls	r0, r3, #2
100029e8:	18c0      	adds	r0, r0, r3
100029ea:	3201      	adds	r2, #1
100029ec:	0040      	lsls	r0, r0, #1
100029ee:	1980      	adds	r0, r0, r6
100029f0:	7816      	ldrb	r6, [r2, #0]
100029f2:	0003      	movs	r3, r0
100029f4:	0030      	movs	r0, r6
100029f6:	3830      	subs	r0, #48	; 0x30
100029f8:	3b30      	subs	r3, #48	; 0x30
100029fa:	2809      	cmp	r0, #9
100029fc:	d9f3      	bls.n	100029e6 <_vsnprintf+0x46e>
100029fe:	0030      	movs	r0, r6
10002a00:	4698      	mov	r8, r3
10002a02:	0016      	movs	r6, r2
10002a04:	970a      	str	r7, [sp, #40]	; 0x28
10002a06:	e603      	b.n	10002610 <_vsnprintf+0x98>
10002a08:	9b09      	ldr	r3, [sp, #36]	; 0x24
10002a0a:	3602      	adds	r6, #2
10002a0c:	cb04      	ldmia	r3!, {r2}
10002a0e:	4690      	mov	r8, r2
10002a10:	43d2      	mvns	r2, r2
10002a12:	4640      	mov	r0, r8
10002a14:	17d2      	asrs	r2, r2, #31
10002a16:	4010      	ands	r0, r2
10002a18:	4680      	mov	r8, r0
10002a1a:	9309      	str	r3, [sp, #36]	; 0x24
10002a1c:	7830      	ldrb	r0, [r6, #0]
10002a1e:	e5f7      	b.n	10002610 <_vsnprintf+0x98>
10002a20:	7813      	ldrb	r3, [r2, #0]
10002a22:	469c      	mov	ip, r3
10002a24:	2b00      	cmp	r3, #0
10002a26:	d100      	bne.n	10002a2a <_vsnprintf+0x4b2>
10002a28:	e31a      	b.n	10003060 <_vsnprintf+0xae8>
10002a2a:	4643      	mov	r3, r8
10002a2c:	3b01      	subs	r3, #1
10002a2e:	e766      	b.n	100028fe <_vsnprintf+0x386>
10002a30:	2210      	movs	r2, #16
10002a32:	0008      	movs	r0, r1
10002a34:	4390      	bics	r0, r2
10002a36:	3211      	adds	r2, #17
10002a38:	4310      	orrs	r0, r2
10002a3a:	4682      	mov	sl, r0
10002a3c:	2200      	movs	r2, #0
10002a3e:	0549      	lsls	r1, r1, #21
10002a40:	d400      	bmi.n	10002a44 <_vsnprintf+0x4cc>
10002a42:	e6f2      	b.n	1000282a <_vsnprintf+0x2b2>
10002a44:	4653      	mov	r3, sl
10002a46:	9306      	str	r3, [sp, #24]
10002a48:	2308      	movs	r3, #8
10002a4a:	9305      	str	r3, [sp, #20]
10002a4c:	4643      	mov	r3, r8
10002a4e:	9304      	str	r3, [sp, #16]
10002a50:	2310      	movs	r3, #16
10002a52:	9303      	str	r3, [sp, #12]
10002a54:	2300      	movs	r3, #0
10002a56:	9302      	str	r3, [sp, #8]
10002a58:	ab16      	add	r3, sp, #88	; 0x58
10002a5a:	9201      	str	r2, [sp, #4]
10002a5c:	9300      	str	r3, [sp, #0]
10002a5e:	002a      	movs	r2, r5
10002a60:	465b      	mov	r3, fp
10002a62:	0021      	movs	r1, r4
10002a64:	9808      	ldr	r0, [sp, #32]
10002a66:	f7ff f879 	bl	10001b5c <_ntoa_format>
10002a6a:	0005      	movs	r5, r0
10002a6c:	464b      	mov	r3, r9
10002a6e:	3601      	adds	r6, #1
10002a70:	9309      	str	r3, [sp, #36]	; 0x24
10002a72:	e5a6      	b.n	100025c2 <_vsnprintf+0x4a>
10002a74:	2320      	movs	r3, #32
10002a76:	0002      	movs	r2, r0
10002a78:	439a      	bics	r2, r3
10002a7a:	2a47      	cmp	r2, #71	; 0x47
10002a7c:	d104      	bne.n	10002a88 <_vsnprintf+0x510>
10002a7e:	2380      	movs	r3, #128	; 0x80
10002a80:	011b      	lsls	r3, r3, #4
10002a82:	4319      	orrs	r1, r3
10002a84:	2302      	movs	r3, #2
10002a86:	4398      	bics	r0, r3
10002a88:	2845      	cmp	r0, #69	; 0x45
10002a8a:	d101      	bne.n	10002a90 <_vsnprintf+0x518>
10002a8c:	2320      	movs	r3, #32
10002a8e:	4319      	orrs	r1, r3
10002a90:	2207      	movs	r2, #7
10002a92:	9b09      	ldr	r3, [sp, #36]	; 0x24
10002a94:	9104      	str	r1, [sp, #16]
10002a96:	3307      	adds	r3, #7
10002a98:	4393      	bics	r3, r2
10002a9a:	9a0a      	ldr	r2, [sp, #40]	; 0x28
10002a9c:	0019      	movs	r1, r3
10002a9e:	9203      	str	r2, [sp, #12]
10002aa0:	4642      	mov	r2, r8
10002aa2:	9202      	str	r2, [sp, #8]
10002aa4:	c90c      	ldmia	r1!, {r2, r3}
10002aa6:	9808      	ldr	r0, [sp, #32]
10002aa8:	9200      	str	r2, [sp, #0]
10002aaa:	9301      	str	r3, [sp, #4]
10002aac:	9109      	str	r1, [sp, #36]	; 0x24
10002aae:	002a      	movs	r2, r5
10002ab0:	465b      	mov	r3, fp
10002ab2:	0021      	movs	r1, r4
10002ab4:	f7ff f94a 	bl	10001d4c <_etoa>
10002ab8:	3601      	adds	r6, #1
10002aba:	0005      	movs	r5, r0
10002abc:	e581      	b.n	100025c2 <_vsnprintf+0x4a>
10002abe:	2310      	movs	r3, #16
10002ac0:	930c      	str	r3, [sp, #48]	; 0x30
10002ac2:	230c      	movs	r3, #12
10002ac4:	000a      	movs	r2, r1
10002ac6:	439a      	bics	r2, r3
10002ac8:	920b      	str	r2, [sp, #44]	; 0x2c
10002aca:	054b      	lsls	r3, r1, #21
10002acc:	d400      	bmi.n	10002ad0 <_vsnprintf+0x558>
10002ace:	e63b      	b.n	10002748 <_vsnprintf+0x1d0>
10002ad0:	e636      	b.n	10002740 <_vsnprintf+0x1c8>
10002ad2:	2320      	movs	r3, #32
10002ad4:	4319      	orrs	r1, r3
10002ad6:	e687      	b.n	100027e8 <_vsnprintf+0x270>
10002ad8:	2302      	movs	r3, #2
10002ada:	930c      	str	r3, [sp, #48]	; 0x30
10002adc:	910b      	str	r1, [sp, #44]	; 0x2c
10002ade:	990b      	ldr	r1, [sp, #44]	; 0x2c
10002ae0:	2864      	cmp	r0, #100	; 0x64
10002ae2:	d1ee      	bne.n	10002ac2 <_vsnprintf+0x54a>
10002ae4:	9b0b      	ldr	r3, [sp, #44]	; 0x2c
10002ae6:	055b      	lsls	r3, r3, #21
10002ae8:	d500      	bpl.n	10002aec <_vsnprintf+0x574>
10002aea:	e629      	b.n	10002740 <_vsnprintf+0x1c8>
10002aec:	9a0b      	ldr	r2, [sp, #44]	; 0x2c
10002aee:	2380      	movs	r3, #128	; 0x80
10002af0:	0011      	movs	r1, r2
10002af2:	009b      	lsls	r3, r3, #2
10002af4:	4019      	ands	r1, r3
10002af6:	468a      	mov	sl, r1
10002af8:	421a      	tst	r2, r3
10002afa:	d000      	beq.n	10002afe <_vsnprintf+0x586>
10002afc:	e0ce      	b.n	10002c9c <_vsnprintf+0x724>
10002afe:	2380      	movs	r3, #128	; 0x80
10002b00:	0011      	movs	r1, r2
10002b02:	005b      	lsls	r3, r3, #1
10002b04:	4019      	ands	r1, r3
10002b06:	4689      	mov	r9, r1
10002b08:	421a      	tst	r2, r3
10002b0a:	d000      	beq.n	10002b0e <_vsnprintf+0x596>
10002b0c:	e1db      	b.n	10002ec6 <_vsnprintf+0x94e>
10002b0e:	0013      	movs	r3, r2
10002b10:	065b      	lsls	r3, r3, #25
10002b12:	d500      	bpl.n	10002b16 <_vsnprintf+0x59e>
10002b14:	e11d      	b.n	10002d52 <_vsnprintf+0x7da>
10002b16:	9b0b      	ldr	r3, [sp, #44]	; 0x2c
10002b18:	9909      	ldr	r1, [sp, #36]	; 0x24
10002b1a:	061b      	lsls	r3, r3, #24
10002b1c:	d400      	bmi.n	10002b20 <_vsnprintf+0x5a8>
10002b1e:	e299      	b.n	10003054 <_vsnprintf+0xadc>
10002b20:	c908      	ldmia	r1!, {r3}
10002b22:	b21b      	sxth	r3, r3
10002b24:	17d8      	asrs	r0, r3, #31
10002b26:	181a      	adds	r2, r3, r0
10002b28:	4042      	eors	r2, r0
10002b2a:	b292      	uxth	r2, r2
10002b2c:	9109      	str	r1, [sp, #36]	; 0x24
10002b2e:	4692      	mov	sl, r2
10002b30:	0fda      	lsrs	r2, r3, #31
10002b32:	9212      	str	r2, [sp, #72]	; 0x48
10002b34:	2b00      	cmp	r3, #0
10002b36:	d109      	bne.n	10002b4c <_vsnprintf+0x5d4>
10002b38:	2380      	movs	r3, #128	; 0x80
10002b3a:	2210      	movs	r2, #16
10002b3c:	990b      	ldr	r1, [sp, #44]	; 0x2c
10002b3e:	00db      	lsls	r3, r3, #3
10002b40:	400b      	ands	r3, r1
10002b42:	4391      	bics	r1, r2
10002b44:	910b      	str	r1, [sp, #44]	; 0x2c
10002b46:	2b00      	cmp	r3, #0
10002b48:	d000      	beq.n	10002b4c <_vsnprintf+0x5d4>
10002b4a:	e112      	b.n	10002d72 <_vsnprintf+0x7fa>
10002b4c:	9a0b      	ldr	r2, [sp, #44]	; 0x2c
10002b4e:	2361      	movs	r3, #97	; 0x61
10002b50:	0692      	lsls	r2, r2, #26
10002b52:	d500      	bpl.n	10002b56 <_vsnprintf+0x5de>
10002b54:	2341      	movs	r3, #65	; 0x41
10002b56:	a90e      	add	r1, sp, #56	; 0x38
10002b58:	221f      	movs	r2, #31
10002b5a:	468c      	mov	ip, r1
10002b5c:	b2db      	uxtb	r3, r3
10002b5e:	4462      	add	r2, ip
10002b60:	3b0a      	subs	r3, #10
10002b62:	4657      	mov	r7, sl
10002b64:	9513      	str	r5, [sp, #76]	; 0x4c
10002b66:	46a2      	mov	sl, r4
10002b68:	464d      	mov	r5, r9
10002b6a:	9c0c      	ldr	r4, [sp, #48]	; 0x30
10002b6c:	46b1      	mov	r9, r6
10002b6e:	930d      	str	r3, [sp, #52]	; 0x34
10002b70:	0016      	movs	r6, r2
10002b72:	e00a      	b.n	10002b8a <_vsnprintf+0x612>
10002b74:	3330      	adds	r3, #48	; 0x30
10002b76:	b2db      	uxtb	r3, r3
10002b78:	3501      	adds	r5, #1
10002b7a:	5573      	strb	r3, [r6, r5]
10002b7c:	42a7      	cmp	r7, r4
10002b7e:	d200      	bcs.n	10002b82 <_vsnprintf+0x60a>
10002b80:	e11c      	b.n	10002dbc <_vsnprintf+0x844>
10002b82:	2d20      	cmp	r5, #32
10002b84:	d100      	bne.n	10002b88 <_vsnprintf+0x610>
10002b86:	e119      	b.n	10002dbc <_vsnprintf+0x844>
10002b88:	0007      	movs	r7, r0
10002b8a:	0021      	movs	r1, r4
10002b8c:	0038      	movs	r0, r7
10002b8e:	f000 fb01 	bl	10003194 <__wrap___aeabi_uidiv>
10002b92:	b2cb      	uxtb	r3, r1
10002b94:	2909      	cmp	r1, #9
10002b96:	d9ed      	bls.n	10002b74 <_vsnprintf+0x5fc>
10002b98:	9a0d      	ldr	r2, [sp, #52]	; 0x34
10002b9a:	4694      	mov	ip, r2
10002b9c:	4463      	add	r3, ip
10002b9e:	b2db      	uxtb	r3, r3
10002ba0:	e7ea      	b.n	10002b78 <_vsnprintf+0x600>
10002ba2:	9b09      	ldr	r3, [sp, #36]	; 0x24
10002ba4:	465f      	mov	r7, fp
10002ba6:	1b5b      	subs	r3, r3, r5
10002ba8:	4698      	mov	r8, r3
10002baa:	9b0a      	ldr	r3, [sp, #40]	; 0x28
10002bac:	46b3      	mov	fp, r6
10002bae:	469a      	mov	sl, r3
10002bb0:	0026      	movs	r6, r4
10002bb2:	9c08      	ldr	r4, [sp, #32]
10002bb4:	002a      	movs	r2, r5
10002bb6:	003b      	movs	r3, r7
10002bb8:	0031      	movs	r1, r6
10002bba:	47a0      	blx	r4
10002bbc:	4643      	mov	r3, r8
10002bbe:	3501      	adds	r5, #1
10002bc0:	5d58      	ldrb	r0, [r3, r5]
10002bc2:	2800      	cmp	r0, #0
10002bc4:	d1f6      	bne.n	10002bb4 <_vsnprintf+0x63c>
10002bc6:	4653      	mov	r3, sl
10002bc8:	0034      	movs	r4, r6
10002bca:	930a      	str	r3, [sp, #40]	; 0x28
10002bcc:	465e      	mov	r6, fp
10002bce:	46bb      	mov	fp, r7
10002bd0:	e6df      	b.n	10002992 <_vsnprintf+0x41a>
10002bd2:	23c0      	movs	r3, #192	; 0xc0
10002bd4:	009b      	lsls	r3, r3, #2
10002bd6:	78b0      	ldrb	r0, [r6, #2]
10002bd8:	4319      	orrs	r1, r3
10002bda:	3602      	adds	r6, #2
10002bdc:	e53d      	b.n	1000265a <_vsnprintf+0xe2>
10002bde:	23c0      	movs	r3, #192	; 0xc0
10002be0:	78b0      	ldrb	r0, [r6, #2]
10002be2:	4319      	orrs	r1, r3
10002be4:	3602      	adds	r6, #2
10002be6:	e538      	b.n	1000265a <_vsnprintf+0xe2>
10002be8:	970a      	str	r7, [sp, #40]	; 0x28
10002bea:	e69b      	b.n	10002924 <_vsnprintf+0x3ac>
10002bec:	230c      	movs	r3, #12
10002bee:	000a      	movs	r2, r1
10002bf0:	439a      	bics	r2, r3
10002bf2:	3314      	adds	r3, #20
10002bf4:	431a      	orrs	r2, r3
10002bf6:	2310      	movs	r3, #16
10002bf8:	920b      	str	r2, [sp, #44]	; 0x2c
10002bfa:	930c      	str	r3, [sp, #48]	; 0x30
10002bfc:	054b      	lsls	r3, r1, #21
10002bfe:	d400      	bmi.n	10002c02 <_vsnprintf+0x68a>
10002c00:	e5a8      	b.n	10002754 <_vsnprintf+0x1dc>
10002c02:	e59d      	b.n	10002740 <_vsnprintf+0x1c8>
10002c04:	46a3      	mov	fp, r4
10002c06:	0034      	movs	r4, r6
10002c08:	4656      	mov	r6, sl
10002c0a:	e6c2      	b.n	10002992 <_vsnprintf+0x41a>
10002c0c:	9a0a      	ldr	r2, [sp, #40]	; 0x28
10002c0e:	2a01      	cmp	r2, #1
10002c10:	d800      	bhi.n	10002c14 <_vsnprintf+0x69c>
10002c12:	e22e      	b.n	10003072 <_vsnprintf+0xafa>
10002c14:	1e6b      	subs	r3, r5, #1
10002c16:	189f      	adds	r7, r3, r2
10002c18:	9b08      	ldr	r3, [sp, #32]
10002c1a:	46b0      	mov	r8, r6
10002c1c:	4699      	mov	r9, r3
10002c1e:	0026      	movs	r6, r4
10002c20:	465c      	mov	r4, fp
10002c22:	002a      	movs	r2, r5
10002c24:	0023      	movs	r3, r4
10002c26:	3501      	adds	r5, #1
10002c28:	0031      	movs	r1, r6
10002c2a:	2020      	movs	r0, #32
10002c2c:	47c8      	blx	r9
10002c2e:	42bd      	cmp	r5, r7
10002c30:	d1f7      	bne.n	10002c22 <_vsnprintf+0x6aa>
10002c32:	46a3      	mov	fp, r4
10002c34:	0034      	movs	r4, r6
10002c36:	4646      	mov	r6, r8
10002c38:	9b09      	ldr	r3, [sp, #36]	; 0x24
10002c3a:	003a      	movs	r2, r7
10002c3c:	cb01      	ldmia	r3!, {r0}
10002c3e:	0021      	movs	r1, r4
10002c40:	4698      	mov	r8, r3
10002c42:	1c7d      	adds	r5, r7, #1
10002c44:	465b      	mov	r3, fp
10002c46:	9f08      	ldr	r7, [sp, #32]
10002c48:	b2c0      	uxtb	r0, r0
10002c4a:	47b8      	blx	r7
10002c4c:	4643      	mov	r3, r8
10002c4e:	3601      	adds	r6, #1
10002c50:	9309      	str	r3, [sp, #36]	; 0x24
10002c52:	e4b6      	b.n	100025c2 <_vsnprintf+0x4a>
10002c54:	9a0b      	ldr	r2, [sp, #44]	; 0x2c
10002c56:	980a      	ldr	r0, [sp, #40]	; 0x28
10002c58:	1c53      	adds	r3, r2, #1
10002c5a:	4290      	cmp	r0, r2
10002c5c:	d800      	bhi.n	10002c60 <_vsnprintf+0x6e8>
10002c5e:	e20a      	b.n	10003076 <_vsnprintf+0xafe>
10002c60:	1943      	adds	r3, r0, r5
10002c62:	1a9b      	subs	r3, r3, r2
10002c64:	001f      	movs	r7, r3
10002c66:	9b08      	ldr	r3, [sp, #32]
10002c68:	46b2      	mov	sl, r6
10002c6a:	0026      	movs	r6, r4
10002c6c:	465c      	mov	r4, fp
10002c6e:	469b      	mov	fp, r3
10002c70:	002a      	movs	r2, r5
10002c72:	0023      	movs	r3, r4
10002c74:	3501      	adds	r5, #1
10002c76:	0031      	movs	r1, r6
10002c78:	2020      	movs	r0, #32
10002c7a:	47d8      	blx	fp
10002c7c:	42bd      	cmp	r5, r7
10002c7e:	d1f7      	bne.n	10002c70 <_vsnprintf+0x6f8>
10002c80:	9b0a      	ldr	r3, [sp, #40]	; 0x28
10002c82:	46a3      	mov	fp, r4
10002c84:	3301      	adds	r3, #1
10002c86:	930b      	str	r3, [sp, #44]	; 0x2c
10002c88:	9b09      	ldr	r3, [sp, #36]	; 0x24
10002c8a:	0034      	movs	r4, r6
10002c8c:	781b      	ldrb	r3, [r3, #0]
10002c8e:	4656      	mov	r6, sl
10002c90:	469c      	mov	ip, r3
10002c92:	4660      	mov	r0, ip
10002c94:	2800      	cmp	r0, #0
10002c96:	d000      	beq.n	10002c9a <_vsnprintf+0x722>
10002c98:	e65a      	b.n	10002950 <_vsnprintf+0x3d8>
10002c9a:	e6e7      	b.n	10002a6c <_vsnprintf+0x4f4>
10002c9c:	2207      	movs	r2, #7
10002c9e:	9b09      	ldr	r3, [sp, #36]	; 0x24
10002ca0:	3307      	adds	r3, #7
10002ca2:	4393      	bics	r3, r2
10002ca4:	3201      	adds	r2, #1
10002ca6:	4694      	mov	ip, r2
10002ca8:	449c      	add	ip, r3
10002caa:	4662      	mov	r2, ip
10002cac:	685f      	ldr	r7, [r3, #4]
10002cae:	9209      	str	r2, [sp, #36]	; 0x24
10002cb0:	681a      	ldr	r2, [r3, #0]
10002cb2:	17fb      	asrs	r3, r7, #31
10002cb4:	9310      	str	r3, [sp, #64]	; 0x40
10002cb6:	9311      	str	r3, [sp, #68]	; 0x44
10002cb8:	9810      	ldr	r0, [sp, #64]	; 0x40
10002cba:	9911      	ldr	r1, [sp, #68]	; 0x44
10002cbc:	0003      	movs	r3, r0
10002cbe:	4053      	eors	r3, r2
10002cc0:	930e      	str	r3, [sp, #56]	; 0x38
10002cc2:	000b      	movs	r3, r1
10002cc4:	407b      	eors	r3, r7
10002cc6:	930f      	str	r3, [sp, #60]	; 0x3c
10002cc8:	4694      	mov	ip, r2
10002cca:	9a0e      	ldr	r2, [sp, #56]	; 0x38
10002ccc:	9b0f      	ldr	r3, [sp, #60]	; 0x3c
10002cce:	1a12      	subs	r2, r2, r0
10002cd0:	418b      	sbcs	r3, r1
10002cd2:	920e      	str	r2, [sp, #56]	; 0x38
10002cd4:	930f      	str	r3, [sp, #60]	; 0x3c
10002cd6:	0ffb      	lsrs	r3, r7, #31
10002cd8:	4662      	mov	r2, ip
10002cda:	9312      	str	r3, [sp, #72]	; 0x48
10002cdc:	2300      	movs	r3, #0
10002cde:	433a      	orrs	r2, r7
10002ce0:	469a      	mov	sl, r3
10002ce2:	d03d      	beq.n	10002d60 <_vsnprintf+0x7e8>
10002ce4:	9a0b      	ldr	r2, [sp, #44]	; 0x2c
10002ce6:	2361      	movs	r3, #97	; 0x61
10002ce8:	0692      	lsls	r2, r2, #26
10002cea:	d500      	bpl.n	10002cee <_vsnprintf+0x776>
10002cec:	2341      	movs	r3, #65	; 0x41
10002cee:	2200      	movs	r2, #0
10002cf0:	b2db      	uxtb	r3, r3
10002cf2:	a90e      	add	r1, sp, #56	; 0x38
10002cf4:	3b0a      	subs	r3, #10
10002cf6:	468c      	mov	ip, r1
10002cf8:	4691      	mov	r9, r2
10002cfa:	930d      	str	r3, [sp, #52]	; 0x34
10002cfc:	4643      	mov	r3, r8
10002cfe:	321f      	adds	r2, #31
10002d00:	4462      	add	r2, ip
10002d02:	9513      	str	r5, [sp, #76]	; 0x4c
10002d04:	9615      	str	r6, [sp, #84]	; 0x54
10002d06:	464d      	mov	r5, r9
10002d08:	9e0e      	ldr	r6, [sp, #56]	; 0x38
10002d0a:	9f0f      	ldr	r7, [sp, #60]	; 0x3c
10002d0c:	46a1      	mov	r9, r4
10002d0e:	4690      	mov	r8, r2
10002d10:	9c0c      	ldr	r4, [sp, #48]	; 0x30
10002d12:	9314      	str	r3, [sp, #80]	; 0x50
10002d14:	e00f      	b.n	10002d36 <_vsnprintf+0x7be>
10002d16:	46c0      	nop			; (mov r8, r8)
10002d18:	10001a89 	.word	0x10001a89
10002d1c:	3230      	adds	r2, #48	; 0x30
10002d1e:	b2d2      	uxtb	r2, r2
10002d20:	4643      	mov	r3, r8
10002d22:	3501      	adds	r5, #1
10002d24:	555a      	strb	r2, [r3, r5]
10002d26:	45ba      	cmp	sl, r7
10002d28:	d100      	bne.n	10002d2c <_vsnprintf+0x7b4>
10002d2a:	e17c      	b.n	10003026 <_vsnprintf+0xaae>
10002d2c:	2d20      	cmp	r5, #32
10002d2e:	d100      	bne.n	10002d32 <_vsnprintf+0x7ba>
10002d30:	e17c      	b.n	1000302c <_vsnprintf+0xab4>
10002d32:	0006      	movs	r6, r0
10002d34:	000f      	movs	r7, r1
10002d36:	0022      	movs	r2, r4
10002d38:	2300      	movs	r3, #0
10002d3a:	0030      	movs	r0, r6
10002d3c:	0039      	movs	r1, r7
10002d3e:	f000 fa6f 	bl	10003220 <__wrap___aeabi_uldivmod>
10002d42:	b2d2      	uxtb	r2, r2
10002d44:	2a09      	cmp	r2, #9
10002d46:	d9e9      	bls.n	10002d1c <_vsnprintf+0x7a4>
10002d48:	9b0d      	ldr	r3, [sp, #52]	; 0x34
10002d4a:	469c      	mov	ip, r3
10002d4c:	4462      	add	r2, ip
10002d4e:	b2d2      	uxtb	r2, r2
10002d50:	e7e6      	b.n	10002d20 <_vsnprintf+0x7a8>
10002d52:	23ff      	movs	r3, #255	; 0xff
10002d54:	9909      	ldr	r1, [sp, #36]	; 0x24
10002d56:	c904      	ldmia	r1!, {r2}
10002d58:	4013      	ands	r3, r2
10002d5a:	001a      	movs	r2, r3
10002d5c:	9109      	str	r1, [sp, #36]	; 0x24
10002d5e:	e6e6      	b.n	10002b2e <_vsnprintf+0x5b6>
10002d60:	9a0b      	ldr	r2, [sp, #44]	; 0x2c
10002d62:	3310      	adds	r3, #16
10002d64:	0011      	movs	r1, r2
10002d66:	4399      	bics	r1, r3
10002d68:	910b      	str	r1, [sp, #44]	; 0x2c
10002d6a:	0552      	lsls	r2, r2, #21
10002d6c:	d5ba      	bpl.n	10002ce4 <_vsnprintf+0x76c>
10002d6e:	2300      	movs	r3, #0
10002d70:	4699      	mov	r9, r3
10002d72:	9b0b      	ldr	r3, [sp, #44]	; 0x2c
10002d74:	9306      	str	r3, [sp, #24]
10002d76:	9b0a      	ldr	r3, [sp, #40]	; 0x28
10002d78:	9305      	str	r3, [sp, #20]
10002d7a:	4643      	mov	r3, r8
10002d7c:	9304      	str	r3, [sp, #16]
10002d7e:	9b0c      	ldr	r3, [sp, #48]	; 0x30
10002d80:	9303      	str	r3, [sp, #12]
10002d82:	9b12      	ldr	r3, [sp, #72]	; 0x48
10002d84:	9302      	str	r3, [sp, #8]
10002d86:	464b      	mov	r3, r9
10002d88:	9301      	str	r3, [sp, #4]
10002d8a:	ab16      	add	r3, sp, #88	; 0x58
10002d8c:	002a      	movs	r2, r5
10002d8e:	9300      	str	r3, [sp, #0]
10002d90:	0021      	movs	r1, r4
10002d92:	465b      	mov	r3, fp
10002d94:	9808      	ldr	r0, [sp, #32]
10002d96:	f7fe fee1 	bl	10001b5c <_ntoa_format>
10002d9a:	3601      	adds	r6, #1
10002d9c:	0005      	movs	r5, r0
10002d9e:	f7ff fc10 	bl	100025c2 <_vsnprintf+0x4a>
10002da2:	22ff      	movs	r2, #255	; 0xff
10002da4:	9b09      	ldr	r3, [sp, #36]	; 0x24
10002da6:	cb02      	ldmia	r3!, {r1}
10002da8:	4011      	ands	r1, r2
10002daa:	468a      	mov	sl, r1
10002dac:	9309      	str	r3, [sp, #36]	; 0x24
10002dae:	e4f2      	b.n	10002796 <_vsnprintf+0x21e>
10002db0:	464b      	mov	r3, r9
10002db2:	4645      	mov	r5, r8
10002db4:	9309      	str	r3, [sp, #36]	; 0x24
10002db6:	3601      	adds	r6, #1
10002db8:	f7ff fc03 	bl	100025c2 <_vsnprintf+0x4a>
10002dbc:	464e      	mov	r6, r9
10002dbe:	4654      	mov	r4, sl
10002dc0:	46a9      	mov	r9, r5
10002dc2:	9d13      	ldr	r5, [sp, #76]	; 0x4c
10002dc4:	e7d5      	b.n	10002d72 <_vsnprintf+0x7fa>
10002dc6:	2308      	movs	r3, #8
10002dc8:	930c      	str	r3, [sp, #48]	; 0x30
10002dca:	e687      	b.n	10002adc <_vsnprintf+0x564>
10002dcc:	2207      	movs	r2, #7
10002dce:	9b09      	ldr	r3, [sp, #36]	; 0x24
10002dd0:	3307      	adds	r3, #7
10002dd2:	4393      	bics	r3, r2
10002dd4:	3201      	adds	r2, #1
10002dd6:	4694      	mov	ip, r2
10002dd8:	449c      	add	ip, r3
10002dda:	4662      	mov	r2, ip
10002ddc:	9209      	str	r2, [sp, #36]	; 0x24
10002dde:	681a      	ldr	r2, [r3, #0]
10002de0:	685b      	ldr	r3, [r3, #4]
10002de2:	0010      	movs	r0, r2
10002de4:	469a      	mov	sl, r3
10002de6:	0013      	movs	r3, r2
10002de8:	4652      	mov	r2, sl
10002dea:	4313      	orrs	r3, r2
10002dec:	d107      	bne.n	10002dfe <_vsnprintf+0x886>
10002dee:	9a0b      	ldr	r2, [sp, #44]	; 0x2c
10002df0:	3310      	adds	r3, #16
10002df2:	0011      	movs	r1, r2
10002df4:	4399      	bics	r1, r3
10002df6:	910b      	str	r1, [sp, #44]	; 0x2c
10002df8:	0552      	lsls	r2, r2, #21
10002dfa:	d500      	bpl.n	10002dfe <_vsnprintf+0x886>
10002dfc:	e4d7      	b.n	100027ae <_vsnprintf+0x236>
10002dfe:	9a0b      	ldr	r2, [sp, #44]	; 0x2c
10002e00:	2361      	movs	r3, #97	; 0x61
10002e02:	0692      	lsls	r2, r2, #26
10002e04:	d500      	bpl.n	10002e08 <_vsnprintf+0x890>
10002e06:	2341      	movs	r3, #65	; 0x41
10002e08:	2200      	movs	r2, #0
10002e0a:	b2db      	uxtb	r3, r3
10002e0c:	a90e      	add	r1, sp, #56	; 0x38
10002e0e:	3b0a      	subs	r3, #10
10002e10:	468c      	mov	ip, r1
10002e12:	4691      	mov	r9, r2
10002e14:	930d      	str	r3, [sp, #52]	; 0x34
10002e16:	4643      	mov	r3, r8
10002e18:	321f      	adds	r2, #31
10002e1a:	4462      	add	r2, ip
10002e1c:	4657      	mov	r7, sl
10002e1e:	9512      	str	r5, [sp, #72]	; 0x48
10002e20:	46a2      	mov	sl, r4
10002e22:	464d      	mov	r5, r9
10002e24:	0004      	movs	r4, r0
10002e26:	46b1      	mov	r9, r6
10002e28:	4690      	mov	r8, r2
10002e2a:	9e0c      	ldr	r6, [sp, #48]	; 0x30
10002e2c:	9313      	str	r3, [sp, #76]	; 0x4c
10002e2e:	e00d      	b.n	10002e4c <_vsnprintf+0x8d4>
10002e30:	3230      	adds	r2, #48	; 0x30
10002e32:	b2d2      	uxtb	r2, r2
10002e34:	4643      	mov	r3, r8
10002e36:	3501      	adds	r5, #1
10002e38:	555a      	strb	r2, [r3, r5]
10002e3a:	2300      	movs	r3, #0
10002e3c:	42bb      	cmp	r3, r7
10002e3e:	d100      	bne.n	10002e42 <_vsnprintf+0x8ca>
10002e40:	e0fd      	b.n	1000303e <_vsnprintf+0xac6>
10002e42:	2d20      	cmp	r5, #32
10002e44:	d100      	bne.n	10002e48 <_vsnprintf+0x8d0>
10002e46:	e0fd      	b.n	10003044 <_vsnprintf+0xacc>
10002e48:	0004      	movs	r4, r0
10002e4a:	000f      	movs	r7, r1
10002e4c:	0032      	movs	r2, r6
10002e4e:	2300      	movs	r3, #0
10002e50:	0020      	movs	r0, r4
10002e52:	0039      	movs	r1, r7
10002e54:	f000 f9e4 	bl	10003220 <__wrap___aeabi_uldivmod>
10002e58:	b2d2      	uxtb	r2, r2
10002e5a:	2a09      	cmp	r2, #9
10002e5c:	d9e8      	bls.n	10002e30 <_vsnprintf+0x8b8>
10002e5e:	9b0d      	ldr	r3, [sp, #52]	; 0x34
10002e60:	469c      	mov	ip, r3
10002e62:	4462      	add	r2, ip
10002e64:	b2d2      	uxtb	r2, r2
10002e66:	e7e5      	b.n	10002e34 <_vsnprintf+0x8bc>
10002e68:	9a0b      	ldr	r2, [sp, #44]	; 0x2c
10002e6a:	2361      	movs	r3, #97	; 0x61
10002e6c:	0692      	lsls	r2, r2, #26
10002e6e:	d500      	bpl.n	10002e72 <_vsnprintf+0x8fa>
10002e70:	2341      	movs	r3, #65	; 0x41
10002e72:	b2db      	uxtb	r3, r3
10002e74:	a90e      	add	r1, sp, #56	; 0x38
10002e76:	3b0a      	subs	r3, #10
10002e78:	221f      	movs	r2, #31
10002e7a:	468c      	mov	ip, r1
10002e7c:	930d      	str	r3, [sp, #52]	; 0x34
10002e7e:	0023      	movs	r3, r4
10002e80:	4462      	add	r2, ip
10002e82:	4654      	mov	r4, sl
10002e84:	9512      	str	r5, [sp, #72]	; 0x48
10002e86:	0017      	movs	r7, r2
10002e88:	464d      	mov	r5, r9
10002e8a:	469a      	mov	sl, r3
10002e8c:	46b1      	mov	r9, r6
10002e8e:	9e0c      	ldr	r6, [sp, #48]	; 0x30
10002e90:	e008      	b.n	10002ea4 <_vsnprintf+0x92c>
10002e92:	3330      	adds	r3, #48	; 0x30
10002e94:	b2db      	uxtb	r3, r3
10002e96:	3501      	adds	r5, #1
10002e98:	557b      	strb	r3, [r7, r5]
10002e9a:	42b4      	cmp	r4, r6
10002e9c:	d30e      	bcc.n	10002ebc <_vsnprintf+0x944>
10002e9e:	2d20      	cmp	r5, #32
10002ea0:	d00c      	beq.n	10002ebc <_vsnprintf+0x944>
10002ea2:	0004      	movs	r4, r0
10002ea4:	0031      	movs	r1, r6
10002ea6:	0020      	movs	r0, r4
10002ea8:	f000 f974 	bl	10003194 <__wrap___aeabi_uidiv>
10002eac:	b2cb      	uxtb	r3, r1
10002eae:	2909      	cmp	r1, #9
10002eb0:	d9ef      	bls.n	10002e92 <_vsnprintf+0x91a>
10002eb2:	9a0d      	ldr	r2, [sp, #52]	; 0x34
10002eb4:	4694      	mov	ip, r2
10002eb6:	4463      	add	r3, ip
10002eb8:	b2db      	uxtb	r3, r3
10002eba:	e7ec      	b.n	10002e96 <_vsnprintf+0x91e>
10002ebc:	464e      	mov	r6, r9
10002ebe:	4654      	mov	r4, sl
10002ec0:	46a9      	mov	r9, r5
10002ec2:	9d12      	ldr	r5, [sp, #72]	; 0x48
10002ec4:	e475      	b.n	100027b2 <_vsnprintf+0x23a>
10002ec6:	9b09      	ldr	r3, [sp, #36]	; 0x24
10002ec8:	001a      	movs	r2, r3
10002eca:	ca08      	ldmia	r2!, {r3}
10002ecc:	17d9      	asrs	r1, r3, #31
10002ece:	9213      	str	r2, [sp, #76]	; 0x4c
10002ed0:	185a      	adds	r2, r3, r1
10002ed2:	404a      	eors	r2, r1
10002ed4:	4691      	mov	r9, r2
10002ed6:	0fda      	lsrs	r2, r3, #31
10002ed8:	9212      	str	r2, [sp, #72]	; 0x48
10002eda:	2b00      	cmp	r3, #0
10002edc:	d108      	bne.n	10002ef0 <_vsnprintf+0x978>
10002ede:	2380      	movs	r3, #128	; 0x80
10002ee0:	2210      	movs	r2, #16
10002ee2:	990b      	ldr	r1, [sp, #44]	; 0x2c
10002ee4:	00db      	lsls	r3, r3, #3
10002ee6:	400b      	ands	r3, r1
10002ee8:	4391      	bics	r1, r2
10002eea:	910b      	str	r1, [sp, #44]	; 0x2c
10002eec:	2b00      	cmp	r3, #0
10002eee:	d12b      	bne.n	10002f48 <_vsnprintf+0x9d0>
10002ef0:	9a0b      	ldr	r2, [sp, #44]	; 0x2c
10002ef2:	2361      	movs	r3, #97	; 0x61
10002ef4:	0692      	lsls	r2, r2, #26
10002ef6:	d500      	bpl.n	10002efa <_vsnprintf+0x982>
10002ef8:	2341      	movs	r3, #65	; 0x41
10002efa:	aa0e      	add	r2, sp, #56	; 0x38
10002efc:	271f      	movs	r7, #31
10002efe:	4694      	mov	ip, r2
10002f00:	b2db      	uxtb	r3, r3
10002f02:	3b0a      	subs	r3, #10
10002f04:	950d      	str	r5, [sp, #52]	; 0x34
10002f06:	4467      	add	r7, ip
10002f08:	4655      	mov	r5, sl
10002f0a:	9309      	str	r3, [sp, #36]	; 0x24
10002f0c:	46a2      	mov	sl, r4
10002f0e:	464c      	mov	r4, r9
10002f10:	46b1      	mov	r9, r6
10002f12:	9e0c      	ldr	r6, [sp, #48]	; 0x30
10002f14:	e008      	b.n	10002f28 <_vsnprintf+0x9b0>
10002f16:	3330      	adds	r3, #48	; 0x30
10002f18:	b2db      	uxtb	r3, r3
10002f1a:	3501      	adds	r5, #1
10002f1c:	557b      	strb	r3, [r7, r5]
10002f1e:	42b4      	cmp	r4, r6
10002f20:	d30e      	bcc.n	10002f40 <_vsnprintf+0x9c8>
10002f22:	2d20      	cmp	r5, #32
10002f24:	d00c      	beq.n	10002f40 <_vsnprintf+0x9c8>
10002f26:	0004      	movs	r4, r0
10002f28:	0031      	movs	r1, r6
10002f2a:	0020      	movs	r0, r4
10002f2c:	f000 f932 	bl	10003194 <__wrap___aeabi_uidiv>
10002f30:	b2cb      	uxtb	r3, r1
10002f32:	2909      	cmp	r1, #9
10002f34:	d9ef      	bls.n	10002f16 <_vsnprintf+0x99e>
10002f36:	9a09      	ldr	r2, [sp, #36]	; 0x24
10002f38:	4694      	mov	ip, r2
10002f3a:	4463      	add	r3, ip
10002f3c:	b2db      	uxtb	r3, r3
10002f3e:	e7ec      	b.n	10002f1a <_vsnprintf+0x9a2>
10002f40:	464e      	mov	r6, r9
10002f42:	4654      	mov	r4, sl
10002f44:	46aa      	mov	sl, r5
10002f46:	9d0d      	ldr	r5, [sp, #52]	; 0x34
10002f48:	9b0b      	ldr	r3, [sp, #44]	; 0x2c
10002f4a:	002a      	movs	r2, r5
10002f4c:	9306      	str	r3, [sp, #24]
10002f4e:	9b0a      	ldr	r3, [sp, #40]	; 0x28
10002f50:	0021      	movs	r1, r4
10002f52:	9305      	str	r3, [sp, #20]
10002f54:	4643      	mov	r3, r8
10002f56:	9304      	str	r3, [sp, #16]
10002f58:	9b0c      	ldr	r3, [sp, #48]	; 0x30
10002f5a:	9808      	ldr	r0, [sp, #32]
10002f5c:	9303      	str	r3, [sp, #12]
10002f5e:	9b12      	ldr	r3, [sp, #72]	; 0x48
10002f60:	3601      	adds	r6, #1
10002f62:	9302      	str	r3, [sp, #8]
10002f64:	4653      	mov	r3, sl
10002f66:	9301      	str	r3, [sp, #4]
10002f68:	ab16      	add	r3, sp, #88	; 0x58
10002f6a:	9300      	str	r3, [sp, #0]
10002f6c:	465b      	mov	r3, fp
10002f6e:	f7fe fdf5 	bl	10001b5c <_ntoa_format>
10002f72:	9b13      	ldr	r3, [sp, #76]	; 0x4c
10002f74:	0005      	movs	r5, r0
10002f76:	9309      	str	r3, [sp, #36]	; 0x24
10002f78:	f7ff fb23 	bl	100025c2 <_vsnprintf+0x4a>
10002f7c:	9b09      	ldr	r3, [sp, #36]	; 0x24
10002f7e:	cb04      	ldmia	r3!, {r2}
10002f80:	4691      	mov	r9, r2
10002f82:	9312      	str	r3, [sp, #72]	; 0x48
10002f84:	2a00      	cmp	r2, #0
10002f86:	d108      	bne.n	10002f9a <_vsnprintf+0xa22>
10002f88:	2380      	movs	r3, #128	; 0x80
10002f8a:	2210      	movs	r2, #16
10002f8c:	990b      	ldr	r1, [sp, #44]	; 0x2c
10002f8e:	00db      	lsls	r3, r3, #3
10002f90:	400b      	ands	r3, r1
10002f92:	4391      	bics	r1, r2
10002f94:	910b      	str	r1, [sp, #44]	; 0x2c
10002f96:	2b00      	cmp	r3, #0
10002f98:	d12b      	bne.n	10002ff2 <_vsnprintf+0xa7a>
10002f9a:	9a0b      	ldr	r2, [sp, #44]	; 0x2c
10002f9c:	2361      	movs	r3, #97	; 0x61
10002f9e:	0692      	lsls	r2, r2, #26
10002fa0:	d500      	bpl.n	10002fa4 <_vsnprintf+0xa2c>
10002fa2:	2341      	movs	r3, #65	; 0x41
10002fa4:	aa0e      	add	r2, sp, #56	; 0x38
10002fa6:	271f      	movs	r7, #31
10002fa8:	4694      	mov	ip, r2
10002faa:	b2db      	uxtb	r3, r3
10002fac:	3b0a      	subs	r3, #10
10002fae:	950d      	str	r5, [sp, #52]	; 0x34
10002fb0:	4467      	add	r7, ip
10002fb2:	4655      	mov	r5, sl
10002fb4:	9309      	str	r3, [sp, #36]	; 0x24
10002fb6:	46a2      	mov	sl, r4
10002fb8:	464c      	mov	r4, r9
10002fba:	46b1      	mov	r9, r6
10002fbc:	9e0c      	ldr	r6, [sp, #48]	; 0x30
10002fbe:	e008      	b.n	10002fd2 <_vsnprintf+0xa5a>
10002fc0:	3330      	adds	r3, #48	; 0x30
10002fc2:	b2db      	uxtb	r3, r3
10002fc4:	3501      	adds	r5, #1
10002fc6:	557b      	strb	r3, [r7, r5]
10002fc8:	42b4      	cmp	r4, r6
10002fca:	d30e      	bcc.n	10002fea <_vsnprintf+0xa72>
10002fcc:	2d20      	cmp	r5, #32
10002fce:	d00c      	beq.n	10002fea <_vsnprintf+0xa72>
10002fd0:	0004      	movs	r4, r0
10002fd2:	0031      	movs	r1, r6
10002fd4:	0020      	movs	r0, r4
10002fd6:	f000 f8dd 	bl	10003194 <__wrap___aeabi_uidiv>
10002fda:	b2cb      	uxtb	r3, r1
10002fdc:	2909      	cmp	r1, #9
10002fde:	d9ef      	bls.n	10002fc0 <_vsnprintf+0xa48>
10002fe0:	9a09      	ldr	r2, [sp, #36]	; 0x24
10002fe2:	4694      	mov	ip, r2
10002fe4:	4463      	add	r3, ip
10002fe6:	b2db      	uxtb	r3, r3
10002fe8:	e7ec      	b.n	10002fc4 <_vsnprintf+0xa4c>
10002fea:	464e      	mov	r6, r9
10002fec:	4654      	mov	r4, sl
10002fee:	46aa      	mov	sl, r5
10002ff0:	9d0d      	ldr	r5, [sp, #52]	; 0x34
10002ff2:	9b0b      	ldr	r3, [sp, #44]	; 0x2c
10002ff4:	002a      	movs	r2, r5
10002ff6:	9306      	str	r3, [sp, #24]
10002ff8:	9b0a      	ldr	r3, [sp, #40]	; 0x28
10002ffa:	0021      	movs	r1, r4
10002ffc:	9305      	str	r3, [sp, #20]
10002ffe:	4643      	mov	r3, r8
10003000:	9304      	str	r3, [sp, #16]
10003002:	9b0c      	ldr	r3, [sp, #48]	; 0x30
10003004:	9808      	ldr	r0, [sp, #32]
10003006:	9303      	str	r3, [sp, #12]
10003008:	2300      	movs	r3, #0
1000300a:	9302      	str	r3, [sp, #8]
1000300c:	4653      	mov	r3, sl
1000300e:	9301      	str	r3, [sp, #4]
10003010:	ab16      	add	r3, sp, #88	; 0x58
10003012:	9300      	str	r3, [sp, #0]
10003014:	465b      	mov	r3, fp
10003016:	f7fe fda1 	bl	10001b5c <_ntoa_format>
1000301a:	9b12      	ldr	r3, [sp, #72]	; 0x48
1000301c:	0005      	movs	r5, r0
1000301e:	9309      	str	r3, [sp, #36]	; 0x24
10003020:	3601      	adds	r6, #1
10003022:	f7ff face 	bl	100025c2 <_vsnprintf+0x4a>
10003026:	42b4      	cmp	r4, r6
10003028:	d800      	bhi.n	1000302c <_vsnprintf+0xab4>
1000302a:	e67f      	b.n	10002d2c <_vsnprintf+0x7b4>
1000302c:	9b14      	ldr	r3, [sp, #80]	; 0x50
1000302e:	464c      	mov	r4, r9
10003030:	960e      	str	r6, [sp, #56]	; 0x38
10003032:	970f      	str	r7, [sp, #60]	; 0x3c
10003034:	46a9      	mov	r9, r5
10003036:	4698      	mov	r8, r3
10003038:	9e15      	ldr	r6, [sp, #84]	; 0x54
1000303a:	9d13      	ldr	r5, [sp, #76]	; 0x4c
1000303c:	e699      	b.n	10002d72 <_vsnprintf+0x7fa>
1000303e:	42a6      	cmp	r6, r4
10003040:	d800      	bhi.n	10003044 <_vsnprintf+0xacc>
10003042:	e6fe      	b.n	10002e42 <_vsnprintf+0x8ca>
10003044:	9b13      	ldr	r3, [sp, #76]	; 0x4c
10003046:	464e      	mov	r6, r9
10003048:	4698      	mov	r8, r3
1000304a:	46a9      	mov	r9, r5
1000304c:	4654      	mov	r4, sl
1000304e:	9d12      	ldr	r5, [sp, #72]	; 0x48
10003050:	f7ff fbaf 	bl	100027b2 <_vsnprintf+0x23a>
10003054:	c908      	ldmia	r1!, {r3}
10003056:	17d8      	asrs	r0, r3, #31
10003058:	181a      	adds	r2, r3, r0
1000305a:	4042      	eors	r2, r0
1000305c:	9109      	str	r1, [sp, #36]	; 0x24
1000305e:	e566      	b.n	10002b2e <_vsnprintf+0x5b6>
10003060:	2300      	movs	r3, #0
10003062:	930b      	str	r3, [sp, #44]	; 0x2c
10003064:	e45e      	b.n	10002924 <_vsnprintf+0x3ac>
10003066:	9b09      	ldr	r3, [sp, #36]	; 0x24
10003068:	cb04      	ldmia	r3!, {r2}
1000306a:	4692      	mov	sl, r2
1000306c:	9309      	str	r3, [sp, #36]	; 0x24
1000306e:	f7ff fb92 	bl	10002796 <_vsnprintf+0x21e>
10003072:	002f      	movs	r7, r5
10003074:	e5e0      	b.n	10002c38 <_vsnprintf+0x6c0>
10003076:	930b      	str	r3, [sp, #44]	; 0x2c
10003078:	e60b      	b.n	10002c92 <_vsnprintf+0x71a>
1000307a:	3b06      	subs	r3, #6
1000307c:	930c      	str	r3, [sp, #48]	; 0x30
1000307e:	e52e      	b.n	10002ade <_vsnprintf+0x566>

10003080 <vfctprintf>:
10003080:	b500      	push	{lr}
10003082:	b085      	sub	sp, #20
10003084:	9103      	str	r1, [sp, #12]
10003086:	2101      	movs	r1, #1
10003088:	9002      	str	r0, [sp, #8]
1000308a:	9300      	str	r3, [sp, #0]
1000308c:	4803      	ldr	r0, [pc, #12]	; (1000309c <vfctprintf+0x1c>)
1000308e:	0013      	movs	r3, r2
10003090:	424a      	negs	r2, r1
10003092:	a902      	add	r1, sp, #8
10003094:	f7ff fa70 	bl	10002578 <_vsnprintf>
10003098:	b005      	add	sp, #20
1000309a:	bd00      	pop	{pc}
1000309c:	10001d3d 	.word	0x10001d3d

100030a0 <weak_raw_vprintf>:
100030a0:	b510      	push	{r4, lr}
100030a2:	4a09      	ldr	r2, [pc, #36]	; (100030c8 <weak_raw_vprintf+0x28>)
100030a4:	0003      	movs	r3, r0
100030a6:	6814      	ldr	r4, [r2, #0]
100030a8:	b084      	sub	sp, #16
100030aa:	2c00      	cmp	r4, #0
100030ac:	d008      	beq.n	100030c0 <weak_raw_vprintf+0x20>
100030ae:	2201      	movs	r2, #1
100030b0:	9100      	str	r1, [sp, #0]
100030b2:	4806      	ldr	r0, [pc, #24]	; (100030cc <weak_raw_vprintf+0x2c>)
100030b4:	4252      	negs	r2, r2
100030b6:	a903      	add	r1, sp, #12
100030b8:	47a0      	blx	r4
100030ba:	2001      	movs	r0, #1
100030bc:	b004      	add	sp, #16
100030be:	bd10      	pop	{r4, pc}
100030c0:	f001 f88e 	bl	100041e0 <__wrap_puts>
100030c4:	2000      	movs	r0, #0
100030c6:	e7f9      	b.n	100030bc <weak_raw_vprintf+0x1c>
100030c8:	20000b04 	.word	0x20000b04
100030cc:	10001d2d 	.word	0x10001d2d

100030d0 <__aeabi_bits_init>:
100030d0:	4801      	ldr	r0, [pc, #4]	; (100030d8 <__aeabi_bits_init+0x8>)
100030d2:	2104      	movs	r1, #4
100030d4:	4b01      	ldr	r3, [pc, #4]	; (100030dc <__aeabi_bits_init+0xc>)
100030d6:	4718      	bx	r3
100030d8:	200001e0 	.word	0x200001e0
100030dc:	10003101 	.word	0x10003101

100030e0 <rom_func_lookup>:
100030e0:	2314      	movs	r3, #20
100030e2:	b510      	push	{r4, lr}
100030e4:	0001      	movs	r1, r0
100030e6:	8818      	ldrh	r0, [r3, #0]
100030e8:	3304      	adds	r3, #4
100030ea:	881b      	ldrh	r3, [r3, #0]
100030ec:	4798      	blx	r3
100030ee:	bd10      	pop	{r4, pc}

100030f0 <rom_data_lookup>:
100030f0:	2316      	movs	r3, #22
100030f2:	b510      	push	{r4, lr}
100030f4:	0001      	movs	r1, r0
100030f6:	8818      	ldrh	r0, [r3, #0]
100030f8:	3302      	adds	r3, #2
100030fa:	881b      	ldrh	r3, [r3, #0]
100030fc:	4798      	blx	r3
100030fe:	bd10      	pop	{r4, pc}

10003100 <rom_funcs_lookup>:
10003100:	b5f0      	push	{r4, r5, r6, r7, lr}
10003102:	46c6      	mov	lr, r8
10003104:	b500      	push	{lr}
10003106:	2900      	cmp	r1, #0
10003108:	d016      	beq.n	10003138 <rom_funcs_lookup+0x38>
1000310a:	2314      	movs	r3, #20
1000310c:	0004      	movs	r4, r0
1000310e:	2501      	movs	r5, #1
10003110:	4698      	mov	r8, r3
10003112:	2718      	movs	r7, #24
10003114:	0089      	lsls	r1, r1, #2
10003116:	1846      	adds	r6, r0, r1
10003118:	4643      	mov	r3, r8
1000311a:	6821      	ldr	r1, [r4, #0]
1000311c:	8818      	ldrh	r0, [r3, #0]
1000311e:	883b      	ldrh	r3, [r7, #0]
10003120:	4798      	blx	r3
10003122:	c401      	stmia	r4!, {r0}
10003124:	1e43      	subs	r3, r0, #1
10003126:	4198      	sbcs	r0, r3
10003128:	4240      	negs	r0, r0
1000312a:	4005      	ands	r5, r0
1000312c:	42a6      	cmp	r6, r4
1000312e:	d1f3      	bne.n	10003118 <rom_funcs_lookup+0x18>
10003130:	0028      	movs	r0, r5
10003132:	bc04      	pop	{r2}
10003134:	4690      	mov	r8, r2
10003136:	bdf0      	pop	{r4, r5, r6, r7, pc}
10003138:	2501      	movs	r5, #1
1000313a:	e7f9      	b.n	10003130 <rom_funcs_lookup+0x30>

1000313c <__wrap___aeabi_idiv>:
1000313c:	4a14      	ldr	r2, [pc, #80]	; (10003190 <divmod_s32s32_savestate+0x20>)
1000313e:	6f93      	ldr	r3, [r2, #120]	; 0x78
10003140:	089b      	lsrs	r3, r3, #2
10003142:	d215      	bcs.n	10003170 <divmod_s32s32_savestate>

10003144 <divmod_s32s32_unsafe>:
10003144:	6690      	str	r0, [r2, #104]	; 0x68
10003146:	66d1      	str	r1, [r2, #108]	; 0x6c
10003148:	2900      	cmp	r1, #0
1000314a:	d005      	beq.n	10003158 <divmod_s32s32_unsafe+0x14>
1000314c:	e7ff      	b.n	1000314e <divmod_s32s32_unsafe+0xa>
1000314e:	e7ff      	b.n	10003150 <divmod_s32s32_unsafe+0xc>
10003150:	e7ff      	b.n	10003152 <divmod_s32s32_unsafe+0xe>
10003152:	6f51      	ldr	r1, [r2, #116]	; 0x74
10003154:	6f10      	ldr	r0, [r2, #112]	; 0x70
10003156:	4770      	bx	lr
10003158:	b504      	push	{r2, lr}
1000315a:	2180      	movs	r1, #128	; 0x80
1000315c:	0609      	lsls	r1, r1, #24
1000315e:	17c2      	asrs	r2, r0, #31
10003160:	4051      	eors	r1, r2
10003162:	2800      	cmp	r0, #0
10003164:	d000      	beq.n	10003168 <divmod_s32s32_unsafe+0x24>
10003166:	43c8      	mvns	r0, r1
10003168:	f002 fb16 	bl	10005798 <____aeabi_idiv0_veneer>
1000316c:	2100      	movs	r1, #0
1000316e:	bd04      	pop	{r2, pc}

10003170 <divmod_s32s32_savestate>:
10003170:	6f93      	ldr	r3, [r2, #120]	; 0x78
10003172:	085b      	lsrs	r3, r3, #1
10003174:	d3fd      	bcc.n	10003172 <divmod_s32s32_savestate+0x2>
10003176:	b5f0      	push	{r4, r5, r6, r7, lr}
10003178:	6e94      	ldr	r4, [r2, #104]	; 0x68
1000317a:	6ed5      	ldr	r5, [r2, #108]	; 0x6c
1000317c:	6f57      	ldr	r7, [r2, #116]	; 0x74
1000317e:	6f16      	ldr	r6, [r2, #112]	; 0x70
10003180:	f7ff ffe0 	bl	10003144 <divmod_s32s32_unsafe>
10003184:	6694      	str	r4, [r2, #104]	; 0x68
10003186:	66d5      	str	r5, [r2, #108]	; 0x6c
10003188:	6757      	str	r7, [r2, #116]	; 0x74
1000318a:	6716      	str	r6, [r2, #112]	; 0x70
1000318c:	bdf0      	pop	{r4, r5, r6, r7, pc}
1000318e:	0000      	.short	0x0000
10003190:	d0000000 	.word	0xd0000000

10003194 <__wrap___aeabi_uidiv>:
10003194:	4a13      	ldr	r2, [pc, #76]	; (100031e4 <divmod_u32u32_savestate+0x20>)
10003196:	6f93      	ldr	r3, [r2, #120]	; 0x78
10003198:	089b      	lsrs	r3, r3, #2
1000319a:	d213      	bcs.n	100031c4 <divmod_u32u32_savestate>

1000319c <divmod_u32u32_unsafe>:
1000319c:	6610      	str	r0, [r2, #96]	; 0x60
1000319e:	6651      	str	r1, [r2, #100]	; 0x64
100031a0:	2900      	cmp	r1, #0
100031a2:	d005      	beq.n	100031b0 <divmod_u32u32_unsafe+0x14>
100031a4:	e7ff      	b.n	100031a6 <divmod_u32u32_unsafe+0xa>
100031a6:	e7ff      	b.n	100031a8 <divmod_u32u32_unsafe+0xc>
100031a8:	e7ff      	b.n	100031aa <divmod_u32u32_unsafe+0xe>
100031aa:	6f51      	ldr	r1, [r2, #116]	; 0x74
100031ac:	6f10      	ldr	r0, [r2, #112]	; 0x70
100031ae:	4770      	bx	lr
100031b0:	b504      	push	{r2, lr}
100031b2:	2800      	cmp	r0, #0
100031b4:	d001      	beq.n	100031ba <divmod_u32u32_unsafe+0x1e>
100031b6:	2000      	movs	r0, #0
100031b8:	43c0      	mvns	r0, r0
100031ba:	f002 faed 	bl	10005798 <____aeabi_idiv0_veneer>
100031be:	2100      	movs	r1, #0
100031c0:	bd04      	pop	{r2, pc}
100031c2:	46c0      	nop			; (mov r8, r8)

100031c4 <divmod_u32u32_savestate>:
100031c4:	6f93      	ldr	r3, [r2, #120]	; 0x78
100031c6:	085b      	lsrs	r3, r3, #1
100031c8:	d3fd      	bcc.n	100031c6 <divmod_u32u32_savestate+0x2>
100031ca:	b5f0      	push	{r4, r5, r6, r7, lr}
100031cc:	6e94      	ldr	r4, [r2, #104]	; 0x68
100031ce:	6ed5      	ldr	r5, [r2, #108]	; 0x6c
100031d0:	6f57      	ldr	r7, [r2, #116]	; 0x74
100031d2:	6f16      	ldr	r6, [r2, #112]	; 0x70
100031d4:	f7ff ffe2 	bl	1000319c <divmod_u32u32_unsafe>
100031d8:	6694      	str	r4, [r2, #104]	; 0x68
100031da:	66d5      	str	r5, [r2, #108]	; 0x6c
100031dc:	6757      	str	r7, [r2, #116]	; 0x74
100031de:	6716      	str	r6, [r2, #112]	; 0x70
100031e0:	bdf0      	pop	{r4, r5, r6, r7, pc}
100031e2:	0000      	.short	0x0000
100031e4:	d0000000 	.word	0xd0000000

100031e8 <__wrap___aeabi_ldivmod>:
100031e8:	4694      	mov	ip, r2
100031ea:	4a4e      	ldr	r2, [pc, #312]	; (10003324 <udiv0+0x1a>)
100031ec:	6f92      	ldr	r2, [r2, #120]	; 0x78
100031ee:	0892      	lsrs	r2, r2, #2
100031f0:	4662      	mov	r2, ip
100031f2:	d201      	bcs.n	100031f8 <divmod_s64s64_savestate>
100031f4:	e030      	b.n	10003258 <divmod_s64s64_unsafe>
100031f6:	46c0      	nop			; (mov r8, r8)

100031f8 <divmod_s64s64_savestate>:
100031f8:	b5f0      	push	{r4, r5, r6, r7, lr}
100031fa:	4e4a      	ldr	r6, [pc, #296]	; (10003324 <udiv0+0x1a>)
100031fc:	6fb5      	ldr	r5, [r6, #120]	; 0x78
100031fe:	086d      	lsrs	r5, r5, #1
10003200:	d3fc      	bcc.n	100031fc <divmod_s64s64_savestate+0x4>
10003202:	6e34      	ldr	r4, [r6, #96]	; 0x60
10003204:	6e75      	ldr	r5, [r6, #100]	; 0x64
10003206:	6f77      	ldr	r7, [r6, #116]	; 0x74
10003208:	6f36      	ldr	r6, [r6, #112]	; 0x70
1000320a:	f000 f825 	bl	10003258 <divmod_s64s64_unsafe>
1000320e:	4694      	mov	ip, r2
10003210:	4a44      	ldr	r2, [pc, #272]	; (10003324 <udiv0+0x1a>)
10003212:	6614      	str	r4, [r2, #96]	; 0x60
10003214:	6655      	str	r5, [r2, #100]	; 0x64
10003216:	6757      	str	r7, [r2, #116]	; 0x74
10003218:	6716      	str	r6, [r2, #112]	; 0x70
1000321a:	4662      	mov	r2, ip
1000321c:	bdf0      	pop	{r4, r5, r6, r7, pc}
1000321e:	46c0      	nop			; (mov r8, r8)

10003220 <__wrap___aeabi_uldivmod>:
10003220:	4694      	mov	ip, r2
10003222:	4a40      	ldr	r2, [pc, #256]	; (10003324 <udiv0+0x1a>)
10003224:	6f92      	ldr	r2, [r2, #120]	; 0x78
10003226:	0892      	lsrs	r2, r2, #2
10003228:	4662      	mov	r2, ip
1000322a:	d201      	bcs.n	10003230 <divmod_u64u64_savestate>
1000322c:	e058      	b.n	100032e0 <divmod_u64u64_unsafe>
1000322e:	46c0      	nop			; (mov r8, r8)

10003230 <divmod_u64u64_savestate>:
10003230:	b5f0      	push	{r4, r5, r6, r7, lr}
10003232:	4e3c      	ldr	r6, [pc, #240]	; (10003324 <udiv0+0x1a>)
10003234:	6fb5      	ldr	r5, [r6, #120]	; 0x78
10003236:	086d      	lsrs	r5, r5, #1
10003238:	d3fc      	bcc.n	10003234 <divmod_u64u64_savestate+0x4>
1000323a:	6e34      	ldr	r4, [r6, #96]	; 0x60
1000323c:	6e75      	ldr	r5, [r6, #100]	; 0x64
1000323e:	6f77      	ldr	r7, [r6, #116]	; 0x74
10003240:	6f36      	ldr	r6, [r6, #112]	; 0x70
10003242:	f000 f84d 	bl	100032e0 <divmod_u64u64_unsafe>
10003246:	4694      	mov	ip, r2
10003248:	4a36      	ldr	r2, [pc, #216]	; (10003324 <udiv0+0x1a>)
1000324a:	6614      	str	r4, [r2, #96]	; 0x60
1000324c:	6655      	str	r5, [r2, #100]	; 0x64
1000324e:	6757      	str	r7, [r2, #116]	; 0x74
10003250:	6716      	str	r6, [r2, #112]	; 0x70
10003252:	4662      	mov	r2, ip
10003254:	bdf0      	pop	{r4, r5, r6, r7, pc}
10003256:	46c0      	nop			; (mov r8, r8)

10003258 <divmod_s64s64_unsafe>:
10003258:	2b00      	cmp	r3, #0
1000325a:	db24      	blt.n	100032a6 <l41_1+0x26>
1000325c:	d011      	beq.n	10003282 <l41_1+0x2>
1000325e:	2900      	cmp	r1, #0
10003260:	da3e      	bge.n	100032e0 <divmod_u64u64_unsafe>
10003262:	b500      	push	{lr}
10003264:	43c9      	mvns	r1, r1
10003266:	4240      	negs	r0, r0
10003268:	d100      	bne.n	1000326c <l39_1>
1000326a:	3101      	adds	r1, #1

1000326c <l39_1>:
1000326c:	f000 f838 	bl	100032e0 <divmod_u64u64_unsafe>
10003270:	43c9      	mvns	r1, r1
10003272:	4240      	negs	r0, r0
10003274:	d100      	bne.n	10003278 <l40_1>
10003276:	3101      	adds	r1, #1

10003278 <l40_1>:
10003278:	43db      	mvns	r3, r3
1000327a:	4252      	negs	r2, r2
1000327c:	d100      	bne.n	10003280 <l41_1>
1000327e:	3301      	adds	r3, #1

10003280 <l41_1>:
10003280:	bd00      	pop	{pc}
10003282:	2a00      	cmp	r2, #0
10003284:	d1eb      	bne.n	1000325e <divmod_s64s64_unsafe+0x6>
10003286:	2800      	cmp	r0, #0
10003288:	d101      	bne.n	1000328e <l41_1+0xe>
1000328a:	2900      	cmp	r1, #0
1000328c:	d005      	beq.n	1000329a <l41_1+0x1a>
1000328e:	2000      	movs	r0, #0
10003290:	0fc9      	lsrs	r1, r1, #31
10003292:	07c9      	lsls	r1, r1, #31
10003294:	d101      	bne.n	1000329a <l41_1+0x1a>
10003296:	43c0      	mvns	r0, r0
10003298:	0841      	lsrs	r1, r0, #1
1000329a:	b500      	push	{lr}
1000329c:	f002 fa74 	bl	10005788 <____aeabi_ldiv0_veneer>
100032a0:	2200      	movs	r2, #0
100032a2:	2300      	movs	r3, #0
100032a4:	bd00      	pop	{pc}
100032a6:	b500      	push	{lr}
100032a8:	2900      	cmp	r1, #0
100032aa:	db0a      	blt.n	100032c2 <l43_1+0x2>
100032ac:	43db      	mvns	r3, r3
100032ae:	4252      	negs	r2, r2
100032b0:	d100      	bne.n	100032b4 <l42_1>
100032b2:	3301      	adds	r3, #1

100032b4 <l42_1>:
100032b4:	f000 f814 	bl	100032e0 <divmod_u64u64_unsafe>
100032b8:	43c9      	mvns	r1, r1
100032ba:	4240      	negs	r0, r0
100032bc:	d100      	bne.n	100032c0 <l43_1>
100032be:	3101      	adds	r1, #1

100032c0 <l43_1>:
100032c0:	bd00      	pop	{pc}
100032c2:	43c9      	mvns	r1, r1
100032c4:	4240      	negs	r0, r0
100032c6:	d100      	bne.n	100032ca <l44_1>
100032c8:	3101      	adds	r1, #1

100032ca <l44_1>:
100032ca:	43db      	mvns	r3, r3
100032cc:	4252      	negs	r2, r2
100032ce:	d100      	bne.n	100032d2 <l45_1>
100032d0:	3301      	adds	r3, #1

100032d2 <l45_1>:
100032d2:	f000 f805 	bl	100032e0 <divmod_u64u64_unsafe>
100032d6:	43db      	mvns	r3, r3
100032d8:	4252      	negs	r2, r2
100032da:	d100      	bne.n	100032de <l46_1>
100032dc:	3301      	adds	r3, #1

100032de <l46_1>:
100032de:	bd00      	pop	{pc}

100032e0 <divmod_u64u64_unsafe>:
100032e0:	2900      	cmp	r1, #0
100032e2:	d123      	bne.n	1000332c <y64>
100032e4:	2b00      	cmp	r3, #0
100032e6:	d118      	bne.n	1000331a <udiv0+0x10>
100032e8:	2a00      	cmp	r2, #0
100032ea:	d00c      	beq.n	10003306 <divmod_u64u64_unsafe+0x26>
100032ec:	46bc      	mov	ip, r7
100032ee:	4f0d      	ldr	r7, [pc, #52]	; (10003324 <udiv0+0x1a>)
100032f0:	6638      	str	r0, [r7, #96]	; 0x60
100032f2:	667a      	str	r2, [r7, #100]	; 0x64
100032f4:	2100      	movs	r1, #0
100032f6:	2300      	movs	r3, #0
100032f8:	e7ff      	b.n	100032fa <divmod_u64u64_unsafe+0x1a>
100032fa:	e7ff      	b.n	100032fc <divmod_u64u64_unsafe+0x1c>
100032fc:	e7ff      	b.n	100032fe <divmod_u64u64_unsafe+0x1e>
100032fe:	6f7a      	ldr	r2, [r7, #116]	; 0x74
10003300:	6f38      	ldr	r0, [r7, #112]	; 0x70
10003302:	4667      	mov	r7, ip
10003304:	4770      	bx	lr
10003306:	2800      	cmp	r0, #0
10003308:	d001      	beq.n	1000330e <udiv0+0x4>

1000330a <udiv0>:
1000330a:	4807      	ldr	r0, [pc, #28]	; (10003328 <udiv0+0x1e>)
1000330c:	0001      	movs	r1, r0
1000330e:	b500      	push	{lr}
10003310:	f002 fa3a 	bl	10005788 <____aeabi_ldiv0_veneer>
10003314:	2200      	movs	r2, #0
10003316:	2300      	movs	r3, #0
10003318:	bd00      	pop	{pc}
1000331a:	0002      	movs	r2, r0
1000331c:	000b      	movs	r3, r1
1000331e:	2000      	movs	r0, #0
10003320:	2100      	movs	r1, #0
10003322:	4770      	bx	lr
10003324:	d0000000 	.word	0xd0000000
10003328:	ffffffff 	.word	0xffffffff

1000332c <y64>:
1000332c:	2b00      	cmp	r3, #0
1000332e:	d000      	beq.n	10003332 <y64+0x6>
10003330:	e0bd      	b.n	100034ae <y64_x48>
10003332:	0c13      	lsrs	r3, r2, #16
10003334:	d126      	bne.n	10003384 <y64_x32>
10003336:	2a00      	cmp	r2, #0
10003338:	d0e7      	beq.n	1000330a <udiv0>
1000333a:	b480      	push	{r7}
1000333c:	4f10      	ldr	r7, [pc, #64]	; (10003380 <y64+0x54>)
1000333e:	6639      	str	r1, [r7, #96]	; 0x60
10003340:	667a      	str	r2, [r7, #100]	; 0x64
10003342:	e7ff      	b.n	10003344 <y64+0x18>
10003344:	e7ff      	b.n	10003346 <y64+0x1a>
10003346:	b430      	push	{r4, r5}
10003348:	0c04      	lsrs	r4, r0, #16
1000334a:	6f7b      	ldr	r3, [r7, #116]	; 0x74
1000334c:	6f39      	ldr	r1, [r7, #112]	; 0x70
1000334e:	041b      	lsls	r3, r3, #16
10003350:	4323      	orrs	r3, r4
10003352:	663b      	str	r3, [r7, #96]	; 0x60
10003354:	e7ff      	b.n	10003356 <y64+0x2a>
10003356:	e7ff      	b.n	10003358 <y64+0x2c>
10003358:	e7ff      	b.n	1000335a <y64+0x2e>
1000335a:	46c0      	nop			; (mov r8, r8)
1000335c:	b284      	uxth	r4, r0
1000335e:	6f7b      	ldr	r3, [r7, #116]	; 0x74
10003360:	6f3d      	ldr	r5, [r7, #112]	; 0x70
10003362:	041b      	lsls	r3, r3, #16
10003364:	4323      	orrs	r3, r4
10003366:	663b      	str	r3, [r7, #96]	; 0x60
10003368:	e7ff      	b.n	1000336a <y64+0x3e>
1000336a:	e7ff      	b.n	1000336c <y64+0x40>
1000336c:	46c0      	nop			; (mov r8, r8)
1000336e:	2300      	movs	r3, #0
10003370:	042c      	lsls	r4, r5, #16
10003372:	0c2d      	lsrs	r5, r5, #16
10003374:	6f7a      	ldr	r2, [r7, #116]	; 0x74
10003376:	6f38      	ldr	r0, [r7, #112]	; 0x70
10003378:	1900      	adds	r0, r0, r4
1000337a:	4169      	adcs	r1, r5
1000337c:	bcb0      	pop	{r4, r5, r7}
1000337e:	4770      	bx	lr
10003380:	d0000000 	.word	0xd0000000

10003384 <y64_x32>:
10003384:	b5f0      	push	{r4, r5, r6, r7, lr}
10003386:	4694      	mov	ip, r2
10003388:	2500      	movs	r5, #0
1000338a:	0e14      	lsrs	r4, r2, #24
1000338c:	d101      	bne.n	10003392 <y64_x32+0xe>
1000338e:	0212      	lsls	r2, r2, #8
10003390:	3508      	adds	r5, #8
10003392:	0f14      	lsrs	r4, r2, #28
10003394:	d101      	bne.n	1000339a <y64_x32+0x16>
10003396:	0112      	lsls	r2, r2, #4
10003398:	3504      	adds	r5, #4
1000339a:	0f94      	lsrs	r4, r2, #30
1000339c:	d101      	bne.n	100033a2 <y64_x32+0x1e>
1000339e:	0092      	lsls	r2, r2, #2
100033a0:	3502      	adds	r5, #2
100033a2:	0fd4      	lsrs	r4, r2, #31
100033a4:	d101      	bne.n	100033aa <y64_x32+0x26>
100033a6:	0052      	lsls	r2, r2, #1
100033a8:	3501      	adds	r5, #1
100033aa:	0bd4      	lsrs	r4, r2, #15
100033ac:	3401      	adds	r4, #1
100033ae:	4f25      	ldr	r7, [pc, #148]	; (10003444 <y64_x32+0xc0>)
100033b0:	667c      	str	r4, [r7, #100]	; 0x64
100033b2:	4c25      	ldr	r4, [pc, #148]	; (10003448 <y64_x32+0xc4>)
100033b4:	663c      	str	r4, [r7, #96]	; 0x60
100033b6:	0c0e      	lsrs	r6, r1, #16
100033b8:	b293      	uxth	r3, r2
100033ba:	e7ff      	b.n	100033bc <y64_x32+0x38>
100033bc:	e7ff      	b.n	100033be <y64_x32+0x3a>
100033be:	e7ff      	b.n	100033c0 <y64_x32+0x3c>
100033c0:	6f3c      	ldr	r4, [r7, #112]	; 0x70
100033c2:	4366      	muls	r6, r4
100033c4:	0c36      	lsrs	r6, r6, #16
100033c6:	0377      	lsls	r7, r6, #13
100033c8:	46be      	mov	lr, r7
100033ca:	4373      	muls	r3, r6
100033cc:	0bdf      	lsrs	r7, r3, #15
100033ce:	045b      	lsls	r3, r3, #17
100033d0:	1ac0      	subs	r0, r0, r3
100033d2:	41b9      	sbcs	r1, r7
100033d4:	0c13      	lsrs	r3, r2, #16
100033d6:	4373      	muls	r3, r6
100033d8:	18db      	adds	r3, r3, r3
100033da:	1ac9      	subs	r1, r1, r3
100033dc:	08ce      	lsrs	r6, r1, #3
100033de:	4366      	muls	r6, r4
100033e0:	0c36      	lsrs	r6, r6, #16
100033e2:	44b6      	add	lr, r6
100033e4:	b293      	uxth	r3, r2
100033e6:	4373      	muls	r3, r6
100033e8:	0f1f      	lsrs	r7, r3, #28
100033ea:	011b      	lsls	r3, r3, #4
100033ec:	1ac0      	subs	r0, r0, r3
100033ee:	41b9      	sbcs	r1, r7
100033f0:	0c13      	lsrs	r3, r2, #16
100033f2:	4373      	muls	r3, r6
100033f4:	0b1f      	lsrs	r7, r3, #12
100033f6:	051b      	lsls	r3, r3, #20
100033f8:	1ac0      	subs	r0, r0, r3
100033fa:	41b9      	sbcs	r1, r7
100033fc:	0d86      	lsrs	r6, r0, #22
100033fe:	028f      	lsls	r7, r1, #10
10003400:	433e      	orrs	r6, r7
10003402:	4366      	muls	r6, r4
10003404:	0c36      	lsrs	r6, r6, #16
10003406:	2d09      	cmp	r5, #9
10003408:	db24      	blt.n	10003454 <last0>
1000340a:	0a52      	lsrs	r2, r2, #9
1000340c:	4372      	muls	r2, r6
1000340e:	1a80      	subs	r0, r0, r2
10003410:	0377      	lsls	r7, r6, #13
10003412:	0a46      	lsrs	r6, r0, #9
10003414:	4366      	muls	r6, r4
10003416:	0c36      	lsrs	r6, r6, #16
10003418:	2316      	movs	r3, #22
1000341a:	1b5b      	subs	r3, r3, r5
1000341c:	40de      	lsrs	r6, r3
1000341e:	40df      	lsrs	r7, r3
10003420:	19bf      	adds	r7, r7, r6
10003422:	4664      	mov	r4, ip
10003424:	4366      	muls	r6, r4
10003426:	1b82      	subs	r2, r0, r6
10003428:	4670      	mov	r0, lr
1000342a:	3504      	adds	r5, #4
1000342c:	3306      	adds	r3, #6
1000342e:	0001      	movs	r1, r0
10003430:	40d9      	lsrs	r1, r3
10003432:	40a8      	lsls	r0, r5
10003434:	19c0      	adds	r0, r0, r7
10003436:	d300      	bcc.n	1000343a <y64_x32+0xb6>
10003438:	3101      	adds	r1, #1
1000343a:	42a2      	cmp	r2, r4
1000343c:	d206      	bcs.n	1000344c <y64_x32+0xc8>
1000343e:	2300      	movs	r3, #0
10003440:	bdf0      	pop	{r4, r5, r6, r7, pc}
10003442:	0000      	.short	0x0000
10003444:	d0000000 	.word	0xd0000000
10003448:	ffffffff 	.word	0xffffffff
1000344c:	1b12      	subs	r2, r2, r4
1000344e:	3001      	adds	r0, #1
10003450:	d3f3      	bcc.n	1000343a <y64_x32+0xb6>
10003452:	e7f1      	b.n	10003438 <y64_x32+0xb4>

10003454 <last0>:
10003454:	2709      	movs	r7, #9
10003456:	1b7f      	subs	r7, r7, r5
10003458:	40fe      	lsrs	r6, r7
1000345a:	4664      	mov	r4, ip
1000345c:	b2a2      	uxth	r2, r4
1000345e:	4372      	muls	r2, r6
10003460:	1a80      	subs	r0, r0, r2
10003462:	d200      	bcs.n	10003466 <last0+0x12>
10003464:	3901      	subs	r1, #1
10003466:	0c22      	lsrs	r2, r4, #16
10003468:	4372      	muls	r2, r6
1000346a:	0c13      	lsrs	r3, r2, #16
1000346c:	0412      	lsls	r2, r2, #16
1000346e:	1a82      	subs	r2, r0, r2
10003470:	4199      	sbcs	r1, r3
10003472:	000b      	movs	r3, r1
10003474:	4670      	mov	r0, lr
10003476:	3504      	adds	r5, #4
10003478:	3713      	adds	r7, #19
1000347a:	0001      	movs	r1, r0
1000347c:	40f9      	lsrs	r1, r7
1000347e:	40a8      	lsls	r0, r5
10003480:	1980      	adds	r0, r0, r6
10003482:	d300      	bcc.n	10003486 <last0+0x32>
10003484:	3101      	adds	r1, #1
10003486:	2b00      	cmp	r3, #0
10003488:	d102      	bne.n	10003490 <last0+0x3c>
1000348a:	42a2      	cmp	r2, r4
1000348c:	d20a      	bcs.n	100034a4 <last0+0x50>
1000348e:	bdf0      	pop	{r4, r5, r6, r7, pc}
10003490:	3001      	adds	r0, #1
10003492:	d300      	bcc.n	10003496 <last0+0x42>
10003494:	3101      	adds	r1, #1
10003496:	1b12      	subs	r2, r2, r4
10003498:	d2fa      	bcs.n	10003490 <last0+0x3c>
1000349a:	3b01      	subs	r3, #1
1000349c:	d1f8      	bne.n	10003490 <last0+0x3c>
1000349e:	42a2      	cmp	r2, r4
100034a0:	d200      	bcs.n	100034a4 <last0+0x50>
100034a2:	bdf0      	pop	{r4, r5, r6, r7, pc}
100034a4:	3001      	adds	r0, #1
100034a6:	d300      	bcc.n	100034aa <last0+0x56>
100034a8:	3101      	adds	r1, #1
100034aa:	1b12      	subs	r2, r2, r4
100034ac:	e7f7      	b.n	1000349e <last0+0x4a>

100034ae <y64_x48>:
100034ae:	b5f0      	push	{r4, r5, r6, r7, lr}
100034b0:	0c1c      	lsrs	r4, r3, #16
100034b2:	d000      	beq.n	100034b6 <y64_x48+0x8>
100034b4:	e080      	b.n	100035b8 <y64_x64>
100034b6:	b40c      	push	{r2, r3}
100034b8:	2500      	movs	r5, #0
100034ba:	0a1c      	lsrs	r4, r3, #8
100034bc:	d104      	bne.n	100034c8 <y64_x48+0x1a>
100034be:	021b      	lsls	r3, r3, #8
100034c0:	0e16      	lsrs	r6, r2, #24
100034c2:	4333      	orrs	r3, r6
100034c4:	0212      	lsls	r2, r2, #8
100034c6:	3508      	adds	r5, #8
100034c8:	0b1c      	lsrs	r4, r3, #12
100034ca:	d104      	bne.n	100034d6 <y64_x48+0x28>
100034cc:	011b      	lsls	r3, r3, #4
100034ce:	0f16      	lsrs	r6, r2, #28
100034d0:	4333      	orrs	r3, r6
100034d2:	0112      	lsls	r2, r2, #4
100034d4:	3504      	adds	r5, #4
100034d6:	0b9c      	lsrs	r4, r3, #14
100034d8:	d104      	bne.n	100034e4 <y64_x48+0x36>
100034da:	009b      	lsls	r3, r3, #2
100034dc:	0f96      	lsrs	r6, r2, #30
100034de:	4333      	orrs	r3, r6
100034e0:	0092      	lsls	r2, r2, #2
100034e2:	3502      	adds	r5, #2
100034e4:	0bdc      	lsrs	r4, r3, #15
100034e6:	d102      	bne.n	100034ee <y64_x48+0x40>
100034e8:	1892      	adds	r2, r2, r2
100034ea:	415b      	adcs	r3, r3
100034ec:	3501      	adds	r5, #1
100034ee:	001c      	movs	r4, r3
100034f0:	1897      	adds	r7, r2, r2
100034f2:	4164      	adcs	r4, r4
100034f4:	3401      	adds	r4, #1
100034f6:	4f46      	ldr	r7, [pc, #280]	; (10003610 <y64_x64+0x58>)
100034f8:	667c      	str	r4, [r7, #100]	; 0x64
100034fa:	4c46      	ldr	r4, [pc, #280]	; (10003614 <y64_x64+0x5c>)
100034fc:	663c      	str	r4, [r7, #96]	; 0x60
100034fe:	0c0e      	lsrs	r6, r1, #16
10003500:	e7ff      	b.n	10003502 <y64_x48+0x54>
10003502:	e7ff      	b.n	10003504 <y64_x48+0x56>
10003504:	e7ff      	b.n	10003506 <y64_x48+0x58>
10003506:	46c0      	nop			; (mov r8, r8)
10003508:	6f3c      	ldr	r4, [r7, #112]	; 0x70
1000350a:	4366      	muls	r6, r4
1000350c:	0c36      	lsrs	r6, r6, #16
1000350e:	0377      	lsls	r7, r6, #13
10003510:	46be      	mov	lr, r7
10003512:	b297      	uxth	r7, r2
10003514:	4377      	muls	r7, r6
10003516:	1bc0      	subs	r0, r0, r7
10003518:	d200      	bcs.n	1000351c <y64_x48+0x6e>
1000351a:	3901      	subs	r1, #1
1000351c:	1bc0      	subs	r0, r0, r7
1000351e:	d200      	bcs.n	10003522 <y64_x48+0x74>
10003520:	3901      	subs	r1, #1
10003522:	b29f      	uxth	r7, r3
10003524:	4377      	muls	r7, r6
10003526:	1bc9      	subs	r1, r1, r7
10003528:	1bc9      	subs	r1, r1, r7
1000352a:	0c17      	lsrs	r7, r2, #16
1000352c:	4377      	muls	r7, r6
1000352e:	047e      	lsls	r6, r7, #17
10003530:	0bff      	lsrs	r7, r7, #15
10003532:	1b80      	subs	r0, r0, r6
10003534:	41b9      	sbcs	r1, r7
10003536:	08ce      	lsrs	r6, r1, #3
10003538:	4366      	muls	r6, r4
1000353a:	0c36      	lsrs	r6, r6, #16
1000353c:	2d0c      	cmp	r5, #12
1000353e:	db33      	blt.n	100035a8 <last1>
10003540:	44b6      	add	lr, r6
10003542:	0b12      	lsrs	r2, r2, #12
10003544:	051f      	lsls	r7, r3, #20
10003546:	433a      	orrs	r2, r7
10003548:	0b1b      	lsrs	r3, r3, #12
1000354a:	b297      	uxth	r7, r2
1000354c:	4377      	muls	r7, r6
1000354e:	1bc0      	subs	r0, r0, r7
10003550:	d200      	bcs.n	10003554 <y64_x48+0xa6>
10003552:	3901      	subs	r1, #1
10003554:	b29f      	uxth	r7, r3
10003556:	4377      	muls	r7, r6
10003558:	1bc9      	subs	r1, r1, r7
1000355a:	0c17      	lsrs	r7, r2, #16
1000355c:	4377      	muls	r7, r6
1000355e:	043e      	lsls	r6, r7, #16
10003560:	0c3f      	lsrs	r7, r7, #16
10003562:	1b80      	subs	r0, r0, r6
10003564:	41b9      	sbcs	r1, r7
10003566:	0d86      	lsrs	r6, r0, #22
10003568:	028f      	lsls	r7, r1, #10
1000356a:	433e      	orrs	r6, r7
1000356c:	4366      	muls	r6, r4
1000356e:	2729      	movs	r7, #41	; 0x29
10003570:	1b7f      	subs	r7, r7, r5
10003572:	40fe      	lsrs	r6, r7
10003574:	3d0c      	subs	r5, #12
10003576:	4677      	mov	r7, lr
10003578:	40af      	lsls	r7, r5
1000357a:	19bf      	adds	r7, r7, r6
1000357c:	bc30      	pop	{r4, r5}
1000357e:	b2a2      	uxth	r2, r4
10003580:	b2ab      	uxth	r3, r5
10003582:	4372      	muls	r2, r6
10003584:	4373      	muls	r3, r6
10003586:	1a80      	subs	r0, r0, r2
10003588:	4199      	sbcs	r1, r3
1000358a:	0c22      	lsrs	r2, r4, #16
1000358c:	4372      	muls	r2, r6
1000358e:	0c13      	lsrs	r3, r2, #16
10003590:	0412      	lsls	r2, r2, #16
10003592:	1a80      	subs	r0, r0, r2
10003594:	4199      	sbcs	r1, r3
10003596:	0002      	movs	r2, r0
10003598:	000b      	movs	r3, r1
1000359a:	3701      	adds	r7, #1
1000359c:	1b00      	subs	r0, r0, r4
1000359e:	41a9      	sbcs	r1, r5
100035a0:	d2f9      	bcs.n	10003596 <y64_x48+0xe8>
100035a2:	1e78      	subs	r0, r7, #1
100035a4:	2100      	movs	r1, #0
100035a6:	bdf0      	pop	{r4, r5, r6, r7, pc}

100035a8 <last1>:
100035a8:	270c      	movs	r7, #12
100035aa:	1b7f      	subs	r7, r7, r5
100035ac:	40fe      	lsrs	r6, r7
100035ae:	4677      	mov	r7, lr
100035b0:	0b7f      	lsrs	r7, r7, #13
100035b2:	40af      	lsls	r7, r5
100035b4:	19ff      	adds	r7, r7, r7
100035b6:	e7e0      	b.n	1000357a <y64_x48+0xcc>

100035b8 <y64_x64>:
100035b8:	2400      	movs	r4, #0
100035ba:	1c5d      	adds	r5, r3, #1
100035bc:	d007      	beq.n	100035ce <y64_x64+0x16>
100035be:	4f14      	ldr	r7, [pc, #80]	; (10003610 <y64_x64+0x58>)
100035c0:	667d      	str	r5, [r7, #100]	; 0x64
100035c2:	6639      	str	r1, [r7, #96]	; 0x60
100035c4:	e7ff      	b.n	100035c6 <y64_x64+0xe>
100035c6:	e7ff      	b.n	100035c8 <y64_x64+0x10>
100035c8:	e7ff      	b.n	100035ca <y64_x64+0x12>
100035ca:	e7ff      	b.n	100035cc <y64_x64+0x14>
100035cc:	6f3c      	ldr	r4, [r7, #112]	; 0x70
100035ce:	b295      	uxth	r5, r2
100035d0:	b29e      	uxth	r6, r3
100035d2:	4365      	muls	r5, r4
100035d4:	4366      	muls	r6, r4
100035d6:	1b40      	subs	r0, r0, r5
100035d8:	41b1      	sbcs	r1, r6
100035da:	0c15      	lsrs	r5, r2, #16
100035dc:	0c1e      	lsrs	r6, r3, #16
100035de:	4365      	muls	r5, r4
100035e0:	4366      	muls	r6, r4
100035e2:	0436      	lsls	r6, r6, #16
100035e4:	0c2f      	lsrs	r7, r5, #16
100035e6:	433e      	orrs	r6, r7
100035e8:	042d      	lsls	r5, r5, #16
100035ea:	1b40      	subs	r0, r0, r5
100035ec:	41b1      	sbcs	r1, r6
100035ee:	4299      	cmp	r1, r3
100035f0:	d204      	bcs.n	100035fc <y64_x64+0x44>
100035f2:	0002      	movs	r2, r0
100035f4:	000b      	movs	r3, r1
100035f6:	0020      	movs	r0, r4
100035f8:	2100      	movs	r1, #0
100035fa:	bdf0      	pop	{r4, r5, r6, r7, pc}
100035fc:	d101      	bne.n	10003602 <y64_x64+0x4a>
100035fe:	4290      	cmp	r0, r2
10003600:	d3f7      	bcc.n	100035f2 <y64_x64+0x3a>
10003602:	1a80      	subs	r0, r0, r2
10003604:	4199      	sbcs	r1, r3
10003606:	3401      	adds	r4, #1
10003608:	4299      	cmp	r1, r3
1000360a:	d3f2      	bcc.n	100035f2 <y64_x64+0x3a>
1000360c:	e7f6      	b.n	100035fc <y64_x64+0x44>
1000360e:	0000      	.short	0x0000
10003610:	d0000000 	.word	0xd0000000
10003614:	ffffffff 	.word	0xffffffff

10003618 <__wrap___aeabi_drsub>:
10003618:	4048      	eors	r0, r1
1000361a:	4041      	eors	r1, r0
1000361c:	4048      	eors	r0, r1

1000361e <__wrap___aeabi_dsub>:
1000361e:	b418      	push	{r3, r4}
10003620:	4b11      	ldr	r3, [pc, #68]	; (10003668 <__wrap___aeabi_dmul+0x14>)
10003622:	685b      	ldr	r3, [r3, #4]
10003624:	46fc      	mov	ip, pc
10003626:	9301      	str	r3, [sp, #4]
10003628:	bd08      	pop	{r3, pc}
1000362a:	df04      	.short	0xdf04
1000362c:	100038a3 	.word	0x100038a3

10003630 <__wrap___aeabi_dadd>:
10003630:	b418      	push	{r3, r4}
10003632:	4b0d      	ldr	r3, [pc, #52]	; (10003668 <__wrap___aeabi_dmul+0x14>)
10003634:	681b      	ldr	r3, [r3, #0]
10003636:	46fc      	mov	ip, pc
10003638:	9301      	str	r3, [sp, #4]
1000363a:	bd08      	pop	{r3, pc}
1000363c:	38addf00 	.word	0x38addf00
10003640:	1000      	.short	0x1000

10003642 <__wrap___aeabi_ddiv>:
10003642:	b418      	push	{r3, r4}
10003644:	4b08      	ldr	r3, [pc, #32]	; (10003668 <__wrap___aeabi_dmul+0x14>)
10003646:	68db      	ldr	r3, [r3, #12]
10003648:	46fc      	mov	ip, pc
1000364a:	9301      	str	r3, [sp, #4]
1000364c:	bd08      	pop	{r3, pc}
1000364e:	df0c      	.short	0xdf0c
10003650:	10003b65 	.word	0x10003b65

10003654 <__wrap___aeabi_dmul>:
10003654:	b418      	push	{r3, r4}
10003656:	4b04      	ldr	r3, [pc, #16]	; (10003668 <__wrap___aeabi_dmul+0x14>)
10003658:	689b      	ldr	r3, [r3, #8]
1000365a:	46fc      	mov	ip, pc
1000365c:	9301      	str	r3, [sp, #4]
1000365e:	bd08      	pop	{r3, pc}
10003660:	3a09df08 	.word	0x3a09df08
10003664:	00001000 	.word	0x00001000
10003668:	20001300 	.word	0x20001300

1000366c <__wrap___aeabi_cdrcmple>:
1000366c:	b5ff      	push	{r0, r1, r2, r3, r4, r5, r6, r7, lr}
1000366e:	4050      	eors	r0, r2
10003670:	4042      	eors	r2, r0
10003672:	4050      	eors	r0, r2
10003674:	4059      	eors	r1, r3
10003676:	404b      	eors	r3, r1
10003678:	4059      	eors	r1, r3
1000367a:	e000      	b.n	1000367e <__aeabi_dfcmple_guts>

1000367c <__wrap___aeabi_cdcmpeq>:
1000367c:	b5ff      	push	{r0, r1, r2, r3, r4, r5, r6, r7, lr}

1000367e <__aeabi_dfcmple_guts>:
1000367e:	4f15      	ldr	r7, [pc, #84]	; (100036d4 <__aeabi_dfcmple_guts+0x56>)
10003680:	004c      	lsls	r4, r1, #1
10003682:	0d64      	lsrs	r4, r4, #21
10003684:	d003      	beq.n	1000368e <__aeabi_dfcmple_guts+0x10>
10003686:	42bc      	cmp	r4, r7
10003688:	d104      	bne.n	10003694 <__aeabi_dfcmple_guts+0x16>
1000368a:	030c      	lsls	r4, r1, #12
1000368c:	d814      	bhi.n	100036b8 <__aeabi_dfcmple_guts+0x3a>
1000368e:	2000      	movs	r0, #0
10003690:	0d09      	lsrs	r1, r1, #20
10003692:	0509      	lsls	r1, r1, #20
10003694:	005c      	lsls	r4, r3, #1
10003696:	0d64      	lsrs	r4, r4, #21
10003698:	d003      	beq.n	100036a2 <__aeabi_dfcmple_guts+0x24>
1000369a:	42bc      	cmp	r4, r7
1000369c:	d104      	bne.n	100036a8 <__aeabi_dfcmple_guts+0x2a>
1000369e:	031c      	lsls	r4, r3, #12
100036a0:	d80a      	bhi.n	100036b8 <__aeabi_dfcmple_guts+0x3a>
100036a2:	2200      	movs	r2, #0
100036a4:	0d1b      	lsrs	r3, r3, #20
100036a6:	051b      	lsls	r3, r3, #20
100036a8:	2601      	movs	r6, #1
100036aa:	404b      	eors	r3, r1
100036ac:	d409      	bmi.n	100036c2 <__aeabi_dfcmple_guts+0x44>
100036ae:	404b      	eors	r3, r1
100036b0:	d503      	bpl.n	100036ba <__aeabi_dfcmple_guts+0x3c>
100036b2:	428b      	cmp	r3, r1
100036b4:	d100      	bne.n	100036b8 <__aeabi_dfcmple_guts+0x3a>
100036b6:	4282      	cmp	r2, r0
100036b8:	bdff      	pop	{r0, r1, r2, r3, r4, r5, r6, r7, pc}
100036ba:	4299      	cmp	r1, r3
100036bc:	d1fc      	bne.n	100036b8 <__aeabi_dfcmple_guts+0x3a>
100036be:	4290      	cmp	r0, r2
100036c0:	bdff      	pop	{r0, r1, r2, r3, r4, r5, r6, r7, pc}
100036c2:	430b      	orrs	r3, r1
100036c4:	18db      	adds	r3, r3, r3
100036c6:	4303      	orrs	r3, r0
100036c8:	4313      	orrs	r3, r2
100036ca:	d0f5      	beq.n	100036b8 <__aeabi_dfcmple_guts+0x3a>
100036cc:	43c9      	mvns	r1, r1
100036ce:	1849      	adds	r1, r1, r1
100036d0:	bdff      	pop	{r0, r1, r2, r3, r4, r5, r6, r7, pc}
100036d2:	0000      	.short	0x0000
100036d4:	000007ff 	.word	0x000007ff

100036d8 <__wrap___aeabi_dcmplt>:
100036d8:	b500      	push	{lr}
100036da:	f7ff ffcf 	bl	1000367c <__wrap___aeabi_cdcmpeq>
100036de:	4180      	sbcs	r0, r0
100036e0:	bd00      	pop	{pc}
100036e2:	46c0      	nop			; (mov r8, r8)

100036e4 <__wrap___aeabi_dcmple>:
100036e4:	b500      	push	{lr}
100036e6:	f7ff ffc9 	bl	1000367c <__wrap___aeabi_cdcmpeq>
100036ea:	d901      	bls.n	100036f0 <__wrap___aeabi_dcmple+0xc>
100036ec:	2000      	movs	r0, #0
100036ee:	bd00      	pop	{pc}
100036f0:	2001      	movs	r0, #1
100036f2:	bd00      	pop	{pc}

100036f4 <__wrap___aeabi_dcmpge>:
100036f4:	b500      	push	{lr}
100036f6:	f7ff ffb9 	bl	1000366c <__wrap___aeabi_cdrcmple>
100036fa:	d901      	bls.n	10003700 <__wrap___aeabi_dcmpge+0xc>
100036fc:	2000      	movs	r0, #0
100036fe:	bd00      	pop	{pc}
10003700:	2001      	movs	r0, #1
10003702:	bd00      	pop	{pc}

10003704 <__wrap___aeabi_dcmpgt>:
10003704:	b500      	push	{lr}
10003706:	f7ff ffb1 	bl	1000366c <__wrap___aeabi_cdrcmple>
1000370a:	4180      	sbcs	r0, r0
1000370c:	bd00      	pop	{pc}

1000370e <__wrap___aeabi_dcmpun>:
1000370e:	2001      	movs	r0, #1
10003710:	0540      	lsls	r0, r0, #21
10003712:	004a      	lsls	r2, r1, #1
10003714:	1812      	adds	r2, r2, r0
10003716:	d804      	bhi.n	10003722 <__wrap___aeabi_dcmpun+0x14>
10003718:	005a      	lsls	r2, r3, #1
1000371a:	1812      	adds	r2, r2, r0
1000371c:	d801      	bhi.n	10003722 <__wrap___aeabi_dcmpun+0x14>
1000371e:	2000      	movs	r0, #0
10003720:	4770      	bx	lr
10003722:	2001      	movs	r0, #1
10003724:	4770      	bx	lr
10003726:	2000      	movs	r0, #0
10003728:	4770      	bx	lr
	...

1000372c <__wrap___aeabi_ui2d>:
1000372c:	2100      	movs	r1, #0
1000372e:	2800      	cmp	r0, #0
10003730:	d105      	bne.n	1000373e <__wrap___aeabi_i2d+0xa>
10003732:	4770      	bx	lr

10003734 <__wrap___aeabi_i2d>:
10003734:	17c1      	asrs	r1, r0, #31
10003736:	4048      	eors	r0, r1
10003738:	1a40      	subs	r0, r0, r1
1000373a:	d0fa      	beq.n	10003732 <__wrap___aeabi_ui2d+0x6>
1000373c:	07c9      	lsls	r1, r1, #31
1000373e:	b513      	push	{r0, r1, r4, lr}
10003740:	4b06      	ldr	r3, [pc, #24]	; (1000375c <__wrap___aeabi_i2d+0x28>)
10003742:	681b      	ldr	r3, [r3, #0]
10003744:	4798      	blx	r3
10003746:	bc0c      	pop	{r2, r3}
10003748:	1c44      	adds	r4, r0, #1
1000374a:	40a2      	lsls	r2, r4
1000374c:	0510      	lsls	r0, r2, #20
1000374e:	0b12      	lsrs	r2, r2, #12
10003750:	4903      	ldr	r1, [pc, #12]	; (10003760 <__wrap___aeabi_i2d+0x2c>)
10003752:	1b09      	subs	r1, r1, r4
10003754:	0509      	lsls	r1, r1, #20
10003756:	4319      	orrs	r1, r3
10003758:	4311      	orrs	r1, r2
1000375a:	bd10      	pop	{r4, pc}
1000375c:	20001500 	.word	0x20001500
10003760:	0000041f 	.word	0x0000041f

10003764 <__wrap___aeabi_d2iz>:
10003764:	b510      	push	{r4, lr}
10003766:	004c      	lsls	r4, r1, #1
10003768:	0d62      	lsrs	r2, r4, #21
1000376a:	2380      	movs	r3, #128	; 0x80
1000376c:	18d2      	adds	r2, r2, r3
1000376e:	00db      	lsls	r3, r3, #3
10003770:	1ad2      	subs	r2, r2, r3
10003772:	055b      	lsls	r3, r3, #21
10003774:	2a7e      	cmp	r2, #126	; 0x7e
10003776:	dd10      	ble.n	1000379a <__wrap___aeabi_d2iz+0x36>
10003778:	3a9e      	subs	r2, #158	; 0x9e
1000377a:	da13      	bge.n	100037a4 <__wrap___aeabi_d2iz+0x40>
1000377c:	17cc      	asrs	r4, r1, #31
1000377e:	0309      	lsls	r1, r1, #12
10003780:	0849      	lsrs	r1, r1, #1
10003782:	4319      	orrs	r1, r3
10003784:	4252      	negs	r2, r2
10003786:	40d1      	lsrs	r1, r2
10003788:	0064      	lsls	r4, r4, #1
1000378a:	3401      	adds	r4, #1
1000378c:	3215      	adds	r2, #21
1000378e:	2a20      	cmp	r2, #32
10003790:	da05      	bge.n	1000379e <__wrap___aeabi_d2iz+0x3a>
10003792:	40d0      	lsrs	r0, r2
10003794:	4308      	orrs	r0, r1
10003796:	4360      	muls	r0, r4
10003798:	bd10      	pop	{r4, pc}
1000379a:	2000      	movs	r0, #0
1000379c:	bd10      	pop	{r4, pc}
1000379e:	4608      	mov	r0, r1
100037a0:	4360      	muls	r0, r4
100037a2:	bd10      	pop	{r4, pc}
100037a4:	0fc8      	lsrs	r0, r1, #31
100037a6:	18c0      	adds	r0, r0, r3
100037a8:	3801      	subs	r0, #1
100037aa:	bd10      	pop	{r4, pc}

100037ac <__wrap___aeabi_d2uiz>:
100037ac:	b418      	push	{r3, r4}
100037ae:	4b04      	ldr	r3, [pc, #16]	; (100037c0 <__wrap___aeabi_d2uiz+0x14>)
100037b0:	6a5b      	ldr	r3, [r3, #36]	; 0x24
100037b2:	46fc      	mov	ip, pc
100037b4:	9301      	str	r3, [sp, #4]
100037b6:	bd08      	pop	{r3, pc}
100037b8:	3d91df24 	.word	0x3d91df24
100037bc:	00001000 	.word	0x00001000
100037c0:	20001300 	.word	0x20001300

100037c4 <__aeabi_double_init>:
100037c4:	2313      	movs	r3, #19
100037c6:	b570      	push	{r4, r5, r6, lr}
100037c8:	781d      	ldrb	r5, [r3, #0]
100037ca:	2d01      	cmp	r5, #1
100037cc:	d010      	beq.n	100037f0 <__aeabi_double_init+0x2c>
100037ce:	dd0b      	ble.n	100037e8 <__aeabi_double_init+0x24>
100037d0:	4824      	ldr	r0, [pc, #144]	; (10003864 <__aeabi_double_init+0xa0>)
100037d2:	f7ff fc8d 	bl	100030f0 <rom_data_lookup>
100037d6:	4c24      	ldr	r4, [pc, #144]	; (10003868 <__aeabi_double_init+0xa4>)
100037d8:	0001      	movs	r1, r0
100037da:	2280      	movs	r2, #128	; 0x80
100037dc:	0020      	movs	r0, r4
100037de:	f000 fbed 	bl	10003fbc <__wrap___aeabi_memcpy>
100037e2:	2d02      	cmp	r5, #2
100037e4:	d001      	beq.n	100037ea <__aeabi_double_init+0x26>
100037e6:	bd70      	pop	{r4, r5, r6, pc}
100037e8:	4c1f      	ldr	r4, [pc, #124]	; (10003868 <__aeabi_double_init+0xa4>)
100037ea:	4a20      	ldr	r2, [pc, #128]	; (1000386c <__aeabi_double_init+0xa8>)
100037ec:	64a2      	str	r2, [r4, #72]	; 0x48
100037ee:	e7fa      	b.n	100037e6 <__aeabi_double_init+0x22>
100037f0:	002e      	movs	r6, r5
100037f2:	4c1d      	ldr	r4, [pc, #116]	; (10003868 <__aeabi_double_init+0xa4>)
100037f4:	4a1d      	ldr	r2, [pc, #116]	; (1000386c <__aeabi_double_init+0xa8>)
100037f6:	08a3      	lsrs	r3, r4, #2
100037f8:	425b      	negs	r3, r3
100037fa:	401e      	ands	r6, r3
100037fc:	421d      	tst	r5, r3
100037fe:	d02f      	beq.n	10003860 <__aeabi_double_init+0x9c>
10003800:	0033      	movs	r3, r6
10003802:	6022      	str	r2, [r4, #0]
10003804:	2020      	movs	r0, #32
10003806:	00b1      	lsls	r1, r6, #2
10003808:	1861      	adds	r1, r4, r1
1000380a:	1b80      	subs	r0, r0, r6
1000380c:	600a      	str	r2, [r1, #0]
1000380e:	604a      	str	r2, [r1, #4]
10003810:	608a      	str	r2, [r1, #8]
10003812:	60ca      	str	r2, [r1, #12]
10003814:	610a      	str	r2, [r1, #16]
10003816:	614a      	str	r2, [r1, #20]
10003818:	618a      	str	r2, [r1, #24]
1000381a:	61ca      	str	r2, [r1, #28]
1000381c:	620a      	str	r2, [r1, #32]
1000381e:	624a      	str	r2, [r1, #36]	; 0x24
10003820:	628a      	str	r2, [r1, #40]	; 0x28
10003822:	62ca      	str	r2, [r1, #44]	; 0x2c
10003824:	630a      	str	r2, [r1, #48]	; 0x30
10003826:	634a      	str	r2, [r1, #52]	; 0x34
10003828:	638a      	str	r2, [r1, #56]	; 0x38
1000382a:	63ca      	str	r2, [r1, #60]	; 0x3c
1000382c:	640a      	str	r2, [r1, #64]	; 0x40
1000382e:	644a      	str	r2, [r1, #68]	; 0x44
10003830:	648a      	str	r2, [r1, #72]	; 0x48
10003832:	64ca      	str	r2, [r1, #76]	; 0x4c
10003834:	650a      	str	r2, [r1, #80]	; 0x50
10003836:	654a      	str	r2, [r1, #84]	; 0x54
10003838:	658a      	str	r2, [r1, #88]	; 0x58
1000383a:	65ca      	str	r2, [r1, #92]	; 0x5c
1000383c:	660a      	str	r2, [r1, #96]	; 0x60
1000383e:	664a      	str	r2, [r1, #100]	; 0x64
10003840:	668a      	str	r2, [r1, #104]	; 0x68
10003842:	66ca      	str	r2, [r1, #108]	; 0x6c
10003844:	670a      	str	r2, [r1, #112]	; 0x70
10003846:	674a      	str	r2, [r1, #116]	; 0x74
10003848:	0840      	lsrs	r0, r0, #1
1000384a:	2810      	cmp	r0, #16
1000384c:	d103      	bne.n	10003856 <__aeabi_double_init+0x92>
1000384e:	678a      	str	r2, [r1, #120]	; 0x78
10003850:	67ca      	str	r2, [r1, #124]	; 0x7c
10003852:	64a2      	str	r2, [r4, #72]	; 0x48
10003854:	e7c7      	b.n	100037e6 <__aeabi_double_init+0x22>
10003856:	331e      	adds	r3, #30
10003858:	009b      	lsls	r3, r3, #2
1000385a:	50e2      	str	r2, [r4, r3]
1000385c:	64a2      	str	r2, [r4, #72]	; 0x48
1000385e:	e7c2      	b.n	100037e6 <__aeabi_double_init+0x22>
10003860:	2300      	movs	r3, #0
10003862:	e7cf      	b.n	10003804 <__aeabi_double_init+0x40>
10003864:	00004453 	.word	0x00004453
10003868:	20001300 	.word	0x20001300
1000386c:	10003871 	.word	0x10003871

10003870 <double_table_shim_on_use_helper>:
10003870:	b507      	push	{r0, r1, r2, lr}
10003872:	4660      	mov	r0, ip
10003874:	8801      	ldrh	r1, [r0, #0]
10003876:	0a0a      	lsrs	r2, r1, #8
10003878:	3002      	adds	r0, #2
1000387a:	2adf      	cmp	r2, #223	; 0xdf
1000387c:	d1fa      	bne.n	10003874 <double_table_shim_on_use_helper+0x4>
1000387e:	b2c9      	uxtb	r1, r1
10003880:	0882      	lsrs	r2, r0, #2
10003882:	d304      	bcc.n	1000388e <double_table_shim_on_use_helper+0x1e>
10003884:	8802      	ldrh	r2, [r0, #0]
10003886:	8840      	ldrh	r0, [r0, #2]
10003888:	0400      	lsls	r0, r0, #16
1000388a:	4310      	orrs	r0, r2
1000388c:	e000      	b.n	10003890 <double_table_shim_on_use_helper+0x20>
1000388e:	6800      	ldr	r0, [r0, #0]
10003890:	4a01      	ldr	r2, [pc, #4]	; (10003898 <double_table_shim_on_use_helper+0x28>)
10003892:	5050      	str	r0, [r2, r1]
10003894:	9003      	str	r0, [sp, #12]
10003896:	bd07      	pop	{r0, r1, r2, pc}
10003898:	20001300 	.word	0x20001300

1000389c <drsub_shim>:
1000389c:	b40f      	push	{r0, r1, r2, r3}
1000389e:	bc03      	pop	{r0, r1}
100038a0:	bc0c      	pop	{r2, r3}

100038a2 <dsub_shim>:
100038a2:	b5f0      	push	{r4, r5, r6, r7, lr}
100038a4:	2401      	movs	r4, #1
100038a6:	07e4      	lsls	r4, r4, #31
100038a8:	4063      	eors	r3, r4
100038aa:	e000      	b.n	100038ae <da_entry>

100038ac <dadd_shim>:
100038ac:	b5f0      	push	{r4, r5, r6, r7, lr}

100038ae <da_entry>:
100038ae:	0d0c      	lsrs	r4, r1, #20
100038b0:	0fcf      	lsrs	r7, r1, #31
100038b2:	1e66      	subs	r6, r4, #1
100038b4:	0536      	lsls	r6, r6, #20
100038b6:	1b89      	subs	r1, r1, r6
100038b8:	0564      	lsls	r4, r4, #21
100038ba:	d303      	bcc.n	100038c4 <l7_1>
100038bc:	43c9      	mvns	r1, r1
100038be:	4240      	negs	r0, r0
100038c0:	d300      	bcc.n	100038c4 <l7_1>
100038c2:	3101      	adds	r1, #1

100038c4 <l7_1>:
100038c4:	0d64      	lsrs	r4, r4, #21
100038c6:	d003      	beq.n	100038d0 <l7_2>
100038c8:	1c66      	adds	r6, r4, #1
100038ca:	0af6      	lsrs	r6, r6, #11
100038cc:	d007      	beq.n	100038de <l7_3>
100038ce:	1be4      	subs	r4, r4, r7

100038d0 <l7_2>:
100038d0:	2000      	movs	r0, #0
100038d2:	007f      	lsls	r7, r7, #1
100038d4:	1c79      	adds	r1, r7, #1
100038d6:	0789      	lsls	r1, r1, #30
100038d8:	1289      	asrs	r1, r1, #10
100038da:	3c80      	subs	r4, #128	; 0x80
100038dc:	0324      	lsls	r4, r4, #12

100038de <l7_3>:
100038de:	0d1d      	lsrs	r5, r3, #20
100038e0:	0fdf      	lsrs	r7, r3, #31
100038e2:	1e6e      	subs	r6, r5, #1
100038e4:	0536      	lsls	r6, r6, #20
100038e6:	1b9b      	subs	r3, r3, r6
100038e8:	056d      	lsls	r5, r5, #21
100038ea:	d303      	bcc.n	100038f4 <l8_1>
100038ec:	43db      	mvns	r3, r3
100038ee:	4252      	negs	r2, r2
100038f0:	d300      	bcc.n	100038f4 <l8_1>
100038f2:	3301      	adds	r3, #1

100038f4 <l8_1>:
100038f4:	0d6d      	lsrs	r5, r5, #21
100038f6:	d003      	beq.n	10003900 <l8_2>
100038f8:	1c6e      	adds	r6, r5, #1
100038fa:	0af6      	lsrs	r6, r6, #11
100038fc:	d007      	beq.n	1000390e <l8_3>
100038fe:	1bed      	subs	r5, r5, r7

10003900 <l8_2>:
10003900:	2200      	movs	r2, #0
10003902:	007f      	lsls	r7, r7, #1
10003904:	1c7b      	adds	r3, r7, #1
10003906:	079b      	lsls	r3, r3, #30
10003908:	129b      	asrs	r3, r3, #10
1000390a:	3d80      	subs	r5, #128	; 0x80
1000390c:	032d      	lsls	r5, r5, #12

1000390e <l8_3>:
1000390e:	1b2f      	subs	r7, r5, r4
10003910:	1b66      	subs	r6, r4, r5
10003912:	d458      	bmi.n	100039c6 <da_ygtx>
10003914:	46a4      	mov	ip, r4
10003916:	2e20      	cmp	r6, #32
10003918:	da46      	bge.n	100039a8 <da_xrgty>
1000391a:	3720      	adds	r7, #32
1000391c:	0014      	movs	r4, r2
1000391e:	40bc      	lsls	r4, r7

10003920 <da_xgty0>:
10003920:	001d      	movs	r5, r3
10003922:	40bd      	lsls	r5, r7
10003924:	40f2      	lsrs	r2, r6
10003926:	4133      	asrs	r3, r6
10003928:	432a      	orrs	r2, r5

1000392a <da_add>:
1000392a:	1880      	adds	r0, r0, r2
1000392c:	4159      	adcs	r1, r3

1000392e <da_pack>:
1000392e:	0fcb      	lsrs	r3, r1, #31
10003930:	d005      	beq.n	1000393e <da_pack+0x10>
10003932:	43c9      	mvns	r1, r1
10003934:	43c0      	mvns	r0, r0
10003936:	2200      	movs	r2, #0
10003938:	4264      	negs	r4, r4
1000393a:	4150      	adcs	r0, r2
1000393c:	4151      	adcs	r1, r2
1000393e:	4662      	mov	r2, ip
10003940:	0d4d      	lsrs	r5, r1, #21
10003942:	d128      	bne.n	10003996 <da_0>
10003944:	0d0d      	lsrs	r5, r1, #20
10003946:	d107      	bne.n	10003958 <da_1>
10003948:	2800      	cmp	r0, #0
1000394a:	d01f      	beq.n	1000398c <da_5>

1000394c <da_2>:
1000394c:	1924      	adds	r4, r4, r4
1000394e:	4140      	adcs	r0, r0
10003950:	4149      	adcs	r1, r1
10003952:	3a01      	subs	r2, #1
10003954:	0d0d      	lsrs	r5, r1, #20
10003956:	d0f9      	beq.n	1000394c <da_2>

10003958 <da_1>:
10003958:	0064      	lsls	r4, r4, #1
1000395a:	d306      	bcc.n	1000396a <da_3>

1000395c <da_4>:
1000395c:	3001      	adds	r0, #1
1000395e:	d300      	bcc.n	10003962 <da_4+0x6>
10003960:	3101      	adds	r1, #1
10003962:	2c00      	cmp	r4, #0
10003964:	d101      	bne.n	1000396a <da_3>
10003966:	0840      	lsrs	r0, r0, #1
10003968:	0040      	lsls	r0, r0, #1

1000396a <da_3>:
1000396a:	3a01      	subs	r2, #1
1000396c:	d40b      	bmi.n	10003986 <da_6>
1000396e:	1c94      	adds	r4, r2, #2
10003970:	0ae4      	lsrs	r4, r4, #11
10003972:	d104      	bne.n	1000397e <da_7>
10003974:	0512      	lsls	r2, r2, #20
10003976:	4411      	add	r1, r2
10003978:	07db      	lsls	r3, r3, #31
1000397a:	4419      	add	r1, r3
1000397c:	bdf0      	pop	{r4, r5, r6, r7, pc}

1000397e <da_7>:
1000397e:	07d9      	lsls	r1, r3, #31
10003980:	4b20      	ldr	r3, [pc, #128]	; (10003a04 <da_xmgty+0x4>)
10003982:	4319      	orrs	r1, r3
10003984:	e000      	b.n	10003988 <da_6+0x2>

10003986 <da_6>:
10003986:	07d9      	lsls	r1, r3, #31
10003988:	2000      	movs	r0, #0
1000398a:	bdf0      	pop	{r4, r5, r6, r7, pc}

1000398c <da_5>:
1000398c:	2900      	cmp	r1, #0
1000398e:	d1dd      	bne.n	1000394c <da_2>
10003990:	2c00      	cmp	r4, #0
10003992:	d1db      	bne.n	1000394c <da_2>
10003994:	bdf0      	pop	{r4, r5, r6, r7, pc}

10003996 <da_0>:
10003996:	3201      	adds	r2, #1
10003998:	07c6      	lsls	r6, r0, #31
1000399a:	0840      	lsrs	r0, r0, #1
1000399c:	07cd      	lsls	r5, r1, #31
1000399e:	4328      	orrs	r0, r5
100039a0:	0849      	lsrs	r1, r1, #1
100039a2:	2e00      	cmp	r6, #0
100039a4:	d0e1      	beq.n	1000396a <da_3>
100039a6:	e7d9      	b.n	1000395c <da_4>

100039a8 <da_xrgty>:
100039a8:	2e3c      	cmp	r6, #60	; 0x3c
100039aa:	da29      	bge.n	10003a00 <da_xmgty>
100039ac:	3e20      	subs	r6, #32
100039ae:	3740      	adds	r7, #64	; 0x40
100039b0:	0014      	movs	r4, r2
100039b2:	40bc      	lsls	r4, r7
100039b4:	d000      	beq.n	100039b8 <da_xrgty+0x10>
100039b6:	2401      	movs	r4, #1
100039b8:	40f2      	lsrs	r2, r6
100039ba:	4314      	orrs	r4, r2
100039bc:	001a      	movs	r2, r3
100039be:	40bb      	lsls	r3, r7
100039c0:	431c      	orrs	r4, r3
100039c2:	17d3      	asrs	r3, r2, #31
100039c4:	e7ac      	b.n	10003920 <da_xgty0>

100039c6 <da_ygtx>:
100039c6:	46ac      	mov	ip, r5
100039c8:	2f20      	cmp	r7, #32
100039ca:	da08      	bge.n	100039de <da_yrgtx>
100039cc:	3620      	adds	r6, #32
100039ce:	0004      	movs	r4, r0
100039d0:	40b4      	lsls	r4, r6

100039d2 <da_ygtx0>:
100039d2:	000d      	movs	r5, r1
100039d4:	40b5      	lsls	r5, r6
100039d6:	40f8      	lsrs	r0, r7
100039d8:	4139      	asrs	r1, r7
100039da:	4328      	orrs	r0, r5
100039dc:	e7a5      	b.n	1000392a <da_add>

100039de <da_yrgtx>:
100039de:	2f3c      	cmp	r7, #60	; 0x3c
100039e0:	da0c      	bge.n	100039fc <da_ymgtx>
100039e2:	3f20      	subs	r7, #32
100039e4:	3640      	adds	r6, #64	; 0x40
100039e6:	0004      	movs	r4, r0
100039e8:	40b4      	lsls	r4, r6
100039ea:	d000      	beq.n	100039ee <da_yrgtx+0x10>
100039ec:	2401      	movs	r4, #1
100039ee:	40f8      	lsrs	r0, r7
100039f0:	4304      	orrs	r4, r0
100039f2:	0008      	movs	r0, r1
100039f4:	40b1      	lsls	r1, r6
100039f6:	430c      	orrs	r4, r1
100039f8:	17c1      	asrs	r1, r0, #31
100039fa:	e7ea      	b.n	100039d2 <da_ygtx0>

100039fc <da_ymgtx>:
100039fc:	0010      	movs	r0, r2
100039fe:	0019      	movs	r1, r3

10003a00 <da_xmgty>:
10003a00:	2400      	movs	r4, #0
10003a02:	e794      	b.n	1000392e <da_pack>
10003a04:	7ff00000 	.word	0x7ff00000

10003a08 <dmul_shim>:
10003a08:	b5f0      	push	{r4, r5, r6, r7, lr}
10003a0a:	0d0c      	lsrs	r4, r1, #20
10003a0c:	1e66      	subs	r6, r4, #1
10003a0e:	0536      	lsls	r6, r6, #20
10003a10:	1b89      	subs	r1, r1, r6
10003a12:	0ae6      	lsrs	r6, r4, #11
10003a14:	0564      	lsls	r4, r4, #21
10003a16:	0d64      	lsrs	r4, r4, #21
10003a18:	d002      	beq.n	10003a20 <l11_1>
10003a1a:	1c65      	adds	r5, r4, #1
10003a1c:	0aed      	lsrs	r5, r5, #11
10003a1e:	d004      	beq.n	10003a2a <l11_2>

10003a20 <l11_1>:
10003a20:	2000      	movs	r0, #0
10003a22:	2101      	movs	r1, #1
10003a24:	0509      	lsls	r1, r1, #20
10003a26:	3c80      	subs	r4, #128	; 0x80
10003a28:	0324      	lsls	r4, r4, #12

10003a2a <l11_2>:
10003a2a:	46a4      	mov	ip, r4
10003a2c:	0d1c      	lsrs	r4, r3, #20
10003a2e:	1e67      	subs	r7, r4, #1
10003a30:	053f      	lsls	r7, r7, #20
10003a32:	1bdb      	subs	r3, r3, r7
10003a34:	0ae7      	lsrs	r7, r4, #11
10003a36:	0564      	lsls	r4, r4, #21
10003a38:	0d64      	lsrs	r4, r4, #21
10003a3a:	d002      	beq.n	10003a42 <l12_1>
10003a3c:	1c65      	adds	r5, r4, #1
10003a3e:	0aed      	lsrs	r5, r5, #11
10003a40:	d004      	beq.n	10003a4c <l12_2>

10003a42 <l12_1>:
10003a42:	2200      	movs	r2, #0
10003a44:	2301      	movs	r3, #1
10003a46:	051b      	lsls	r3, r3, #20
10003a48:	3c80      	subs	r4, #128	; 0x80
10003a4a:	0324      	lsls	r4, r4, #12

10003a4c <l12_2>:
10003a4c:	4077      	eors	r7, r6
10003a4e:	4464      	add	r4, ip
10003a50:	b497      	push	{r0, r1, r2, r4, r7}
10003a52:	b284      	uxth	r4, r0
10003a54:	b296      	uxth	r6, r2
10003a56:	4374      	muls	r4, r6
10003a58:	0c07      	lsrs	r7, r0, #16
10003a5a:	437e      	muls	r6, r7
10003a5c:	0c15      	lsrs	r5, r2, #16
10003a5e:	436f      	muls	r7, r5
10003a60:	b280      	uxth	r0, r0
10003a62:	4368      	muls	r0, r5
10003a64:	1836      	adds	r6, r6, r0
10003a66:	d302      	bcc.n	10003a6e <l13_1>
10003a68:	2001      	movs	r0, #1
10003a6a:	0400      	lsls	r0, r0, #16
10003a6c:	183f      	adds	r7, r7, r0

10003a6e <l13_1>:
10003a6e:	0430      	lsls	r0, r6, #16
10003a70:	0c35      	lsrs	r5, r6, #16
10003a72:	1900      	adds	r0, r0, r4
10003a74:	417d      	adcs	r5, r7
10003a76:	4684      	mov	ip, r0
10003a78:	b288      	uxth	r0, r1
10003a7a:	b29a      	uxth	r2, r3
10003a7c:	4350      	muls	r0, r2
10003a7e:	0c0c      	lsrs	r4, r1, #16
10003a80:	4362      	muls	r2, r4
10003a82:	0c1f      	lsrs	r7, r3, #16
10003a84:	437c      	muls	r4, r7
10003a86:	b28e      	uxth	r6, r1
10003a88:	437e      	muls	r6, r7
10003a8a:	1992      	adds	r2, r2, r6
10003a8c:	d302      	bcc.n	10003a94 <l14_1>
10003a8e:	2601      	movs	r6, #1
10003a90:	0436      	lsls	r6, r6, #16
10003a92:	19a4      	adds	r4, r4, r6

10003a94 <l14_1>:
10003a94:	0416      	lsls	r6, r2, #16
10003a96:	0c17      	lsrs	r7, r2, #16
10003a98:	1836      	adds	r6, r6, r0
10003a9a:	4167      	adcs	r7, r4
10003a9c:	bc01      	pop	{r0}
10003a9e:	b281      	uxth	r1, r0
10003aa0:	b29a      	uxth	r2, r3
10003aa2:	4351      	muls	r1, r2
10003aa4:	0c04      	lsrs	r4, r0, #16
10003aa6:	4362      	muls	r2, r4
10003aa8:	0c1b      	lsrs	r3, r3, #16
10003aaa:	435c      	muls	r4, r3
10003aac:	b280      	uxth	r0, r0
10003aae:	4358      	muls	r0, r3
10003ab0:	1812      	adds	r2, r2, r0
10003ab2:	d302      	bcc.n	10003aba <l15_1>
10003ab4:	2001      	movs	r0, #1
10003ab6:	0400      	lsls	r0, r0, #16
10003ab8:	1824      	adds	r4, r4, r0

10003aba <l15_1>:
10003aba:	0410      	lsls	r0, r2, #16
10003abc:	0c13      	lsrs	r3, r2, #16
10003abe:	1840      	adds	r0, r0, r1
10003ac0:	4163      	adcs	r3, r4
10003ac2:	182d      	adds	r5, r5, r0
10003ac4:	415e      	adcs	r6, r3
10003ac6:	2000      	movs	r0, #0
10003ac8:	4147      	adcs	r7, r0
10003aca:	bc06      	pop	{r1, r2}
10003acc:	b288      	uxth	r0, r1
10003ace:	b293      	uxth	r3, r2
10003ad0:	4358      	muls	r0, r3
10003ad2:	0c0c      	lsrs	r4, r1, #16
10003ad4:	4363      	muls	r3, r4
10003ad6:	0c12      	lsrs	r2, r2, #16
10003ad8:	4354      	muls	r4, r2
10003ada:	b289      	uxth	r1, r1
10003adc:	4351      	muls	r1, r2
10003ade:	185b      	adds	r3, r3, r1
10003ae0:	d302      	bcc.n	10003ae8 <l16_1>
10003ae2:	2101      	movs	r1, #1
10003ae4:	0409      	lsls	r1, r1, #16
10003ae6:	1864      	adds	r4, r4, r1

10003ae8 <l16_1>:
10003ae8:	0419      	lsls	r1, r3, #16
10003aea:	0c1a      	lsrs	r2, r3, #16
10003aec:	1809      	adds	r1, r1, r0
10003aee:	4162      	adcs	r2, r4
10003af0:	186d      	adds	r5, r5, r1
10003af2:	4156      	adcs	r6, r2
10003af4:	2000      	movs	r0, #0
10003af6:	4147      	adcs	r7, r0
10003af8:	bc18      	pop	{r3, r4}
10003afa:	02f9      	lsls	r1, r7, #11
10003afc:	0d72      	lsrs	r2, r6, #21
10003afe:	4311      	orrs	r1, r2
10003b00:	02f0      	lsls	r0, r6, #11
10003b02:	0d6a      	lsrs	r2, r5, #21
10003b04:	4310      	orrs	r0, r2
10003b06:	02ed      	lsls	r5, r5, #11
10003b08:	0d0a      	lsrs	r2, r1, #20
10003b0a:	d103      	bne.n	10003b14 <l16_1+0x2c>
10003b0c:	196d      	adds	r5, r5, r5
10003b0e:	4140      	adcs	r0, r0
10003b10:	4149      	adcs	r1, r1
10003b12:	3b01      	subs	r3, #1
10003b14:	4e12      	ldr	r6, [pc, #72]	; (10003b60 <dm_1+0xa>)
10003b16:	1b9b      	subs	r3, r3, r6
10003b18:	0076      	lsls	r6, r6, #1
10003b1a:	42b3      	cmp	r3, r6
10003b1c:	d20e      	bcs.n	10003b3c <dm_0>
10003b1e:	006d      	lsls	r5, r5, #1
10003b20:	d307      	bcc.n	10003b32 <l16_1+0x4a>
10003b22:	3001      	adds	r0, #1
10003b24:	2600      	movs	r6, #0
10003b26:	4171      	adcs	r1, r6
10003b28:	4666      	mov	r6, ip
10003b2a:	4335      	orrs	r5, r6
10003b2c:	d101      	bne.n	10003b32 <l16_1+0x4a>
10003b2e:	0840      	lsrs	r0, r0, #1
10003b30:	0040      	lsls	r0, r0, #1
10003b32:	051b      	lsls	r3, r3, #20
10003b34:	18c9      	adds	r1, r1, r3

10003b36 <dm_2>:
10003b36:	07e4      	lsls	r4, r4, #31
10003b38:	4421      	add	r1, r4
10003b3a:	bdf0      	pop	{r4, r5, r6, r7, pc}

10003b3c <dm_0>:
10003b3c:	da0b      	bge.n	10003b56 <dm_1>
10003b3e:	3301      	adds	r3, #1
10003b40:	d106      	bne.n	10003b50 <dm_0+0x14>
10003b42:	3001      	adds	r0, #1
10003b44:	d104      	bne.n	10003b50 <dm_0+0x14>
10003b46:	3101      	adds	r1, #1
10003b48:	0d4f      	lsrs	r7, r1, #21
10003b4a:	d001      	beq.n	10003b50 <dm_0+0x14>
10003b4c:	0849      	lsrs	r1, r1, #1
10003b4e:	e7f2      	b.n	10003b36 <dm_2>
10003b50:	07e1      	lsls	r1, r4, #31
10003b52:	2000      	movs	r0, #0
10003b54:	bdf0      	pop	{r4, r5, r6, r7, pc}

10003b56 <dm_1>:
10003b56:	3601      	adds	r6, #1
10003b58:	0531      	lsls	r1, r6, #20
10003b5a:	2000      	movs	r0, #0
10003b5c:	e7eb      	b.n	10003b36 <dm_2>
10003b5e:	0000      	.short	0x0000
10003b60:	000003ff 	.word	0x000003ff

10003b64 <ddiv_shim>:
10003b64:	b5f0      	push	{r4, r5, r6, r7, lr}

10003b66 <ddiv0>:
10003b66:	0d1c      	lsrs	r4, r3, #20
10003b68:	1e67      	subs	r7, r4, #1
10003b6a:	053f      	lsls	r7, r7, #20
10003b6c:	1bdb      	subs	r3, r3, r7
10003b6e:	0ae7      	lsrs	r7, r4, #11
10003b70:	0564      	lsls	r4, r4, #21
10003b72:	0d64      	lsrs	r4, r4, #21
10003b74:	d002      	beq.n	10003b7c <l19_1>
10003b76:	1c66      	adds	r6, r4, #1
10003b78:	0af6      	lsrs	r6, r6, #11
10003b7a:	d004      	beq.n	10003b86 <l19_2>

10003b7c <l19_1>:
10003b7c:	2200      	movs	r2, #0
10003b7e:	2301      	movs	r3, #1
10003b80:	051b      	lsls	r3, r3, #20
10003b82:	3c80      	subs	r4, #128	; 0x80
10003b84:	0324      	lsls	r4, r4, #12

10003b86 <l19_2>:
10003b86:	25d0      	movs	r5, #208	; 0xd0
10003b88:	062d      	lsls	r5, r5, #24
10003b8a:	2600      	movs	r6, #0
10003b8c:	43f6      	mvns	r6, r6
10003b8e:	662e      	str	r6, [r5, #96]	; 0x60
10003b90:	091e      	lsrs	r6, r3, #4
10003b92:	666e      	str	r6, [r5, #100]	; 0x64
10003b94:	0fce      	lsrs	r6, r1, #31
10003b96:	19f6      	adds	r6, r6, r7
10003b98:	46b4      	mov	ip, r6
10003b9a:	0049      	lsls	r1, r1, #1
10003b9c:	0d4f      	lsrs	r7, r1, #21
10003b9e:	d002      	beq.n	10003ba6 <l19_2+0x20>
10003ba0:	1c7e      	adds	r6, r7, #1
10003ba2:	0af6      	lsrs	r6, r6, #11
10003ba4:	d003      	beq.n	10003bae <l19_2+0x28>
10003ba6:	2000      	movs	r0, #0
10003ba8:	2100      	movs	r1, #0
10003baa:	3f40      	subs	r7, #64	; 0x40
10003bac:	033f      	lsls	r7, r7, #12
10003bae:	1b3e      	subs	r6, r7, r4
10003bb0:	00b6      	lsls	r6, r6, #2
10003bb2:	44b4      	add	ip, r6
10003bb4:	3f01      	subs	r7, #1
10003bb6:	057f      	lsls	r7, r7, #21
10003bb8:	1bc9      	subs	r1, r1, r7
10003bba:	0849      	lsrs	r1, r1, #1
10003bbc:	6f2e      	ldr	r6, [r5, #112]	; 0x70
10003bbe:	3601      	adds	r6, #1
10003bc0:	0876      	lsrs	r6, r6, #1
10003bc2:	029c      	lsls	r4, r3, #10
10003bc4:	0d95      	lsrs	r5, r2, #22
10003bc6:	4325      	orrs	r5, r4
10003bc8:	4375      	muls	r5, r6
10003bca:	13ed      	asrs	r5, r5, #15
10003bcc:	4375      	muls	r5, r6
10003bce:	13ad      	asrs	r5, r5, #14
10003bd0:	3501      	adds	r5, #1
10003bd2:	106d      	asrs	r5, r5, #1
10003bd4:	03f6      	lsls	r6, r6, #15
10003bd6:	1b76      	subs	r6, r6, r5
10003bd8:	b40c      	push	{r2, r3}
10003bda:	02cc      	lsls	r4, r1, #11
10003bdc:	0d45      	lsrs	r5, r0, #21
10003bde:	432c      	orrs	r4, r5
10003be0:	b2a2      	uxth	r2, r4
10003be2:	b2b3      	uxth	r3, r6
10003be4:	435a      	muls	r2, r3
10003be6:	0c27      	lsrs	r7, r4, #16
10003be8:	437b      	muls	r3, r7
10003bea:	0c35      	lsrs	r5, r6, #16
10003bec:	436f      	muls	r7, r5
10003bee:	b2a4      	uxth	r4, r4
10003bf0:	436c      	muls	r4, r5
10003bf2:	191b      	adds	r3, r3, r4
10003bf4:	d302      	bcc.n	10003bfc <l20_1>
10003bf6:	2401      	movs	r4, #1
10003bf8:	0424      	lsls	r4, r4, #16
10003bfa:	193f      	adds	r7, r7, r4

10003bfc <l20_1>:
10003bfc:	041c      	lsls	r4, r3, #16
10003bfe:	0c1d      	lsrs	r5, r3, #16
10003c00:	18a4      	adds	r4, r4, r2
10003c02:	417d      	adcs	r5, r7
10003c04:	1924      	adds	r4, r4, r4
10003c06:	416d      	adcs	r5, r5
10003c08:	9a00      	ldr	r2, [sp, #0]
10003c0a:	b291      	uxth	r1, r2
10003c0c:	b2ac      	uxth	r4, r5
10003c0e:	4361      	muls	r1, r4
10003c10:	0c17      	lsrs	r7, r2, #16
10003c12:	437c      	muls	r4, r7
10003c14:	0c2b      	lsrs	r3, r5, #16
10003c16:	435f      	muls	r7, r3
10003c18:	b292      	uxth	r2, r2
10003c1a:	435a      	muls	r2, r3
10003c1c:	18a4      	adds	r4, r4, r2
10003c1e:	d302      	bcc.n	10003c26 <l21_1>
10003c20:	2201      	movs	r2, #1
10003c22:	0412      	lsls	r2, r2, #16
10003c24:	18bf      	adds	r7, r7, r2

10003c26 <l21_1>:
10003c26:	0422      	lsls	r2, r4, #16
10003c28:	0c23      	lsrs	r3, r4, #16
10003c2a:	1852      	adds	r2, r2, r1
10003c2c:	417b      	adcs	r3, r7
10003c2e:	9c01      	ldr	r4, [sp, #4]
10003c30:	436c      	muls	r4, r5
10003c32:	191b      	adds	r3, r3, r4
10003c34:	0e52      	lsrs	r2, r2, #25
10003c36:	01d9      	lsls	r1, r3, #7
10003c38:	430a      	orrs	r2, r1
10003c3a:	0144      	lsls	r4, r0, #5
10003c3c:	1aa0      	subs	r0, r4, r2
10003c3e:	b281      	uxth	r1, r0
10003c40:	b2b2      	uxth	r2, r6
10003c42:	4351      	muls	r1, r2
10003c44:	1403      	asrs	r3, r0, #16
10003c46:	435a      	muls	r2, r3
10003c48:	0c36      	lsrs	r6, r6, #16
10003c4a:	4373      	muls	r3, r6
10003c4c:	b287      	uxth	r7, r0
10003c4e:	4377      	muls	r7, r6
10003c50:	17d6      	asrs	r6, r2, #31
10003c52:	19d2      	adds	r2, r2, r7
10003c54:	2700      	movs	r7, #0
10003c56:	417e      	adcs	r6, r7
10003c58:	0436      	lsls	r6, r6, #16
10003c5a:	199b      	adds	r3, r3, r6
10003c5c:	0417      	lsls	r7, r2, #16
10003c5e:	0c16      	lsrs	r6, r2, #16
10003c60:	187f      	adds	r7, r7, r1
10003c62:	415e      	adcs	r6, r3
10003c64:	1673      	asrs	r3, r6, #25
10003c66:	18ed      	adds	r5, r5, r3
10003c68:	01f3      	lsls	r3, r6, #7
10003c6a:	2600      	movs	r6, #0
10003c6c:	3380      	adds	r3, #128	; 0x80
10003c6e:	4175      	adcs	r5, r6
10003c70:	0fa9      	lsrs	r1, r5, #30
10003c72:	d106      	bne.n	10003c82 <dd_0>
10003c74:	0064      	lsls	r4, r4, #1
10003c76:	0a69      	lsrs	r1, r5, #9
10003c78:	05e8      	lsls	r0, r5, #23
10003c7a:	0a5b      	lsrs	r3, r3, #9
10003c7c:	4318      	orrs	r0, r3
10003c7e:	d209      	bcs.n	10003c94 <dd_1>
10003c80:	e02f      	b.n	10003ce2 <dd_2>

10003c82 <dd_0>:
10003c82:	2204      	movs	r2, #4
10003c84:	4494      	add	ip, r2
10003c86:	3380      	adds	r3, #128	; 0x80
10003c88:	4175      	adcs	r5, r6
10003c8a:	0aa9      	lsrs	r1, r5, #10
10003c8c:	05a8      	lsls	r0, r5, #22
10003c8e:	0a9b      	lsrs	r3, r3, #10
10003c90:	4318      	orrs	r0, r3
10003c92:	d326      	bcc.n	10003ce2 <dd_2>

10003c94 <dd_1>:
10003c94:	4140      	adcs	r0, r0
10003c96:	4149      	adcs	r1, r1
10003c98:	0424      	lsls	r4, r4, #16
10003c9a:	9a00      	ldr	r2, [sp, #0]
10003c9c:	9b01      	ldr	r3, [sp, #4]
10003c9e:	000d      	movs	r5, r1
10003ca0:	4355      	muls	r5, r2
10003ca2:	1b64      	subs	r4, r4, r5
10003ca4:	4343      	muls	r3, r0
10003ca6:	1ae4      	subs	r4, r4, r3
10003ca8:	b295      	uxth	r5, r2
10003caa:	b286      	uxth	r6, r0
10003cac:	4375      	muls	r5, r6
10003cae:	0c17      	lsrs	r7, r2, #16
10003cb0:	437e      	muls	r6, r7
10003cb2:	0c03      	lsrs	r3, r0, #16
10003cb4:	435f      	muls	r7, r3
10003cb6:	b292      	uxth	r2, r2
10003cb8:	435a      	muls	r2, r3
10003cba:	18b6      	adds	r6, r6, r2
10003cbc:	d302      	bcc.n	10003cc4 <l23_1>
10003cbe:	2201      	movs	r2, #1
10003cc0:	0412      	lsls	r2, r2, #16
10003cc2:	18bf      	adds	r7, r7, r2

10003cc4 <l23_1>:
10003cc4:	0432      	lsls	r2, r6, #16
10003cc6:	0c33      	lsrs	r3, r6, #16
10003cc8:	1952      	adds	r2, r2, r5
10003cca:	417b      	adcs	r3, r7
10003ccc:	4252      	negs	r2, r2
10003cce:	419c      	sbcs	r4, r3
10003cd0:	2c00      	cmp	r4, #0
10003cd2:	d402      	bmi.n	10003cda <l23_1+0x16>
10003cd4:	2200      	movs	r2, #0
10003cd6:	3001      	adds	r0, #1
10003cd8:	4151      	adcs	r1, r2
10003cda:	0840      	lsrs	r0, r0, #1
10003cdc:	07ca      	lsls	r2, r1, #31
10003cde:	4310      	orrs	r0, r2
10003ce0:	0849      	lsrs	r1, r1, #1

10003ce2 <dd_2>:
10003ce2:	b002      	add	sp, #8
10003ce4:	4662      	mov	r2, ip
10003ce6:	07d7      	lsls	r7, r2, #31
10003ce8:	1092      	asrs	r2, r2, #2
10003cea:	4b08      	ldr	r3, [pc, #32]	; (10003d0c <dd_4+0x6>)
10003cec:	18d2      	adds	r2, r2, r3
10003cee:	4b08      	ldr	r3, [pc, #32]	; (10003d10 <dd_4+0xa>)
10003cf0:	429a      	cmp	r2, r3
10003cf2:	d203      	bcs.n	10003cfc <dd_3>
10003cf4:	0512      	lsls	r2, r2, #20
10003cf6:	1889      	adds	r1, r1, r2

10003cf8 <dd_5>:
10003cf8:	19c9      	adds	r1, r1, r7
10003cfa:	bdf0      	pop	{r4, r5, r6, r7, pc}

10003cfc <dd_3>:
10003cfc:	2000      	movs	r0, #0
10003cfe:	2a00      	cmp	r2, #0
10003d00:	dc01      	bgt.n	10003d06 <dd_4>
10003d02:	0039      	movs	r1, r7
10003d04:	bdf0      	pop	{r4, r5, r6, r7, pc}

10003d06 <dd_4>:
10003d06:	3301      	adds	r3, #1
10003d08:	0519      	lsls	r1, r3, #20
10003d0a:	e7f5      	b.n	10003cf8 <dd_5>
10003d0c:	000003fd 	.word	0x000003fd
10003d10:	000007fe 	.word	0x000007fe

10003d14 <dcordic_rot_step>:
10003d14:	4662      	mov	r2, ip
10003d16:	ca18      	ldmia	r2!, {r3, r4}
10003d18:	4694      	mov	ip, r2
10003d1a:	2900      	cmp	r1, #0
10003d1c:	da1a      	bge.n	10003d54 <dcordic_rot_step+0x40>
10003d1e:	18c0      	adds	r0, r0, r3
10003d20:	4161      	adcs	r1, r4
10003d22:	465b      	mov	r3, fp
10003d24:	413b      	asrs	r3, r7
10003d26:	465c      	mov	r4, fp
10003d28:	40b4      	lsls	r4, r6
10003d2a:	4652      	mov	r2, sl
10003d2c:	40fa      	lsrs	r2, r7
10003d2e:	4322      	orrs	r2, r4
10003d30:	4644      	mov	r4, r8
10003d32:	464d      	mov	r5, r9
10003d34:	4162      	adcs	r2, r4
10003d36:	416b      	adcs	r3, r5
10003d38:	4690      	mov	r8, r2
10003d3a:	4699      	mov	r9, r3
10003d3c:	462b      	mov	r3, r5
10003d3e:	40b3      	lsls	r3, r6
10003d40:	413d      	asrs	r5, r7
10003d42:	40fc      	lsrs	r4, r7
10003d44:	431c      	orrs	r4, r3
10003d46:	4652      	mov	r2, sl
10003d48:	465b      	mov	r3, fp
10003d4a:	41a2      	sbcs	r2, r4
10003d4c:	41ab      	sbcs	r3, r5
10003d4e:	4692      	mov	sl, r2
10003d50:	469b      	mov	fp, r3
10003d52:	4770      	bx	lr
10003d54:	1ac0      	subs	r0, r0, r3
10003d56:	41a1      	sbcs	r1, r4
10003d58:	464b      	mov	r3, r9
10003d5a:	413b      	asrs	r3, r7
10003d5c:	464c      	mov	r4, r9
10003d5e:	40b4      	lsls	r4, r6
10003d60:	4642      	mov	r2, r8
10003d62:	40fa      	lsrs	r2, r7
10003d64:	4322      	orrs	r2, r4
10003d66:	4654      	mov	r4, sl
10003d68:	465d      	mov	r5, fp
10003d6a:	4162      	adcs	r2, r4
10003d6c:	416b      	adcs	r3, r5
10003d6e:	4692      	mov	sl, r2
10003d70:	469b      	mov	fp, r3
10003d72:	462b      	mov	r3, r5
10003d74:	40b3      	lsls	r3, r6
10003d76:	413d      	asrs	r5, r7
10003d78:	40fc      	lsrs	r4, r7
10003d7a:	431c      	orrs	r4, r3
10003d7c:	4642      	mov	r2, r8
10003d7e:	464b      	mov	r3, r9
10003d80:	41a2      	sbcs	r2, r4
10003d82:	41ab      	sbcs	r3, r5
10003d84:	4690      	mov	r8, r2
10003d86:	4699      	mov	r9, r3
10003d88:	4770      	bx	lr

10003d8a <ret_dzero>:
10003d8a:	2000      	movs	r0, #0
10003d8c:	2100      	movs	r1, #0
10003d8e:	4770      	bx	lr

10003d90 <double2uint_shim>:
10003d90:	2200      	movs	r2, #0

10003d92 <double2ufix_shim>:
10003d92:	b500      	push	{lr}
10003d94:	3220      	adds	r2, #32
10003d96:	f000 f804 	bl	10003da2 <double2ufix64_shim>
10003d9a:	0008      	movs	r0, r1
10003d9c:	bd00      	pop	{pc}
	...

10003da0 <double2uint64_shim>:
10003da0:	2200      	movs	r2, #0

10003da2 <double2ufix64_shim>:
10003da2:	150b      	asrs	r3, r1, #20
10003da4:	d4f1      	bmi.n	10003d8a <ret_dzero>

10003da6 <d2fix>:
10003da6:	b510      	push	{r4, lr}
10003da8:	4694      	mov	ip, r2
10003daa:	f000 f82f 	bl	10003e0c <dunpacks>
10003dae:	1414      	asrs	r4, r2, #16
10003db0:	3401      	adds	r4, #1
10003db2:	da00      	bge.n	10003db6 <d2fix+0x10>
10003db4:	2100      	movs	r1, #0
10003db6:	17cb      	asrs	r3, r1, #31
10003db8:	4c13      	ldr	r4, [pc, #76]	; (10003e08 <d2fix_a+0x4c>)
10003dba:	4720      	bx	r4

10003dbc <d2fix_a>:
10003dbc:	4462      	add	r2, ip
10003dbe:	3a34      	subs	r2, #52	; 0x34
10003dc0:	d40c      	bmi.n	10003ddc <d2fix_a+0x20>
10003dc2:	2a0c      	cmp	r2, #12
10003dc4:	da07      	bge.n	10003dd6 <d2fix_a+0x1a>
10003dc6:	0004      	movs	r4, r0
10003dc8:	4091      	lsls	r1, r2
10003dca:	4090      	lsls	r0, r2
10003dcc:	4252      	negs	r2, r2
10003dce:	3220      	adds	r2, #32
10003dd0:	40d4      	lsrs	r4, r2
10003dd2:	4321      	orrs	r1, r4
10003dd4:	bd10      	pop	{r4, pc}
10003dd6:	43d8      	mvns	r0, r3
10003dd8:	43d9      	mvns	r1, r3
10003dda:	bd10      	pop	{r4, pc}
10003ddc:	3220      	adds	r2, #32
10003dde:	d407      	bmi.n	10003df0 <d2fix_a+0x34>
10003de0:	460c      	mov	r4, r1
10003de2:	4094      	lsls	r4, r2
10003de4:	4252      	negs	r2, r2
10003de6:	3220      	adds	r2, #32
10003de8:	4111      	asrs	r1, r2
10003dea:	40d0      	lsrs	r0, r2
10003dec:	4320      	orrs	r0, r4
10003dee:	bd10      	pop	{r4, pc}
10003df0:	0008      	movs	r0, r1
10003df2:	17c9      	asrs	r1, r1, #31
10003df4:	3220      	adds	r2, #32
10003df6:	d403      	bmi.n	10003e00 <d2fix_a+0x44>
10003df8:	4252      	negs	r2, r2
10003dfa:	3220      	adds	r2, #32
10003dfc:	4110      	asrs	r0, r2
10003dfe:	bd10      	pop	{r4, pc}
10003e00:	0018      	movs	r0, r3
10003e02:	0019      	movs	r1, r3
10003e04:	bd10      	pop	{r4, pc}
10003e06:	0000      	.short	0x0000
10003e08:	10003dbd 	.word	0x10003dbd

10003e0c <dunpacks>:
10003e0c:	0d0a      	lsrs	r2, r1, #20
10003e0e:	0fcc      	lsrs	r4, r1, #31
10003e10:	1e53      	subs	r3, r2, #1
10003e12:	051b      	lsls	r3, r3, #20
10003e14:	1ac9      	subs	r1, r1, r3
10003e16:	0552      	lsls	r2, r2, #21
10003e18:	d303      	bcc.n	10003e22 <l60_1>
10003e1a:	43c9      	mvns	r1, r1
10003e1c:	4240      	negs	r0, r0
10003e1e:	d300      	bcc.n	10003e22 <l60_1>
10003e20:	3101      	adds	r1, #1

10003e22 <l60_1>:
10003e22:	0d52      	lsrs	r2, r2, #21
10003e24:	d003      	beq.n	10003e2e <l60_2>
10003e26:	1c53      	adds	r3, r2, #1
10003e28:	0adb      	lsrs	r3, r3, #11
10003e2a:	d007      	beq.n	10003e3c <l60_3>
10003e2c:	1b12      	subs	r2, r2, r4

10003e2e <l60_2>:
10003e2e:	2000      	movs	r0, #0
10003e30:	0064      	lsls	r4, r4, #1
10003e32:	1c61      	adds	r1, r4, #1
10003e34:	0789      	lsls	r1, r1, #30
10003e36:	1289      	asrs	r1, r1, #10
10003e38:	3a80      	subs	r2, #128	; 0x80
10003e3a:	0312      	lsls	r2, r2, #12

10003e3c <l60_3>:
10003e3c:	4b01      	ldr	r3, [pc, #4]	; (10003e44 <l60_3+0x8>)
10003e3e:	1ad2      	subs	r2, r2, r3
10003e40:	4770      	bx	lr
10003e42:	0000      	.short	0x0000
10003e44:	000003ff 	.word	0x000003ff

10003e48 <__wrap___aeabi_frsub>:
10003e48:	4048      	eors	r0, r1
10003e4a:	4041      	eors	r1, r0
10003e4c:	4048      	eors	r0, r1

10003e4e <__wrap___aeabi_fsub>:
10003e4e:	4b06      	ldr	r3, [pc, #24]	; (10003e68 <__wrap___aeabi_fmul+0x8>)
10003e50:	685b      	ldr	r3, [r3, #4]
10003e52:	4718      	bx	r3

10003e54 <__wrap___aeabi_fadd>:
10003e54:	4b04      	ldr	r3, [pc, #16]	; (10003e68 <__wrap___aeabi_fmul+0x8>)
10003e56:	681b      	ldr	r3, [r3, #0]
10003e58:	4718      	bx	r3

10003e5a <__wrap___aeabi_fdiv>:
10003e5a:	4b03      	ldr	r3, [pc, #12]	; (10003e68 <__wrap___aeabi_fmul+0x8>)
10003e5c:	68db      	ldr	r3, [r3, #12]
10003e5e:	4718      	bx	r3

10003e60 <__wrap___aeabi_fmul>:
10003e60:	4b01      	ldr	r3, [pc, #4]	; (10003e68 <__wrap___aeabi_fmul+0x8>)
10003e62:	689b      	ldr	r3, [r3, #8]
10003e64:	4718      	bx	r3
10003e66:	0000      	.short	0x0000
10003e68:	20001400 	.word	0x20001400

10003e6c <__wrap___aeabi_ui2f>:
10003e6c:	1a49      	subs	r1, r1, r1
10003e6e:	2800      	cmp	r0, #0
10003e70:	d108      	bne.n	10003e84 <__aeabi_i2f_main>
10003e72:	4608      	mov	r0, r1
10003e74:	4770      	bx	lr
	...

10003e78 <__wrap___aeabi_i2f>:
10003e78:	0fc1      	lsrs	r1, r0, #31
10003e7a:	07c9      	lsls	r1, r1, #31
10003e7c:	d500      	bpl.n	10003e80 <__wrap___aeabi_i2f+0x8>
10003e7e:	4240      	negs	r0, r0
10003e80:	2800      	cmp	r0, #0
10003e82:	d017      	beq.n	10003eb4 <__aeabi_i2f_main+0x30>

10003e84 <__aeabi_i2f_main>:
10003e84:	46f4      	mov	ip, lr
10003e86:	b403      	push	{r0, r1}
10003e88:	4b0b      	ldr	r3, [pc, #44]	; (10003eb8 <__aeabi_i2f_main+0x34>)
10003e8a:	681b      	ldr	r3, [r3, #0]
10003e8c:	4798      	blx	r3
10003e8e:	bc06      	pop	{r1, r2}
10003e90:	4081      	lsls	r1, r0
10003e92:	389e      	subs	r0, #158	; 0x9e
10003e94:	4240      	negs	r0, r0
10003e96:	3180      	adds	r1, #128	; 0x80
10003e98:	d207      	bcs.n	10003eaa <__aeabi_i2f_main+0x26>
10003e9a:	060b      	lsls	r3, r1, #24
10003e9c:	d007      	beq.n	10003eae <__aeabi_i2f_main+0x2a>
10003e9e:	0049      	lsls	r1, r1, #1
10003ea0:	0a49      	lsrs	r1, r1, #9
10003ea2:	05c0      	lsls	r0, r0, #23
10003ea4:	4310      	orrs	r0, r2
10003ea6:	4308      	orrs	r0, r1
10003ea8:	4760      	bx	ip
10003eaa:	3001      	adds	r0, #1
10003eac:	e7f8      	b.n	10003ea0 <__aeabi_i2f_main+0x1c>
10003eae:	0a49      	lsrs	r1, r1, #9
10003eb0:	0289      	lsls	r1, r1, #10
10003eb2:	e7f5      	b.n	10003ea0 <__aeabi_i2f_main+0x1c>
10003eb4:	4770      	bx	lr
10003eb6:	0000      	.short	0x0000
10003eb8:	20001500 	.word	0x20001500

10003ebc <__wrap___aeabi_f2d>:
10003ebc:	4b03      	ldr	r3, [pc, #12]	; (10003ecc <__wrap___aeabi_f2d+0x10>)
10003ebe:	6fdb      	ldr	r3, [r3, #124]	; 0x7c
10003ec0:	46fc      	mov	ip, pc
10003ec2:	4718      	bx	r3
10003ec4:	3f61df7c 	.word	0x3f61df7c
10003ec8:	00001000 	.word	0x00001000
10003ecc:	20001400 	.word	0x20001400

10003ed0 <__aeabi_float_init>:
10003ed0:	2313      	movs	r3, #19
10003ed2:	b510      	push	{r4, lr}
10003ed4:	4812      	ldr	r0, [pc, #72]	; (10003f20 <__aeabi_float_init+0x50>)
10003ed6:	781c      	ldrb	r4, [r3, #0]
10003ed8:	f7ff f90a 	bl	100030f0 <rom_data_lookup>
10003edc:	0001      	movs	r1, r0
10003ede:	2c01      	cmp	r4, #1
10003ee0:	d00a      	beq.n	10003ef8 <__aeabi_float_init+0x28>
10003ee2:	dd03      	ble.n	10003eec <__aeabi_float_init+0x1c>
10003ee4:	2280      	movs	r2, #128	; 0x80
10003ee6:	480f      	ldr	r0, [pc, #60]	; (10003f24 <__aeabi_float_init+0x54>)
10003ee8:	f000 f868 	bl	10003fbc <__wrap___aeabi_memcpy>
10003eec:	480e      	ldr	r0, [pc, #56]	; (10003f28 <__aeabi_float_init+0x58>)
10003eee:	f7ff f8f7 	bl	100030e0 <rom_func_lookup>
10003ef2:	4b0e      	ldr	r3, [pc, #56]	; (10003f2c <__aeabi_float_init+0x5c>)
10003ef4:	6018      	str	r0, [r3, #0]
10003ef6:	bd10      	pop	{r4, pc}
10003ef8:	4c0a      	ldr	r4, [pc, #40]	; (10003f24 <__aeabi_float_init+0x54>)
10003efa:	2254      	movs	r2, #84	; 0x54
10003efc:	0020      	movs	r0, r4
10003efe:	f000 f85d 	bl	10003fbc <__wrap___aeabi_memcpy>
10003f02:	4b0b      	ldr	r3, [pc, #44]	; (10003f30 <__aeabi_float_init+0x60>)
10003f04:	6563      	str	r3, [r4, #84]	; 0x54
10003f06:	65a3      	str	r3, [r4, #88]	; 0x58
10003f08:	65e3      	str	r3, [r4, #92]	; 0x5c
10003f0a:	6623      	str	r3, [r4, #96]	; 0x60
10003f0c:	6663      	str	r3, [r4, #100]	; 0x64
10003f0e:	66a3      	str	r3, [r4, #104]	; 0x68
10003f10:	66e3      	str	r3, [r4, #108]	; 0x6c
10003f12:	6723      	str	r3, [r4, #112]	; 0x70
10003f14:	6763      	str	r3, [r4, #116]	; 0x74
10003f16:	67a3      	str	r3, [r4, #120]	; 0x78
10003f18:	67e3      	str	r3, [r4, #124]	; 0x7c
10003f1a:	6223      	str	r3, [r4, #32]
10003f1c:	61e3      	str	r3, [r4, #28]
10003f1e:	e7e5      	b.n	10003eec <__aeabi_float_init+0x1c>
10003f20:	00004653 	.word	0x00004653
10003f24:	20001400 	.word	0x20001400
10003f28:	0000334c 	.word	0x0000334c
10003f2c:	20001500 	.word	0x20001500
10003f30:	10003f35 	.word	0x10003f35

10003f34 <float_table_shim_on_use_helper>:
10003f34:	b507      	push	{r0, r1, r2, lr}
10003f36:	4660      	mov	r0, ip
10003f38:	8801      	ldrh	r1, [r0, #0]
10003f3a:	0a0a      	lsrs	r2, r1, #8
10003f3c:	3002      	adds	r0, #2
10003f3e:	2adf      	cmp	r2, #223	; 0xdf
10003f40:	d1fa      	bne.n	10003f38 <float_table_shim_on_use_helper+0x4>
10003f42:	b2c9      	uxtb	r1, r1
10003f44:	0882      	lsrs	r2, r0, #2
10003f46:	d304      	bcc.n	10003f52 <float_table_shim_on_use_helper+0x1e>
10003f48:	8802      	ldrh	r2, [r0, #0]
10003f4a:	8840      	ldrh	r0, [r0, #2]
10003f4c:	0400      	lsls	r0, r0, #16
10003f4e:	4310      	orrs	r0, r2
10003f50:	e000      	b.n	10003f54 <float_table_shim_on_use_helper+0x20>
10003f52:	6800      	ldr	r0, [r0, #0]
10003f54:	4a01      	ldr	r2, [pc, #4]	; (10003f5c <float_table_shim_on_use_helper+0x28>)
10003f56:	5050      	str	r0, [r2, r1]
10003f58:	9003      	str	r0, [sp, #12]
10003f5a:	bd07      	pop	{r0, r1, r2, pc}
10003f5c:	20001400 	.word	0x20001400

10003f60 <float2double_shim>:
10003f60:	0fc3      	lsrs	r3, r0, #31
10003f62:	07db      	lsls	r3, r3, #31
10003f64:	0041      	lsls	r1, r0, #1
10003f66:	0e0a      	lsrs	r2, r1, #24
10003f68:	d007      	beq.n	10003f7a <float2double_shim+0x1a>
10003f6a:	2aff      	cmp	r2, #255	; 0xff
10003f6c:	d008      	beq.n	10003f80 <float2double_shim+0x20>
10003f6e:	0909      	lsrs	r1, r1, #4
10003f70:	4a05      	ldr	r2, [pc, #20]	; (10003f88 <float2double_shim+0x28>)
10003f72:	1889      	adds	r1, r1, r2
10003f74:	4319      	orrs	r1, r3
10003f76:	0740      	lsls	r0, r0, #29
10003f78:	4770      	bx	lr
10003f7a:	0019      	movs	r1, r3
10003f7c:	2000      	movs	r0, #0
10003f7e:	4770      	bx	lr
10003f80:	4902      	ldr	r1, [pc, #8]	; (10003f8c <float2double_shim+0x2c>)
10003f82:	18c9      	adds	r1, r1, r3
10003f84:	e7fa      	b.n	10003f7c <float2double_shim+0x1c>
10003f86:	0000      	.short	0x0000
10003f88:	38000000 	.word	0x38000000
10003f8c:	7ff00000 	.word	0x7ff00000

10003f90 <__wrap_malloc>:
10003f90:	b510      	push	{r4, lr}
10003f92:	f000 fb45 	bl	10004620 <malloc>
10003f96:	bd10      	pop	{r4, pc}

10003f98 <__wrap_calloc>:
10003f98:	b510      	push	{r4, lr}
10003f9a:	f000 fafd 	bl	10004598 <calloc>
10003f9e:	bd10      	pop	{r4, pc}

10003fa0 <__aeabi_mem_init>:
10003fa0:	4801      	ldr	r0, [pc, #4]	; (10003fa8 <__aeabi_mem_init+0x8>)
10003fa2:	2104      	movs	r1, #4
10003fa4:	4b01      	ldr	r3, [pc, #4]	; (10003fac <__aeabi_mem_init+0xc>)
10003fa6:	4718      	bx	r3
10003fa8:	200001f0 	.word	0x200001f0
10003fac:	10003101 	.word	0x10003101

10003fb0 <__wrap_memset>:
10003fb0:	4b01      	ldr	r3, [pc, #4]	; (10003fb8 <__wrap_memset+0x8>)
10003fb2:	681b      	ldr	r3, [r3, #0]
10003fb4:	4718      	bx	r3
10003fb6:	0000      	.short	0x0000
10003fb8:	200001f0 	.word	0x200001f0

10003fbc <__wrap___aeabi_memcpy>:
10003fbc:	4b01      	ldr	r3, [pc, #4]	; (10003fc4 <__wrap___aeabi_memcpy+0x8>)
10003fbe:	685b      	ldr	r3, [r3, #4]
10003fc0:	4718      	bx	r3
10003fc2:	0000      	.short	0x0000
10003fc4:	200001f0 	.word	0x200001f0

10003fc8 <stdio_out_chars_crlf.part.0>:
10003fc8:	b5f8      	push	{r3, r4, r5, r6, r7, lr}
10003fca:	4647      	mov	r7, r8
10003fcc:	46ce      	mov	lr, r9
10003fce:	000d      	movs	r5, r1
10003fd0:	b580      	push	{r7, lr}
10003fd2:	0016      	movs	r6, r2
10003fd4:	0007      	movs	r7, r0
10003fd6:	2a00      	cmp	r2, #0
10003fd8:	dd20      	ble.n	1000401c <stdio_out_chars_crlf.part.0+0x54>
10003fda:	1e4b      	subs	r3, r1, #1
10003fdc:	4698      	mov	r8, r3
10003fde:	4b1a      	ldr	r3, [pc, #104]	; (10004048 <stdio_out_chars_crlf.part.0+0x80>)
10003fe0:	2400      	movs	r4, #0
10003fe2:	2000      	movs	r0, #0
10003fe4:	4699      	mov	r9, r3
10003fe6:	2c00      	cmp	r4, #0
10003fe8:	d02b      	beq.n	10004042 <stdio_out_chars_crlf.part.0+0x7a>
10003fea:	4643      	mov	r3, r8
10003fec:	5d1b      	ldrb	r3, [r3, r4]
10003fee:	3b0d      	subs	r3, #13
10003ff0:	425a      	negs	r2, r3
10003ff2:	4153      	adcs	r3, r2
10003ff4:	b2db      	uxtb	r3, r3
10003ff6:	5d2a      	ldrb	r2, [r5, r4]
10003ff8:	2a0a      	cmp	r2, #10
10003ffa:	d013      	beq.n	10004024 <stdio_out_chars_crlf.part.0+0x5c>
10003ffc:	3401      	adds	r4, #1
10003ffe:	42a6      	cmp	r6, r4
10004000:	dcf1      	bgt.n	10003fe6 <stdio_out_chars_crlf.part.0+0x1e>
10004002:	4286      	cmp	r6, r0
10004004:	dd03      	ble.n	1000400e <stdio_out_chars_crlf.part.0+0x46>
10004006:	1a31      	subs	r1, r6, r0
10004008:	683b      	ldr	r3, [r7, #0]
1000400a:	1828      	adds	r0, r5, r0
1000400c:	4798      	blx	r3
1000400e:	19ad      	adds	r5, r5, r6
10004010:	3d01      	subs	r5, #1
10004012:	782b      	ldrb	r3, [r5, #0]
10004014:	3b0d      	subs	r3, #13
10004016:	425a      	negs	r2, r3
10004018:	4153      	adcs	r3, r2
1000401a:	743b      	strb	r3, [r7, #16]
1000401c:	bc0c      	pop	{r2, r3}
1000401e:	4690      	mov	r8, r2
10004020:	4699      	mov	r9, r3
10004022:	bdf8      	pop	{r3, r4, r5, r6, r7, pc}
10004024:	2b00      	cmp	r3, #0
10004026:	d1e9      	bne.n	10003ffc <stdio_out_chars_crlf.part.0+0x34>
10004028:	42a0      	cmp	r0, r4
1000402a:	da03      	bge.n	10004034 <stdio_out_chars_crlf.part.0+0x6c>
1000402c:	1a21      	subs	r1, r4, r0
1000402e:	683b      	ldr	r3, [r7, #0]
10004030:	1828      	adds	r0, r5, r0
10004032:	4798      	blx	r3
10004034:	4648      	mov	r0, r9
10004036:	2102      	movs	r1, #2
10004038:	683b      	ldr	r3, [r7, #0]
1000403a:	3401      	adds	r4, #1
1000403c:	4798      	blx	r3
1000403e:	0020      	movs	r0, r4
10004040:	e7dd      	b.n	10003ffe <stdio_out_chars_crlf.part.0+0x36>
10004042:	7c3b      	ldrb	r3, [r7, #16]
10004044:	e7d7      	b.n	10003ff6 <stdio_out_chars_crlf.part.0+0x2e>
10004046:	46c0      	nop			; (mov r8, r8)
10004048:	10005cf4 	.word	0x10005cf4

1000404c <stdio_buffered_printer>:
1000404c:	b5f8      	push	{r3, r4, r5, r6, r7, lr}
1000404e:	4647      	mov	r7, r8
10004050:	46ce      	mov	lr, r9
10004052:	000c      	movs	r4, r1
10004054:	6809      	ldr	r1, [r1, #0]
10004056:	b580      	push	{r7, lr}
10004058:	0007      	movs	r7, r0
1000405a:	2980      	cmp	r1, #128	; 0x80
1000405c:	d007      	beq.n	1000406e <stdio_buffered_printer+0x22>
1000405e:	1c4b      	adds	r3, r1, #1
10004060:	6023      	str	r3, [r4, #0]
10004062:	1864      	adds	r4, r4, r1
10004064:	7127      	strb	r7, [r4, #4]
10004066:	bc0c      	pop	{r2, r3}
10004068:	4690      	mov	r8, r2
1000406a:	4699      	mov	r9, r3
1000406c:	bdf8      	pop	{r3, r4, r5, r6, r7, pc}
1000406e:	4b13      	ldr	r3, [pc, #76]	; (100040bc <stdio_buffered_printer+0x70>)
10004070:	681d      	ldr	r5, [r3, #0]
10004072:	2d00      	cmp	r5, #0
10004074:	d01b      	beq.n	100040ae <stdio_buffered_printer+0x62>
10004076:	4b12      	ldr	r3, [pc, #72]	; (100040c0 <stdio_buffered_printer+0x74>)
10004078:	4698      	mov	r8, r3
1000407a:	1d23      	adds	r3, r4, #4
1000407c:	4699      	mov	r9, r3
1000407e:	e002      	b.n	10004086 <stdio_buffered_printer+0x3a>
10004080:	68ed      	ldr	r5, [r5, #12]
10004082:	2d00      	cmp	r5, #0
10004084:	d013      	beq.n	100040ae <stdio_buffered_printer+0x62>
10004086:	682e      	ldr	r6, [r5, #0]
10004088:	2e00      	cmp	r6, #0
1000408a:	d0f9      	beq.n	10004080 <stdio_buffered_printer+0x34>
1000408c:	4643      	mov	r3, r8
1000408e:	681b      	ldr	r3, [r3, #0]
10004090:	2b00      	cmp	r3, #0
10004092:	d001      	beq.n	10004098 <stdio_buffered_printer+0x4c>
10004094:	429d      	cmp	r5, r3
10004096:	d1f3      	bne.n	10004080 <stdio_buffered_printer+0x34>
10004098:	7c6b      	ldrb	r3, [r5, #17]
1000409a:	6822      	ldr	r2, [r4, #0]
1000409c:	2b00      	cmp	r3, #0
1000409e:	d009      	beq.n	100040b4 <stdio_buffered_printer+0x68>
100040a0:	0028      	movs	r0, r5
100040a2:	4649      	mov	r1, r9
100040a4:	f7ff ff90 	bl	10003fc8 <stdio_out_chars_crlf.part.0>
100040a8:	68ed      	ldr	r5, [r5, #12]
100040aa:	2d00      	cmp	r5, #0
100040ac:	d1eb      	bne.n	10004086 <stdio_buffered_printer+0x3a>
100040ae:	2301      	movs	r3, #1
100040b0:	2100      	movs	r1, #0
100040b2:	e7d5      	b.n	10004060 <stdio_buffered_printer+0x14>
100040b4:	0011      	movs	r1, r2
100040b6:	4648      	mov	r0, r9
100040b8:	47b0      	blx	r6
100040ba:	e7e1      	b.n	10004080 <stdio_buffered_printer+0x34>
100040bc:	20000af8 	.word	0x20000af8
100040c0:	20000afc 	.word	0x20000afc

100040c4 <stdio_put_string>:
100040c4:	b5f0      	push	{r4, r5, r6, r7, lr}
100040c6:	4657      	mov	r7, sl
100040c8:	4645      	mov	r5, r8
100040ca:	46de      	mov	lr, fp
100040cc:	464e      	mov	r6, r9
100040ce:	23d0      	movs	r3, #208	; 0xd0
100040d0:	b5e0      	push	{r5, r6, r7, lr}
100040d2:	061b      	lsls	r3, r3, #24
100040d4:	681c      	ldr	r4, [r3, #0]
100040d6:	4b37      	ldr	r3, [pc, #220]	; (100041b4 <stdio_put_string+0xf0>)
100040d8:	b083      	sub	sp, #12
100040da:	0007      	movs	r7, r0
100040dc:	000d      	movs	r5, r1
100040de:	0018      	movs	r0, r3
100040e0:	a901      	add	r1, sp, #4
100040e2:	4690      	mov	r8, r2
100040e4:	469a      	mov	sl, r3
100040e6:	f001 fb5f 	bl	100057a8 <__mutex_try_enter_veneer>
100040ea:	4681      	mov	r9, r0
100040ec:	2800      	cmp	r0, #0
100040ee:	d107      	bne.n	10004100 <stdio_put_string+0x3c>
100040f0:	9b01      	ldr	r3, [sp, #4]
100040f2:	429c      	cmp	r4, r3
100040f4:	d004      	beq.n	10004100 <stdio_put_string+0x3c>
100040f6:	4650      	mov	r0, sl
100040f8:	f001 fb5e 	bl	100057b8 <__mutex_enter_blocking_veneer>
100040fc:	2301      	movs	r3, #1
100040fe:	4699      	mov	r9, r3
10004100:	1c6b      	adds	r3, r5, #1
10004102:	d103      	bne.n	1000410c <stdio_put_string+0x48>
10004104:	0038      	movs	r0, r7
10004106:	f000 fd77 	bl	10004bf8 <strlen>
1000410a:	0005      	movs	r5, r0
1000410c:	4b2a      	ldr	r3, [pc, #168]	; (100041b8 <stdio_put_string+0xf4>)
1000410e:	681c      	ldr	r4, [r3, #0]
10004110:	2c00      	cmp	r4, #0
10004112:	d02f      	beq.n	10004174 <stdio_put_string+0xb0>
10004114:	230a      	movs	r3, #10
10004116:	4e29      	ldr	r6, [pc, #164]	; (100041bc <stdio_put_string+0xf8>)
10004118:	469b      	mov	fp, r3
1000411a:	e002      	b.n	10004122 <stdio_put_string+0x5e>
1000411c:	68e4      	ldr	r4, [r4, #12]
1000411e:	2c00      	cmp	r4, #0
10004120:	d028      	beq.n	10004174 <stdio_put_string+0xb0>
10004122:	6822      	ldr	r2, [r4, #0]
10004124:	2a00      	cmp	r2, #0
10004126:	d0f9      	beq.n	1000411c <stdio_put_string+0x58>
10004128:	6833      	ldr	r3, [r6, #0]
1000412a:	2b00      	cmp	r3, #0
1000412c:	d001      	beq.n	10004132 <stdio_put_string+0x6e>
1000412e:	42a3      	cmp	r3, r4
10004130:	d1f4      	bne.n	1000411c <stdio_put_string+0x58>
10004132:	7c63      	ldrb	r3, [r4, #17]
10004134:	2b00      	cmp	r3, #0
10004136:	d02a      	beq.n	1000418e <stdio_put_string+0xca>
10004138:	002a      	movs	r2, r5
1000413a:	0039      	movs	r1, r7
1000413c:	0020      	movs	r0, r4
1000413e:	f7ff ff43 	bl	10003fc8 <stdio_out_chars_crlf.part.0>
10004142:	4643      	mov	r3, r8
10004144:	2b00      	cmp	r3, #0
10004146:	d0e9      	beq.n	1000411c <stdio_put_string+0x58>
10004148:	466b      	mov	r3, sp
1000414a:	465a      	mov	r2, fp
1000414c:	711a      	strb	r2, [r3, #4]
1000414e:	7c63      	ldrb	r3, [r4, #17]
10004150:	2b00      	cmp	r3, #0
10004152:	d020      	beq.n	10004196 <stdio_put_string+0xd2>
10004154:	7c23      	ldrb	r3, [r4, #16]
10004156:	2b00      	cmp	r3, #0
10004158:	d026      	beq.n	100041a8 <stdio_put_string+0xe4>
1000415a:	2101      	movs	r1, #1
1000415c:	6823      	ldr	r3, [r4, #0]
1000415e:	a801      	add	r0, sp, #4
10004160:	4798      	blx	r3
10004162:	466b      	mov	r3, sp
10004164:	791b      	ldrb	r3, [r3, #4]
10004166:	3b0d      	subs	r3, #13
10004168:	425a      	negs	r2, r3
1000416a:	4153      	adcs	r3, r2
1000416c:	7423      	strb	r3, [r4, #16]
1000416e:	68e4      	ldr	r4, [r4, #12]
10004170:	2c00      	cmp	r4, #0
10004172:	d1d6      	bne.n	10004122 <stdio_put_string+0x5e>
10004174:	464b      	mov	r3, r9
10004176:	2b00      	cmp	r3, #0
10004178:	d112      	bne.n	100041a0 <stdio_put_string+0xdc>
1000417a:	1e68      	subs	r0, r5, #1
1000417c:	4185      	sbcs	r5, r0
1000417e:	b2e8      	uxtb	r0, r5
10004180:	b003      	add	sp, #12
10004182:	bc3c      	pop	{r2, r3, r4, r5}
10004184:	4690      	mov	r8, r2
10004186:	4699      	mov	r9, r3
10004188:	46a2      	mov	sl, r4
1000418a:	46ab      	mov	fp, r5
1000418c:	bdf0      	pop	{r4, r5, r6, r7, pc}
1000418e:	0029      	movs	r1, r5
10004190:	0038      	movs	r0, r7
10004192:	4790      	blx	r2
10004194:	e7d5      	b.n	10004142 <stdio_put_string+0x7e>
10004196:	2101      	movs	r1, #1
10004198:	6823      	ldr	r3, [r4, #0]
1000419a:	a801      	add	r0, sp, #4
1000419c:	4798      	blx	r3
1000419e:	e7bd      	b.n	1000411c <stdio_put_string+0x58>
100041a0:	4650      	mov	r0, sl
100041a2:	f001 fae9 	bl	10005778 <__mutex_exit_veneer>
100041a6:	e7e8      	b.n	1000417a <stdio_put_string+0xb6>
100041a8:	2102      	movs	r1, #2
100041aa:	4805      	ldr	r0, [pc, #20]	; (100041c0 <stdio_put_string+0xfc>)
100041ac:	6823      	ldr	r3, [r4, #0]
100041ae:	4798      	blx	r3
100041b0:	e7d7      	b.n	10004162 <stdio_put_string+0x9e>
100041b2:	46c0      	nop			; (mov r8, r8)
100041b4:	20000a50 	.word	0x20000a50
100041b8:	20000af8 	.word	0x20000af8
100041bc:	20000afc 	.word	0x20000afc
100041c0:	10005cf4 	.word	0x10005cf4

100041c4 <__wrap_putchar>:
100041c4:	b510      	push	{r4, lr}
100041c6:	b082      	sub	sp, #8
100041c8:	466b      	mov	r3, sp
100041ca:	0004      	movs	r4, r0
100041cc:	2200      	movs	r2, #0
100041ce:	1dd8      	adds	r0, r3, #7
100041d0:	2101      	movs	r1, #1
100041d2:	7004      	strb	r4, [r0, #0]
100041d4:	f7ff ff76 	bl	100040c4 <stdio_put_string>
100041d8:	0020      	movs	r0, r4
100041da:	b002      	add	sp, #8
100041dc:	bd10      	pop	{r4, pc}
100041de:	46c0      	nop			; (mov r8, r8)

100041e0 <__wrap_puts>:
100041e0:	b570      	push	{r4, r5, r6, lr}
100041e2:	0004      	movs	r4, r0
100041e4:	f000 fd08 	bl	10004bf8 <strlen>
100041e8:	2201      	movs	r2, #1
100041ea:	0001      	movs	r1, r0
100041ec:	0005      	movs	r5, r0
100041ee:	0020      	movs	r0, r4
100041f0:	f7ff ff68 	bl	100040c4 <stdio_put_string>
100041f4:	4b08      	ldr	r3, [pc, #32]	; (10004218 <__wrap_puts+0x38>)
100041f6:	681c      	ldr	r4, [r3, #0]
100041f8:	2c00      	cmp	r4, #0
100041fa:	d006      	beq.n	1000420a <__wrap_puts+0x2a>
100041fc:	6863      	ldr	r3, [r4, #4]
100041fe:	2b00      	cmp	r3, #0
10004200:	d005      	beq.n	1000420e <__wrap_puts+0x2e>
10004202:	4798      	blx	r3
10004204:	68e4      	ldr	r4, [r4, #12]
10004206:	2c00      	cmp	r4, #0
10004208:	d1f8      	bne.n	100041fc <__wrap_puts+0x1c>
1000420a:	0028      	movs	r0, r5
1000420c:	bd70      	pop	{r4, r5, r6, pc}
1000420e:	68e4      	ldr	r4, [r4, #12]
10004210:	2c00      	cmp	r4, #0
10004212:	d1f3      	bne.n	100041fc <__wrap_puts+0x1c>
10004214:	e7f9      	b.n	1000420a <__wrap_puts+0x2a>
10004216:	46c0      	nop			; (mov r8, r8)
10004218:	20000af8 	.word	0x20000af8

1000421c <_read>:
1000421c:	b5f0      	push	{r4, r5, r6, r7, lr}
1000421e:	46ce      	mov	lr, r9
10004220:	4647      	mov	r7, r8
10004222:	b580      	push	{r7, lr}
10004224:	000d      	movs	r5, r1
10004226:	0016      	movs	r6, r2
10004228:	b083      	sub	sp, #12
1000422a:	2800      	cmp	r0, #0
1000422c:	d12c      	bne.n	10004288 <_read+0x6c>
1000422e:	4b1b      	ldr	r3, [pc, #108]	; (1000429c <_read+0x80>)
10004230:	4f1b      	ldr	r7, [pc, #108]	; (100042a0 <_read+0x84>)
10004232:	681a      	ldr	r2, [r3, #0]
10004234:	685b      	ldr	r3, [r3, #4]
10004236:	9201      	str	r2, [sp, #4]
10004238:	9300      	str	r3, [sp, #0]
1000423a:	4b1a      	ldr	r3, [pc, #104]	; (100042a4 <_read+0x88>)
1000423c:	4699      	mov	r9, r3
1000423e:	4b1a      	ldr	r3, [pc, #104]	; (100042a8 <_read+0x8c>)
10004240:	4698      	mov	r8, r3
10004242:	464b      	mov	r3, r9
10004244:	681c      	ldr	r4, [r3, #0]
10004246:	2c00      	cmp	r4, #0
10004248:	d103      	bne.n	10004252 <_read+0x36>
1000424a:	e015      	b.n	10004278 <_read+0x5c>
1000424c:	68e4      	ldr	r4, [r4, #12]
1000424e:	2c00      	cmp	r4, #0
10004250:	d012      	beq.n	10004278 <_read+0x5c>
10004252:	4643      	mov	r3, r8
10004254:	681b      	ldr	r3, [r3, #0]
10004256:	2b00      	cmp	r3, #0
10004258:	d001      	beq.n	1000425e <_read+0x42>
1000425a:	42a3      	cmp	r3, r4
1000425c:	d1f6      	bne.n	1000424c <_read+0x30>
1000425e:	68a3      	ldr	r3, [r4, #8]
10004260:	2b00      	cmp	r3, #0
10004262:	d0f3      	beq.n	1000424c <_read+0x30>
10004264:	0031      	movs	r1, r6
10004266:	0028      	movs	r0, r5
10004268:	4798      	blx	r3
1000426a:	2800      	cmp	r0, #0
1000426c:	ddee      	ble.n	1000424c <_read+0x30>
1000426e:	b003      	add	sp, #12
10004270:	bc0c      	pop	{r2, r3}
10004272:	4690      	mov	r8, r2
10004274:	4699      	mov	r9, r3
10004276:	bdf0      	pop	{r4, r5, r6, r7, pc}
10004278:	6a7b      	ldr	r3, [r7, #36]	; 0x24
1000427a:	9a00      	ldr	r2, [sp, #0]
1000427c:	429a      	cmp	r2, r3
1000427e:	d8e0      	bhi.n	10004242 <_read+0x26>
10004280:	6aba      	ldr	r2, [r7, #40]	; 0x28
10004282:	9901      	ldr	r1, [sp, #4]
10004284:	428a      	cmp	r2, r1
10004286:	d302      	bcc.n	1000428e <_read+0x72>
10004288:	2001      	movs	r0, #1
1000428a:	4240      	negs	r0, r0
1000428c:	e7ef      	b.n	1000426e <_read+0x52>
1000428e:	9a00      	ldr	r2, [sp, #0]
10004290:	429a      	cmp	r2, r3
10004292:	d0d6      	beq.n	10004242 <_read+0x26>
10004294:	2001      	movs	r0, #1
10004296:	4240      	negs	r0, r0
10004298:	e7e9      	b.n	1000426e <_read+0x52>
1000429a:	46c0      	nop			; (mov r8, r8)
1000429c:	100059c8 	.word	0x100059c8
100042a0:	40054000 	.word	0x40054000
100042a4:	20000af8 	.word	0x20000af8
100042a8:	20000afc 	.word	0x20000afc

100042ac <_write>:
100042ac:	b510      	push	{r4, lr}
100042ae:	000b      	movs	r3, r1
100042b0:	0014      	movs	r4, r2
100042b2:	2801      	cmp	r0, #1
100042b4:	d106      	bne.n	100042c4 <_write+0x18>
100042b6:	2200      	movs	r2, #0
100042b8:	0021      	movs	r1, r4
100042ba:	0018      	movs	r0, r3
100042bc:	f7ff ff02 	bl	100040c4 <stdio_put_string>
100042c0:	0020      	movs	r0, r4
100042c2:	bd10      	pop	{r4, pc}
100042c4:	2001      	movs	r0, #1
100042c6:	4240      	negs	r0, r0
100042c8:	e7fb      	b.n	100042c2 <_write+0x16>
100042ca:	46c0      	nop			; (mov r8, r8)

100042cc <stdio_set_driver_enabled>:
100042cc:	4a0d      	ldr	r2, [pc, #52]	; (10004304 <stdio_set_driver_enabled+0x38>)
100042ce:	6813      	ldr	r3, [r2, #0]
100042d0:	2b00      	cmp	r3, #0
100042d2:	d013      	beq.n	100042fc <stdio_set_driver_enabled+0x30>
100042d4:	4283      	cmp	r3, r0
100042d6:	d102      	bne.n	100042de <stdio_set_driver_enabled+0x12>
100042d8:	e009      	b.n	100042ee <stdio_set_driver_enabled+0x22>
100042da:	4298      	cmp	r0, r3
100042dc:	d008      	beq.n	100042f0 <stdio_set_driver_enabled+0x24>
100042de:	001a      	movs	r2, r3
100042e0:	68db      	ldr	r3, [r3, #12]
100042e2:	2b00      	cmp	r3, #0
100042e4:	d1f9      	bne.n	100042da <stdio_set_driver_enabled+0xe>
100042e6:	2900      	cmp	r1, #0
100042e8:	d000      	beq.n	100042ec <stdio_set_driver_enabled+0x20>
100042ea:	60d0      	str	r0, [r2, #12]
100042ec:	4770      	bx	lr
100042ee:	001a      	movs	r2, r3
100042f0:	2900      	cmp	r1, #0
100042f2:	d1fb      	bne.n	100042ec <stdio_set_driver_enabled+0x20>
100042f4:	68db      	ldr	r3, [r3, #12]
100042f6:	60d3      	str	r3, [r2, #12]
100042f8:	60c1      	str	r1, [r0, #12]
100042fa:	e7f7      	b.n	100042ec <stdio_set_driver_enabled+0x20>
100042fc:	2900      	cmp	r1, #0
100042fe:	d0f5      	beq.n	100042ec <stdio_set_driver_enabled+0x20>
10004300:	6010      	str	r0, [r2, #0]
10004302:	e7f3      	b.n	100042ec <stdio_set_driver_enabled+0x20>
10004304:	20000af8 	.word	0x20000af8

10004308 <__wrap_vprintf>:
10004308:	b5f0      	push	{r4, r5, r6, r7, lr}
1000430a:	4646      	mov	r6, r8
1000430c:	46d6      	mov	lr, sl
1000430e:	464f      	mov	r7, r9
10004310:	23d0      	movs	r3, #208	; 0xd0
10004312:	b5c0      	push	{r6, r7, lr}
10004314:	061b      	lsls	r3, r3, #24
10004316:	681f      	ldr	r7, [r3, #0]
10004318:	4b31      	ldr	r3, [pc, #196]	; (100043e0 <__wrap_vprintf+0xd8>)
1000431a:	b0a2      	sub	sp, #136	; 0x88
1000431c:	0004      	movs	r4, r0
1000431e:	000d      	movs	r5, r1
10004320:	0018      	movs	r0, r3
10004322:	a901      	add	r1, sp, #4
10004324:	4698      	mov	r8, r3
10004326:	f001 fa3f 	bl	100057a8 <__mutex_try_enter_veneer>
1000432a:	1e06      	subs	r6, r0, #0
1000432c:	d106      	bne.n	1000433c <__wrap_vprintf+0x34>
1000432e:	9b01      	ldr	r3, [sp, #4]
10004330:	429f      	cmp	r7, r3
10004332:	d003      	beq.n	1000433c <__wrap_vprintf+0x34>
10004334:	4640      	mov	r0, r8
10004336:	f001 fa3f 	bl	100057b8 <__mutex_enter_blocking_veneer>
1000433a:	3601      	adds	r6, #1
1000433c:	2284      	movs	r2, #132	; 0x84
1000433e:	2100      	movs	r1, #0
10004340:	a801      	add	r0, sp, #4
10004342:	f7ff fe35 	bl	10003fb0 <__wrap_memset>
10004346:	002b      	movs	r3, r5
10004348:	0022      	movs	r2, r4
1000434a:	4826      	ldr	r0, [pc, #152]	; (100043e4 <__wrap_vprintf+0xdc>)
1000434c:	a901      	add	r1, sp, #4
1000434e:	f7fe fe97 	bl	10003080 <vfctprintf>
10004352:	9b01      	ldr	r3, [sp, #4]
10004354:	0007      	movs	r7, r0
10004356:	2b00      	cmp	r3, #0
10004358:	d115      	bne.n	10004386 <__wrap_vprintf+0x7e>
1000435a:	4b23      	ldr	r3, [pc, #140]	; (100043e8 <__wrap_vprintf+0xe0>)
1000435c:	681c      	ldr	r4, [r3, #0]
1000435e:	2c00      	cmp	r4, #0
10004360:	d006      	beq.n	10004370 <__wrap_vprintf+0x68>
10004362:	6863      	ldr	r3, [r4, #4]
10004364:	2b00      	cmp	r3, #0
10004366:	d00c      	beq.n	10004382 <__wrap_vprintf+0x7a>
10004368:	4798      	blx	r3
1000436a:	68e4      	ldr	r4, [r4, #12]
1000436c:	2c00      	cmp	r4, #0
1000436e:	d1f8      	bne.n	10004362 <__wrap_vprintf+0x5a>
10004370:	2e00      	cmp	r6, #0
10004372:	d12f      	bne.n	100043d4 <__wrap_vprintf+0xcc>
10004374:	0038      	movs	r0, r7
10004376:	b022      	add	sp, #136	; 0x88
10004378:	bc1c      	pop	{r2, r3, r4}
1000437a:	4690      	mov	r8, r2
1000437c:	4699      	mov	r9, r3
1000437e:	46a2      	mov	sl, r4
10004380:	bdf0      	pop	{r4, r5, r6, r7, pc}
10004382:	68e4      	ldr	r4, [r4, #12]
10004384:	e7eb      	b.n	1000435e <__wrap_vprintf+0x56>
10004386:	4b18      	ldr	r3, [pc, #96]	; (100043e8 <__wrap_vprintf+0xe0>)
10004388:	681d      	ldr	r5, [r3, #0]
1000438a:	469a      	mov	sl, r3
1000438c:	2d00      	cmp	r5, #0
1000438e:	d025      	beq.n	100043dc <__wrap_vprintf+0xd4>
10004390:	4b16      	ldr	r3, [pc, #88]	; (100043ec <__wrap_vprintf+0xe4>)
10004392:	4699      	mov	r9, r3
10004394:	e002      	b.n	1000439c <__wrap_vprintf+0x94>
10004396:	68ed      	ldr	r5, [r5, #12]
10004398:	2d00      	cmp	r5, #0
1000439a:	d013      	beq.n	100043c4 <__wrap_vprintf+0xbc>
1000439c:	682c      	ldr	r4, [r5, #0]
1000439e:	2c00      	cmp	r4, #0
100043a0:	d0f9      	beq.n	10004396 <__wrap_vprintf+0x8e>
100043a2:	464b      	mov	r3, r9
100043a4:	681b      	ldr	r3, [r3, #0]
100043a6:	2b00      	cmp	r3, #0
100043a8:	d001      	beq.n	100043ae <__wrap_vprintf+0xa6>
100043aa:	429d      	cmp	r5, r3
100043ac:	d1f3      	bne.n	10004396 <__wrap_vprintf+0x8e>
100043ae:	7c6b      	ldrb	r3, [r5, #17]
100043b0:	9a01      	ldr	r2, [sp, #4]
100043b2:	2b00      	cmp	r3, #0
100043b4:	d00a      	beq.n	100043cc <__wrap_vprintf+0xc4>
100043b6:	0028      	movs	r0, r5
100043b8:	a902      	add	r1, sp, #8
100043ba:	f7ff fe05 	bl	10003fc8 <stdio_out_chars_crlf.part.0>
100043be:	68ed      	ldr	r5, [r5, #12]
100043c0:	2d00      	cmp	r5, #0
100043c2:	d1eb      	bne.n	1000439c <__wrap_vprintf+0x94>
100043c4:	4653      	mov	r3, sl
100043c6:	9501      	str	r5, [sp, #4]
100043c8:	681c      	ldr	r4, [r3, #0]
100043ca:	e7c8      	b.n	1000435e <__wrap_vprintf+0x56>
100043cc:	0011      	movs	r1, r2
100043ce:	a802      	add	r0, sp, #8
100043d0:	47a0      	blx	r4
100043d2:	e7e0      	b.n	10004396 <__wrap_vprintf+0x8e>
100043d4:	4640      	mov	r0, r8
100043d6:	f001 f9cf 	bl	10005778 <__mutex_exit_veneer>
100043da:	e7cb      	b.n	10004374 <__wrap_vprintf+0x6c>
100043dc:	9501      	str	r5, [sp, #4]
100043de:	e7c7      	b.n	10004370 <__wrap_vprintf+0x68>
100043e0:	20000a50 	.word	0x20000a50
100043e4:	1000404d 	.word	0x1000404d
100043e8:	20000af8 	.word	0x20000af8
100043ec:	20000afc 	.word	0x20000afc

100043f0 <__wrap_printf>:
100043f0:	b40f      	push	{r0, r1, r2, r3}
100043f2:	b500      	push	{lr}
100043f4:	b083      	sub	sp, #12
100043f6:	a904      	add	r1, sp, #16
100043f8:	c901      	ldmia	r1!, {r0}
100043fa:	9101      	str	r1, [sp, #4]
100043fc:	f7ff ff84 	bl	10004308 <__wrap_vprintf>
10004400:	b003      	add	sp, #12
10004402:	bc08      	pop	{r3}
10004404:	b004      	add	sp, #16
10004406:	4718      	bx	r3

10004408 <stdio_init_all>:
10004408:	b510      	push	{r4, lr}
1000440a:	f000 f889 	bl	10004520 <stdio_uart_init>
1000440e:	bd10      	pop	{r4, pc}

10004410 <getchar_timeout_us>:
10004410:	b5f0      	push	{r4, r5, r6, r7, lr}
10004412:	46ce      	mov	lr, r9
10004414:	4647      	mov	r7, r8
10004416:	b580      	push	{r7, lr}
10004418:	b083      	sub	sp, #12
1000441a:	0006      	movs	r6, r0
1000441c:	f7fc fc3c 	bl	10000c98 <time_us_64>
10004420:	0034      	movs	r4, r6
10004422:	0002      	movs	r2, r0
10004424:	000b      	movs	r3, r1
10004426:	2500      	movs	r5, #0
10004428:	18a4      	adds	r4, r4, r2
1000442a:	415d      	adcs	r5, r3
1000442c:	42a9      	cmp	r1, r5
1000442e:	d830      	bhi.n	10004492 <getchar_timeout_us+0x82>
10004430:	d02d      	beq.n	1000448e <getchar_timeout_us+0x7e>
10004432:	002f      	movs	r7, r5
10004434:	4b1a      	ldr	r3, [pc, #104]	; (100044a0 <getchar_timeout_us+0x90>)
10004436:	4699      	mov	r9, r3
10004438:	4b1a      	ldr	r3, [pc, #104]	; (100044a4 <getchar_timeout_us+0x94>)
1000443a:	4698      	mov	r8, r3
1000443c:	464b      	mov	r3, r9
1000443e:	681e      	ldr	r6, [r3, #0]
10004440:	2e00      	cmp	r6, #0
10004442:	d103      	bne.n	1000444c <getchar_timeout_us+0x3c>
10004444:	e017      	b.n	10004476 <getchar_timeout_us+0x66>
10004446:	68f6      	ldr	r6, [r6, #12]
10004448:	2e00      	cmp	r6, #0
1000444a:	d014      	beq.n	10004476 <getchar_timeout_us+0x66>
1000444c:	4643      	mov	r3, r8
1000444e:	681b      	ldr	r3, [r3, #0]
10004450:	2b00      	cmp	r3, #0
10004452:	d001      	beq.n	10004458 <getchar_timeout_us+0x48>
10004454:	42b3      	cmp	r3, r6
10004456:	d1f6      	bne.n	10004446 <getchar_timeout_us+0x36>
10004458:	68b3      	ldr	r3, [r6, #8]
1000445a:	2b00      	cmp	r3, #0
1000445c:	d0f3      	beq.n	10004446 <getchar_timeout_us+0x36>
1000445e:	2101      	movs	r1, #1
10004460:	a801      	add	r0, sp, #4
10004462:	4798      	blx	r3
10004464:	2800      	cmp	r0, #0
10004466:	ddee      	ble.n	10004446 <getchar_timeout_us+0x36>
10004468:	466b      	mov	r3, sp
1000446a:	7918      	ldrb	r0, [r3, #4]
1000446c:	b003      	add	sp, #12
1000446e:	bc0c      	pop	{r2, r3}
10004470:	4690      	mov	r8, r2
10004472:	4699      	mov	r9, r3
10004474:	bdf0      	pop	{r4, r5, r6, r7, pc}
10004476:	4b0c      	ldr	r3, [pc, #48]	; (100044a8 <getchar_timeout_us+0x98>)
10004478:	6a5a      	ldr	r2, [r3, #36]	; 0x24
1000447a:	42ba      	cmp	r2, r7
1000447c:	d3de      	bcc.n	1000443c <getchar_timeout_us+0x2c>
1000447e:	6a9b      	ldr	r3, [r3, #40]	; 0x28
10004480:	42a3      	cmp	r3, r4
10004482:	d201      	bcs.n	10004488 <getchar_timeout_us+0x78>
10004484:	42ba      	cmp	r2, r7
10004486:	d0d9      	beq.n	1000443c <getchar_timeout_us+0x2c>
10004488:	2001      	movs	r0, #1
1000448a:	4240      	negs	r0, r0
1000448c:	e7ee      	b.n	1000446c <getchar_timeout_us+0x5c>
1000448e:	42a0      	cmp	r0, r4
10004490:	d9cf      	bls.n	10004432 <getchar_timeout_us+0x22>
10004492:	2701      	movs	r7, #1
10004494:	2401      	movs	r4, #1
10004496:	4264      	negs	r4, r4
10004498:	17e5      	asrs	r5, r4, #31
1000449a:	427f      	negs	r7, r7
1000449c:	e7ca      	b.n	10004434 <getchar_timeout_us+0x24>
1000449e:	46c0      	nop			; (mov r8, r8)
100044a0:	20000af8 	.word	0x20000af8
100044a4:	20000afc 	.word	0x20000afc
100044a8:	40054000 	.word	0x40054000

100044ac <stdio_uart_out_chars>:
100044ac:	b5f0      	push	{r4, r5, r6, r7, lr}
100044ae:	2900      	cmp	r1, #0
100044b0:	d010      	beq.n	100044d4 <stdio_uart_out_chars+0x28>
100044b2:	1845      	adds	r5, r0, r1
100044b4:	270d      	movs	r7, #13
100044b6:	2120      	movs	r1, #32
100044b8:	4b09      	ldr	r3, [pc, #36]	; (100044e0 <stdio_uart_out_chars+0x34>)
100044ba:	4a0a      	ldr	r2, [pc, #40]	; (100044e4 <stdio_uart_out_chars+0x38>)
100044bc:	2600      	movs	r6, #0
100044be:	5f9e      	ldrsh	r6, [r3, r6]
100044c0:	7804      	ldrb	r4, [r0, #0]
100044c2:	42a6      	cmp	r6, r4
100044c4:	d007      	beq.n	100044d6 <stdio_uart_out_chars+0x2a>
100044c6:	6993      	ldr	r3, [r2, #24]
100044c8:	4219      	tst	r1, r3
100044ca:	d1fc      	bne.n	100044c6 <stdio_uart_out_chars+0x1a>
100044cc:	3001      	adds	r0, #1
100044ce:	6014      	str	r4, [r2, #0]
100044d0:	42a8      	cmp	r0, r5
100044d2:	d1f5      	bne.n	100044c0 <stdio_uart_out_chars+0x14>
100044d4:	bdf0      	pop	{r4, r5, r6, r7, pc}
100044d6:	6993      	ldr	r3, [r2, #24]
100044d8:	4219      	tst	r1, r3
100044da:	d1fc      	bne.n	100044d6 <stdio_uart_out_chars+0x2a>
100044dc:	6017      	str	r7, [r2, #0]
100044de:	e7f2      	b.n	100044c6 <stdio_uart_out_chars+0x1a>
100044e0:	200012fc 	.word	0x200012fc
100044e4:	40034000 	.word	0x40034000

100044e8 <stdio_uart_in_chars>:
100044e8:	b530      	push	{r4, r5, lr}
100044ea:	0005      	movs	r5, r0
100044ec:	2000      	movs	r0, #0
100044ee:	2900      	cmp	r1, #0
100044f0:	dd10      	ble.n	10004514 <stdio_uart_in_chars+0x2c>
100044f2:	2410      	movs	r4, #16
100044f4:	4a09      	ldr	r2, [pc, #36]	; (1000451c <stdio_uart_in_chars+0x34>)
100044f6:	3d01      	subs	r5, #1
100044f8:	6993      	ldr	r3, [r2, #24]
100044fa:	421c      	tst	r4, r3
100044fc:	d108      	bne.n	10004510 <stdio_uart_in_chars+0x28>
100044fe:	3001      	adds	r0, #1
10004500:	6993      	ldr	r3, [r2, #24]
10004502:	421c      	tst	r4, r3
10004504:	d1fc      	bne.n	10004500 <stdio_uart_in_chars+0x18>
10004506:	6813      	ldr	r3, [r2, #0]
10004508:	542b      	strb	r3, [r5, r0]
1000450a:	4281      	cmp	r1, r0
1000450c:	d1f4      	bne.n	100044f8 <stdio_uart_in_chars+0x10>
1000450e:	bd30      	pop	{r4, r5, pc}
10004510:	2800      	cmp	r0, #0
10004512:	d1fc      	bne.n	1000450e <stdio_uart_in_chars+0x26>
10004514:	2003      	movs	r0, #3
10004516:	4240      	negs	r0, r0
10004518:	e7f9      	b.n	1000450e <stdio_uart_in_chars+0x26>
1000451a:	46c0      	nop			; (mov r8, r8)
1000451c:	40034000 	.word	0x40034000

10004520 <stdio_uart_init>:
10004520:	21e1      	movs	r1, #225	; 0xe1
10004522:	b510      	push	{r4, lr}
10004524:	4b0a      	ldr	r3, [pc, #40]	; (10004550 <stdio_uart_init+0x30>)
10004526:	0249      	lsls	r1, r1, #9
10004528:	781b      	ldrb	r3, [r3, #0]
1000452a:	4b0a      	ldr	r3, [pc, #40]	; (10004554 <stdio_uart_init+0x34>)
1000452c:	480a      	ldr	r0, [pc, #40]	; (10004558 <stdio_uart_init+0x38>)
1000452e:	781b      	ldrb	r3, [r3, #0]
10004530:	f7fc f902 	bl	10000738 <uart_init>
10004534:	2102      	movs	r1, #2
10004536:	2000      	movs	r0, #0
10004538:	f7fc f868 	bl	1000060c <gpio_set_function>
1000453c:	2102      	movs	r1, #2
1000453e:	2001      	movs	r0, #1
10004540:	f7fc f864 	bl	1000060c <gpio_set_function>
10004544:	2101      	movs	r1, #1
10004546:	4805      	ldr	r0, [pc, #20]	; (1000455c <stdio_uart_init+0x3c>)
10004548:	f7ff fec0 	bl	100042cc <stdio_set_driver_enabled>
1000454c:	bd10      	pop	{r4, pc}
1000454e:	46c0      	nop			; (mov r8, r8)
10004550:	10005d58 	.word	0x10005d58
10004554:	10005d5c 	.word	0x10005d5c
10004558:	40034000 	.word	0x40034000
1000455c:	20000200 	.word	0x20000200

10004560 <adc_init>:
10004560:	2301      	movs	r3, #1
10004562:	2101      	movs	r1, #1
10004564:	4a08      	ldr	r2, [pc, #32]	; (10004588 <adc_init+0x28>)
10004566:	6013      	str	r3, [r2, #0]
10004568:	4a08      	ldr	r2, [pc, #32]	; (1000458c <adc_init+0x2c>)
1000456a:	6013      	str	r3, [r2, #0]
1000456c:	4a08      	ldr	r2, [pc, #32]	; (10004590 <adc_init+0x30>)
1000456e:	0008      	movs	r0, r1
10004570:	6893      	ldr	r3, [r2, #8]
10004572:	4398      	bics	r0, r3
10004574:	d1fb      	bne.n	1000456e <adc_init+0xe>
10004576:	4a07      	ldr	r2, [pc, #28]	; (10004594 <adc_init+0x34>)
10004578:	6011      	str	r1, [r2, #0]
1000457a:	2180      	movs	r1, #128	; 0x80
1000457c:	0049      	lsls	r1, r1, #1
1000457e:	6813      	ldr	r3, [r2, #0]
10004580:	420b      	tst	r3, r1
10004582:	d0fc      	beq.n	1000457e <adc_init+0x1e>
10004584:	4770      	bx	lr
10004586:	46c0      	nop			; (mov r8, r8)
10004588:	4000e000 	.word	0x4000e000
1000458c:	4000f000 	.word	0x4000f000
10004590:	4000c000 	.word	0x4000c000
10004594:	4004c000 	.word	0x4004c000

10004598 <calloc>:
10004598:	0003      	movs	r3, r0
1000459a:	b510      	push	{r4, lr}
1000459c:	000a      	movs	r2, r1
1000459e:	4903      	ldr	r1, [pc, #12]	; (100045ac <calloc+0x14>)
100045a0:	6808      	ldr	r0, [r1, #0]
100045a2:	0019      	movs	r1, r3
100045a4:	f000 f804 	bl	100045b0 <_calloc_r>
100045a8:	bd10      	pop	{r4, pc}
100045aa:	46c0      	nop			; (mov r8, r8)
100045ac:	20000214 	.word	0x20000214

100045b0 <_calloc_r>:
100045b0:	b510      	push	{r4, lr}
100045b2:	4351      	muls	r1, r2
100045b4:	f000 f83e 	bl	10004634 <_malloc_r>
100045b8:	1e04      	subs	r4, r0, #0
100045ba:	d00e      	beq.n	100045da <_calloc_r+0x2a>
100045bc:	0003      	movs	r3, r0
100045be:	3b08      	subs	r3, #8
100045c0:	685a      	ldr	r2, [r3, #4]
100045c2:	2303      	movs	r3, #3
100045c4:	439a      	bics	r2, r3
100045c6:	3a04      	subs	r2, #4
100045c8:	2a24      	cmp	r2, #36	; 0x24
100045ca:	d815      	bhi.n	100045f8 <_calloc_r+0x48>
100045cc:	0003      	movs	r3, r0
100045ce:	2a13      	cmp	r2, #19
100045d0:	d805      	bhi.n	100045de <_calloc_r+0x2e>
100045d2:	2200      	movs	r2, #0
100045d4:	601a      	str	r2, [r3, #0]
100045d6:	605a      	str	r2, [r3, #4]
100045d8:	609a      	str	r2, [r3, #8]
100045da:	0020      	movs	r0, r4
100045dc:	bd10      	pop	{r4, pc}
100045de:	2100      	movs	r1, #0
100045e0:	3308      	adds	r3, #8
100045e2:	6001      	str	r1, [r0, #0]
100045e4:	6041      	str	r1, [r0, #4]
100045e6:	2a1b      	cmp	r2, #27
100045e8:	d9f3      	bls.n	100045d2 <_calloc_r+0x22>
100045ea:	6081      	str	r1, [r0, #8]
100045ec:	60c1      	str	r1, [r0, #12]
100045ee:	2a24      	cmp	r2, #36	; 0x24
100045f0:	d006      	beq.n	10004600 <_calloc_r+0x50>
100045f2:	0003      	movs	r3, r0
100045f4:	3310      	adds	r3, #16
100045f6:	e7ec      	b.n	100045d2 <_calloc_r+0x22>
100045f8:	2100      	movs	r1, #0
100045fa:	f7ff fcd9 	bl	10003fb0 <__wrap_memset>
100045fe:	e7ec      	b.n	100045da <_calloc_r+0x2a>
10004600:	0003      	movs	r3, r0
10004602:	6101      	str	r1, [r0, #16]
10004604:	3318      	adds	r3, #24
10004606:	6141      	str	r1, [r0, #20]
10004608:	e7e3      	b.n	100045d2 <_calloc_r+0x22>
1000460a:	46c0      	nop			; (mov r8, r8)

1000460c <getchar>:
1000460c:	b510      	push	{r4, lr}
1000460e:	4b03      	ldr	r3, [pc, #12]	; (1000461c <getchar+0x10>)
10004610:	6818      	ldr	r0, [r3, #0]
10004612:	6841      	ldr	r1, [r0, #4]
10004614:	f000 fc4e 	bl	10004eb4 <_getc_r>
10004618:	bd10      	pop	{r4, pc}
1000461a:	46c0      	nop			; (mov r8, r8)
1000461c:	20000214 	.word	0x20000214

10004620 <malloc>:
10004620:	b510      	push	{r4, lr}
10004622:	4b03      	ldr	r3, [pc, #12]	; (10004630 <malloc+0x10>)
10004624:	0001      	movs	r1, r0
10004626:	6818      	ldr	r0, [r3, #0]
10004628:	f000 f804 	bl	10004634 <_malloc_r>
1000462c:	bd10      	pop	{r4, pc}
1000462e:	46c0      	nop			; (mov r8, r8)
10004630:	20000214 	.word	0x20000214

10004634 <_malloc_r>:
10004634:	b5f0      	push	{r4, r5, r6, r7, lr}
10004636:	464e      	mov	r6, r9
10004638:	4645      	mov	r5, r8
1000463a:	46de      	mov	lr, fp
1000463c:	4657      	mov	r7, sl
1000463e:	b5e0      	push	{r5, r6, r7, lr}
10004640:	000d      	movs	r5, r1
10004642:	350b      	adds	r5, #11
10004644:	0006      	movs	r6, r0
10004646:	b083      	sub	sp, #12
10004648:	2d16      	cmp	r5, #22
1000464a:	d822      	bhi.n	10004692 <_malloc_r+0x5e>
1000464c:	2910      	cmp	r1, #16
1000464e:	d900      	bls.n	10004652 <_malloc_r+0x1e>
10004650:	e0b2      	b.n	100047b8 <_malloc_r+0x184>
10004652:	f000 faaf 	bl	10004bb4 <__malloc_lock>
10004656:	2510      	movs	r5, #16
10004658:	2002      	movs	r0, #2
1000465a:	2318      	movs	r3, #24
1000465c:	4fcb      	ldr	r7, [pc, #812]	; (1000498c <_malloc_r+0x358>)
1000465e:	18fb      	adds	r3, r7, r3
10004660:	001a      	movs	r2, r3
10004662:	685c      	ldr	r4, [r3, #4]
10004664:	3a08      	subs	r2, #8
10004666:	4294      	cmp	r4, r2
10004668:	d100      	bne.n	1000466c <_malloc_r+0x38>
1000466a:	e0b5      	b.n	100047d8 <_malloc_r+0x1a4>
1000466c:	2303      	movs	r3, #3
1000466e:	6862      	ldr	r2, [r4, #4]
10004670:	439a      	bics	r2, r3
10004672:	0013      	movs	r3, r2
10004674:	68e2      	ldr	r2, [r4, #12]
10004676:	68a1      	ldr	r1, [r4, #8]
10004678:	60ca      	str	r2, [r1, #12]
1000467a:	6091      	str	r1, [r2, #8]
1000467c:	2201      	movs	r2, #1
1000467e:	18e3      	adds	r3, r4, r3
10004680:	6859      	ldr	r1, [r3, #4]
10004682:	0030      	movs	r0, r6
10004684:	430a      	orrs	r2, r1
10004686:	605a      	str	r2, [r3, #4]
10004688:	f000 fa9c 	bl	10004bc4 <__malloc_unlock>
1000468c:	0020      	movs	r0, r4
1000468e:	3008      	adds	r0, #8
10004690:	e095      	b.n	100047be <_malloc_r+0x18a>
10004692:	2307      	movs	r3, #7
10004694:	439d      	bics	r5, r3
10004696:	d500      	bpl.n	1000469a <_malloc_r+0x66>
10004698:	e08e      	b.n	100047b8 <_malloc_r+0x184>
1000469a:	42a9      	cmp	r1, r5
1000469c:	d900      	bls.n	100046a0 <_malloc_r+0x6c>
1000469e:	e08b      	b.n	100047b8 <_malloc_r+0x184>
100046a0:	f000 fa88 	bl	10004bb4 <__malloc_lock>
100046a4:	23fc      	movs	r3, #252	; 0xfc
100046a6:	005b      	lsls	r3, r3, #1
100046a8:	429d      	cmp	r5, r3
100046aa:	d200      	bcs.n	100046ae <_malloc_r+0x7a>
100046ac:	e1a5      	b.n	100049fa <_malloc_r+0x3c6>
100046ae:	0a68      	lsrs	r0, r5, #9
100046b0:	d100      	bne.n	100046b4 <_malloc_r+0x80>
100046b2:	e08b      	b.n	100047cc <_malloc_r+0x198>
100046b4:	2804      	cmp	r0, #4
100046b6:	d900      	bls.n	100046ba <_malloc_r+0x86>
100046b8:	e178      	b.n	100049ac <_malloc_r+0x378>
100046ba:	2338      	movs	r3, #56	; 0x38
100046bc:	4698      	mov	r8, r3
100046be:	09a8      	lsrs	r0, r5, #6
100046c0:	4480      	add	r8, r0
100046c2:	3039      	adds	r0, #57	; 0x39
100046c4:	00c1      	lsls	r1, r0, #3
100046c6:	4fb1      	ldr	r7, [pc, #708]	; (1000498c <_malloc_r+0x358>)
100046c8:	1879      	adds	r1, r7, r1
100046ca:	684c      	ldr	r4, [r1, #4]
100046cc:	3908      	subs	r1, #8
100046ce:	42a1      	cmp	r1, r4
100046d0:	d00e      	beq.n	100046f0 <_malloc_r+0xbc>
100046d2:	2303      	movs	r3, #3
100046d4:	469c      	mov	ip, r3
100046d6:	e004      	b.n	100046e2 <_malloc_r+0xae>
100046d8:	2a00      	cmp	r2, #0
100046da:	dacb      	bge.n	10004674 <_malloc_r+0x40>
100046dc:	68e4      	ldr	r4, [r4, #12]
100046de:	42a1      	cmp	r1, r4
100046e0:	d006      	beq.n	100046f0 <_malloc_r+0xbc>
100046e2:	4662      	mov	r2, ip
100046e4:	6863      	ldr	r3, [r4, #4]
100046e6:	4393      	bics	r3, r2
100046e8:	1b5a      	subs	r2, r3, r5
100046ea:	2a0f      	cmp	r2, #15
100046ec:	ddf4      	ble.n	100046d8 <_malloc_r+0xa4>
100046ee:	4640      	mov	r0, r8
100046f0:	003a      	movs	r2, r7
100046f2:	693c      	ldr	r4, [r7, #16]
100046f4:	3208      	adds	r2, #8
100046f6:	4294      	cmp	r4, r2
100046f8:	d100      	bne.n	100046fc <_malloc_r+0xc8>
100046fa:	e078      	b.n	100047ee <_malloc_r+0x1ba>
100046fc:	2303      	movs	r3, #3
100046fe:	6861      	ldr	r1, [r4, #4]
10004700:	4399      	bics	r1, r3
10004702:	4689      	mov	r9, r1
10004704:	000b      	movs	r3, r1
10004706:	1b49      	subs	r1, r1, r5
10004708:	290f      	cmp	r1, #15
1000470a:	dd00      	ble.n	1000470e <_malloc_r+0xda>
1000470c:	e179      	b.n	10004a02 <_malloc_r+0x3ce>
1000470e:	617a      	str	r2, [r7, #20]
10004710:	613a      	str	r2, [r7, #16]
10004712:	2900      	cmp	r1, #0
10004714:	dab2      	bge.n	1000467c <_malloc_r+0x48>
10004716:	2280      	movs	r2, #128	; 0x80
10004718:	0092      	lsls	r2, r2, #2
1000471a:	4591      	cmp	r9, r2
1000471c:	d300      	bcc.n	10004720 <_malloc_r+0xec>
1000471e:	e10e      	b.n	1000493e <_malloc_r+0x30a>
10004720:	0959      	lsrs	r1, r3, #5
10004722:	08da      	lsrs	r2, r3, #3
10004724:	2301      	movs	r3, #1
10004726:	408b      	lsls	r3, r1
10004728:	00d2      	lsls	r2, r2, #3
1000472a:	6879      	ldr	r1, [r7, #4]
1000472c:	19d2      	adds	r2, r2, r7
1000472e:	430b      	orrs	r3, r1
10004730:	6891      	ldr	r1, [r2, #8]
10004732:	607b      	str	r3, [r7, #4]
10004734:	60e2      	str	r2, [r4, #12]
10004736:	60a1      	str	r1, [r4, #8]
10004738:	6094      	str	r4, [r2, #8]
1000473a:	60cc      	str	r4, [r1, #12]
1000473c:	2101      	movs	r1, #1
1000473e:	1082      	asrs	r2, r0, #2
10004740:	4091      	lsls	r1, r2
10004742:	4299      	cmp	r1, r3
10004744:	d859      	bhi.n	100047fa <_malloc_r+0x1c6>
10004746:	420b      	tst	r3, r1
10004748:	d105      	bne.n	10004756 <_malloc_r+0x122>
1000474a:	2203      	movs	r2, #3
1000474c:	4390      	bics	r0, r2
1000474e:	0049      	lsls	r1, r1, #1
10004750:	3004      	adds	r0, #4
10004752:	420b      	tst	r3, r1
10004754:	d0fb      	beq.n	1000474e <_malloc_r+0x11a>
10004756:	2303      	movs	r3, #3
10004758:	4698      	mov	r8, r3
1000475a:	00c3      	lsls	r3, r0, #3
1000475c:	4699      	mov	r9, r3
1000475e:	44b9      	add	r9, r7
10004760:	46cc      	mov	ip, r9
10004762:	4682      	mov	sl, r0
10004764:	4663      	mov	r3, ip
10004766:	68dc      	ldr	r4, [r3, #12]
10004768:	45a4      	cmp	ip, r4
1000476a:	d107      	bne.n	1000477c <_malloc_r+0x148>
1000476c:	e12a      	b.n	100049c4 <_malloc_r+0x390>
1000476e:	2a00      	cmp	r2, #0
10004770:	db00      	blt.n	10004774 <_malloc_r+0x140>
10004772:	e133      	b.n	100049dc <_malloc_r+0x3a8>
10004774:	68e4      	ldr	r4, [r4, #12]
10004776:	45a4      	cmp	ip, r4
10004778:	d100      	bne.n	1000477c <_malloc_r+0x148>
1000477a:	e123      	b.n	100049c4 <_malloc_r+0x390>
1000477c:	4642      	mov	r2, r8
1000477e:	6863      	ldr	r3, [r4, #4]
10004780:	4393      	bics	r3, r2
10004782:	1b5a      	subs	r2, r3, r5
10004784:	2a0f      	cmp	r2, #15
10004786:	ddf2      	ble.n	1000476e <_malloc_r+0x13a>
10004788:	2001      	movs	r0, #1
1000478a:	4680      	mov	r8, r0
1000478c:	1961      	adds	r1, r4, r5
1000478e:	4305      	orrs	r5, r0
10004790:	6065      	str	r5, [r4, #4]
10004792:	68a0      	ldr	r0, [r4, #8]
10004794:	68e5      	ldr	r5, [r4, #12]
10004796:	3708      	adds	r7, #8
10004798:	60c5      	str	r5, [r0, #12]
1000479a:	60a8      	str	r0, [r5, #8]
1000479c:	4640      	mov	r0, r8
1000479e:	4310      	orrs	r0, r2
100047a0:	60f9      	str	r1, [r7, #12]
100047a2:	60b9      	str	r1, [r7, #8]
100047a4:	6048      	str	r0, [r1, #4]
100047a6:	60cf      	str	r7, [r1, #12]
100047a8:	0030      	movs	r0, r6
100047aa:	608f      	str	r7, [r1, #8]
100047ac:	50e2      	str	r2, [r4, r3]
100047ae:	f000 fa09 	bl	10004bc4 <__malloc_unlock>
100047b2:	0020      	movs	r0, r4
100047b4:	3008      	adds	r0, #8
100047b6:	e002      	b.n	100047be <_malloc_r+0x18a>
100047b8:	230c      	movs	r3, #12
100047ba:	2000      	movs	r0, #0
100047bc:	6033      	str	r3, [r6, #0]
100047be:	b003      	add	sp, #12
100047c0:	bc3c      	pop	{r2, r3, r4, r5}
100047c2:	4690      	mov	r8, r2
100047c4:	4699      	mov	r9, r3
100047c6:	46a2      	mov	sl, r4
100047c8:	46ab      	mov	fp, r5
100047ca:	bdf0      	pop	{r4, r5, r6, r7, pc}
100047cc:	2180      	movs	r1, #128	; 0x80
100047ce:	233f      	movs	r3, #63	; 0x3f
100047d0:	2040      	movs	r0, #64	; 0x40
100047d2:	4698      	mov	r8, r3
100047d4:	0089      	lsls	r1, r1, #2
100047d6:	e776      	b.n	100046c6 <_malloc_r+0x92>
100047d8:	68dc      	ldr	r4, [r3, #12]
100047da:	3002      	adds	r0, #2
100047dc:	42a3      	cmp	r3, r4
100047de:	d000      	beq.n	100047e2 <_malloc_r+0x1ae>
100047e0:	e744      	b.n	1000466c <_malloc_r+0x38>
100047e2:	003a      	movs	r2, r7
100047e4:	693c      	ldr	r4, [r7, #16]
100047e6:	3208      	adds	r2, #8
100047e8:	4294      	cmp	r4, r2
100047ea:	d000      	beq.n	100047ee <_malloc_r+0x1ba>
100047ec:	e786      	b.n	100046fc <_malloc_r+0xc8>
100047ee:	2101      	movs	r1, #1
100047f0:	687b      	ldr	r3, [r7, #4]
100047f2:	1082      	asrs	r2, r0, #2
100047f4:	4091      	lsls	r1, r2
100047f6:	4299      	cmp	r1, r3
100047f8:	d9a5      	bls.n	10004746 <_malloc_r+0x112>
100047fa:	2303      	movs	r3, #3
100047fc:	68bc      	ldr	r4, [r7, #8]
100047fe:	6862      	ldr	r2, [r4, #4]
10004800:	439a      	bics	r2, r3
10004802:	4691      	mov	r9, r2
10004804:	4295      	cmp	r5, r2
10004806:	d803      	bhi.n	10004810 <_malloc_r+0x1dc>
10004808:	1b53      	subs	r3, r2, r5
1000480a:	2b0f      	cmp	r3, #15
1000480c:	dd00      	ble.n	10004810 <_malloc_r+0x1dc>
1000480e:	e088      	b.n	10004922 <_malloc_r+0x2ee>
10004810:	0023      	movs	r3, r4
10004812:	444b      	add	r3, r9
10004814:	4a5e      	ldr	r2, [pc, #376]	; (10004990 <_malloc_r+0x35c>)
10004816:	9301      	str	r3, [sp, #4]
10004818:	4b5e      	ldr	r3, [pc, #376]	; (10004994 <_malloc_r+0x360>)
1000481a:	4693      	mov	fp, r2
1000481c:	681b      	ldr	r3, [r3, #0]
1000481e:	6812      	ldr	r2, [r2, #0]
10004820:	18eb      	adds	r3, r5, r3
10004822:	3201      	adds	r2, #1
10004824:	d100      	bne.n	10004828 <_malloc_r+0x1f4>
10004826:	e13b      	b.n	10004aa0 <_malloc_r+0x46c>
10004828:	4a5b      	ldr	r2, [pc, #364]	; (10004998 <_malloc_r+0x364>)
1000482a:	4694      	mov	ip, r2
1000482c:	4463      	add	r3, ip
1000482e:	0b1b      	lsrs	r3, r3, #12
10004830:	031b      	lsls	r3, r3, #12
10004832:	9300      	str	r3, [sp, #0]
10004834:	0030      	movs	r0, r6
10004836:	9900      	ldr	r1, [sp, #0]
10004838:	f000 f9cc 	bl	10004bd4 <_sbrk_r>
1000483c:	0003      	movs	r3, r0
1000483e:	4680      	mov	r8, r0
10004840:	3301      	adds	r3, #1
10004842:	d100      	bne.n	10004846 <_malloc_r+0x212>
10004844:	e0f8      	b.n	10004a38 <_malloc_r+0x404>
10004846:	9b01      	ldr	r3, [sp, #4]
10004848:	4283      	cmp	r3, r0
1000484a:	d900      	bls.n	1000484e <_malloc_r+0x21a>
1000484c:	e0f2      	b.n	10004a34 <_malloc_r+0x400>
1000484e:	4b53      	ldr	r3, [pc, #332]	; (1000499c <_malloc_r+0x368>)
10004850:	0019      	movs	r1, r3
10004852:	469a      	mov	sl, r3
10004854:	6809      	ldr	r1, [r1, #0]
10004856:	9b00      	ldr	r3, [sp, #0]
10004858:	468c      	mov	ip, r1
1000485a:	4651      	mov	r1, sl
1000485c:	4463      	add	r3, ip
1000485e:	600b      	str	r3, [r1, #0]
10004860:	9901      	ldr	r1, [sp, #4]
10004862:	001a      	movs	r2, r3
10004864:	4281      	cmp	r1, r0
10004866:	d100      	bne.n	1000486a <_malloc_r+0x236>
10004868:	e150      	b.n	10004b0c <_malloc_r+0x4d8>
1000486a:	465b      	mov	r3, fp
1000486c:	681b      	ldr	r3, [r3, #0]
1000486e:	3301      	adds	r3, #1
10004870:	d100      	bne.n	10004874 <_malloc_r+0x240>
10004872:	e155      	b.n	10004b20 <_malloc_r+0x4ec>
10004874:	4643      	mov	r3, r8
10004876:	9901      	ldr	r1, [sp, #4]
10004878:	1a5b      	subs	r3, r3, r1
1000487a:	189a      	adds	r2, r3, r2
1000487c:	4653      	mov	r3, sl
1000487e:	601a      	str	r2, [r3, #0]
10004880:	2307      	movs	r3, #7
10004882:	4642      	mov	r2, r8
10004884:	4641      	mov	r1, r8
10004886:	401a      	ands	r2, r3
10004888:	9201      	str	r2, [sp, #4]
1000488a:	4219      	tst	r1, r3
1000488c:	d100      	bne.n	10004890 <_malloc_r+0x25c>
1000488e:	e111      	b.n	10004ab4 <_malloc_r+0x480>
10004890:	2308      	movs	r3, #8
10004892:	4698      	mov	r8, r3
10004894:	1a88      	subs	r0, r1, r2
10004896:	4b42      	ldr	r3, [pc, #264]	; (100049a0 <_malloc_r+0x36c>)
10004898:	9900      	ldr	r1, [sp, #0]
1000489a:	4480      	add	r8, r0
1000489c:	4441      	add	r1, r8
1000489e:	1a9b      	subs	r3, r3, r2
100048a0:	1a5b      	subs	r3, r3, r1
100048a2:	051b      	lsls	r3, r3, #20
100048a4:	0d1b      	lsrs	r3, r3, #20
100048a6:	9100      	str	r1, [sp, #0]
100048a8:	0030      	movs	r0, r6
100048aa:	0019      	movs	r1, r3
100048ac:	469b      	mov	fp, r3
100048ae:	f000 f991 	bl	10004bd4 <_sbrk_r>
100048b2:	1c43      	adds	r3, r0, #1
100048b4:	d100      	bne.n	100048b8 <_malloc_r+0x284>
100048b6:	e14f      	b.n	10004b58 <_malloc_r+0x524>
100048b8:	4643      	mov	r3, r8
100048ba:	1ac0      	subs	r0, r0, r3
100048bc:	0003      	movs	r3, r0
100048be:	445b      	add	r3, fp
100048c0:	9300      	str	r3, [sp, #0]
100048c2:	4653      	mov	r3, sl
100048c4:	4652      	mov	r2, sl
100048c6:	681b      	ldr	r3, [r3, #0]
100048c8:	2101      	movs	r1, #1
100048ca:	445b      	add	r3, fp
100048cc:	6013      	str	r3, [r2, #0]
100048ce:	4642      	mov	r2, r8
100048d0:	4640      	mov	r0, r8
100048d2:	60ba      	str	r2, [r7, #8]
100048d4:	9a00      	ldr	r2, [sp, #0]
100048d6:	430a      	orrs	r2, r1
100048d8:	6042      	str	r2, [r0, #4]
100048da:	42bc      	cmp	r4, r7
100048dc:	d100      	bne.n	100048e0 <_malloc_r+0x2ac>
100048de:	e123      	b.n	10004b28 <_malloc_r+0x4f4>
100048e0:	464a      	mov	r2, r9
100048e2:	2a0f      	cmp	r2, #15
100048e4:	d800      	bhi.n	100048e8 <_malloc_r+0x2b4>
100048e6:	e121      	b.n	10004b2c <_malloc_r+0x4f8>
100048e8:	2007      	movs	r0, #7
100048ea:	3a0c      	subs	r2, #12
100048ec:	4382      	bics	r2, r0
100048ee:	6860      	ldr	r0, [r4, #4]
100048f0:	4001      	ands	r1, r0
100048f2:	2005      	movs	r0, #5
100048f4:	4311      	orrs	r1, r2
100048f6:	6061      	str	r1, [r4, #4]
100048f8:	18a1      	adds	r1, r4, r2
100048fa:	6048      	str	r0, [r1, #4]
100048fc:	6088      	str	r0, [r1, #8]
100048fe:	2a0f      	cmp	r2, #15
10004900:	d900      	bls.n	10004904 <_malloc_r+0x2d0>
10004902:	e134      	b.n	10004b6e <_malloc_r+0x53a>
10004904:	4642      	mov	r2, r8
10004906:	4644      	mov	r4, r8
10004908:	6852      	ldr	r2, [r2, #4]
1000490a:	4926      	ldr	r1, [pc, #152]	; (100049a4 <_malloc_r+0x370>)
1000490c:	6808      	ldr	r0, [r1, #0]
1000490e:	4298      	cmp	r0, r3
10004910:	d200      	bcs.n	10004914 <_malloc_r+0x2e0>
10004912:	600b      	str	r3, [r1, #0]
10004914:	4924      	ldr	r1, [pc, #144]	; (100049a8 <_malloc_r+0x374>)
10004916:	6808      	ldr	r0, [r1, #0]
10004918:	4298      	cmp	r0, r3
1000491a:	d300      	bcc.n	1000491e <_malloc_r+0x2ea>
1000491c:	e08e      	b.n	10004a3c <_malloc_r+0x408>
1000491e:	600b      	str	r3, [r1, #0]
10004920:	e08c      	b.n	10004a3c <_malloc_r+0x408>
10004922:	2201      	movs	r2, #1
10004924:	0029      	movs	r1, r5
10004926:	4313      	orrs	r3, r2
10004928:	4311      	orrs	r1, r2
1000492a:	1965      	adds	r5, r4, r5
1000492c:	6061      	str	r1, [r4, #4]
1000492e:	0030      	movs	r0, r6
10004930:	60bd      	str	r5, [r7, #8]
10004932:	606b      	str	r3, [r5, #4]
10004934:	f000 f946 	bl	10004bc4 <__malloc_unlock>
10004938:	0020      	movs	r0, r4
1000493a:	3008      	adds	r0, #8
1000493c:	e73f      	b.n	100047be <_malloc_r+0x18a>
1000493e:	0a5a      	lsrs	r2, r3, #9
10004940:	2a04      	cmp	r2, #4
10004942:	d971      	bls.n	10004a28 <_malloc_r+0x3f4>
10004944:	2a14      	cmp	r2, #20
10004946:	d900      	bls.n	1000494a <_malloc_r+0x316>
10004948:	e0c4      	b.n	10004ad4 <_malloc_r+0x4a0>
1000494a:	0011      	movs	r1, r2
1000494c:	325c      	adds	r2, #92	; 0x5c
1000494e:	315b      	adds	r1, #91	; 0x5b
10004950:	00d2      	lsls	r2, r2, #3
10004952:	2308      	movs	r3, #8
10004954:	425b      	negs	r3, r3
10004956:	469c      	mov	ip, r3
10004958:	18ba      	adds	r2, r7, r2
1000495a:	4494      	add	ip, r2
1000495c:	4663      	mov	r3, ip
1000495e:	689a      	ldr	r2, [r3, #8]
10004960:	2303      	movs	r3, #3
10004962:	4698      	mov	r8, r3
10004964:	4594      	cmp	ip, r2
10004966:	d100      	bne.n	1000496a <_malloc_r+0x336>
10004968:	e09d      	b.n	10004aa6 <_malloc_r+0x472>
1000496a:	4643      	mov	r3, r8
1000496c:	6851      	ldr	r1, [r2, #4]
1000496e:	4399      	bics	r1, r3
10004970:	4549      	cmp	r1, r9
10004972:	d902      	bls.n	1000497a <_malloc_r+0x346>
10004974:	6892      	ldr	r2, [r2, #8]
10004976:	4594      	cmp	ip, r2
10004978:	d1f7      	bne.n	1000496a <_malloc_r+0x336>
1000497a:	68d3      	ldr	r3, [r2, #12]
1000497c:	469c      	mov	ip, r3
1000497e:	687b      	ldr	r3, [r7, #4]
10004980:	4661      	mov	r1, ip
10004982:	60a2      	str	r2, [r4, #8]
10004984:	60e1      	str	r1, [r4, #12]
10004986:	608c      	str	r4, [r1, #8]
10004988:	60d4      	str	r4, [r2, #12]
1000498a:	e6d7      	b.n	1000473c <_malloc_r+0x108>
1000498c:	20000640 	.word	0x20000640
10004990:	20000a48 	.word	0x20000a48
10004994:	20000ab8 	.word	0x20000ab8
10004998:	0000100f 	.word	0x0000100f
1000499c:	20000a88 	.word	0x20000a88
100049a0:	00001008 	.word	0x00001008
100049a4:	20000ab0 	.word	0x20000ab0
100049a8:	20000ab4 	.word	0x20000ab4
100049ac:	2814      	cmp	r0, #20
100049ae:	d952      	bls.n	10004a56 <_malloc_r+0x422>
100049b0:	2854      	cmp	r0, #84	; 0x54
100049b2:	d900      	bls.n	100049b6 <_malloc_r+0x382>
100049b4:	e096      	b.n	10004ae4 <_malloc_r+0x4b0>
100049b6:	236e      	movs	r3, #110	; 0x6e
100049b8:	4698      	mov	r8, r3
100049ba:	0b28      	lsrs	r0, r5, #12
100049bc:	4480      	add	r8, r0
100049be:	306f      	adds	r0, #111	; 0x6f
100049c0:	00c1      	lsls	r1, r0, #3
100049c2:	e680      	b.n	100046c6 <_malloc_r+0x92>
100049c4:	2308      	movs	r3, #8
100049c6:	469b      	mov	fp, r3
100049c8:	3b07      	subs	r3, #7
100049ca:	44dc      	add	ip, fp
100049cc:	469b      	mov	fp, r3
100049ce:	44da      	add	sl, fp
100049d0:	4643      	mov	r3, r8
100049d2:	4652      	mov	r2, sl
100049d4:	4213      	tst	r3, r2
100049d6:	d000      	beq.n	100049da <_malloc_r+0x3a6>
100049d8:	e6c4      	b.n	10004764 <_malloc_r+0x130>
100049da:	e04c      	b.n	10004a76 <_malloc_r+0x442>
100049dc:	2201      	movs	r2, #1
100049de:	18e3      	adds	r3, r4, r3
100049e0:	6859      	ldr	r1, [r3, #4]
100049e2:	0030      	movs	r0, r6
100049e4:	430a      	orrs	r2, r1
100049e6:	605a      	str	r2, [r3, #4]
100049e8:	68e3      	ldr	r3, [r4, #12]
100049ea:	68a2      	ldr	r2, [r4, #8]
100049ec:	60d3      	str	r3, [r2, #12]
100049ee:	609a      	str	r2, [r3, #8]
100049f0:	f000 f8e8 	bl	10004bc4 <__malloc_unlock>
100049f4:	0020      	movs	r0, r4
100049f6:	3008      	adds	r0, #8
100049f8:	e6e1      	b.n	100047be <_malloc_r+0x18a>
100049fa:	002b      	movs	r3, r5
100049fc:	08e8      	lsrs	r0, r5, #3
100049fe:	3308      	adds	r3, #8
10004a00:	e62c      	b.n	1000465c <_malloc_r+0x28>
10004a02:	2301      	movs	r3, #1
10004a04:	1960      	adds	r0, r4, r5
10004a06:	431d      	orrs	r5, r3
10004a08:	6065      	str	r5, [r4, #4]
10004a0a:	6178      	str	r0, [r7, #20]
10004a0c:	6138      	str	r0, [r7, #16]
10004a0e:	60c2      	str	r2, [r0, #12]
10004a10:	6082      	str	r2, [r0, #8]
10004a12:	001a      	movs	r2, r3
10004a14:	464b      	mov	r3, r9
10004a16:	430a      	orrs	r2, r1
10004a18:	6042      	str	r2, [r0, #4]
10004a1a:	0030      	movs	r0, r6
10004a1c:	50e1      	str	r1, [r4, r3]
10004a1e:	f000 f8d1 	bl	10004bc4 <__malloc_unlock>
10004a22:	0020      	movs	r0, r4
10004a24:	3008      	adds	r0, #8
10004a26:	e6ca      	b.n	100047be <_malloc_r+0x18a>
10004a28:	099a      	lsrs	r2, r3, #6
10004a2a:	0011      	movs	r1, r2
10004a2c:	3239      	adds	r2, #57	; 0x39
10004a2e:	3138      	adds	r1, #56	; 0x38
10004a30:	00d2      	lsls	r2, r2, #3
10004a32:	e78e      	b.n	10004952 <_malloc_r+0x31e>
10004a34:	42bc      	cmp	r4, r7
10004a36:	d060      	beq.n	10004afa <_malloc_r+0x4c6>
10004a38:	68bc      	ldr	r4, [r7, #8]
10004a3a:	6862      	ldr	r2, [r4, #4]
10004a3c:	2303      	movs	r3, #3
10004a3e:	439a      	bics	r2, r3
10004a40:	1b53      	subs	r3, r2, r5
10004a42:	4295      	cmp	r5, r2
10004a44:	d802      	bhi.n	10004a4c <_malloc_r+0x418>
10004a46:	2b0f      	cmp	r3, #15
10004a48:	dd00      	ble.n	10004a4c <_malloc_r+0x418>
10004a4a:	e76a      	b.n	10004922 <_malloc_r+0x2ee>
10004a4c:	0030      	movs	r0, r6
10004a4e:	f000 f8b9 	bl	10004bc4 <__malloc_unlock>
10004a52:	2000      	movs	r0, #0
10004a54:	e6b3      	b.n	100047be <_malloc_r+0x18a>
10004a56:	235b      	movs	r3, #91	; 0x5b
10004a58:	4698      	mov	r8, r3
10004a5a:	4480      	add	r8, r0
10004a5c:	305c      	adds	r0, #92	; 0x5c
10004a5e:	00c1      	lsls	r1, r0, #3
10004a60:	e631      	b.n	100046c6 <_malloc_r+0x92>
10004a62:	2308      	movs	r3, #8
10004a64:	425b      	negs	r3, r3
10004a66:	469c      	mov	ip, r3
10004a68:	44e1      	add	r9, ip
10004a6a:	464b      	mov	r3, r9
10004a6c:	689b      	ldr	r3, [r3, #8]
10004a6e:	3801      	subs	r0, #1
10004a70:	454b      	cmp	r3, r9
10004a72:	d000      	beq.n	10004a76 <_malloc_r+0x442>
10004a74:	e098      	b.n	10004ba8 <_malloc_r+0x574>
10004a76:	4643      	mov	r3, r8
10004a78:	4203      	tst	r3, r0
10004a7a:	d1f2      	bne.n	10004a62 <_malloc_r+0x42e>
10004a7c:	687b      	ldr	r3, [r7, #4]
10004a7e:	438b      	bics	r3, r1
10004a80:	607b      	str	r3, [r7, #4]
10004a82:	0049      	lsls	r1, r1, #1
10004a84:	4299      	cmp	r1, r3
10004a86:	d900      	bls.n	10004a8a <_malloc_r+0x456>
10004a88:	e6b7      	b.n	100047fa <_malloc_r+0x1c6>
10004a8a:	2900      	cmp	r1, #0
10004a8c:	d104      	bne.n	10004a98 <_malloc_r+0x464>
10004a8e:	e6b4      	b.n	100047fa <_malloc_r+0x1c6>
10004a90:	2204      	movs	r2, #4
10004a92:	4694      	mov	ip, r2
10004a94:	0049      	lsls	r1, r1, #1
10004a96:	44e2      	add	sl, ip
10004a98:	420b      	tst	r3, r1
10004a9a:	d0f9      	beq.n	10004a90 <_malloc_r+0x45c>
10004a9c:	4650      	mov	r0, sl
10004a9e:	e65c      	b.n	1000475a <_malloc_r+0x126>
10004aa0:	3310      	adds	r3, #16
10004aa2:	9300      	str	r3, [sp, #0]
10004aa4:	e6c6      	b.n	10004834 <_malloc_r+0x200>
10004aa6:	1089      	asrs	r1, r1, #2
10004aa8:	3b02      	subs	r3, #2
10004aaa:	408b      	lsls	r3, r1
10004aac:	6879      	ldr	r1, [r7, #4]
10004aae:	430b      	orrs	r3, r1
10004ab0:	607b      	str	r3, [r7, #4]
10004ab2:	e765      	b.n	10004980 <_malloc_r+0x34c>
10004ab4:	9b00      	ldr	r3, [sp, #0]
10004ab6:	0030      	movs	r0, r6
10004ab8:	4443      	add	r3, r8
10004aba:	425b      	negs	r3, r3
10004abc:	051b      	lsls	r3, r3, #20
10004abe:	0d1b      	lsrs	r3, r3, #20
10004ac0:	0019      	movs	r1, r3
10004ac2:	469b      	mov	fp, r3
10004ac4:	f000 f886 	bl	10004bd4 <_sbrk_r>
10004ac8:	1c43      	adds	r3, r0, #1
10004aca:	d000      	beq.n	10004ace <_malloc_r+0x49a>
10004acc:	e6f4      	b.n	100048b8 <_malloc_r+0x284>
10004ace:	2300      	movs	r3, #0
10004ad0:	469b      	mov	fp, r3
10004ad2:	e6f6      	b.n	100048c2 <_malloc_r+0x28e>
10004ad4:	2a54      	cmp	r2, #84	; 0x54
10004ad6:	d82b      	bhi.n	10004b30 <_malloc_r+0x4fc>
10004ad8:	0b1a      	lsrs	r2, r3, #12
10004ada:	0011      	movs	r1, r2
10004adc:	326f      	adds	r2, #111	; 0x6f
10004ade:	316e      	adds	r1, #110	; 0x6e
10004ae0:	00d2      	lsls	r2, r2, #3
10004ae2:	e736      	b.n	10004952 <_malloc_r+0x31e>
10004ae4:	23aa      	movs	r3, #170	; 0xaa
10004ae6:	005b      	lsls	r3, r3, #1
10004ae8:	4298      	cmp	r0, r3
10004aea:	d82b      	bhi.n	10004b44 <_malloc_r+0x510>
10004aec:	3bdd      	subs	r3, #221	; 0xdd
10004aee:	4698      	mov	r8, r3
10004af0:	0be8      	lsrs	r0, r5, #15
10004af2:	4480      	add	r8, r0
10004af4:	3078      	adds	r0, #120	; 0x78
10004af6:	00c1      	lsls	r1, r0, #3
10004af8:	e5e5      	b.n	100046c6 <_malloc_r+0x92>
10004afa:	4b2c      	ldr	r3, [pc, #176]	; (10004bac <_malloc_r+0x578>)
10004afc:	9a00      	ldr	r2, [sp, #0]
10004afe:	469a      	mov	sl, r3
10004b00:	681b      	ldr	r3, [r3, #0]
10004b02:	469c      	mov	ip, r3
10004b04:	4653      	mov	r3, sl
10004b06:	4462      	add	r2, ip
10004b08:	601a      	str	r2, [r3, #0]
10004b0a:	e6ae      	b.n	1000486a <_malloc_r+0x236>
10004b0c:	0509      	lsls	r1, r1, #20
10004b0e:	d000      	beq.n	10004b12 <_malloc_r+0x4de>
10004b10:	e6ab      	b.n	1000486a <_malloc_r+0x236>
10004b12:	9a00      	ldr	r2, [sp, #0]
10004b14:	68bc      	ldr	r4, [r7, #8]
10004b16:	444a      	add	r2, r9
10004b18:	3101      	adds	r1, #1
10004b1a:	430a      	orrs	r2, r1
10004b1c:	6062      	str	r2, [r4, #4]
10004b1e:	e6f4      	b.n	1000490a <_malloc_r+0x2d6>
10004b20:	465b      	mov	r3, fp
10004b22:	4642      	mov	r2, r8
10004b24:	601a      	str	r2, [r3, #0]
10004b26:	e6ab      	b.n	10004880 <_malloc_r+0x24c>
10004b28:	4644      	mov	r4, r8
10004b2a:	e6ee      	b.n	1000490a <_malloc_r+0x2d6>
10004b2c:	6041      	str	r1, [r0, #4]
10004b2e:	e78d      	b.n	10004a4c <_malloc_r+0x418>
10004b30:	21aa      	movs	r1, #170	; 0xaa
10004b32:	0049      	lsls	r1, r1, #1
10004b34:	428a      	cmp	r2, r1
10004b36:	d824      	bhi.n	10004b82 <_malloc_r+0x54e>
10004b38:	0bda      	lsrs	r2, r3, #15
10004b3a:	0011      	movs	r1, r2
10004b3c:	3278      	adds	r2, #120	; 0x78
10004b3e:	3177      	adds	r1, #119	; 0x77
10004b40:	00d2      	lsls	r2, r2, #3
10004b42:	e706      	b.n	10004952 <_malloc_r+0x31e>
10004b44:	4b1a      	ldr	r3, [pc, #104]	; (10004bb0 <_malloc_r+0x57c>)
10004b46:	4298      	cmp	r0, r3
10004b48:	d824      	bhi.n	10004b94 <_malloc_r+0x560>
10004b4a:	237c      	movs	r3, #124	; 0x7c
10004b4c:	4698      	mov	r8, r3
10004b4e:	0ca8      	lsrs	r0, r5, #18
10004b50:	4480      	add	r8, r0
10004b52:	307d      	adds	r0, #125	; 0x7d
10004b54:	00c1      	lsls	r1, r0, #3
10004b56:	e5b6      	b.n	100046c6 <_malloc_r+0x92>
10004b58:	9a00      	ldr	r2, [sp, #0]
10004b5a:	9b01      	ldr	r3, [sp, #4]
10004b5c:	4694      	mov	ip, r2
10004b5e:	4642      	mov	r2, r8
10004b60:	3b08      	subs	r3, #8
10004b62:	4463      	add	r3, ip
10004b64:	1a9b      	subs	r3, r3, r2
10004b66:	9300      	str	r3, [sp, #0]
10004b68:	2300      	movs	r3, #0
10004b6a:	469b      	mov	fp, r3
10004b6c:	e6a9      	b.n	100048c2 <_malloc_r+0x28e>
10004b6e:	0021      	movs	r1, r4
10004b70:	0030      	movs	r0, r6
10004b72:	3108      	adds	r1, #8
10004b74:	f000 f8bc 	bl	10004cf0 <_free_r>
10004b78:	4653      	mov	r3, sl
10004b7a:	68bc      	ldr	r4, [r7, #8]
10004b7c:	681b      	ldr	r3, [r3, #0]
10004b7e:	6862      	ldr	r2, [r4, #4]
10004b80:	e6c3      	b.n	1000490a <_malloc_r+0x2d6>
10004b82:	490b      	ldr	r1, [pc, #44]	; (10004bb0 <_malloc_r+0x57c>)
10004b84:	428a      	cmp	r2, r1
10004b86:	d80b      	bhi.n	10004ba0 <_malloc_r+0x56c>
10004b88:	0c9a      	lsrs	r2, r3, #18
10004b8a:	0011      	movs	r1, r2
10004b8c:	327d      	adds	r2, #125	; 0x7d
10004b8e:	317c      	adds	r1, #124	; 0x7c
10004b90:	00d2      	lsls	r2, r2, #3
10004b92:	e6de      	b.n	10004952 <_malloc_r+0x31e>
10004b94:	21fe      	movs	r1, #254	; 0xfe
10004b96:	237e      	movs	r3, #126	; 0x7e
10004b98:	207f      	movs	r0, #127	; 0x7f
10004b9a:	4698      	mov	r8, r3
10004b9c:	0089      	lsls	r1, r1, #2
10004b9e:	e592      	b.n	100046c6 <_malloc_r+0x92>
10004ba0:	22fe      	movs	r2, #254	; 0xfe
10004ba2:	217e      	movs	r1, #126	; 0x7e
10004ba4:	0092      	lsls	r2, r2, #2
10004ba6:	e6d4      	b.n	10004952 <_malloc_r+0x31e>
10004ba8:	687b      	ldr	r3, [r7, #4]
10004baa:	e76a      	b.n	10004a82 <_malloc_r+0x44e>
10004bac:	20000a88 	.word	0x20000a88
10004bb0:	00000554 	.word	0x00000554

10004bb4 <__malloc_lock>:
10004bb4:	b510      	push	{r4, lr}
10004bb6:	4802      	ldr	r0, [pc, #8]	; (10004bc0 <__malloc_lock+0xc>)
10004bb8:	f000 f9b0 	bl	10004f1c <__retarget_lock_acquire_recursive>
10004bbc:	bd10      	pop	{r4, pc}
10004bbe:	46c0      	nop			; (mov r8, r8)
10004bc0:	20001514 	.word	0x20001514

10004bc4 <__malloc_unlock>:
10004bc4:	b510      	push	{r4, lr}
10004bc6:	4802      	ldr	r0, [pc, #8]	; (10004bd0 <__malloc_unlock+0xc>)
10004bc8:	f000 f9aa 	bl	10004f20 <__retarget_lock_release_recursive>
10004bcc:	bd10      	pop	{r4, pc}
10004bce:	46c0      	nop			; (mov r8, r8)
10004bd0:	20001514 	.word	0x20001514

10004bd4 <_sbrk_r>:
10004bd4:	2300      	movs	r3, #0
10004bd6:	b570      	push	{r4, r5, r6, lr}
10004bd8:	4d06      	ldr	r5, [pc, #24]	; (10004bf4 <_sbrk_r+0x20>)
10004bda:	0004      	movs	r4, r0
10004bdc:	0008      	movs	r0, r1
10004bde:	602b      	str	r3, [r5, #0]
10004be0:	f7fc fbbc 	bl	1000135c <_sbrk>
10004be4:	1c43      	adds	r3, r0, #1
10004be6:	d000      	beq.n	10004bea <_sbrk_r+0x16>
10004be8:	bd70      	pop	{r4, r5, r6, pc}
10004bea:	682b      	ldr	r3, [r5, #0]
10004bec:	2b00      	cmp	r3, #0
10004bee:	d0fb      	beq.n	10004be8 <_sbrk_r+0x14>
10004bf0:	6023      	str	r3, [r4, #0]
10004bf2:	e7f9      	b.n	10004be8 <_sbrk_r+0x14>
10004bf4:	20001528 	.word	0x20001528

10004bf8 <strlen>:
10004bf8:	b510      	push	{r4, lr}
10004bfa:	0783      	lsls	r3, r0, #30
10004bfc:	d00a      	beq.n	10004c14 <strlen+0x1c>
10004bfe:	0003      	movs	r3, r0
10004c00:	2103      	movs	r1, #3
10004c02:	e002      	b.n	10004c0a <strlen+0x12>
10004c04:	3301      	adds	r3, #1
10004c06:	420b      	tst	r3, r1
10004c08:	d005      	beq.n	10004c16 <strlen+0x1e>
10004c0a:	781a      	ldrb	r2, [r3, #0]
10004c0c:	2a00      	cmp	r2, #0
10004c0e:	d1f9      	bne.n	10004c04 <strlen+0xc>
10004c10:	1a18      	subs	r0, r3, r0
10004c12:	bd10      	pop	{r4, pc}
10004c14:	0003      	movs	r3, r0
10004c16:	6819      	ldr	r1, [r3, #0]
10004c18:	4a0c      	ldr	r2, [pc, #48]	; (10004c4c <strlen+0x54>)
10004c1a:	4c0d      	ldr	r4, [pc, #52]	; (10004c50 <strlen+0x58>)
10004c1c:	188a      	adds	r2, r1, r2
10004c1e:	438a      	bics	r2, r1
10004c20:	4222      	tst	r2, r4
10004c22:	d10f      	bne.n	10004c44 <strlen+0x4c>
10004c24:	6859      	ldr	r1, [r3, #4]
10004c26:	4a09      	ldr	r2, [pc, #36]	; (10004c4c <strlen+0x54>)
10004c28:	3304      	adds	r3, #4
10004c2a:	188a      	adds	r2, r1, r2
10004c2c:	438a      	bics	r2, r1
10004c2e:	4222      	tst	r2, r4
10004c30:	d108      	bne.n	10004c44 <strlen+0x4c>
10004c32:	6859      	ldr	r1, [r3, #4]
10004c34:	4a05      	ldr	r2, [pc, #20]	; (10004c4c <strlen+0x54>)
10004c36:	3304      	adds	r3, #4
10004c38:	188a      	adds	r2, r1, r2
10004c3a:	438a      	bics	r2, r1
10004c3c:	4222      	tst	r2, r4
10004c3e:	d0f1      	beq.n	10004c24 <strlen+0x2c>
10004c40:	e000      	b.n	10004c44 <strlen+0x4c>
10004c42:	3301      	adds	r3, #1
10004c44:	781a      	ldrb	r2, [r3, #0]
10004c46:	2a00      	cmp	r2, #0
10004c48:	d1fb      	bne.n	10004c42 <strlen+0x4a>
10004c4a:	e7e1      	b.n	10004c10 <strlen+0x18>
10004c4c:	fefefeff 	.word	0xfefefeff
10004c50:	80808080 	.word	0x80808080

10004c54 <_malloc_trim_r>:
10004c54:	b5f8      	push	{r3, r4, r5, r6, r7, lr}
10004c56:	000c      	movs	r4, r1
10004c58:	0005      	movs	r5, r0
10004c5a:	f7ff ffab 	bl	10004bb4 <__malloc_lock>
10004c5e:	4f20      	ldr	r7, [pc, #128]	; (10004ce0 <_malloc_trim_r+0x8c>)
10004c60:	68bb      	ldr	r3, [r7, #8]
10004c62:	685e      	ldr	r6, [r3, #4]
10004c64:	2303      	movs	r3, #3
10004c66:	439e      	bics	r6, r3
10004c68:	4b1e      	ldr	r3, [pc, #120]	; (10004ce4 <_malloc_trim_r+0x90>)
10004c6a:	1b34      	subs	r4, r6, r4
10004c6c:	469c      	mov	ip, r3
10004c6e:	4464      	add	r4, ip
10004c70:	0b24      	lsrs	r4, r4, #12
10004c72:	3c01      	subs	r4, #1
10004c74:	3311      	adds	r3, #17
10004c76:	0324      	lsls	r4, r4, #12
10004c78:	429c      	cmp	r4, r3
10004c7a:	db07      	blt.n	10004c8c <_malloc_trim_r+0x38>
10004c7c:	2100      	movs	r1, #0
10004c7e:	0028      	movs	r0, r5
10004c80:	f7ff ffa8 	bl	10004bd4 <_sbrk_r>
10004c84:	68bb      	ldr	r3, [r7, #8]
10004c86:	199b      	adds	r3, r3, r6
10004c88:	4298      	cmp	r0, r3
10004c8a:	d004      	beq.n	10004c96 <_malloc_trim_r+0x42>
10004c8c:	0028      	movs	r0, r5
10004c8e:	f7ff ff99 	bl	10004bc4 <__malloc_unlock>
10004c92:	2000      	movs	r0, #0
10004c94:	bdf8      	pop	{r3, r4, r5, r6, r7, pc}
10004c96:	0028      	movs	r0, r5
10004c98:	4261      	negs	r1, r4
10004c9a:	f7ff ff9b 	bl	10004bd4 <_sbrk_r>
10004c9e:	1c43      	adds	r3, r0, #1
10004ca0:	d00d      	beq.n	10004cbe <_malloc_trim_r+0x6a>
10004ca2:	2201      	movs	r2, #1
10004ca4:	68bb      	ldr	r3, [r7, #8]
10004ca6:	1b36      	subs	r6, r6, r4
10004ca8:	4316      	orrs	r6, r2
10004caa:	605e      	str	r6, [r3, #4]
10004cac:	4b0e      	ldr	r3, [pc, #56]	; (10004ce8 <_malloc_trim_r+0x94>)
10004cae:	0028      	movs	r0, r5
10004cb0:	681a      	ldr	r2, [r3, #0]
10004cb2:	1b14      	subs	r4, r2, r4
10004cb4:	601c      	str	r4, [r3, #0]
10004cb6:	f7ff ff85 	bl	10004bc4 <__malloc_unlock>
10004cba:	2001      	movs	r0, #1
10004cbc:	e7ea      	b.n	10004c94 <_malloc_trim_r+0x40>
10004cbe:	2100      	movs	r1, #0
10004cc0:	0028      	movs	r0, r5
10004cc2:	f7ff ff87 	bl	10004bd4 <_sbrk_r>
10004cc6:	68ba      	ldr	r2, [r7, #8]
10004cc8:	1a83      	subs	r3, r0, r2
10004cca:	2b0f      	cmp	r3, #15
10004ccc:	ddde      	ble.n	10004c8c <_malloc_trim_r+0x38>
10004cce:	4907      	ldr	r1, [pc, #28]	; (10004cec <_malloc_trim_r+0x98>)
10004cd0:	6809      	ldr	r1, [r1, #0]
10004cd2:	1a40      	subs	r0, r0, r1
10004cd4:	4904      	ldr	r1, [pc, #16]	; (10004ce8 <_malloc_trim_r+0x94>)
10004cd6:	6008      	str	r0, [r1, #0]
10004cd8:	2101      	movs	r1, #1
10004cda:	430b      	orrs	r3, r1
10004cdc:	6053      	str	r3, [r2, #4]
10004cde:	e7d5      	b.n	10004c8c <_malloc_trim_r+0x38>
10004ce0:	20000640 	.word	0x20000640
10004ce4:	00000fef 	.word	0x00000fef
10004ce8:	20000a88 	.word	0x20000a88
10004cec:	20000a48 	.word	0x20000a48

10004cf0 <_free_r>:
10004cf0:	b5f0      	push	{r4, r5, r6, r7, lr}
10004cf2:	46c6      	mov	lr, r8
10004cf4:	0005      	movs	r5, r0
10004cf6:	000c      	movs	r4, r1
10004cf8:	b500      	push	{lr}
10004cfa:	2900      	cmp	r1, #0
10004cfc:	d04f      	beq.n	10004d9e <_free_r+0xae>
10004cfe:	f7ff ff59 	bl	10004bb4 <__malloc_lock>
10004d02:	0021      	movs	r1, r4
10004d04:	3908      	subs	r1, #8
10004d06:	684c      	ldr	r4, [r1, #4]
10004d08:	2601      	movs	r6, #1
10004d0a:	0022      	movs	r2, r4
10004d0c:	2003      	movs	r0, #3
10004d0e:	43b2      	bics	r2, r6
10004d10:	188f      	adds	r7, r1, r2
10004d12:	687b      	ldr	r3, [r7, #4]
10004d14:	4383      	bics	r3, r0
10004d16:	4862      	ldr	r0, [pc, #392]	; (10004ea0 <_free_r+0x1b0>)
10004d18:	4698      	mov	r8, r3
10004d1a:	6883      	ldr	r3, [r0, #8]
10004d1c:	42bb      	cmp	r3, r7
10004d1e:	d06b      	beq.n	10004df8 <_free_r+0x108>
10004d20:	4643      	mov	r3, r8
10004d22:	607b      	str	r3, [r7, #4]
10004d24:	4226      	tst	r6, r4
10004d26:	d11e      	bne.n	10004d66 <_free_r+0x76>
10004d28:	2308      	movs	r3, #8
10004d2a:	469c      	mov	ip, r3
10004d2c:	680c      	ldr	r4, [r1, #0]
10004d2e:	4484      	add	ip, r0
10004d30:	1b09      	subs	r1, r1, r4
10004d32:	1912      	adds	r2, r2, r4
10004d34:	688c      	ldr	r4, [r1, #8]
10004d36:	4564      	cmp	r4, ip
10004d38:	d04f      	beq.n	10004dda <_free_r+0xea>
10004d3a:	68cb      	ldr	r3, [r1, #12]
10004d3c:	60e3      	str	r3, [r4, #12]
10004d3e:	609c      	str	r4, [r3, #8]
10004d40:	4643      	mov	r3, r8
10004d42:	18fc      	adds	r4, r7, r3
10004d44:	6864      	ldr	r4, [r4, #4]
10004d46:	4234      	tst	r4, r6
10004d48:	d111      	bne.n	10004d6e <_free_r+0x7e>
10004d4a:	68bb      	ldr	r3, [r7, #8]
10004d4c:	4c55      	ldr	r4, [pc, #340]	; (10004ea4 <_free_r+0x1b4>)
10004d4e:	4442      	add	r2, r8
10004d50:	42a3      	cmp	r3, r4
10004d52:	d100      	bne.n	10004d56 <_free_r+0x66>
10004d54:	e07f      	b.n	10004e56 <_free_r+0x166>
10004d56:	68fc      	ldr	r4, [r7, #12]
10004d58:	60dc      	str	r4, [r3, #12]
10004d5a:	60a3      	str	r3, [r4, #8]
10004d5c:	2301      	movs	r3, #1
10004d5e:	4313      	orrs	r3, r2
10004d60:	604b      	str	r3, [r1, #4]
10004d62:	508a      	str	r2, [r1, r2]
10004d64:	e006      	b.n	10004d74 <_free_r+0x84>
10004d66:	18fc      	adds	r4, r7, r3
10004d68:	6864      	ldr	r4, [r4, #4]
10004d6a:	4234      	tst	r4, r6
10004d6c:	d0ed      	beq.n	10004d4a <_free_r+0x5a>
10004d6e:	4316      	orrs	r6, r2
10004d70:	604e      	str	r6, [r1, #4]
10004d72:	603a      	str	r2, [r7, #0]
10004d74:	2380      	movs	r3, #128	; 0x80
10004d76:	009b      	lsls	r3, r3, #2
10004d78:	429a      	cmp	r2, r3
10004d7a:	d213      	bcs.n	10004da4 <_free_r+0xb4>
10004d7c:	0954      	lsrs	r4, r2, #5
10004d7e:	08d3      	lsrs	r3, r2, #3
10004d80:	2201      	movs	r2, #1
10004d82:	40a2      	lsls	r2, r4
10004d84:	6844      	ldr	r4, [r0, #4]
10004d86:	00db      	lsls	r3, r3, #3
10004d88:	4322      	orrs	r2, r4
10004d8a:	6042      	str	r2, [r0, #4]
10004d8c:	1818      	adds	r0, r3, r0
10004d8e:	6883      	ldr	r3, [r0, #8]
10004d90:	60c8      	str	r0, [r1, #12]
10004d92:	608b      	str	r3, [r1, #8]
10004d94:	6081      	str	r1, [r0, #8]
10004d96:	60d9      	str	r1, [r3, #12]
10004d98:	0028      	movs	r0, r5
10004d9a:	f7ff ff13 	bl	10004bc4 <__malloc_unlock>
10004d9e:	bc04      	pop	{r2}
10004da0:	4690      	mov	r8, r2
10004da2:	bdf0      	pop	{r4, r5, r6, r7, pc}
10004da4:	0a53      	lsrs	r3, r2, #9
10004da6:	2b04      	cmp	r3, #4
10004da8:	d83f      	bhi.n	10004e2a <_free_r+0x13a>
10004daa:	0994      	lsrs	r4, r2, #6
10004dac:	0026      	movs	r6, r4
10004dae:	3439      	adds	r4, #57	; 0x39
10004db0:	3638      	adds	r6, #56	; 0x38
10004db2:	00e4      	lsls	r4, r4, #3
10004db4:	1904      	adds	r4, r0, r4
10004db6:	6823      	ldr	r3, [r4, #0]
10004db8:	3c08      	subs	r4, #8
10004dba:	2703      	movs	r7, #3
10004dbc:	429c      	cmp	r4, r3
10004dbe:	d043      	beq.n	10004e48 <_free_r+0x158>
10004dc0:	6858      	ldr	r0, [r3, #4]
10004dc2:	43b8      	bics	r0, r7
10004dc4:	4290      	cmp	r0, r2
10004dc6:	d902      	bls.n	10004dce <_free_r+0xde>
10004dc8:	689b      	ldr	r3, [r3, #8]
10004dca:	429c      	cmp	r4, r3
10004dcc:	d1f8      	bne.n	10004dc0 <_free_r+0xd0>
10004dce:	68dc      	ldr	r4, [r3, #12]
10004dd0:	60cc      	str	r4, [r1, #12]
10004dd2:	608b      	str	r3, [r1, #8]
10004dd4:	60a1      	str	r1, [r4, #8]
10004dd6:	60d9      	str	r1, [r3, #12]
10004dd8:	e7de      	b.n	10004d98 <_free_r+0xa8>
10004dda:	4643      	mov	r3, r8
10004ddc:	18f8      	adds	r0, r7, r3
10004dde:	6840      	ldr	r0, [r0, #4]
10004de0:	4230      	tst	r0, r6
10004de2:	d158      	bne.n	10004e96 <_free_r+0x1a6>
10004de4:	0013      	movs	r3, r2
10004de6:	68b8      	ldr	r0, [r7, #8]
10004de8:	68fa      	ldr	r2, [r7, #12]
10004dea:	4443      	add	r3, r8
10004dec:	431e      	orrs	r6, r3
10004dee:	60c2      	str	r2, [r0, #12]
10004df0:	6090      	str	r0, [r2, #8]
10004df2:	604e      	str	r6, [r1, #4]
10004df4:	50cb      	str	r3, [r1, r3]
10004df6:	e7cf      	b.n	10004d98 <_free_r+0xa8>
10004df8:	0013      	movs	r3, r2
10004dfa:	4443      	add	r3, r8
10004dfc:	4226      	tst	r6, r4
10004dfe:	d106      	bne.n	10004e0e <_free_r+0x11e>
10004e00:	680a      	ldr	r2, [r1, #0]
10004e02:	1a89      	subs	r1, r1, r2
10004e04:	688c      	ldr	r4, [r1, #8]
10004e06:	189b      	adds	r3, r3, r2
10004e08:	68ca      	ldr	r2, [r1, #12]
10004e0a:	60e2      	str	r2, [r4, #12]
10004e0c:	6094      	str	r4, [r2, #8]
10004e0e:	2201      	movs	r2, #1
10004e10:	431a      	orrs	r2, r3
10004e12:	604a      	str	r2, [r1, #4]
10004e14:	4a24      	ldr	r2, [pc, #144]	; (10004ea8 <_free_r+0x1b8>)
10004e16:	6081      	str	r1, [r0, #8]
10004e18:	6812      	ldr	r2, [r2, #0]
10004e1a:	429a      	cmp	r2, r3
10004e1c:	d8bc      	bhi.n	10004d98 <_free_r+0xa8>
10004e1e:	4b23      	ldr	r3, [pc, #140]	; (10004eac <_free_r+0x1bc>)
10004e20:	0028      	movs	r0, r5
10004e22:	6819      	ldr	r1, [r3, #0]
10004e24:	f7ff ff16 	bl	10004c54 <_malloc_trim_r>
10004e28:	e7b6      	b.n	10004d98 <_free_r+0xa8>
10004e2a:	2b14      	cmp	r3, #20
10004e2c:	d907      	bls.n	10004e3e <_free_r+0x14e>
10004e2e:	2b54      	cmp	r3, #84	; 0x54
10004e30:	d81a      	bhi.n	10004e68 <_free_r+0x178>
10004e32:	0b14      	lsrs	r4, r2, #12
10004e34:	0026      	movs	r6, r4
10004e36:	346f      	adds	r4, #111	; 0x6f
10004e38:	366e      	adds	r6, #110	; 0x6e
10004e3a:	00e4      	lsls	r4, r4, #3
10004e3c:	e7ba      	b.n	10004db4 <_free_r+0xc4>
10004e3e:	001e      	movs	r6, r3
10004e40:	335c      	adds	r3, #92	; 0x5c
10004e42:	365b      	adds	r6, #91	; 0x5b
10004e44:	00dc      	lsls	r4, r3, #3
10004e46:	e7b5      	b.n	10004db4 <_free_r+0xc4>
10004e48:	2201      	movs	r2, #1
10004e4a:	10b6      	asrs	r6, r6, #2
10004e4c:	40b2      	lsls	r2, r6
10004e4e:	6846      	ldr	r6, [r0, #4]
10004e50:	4332      	orrs	r2, r6
10004e52:	6042      	str	r2, [r0, #4]
10004e54:	e7bc      	b.n	10004dd0 <_free_r+0xe0>
10004e56:	60d9      	str	r1, [r3, #12]
10004e58:	6099      	str	r1, [r3, #8]
10004e5a:	60cb      	str	r3, [r1, #12]
10004e5c:	608b      	str	r3, [r1, #8]
10004e5e:	2301      	movs	r3, #1
10004e60:	4313      	orrs	r3, r2
10004e62:	604b      	str	r3, [r1, #4]
10004e64:	508a      	str	r2, [r1, r2]
10004e66:	e797      	b.n	10004d98 <_free_r+0xa8>
10004e68:	24aa      	movs	r4, #170	; 0xaa
10004e6a:	0064      	lsls	r4, r4, #1
10004e6c:	42a3      	cmp	r3, r4
10004e6e:	d805      	bhi.n	10004e7c <_free_r+0x18c>
10004e70:	0bd4      	lsrs	r4, r2, #15
10004e72:	0026      	movs	r6, r4
10004e74:	3478      	adds	r4, #120	; 0x78
10004e76:	3677      	adds	r6, #119	; 0x77
10004e78:	00e4      	lsls	r4, r4, #3
10004e7a:	e79b      	b.n	10004db4 <_free_r+0xc4>
10004e7c:	4c0c      	ldr	r4, [pc, #48]	; (10004eb0 <_free_r+0x1c0>)
10004e7e:	42a3      	cmp	r3, r4
10004e80:	d805      	bhi.n	10004e8e <_free_r+0x19e>
10004e82:	0c94      	lsrs	r4, r2, #18
10004e84:	0026      	movs	r6, r4
10004e86:	347d      	adds	r4, #125	; 0x7d
10004e88:	367c      	adds	r6, #124	; 0x7c
10004e8a:	00e4      	lsls	r4, r4, #3
10004e8c:	e792      	b.n	10004db4 <_free_r+0xc4>
10004e8e:	24fe      	movs	r4, #254	; 0xfe
10004e90:	267e      	movs	r6, #126	; 0x7e
10004e92:	00a4      	lsls	r4, r4, #2
10004e94:	e78e      	b.n	10004db4 <_free_r+0xc4>
10004e96:	0033      	movs	r3, r6
10004e98:	4313      	orrs	r3, r2
10004e9a:	604b      	str	r3, [r1, #4]
10004e9c:	603a      	str	r2, [r7, #0]
10004e9e:	e77b      	b.n	10004d98 <_free_r+0xa8>
10004ea0:	20000640 	.word	0x20000640
10004ea4:	20000648 	.word	0x20000648
10004ea8:	20000a4c 	.word	0x20000a4c
10004eac:	20000ab8 	.word	0x20000ab8
10004eb0:	00000554 	.word	0x00000554

10004eb4 <_getc_r>:
10004eb4:	b570      	push	{r4, r5, r6, lr}
10004eb6:	0005      	movs	r5, r0
10004eb8:	000c      	movs	r4, r1
10004eba:	2800      	cmp	r0, #0
10004ebc:	d002      	beq.n	10004ec4 <_getc_r+0x10>
10004ebe:	6b83      	ldr	r3, [r0, #56]	; 0x38
10004ec0:	2b00      	cmp	r3, #0
10004ec2:	d016      	beq.n	10004ef2 <_getc_r+0x3e>
10004ec4:	6e63      	ldr	r3, [r4, #100]	; 0x64
10004ec6:	07db      	lsls	r3, r3, #31
10004ec8:	d402      	bmi.n	10004ed0 <_getc_r+0x1c>
10004eca:	89a3      	ldrh	r3, [r4, #12]
10004ecc:	059b      	lsls	r3, r3, #22
10004ece:	d51d      	bpl.n	10004f0c <_getc_r+0x58>
10004ed0:	6863      	ldr	r3, [r4, #4]
10004ed2:	3b01      	subs	r3, #1
10004ed4:	6063      	str	r3, [r4, #4]
10004ed6:	2b00      	cmp	r3, #0
10004ed8:	db0e      	blt.n	10004ef8 <_getc_r+0x44>
10004eda:	6823      	ldr	r3, [r4, #0]
10004edc:	1c5a      	adds	r2, r3, #1
10004ede:	6022      	str	r2, [r4, #0]
10004ee0:	781d      	ldrb	r5, [r3, #0]
10004ee2:	6e63      	ldr	r3, [r4, #100]	; 0x64
10004ee4:	07db      	lsls	r3, r3, #31
10004ee6:	d402      	bmi.n	10004eee <_getc_r+0x3a>
10004ee8:	89a3      	ldrh	r3, [r4, #12]
10004eea:	059b      	lsls	r3, r3, #22
10004eec:	d50a      	bpl.n	10004f04 <_getc_r+0x50>
10004eee:	0028      	movs	r0, r5
10004ef0:	bd70      	pop	{r4, r5, r6, pc}
10004ef2:	f000 f863 	bl	10004fbc <__sinit>
10004ef6:	e7e5      	b.n	10004ec4 <_getc_r+0x10>
10004ef8:	0028      	movs	r0, r5
10004efa:	0021      	movs	r1, r4
10004efc:	f000 f812 	bl	10004f24 <__srget_r>
10004f00:	0005      	movs	r5, r0
10004f02:	e7ee      	b.n	10004ee2 <_getc_r+0x2e>
10004f04:	6da0      	ldr	r0, [r4, #88]	; 0x58
10004f06:	f000 f80b 	bl	10004f20 <__retarget_lock_release_recursive>
10004f0a:	e7f0      	b.n	10004eee <_getc_r+0x3a>
10004f0c:	6da0      	ldr	r0, [r4, #88]	; 0x58
10004f0e:	f000 f805 	bl	10004f1c <__retarget_lock_acquire_recursive>
10004f12:	e7dd      	b.n	10004ed0 <_getc_r+0x1c>

10004f14 <__retarget_lock_init_recursive>:
10004f14:	4770      	bx	lr
10004f16:	46c0      	nop			; (mov r8, r8)

10004f18 <__retarget_lock_close_recursive>:
10004f18:	4770      	bx	lr
10004f1a:	46c0      	nop			; (mov r8, r8)

10004f1c <__retarget_lock_acquire_recursive>:
10004f1c:	4770      	bx	lr
10004f1e:	46c0      	nop			; (mov r8, r8)

10004f20 <__retarget_lock_release_recursive>:
10004f20:	4770      	bx	lr
10004f22:	46c0      	nop			; (mov r8, r8)

10004f24 <__srget_r>:
10004f24:	b570      	push	{r4, r5, r6, lr}
10004f26:	0005      	movs	r5, r0
10004f28:	000c      	movs	r4, r1
10004f2a:	2800      	cmp	r0, #0
10004f2c:	d002      	beq.n	10004f34 <__srget_r+0x10>
10004f2e:	6b83      	ldr	r3, [r0, #56]	; 0x38
10004f30:	2b00      	cmp	r3, #0
10004f32:	d00d      	beq.n	10004f50 <__srget_r+0x2c>
10004f34:	0021      	movs	r1, r4
10004f36:	0028      	movs	r0, r5
10004f38:	f000 f8d2 	bl	100050e0 <__srefill_r>
10004f3c:	2800      	cmp	r0, #0
10004f3e:	d10a      	bne.n	10004f56 <__srget_r+0x32>
10004f40:	6863      	ldr	r3, [r4, #4]
10004f42:	3b01      	subs	r3, #1
10004f44:	6063      	str	r3, [r4, #4]
10004f46:	6823      	ldr	r3, [r4, #0]
10004f48:	1c5a      	adds	r2, r3, #1
10004f4a:	6022      	str	r2, [r4, #0]
10004f4c:	7818      	ldrb	r0, [r3, #0]
10004f4e:	bd70      	pop	{r4, r5, r6, pc}
10004f50:	f000 f834 	bl	10004fbc <__sinit>
10004f54:	e7ee      	b.n	10004f34 <__srget_r+0x10>
10004f56:	2001      	movs	r0, #1
10004f58:	4240      	negs	r0, r0
10004f5a:	e7f8      	b.n	10004f4e <__srget_r+0x2a>

10004f5c <std>:
10004f5c:	2300      	movs	r3, #0
10004f5e:	b510      	push	{r4, lr}
10004f60:	0004      	movs	r4, r0
10004f62:	6003      	str	r3, [r0, #0]
10004f64:	6043      	str	r3, [r0, #4]
10004f66:	6083      	str	r3, [r0, #8]
10004f68:	8181      	strh	r1, [r0, #12]
10004f6a:	6643      	str	r3, [r0, #100]	; 0x64
10004f6c:	2100      	movs	r1, #0
10004f6e:	81c2      	strh	r2, [r0, #14]
10004f70:	6103      	str	r3, [r0, #16]
10004f72:	2208      	movs	r2, #8
10004f74:	6143      	str	r3, [r0, #20]
10004f76:	6183      	str	r3, [r0, #24]
10004f78:	305c      	adds	r0, #92	; 0x5c
10004f7a:	f7ff f819 	bl	10003fb0 <__wrap_memset>
10004f7e:	0020      	movs	r0, r4
10004f80:	4b06      	ldr	r3, [pc, #24]	; (10004f9c <std+0x40>)
10004f82:	61e4      	str	r4, [r4, #28]
10004f84:	6223      	str	r3, [r4, #32]
10004f86:	4b06      	ldr	r3, [pc, #24]	; (10004fa0 <std+0x44>)
10004f88:	3058      	adds	r0, #88	; 0x58
10004f8a:	6263      	str	r3, [r4, #36]	; 0x24
10004f8c:	4b05      	ldr	r3, [pc, #20]	; (10004fa4 <std+0x48>)
10004f8e:	62a3      	str	r3, [r4, #40]	; 0x28
10004f90:	4b05      	ldr	r3, [pc, #20]	; (10004fa8 <std+0x4c>)
10004f92:	62e3      	str	r3, [r4, #44]	; 0x2c
10004f94:	f7ff ffbe 	bl	10004f14 <__retarget_lock_init_recursive>
10004f98:	bd10      	pop	{r4, pc}
10004f9a:	46c0      	nop			; (mov r8, r8)
10004f9c:	10005205 	.word	0x10005205
10004fa0:	1000522d 	.word	0x1000522d
10004fa4:	1000526d 	.word	0x1000526d
10004fa8:	10005299 	.word	0x10005299

10004fac <_cleanup_r>:
10004fac:	b510      	push	{r4, lr}
10004fae:	4902      	ldr	r1, [pc, #8]	; (10004fb8 <_cleanup_r+0xc>)
10004fb0:	f000 f864 	bl	1000507c <_fwalk_reent>
10004fb4:	bd10      	pop	{r4, pc}
10004fb6:	46c0      	nop			; (mov r8, r8)
10004fb8:	100052f1 	.word	0x100052f1

10004fbc <__sinit>:
10004fbc:	b570      	push	{r4, r5, r6, lr}
10004fbe:	0004      	movs	r4, r0
10004fc0:	4d14      	ldr	r5, [pc, #80]	; (10005014 <__sinit+0x58>)
10004fc2:	0028      	movs	r0, r5
10004fc4:	f7ff ffaa 	bl	10004f1c <__retarget_lock_acquire_recursive>
10004fc8:	6ba3      	ldr	r3, [r4, #56]	; 0x38
10004fca:	2b00      	cmp	r3, #0
10004fcc:	d11d      	bne.n	1000500a <__sinit+0x4e>
10004fce:	4a12      	ldr	r2, [pc, #72]	; (10005018 <__sinit+0x5c>)
10004fd0:	2104      	movs	r1, #4
10004fd2:	63e2      	str	r2, [r4, #60]	; 0x3c
10004fd4:	22b8      	movs	r2, #184	; 0xb8
10004fd6:	0092      	lsls	r2, r2, #2
10004fd8:	50a3      	str	r3, [r4, r2]
10004fda:	23b9      	movs	r3, #185	; 0xb9
10004fdc:	2203      	movs	r2, #3
10004fde:	009b      	lsls	r3, r3, #2
10004fe0:	50e2      	str	r2, [r4, r3]
10004fe2:	3308      	adds	r3, #8
10004fe4:	18e2      	adds	r2, r4, r3
10004fe6:	3b04      	subs	r3, #4
10004fe8:	50e2      	str	r2, [r4, r3]
10004fea:	6860      	ldr	r0, [r4, #4]
10004fec:	2200      	movs	r2, #0
10004fee:	f7ff ffb5 	bl	10004f5c <std>
10004ff2:	2201      	movs	r2, #1
10004ff4:	2109      	movs	r1, #9
10004ff6:	68a0      	ldr	r0, [r4, #8]
10004ff8:	f7ff ffb0 	bl	10004f5c <std>
10004ffc:	2202      	movs	r2, #2
10004ffe:	2112      	movs	r1, #18
10005000:	68e0      	ldr	r0, [r4, #12]
10005002:	f7ff ffab 	bl	10004f5c <std>
10005006:	2301      	movs	r3, #1
10005008:	63a3      	str	r3, [r4, #56]	; 0x38
1000500a:	0028      	movs	r0, r5
1000500c:	f7ff ff88 	bl	10004f20 <__retarget_lock_release_recursive>
10005010:	bd70      	pop	{r4, r5, r6, pc}
10005012:	46c0      	nop			; (mov r8, r8)
10005014:	20001510 	.word	0x20001510
10005018:	10004fad 	.word	0x10004fad

1000501c <__sfp_lock_acquire>:
1000501c:	b510      	push	{r4, lr}
1000501e:	4802      	ldr	r0, [pc, #8]	; (10005028 <__sfp_lock_acquire+0xc>)
10005020:	f7ff ff7c 	bl	10004f1c <__retarget_lock_acquire_recursive>
10005024:	bd10      	pop	{r4, pc}
10005026:	46c0      	nop			; (mov r8, r8)
10005028:	20001524 	.word	0x20001524

1000502c <__sfp_lock_release>:
1000502c:	b510      	push	{r4, lr}
1000502e:	4802      	ldr	r0, [pc, #8]	; (10005038 <__sfp_lock_release+0xc>)
10005030:	f7ff ff76 	bl	10004f20 <__retarget_lock_release_recursive>
10005034:	bd10      	pop	{r4, pc}
10005036:	46c0      	nop			; (mov r8, r8)
10005038:	20001524 	.word	0x20001524

1000503c <_fwalk>:
1000503c:	b5f0      	push	{r4, r5, r6, r7, lr}
1000503e:	46c6      	mov	lr, r8
10005040:	23b8      	movs	r3, #184	; 0xb8
10005042:	4688      	mov	r8, r1
10005044:	2600      	movs	r6, #0
10005046:	b500      	push	{lr}
10005048:	009b      	lsls	r3, r3, #2
1000504a:	18c7      	adds	r7, r0, r3
1000504c:	687b      	ldr	r3, [r7, #4]
1000504e:	68bc      	ldr	r4, [r7, #8]
10005050:	1e5d      	subs	r5, r3, #1
10005052:	d40c      	bmi.n	1000506e <_fwalk+0x32>
10005054:	89a3      	ldrh	r3, [r4, #12]
10005056:	2b01      	cmp	r3, #1
10005058:	d906      	bls.n	10005068 <_fwalk+0x2c>
1000505a:	220e      	movs	r2, #14
1000505c:	5ea3      	ldrsh	r3, [r4, r2]
1000505e:	3301      	adds	r3, #1
10005060:	d002      	beq.n	10005068 <_fwalk+0x2c>
10005062:	0020      	movs	r0, r4
10005064:	47c0      	blx	r8
10005066:	4306      	orrs	r6, r0
10005068:	3468      	adds	r4, #104	; 0x68
1000506a:	3d01      	subs	r5, #1
1000506c:	d2f2      	bcs.n	10005054 <_fwalk+0x18>
1000506e:	683f      	ldr	r7, [r7, #0]
10005070:	2f00      	cmp	r7, #0
10005072:	d1eb      	bne.n	1000504c <_fwalk+0x10>
10005074:	0030      	movs	r0, r6
10005076:	bc04      	pop	{r2}
10005078:	4690      	mov	r8, r2
1000507a:	bdf0      	pop	{r4, r5, r6, r7, pc}

1000507c <_fwalk_reent>:
1000507c:	b5f8      	push	{r3, r4, r5, r6, r7, lr}
1000507e:	4647      	mov	r7, r8
10005080:	46ce      	mov	lr, r9
10005082:	b580      	push	{r7, lr}
10005084:	27b8      	movs	r7, #184	; 0xb8
10005086:	4680      	mov	r8, r0
10005088:	4689      	mov	r9, r1
1000508a:	2600      	movs	r6, #0
1000508c:	00bf      	lsls	r7, r7, #2
1000508e:	4447      	add	r7, r8
10005090:	687b      	ldr	r3, [r7, #4]
10005092:	68bc      	ldr	r4, [r7, #8]
10005094:	1e5d      	subs	r5, r3, #1
10005096:	d40d      	bmi.n	100050b4 <_fwalk_reent+0x38>
10005098:	89a3      	ldrh	r3, [r4, #12]
1000509a:	2b01      	cmp	r3, #1
1000509c:	d907      	bls.n	100050ae <_fwalk_reent+0x32>
1000509e:	220e      	movs	r2, #14
100050a0:	5ea3      	ldrsh	r3, [r4, r2]
100050a2:	3301      	adds	r3, #1
100050a4:	d003      	beq.n	100050ae <_fwalk_reent+0x32>
100050a6:	0021      	movs	r1, r4
100050a8:	4640      	mov	r0, r8
100050aa:	47c8      	blx	r9
100050ac:	4306      	orrs	r6, r0
100050ae:	3468      	adds	r4, #104	; 0x68
100050b0:	3d01      	subs	r5, #1
100050b2:	d2f1      	bcs.n	10005098 <_fwalk_reent+0x1c>
100050b4:	683f      	ldr	r7, [r7, #0]
100050b6:	2f00      	cmp	r7, #0
100050b8:	d1ea      	bne.n	10005090 <_fwalk_reent+0x14>
100050ba:	0030      	movs	r0, r6
100050bc:	bc0c      	pop	{r2, r3}
100050be:	4690      	mov	r8, r2
100050c0:	4699      	mov	r9, r3
100050c2:	bdf8      	pop	{r3, r4, r5, r6, r7, pc}

100050c4 <lflush>:
100050c4:	2209      	movs	r2, #9
100050c6:	b510      	push	{r4, lr}
100050c8:	8981      	ldrh	r1, [r0, #12]
100050ca:	0003      	movs	r3, r0
100050cc:	400a      	ands	r2, r1
100050ce:	2000      	movs	r0, #0
100050d0:	2a09      	cmp	r2, #9
100050d2:	d000      	beq.n	100050d6 <lflush+0x12>
100050d4:	bd10      	pop	{r4, pc}
100050d6:	0018      	movs	r0, r3
100050d8:	f000 fa4e 	bl	10005578 <fflush>
100050dc:	e7fa      	b.n	100050d4 <lflush+0x10>
100050de:	46c0      	nop			; (mov r8, r8)

100050e0 <__srefill_r>:
100050e0:	b5f8      	push	{r3, r4, r5, r6, r7, lr}
100050e2:	0005      	movs	r5, r0
100050e4:	000c      	movs	r4, r1
100050e6:	2800      	cmp	r0, #0
100050e8:	d002      	beq.n	100050f0 <__srefill_r+0x10>
100050ea:	6b83      	ldr	r3, [r0, #56]	; 0x38
100050ec:	2b00      	cmp	r3, #0
100050ee:	d045      	beq.n	1000517c <__srefill_r+0x9c>
100050f0:	2180      	movs	r1, #128	; 0x80
100050f2:	230c      	movs	r3, #12
100050f4:	5ee2      	ldrsh	r2, [r4, r3]
100050f6:	89a3      	ldrh	r3, [r4, #12]
100050f8:	0189      	lsls	r1, r1, #6
100050fa:	420b      	tst	r3, r1
100050fc:	d106      	bne.n	1000510c <__srefill_r+0x2c>
100050fe:	430a      	orrs	r2, r1
10005100:	4b3d      	ldr	r3, [pc, #244]	; (100051f8 <__srefill_r+0x118>)
10005102:	6e61      	ldr	r1, [r4, #100]	; 0x64
10005104:	81a2      	strh	r2, [r4, #12]
10005106:	400b      	ands	r3, r1
10005108:	6663      	str	r3, [r4, #100]	; 0x64
1000510a:	b293      	uxth	r3, r2
1000510c:	2100      	movs	r1, #0
1000510e:	6061      	str	r1, [r4, #4]
10005110:	0699      	lsls	r1, r3, #26
10005112:	d45d      	bmi.n	100051d0 <__srefill_r+0xf0>
10005114:	0759      	lsls	r1, r3, #29
10005116:	d41d      	bmi.n	10005154 <__srefill_r+0x74>
10005118:	06d9      	lsls	r1, r3, #27
1000511a:	d564      	bpl.n	100051e6 <__srefill_r+0x106>
1000511c:	2608      	movs	r6, #8
1000511e:	421e      	tst	r6, r3
10005120:	d140      	bne.n	100051a4 <__srefill_r+0xc4>
10005122:	2304      	movs	r3, #4
10005124:	431a      	orrs	r2, r3
10005126:	81a2      	strh	r2, [r4, #12]
10005128:	6923      	ldr	r3, [r4, #16]
1000512a:	2b00      	cmp	r3, #0
1000512c:	d046      	beq.n	100051bc <__srefill_r+0xdc>
1000512e:	89a6      	ldrh	r6, [r4, #12]
10005130:	230c      	movs	r3, #12
10005132:	5ee7      	ldrsh	r7, [r4, r3]
10005134:	07b3      	lsls	r3, r6, #30
10005136:	d124      	bne.n	10005182 <__srefill_r+0xa2>
10005138:	6923      	ldr	r3, [r4, #16]
1000513a:	0028      	movs	r0, r5
1000513c:	6023      	str	r3, [r4, #0]
1000513e:	6922      	ldr	r2, [r4, #16]
10005140:	6963      	ldr	r3, [r4, #20]
10005142:	69e1      	ldr	r1, [r4, #28]
10005144:	6a25      	ldr	r5, [r4, #32]
10005146:	47a8      	blx	r5
10005148:	0003      	movs	r3, r0
1000514a:	6060      	str	r0, [r4, #4]
1000514c:	2000      	movs	r0, #0
1000514e:	2b00      	cmp	r3, #0
10005150:	dd41      	ble.n	100051d6 <__srefill_r+0xf6>
10005152:	bdf8      	pop	{r3, r4, r5, r6, r7, pc}
10005154:	6b21      	ldr	r1, [r4, #48]	; 0x30
10005156:	2900      	cmp	r1, #0
10005158:	d0e6      	beq.n	10005128 <__srefill_r+0x48>
1000515a:	0023      	movs	r3, r4
1000515c:	3340      	adds	r3, #64	; 0x40
1000515e:	4299      	cmp	r1, r3
10005160:	d002      	beq.n	10005168 <__srefill_r+0x88>
10005162:	0028      	movs	r0, r5
10005164:	f7ff fdc4 	bl	10004cf0 <_free_r>
10005168:	2300      	movs	r3, #0
1000516a:	6323      	str	r3, [r4, #48]	; 0x30
1000516c:	6be3      	ldr	r3, [r4, #60]	; 0x3c
1000516e:	6063      	str	r3, [r4, #4]
10005170:	2b00      	cmp	r3, #0
10005172:	d0d9      	beq.n	10005128 <__srefill_r+0x48>
10005174:	6ba3      	ldr	r3, [r4, #56]	; 0x38
10005176:	2000      	movs	r0, #0
10005178:	6023      	str	r3, [r4, #0]
1000517a:	e7ea      	b.n	10005152 <__srefill_r+0x72>
1000517c:	f7ff ff1e 	bl	10004fbc <__sinit>
10005180:	e7b6      	b.n	100050f0 <__srefill_r+0x10>
10005182:	2301      	movs	r3, #1
10005184:	81a3      	strh	r3, [r4, #12]
10005186:	4b1d      	ldr	r3, [pc, #116]	; (100051fc <__srefill_r+0x11c>)
10005188:	491d      	ldr	r1, [pc, #116]	; (10005200 <__srefill_r+0x120>)
1000518a:	6818      	ldr	r0, [r3, #0]
1000518c:	f7ff ff56 	bl	1000503c <_fwalk>
10005190:	2309      	movs	r3, #9
10005192:	81a7      	strh	r7, [r4, #12]
10005194:	401e      	ands	r6, r3
10005196:	2e09      	cmp	r6, #9
10005198:	d1ce      	bne.n	10005138 <__srefill_r+0x58>
1000519a:	0021      	movs	r1, r4
1000519c:	0028      	movs	r0, r5
1000519e:	f000 f915 	bl	100053cc <__sflush_r>
100051a2:	e7c9      	b.n	10005138 <__srefill_r+0x58>
100051a4:	0021      	movs	r1, r4
100051a6:	0028      	movs	r0, r5
100051a8:	f000 f9b0 	bl	1000550c <_fflush_r>
100051ac:	2800      	cmp	r0, #0
100051ae:	d10f      	bne.n	100051d0 <__srefill_r+0xf0>
100051b0:	89a2      	ldrh	r2, [r4, #12]
100051b2:	60a0      	str	r0, [r4, #8]
100051b4:	43b2      	bics	r2, r6
100051b6:	b212      	sxth	r2, r2
100051b8:	61a0      	str	r0, [r4, #24]
100051ba:	e7b2      	b.n	10005122 <__srefill_r+0x42>
100051bc:	0021      	movs	r1, r4
100051be:	0028      	movs	r0, r5
100051c0:	f000 fa34 	bl	1000562c <__smakebuf_r>
100051c4:	e7b3      	b.n	1000512e <__srefill_r+0x4e>
100051c6:	2240      	movs	r2, #64	; 0x40
100051c8:	89a3      	ldrh	r3, [r4, #12]
100051ca:	6060      	str	r0, [r4, #4]
100051cc:	4313      	orrs	r3, r2
100051ce:	81a3      	strh	r3, [r4, #12]
100051d0:	2001      	movs	r0, #1
100051d2:	4240      	negs	r0, r0
100051d4:	e7bd      	b.n	10005152 <__srefill_r+0x72>
100051d6:	2b00      	cmp	r3, #0
100051d8:	d1f5      	bne.n	100051c6 <__srefill_r+0xe6>
100051da:	2220      	movs	r2, #32
100051dc:	89a3      	ldrh	r3, [r4, #12]
100051de:	3801      	subs	r0, #1
100051e0:	4313      	orrs	r3, r2
100051e2:	81a3      	strh	r3, [r4, #12]
100051e4:	e7b5      	b.n	10005152 <__srefill_r+0x72>
100051e6:	2309      	movs	r3, #9
100051e8:	602b      	str	r3, [r5, #0]
100051ea:	2340      	movs	r3, #64	; 0x40
100051ec:	2001      	movs	r0, #1
100051ee:	431a      	orrs	r2, r3
100051f0:	81a2      	strh	r2, [r4, #12]
100051f2:	4240      	negs	r0, r0
100051f4:	e7ad      	b.n	10005152 <__srefill_r+0x72>
100051f6:	46c0      	nop			; (mov r8, r8)
100051f8:	ffffdfff 	.word	0xffffdfff
100051fc:	10005d38 	.word	0x10005d38
10005200:	100050c5 	.word	0x100050c5

10005204 <__sread>:
10005204:	b570      	push	{r4, r5, r6, lr}
10005206:	000c      	movs	r4, r1
10005208:	250e      	movs	r5, #14
1000520a:	5f49      	ldrsh	r1, [r1, r5]
1000520c:	f000 fa56 	bl	100056bc <_read_r>
10005210:	2800      	cmp	r0, #0
10005212:	db03      	blt.n	1000521c <__sread+0x18>
10005214:	6d23      	ldr	r3, [r4, #80]	; 0x50
10005216:	181b      	adds	r3, r3, r0
10005218:	6523      	str	r3, [r4, #80]	; 0x50
1000521a:	bd70      	pop	{r4, r5, r6, pc}
1000521c:	89a3      	ldrh	r3, [r4, #12]
1000521e:	4a02      	ldr	r2, [pc, #8]	; (10005228 <__sread+0x24>)
10005220:	4013      	ands	r3, r2
10005222:	81a3      	strh	r3, [r4, #12]
10005224:	e7f9      	b.n	1000521a <__sread+0x16>
10005226:	46c0      	nop			; (mov r8, r8)
10005228:	ffffefff 	.word	0xffffefff

1000522c <__swrite>:
1000522c:	b5f8      	push	{r3, r4, r5, r6, r7, lr}
1000522e:	000c      	movs	r4, r1
10005230:	001f      	movs	r7, r3
10005232:	230c      	movs	r3, #12
10005234:	5ec9      	ldrsh	r1, [r1, r3]
10005236:	0005      	movs	r5, r0
10005238:	0016      	movs	r6, r2
1000523a:	05cb      	lsls	r3, r1, #23
1000523c:	d40a      	bmi.n	10005254 <__swrite+0x28>
1000523e:	4b0a      	ldr	r3, [pc, #40]	; (10005268 <__swrite+0x3c>)
10005240:	0032      	movs	r2, r6
10005242:	4019      	ands	r1, r3
10005244:	0028      	movs	r0, r5
10005246:	81a1      	strh	r1, [r4, #12]
10005248:	230e      	movs	r3, #14
1000524a:	5ee1      	ldrsh	r1, [r4, r3]
1000524c:	003b      	movs	r3, r7
1000524e:	f000 f829 	bl	100052a4 <_write_r>
10005252:	bdf8      	pop	{r3, r4, r5, r6, r7, pc}
10005254:	230e      	movs	r3, #14
10005256:	5ee1      	ldrsh	r1, [r4, r3]
10005258:	2200      	movs	r2, #0
1000525a:	2302      	movs	r3, #2
1000525c:	f000 f9a2 	bl	100055a4 <_lseek_r>
10005260:	230c      	movs	r3, #12
10005262:	5ee1      	ldrsh	r1, [r4, r3]
10005264:	e7eb      	b.n	1000523e <__swrite+0x12>
10005266:	46c0      	nop			; (mov r8, r8)
10005268:	ffffefff 	.word	0xffffefff

1000526c <__sseek>:
1000526c:	b570      	push	{r4, r5, r6, lr}
1000526e:	000c      	movs	r4, r1
10005270:	250e      	movs	r5, #14
10005272:	5f49      	ldrsh	r1, [r1, r5]
10005274:	f000 f996 	bl	100055a4 <_lseek_r>
10005278:	1c43      	adds	r3, r0, #1
1000527a:	d006      	beq.n	1000528a <__sseek+0x1e>
1000527c:	2380      	movs	r3, #128	; 0x80
1000527e:	89a2      	ldrh	r2, [r4, #12]
10005280:	015b      	lsls	r3, r3, #5
10005282:	4313      	orrs	r3, r2
10005284:	81a3      	strh	r3, [r4, #12]
10005286:	6520      	str	r0, [r4, #80]	; 0x50
10005288:	bd70      	pop	{r4, r5, r6, pc}
1000528a:	89a3      	ldrh	r3, [r4, #12]
1000528c:	4a01      	ldr	r2, [pc, #4]	; (10005294 <__sseek+0x28>)
1000528e:	4013      	ands	r3, r2
10005290:	81a3      	strh	r3, [r4, #12]
10005292:	e7f9      	b.n	10005288 <__sseek+0x1c>
10005294:	ffffefff 	.word	0xffffefff

10005298 <__sclose>:
10005298:	b510      	push	{r4, lr}
1000529a:	230e      	movs	r3, #14
1000529c:	5ec9      	ldrsh	r1, [r1, r3]
1000529e:	f000 f815 	bl	100052cc <_close_r>
100052a2:	bd10      	pop	{r4, pc}

100052a4 <_write_r>:
100052a4:	b570      	push	{r4, r5, r6, lr}
100052a6:	0004      	movs	r4, r0
100052a8:	0008      	movs	r0, r1
100052aa:	0011      	movs	r1, r2
100052ac:	001a      	movs	r2, r3
100052ae:	2300      	movs	r3, #0
100052b0:	4d05      	ldr	r5, [pc, #20]	; (100052c8 <_write_r+0x24>)
100052b2:	602b      	str	r3, [r5, #0]
100052b4:	f7fe fffa 	bl	100042ac <_write>
100052b8:	1c43      	adds	r3, r0, #1
100052ba:	d000      	beq.n	100052be <_write_r+0x1a>
100052bc:	bd70      	pop	{r4, r5, r6, pc}
100052be:	682b      	ldr	r3, [r5, #0]
100052c0:	2b00      	cmp	r3, #0
100052c2:	d0fb      	beq.n	100052bc <_write_r+0x18>
100052c4:	6023      	str	r3, [r4, #0]
100052c6:	e7f9      	b.n	100052bc <_write_r+0x18>
100052c8:	20001528 	.word	0x20001528

100052cc <_close_r>:
100052cc:	2300      	movs	r3, #0
100052ce:	b570      	push	{r4, r5, r6, lr}
100052d0:	4d06      	ldr	r5, [pc, #24]	; (100052ec <_close_r+0x20>)
100052d2:	0004      	movs	r4, r0
100052d4:	0008      	movs	r0, r1
100052d6:	602b      	str	r3, [r5, #0]
100052d8:	f000 fa2a 	bl	10005730 <_close>
100052dc:	1c43      	adds	r3, r0, #1
100052de:	d000      	beq.n	100052e2 <_close_r+0x16>
100052e0:	bd70      	pop	{r4, r5, r6, pc}
100052e2:	682b      	ldr	r3, [r5, #0]
100052e4:	2b00      	cmp	r3, #0
100052e6:	d0fb      	beq.n	100052e0 <_close_r+0x14>
100052e8:	6023      	str	r3, [r4, #0]
100052ea:	e7f9      	b.n	100052e0 <_close_r+0x14>
100052ec:	20001528 	.word	0x20001528

100052f0 <_fclose_r>:
100052f0:	b5f8      	push	{r3, r4, r5, r6, r7, lr}
100052f2:	0006      	movs	r6, r0
100052f4:	1e0c      	subs	r4, r1, #0
100052f6:	d04d      	beq.n	10005394 <_fclose_r+0xa4>
100052f8:	2800      	cmp	r0, #0
100052fa:	d002      	beq.n	10005302 <_fclose_r+0x12>
100052fc:	6b83      	ldr	r3, [r0, #56]	; 0x38
100052fe:	2b00      	cmp	r3, #0
10005300:	d04a      	beq.n	10005398 <_fclose_r+0xa8>
10005302:	2701      	movs	r7, #1
10005304:	6e63      	ldr	r3, [r4, #100]	; 0x64
10005306:	423b      	tst	r3, r7
10005308:	d035      	beq.n	10005376 <_fclose_r+0x86>
1000530a:	220c      	movs	r2, #12
1000530c:	5ea3      	ldrsh	r3, [r4, r2]
1000530e:	2b00      	cmp	r3, #0
10005310:	d040      	beq.n	10005394 <_fclose_r+0xa4>
10005312:	0021      	movs	r1, r4
10005314:	0030      	movs	r0, r6
10005316:	f000 f859 	bl	100053cc <__sflush_r>
1000531a:	6ae3      	ldr	r3, [r4, #44]	; 0x2c
1000531c:	0005      	movs	r5, r0
1000531e:	2b00      	cmp	r3, #0
10005320:	d004      	beq.n	1000532c <_fclose_r+0x3c>
10005322:	0030      	movs	r0, r6
10005324:	69e1      	ldr	r1, [r4, #28]
10005326:	4798      	blx	r3
10005328:	2800      	cmp	r0, #0
1000532a:	db3c      	blt.n	100053a6 <_fclose_r+0xb6>
1000532c:	89a3      	ldrh	r3, [r4, #12]
1000532e:	061b      	lsls	r3, r3, #24
10005330:	d43e      	bmi.n	100053b0 <_fclose_r+0xc0>
10005332:	6b21      	ldr	r1, [r4, #48]	; 0x30
10005334:	2900      	cmp	r1, #0
10005336:	d008      	beq.n	1000534a <_fclose_r+0x5a>
10005338:	0023      	movs	r3, r4
1000533a:	3340      	adds	r3, #64	; 0x40
1000533c:	4299      	cmp	r1, r3
1000533e:	d002      	beq.n	10005346 <_fclose_r+0x56>
10005340:	0030      	movs	r0, r6
10005342:	f7ff fcd5 	bl	10004cf0 <_free_r>
10005346:	2300      	movs	r3, #0
10005348:	6323      	str	r3, [r4, #48]	; 0x30
1000534a:	6c61      	ldr	r1, [r4, #68]	; 0x44
1000534c:	2900      	cmp	r1, #0
1000534e:	d004      	beq.n	1000535a <_fclose_r+0x6a>
10005350:	0030      	movs	r0, r6
10005352:	f7ff fccd 	bl	10004cf0 <_free_r>
10005356:	2300      	movs	r3, #0
10005358:	6463      	str	r3, [r4, #68]	; 0x44
1000535a:	f7ff fe5f 	bl	1000501c <__sfp_lock_acquire>
1000535e:	2300      	movs	r3, #0
10005360:	81a3      	strh	r3, [r4, #12]
10005362:	6e63      	ldr	r3, [r4, #100]	; 0x64
10005364:	07db      	lsls	r3, r3, #31
10005366:	d52c      	bpl.n	100053c2 <_fclose_r+0xd2>
10005368:	6da0      	ldr	r0, [r4, #88]	; 0x58
1000536a:	f7ff fdd5 	bl	10004f18 <__retarget_lock_close_recursive>
1000536e:	f7ff fe5d 	bl	1000502c <__sfp_lock_release>
10005372:	0028      	movs	r0, r5
10005374:	bdf8      	pop	{r3, r4, r5, r6, r7, pc}
10005376:	89a3      	ldrh	r3, [r4, #12]
10005378:	059b      	lsls	r3, r3, #22
1000537a:	d4ca      	bmi.n	10005312 <_fclose_r+0x22>
1000537c:	6da0      	ldr	r0, [r4, #88]	; 0x58
1000537e:	f7ff fdcd 	bl	10004f1c <__retarget_lock_acquire_recursive>
10005382:	220c      	movs	r2, #12
10005384:	5ea3      	ldrsh	r3, [r4, r2]
10005386:	2b00      	cmp	r3, #0
10005388:	d1c3      	bne.n	10005312 <_fclose_r+0x22>
1000538a:	6e63      	ldr	r3, [r4, #100]	; 0x64
1000538c:	001d      	movs	r5, r3
1000538e:	403d      	ands	r5, r7
10005390:	423b      	tst	r3, r7
10005392:	d012      	beq.n	100053ba <_fclose_r+0xca>
10005394:	2500      	movs	r5, #0
10005396:	e7ec      	b.n	10005372 <_fclose_r+0x82>
10005398:	2701      	movs	r7, #1
1000539a:	f7ff fe0f 	bl	10004fbc <__sinit>
1000539e:	6e63      	ldr	r3, [r4, #100]	; 0x64
100053a0:	423b      	tst	r3, r7
100053a2:	d1b2      	bne.n	1000530a <_fclose_r+0x1a>
100053a4:	e7e7      	b.n	10005376 <_fclose_r+0x86>
100053a6:	2501      	movs	r5, #1
100053a8:	89a3      	ldrh	r3, [r4, #12]
100053aa:	426d      	negs	r5, r5
100053ac:	061b      	lsls	r3, r3, #24
100053ae:	d5c0      	bpl.n	10005332 <_fclose_r+0x42>
100053b0:	0030      	movs	r0, r6
100053b2:	6921      	ldr	r1, [r4, #16]
100053b4:	f7ff fc9c 	bl	10004cf0 <_free_r>
100053b8:	e7bb      	b.n	10005332 <_fclose_r+0x42>
100053ba:	6da0      	ldr	r0, [r4, #88]	; 0x58
100053bc:	f7ff fdb0 	bl	10004f20 <__retarget_lock_release_recursive>
100053c0:	e7d7      	b.n	10005372 <_fclose_r+0x82>
100053c2:	6da0      	ldr	r0, [r4, #88]	; 0x58
100053c4:	f7ff fdac 	bl	10004f20 <__retarget_lock_release_recursive>
100053c8:	e7ce      	b.n	10005368 <_fclose_r+0x78>
100053ca:	46c0      	nop			; (mov r8, r8)

100053cc <__sflush_r>:
100053cc:	b5f0      	push	{r4, r5, r6, r7, lr}
100053ce:	46c6      	mov	lr, r8
100053d0:	000c      	movs	r4, r1
100053d2:	b500      	push	{lr}
100053d4:	89a2      	ldrh	r2, [r4, #12]
100053d6:	4680      	mov	r8, r0
100053d8:	230c      	movs	r3, #12
100053da:	5ec9      	ldrsh	r1, [r1, r3]
100053dc:	0713      	lsls	r3, r2, #28
100053de:	d44c      	bmi.n	1000547a <__sflush_r+0xae>
100053e0:	2380      	movs	r3, #128	; 0x80
100053e2:	6862      	ldr	r2, [r4, #4]
100053e4:	011b      	lsls	r3, r3, #4
100053e6:	430b      	orrs	r3, r1
100053e8:	81a3      	strh	r3, [r4, #12]
100053ea:	2a00      	cmp	r2, #0
100053ec:	dd66      	ble.n	100054bc <__sflush_r+0xf0>
100053ee:	6aa6      	ldr	r6, [r4, #40]	; 0x28
100053f0:	2e00      	cmp	r6, #0
100053f2:	d03e      	beq.n	10005472 <__sflush_r+0xa6>
100053f4:	4642      	mov	r2, r8
100053f6:	4641      	mov	r1, r8
100053f8:	6815      	ldr	r5, [r2, #0]
100053fa:	2200      	movs	r2, #0
100053fc:	600a      	str	r2, [r1, #0]
100053fe:	b29a      	uxth	r2, r3
10005400:	04db      	lsls	r3, r3, #19
10005402:	d460      	bmi.n	100054c6 <__sflush_r+0xfa>
10005404:	2301      	movs	r3, #1
10005406:	2200      	movs	r2, #0
10005408:	4640      	mov	r0, r8
1000540a:	69e1      	ldr	r1, [r4, #28]
1000540c:	47b0      	blx	r6
1000540e:	1c43      	adds	r3, r0, #1
10005410:	d068      	beq.n	100054e4 <__sflush_r+0x118>
10005412:	89a2      	ldrh	r2, [r4, #12]
10005414:	6aa6      	ldr	r6, [r4, #40]	; 0x28
10005416:	0753      	lsls	r3, r2, #29
10005418:	d506      	bpl.n	10005428 <__sflush_r+0x5c>
1000541a:	6863      	ldr	r3, [r4, #4]
1000541c:	1ac0      	subs	r0, r0, r3
1000541e:	6b23      	ldr	r3, [r4, #48]	; 0x30
10005420:	2b00      	cmp	r3, #0
10005422:	d001      	beq.n	10005428 <__sflush_r+0x5c>
10005424:	6be3      	ldr	r3, [r4, #60]	; 0x3c
10005426:	1ac0      	subs	r0, r0, r3
10005428:	2300      	movs	r3, #0
1000542a:	0002      	movs	r2, r0
1000542c:	69e1      	ldr	r1, [r4, #28]
1000542e:	4640      	mov	r0, r8
10005430:	47b0      	blx	r6
10005432:	1c43      	adds	r3, r0, #1
10005434:	d149      	bne.n	100054ca <__sflush_r+0xfe>
10005436:	4643      	mov	r3, r8
10005438:	681b      	ldr	r3, [r3, #0]
1000543a:	2b00      	cmp	r3, #0
1000543c:	d045      	beq.n	100054ca <__sflush_r+0xfe>
1000543e:	2b1d      	cmp	r3, #29
10005440:	d001      	beq.n	10005446 <__sflush_r+0x7a>
10005442:	2b16      	cmp	r3, #22
10005444:	d157      	bne.n	100054f6 <__sflush_r+0x12a>
10005446:	89a3      	ldrh	r3, [r4, #12]
10005448:	4a2f      	ldr	r2, [pc, #188]	; (10005508 <__sflush_r+0x13c>)
1000544a:	4013      	ands	r3, r2
1000544c:	81a3      	strh	r3, [r4, #12]
1000544e:	2300      	movs	r3, #0
10005450:	6063      	str	r3, [r4, #4]
10005452:	6923      	ldr	r3, [r4, #16]
10005454:	6023      	str	r3, [r4, #0]
10005456:	4643      	mov	r3, r8
10005458:	6b21      	ldr	r1, [r4, #48]	; 0x30
1000545a:	601d      	str	r5, [r3, #0]
1000545c:	2900      	cmp	r1, #0
1000545e:	d008      	beq.n	10005472 <__sflush_r+0xa6>
10005460:	0023      	movs	r3, r4
10005462:	3340      	adds	r3, #64	; 0x40
10005464:	4299      	cmp	r1, r3
10005466:	d002      	beq.n	1000546e <__sflush_r+0xa2>
10005468:	4640      	mov	r0, r8
1000546a:	f7ff fc41 	bl	10004cf0 <_free_r>
1000546e:	2300      	movs	r3, #0
10005470:	6323      	str	r3, [r4, #48]	; 0x30
10005472:	2000      	movs	r0, #0
10005474:	bc04      	pop	{r2}
10005476:	4690      	mov	r8, r2
10005478:	bdf0      	pop	{r4, r5, r6, r7, pc}
1000547a:	6926      	ldr	r6, [r4, #16]
1000547c:	2e00      	cmp	r6, #0
1000547e:	d0f8      	beq.n	10005472 <__sflush_r+0xa6>
10005480:	6823      	ldr	r3, [r4, #0]
10005482:	6026      	str	r6, [r4, #0]
10005484:	1b9d      	subs	r5, r3, r6
10005486:	2300      	movs	r3, #0
10005488:	0792      	lsls	r2, r2, #30
1000548a:	d100      	bne.n	1000548e <__sflush_r+0xc2>
1000548c:	6963      	ldr	r3, [r4, #20]
1000548e:	60a3      	str	r3, [r4, #8]
10005490:	2d00      	cmp	r5, #0
10005492:	dc04      	bgt.n	1000549e <__sflush_r+0xd2>
10005494:	e7ed      	b.n	10005472 <__sflush_r+0xa6>
10005496:	1836      	adds	r6, r6, r0
10005498:	1a2d      	subs	r5, r5, r0
1000549a:	2d00      	cmp	r5, #0
1000549c:	dde9      	ble.n	10005472 <__sflush_r+0xa6>
1000549e:	002b      	movs	r3, r5
100054a0:	0032      	movs	r2, r6
100054a2:	4640      	mov	r0, r8
100054a4:	69e1      	ldr	r1, [r4, #28]
100054a6:	6a67      	ldr	r7, [r4, #36]	; 0x24
100054a8:	47b8      	blx	r7
100054aa:	2800      	cmp	r0, #0
100054ac:	dcf3      	bgt.n	10005496 <__sflush_r+0xca>
100054ae:	2240      	movs	r2, #64	; 0x40
100054b0:	2001      	movs	r0, #1
100054b2:	89a3      	ldrh	r3, [r4, #12]
100054b4:	4240      	negs	r0, r0
100054b6:	4313      	orrs	r3, r2
100054b8:	81a3      	strh	r3, [r4, #12]
100054ba:	e7db      	b.n	10005474 <__sflush_r+0xa8>
100054bc:	6be2      	ldr	r2, [r4, #60]	; 0x3c
100054be:	2a00      	cmp	r2, #0
100054c0:	dd00      	ble.n	100054c4 <__sflush_r+0xf8>
100054c2:	e794      	b.n	100053ee <__sflush_r+0x22>
100054c4:	e7d5      	b.n	10005472 <__sflush_r+0xa6>
100054c6:	6d20      	ldr	r0, [r4, #80]	; 0x50
100054c8:	e7a5      	b.n	10005416 <__sflush_r+0x4a>
100054ca:	89a3      	ldrh	r3, [r4, #12]
100054cc:	4a0e      	ldr	r2, [pc, #56]	; (10005508 <__sflush_r+0x13c>)
100054ce:	4013      	ands	r3, r2
100054d0:	2200      	movs	r2, #0
100054d2:	6062      	str	r2, [r4, #4]
100054d4:	6922      	ldr	r2, [r4, #16]
100054d6:	b21b      	sxth	r3, r3
100054d8:	81a3      	strh	r3, [r4, #12]
100054da:	6022      	str	r2, [r4, #0]
100054dc:	04db      	lsls	r3, r3, #19
100054de:	d5ba      	bpl.n	10005456 <__sflush_r+0x8a>
100054e0:	6520      	str	r0, [r4, #80]	; 0x50
100054e2:	e7b8      	b.n	10005456 <__sflush_r+0x8a>
100054e4:	4643      	mov	r3, r8
100054e6:	681b      	ldr	r3, [r3, #0]
100054e8:	2b00      	cmp	r3, #0
100054ea:	d100      	bne.n	100054ee <__sflush_r+0x122>
100054ec:	e791      	b.n	10005412 <__sflush_r+0x46>
100054ee:	2b1d      	cmp	r3, #29
100054f0:	d006      	beq.n	10005500 <__sflush_r+0x134>
100054f2:	2b16      	cmp	r3, #22
100054f4:	d004      	beq.n	10005500 <__sflush_r+0x134>
100054f6:	2240      	movs	r2, #64	; 0x40
100054f8:	89a3      	ldrh	r3, [r4, #12]
100054fa:	4313      	orrs	r3, r2
100054fc:	81a3      	strh	r3, [r4, #12]
100054fe:	e7b9      	b.n	10005474 <__sflush_r+0xa8>
10005500:	4643      	mov	r3, r8
10005502:	2000      	movs	r0, #0
10005504:	601d      	str	r5, [r3, #0]
10005506:	e7b5      	b.n	10005474 <__sflush_r+0xa8>
10005508:	fffff7ff 	.word	0xfffff7ff

1000550c <_fflush_r>:
1000550c:	b570      	push	{r4, r5, r6, lr}
1000550e:	0005      	movs	r5, r0
10005510:	000c      	movs	r4, r1
10005512:	2800      	cmp	r0, #0
10005514:	d002      	beq.n	1000551c <_fflush_r+0x10>
10005516:	6b83      	ldr	r3, [r0, #56]	; 0x38
10005518:	2b00      	cmp	r3, #0
1000551a:	d015      	beq.n	10005548 <_fflush_r+0x3c>
1000551c:	220c      	movs	r2, #12
1000551e:	5ea3      	ldrsh	r3, [r4, r2]
10005520:	2b00      	cmp	r3, #0
10005522:	d017      	beq.n	10005554 <_fflush_r+0x48>
10005524:	6e62      	ldr	r2, [r4, #100]	; 0x64
10005526:	07d2      	lsls	r2, r2, #31
10005528:	d401      	bmi.n	1000552e <_fflush_r+0x22>
1000552a:	059b      	lsls	r3, r3, #22
1000552c:	d514      	bpl.n	10005558 <_fflush_r+0x4c>
1000552e:	0028      	movs	r0, r5
10005530:	0021      	movs	r1, r4
10005532:	f7ff ff4b 	bl	100053cc <__sflush_r>
10005536:	6e63      	ldr	r3, [r4, #100]	; 0x64
10005538:	0005      	movs	r5, r0
1000553a:	07db      	lsls	r3, r3, #31
1000553c:	d402      	bmi.n	10005544 <_fflush_r+0x38>
1000553e:	89a3      	ldrh	r3, [r4, #12]
10005540:	059b      	lsls	r3, r3, #22
10005542:	d515      	bpl.n	10005570 <_fflush_r+0x64>
10005544:	0028      	movs	r0, r5
10005546:	bd70      	pop	{r4, r5, r6, pc}
10005548:	f7ff fd38 	bl	10004fbc <__sinit>
1000554c:	220c      	movs	r2, #12
1000554e:	5ea3      	ldrsh	r3, [r4, r2]
10005550:	2b00      	cmp	r3, #0
10005552:	d1e7      	bne.n	10005524 <_fflush_r+0x18>
10005554:	2500      	movs	r5, #0
10005556:	e7f5      	b.n	10005544 <_fflush_r+0x38>
10005558:	6da0      	ldr	r0, [r4, #88]	; 0x58
1000555a:	f7ff fcdf 	bl	10004f1c <__retarget_lock_acquire_recursive>
1000555e:	0028      	movs	r0, r5
10005560:	0021      	movs	r1, r4
10005562:	f7ff ff33 	bl	100053cc <__sflush_r>
10005566:	6e63      	ldr	r3, [r4, #100]	; 0x64
10005568:	0005      	movs	r5, r0
1000556a:	07db      	lsls	r3, r3, #31
1000556c:	d4ea      	bmi.n	10005544 <_fflush_r+0x38>
1000556e:	e7e6      	b.n	1000553e <_fflush_r+0x32>
10005570:	6da0      	ldr	r0, [r4, #88]	; 0x58
10005572:	f7ff fcd5 	bl	10004f20 <__retarget_lock_release_recursive>
10005576:	e7e5      	b.n	10005544 <_fflush_r+0x38>

10005578 <fflush>:
10005578:	0001      	movs	r1, r0
1000557a:	b510      	push	{r4, lr}
1000557c:	2800      	cmp	r0, #0
1000557e:	d004      	beq.n	1000558a <fflush+0x12>
10005580:	4b05      	ldr	r3, [pc, #20]	; (10005598 <fflush+0x20>)
10005582:	6818      	ldr	r0, [r3, #0]
10005584:	f7ff ffc2 	bl	1000550c <_fflush_r>
10005588:	bd10      	pop	{r4, pc}
1000558a:	4b04      	ldr	r3, [pc, #16]	; (1000559c <fflush+0x24>)
1000558c:	4904      	ldr	r1, [pc, #16]	; (100055a0 <fflush+0x28>)
1000558e:	6818      	ldr	r0, [r3, #0]
10005590:	f7ff fd74 	bl	1000507c <_fwalk_reent>
10005594:	e7f8      	b.n	10005588 <fflush+0x10>
10005596:	46c0      	nop			; (mov r8, r8)
10005598:	20000214 	.word	0x20000214
1000559c:	10005d38 	.word	0x10005d38
100055a0:	1000550d 	.word	0x1000550d

100055a4 <_lseek_r>:
100055a4:	b570      	push	{r4, r5, r6, lr}
100055a6:	0004      	movs	r4, r0
100055a8:	0008      	movs	r0, r1
100055aa:	0011      	movs	r1, r2
100055ac:	001a      	movs	r2, r3
100055ae:	2300      	movs	r3, #0
100055b0:	4d05      	ldr	r5, [pc, #20]	; (100055c8 <_lseek_r+0x24>)
100055b2:	602b      	str	r3, [r5, #0]
100055b4:	f000 f8d4 	bl	10005760 <_lseek>
100055b8:	1c43      	adds	r3, r0, #1
100055ba:	d000      	beq.n	100055be <_lseek_r+0x1a>
100055bc:	bd70      	pop	{r4, r5, r6, pc}
100055be:	682b      	ldr	r3, [r5, #0]
100055c0:	2b00      	cmp	r3, #0
100055c2:	d0fb      	beq.n	100055bc <_lseek_r+0x18>
100055c4:	6023      	str	r3, [r4, #0]
100055c6:	e7f9      	b.n	100055bc <_lseek_r+0x18>
100055c8:	20001528 	.word	0x20001528

100055cc <__swhatbuf_r>:
100055cc:	b570      	push	{r4, r5, r6, lr}
100055ce:	000c      	movs	r4, r1
100055d0:	001e      	movs	r6, r3
100055d2:	230e      	movs	r3, #14
100055d4:	5ec9      	ldrsh	r1, [r1, r3]
100055d6:	0015      	movs	r5, r2
100055d8:	b096      	sub	sp, #88	; 0x58
100055da:	2900      	cmp	r1, #0
100055dc:	db15      	blt.n	1000560a <__swhatbuf_r+0x3e>
100055de:	466a      	mov	r2, sp
100055e0:	f000 f880 	bl	100056e4 <_fstat_r>
100055e4:	2800      	cmp	r0, #0
100055e6:	db10      	blt.n	1000560a <__swhatbuf_r+0x3e>
100055e8:	22f0      	movs	r2, #240	; 0xf0
100055ea:	9b01      	ldr	r3, [sp, #4]
100055ec:	0212      	lsls	r2, r2, #8
100055ee:	4013      	ands	r3, r2
100055f0:	4a0d      	ldr	r2, [pc, #52]	; (10005628 <__swhatbuf_r+0x5c>)
100055f2:	2080      	movs	r0, #128	; 0x80
100055f4:	4694      	mov	ip, r2
100055f6:	4463      	add	r3, ip
100055f8:	425a      	negs	r2, r3
100055fa:	4153      	adcs	r3, r2
100055fc:	6033      	str	r3, [r6, #0]
100055fe:	2380      	movs	r3, #128	; 0x80
10005600:	00db      	lsls	r3, r3, #3
10005602:	602b      	str	r3, [r5, #0]
10005604:	0100      	lsls	r0, r0, #4
10005606:	b016      	add	sp, #88	; 0x58
10005608:	bd70      	pop	{r4, r5, r6, pc}
1000560a:	2300      	movs	r3, #0
1000560c:	6033      	str	r3, [r6, #0]
1000560e:	89a3      	ldrh	r3, [r4, #12]
10005610:	061b      	lsls	r3, r3, #24
10005612:	d503      	bpl.n	1000561c <__swhatbuf_r+0x50>
10005614:	2340      	movs	r3, #64	; 0x40
10005616:	2000      	movs	r0, #0
10005618:	602b      	str	r3, [r5, #0]
1000561a:	e7f4      	b.n	10005606 <__swhatbuf_r+0x3a>
1000561c:	2380      	movs	r3, #128	; 0x80
1000561e:	00db      	lsls	r3, r3, #3
10005620:	2000      	movs	r0, #0
10005622:	602b      	str	r3, [r5, #0]
10005624:	e7ef      	b.n	10005606 <__swhatbuf_r+0x3a>
10005626:	46c0      	nop			; (mov r8, r8)
10005628:	ffffe000 	.word	0xffffe000

1000562c <__smakebuf_r>:
1000562c:	b570      	push	{r4, r5, r6, lr}
1000562e:	898b      	ldrh	r3, [r1, #12]
10005630:	0005      	movs	r5, r0
10005632:	000c      	movs	r4, r1
10005634:	b082      	sub	sp, #8
10005636:	079b      	lsls	r3, r3, #30
10005638:	d507      	bpl.n	1000564a <__smakebuf_r+0x1e>
1000563a:	0023      	movs	r3, r4
1000563c:	3343      	adds	r3, #67	; 0x43
1000563e:	6023      	str	r3, [r4, #0]
10005640:	6123      	str	r3, [r4, #16]
10005642:	2301      	movs	r3, #1
10005644:	6163      	str	r3, [r4, #20]
10005646:	b002      	add	sp, #8
10005648:	bd70      	pop	{r4, r5, r6, pc}
1000564a:	466a      	mov	r2, sp
1000564c:	ab01      	add	r3, sp, #4
1000564e:	f7ff ffbd 	bl	100055cc <__swhatbuf_r>
10005652:	9900      	ldr	r1, [sp, #0]
10005654:	0006      	movs	r6, r0
10005656:	0028      	movs	r0, r5
10005658:	f7fe ffec 	bl	10004634 <_malloc_r>
1000565c:	2800      	cmp	r0, #0
1000565e:	d010      	beq.n	10005682 <__smakebuf_r+0x56>
10005660:	2280      	movs	r2, #128	; 0x80
10005662:	4b15      	ldr	r3, [pc, #84]	; (100056b8 <__smakebuf_r+0x8c>)
10005664:	63eb      	str	r3, [r5, #60]	; 0x3c
10005666:	89a3      	ldrh	r3, [r4, #12]
10005668:	6020      	str	r0, [r4, #0]
1000566a:	4313      	orrs	r3, r2
1000566c:	9a00      	ldr	r2, [sp, #0]
1000566e:	b21b      	sxth	r3, r3
10005670:	6162      	str	r2, [r4, #20]
10005672:	9a01      	ldr	r2, [sp, #4]
10005674:	81a3      	strh	r3, [r4, #12]
10005676:	6120      	str	r0, [r4, #16]
10005678:	2a00      	cmp	r2, #0
1000567a:	d10c      	bne.n	10005696 <__smakebuf_r+0x6a>
1000567c:	4333      	orrs	r3, r6
1000567e:	81a3      	strh	r3, [r4, #12]
10005680:	e7e1      	b.n	10005646 <__smakebuf_r+0x1a>
10005682:	220c      	movs	r2, #12
10005684:	5ea3      	ldrsh	r3, [r4, r2]
10005686:	059a      	lsls	r2, r3, #22
10005688:	d4dd      	bmi.n	10005646 <__smakebuf_r+0x1a>
1000568a:	2203      	movs	r2, #3
1000568c:	4393      	bics	r3, r2
1000568e:	2202      	movs	r2, #2
10005690:	4313      	orrs	r3, r2
10005692:	81a3      	strh	r3, [r4, #12]
10005694:	e7d1      	b.n	1000563a <__smakebuf_r+0xe>
10005696:	0028      	movs	r0, r5
10005698:	230e      	movs	r3, #14
1000569a:	5ee1      	ldrsh	r1, [r4, r3]
1000569c:	f000 f836 	bl	1000570c <_isatty_r>
100056a0:	2800      	cmp	r0, #0
100056a2:	d102      	bne.n	100056aa <__smakebuf_r+0x7e>
100056a4:	220c      	movs	r2, #12
100056a6:	5ea3      	ldrsh	r3, [r4, r2]
100056a8:	e7e8      	b.n	1000567c <__smakebuf_r+0x50>
100056aa:	2303      	movs	r3, #3
100056ac:	89a2      	ldrh	r2, [r4, #12]
100056ae:	439a      	bics	r2, r3
100056b0:	2301      	movs	r3, #1
100056b2:	4313      	orrs	r3, r2
100056b4:	b21b      	sxth	r3, r3
100056b6:	e7e1      	b.n	1000567c <__smakebuf_r+0x50>
100056b8:	10004fad 	.word	0x10004fad

100056bc <_read_r>:
100056bc:	b570      	push	{r4, r5, r6, lr}
100056be:	0004      	movs	r4, r0
100056c0:	0008      	movs	r0, r1
100056c2:	0011      	movs	r1, r2
100056c4:	001a      	movs	r2, r3
100056c6:	2300      	movs	r3, #0
100056c8:	4d05      	ldr	r5, [pc, #20]	; (100056e0 <_read_r+0x24>)
100056ca:	602b      	str	r3, [r5, #0]
100056cc:	f7fe fda6 	bl	1000421c <_read>
100056d0:	1c43      	adds	r3, r0, #1
100056d2:	d000      	beq.n	100056d6 <_read_r+0x1a>
100056d4:	bd70      	pop	{r4, r5, r6, pc}
100056d6:	682b      	ldr	r3, [r5, #0]
100056d8:	2b00      	cmp	r3, #0
100056da:	d0fb      	beq.n	100056d4 <_read_r+0x18>
100056dc:	6023      	str	r3, [r4, #0]
100056de:	e7f9      	b.n	100056d4 <_read_r+0x18>
100056e0:	20001528 	.word	0x20001528

100056e4 <_fstat_r>:
100056e4:	2300      	movs	r3, #0
100056e6:	b570      	push	{r4, r5, r6, lr}
100056e8:	4d07      	ldr	r5, [pc, #28]	; (10005708 <_fstat_r+0x24>)
100056ea:	0004      	movs	r4, r0
100056ec:	0008      	movs	r0, r1
100056ee:	0011      	movs	r1, r2
100056f0:	602b      	str	r3, [r5, #0]
100056f2:	f000 f825 	bl	10005740 <_fstat>
100056f6:	1c43      	adds	r3, r0, #1
100056f8:	d000      	beq.n	100056fc <_fstat_r+0x18>
100056fa:	bd70      	pop	{r4, r5, r6, pc}
100056fc:	682b      	ldr	r3, [r5, #0]
100056fe:	2b00      	cmp	r3, #0
10005700:	d0fb      	beq.n	100056fa <_fstat_r+0x16>
10005702:	6023      	str	r3, [r4, #0]
10005704:	e7f9      	b.n	100056fa <_fstat_r+0x16>
10005706:	46c0      	nop			; (mov r8, r8)
10005708:	20001528 	.word	0x20001528

1000570c <_isatty_r>:
1000570c:	2300      	movs	r3, #0
1000570e:	b570      	push	{r4, r5, r6, lr}
10005710:	4d06      	ldr	r5, [pc, #24]	; (1000572c <_isatty_r+0x20>)
10005712:	0004      	movs	r4, r0
10005714:	0008      	movs	r0, r1
10005716:	602b      	str	r3, [r5, #0]
10005718:	f000 f81a 	bl	10005750 <_isatty>
1000571c:	1c43      	adds	r3, r0, #1
1000571e:	d000      	beq.n	10005722 <_isatty_r+0x16>
10005720:	bd70      	pop	{r4, r5, r6, pc}
10005722:	682b      	ldr	r3, [r5, #0]
10005724:	2b00      	cmp	r3, #0
10005726:	d0fb      	beq.n	10005720 <_isatty_r+0x14>
10005728:	6023      	str	r3, [r4, #0]
1000572a:	e7f9      	b.n	10005720 <_isatty_r+0x14>
1000572c:	20001528 	.word	0x20001528

10005730 <_close>:
10005730:	2258      	movs	r2, #88	; 0x58
10005732:	2001      	movs	r0, #1
10005734:	4b01      	ldr	r3, [pc, #4]	; (1000573c <_close+0xc>)
10005736:	4240      	negs	r0, r0
10005738:	601a      	str	r2, [r3, #0]
1000573a:	4770      	bx	lr
1000573c:	20001528 	.word	0x20001528

10005740 <_fstat>:
10005740:	2258      	movs	r2, #88	; 0x58
10005742:	2001      	movs	r0, #1
10005744:	4b01      	ldr	r3, [pc, #4]	; (1000574c <_fstat+0xc>)
10005746:	4240      	negs	r0, r0
10005748:	601a      	str	r2, [r3, #0]
1000574a:	4770      	bx	lr
1000574c:	20001528 	.word	0x20001528

10005750 <_isatty>:
10005750:	2258      	movs	r2, #88	; 0x58
10005752:	4b02      	ldr	r3, [pc, #8]	; (1000575c <_isatty+0xc>)
10005754:	2000      	movs	r0, #0
10005756:	601a      	str	r2, [r3, #0]
10005758:	4770      	bx	lr
1000575a:	46c0      	nop			; (mov r8, r8)
1000575c:	20001528 	.word	0x20001528

10005760 <_lseek>:
10005760:	2258      	movs	r2, #88	; 0x58
10005762:	2001      	movs	r0, #1
10005764:	4b01      	ldr	r3, [pc, #4]	; (1000576c <_lseek+0xc>)
10005766:	4240      	negs	r0, r0
10005768:	601a      	str	r2, [r3, #0]
1000576a:	4770      	bx	lr
1000576c:	20001528 	.word	0x20001528

10005770 <_fini>:
10005770:	b5f8      	push	{r3, r4, r5, r6, r7, lr}
10005772:	46c0      	nop			; (mov r8, r8)
10005774:	0000      	movs	r0, r0
	...

10005778 <__mutex_exit_veneer>:
10005778:	b401      	push	{r0}
1000577a:	4802      	ldr	r0, [pc, #8]	; (10005784 <__mutex_exit_veneer+0xc>)
1000577c:	4684      	mov	ip, r0
1000577e:	bc01      	pop	{r0}
10005780:	4760      	bx	ip
10005782:	bf00      	nop
10005784:	2000015d 	.word	0x2000015d

10005788 <____aeabi_ldiv0_veneer>:
10005788:	b401      	push	{r0}
1000578a:	4802      	ldr	r0, [pc, #8]	; (10005794 <____aeabi_ldiv0_veneer+0xc>)
1000578c:	4684      	mov	ip, r0
1000578e:	bc01      	pop	{r0}
10005790:	4760      	bx	ip
10005792:	bf00      	nop
10005794:	20000185 	.word	0x20000185

10005798 <____aeabi_idiv0_veneer>:
10005798:	b401      	push	{r0}
1000579a:	4802      	ldr	r0, [pc, #8]	; (100057a4 <____aeabi_idiv0_veneer+0xc>)
1000579c:	4684      	mov	ip, r0
1000579e:	bc01      	pop	{r0}
100057a0:	4760      	bx	ip
100057a2:	bf00      	nop
100057a4:	20000185 	.word	0x20000185

100057a8 <__mutex_try_enter_veneer>:
100057a8:	b401      	push	{r0}
100057aa:	4802      	ldr	r0, [pc, #8]	; (100057b4 <__mutex_try_enter_veneer+0xc>)
100057ac:	4684      	mov	ip, r0
100057ae:	bc01      	pop	{r0}
100057b0:	4760      	bx	ip
100057b2:	bf00      	nop
100057b4:	20000111 	.word	0x20000111

100057b8 <__mutex_enter_blocking_veneer>:
100057b8:	b401      	push	{r0}
100057ba:	4802      	ldr	r0, [pc, #8]	; (100057c4 <__mutex_enter_blocking_veneer+0xc>)
100057bc:	4684      	mov	ip, r0
100057be:	bc01      	pop	{r0}
100057c0:	4760      	bx	ip
100057c2:	bf00      	nop
100057c4:	200000c1 	.word	0x200000c1

Disassembly of section .data:

200000c0 <mutex_enter_blocking>:
200000c0:	b510      	push	{r4, lr}
200000c2:	6802      	ldr	r2, [r0, #0]
200000c4:	2400      	movs	r4, #0
200000c6:	f3ef 8110 	mrs	r1, PRIMASK
200000ca:	b672      	cpsid	i
200000cc:	6813      	ldr	r3, [r2, #0]
200000ce:	2b00      	cmp	r3, #0
200000d0:	d0fc      	beq.n	200000cc <mutex_enter_blocking+0xc>
200000d2:	f3bf 8f5f 	dmb	sy
200000d6:	7903      	ldrb	r3, [r0, #4]
200000d8:	2b00      	cmp	r3, #0
200000da:	d00b      	beq.n	200000f4 <mutex_enter_blocking+0x34>
200000dc:	6803      	ldr	r3, [r0, #0]
200000de:	f3bf 8f5f 	dmb	sy
200000e2:	601c      	str	r4, [r3, #0]
200000e4:	f381 8810 	msr	PRIMASK, r1
200000e8:	bf20      	wfe
200000ea:	6802      	ldr	r2, [r0, #0]
200000ec:	f3ef 8110 	mrs	r1, PRIMASK
200000f0:	b672      	cpsid	i
200000f2:	e7eb      	b.n	200000cc <mutex_enter_blocking+0xc>
200000f4:	2201      	movs	r2, #1
200000f6:	7102      	strb	r2, [r0, #4]
200000f8:	22d0      	movs	r2, #208	; 0xd0
200000fa:	0612      	lsls	r2, r2, #24
200000fc:	6812      	ldr	r2, [r2, #0]
200000fe:	7142      	strb	r2, [r0, #5]
20000100:	6802      	ldr	r2, [r0, #0]
20000102:	f3bf 8f5f 	dmb	sy
20000106:	6013      	str	r3, [r2, #0]
20000108:	f381 8810 	msr	PRIMASK, r1
2000010c:	bd10      	pop	{r4, pc}
2000010e:	46c0      	nop			; (mov r8, r8)

20000110 <mutex_try_enter>:
20000110:	0003      	movs	r3, r0
20000112:	b510      	push	{r4, lr}
20000114:	6800      	ldr	r0, [r0, #0]
20000116:	f3ef 8410 	mrs	r4, PRIMASK
2000011a:	b672      	cpsid	i
2000011c:	6802      	ldr	r2, [r0, #0]
2000011e:	2a00      	cmp	r2, #0
20000120:	d0fc      	beq.n	2000011c <mutex_try_enter+0xc>
20000122:	f3bf 8f5f 	dmb	sy
20000126:	791a      	ldrb	r2, [r3, #4]
20000128:	2a00      	cmp	r2, #0
2000012a:	d00d      	beq.n	20000148 <mutex_try_enter+0x38>
2000012c:	2900      	cmp	r1, #0
2000012e:	d013      	beq.n	20000158 <mutex_try_enter+0x48>
20000130:	2205      	movs	r2, #5
20000132:	2000      	movs	r0, #0
20000134:	569a      	ldrsb	r2, [r3, r2]
20000136:	600a      	str	r2, [r1, #0]
20000138:	681b      	ldr	r3, [r3, #0]
2000013a:	f3bf 8f5f 	dmb	sy
2000013e:	2200      	movs	r2, #0
20000140:	601a      	str	r2, [r3, #0]
20000142:	f384 8810 	msr	PRIMASK, r4
20000146:	bd10      	pop	{r4, pc}
20000148:	3201      	adds	r2, #1
2000014a:	711a      	strb	r2, [r3, #4]
2000014c:	22d0      	movs	r2, #208	; 0xd0
2000014e:	0612      	lsls	r2, r2, #24
20000150:	6812      	ldr	r2, [r2, #0]
20000152:	2001      	movs	r0, #1
20000154:	715a      	strb	r2, [r3, #5]
20000156:	e7ef      	b.n	20000138 <mutex_try_enter+0x28>
20000158:	2000      	movs	r0, #0
2000015a:	e7ed      	b.n	20000138 <mutex_try_enter+0x28>

2000015c <mutex_exit>:
2000015c:	6802      	ldr	r2, [r0, #0]
2000015e:	f3ef 8110 	mrs	r1, PRIMASK
20000162:	b672      	cpsid	i
20000164:	6813      	ldr	r3, [r2, #0]
20000166:	2b00      	cmp	r3, #0
20000168:	d0fc      	beq.n	20000164 <mutex_exit+0x8>
2000016a:	f3bf 8f5f 	dmb	sy
2000016e:	2300      	movs	r3, #0
20000170:	7103      	strb	r3, [r0, #4]
20000172:	bf40      	sev
20000174:	6802      	ldr	r2, [r0, #0]
20000176:	f3bf 8f5f 	dmb	sy
2000017a:	6013      	str	r3, [r2, #0]
2000017c:	f381 8810 	msr	PRIMASK, r1
20000180:	4770      	bx	lr
20000182:	46c0      	nop			; (mov r8, r8)

20000184 <__aeabi_idiv0>:
20000184:	4770      	bx	lr
20000186:	46c0      	nop			; (mov r8, r8)

20000188 <striped_spin_lock_num>:
20000188:	0010 0000                                   ....

2000018c <irq_handler_chain_slots>:
2000018c:	00000000 	.word	0x00000000
20000190:	00010000 	.word	0x00010000
	...
2000019c:	00020000 	.word	0x00020000
	...
200001a8:	00030000 	.word	0x00030000
	...
200001b4:	00ff0000 	.word	0x00ff0000
200001b8:	00000000 	.word	0x00000000

200001bc <irq_handler_chain_first_slot>:
200001bc:	b500      	push	{lr}
200001be:	6848      	ldr	r0, [r1, #4]
200001c0:	3101      	adds	r1, #1
200001c2:	468e      	mov	lr, r1
200001c4:	4700      	bx	r0

200001c6 <irq_handler_chain_remove_tail>:
200001c6:	4670      	mov	r0, lr
200001c8:	3809      	subs	r0, #9
200001ca:	4901      	ldr	r1, [pc, #4]	; (200001d0 <irq_handler_chain_remove_tail+0xa>)
200001cc:	4788      	blx	r1
200001ce:	bd00      	pop	{pc}
200001d0:	10001995 	.word	0x10001995
	...

200001e0 <aeabi_bits_funcs>:
200001e0:	00003350 	.word	0x00003350
200001e4:	0000334c 	.word	0x0000334c
200001e8:	00003354 	.word	0x00003354
200001ec:	00003352 	.word	0x00003352

200001f0 <aeabi_bits_funcs_end>:
200001f0:	0000534d 	.word	0x0000534d
200001f4:	0000434d 	.word	0x0000434d
200001f8:	00003453 	.word	0x00003453
200001fc:	00003443 	.word	0x00003443

20000200 <stdio_uart>:
20000200:	100044ad 00000000 100044e9 00000000     .D.......D......
20000210:	00000100                                ....

20000214 <_impure_ptr>:
20000214:	20000218                                ... 

20000218 <impure_data>:
20000218:	00000000 20000504 2000056c 200005d4     ....... l.. ... 
	...
200002c0:	00000001 00000000 abcd330e e66d1234     .........3..4.m.
200002d0:	0005deec 0000000b 00000000 00000000     ................
	...

20000640 <__malloc_av_>:
	...
20000648:	20000640 20000640 20000648 20000648     @.. @.. H.. H.. 
20000658:	20000650 20000650 20000658 20000658     P.. P.. X.. X.. 
20000668:	20000660 20000660 20000668 20000668     `.. `.. h.. h.. 
20000678:	20000670 20000670 20000678 20000678     p.. p.. x.. x.. 
20000688:	20000680 20000680 20000688 20000688     ... ... ... ... 
20000698:	20000690 20000690 20000698 20000698     ... ... ... ... 
200006a8:	200006a0 200006a0 200006a8 200006a8     ... ... ... ... 
200006b8:	200006b0 200006b0 200006b8 200006b8     ... ... ... ... 
200006c8:	200006c0 200006c0 200006c8 200006c8     ... ... ... ... 
200006d8:	200006d0 200006d0 200006d8 200006d8     ... ... ... ... 
200006e8:	200006e0 200006e0 200006e8 200006e8     ... ... ... ... 
200006f8:	200006f0 200006f0 200006f8 200006f8     ... ... ... ... 
20000708:	20000700 20000700 20000708 20000708     ... ... ... ... 
20000718:	20000710 20000710 20000718 20000718     ... ... ... ... 
20000728:	20000720 20000720 20000728 20000728      ..  .. (.. (.. 
20000738:	20000730 20000730 20000738 20000738     0.. 0.. 8.. 8.. 
20000748:	20000740 20000740 20000748 20000748     @.. @.. H.. H.. 
20000758:	20000750 20000750 20000758 20000758     P.. P.. X.. X.. 
20000768:	20000760 20000760 20000768 20000768     `.. `.. h.. h.. 
20000778:	20000770 20000770 20000778 20000778     p.. p.. x.. x.. 
20000788:	20000780 20000780 20000788 20000788     ... ... ... ... 
20000798:	20000790 20000790 20000798 20000798     ... ... ... ... 
200007a8:	200007a0 200007a0 200007a8 200007a8     ... ... ... ... 
200007b8:	200007b0 200007b0 200007b8 200007b8     ... ... ... ... 
200007c8:	200007c0 200007c0 200007c8 200007c8     ... ... ... ... 
200007d8:	200007d0 200007d0 200007d8 200007d8     ... ... ... ... 
200007e8:	200007e0 200007e0 200007e8 200007e8     ... ... ... ... 
200007f8:	200007f0 200007f0 200007f8 200007f8     ... ... ... ... 
20000808:	20000800 20000800 20000808 20000808     ... ... ... ... 
20000818:	20000810 20000810 20000818 20000818     ... ... ... ... 
20000828:	20000820 20000820 20000828 20000828      ..  .. (.. (.. 
20000838:	20000830 20000830 20000838 20000838     0.. 0.. 8.. 8.. 
20000848:	20000840 20000840 20000848 20000848     @.. @.. H.. H.. 
20000858:	20000850 20000850 20000858 20000858     P.. P.. X.. X.. 
20000868:	20000860 20000860 20000868 20000868     `.. `.. h.. h.. 
20000878:	20000870 20000870 20000878 20000878     p.. p.. x.. x.. 
20000888:	20000880 20000880 20000888 20000888     ... ... ... ... 
20000898:	20000890 20000890 20000898 20000898     ... ... ... ... 
200008a8:	200008a0 200008a0 200008a8 200008a8     ... ... ... ... 
200008b8:	200008b0 200008b0 200008b8 200008b8     ... ... ... ... 
200008c8:	200008c0 200008c0 200008c8 200008c8     ... ... ... ... 
200008d8:	200008d0 200008d0 200008d8 200008d8     ... ... ... ... 
200008e8:	200008e0 200008e0 200008e8 200008e8     ... ... ... ... 
200008f8:	200008f0 200008f0 200008f8 200008f8     ... ... ... ... 
20000908:	20000900 20000900 20000908 20000908     ... ... ... ... 
20000918:	20000910 20000910 20000918 20000918     ... ... ... ... 
20000928:	20000920 20000920 20000928 20000928      ..  .. (.. (.. 
20000938:	20000930 20000930 20000938 20000938     0.. 0.. 8.. 8.. 
20000948:	20000940 20000940 20000948 20000948     @.. @.. H.. H.. 
20000958:	20000950 20000950 20000958 20000958     P.. P.. X.. X.. 
20000968:	20000960 20000960 20000968 20000968     `.. `.. h.. h.. 
20000978:	20000970 20000970 20000978 20000978     p.. p.. x.. x.. 
20000988:	20000980 20000980 20000988 20000988     ... ... ... ... 
20000998:	20000990 20000990 20000998 20000998     ... ... ... ... 
200009a8:	200009a0 200009a0 200009a8 200009a8     ... ... ... ... 
200009b8:	200009b0 200009b0 200009b8 200009b8     ... ... ... ... 
200009c8:	200009c0 200009c0 200009c8 200009c8     ... ... ... ... 
200009d8:	200009d0 200009d0 200009d8 200009d8     ... ... ... ... 
200009e8:	200009e0 200009e0 200009e8 200009e8     ... ... ... ... 
200009f8:	200009f0 200009f0 200009f8 200009f8     ... ... ... ... 
20000a08:	20000a00 20000a00 20000a08 20000a08     ... ... ... ... 
20000a18:	20000a10 20000a10 20000a18 20000a18     ... ... ... ... 
20000a28:	20000a20 20000a20 20000a28 20000a28      ..  .. (.. (.. 
20000a38:	20000a30 20000a30 20000a38 20000a38     0.. 0.. 8.. 8.. 

20000a48 <__malloc_sbrk_base>:
20000a48:	ffffffff                                ....

20000a4c <__malloc_trim_threshold>:
20000a4c:	00020000                                ....

20000a50 <print_mutex>:
	...

20000a58 <__mutex_array_end>:
20000a58:	10003fa1 	.word	0x10003fa1
20000a5c:	100030d1 	.word	0x100030d1
20000a60:	100037c5 	.word	0x100037c5
20000a64:	10003ed1 	.word	0x10003ed1

20000a68 <__frame_dummy_init_array_entry>:
20000a68:	10000301                                ....
