
pwm_measure_duty_cycle.elf:     file format elf32-littlearm

Sections:
Idx Name          Size      VMA       LMA       File off  Algn
  0 .boot2        00000100  10000000  10000000  00010000  2**0
                  CONTENTS, ALLOC, LOAD, READONLY, DATA
  1 .text         00004d30  10000100  10000100  00010100  2**3
                  CONTENTS, ALLOC, LOAD, READONLY, CODE
  2 .rodata       000003fc  10004e30  10004e30  00014e30  2**3
                  CONTENTS, ALLOC, LOAD, READONLY, DATA
  3 .binary_info  00000024  1000522c  1000522c  0001522c  2**2
                  CONTENTS, ALLOC, LOAD, DATA
  4 .ram_vector_table 000000c0  20000000  20000000  00020a6c  2**2
                  CONTENTS
  5 .data         000009ac  200000c0  10005250  000200c0  2**4
                  CONTENTS, ALLOC, LOAD, CODE
  6 .uninitialized_data 00000000  20000a6c  20000a6c  00020b2c  2**0
                  CONTENTS
  7 .scratch_x    00000000  20040000  20040000  00020b2c  2**0
                  CONTENTS
  8 .scratch_y    00000000  20041000  20041000  00020b2c  2**0
                  CONTENTS
  9 .bss          000002f0  20000a6c  20000a6c  00020a6c  2**2
                  ALLOC
 10 .heap         00000800  20000d5c  20000d5c  00020b2c  2**2
                  CONTENTS, READONLY
 11 .stack_dummy  00000800  20041000  20041000  00021340  2**5
                  CONTENTS, READONLY
 12 .ARM.attributes 00000028  00000000  00000000  00021b40  2**0
                  CONTENTS, READONLY
 13 .comment      00000079  00000000  00000000  00021b68  2**0
                  CONTENTS, READONLY
 14 .debug_frame  000002ac  00000000  00000000  00021be4  2**2
                  CONTENTS, READONLY, DEBUGGING

pwm_measure_duty_cycle.elf:     file format elf32-littlearm


Disassembly of section .text:

10000100 <__reset_start>:
10000100:	4827      	ldr	r0, [pc, #156]	; (100001a0 <__get_current_exception+0xa>)
10000102:	e000      	b.n	10000106 <__vector_entry>

10000104 <_entry_point>:
10000104:	2000      	movs	r0, #0

10000106 <__vector_entry>:
10000106:	4927      	ldr	r1, [pc, #156]	; (100001a4 <__get_current_exception+0xe>)
10000108:	6088      	str	r0, [r1, #8]
1000010a:	c806      	ldmia	r0!, {r1, r2}
1000010c:	f381 8808 	msr	MSP, r1
10000110:	4710      	bx	r2

10000112 <_reset_handler>:
10000112:	4825      	ldr	r0, [pc, #148]	; (100001a8 <__get_current_exception+0x12>)
10000114:	6800      	ldr	r0, [r0, #0]
10000116:	2800      	cmp	r0, #0
10000118:	d139      	bne.n	1000018e <wait_for_vector>
1000011a:	a412      	add	r4, pc, #72	; (adr r4, 10000164 <data_cpy_table>)
1000011c:	cc0e      	ldmia	r4!, {r1, r2, r3}
1000011e:	2900      	cmp	r1, #0
10000120:	d002      	beq.n	10000128 <_reset_handler+0x16>
10000122:	f000 f812 	bl	1000014a <data_cpy>
10000126:	e7f9      	b.n	1000011c <_reset_handler+0xa>
10000128:	4920      	ldr	r1, [pc, #128]	; (100001ac <__get_current_exception+0x16>)
1000012a:	4a21      	ldr	r2, [pc, #132]	; (100001b0 <__get_current_exception+0x1a>)
1000012c:	2000      	movs	r0, #0
1000012e:	e000      	b.n	10000132 <bss_fill_test>

10000130 <bss_fill_loop>:
10000130:	c101      	stmia	r1!, {r0}

10000132 <bss_fill_test>:
10000132:	4291      	cmp	r1, r2
10000134:	d1fc      	bne.n	10000130 <bss_fill_loop>

10000136 <platform_entry>:
10000136:	491f      	ldr	r1, [pc, #124]	; (100001b4 <__get_current_exception+0x1e>)
10000138:	4788      	blx	r1
1000013a:	491f      	ldr	r1, [pc, #124]	; (100001b8 <__get_current_exception+0x22>)
1000013c:	4788      	blx	r1
1000013e:	491f      	ldr	r1, [pc, #124]	; (100001bc <__get_current_exception+0x26>)
10000140:	4788      	blx	r1
10000142:	be00      	bkpt	0x0000
10000144:	e7fd      	b.n	10000142 <platform_entry+0xc>

10000146 <data_cpy_loop>:
10000146:	c901      	ldmia	r1!, {r0}
10000148:	c201      	stmia	r2!, {r0}

1000014a <data_cpy>:
1000014a:	429a      	cmp	r2, r3
1000014c:	d3fb      	bcc.n	10000146 <data_cpy_loop>
1000014e:	4770      	bx	lr

10000150 <binary_info_header>:
10000150:	7188ebf2 	.word	0x7188ebf2
10000154:	1000522c 	.word	0x1000522c
10000158:	10005250 	.word	0x10005250
1000015c:	10000164 	.word	0x10000164
10000160:	e71aa390 	.word	0xe71aa390

10000164 <data_cpy_table>:
10000164:	10005250 	.word	0x10005250
10000168:	200000c0 	.word	0x200000c0
1000016c:	20000a6c 	.word	0x20000a6c
10000170:	10005bfc 	.word	0x10005bfc
10000174:	20040000 	.word	0x20040000
10000178:	20040000 	.word	0x20040000
1000017c:	10005bfc 	.word	0x10005bfc
10000180:	20041000 	.word	0x20041000
10000184:	20041000 	.word	0x20041000
10000188:	00000000 	.word	0x00000000
1000018c:	4770      	bx	lr

1000018e <wait_for_vector>:
1000018e:	480c      	ldr	r0, [pc, #48]	; (100001c0 <__get_current_exception+0x2a>)
10000190:	f002 ffa8 	bl	100030e4 <rom_func_lookup>
10000194:	4700      	bx	r0

10000196 <__get_current_exception>:
10000196:	f3ef 8005 	mrs	r0, IPSR
1000019a:	b2c0      	uxtb	r0, r0
1000019c:	4770      	bx	lr
1000019e:	0000      	.short	0x0000
100001a0:	10000200 	.word	0x10000200
100001a4:	e000ed00 	.word	0xe000ed00
100001a8:	d0000000 	.word	0xd0000000
100001ac:	20000a6c 	.word	0x20000a6c
100001b0:	20000d5c 	.word	0x20000d5c
100001b4:	10001275 	.word	0x10001275
100001b8:	10000321 	.word	0x10000321
100001bc:	10001395 	.word	0x10001395
100001c0:	00005657 	.word	0x00005657

100001c4 <__bi_46>:
100001c4:	50520006 5360b3ab 10005190              ..RP..`S.Q..

100001d0 <__bi_34>:
100001d0:	50520006 02031c86 100051a0              ..RP.....Q..

100001dc <__bi_26>:
100001dc:	50520006 9da22254 100051b8              ..RPT"...Q..

100001e8 <__bi_18>:
100001e8:	50520005 68f465de 10005bfc 00000000     ..RP.e.h.[......
	...

10000200 <__reset_end>:
10000200:	20042000 	.word	0x20042000
10000204:	10000113 	.word	0x10000113
10000208:	100002c3 	.word	0x100002c3
1000020c:	100002c5 	.word	0x100002c5
10000210:	100002c1 	.word	0x100002c1
10000214:	100002c1 	.word	0x100002c1
10000218:	100002c1 	.word	0x100002c1
1000021c:	100002c1 	.word	0x100002c1
10000220:	100002c1 	.word	0x100002c1
10000224:	100002c1 	.word	0x100002c1
10000228:	100002c1 	.word	0x100002c1
1000022c:	100002c7 	.word	0x100002c7
10000230:	100002c1 	.word	0x100002c1
10000234:	100002c1 	.word	0x100002c1
10000238:	100002c9 	.word	0x100002c9
1000023c:	100002cb 	.word	0x100002cb
10000240:	100002cd 	.word	0x100002cd
10000244:	100002cd 	.word	0x100002cd
10000248:	100002cd 	.word	0x100002cd
1000024c:	100002cd 	.word	0x100002cd
10000250:	100002cd 	.word	0x100002cd
10000254:	100002cd 	.word	0x100002cd
10000258:	100002cd 	.word	0x100002cd
1000025c:	100002cd 	.word	0x100002cd
10000260:	100002cd 	.word	0x100002cd
10000264:	100002cd 	.word	0x100002cd
10000268:	100002cd 	.word	0x100002cd
1000026c:	100002cd 	.word	0x100002cd
10000270:	100002cd 	.word	0x100002cd
10000274:	100002cd 	.word	0x100002cd
10000278:	100002cd 	.word	0x100002cd
1000027c:	100002cd 	.word	0x100002cd
10000280:	100002cd 	.word	0x100002cd
10000284:	100002cd 	.word	0x100002cd
10000288:	100002cd 	.word	0x100002cd
1000028c:	100002cd 	.word	0x100002cd
10000290:	100002cd 	.word	0x100002cd
10000294:	100002cd 	.word	0x100002cd
10000298:	100002cd 	.word	0x100002cd
1000029c:	100002cd 	.word	0x100002cd
100002a0:	100002cd 	.word	0x100002cd
100002a4:	100002cd 	.word	0x100002cd
100002a8:	100002cd 	.word	0x100002cd
100002ac:	100002cd 	.word	0x100002cd
100002b0:	100002cd 	.word	0x100002cd
100002b4:	100002cd 	.word	0x100002cd
100002b8:	100002cd 	.word	0x100002cd
100002bc:	100002cd 	.word	0x100002cd

100002c0 <isr_invalid>:
100002c0:	be00      	bkpt	0x0000

100002c2 <isr_nmi>:
100002c2:	be00      	bkpt	0x0000

100002c4 <isr_hardfault>:
100002c4:	be00      	bkpt	0x0000

100002c6 <isr_svcall>:
100002c6:	be00      	bkpt	0x0000

100002c8 <isr_pendsv>:
100002c8:	be00      	bkpt	0x0000

100002ca <isr_systick>:
100002ca:	be00      	bkpt	0x0000

100002cc <__unhandled_user_irq>:
100002cc:	f7ff ff63 	bl	10000196 <__get_current_exception>
100002d0:	3810      	subs	r0, #16

100002d2 <unhandled_user_irq_num_in_r0>:
100002d2:	be00      	bkpt	0x0000

100002d4 <_init>:
100002d4:	b5f8      	push	{r3, r4, r5, r6, r7, lr}
100002d6:	46c0      	nop			; (mov r8, r8)

100002d8 <__do_global_dtors_aux>:
100002d8:	b510      	push	{r4, lr}
100002da:	4c06      	ldr	r4, [pc, #24]	; (100002f4 <__do_global_dtors_aux+0x1c>)
100002dc:	7823      	ldrb	r3, [r4, #0]
100002de:	2b00      	cmp	r3, #0
100002e0:	d107      	bne.n	100002f2 <__do_global_dtors_aux+0x1a>
100002e2:	4b05      	ldr	r3, [pc, #20]	; (100002f8 <__do_global_dtors_aux+0x20>)
100002e4:	2b00      	cmp	r3, #0
100002e6:	d002      	beq.n	100002ee <__do_global_dtors_aux+0x16>
100002e8:	4804      	ldr	r0, [pc, #16]	; (100002fc <__do_global_dtors_aux+0x24>)
100002ea:	e000      	b.n	100002ee <__do_global_dtors_aux+0x16>
100002ec:	bf00      	nop
100002ee:	2301      	movs	r3, #1
100002f0:	7023      	strb	r3, [r4, #0]
100002f2:	bd10      	pop	{r4, pc}
100002f4:	20000a6c 	.word	0x20000a6c
100002f8:	00000000 	.word	0x00000000
100002fc:	10004e30 	.word	0x10004e30

10000300 <frame_dummy>:
10000300:	4b04      	ldr	r3, [pc, #16]	; (10000314 <frame_dummy+0x14>)
10000302:	b510      	push	{r4, lr}
10000304:	2b00      	cmp	r3, #0
10000306:	d003      	beq.n	10000310 <frame_dummy+0x10>
10000308:	4903      	ldr	r1, [pc, #12]	; (10000318 <frame_dummy+0x18>)
1000030a:	4804      	ldr	r0, [pc, #16]	; (1000031c <frame_dummy+0x1c>)
1000030c:	e000      	b.n	10000310 <frame_dummy+0x10>
1000030e:	bf00      	nop
10000310:	bd10      	pop	{r4, pc}
10000312:	46c0      	nop			; (mov r8, r8)
10000314:	00000000 	.word	0x00000000
10000318:	20000a70 	.word	0x20000a70
1000031c:	10004e30 	.word	0x10004e30

10000320 <main>:
10000320:	b5f0      	push	{r4, r5, r6, r7, lr}
10000322:	46de      	mov	lr, fp
10000324:	4657      	mov	r7, sl
10000326:	464e      	mov	r6, r9
10000328:	4645      	mov	r5, r8
1000032a:	b5e0      	push	{r5, r6, r7, lr}
1000032c:	b083      	sub	sp, #12
1000032e:	f004 f86f 	bl	10004410 <stdio_init_all>
10000332:	4842      	ldr	r0, [pc, #264]	; (1000043c <main+0x11c>)
10000334:	f003 ffb0 	bl	10004298 <__wrap_puts>
10000338:	2200      	movs	r2, #0
1000033a:	4b41      	ldr	r3, [pc, #260]	; (10000440 <main+0x120>)
1000033c:	2104      	movs	r1, #4
1000033e:	615a      	str	r2, [r3, #20]
10000340:	61da      	str	r2, [r3, #28]
10000342:	621a      	str	r2, [r3, #32]
10000344:	22fa      	movs	r2, #250	; 0xfa
10000346:	0092      	lsls	r2, r2, #2
10000348:	625a      	str	r2, [r3, #36]	; 0x24
1000034a:	2210      	movs	r2, #16
1000034c:	619a      	str	r2, [r3, #24]
1000034e:	3a0f      	subs	r2, #15
10000350:	615a      	str	r2, [r3, #20]
10000352:	2002      	movs	r0, #2
10000354:	f000 f88c 	bl	10000470 <gpio_set_function>
10000358:	2314      	movs	r3, #20
1000035a:	4698      	mov	r8, r3
1000035c:	4e39      	ldr	r6, [pc, #228]	; (10000444 <main+0x124>)
1000035e:	4f3a      	ldr	r7, [pc, #232]	; (10000448 <main+0x128>)
10000360:	44b0      	add	r8, r6
10000362:	ce20      	ldmia	r6!, {r5}
10000364:	4b39      	ldr	r3, [pc, #228]	; (1000044c <main+0x12c>)
10000366:	493a      	ldr	r1, [pc, #232]	; (10000450 <main+0x130>)
10000368:	1c28      	adds	r0, r5, #0
1000036a:	681c      	ldr	r4, [r3, #0]
1000036c:	f003 fdce 	bl	10003f0c <__wrap___aeabi_fmul>
10000370:	f003 fdfa 	bl	10003f68 <__wrap___aeabi_f2uiz>
10000374:	4060      	eors	r0, r4
10000376:	4b37      	ldr	r3, [pc, #220]	; (10000454 <main+0x134>)
10000378:	0400      	lsls	r0, r0, #16
1000037a:	0c00      	lsrs	r0, r0, #16
1000037c:	6018      	str	r0, [r3, #0]
1000037e:	2300      	movs	r3, #0
10000380:	4c2f      	ldr	r4, [pc, #188]	; (10000440 <main+0x120>)
10000382:	2104      	movs	r1, #4
10000384:	62a3      	str	r3, [r4, #40]	; 0x28
10000386:	6323      	str	r3, [r4, #48]	; 0x30
10000388:	6363      	str	r3, [r4, #52]	; 0x34
1000038a:	4b33      	ldr	r3, [pc, #204]	; (10000458 <main+0x138>)
1000038c:	2005      	movs	r0, #5
1000038e:	63a3      	str	r3, [r4, #56]	; 0x38
10000390:	23c8      	movs	r3, #200	; 0xc8
10000392:	00db      	lsls	r3, r3, #3
10000394:	62e3      	str	r3, [r4, #44]	; 0x2c
10000396:	2310      	movs	r3, #16
10000398:	62a3      	str	r3, [r4, #40]	; 0x28
1000039a:	f000 f869 	bl	10000470 <gpio_set_function>
1000039e:	2201      	movs	r2, #1
100003a0:	4b2e      	ldr	r3, [pc, #184]	; (1000045c <main+0x13c>)
100003a2:	4691      	mov	r9, r2
100003a4:	469b      	mov	fp, r3
100003a6:	681b      	ldr	r3, [r3, #0]
100003a8:	200a      	movs	r0, #10
100003aa:	439a      	bics	r2, r3
100003ac:	0013      	movs	r3, r2
100003ae:	4a2c      	ldr	r2, [pc, #176]	; (10000460 <main+0x140>)
100003b0:	6013      	str	r3, [r2, #0]
100003b2:	4692      	mov	sl, r2
100003b4:	f000 fba6 	bl	10000b04 <sleep_ms>
100003b8:	465b      	mov	r3, fp
100003ba:	464a      	mov	r2, r9
100003bc:	681b      	ldr	r3, [r3, #0]
100003be:	2005      	movs	r0, #5
100003c0:	4013      	ands	r3, r2
100003c2:	4652      	mov	r2, sl
100003c4:	6013      	str	r3, [r2, #0]
100003c6:	f001 f975 	bl	100016b4 <clock_get_hz>
100003ca:	6b23      	ldr	r3, [r4, #48]	; 0x30
100003cc:	4681      	mov	r9, r0
100003ce:	469a      	mov	sl, r3
100003d0:	4924      	ldr	r1, [pc, #144]	; (10000464 <main+0x144>)
100003d2:	1c28      	adds	r0, r5, #0
100003d4:	f003 fd9a 	bl	10003f0c <__wrap___aeabi_fmul>
100003d8:	f003 fdcc 	bl	10003f74 <__wrap___aeabi_f2d>
100003dc:	4653      	mov	r3, sl
100003de:	0004      	movs	r4, r0
100003e0:	b218      	sxth	r0, r3
100003e2:	000d      	movs	r5, r1
100003e4:	f003 fd9e 	bl	10003f24 <__wrap___aeabi_i2f>
100003e8:	2164      	movs	r1, #100	; 0x64
100003ea:	4682      	mov	sl, r0
100003ec:	4648      	mov	r0, r9
100003ee:	f002 fed3 	bl	10003198 <__wrap___aeabi_uidiv>
100003f2:	f003 fd91 	bl	10003f18 <__wrap___aeabi_ui2f>
100003f6:	f003 fdbd 	bl	10003f74 <__wrap___aeabi_f2d>
100003fa:	4a1b      	ldr	r2, [pc, #108]	; (10000468 <main+0x148>)
100003fc:	4b1b      	ldr	r3, [pc, #108]	; (1000046c <main+0x14c>)
100003fe:	f003 f92b 	bl	10003658 <__wrap___aeabi_dmul>
10000402:	f003 f9e1 	bl	100037c8 <__wrap___aeabi_d2f>
10000406:	1c01      	adds	r1, r0, #0
10000408:	4650      	mov	r0, sl
1000040a:	f003 fd7c 	bl	10003f06 <__wrap___aeabi_fdiv>
1000040e:	4915      	ldr	r1, [pc, #84]	; (10000464 <main+0x144>)
10000410:	f003 fd7c 	bl	10003f0c <__wrap___aeabi_fmul>
10000414:	f003 fdae 	bl	10003f74 <__wrap___aeabi_f2d>
10000418:	0022      	movs	r2, r4
1000041a:	9000      	str	r0, [sp, #0]
1000041c:	9101      	str	r1, [sp, #4]
1000041e:	002b      	movs	r3, r5
10000420:	0038      	movs	r0, r7
10000422:	f003 ffe9 	bl	100043f8 <__wrap_printf>
10000426:	4546      	cmp	r6, r8
10000428:	d19b      	bne.n	10000362 <main+0x42>
1000042a:	2000      	movs	r0, #0
1000042c:	b003      	add	sp, #12
1000042e:	bc3c      	pop	{r2, r3, r4, r5}
10000430:	4690      	mov	r8, r2
10000432:	4699      	mov	r9, r3
10000434:	46a2      	mov	sl, r4
10000436:	46ab      	mov	fp, r5
10000438:	bdf0      	pop	{r4, r5, r6, r7, pc}
1000043a:	46c0      	nop			; (mov r8, r8)
1000043c:	10004e30 	.word	0x10004e30
10000440:	40050000 	.word	0x40050000
10000444:	10004e94 	.word	0x10004e94
10000448:	10004e54 	.word	0x10004e54
1000044c:	40050020 	.word	0x40050020
10000450:	447a4000 	.word	0x447a4000
10000454:	40051020 	.word	0x40051020
10000458:	0000ffff 	.word	0x0000ffff
1000045c:	40050028 	.word	0x40050028
10000460:	40051028 	.word	0x40051028
10000464:	42c80000 	.word	0x42c80000
10000468:	47ae147b 	.word	0x47ae147b
1000046c:	3f847ae1 	.word	0x3f847ae1

10000470 <gpio_set_function>:
10000470:	4a09      	ldr	r2, [pc, #36]	; (10000498 <gpio_set_function+0x28>)
10000472:	0083      	lsls	r3, r0, #2
10000474:	4694      	mov	ip, r2
10000476:	2240      	movs	r2, #64	; 0x40
10000478:	4463      	add	r3, ip
1000047a:	b510      	push	{r4, lr}
1000047c:	681c      	ldr	r4, [r3, #0]
1000047e:	00c0      	lsls	r0, r0, #3
10000480:	4062      	eors	r2, r4
10000482:	24c0      	movs	r4, #192	; 0xc0
10000484:	4014      	ands	r4, r2
10000486:	2280      	movs	r2, #128	; 0x80
10000488:	0152      	lsls	r2, r2, #5
1000048a:	4313      	orrs	r3, r2
1000048c:	601c      	str	r4, [r3, #0]
1000048e:	4b03      	ldr	r3, [pc, #12]	; (1000049c <gpio_set_function+0x2c>)
10000490:	469c      	mov	ip, r3
10000492:	4460      	add	r0, ip
10000494:	6041      	str	r1, [r0, #4]
10000496:	bd10      	pop	{r4, pc}
10000498:	4001c004 	.word	0x4001c004
1000049c:	40014000 	.word	0x40014000

100004a0 <hw_claim_or_assert>:
100004a0:	b5f8      	push	{r3, r4, r5, r6, r7, lr}
100004a2:	46ce      	mov	lr, r9
100004a4:	4647      	mov	r7, r8
100004a6:	4691      	mov	r9, r2
100004a8:	b580      	push	{r7, lr}
100004aa:	f3ef 8710 	mrs	r7, PRIMASK
100004ae:	b672      	cpsid	i
100004b0:	4e12      	ldr	r6, [pc, #72]	; (100004fc <hw_claim_or_assert+0x5c>)
100004b2:	6833      	ldr	r3, [r6, #0]
100004b4:	2b00      	cmp	r3, #0
100004b6:	d0fc      	beq.n	100004b2 <hw_claim_or_assert+0x12>
100004b8:	f3bf 8f5f 	dmb	sy
100004bc:	08cb      	lsrs	r3, r1, #3
100004be:	5cc5      	ldrb	r5, [r0, r3]
100004c0:	2407      	movs	r4, #7
100004c2:	18c2      	adds	r2, r0, r3
100004c4:	0028      	movs	r0, r5
100004c6:	2301      	movs	r3, #1
100004c8:	400c      	ands	r4, r1
100004ca:	4694      	mov	ip, r2
100004cc:	40e0      	lsrs	r0, r4
100004ce:	001a      	movs	r2, r3
100004d0:	4002      	ands	r2, r0
100004d2:	4690      	mov	r8, r2
100004d4:	4203      	tst	r3, r0
100004d6:	d10d      	bne.n	100004f4 <hw_claim_or_assert+0x54>
100004d8:	40a3      	lsls	r3, r4
100004da:	4662      	mov	r2, ip
100004dc:	432b      	orrs	r3, r5
100004de:	7013      	strb	r3, [r2, #0]
100004e0:	f3bf 8f5f 	dmb	sy
100004e4:	4643      	mov	r3, r8
100004e6:	6033      	str	r3, [r6, #0]
100004e8:	f387 8810 	msr	PRIMASK, r7
100004ec:	bc0c      	pop	{r2, r3}
100004ee:	4690      	mov	r8, r2
100004f0:	4699      	mov	r9, r3
100004f2:	bdf8      	pop	{r3, r4, r5, r6, r7, pc}
100004f4:	4648      	mov	r0, r9
100004f6:	f000 ff4f 	bl	10001398 <panic>
100004fa:	46c0      	nop			; (mov r8, r8)
100004fc:	d000012c 	.word	0xd000012c

10000500 <spin_locks_reset>:
10000500:	2100      	movs	r1, #0
10000502:	4b04      	ldr	r3, [pc, #16]	; (10000514 <spin_locks_reset+0x14>)
10000504:	4a04      	ldr	r2, [pc, #16]	; (10000518 <spin_locks_reset+0x18>)
10000506:	f3bf 8f5f 	dmb	sy
1000050a:	c302      	stmia	r3!, {r1}
1000050c:	4293      	cmp	r3, r2
1000050e:	d1fa      	bne.n	10000506 <spin_locks_reset+0x6>
10000510:	4770      	bx	lr
10000512:	46c0      	nop			; (mov r8, r8)
10000514:	d0000100 	.word	0xd0000100
10000518:	d0000180 	.word	0xd0000180

1000051c <next_striped_spin_lock_num>:
1000051c:	4a04      	ldr	r2, [pc, #16]	; (10000530 <next_striped_spin_lock_num+0x14>)
1000051e:	7810      	ldrb	r0, [r2, #0]
10000520:	1c43      	adds	r3, r0, #1
10000522:	b2db      	uxtb	r3, r3
10000524:	2b17      	cmp	r3, #23
10000526:	d900      	bls.n	1000052a <next_striped_spin_lock_num+0xe>
10000528:	2310      	movs	r3, #16
1000052a:	7013      	strb	r3, [r2, #0]
1000052c:	4770      	bx	lr
1000052e:	46c0      	nop			; (mov r8, r8)
10000530:	20000188 	.word	0x20000188

10000534 <running_on_fpga>:
10000534:	4b02      	ldr	r3, [pc, #8]	; (10000540 <running_on_fpga+0xc>)
10000536:	6818      	ldr	r0, [r3, #0]
10000538:	0780      	lsls	r0, r0, #30
1000053a:	0fc0      	lsrs	r0, r0, #31
1000053c:	4770      	bx	lr
1000053e:	46c0      	nop			; (mov r8, r8)
10000540:	4006c000 	.word	0x4006c000

10000544 <uart_init>:
10000544:	b5f0      	push	{r4, r5, r6, r7, lr}
10000546:	46c6      	mov	lr, r8
10000548:	0005      	movs	r5, r0
1000054a:	b500      	push	{lr}
1000054c:	2006      	movs	r0, #6
1000054e:	000e      	movs	r6, r1
10000550:	f001 f8b0 	bl	100016b4 <clock_get_hz>
10000554:	2800      	cmp	r0, #0
10000556:	d04d      	beq.n	100005f4 <uart_init+0xb0>
10000558:	4b29      	ldr	r3, [pc, #164]	; (10000600 <uart_init+0xbc>)
1000055a:	492a      	ldr	r1, [pc, #168]	; (10000604 <uart_init+0xc0>)
1000055c:	18eb      	adds	r3, r5, r3
1000055e:	425a      	negs	r2, r3
10000560:	4153      	adcs	r3, r2
10000562:	2280      	movs	r2, #128	; 0x80
10000564:	03d2      	lsls	r2, r2, #15
10000566:	4694      	mov	ip, r2
10000568:	425b      	negs	r3, r3
1000056a:	4013      	ands	r3, r2
1000056c:	4a26      	ldr	r2, [pc, #152]	; (10000608 <uart_init+0xc4>)
1000056e:	4463      	add	r3, ip
10000570:	6013      	str	r3, [r2, #0]
10000572:	4a26      	ldr	r2, [pc, #152]	; (1000060c <uart_init+0xc8>)
10000574:	6013      	str	r3, [r2, #0]
10000576:	001c      	movs	r4, r3
10000578:	688a      	ldr	r2, [r1, #8]
1000057a:	4394      	bics	r4, r2
1000057c:	d1fb      	bne.n	10000576 <uart_init+0x32>
1000057e:	4b20      	ldr	r3, [pc, #128]	; (10000600 <uart_init+0xbc>)
10000580:	2180      	movs	r1, #128	; 0x80
10000582:	18eb      	adds	r3, r5, r3
10000584:	425a      	negs	r2, r3
10000586:	4153      	adcs	r3, r2
10000588:	4a21      	ldr	r2, [pc, #132]	; (10000610 <uart_init+0xcc>)
1000058a:	005b      	lsls	r3, r3, #1
1000058c:	0049      	lsls	r1, r1, #1
1000058e:	2006      	movs	r0, #6
10000590:	5299      	strh	r1, [r3, r2]
10000592:	f001 f88f 	bl	100016b4 <clock_get_hz>
10000596:	0031      	movs	r1, r6
10000598:	00c0      	lsls	r0, r0, #3
1000059a:	f002 fdfd 	bl	10003198 <__wrap___aeabi_uidiv>
1000059e:	267f      	movs	r6, #127	; 0x7f
100005a0:	4b1c      	ldr	r3, [pc, #112]	; (10000614 <uart_init+0xd0>)
100005a2:	4006      	ands	r6, r0
100005a4:	09c7      	lsrs	r7, r0, #7
100005a6:	3601      	adds	r6, #1
100005a8:	0876      	lsrs	r6, r6, #1
100005aa:	626f      	str	r7, [r5, #36]	; 0x24
100005ac:	429f      	cmp	r7, r3
100005ae:	d024      	beq.n	100005fa <uart_init+0xb6>
100005b0:	62ae      	str	r6, [r5, #40]	; 0x28
100005b2:	232c      	movs	r3, #44	; 0x2c
100005b4:	4698      	mov	r8, r3
100005b6:	2480      	movs	r4, #128	; 0x80
100005b8:	44a8      	add	r8, r5
100005ba:	4643      	mov	r3, r8
100005bc:	01a4      	lsls	r4, r4, #6
100005be:	431c      	orrs	r4, r3
100005c0:	2300      	movs	r3, #0
100005c2:	2006      	movs	r0, #6
100005c4:	6023      	str	r3, [r4, #0]
100005c6:	f001 f875 	bl	100016b4 <clock_get_hz>
100005ca:	01b9      	lsls	r1, r7, #6
100005cc:	1989      	adds	r1, r1, r6
100005ce:	0080      	lsls	r0, r0, #2
100005d0:	f002 fde2 	bl	10003198 <__wrap___aeabi_uidiv>
100005d4:	2360      	movs	r3, #96	; 0x60
100005d6:	6aea      	ldr	r2, [r5, #44]	; 0x2c
100005d8:	4641      	mov	r1, r8
100005da:	4053      	eors	r3, r2
100005dc:	226e      	movs	r2, #110	; 0x6e
100005de:	401a      	ands	r2, r3
100005e0:	2380      	movs	r3, #128	; 0x80
100005e2:	015b      	lsls	r3, r3, #5
100005e4:	430b      	orrs	r3, r1
100005e6:	601a      	str	r2, [r3, #0]
100005e8:	4b0b      	ldr	r3, [pc, #44]	; (10000618 <uart_init+0xd4>)
100005ea:	632b      	str	r3, [r5, #48]	; 0x30
100005ec:	2310      	movs	r3, #16
100005ee:	6023      	str	r3, [r4, #0]
100005f0:	3b0d      	subs	r3, #13
100005f2:	64ab      	str	r3, [r5, #72]	; 0x48
100005f4:	bc04      	pop	{r2}
100005f6:	4690      	mov	r8, r2
100005f8:	bdf0      	pop	{r4, r5, r6, r7, pc}
100005fa:	62ac      	str	r4, [r5, #40]	; 0x28
100005fc:	e7d9      	b.n	100005b2 <uart_init+0x6e>
100005fe:	46c0      	nop			; (mov r8, r8)
10000600:	bffc8000 	.word	0xbffc8000
10000604:	4000c000 	.word	0x4000c000
10000608:	4000e000 	.word	0x4000e000
1000060c:	4000f000 	.word	0x4000f000
10000610:	20000b2c 	.word	0x20000b2c
10000614:	0000ffff 	.word	0x0000ffff
10000618:	00000301 	.word	0x00000301

1000061c <timer_pool_entry_comparator>:
1000061c:	6883      	ldr	r3, [r0, #8]
1000061e:	480b      	ldr	r0, [pc, #44]	; (1000064c <timer_pool_entry_comparator+0x30>)
10000620:	b510      	push	{r4, lr}
10000622:	4684      	mov	ip, r0
10000624:	4461      	add	r1, ip
10000626:	4462      	add	r2, ip
10000628:	0109      	lsls	r1, r1, #4
1000062a:	0112      	lsls	r2, r2, #4
1000062c:	189a      	adds	r2, r3, r2
1000062e:	1859      	adds	r1, r3, r1
10000630:	6854      	ldr	r4, [r2, #4]
10000632:	684b      	ldr	r3, [r1, #4]
10000634:	2001      	movs	r0, #1
10000636:	429c      	cmp	r4, r3
10000638:	d801      	bhi.n	1000063e <timer_pool_entry_comparator+0x22>
1000063a:	d002      	beq.n	10000642 <timer_pool_entry_comparator+0x26>
1000063c:	2000      	movs	r0, #0
1000063e:	b2c0      	uxtb	r0, r0
10000640:	bd10      	pop	{r4, pc}
10000642:	6812      	ldr	r2, [r2, #0]
10000644:	680b      	ldr	r3, [r1, #0]
10000646:	429a      	cmp	r2, r3
10000648:	d8f9      	bhi.n	1000063e <timer_pool_entry_comparator+0x22>
1000064a:	e7f7      	b.n	1000063c <timer_pool_entry_comparator+0x20>
1000064c:	0fffffff 	.word	0x0fffffff

10000650 <sev_callback>:
10000650:	bf40      	sev
10000652:	2000      	movs	r0, #0
10000654:	2100      	movs	r1, #0
10000656:	4770      	bx	lr

10000658 <add_alarm_under_lock>:
10000658:	b5f0      	push	{r4, r5, r6, r7, lr}
1000065a:	4657      	mov	r7, sl
1000065c:	4645      	mov	r5, r8
1000065e:	46de      	mov	lr, fp
10000660:	464e      	mov	r6, r9
10000662:	b5e0      	push	{r5, r6, r7, lr}
10000664:	b083      	sub	sp, #12
10000666:	001f      	movs	r7, r3
10000668:	ab0f      	add	r3, sp, #60	; 0x3c
1000066a:	781b      	ldrb	r3, [r3, #0]
1000066c:	9c0e      	ldr	r4, [sp, #56]	; 0x38
1000066e:	0005      	movs	r5, r0
10000670:	4692      	mov	sl, r2
10000672:	9301      	str	r3, [sp, #4]
10000674:	2c00      	cmp	r4, #0
10000676:	d10d      	bne.n	10000694 <add_alarm_under_lock+0x3c>
10000678:	6802      	ldr	r2, [r0, #0]
1000067a:	7b94      	ldrb	r4, [r2, #14]
1000067c:	2c00      	cmp	r4, #0
1000067e:	d056      	beq.n	1000072e <add_alarm_under_lock+0xd6>
10000680:	6811      	ldr	r1, [r2, #0]
10000682:	0063      	lsls	r3, r4, #1
10000684:	468c      	mov	ip, r1
10000686:	191b      	adds	r3, r3, r4
10000688:	4463      	add	r3, ip
1000068a:	3b03      	subs	r3, #3
1000068c:	785b      	ldrb	r3, [r3, #1]
1000068e:	7393      	strb	r3, [r2, #14]
10000690:	2b00      	cmp	r3, #0
10000692:	d054      	beq.n	1000073e <add_alarm_under_lock+0xe6>
10000694:	68aa      	ldr	r2, [r5, #8]
10000696:	b2e3      	uxtb	r3, r4
10000698:	4694      	mov	ip, r2
1000069a:	4652      	mov	r2, sl
1000069c:	469b      	mov	fp, r3
1000069e:	4b38      	ldr	r3, [pc, #224]	; (10000780 <add_alarm_under_lock+0x128>)
100006a0:	682e      	ldr	r6, [r5, #0]
100006a2:	18e3      	adds	r3, r4, r3
100006a4:	011b      	lsls	r3, r3, #4
100006a6:	4463      	add	r3, ip
100006a8:	601a      	str	r2, [r3, #0]
100006aa:	9a0c      	ldr	r2, [sp, #48]	; 0x30
100006ac:	605f      	str	r7, [r3, #4]
100006ae:	609a      	str	r2, [r3, #8]
100006b0:	9a0d      	ldr	r2, [sp, #52]	; 0x34
100006b2:	60da      	str	r2, [r3, #12]
100006b4:	23d0      	movs	r3, #208	; 0xd0
100006b6:	2280      	movs	r2, #128	; 0x80
100006b8:	061b      	lsls	r3, r3, #24
100006ba:	0312      	lsls	r2, r2, #12
100006bc:	615a      	str	r2, [r3, #20]
100006be:	0063      	lsls	r3, r4, #1
100006c0:	191b      	adds	r3, r3, r4
100006c2:	3b03      	subs	r3, #3
100006c4:	4698      	mov	r8, r3
100006c6:	2200      	movs	r2, #0
100006c8:	6833      	ldr	r3, [r6, #0]
100006ca:	4443      	add	r3, r8
100006cc:	709a      	strb	r2, [r3, #2]
100006ce:	705a      	strb	r2, [r3, #1]
100006d0:	701a      	strb	r2, [r3, #0]
100006d2:	7b73      	ldrb	r3, [r6, #13]
100006d4:	4699      	mov	r9, r3
100006d6:	2b00      	cmp	r3, #0
100006d8:	d017      	beq.n	1000070a <add_alarm_under_lock+0xb2>
100006da:	465a      	mov	r2, fp
100006dc:	0019      	movs	r1, r3
100006de:	68b0      	ldr	r0, [r6, #8]
100006e0:	6873      	ldr	r3, [r6, #4]
100006e2:	4798      	blx	r3
100006e4:	6832      	ldr	r2, [r6, #0]
100006e6:	2800      	cmp	r0, #0
100006e8:	d12b      	bne.n	10000742 <add_alarm_under_lock+0xea>
100006ea:	4643      	mov	r3, r8
100006ec:	18d1      	adds	r1, r2, r3
100006ee:	464b      	mov	r3, r9
100006f0:	4658      	mov	r0, fp
100006f2:	005b      	lsls	r3, r3, #1
100006f4:	444b      	add	r3, r9
100006f6:	3b03      	subs	r3, #3
100006f8:	18d3      	adds	r3, r2, r3
100006fa:	7098      	strb	r0, [r3, #2]
100006fc:	4640      	mov	r0, r8
100006fe:	5c12      	ldrb	r2, [r2, r0]
10000700:	2a00      	cmp	r2, #0
10000702:	d000      	beq.n	10000706 <add_alarm_under_lock+0xae>
10000704:	705a      	strb	r2, [r3, #1]
10000706:	464b      	mov	r3, r9
10000708:	700b      	strb	r3, [r1, #0]
1000070a:	465b      	mov	r3, fp
1000070c:	7373      	strb	r3, [r6, #13]
1000070e:	4652      	mov	r2, sl
10000710:	003b      	movs	r3, r7
10000712:	7d28      	ldrb	r0, [r5, #20]
10000714:	f000 fb12 	bl	10000d3c <hardware_alarm_set_target>
10000718:	1e06      	subs	r6, r0, #0
1000071a:	d002      	beq.n	10000722 <add_alarm_under_lock+0xca>
1000071c:	9b01      	ldr	r3, [sp, #4]
1000071e:	2b00      	cmp	r3, #0
10000720:	d026      	beq.n	10000770 <add_alarm_under_lock+0x118>
10000722:	9b10      	ldr	r3, [sp, #64]	; 0x40
10000724:	2b00      	cmp	r3, #0
10000726:	d028      	beq.n	1000077a <add_alarm_under_lock+0x122>
10000728:	0020      	movs	r0, r4
1000072a:	701e      	strb	r6, [r3, #0]
1000072c:	e000      	b.n	10000730 <add_alarm_under_lock+0xd8>
1000072e:	2000      	movs	r0, #0
10000730:	b003      	add	sp, #12
10000732:	bc3c      	pop	{r2, r3, r4, r5}
10000734:	4690      	mov	r8, r2
10000736:	4699      	mov	r9, r3
10000738:	46a2      	mov	sl, r4
1000073a:	46ab      	mov	fp, r5
1000073c:	bdf0      	pop	{r4, r5, r6, r7, pc}
1000073e:	73d3      	strb	r3, [r2, #15]
10000740:	e7a8      	b.n	10000694 <add_alarm_under_lock+0x3c>
10000742:	464b      	mov	r3, r9
10000744:	005b      	lsls	r3, r3, #1
10000746:	444b      	add	r3, r9
10000748:	3b03      	subs	r3, #3
1000074a:	18d1      	adds	r1, r2, r3
1000074c:	468c      	mov	ip, r1
1000074e:	4641      	mov	r1, r8
10000750:	4648      	mov	r0, r9
10000752:	1851      	adds	r1, r2, r1
10000754:	7088      	strb	r0, [r1, #2]
10000756:	5cd3      	ldrb	r3, [r2, r3]
10000758:	2b00      	cmp	r3, #0
1000075a:	d000      	beq.n	1000075e <add_alarm_under_lock+0x106>
1000075c:	704b      	strb	r3, [r1, #1]
1000075e:	465b      	mov	r3, fp
10000760:	4662      	mov	r2, ip
10000762:	7013      	strb	r3, [r2, #0]
10000764:	464b      	mov	r3, r9
10000766:	0020      	movs	r0, r4
10000768:	7373      	strb	r3, [r6, #13]
1000076a:	45a1      	cmp	r9, r4
1000076c:	d1e0      	bne.n	10000730 <add_alarm_under_lock+0xd8>
1000076e:	e7ce      	b.n	1000070e <add_alarm_under_lock+0xb6>
10000770:	4659      	mov	r1, fp
10000772:	6828      	ldr	r0, [r5, #0]
10000774:	f000 fd40 	bl	100011f8 <ph_delete>
10000778:	e7d3      	b.n	10000722 <add_alarm_under_lock+0xca>
1000077a:	0020      	movs	r0, r4
1000077c:	e7d8      	b.n	10000730 <add_alarm_under_lock+0xd8>
1000077e:	46c0      	nop			; (mov r8, r8)
10000780:	0fffffff 	.word	0x0fffffff

10000784 <alarm_pool_alarm_callback>:
10000784:	b5f0      	push	{r4, r5, r6, r7, lr}
10000786:	46de      	mov	lr, fp
10000788:	464e      	mov	r6, r9
1000078a:	4657      	mov	r7, sl
1000078c:	4645      	mov	r5, r8
1000078e:	2300      	movs	r3, #0
10000790:	b5e0      	push	{r5, r6, r7, lr}
10000792:	b08d      	sub	sp, #52	; 0x34
10000794:	930a      	str	r3, [sp, #40]	; 0x28
10000796:	4b71      	ldr	r3, [pc, #452]	; (1000095c <alarm_pool_alarm_callback+0x1d8>)
10000798:	0082      	lsls	r2, r0, #2
1000079a:	58d3      	ldr	r3, [r2, r3]
1000079c:	900b      	str	r0, [sp, #44]	; 0x2c
1000079e:	4699      	mov	r9, r3
100007a0:	2300      	movs	r3, #0
100007a2:	469b      	mov	fp, r3
100007a4:	464b      	mov	r3, r9
100007a6:	9307      	str	r3, [sp, #28]
100007a8:	f000 fa68 	bl	10000c7c <time_us_64>
100007ac:	9c07      	ldr	r4, [sp, #28]
100007ae:	0006      	movs	r6, r0
100007b0:	000f      	movs	r7, r1
100007b2:	6862      	ldr	r2, [r4, #4]
100007b4:	f3ef 8510 	mrs	r5, PRIMASK
100007b8:	b672      	cpsid	i
100007ba:	6813      	ldr	r3, [r2, #0]
100007bc:	2b00      	cmp	r3, #0
100007be:	d0fc      	beq.n	100007ba <alarm_pool_alarm_callback+0x36>
100007c0:	0022      	movs	r2, r4
100007c2:	9407      	str	r4, [sp, #28]
100007c4:	f3bf 8f5f 	dmb	sy
100007c8:	6824      	ldr	r4, [r4, #0]
100007ca:	7b63      	ldrb	r3, [r4, #13]
100007cc:	4699      	mov	r9, r3
100007ce:	2b00      	cmp	r3, #0
100007d0:	d100      	bne.n	100007d4 <alarm_pool_alarm_callback+0x50>
100007d2:	e070      	b.n	100008b6 <alarm_pool_alarm_callback+0x132>
100007d4:	6892      	ldr	r2, [r2, #8]
100007d6:	4b62      	ldr	r3, [pc, #392]	; (10000960 <alarm_pool_alarm_callback+0x1dc>)
100007d8:	4690      	mov	r8, r2
100007da:	444b      	add	r3, r9
100007dc:	011b      	lsls	r3, r3, #4
100007de:	4498      	add	r8, r3
100007e0:	4643      	mov	r3, r8
100007e2:	681a      	ldr	r2, [r3, #0]
100007e4:	685b      	ldr	r3, [r3, #4]
100007e6:	0010      	movs	r0, r2
100007e8:	0019      	movs	r1, r3
100007ea:	1b80      	subs	r0, r0, r6
100007ec:	41b9      	sbcs	r1, r7
100007ee:	2900      	cmp	r1, #0
100007f0:	dd68      	ble.n	100008c4 <alarm_pool_alarm_callback+0x140>
100007f2:	980b      	ldr	r0, [sp, #44]	; 0x2c
100007f4:	f000 faa2 	bl	10000d3c <hardware_alarm_set_target>
100007f8:	2300      	movs	r3, #0
100007fa:	2600      	movs	r6, #0
100007fc:	4698      	mov	r8, r3
100007fe:	2700      	movs	r7, #0
10000800:	469a      	mov	sl, r3
10000802:	9c07      	ldr	r4, [sp, #28]
10000804:	6863      	ldr	r3, [r4, #4]
10000806:	f3bf 8f5f 	dmb	sy
1000080a:	465a      	mov	r2, fp
1000080c:	601a      	str	r2, [r3, #0]
1000080e:	f385 8810 	msr	PRIMASK, r5
10000812:	4653      	mov	r3, sl
10000814:	2b00      	cmp	r3, #0
10000816:	d108      	bne.n	1000082a <alarm_pool_alarm_callback+0xa6>
10000818:	2800      	cmp	r0, #0
1000081a:	d1c5      	bne.n	100007a8 <alarm_pool_alarm_callback+0x24>
1000081c:	b00d      	add	sp, #52	; 0x34
1000081e:	bc3c      	pop	{r2, r3, r4, r5}
10000820:	4690      	mov	r8, r2
10000822:	4699      	mov	r9, r3
10000824:	46a2      	mov	sl, r4
10000826:	46ab      	mov	fp, r5
10000828:	bdf0      	pop	{r4, r5, r6, r7, pc}
1000082a:	23d0      	movs	r3, #208	; 0xd0
1000082c:	2280      	movs	r2, #128	; 0x80
1000082e:	2180      	movs	r1, #128	; 0x80
10000830:	061b      	lsls	r3, r3, #24
10000832:	0392      	lsls	r2, r2, #14
10000834:	0309      	lsls	r1, r1, #12
10000836:	615a      	str	r2, [r3, #20]
10000838:	6199      	str	r1, [r3, #24]
1000083a:	619a      	str	r2, [r3, #24]
1000083c:	9b0a      	ldr	r3, [sp, #40]	; 0x28
1000083e:	4641      	mov	r1, r8
10000840:	0218      	lsls	r0, r3, #8
10000842:	464b      	mov	r3, r9
10000844:	4318      	orrs	r0, r3
10000846:	47d0      	blx	sl
10000848:	9008      	str	r0, [sp, #32]
1000084a:	9109      	str	r1, [sp, #36]	; 0x24
1000084c:	6862      	ldr	r2, [r4, #4]
1000084e:	f3ef 8510 	mrs	r5, PRIMASK
10000852:	b672      	cpsid	i
10000854:	6813      	ldr	r3, [r2, #0]
10000856:	2b00      	cmp	r3, #0
10000858:	d0fc      	beq.n	10000854 <alarm_pool_alarm_callback+0xd0>
1000085a:	9407      	str	r4, [sp, #28]
1000085c:	f3bf 8f5f 	dmb	sy
10000860:	9908      	ldr	r1, [sp, #32]
10000862:	9a09      	ldr	r2, [sp, #36]	; 0x24
10000864:	2a00      	cmp	r2, #0
10000866:	db49      	blt.n	100008fc <alarm_pool_alarm_callback+0x178>
10000868:	4311      	orrs	r1, r2
1000086a:	d003      	beq.n	10000874 <alarm_pool_alarm_callback+0xf0>
1000086c:	9b07      	ldr	r3, [sp, #28]
1000086e:	691b      	ldr	r3, [r3, #16]
10000870:	2b00      	cmp	r3, #0
10000872:	d15e      	bne.n	10000932 <alarm_pool_alarm_callback+0x1ae>
10000874:	9b07      	ldr	r3, [sp, #28]
10000876:	681b      	ldr	r3, [r3, #0]
10000878:	7bda      	ldrb	r2, [r3, #15]
1000087a:	2a00      	cmp	r2, #0
1000087c:	d007      	beq.n	1000088e <alarm_pool_alarm_callback+0x10a>
1000087e:	0051      	lsls	r1, r2, #1
10000880:	188a      	adds	r2, r1, r2
10000882:	6819      	ldr	r1, [r3, #0]
10000884:	468c      	mov	ip, r1
10000886:	4649      	mov	r1, r9
10000888:	4462      	add	r2, ip
1000088a:	3a03      	subs	r2, #3
1000088c:	7051      	strb	r1, [r2, #1]
1000088e:	464a      	mov	r2, r9
10000890:	73da      	strb	r2, [r3, #15]
10000892:	464b      	mov	r3, r9
10000894:	9a07      	ldr	r2, [sp, #28]
10000896:	3b01      	subs	r3, #1
10000898:	68d1      	ldr	r1, [r2, #12]
1000089a:	5cca      	ldrb	r2, [r1, r3]
1000089c:	3201      	adds	r2, #1
1000089e:	54ca      	strb	r2, [r1, r3]
100008a0:	465b      	mov	r3, fp
100008a2:	9a07      	ldr	r2, [sp, #28]
100008a4:	6113      	str	r3, [r2, #16]
100008a6:	6853      	ldr	r3, [r2, #4]
100008a8:	f3bf 8f5f 	dmb	sy
100008ac:	465a      	mov	r2, fp
100008ae:	601a      	str	r2, [r3, #0]
100008b0:	f385 8810 	msr	PRIMASK, r5
100008b4:	e778      	b.n	100007a8 <alarm_pool_alarm_callback+0x24>
100008b6:	2300      	movs	r3, #0
100008b8:	2600      	movs	r6, #0
100008ba:	4698      	mov	r8, r3
100008bc:	2700      	movs	r7, #0
100008be:	469a      	mov	sl, r3
100008c0:	2000      	movs	r0, #0
100008c2:	e79e      	b.n	10000802 <alarm_pool_alarm_callback+0x7e>
100008c4:	2900      	cmp	r1, #0
100008c6:	d102      	bne.n	100008ce <alarm_pool_alarm_callback+0x14a>
100008c8:	2800      	cmp	r0, #0
100008ca:	d000      	beq.n	100008ce <alarm_pool_alarm_callback+0x14a>
100008cc:	e791      	b.n	100007f2 <alarm_pool_alarm_callback+0x6e>
100008ce:	2101      	movs	r1, #1
100008d0:	0020      	movs	r0, r4
100008d2:	f000 fbf3 	bl	100010bc <ph_remove_head_reserve>
100008d6:	4643      	mov	r3, r8
100008d8:	681e      	ldr	r6, [r3, #0]
100008da:	685f      	ldr	r7, [r3, #4]
100008dc:	689b      	ldr	r3, [r3, #8]
100008de:	9a07      	ldr	r2, [sp, #28]
100008e0:	469a      	mov	sl, r3
100008e2:	4643      	mov	r3, r8
100008e4:	68db      	ldr	r3, [r3, #12]
100008e6:	4698      	mov	r8, r3
100008e8:	68d3      	ldr	r3, [r2, #12]
100008ea:	444b      	add	r3, r9
100008ec:	3b01      	subs	r3, #1
100008ee:	781b      	ldrb	r3, [r3, #0]
100008f0:	930a      	str	r3, [sp, #40]	; 0x28
100008f2:	021b      	lsls	r3, r3, #8
100008f4:	4303      	orrs	r3, r0
100008f6:	6113      	str	r3, [r2, #16]
100008f8:	2000      	movs	r0, #0
100008fa:	e782      	b.n	10000802 <alarm_pool_alarm_callback+0x7e>
100008fc:	6923      	ldr	r3, [r4, #16]
100008fe:	2b00      	cmp	r3, #0
10000900:	d0b8      	beq.n	10000874 <alarm_pool_alarm_callback+0xf0>
10000902:	0033      	movs	r3, r6
10000904:	003c      	movs	r4, r7
10000906:	1a5b      	subs	r3, r3, r1
10000908:	4194      	sbcs	r4, r2
1000090a:	001a      	movs	r2, r3
1000090c:	0023      	movs	r3, r4
1000090e:	42a7      	cmp	r7, r4
10000910:	d819      	bhi.n	10000946 <alarm_pool_alarm_callback+0x1c2>
10000912:	429f      	cmp	r7, r3
10000914:	d01b      	beq.n	1000094e <alarm_pool_alarm_callback+0x1ca>
10000916:	4659      	mov	r1, fp
10000918:	9104      	str	r1, [sp, #16]
1000091a:	2101      	movs	r1, #1
1000091c:	9103      	str	r1, [sp, #12]
1000091e:	4649      	mov	r1, r9
10000920:	9102      	str	r1, [sp, #8]
10000922:	4641      	mov	r1, r8
10000924:	9101      	str	r1, [sp, #4]
10000926:	4651      	mov	r1, sl
10000928:	9807      	ldr	r0, [sp, #28]
1000092a:	9100      	str	r1, [sp, #0]
1000092c:	f7ff fe94 	bl	10000658 <add_alarm_under_lock>
10000930:	e7b6      	b.n	100008a0 <alarm_pool_alarm_callback+0x11c>
10000932:	f000 f9a3 	bl	10000c7c <time_us_64>
10000936:	9a08      	ldr	r2, [sp, #32]
10000938:	9b09      	ldr	r3, [sp, #36]	; 0x24
1000093a:	0006      	movs	r6, r0
1000093c:	000f      	movs	r7, r1
1000093e:	1992      	adds	r2, r2, r6
10000940:	417b      	adcs	r3, r7
10000942:	4299      	cmp	r1, r3
10000944:	d9e5      	bls.n	10000912 <alarm_pool_alarm_callback+0x18e>
10000946:	2201      	movs	r2, #1
10000948:	4252      	negs	r2, r2
1000094a:	17d3      	asrs	r3, r2, #31
1000094c:	e7e3      	b.n	10000916 <alarm_pool_alarm_callback+0x192>
1000094e:	4296      	cmp	r6, r2
10000950:	d9e1      	bls.n	10000916 <alarm_pool_alarm_callback+0x192>
10000952:	2201      	movs	r2, #1
10000954:	4252      	negs	r2, r2
10000956:	17d3      	asrs	r3, r2, #31
10000958:	e7dd      	b.n	10000916 <alarm_pool_alarm_callback+0x192>
1000095a:	46c0      	nop			; (mov r8, r8)
1000095c:	20000b08 	.word	0x20000b08
10000960:	0fffffff 	.word	0x0fffffff

10000964 <alarm_pool_add_alarm_at.constprop.0>:
10000964:	b5f8      	push	{r3, r4, r5, r6, r7, lr}
10000966:	4657      	mov	r7, sl
10000968:	464e      	mov	r6, r9
1000096a:	46de      	mov	lr, fp
1000096c:	4645      	mov	r5, r8
1000096e:	4691      	mov	r9, r2
10000970:	b5e0      	push	{r5, r6, r7, lr}
10000972:	0004      	movs	r4, r0
10000974:	469a      	mov	sl, r3
10000976:	6842      	ldr	r2, [r0, #4]
10000978:	f3ef 8810 	mrs	r8, PRIMASK
1000097c:	b672      	cpsid	i
1000097e:	6813      	ldr	r3, [r2, #0]
10000980:	2b00      	cmp	r3, #0
10000982:	d0fc      	beq.n	1000097e <alarm_pool_add_alarm_at.constprop.0+0x1a>
10000984:	f3bf 8f5f 	dmb	sy
10000988:	6826      	ldr	r6, [r4, #0]
1000098a:	7bb5      	ldrb	r5, [r6, #14]
1000098c:	2d00      	cmp	r5, #0
1000098e:	d040      	beq.n	10000a12 <alarm_pool_add_alarm_at.constprop.0+0xae>
10000990:	006f      	lsls	r7, r5, #1
10000992:	6833      	ldr	r3, [r6, #0]
10000994:	197f      	adds	r7, r7, r5
10000996:	3f03      	subs	r7, #3
10000998:	19db      	adds	r3, r3, r7
1000099a:	785b      	ldrb	r3, [r3, #1]
1000099c:	73b3      	strb	r3, [r6, #14]
1000099e:	2b00      	cmp	r3, #0
100009a0:	d100      	bne.n	100009a4 <alarm_pool_add_alarm_at.constprop.0+0x40>
100009a2:	73f3      	strb	r3, [r6, #15]
100009a4:	4b37      	ldr	r3, [pc, #220]	; (10000a84 <alarm_pool_add_alarm_at.constprop.0+0x120>)
100009a6:	2200      	movs	r2, #0
100009a8:	18e9      	adds	r1, r5, r3
100009aa:	68a3      	ldr	r3, [r4, #8]
100009ac:	0109      	lsls	r1, r1, #4
100009ae:	469c      	mov	ip, r3
100009b0:	464b      	mov	r3, r9
100009b2:	4461      	add	r1, ip
100009b4:	600b      	str	r3, [r1, #0]
100009b6:	4653      	mov	r3, sl
100009b8:	604b      	str	r3, [r1, #4]
100009ba:	4b33      	ldr	r3, [pc, #204]	; (10000a88 <alarm_pool_add_alarm_at.constprop.0+0x124>)
100009bc:	60ca      	str	r2, [r1, #12]
100009be:	608b      	str	r3, [r1, #8]
100009c0:	23d0      	movs	r3, #208	; 0xd0
100009c2:	2180      	movs	r1, #128	; 0x80
100009c4:	061b      	lsls	r3, r3, #24
100009c6:	0309      	lsls	r1, r1, #12
100009c8:	6159      	str	r1, [r3, #20]
100009ca:	6833      	ldr	r3, [r6, #0]
100009cc:	19db      	adds	r3, r3, r7
100009ce:	709a      	strb	r2, [r3, #2]
100009d0:	705a      	strb	r2, [r3, #1]
100009d2:	701a      	strb	r2, [r3, #0]
100009d4:	7b73      	ldrb	r3, [r6, #13]
100009d6:	469b      	mov	fp, r3
100009d8:	2b00      	cmp	r3, #0
100009da:	d035      	beq.n	10000a48 <alarm_pool_add_alarm_at.constprop.0+0xe4>
100009dc:	002a      	movs	r2, r5
100009de:	0019      	movs	r1, r3
100009e0:	68b0      	ldr	r0, [r6, #8]
100009e2:	6873      	ldr	r3, [r6, #4]
100009e4:	4798      	blx	r3
100009e6:	6832      	ldr	r2, [r6, #0]
100009e8:	2800      	cmp	r0, #0
100009ea:	d020      	beq.n	10000a2e <alarm_pool_add_alarm_at.constprop.0+0xca>
100009ec:	465b      	mov	r3, fp
100009ee:	4658      	mov	r0, fp
100009f0:	005b      	lsls	r3, r3, #1
100009f2:	445b      	add	r3, fp
100009f4:	19d7      	adds	r7, r2, r7
100009f6:	3b03      	subs	r3, #3
100009f8:	70b8      	strb	r0, [r7, #2]
100009fa:	18d1      	adds	r1, r2, r3
100009fc:	5cd3      	ldrb	r3, [r2, r3]
100009fe:	2b00      	cmp	r3, #0
10000a00:	d000      	beq.n	10000a04 <alarm_pool_add_alarm_at.constprop.0+0xa0>
10000a02:	707b      	strb	r3, [r7, #1]
10000a04:	465b      	mov	r3, fp
10000a06:	700d      	strb	r5, [r1, #0]
10000a08:	7373      	strb	r3, [r6, #13]
10000a0a:	455d      	cmp	r5, fp
10000a0c:	d01d      	beq.n	10000a4a <alarm_pool_add_alarm_at.constprop.0+0xe6>
10000a0e:	2600      	movs	r6, #0
10000a10:	e026      	b.n	10000a60 <alarm_pool_add_alarm_at.constprop.0+0xfc>
10000a12:	6863      	ldr	r3, [r4, #4]
10000a14:	f3bf 8f5f 	dmb	sy
10000a18:	601d      	str	r5, [r3, #0]
10000a1a:	f388 8810 	msr	PRIMASK, r8
10000a1e:	2001      	movs	r0, #1
10000a20:	4240      	negs	r0, r0
10000a22:	bc3c      	pop	{r2, r3, r4, r5}
10000a24:	4690      	mov	r8, r2
10000a26:	4699      	mov	r9, r3
10000a28:	46a2      	mov	sl, r4
10000a2a:	46ab      	mov	fp, r5
10000a2c:	bdf8      	pop	{r3, r4, r5, r6, r7, pc}
10000a2e:	465b      	mov	r3, fp
10000a30:	005b      	lsls	r3, r3, #1
10000a32:	445b      	add	r3, fp
10000a34:	3b03      	subs	r3, #3
10000a36:	18d3      	adds	r3, r2, r3
10000a38:	709d      	strb	r5, [r3, #2]
10000a3a:	19d1      	adds	r1, r2, r7
10000a3c:	5dd2      	ldrb	r2, [r2, r7]
10000a3e:	2a00      	cmp	r2, #0
10000a40:	d000      	beq.n	10000a44 <alarm_pool_add_alarm_at.constprop.0+0xe0>
10000a42:	705a      	strb	r2, [r3, #1]
10000a44:	465b      	mov	r3, fp
10000a46:	700b      	strb	r3, [r1, #0]
10000a48:	7375      	strb	r5, [r6, #13]
10000a4a:	464a      	mov	r2, r9
10000a4c:	4653      	mov	r3, sl
10000a4e:	7d20      	ldrb	r0, [r4, #20]
10000a50:	f000 f974 	bl	10000d3c <hardware_alarm_set_target>
10000a54:	1e06      	subs	r6, r0, #0
10000a56:	d0da      	beq.n	10000a0e <alarm_pool_add_alarm_at.constprop.0+0xaa>
10000a58:	0029      	movs	r1, r5
10000a5a:	6820      	ldr	r0, [r4, #0]
10000a5c:	f000 fbcc 	bl	100011f8 <ph_delete>
10000a60:	68e3      	ldr	r3, [r4, #12]
10000a62:	6862      	ldr	r2, [r4, #4]
10000a64:	195b      	adds	r3, r3, r5
10000a66:	3b01      	subs	r3, #1
10000a68:	781b      	ldrb	r3, [r3, #0]
10000a6a:	f3bf 8f5f 	dmb	sy
10000a6e:	2100      	movs	r1, #0
10000a70:	6011      	str	r1, [r2, #0]
10000a72:	f388 8810 	msr	PRIMASK, r8
10000a76:	2000      	movs	r0, #0
10000a78:	2e00      	cmp	r6, #0
10000a7a:	d1d2      	bne.n	10000a22 <alarm_pool_add_alarm_at.constprop.0+0xbe>
10000a7c:	0218      	lsls	r0, r3, #8
10000a7e:	4328      	orrs	r0, r5
10000a80:	e7cf      	b.n	10000a22 <alarm_pool_add_alarm_at.constprop.0+0xbe>
10000a82:	46c0      	nop			; (mov r8, r8)
10000a84:	0fffffff 	.word	0x0fffffff
10000a88:	10000651 	.word	0x10000651

10000a8c <alarm_pool_init_default>:
10000a8c:	b570      	push	{r4, r5, r6, lr}
10000a8e:	4c18      	ldr	r4, [pc, #96]	; (10000af0 <alarm_pool_init_default+0x64>)
10000a90:	6823      	ldr	r3, [r4, #0]
10000a92:	2b00      	cmp	r3, #0
10000a94:	d000      	beq.n	10000a98 <alarm_pool_init_default+0xc>
10000a96:	bd70      	pop	{r4, r5, r6, pc}
10000a98:	2003      	movs	r0, #3
10000a9a:	f000 f8e3 	bl	10000c64 <hardware_alarm_claim>
10000a9e:	2003      	movs	r0, #3
10000aa0:	f000 f9ae 	bl	10000e00 <hardware_alarm_cancel>
10000aa4:	4913      	ldr	r1, [pc, #76]	; (10000af4 <alarm_pool_init_default+0x68>)
10000aa6:	2003      	movs	r0, #3
10000aa8:	f000 f902 	bl	10000cb0 <hardware_alarm_set_callback>
10000aac:	2018      	movs	r0, #24
10000aae:	f003 facb 	bl	10004048 <__wrap_malloc>
10000ab2:	0005      	movs	r5, r0
10000ab4:	f7ff fd32 	bl	1000051c <next_striped_spin_lock_num>
10000ab8:	4b0f      	ldr	r3, [pc, #60]	; (10000af8 <alarm_pool_init_default+0x6c>)
10000aba:	002a      	movs	r2, r5
10000abc:	469c      	mov	ip, r3
10000abe:	4460      	add	r0, ip
10000ac0:	0080      	lsls	r0, r0, #2
10000ac2:	490e      	ldr	r1, [pc, #56]	; (10000afc <alarm_pool_init_default+0x70>)
10000ac4:	6068      	str	r0, [r5, #4]
10000ac6:	2010      	movs	r0, #16
10000ac8:	f000 fa02 	bl	10000ed0 <ph_create>
10000acc:	2110      	movs	r1, #16
10000ace:	6028      	str	r0, [r5, #0]
10000ad0:	2010      	movs	r0, #16
10000ad2:	f003 fabd 	bl	10004050 <__wrap_calloc>
10000ad6:	2101      	movs	r1, #1
10000ad8:	60a8      	str	r0, [r5, #8]
10000ada:	2010      	movs	r0, #16
10000adc:	f003 fab8 	bl	10004050 <__wrap_calloc>
10000ae0:	2303      	movs	r3, #3
10000ae2:	752b      	strb	r3, [r5, #20]
10000ae4:	4b06      	ldr	r3, [pc, #24]	; (10000b00 <alarm_pool_init_default+0x74>)
10000ae6:	60e8      	str	r0, [r5, #12]
10000ae8:	60dd      	str	r5, [r3, #12]
10000aea:	6025      	str	r5, [r4, #0]
10000aec:	e7d3      	b.n	10000a96 <alarm_pool_init_default+0xa>
10000aee:	46c0      	nop			; (mov r8, r8)
10000af0:	20000af4 	.word	0x20000af4
10000af4:	10000785 	.word	0x10000785
10000af8:	34000040 	.word	0x34000040
10000afc:	1000061d 	.word	0x1000061d
10000b00:	20000b08 	.word	0x20000b08

10000b04 <sleep_ms>:
10000b04:	b5f8      	push	{r3, r4, r5, r6, r7, lr}
10000b06:	0004      	movs	r4, r0
10000b08:	f000 f8b8 	bl	10000c7c <time_us_64>
10000b0c:	22fa      	movs	r2, #250	; 0xfa
10000b0e:	0006      	movs	r6, r0
10000b10:	000f      	movs	r7, r1
10000b12:	0020      	movs	r0, r4
10000b14:	2300      	movs	r3, #0
10000b16:	2100      	movs	r1, #0
10000b18:	0092      	lsls	r2, r2, #2
10000b1a:	f003 f9d1 	bl	10003ec0 <__wrap___aeabi_lmul>
10000b1e:	1980      	adds	r0, r0, r6
10000b20:	4179      	adcs	r1, r7
10000b22:	0004      	movs	r4, r0
10000b24:	000d      	movs	r5, r1
10000b26:	428f      	cmp	r7, r1
10000b28:	d82f      	bhi.n	10000b8a <sleep_ms+0x86>
10000b2a:	d02c      	beq.n	10000b86 <sleep_ms+0x82>
10000b2c:	2606      	movs	r6, #6
10000b2e:	4276      	negs	r6, r6
10000b30:	17f7      	asrs	r7, r6, #31
10000b32:	1936      	adds	r6, r6, r4
10000b34:	416f      	adcs	r7, r5
10000b36:	42af      	cmp	r7, r5
10000b38:	d92e      	bls.n	10000b98 <sleep_ms+0x94>
10000b3a:	2600      	movs	r6, #0
10000b3c:	2700      	movs	r7, #0
10000b3e:	f000 f89d 	bl	10000c7c <time_us_64>
10000b42:	0032      	movs	r2, r6
10000b44:	003b      	movs	r3, r7
10000b46:	1a12      	subs	r2, r2, r0
10000b48:	418b      	sbcs	r3, r1
10000b4a:	2b00      	cmp	r3, #0
10000b4c:	dc07      	bgt.n	10000b5e <sleep_ms+0x5a>
10000b4e:	d004      	beq.n	10000b5a <sleep_ms+0x56>
10000b50:	0029      	movs	r1, r5
10000b52:	0020      	movs	r0, r4
10000b54:	f000 f89c 	bl	10000c90 <busy_wait_until>
10000b58:	bdf8      	pop	{r3, r4, r5, r6, r7, pc}
10000b5a:	2a00      	cmp	r2, #0
10000b5c:	d0f8      	beq.n	10000b50 <sleep_ms+0x4c>
10000b5e:	4b11      	ldr	r3, [pc, #68]	; (10000ba4 <sleep_ms+0xa0>)
10000b60:	0032      	movs	r2, r6
10000b62:	6818      	ldr	r0, [r3, #0]
10000b64:	003b      	movs	r3, r7
10000b66:	f7ff fefd 	bl	10000964 <alarm_pool_add_alarm_at.constprop.0>
10000b6a:	2800      	cmp	r0, #0
10000b6c:	dbf0      	blt.n	10000b50 <sleep_ms+0x4c>
10000b6e:	0038      	movs	r0, r7
10000b70:	4a0d      	ldr	r2, [pc, #52]	; (10000ba8 <sleep_ms+0xa4>)
10000b72:	6a53      	ldr	r3, [r2, #36]	; 0x24
10000b74:	4298      	cmp	r0, r3
10000b76:	d804      	bhi.n	10000b82 <sleep_ms+0x7e>
10000b78:	6a91      	ldr	r1, [r2, #40]	; 0x28
10000b7a:	428e      	cmp	r6, r1
10000b7c:	d9e8      	bls.n	10000b50 <sleep_ms+0x4c>
10000b7e:	4298      	cmp	r0, r3
10000b80:	d1e6      	bne.n	10000b50 <sleep_ms+0x4c>
10000b82:	bf20      	wfe
10000b84:	e7f5      	b.n	10000b72 <sleep_ms+0x6e>
10000b86:	4286      	cmp	r6, r0
10000b88:	d9d0      	bls.n	10000b2c <sleep_ms+0x28>
10000b8a:	2401      	movs	r4, #1
10000b8c:	4264      	negs	r4, r4
10000b8e:	17e5      	asrs	r5, r4, #31
10000b90:	2607      	movs	r6, #7
10000b92:	4276      	negs	r6, r6
10000b94:	17f7      	asrs	r7, r6, #31
10000b96:	e7d2      	b.n	10000b3e <sleep_ms+0x3a>
10000b98:	42af      	cmp	r7, r5
10000b9a:	d1d0      	bne.n	10000b3e <sleep_ms+0x3a>
10000b9c:	42a6      	cmp	r6, r4
10000b9e:	d8cc      	bhi.n	10000b3a <sleep_ms+0x36>
10000ba0:	e7cd      	b.n	10000b3e <sleep_ms+0x3a>
10000ba2:	46c0      	nop			; (mov r8, r8)
10000ba4:	20000af4 	.word	0x20000af4
10000ba8:	40054000 	.word	0x40054000

10000bac <hardware_alarm_irq_handler>:
10000bac:	b5f0      	push	{r4, r5, r6, r7, lr}
10000bae:	46d6      	mov	lr, sl
10000bb0:	464f      	mov	r7, r9
10000bb2:	4646      	mov	r6, r8
10000bb4:	b5c0      	push	{r6, r7, lr}
10000bb6:	f3ef 8305 	mrs	r3, IPSR
10000bba:	223f      	movs	r2, #63	; 0x3f
10000bbc:	4013      	ands	r3, r2
10000bbe:	0018      	movs	r0, r3
10000bc0:	3810      	subs	r0, #16
10000bc2:	f3ef 8c10 	mrs	ip, PRIMASK
10000bc6:	b672      	cpsid	i
10000bc8:	4d20      	ldr	r5, [pc, #128]	; (10000c4c <hardware_alarm_irq_handler+0xa0>)
10000bca:	682a      	ldr	r2, [r5, #0]
10000bcc:	2a00      	cmp	r2, #0
10000bce:	d0fc      	beq.n	10000bca <hardware_alarm_irq_handler+0x1e>
10000bd0:	f3bf 8f5f 	dmb	sy
10000bd4:	2201      	movs	r2, #1
10000bd6:	0011      	movs	r1, r2
10000bd8:	4081      	lsls	r1, r0
10000bda:	4c1d      	ldr	r4, [pc, #116]	; (10000c50 <hardware_alarm_irq_handler+0xa4>)
10000bdc:	4688      	mov	r8, r1
10000bde:	6361      	str	r1, [r4, #52]	; 0x34
10000be0:	491c      	ldr	r1, [pc, #112]	; (10000c54 <hardware_alarm_irq_handler+0xa8>)
10000be2:	0017      	movs	r7, r2
10000be4:	780e      	ldrb	r6, [r1, #0]
10000be6:	468a      	mov	sl, r1
10000be8:	0031      	movs	r1, r6
10000bea:	40c1      	lsrs	r1, r0
10000bec:	400f      	ands	r7, r1
10000bee:	420a      	tst	r2, r1
10000bf0:	d015      	beq.n	10000c1e <hardware_alarm_irq_handler+0x72>
10000bf2:	4919      	ldr	r1, [pc, #100]	; (10000c58 <hardware_alarm_irq_handler+0xac>)
10000bf4:	0082      	lsls	r2, r0, #2
10000bf6:	6a64      	ldr	r4, [r4, #36]	; 0x24
10000bf8:	5851      	ldr	r1, [r2, r1]
10000bfa:	428c      	cmp	r4, r1
10000bfc:	d319      	bcc.n	10000c32 <hardware_alarm_irq_handler+0x86>
10000bfe:	4b17      	ldr	r3, [pc, #92]	; (10000c5c <hardware_alarm_irq_handler+0xb0>)
10000c00:	58d2      	ldr	r2, [r2, r3]
10000c02:	4643      	mov	r3, r8
10000c04:	439e      	bics	r6, r3
10000c06:	4653      	mov	r3, sl
10000c08:	701e      	strb	r6, [r3, #0]
10000c0a:	f3bf 8f5f 	dmb	sy
10000c0e:	2300      	movs	r3, #0
10000c10:	602b      	str	r3, [r5, #0]
10000c12:	f38c 8810 	msr	PRIMASK, ip
10000c16:	2a00      	cmp	r2, #0
10000c18:	d006      	beq.n	10000c28 <hardware_alarm_irq_handler+0x7c>
10000c1a:	4790      	blx	r2
10000c1c:	e004      	b.n	10000c28 <hardware_alarm_irq_handler+0x7c>
10000c1e:	f3bf 8f5f 	dmb	sy
10000c22:	602f      	str	r7, [r5, #0]
10000c24:	f38c 8810 	msr	PRIMASK, ip
10000c28:	bc1c      	pop	{r2, r3, r4}
10000c2a:	4690      	mov	r8, r2
10000c2c:	4699      	mov	r9, r3
10000c2e:	46a2      	mov	sl, r4
10000c30:	bdf0      	pop	{r4, r5, r6, r7, pc}
10000c32:	4a0b      	ldr	r2, [pc, #44]	; (10000c60 <hardware_alarm_irq_handler+0xb4>)
10000c34:	009b      	lsls	r3, r3, #2
10000c36:	4690      	mov	r8, r2
10000c38:	4443      	add	r3, r8
10000c3a:	681a      	ldr	r2, [r3, #0]
10000c3c:	601a      	str	r2, [r3, #0]
10000c3e:	f3bf 8f5f 	dmb	sy
10000c42:	2300      	movs	r3, #0
10000c44:	602b      	str	r3, [r5, #0]
10000c46:	f38c 8810 	msr	PRIMASK, ip
10000c4a:	e7ed      	b.n	10000c28 <hardware_alarm_irq_handler+0x7c>
10000c4c:	d0000128 	.word	0xd0000128
10000c50:	40054000 	.word	0x40054000
10000c54:	20000b2a 	.word	0x20000b2a
10000c58:	20000b18 	.word	0x20000b18
10000c5c:	20000abc 	.word	0x20000abc
10000c60:	40053fd0 	.word	0x40053fd0

10000c64 <hardware_alarm_claim>:
10000c64:	b510      	push	{r4, lr}
10000c66:	0001      	movs	r1, r0
10000c68:	4a02      	ldr	r2, [pc, #8]	; (10000c74 <hardware_alarm_claim+0x10>)
10000c6a:	4803      	ldr	r0, [pc, #12]	; (10000c78 <hardware_alarm_claim+0x14>)
10000c6c:	f7ff fc18 	bl	100004a0 <hw_claim_or_assert>
10000c70:	bd10      	pop	{r4, pc}
10000c72:	46c0      	nop			; (mov r8, r8)
10000c74:	10004ea8 	.word	0x10004ea8
10000c78:	20000b28 	.word	0x20000b28

10000c7c <time_us_64>:
10000c7c:	4b03      	ldr	r3, [pc, #12]	; (10000c8c <time_us_64+0x10>)
10000c7e:	6a59      	ldr	r1, [r3, #36]	; 0x24
10000c80:	000a      	movs	r2, r1
10000c82:	6a98      	ldr	r0, [r3, #40]	; 0x28
10000c84:	6a59      	ldr	r1, [r3, #36]	; 0x24
10000c86:	428a      	cmp	r2, r1
10000c88:	d1fa      	bne.n	10000c80 <time_us_64+0x4>
10000c8a:	4770      	bx	lr
10000c8c:	40054000 	.word	0x40054000

10000c90 <busy_wait_until>:
10000c90:	4a06      	ldr	r2, [pc, #24]	; (10000cac <busy_wait_until+0x1c>)
10000c92:	6a53      	ldr	r3, [r2, #36]	; 0x24
10000c94:	4299      	cmp	r1, r3
10000c96:	d8fc      	bhi.n	10000c92 <busy_wait_until+0x2>
10000c98:	d107      	bne.n	10000caa <busy_wait_until+0x1a>
10000c9a:	4b04      	ldr	r3, [pc, #16]	; (10000cac <busy_wait_until+0x1c>)
10000c9c:	e002      	b.n	10000ca4 <busy_wait_until+0x14>
10000c9e:	6a5a      	ldr	r2, [r3, #36]	; 0x24
10000ca0:	4291      	cmp	r1, r2
10000ca2:	d102      	bne.n	10000caa <busy_wait_until+0x1a>
10000ca4:	6a9a      	ldr	r2, [r3, #40]	; 0x28
10000ca6:	4282      	cmp	r2, r0
10000ca8:	d3f9      	bcc.n	10000c9e <busy_wait_until+0xe>
10000caa:	4770      	bx	lr
10000cac:	40054000 	.word	0x40054000

10000cb0 <hardware_alarm_set_callback>:
10000cb0:	b570      	push	{r4, r5, r6, lr}
10000cb2:	0004      	movs	r4, r0
10000cb4:	000d      	movs	r5, r1
10000cb6:	f3ef 8610 	mrs	r6, PRIMASK
10000cba:	b672      	cpsid	i
10000cbc:	4a1a      	ldr	r2, [pc, #104]	; (10000d28 <hardware_alarm_set_callback+0x78>)
10000cbe:	6813      	ldr	r3, [r2, #0]
10000cc0:	2b00      	cmp	r3, #0
10000cc2:	d0fc      	beq.n	10000cbe <hardware_alarm_set_callback+0xe>
10000cc4:	f3bf 8f5f 	dmb	sy
10000cc8:	2d00      	cmp	r5, #0
10000cca:	d01b      	beq.n	10000d04 <hardware_alarm_set_callback+0x54>
10000ccc:	0020      	movs	r0, r4
10000cce:	f000 fd4f 	bl	10001770 <irq_get_vtable_handler>
10000cd2:	4916      	ldr	r1, [pc, #88]	; (10000d2c <hardware_alarm_set_callback+0x7c>)
10000cd4:	4281      	cmp	r1, r0
10000cd6:	d00a      	beq.n	10000cee <hardware_alarm_set_callback+0x3e>
10000cd8:	0020      	movs	r0, r4
10000cda:	f000 fd51 	bl	10001780 <irq_set_exclusive_handler>
10000cde:	2101      	movs	r1, #1
10000ce0:	0020      	movs	r0, r4
10000ce2:	f000 fd33 	bl	1000174c <irq_set_enabled>
10000ce6:	2301      	movs	r3, #1
10000ce8:	40a3      	lsls	r3, r4
10000cea:	4a11      	ldr	r2, [pc, #68]	; (10000d30 <hardware_alarm_set_callback+0x80>)
10000cec:	6013      	str	r3, [r2, #0]
10000cee:	4b11      	ldr	r3, [pc, #68]	; (10000d34 <hardware_alarm_set_callback+0x84>)
10000cf0:	00a4      	lsls	r4, r4, #2
10000cf2:	50e5      	str	r5, [r4, r3]
10000cf4:	f3bf 8f5f 	dmb	sy
10000cf8:	2200      	movs	r2, #0
10000cfa:	4b0b      	ldr	r3, [pc, #44]	; (10000d28 <hardware_alarm_set_callback+0x78>)
10000cfc:	601a      	str	r2, [r3, #0]
10000cfe:	f386 8810 	msr	PRIMASK, r6
10000d02:	bd70      	pop	{r4, r5, r6, pc}
10000d04:	4b0b      	ldr	r3, [pc, #44]	; (10000d34 <hardware_alarm_set_callback+0x84>)
10000d06:	00a2      	lsls	r2, r4, #2
10000d08:	50d5      	str	r5, [r2, r3]
10000d0a:	2201      	movs	r2, #1
10000d0c:	40a2      	lsls	r2, r4
10000d0e:	490a      	ldr	r1, [pc, #40]	; (10000d38 <hardware_alarm_set_callback+0x88>)
10000d10:	0020      	movs	r0, r4
10000d12:	780b      	ldrb	r3, [r1, #0]
10000d14:	4393      	bics	r3, r2
10000d16:	700b      	strb	r3, [r1, #0]
10000d18:	4904      	ldr	r1, [pc, #16]	; (10000d2c <hardware_alarm_set_callback+0x7c>)
10000d1a:	f000 fd5b 	bl	100017d4 <irq_remove_handler>
10000d1e:	2100      	movs	r1, #0
10000d20:	0020      	movs	r0, r4
10000d22:	f000 fd13 	bl	1000174c <irq_set_enabled>
10000d26:	e7e5      	b.n	10000cf4 <hardware_alarm_set_callback+0x44>
10000d28:	d0000128 	.word	0xd0000128
10000d2c:	10000bad 	.word	0x10000bad
10000d30:	40056038 	.word	0x40056038
10000d34:	20000abc 	.word	0x20000abc
10000d38:	20000b2a 	.word	0x20000b2a

10000d3c <hardware_alarm_set_target>:
10000d3c:	b5f0      	push	{r4, r5, r6, r7, lr}
10000d3e:	46ce      	mov	lr, r9
10000d40:	4647      	mov	r7, r8
10000d42:	b580      	push	{r7, lr}
10000d44:	4c2a      	ldr	r4, [pc, #168]	; (10000df0 <hardware_alarm_set_target+0xb4>)
10000d46:	6a61      	ldr	r1, [r4, #36]	; 0x24
10000d48:	000d      	movs	r5, r1
10000d4a:	6aa6      	ldr	r6, [r4, #40]	; 0x28
10000d4c:	6a61      	ldr	r1, [r4, #36]	; 0x24
10000d4e:	42a9      	cmp	r1, r5
10000d50:	d1fa      	bne.n	10000d48 <hardware_alarm_set_target+0xc>
10000d52:	428b      	cmp	r3, r1
10000d54:	d807      	bhi.n	10000d66 <hardware_alarm_set_target+0x2a>
10000d56:	d004      	beq.n	10000d62 <hardware_alarm_set_target+0x26>
10000d58:	2001      	movs	r0, #1
10000d5a:	bc0c      	pop	{r2, r3}
10000d5c:	4690      	mov	r8, r2
10000d5e:	4699      	mov	r9, r3
10000d60:	bdf0      	pop	{r4, r5, r6, r7, pc}
10000d62:	42b2      	cmp	r2, r6
10000d64:	d9f8      	bls.n	10000d58 <hardware_alarm_set_target+0x1c>
10000d66:	f3ef 8810 	mrs	r8, PRIMASK
10000d6a:	b672      	cpsid	i
10000d6c:	4c21      	ldr	r4, [pc, #132]	; (10000df4 <hardware_alarm_set_target+0xb8>)
10000d6e:	6821      	ldr	r1, [r4, #0]
10000d70:	2900      	cmp	r1, #0
10000d72:	d0fc      	beq.n	10000d6e <hardware_alarm_set_target+0x32>
10000d74:	f3bf 8f5f 	dmb	sy
10000d78:	2501      	movs	r5, #1
10000d7a:	4085      	lsls	r5, r0
10000d7c:	4c1c      	ldr	r4, [pc, #112]	; (10000df0 <hardware_alarm_set_target+0xb4>)
10000d7e:	4e1e      	ldr	r6, [pc, #120]	; (10000df8 <hardware_alarm_set_target+0xbc>)
10000d80:	6365      	str	r5, [r4, #52]	; 0x34
10000d82:	b2e9      	uxtb	r1, r5
10000d84:	468c      	mov	ip, r1
10000d86:	7831      	ldrb	r1, [r6, #0]
10000d88:	4689      	mov	r9, r1
10000d8a:	4661      	mov	r1, ip
10000d8c:	464f      	mov	r7, r9
10000d8e:	4339      	orrs	r1, r7
10000d90:	7031      	strb	r1, [r6, #0]
10000d92:	1d01      	adds	r1, r0, #4
10000d94:	0089      	lsls	r1, r1, #2
10000d96:	510a      	str	r2, [r1, r4]
10000d98:	4918      	ldr	r1, [pc, #96]	; (10000dfc <hardware_alarm_set_target+0xc0>)
10000d9a:	0080      	lsls	r0, r0, #2
10000d9c:	5043      	str	r3, [r0, r1]
10000d9e:	6a21      	ldr	r1, [r4, #32]
10000da0:	2000      	movs	r0, #0
10000da2:	4229      	tst	r1, r5
10000da4:	d00c      	beq.n	10000dc0 <hardware_alarm_set_target+0x84>
10000da6:	0020      	movs	r0, r4
10000da8:	6a61      	ldr	r1, [r4, #36]	; 0x24
10000daa:	000c      	movs	r4, r1
10000dac:	6a87      	ldr	r7, [r0, #40]	; 0x28
10000dae:	6a41      	ldr	r1, [r0, #36]	; 0x24
10000db0:	42a1      	cmp	r1, r4
10000db2:	d1fa      	bne.n	10000daa <hardware_alarm_set_target+0x6e>
10000db4:	428b      	cmp	r3, r1
10000db6:	d802      	bhi.n	10000dbe <hardware_alarm_set_target+0x82>
10000db8:	d10a      	bne.n	10000dd0 <hardware_alarm_set_target+0x94>
10000dba:	42ba      	cmp	r2, r7
10000dbc:	d908      	bls.n	10000dd0 <hardware_alarm_set_target+0x94>
10000dbe:	2000      	movs	r0, #0
10000dc0:	f3bf 8f5f 	dmb	sy
10000dc4:	2200      	movs	r2, #0
10000dc6:	4b0b      	ldr	r3, [pc, #44]	; (10000df4 <hardware_alarm_set_target+0xb8>)
10000dc8:	601a      	str	r2, [r3, #0]
10000dca:	f388 8810 	msr	PRIMASK, r8
10000dce:	e7c4      	b.n	10000d5a <hardware_alarm_set_target+0x1e>
10000dd0:	4b07      	ldr	r3, [pc, #28]	; (10000df0 <hardware_alarm_set_target+0xb4>)
10000dd2:	464f      	mov	r7, r9
10000dd4:	621d      	str	r5, [r3, #32]
10000dd6:	635d      	str	r5, [r3, #52]	; 0x34
10000dd8:	4663      	mov	r3, ip
10000dda:	439f      	bics	r7, r3
10000ddc:	2001      	movs	r0, #1
10000dde:	7037      	strb	r7, [r6, #0]
10000de0:	f3bf 8f5f 	dmb	sy
10000de4:	2200      	movs	r2, #0
10000de6:	4b03      	ldr	r3, [pc, #12]	; (10000df4 <hardware_alarm_set_target+0xb8>)
10000de8:	601a      	str	r2, [r3, #0]
10000dea:	f388 8810 	msr	PRIMASK, r8
10000dee:	e7b4      	b.n	10000d5a <hardware_alarm_set_target+0x1e>
10000df0:	40054000 	.word	0x40054000
10000df4:	d0000128 	.word	0xd0000128
10000df8:	20000b2a 	.word	0x20000b2a
10000dfc:	20000b18 	.word	0x20000b18

10000e00 <hardware_alarm_cancel>:
10000e00:	b510      	push	{r4, lr}
10000e02:	f3ef 8410 	mrs	r4, PRIMASK
10000e06:	b672      	cpsid	i
10000e08:	490a      	ldr	r1, [pc, #40]	; (10000e34 <hardware_alarm_cancel+0x34>)
10000e0a:	680b      	ldr	r3, [r1, #0]
10000e0c:	2b00      	cmp	r3, #0
10000e0e:	d0fc      	beq.n	10000e0a <hardware_alarm_cancel+0xa>
10000e10:	f3bf 8f5f 	dmb	sy
10000e14:	2301      	movs	r3, #1
10000e16:	4083      	lsls	r3, r0
10000e18:	4a07      	ldr	r2, [pc, #28]	; (10000e38 <hardware_alarm_cancel+0x38>)
10000e1a:	4808      	ldr	r0, [pc, #32]	; (10000e3c <hardware_alarm_cancel+0x3c>)
10000e1c:	6213      	str	r3, [r2, #32]
10000e1e:	7802      	ldrb	r2, [r0, #0]
10000e20:	439a      	bics	r2, r3
10000e22:	7002      	strb	r2, [r0, #0]
10000e24:	f3bf 8f5f 	dmb	sy
10000e28:	2300      	movs	r3, #0
10000e2a:	600b      	str	r3, [r1, #0]
10000e2c:	f384 8810 	msr	PRIMASK, r4
10000e30:	bd10      	pop	{r4, pc}
10000e32:	46c0      	nop			; (mov r8, r8)
10000e34:	d0000128 	.word	0xd0000128
10000e38:	40054000 	.word	0x40054000
10000e3c:	20000b2a 	.word	0x20000b2a

10000e40 <lock_init>:
10000e40:	4b02      	ldr	r3, [pc, #8]	; (10000e4c <lock_init+0xc>)
10000e42:	469c      	mov	ip, r3
10000e44:	4461      	add	r1, ip
10000e46:	0089      	lsls	r1, r1, #2
10000e48:	6001      	str	r1, [r0, #0]
10000e4a:	4770      	bx	lr
10000e4c:	34000040 	.word	0x34000040

10000e50 <mutex_init>:
10000e50:	b510      	push	{r4, lr}
10000e52:	0004      	movs	r4, r0
10000e54:	f7ff fb62 	bl	1000051c <next_striped_spin_lock_num>
10000e58:	0001      	movs	r1, r0
10000e5a:	0020      	movs	r0, r4
10000e5c:	f7ff fff0 	bl	10000e40 <lock_init>
10000e60:	f3bf 8f5f 	dmb	sy
10000e64:	bd10      	pop	{r4, pc}
10000e66:	46c0      	nop			; (mov r8, r8)

10000e68 <ph_merge_nodes>:
10000e68:	b570      	push	{r4, r5, r6, lr}
10000e6a:	0005      	movs	r5, r0
10000e6c:	000e      	movs	r6, r1
10000e6e:	0014      	movs	r4, r2
10000e70:	2900      	cmp	r1, #0
10000e72:	d024      	beq.n	10000ebe <ph_merge_nodes+0x56>
10000e74:	2a00      	cmp	r2, #0
10000e76:	d024      	beq.n	10000ec2 <ph_merge_nodes+0x5a>
10000e78:	6880      	ldr	r0, [r0, #8]
10000e7a:	686b      	ldr	r3, [r5, #4]
10000e7c:	4798      	blx	r3
10000e7e:	6829      	ldr	r1, [r5, #0]
10000e80:	2800      	cmp	r0, #0
10000e82:	d00e      	beq.n	10000ea2 <ph_merge_nodes+0x3a>
10000e84:	0063      	lsls	r3, r4, #1
10000e86:	191b      	adds	r3, r3, r4
10000e88:	0072      	lsls	r2, r6, #1
10000e8a:	3b03      	subs	r3, #3
10000e8c:	1992      	adds	r2, r2, r6
10000e8e:	18cb      	adds	r3, r1, r3
10000e90:	3a03      	subs	r2, #3
10000e92:	709e      	strb	r6, [r3, #2]
10000e94:	1888      	adds	r0, r1, r2
10000e96:	5c8a      	ldrb	r2, [r1, r2]
10000e98:	2a00      	cmp	r2, #0
10000e9a:	d114      	bne.n	10000ec6 <ph_merge_nodes+0x5e>
10000e9c:	7004      	strb	r4, [r0, #0]
10000e9e:	0030      	movs	r0, r6
10000ea0:	e00e      	b.n	10000ec0 <ph_merge_nodes+0x58>
10000ea2:	0073      	lsls	r3, r6, #1
10000ea4:	199b      	adds	r3, r3, r6
10000ea6:	0062      	lsls	r2, r4, #1
10000ea8:	3b03      	subs	r3, #3
10000eaa:	1912      	adds	r2, r2, r4
10000eac:	18cb      	adds	r3, r1, r3
10000eae:	3a03      	subs	r2, #3
10000eb0:	709c      	strb	r4, [r3, #2]
10000eb2:	1888      	adds	r0, r1, r2
10000eb4:	5c8a      	ldrb	r2, [r1, r2]
10000eb6:	2a00      	cmp	r2, #0
10000eb8:	d000      	beq.n	10000ebc <ph_merge_nodes+0x54>
10000eba:	705a      	strb	r2, [r3, #1]
10000ebc:	7006      	strb	r6, [r0, #0]
10000ebe:	0020      	movs	r0, r4
10000ec0:	bd70      	pop	{r4, r5, r6, pc}
10000ec2:	0008      	movs	r0, r1
10000ec4:	e7fc      	b.n	10000ec0 <ph_merge_nodes+0x58>
10000ec6:	705a      	strb	r2, [r3, #1]
10000ec8:	7004      	strb	r4, [r0, #0]
10000eca:	0030      	movs	r0, r6
10000ecc:	e7f8      	b.n	10000ec0 <ph_merge_nodes+0x58>
10000ece:	46c0      	nop			; (mov r8, r8)

10000ed0 <ph_create>:
10000ed0:	b5f0      	push	{r4, r5, r6, r7, lr}
10000ed2:	46c6      	mov	lr, r8
10000ed4:	0005      	movs	r5, r0
10000ed6:	000f      	movs	r7, r1
10000ed8:	b500      	push	{lr}
10000eda:	2110      	movs	r1, #16
10000edc:	2001      	movs	r0, #1
10000ede:	0016      	movs	r6, r2
10000ee0:	f003 f8b6 	bl	10004050 <__wrap_calloc>
10000ee4:	b2eb      	uxtb	r3, r5
10000ee6:	0004      	movs	r4, r0
10000ee8:	7303      	strb	r3, [r0, #12]
10000eea:	2103      	movs	r1, #3
10000eec:	6047      	str	r7, [r0, #4]
10000eee:	0028      	movs	r0, r5
10000ef0:	4698      	mov	r8, r3
10000ef2:	f003 f8ad 	bl	10004050 <__wrap_calloc>
10000ef6:	2300      	movs	r3, #0
10000ef8:	7363      	strb	r3, [r4, #13]
10000efa:	3301      	adds	r3, #1
10000efc:	73a3      	strb	r3, [r4, #14]
10000efe:	4643      	mov	r3, r8
10000f00:	21ff      	movs	r1, #255	; 0xff
10000f02:	73e3      	strb	r3, [r4, #15]
10000f04:	23fe      	movs	r3, #254	; 0xfe
10000f06:	6020      	str	r0, [r4, #0]
10000f08:	60a6      	str	r6, [r4, #8]
10000f0a:	4029      	ands	r1, r5
10000f0c:	422b      	tst	r3, r5
10000f0e:	d006      	beq.n	10000f1e <ph_create+0x4e>
10000f10:	1c42      	adds	r2, r0, #1
10000f12:	3bfd      	subs	r3, #253	; 0xfd
10000f14:	3301      	adds	r3, #1
10000f16:	7013      	strb	r3, [r2, #0]
10000f18:	3203      	adds	r2, #3
10000f1a:	428b      	cmp	r3, r1
10000f1c:	d3fa      	bcc.n	10000f14 <ph_create+0x44>
10000f1e:	004b      	lsls	r3, r1, #1
10000f20:	1859      	adds	r1, r3, r1
10000f22:	2300      	movs	r3, #0
10000f24:	1840      	adds	r0, r0, r1
10000f26:	3803      	subs	r0, #3
10000f28:	7043      	strb	r3, [r0, #1]
10000f2a:	0020      	movs	r0, r4
10000f2c:	bc04      	pop	{r2}
10000f2e:	4690      	mov	r8, r2
10000f30:	bdf0      	pop	{r4, r5, r6, r7, pc}
10000f32:	46c0      	nop			; (mov r8, r8)

10000f34 <ph_merge_two_pass>:
10000f34:	b5f8      	push	{r3, r4, r5, r6, r7, lr}
10000f36:	46ce      	mov	lr, r9
10000f38:	4647      	mov	r7, r8
10000f3a:	0006      	movs	r6, r0
10000f3c:	000c      	movs	r4, r1
10000f3e:	b580      	push	{r7, lr}
10000f40:	2900      	cmp	r1, #0
10000f42:	d007      	beq.n	10000f54 <ph_merge_two_pass+0x20>
10000f44:	004d      	lsls	r5, r1, #1
10000f46:	6803      	ldr	r3, [r0, #0]
10000f48:	186d      	adds	r5, r5, r1
10000f4a:	3d03      	subs	r5, #3
10000f4c:	195a      	adds	r2, r3, r5
10000f4e:	7857      	ldrb	r7, [r2, #1]
10000f50:	2f00      	cmp	r7, #0
10000f52:	d104      	bne.n	10000f5e <ph_merge_two_pass+0x2a>
10000f54:	0020      	movs	r0, r4
10000f56:	bc0c      	pop	{r2, r3}
10000f58:	4690      	mov	r8, r2
10000f5a:	4699      	mov	r9, r3
10000f5c:	bdf8      	pop	{r3, r4, r5, r6, r7, pc}
10000f5e:	0079      	lsls	r1, r7, #1
10000f60:	19c9      	adds	r1, r1, r7
10000f62:	3903      	subs	r1, #3
10000f64:	4688      	mov	r8, r1
10000f66:	4443      	add	r3, r8
10000f68:	7859      	ldrb	r1, [r3, #1]
10000f6a:	4689      	mov	r9, r1
10000f6c:	2100      	movs	r1, #0
10000f6e:	7059      	strb	r1, [r3, #1]
10000f70:	7051      	strb	r1, [r2, #1]
10000f72:	6873      	ldr	r3, [r6, #4]
10000f74:	003a      	movs	r2, r7
10000f76:	0021      	movs	r1, r4
10000f78:	6880      	ldr	r0, [r0, #8]
10000f7a:	4798      	blx	r3
10000f7c:	6833      	ldr	r3, [r6, #0]
10000f7e:	2800      	cmp	r0, #0
10000f80:	d014      	beq.n	10000fac <ph_merge_two_pass+0x78>
10000f82:	4642      	mov	r2, r8
10000f84:	189a      	adds	r2, r3, r2
10000f86:	7094      	strb	r4, [r2, #2]
10000f88:	1959      	adds	r1, r3, r5
10000f8a:	5d5b      	ldrb	r3, [r3, r5]
10000f8c:	2b00      	cmp	r3, #0
10000f8e:	d000      	beq.n	10000f92 <ph_merge_two_pass+0x5e>
10000f90:	7053      	strb	r3, [r2, #1]
10000f92:	700f      	strb	r7, [r1, #0]
10000f94:	0027      	movs	r7, r4
10000f96:	4649      	mov	r1, r9
10000f98:	0030      	movs	r0, r6
10000f9a:	f7ff ffcb 	bl	10000f34 <ph_merge_two_pass>
10000f9e:	0039      	movs	r1, r7
10000fa0:	0002      	movs	r2, r0
10000fa2:	0030      	movs	r0, r6
10000fa4:	f7ff ff60 	bl	10000e68 <ph_merge_nodes>
10000fa8:	0004      	movs	r4, r0
10000faa:	e7d3      	b.n	10000f54 <ph_merge_two_pass+0x20>
10000fac:	4642      	mov	r2, r8
10000fae:	4641      	mov	r1, r8
10000fb0:	195d      	adds	r5, r3, r5
10000fb2:	70af      	strb	r7, [r5, #2]
10000fb4:	189a      	adds	r2, r3, r2
10000fb6:	5c5b      	ldrb	r3, [r3, r1]
10000fb8:	2b00      	cmp	r3, #0
10000fba:	d000      	beq.n	10000fbe <ph_merge_two_pass+0x8a>
10000fbc:	706b      	strb	r3, [r5, #1]
10000fbe:	7014      	strb	r4, [r2, #0]
10000fc0:	e7e9      	b.n	10000f96 <ph_merge_two_pass+0x62>
10000fc2:	46c0      	nop			; (mov r8, r8)

10000fc4 <ph_remove_any_head>:
10000fc4:	b5f0      	push	{r4, r5, r6, r7, lr}
10000fc6:	4657      	mov	r7, sl
10000fc8:	4645      	mov	r5, r8
10000fca:	46de      	mov	lr, fp
10000fcc:	464e      	mov	r6, r9
10000fce:	b5e0      	push	{r5, r6, r7, lr}
10000fd0:	000d      	movs	r5, r1
10000fd2:	006b      	lsls	r3, r5, #1
10000fd4:	6801      	ldr	r1, [r0, #0]
10000fd6:	195b      	adds	r3, r3, r5
10000fd8:	1edf      	subs	r7, r3, #3
10000fda:	0004      	movs	r4, r0
10000fdc:	5dc8      	ldrb	r0, [r1, r7]
10000fde:	b083      	sub	sp, #12
10000fe0:	9201      	str	r2, [sp, #4]
10000fe2:	19ca      	adds	r2, r1, r7
10000fe4:	2800      	cmp	r0, #0
10000fe6:	d04c      	beq.n	10001082 <ph_remove_any_head+0xbe>
10000fe8:	0043      	lsls	r3, r0, #1
10000fea:	181b      	adds	r3, r3, r0
10000fec:	3b03      	subs	r3, #3
10000fee:	18cb      	adds	r3, r1, r3
10000ff0:	785e      	ldrb	r6, [r3, #1]
10000ff2:	46b4      	mov	ip, r6
10000ff4:	2e00      	cmp	r6, #0
10000ff6:	d116      	bne.n	10001026 <ph_remove_any_head+0x62>
10000ff8:	9e01      	ldr	r6, [sp, #4]
10000ffa:	2e00      	cmp	r6, #0
10000ffc:	d13e      	bne.n	1000107c <ph_remove_any_head+0xb8>
10000ffe:	7be6      	ldrb	r6, [r4, #15]
10001000:	2e00      	cmp	r6, #0
10001002:	d004      	beq.n	1000100e <ph_remove_any_head+0x4a>
10001004:	0073      	lsls	r3, r6, #1
10001006:	199b      	adds	r3, r3, r6
10001008:	18cb      	adds	r3, r1, r3
1000100a:	3b03      	subs	r3, #3
1000100c:	705d      	strb	r5, [r3, #1]
1000100e:	73e5      	strb	r5, [r4, #15]
10001010:	2800      	cmp	r0, #0
10001012:	d12f      	bne.n	10001074 <ph_remove_any_head+0xb0>
10001014:	2300      	movs	r3, #0
10001016:	7053      	strb	r3, [r2, #1]
10001018:	b003      	add	sp, #12
1000101a:	bc3c      	pop	{r2, r3, r4, r5}
1000101c:	4690      	mov	r8, r2
1000101e:	4699      	mov	r9, r3
10001020:	46a2      	mov	sl, r4
10001022:	46ab      	mov	fp, r5
10001024:	bdf0      	pop	{r4, r5, r6, r7, pc}
10001026:	0072      	lsls	r2, r6, #1
10001028:	4462      	add	r2, ip
1000102a:	3a03      	subs	r2, #3
1000102c:	1889      	adds	r1, r1, r2
1000102e:	784a      	ldrb	r2, [r1, #1]
10001030:	4690      	mov	r8, r2
10001032:	2200      	movs	r2, #0
10001034:	704a      	strb	r2, [r1, #1]
10001036:	4691      	mov	r9, r2
10001038:	705a      	strb	r2, [r3, #1]
1000103a:	0001      	movs	r1, r0
1000103c:	0032      	movs	r2, r6
1000103e:	0020      	movs	r0, r4
10001040:	f7ff ff12 	bl	10000e68 <ph_merge_nodes>
10001044:	4643      	mov	r3, r8
10001046:	4682      	mov	sl, r0
10001048:	2b00      	cmp	r3, #0
1000104a:	d007      	beq.n	1000105c <ph_remove_any_head+0x98>
1000104c:	005b      	lsls	r3, r3, #1
1000104e:	6821      	ldr	r1, [r4, #0]
10001050:	4443      	add	r3, r8
10001052:	3b03      	subs	r3, #3
10001054:	18cb      	adds	r3, r1, r3
10001056:	785a      	ldrb	r2, [r3, #1]
10001058:	2a00      	cmp	r2, #0
1000105a:	d116      	bne.n	1000108a <ph_remove_any_head+0xc6>
1000105c:	4642      	mov	r2, r8
1000105e:	4651      	mov	r1, sl
10001060:	0020      	movs	r0, r4
10001062:	f7ff ff01 	bl	10000e68 <ph_merge_nodes>
10001066:	6821      	ldr	r1, [r4, #0]
10001068:	9b01      	ldr	r3, [sp, #4]
1000106a:	19ca      	adds	r2, r1, r7
1000106c:	2b00      	cmp	r3, #0
1000106e:	d0c6      	beq.n	10000ffe <ph_remove_any_head+0x3a>
10001070:	2800      	cmp	r0, #0
10001072:	d0cf      	beq.n	10001014 <ph_remove_any_head+0x50>
10001074:	0043      	lsls	r3, r0, #1
10001076:	181b      	adds	r3, r3, r0
10001078:	3b03      	subs	r3, #3
1000107a:	18cb      	adds	r3, r1, r3
1000107c:	2100      	movs	r1, #0
1000107e:	7099      	strb	r1, [r3, #2]
10001080:	e7c8      	b.n	10001014 <ph_remove_any_head+0x50>
10001082:	9b01      	ldr	r3, [sp, #4]
10001084:	2b00      	cmp	r3, #0
10001086:	d1c5      	bne.n	10001014 <ph_remove_any_head+0x50>
10001088:	e7b9      	b.n	10000ffe <ph_remove_any_head+0x3a>
1000108a:	0050      	lsls	r0, r2, #1
1000108c:	1880      	adds	r0, r0, r2
1000108e:	3803      	subs	r0, #3
10001090:	1809      	adds	r1, r1, r0
10001092:	7848      	ldrb	r0, [r1, #1]
10001094:	4683      	mov	fp, r0
10001096:	4648      	mov	r0, r9
10001098:	7048      	strb	r0, [r1, #1]
1000109a:	7058      	strb	r0, [r3, #1]
1000109c:	4641      	mov	r1, r8
1000109e:	0020      	movs	r0, r4
100010a0:	f7ff fee2 	bl	10000e68 <ph_merge_nodes>
100010a4:	4659      	mov	r1, fp
100010a6:	4680      	mov	r8, r0
100010a8:	0020      	movs	r0, r4
100010aa:	f7ff ff43 	bl	10000f34 <ph_merge_two_pass>
100010ae:	4641      	mov	r1, r8
100010b0:	0002      	movs	r2, r0
100010b2:	0020      	movs	r0, r4
100010b4:	f7ff fed8 	bl	10000e68 <ph_merge_nodes>
100010b8:	4680      	mov	r8, r0
100010ba:	e7cf      	b.n	1000105c <ph_remove_any_head+0x98>

100010bc <ph_remove_head_reserve>:
100010bc:	b5f0      	push	{r4, r5, r6, r7, lr}
100010be:	464e      	mov	r6, r9
100010c0:	4645      	mov	r5, r8
100010c2:	46de      	mov	lr, fp
100010c4:	4657      	mov	r7, sl
100010c6:	b5e0      	push	{r5, r6, r7, lr}
100010c8:	7b46      	ldrb	r6, [r0, #13]
100010ca:	0004      	movs	r4, r0
100010cc:	0075      	lsls	r5, r6, #1
100010ce:	6800      	ldr	r0, [r0, #0]
100010d0:	19ad      	adds	r5, r5, r6
100010d2:	3d03      	subs	r5, #3
100010d4:	b083      	sub	sp, #12
100010d6:	9101      	str	r1, [sp, #4]
100010d8:	5d41      	ldrb	r1, [r0, r5]
100010da:	1942      	adds	r2, r0, r5
100010dc:	2900      	cmp	r1, #0
100010de:	d04e      	beq.n	1000117e <ph_remove_head_reserve+0xc2>
100010e0:	004b      	lsls	r3, r1, #1
100010e2:	185b      	adds	r3, r3, r1
100010e4:	3b03      	subs	r3, #3
100010e6:	18c3      	adds	r3, r0, r3
100010e8:	785f      	ldrb	r7, [r3, #1]
100010ea:	46bc      	mov	ip, r7
100010ec:	2f00      	cmp	r7, #0
100010ee:	d118      	bne.n	10001122 <ph_remove_head_reserve+0x66>
100010f0:	9d01      	ldr	r5, [sp, #4]
100010f2:	2d00      	cmp	r5, #0
100010f4:	d140      	bne.n	10001178 <ph_remove_head_reserve+0xbc>
100010f6:	7be5      	ldrb	r5, [r4, #15]
100010f8:	2d00      	cmp	r5, #0
100010fa:	d004      	beq.n	10001106 <ph_remove_head_reserve+0x4a>
100010fc:	006b      	lsls	r3, r5, #1
100010fe:	195b      	adds	r3, r3, r5
10001100:	18c3      	adds	r3, r0, r3
10001102:	3b03      	subs	r3, #3
10001104:	705e      	strb	r6, [r3, #1]
10001106:	73e6      	strb	r6, [r4, #15]
10001108:	2900      	cmp	r1, #0
1000110a:	d131      	bne.n	10001170 <ph_remove_head_reserve+0xb4>
1000110c:	2300      	movs	r3, #0
1000110e:	0030      	movs	r0, r6
10001110:	7053      	strb	r3, [r2, #1]
10001112:	7361      	strb	r1, [r4, #13]
10001114:	b003      	add	sp, #12
10001116:	bc3c      	pop	{r2, r3, r4, r5}
10001118:	4690      	mov	r8, r2
1000111a:	4699      	mov	r9, r3
1000111c:	46a2      	mov	sl, r4
1000111e:	46ab      	mov	fp, r5
10001120:	bdf0      	pop	{r4, r5, r6, r7, pc}
10001122:	007a      	lsls	r2, r7, #1
10001124:	4462      	add	r2, ip
10001126:	3a03      	subs	r2, #3
10001128:	1880      	adds	r0, r0, r2
1000112a:	7842      	ldrb	r2, [r0, #1]
1000112c:	4693      	mov	fp, r2
1000112e:	2200      	movs	r2, #0
10001130:	7042      	strb	r2, [r0, #1]
10001132:	4691      	mov	r9, r2
10001134:	705a      	strb	r2, [r3, #1]
10001136:	0020      	movs	r0, r4
10001138:	003a      	movs	r2, r7
1000113a:	f7ff fe95 	bl	10000e68 <ph_merge_nodes>
1000113e:	465b      	mov	r3, fp
10001140:	4680      	mov	r8, r0
10001142:	2b00      	cmp	r3, #0
10001144:	d007      	beq.n	10001156 <ph_remove_head_reserve+0x9a>
10001146:	005b      	lsls	r3, r3, #1
10001148:	6821      	ldr	r1, [r4, #0]
1000114a:	445b      	add	r3, fp
1000114c:	3b03      	subs	r3, #3
1000114e:	18cb      	adds	r3, r1, r3
10001150:	785a      	ldrb	r2, [r3, #1]
10001152:	2a00      	cmp	r2, #0
10001154:	d117      	bne.n	10001186 <ph_remove_head_reserve+0xca>
10001156:	465a      	mov	r2, fp
10001158:	4641      	mov	r1, r8
1000115a:	0020      	movs	r0, r4
1000115c:	f7ff fe84 	bl	10000e68 <ph_merge_nodes>
10001160:	9b01      	ldr	r3, [sp, #4]
10001162:	0001      	movs	r1, r0
10001164:	6820      	ldr	r0, [r4, #0]
10001166:	1942      	adds	r2, r0, r5
10001168:	2b00      	cmp	r3, #0
1000116a:	d0c4      	beq.n	100010f6 <ph_remove_head_reserve+0x3a>
1000116c:	2900      	cmp	r1, #0
1000116e:	d0cd      	beq.n	1000110c <ph_remove_head_reserve+0x50>
10001170:	004b      	lsls	r3, r1, #1
10001172:	185b      	adds	r3, r3, r1
10001174:	3b03      	subs	r3, #3
10001176:	18c3      	adds	r3, r0, r3
10001178:	2000      	movs	r0, #0
1000117a:	7098      	strb	r0, [r3, #2]
1000117c:	e7c6      	b.n	1000110c <ph_remove_head_reserve+0x50>
1000117e:	9b01      	ldr	r3, [sp, #4]
10001180:	2b00      	cmp	r3, #0
10001182:	d1c3      	bne.n	1000110c <ph_remove_head_reserve+0x50>
10001184:	e7b7      	b.n	100010f6 <ph_remove_head_reserve+0x3a>
10001186:	0050      	lsls	r0, r2, #1
10001188:	1880      	adds	r0, r0, r2
1000118a:	3803      	subs	r0, #3
1000118c:	1809      	adds	r1, r1, r0
1000118e:	7848      	ldrb	r0, [r1, #1]
10001190:	4682      	mov	sl, r0
10001192:	4648      	mov	r0, r9
10001194:	7048      	strb	r0, [r1, #1]
10001196:	7058      	strb	r0, [r3, #1]
10001198:	4659      	mov	r1, fp
1000119a:	0020      	movs	r0, r4
1000119c:	f7ff fe64 	bl	10000e68 <ph_merge_nodes>
100011a0:	4653      	mov	r3, sl
100011a2:	4683      	mov	fp, r0
100011a4:	2b00      	cmp	r3, #0
100011a6:	d007      	beq.n	100011b8 <ph_remove_head_reserve+0xfc>
100011a8:	005b      	lsls	r3, r3, #1
100011aa:	6821      	ldr	r1, [r4, #0]
100011ac:	4453      	add	r3, sl
100011ae:	3b03      	subs	r3, #3
100011b0:	18cb      	adds	r3, r1, r3
100011b2:	785a      	ldrb	r2, [r3, #1]
100011b4:	2a00      	cmp	r2, #0
100011b6:	d106      	bne.n	100011c6 <ph_remove_head_reserve+0x10a>
100011b8:	4659      	mov	r1, fp
100011ba:	4652      	mov	r2, sl
100011bc:	0020      	movs	r0, r4
100011be:	f7ff fe53 	bl	10000e68 <ph_merge_nodes>
100011c2:	4683      	mov	fp, r0
100011c4:	e7c7      	b.n	10001156 <ph_remove_head_reserve+0x9a>
100011c6:	0050      	lsls	r0, r2, #1
100011c8:	1880      	adds	r0, r0, r2
100011ca:	3803      	subs	r0, #3
100011cc:	1809      	adds	r1, r1, r0
100011ce:	4648      	mov	r0, r9
100011d0:	784f      	ldrb	r7, [r1, #1]
100011d2:	7048      	strb	r0, [r1, #1]
100011d4:	7058      	strb	r0, [r3, #1]
100011d6:	4651      	mov	r1, sl
100011d8:	0020      	movs	r0, r4
100011da:	f7ff fe45 	bl	10000e68 <ph_merge_nodes>
100011de:	0039      	movs	r1, r7
100011e0:	4681      	mov	r9, r0
100011e2:	0020      	movs	r0, r4
100011e4:	f7ff fea6 	bl	10000f34 <ph_merge_two_pass>
100011e8:	4649      	mov	r1, r9
100011ea:	0002      	movs	r2, r0
100011ec:	0020      	movs	r0, r4
100011ee:	f7ff fe3b 	bl	10000e68 <ph_merge_nodes>
100011f2:	4682      	mov	sl, r0
100011f4:	e7e0      	b.n	100011b8 <ph_remove_head_reserve+0xfc>
100011f6:	46c0      	nop			; (mov r8, r8)

100011f8 <ph_delete>:
100011f8:	b570      	push	{r4, r5, r6, lr}
100011fa:	0004      	movs	r4, r0
100011fc:	2900      	cmp	r1, #0
100011fe:	d02c      	beq.n	1000125a <ph_delete+0x62>
10001200:	7b43      	ldrb	r3, [r0, #13]
10001202:	428b      	cmp	r3, r1
10001204:	d02e      	beq.n	10001264 <ph_delete+0x6c>
10001206:	6805      	ldr	r5, [r0, #0]
10001208:	0048      	lsls	r0, r1, #1
1000120a:	1840      	adds	r0, r0, r1
1000120c:	3803      	subs	r0, #3
1000120e:	1828      	adds	r0, r5, r0
10001210:	7882      	ldrb	r2, [r0, #2]
10001212:	2a00      	cmp	r2, #0
10001214:	d021      	beq.n	1000125a <ph_delete+0x62>
10001216:	0053      	lsls	r3, r2, #1
10001218:	189b      	adds	r3, r3, r2
1000121a:	3b03      	subs	r3, #3
1000121c:	5cea      	ldrb	r2, [r5, r3]
1000121e:	18ee      	adds	r6, r5, r3
10001220:	428a      	cmp	r2, r1
10001222:	d102      	bne.n	1000122a <ph_delete+0x32>
10001224:	e01b      	b.n	1000125e <ph_delete+0x66>
10001226:	2a00      	cmp	r2, #0
10001228:	d008      	beq.n	1000123c <ph_delete+0x44>
1000122a:	0053      	lsls	r3, r2, #1
1000122c:	189b      	adds	r3, r3, r2
1000122e:	3b03      	subs	r3, #3
10001230:	18eb      	adds	r3, r5, r3
10001232:	785a      	ldrb	r2, [r3, #1]
10001234:	428a      	cmp	r2, r1
10001236:	d1f6      	bne.n	10001226 <ph_delete+0x2e>
10001238:	7842      	ldrb	r2, [r0, #1]
1000123a:	705a      	strb	r2, [r3, #1]
1000123c:	2300      	movs	r3, #0
1000123e:	2200      	movs	r2, #0
10001240:	7083      	strb	r3, [r0, #2]
10001242:	7043      	strb	r3, [r0, #1]
10001244:	0020      	movs	r0, r4
10001246:	f7ff febd 	bl	10000fc4 <ph_remove_any_head>
1000124a:	7b61      	ldrb	r1, [r4, #13]
1000124c:	0002      	movs	r2, r0
1000124e:	0020      	movs	r0, r4
10001250:	f7ff fe0a 	bl	10000e68 <ph_merge_nodes>
10001254:	7360      	strb	r0, [r4, #13]
10001256:	2001      	movs	r0, #1
10001258:	e000      	b.n	1000125c <ph_delete+0x64>
1000125a:	2000      	movs	r0, #0
1000125c:	bd70      	pop	{r4, r5, r6, pc}
1000125e:	7843      	ldrb	r3, [r0, #1]
10001260:	7033      	strb	r3, [r6, #0]
10001262:	e7eb      	b.n	1000123c <ph_delete+0x44>
10001264:	2200      	movs	r2, #0
10001266:	0019      	movs	r1, r3
10001268:	f7ff feac 	bl	10000fc4 <ph_remove_any_head>
1000126c:	7360      	strb	r0, [r4, #13]
1000126e:	2001      	movs	r0, #1
10001270:	e7f4      	b.n	1000125c <ph_delete+0x64>
10001272:	46c0      	nop			; (mov r8, r8)

10001274 <runtime_init>:
10001274:	4b2b      	ldr	r3, [pc, #172]	; (10001324 <runtime_init+0xb0>)
10001276:	4a2c      	ldr	r2, [pc, #176]	; (10001328 <runtime_init+0xb4>)
10001278:	b570      	push	{r4, r5, r6, lr}
1000127a:	601a      	str	r2, [r3, #0]
1000127c:	4a2b      	ldr	r2, [pc, #172]	; (1000132c <runtime_init+0xb8>)
1000127e:	4b2c      	ldr	r3, [pc, #176]	; (10001330 <runtime_init+0xbc>)
10001280:	492c      	ldr	r1, [pc, #176]	; (10001334 <runtime_init+0xc0>)
10001282:	601a      	str	r2, [r3, #0]
10001284:	0010      	movs	r0, r2
10001286:	688b      	ldr	r3, [r1, #8]
10001288:	4398      	bics	r0, r3
1000128a:	d1fb      	bne.n	10001284 <runtime_init+0x10>
1000128c:	4c2a      	ldr	r4, [pc, #168]	; (10001338 <runtime_init+0xc4>)
1000128e:	4b2b      	ldr	r3, [pc, #172]	; (1000133c <runtime_init+0xc8>)
10001290:	429c      	cmp	r4, r3
10001292:	d209      	bcs.n	100012a8 <runtime_init+0x34>
10001294:	3b01      	subs	r3, #1
10001296:	1b1d      	subs	r5, r3, r4
10001298:	08ad      	lsrs	r5, r5, #2
1000129a:	3501      	adds	r5, #1
1000129c:	00ad      	lsls	r5, r5, #2
1000129e:	192d      	adds	r5, r5, r4
100012a0:	cc08      	ldmia	r4!, {r3}
100012a2:	4798      	blx	r3
100012a4:	42ac      	cmp	r4, r5
100012a6:	d1fb      	bne.n	100012a0 <runtime_init+0x2c>
100012a8:	f000 f894 	bl	100013d4 <clocks_init>
100012ac:	4a24      	ldr	r2, [pc, #144]	; (10001340 <runtime_init+0xcc>)
100012ae:	4b20      	ldr	r3, [pc, #128]	; (10001330 <runtime_init+0xbc>)
100012b0:	601a      	str	r2, [r3, #0]
100012b2:	4a20      	ldr	r2, [pc, #128]	; (10001334 <runtime_init+0xc0>)
100012b4:	6893      	ldr	r3, [r2, #8]
100012b6:	01db      	lsls	r3, r3, #7
100012b8:	3380      	adds	r3, #128	; 0x80
100012ba:	d1fb      	bne.n	100012b4 <runtime_init+0x40>
100012bc:	2240      	movs	r2, #64	; 0x40
100012be:	4b21      	ldr	r3, [pc, #132]	; (10001344 <runtime_init+0xd0>)
100012c0:	4c21      	ldr	r4, [pc, #132]	; (10001348 <runtime_init+0xd4>)
100012c2:	679a      	str	r2, [r3, #120]	; 0x78
100012c4:	675a      	str	r2, [r3, #116]	; 0x74
100012c6:	671a      	str	r2, [r3, #112]	; 0x70
100012c8:	66da      	str	r2, [r3, #108]	; 0x6c
100012ca:	4b20      	ldr	r3, [pc, #128]	; (1000134c <runtime_init+0xd8>)
100012cc:	429c      	cmp	r4, r3
100012ce:	d20b      	bcs.n	100012e8 <runtime_init+0x74>
100012d0:	3b01      	subs	r3, #1
100012d2:	1b1d      	subs	r5, r3, r4
100012d4:	08ed      	lsrs	r5, r5, #3
100012d6:	3501      	adds	r5, #1
100012d8:	00ed      	lsls	r5, r5, #3
100012da:	192d      	adds	r5, r5, r4
100012dc:	0020      	movs	r0, r4
100012de:	3408      	adds	r4, #8
100012e0:	f7ff fdb6 	bl	10000e50 <mutex_init>
100012e4:	42ac      	cmp	r4, r5
100012e6:	d1f9      	bne.n	100012dc <runtime_init+0x68>
100012e8:	4c19      	ldr	r4, [pc, #100]	; (10001350 <runtime_init+0xdc>)
100012ea:	4d1a      	ldr	r5, [pc, #104]	; (10001354 <runtime_init+0xe0>)
100012ec:	68a1      	ldr	r1, [r4, #8]
100012ee:	22c0      	movs	r2, #192	; 0xc0
100012f0:	0028      	movs	r0, r5
100012f2:	f002 febf 	bl	10004074 <__wrap___aeabi_memcpy>
100012f6:	60a5      	str	r5, [r4, #8]
100012f8:	f7ff f902 	bl	10000500 <spin_locks_reset>
100012fc:	f000 fbaa 	bl	10001a54 <irq_init_priorities>
10001300:	f7ff fbc4 	bl	10000a8c <alarm_pool_init_default>
10001304:	4c14      	ldr	r4, [pc, #80]	; (10001358 <runtime_init+0xe4>)
10001306:	4b15      	ldr	r3, [pc, #84]	; (1000135c <runtime_init+0xe8>)
10001308:	429c      	cmp	r4, r3
1000130a:	d209      	bcs.n	10001320 <runtime_init+0xac>
1000130c:	3b01      	subs	r3, #1
1000130e:	1b1d      	subs	r5, r3, r4
10001310:	08ad      	lsrs	r5, r5, #2
10001312:	3501      	adds	r5, #1
10001314:	00ad      	lsls	r5, r5, #2
10001316:	192d      	adds	r5, r5, r4
10001318:	cc08      	ldmia	r4!, {r3}
1000131a:	4798      	blx	r3
1000131c:	42a5      	cmp	r5, r4
1000131e:	d1fb      	bne.n	10001318 <runtime_init+0xa4>
10001320:	bd70      	pop	{r4, r5, r6, pc}
10001322:	46c0      	nop			; (mov r8, r8)
10001324:	4000e000 	.word	0x4000e000
10001328:	ffffcdbf 	.word	0xffffcdbf
1000132c:	003c7ffe 	.word	0x003c7ffe
10001330:	4000f000 	.word	0x4000f000
10001334:	4000c000 	.word	0x4000c000
10001338:	20000a58 	.word	0x20000a58
1000133c:	20000a68 	.word	0x20000a68
10001340:	01ffffff 	.word	0x01ffffff
10001344:	4001f000 	.word	0x4001f000
10001348:	20000a50 	.word	0x20000a50
1000134c:	20000a58 	.word	0x20000a58
10001350:	e000ed00 	.word	0xe000ed00
10001354:	20000000 	.word	0x20000000
10001358:	20000a68 	.word	0x20000a68
1000135c:	20000a6c 	.word	0x20000a6c

10001360 <_sbrk>:
10001360:	4a09      	ldr	r2, [pc, #36]	; (10001388 <_sbrk+0x28>)
10001362:	0003      	movs	r3, r0
10001364:	6810      	ldr	r0, [r2, #0]
10001366:	2800      	cmp	r0, #0
10001368:	d005      	beq.n	10001376 <_sbrk+0x16>
1000136a:	4908      	ldr	r1, [pc, #32]	; (1000138c <_sbrk+0x2c>)
1000136c:	18c3      	adds	r3, r0, r3
1000136e:	428b      	cmp	r3, r1
10001370:	d207      	bcs.n	10001382 <_sbrk+0x22>
10001372:	6013      	str	r3, [r2, #0]
10001374:	4770      	bx	lr
10001376:	4806      	ldr	r0, [pc, #24]	; (10001390 <_sbrk+0x30>)
10001378:	4904      	ldr	r1, [pc, #16]	; (1000138c <_sbrk+0x2c>)
1000137a:	18c3      	adds	r3, r0, r3
1000137c:	6010      	str	r0, [r2, #0]
1000137e:	428b      	cmp	r3, r1
10001380:	d3f7      	bcc.n	10001372 <_sbrk+0x12>
10001382:	2001      	movs	r0, #1
10001384:	4240      	negs	r0, r0
10001386:	e7f5      	b.n	10001374 <_sbrk+0x14>
10001388:	20000b00 	.word	0x20000b00
1000138c:	20040000 	.word	0x20040000
10001390:	20000d5c 	.word	0x20000d5c

10001394 <exit>:
10001394:	be00      	bkpt	0x0000
10001396:	e7fd      	b.n	10001394 <exit>

10001398 <panic>:
10001398:	b40f      	push	{r0, r1, r2, r3}
1000139a:	b500      	push	{lr}
1000139c:	4808      	ldr	r0, [pc, #32]	; (100013c0 <panic+0x28>)
1000139e:	b083      	sub	sp, #12
100013a0:	f002 ff7a 	bl	10004298 <__wrap_puts>
100013a4:	9b04      	ldr	r3, [sp, #16]
100013a6:	2b00      	cmp	r3, #0
100013a8:	d007      	beq.n	100013ba <panic+0x22>
100013aa:	a905      	add	r1, sp, #20
100013ac:	0018      	movs	r0, r3
100013ae:	9101      	str	r1, [sp, #4]
100013b0:	f001 fe78 	bl	100030a4 <weak_raw_vprintf>
100013b4:	4803      	ldr	r0, [pc, #12]	; (100013c4 <panic+0x2c>)
100013b6:	f002 ff6f 	bl	10004298 <__wrap_puts>
100013ba:	be00      	bkpt	0x0000
100013bc:	e7fd      	b.n	100013ba <panic+0x22>
100013be:	46c0      	nop			; (mov r8, r8)
100013c0:	10004ecc 	.word	0x10004ecc
100013c4:	10004edc 	.word	0x10004edc

100013c8 <hard_assertion_failure>:
100013c8:	b510      	push	{r4, lr}
100013ca:	4801      	ldr	r0, [pc, #4]	; (100013d0 <hard_assertion_failure+0x8>)
100013cc:	f7ff ffe4 	bl	10001398 <panic>
100013d0:	10004ee0 	.word	0x10004ee0

100013d4 <clocks_init>:
100013d4:	b530      	push	{r4, r5, lr}
100013d6:	200c      	movs	r0, #12
100013d8:	b083      	sub	sp, #12
100013da:	f000 f971 	bl	100016c0 <watchdog_start_tick>
100013de:	f7ff f8a9 	bl	10000534 <running_on_fpga>
100013e2:	2800      	cmp	r0, #0
100013e4:	d00e      	beq.n	10001404 <clocks_init+0x30>
100013e6:	4b9a      	ldr	r3, [pc, #616]	; (10001650 <clocks_init+0x27c>)
100013e8:	4a9a      	ldr	r2, [pc, #616]	; (10001654 <clocks_init+0x280>)
100013ea:	601a      	str	r2, [r3, #0]
100013ec:	605a      	str	r2, [r3, #4]
100013ee:	609a      	str	r2, [r3, #8]
100013f0:	60da      	str	r2, [r3, #12]
100013f2:	611a      	str	r2, [r3, #16]
100013f4:	615a      	str	r2, [r3, #20]
100013f6:	619a      	str	r2, [r3, #24]
100013f8:	61da      	str	r2, [r3, #28]
100013fa:	621a      	str	r2, [r3, #32]
100013fc:	4a96      	ldr	r2, [pc, #600]	; (10001658 <clocks_init+0x284>)
100013fe:	625a      	str	r2, [r3, #36]	; 0x24
10001400:	b003      	add	sp, #12
10001402:	bd30      	pop	{r4, r5, pc}
10001404:	4c95      	ldr	r4, [pc, #596]	; (1000165c <clocks_init+0x288>)
10001406:	67a0      	str	r0, [r4, #120]	; 0x78
10001408:	f000 f962 	bl	100016d0 <xosc_init>
1000140c:	2201      	movs	r2, #1
1000140e:	4b94      	ldr	r3, [pc, #592]	; (10001660 <clocks_init+0x28c>)
10001410:	601a      	str	r2, [r3, #0]
10001412:	6c63      	ldr	r3, [r4, #68]	; 0x44
10001414:	2b01      	cmp	r3, #1
10001416:	d1fc      	bne.n	10001412 <clocks_init+0x3e>
10001418:	2203      	movs	r2, #3
1000141a:	4b92      	ldr	r3, [pc, #584]	; (10001664 <clocks_init+0x290>)
1000141c:	601a      	str	r2, [r3, #0]
1000141e:	4a8f      	ldr	r2, [pc, #572]	; (1000165c <clocks_init+0x288>)
10001420:	6b93      	ldr	r3, [r2, #56]	; 0x38
10001422:	2b01      	cmp	r3, #1
10001424:	d1fc      	bne.n	10001420 <clocks_init+0x4c>
10001426:	22c0      	movs	r2, #192	; 0xc0
10001428:	4b8f      	ldr	r3, [pc, #572]	; (10001668 <clocks_init+0x294>)
1000142a:	0192      	lsls	r2, r2, #6
1000142c:	601a      	str	r2, [r3, #0]
1000142e:	4b8f      	ldr	r3, [pc, #572]	; (1000166c <clocks_init+0x298>)
10001430:	498f      	ldr	r1, [pc, #572]	; (10001670 <clocks_init+0x29c>)
10001432:	601a      	str	r2, [r3, #0]
10001434:	0010      	movs	r0, r2
10001436:	688b      	ldr	r3, [r1, #8]
10001438:	4398      	bics	r0, r3
1000143a:	1e03      	subs	r3, r0, #0
1000143c:	d1fa      	bne.n	10001434 <clocks_init+0x60>
1000143e:	2402      	movs	r4, #2
10001440:	2101      	movs	r1, #1
10001442:	4a8c      	ldr	r2, [pc, #560]	; (10001674 <clocks_init+0x2a0>)
10001444:	488c      	ldr	r0, [pc, #560]	; (10001678 <clocks_init+0x2a4>)
10001446:	3306      	adds	r3, #6
10001448:	9400      	str	r4, [sp, #0]
1000144a:	f000 f955 	bl	100016f8 <pll_init>
1000144e:	2305      	movs	r3, #5
10001450:	4a8a      	ldr	r2, [pc, #552]	; (1000167c <clocks_init+0x2a8>)
10001452:	2101      	movs	r1, #1
10001454:	488a      	ldr	r0, [pc, #552]	; (10001680 <clocks_init+0x2ac>)
10001456:	9400      	str	r4, [sp, #0]
10001458:	f000 f94e 	bl	100016f8 <pll_init>
1000145c:	4b89      	ldr	r3, [pc, #548]	; (10001684 <clocks_init+0x2b0>)
1000145e:	685a      	ldr	r2, [r3, #4]
10001460:	2aff      	cmp	r2, #255	; 0xff
10001462:	d802      	bhi.n	1000146a <clocks_init+0x96>
10001464:	2280      	movs	r2, #128	; 0x80
10001466:	0052      	lsls	r2, r2, #1
10001468:	605a      	str	r2, [r3, #4]
1000146a:	2280      	movs	r2, #128	; 0x80
1000146c:	4c78      	ldr	r4, [pc, #480]	; (10001650 <clocks_init+0x27c>)
1000146e:	4b7d      	ldr	r3, [pc, #500]	; (10001664 <clocks_init+0x290>)
10001470:	6921      	ldr	r1, [r4, #16]
10001472:	0112      	lsls	r2, r2, #4
10001474:	4d83      	ldr	r5, [pc, #524]	; (10001684 <clocks_init+0x2b0>)
10001476:	601a      	str	r2, [r3, #0]
10001478:	2900      	cmp	r1, #0
1000147a:	d005      	beq.n	10001488 <clocks_init+0xb4>
1000147c:	6960      	ldr	r0, [r4, #20]
1000147e:	f001 fe8b 	bl	10003198 <__wrap___aeabi_uidiv>
10001482:	3001      	adds	r0, #1
10001484:	3801      	subs	r0, #1
10001486:	d1fd      	bne.n	10001484 <clocks_init+0xb0>
10001488:	21e0      	movs	r1, #224	; 0xe0
1000148a:	4b7e      	ldr	r3, [pc, #504]	; (10001684 <clocks_init+0x2b0>)
1000148c:	2002      	movs	r0, #2
1000148e:	681a      	ldr	r2, [r3, #0]
10001490:	4011      	ands	r1, r2
10001492:	2280      	movs	r2, #128	; 0x80
10001494:	0152      	lsls	r2, r2, #5
10001496:	432a      	orrs	r2, r5
10001498:	6011      	str	r1, [r2, #0]
1000149a:	6819      	ldr	r1, [r3, #0]
1000149c:	4048      	eors	r0, r1
1000149e:	2103      	movs	r1, #3
100014a0:	4001      	ands	r1, r0
100014a2:	6011      	str	r1, [r2, #0]
100014a4:	2104      	movs	r1, #4
100014a6:	689a      	ldr	r2, [r3, #8]
100014a8:	4211      	tst	r1, r2
100014aa:	d0fc      	beq.n	100014a6 <clocks_init+0xd2>
100014ac:	2280      	movs	r2, #128	; 0x80
100014ae:	2180      	movs	r1, #128	; 0x80
100014b0:	0192      	lsls	r2, r2, #6
100014b2:	432a      	orrs	r2, r5
100014b4:	0109      	lsls	r1, r1, #4
100014b6:	6011      	str	r1, [r2, #0]
100014b8:	2280      	movs	r2, #128	; 0x80
100014ba:	0052      	lsls	r2, r2, #1
100014bc:	605a      	str	r2, [r3, #4]
100014be:	4b72      	ldr	r3, [pc, #456]	; (10001688 <clocks_init+0x2b4>)
100014c0:	6123      	str	r3, [r4, #16]
100014c2:	4b72      	ldr	r3, [pc, #456]	; (1000168c <clocks_init+0x2b8>)
100014c4:	6859      	ldr	r1, [r3, #4]
100014c6:	29ff      	cmp	r1, #255	; 0xff
100014c8:	d800      	bhi.n	100014cc <clocks_init+0xf8>
100014ca:	605a      	str	r2, [r3, #4]
100014cc:	2203      	movs	r2, #3
100014ce:	486f      	ldr	r0, [pc, #444]	; (1000168c <clocks_init+0x2b8>)
100014d0:	4b63      	ldr	r3, [pc, #396]	; (10001660 <clocks_init+0x28c>)
100014d2:	2101      	movs	r1, #1
100014d4:	601a      	str	r2, [r3, #0]
100014d6:	0002      	movs	r2, r0
100014d8:	6893      	ldr	r3, [r2, #8]
100014da:	4219      	tst	r1, r3
100014dc:	d0fc      	beq.n	100014d8 <clocks_init+0x104>
100014de:	25e0      	movs	r5, #224	; 0xe0
100014e0:	6813      	ldr	r3, [r2, #0]
100014e2:	401d      	ands	r5, r3
100014e4:	2380      	movs	r3, #128	; 0x80
100014e6:	015b      	lsls	r3, r3, #5
100014e8:	4303      	orrs	r3, r0
100014ea:	601d      	str	r5, [r3, #0]
100014ec:	6812      	ldr	r2, [r2, #0]
100014ee:	404a      	eors	r2, r1
100014f0:	2103      	movs	r1, #3
100014f2:	4011      	ands	r1, r2
100014f4:	6019      	str	r1, [r3, #0]
100014f6:	2102      	movs	r1, #2
100014f8:	4a64      	ldr	r2, [pc, #400]	; (1000168c <clocks_init+0x2b8>)
100014fa:	6893      	ldr	r3, [r2, #8]
100014fc:	4219      	tst	r1, r3
100014fe:	d0fc      	beq.n	100014fa <clocks_init+0x126>
10001500:	2380      	movs	r3, #128	; 0x80
10001502:	2180      	movs	r1, #128	; 0x80
10001504:	019b      	lsls	r3, r3, #6
10001506:	4303      	orrs	r3, r0
10001508:	0109      	lsls	r1, r1, #4
1000150a:	6019      	str	r1, [r3, #0]
1000150c:	2180      	movs	r1, #128	; 0x80
1000150e:	4b60      	ldr	r3, [pc, #384]	; (10001690 <clocks_init+0x2bc>)
10001510:	0049      	lsls	r1, r1, #1
10001512:	6051      	str	r1, [r2, #4]
10001514:	6163      	str	r3, [r4, #20]
10001516:	4b5f      	ldr	r3, [pc, #380]	; (10001694 <clocks_init+0x2c0>)
10001518:	685a      	ldr	r2, [r3, #4]
1000151a:	2aff      	cmp	r2, #255	; 0xff
1000151c:	d800      	bhi.n	10001520 <clocks_init+0x14c>
1000151e:	6059      	str	r1, [r3, #4]
10001520:	2280      	movs	r2, #128	; 0x80
10001522:	4b5d      	ldr	r3, [pc, #372]	; (10001698 <clocks_init+0x2c4>)
10001524:	69e1      	ldr	r1, [r4, #28]
10001526:	0112      	lsls	r2, r2, #4
10001528:	4d5a      	ldr	r5, [pc, #360]	; (10001694 <clocks_init+0x2c0>)
1000152a:	601a      	str	r2, [r3, #0]
1000152c:	2900      	cmp	r1, #0
1000152e:	d005      	beq.n	1000153c <clocks_init+0x168>
10001530:	6960      	ldr	r0, [r4, #20]
10001532:	f001 fe31 	bl	10003198 <__wrap___aeabi_uidiv>
10001536:	3001      	adds	r0, #1
10001538:	3801      	subs	r0, #1
1000153a:	d1fd      	bne.n	10001538 <clocks_init+0x164>
1000153c:	22e0      	movs	r2, #224	; 0xe0
1000153e:	4955      	ldr	r1, [pc, #340]	; (10001694 <clocks_init+0x2c0>)
10001540:	680b      	ldr	r3, [r1, #0]
10001542:	401a      	ands	r2, r3
10001544:	2380      	movs	r3, #128	; 0x80
10001546:	015b      	lsls	r3, r3, #5
10001548:	432b      	orrs	r3, r5
1000154a:	601a      	str	r2, [r3, #0]
1000154c:	2380      	movs	r3, #128	; 0x80
1000154e:	2280      	movs	r2, #128	; 0x80
10001550:	019b      	lsls	r3, r3, #6
10001552:	432b      	orrs	r3, r5
10001554:	0112      	lsls	r2, r2, #4
10001556:	601a      	str	r2, [r3, #0]
10001558:	2280      	movs	r2, #128	; 0x80
1000155a:	4b3e      	ldr	r3, [pc, #248]	; (10001654 <clocks_init+0x280>)
1000155c:	0052      	lsls	r2, r2, #1
1000155e:	604a      	str	r2, [r1, #4]
10001560:	61e3      	str	r3, [r4, #28]
10001562:	4b4e      	ldr	r3, [pc, #312]	; (1000169c <clocks_init+0x2c8>)
10001564:	6859      	ldr	r1, [r3, #4]
10001566:	29ff      	cmp	r1, #255	; 0xff
10001568:	d800      	bhi.n	1000156c <clocks_init+0x198>
1000156a:	605a      	str	r2, [r3, #4]
1000156c:	2280      	movs	r2, #128	; 0x80
1000156e:	4b4c      	ldr	r3, [pc, #304]	; (100016a0 <clocks_init+0x2cc>)
10001570:	6a21      	ldr	r1, [r4, #32]
10001572:	0112      	lsls	r2, r2, #4
10001574:	4d49      	ldr	r5, [pc, #292]	; (1000169c <clocks_init+0x2c8>)
10001576:	601a      	str	r2, [r3, #0]
10001578:	2900      	cmp	r1, #0
1000157a:	d005      	beq.n	10001588 <clocks_init+0x1b4>
1000157c:	6960      	ldr	r0, [r4, #20]
1000157e:	f001 fe0b 	bl	10003198 <__wrap___aeabi_uidiv>
10001582:	3001      	adds	r0, #1
10001584:	3801      	subs	r0, #1
10001586:	d1fd      	bne.n	10001584 <clocks_init+0x1b0>
10001588:	22e0      	movs	r2, #224	; 0xe0
1000158a:	4944      	ldr	r1, [pc, #272]	; (1000169c <clocks_init+0x2c8>)
1000158c:	680b      	ldr	r3, [r1, #0]
1000158e:	401a      	ands	r2, r3
10001590:	2380      	movs	r3, #128	; 0x80
10001592:	015b      	lsls	r3, r3, #5
10001594:	432b      	orrs	r3, r5
10001596:	601a      	str	r2, [r3, #0]
10001598:	2380      	movs	r3, #128	; 0x80
1000159a:	2280      	movs	r2, #128	; 0x80
1000159c:	019b      	lsls	r3, r3, #6
1000159e:	432b      	orrs	r3, r5
100015a0:	0112      	lsls	r2, r2, #4
100015a2:	601a      	str	r2, [r3, #0]
100015a4:	2380      	movs	r3, #128	; 0x80
100015a6:	2280      	movs	r2, #128	; 0x80
100015a8:	005b      	lsls	r3, r3, #1
100015aa:	604b      	str	r3, [r1, #4]
100015ac:	4b29      	ldr	r3, [pc, #164]	; (10001654 <clocks_init+0x280>)
100015ae:	02d2      	lsls	r2, r2, #11
100015b0:	6223      	str	r3, [r4, #32]
100015b2:	4b3c      	ldr	r3, [pc, #240]	; (100016a4 <clocks_init+0x2d0>)
100015b4:	6859      	ldr	r1, [r3, #4]
100015b6:	4291      	cmp	r1, r2
100015b8:	d200      	bcs.n	100015bc <clocks_init+0x1e8>
100015ba:	605a      	str	r2, [r3, #4]
100015bc:	2280      	movs	r2, #128	; 0x80
100015be:	4b3a      	ldr	r3, [pc, #232]	; (100016a8 <clocks_init+0x2d4>)
100015c0:	6a61      	ldr	r1, [r4, #36]	; 0x24
100015c2:	0112      	lsls	r2, r2, #4
100015c4:	4d37      	ldr	r5, [pc, #220]	; (100016a4 <clocks_init+0x2d0>)
100015c6:	601a      	str	r2, [r3, #0]
100015c8:	2900      	cmp	r1, #0
100015ca:	d005      	beq.n	100015d8 <clocks_init+0x204>
100015cc:	6960      	ldr	r0, [r4, #20]
100015ce:	f001 fde3 	bl	10003198 <__wrap___aeabi_uidiv>
100015d2:	3001      	adds	r0, #1
100015d4:	3801      	subs	r0, #1
100015d6:	d1fd      	bne.n	100015d4 <clocks_init+0x200>
100015d8:	22e0      	movs	r2, #224	; 0xe0
100015da:	4932      	ldr	r1, [pc, #200]	; (100016a4 <clocks_init+0x2d0>)
100015dc:	680b      	ldr	r3, [r1, #0]
100015de:	401a      	ands	r2, r3
100015e0:	2380      	movs	r3, #128	; 0x80
100015e2:	015b      	lsls	r3, r3, #5
100015e4:	432b      	orrs	r3, r5
100015e6:	601a      	str	r2, [r3, #0]
100015e8:	2380      	movs	r3, #128	; 0x80
100015ea:	2280      	movs	r2, #128	; 0x80
100015ec:	019b      	lsls	r3, r3, #6
100015ee:	432b      	orrs	r3, r5
100015f0:	0112      	lsls	r2, r2, #4
100015f2:	601a      	str	r2, [r3, #0]
100015f4:	2380      	movs	r3, #128	; 0x80
100015f6:	02db      	lsls	r3, r3, #11
100015f8:	604b      	str	r3, [r1, #4]
100015fa:	4b17      	ldr	r3, [pc, #92]	; (10001658 <clocks_init+0x284>)
100015fc:	6263      	str	r3, [r4, #36]	; 0x24
100015fe:	4b2b      	ldr	r3, [pc, #172]	; (100016ac <clocks_init+0x2d8>)
10001600:	685a      	ldr	r2, [r3, #4]
10001602:	2aff      	cmp	r2, #255	; 0xff
10001604:	d802      	bhi.n	1000160c <clocks_init+0x238>
10001606:	2280      	movs	r2, #128	; 0x80
10001608:	0052      	lsls	r2, r2, #1
1000160a:	605a      	str	r2, [r3, #4]
1000160c:	2280      	movs	r2, #128	; 0x80
1000160e:	4b28      	ldr	r3, [pc, #160]	; (100016b0 <clocks_init+0x2dc>)
10001610:	69a1      	ldr	r1, [r4, #24]
10001612:	0112      	lsls	r2, r2, #4
10001614:	4d25      	ldr	r5, [pc, #148]	; (100016ac <clocks_init+0x2d8>)
10001616:	601a      	str	r2, [r3, #0]
10001618:	2900      	cmp	r1, #0
1000161a:	d005      	beq.n	10001628 <clocks_init+0x254>
1000161c:	6960      	ldr	r0, [r4, #20]
1000161e:	f001 fdbb 	bl	10003198 <__wrap___aeabi_uidiv>
10001622:	3001      	adds	r0, #1
10001624:	3801      	subs	r0, #1
10001626:	d1fd      	bne.n	10001624 <clocks_init+0x250>
10001628:	22e0      	movs	r2, #224	; 0xe0
1000162a:	4920      	ldr	r1, [pc, #128]	; (100016ac <clocks_init+0x2d8>)
1000162c:	680b      	ldr	r3, [r1, #0]
1000162e:	401a      	ands	r2, r3
10001630:	2380      	movs	r3, #128	; 0x80
10001632:	015b      	lsls	r3, r3, #5
10001634:	432b      	orrs	r3, r5
10001636:	601a      	str	r2, [r3, #0]
10001638:	2380      	movs	r3, #128	; 0x80
1000163a:	2280      	movs	r2, #128	; 0x80
1000163c:	019b      	lsls	r3, r3, #6
1000163e:	432b      	orrs	r3, r5
10001640:	0112      	lsls	r2, r2, #4
10001642:	601a      	str	r2, [r3, #0]
10001644:	2380      	movs	r3, #128	; 0x80
10001646:	005b      	lsls	r3, r3, #1
10001648:	604b      	str	r3, [r1, #4]
1000164a:	4b11      	ldr	r3, [pc, #68]	; (10001690 <clocks_init+0x2bc>)
1000164c:	61a3      	str	r3, [r4, #24]
1000164e:	e6d7      	b.n	10001400 <clocks_init+0x2c>
10001650:	20000acc 	.word	0x20000acc
10001654:	02dc6c00 	.word	0x02dc6c00
10001658:	0000b71b 	.word	0x0000b71b
1000165c:	40008000 	.word	0x40008000
10001660:	4000b03c 	.word	0x4000b03c
10001664:	4000b030 	.word	0x4000b030
10001668:	4000e000 	.word	0x4000e000
1000166c:	4000f000 	.word	0x4000f000
10001670:	4000c000 	.word	0x4000c000
10001674:	59682f00 	.word	0x59682f00
10001678:	40028000 	.word	0x40028000
1000167c:	1c9c3800 	.word	0x1c9c3800
10001680:	4002c000 	.word	0x4002c000
10001684:	40008030 	.word	0x40008030
10001688:	00b71b00 	.word	0x00b71b00
1000168c:	4000803c 	.word	0x4000803c
10001690:	07735940 	.word	0x07735940
10001694:	40008054 	.word	0x40008054
10001698:	4000b054 	.word	0x4000b054
1000169c:	40008060 	.word	0x40008060
100016a0:	4000b060 	.word	0x4000b060
100016a4:	4000806c 	.word	0x4000806c
100016a8:	4000b06c 	.word	0x4000b06c
100016ac:	40008048 	.word	0x40008048
100016b0:	4000b048 	.word	0x4000b048

100016b4 <clock_get_hz>:
100016b4:	4b01      	ldr	r3, [pc, #4]	; (100016bc <clock_get_hz+0x8>)
100016b6:	0080      	lsls	r0, r0, #2
100016b8:	58c0      	ldr	r0, [r0, r3]
100016ba:	4770      	bx	lr
100016bc:	20000acc 	.word	0x20000acc

100016c0 <watchdog_start_tick>:
100016c0:	2380      	movs	r3, #128	; 0x80
100016c2:	4a02      	ldr	r2, [pc, #8]	; (100016cc <watchdog_start_tick+0xc>)
100016c4:	009b      	lsls	r3, r3, #2
100016c6:	4303      	orrs	r3, r0
100016c8:	62d3      	str	r3, [r2, #44]	; 0x2c
100016ca:	4770      	bx	lr
100016cc:	40058000 	.word	0x40058000

100016d0 <xosc_init>:
100016d0:	23aa      	movs	r3, #170	; 0xaa
100016d2:	4a06      	ldr	r2, [pc, #24]	; (100016ec <xosc_init+0x1c>)
100016d4:	011b      	lsls	r3, r3, #4
100016d6:	6013      	str	r3, [r2, #0]
100016d8:	232f      	movs	r3, #47	; 0x2f
100016da:	4905      	ldr	r1, [pc, #20]	; (100016f0 <xosc_init+0x20>)
100016dc:	60d3      	str	r3, [r2, #12]
100016de:	4b05      	ldr	r3, [pc, #20]	; (100016f4 <xosc_init+0x24>)
100016e0:	6019      	str	r1, [r3, #0]
100016e2:	6853      	ldr	r3, [r2, #4]
100016e4:	2b00      	cmp	r3, #0
100016e6:	dafc      	bge.n	100016e2 <xosc_init+0x12>
100016e8:	4770      	bx	lr
100016ea:	46c0      	nop			; (mov r8, r8)
100016ec:	40024000 	.word	0x40024000
100016f0:	00fab000 	.word	0x00fab000
100016f4:	40026000 	.word	0x40026000

100016f8 <pll_init>:
100016f8:	b5f8      	push	{r3, r4, r5, r6, r7, lr}
100016fa:	001d      	movs	r5, r3
100016fc:	ab06      	add	r3, sp, #24
100016fe:	781e      	ldrb	r6, [r3, #0]
10001700:	2301      	movs	r3, #1
10001702:	425b      	negs	r3, r3
10001704:	6043      	str	r3, [r0, #4]
10001706:	2300      	movs	r3, #0
10001708:	0004      	movs	r4, r0
1000170a:	6083      	str	r3, [r0, #8]
1000170c:	6001      	str	r1, [r0, #0]
1000170e:	200c      	movs	r0, #12
10001710:	0017      	movs	r7, r2
10001712:	f001 fd41 	bl	10003198 <__wrap___aeabi_uidiv>
10001716:	0141      	lsls	r1, r0, #5
10001718:	1a09      	subs	r1, r1, r0
1000171a:	018b      	lsls	r3, r1, #6
1000171c:	1a59      	subs	r1, r3, r1
1000171e:	00c9      	lsls	r1, r1, #3
10001720:	1809      	adds	r1, r1, r0
10001722:	0189      	lsls	r1, r1, #6
10001724:	0038      	movs	r0, r7
10001726:	f001 fd37 	bl	10003198 <__wrap___aeabi_uidiv>
1000172a:	21c0      	movs	r1, #192	; 0xc0
1000172c:	1d23      	adds	r3, r4, #4
1000172e:	0189      	lsls	r1, r1, #6
10001730:	4319      	orrs	r1, r3
10001732:	2321      	movs	r3, #33	; 0x21
10001734:	60a0      	str	r0, [r4, #8]
10001736:	600b      	str	r3, [r1, #0]
10001738:	6822      	ldr	r2, [r4, #0]
1000173a:	2a00      	cmp	r2, #0
1000173c:	dafc      	bge.n	10001738 <pll_init+0x40>
1000173e:	2308      	movs	r3, #8
10001740:	042d      	lsls	r5, r5, #16
10001742:	0336      	lsls	r6, r6, #12
10001744:	432e      	orrs	r6, r5
10001746:	60e6      	str	r6, [r4, #12]
10001748:	600b      	str	r3, [r1, #0]
1000174a:	bdf8      	pop	{r3, r4, r5, r6, r7, pc}

1000174c <irq_set_enabled>:
1000174c:	2301      	movs	r3, #1
1000174e:	4083      	lsls	r3, r0
10001750:	2900      	cmp	r1, #0
10001752:	d004      	beq.n	1000175e <irq_set_enabled+0x12>
10001754:	4a03      	ldr	r2, [pc, #12]	; (10001764 <irq_set_enabled+0x18>)
10001756:	6013      	str	r3, [r2, #0]
10001758:	4a03      	ldr	r2, [pc, #12]	; (10001768 <irq_set_enabled+0x1c>)
1000175a:	6013      	str	r3, [r2, #0]
1000175c:	4770      	bx	lr
1000175e:	4a03      	ldr	r2, [pc, #12]	; (1000176c <irq_set_enabled+0x20>)
10001760:	6013      	str	r3, [r2, #0]
10001762:	e7fb      	b.n	1000175c <irq_set_enabled+0x10>
10001764:	e000e280 	.word	0xe000e280
10001768:	e000e100 	.word	0xe000e100
1000176c:	e000e180 	.word	0xe000e180

10001770 <irq_get_vtable_handler>:
10001770:	4b02      	ldr	r3, [pc, #8]	; (1000177c <irq_get_vtable_handler+0xc>)
10001772:	3010      	adds	r0, #16
10001774:	689b      	ldr	r3, [r3, #8]
10001776:	0080      	lsls	r0, r0, #2
10001778:	58c0      	ldr	r0, [r0, r3]
1000177a:	4770      	bx	lr
1000177c:	e000ed00 	.word	0xe000ed00

10001780 <irq_set_exclusive_handler>:
10001780:	b570      	push	{r4, r5, r6, lr}
10001782:	000d      	movs	r5, r1
10001784:	f3ef 8610 	mrs	r6, PRIMASK
10001788:	b672      	cpsid	i
1000178a:	4a0f      	ldr	r2, [pc, #60]	; (100017c8 <irq_set_exclusive_handler+0x48>)
1000178c:	6813      	ldr	r3, [r2, #0]
1000178e:	2b00      	cmp	r3, #0
10001790:	d0fc      	beq.n	1000178c <irq_set_exclusive_handler+0xc>
10001792:	f3bf 8f5f 	dmb	sy
10001796:	4b0d      	ldr	r3, [pc, #52]	; (100017cc <irq_set_exclusive_handler+0x4c>)
10001798:	3010      	adds	r0, #16
1000179a:	689b      	ldr	r3, [r3, #8]
1000179c:	0084      	lsls	r4, r0, #2
1000179e:	591b      	ldr	r3, [r3, r4]
100017a0:	4a0b      	ldr	r2, [pc, #44]	; (100017d0 <irq_set_exclusive_handler+0x50>)
100017a2:	4293      	cmp	r3, r2
100017a4:	d003      	beq.n	100017ae <irq_set_exclusive_handler+0x2e>
100017a6:	429d      	cmp	r5, r3
100017a8:	d001      	beq.n	100017ae <irq_set_exclusive_handler+0x2e>
100017aa:	f7ff fe0d 	bl	100013c8 <hard_assertion_failure>
100017ae:	4b07      	ldr	r3, [pc, #28]	; (100017cc <irq_set_exclusive_handler+0x4c>)
100017b0:	689b      	ldr	r3, [r3, #8]
100017b2:	511d      	str	r5, [r3, r4]
100017b4:	f3bf 8f5f 	dmb	sy
100017b8:	f3bf 8f5f 	dmb	sy
100017bc:	2200      	movs	r2, #0
100017be:	4b02      	ldr	r3, [pc, #8]	; (100017c8 <irq_set_exclusive_handler+0x48>)
100017c0:	601a      	str	r2, [r3, #0]
100017c2:	f386 8810 	msr	PRIMASK, r6
100017c6:	bd70      	pop	{r4, r5, r6, pc}
100017c8:	d0000124 	.word	0xd0000124
100017cc:	e000ed00 	.word	0xe000ed00
100017d0:	100002cd 	.word	0x100002cd

100017d4 <irq_remove_handler>:
100017d4:	b5f0      	push	{r4, r5, r6, r7, lr}
100017d6:	46de      	mov	lr, fp
100017d8:	4657      	mov	r7, sl
100017da:	464e      	mov	r6, r9
100017dc:	4645      	mov	r5, r8
100017de:	b5e0      	push	{r5, r6, r7, lr}
100017e0:	000c      	movs	r4, r1
100017e2:	b083      	sub	sp, #12
100017e4:	f3ef 8a10 	mrs	sl, PRIMASK
100017e8:	b672      	cpsid	i
100017ea:	4a5f      	ldr	r2, [pc, #380]	; (10001968 <irq_remove_handler+0x194>)
100017ec:	6813      	ldr	r3, [r2, #0]
100017ee:	2b00      	cmp	r3, #0
100017f0:	d0fc      	beq.n	100017ec <irq_remove_handler+0x18>
100017f2:	f3bf 8f5f 	dmb	sy
100017f6:	2210      	movs	r2, #16
100017f8:	4691      	mov	r9, r2
100017fa:	4481      	add	r9, r0
100017fc:	464a      	mov	r2, r9
100017fe:	4b5b      	ldr	r3, [pc, #364]	; (1000196c <irq_remove_handler+0x198>)
10001800:	0096      	lsls	r6, r2, #2
10001802:	689b      	ldr	r3, [r3, #8]
10001804:	599d      	ldr	r5, [r3, r6]
10001806:	4b5a      	ldr	r3, [pc, #360]	; (10001970 <irq_remove_handler+0x19c>)
10001808:	4698      	mov	r8, r3
1000180a:	429d      	cmp	r5, r3
1000180c:	d005      	beq.n	1000181a <irq_remove_handler+0x46>
1000180e:	42a5      	cmp	r5, r4
10001810:	d016      	beq.n	10001840 <irq_remove_handler+0x6c>
10001812:	4f58      	ldr	r7, [pc, #352]	; (10001974 <irq_remove_handler+0x1a0>)
10001814:	1beb      	subs	r3, r5, r7
10001816:	2b2f      	cmp	r3, #47	; 0x2f
10001818:	d914      	bls.n	10001844 <irq_remove_handler+0x70>
1000181a:	4b54      	ldr	r3, [pc, #336]	; (1000196c <irq_remove_handler+0x198>)
1000181c:	689b      	ldr	r3, [r3, #8]
1000181e:	519d      	str	r5, [r3, r6]
10001820:	f3bf 8f5f 	dmb	sy
10001824:	f3bf 8f5f 	dmb	sy
10001828:	2200      	movs	r2, #0
1000182a:	4b4f      	ldr	r3, [pc, #316]	; (10001968 <irq_remove_handler+0x194>)
1000182c:	601a      	str	r2, [r3, #0]
1000182e:	f38a 8810 	msr	PRIMASK, sl
10001832:	b003      	add	sp, #12
10001834:	bc3c      	pop	{r2, r3, r4, r5}
10001836:	4690      	mov	r8, r2
10001838:	4699      	mov	r9, r3
1000183a:	46a2      	mov	sl, r4
1000183c:	46ab      	mov	fp, r5
1000183e:	bdf0      	pop	{r4, r5, r6, r7, pc}
10001840:	001d      	movs	r5, r3
10001842:	e7ea      	b.n	1000181a <irq_remove_handler+0x46>
10001844:	2301      	movs	r3, #1
10001846:	4083      	lsls	r3, r0
10001848:	469b      	mov	fp, r3
1000184a:	465a      	mov	r2, fp
1000184c:	4b4a      	ldr	r3, [pc, #296]	; (10001978 <irq_remove_handler+0x1a4>)
1000184e:	681b      	ldr	r3, [r3, #0]
10001850:	401a      	ands	r2, r3
10001852:	9200      	str	r2, [sp, #0]
10001854:	465a      	mov	r2, fp
10001856:	4b49      	ldr	r3, [pc, #292]	; (1000197c <irq_remove_handler+0x1a8>)
10001858:	601a      	str	r2, [r3, #0]
1000185a:	f3bf 8f5f 	dmb	sy
1000185e:	f7fe fc9a 	bl	10000196 <__get_current_exception>
10001862:	9001      	str	r0, [sp, #4]
10001864:	2800      	cmp	r0, #0
10001866:	d003      	beq.n	10001870 <irq_remove_handler+0x9c>
10001868:	4581      	cmp	r9, r0
1000186a:	d001      	beq.n	10001870 <irq_remove_handler+0x9c>
1000186c:	f7ff fdac 	bl	100013c8 <hard_assertion_failure>
10001870:	2301      	movs	r3, #1
10001872:	0029      	movs	r1, r5
10001874:	4399      	bics	r1, r3
10001876:	688b      	ldr	r3, [r1, #8]
10001878:	42a3      	cmp	r3, r4
1000187a:	d069      	beq.n	10001950 <irq_remove_handler+0x17c>
1000187c:	000a      	movs	r2, r1
1000187e:	e007      	b.n	10001890 <irq_remove_handler+0xbc>
10001880:	0043      	lsls	r3, r0, #1
10001882:	181b      	adds	r3, r3, r0
10001884:	009b      	lsls	r3, r3, #2
10001886:	18fb      	adds	r3, r7, r3
10001888:	6898      	ldr	r0, [r3, #8]
1000188a:	42a0      	cmp	r0, r4
1000188c:	d011      	beq.n	100018b2 <irq_remove_handler+0xde>
1000188e:	001a      	movs	r2, r3
10001890:	2006      	movs	r0, #6
10001892:	5610      	ldrsb	r0, [r2, r0]
10001894:	2800      	cmp	r0, #0
10001896:	daf3      	bge.n	10001880 <irq_remove_handler+0xac>
10001898:	9b00      	ldr	r3, [sp, #0]
1000189a:	2b00      	cmp	r3, #0
1000189c:	d005      	beq.n	100018aa <irq_remove_handler+0xd6>
1000189e:	465a      	mov	r2, fp
100018a0:	4b37      	ldr	r3, [pc, #220]	; (10001980 <irq_remove_handler+0x1ac>)
100018a2:	601a      	str	r2, [r3, #0]
100018a4:	4b34      	ldr	r3, [pc, #208]	; (10001978 <irq_remove_handler+0x1a4>)
100018a6:	601a      	str	r2, [r3, #0]
100018a8:	e7b7      	b.n	1000181a <irq_remove_handler+0x46>
100018aa:	465a      	mov	r2, fp
100018ac:	4b33      	ldr	r3, [pc, #204]	; (1000197c <irq_remove_handler+0x1a8>)
100018ae:	601a      	str	r2, [r3, #0]
100018b0:	e7b3      	b.n	1000181a <irq_remove_handler+0x46>
100018b2:	2006      	movs	r0, #6
100018b4:	5618      	ldrsb	r0, [r3, r0]
100018b6:	2800      	cmp	r0, #0
100018b8:	db22      	blt.n	10001900 <irq_remove_handler+0x12c>
100018ba:	0042      	lsls	r2, r0, #1
100018bc:	1811      	adds	r1, r2, r0
100018be:	0089      	lsls	r1, r1, #2
100018c0:	187c      	adds	r4, r7, r1
100018c2:	4688      	mov	r8, r1
100018c4:	68a1      	ldr	r1, [r4, #8]
100018c6:	6099      	str	r1, [r3, #8]
100018c8:	79e1      	ldrb	r1, [r4, #7]
100018ca:	71d9      	strb	r1, [r3, #7]
100018cc:	2106      	movs	r1, #6
100018ce:	5661      	ldrsb	r1, [r4, r1]
100018d0:	7199      	strb	r1, [r3, #6]
100018d2:	79a1      	ldrb	r1, [r4, #6]
100018d4:	297f      	cmp	r1, #127	; 0x7f
100018d6:	d82b      	bhi.n	10001930 <irq_remove_handler+0x15c>
100018d8:	88a4      	ldrh	r4, [r4, #4]
100018da:	1af9      	subs	r1, r7, r3
100018dc:	0564      	lsls	r4, r4, #21
100018de:	1524      	asrs	r4, r4, #20
100018e0:	4444      	add	r4, r8
100018e2:	1909      	adds	r1, r1, r4
100018e4:	24e0      	movs	r4, #224	; 0xe0
100018e6:	0509      	lsls	r1, r1, #20
100018e8:	0d49      	lsrs	r1, r1, #21
100018ea:	0224      	lsls	r4, r4, #8
100018ec:	4321      	orrs	r1, r4
100018ee:	8099      	strh	r1, [r3, #4]
100018f0:	1812      	adds	r2, r2, r0
100018f2:	4b24      	ldr	r3, [pc, #144]	; (10001984 <irq_remove_handler+0x1b0>)
100018f4:	0092      	lsls	r2, r2, #2
100018f6:	18bf      	adds	r7, r7, r2
100018f8:	781a      	ldrb	r2, [r3, #0]
100018fa:	7018      	strb	r0, [r3, #0]
100018fc:	71ba      	strb	r2, [r7, #6]
100018fe:	e7cb      	b.n	10001898 <irq_remove_handler+0xc4>
10001900:	9801      	ldr	r0, [sp, #4]
10001902:	2800      	cmp	r0, #0
10001904:	d117      	bne.n	10001936 <irq_remove_handler+0x162>
10001906:	30ff      	adds	r0, #255	; 0xff
10001908:	7190      	strb	r0, [r2, #6]
1000190a:	481f      	ldr	r0, [pc, #124]	; (10001988 <irq_remove_handler+0x1b4>)
1000190c:	8090      	strh	r0, [r2, #4]
1000190e:	4a1d      	ldr	r2, [pc, #116]	; (10001984 <irq_remove_handler+0x1b0>)
10001910:	1bcf      	subs	r7, r1, r7
10001912:	7810      	ldrb	r0, [r2, #0]
10001914:	10bf      	asrs	r7, r7, #2
10001916:	7198      	strb	r0, [r3, #6]
10001918:	00bb      	lsls	r3, r7, #2
1000191a:	19db      	adds	r3, r3, r7
1000191c:	0119      	lsls	r1, r3, #4
1000191e:	185b      	adds	r3, r3, r1
10001920:	0219      	lsls	r1, r3, #8
10001922:	185b      	adds	r3, r3, r1
10001924:	0419      	lsls	r1, r3, #16
10001926:	185b      	adds	r3, r3, r1
10001928:	005b      	lsls	r3, r3, #1
1000192a:	19db      	adds	r3, r3, r7
1000192c:	7013      	strb	r3, [r2, #0]
1000192e:	e7b3      	b.n	10001898 <irq_remove_handler+0xc4>
10001930:	21bd      	movs	r1, #189	; 0xbd
10001932:	0209      	lsls	r1, r1, #8
10001934:	e7db      	b.n	100018ee <irq_remove_handler+0x11a>
10001936:	4a15      	ldr	r2, [pc, #84]	; (1000198c <irq_remove_handler+0x1b8>)
10001938:	4915      	ldr	r1, [pc, #84]	; (10001990 <irq_remove_handler+0x1bc>)
1000193a:	1ad2      	subs	r2, r2, r3
1000193c:	3a08      	subs	r2, #8
1000193e:	0250      	lsls	r0, r2, #9
10001940:	0d40      	lsrs	r0, r0, #21
10001942:	4301      	orrs	r1, r0
10001944:	8099      	strh	r1, [r3, #4]
10001946:	4913      	ldr	r1, [pc, #76]	; (10001994 <irq_remove_handler+0x1c0>)
10001948:	0852      	lsrs	r2, r2, #1
1000194a:	430a      	orrs	r2, r1
1000194c:	80da      	strh	r2, [r3, #6]
1000194e:	e7a3      	b.n	10001898 <irq_remove_handler+0xc4>
10001950:	2006      	movs	r0, #6
10001952:	5608      	ldrsb	r0, [r1, r0]
10001954:	000b      	movs	r3, r1
10001956:	2800      	cmp	r0, #0
10001958:	daaf      	bge.n	100018ba <irq_remove_handler+0xe6>
1000195a:	9a01      	ldr	r2, [sp, #4]
1000195c:	2a00      	cmp	r2, #0
1000195e:	d1ea      	bne.n	10001936 <irq_remove_handler+0x162>
10001960:	000b      	movs	r3, r1
10001962:	4645      	mov	r5, r8
10001964:	e7d3      	b.n	1000190e <irq_remove_handler+0x13a>
10001966:	46c0      	nop			; (mov r8, r8)
10001968:	d0000124 	.word	0xd0000124
1000196c:	e000ed00 	.word	0xe000ed00
10001970:	100002cd 	.word	0x100002cd
10001974:	2000018c 	.word	0x2000018c
10001978:	e000e100 	.word	0xe000e100
1000197c:	e000e180 	.word	0xe000e180
10001980:	e000e280 	.word	0xe000e280
10001984:	20000b29 	.word	0x20000b29
10001988:	ffffbd00 	.word	0xffffbd00
1000198c:	200001c6 	.word	0x200001c6
10001990:	fffff000 	.word	0xfffff000
10001994:	fffff800 	.word	0xfffff800

10001998 <irq_add_tail_to_free_list>:
10001998:	b5f8      	push	{r3, r4, r5, r6, r7, lr}
1000199a:	2501      	movs	r5, #1
1000199c:	0004      	movs	r4, r0
1000199e:	4305      	orrs	r5, r0
100019a0:	f7fe fbf9 	bl	10000196 <__get_current_exception>
100019a4:	f3ef 8610 	mrs	r6, PRIMASK
100019a8:	b672      	cpsid	i
100019aa:	4a24      	ldr	r2, [pc, #144]	; (10001a3c <irq_add_tail_to_free_list+0xa4>)
100019ac:	6813      	ldr	r3, [r2, #0]
100019ae:	2b00      	cmp	r3, #0
100019b0:	d0fc      	beq.n	100019ac <irq_add_tail_to_free_list+0x14>
100019b2:	f3bf 8f5f 	dmb	sy
100019b6:	4f22      	ldr	r7, [pc, #136]	; (10001a40 <irq_add_tail_to_free_list+0xa8>)
100019b8:	0080      	lsls	r0, r0, #2
100019ba:	1be1      	subs	r1, r4, r7
100019bc:	1089      	asrs	r1, r1, #2
100019be:	008a      	lsls	r2, r1, #2
100019c0:	1852      	adds	r2, r2, r1
100019c2:	0113      	lsls	r3, r2, #4
100019c4:	18d2      	adds	r2, r2, r3
100019c6:	0213      	lsls	r3, r2, #8
100019c8:	18d2      	adds	r2, r2, r3
100019ca:	0413      	lsls	r3, r2, #16
100019cc:	18d3      	adds	r3, r2, r3
100019ce:	4a1d      	ldr	r2, [pc, #116]	; (10001a44 <irq_add_tail_to_free_list+0xac>)
100019d0:	005b      	lsls	r3, r3, #1
100019d2:	185b      	adds	r3, r3, r1
100019d4:	6891      	ldr	r1, [r2, #8]
100019d6:	5809      	ldr	r1, [r1, r0]
100019d8:	42a9      	cmp	r1, r5
100019da:	d01c      	beq.n	10001a16 <irq_add_tail_to_free_list+0x7e>
100019dc:	2206      	movs	r2, #6
100019de:	56ba      	ldrsb	r2, [r7, r2]
100019e0:	4293      	cmp	r3, r2
100019e2:	d01c      	beq.n	10001a1e <irq_add_tail_to_free_list+0x86>
100019e4:	2212      	movs	r2, #18
100019e6:	56ba      	ldrsb	r2, [r7, r2]
100019e8:	4293      	cmp	r3, r2
100019ea:	d022      	beq.n	10001a32 <irq_add_tail_to_free_list+0x9a>
100019ec:	221e      	movs	r2, #30
100019ee:	56ba      	ldrsb	r2, [r7, r2]
100019f0:	4293      	cmp	r3, r2
100019f2:	d020      	beq.n	10001a36 <irq_add_tail_to_free_list+0x9e>
100019f4:	222a      	movs	r2, #42	; 0x2a
100019f6:	56ba      	ldrsb	r2, [r7, r2]
100019f8:	2103      	movs	r1, #3
100019fa:	429a      	cmp	r2, r3
100019fc:	d010      	beq.n	10001a20 <irq_add_tail_to_free_list+0x88>
100019fe:	4a12      	ldr	r2, [pc, #72]	; (10001a48 <irq_add_tail_to_free_list+0xb0>)
10001a00:	7811      	ldrb	r1, [r2, #0]
10001a02:	7013      	strb	r3, [r2, #0]
10001a04:	71a1      	strb	r1, [r4, #6]
10001a06:	f3bf 8f5f 	dmb	sy
10001a0a:	2200      	movs	r2, #0
10001a0c:	4b0b      	ldr	r3, [pc, #44]	; (10001a3c <irq_add_tail_to_free_list+0xa4>)
10001a0e:	601a      	str	r2, [r3, #0]
10001a10:	f386 8810 	msr	PRIMASK, r6
10001a14:	bdf8      	pop	{r3, r4, r5, r6, r7, pc}
10001a16:	6892      	ldr	r2, [r2, #8]
10001a18:	490c      	ldr	r1, [pc, #48]	; (10001a4c <irq_add_tail_to_free_list+0xb4>)
10001a1a:	5011      	str	r1, [r2, r0]
10001a1c:	e7ef      	b.n	100019fe <irq_add_tail_to_free_list+0x66>
10001a1e:	2100      	movs	r1, #0
10001a20:	004a      	lsls	r2, r1, #1
10001a22:	1852      	adds	r2, r2, r1
10001a24:	21ff      	movs	r1, #255	; 0xff
10001a26:	0092      	lsls	r2, r2, #2
10001a28:	18ba      	adds	r2, r7, r2
10001a2a:	7191      	strb	r1, [r2, #6]
10001a2c:	4908      	ldr	r1, [pc, #32]	; (10001a50 <irq_add_tail_to_free_list+0xb8>)
10001a2e:	8091      	strh	r1, [r2, #4]
10001a30:	e7e5      	b.n	100019fe <irq_add_tail_to_free_list+0x66>
10001a32:	2101      	movs	r1, #1
10001a34:	e7f4      	b.n	10001a20 <irq_add_tail_to_free_list+0x88>
10001a36:	2102      	movs	r1, #2
10001a38:	e7f2      	b.n	10001a20 <irq_add_tail_to_free_list+0x88>
10001a3a:	46c0      	nop			; (mov r8, r8)
10001a3c:	d0000124 	.word	0xd0000124
10001a40:	2000018c 	.word	0x2000018c
10001a44:	e000ed00 	.word	0xe000ed00
10001a48:	20000b29 	.word	0x20000b29
10001a4c:	100002cd 	.word	0x100002cd
10001a50:	ffffbd00 	.word	0xffffbd00

10001a54 <irq_init_priorities>:
10001a54:	b5f0      	push	{r4, r5, r6, r7, lr}
10001a56:	2200      	movs	r2, #0
10001a58:	2403      	movs	r4, #3
10001a5a:	27ff      	movs	r7, #255	; 0xff
10001a5c:	2680      	movs	r6, #128	; 0x80
10001a5e:	0020      	movs	r0, r4
10001a60:	003d      	movs	r5, r7
10001a62:	4b09      	ldr	r3, [pc, #36]	; (10001a88 <irq_init_priorities+0x34>)
10001a64:	0011      	movs	r1, r2
10001a66:	469c      	mov	ip, r3
10001a68:	4010      	ands	r0, r2
10001a6a:	00c0      	lsls	r0, r0, #3
10001a6c:	4085      	lsls	r5, r0
10001a6e:	43a1      	bics	r1, r4
10001a70:	4461      	add	r1, ip
10001a72:	680b      	ldr	r3, [r1, #0]
10001a74:	3201      	adds	r2, #1
10001a76:	43ab      	bics	r3, r5
10001a78:	0035      	movs	r5, r6
10001a7a:	4085      	lsls	r5, r0
10001a7c:	432b      	orrs	r3, r5
10001a7e:	600b      	str	r3, [r1, #0]
10001a80:	2a20      	cmp	r2, #32
10001a82:	d1ec      	bne.n	10001a5e <irq_init_priorities+0xa>
10001a84:	bdf0      	pop	{r4, r5, r6, r7, pc}
10001a86:	46c0      	nop			; (mov r8, r8)
10001a88:	e000e400 	.word	0xe000e400

10001a8c <_out_null>:
10001a8c:	4770      	bx	lr
10001a8e:	46c0      	nop			; (mov r8, r8)

10001a90 <_out_rev>:
10001a90:	b5f8      	push	{r3, r4, r5, r6, r7, lr}
10001a92:	4657      	mov	r7, sl
10001a94:	464e      	mov	r6, r9
10001a96:	46de      	mov	lr, fp
10001a98:	4645      	mov	r5, r8
10001a9a:	b5e0      	push	{r5, r6, r7, lr}
10001a9c:	001f      	movs	r7, r3
10001a9e:	9b0a      	ldr	r3, [sp, #40]	; 0x28
10001aa0:	0005      	movs	r5, r0
10001aa2:	469b      	mov	fp, r3
10001aa4:	9b0d      	ldr	r3, [sp, #52]	; 0x34
10001aa6:	000e      	movs	r6, r1
10001aa8:	4691      	mov	r9, r2
10001aaa:	4692      	mov	sl, r2
10001aac:	079b      	lsls	r3, r3, #30
10001aae:	d118      	bne.n	10001ae2 <_out_rev+0x52>
10001ab0:	9b0b      	ldr	r3, [sp, #44]	; 0x2c
10001ab2:	9a0c      	ldr	r2, [sp, #48]	; 0x30
10001ab4:	4293      	cmp	r3, r2
10001ab6:	d214      	bcs.n	10001ae2 <_out_rev+0x52>
10001ab8:	0013      	movs	r3, r2
10001aba:	9a0b      	ldr	r2, [sp, #44]	; 0x2c
10001abc:	46b8      	mov	r8, r7
10001abe:	1a9b      	subs	r3, r3, r2
10001ac0:	444b      	add	r3, r9
10001ac2:	464c      	mov	r4, r9
10001ac4:	000f      	movs	r7, r1
10001ac6:	0006      	movs	r6, r0
10001ac8:	001d      	movs	r5, r3
10001aca:	0022      	movs	r2, r4
10001acc:	4643      	mov	r3, r8
10001ace:	3401      	adds	r4, #1
10001ad0:	0039      	movs	r1, r7
10001ad2:	2020      	movs	r0, #32
10001ad4:	47b0      	blx	r6
10001ad6:	42ac      	cmp	r4, r5
10001ad8:	d1f7      	bne.n	10001aca <_out_rev+0x3a>
10001ada:	46aa      	mov	sl, r5
10001adc:	0035      	movs	r5, r6
10001ade:	003e      	movs	r6, r7
10001ae0:	4647      	mov	r7, r8
10001ae2:	9b0b      	ldr	r3, [sp, #44]	; 0x2c
10001ae4:	2b00      	cmp	r3, #0
10001ae6:	d038      	beq.n	10001b5a <_out_rev+0xca>
10001ae8:	449a      	add	sl, r3
10001aea:	001c      	movs	r4, r3
10001aec:	46d0      	mov	r8, sl
10001aee:	4653      	mov	r3, sl
10001af0:	1b1a      	subs	r2, r3, r4
10001af2:	465b      	mov	r3, fp
10001af4:	3c01      	subs	r4, #1
10001af6:	5d18      	ldrb	r0, [r3, r4]
10001af8:	0031      	movs	r1, r6
10001afa:	003b      	movs	r3, r7
10001afc:	47a8      	blx	r5
10001afe:	2c00      	cmp	r4, #0
10001b00:	d1f5      	bne.n	10001aee <_out_rev+0x5e>
10001b02:	9b0d      	ldr	r3, [sp, #52]	; 0x34
10001b04:	079b      	lsls	r3, r3, #30
10001b06:	d521      	bpl.n	10001b4c <_out_rev+0xbc>
10001b08:	4643      	mov	r3, r8
10001b0a:	464a      	mov	r2, r9
10001b0c:	1a9c      	subs	r4, r3, r2
10001b0e:	9b0c      	ldr	r3, [sp, #48]	; 0x30
10001b10:	42a3      	cmp	r3, r4
10001b12:	d91b      	bls.n	10001b4c <_out_rev+0xbc>
10001b14:	003a      	movs	r2, r7
10001b16:	469a      	mov	sl, r3
10001b18:	464f      	mov	r7, r9
10001b1a:	4691      	mov	r9, r2
10001b1c:	19e2      	adds	r2, r4, r7
10001b1e:	464b      	mov	r3, r9
10001b20:	0031      	movs	r1, r6
10001b22:	2020      	movs	r0, #32
10001b24:	3401      	adds	r4, #1
10001b26:	47a8      	blx	r5
10001b28:	4554      	cmp	r4, sl
10001b2a:	d3f7      	bcc.n	10001b1c <_out_rev+0x8c>
10001b2c:	4643      	mov	r3, r8
10001b2e:	990c      	ldr	r1, [sp, #48]	; 0x30
10001b30:	1bdb      	subs	r3, r3, r7
10001b32:	3301      	adds	r3, #1
10001b34:	46b9      	mov	r9, r7
10001b36:	2200      	movs	r2, #0
10001b38:	4299      	cmp	r1, r3
10001b3a:	d303      	bcc.n	10001b44 <_out_rev+0xb4>
10001b3c:	4643      	mov	r3, r8
10001b3e:	1e4a      	subs	r2, r1, #1
10001b40:	444a      	add	r2, r9
10001b42:	1ad2      	subs	r2, r2, r3
10001b44:	4643      	mov	r3, r8
10001b46:	4690      	mov	r8, r2
10001b48:	3301      	adds	r3, #1
10001b4a:	4498      	add	r8, r3
10001b4c:	4640      	mov	r0, r8
10001b4e:	bc3c      	pop	{r2, r3, r4, r5}
10001b50:	4690      	mov	r8, r2
10001b52:	4699      	mov	r9, r3
10001b54:	46a2      	mov	sl, r4
10001b56:	46ab      	mov	fp, r5
10001b58:	bdf8      	pop	{r3, r4, r5, r6, r7, pc}
10001b5a:	46d0      	mov	r8, sl
10001b5c:	e7d1      	b.n	10001b02 <_out_rev+0x72>
10001b5e:	46c0      	nop			; (mov r8, r8)

10001b60 <_ntoa_format>:
10001b60:	b5f0      	push	{r4, r5, r6, r7, lr}
10001b62:	464f      	mov	r7, r9
10001b64:	4646      	mov	r6, r8
10001b66:	46d6      	mov	lr, sl
10001b68:	b5c0      	push	{r6, r7, lr}
10001b6a:	b084      	sub	sp, #16
10001b6c:	4698      	mov	r8, r3
10001b6e:	ab0e      	add	r3, sp, #56	; 0x38
10001b70:	781b      	ldrb	r3, [r3, #0]
10001b72:	9f12      	ldr	r7, [sp, #72]	; 0x48
10001b74:	4699      	mov	r9, r3
10001b76:	4694      	mov	ip, r2
10001b78:	9c0d      	ldr	r4, [sp, #52]	; 0x34
10001b7a:	9b10      	ldr	r3, [sp, #64]	; 0x40
10001b7c:	9e11      	ldr	r6, [sp, #68]	; 0x44
10001b7e:	07ba      	lsls	r2, r7, #30
10001b80:	d425      	bmi.n	10001bce <_ntoa_format+0x6e>
10001b82:	2e00      	cmp	r6, #0
10001b84:	d169      	bne.n	10001c5a <_ntoa_format+0xfa>
10001b86:	429c      	cmp	r4, r3
10001b88:	d300      	bcc.n	10001b8c <_ntoa_format+0x2c>
10001b8a:	e0c2      	b.n	10001d12 <_ntoa_format+0x1b2>
10001b8c:	2201      	movs	r2, #1
10001b8e:	403a      	ands	r2, r7
10001b90:	4692      	mov	sl, r2
10001b92:	2c1f      	cmp	r4, #31
10001b94:	d900      	bls.n	10001b98 <_ntoa_format+0x38>
10001b96:	e0bb      	b.n	10001d10 <_ntoa_format+0x1b0>
10001b98:	9a0c      	ldr	r2, [sp, #48]	; 0x30
10001b9a:	1e55      	subs	r5, r2, #1
10001b9c:	2230      	movs	r2, #48	; 0x30
10001b9e:	e001      	b.n	10001ba4 <_ntoa_format+0x44>
10001ba0:	2c20      	cmp	r4, #32
10001ba2:	d003      	beq.n	10001bac <_ntoa_format+0x4c>
10001ba4:	3401      	adds	r4, #1
10001ba6:	552a      	strb	r2, [r5, r4]
10001ba8:	42a3      	cmp	r3, r4
10001baa:	d8f9      	bhi.n	10001ba0 <_ntoa_format+0x40>
10001bac:	4652      	mov	r2, sl
10001bae:	2a00      	cmp	r2, #0
10001bb0:	d00d      	beq.n	10001bce <_ntoa_format+0x6e>
10001bb2:	42b4      	cmp	r4, r6
10001bb4:	d20b      	bcs.n	10001bce <_ntoa_format+0x6e>
10001bb6:	2c1f      	cmp	r4, #31
10001bb8:	d862      	bhi.n	10001c80 <_ntoa_format+0x120>
10001bba:	9a0c      	ldr	r2, [sp, #48]	; 0x30
10001bbc:	1e55      	subs	r5, r2, #1
10001bbe:	2230      	movs	r2, #48	; 0x30
10001bc0:	e001      	b.n	10001bc6 <_ntoa_format+0x66>
10001bc2:	2c20      	cmp	r4, #32
10001bc4:	d05c      	beq.n	10001c80 <_ntoa_format+0x120>
10001bc6:	3401      	adds	r4, #1
10001bc8:	552a      	strb	r2, [r5, r4]
10001bca:	42b4      	cmp	r4, r6
10001bcc:	d1f9      	bne.n	10001bc2 <_ntoa_format+0x62>
10001bce:	06fa      	lsls	r2, r7, #27
10001bd0:	d535      	bpl.n	10001c3e <_ntoa_format+0xde>
10001bd2:	057a      	lsls	r2, r7, #21
10001bd4:	d45d      	bmi.n	10001c92 <_ntoa_format+0x132>
10001bd6:	2c00      	cmp	r4, #0
10001bd8:	d157      	bne.n	10001c8a <_ntoa_format+0x12a>
10001bda:	9b0f      	ldr	r3, [sp, #60]	; 0x3c
10001bdc:	2b10      	cmp	r3, #16
10001bde:	d100      	bne.n	10001be2 <_ntoa_format+0x82>
10001be0:	e07c      	b.n	10001cdc <_ntoa_format+0x17c>
10001be2:	9b0f      	ldr	r3, [sp, #60]	; 0x3c
10001be4:	2b02      	cmp	r3, #2
10001be6:	d100      	bne.n	10001bea <_ntoa_format+0x8a>
10001be8:	e08d      	b.n	10001d06 <_ntoa_format+0x1a6>
10001bea:	2330      	movs	r3, #48	; 0x30
10001bec:	9a0c      	ldr	r2, [sp, #48]	; 0x30
10001bee:	2401      	movs	r4, #1
10001bf0:	7013      	strb	r3, [r2, #0]
10001bf2:	464b      	mov	r3, r9
10001bf4:	2b00      	cmp	r3, #0
10001bf6:	d027      	beq.n	10001c48 <_ntoa_format+0xe8>
10001bf8:	232d      	movs	r3, #45	; 0x2d
10001bfa:	9a0c      	ldr	r2, [sp, #48]	; 0x30
10001bfc:	5513      	strb	r3, [r2, r4]
10001bfe:	3401      	adds	r4, #1
10001c00:	9b0c      	ldr	r3, [sp, #48]	; 0x30
10001c02:	4662      	mov	r2, ip
10001c04:	9300      	str	r3, [sp, #0]
10001c06:	9703      	str	r7, [sp, #12]
10001c08:	4643      	mov	r3, r8
10001c0a:	9602      	str	r6, [sp, #8]
10001c0c:	9401      	str	r4, [sp, #4]
10001c0e:	f7ff ff3f 	bl	10001a90 <_out_rev>
10001c12:	b004      	add	sp, #16
10001c14:	bc1c      	pop	{r2, r3, r4}
10001c16:	4690      	mov	r8, r2
10001c18:	4699      	mov	r9, r3
10001c1a:	46a2      	mov	sl, r4
10001c1c:	bdf0      	pop	{r4, r5, r6, r7, pc}
10001c1e:	06bb      	lsls	r3, r7, #26
10001c20:	d463      	bmi.n	10001cea <_ntoa_format+0x18a>
10001c22:	2c20      	cmp	r4, #32
10001c24:	d0ec      	beq.n	10001c00 <_ntoa_format+0xa0>
10001c26:	9b0c      	ldr	r3, [sp, #48]	; 0x30
10001c28:	191a      	adds	r2, r3, r4
10001c2a:	3401      	adds	r4, #1
10001c2c:	2378      	movs	r3, #120	; 0x78
10001c2e:	7013      	strb	r3, [r2, #0]
10001c30:	2c20      	cmp	r4, #32
10001c32:	d0e5      	beq.n	10001c00 <_ntoa_format+0xa0>
10001c34:	2230      	movs	r2, #48	; 0x30
10001c36:	9b0c      	ldr	r3, [sp, #48]	; 0x30
10001c38:	191b      	adds	r3, r3, r4
10001c3a:	701a      	strb	r2, [r3, #0]
10001c3c:	3401      	adds	r4, #1
10001c3e:	2c20      	cmp	r4, #32
10001c40:	d0de      	beq.n	10001c00 <_ntoa_format+0xa0>
10001c42:	464b      	mov	r3, r9
10001c44:	2b00      	cmp	r3, #0
10001c46:	d1d7      	bne.n	10001bf8 <_ntoa_format+0x98>
10001c48:	077b      	lsls	r3, r7, #29
10001c4a:	d435      	bmi.n	10001cb8 <_ntoa_format+0x158>
10001c4c:	073b      	lsls	r3, r7, #28
10001c4e:	d5d7      	bpl.n	10001c00 <_ntoa_format+0xa0>
10001c50:	2320      	movs	r3, #32
10001c52:	9a0c      	ldr	r2, [sp, #48]	; 0x30
10001c54:	5513      	strb	r3, [r2, r4]
10001c56:	3401      	adds	r4, #1
10001c58:	e7d2      	b.n	10001c00 <_ntoa_format+0xa0>
10001c5a:	2201      	movs	r2, #1
10001c5c:	0015      	movs	r5, r2
10001c5e:	403d      	ands	r5, r7
10001c60:	46aa      	mov	sl, r5
10001c62:	423a      	tst	r2, r7
10001c64:	d020      	beq.n	10001ca8 <_ntoa_format+0x148>
10001c66:	464a      	mov	r2, r9
10001c68:	2a00      	cmp	r2, #0
10001c6a:	d12a      	bne.n	10001cc2 <_ntoa_format+0x162>
10001c6c:	320c      	adds	r2, #12
10001c6e:	423a      	tst	r2, r7
10001c70:	d127      	bne.n	10001cc2 <_ntoa_format+0x162>
10001c72:	429c      	cmp	r4, r3
10001c74:	d29d      	bcs.n	10001bb2 <_ntoa_format+0x52>
10001c76:	2c1f      	cmp	r4, #31
10001c78:	d800      	bhi.n	10001c7c <_ntoa_format+0x11c>
10001c7a:	e78d      	b.n	10001b98 <_ntoa_format+0x38>
10001c7c:	2e20      	cmp	r6, #32
10001c7e:	d919      	bls.n	10001cb4 <_ntoa_format+0x154>
10001c80:	2420      	movs	r4, #32
10001c82:	06fa      	lsls	r2, r7, #27
10001c84:	d5bc      	bpl.n	10001c00 <_ntoa_format+0xa0>
10001c86:	057a      	lsls	r2, r7, #21
10001c88:	d403      	bmi.n	10001c92 <_ntoa_format+0x132>
10001c8a:	42a3      	cmp	r3, r4
10001c8c:	d01b      	beq.n	10001cc6 <_ntoa_format+0x166>
10001c8e:	42a6      	cmp	r6, r4
10001c90:	d019      	beq.n	10001cc6 <_ntoa_format+0x166>
10001c92:	9b0f      	ldr	r3, [sp, #60]	; 0x3c
10001c94:	2b10      	cmp	r3, #16
10001c96:	d0c2      	beq.n	10001c1e <_ntoa_format+0xbe>
10001c98:	2b02      	cmp	r3, #2
10001c9a:	d1c9      	bne.n	10001c30 <_ntoa_format+0xd0>
10001c9c:	2c20      	cmp	r4, #32
10001c9e:	d0af      	beq.n	10001c00 <_ntoa_format+0xa0>
10001ca0:	9b0c      	ldr	r3, [sp, #48]	; 0x30
10001ca2:	191b      	adds	r3, r3, r4
10001ca4:	3401      	adds	r4, #1
10001ca6:	e040      	b.n	10001d2a <_ntoa_format+0x1ca>
10001ca8:	429c      	cmp	r4, r3
10001caa:	d300      	bcc.n	10001cae <_ntoa_format+0x14e>
10001cac:	e78f      	b.n	10001bce <_ntoa_format+0x6e>
10001cae:	2c1f      	cmp	r4, #31
10001cb0:	d800      	bhi.n	10001cb4 <_ntoa_format+0x154>
10001cb2:	e771      	b.n	10001b98 <_ntoa_format+0x38>
10001cb4:	2420      	movs	r4, #32
10001cb6:	e78a      	b.n	10001bce <_ntoa_format+0x6e>
10001cb8:	232b      	movs	r3, #43	; 0x2b
10001cba:	9a0c      	ldr	r2, [sp, #48]	; 0x30
10001cbc:	5513      	strb	r3, [r2, r4]
10001cbe:	3401      	adds	r4, #1
10001cc0:	e79e      	b.n	10001c00 <_ntoa_format+0xa0>
10001cc2:	3e01      	subs	r6, #1
10001cc4:	e7d5      	b.n	10001c72 <_ntoa_format+0x112>
10001cc6:	1e63      	subs	r3, r4, #1
10001cc8:	2c01      	cmp	r4, #1
10001cca:	d100      	bne.n	10001cce <_ntoa_format+0x16e>
10001ccc:	e785      	b.n	10001bda <_ntoa_format+0x7a>
10001cce:	9a0f      	ldr	r2, [sp, #60]	; 0x3c
10001cd0:	2a10      	cmp	r2, #16
10001cd2:	d020      	beq.n	10001d16 <_ntoa_format+0x1b6>
10001cd4:	2a02      	cmp	r2, #2
10001cd6:	d025      	beq.n	10001d24 <_ntoa_format+0x1c4>
10001cd8:	001c      	movs	r4, r3
10001cda:	e7ab      	b.n	10001c34 <_ntoa_format+0xd4>
10001cdc:	06bb      	lsls	r3, r7, #26
10001cde:	d40d      	bmi.n	10001cfc <_ntoa_format+0x19c>
10001ce0:	2378      	movs	r3, #120	; 0x78
10001ce2:	9a0c      	ldr	r2, [sp, #48]	; 0x30
10001ce4:	2401      	movs	r4, #1
10001ce6:	7013      	strb	r3, [r2, #0]
10001ce8:	e7a4      	b.n	10001c34 <_ntoa_format+0xd4>
10001cea:	2c20      	cmp	r4, #32
10001cec:	d100      	bne.n	10001cf0 <_ntoa_format+0x190>
10001cee:	e787      	b.n	10001c00 <_ntoa_format+0xa0>
10001cf0:	2258      	movs	r2, #88	; 0x58
10001cf2:	9b0c      	ldr	r3, [sp, #48]	; 0x30
10001cf4:	191b      	adds	r3, r3, r4
10001cf6:	701a      	strb	r2, [r3, #0]
10001cf8:	3401      	adds	r4, #1
10001cfa:	e799      	b.n	10001c30 <_ntoa_format+0xd0>
10001cfc:	2358      	movs	r3, #88	; 0x58
10001cfe:	9a0c      	ldr	r2, [sp, #48]	; 0x30
10001d00:	2401      	movs	r4, #1
10001d02:	7013      	strb	r3, [r2, #0]
10001d04:	e796      	b.n	10001c34 <_ntoa_format+0xd4>
10001d06:	9a0c      	ldr	r2, [sp, #48]	; 0x30
10001d08:	3360      	adds	r3, #96	; 0x60
10001d0a:	2401      	movs	r4, #1
10001d0c:	7013      	strb	r3, [r2, #0]
10001d0e:	e791      	b.n	10001c34 <_ntoa_format+0xd4>
10001d10:	2420      	movs	r4, #32
10001d12:	2600      	movs	r6, #0
10001d14:	e75b      	b.n	10001bce <_ntoa_format+0x6e>
10001d16:	3c02      	subs	r4, #2
10001d18:	06ba      	lsls	r2, r7, #26
10001d1a:	d4e9      	bmi.n	10001cf0 <_ntoa_format+0x190>
10001d1c:	9a0c      	ldr	r2, [sp, #48]	; 0x30
10001d1e:	1912      	adds	r2, r2, r4
10001d20:	001c      	movs	r4, r3
10001d22:	e783      	b.n	10001c2c <_ntoa_format+0xcc>
10001d24:	9a0c      	ldr	r2, [sp, #48]	; 0x30
10001d26:	4692      	mov	sl, r2
10001d28:	4453      	add	r3, sl
10001d2a:	2262      	movs	r2, #98	; 0x62
10001d2c:	701a      	strb	r2, [r3, #0]
10001d2e:	e77f      	b.n	10001c30 <_ntoa_format+0xd0>

10001d30 <_out_char>:
10001d30:	b510      	push	{r4, lr}
10001d32:	2800      	cmp	r0, #0
10001d34:	d100      	bne.n	10001d38 <_out_char+0x8>
10001d36:	bd10      	pop	{r4, pc}
10001d38:	f002 faa0 	bl	1000427c <__wrap_putchar>
10001d3c:	e7fb      	b.n	10001d36 <_out_char+0x6>
10001d3e:	46c0      	nop			; (mov r8, r8)

10001d40 <_out_fct>:
10001d40:	000b      	movs	r3, r1
10001d42:	b510      	push	{r4, lr}
10001d44:	2800      	cmp	r0, #0
10001d46:	d002      	beq.n	10001d4e <_out_fct+0xe>
10001d48:	6849      	ldr	r1, [r1, #4]
10001d4a:	681b      	ldr	r3, [r3, #0]
10001d4c:	4798      	blx	r3
10001d4e:	bd10      	pop	{r4, pc}

10001d50 <_etoa>:
10001d50:	b5f0      	push	{r4, r5, r6, r7, lr}
10001d52:	46de      	mov	lr, fp
10001d54:	4657      	mov	r7, sl
10001d56:	464e      	mov	r6, r9
10001d58:	4645      	mov	r5, r8
10001d5a:	b5e0      	push	{r5, r6, r7, lr}
10001d5c:	b09b      	sub	sp, #108	; 0x6c
10001d5e:	469a      	mov	sl, r3
10001d60:	9b24      	ldr	r3, [sp, #144]	; 0x90
10001d62:	468b      	mov	fp, r1
10001d64:	4699      	mov	r9, r3
10001d66:	9b25      	ldr	r3, [sp, #148]	; 0x94
10001d68:	900b      	str	r0, [sp, #44]	; 0x2c
10001d6a:	4698      	mov	r8, r3
10001d6c:	920c      	str	r2, [sp, #48]	; 0x30
10001d6e:	4643      	mov	r3, r8
10001d70:	464a      	mov	r2, r9
10001d72:	4648      	mov	r0, r9
10001d74:	4641      	mov	r1, r8
10001d76:	f001 fccc 	bl	10003712 <__wrap___aeabi_dcmpun>
10001d7a:	2800      	cmp	r0, #0
10001d7c:	d000      	beq.n	10001d80 <_etoa+0x30>
10001d7e:	e1a3      	b.n	100020c8 <_etoa+0x378>
10001d80:	2201      	movs	r2, #1
10001d82:	4648      	mov	r0, r9
10001d84:	4641      	mov	r1, r8
10001d86:	4be2      	ldr	r3, [pc, #904]	; (10002110 <_etoa+0x3c0>)
10001d88:	4252      	negs	r2, r2
10001d8a:	f001 fcbd 	bl	10003708 <__wrap___aeabi_dcmpgt>
10001d8e:	2800      	cmp	r0, #0
10001d90:	d000      	beq.n	10001d94 <_etoa+0x44>
10001d92:	e199      	b.n	100020c8 <_etoa+0x378>
10001d94:	2201      	movs	r2, #1
10001d96:	4648      	mov	r0, r9
10001d98:	4641      	mov	r1, r8
10001d9a:	4bde      	ldr	r3, [pc, #888]	; (10002114 <_etoa+0x3c4>)
10001d9c:	4252      	negs	r2, r2
10001d9e:	f001 fc9d 	bl	100036dc <__wrap___aeabi_dcmplt>
10001da2:	2800      	cmp	r0, #0
10001da4:	d000      	beq.n	10001da8 <_etoa+0x58>
10001da6:	e18f      	b.n	100020c8 <_etoa+0x378>
10001da8:	2200      	movs	r2, #0
10001daa:	2300      	movs	r3, #0
10001dac:	4648      	mov	r0, r9
10001dae:	4641      	mov	r1, r8
10001db0:	f001 fc94 	bl	100036dc <__wrap___aeabi_dcmplt>
10001db4:	2800      	cmp	r0, #0
10001db6:	d000      	beq.n	10001dba <_etoa+0x6a>
10001db8:	e1de      	b.n	10002178 <_etoa+0x428>
10001dba:	464a      	mov	r2, r9
10001dbc:	4643      	mov	r3, r8
10001dbe:	920a      	str	r2, [sp, #40]	; 0x28
10001dc0:	9309      	str	r3, [sp, #36]	; 0x24
10001dc2:	2380      	movs	r3, #128	; 0x80
10001dc4:	9a28      	ldr	r2, [sp, #160]	; 0xa0
10001dc6:	00db      	lsls	r3, r3, #3
10001dc8:	401a      	ands	r2, r3
10001dca:	9211      	str	r2, [sp, #68]	; 0x44
10001dcc:	9a28      	ldr	r2, [sp, #160]	; 0xa0
10001dce:	421a      	tst	r2, r3
10001dd0:	d101      	bne.n	10001dd6 <_etoa+0x86>
10001dd2:	2306      	movs	r3, #6
10001dd4:	9326      	str	r3, [sp, #152]	; 0x98
10001dd6:	4bd0      	ldr	r3, [pc, #832]	; (10002118 <_etoa+0x3c8>)
10001dd8:	9f09      	ldr	r7, [sp, #36]	; 0x24
10001dda:	469c      	mov	ip, r3
10001ddc:	0078      	lsls	r0, r7, #1
10001dde:	0d40      	lsrs	r0, r0, #21
10001de0:	4460      	add	r0, ip
10001de2:	f001 fca9 	bl	10003738 <__wrap___aeabi_i2d>
10001de6:	4acd      	ldr	r2, [pc, #820]	; (1000211c <_etoa+0x3cc>)
10001de8:	4bcd      	ldr	r3, [pc, #820]	; (10002120 <_etoa+0x3d0>)
10001dea:	f001 fc35 	bl	10003658 <__wrap___aeabi_dmul>
10001dee:	4acd      	ldr	r2, [pc, #820]	; (10002124 <_etoa+0x3d4>)
10001df0:	4bcd      	ldr	r3, [pc, #820]	; (10002128 <_etoa+0x3d8>)
10001df2:	f001 fc1f 	bl	10003634 <__wrap___aeabi_dadd>
10001df6:	033b      	lsls	r3, r7, #12
10001df8:	4acc      	ldr	r2, [pc, #816]	; (1000212c <_etoa+0x3dc>)
10001dfa:	9e0a      	ldr	r6, [sp, #40]	; 0x28
10001dfc:	0b1b      	lsrs	r3, r3, #12
10001dfe:	431a      	orrs	r2, r3
10001e00:	0004      	movs	r4, r0
10001e02:	000d      	movs	r5, r1
10001e04:	0030      	movs	r0, r6
10001e06:	0011      	movs	r1, r2
10001e08:	4bc9      	ldr	r3, [pc, #804]	; (10002130 <_etoa+0x3e0>)
10001e0a:	2200      	movs	r2, #0
10001e0c:	9709      	str	r7, [sp, #36]	; 0x24
10001e0e:	f001 fc08 	bl	10003622 <__wrap___aeabi_dsub>
10001e12:	4ac8      	ldr	r2, [pc, #800]	; (10002134 <_etoa+0x3e4>)
10001e14:	4bc8      	ldr	r3, [pc, #800]	; (10002138 <_etoa+0x3e8>)
10001e16:	f001 fc1f 	bl	10003658 <__wrap___aeabi_dmul>
10001e1a:	0002      	movs	r2, r0
10001e1c:	000b      	movs	r3, r1
10001e1e:	0020      	movs	r0, r4
10001e20:	0029      	movs	r1, r5
10001e22:	f001 fc07 	bl	10003634 <__wrap___aeabi_dadd>
10001e26:	f001 fc9f 	bl	10003768 <__wrap___aeabi_d2iz>
10001e2a:	900d      	str	r0, [sp, #52]	; 0x34
10001e2c:	f001 fc84 	bl	10003738 <__wrap___aeabi_i2d>
10001e30:	4ac2      	ldr	r2, [pc, #776]	; (1000213c <_etoa+0x3ec>)
10001e32:	4bc3      	ldr	r3, [pc, #780]	; (10002140 <_etoa+0x3f0>)
10001e34:	0004      	movs	r4, r0
10001e36:	000d      	movs	r5, r1
10001e38:	f001 fc0e 	bl	10003658 <__wrap___aeabi_dmul>
10001e3c:	2200      	movs	r2, #0
10001e3e:	4bc1      	ldr	r3, [pc, #772]	; (10002144 <_etoa+0x3f4>)
10001e40:	f001 fbf8 	bl	10003634 <__wrap___aeabi_dadd>
10001e44:	f001 fc90 	bl	10003768 <__wrap___aeabi_d2iz>
10001e48:	4abf      	ldr	r2, [pc, #764]	; (10002148 <_etoa+0x3f8>)
10001e4a:	0006      	movs	r6, r0
10001e4c:	4bbf      	ldr	r3, [pc, #764]	; (1000214c <_etoa+0x3fc>)
10001e4e:	0020      	movs	r0, r4
10001e50:	0029      	movs	r1, r5
10001e52:	f001 fc01 	bl	10003658 <__wrap___aeabi_dmul>
10001e56:	0004      	movs	r4, r0
10001e58:	0030      	movs	r0, r6
10001e5a:	000d      	movs	r5, r1
10001e5c:	9610      	str	r6, [sp, #64]	; 0x40
10001e5e:	f001 fc6b 	bl	10003738 <__wrap___aeabi_i2d>
10001e62:	4abb      	ldr	r2, [pc, #748]	; (10002150 <_etoa+0x400>)
10001e64:	4bbb      	ldr	r3, [pc, #748]	; (10002154 <_etoa+0x404>)
10001e66:	f001 fbf7 	bl	10003658 <__wrap___aeabi_dmul>
10001e6a:	0002      	movs	r2, r0
10001e6c:	000b      	movs	r3, r1
10001e6e:	0020      	movs	r0, r4
10001e70:	0029      	movs	r1, r5
10001e72:	f001 fbd6 	bl	10003622 <__wrap___aeabi_dsub>
10001e76:	0002      	movs	r2, r0
10001e78:	000b      	movs	r3, r1
10001e7a:	0006      	movs	r6, r0
10001e7c:	000f      	movs	r7, r1
10001e7e:	f001 fbeb 	bl	10003658 <__wrap___aeabi_dmul>
10001e82:	0032      	movs	r2, r6
10001e84:	0004      	movs	r4, r0
10001e86:	000d      	movs	r5, r1
10001e88:	003b      	movs	r3, r7
10001e8a:	0030      	movs	r0, r6
10001e8c:	0039      	movs	r1, r7
10001e8e:	f001 fbd1 	bl	10003634 <__wrap___aeabi_dadd>
10001e92:	2200      	movs	r2, #0
10001e94:	900e      	str	r0, [sp, #56]	; 0x38
10001e96:	910f      	str	r1, [sp, #60]	; 0x3c
10001e98:	4baf      	ldr	r3, [pc, #700]	; (10002158 <_etoa+0x408>)
10001e9a:	0020      	movs	r0, r4
10001e9c:	0029      	movs	r1, r5
10001e9e:	f001 fbd2 	bl	10003646 <__wrap___aeabi_ddiv>
10001ea2:	2200      	movs	r2, #0
10001ea4:	4bad      	ldr	r3, [pc, #692]	; (1000215c <_etoa+0x40c>)
10001ea6:	f001 fbc5 	bl	10003634 <__wrap___aeabi_dadd>
10001eaa:	0002      	movs	r2, r0
10001eac:	000b      	movs	r3, r1
10001eae:	0020      	movs	r0, r4
10001eb0:	0029      	movs	r1, r5
10001eb2:	f001 fbc8 	bl	10003646 <__wrap___aeabi_ddiv>
10001eb6:	2200      	movs	r2, #0
10001eb8:	4ba9      	ldr	r3, [pc, #676]	; (10002160 <_etoa+0x410>)
10001eba:	f001 fbbb 	bl	10003634 <__wrap___aeabi_dadd>
10001ebe:	0002      	movs	r2, r0
10001ec0:	000b      	movs	r3, r1
10001ec2:	0020      	movs	r0, r4
10001ec4:	0029      	movs	r1, r5
10001ec6:	f001 fbbe 	bl	10003646 <__wrap___aeabi_ddiv>
10001eca:	000d      	movs	r5, r1
10001ecc:	2180      	movs	r1, #128	; 0x80
10001ece:	0004      	movs	r4, r0
10001ed0:	0032      	movs	r2, r6
10001ed2:	003b      	movs	r3, r7
10001ed4:	2000      	movs	r0, #0
10001ed6:	05c9      	lsls	r1, r1, #23
10001ed8:	f001 fba3 	bl	10003622 <__wrap___aeabi_dsub>
10001edc:	0002      	movs	r2, r0
10001ede:	000b      	movs	r3, r1
10001ee0:	0020      	movs	r0, r4
10001ee2:	0029      	movs	r1, r5
10001ee4:	f001 fba6 	bl	10003634 <__wrap___aeabi_dadd>
10001ee8:	0002      	movs	r2, r0
10001eea:	000b      	movs	r3, r1
10001eec:	980e      	ldr	r0, [sp, #56]	; 0x38
10001eee:	990f      	ldr	r1, [sp, #60]	; 0x3c
10001ef0:	f001 fba9 	bl	10003646 <__wrap___aeabi_ddiv>
10001ef4:	2200      	movs	r2, #0
10001ef6:	4b8d      	ldr	r3, [pc, #564]	; (1000212c <_etoa+0x3dc>)
10001ef8:	f001 fb9c 	bl	10003634 <__wrap___aeabi_dadd>
10001efc:	9b10      	ldr	r3, [sp, #64]	; 0x40
10001efe:	4a99      	ldr	r2, [pc, #612]	; (10002164 <_etoa+0x414>)
10001f00:	001c      	movs	r4, r3
10001f02:	4694      	mov	ip, r2
10001f04:	4464      	add	r4, ip
10001f06:	2200      	movs	r2, #0
10001f08:	0523      	lsls	r3, r4, #20
10001f0a:	f001 fba5 	bl	10003658 <__wrap___aeabi_dmul>
10001f0e:	0006      	movs	r6, r0
10001f10:	000f      	movs	r7, r1
10001f12:	0002      	movs	r2, r0
10001f14:	000b      	movs	r3, r1
10001f16:	980a      	ldr	r0, [sp, #40]	; 0x28
10001f18:	9909      	ldr	r1, [sp, #36]	; 0x24
10001f1a:	f001 fbdf 	bl	100036dc <__wrap___aeabi_dcmplt>
10001f1e:	2800      	cmp	r0, #0
10001f20:	d00a      	beq.n	10001f38 <_etoa+0x1e8>
10001f22:	9b0d      	ldr	r3, [sp, #52]	; 0x34
10001f24:	0030      	movs	r0, r6
10001f26:	3b01      	subs	r3, #1
10001f28:	0039      	movs	r1, r7
10001f2a:	930d      	str	r3, [sp, #52]	; 0x34
10001f2c:	2200      	movs	r2, #0
10001f2e:	4b8b      	ldr	r3, [pc, #556]	; (1000215c <_etoa+0x40c>)
10001f30:	f001 fb89 	bl	10003646 <__wrap___aeabi_ddiv>
10001f34:	0006      	movs	r6, r0
10001f36:	000f      	movs	r7, r1
10001f38:	9d0d      	ldr	r5, [sp, #52]	; 0x34
10001f3a:	24c6      	movs	r4, #198	; 0xc6
10001f3c:	002b      	movs	r3, r5
10001f3e:	3363      	adds	r3, #99	; 0x63
10001f40:	429c      	cmp	r4, r3
10001f42:	41a4      	sbcs	r4, r4
10001f44:	9b28      	ldr	r3, [sp, #160]	; 0xa0
10001f46:	4264      	negs	r4, r4
10001f48:	3404      	adds	r4, #4
10001f4a:	051b      	lsls	r3, r3, #20
10001f4c:	d51f      	bpl.n	10001f8e <_etoa+0x23e>
10001f4e:	4a86      	ldr	r2, [pc, #536]	; (10002168 <_etoa+0x418>)
10001f50:	4b86      	ldr	r3, [pc, #536]	; (1000216c <_etoa+0x41c>)
10001f52:	980a      	ldr	r0, [sp, #40]	; 0x28
10001f54:	9909      	ldr	r1, [sp, #36]	; 0x24
10001f56:	f001 fbcf 	bl	100036f8 <__wrap___aeabi_dcmpge>
10001f5a:	2800      	cmp	r0, #0
10001f5c:	d100      	bne.n	10001f60 <_etoa+0x210>
10001f5e:	e0cc      	b.n	100020fa <_etoa+0x3aa>
10001f60:	2200      	movs	r2, #0
10001f62:	4b83      	ldr	r3, [pc, #524]	; (10002170 <_etoa+0x420>)
10001f64:	980a      	ldr	r0, [sp, #40]	; 0x28
10001f66:	9909      	ldr	r1, [sp, #36]	; 0x24
10001f68:	f001 fbb8 	bl	100036dc <__wrap___aeabi_dcmplt>
10001f6c:	2800      	cmp	r0, #0
10001f6e:	d100      	bne.n	10001f72 <_etoa+0x222>
10001f70:	e0c3      	b.n	100020fa <_etoa+0x3aa>
10001f72:	9a26      	ldr	r2, [sp, #152]	; 0x98
10001f74:	4295      	cmp	r5, r2
10001f76:	da00      	bge.n	10001f7a <_etoa+0x22a>
10001f78:	e10b      	b.n	10002192 <_etoa+0x442>
10001f7a:	2300      	movs	r3, #0
10001f7c:	9326      	str	r3, [sp, #152]	; 0x98
10001f7e:	2380      	movs	r3, #128	; 0x80
10001f80:	9a28      	ldr	r2, [sp, #160]	; 0xa0
10001f82:	00db      	lsls	r3, r3, #3
10001f84:	431a      	orrs	r2, r3
10001f86:	2300      	movs	r3, #0
10001f88:	2400      	movs	r4, #0
10001f8a:	9228      	str	r2, [sp, #160]	; 0xa0
10001f8c:	930d      	str	r3, [sp, #52]	; 0x34
10001f8e:	9b27      	ldr	r3, [sp, #156]	; 0x9c
10001f90:	2500      	movs	r5, #0
10001f92:	42a3      	cmp	r3, r4
10001f94:	d900      	bls.n	10001f98 <_etoa+0x248>
10001f96:	1b1d      	subs	r5, r3, r4
10001f98:	2302      	movs	r3, #2
10001f9a:	9a28      	ldr	r2, [sp, #160]	; 0xa0
10001f9c:	401a      	ands	r2, r3
10001f9e:	9210      	str	r2, [sp, #64]	; 0x40
10001fa0:	9a28      	ldr	r2, [sp, #160]	; 0xa0
10001fa2:	4213      	tst	r3, r2
10001fa4:	d003      	beq.n	10001fae <_etoa+0x25e>
10001fa6:	4263      	negs	r3, r4
10001fa8:	4163      	adcs	r3, r4
10001faa:	425b      	negs	r3, r3
10001fac:	401d      	ands	r5, r3
10001fae:	9b0d      	ldr	r3, [sp, #52]	; 0x34
10001fb0:	2b00      	cmp	r3, #0
10001fb2:	d007      	beq.n	10001fc4 <_etoa+0x274>
10001fb4:	980a      	ldr	r0, [sp, #40]	; 0x28
10001fb6:	9909      	ldr	r1, [sp, #36]	; 0x24
10001fb8:	0032      	movs	r2, r6
10001fba:	003b      	movs	r3, r7
10001fbc:	f001 fb43 	bl	10003646 <__wrap___aeabi_ddiv>
10001fc0:	900a      	str	r0, [sp, #40]	; 0x28
10001fc2:	9109      	str	r1, [sp, #36]	; 0x24
10001fc4:	2200      	movs	r2, #0
10001fc6:	2300      	movs	r3, #0
10001fc8:	4648      	mov	r0, r9
10001fca:	4641      	mov	r1, r8
10001fcc:	f001 fb86 	bl	100036dc <__wrap___aeabi_dcmplt>
10001fd0:	2800      	cmp	r0, #0
10001fd2:	d005      	beq.n	10001fe0 <_etoa+0x290>
10001fd4:	2080      	movs	r0, #128	; 0x80
10001fd6:	0600      	lsls	r0, r0, #24
10001fd8:	4684      	mov	ip, r0
10001fda:	9909      	ldr	r1, [sp, #36]	; 0x24
10001fdc:	4461      	add	r1, ip
10001fde:	9109      	str	r1, [sp, #36]	; 0x24
10001fe0:	9a28      	ldr	r2, [sp, #160]	; 0xa0
10001fe2:	4b64      	ldr	r3, [pc, #400]	; (10002174 <_etoa+0x424>)
10001fe4:	9e0b      	ldr	r6, [sp, #44]	; 0x2c
10001fe6:	4013      	ands	r3, r2
10001fe8:	9304      	str	r3, [sp, #16]
10001fea:	9b26      	ldr	r3, [sp, #152]	; 0x98
10001fec:	9a0a      	ldr	r2, [sp, #40]	; 0x28
10001fee:	9302      	str	r3, [sp, #8]
10001ff0:	9b09      	ldr	r3, [sp, #36]	; 0x24
10001ff2:	9503      	str	r5, [sp, #12]
10001ff4:	9200      	str	r2, [sp, #0]
10001ff6:	9301      	str	r3, [sp, #4]
10001ff8:	4659      	mov	r1, fp
10001ffa:	4653      	mov	r3, sl
10001ffc:	0030      	movs	r0, r6
10001ffe:	9a0c      	ldr	r2, [sp, #48]	; 0x30
10002000:	f000 f8cc 	bl	1000219c <_ftoa>
10002004:	0005      	movs	r5, r0
10002006:	2c00      	cmp	r4, #0
10002008:	d06f      	beq.n	100020ea <_etoa+0x39a>
1000200a:	9b28      	ldr	r3, [sp, #160]	; 0xa0
1000200c:	002a      	movs	r2, r5
1000200e:	0698      	lsls	r0, r3, #26
10002010:	231f      	movs	r3, #31
10002012:	17c0      	asrs	r0, r0, #31
10002014:	4398      	bics	r0, r3
10002016:	1c6b      	adds	r3, r5, #1
10002018:	4698      	mov	r8, r3
1000201a:	4659      	mov	r1, fp
1000201c:	4653      	mov	r3, sl
1000201e:	3065      	adds	r0, #101	; 0x65
10002020:	47b0      	blx	r6
10002022:	9b0d      	ldr	r3, [sp, #52]	; 0x34
10002024:	2600      	movs	r6, #0
10002026:	17da      	asrs	r2, r3, #31
10002028:	189d      	adds	r5, r3, r2
1000202a:	0fdb      	lsrs	r3, r3, #31
1000202c:	4699      	mov	r9, r3
1000202e:	4055      	eors	r5, r2
10002030:	3c01      	subs	r4, #1
10002032:	e001      	b.n	10002038 <_etoa+0x2e8>
10002034:	2e20      	cmp	r6, #32
10002036:	d013      	beq.n	10002060 <_etoa+0x310>
10002038:	aa0a      	add	r2, sp, #40	; 0x28
1000203a:	4694      	mov	ip, r2
1000203c:	231f      	movs	r3, #31
1000203e:	0028      	movs	r0, r5
10002040:	4463      	add	r3, ip
10002042:	210a      	movs	r1, #10
10002044:	3601      	adds	r6, #1
10002046:	199f      	adds	r7, r3, r6
10002048:	f001 f8a6 	bl	10003198 <__wrap___aeabi_uidiv>
1000204c:	3130      	adds	r1, #48	; 0x30
1000204e:	7039      	strb	r1, [r7, #0]
10002050:	0028      	movs	r0, r5
10002052:	210a      	movs	r1, #10
10002054:	f001 f8a0 	bl	10003198 <__wrap___aeabi_uidiv>
10002058:	002f      	movs	r7, r5
1000205a:	0005      	movs	r5, r0
1000205c:	2f09      	cmp	r7, #9
1000205e:	d8e9      	bhi.n	10002034 <_etoa+0x2e4>
10002060:	2305      	movs	r3, #5
10002062:	9306      	str	r3, [sp, #24]
10002064:	2300      	movs	r3, #0
10002066:	9304      	str	r3, [sp, #16]
10002068:	330a      	adds	r3, #10
1000206a:	9303      	str	r3, [sp, #12]
1000206c:	464b      	mov	r3, r9
1000206e:	9601      	str	r6, [sp, #4]
10002070:	9e0b      	ldr	r6, [sp, #44]	; 0x2c
10002072:	9302      	str	r3, [sp, #8]
10002074:	ab12      	add	r3, sp, #72	; 0x48
10002076:	9300      	str	r3, [sp, #0]
10002078:	4642      	mov	r2, r8
1000207a:	4653      	mov	r3, sl
1000207c:	4659      	mov	r1, fp
1000207e:	0030      	movs	r0, r6
10002080:	9405      	str	r4, [sp, #20]
10002082:	f7ff fd6d 	bl	10001b60 <_ntoa_format>
10002086:	9b10      	ldr	r3, [sp, #64]	; 0x40
10002088:	0005      	movs	r5, r0
1000208a:	2b00      	cmp	r3, #0
1000208c:	d02d      	beq.n	100020ea <_etoa+0x39a>
1000208e:	9b0c      	ldr	r3, [sp, #48]	; 0x30
10002090:	9a27      	ldr	r2, [sp, #156]	; 0x9c
10002092:	1ac4      	subs	r4, r0, r3
10002094:	42a2      	cmp	r2, r4
10002096:	d928      	bls.n	100020ea <_etoa+0x39a>
10002098:	4681      	mov	r9, r0
1000209a:	465d      	mov	r5, fp
1000209c:	4698      	mov	r8, r3
1000209e:	0017      	movs	r7, r2
100020a0:	4643      	mov	r3, r8
100020a2:	0029      	movs	r1, r5
100020a4:	191a      	adds	r2, r3, r4
100020a6:	2020      	movs	r0, #32
100020a8:	4653      	mov	r3, sl
100020aa:	3401      	adds	r4, #1
100020ac:	47b0      	blx	r6
100020ae:	42a7      	cmp	r7, r4
100020b0:	d8f6      	bhi.n	100020a0 <_etoa+0x350>
100020b2:	464d      	mov	r5, r9
100020b4:	990c      	ldr	r1, [sp, #48]	; 0x30
100020b6:	9827      	ldr	r0, [sp, #156]	; 0x9c
100020b8:	1a6b      	subs	r3, r5, r1
100020ba:	3301      	adds	r3, #1
100020bc:	2200      	movs	r2, #0
100020be:	4298      	cmp	r0, r3
100020c0:	d261      	bcs.n	10002186 <_etoa+0x436>
100020c2:	3501      	adds	r5, #1
100020c4:	1955      	adds	r5, r2, r5
100020c6:	e010      	b.n	100020ea <_etoa+0x39a>
100020c8:	9b28      	ldr	r3, [sp, #160]	; 0xa0
100020ca:	464a      	mov	r2, r9
100020cc:	9304      	str	r3, [sp, #16]
100020ce:	9b27      	ldr	r3, [sp, #156]	; 0x9c
100020d0:	4659      	mov	r1, fp
100020d2:	9303      	str	r3, [sp, #12]
100020d4:	9b26      	ldr	r3, [sp, #152]	; 0x98
100020d6:	980b      	ldr	r0, [sp, #44]	; 0x2c
100020d8:	9302      	str	r3, [sp, #8]
100020da:	4643      	mov	r3, r8
100020dc:	9200      	str	r2, [sp, #0]
100020de:	9301      	str	r3, [sp, #4]
100020e0:	4653      	mov	r3, sl
100020e2:	9a0c      	ldr	r2, [sp, #48]	; 0x30
100020e4:	f000 f85a 	bl	1000219c <_ftoa>
100020e8:	0005      	movs	r5, r0
100020ea:	0028      	movs	r0, r5
100020ec:	b01b      	add	sp, #108	; 0x6c
100020ee:	bc3c      	pop	{r2, r3, r4, r5}
100020f0:	4690      	mov	r8, r2
100020f2:	4699      	mov	r9, r3
100020f4:	46a2      	mov	sl, r4
100020f6:	46ab      	mov	fp, r5
100020f8:	bdf0      	pop	{r4, r5, r6, r7, pc}
100020fa:	9b26      	ldr	r3, [sp, #152]	; 0x98
100020fc:	2b00      	cmp	r3, #0
100020fe:	d100      	bne.n	10002102 <_etoa+0x3b2>
10002100:	e745      	b.n	10001f8e <_etoa+0x23e>
10002102:	9b11      	ldr	r3, [sp, #68]	; 0x44
10002104:	1e5a      	subs	r2, r3, #1
10002106:	4193      	sbcs	r3, r2
10002108:	9a26      	ldr	r2, [sp, #152]	; 0x98
1000210a:	1ad3      	subs	r3, r2, r3
1000210c:	9326      	str	r3, [sp, #152]	; 0x98
1000210e:	e73e      	b.n	10001f8e <_etoa+0x23e>
10002110:	7fefffff 	.word	0x7fefffff
10002114:	ffefffff 	.word	0xffefffff
10002118:	fffffc01 	.word	0xfffffc01
1000211c:	509f79fb 	.word	0x509f79fb
10002120:	3fd34413 	.word	0x3fd34413
10002124:	8b60c8b3 	.word	0x8b60c8b3
10002128:	3fc68a28 	.word	0x3fc68a28
1000212c:	3ff00000 	.word	0x3ff00000
10002130:	3ff80000 	.word	0x3ff80000
10002134:	636f4361 	.word	0x636f4361
10002138:	3fd287a7 	.word	0x3fd287a7
1000213c:	0979a371 	.word	0x0979a371
10002140:	400a934f 	.word	0x400a934f
10002144:	3fe00000 	.word	0x3fe00000
10002148:	bbb55516 	.word	0xbbb55516
1000214c:	40026bb1 	.word	0x40026bb1
10002150:	fefa39ef 	.word	0xfefa39ef
10002154:	3fe62e42 	.word	0x3fe62e42
10002158:	402c0000 	.word	0x402c0000
1000215c:	40240000 	.word	0x40240000
10002160:	40180000 	.word	0x40180000
10002164:	000003ff 	.word	0x000003ff
10002168:	eb1c432d 	.word	0xeb1c432d
1000216c:	3f1a36e2 	.word	0x3f1a36e2
10002170:	412e8480 	.word	0x412e8480
10002174:	fffff7ff 	.word	0xfffff7ff
10002178:	464b      	mov	r3, r9
1000217a:	930a      	str	r3, [sp, #40]	; 0x28
1000217c:	2380      	movs	r3, #128	; 0x80
1000217e:	061b      	lsls	r3, r3, #24
10002180:	4443      	add	r3, r8
10002182:	9309      	str	r3, [sp, #36]	; 0x24
10002184:	e61d      	b.n	10001dc2 <_etoa+0x72>
10002186:	000a      	movs	r2, r1
10002188:	4684      	mov	ip, r0
1000218a:	3a01      	subs	r2, #1
1000218c:	4462      	add	r2, ip
1000218e:	1b52      	subs	r2, r2, r5
10002190:	e797      	b.n	100020c2 <_etoa+0x372>
10002192:	1b50      	subs	r0, r2, r5
10002194:	1e43      	subs	r3, r0, #1
10002196:	9326      	str	r3, [sp, #152]	; 0x98
10002198:	e6f1      	b.n	10001f7e <_etoa+0x22e>
1000219a:	46c0      	nop			; (mov r8, r8)

1000219c <_ftoa>:
1000219c:	b5f0      	push	{r4, r5, r6, r7, lr}
1000219e:	464e      	mov	r6, r9
100021a0:	46de      	mov	lr, fp
100021a2:	4657      	mov	r7, sl
100021a4:	4645      	mov	r5, r8
100021a6:	b5e0      	push	{r5, r6, r7, lr}
100021a8:	b097      	sub	sp, #92	; 0x5c
100021aa:	4699      	mov	r9, r3
100021ac:	9e20      	ldr	r6, [sp, #128]	; 0x80
100021ae:	9f21      	ldr	r7, [sp, #132]	; 0x84
100021b0:	9b22      	ldr	r3, [sp, #136]	; 0x88
100021b2:	4683      	mov	fp, r0
100021b4:	4698      	mov	r8, r3
100021b6:	9107      	str	r1, [sp, #28]
100021b8:	920c      	str	r2, [sp, #48]	; 0x30
100021ba:	003b      	movs	r3, r7
100021bc:	0032      	movs	r2, r6
100021be:	0030      	movs	r0, r6
100021c0:	0039      	movs	r1, r7
100021c2:	f001 faa6 	bl	10003712 <__wrap___aeabi_dcmpun>
100021c6:	2800      	cmp	r0, #0
100021c8:	d000      	beq.n	100021cc <_ftoa+0x30>
100021ca:	e1c1      	b.n	10002550 <_ftoa+0x3b4>
100021cc:	2201      	movs	r2, #1
100021ce:	0030      	movs	r0, r6
100021d0:	0039      	movs	r1, r7
100021d2:	4bca      	ldr	r3, [pc, #808]	; (100024fc <_ftoa+0x360>)
100021d4:	4252      	negs	r2, r2
100021d6:	f001 fa81 	bl	100036dc <__wrap___aeabi_dcmplt>
100021da:	2800      	cmp	r0, #0
100021dc:	d000      	beq.n	100021e0 <_ftoa+0x44>
100021de:	e0e0      	b.n	100023a2 <_ftoa+0x206>
100021e0:	2201      	movs	r2, #1
100021e2:	0030      	movs	r0, r6
100021e4:	0039      	movs	r1, r7
100021e6:	4bc6      	ldr	r3, [pc, #792]	; (10002500 <_ftoa+0x364>)
100021e8:	4252      	negs	r2, r2
100021ea:	f001 fa8d 	bl	10003708 <__wrap___aeabi_dcmpgt>
100021ee:	2800      	cmp	r0, #0
100021f0:	d000      	beq.n	100021f4 <_ftoa+0x58>
100021f2:	e0b6      	b.n	10002362 <_ftoa+0x1c6>
100021f4:	2200      	movs	r2, #0
100021f6:	0030      	movs	r0, r6
100021f8:	0039      	movs	r1, r7
100021fa:	4bc2      	ldr	r3, [pc, #776]	; (10002504 <_ftoa+0x368>)
100021fc:	f001 fa84 	bl	10003708 <__wrap___aeabi_dcmpgt>
10002200:	2800      	cmp	r0, #0
10002202:	d000      	beq.n	10002206 <_ftoa+0x6a>
10002204:	e098      	b.n	10002338 <_ftoa+0x19c>
10002206:	2200      	movs	r2, #0
10002208:	0030      	movs	r0, r6
1000220a:	0039      	movs	r1, r7
1000220c:	4bbe      	ldr	r3, [pc, #760]	; (10002508 <_ftoa+0x36c>)
1000220e:	f001 fa65 	bl	100036dc <__wrap___aeabi_dcmplt>
10002212:	2800      	cmp	r0, #0
10002214:	d000      	beq.n	10002218 <_ftoa+0x7c>
10002216:	e08f      	b.n	10002338 <_ftoa+0x19c>
10002218:	2200      	movs	r2, #0
1000221a:	2300      	movs	r3, #0
1000221c:	0030      	movs	r0, r6
1000221e:	0039      	movs	r1, r7
10002220:	f001 fa5c 	bl	100036dc <__wrap___aeabi_dcmplt>
10002224:	2800      	cmp	r0, #0
10002226:	d000      	beq.n	1000222a <_ftoa+0x8e>
10002228:	e0b0      	b.n	1000238c <_ftoa+0x1f0>
1000222a:	2300      	movs	r3, #0
1000222c:	930d      	str	r3, [sp, #52]	; 0x34
1000222e:	9b24      	ldr	r3, [sp, #144]	; 0x90
10002230:	055b      	lsls	r3, r3, #21
10002232:	d401      	bmi.n	10002238 <_ftoa+0x9c>
10002234:	2306      	movs	r3, #6
10002236:	4698      	mov	r8, r3
10002238:	ab08      	add	r3, sp, #32
1000223a:	469c      	mov	ip, r3
1000223c:	2217      	movs	r2, #23
1000223e:	2400      	movs	r4, #0
10002240:	2330      	movs	r3, #48	; 0x30
10002242:	4641      	mov	r1, r8
10002244:	4462      	add	r2, ip
10002246:	e004      	b.n	10002252 <_ftoa+0xb6>
10002248:	3401      	adds	r4, #1
1000224a:	5513      	strb	r3, [r2, r4]
1000224c:	3901      	subs	r1, #1
1000224e:	2c20      	cmp	r4, #32
10002250:	d001      	beq.n	10002256 <_ftoa+0xba>
10002252:	2909      	cmp	r1, #9
10002254:	d8f8      	bhi.n	10002248 <_ftoa+0xac>
10002256:	4688      	mov	r8, r1
10002258:	0030      	movs	r0, r6
1000225a:	0039      	movs	r1, r7
1000225c:	f001 fa84 	bl	10003768 <__wrap___aeabi_d2iz>
10002260:	4643      	mov	r3, r8
10002262:	00da      	lsls	r2, r3, #3
10002264:	4ba9      	ldr	r3, [pc, #676]	; (1000250c <_ftoa+0x370>)
10002266:	0005      	movs	r5, r0
10002268:	189b      	adds	r3, r3, r2
1000226a:	681a      	ldr	r2, [r3, #0]
1000226c:	685b      	ldr	r3, [r3, #4]
1000226e:	9208      	str	r2, [sp, #32]
10002270:	9309      	str	r3, [sp, #36]	; 0x24
10002272:	f001 fa61 	bl	10003738 <__wrap___aeabi_i2d>
10002276:	0002      	movs	r2, r0
10002278:	000b      	movs	r3, r1
1000227a:	0030      	movs	r0, r6
1000227c:	0039      	movs	r1, r7
1000227e:	f001 f9d0 	bl	10003622 <__wrap___aeabi_dsub>
10002282:	9a08      	ldr	r2, [sp, #32]
10002284:	9b09      	ldr	r3, [sp, #36]	; 0x24
10002286:	f001 f9e7 	bl	10003658 <__wrap___aeabi_dmul>
1000228a:	900a      	str	r0, [sp, #40]	; 0x28
1000228c:	910b      	str	r1, [sp, #44]	; 0x2c
1000228e:	f001 fa8f 	bl	100037b0 <__wrap___aeabi_d2uiz>
10002292:	4682      	mov	sl, r0
10002294:	f001 fa4c 	bl	10003730 <__wrap___aeabi_ui2d>
10002298:	0002      	movs	r2, r0
1000229a:	000b      	movs	r3, r1
1000229c:	980a      	ldr	r0, [sp, #40]	; 0x28
1000229e:	990b      	ldr	r1, [sp, #44]	; 0x2c
100022a0:	f001 f9bf 	bl	10003622 <__wrap___aeabi_dsub>
100022a4:	2200      	movs	r2, #0
100022a6:	4b9a      	ldr	r3, [pc, #616]	; (10002510 <_ftoa+0x374>)
100022a8:	900a      	str	r0, [sp, #40]	; 0x28
100022aa:	910b      	str	r1, [sp, #44]	; 0x2c
100022ac:	f001 fa2c 	bl	10003708 <__wrap___aeabi_dcmpgt>
100022b0:	2800      	cmp	r0, #0
100022b2:	d100      	bne.n	100022b6 <_ftoa+0x11a>
100022b4:	e0c0      	b.n	10002438 <_ftoa+0x29c>
100022b6:	2301      	movs	r3, #1
100022b8:	469c      	mov	ip, r3
100022ba:	44e2      	add	sl, ip
100022bc:	4650      	mov	r0, sl
100022be:	f001 fa37 	bl	10003730 <__wrap___aeabi_ui2d>
100022c2:	0002      	movs	r2, r0
100022c4:	000b      	movs	r3, r1
100022c6:	9808      	ldr	r0, [sp, #32]
100022c8:	9909      	ldr	r1, [sp, #36]	; 0x24
100022ca:	f001 fa0d 	bl	100036e8 <__wrap___aeabi_dcmple>
100022ce:	2800      	cmp	r0, #0
100022d0:	d002      	beq.n	100022d8 <_ftoa+0x13c>
100022d2:	2300      	movs	r3, #0
100022d4:	469a      	mov	sl, r3
100022d6:	3501      	adds	r5, #1
100022d8:	4643      	mov	r3, r8
100022da:	2b00      	cmp	r3, #0
100022dc:	d069      	beq.n	100023b2 <_ftoa+0x216>
100022de:	ab08      	add	r3, sp, #32
100022e0:	2617      	movs	r6, #23
100022e2:	469c      	mov	ip, r3
100022e4:	9508      	str	r5, [sp, #32]
100022e6:	4466      	add	r6, ip
100022e8:	4655      	mov	r5, sl
100022ea:	e014      	b.n	10002316 <_ftoa+0x17a>
100022ec:	2301      	movs	r3, #1
100022ee:	425b      	negs	r3, r3
100022f0:	4443      	add	r3, r8
100022f2:	210a      	movs	r1, #10
100022f4:	0028      	movs	r0, r5
100022f6:	469a      	mov	sl, r3
100022f8:	f000 ff4e 	bl	10003198 <__wrap___aeabi_uidiv>
100022fc:	3401      	adds	r4, #1
100022fe:	3130      	adds	r1, #48	; 0x30
10002300:	1937      	adds	r7, r6, r4
10002302:	7039      	strb	r1, [r7, #0]
10002304:	0028      	movs	r0, r5
10002306:	210a      	movs	r1, #10
10002308:	f000 ff46 	bl	10003198 <__wrap___aeabi_uidiv>
1000230c:	2d09      	cmp	r5, #9
1000230e:	d800      	bhi.n	10002312 <_ftoa+0x176>
10002310:	e0d5      	b.n	100024be <_ftoa+0x322>
10002312:	46d0      	mov	r8, sl
10002314:	0005      	movs	r5, r0
10002316:	2c20      	cmp	r4, #32
10002318:	d1e8      	bne.n	100022ec <_ftoa+0x150>
1000231a:	2303      	movs	r3, #3
1000231c:	9a24      	ldr	r2, [sp, #144]	; 0x90
1000231e:	4013      	ands	r3, r2
10002320:	2b01      	cmp	r3, #1
10002322:	d100      	bne.n	10002326 <_ftoa+0x18a>
10002324:	e100      	b.n	10002528 <_ftoa+0x38c>
10002326:	ab0e      	add	r3, sp, #56	; 0x38
10002328:	4698      	mov	r8, r3
1000232a:	9b24      	ldr	r3, [sp, #144]	; 0x90
1000232c:	9401      	str	r4, [sp, #4]
1000232e:	9303      	str	r3, [sp, #12]
10002330:	9b23      	ldr	r3, [sp, #140]	; 0x8c
10002332:	9302      	str	r3, [sp, #8]
10002334:	4643      	mov	r3, r8
10002336:	e01e      	b.n	10002376 <_ftoa+0x1da>
10002338:	9b24      	ldr	r3, [sp, #144]	; 0x90
1000233a:	4658      	mov	r0, fp
1000233c:	9304      	str	r3, [sp, #16]
1000233e:	9b23      	ldr	r3, [sp, #140]	; 0x8c
10002340:	9600      	str	r6, [sp, #0]
10002342:	9701      	str	r7, [sp, #4]
10002344:	9303      	str	r3, [sp, #12]
10002346:	4643      	mov	r3, r8
10002348:	9a0c      	ldr	r2, [sp, #48]	; 0x30
1000234a:	9302      	str	r3, [sp, #8]
1000234c:	9907      	ldr	r1, [sp, #28]
1000234e:	464b      	mov	r3, r9
10002350:	f7ff fcfe 	bl	10001d50 <_etoa>
10002354:	b017      	add	sp, #92	; 0x5c
10002356:	bc3c      	pop	{r2, r3, r4, r5}
10002358:	4690      	mov	r8, r2
1000235a:	4699      	mov	r9, r3
1000235c:	46a2      	mov	sl, r4
1000235e:	46ab      	mov	fp, r5
10002360:	bdf0      	pop	{r4, r5, r6, r7, pc}
10002362:	9b24      	ldr	r3, [sp, #144]	; 0x90
10002364:	075b      	lsls	r3, r3, #29
10002366:	d40e      	bmi.n	10002386 <_ftoa+0x1ea>
10002368:	2203      	movs	r2, #3
1000236a:	4b6a      	ldr	r3, [pc, #424]	; (10002514 <_ftoa+0x378>)
1000236c:	9924      	ldr	r1, [sp, #144]	; 0x90
1000236e:	9201      	str	r2, [sp, #4]
10002370:	9103      	str	r1, [sp, #12]
10002372:	9923      	ldr	r1, [sp, #140]	; 0x8c
10002374:	9102      	str	r1, [sp, #8]
10002376:	9300      	str	r3, [sp, #0]
10002378:	4658      	mov	r0, fp
1000237a:	464b      	mov	r3, r9
1000237c:	9a0c      	ldr	r2, [sp, #48]	; 0x30
1000237e:	9907      	ldr	r1, [sp, #28]
10002380:	f7ff fb86 	bl	10001a90 <_out_rev>
10002384:	e7e6      	b.n	10002354 <_ftoa+0x1b8>
10002386:	2204      	movs	r2, #4
10002388:	4b63      	ldr	r3, [pc, #396]	; (10002518 <_ftoa+0x37c>)
1000238a:	e7ef      	b.n	1000236c <_ftoa+0x1d0>
1000238c:	003b      	movs	r3, r7
1000238e:	0032      	movs	r2, r6
10002390:	2000      	movs	r0, #0
10002392:	2100      	movs	r1, #0
10002394:	f001 f945 	bl	10003622 <__wrap___aeabi_dsub>
10002398:	2301      	movs	r3, #1
1000239a:	0006      	movs	r6, r0
1000239c:	000f      	movs	r7, r1
1000239e:	930d      	str	r3, [sp, #52]	; 0x34
100023a0:	e745      	b.n	1000222e <_ftoa+0x92>
100023a2:	9b24      	ldr	r3, [sp, #144]	; 0x90
100023a4:	9303      	str	r3, [sp, #12]
100023a6:	9b23      	ldr	r3, [sp, #140]	; 0x8c
100023a8:	9302      	str	r3, [sp, #8]
100023aa:	2304      	movs	r3, #4
100023ac:	9301      	str	r3, [sp, #4]
100023ae:	4b5b      	ldr	r3, [pc, #364]	; (1000251c <_ftoa+0x380>)
100023b0:	e7e1      	b.n	10002376 <_ftoa+0x1da>
100023b2:	0028      	movs	r0, r5
100023b4:	f001 f9c0 	bl	10003738 <__wrap___aeabi_i2d>
100023b8:	0002      	movs	r2, r0
100023ba:	000b      	movs	r3, r1
100023bc:	0030      	movs	r0, r6
100023be:	0039      	movs	r1, r7
100023c0:	f001 f92f 	bl	10003622 <__wrap___aeabi_dsub>
100023c4:	4b52      	ldr	r3, [pc, #328]	; (10002510 <_ftoa+0x374>)
100023c6:	2200      	movs	r2, #0
100023c8:	0006      	movs	r6, r0
100023ca:	000f      	movs	r7, r1
100023cc:	f001 f986 	bl	100036dc <__wrap___aeabi_dcmplt>
100023d0:	ab0e      	add	r3, sp, #56	; 0x38
100023d2:	4698      	mov	r8, r3
100023d4:	2800      	cmp	r0, #0
100023d6:	d10a      	bne.n	100023ee <_ftoa+0x252>
100023d8:	2200      	movs	r2, #0
100023da:	0030      	movs	r0, r6
100023dc:	0039      	movs	r1, r7
100023de:	4b4c      	ldr	r3, [pc, #304]	; (10002510 <_ftoa+0x374>)
100023e0:	f001 f992 	bl	10003708 <__wrap___aeabi_dcmpgt>
100023e4:	2800      	cmp	r0, #0
100023e6:	d102      	bne.n	100023ee <_ftoa+0x252>
100023e8:	07eb      	lsls	r3, r5, #31
100023ea:	d500      	bpl.n	100023ee <_ftoa+0x252>
100023ec:	3501      	adds	r5, #1
100023ee:	2c20      	cmp	r4, #32
100023f0:	d032      	beq.n	10002458 <_ftoa+0x2bc>
100023f2:	aa08      	add	r2, sp, #32
100023f4:	4694      	mov	ip, r2
100023f6:	2317      	movs	r3, #23
100023f8:	0028      	movs	r0, r5
100023fa:	4463      	add	r3, ip
100023fc:	210a      	movs	r1, #10
100023fe:	3401      	adds	r4, #1
10002400:	191e      	adds	r6, r3, r4
10002402:	f000 fe9d 	bl	10003140 <__wrap___aeabi_idiv>
10002406:	3130      	adds	r1, #48	; 0x30
10002408:	0028      	movs	r0, r5
1000240a:	7031      	strb	r1, [r6, #0]
1000240c:	210a      	movs	r1, #10
1000240e:	f000 fe97 	bl	10003140 <__wrap___aeabi_idiv>
10002412:	1e05      	subs	r5, r0, #0
10002414:	d1eb      	bne.n	100023ee <_ftoa+0x252>
10002416:	2303      	movs	r3, #3
10002418:	9a24      	ldr	r2, [sp, #144]	; 0x90
1000241a:	4013      	ands	r3, r2
1000241c:	2b01      	cmp	r3, #1
1000241e:	d100      	bne.n	10002422 <_ftoa+0x286>
10002420:	e091      	b.n	10002546 <_ftoa+0x3aa>
10002422:	2c1f      	cmp	r4, #31
10002424:	d900      	bls.n	10002428 <_ftoa+0x28c>
10002426:	e780      	b.n	1000232a <_ftoa+0x18e>
10002428:	9b0d      	ldr	r3, [sp, #52]	; 0x34
1000242a:	2b00      	cmp	r3, #0
1000242c:	d03b      	beq.n	100024a6 <_ftoa+0x30a>
1000242e:	232d      	movs	r3, #45	; 0x2d
10002430:	4642      	mov	r2, r8
10002432:	5513      	strb	r3, [r2, r4]
10002434:	3401      	adds	r4, #1
10002436:	e778      	b.n	1000232a <_ftoa+0x18e>
10002438:	2200      	movs	r2, #0
1000243a:	980a      	ldr	r0, [sp, #40]	; 0x28
1000243c:	990b      	ldr	r1, [sp, #44]	; 0x2c
1000243e:	4b34      	ldr	r3, [pc, #208]	; (10002510 <_ftoa+0x374>)
10002440:	f001 f94c 	bl	100036dc <__wrap___aeabi_dcmplt>
10002444:	2800      	cmp	r0, #0
10002446:	d000      	beq.n	1000244a <_ftoa+0x2ae>
10002448:	e746      	b.n	100022d8 <_ftoa+0x13c>
1000244a:	4653      	mov	r3, sl
1000244c:	2b00      	cmp	r3, #0
1000244e:	d167      	bne.n	10002520 <_ftoa+0x384>
10002450:	2301      	movs	r3, #1
10002452:	469c      	mov	ip, r3
10002454:	44e2      	add	sl, ip
10002456:	e73f      	b.n	100022d8 <_ftoa+0x13c>
10002458:	2303      	movs	r3, #3
1000245a:	9a24      	ldr	r2, [sp, #144]	; 0x90
1000245c:	4013      	ands	r3, r2
1000245e:	2b01      	cmp	r3, #1
10002460:	d000      	beq.n	10002464 <_ftoa+0x2c8>
10002462:	e762      	b.n	1000232a <_ftoa+0x18e>
10002464:	9b23      	ldr	r3, [sp, #140]	; 0x8c
10002466:	2b00      	cmp	r3, #0
10002468:	d100      	bne.n	1000246c <_ftoa+0x2d0>
1000246a:	e75e      	b.n	1000232a <_ftoa+0x18e>
1000246c:	9b0d      	ldr	r3, [sp, #52]	; 0x34
1000246e:	2b00      	cmp	r3, #0
10002470:	d103      	bne.n	1000247a <_ftoa+0x2de>
10002472:	9a24      	ldr	r2, [sp, #144]	; 0x90
10002474:	330c      	adds	r3, #12
10002476:	4213      	tst	r3, r2
10002478:	d002      	beq.n	10002480 <_ftoa+0x2e4>
1000247a:	9b23      	ldr	r3, [sp, #140]	; 0x8c
1000247c:	3b01      	subs	r3, #1
1000247e:	9323      	str	r3, [sp, #140]	; 0x8c
10002480:	9b23      	ldr	r3, [sp, #140]	; 0x8c
10002482:	429c      	cmp	r4, r3
10002484:	d2cd      	bcs.n	10002422 <_ftoa+0x286>
10002486:	ab08      	add	r3, sp, #32
10002488:	469c      	mov	ip, r3
1000248a:	2217      	movs	r2, #23
1000248c:	2330      	movs	r3, #48	; 0x30
1000248e:	4462      	add	r2, ip
10002490:	2c1f      	cmp	r4, #31
10002492:	d806      	bhi.n	100024a2 <_ftoa+0x306>
10002494:	9923      	ldr	r1, [sp, #140]	; 0x8c
10002496:	3401      	adds	r4, #1
10002498:	5513      	strb	r3, [r2, r4]
1000249a:	428c      	cmp	r4, r1
1000249c:	d0c1      	beq.n	10002422 <_ftoa+0x286>
1000249e:	2c20      	cmp	r4, #32
100024a0:	d1f8      	bne.n	10002494 <_ftoa+0x2f8>
100024a2:	2420      	movs	r4, #32
100024a4:	e741      	b.n	1000232a <_ftoa+0x18e>
100024a6:	9b24      	ldr	r3, [sp, #144]	; 0x90
100024a8:	075b      	lsls	r3, r3, #29
100024aa:	d421      	bmi.n	100024f0 <_ftoa+0x354>
100024ac:	9b24      	ldr	r3, [sp, #144]	; 0x90
100024ae:	071b      	lsls	r3, r3, #28
100024b0:	d400      	bmi.n	100024b4 <_ftoa+0x318>
100024b2:	e73a      	b.n	1000232a <_ftoa+0x18e>
100024b4:	2320      	movs	r3, #32
100024b6:	4642      	mov	r2, r8
100024b8:	5513      	strb	r3, [r2, r4]
100024ba:	3401      	adds	r4, #1
100024bc:	e735      	b.n	1000232a <_ftoa+0x18e>
100024be:	4657      	mov	r7, sl
100024c0:	9d08      	ldr	r5, [sp, #32]
100024c2:	2c20      	cmp	r4, #32
100024c4:	d037      	beq.n	10002536 <_ftoa+0x39a>
100024c6:	0022      	movs	r2, r4
100024c8:	2130      	movs	r1, #48	; 0x30
100024ca:	4640      	mov	r0, r8
100024cc:	2f00      	cmp	r7, #0
100024ce:	d008      	beq.n	100024e2 <_ftoa+0x346>
100024d0:	3201      	adds	r2, #1
100024d2:	54b1      	strb	r1, [r6, r2]
100024d4:	2a20      	cmp	r2, #32
100024d6:	d043      	beq.n	10002560 <_ftoa+0x3c4>
100024d8:	43d3      	mvns	r3, r2
100024da:	191b      	adds	r3, r3, r4
100024dc:	181b      	adds	r3, r3, r0
100024de:	2b00      	cmp	r3, #0
100024e0:	d1f6      	bne.n	100024d0 <_ftoa+0x334>
100024e2:	ab0e      	add	r3, sp, #56	; 0x38
100024e4:	4698      	mov	r8, r3
100024e6:	232e      	movs	r3, #46	; 0x2e
100024e8:	4641      	mov	r1, r8
100024ea:	1c54      	adds	r4, r2, #1
100024ec:	548b      	strb	r3, [r1, r2]
100024ee:	e77e      	b.n	100023ee <_ftoa+0x252>
100024f0:	232b      	movs	r3, #43	; 0x2b
100024f2:	4642      	mov	r2, r8
100024f4:	5513      	strb	r3, [r2, r4]
100024f6:	3401      	adds	r4, #1
100024f8:	e717      	b.n	1000232a <_ftoa+0x18e>
100024fa:	46c0      	nop			; (mov r8, r8)
100024fc:	ffefffff 	.word	0xffefffff
10002500:	7fefffff 	.word	0x7fefffff
10002504:	41cdcd65 	.word	0x41cdcd65
10002508:	c1cdcd65 	.word	0xc1cdcd65
1000250c:	100050e8 	.word	0x100050e8
10002510:	3fe00000 	.word	0x3fe00000
10002514:	10004eec 	.word	0x10004eec
10002518:	10004ef0 	.word	0x10004ef0
1000251c:	10004efc 	.word	0x10004efc
10002520:	07db      	lsls	r3, r3, #31
10002522:	d400      	bmi.n	10002526 <_ftoa+0x38a>
10002524:	e6d8      	b.n	100022d8 <_ftoa+0x13c>
10002526:	e793      	b.n	10002450 <_ftoa+0x2b4>
10002528:	9b23      	ldr	r3, [sp, #140]	; 0x8c
1000252a:	2b00      	cmp	r3, #0
1000252c:	d100      	bne.n	10002530 <_ftoa+0x394>
1000252e:	e6fa      	b.n	10002326 <_ftoa+0x18a>
10002530:	ab0e      	add	r3, sp, #56	; 0x38
10002532:	4698      	mov	r8, r3
10002534:	e79a      	b.n	1000246c <_ftoa+0x2d0>
10002536:	2303      	movs	r3, #3
10002538:	9a24      	ldr	r2, [sp, #144]	; 0x90
1000253a:	4013      	ands	r3, r2
1000253c:	2b01      	cmp	r3, #1
1000253e:	d000      	beq.n	10002542 <_ftoa+0x3a6>
10002540:	e6f1      	b.n	10002326 <_ftoa+0x18a>
10002542:	ab0e      	add	r3, sp, #56	; 0x38
10002544:	4698      	mov	r8, r3
10002546:	9b23      	ldr	r3, [sp, #140]	; 0x8c
10002548:	2b00      	cmp	r3, #0
1000254a:	d100      	bne.n	1000254e <_ftoa+0x3b2>
1000254c:	e769      	b.n	10002422 <_ftoa+0x286>
1000254e:	e78d      	b.n	1000246c <_ftoa+0x2d0>
10002550:	9b24      	ldr	r3, [sp, #144]	; 0x90
10002552:	9303      	str	r3, [sp, #12]
10002554:	9b23      	ldr	r3, [sp, #140]	; 0x8c
10002556:	9302      	str	r3, [sp, #8]
10002558:	2303      	movs	r3, #3
1000255a:	9301      	str	r3, [sp, #4]
1000255c:	4b06      	ldr	r3, [pc, #24]	; (10002578 <_ftoa+0x3dc>)
1000255e:	e70a      	b.n	10002376 <_ftoa+0x1da>
10002560:	2303      	movs	r3, #3
10002562:	9a24      	ldr	r2, [sp, #144]	; 0x90
10002564:	2420      	movs	r4, #32
10002566:	4013      	ands	r3, r2
10002568:	2b01      	cmp	r3, #1
1000256a:	d000      	beq.n	1000256e <_ftoa+0x3d2>
1000256c:	e6db      	b.n	10002326 <_ftoa+0x18a>
1000256e:	9b23      	ldr	r3, [sp, #140]	; 0x8c
10002570:	2420      	movs	r4, #32
10002572:	2b00      	cmp	r3, #0
10002574:	d1dc      	bne.n	10002530 <_ftoa+0x394>
10002576:	e6d6      	b.n	10002326 <_ftoa+0x18a>
10002578:	10004ef8 	.word	0x10004ef8

1000257c <_vsnprintf>:
1000257c:	b5f0      	push	{r4, r5, r6, r7, lr}
1000257e:	46de      	mov	lr, fp
10002580:	464e      	mov	r6, r9
10002582:	4657      	mov	r7, sl
10002584:	4645      	mov	r5, r8
10002586:	b5e0      	push	{r5, r6, r7, lr}
10002588:	b09f      	sub	sp, #124	; 0x7c
1000258a:	001c      	movs	r4, r3
1000258c:	9b28      	ldr	r3, [sp, #160]	; 0xa0
1000258e:	4693      	mov	fp, r2
10002590:	9309      	str	r3, [sp, #36]	; 0x24
10002592:	4acf      	ldr	r2, [pc, #828]	; (100028d0 <_vsnprintf+0x354>)
10002594:	4bcf      	ldr	r3, [pc, #828]	; (100028d4 <_vsnprintf+0x358>)
10002596:	4689      	mov	r9, r1
10002598:	9008      	str	r0, [sp, #32]
1000259a:	601a      	str	r2, [r3, #0]
1000259c:	2900      	cmp	r1, #0
1000259e:	d100      	bne.n	100025a2 <_vsnprintf+0x26>
100025a0:	e216      	b.n	100029d0 <_vsnprintf+0x454>
100025a2:	2300      	movs	r3, #0
100025a4:	7820      	ldrb	r0, [r4, #0]
100025a6:	469a      	mov	sl, r3
100025a8:	2800      	cmp	r0, #0
100025aa:	d100      	bne.n	100025ae <_vsnprintf+0x32>
100025ac:	e218      	b.n	100029e0 <_vsnprintf+0x464>
100025ae:	0026      	movs	r6, r4
100025b0:	001d      	movs	r5, r3
100025b2:	464c      	mov	r4, r9
100025b4:	e00a      	b.n	100025cc <_vsnprintf+0x50>
100025b6:	002a      	movs	r2, r5
100025b8:	1c6f      	adds	r7, r5, #1
100025ba:	465b      	mov	r3, fp
100025bc:	9d08      	ldr	r5, [sp, #32]
100025be:	0021      	movs	r1, r4
100025c0:	47a8      	blx	r5
100025c2:	003d      	movs	r5, r7
100025c4:	3601      	adds	r6, #1
100025c6:	7830      	ldrb	r0, [r6, #0]
100025c8:	2800      	cmp	r0, #0
100025ca:	d07a      	beq.n	100026c2 <_vsnprintf+0x146>
100025cc:	2825      	cmp	r0, #37	; 0x25
100025ce:	d1f2      	bne.n	100025b6 <_vsnprintf+0x3a>
100025d0:	2310      	movs	r3, #16
100025d2:	469a      	mov	sl, r3
100025d4:	3b08      	subs	r3, #8
100025d6:	4699      	mov	r9, r3
100025d8:	3b04      	subs	r3, #4
100025da:	4698      	mov	r8, r3
100025dc:	3b02      	subs	r3, #2
100025de:	2100      	movs	r1, #0
100025e0:	469c      	mov	ip, r3
100025e2:	1c72      	adds	r2, r6, #1
100025e4:	7810      	ldrb	r0, [r2, #0]
100025e6:	0016      	movs	r6, r2
100025e8:	0003      	movs	r3, r0
100025ea:	3b20      	subs	r3, #32
100025ec:	b2db      	uxtb	r3, r3
100025ee:	2b10      	cmp	r3, #16
100025f0:	d803      	bhi.n	100025fa <_vsnprintf+0x7e>
100025f2:	4fb9      	ldr	r7, [pc, #740]	; (100028d8 <_vsnprintf+0x35c>)
100025f4:	009b      	lsls	r3, r3, #2
100025f6:	58fb      	ldr	r3, [r7, r3]
100025f8:	469f      	mov	pc, r3
100025fa:	0003      	movs	r3, r0
100025fc:	3b30      	subs	r3, #48	; 0x30
100025fe:	2b09      	cmp	r3, #9
10002600:	d93c      	bls.n	1000267c <_vsnprintf+0x100>
10002602:	2300      	movs	r3, #0
10002604:	930a      	str	r3, [sp, #40]	; 0x28
10002606:	282a      	cmp	r0, #42	; 0x2a
10002608:	d100      	bne.n	1000260c <_vsnprintf+0x90>
1000260a:	e071      	b.n	100026f0 <_vsnprintf+0x174>
1000260c:	2300      	movs	r3, #0
1000260e:	4698      	mov	r8, r3
10002610:	282e      	cmp	r0, #46	; 0x2e
10002612:	d047      	beq.n	100026a4 <_vsnprintf+0x128>
10002614:	0003      	movs	r3, r0
10002616:	3b68      	subs	r3, #104	; 0x68
10002618:	b2db      	uxtb	r3, r3
1000261a:	2b12      	cmp	r3, #18
1000261c:	d81f      	bhi.n	1000265e <_vsnprintf+0xe2>
1000261e:	4aaf      	ldr	r2, [pc, #700]	; (100028dc <_vsnprintf+0x360>)
10002620:	009b      	lsls	r3, r3, #2
10002622:	58d3      	ldr	r3, [r2, r3]
10002624:	469f      	mov	pc, r3
10002626:	2301      	movs	r3, #1
10002628:	3201      	adds	r2, #1
1000262a:	4319      	orrs	r1, r3
1000262c:	e7da      	b.n	100025e4 <_vsnprintf+0x68>
1000262e:	4663      	mov	r3, ip
10002630:	3201      	adds	r2, #1
10002632:	4319      	orrs	r1, r3
10002634:	e7d6      	b.n	100025e4 <_vsnprintf+0x68>
10002636:	4643      	mov	r3, r8
10002638:	3201      	adds	r2, #1
1000263a:	4319      	orrs	r1, r3
1000263c:	e7d2      	b.n	100025e4 <_vsnprintf+0x68>
1000263e:	4653      	mov	r3, sl
10002640:	3201      	adds	r2, #1
10002642:	4319      	orrs	r1, r3
10002644:	e7ce      	b.n	100025e4 <_vsnprintf+0x68>
10002646:	464b      	mov	r3, r9
10002648:	3201      	adds	r2, #1
1000264a:	4319      	orrs	r1, r3
1000264c:	e7ca      	b.n	100025e4 <_vsnprintf+0x68>
1000264e:	7870      	ldrb	r0, [r6, #1]
10002650:	286c      	cmp	r0, #108	; 0x6c
10002652:	d100      	bne.n	10002656 <_vsnprintf+0xda>
10002654:	e2bf      	b.n	10002bd6 <_vsnprintf+0x65a>
10002656:	2380      	movs	r3, #128	; 0x80
10002658:	005b      	lsls	r3, r3, #1
1000265a:	4319      	orrs	r1, r3
1000265c:	3601      	adds	r6, #1
1000265e:	0003      	movs	r3, r0
10002660:	3b25      	subs	r3, #37	; 0x25
10002662:	b2db      	uxtb	r3, r3
10002664:	2b53      	cmp	r3, #83	; 0x53
10002666:	d8a6      	bhi.n	100025b6 <_vsnprintf+0x3a>
10002668:	4a9d      	ldr	r2, [pc, #628]	; (100028e0 <_vsnprintf+0x364>)
1000266a:	009b      	lsls	r3, r3, #2
1000266c:	58d3      	ldr	r3, [r2, r3]
1000266e:	469f      	mov	pc, r3
10002670:	2380      	movs	r3, #128	; 0x80
10002672:	005b      	lsls	r3, r3, #1
10002674:	7870      	ldrb	r0, [r6, #1]
10002676:	4319      	orrs	r1, r3
10002678:	3601      	adds	r6, #1
1000267a:	e7f0      	b.n	1000265e <_vsnprintf+0xe2>
1000267c:	2700      	movs	r7, #0
1000267e:	0003      	movs	r3, r0
10002680:	00b8      	lsls	r0, r7, #2
10002682:	19c0      	adds	r0, r0, r7
10002684:	3601      	adds	r6, #1
10002686:	0040      	lsls	r0, r0, #1
10002688:	18c0      	adds	r0, r0, r3
1000268a:	7833      	ldrb	r3, [r6, #0]
1000268c:	3830      	subs	r0, #48	; 0x30
1000268e:	001a      	movs	r2, r3
10002690:	3a30      	subs	r2, #48	; 0x30
10002692:	0007      	movs	r7, r0
10002694:	2a09      	cmp	r2, #9
10002696:	d9f3      	bls.n	10002680 <_vsnprintf+0x104>
10002698:	900a      	str	r0, [sp, #40]	; 0x28
1000269a:	0018      	movs	r0, r3
1000269c:	2300      	movs	r3, #0
1000269e:	4698      	mov	r8, r3
100026a0:	282e      	cmp	r0, #46	; 0x2e
100026a2:	d1b7      	bne.n	10002614 <_vsnprintf+0x98>
100026a4:	2380      	movs	r3, #128	; 0x80
100026a6:	7870      	ldrb	r0, [r6, #1]
100026a8:	00db      	lsls	r3, r3, #3
100026aa:	4319      	orrs	r1, r3
100026ac:	0003      	movs	r3, r0
100026ae:	3b30      	subs	r3, #48	; 0x30
100026b0:	1c72      	adds	r2, r6, #1
100026b2:	2b09      	cmp	r3, #9
100026b4:	d800      	bhi.n	100026b8 <_vsnprintf+0x13c>
100026b6:	e195      	b.n	100029e4 <_vsnprintf+0x468>
100026b8:	282a      	cmp	r0, #42	; 0x2a
100026ba:	d100      	bne.n	100026be <_vsnprintf+0x142>
100026bc:	e1a6      	b.n	10002a0c <_vsnprintf+0x490>
100026be:	0016      	movs	r6, r2
100026c0:	e7a8      	b.n	10002614 <_vsnprintf+0x98>
100026c2:	46a1      	mov	r9, r4
100026c4:	46aa      	mov	sl, r5
100026c6:	002c      	movs	r4, r5
100026c8:	45d3      	cmp	fp, sl
100026ca:	d803      	bhi.n	100026d4 <_vsnprintf+0x158>
100026cc:	2301      	movs	r3, #1
100026ce:	425b      	negs	r3, r3
100026d0:	445b      	add	r3, fp
100026d2:	469a      	mov	sl, r3
100026d4:	465b      	mov	r3, fp
100026d6:	4652      	mov	r2, sl
100026d8:	4649      	mov	r1, r9
100026da:	2000      	movs	r0, #0
100026dc:	9d08      	ldr	r5, [sp, #32]
100026de:	47a8      	blx	r5
100026e0:	0020      	movs	r0, r4
100026e2:	b01f      	add	sp, #124	; 0x7c
100026e4:	bc3c      	pop	{r2, r3, r4, r5}
100026e6:	4690      	mov	r8, r2
100026e8:	4699      	mov	r9, r3
100026ea:	46a2      	mov	sl, r4
100026ec:	46ab      	mov	fp, r5
100026ee:	bdf0      	pop	{r4, r5, r6, r7, pc}
100026f0:	9b09      	ldr	r3, [sp, #36]	; 0x24
100026f2:	cb40      	ldmia	r3!, {r6}
100026f4:	960a      	str	r6, [sp, #40]	; 0x28
100026f6:	2e00      	cmp	r6, #0
100026f8:	db03      	blt.n	10002702 <_vsnprintf+0x186>
100026fa:	7850      	ldrb	r0, [r2, #1]
100026fc:	9309      	str	r3, [sp, #36]	; 0x24
100026fe:	1c56      	adds	r6, r2, #1
10002700:	e784      	b.n	1000260c <_vsnprintf+0x90>
10002702:	3828      	subs	r0, #40	; 0x28
10002704:	4301      	orrs	r1, r0
10002706:	4270      	negs	r0, r6
10002708:	900a      	str	r0, [sp, #40]	; 0x28
1000270a:	9309      	str	r3, [sp, #36]	; 0x24
1000270c:	7850      	ldrb	r0, [r2, #1]
1000270e:	1c56      	adds	r6, r2, #1
10002710:	e77c      	b.n	1000260c <_vsnprintf+0x90>
10002712:	2878      	cmp	r0, #120	; 0x78
10002714:	d100      	bne.n	10002718 <_vsnprintf+0x19c>
10002716:	e1d4      	b.n	10002ac2 <_vsnprintf+0x546>
10002718:	2858      	cmp	r0, #88	; 0x58
1000271a:	d100      	bne.n	1000271e <_vsnprintf+0x1a2>
1000271c:	e268      	b.n	10002bf0 <_vsnprintf+0x674>
1000271e:	286f      	cmp	r0, #111	; 0x6f
10002720:	d100      	bne.n	10002724 <_vsnprintf+0x1a8>
10002722:	e352      	b.n	10002dca <_vsnprintf+0x84e>
10002724:	2862      	cmp	r0, #98	; 0x62
10002726:	d100      	bne.n	1000272a <_vsnprintf+0x1ae>
10002728:	e1d8      	b.n	10002adc <_vsnprintf+0x560>
1000272a:	2310      	movs	r3, #16
1000272c:	000a      	movs	r2, r1
1000272e:	439a      	bics	r2, r3
10002730:	920b      	str	r2, [sp, #44]	; 0x2c
10002732:	2869      	cmp	r0, #105	; 0x69
10002734:	d001      	beq.n	1000273a <_vsnprintf+0x1be>
10002736:	f000 fca2 	bl	1000307e <_vsnprintf+0xb02>
1000273a:	230a      	movs	r3, #10
1000273c:	930c      	str	r3, [sp, #48]	; 0x30
1000273e:	054b      	lsls	r3, r1, #21
10002740:	d400      	bmi.n	10002744 <_vsnprintf+0x1c8>
10002742:	e1d5      	b.n	10002af0 <_vsnprintf+0x574>
10002744:	2301      	movs	r3, #1
10002746:	9a0b      	ldr	r2, [sp, #44]	; 0x2c
10002748:	439a      	bics	r2, r3
1000274a:	920b      	str	r2, [sp, #44]	; 0x2c
1000274c:	2869      	cmp	r0, #105	; 0x69
1000274e:	d100      	bne.n	10002752 <_vsnprintf+0x1d6>
10002750:	e1ce      	b.n	10002af0 <_vsnprintf+0x574>
10002752:	2864      	cmp	r0, #100	; 0x64
10002754:	d100      	bne.n	10002758 <_vsnprintf+0x1dc>
10002756:	e1cb      	b.n	10002af0 <_vsnprintf+0x574>
10002758:	9a0b      	ldr	r2, [sp, #44]	; 0x2c
1000275a:	2380      	movs	r3, #128	; 0x80
1000275c:	0011      	movs	r1, r2
1000275e:	009b      	lsls	r3, r3, #2
10002760:	4019      	ands	r1, r3
10002762:	468a      	mov	sl, r1
10002764:	421a      	tst	r2, r3
10002766:	d000      	beq.n	1000276a <_vsnprintf+0x1ee>
10002768:	e332      	b.n	10002dd0 <_vsnprintf+0x854>
1000276a:	2380      	movs	r3, #128	; 0x80
1000276c:	0011      	movs	r1, r2
1000276e:	005b      	lsls	r3, r3, #1
10002770:	4019      	ands	r1, r3
10002772:	4689      	mov	r9, r1
10002774:	421a      	tst	r2, r3
10002776:	d001      	beq.n	1000277c <_vsnprintf+0x200>
10002778:	f000 fc02 	bl	10002f80 <_vsnprintf+0xa04>
1000277c:	0013      	movs	r3, r2
1000277e:	065b      	lsls	r3, r3, #25
10002780:	d500      	bpl.n	10002784 <_vsnprintf+0x208>
10002782:	e310      	b.n	10002da6 <_vsnprintf+0x82a>
10002784:	9b0b      	ldr	r3, [sp, #44]	; 0x2c
10002786:	061b      	lsls	r3, r3, #24
10002788:	d401      	bmi.n	1000278e <_vsnprintf+0x212>
1000278a:	f000 fc6e 	bl	1000306a <_vsnprintf+0xaee>
1000278e:	9b09      	ldr	r3, [sp, #36]	; 0x24
10002790:	cb04      	ldmia	r3!, {r2}
10002792:	0412      	lsls	r2, r2, #16
10002794:	0c12      	lsrs	r2, r2, #16
10002796:	4692      	mov	sl, r2
10002798:	9309      	str	r3, [sp, #36]	; 0x24
1000279a:	4653      	mov	r3, sl
1000279c:	2b00      	cmp	r3, #0
1000279e:	d000      	beq.n	100027a2 <_vsnprintf+0x226>
100027a0:	e364      	b.n	10002e6c <_vsnprintf+0x8f0>
100027a2:	9a0b      	ldr	r2, [sp, #44]	; 0x2c
100027a4:	3310      	adds	r3, #16
100027a6:	0011      	movs	r1, r2
100027a8:	4399      	bics	r1, r3
100027aa:	910b      	str	r1, [sp, #44]	; 0x2c
100027ac:	0552      	lsls	r2, r2, #21
100027ae:	d400      	bmi.n	100027b2 <_vsnprintf+0x236>
100027b0:	e35c      	b.n	10002e6c <_vsnprintf+0x8f0>
100027b2:	2300      	movs	r3, #0
100027b4:	4699      	mov	r9, r3
100027b6:	9b0b      	ldr	r3, [sp, #44]	; 0x2c
100027b8:	9306      	str	r3, [sp, #24]
100027ba:	9b0a      	ldr	r3, [sp, #40]	; 0x28
100027bc:	9305      	str	r3, [sp, #20]
100027be:	4643      	mov	r3, r8
100027c0:	9304      	str	r3, [sp, #16]
100027c2:	9b0c      	ldr	r3, [sp, #48]	; 0x30
100027c4:	9303      	str	r3, [sp, #12]
100027c6:	2300      	movs	r3, #0
100027c8:	e2de      	b.n	10002d88 <_vsnprintf+0x80c>
100027ca:	7870      	ldrb	r0, [r6, #1]
100027cc:	2868      	cmp	r0, #104	; 0x68
100027ce:	d100      	bne.n	100027d2 <_vsnprintf+0x256>
100027d0:	e207      	b.n	10002be2 <_vsnprintf+0x666>
100027d2:	2380      	movs	r3, #128	; 0x80
100027d4:	3601      	adds	r6, #1
100027d6:	4319      	orrs	r1, r3
100027d8:	e741      	b.n	1000265e <_vsnprintf+0xe2>
100027da:	2380      	movs	r3, #128	; 0x80
100027dc:	009b      	lsls	r3, r3, #2
100027de:	7870      	ldrb	r0, [r6, #1]
100027e0:	4319      	orrs	r1, r3
100027e2:	3601      	adds	r6, #1
100027e4:	e73b      	b.n	1000265e <_vsnprintf+0xe2>
100027e6:	2846      	cmp	r0, #70	; 0x46
100027e8:	d100      	bne.n	100027ec <_vsnprintf+0x270>
100027ea:	e174      	b.n	10002ad6 <_vsnprintf+0x55a>
100027ec:	2207      	movs	r2, #7
100027ee:	9b09      	ldr	r3, [sp, #36]	; 0x24
100027f0:	9104      	str	r1, [sp, #16]
100027f2:	3307      	adds	r3, #7
100027f4:	4393      	bics	r3, r2
100027f6:	9a0a      	ldr	r2, [sp, #40]	; 0x28
100027f8:	0019      	movs	r1, r3
100027fa:	9203      	str	r2, [sp, #12]
100027fc:	4642      	mov	r2, r8
100027fe:	9202      	str	r2, [sp, #8]
10002800:	c90c      	ldmia	r1!, {r2, r3}
10002802:	9808      	ldr	r0, [sp, #32]
10002804:	9200      	str	r2, [sp, #0]
10002806:	9301      	str	r3, [sp, #4]
10002808:	9109      	str	r1, [sp, #36]	; 0x24
1000280a:	002a      	movs	r2, r5
1000280c:	465b      	mov	r3, fp
1000280e:	0021      	movs	r1, r4
10002810:	f7ff fcc4 	bl	1000219c <_ftoa>
10002814:	3601      	adds	r6, #1
10002816:	0005      	movs	r5, r0
10002818:	e6d5      	b.n	100025c6 <_vsnprintf+0x4a>
1000281a:	9b09      	ldr	r3, [sp, #36]	; 0x24
1000281c:	001a      	movs	r2, r3
1000281e:	ca08      	ldmia	r2!, {r3}
10002820:	4691      	mov	r9, r2
10002822:	2b00      	cmp	r3, #0
10002824:	d100      	bne.n	10002828 <_vsnprintf+0x2ac>
10002826:	e105      	b.n	10002a34 <_vsnprintf+0x4b8>
10002828:	2221      	movs	r2, #33	; 0x21
1000282a:	4311      	orrs	r1, r2
1000282c:	468a      	mov	sl, r1
1000282e:	a80e      	add	r0, sp, #56	; 0x38
10002830:	4684      	mov	ip, r0
10002832:	211f      	movs	r1, #31
10002834:	4461      	add	r1, ip
10002836:	9509      	str	r5, [sp, #36]	; 0x24
10002838:	2200      	movs	r2, #0
1000283a:	270f      	movs	r7, #15
1000283c:	46a4      	mov	ip, r4
1000283e:	000d      	movs	r5, r1
10002840:	e002      	b.n	10002848 <_vsnprintf+0x2cc>
10002842:	2a20      	cmp	r2, #32
10002844:	d00c      	beq.n	10002860 <_vsnprintf+0x2e4>
10002846:	000b      	movs	r3, r1
10002848:	003c      	movs	r4, r7
1000284a:	401c      	ands	r4, r3
1000284c:	0020      	movs	r0, r4
1000284e:	3037      	adds	r0, #55	; 0x37
10002850:	2c09      	cmp	r4, #9
10002852:	d800      	bhi.n	10002856 <_vsnprintf+0x2da>
10002854:	3807      	subs	r0, #7
10002856:	3201      	adds	r2, #1
10002858:	54a8      	strb	r0, [r5, r2]
1000285a:	0919      	lsrs	r1, r3, #4
1000285c:	2b0f      	cmp	r3, #15
1000285e:	d8f0      	bhi.n	10002842 <_vsnprintf+0x2c6>
10002860:	4664      	mov	r4, ip
10002862:	9d09      	ldr	r5, [sp, #36]	; 0x24
10002864:	e0f0      	b.n	10002a48 <_vsnprintf+0x4cc>
10002866:	078b      	lsls	r3, r1, #30
10002868:	d400      	bmi.n	1000286c <_vsnprintf+0x2f0>
1000286a:	e1d1      	b.n	10002c10 <_vsnprintf+0x694>
1000286c:	9b09      	ldr	r3, [sp, #36]	; 0x24
1000286e:	002a      	movs	r2, r5
10002870:	4699      	mov	r9, r3
10002872:	1c6b      	adds	r3, r5, #1
10002874:	4698      	mov	r8, r3
10002876:	464b      	mov	r3, r9
10002878:	cb01      	ldmia	r3!, {r0}
1000287a:	0021      	movs	r1, r4
1000287c:	4699      	mov	r9, r3
1000287e:	9f08      	ldr	r7, [sp, #32]
10002880:	465b      	mov	r3, fp
10002882:	b2c0      	uxtb	r0, r0
10002884:	47b8      	blx	r7
10002886:	9b0a      	ldr	r3, [sp, #40]	; 0x28
10002888:	469c      	mov	ip, r3
1000288a:	4465      	add	r5, ip
1000288c:	2b01      	cmp	r3, #1
1000288e:	d800      	bhi.n	10002892 <_vsnprintf+0x316>
10002890:	e290      	b.n	10002db4 <_vsnprintf+0x838>
10002892:	46b2      	mov	sl, r6
10002894:	465e      	mov	r6, fp
10002896:	4647      	mov	r7, r8
10002898:	46a8      	mov	r8, r5
1000289a:	9d08      	ldr	r5, [sp, #32]
1000289c:	003a      	movs	r2, r7
1000289e:	0033      	movs	r3, r6
100028a0:	3701      	adds	r7, #1
100028a2:	0021      	movs	r1, r4
100028a4:	2020      	movs	r0, #32
100028a6:	47a8      	blx	r5
100028a8:	4547      	cmp	r7, r8
100028aa:	d1f7      	bne.n	1000289c <_vsnprintf+0x320>
100028ac:	46b3      	mov	fp, r6
100028ae:	464b      	mov	r3, r9
100028b0:	4656      	mov	r6, sl
100028b2:	003d      	movs	r5, r7
100028b4:	9309      	str	r3, [sp, #36]	; 0x24
100028b6:	3601      	adds	r6, #1
100028b8:	e685      	b.n	100025c6 <_vsnprintf+0x4a>
100028ba:	002a      	movs	r2, r5
100028bc:	1c6f      	adds	r7, r5, #1
100028be:	465b      	mov	r3, fp
100028c0:	9d08      	ldr	r5, [sp, #32]
100028c2:	0021      	movs	r1, r4
100028c4:	2025      	movs	r0, #37	; 0x25
100028c6:	47a8      	blx	r5
100028c8:	3601      	adds	r6, #1
100028ca:	003d      	movs	r5, r7
100028cc:	e67b      	b.n	100025c6 <_vsnprintf+0x4a>
100028ce:	46c0      	nop			; (mov r8, r8)
100028d0:	1000257d 	.word	0x1000257d
100028d4:	20000b04 	.word	0x20000b04
100028d8:	10004f04 	.word	0x10004f04
100028dc:	10004f48 	.word	0x10004f48
100028e0:	10004f94 	.word	0x10004f94
100028e4:	9b09      	ldr	r3, [sp, #36]	; 0x24
100028e6:	cb04      	ldmia	r3!, {r2}
100028e8:	4699      	mov	r9, r3
100028ea:	4643      	mov	r3, r8
100028ec:	9209      	str	r2, [sp, #36]	; 0x24
100028ee:	2b00      	cmp	r3, #0
100028f0:	d000      	beq.n	100028f4 <_vsnprintf+0x378>
100028f2:	e097      	b.n	10002a24 <_vsnprintf+0x4a8>
100028f4:	7813      	ldrb	r3, [r2, #0]
100028f6:	469c      	mov	ip, r3
100028f8:	2b00      	cmp	r3, #0
100028fa:	d100      	bne.n	100028fe <_vsnprintf+0x382>
100028fc:	e3b3      	b.n	10003066 <_vsnprintf+0xaea>
100028fe:	2302      	movs	r3, #2
10002900:	425b      	negs	r3, r3
10002902:	1c5a      	adds	r2, r3, #1
10002904:	9b09      	ldr	r3, [sp, #36]	; 0x24
10002906:	4692      	mov	sl, r2
10002908:	0018      	movs	r0, r3
1000290a:	9f0a      	ldr	r7, [sp, #40]	; 0x28
1000290c:	920b      	str	r2, [sp, #44]	; 0x2c
1000290e:	4450      	add	r0, sl
10002910:	e002      	b.n	10002918 <_vsnprintf+0x39c>
10002912:	4283      	cmp	r3, r0
10002914:	d100      	bne.n	10002918 <_vsnprintf+0x39c>
10002916:	e169      	b.n	10002bec <_vsnprintf+0x670>
10002918:	785a      	ldrb	r2, [r3, #1]
1000291a:	3301      	adds	r3, #1
1000291c:	2a00      	cmp	r2, #0
1000291e:	d1f8      	bne.n	10002912 <_vsnprintf+0x396>
10002920:	9a09      	ldr	r2, [sp, #36]	; 0x24
10002922:	970a      	str	r7, [sp, #40]	; 0x28
10002924:	1a9b      	subs	r3, r3, r2
10002926:	930b      	str	r3, [sp, #44]	; 0x2c
10002928:	2380      	movs	r3, #128	; 0x80
1000292a:	000a      	movs	r2, r1
1000292c:	00db      	lsls	r3, r3, #3
1000292e:	401a      	ands	r2, r3
10002930:	920c      	str	r2, [sp, #48]	; 0x30
10002932:	4219      	tst	r1, r3
10002934:	d004      	beq.n	10002940 <_vsnprintf+0x3c4>
10002936:	9b0b      	ldr	r3, [sp, #44]	; 0x2c
10002938:	4543      	cmp	r3, r8
1000293a:	d901      	bls.n	10002940 <_vsnprintf+0x3c4>
1000293c:	4643      	mov	r3, r8
1000293e:	930b      	str	r3, [sp, #44]	; 0x2c
10002940:	2302      	movs	r3, #2
10002942:	001a      	movs	r2, r3
10002944:	400a      	ands	r2, r1
10002946:	920d      	str	r2, [sp, #52]	; 0x34
10002948:	420b      	tst	r3, r1
1000294a:	d100      	bne.n	1000294e <_vsnprintf+0x3d2>
1000294c:	e184      	b.n	10002c58 <_vsnprintf+0x6dc>
1000294e:	4660      	mov	r0, ip
10002950:	2800      	cmp	r0, #0
10002952:	d023      	beq.n	1000299c <_vsnprintf+0x420>
10002954:	9b0c      	ldr	r3, [sp, #48]	; 0x30
10002956:	2b00      	cmp	r3, #0
10002958:	d100      	bne.n	1000295c <_vsnprintf+0x3e0>
1000295a:	e124      	b.n	10002ba6 <_vsnprintf+0x62a>
1000295c:	44a8      	add	r8, r5
1000295e:	46c2      	mov	sl, r8
10002960:	9b09      	ldr	r3, [sp, #36]	; 0x24
10002962:	4657      	mov	r7, sl
10002964:	1b5b      	subs	r3, r3, r5
10002966:	4698      	mov	r8, r3
10002968:	9b08      	ldr	r3, [sp, #32]
1000296a:	46b2      	mov	sl, r6
1000296c:	002a      	movs	r2, r5
1000296e:	0026      	movs	r6, r4
10002970:	465c      	mov	r4, fp
10002972:	469b      	mov	fp, r3
10002974:	e009      	b.n	1000298a <_vsnprintf+0x40e>
10002976:	0023      	movs	r3, r4
10002978:	0031      	movs	r1, r6
1000297a:	1c55      	adds	r5, r2, #1
1000297c:	47d8      	blx	fp
1000297e:	4643      	mov	r3, r8
10002980:	5d58      	ldrb	r0, [r3, r5]
10002982:	2800      	cmp	r0, #0
10002984:	d100      	bne.n	10002988 <_vsnprintf+0x40c>
10002986:	e13f      	b.n	10002c08 <_vsnprintf+0x68c>
10002988:	002a      	movs	r2, r5
1000298a:	4297      	cmp	r7, r2
1000298c:	d1f3      	bne.n	10002976 <_vsnprintf+0x3fa>
1000298e:	46a3      	mov	fp, r4
10002990:	003d      	movs	r5, r7
10002992:	0034      	movs	r4, r6
10002994:	4656      	mov	r6, sl
10002996:	9b0d      	ldr	r3, [sp, #52]	; 0x34
10002998:	2b00      	cmp	r3, #0
1000299a:	d069      	beq.n	10002a70 <_vsnprintf+0x4f4>
1000299c:	9b0b      	ldr	r3, [sp, #44]	; 0x2c
1000299e:	990a      	ldr	r1, [sp, #40]	; 0x28
100029a0:	46a8      	mov	r8, r5
100029a2:	4299      	cmp	r1, r3
100029a4:	d964      	bls.n	10002a70 <_vsnprintf+0x4f4>
100029a6:	468c      	mov	ip, r1
100029a8:	4465      	add	r5, ip
100029aa:	1aed      	subs	r5, r5, r3
100029ac:	9b08      	ldr	r3, [sp, #32]
100029ae:	4647      	mov	r7, r8
100029b0:	469a      	mov	sl, r3
100029b2:	46b0      	mov	r8, r6
100029b4:	0026      	movs	r6, r4
100029b6:	465c      	mov	r4, fp
100029b8:	003a      	movs	r2, r7
100029ba:	0023      	movs	r3, r4
100029bc:	3701      	adds	r7, #1
100029be:	0031      	movs	r1, r6
100029c0:	2020      	movs	r0, #32
100029c2:	47d0      	blx	sl
100029c4:	42af      	cmp	r7, r5
100029c6:	d1f7      	bne.n	100029b8 <_vsnprintf+0x43c>
100029c8:	46a3      	mov	fp, r4
100029ca:	0034      	movs	r4, r6
100029cc:	4646      	mov	r6, r8
100029ce:	e04f      	b.n	10002a70 <_vsnprintf+0x4f4>
100029d0:	4bd2      	ldr	r3, [pc, #840]	; (10002d1c <_vsnprintf+0x7a0>)
100029d2:	7820      	ldrb	r0, [r4, #0]
100029d4:	9308      	str	r3, [sp, #32]
100029d6:	2300      	movs	r3, #0
100029d8:	469a      	mov	sl, r3
100029da:	2800      	cmp	r0, #0
100029dc:	d000      	beq.n	100029e0 <_vsnprintf+0x464>
100029de:	e5e6      	b.n	100025ae <_vsnprintf+0x32>
100029e0:	2400      	movs	r4, #0
100029e2:	e671      	b.n	100026c8 <_vsnprintf+0x14c>
100029e4:	4643      	mov	r3, r8
100029e6:	0006      	movs	r6, r0
100029e8:	9f0a      	ldr	r7, [sp, #40]	; 0x28
100029ea:	0098      	lsls	r0, r3, #2
100029ec:	18c0      	adds	r0, r0, r3
100029ee:	3201      	adds	r2, #1
100029f0:	0040      	lsls	r0, r0, #1
100029f2:	1980      	adds	r0, r0, r6
100029f4:	7816      	ldrb	r6, [r2, #0]
100029f6:	0003      	movs	r3, r0
100029f8:	0030      	movs	r0, r6
100029fa:	3830      	subs	r0, #48	; 0x30
100029fc:	3b30      	subs	r3, #48	; 0x30
100029fe:	2809      	cmp	r0, #9
10002a00:	d9f3      	bls.n	100029ea <_vsnprintf+0x46e>
10002a02:	0030      	movs	r0, r6
10002a04:	4698      	mov	r8, r3
10002a06:	0016      	movs	r6, r2
10002a08:	970a      	str	r7, [sp, #40]	; 0x28
10002a0a:	e603      	b.n	10002614 <_vsnprintf+0x98>
10002a0c:	9b09      	ldr	r3, [sp, #36]	; 0x24
10002a0e:	3602      	adds	r6, #2
10002a10:	cb04      	ldmia	r3!, {r2}
10002a12:	4690      	mov	r8, r2
10002a14:	43d2      	mvns	r2, r2
10002a16:	4640      	mov	r0, r8
10002a18:	17d2      	asrs	r2, r2, #31
10002a1a:	4010      	ands	r0, r2
10002a1c:	4680      	mov	r8, r0
10002a1e:	9309      	str	r3, [sp, #36]	; 0x24
10002a20:	7830      	ldrb	r0, [r6, #0]
10002a22:	e5f7      	b.n	10002614 <_vsnprintf+0x98>
10002a24:	7813      	ldrb	r3, [r2, #0]
10002a26:	469c      	mov	ip, r3
10002a28:	2b00      	cmp	r3, #0
10002a2a:	d100      	bne.n	10002a2e <_vsnprintf+0x4b2>
10002a2c:	e31a      	b.n	10003064 <_vsnprintf+0xae8>
10002a2e:	4643      	mov	r3, r8
10002a30:	3b01      	subs	r3, #1
10002a32:	e766      	b.n	10002902 <_vsnprintf+0x386>
10002a34:	2210      	movs	r2, #16
10002a36:	0008      	movs	r0, r1
10002a38:	4390      	bics	r0, r2
10002a3a:	3211      	adds	r2, #17
10002a3c:	4310      	orrs	r0, r2
10002a3e:	4682      	mov	sl, r0
10002a40:	2200      	movs	r2, #0
10002a42:	0549      	lsls	r1, r1, #21
10002a44:	d400      	bmi.n	10002a48 <_vsnprintf+0x4cc>
10002a46:	e6f2      	b.n	1000282e <_vsnprintf+0x2b2>
10002a48:	4653      	mov	r3, sl
10002a4a:	9306      	str	r3, [sp, #24]
10002a4c:	2308      	movs	r3, #8
10002a4e:	9305      	str	r3, [sp, #20]
10002a50:	4643      	mov	r3, r8
10002a52:	9304      	str	r3, [sp, #16]
10002a54:	2310      	movs	r3, #16
10002a56:	9303      	str	r3, [sp, #12]
10002a58:	2300      	movs	r3, #0
10002a5a:	9302      	str	r3, [sp, #8]
10002a5c:	ab16      	add	r3, sp, #88	; 0x58
10002a5e:	9201      	str	r2, [sp, #4]
10002a60:	9300      	str	r3, [sp, #0]
10002a62:	002a      	movs	r2, r5
10002a64:	465b      	mov	r3, fp
10002a66:	0021      	movs	r1, r4
10002a68:	9808      	ldr	r0, [sp, #32]
10002a6a:	f7ff f879 	bl	10001b60 <_ntoa_format>
10002a6e:	0005      	movs	r5, r0
10002a70:	464b      	mov	r3, r9
10002a72:	3601      	adds	r6, #1
10002a74:	9309      	str	r3, [sp, #36]	; 0x24
10002a76:	e5a6      	b.n	100025c6 <_vsnprintf+0x4a>
10002a78:	2320      	movs	r3, #32
10002a7a:	0002      	movs	r2, r0
10002a7c:	439a      	bics	r2, r3
10002a7e:	2a47      	cmp	r2, #71	; 0x47
10002a80:	d104      	bne.n	10002a8c <_vsnprintf+0x510>
10002a82:	2380      	movs	r3, #128	; 0x80
10002a84:	011b      	lsls	r3, r3, #4
10002a86:	4319      	orrs	r1, r3
10002a88:	2302      	movs	r3, #2
10002a8a:	4398      	bics	r0, r3
10002a8c:	2845      	cmp	r0, #69	; 0x45
10002a8e:	d101      	bne.n	10002a94 <_vsnprintf+0x518>
10002a90:	2320      	movs	r3, #32
10002a92:	4319      	orrs	r1, r3
10002a94:	2207      	movs	r2, #7
10002a96:	9b09      	ldr	r3, [sp, #36]	; 0x24
10002a98:	9104      	str	r1, [sp, #16]
10002a9a:	3307      	adds	r3, #7
10002a9c:	4393      	bics	r3, r2
10002a9e:	9a0a      	ldr	r2, [sp, #40]	; 0x28
10002aa0:	0019      	movs	r1, r3
10002aa2:	9203      	str	r2, [sp, #12]
10002aa4:	4642      	mov	r2, r8
10002aa6:	9202      	str	r2, [sp, #8]
10002aa8:	c90c      	ldmia	r1!, {r2, r3}
10002aaa:	9808      	ldr	r0, [sp, #32]
10002aac:	9200      	str	r2, [sp, #0]
10002aae:	9301      	str	r3, [sp, #4]
10002ab0:	9109      	str	r1, [sp, #36]	; 0x24
10002ab2:	002a      	movs	r2, r5
10002ab4:	465b      	mov	r3, fp
10002ab6:	0021      	movs	r1, r4
10002ab8:	f7ff f94a 	bl	10001d50 <_etoa>
10002abc:	3601      	adds	r6, #1
10002abe:	0005      	movs	r5, r0
10002ac0:	e581      	b.n	100025c6 <_vsnprintf+0x4a>
10002ac2:	2310      	movs	r3, #16
10002ac4:	930c      	str	r3, [sp, #48]	; 0x30
10002ac6:	230c      	movs	r3, #12
10002ac8:	000a      	movs	r2, r1
10002aca:	439a      	bics	r2, r3
10002acc:	920b      	str	r2, [sp, #44]	; 0x2c
10002ace:	054b      	lsls	r3, r1, #21
10002ad0:	d400      	bmi.n	10002ad4 <_vsnprintf+0x558>
10002ad2:	e63b      	b.n	1000274c <_vsnprintf+0x1d0>
10002ad4:	e636      	b.n	10002744 <_vsnprintf+0x1c8>
10002ad6:	2320      	movs	r3, #32
10002ad8:	4319      	orrs	r1, r3
10002ada:	e687      	b.n	100027ec <_vsnprintf+0x270>
10002adc:	2302      	movs	r3, #2
10002ade:	930c      	str	r3, [sp, #48]	; 0x30
10002ae0:	910b      	str	r1, [sp, #44]	; 0x2c
10002ae2:	990b      	ldr	r1, [sp, #44]	; 0x2c
10002ae4:	2864      	cmp	r0, #100	; 0x64
10002ae6:	d1ee      	bne.n	10002ac6 <_vsnprintf+0x54a>
10002ae8:	9b0b      	ldr	r3, [sp, #44]	; 0x2c
10002aea:	055b      	lsls	r3, r3, #21
10002aec:	d500      	bpl.n	10002af0 <_vsnprintf+0x574>
10002aee:	e629      	b.n	10002744 <_vsnprintf+0x1c8>
10002af0:	9a0b      	ldr	r2, [sp, #44]	; 0x2c
10002af2:	2380      	movs	r3, #128	; 0x80
10002af4:	0011      	movs	r1, r2
10002af6:	009b      	lsls	r3, r3, #2
10002af8:	4019      	ands	r1, r3
10002afa:	468a      	mov	sl, r1
10002afc:	421a      	tst	r2, r3
10002afe:	d000      	beq.n	10002b02 <_vsnprintf+0x586>
10002b00:	e0ce      	b.n	10002ca0 <_vsnprintf+0x724>
10002b02:	2380      	movs	r3, #128	; 0x80
10002b04:	0011      	movs	r1, r2
10002b06:	005b      	lsls	r3, r3, #1
10002b08:	4019      	ands	r1, r3
10002b0a:	4689      	mov	r9, r1
10002b0c:	421a      	tst	r2, r3
10002b0e:	d000      	beq.n	10002b12 <_vsnprintf+0x596>
10002b10:	e1db      	b.n	10002eca <_vsnprintf+0x94e>
10002b12:	0013      	movs	r3, r2
10002b14:	065b      	lsls	r3, r3, #25
10002b16:	d500      	bpl.n	10002b1a <_vsnprintf+0x59e>
10002b18:	e11d      	b.n	10002d56 <_vsnprintf+0x7da>
10002b1a:	9b0b      	ldr	r3, [sp, #44]	; 0x2c
10002b1c:	9909      	ldr	r1, [sp, #36]	; 0x24
10002b1e:	061b      	lsls	r3, r3, #24
10002b20:	d400      	bmi.n	10002b24 <_vsnprintf+0x5a8>
10002b22:	e299      	b.n	10003058 <_vsnprintf+0xadc>
10002b24:	c908      	ldmia	r1!, {r3}
10002b26:	b21b      	sxth	r3, r3
10002b28:	17d8      	asrs	r0, r3, #31
10002b2a:	181a      	adds	r2, r3, r0
10002b2c:	4042      	eors	r2, r0
10002b2e:	b292      	uxth	r2, r2
10002b30:	9109      	str	r1, [sp, #36]	; 0x24
10002b32:	4692      	mov	sl, r2
10002b34:	0fda      	lsrs	r2, r3, #31
10002b36:	9212      	str	r2, [sp, #72]	; 0x48
10002b38:	2b00      	cmp	r3, #0
10002b3a:	d109      	bne.n	10002b50 <_vsnprintf+0x5d4>
10002b3c:	2380      	movs	r3, #128	; 0x80
10002b3e:	2210      	movs	r2, #16
10002b40:	990b      	ldr	r1, [sp, #44]	; 0x2c
10002b42:	00db      	lsls	r3, r3, #3
10002b44:	400b      	ands	r3, r1
10002b46:	4391      	bics	r1, r2
10002b48:	910b      	str	r1, [sp, #44]	; 0x2c
10002b4a:	2b00      	cmp	r3, #0
10002b4c:	d000      	beq.n	10002b50 <_vsnprintf+0x5d4>
10002b4e:	e112      	b.n	10002d76 <_vsnprintf+0x7fa>
10002b50:	9a0b      	ldr	r2, [sp, #44]	; 0x2c
10002b52:	2361      	movs	r3, #97	; 0x61
10002b54:	0692      	lsls	r2, r2, #26
10002b56:	d500      	bpl.n	10002b5a <_vsnprintf+0x5de>
10002b58:	2341      	movs	r3, #65	; 0x41
10002b5a:	a90e      	add	r1, sp, #56	; 0x38
10002b5c:	221f      	movs	r2, #31
10002b5e:	468c      	mov	ip, r1
10002b60:	b2db      	uxtb	r3, r3
10002b62:	4462      	add	r2, ip
10002b64:	3b0a      	subs	r3, #10
10002b66:	4657      	mov	r7, sl
10002b68:	9513      	str	r5, [sp, #76]	; 0x4c
10002b6a:	46a2      	mov	sl, r4
10002b6c:	464d      	mov	r5, r9
10002b6e:	9c0c      	ldr	r4, [sp, #48]	; 0x30
10002b70:	46b1      	mov	r9, r6
10002b72:	930d      	str	r3, [sp, #52]	; 0x34
10002b74:	0016      	movs	r6, r2
10002b76:	e00a      	b.n	10002b8e <_vsnprintf+0x612>
10002b78:	3330      	adds	r3, #48	; 0x30
10002b7a:	b2db      	uxtb	r3, r3
10002b7c:	3501      	adds	r5, #1
10002b7e:	5573      	strb	r3, [r6, r5]
10002b80:	42a7      	cmp	r7, r4
10002b82:	d200      	bcs.n	10002b86 <_vsnprintf+0x60a>
10002b84:	e11c      	b.n	10002dc0 <_vsnprintf+0x844>
10002b86:	2d20      	cmp	r5, #32
10002b88:	d100      	bne.n	10002b8c <_vsnprintf+0x610>
10002b8a:	e119      	b.n	10002dc0 <_vsnprintf+0x844>
10002b8c:	0007      	movs	r7, r0
10002b8e:	0021      	movs	r1, r4
10002b90:	0038      	movs	r0, r7
10002b92:	f000 fb01 	bl	10003198 <__wrap___aeabi_uidiv>
10002b96:	b2cb      	uxtb	r3, r1
10002b98:	2909      	cmp	r1, #9
10002b9a:	d9ed      	bls.n	10002b78 <_vsnprintf+0x5fc>
10002b9c:	9a0d      	ldr	r2, [sp, #52]	; 0x34
10002b9e:	4694      	mov	ip, r2
10002ba0:	4463      	add	r3, ip
10002ba2:	b2db      	uxtb	r3, r3
10002ba4:	e7ea      	b.n	10002b7c <_vsnprintf+0x600>
10002ba6:	9b09      	ldr	r3, [sp, #36]	; 0x24
10002ba8:	465f      	mov	r7, fp
10002baa:	1b5b      	subs	r3, r3, r5
10002bac:	4698      	mov	r8, r3
10002bae:	9b0a      	ldr	r3, [sp, #40]	; 0x28
10002bb0:	46b3      	mov	fp, r6
10002bb2:	469a      	mov	sl, r3
10002bb4:	0026      	movs	r6, r4
10002bb6:	9c08      	ldr	r4, [sp, #32]
10002bb8:	002a      	movs	r2, r5
10002bba:	003b      	movs	r3, r7
10002bbc:	0031      	movs	r1, r6
10002bbe:	47a0      	blx	r4
10002bc0:	4643      	mov	r3, r8
10002bc2:	3501      	adds	r5, #1
10002bc4:	5d58      	ldrb	r0, [r3, r5]
10002bc6:	2800      	cmp	r0, #0
10002bc8:	d1f6      	bne.n	10002bb8 <_vsnprintf+0x63c>
10002bca:	4653      	mov	r3, sl
10002bcc:	0034      	movs	r4, r6
10002bce:	930a      	str	r3, [sp, #40]	; 0x28
10002bd0:	465e      	mov	r6, fp
10002bd2:	46bb      	mov	fp, r7
10002bd4:	e6df      	b.n	10002996 <_vsnprintf+0x41a>
10002bd6:	23c0      	movs	r3, #192	; 0xc0
10002bd8:	009b      	lsls	r3, r3, #2
10002bda:	78b0      	ldrb	r0, [r6, #2]
10002bdc:	4319      	orrs	r1, r3
10002bde:	3602      	adds	r6, #2
10002be0:	e53d      	b.n	1000265e <_vsnprintf+0xe2>
10002be2:	23c0      	movs	r3, #192	; 0xc0
10002be4:	78b0      	ldrb	r0, [r6, #2]
10002be6:	4319      	orrs	r1, r3
10002be8:	3602      	adds	r6, #2
10002bea:	e538      	b.n	1000265e <_vsnprintf+0xe2>
10002bec:	970a      	str	r7, [sp, #40]	; 0x28
10002bee:	e69b      	b.n	10002928 <_vsnprintf+0x3ac>
10002bf0:	230c      	movs	r3, #12
10002bf2:	000a      	movs	r2, r1
10002bf4:	439a      	bics	r2, r3
10002bf6:	3314      	adds	r3, #20
10002bf8:	431a      	orrs	r2, r3
10002bfa:	2310      	movs	r3, #16
10002bfc:	920b      	str	r2, [sp, #44]	; 0x2c
10002bfe:	930c      	str	r3, [sp, #48]	; 0x30
10002c00:	054b      	lsls	r3, r1, #21
10002c02:	d400      	bmi.n	10002c06 <_vsnprintf+0x68a>
10002c04:	e5a8      	b.n	10002758 <_vsnprintf+0x1dc>
10002c06:	e59d      	b.n	10002744 <_vsnprintf+0x1c8>
10002c08:	46a3      	mov	fp, r4
10002c0a:	0034      	movs	r4, r6
10002c0c:	4656      	mov	r6, sl
10002c0e:	e6c2      	b.n	10002996 <_vsnprintf+0x41a>
10002c10:	9a0a      	ldr	r2, [sp, #40]	; 0x28
10002c12:	2a01      	cmp	r2, #1
10002c14:	d800      	bhi.n	10002c18 <_vsnprintf+0x69c>
10002c16:	e22e      	b.n	10003076 <_vsnprintf+0xafa>
10002c18:	1e6b      	subs	r3, r5, #1
10002c1a:	189f      	adds	r7, r3, r2
10002c1c:	9b08      	ldr	r3, [sp, #32]
10002c1e:	46b0      	mov	r8, r6
10002c20:	4699      	mov	r9, r3
10002c22:	0026      	movs	r6, r4
10002c24:	465c      	mov	r4, fp
10002c26:	002a      	movs	r2, r5
10002c28:	0023      	movs	r3, r4
10002c2a:	3501      	adds	r5, #1
10002c2c:	0031      	movs	r1, r6
10002c2e:	2020      	movs	r0, #32
10002c30:	47c8      	blx	r9
10002c32:	42bd      	cmp	r5, r7
10002c34:	d1f7      	bne.n	10002c26 <_vsnprintf+0x6aa>
10002c36:	46a3      	mov	fp, r4
10002c38:	0034      	movs	r4, r6
10002c3a:	4646      	mov	r6, r8
10002c3c:	9b09      	ldr	r3, [sp, #36]	; 0x24
10002c3e:	003a      	movs	r2, r7
10002c40:	cb01      	ldmia	r3!, {r0}
10002c42:	0021      	movs	r1, r4
10002c44:	4698      	mov	r8, r3
10002c46:	1c7d      	adds	r5, r7, #1
10002c48:	465b      	mov	r3, fp
10002c4a:	9f08      	ldr	r7, [sp, #32]
10002c4c:	b2c0      	uxtb	r0, r0
10002c4e:	47b8      	blx	r7
10002c50:	4643      	mov	r3, r8
10002c52:	3601      	adds	r6, #1
10002c54:	9309      	str	r3, [sp, #36]	; 0x24
10002c56:	e4b6      	b.n	100025c6 <_vsnprintf+0x4a>
10002c58:	9a0b      	ldr	r2, [sp, #44]	; 0x2c
10002c5a:	980a      	ldr	r0, [sp, #40]	; 0x28
10002c5c:	1c53      	adds	r3, r2, #1
10002c5e:	4290      	cmp	r0, r2
10002c60:	d800      	bhi.n	10002c64 <_vsnprintf+0x6e8>
10002c62:	e20a      	b.n	1000307a <_vsnprintf+0xafe>
10002c64:	1943      	adds	r3, r0, r5
10002c66:	1a9b      	subs	r3, r3, r2
10002c68:	001f      	movs	r7, r3
10002c6a:	9b08      	ldr	r3, [sp, #32]
10002c6c:	46b2      	mov	sl, r6
10002c6e:	0026      	movs	r6, r4
10002c70:	465c      	mov	r4, fp
10002c72:	469b      	mov	fp, r3
10002c74:	002a      	movs	r2, r5
10002c76:	0023      	movs	r3, r4
10002c78:	3501      	adds	r5, #1
10002c7a:	0031      	movs	r1, r6
10002c7c:	2020      	movs	r0, #32
10002c7e:	47d8      	blx	fp
10002c80:	42bd      	cmp	r5, r7
10002c82:	d1f7      	bne.n	10002c74 <_vsnprintf+0x6f8>
10002c84:	9b0a      	ldr	r3, [sp, #40]	; 0x28
10002c86:	46a3      	mov	fp, r4
10002c88:	3301      	adds	r3, #1
10002c8a:	930b      	str	r3, [sp, #44]	; 0x2c
10002c8c:	9b09      	ldr	r3, [sp, #36]	; 0x24
10002c8e:	0034      	movs	r4, r6
10002c90:	781b      	ldrb	r3, [r3, #0]
10002c92:	4656      	mov	r6, sl
10002c94:	469c      	mov	ip, r3
10002c96:	4660      	mov	r0, ip
10002c98:	2800      	cmp	r0, #0
10002c9a:	d000      	beq.n	10002c9e <_vsnprintf+0x722>
10002c9c:	e65a      	b.n	10002954 <_vsnprintf+0x3d8>
10002c9e:	e6e7      	b.n	10002a70 <_vsnprintf+0x4f4>
10002ca0:	2207      	movs	r2, #7
10002ca2:	9b09      	ldr	r3, [sp, #36]	; 0x24
10002ca4:	3307      	adds	r3, #7
10002ca6:	4393      	bics	r3, r2
10002ca8:	3201      	adds	r2, #1
10002caa:	4694      	mov	ip, r2
10002cac:	449c      	add	ip, r3
10002cae:	4662      	mov	r2, ip
10002cb0:	685f      	ldr	r7, [r3, #4]
10002cb2:	9209      	str	r2, [sp, #36]	; 0x24
10002cb4:	681a      	ldr	r2, [r3, #0]
10002cb6:	17fb      	asrs	r3, r7, #31
10002cb8:	9310      	str	r3, [sp, #64]	; 0x40
10002cba:	9311      	str	r3, [sp, #68]	; 0x44
10002cbc:	9810      	ldr	r0, [sp, #64]	; 0x40
10002cbe:	9911      	ldr	r1, [sp, #68]	; 0x44
10002cc0:	0003      	movs	r3, r0
10002cc2:	4053      	eors	r3, r2
10002cc4:	930e      	str	r3, [sp, #56]	; 0x38
10002cc6:	000b      	movs	r3, r1
10002cc8:	407b      	eors	r3, r7
10002cca:	930f      	str	r3, [sp, #60]	; 0x3c
10002ccc:	4694      	mov	ip, r2
10002cce:	9a0e      	ldr	r2, [sp, #56]	; 0x38
10002cd0:	9b0f      	ldr	r3, [sp, #60]	; 0x3c
10002cd2:	1a12      	subs	r2, r2, r0
10002cd4:	418b      	sbcs	r3, r1
10002cd6:	920e      	str	r2, [sp, #56]	; 0x38
10002cd8:	930f      	str	r3, [sp, #60]	; 0x3c
10002cda:	0ffb      	lsrs	r3, r7, #31
10002cdc:	4662      	mov	r2, ip
10002cde:	9312      	str	r3, [sp, #72]	; 0x48
10002ce0:	2300      	movs	r3, #0
10002ce2:	433a      	orrs	r2, r7
10002ce4:	469a      	mov	sl, r3
10002ce6:	d03d      	beq.n	10002d64 <_vsnprintf+0x7e8>
10002ce8:	9a0b      	ldr	r2, [sp, #44]	; 0x2c
10002cea:	2361      	movs	r3, #97	; 0x61
10002cec:	0692      	lsls	r2, r2, #26
10002cee:	d500      	bpl.n	10002cf2 <_vsnprintf+0x776>
10002cf0:	2341      	movs	r3, #65	; 0x41
10002cf2:	2200      	movs	r2, #0
10002cf4:	b2db      	uxtb	r3, r3
10002cf6:	a90e      	add	r1, sp, #56	; 0x38
10002cf8:	3b0a      	subs	r3, #10
10002cfa:	468c      	mov	ip, r1
10002cfc:	4691      	mov	r9, r2
10002cfe:	930d      	str	r3, [sp, #52]	; 0x34
10002d00:	4643      	mov	r3, r8
10002d02:	321f      	adds	r2, #31
10002d04:	4462      	add	r2, ip
10002d06:	9513      	str	r5, [sp, #76]	; 0x4c
10002d08:	9615      	str	r6, [sp, #84]	; 0x54
10002d0a:	464d      	mov	r5, r9
10002d0c:	9e0e      	ldr	r6, [sp, #56]	; 0x38
10002d0e:	9f0f      	ldr	r7, [sp, #60]	; 0x3c
10002d10:	46a1      	mov	r9, r4
10002d12:	4690      	mov	r8, r2
10002d14:	9c0c      	ldr	r4, [sp, #48]	; 0x30
10002d16:	9314      	str	r3, [sp, #80]	; 0x50
10002d18:	e00f      	b.n	10002d3a <_vsnprintf+0x7be>
10002d1a:	46c0      	nop			; (mov r8, r8)
10002d1c:	10001a8d 	.word	0x10001a8d
10002d20:	3230      	adds	r2, #48	; 0x30
10002d22:	b2d2      	uxtb	r2, r2
10002d24:	4643      	mov	r3, r8
10002d26:	3501      	adds	r5, #1
10002d28:	555a      	strb	r2, [r3, r5]
10002d2a:	45ba      	cmp	sl, r7
10002d2c:	d100      	bne.n	10002d30 <_vsnprintf+0x7b4>
10002d2e:	e17c      	b.n	1000302a <_vsnprintf+0xaae>
10002d30:	2d20      	cmp	r5, #32
10002d32:	d100      	bne.n	10002d36 <_vsnprintf+0x7ba>
10002d34:	e17c      	b.n	10003030 <_vsnprintf+0xab4>
10002d36:	0006      	movs	r6, r0
10002d38:	000f      	movs	r7, r1
10002d3a:	0022      	movs	r2, r4
10002d3c:	2300      	movs	r3, #0
10002d3e:	0030      	movs	r0, r6
10002d40:	0039      	movs	r1, r7
10002d42:	f000 fa6f 	bl	10003224 <__wrap___aeabi_uldivmod>
10002d46:	b2d2      	uxtb	r2, r2
10002d48:	2a09      	cmp	r2, #9
10002d4a:	d9e9      	bls.n	10002d20 <_vsnprintf+0x7a4>
10002d4c:	9b0d      	ldr	r3, [sp, #52]	; 0x34
10002d4e:	469c      	mov	ip, r3
10002d50:	4462      	add	r2, ip
10002d52:	b2d2      	uxtb	r2, r2
10002d54:	e7e6      	b.n	10002d24 <_vsnprintf+0x7a8>
10002d56:	23ff      	movs	r3, #255	; 0xff
10002d58:	9909      	ldr	r1, [sp, #36]	; 0x24
10002d5a:	c904      	ldmia	r1!, {r2}
10002d5c:	4013      	ands	r3, r2
10002d5e:	001a      	movs	r2, r3
10002d60:	9109      	str	r1, [sp, #36]	; 0x24
10002d62:	e6e6      	b.n	10002b32 <_vsnprintf+0x5b6>
10002d64:	9a0b      	ldr	r2, [sp, #44]	; 0x2c
10002d66:	3310      	adds	r3, #16
10002d68:	0011      	movs	r1, r2
10002d6a:	4399      	bics	r1, r3
10002d6c:	910b      	str	r1, [sp, #44]	; 0x2c
10002d6e:	0552      	lsls	r2, r2, #21
10002d70:	d5ba      	bpl.n	10002ce8 <_vsnprintf+0x76c>
10002d72:	2300      	movs	r3, #0
10002d74:	4699      	mov	r9, r3
10002d76:	9b0b      	ldr	r3, [sp, #44]	; 0x2c
10002d78:	9306      	str	r3, [sp, #24]
10002d7a:	9b0a      	ldr	r3, [sp, #40]	; 0x28
10002d7c:	9305      	str	r3, [sp, #20]
10002d7e:	4643      	mov	r3, r8
10002d80:	9304      	str	r3, [sp, #16]
10002d82:	9b0c      	ldr	r3, [sp, #48]	; 0x30
10002d84:	9303      	str	r3, [sp, #12]
10002d86:	9b12      	ldr	r3, [sp, #72]	; 0x48
10002d88:	9302      	str	r3, [sp, #8]
10002d8a:	464b      	mov	r3, r9
10002d8c:	9301      	str	r3, [sp, #4]
10002d8e:	ab16      	add	r3, sp, #88	; 0x58
10002d90:	002a      	movs	r2, r5
10002d92:	9300      	str	r3, [sp, #0]
10002d94:	0021      	movs	r1, r4
10002d96:	465b      	mov	r3, fp
10002d98:	9808      	ldr	r0, [sp, #32]
10002d9a:	f7fe fee1 	bl	10001b60 <_ntoa_format>
10002d9e:	3601      	adds	r6, #1
10002da0:	0005      	movs	r5, r0
10002da2:	f7ff fc10 	bl	100025c6 <_vsnprintf+0x4a>
10002da6:	22ff      	movs	r2, #255	; 0xff
10002da8:	9b09      	ldr	r3, [sp, #36]	; 0x24
10002daa:	cb02      	ldmia	r3!, {r1}
10002dac:	4011      	ands	r1, r2
10002dae:	468a      	mov	sl, r1
10002db0:	9309      	str	r3, [sp, #36]	; 0x24
10002db2:	e4f2      	b.n	1000279a <_vsnprintf+0x21e>
10002db4:	464b      	mov	r3, r9
10002db6:	4645      	mov	r5, r8
10002db8:	9309      	str	r3, [sp, #36]	; 0x24
10002dba:	3601      	adds	r6, #1
10002dbc:	f7ff fc03 	bl	100025c6 <_vsnprintf+0x4a>
10002dc0:	464e      	mov	r6, r9
10002dc2:	4654      	mov	r4, sl
10002dc4:	46a9      	mov	r9, r5
10002dc6:	9d13      	ldr	r5, [sp, #76]	; 0x4c
10002dc8:	e7d5      	b.n	10002d76 <_vsnprintf+0x7fa>
10002dca:	2308      	movs	r3, #8
10002dcc:	930c      	str	r3, [sp, #48]	; 0x30
10002dce:	e687      	b.n	10002ae0 <_vsnprintf+0x564>
10002dd0:	2207      	movs	r2, #7
10002dd2:	9b09      	ldr	r3, [sp, #36]	; 0x24
10002dd4:	3307      	adds	r3, #7
10002dd6:	4393      	bics	r3, r2
10002dd8:	3201      	adds	r2, #1
10002dda:	4694      	mov	ip, r2
10002ddc:	449c      	add	ip, r3
10002dde:	4662      	mov	r2, ip
10002de0:	9209      	str	r2, [sp, #36]	; 0x24
10002de2:	681a      	ldr	r2, [r3, #0]
10002de4:	685b      	ldr	r3, [r3, #4]
10002de6:	0010      	movs	r0, r2
10002de8:	469a      	mov	sl, r3
10002dea:	0013      	movs	r3, r2
10002dec:	4652      	mov	r2, sl
10002dee:	4313      	orrs	r3, r2
10002df0:	d107      	bne.n	10002e02 <_vsnprintf+0x886>
10002df2:	9a0b      	ldr	r2, [sp, #44]	; 0x2c
10002df4:	3310      	adds	r3, #16
10002df6:	0011      	movs	r1, r2
10002df8:	4399      	bics	r1, r3
10002dfa:	910b      	str	r1, [sp, #44]	; 0x2c
10002dfc:	0552      	lsls	r2, r2, #21
10002dfe:	d500      	bpl.n	10002e02 <_vsnprintf+0x886>
10002e00:	e4d7      	b.n	100027b2 <_vsnprintf+0x236>
10002e02:	9a0b      	ldr	r2, [sp, #44]	; 0x2c
10002e04:	2361      	movs	r3, #97	; 0x61
10002e06:	0692      	lsls	r2, r2, #26
10002e08:	d500      	bpl.n	10002e0c <_vsnprintf+0x890>
10002e0a:	2341      	movs	r3, #65	; 0x41
10002e0c:	2200      	movs	r2, #0
10002e0e:	b2db      	uxtb	r3, r3
10002e10:	a90e      	add	r1, sp, #56	; 0x38
10002e12:	3b0a      	subs	r3, #10
10002e14:	468c      	mov	ip, r1
10002e16:	4691      	mov	r9, r2
10002e18:	930d      	str	r3, [sp, #52]	; 0x34
10002e1a:	4643      	mov	r3, r8
10002e1c:	321f      	adds	r2, #31
10002e1e:	4462      	add	r2, ip
10002e20:	4657      	mov	r7, sl
10002e22:	9512      	str	r5, [sp, #72]	; 0x48
10002e24:	46a2      	mov	sl, r4
10002e26:	464d      	mov	r5, r9
10002e28:	0004      	movs	r4, r0
10002e2a:	46b1      	mov	r9, r6
10002e2c:	4690      	mov	r8, r2
10002e2e:	9e0c      	ldr	r6, [sp, #48]	; 0x30
10002e30:	9313      	str	r3, [sp, #76]	; 0x4c
10002e32:	e00d      	b.n	10002e50 <_vsnprintf+0x8d4>
10002e34:	3230      	adds	r2, #48	; 0x30
10002e36:	b2d2      	uxtb	r2, r2
10002e38:	4643      	mov	r3, r8
10002e3a:	3501      	adds	r5, #1
10002e3c:	555a      	strb	r2, [r3, r5]
10002e3e:	2300      	movs	r3, #0
10002e40:	42bb      	cmp	r3, r7
10002e42:	d100      	bne.n	10002e46 <_vsnprintf+0x8ca>
10002e44:	e0fd      	b.n	10003042 <_vsnprintf+0xac6>
10002e46:	2d20      	cmp	r5, #32
10002e48:	d100      	bne.n	10002e4c <_vsnprintf+0x8d0>
10002e4a:	e0fd      	b.n	10003048 <_vsnprintf+0xacc>
10002e4c:	0004      	movs	r4, r0
10002e4e:	000f      	movs	r7, r1
10002e50:	0032      	movs	r2, r6
10002e52:	2300      	movs	r3, #0
10002e54:	0020      	movs	r0, r4
10002e56:	0039      	movs	r1, r7
10002e58:	f000 f9e4 	bl	10003224 <__wrap___aeabi_uldivmod>
10002e5c:	b2d2      	uxtb	r2, r2
10002e5e:	2a09      	cmp	r2, #9
10002e60:	d9e8      	bls.n	10002e34 <_vsnprintf+0x8b8>
10002e62:	9b0d      	ldr	r3, [sp, #52]	; 0x34
10002e64:	469c      	mov	ip, r3
10002e66:	4462      	add	r2, ip
10002e68:	b2d2      	uxtb	r2, r2
10002e6a:	e7e5      	b.n	10002e38 <_vsnprintf+0x8bc>
10002e6c:	9a0b      	ldr	r2, [sp, #44]	; 0x2c
10002e6e:	2361      	movs	r3, #97	; 0x61
10002e70:	0692      	lsls	r2, r2, #26
10002e72:	d500      	bpl.n	10002e76 <_vsnprintf+0x8fa>
10002e74:	2341      	movs	r3, #65	; 0x41
10002e76:	b2db      	uxtb	r3, r3
10002e78:	a90e      	add	r1, sp, #56	; 0x38
10002e7a:	3b0a      	subs	r3, #10
10002e7c:	221f      	movs	r2, #31
10002e7e:	468c      	mov	ip, r1
10002e80:	930d      	str	r3, [sp, #52]	; 0x34
10002e82:	0023      	movs	r3, r4
10002e84:	4462      	add	r2, ip
10002e86:	4654      	mov	r4, sl
10002e88:	9512      	str	r5, [sp, #72]	; 0x48
10002e8a:	0017      	movs	r7, r2
10002e8c:	464d      	mov	r5, r9
10002e8e:	469a      	mov	sl, r3
10002e90:	46b1      	mov	r9, r6
10002e92:	9e0c      	ldr	r6, [sp, #48]	; 0x30
10002e94:	e008      	b.n	10002ea8 <_vsnprintf+0x92c>
10002e96:	3330      	adds	r3, #48	; 0x30
10002e98:	b2db      	uxtb	r3, r3
10002e9a:	3501      	adds	r5, #1
10002e9c:	557b      	strb	r3, [r7, r5]
10002e9e:	42b4      	cmp	r4, r6
10002ea0:	d30e      	bcc.n	10002ec0 <_vsnprintf+0x944>
10002ea2:	2d20      	cmp	r5, #32
10002ea4:	d00c      	beq.n	10002ec0 <_vsnprintf+0x944>
10002ea6:	0004      	movs	r4, r0
10002ea8:	0031      	movs	r1, r6
10002eaa:	0020      	movs	r0, r4
10002eac:	f000 f974 	bl	10003198 <__wrap___aeabi_uidiv>
10002eb0:	b2cb      	uxtb	r3, r1
10002eb2:	2909      	cmp	r1, #9
10002eb4:	d9ef      	bls.n	10002e96 <_vsnprintf+0x91a>
10002eb6:	9a0d      	ldr	r2, [sp, #52]	; 0x34
10002eb8:	4694      	mov	ip, r2
10002eba:	4463      	add	r3, ip
10002ebc:	b2db      	uxtb	r3, r3
10002ebe:	e7ec      	b.n	10002e9a <_vsnprintf+0x91e>
10002ec0:	464e      	mov	r6, r9
10002ec2:	4654      	mov	r4, sl
10002ec4:	46a9      	mov	r9, r5
10002ec6:	9d12      	ldr	r5, [sp, #72]	; 0x48
10002ec8:	e475      	b.n	100027b6 <_vsnprintf+0x23a>
10002eca:	9b09      	ldr	r3, [sp, #36]	; 0x24
10002ecc:	001a      	movs	r2, r3
10002ece:	ca08      	ldmia	r2!, {r3}
10002ed0:	17d9      	asrs	r1, r3, #31
10002ed2:	9213      	str	r2, [sp, #76]	; 0x4c
10002ed4:	185a      	adds	r2, r3, r1
10002ed6:	404a      	eors	r2, r1
10002ed8:	4691      	mov	r9, r2
10002eda:	0fda      	lsrs	r2, r3, #31
10002edc:	9212      	str	r2, [sp, #72]	; 0x48
10002ede:	2b00      	cmp	r3, #0
10002ee0:	d108      	bne.n	10002ef4 <_vsnprintf+0x978>
10002ee2:	2380      	movs	r3, #128	; 0x80
10002ee4:	2210      	movs	r2, #16
10002ee6:	990b      	ldr	r1, [sp, #44]	; 0x2c
10002ee8:	00db      	lsls	r3, r3, #3
10002eea:	400b      	ands	r3, r1
10002eec:	4391      	bics	r1, r2
10002eee:	910b      	str	r1, [sp, #44]	; 0x2c
10002ef0:	2b00      	cmp	r3, #0
10002ef2:	d12b      	bne.n	10002f4c <_vsnprintf+0x9d0>
10002ef4:	9a0b      	ldr	r2, [sp, #44]	; 0x2c
10002ef6:	2361      	movs	r3, #97	; 0x61
10002ef8:	0692      	lsls	r2, r2, #26
10002efa:	d500      	bpl.n	10002efe <_vsnprintf+0x982>
10002efc:	2341      	movs	r3, #65	; 0x41
10002efe:	aa0e      	add	r2, sp, #56	; 0x38
10002f00:	271f      	movs	r7, #31
10002f02:	4694      	mov	ip, r2
10002f04:	b2db      	uxtb	r3, r3
10002f06:	3b0a      	subs	r3, #10
10002f08:	950d      	str	r5, [sp, #52]	; 0x34
10002f0a:	4467      	add	r7, ip
10002f0c:	4655      	mov	r5, sl
10002f0e:	9309      	str	r3, [sp, #36]	; 0x24
10002f10:	46a2      	mov	sl, r4
10002f12:	464c      	mov	r4, r9
10002f14:	46b1      	mov	r9, r6
10002f16:	9e0c      	ldr	r6, [sp, #48]	; 0x30
10002f18:	e008      	b.n	10002f2c <_vsnprintf+0x9b0>
10002f1a:	3330      	adds	r3, #48	; 0x30
10002f1c:	b2db      	uxtb	r3, r3
10002f1e:	3501      	adds	r5, #1
10002f20:	557b      	strb	r3, [r7, r5]
10002f22:	42b4      	cmp	r4, r6
10002f24:	d30e      	bcc.n	10002f44 <_vsnprintf+0x9c8>
10002f26:	2d20      	cmp	r5, #32
10002f28:	d00c      	beq.n	10002f44 <_vsnprintf+0x9c8>
10002f2a:	0004      	movs	r4, r0
10002f2c:	0031      	movs	r1, r6
10002f2e:	0020      	movs	r0, r4
10002f30:	f000 f932 	bl	10003198 <__wrap___aeabi_uidiv>
10002f34:	b2cb      	uxtb	r3, r1
10002f36:	2909      	cmp	r1, #9
10002f38:	d9ef      	bls.n	10002f1a <_vsnprintf+0x99e>
10002f3a:	9a09      	ldr	r2, [sp, #36]	; 0x24
10002f3c:	4694      	mov	ip, r2
10002f3e:	4463      	add	r3, ip
10002f40:	b2db      	uxtb	r3, r3
10002f42:	e7ec      	b.n	10002f1e <_vsnprintf+0x9a2>
10002f44:	464e      	mov	r6, r9
10002f46:	4654      	mov	r4, sl
10002f48:	46aa      	mov	sl, r5
10002f4a:	9d0d      	ldr	r5, [sp, #52]	; 0x34
10002f4c:	9b0b      	ldr	r3, [sp, #44]	; 0x2c
10002f4e:	002a      	movs	r2, r5
10002f50:	9306      	str	r3, [sp, #24]
10002f52:	9b0a      	ldr	r3, [sp, #40]	; 0x28
10002f54:	0021      	movs	r1, r4
10002f56:	9305      	str	r3, [sp, #20]
10002f58:	4643      	mov	r3, r8
10002f5a:	9304      	str	r3, [sp, #16]
10002f5c:	9b0c      	ldr	r3, [sp, #48]	; 0x30
10002f5e:	9808      	ldr	r0, [sp, #32]
10002f60:	9303      	str	r3, [sp, #12]
10002f62:	9b12      	ldr	r3, [sp, #72]	; 0x48
10002f64:	3601      	adds	r6, #1
10002f66:	9302      	str	r3, [sp, #8]
10002f68:	4653      	mov	r3, sl
10002f6a:	9301      	str	r3, [sp, #4]
10002f6c:	ab16      	add	r3, sp, #88	; 0x58
10002f6e:	9300      	str	r3, [sp, #0]
10002f70:	465b      	mov	r3, fp
10002f72:	f7fe fdf5 	bl	10001b60 <_ntoa_format>
10002f76:	9b13      	ldr	r3, [sp, #76]	; 0x4c
10002f78:	0005      	movs	r5, r0
10002f7a:	9309      	str	r3, [sp, #36]	; 0x24
10002f7c:	f7ff fb23 	bl	100025c6 <_vsnprintf+0x4a>
10002f80:	9b09      	ldr	r3, [sp, #36]	; 0x24
10002f82:	cb04      	ldmia	r3!, {r2}
10002f84:	4691      	mov	r9, r2
10002f86:	9312      	str	r3, [sp, #72]	; 0x48
10002f88:	2a00      	cmp	r2, #0
10002f8a:	d108      	bne.n	10002f9e <_vsnprintf+0xa22>
10002f8c:	2380      	movs	r3, #128	; 0x80
10002f8e:	2210      	movs	r2, #16
10002f90:	990b      	ldr	r1, [sp, #44]	; 0x2c
10002f92:	00db      	lsls	r3, r3, #3
10002f94:	400b      	ands	r3, r1
10002f96:	4391      	bics	r1, r2
10002f98:	910b      	str	r1, [sp, #44]	; 0x2c
10002f9a:	2b00      	cmp	r3, #0
10002f9c:	d12b      	bne.n	10002ff6 <_vsnprintf+0xa7a>
10002f9e:	9a0b      	ldr	r2, [sp, #44]	; 0x2c
10002fa0:	2361      	movs	r3, #97	; 0x61
10002fa2:	0692      	lsls	r2, r2, #26
10002fa4:	d500      	bpl.n	10002fa8 <_vsnprintf+0xa2c>
10002fa6:	2341      	movs	r3, #65	; 0x41
10002fa8:	aa0e      	add	r2, sp, #56	; 0x38
10002faa:	271f      	movs	r7, #31
10002fac:	4694      	mov	ip, r2
10002fae:	b2db      	uxtb	r3, r3
10002fb0:	3b0a      	subs	r3, #10
10002fb2:	950d      	str	r5, [sp, #52]	; 0x34
10002fb4:	4467      	add	r7, ip
10002fb6:	4655      	mov	r5, sl
10002fb8:	9309      	str	r3, [sp, #36]	; 0x24
10002fba:	46a2      	mov	sl, r4
10002fbc:	464c      	mov	r4, r9
10002fbe:	46b1      	mov	r9, r6
10002fc0:	9e0c      	ldr	r6, [sp, #48]	; 0x30
10002fc2:	e008      	b.n	10002fd6 <_vsnprintf+0xa5a>
10002fc4:	3330      	adds	r3, #48	; 0x30
10002fc6:	b2db      	uxtb	r3, r3
10002fc8:	3501      	adds	r5, #1
10002fca:	557b      	strb	r3, [r7, r5]
10002fcc:	42b4      	cmp	r4, r6
10002fce:	d30e      	bcc.n	10002fee <_vsnprintf+0xa72>
10002fd0:	2d20      	cmp	r5, #32
10002fd2:	d00c      	beq.n	10002fee <_vsnprintf+0xa72>
10002fd4:	0004      	movs	r4, r0
10002fd6:	0031      	movs	r1, r6
10002fd8:	0020      	movs	r0, r4
10002fda:	f000 f8dd 	bl	10003198 <__wrap___aeabi_uidiv>
10002fde:	b2cb      	uxtb	r3, r1
10002fe0:	2909      	cmp	r1, #9
10002fe2:	d9ef      	bls.n	10002fc4 <_vsnprintf+0xa48>
10002fe4:	9a09      	ldr	r2, [sp, #36]	; 0x24
10002fe6:	4694      	mov	ip, r2
10002fe8:	4463      	add	r3, ip
10002fea:	b2db      	uxtb	r3, r3
10002fec:	e7ec      	b.n	10002fc8 <_vsnprintf+0xa4c>
10002fee:	464e      	mov	r6, r9
10002ff0:	4654      	mov	r4, sl
10002ff2:	46aa      	mov	sl, r5
10002ff4:	9d0d      	ldr	r5, [sp, #52]	; 0x34
10002ff6:	9b0b      	ldr	r3, [sp, #44]	; 0x2c
10002ff8:	002a      	movs	r2, r5
10002ffa:	9306      	str	r3, [sp, #24]
10002ffc:	9b0a      	ldr	r3, [sp, #40]	; 0x28
10002ffe:	0021      	movs	r1, r4
10003000:	9305      	str	r3, [sp, #20]
10003002:	4643      	mov	r3, r8
10003004:	9304      	str	r3, [sp, #16]
10003006:	9b0c      	ldr	r3, [sp, #48]	; 0x30
10003008:	9808      	ldr	r0, [sp, #32]
1000300a:	9303      	str	r3, [sp, #12]
1000300c:	2300      	movs	r3, #0
1000300e:	9302      	str	r3, [sp, #8]
10003010:	4653      	mov	r3, sl
10003012:	9301      	str	r3, [sp, #4]
10003014:	ab16      	add	r3, sp, #88	; 0x58
10003016:	9300      	str	r3, [sp, #0]
10003018:	465b      	mov	r3, fp
1000301a:	f7fe fda1 	bl	10001b60 <_ntoa_format>
1000301e:	9b12      	ldr	r3, [sp, #72]	; 0x48
10003020:	0005      	movs	r5, r0
10003022:	9309      	str	r3, [sp, #36]	; 0x24
10003024:	3601      	adds	r6, #1
10003026:	f7ff face 	bl	100025c6 <_vsnprintf+0x4a>
1000302a:	42b4      	cmp	r4, r6
1000302c:	d800      	bhi.n	10003030 <_vsnprintf+0xab4>
1000302e:	e67f      	b.n	10002d30 <_vsnprintf+0x7b4>
10003030:	9b14      	ldr	r3, [sp, #80]	; 0x50
10003032:	464c      	mov	r4, r9
10003034:	960e      	str	r6, [sp, #56]	; 0x38
10003036:	970f      	str	r7, [sp, #60]	; 0x3c
10003038:	46a9      	mov	r9, r5
1000303a:	4698      	mov	r8, r3
1000303c:	9e15      	ldr	r6, [sp, #84]	; 0x54
1000303e:	9d13      	ldr	r5, [sp, #76]	; 0x4c
10003040:	e699      	b.n	10002d76 <_vsnprintf+0x7fa>
10003042:	42a6      	cmp	r6, r4
10003044:	d800      	bhi.n	10003048 <_vsnprintf+0xacc>
10003046:	e6fe      	b.n	10002e46 <_vsnprintf+0x8ca>
10003048:	9b13      	ldr	r3, [sp, #76]	; 0x4c
1000304a:	464e      	mov	r6, r9
1000304c:	4698      	mov	r8, r3
1000304e:	46a9      	mov	r9, r5
10003050:	4654      	mov	r4, sl
10003052:	9d12      	ldr	r5, [sp, #72]	; 0x48
10003054:	f7ff fbaf 	bl	100027b6 <_vsnprintf+0x23a>
10003058:	c908      	ldmia	r1!, {r3}
1000305a:	17d8      	asrs	r0, r3, #31
1000305c:	181a      	adds	r2, r3, r0
1000305e:	4042      	eors	r2, r0
10003060:	9109      	str	r1, [sp, #36]	; 0x24
10003062:	e566      	b.n	10002b32 <_vsnprintf+0x5b6>
10003064:	2300      	movs	r3, #0
10003066:	930b      	str	r3, [sp, #44]	; 0x2c
10003068:	e45e      	b.n	10002928 <_vsnprintf+0x3ac>
1000306a:	9b09      	ldr	r3, [sp, #36]	; 0x24
1000306c:	cb04      	ldmia	r3!, {r2}
1000306e:	4692      	mov	sl, r2
10003070:	9309      	str	r3, [sp, #36]	; 0x24
10003072:	f7ff fb92 	bl	1000279a <_vsnprintf+0x21e>
10003076:	002f      	movs	r7, r5
10003078:	e5e0      	b.n	10002c3c <_vsnprintf+0x6c0>
1000307a:	930b      	str	r3, [sp, #44]	; 0x2c
1000307c:	e60b      	b.n	10002c96 <_vsnprintf+0x71a>
1000307e:	3b06      	subs	r3, #6
10003080:	930c      	str	r3, [sp, #48]	; 0x30
10003082:	e52e      	b.n	10002ae2 <_vsnprintf+0x566>

10003084 <vfctprintf>:
10003084:	b500      	push	{lr}
10003086:	b085      	sub	sp, #20
10003088:	9103      	str	r1, [sp, #12]
1000308a:	2101      	movs	r1, #1
1000308c:	9002      	str	r0, [sp, #8]
1000308e:	9300      	str	r3, [sp, #0]
10003090:	4803      	ldr	r0, [pc, #12]	; (100030a0 <vfctprintf+0x1c>)
10003092:	0013      	movs	r3, r2
10003094:	424a      	negs	r2, r1
10003096:	a902      	add	r1, sp, #8
10003098:	f7ff fa70 	bl	1000257c <_vsnprintf>
1000309c:	b005      	add	sp, #20
1000309e:	bd00      	pop	{pc}
100030a0:	10001d41 	.word	0x10001d41

100030a4 <weak_raw_vprintf>:
100030a4:	b510      	push	{r4, lr}
100030a6:	4a09      	ldr	r2, [pc, #36]	; (100030cc <weak_raw_vprintf+0x28>)
100030a8:	0003      	movs	r3, r0
100030aa:	6814      	ldr	r4, [r2, #0]
100030ac:	b084      	sub	sp, #16
100030ae:	2c00      	cmp	r4, #0
100030b0:	d008      	beq.n	100030c4 <weak_raw_vprintf+0x20>
100030b2:	2201      	movs	r2, #1
100030b4:	9100      	str	r1, [sp, #0]
100030b6:	4806      	ldr	r0, [pc, #24]	; (100030d0 <weak_raw_vprintf+0x2c>)
100030b8:	4252      	negs	r2, r2
100030ba:	a903      	add	r1, sp, #12
100030bc:	47a0      	blx	r4
100030be:	2001      	movs	r0, #1
100030c0:	b004      	add	sp, #16
100030c2:	bd10      	pop	{r4, pc}
100030c4:	f001 f8e8 	bl	10004298 <__wrap_puts>
100030c8:	2000      	movs	r0, #0
100030ca:	e7f9      	b.n	100030c0 <weak_raw_vprintf+0x1c>
100030cc:	20000b04 	.word	0x20000b04
100030d0:	10001d31 	.word	0x10001d31

100030d4 <__aeabi_bits_init>:
100030d4:	4801      	ldr	r0, [pc, #4]	; (100030dc <__aeabi_bits_init+0x8>)
100030d6:	2104      	movs	r1, #4
100030d8:	4b01      	ldr	r3, [pc, #4]	; (100030e0 <__aeabi_bits_init+0xc>)
100030da:	4718      	bx	r3
100030dc:	200001e0 	.word	0x200001e0
100030e0:	10003105 	.word	0x10003105

100030e4 <rom_func_lookup>:
100030e4:	2314      	movs	r3, #20
100030e6:	b510      	push	{r4, lr}
100030e8:	0001      	movs	r1, r0
100030ea:	8818      	ldrh	r0, [r3, #0]
100030ec:	3304      	adds	r3, #4
100030ee:	881b      	ldrh	r3, [r3, #0]
100030f0:	4798      	blx	r3
100030f2:	bd10      	pop	{r4, pc}

100030f4 <rom_data_lookup>:
100030f4:	2316      	movs	r3, #22
100030f6:	b510      	push	{r4, lr}
100030f8:	0001      	movs	r1, r0
100030fa:	8818      	ldrh	r0, [r3, #0]
100030fc:	3302      	adds	r3, #2
100030fe:	881b      	ldrh	r3, [r3, #0]
10003100:	4798      	blx	r3
10003102:	bd10      	pop	{r4, pc}

10003104 <rom_funcs_lookup>:
10003104:	b5f0      	push	{r4, r5, r6, r7, lr}
10003106:	46c6      	mov	lr, r8
10003108:	b500      	push	{lr}
1000310a:	2900      	cmp	r1, #0
1000310c:	d016      	beq.n	1000313c <rom_funcs_lookup+0x38>
1000310e:	2314      	movs	r3, #20
10003110:	0004      	movs	r4, r0
10003112:	2501      	movs	r5, #1
10003114:	4698      	mov	r8, r3
10003116:	2718      	movs	r7, #24
10003118:	0089      	lsls	r1, r1, #2
1000311a:	1846      	adds	r6, r0, r1
1000311c:	4643      	mov	r3, r8
1000311e:	6821      	ldr	r1, [r4, #0]
10003120:	8818      	ldrh	r0, [r3, #0]
10003122:	883b      	ldrh	r3, [r7, #0]
10003124:	4798      	blx	r3
10003126:	c401      	stmia	r4!, {r0}
10003128:	1e43      	subs	r3, r0, #1
1000312a:	4198      	sbcs	r0, r3
1000312c:	4240      	negs	r0, r0
1000312e:	4005      	ands	r5, r0
10003130:	42a6      	cmp	r6, r4
10003132:	d1f3      	bne.n	1000311c <rom_funcs_lookup+0x18>
10003134:	0028      	movs	r0, r5
10003136:	bc04      	pop	{r2}
10003138:	4690      	mov	r8, r2
1000313a:	bdf0      	pop	{r4, r5, r6, r7, pc}
1000313c:	2501      	movs	r5, #1
1000313e:	e7f9      	b.n	10003134 <rom_funcs_lookup+0x30>

10003140 <__wrap___aeabi_idiv>:
10003140:	4a14      	ldr	r2, [pc, #80]	; (10003194 <divmod_s32s32_savestate+0x20>)
10003142:	6f93      	ldr	r3, [r2, #120]	; 0x78
10003144:	089b      	lsrs	r3, r3, #2
10003146:	d215      	bcs.n	10003174 <divmod_s32s32_savestate>

10003148 <divmod_s32s32_unsafe>:
10003148:	6690      	str	r0, [r2, #104]	; 0x68
1000314a:	66d1      	str	r1, [r2, #108]	; 0x6c
1000314c:	2900      	cmp	r1, #0
1000314e:	d005      	beq.n	1000315c <divmod_s32s32_unsafe+0x14>
10003150:	e7ff      	b.n	10003152 <divmod_s32s32_unsafe+0xa>
10003152:	e7ff      	b.n	10003154 <divmod_s32s32_unsafe+0xc>
10003154:	e7ff      	b.n	10003156 <divmod_s32s32_unsafe+0xe>
10003156:	6f51      	ldr	r1, [r2, #116]	; 0x74
10003158:	6f10      	ldr	r0, [r2, #112]	; 0x70
1000315a:	4770      	bx	lr
1000315c:	b504      	push	{r2, lr}
1000315e:	2180      	movs	r1, #128	; 0x80
10003160:	0609      	lsls	r1, r1, #24
10003162:	17c2      	asrs	r2, r0, #31
10003164:	4051      	eors	r1, r2
10003166:	2800      	cmp	r0, #0
10003168:	d000      	beq.n	1000316c <divmod_s32s32_unsafe+0x24>
1000316a:	43c8      	mvns	r0, r1
1000316c:	f001 fe48 	bl	10004e00 <____aeabi_idiv0_veneer>
10003170:	2100      	movs	r1, #0
10003172:	bd04      	pop	{r2, pc}

10003174 <divmod_s32s32_savestate>:
10003174:	6f93      	ldr	r3, [r2, #120]	; 0x78
10003176:	085b      	lsrs	r3, r3, #1
10003178:	d3fd      	bcc.n	10003176 <divmod_s32s32_savestate+0x2>
1000317a:	b5f0      	push	{r4, r5, r6, r7, lr}
1000317c:	6e94      	ldr	r4, [r2, #104]	; 0x68
1000317e:	6ed5      	ldr	r5, [r2, #108]	; 0x6c
10003180:	6f57      	ldr	r7, [r2, #116]	; 0x74
10003182:	6f16      	ldr	r6, [r2, #112]	; 0x70
10003184:	f7ff ffe0 	bl	10003148 <divmod_s32s32_unsafe>
10003188:	6694      	str	r4, [r2, #104]	; 0x68
1000318a:	66d5      	str	r5, [r2, #108]	; 0x6c
1000318c:	6757      	str	r7, [r2, #116]	; 0x74
1000318e:	6716      	str	r6, [r2, #112]	; 0x70
10003190:	bdf0      	pop	{r4, r5, r6, r7, pc}
10003192:	0000      	.short	0x0000
10003194:	d0000000 	.word	0xd0000000

10003198 <__wrap___aeabi_uidiv>:
10003198:	4a13      	ldr	r2, [pc, #76]	; (100031e8 <divmod_u32u32_savestate+0x20>)
1000319a:	6f93      	ldr	r3, [r2, #120]	; 0x78
1000319c:	089b      	lsrs	r3, r3, #2
1000319e:	d213      	bcs.n	100031c8 <divmod_u32u32_savestate>

100031a0 <divmod_u32u32_unsafe>:
100031a0:	6610      	str	r0, [r2, #96]	; 0x60
100031a2:	6651      	str	r1, [r2, #100]	; 0x64
100031a4:	2900      	cmp	r1, #0
100031a6:	d005      	beq.n	100031b4 <divmod_u32u32_unsafe+0x14>
100031a8:	e7ff      	b.n	100031aa <divmod_u32u32_unsafe+0xa>
100031aa:	e7ff      	b.n	100031ac <divmod_u32u32_unsafe+0xc>
100031ac:	e7ff      	b.n	100031ae <divmod_u32u32_unsafe+0xe>
100031ae:	6f51      	ldr	r1, [r2, #116]	; 0x74
100031b0:	6f10      	ldr	r0, [r2, #112]	; 0x70
100031b2:	4770      	bx	lr
100031b4:	b504      	push	{r2, lr}
100031b6:	2800      	cmp	r0, #0
100031b8:	d001      	beq.n	100031be <divmod_u32u32_unsafe+0x1e>
100031ba:	2000      	movs	r0, #0
100031bc:	43c0      	mvns	r0, r0
100031be:	f001 fe1f 	bl	10004e00 <____aeabi_idiv0_veneer>
100031c2:	2100      	movs	r1, #0
100031c4:	bd04      	pop	{r2, pc}
100031c6:	46c0      	nop			; (mov r8, r8)

100031c8 <divmod_u32u32_savestate>:
100031c8:	6f93      	ldr	r3, [r2, #120]	; 0x78
100031ca:	085b      	lsrs	r3, r3, #1
100031cc:	d3fd      	bcc.n	100031ca <divmod_u32u32_savestate+0x2>
100031ce:	b5f0      	push	{r4, r5, r6, r7, lr}
100031d0:	6e94      	ldr	r4, [r2, #104]	; 0x68
100031d2:	6ed5      	ldr	r5, [r2, #108]	; 0x6c
100031d4:	6f57      	ldr	r7, [r2, #116]	; 0x74
100031d6:	6f16      	ldr	r6, [r2, #112]	; 0x70
100031d8:	f7ff ffe2 	bl	100031a0 <divmod_u32u32_unsafe>
100031dc:	6694      	str	r4, [r2, #104]	; 0x68
100031de:	66d5      	str	r5, [r2, #108]	; 0x6c
100031e0:	6757      	str	r7, [r2, #116]	; 0x74
100031e2:	6716      	str	r6, [r2, #112]	; 0x70
100031e4:	bdf0      	pop	{r4, r5, r6, r7, pc}
100031e6:	0000      	.short	0x0000
100031e8:	d0000000 	.word	0xd0000000

100031ec <__wrap___aeabi_ldivmod>:
100031ec:	4694      	mov	ip, r2
100031ee:	4a4e      	ldr	r2, [pc, #312]	; (10003328 <udiv0+0x1a>)
100031f0:	6f92      	ldr	r2, [r2, #120]	; 0x78
100031f2:	0892      	lsrs	r2, r2, #2
100031f4:	4662      	mov	r2, ip
100031f6:	d201      	bcs.n	100031fc <divmod_s64s64_savestate>
100031f8:	e030      	b.n	1000325c <divmod_s64s64_unsafe>
100031fa:	46c0      	nop			; (mov r8, r8)

100031fc <divmod_s64s64_savestate>:
100031fc:	b5f0      	push	{r4, r5, r6, r7, lr}
100031fe:	4e4a      	ldr	r6, [pc, #296]	; (10003328 <udiv0+0x1a>)
10003200:	6fb5      	ldr	r5, [r6, #120]	; 0x78
10003202:	086d      	lsrs	r5, r5, #1
10003204:	d3fc      	bcc.n	10003200 <divmod_s64s64_savestate+0x4>
10003206:	6e34      	ldr	r4, [r6, #96]	; 0x60
10003208:	6e75      	ldr	r5, [r6, #100]	; 0x64
1000320a:	6f77      	ldr	r7, [r6, #116]	; 0x74
1000320c:	6f36      	ldr	r6, [r6, #112]	; 0x70
1000320e:	f000 f825 	bl	1000325c <divmod_s64s64_unsafe>
10003212:	4694      	mov	ip, r2
10003214:	4a44      	ldr	r2, [pc, #272]	; (10003328 <udiv0+0x1a>)
10003216:	6614      	str	r4, [r2, #96]	; 0x60
10003218:	6655      	str	r5, [r2, #100]	; 0x64
1000321a:	6757      	str	r7, [r2, #116]	; 0x74
1000321c:	6716      	str	r6, [r2, #112]	; 0x70
1000321e:	4662      	mov	r2, ip
10003220:	bdf0      	pop	{r4, r5, r6, r7, pc}
10003222:	46c0      	nop			; (mov r8, r8)

10003224 <__wrap___aeabi_uldivmod>:
10003224:	4694      	mov	ip, r2
10003226:	4a40      	ldr	r2, [pc, #256]	; (10003328 <udiv0+0x1a>)
10003228:	6f92      	ldr	r2, [r2, #120]	; 0x78
1000322a:	0892      	lsrs	r2, r2, #2
1000322c:	4662      	mov	r2, ip
1000322e:	d201      	bcs.n	10003234 <divmod_u64u64_savestate>
10003230:	e058      	b.n	100032e4 <divmod_u64u64_unsafe>
10003232:	46c0      	nop			; (mov r8, r8)

10003234 <divmod_u64u64_savestate>:
10003234:	b5f0      	push	{r4, r5, r6, r7, lr}
10003236:	4e3c      	ldr	r6, [pc, #240]	; (10003328 <udiv0+0x1a>)
10003238:	6fb5      	ldr	r5, [r6, #120]	; 0x78
1000323a:	086d      	lsrs	r5, r5, #1
1000323c:	d3fc      	bcc.n	10003238 <divmod_u64u64_savestate+0x4>
1000323e:	6e34      	ldr	r4, [r6, #96]	; 0x60
10003240:	6e75      	ldr	r5, [r6, #100]	; 0x64
10003242:	6f77      	ldr	r7, [r6, #116]	; 0x74
10003244:	6f36      	ldr	r6, [r6, #112]	; 0x70
10003246:	f000 f84d 	bl	100032e4 <divmod_u64u64_unsafe>
1000324a:	4694      	mov	ip, r2
1000324c:	4a36      	ldr	r2, [pc, #216]	; (10003328 <udiv0+0x1a>)
1000324e:	6614      	str	r4, [r2, #96]	; 0x60
10003250:	6655      	str	r5, [r2, #100]	; 0x64
10003252:	6757      	str	r7, [r2, #116]	; 0x74
10003254:	6716      	str	r6, [r2, #112]	; 0x70
10003256:	4662      	mov	r2, ip
10003258:	bdf0      	pop	{r4, r5, r6, r7, pc}
1000325a:	46c0      	nop			; (mov r8, r8)

1000325c <divmod_s64s64_unsafe>:
1000325c:	2b00      	cmp	r3, #0
1000325e:	db24      	blt.n	100032aa <l41_1+0x26>
10003260:	d011      	beq.n	10003286 <l41_1+0x2>
10003262:	2900      	cmp	r1, #0
10003264:	da3e      	bge.n	100032e4 <divmod_u64u64_unsafe>
10003266:	b500      	push	{lr}
10003268:	43c9      	mvns	r1, r1
1000326a:	4240      	negs	r0, r0
1000326c:	d100      	bne.n	10003270 <l39_1>
1000326e:	3101      	adds	r1, #1

10003270 <l39_1>:
10003270:	f000 f838 	bl	100032e4 <divmod_u64u64_unsafe>
10003274:	43c9      	mvns	r1, r1
10003276:	4240      	negs	r0, r0
10003278:	d100      	bne.n	1000327c <l40_1>
1000327a:	3101      	adds	r1, #1

1000327c <l40_1>:
1000327c:	43db      	mvns	r3, r3
1000327e:	4252      	negs	r2, r2
10003280:	d100      	bne.n	10003284 <l41_1>
10003282:	3301      	adds	r3, #1

10003284 <l41_1>:
10003284:	bd00      	pop	{pc}
10003286:	2a00      	cmp	r2, #0
10003288:	d1eb      	bne.n	10003262 <divmod_s64s64_unsafe+0x6>
1000328a:	2800      	cmp	r0, #0
1000328c:	d101      	bne.n	10003292 <l41_1+0xe>
1000328e:	2900      	cmp	r1, #0
10003290:	d005      	beq.n	1000329e <l41_1+0x1a>
10003292:	2000      	movs	r0, #0
10003294:	0fc9      	lsrs	r1, r1, #31
10003296:	07c9      	lsls	r1, r1, #31
10003298:	d101      	bne.n	1000329e <l41_1+0x1a>
1000329a:	43c0      	mvns	r0, r0
1000329c:	0841      	lsrs	r1, r0, #1
1000329e:	b500      	push	{lr}
100032a0:	f001 fda6 	bl	10004df0 <____aeabi_ldiv0_veneer>
100032a4:	2200      	movs	r2, #0
100032a6:	2300      	movs	r3, #0
100032a8:	bd00      	pop	{pc}
100032aa:	b500      	push	{lr}
100032ac:	2900      	cmp	r1, #0
100032ae:	db0a      	blt.n	100032c6 <l43_1+0x2>
100032b0:	43db      	mvns	r3, r3
100032b2:	4252      	negs	r2, r2
100032b4:	d100      	bne.n	100032b8 <l42_1>
100032b6:	3301      	adds	r3, #1

100032b8 <l42_1>:
100032b8:	f000 f814 	bl	100032e4 <divmod_u64u64_unsafe>
100032bc:	43c9      	mvns	r1, r1
100032be:	4240      	negs	r0, r0
100032c0:	d100      	bne.n	100032c4 <l43_1>
100032c2:	3101      	adds	r1, #1

100032c4 <l43_1>:
100032c4:	bd00      	pop	{pc}
100032c6:	43c9      	mvns	r1, r1
100032c8:	4240      	negs	r0, r0
100032ca:	d100      	bne.n	100032ce <l44_1>
100032cc:	3101      	adds	r1, #1

100032ce <l44_1>:
100032ce:	43db      	mvns	r3, r3
100032d0:	4252      	negs	r2, r2
100032d2:	d100      	bne.n	100032d6 <l45_1>
100032d4:	3301      	adds	r3, #1

100032d6 <l45_1>:
100032d6:	f000 f805 	bl	100032e4 <divmod_u64u64_unsafe>
100032da:	43db      	mvns	r3, r3
100032dc:	4252      	negs	r2, r2
100032de:	d100      	bne.n	100032e2 <l46_1>
100032e0:	3301      	adds	r3, #1

100032e2 <l46_1>:
100032e2:	bd00      	pop	{pc}

100032e4 <divmod_u64u64_unsafe>:
100032e4:	2900      	cmp	r1, #0
100032e6:	d123      	bne.n	10003330 <y64>
100032e8:	2b00      	cmp	r3, #0
100032ea:	d118      	bne.n	1000331e <udiv0+0x10>
100032ec:	2a00      	cmp	r2, #0
100032ee:	d00c      	beq.n	1000330a <divmod_u64u64_unsafe+0x26>
100032f0:	46bc      	mov	ip, r7
100032f2:	4f0d      	ldr	r7, [pc, #52]	; (10003328 <udiv0+0x1a>)
100032f4:	6638      	str	r0, [r7, #96]	; 0x60
100032f6:	667a      	str	r2, [r7, #100]	; 0x64
100032f8:	2100      	movs	r1, #0
100032fa:	2300      	movs	r3, #0
100032fc:	e7ff      	b.n	100032fe <divmod_u64u64_unsafe+0x1a>
100032fe:	e7ff      	b.n	10003300 <divmod_u64u64_unsafe+0x1c>
10003300:	e7ff      	b.n	10003302 <divmod_u64u64_unsafe+0x1e>
10003302:	6f7a      	ldr	r2, [r7, #116]	; 0x74
10003304:	6f38      	ldr	r0, [r7, #112]	; 0x70
10003306:	4667      	mov	r7, ip
10003308:	4770      	bx	lr
1000330a:	2800      	cmp	r0, #0
1000330c:	d001      	beq.n	10003312 <udiv0+0x4>

1000330e <udiv0>:
1000330e:	4807      	ldr	r0, [pc, #28]	; (1000332c <udiv0+0x1e>)
10003310:	0001      	movs	r1, r0
10003312:	b500      	push	{lr}
10003314:	f001 fd6c 	bl	10004df0 <____aeabi_ldiv0_veneer>
10003318:	2200      	movs	r2, #0
1000331a:	2300      	movs	r3, #0
1000331c:	bd00      	pop	{pc}
1000331e:	0002      	movs	r2, r0
10003320:	000b      	movs	r3, r1
10003322:	2000      	movs	r0, #0
10003324:	2100      	movs	r1, #0
10003326:	4770      	bx	lr
10003328:	d0000000 	.word	0xd0000000
1000332c:	ffffffff 	.word	0xffffffff

10003330 <y64>:
10003330:	2b00      	cmp	r3, #0
10003332:	d000      	beq.n	10003336 <y64+0x6>
10003334:	e0bd      	b.n	100034b2 <y64_x48>
10003336:	0c13      	lsrs	r3, r2, #16
10003338:	d126      	bne.n	10003388 <y64_x32>
1000333a:	2a00      	cmp	r2, #0
1000333c:	d0e7      	beq.n	1000330e <udiv0>
1000333e:	b480      	push	{r7}
10003340:	4f10      	ldr	r7, [pc, #64]	; (10003384 <y64+0x54>)
10003342:	6639      	str	r1, [r7, #96]	; 0x60
10003344:	667a      	str	r2, [r7, #100]	; 0x64
10003346:	e7ff      	b.n	10003348 <y64+0x18>
10003348:	e7ff      	b.n	1000334a <y64+0x1a>
1000334a:	b430      	push	{r4, r5}
1000334c:	0c04      	lsrs	r4, r0, #16
1000334e:	6f7b      	ldr	r3, [r7, #116]	; 0x74
10003350:	6f39      	ldr	r1, [r7, #112]	; 0x70
10003352:	041b      	lsls	r3, r3, #16
10003354:	4323      	orrs	r3, r4
10003356:	663b      	str	r3, [r7, #96]	; 0x60
10003358:	e7ff      	b.n	1000335a <y64+0x2a>
1000335a:	e7ff      	b.n	1000335c <y64+0x2c>
1000335c:	e7ff      	b.n	1000335e <y64+0x2e>
1000335e:	46c0      	nop			; (mov r8, r8)
10003360:	b284      	uxth	r4, r0
10003362:	6f7b      	ldr	r3, [r7, #116]	; 0x74
10003364:	6f3d      	ldr	r5, [r7, #112]	; 0x70
10003366:	041b      	lsls	r3, r3, #16
10003368:	4323      	orrs	r3, r4
1000336a:	663b      	str	r3, [r7, #96]	; 0x60
1000336c:	e7ff      	b.n	1000336e <y64+0x3e>
1000336e:	e7ff      	b.n	10003370 <y64+0x40>
10003370:	46c0      	nop			; (mov r8, r8)
10003372:	2300      	movs	r3, #0
10003374:	042c      	lsls	r4, r5, #16
10003376:	0c2d      	lsrs	r5, r5, #16
10003378:	6f7a      	ldr	r2, [r7, #116]	; 0x74
1000337a:	6f38      	ldr	r0, [r7, #112]	; 0x70
1000337c:	1900      	adds	r0, r0, r4
1000337e:	4169      	adcs	r1, r5
10003380:	bcb0      	pop	{r4, r5, r7}
10003382:	4770      	bx	lr
10003384:	d0000000 	.word	0xd0000000

10003388 <y64_x32>:
10003388:	b5f0      	push	{r4, r5, r6, r7, lr}
1000338a:	4694      	mov	ip, r2
1000338c:	2500      	movs	r5, #0
1000338e:	0e14      	lsrs	r4, r2, #24
10003390:	d101      	bne.n	10003396 <y64_x32+0xe>
10003392:	0212      	lsls	r2, r2, #8
10003394:	3508      	adds	r5, #8
10003396:	0f14      	lsrs	r4, r2, #28
10003398:	d101      	bne.n	1000339e <y64_x32+0x16>
1000339a:	0112      	lsls	r2, r2, #4
1000339c:	3504      	adds	r5, #4
1000339e:	0f94      	lsrs	r4, r2, #30
100033a0:	d101      	bne.n	100033a6 <y64_x32+0x1e>
100033a2:	0092      	lsls	r2, r2, #2
100033a4:	3502      	adds	r5, #2
100033a6:	0fd4      	lsrs	r4, r2, #31
100033a8:	d101      	bne.n	100033ae <y64_x32+0x26>
100033aa:	0052      	lsls	r2, r2, #1
100033ac:	3501      	adds	r5, #1
100033ae:	0bd4      	lsrs	r4, r2, #15
100033b0:	3401      	adds	r4, #1
100033b2:	4f25      	ldr	r7, [pc, #148]	; (10003448 <y64_x32+0xc0>)
100033b4:	667c      	str	r4, [r7, #100]	; 0x64
100033b6:	4c25      	ldr	r4, [pc, #148]	; (1000344c <y64_x32+0xc4>)
100033b8:	663c      	str	r4, [r7, #96]	; 0x60
100033ba:	0c0e      	lsrs	r6, r1, #16
100033bc:	b293      	uxth	r3, r2
100033be:	e7ff      	b.n	100033c0 <y64_x32+0x38>
100033c0:	e7ff      	b.n	100033c2 <y64_x32+0x3a>
100033c2:	e7ff      	b.n	100033c4 <y64_x32+0x3c>
100033c4:	6f3c      	ldr	r4, [r7, #112]	; 0x70
100033c6:	4366      	muls	r6, r4
100033c8:	0c36      	lsrs	r6, r6, #16
100033ca:	0377      	lsls	r7, r6, #13
100033cc:	46be      	mov	lr, r7
100033ce:	4373      	muls	r3, r6
100033d0:	0bdf      	lsrs	r7, r3, #15
100033d2:	045b      	lsls	r3, r3, #17
100033d4:	1ac0      	subs	r0, r0, r3
100033d6:	41b9      	sbcs	r1, r7
100033d8:	0c13      	lsrs	r3, r2, #16
100033da:	4373      	muls	r3, r6
100033dc:	18db      	adds	r3, r3, r3
100033de:	1ac9      	subs	r1, r1, r3
100033e0:	08ce      	lsrs	r6, r1, #3
100033e2:	4366      	muls	r6, r4
100033e4:	0c36      	lsrs	r6, r6, #16
100033e6:	44b6      	add	lr, r6
100033e8:	b293      	uxth	r3, r2
100033ea:	4373      	muls	r3, r6
100033ec:	0f1f      	lsrs	r7, r3, #28
100033ee:	011b      	lsls	r3, r3, #4
100033f0:	1ac0      	subs	r0, r0, r3
100033f2:	41b9      	sbcs	r1, r7
100033f4:	0c13      	lsrs	r3, r2, #16
100033f6:	4373      	muls	r3, r6
100033f8:	0b1f      	lsrs	r7, r3, #12
100033fa:	051b      	lsls	r3, r3, #20
100033fc:	1ac0      	subs	r0, r0, r3
100033fe:	41b9      	sbcs	r1, r7
10003400:	0d86      	lsrs	r6, r0, #22
10003402:	028f      	lsls	r7, r1, #10
10003404:	433e      	orrs	r6, r7
10003406:	4366      	muls	r6, r4
10003408:	0c36      	lsrs	r6, r6, #16
1000340a:	2d09      	cmp	r5, #9
1000340c:	db24      	blt.n	10003458 <last0>
1000340e:	0a52      	lsrs	r2, r2, #9
10003410:	4372      	muls	r2, r6
10003412:	1a80      	subs	r0, r0, r2
10003414:	0377      	lsls	r7, r6, #13
10003416:	0a46      	lsrs	r6, r0, #9
10003418:	4366      	muls	r6, r4
1000341a:	0c36      	lsrs	r6, r6, #16
1000341c:	2316      	movs	r3, #22
1000341e:	1b5b      	subs	r3, r3, r5
10003420:	40de      	lsrs	r6, r3
10003422:	40df      	lsrs	r7, r3
10003424:	19bf      	adds	r7, r7, r6
10003426:	4664      	mov	r4, ip
10003428:	4366      	muls	r6, r4
1000342a:	1b82      	subs	r2, r0, r6
1000342c:	4670      	mov	r0, lr
1000342e:	3504      	adds	r5, #4
10003430:	3306      	adds	r3, #6
10003432:	0001      	movs	r1, r0
10003434:	40d9      	lsrs	r1, r3
10003436:	40a8      	lsls	r0, r5
10003438:	19c0      	adds	r0, r0, r7
1000343a:	d300      	bcc.n	1000343e <y64_x32+0xb6>
1000343c:	3101      	adds	r1, #1
1000343e:	42a2      	cmp	r2, r4
10003440:	d206      	bcs.n	10003450 <y64_x32+0xc8>
10003442:	2300      	movs	r3, #0
10003444:	bdf0      	pop	{r4, r5, r6, r7, pc}
10003446:	0000      	.short	0x0000
10003448:	d0000000 	.word	0xd0000000
1000344c:	ffffffff 	.word	0xffffffff
10003450:	1b12      	subs	r2, r2, r4
10003452:	3001      	adds	r0, #1
10003454:	d3f3      	bcc.n	1000343e <y64_x32+0xb6>
10003456:	e7f1      	b.n	1000343c <y64_x32+0xb4>

10003458 <last0>:
10003458:	2709      	movs	r7, #9
1000345a:	1b7f      	subs	r7, r7, r5
1000345c:	40fe      	lsrs	r6, r7
1000345e:	4664      	mov	r4, ip
10003460:	b2a2      	uxth	r2, r4
10003462:	4372      	muls	r2, r6
10003464:	1a80      	subs	r0, r0, r2
10003466:	d200      	bcs.n	1000346a <last0+0x12>
10003468:	3901      	subs	r1, #1
1000346a:	0c22      	lsrs	r2, r4, #16
1000346c:	4372      	muls	r2, r6
1000346e:	0c13      	lsrs	r3, r2, #16
10003470:	0412      	lsls	r2, r2, #16
10003472:	1a82      	subs	r2, r0, r2
10003474:	4199      	sbcs	r1, r3
10003476:	000b      	movs	r3, r1
10003478:	4670      	mov	r0, lr
1000347a:	3504      	adds	r5, #4
1000347c:	3713      	adds	r7, #19
1000347e:	0001      	movs	r1, r0
10003480:	40f9      	lsrs	r1, r7
10003482:	40a8      	lsls	r0, r5
10003484:	1980      	adds	r0, r0, r6
10003486:	d300      	bcc.n	1000348a <last0+0x32>
10003488:	3101      	adds	r1, #1
1000348a:	2b00      	cmp	r3, #0
1000348c:	d102      	bne.n	10003494 <last0+0x3c>
1000348e:	42a2      	cmp	r2, r4
10003490:	d20a      	bcs.n	100034a8 <last0+0x50>
10003492:	bdf0      	pop	{r4, r5, r6, r7, pc}
10003494:	3001      	adds	r0, #1
10003496:	d300      	bcc.n	1000349a <last0+0x42>
10003498:	3101      	adds	r1, #1
1000349a:	1b12      	subs	r2, r2, r4
1000349c:	d2fa      	bcs.n	10003494 <last0+0x3c>
1000349e:	3b01      	subs	r3, #1
100034a0:	d1f8      	bne.n	10003494 <last0+0x3c>
100034a2:	42a2      	cmp	r2, r4
100034a4:	d200      	bcs.n	100034a8 <last0+0x50>
100034a6:	bdf0      	pop	{r4, r5, r6, r7, pc}
100034a8:	3001      	adds	r0, #1
100034aa:	d300      	bcc.n	100034ae <last0+0x56>
100034ac:	3101      	adds	r1, #1
100034ae:	1b12      	subs	r2, r2, r4
100034b0:	e7f7      	b.n	100034a2 <last0+0x4a>

100034b2 <y64_x48>:
100034b2:	b5f0      	push	{r4, r5, r6, r7, lr}
100034b4:	0c1c      	lsrs	r4, r3, #16
100034b6:	d000      	beq.n	100034ba <y64_x48+0x8>
100034b8:	e080      	b.n	100035bc <y64_x64>
100034ba:	b40c      	push	{r2, r3}
100034bc:	2500      	movs	r5, #0
100034be:	0a1c      	lsrs	r4, r3, #8
100034c0:	d104      	bne.n	100034cc <y64_x48+0x1a>
100034c2:	021b      	lsls	r3, r3, #8
100034c4:	0e16      	lsrs	r6, r2, #24
100034c6:	4333      	orrs	r3, r6
100034c8:	0212      	lsls	r2, r2, #8
100034ca:	3508      	adds	r5, #8
100034cc:	0b1c      	lsrs	r4, r3, #12
100034ce:	d104      	bne.n	100034da <y64_x48+0x28>
100034d0:	011b      	lsls	r3, r3, #4
100034d2:	0f16      	lsrs	r6, r2, #28
100034d4:	4333      	orrs	r3, r6
100034d6:	0112      	lsls	r2, r2, #4
100034d8:	3504      	adds	r5, #4
100034da:	0b9c      	lsrs	r4, r3, #14
100034dc:	d104      	bne.n	100034e8 <y64_x48+0x36>
100034de:	009b      	lsls	r3, r3, #2
100034e0:	0f96      	lsrs	r6, r2, #30
100034e2:	4333      	orrs	r3, r6
100034e4:	0092      	lsls	r2, r2, #2
100034e6:	3502      	adds	r5, #2
100034e8:	0bdc      	lsrs	r4, r3, #15
100034ea:	d102      	bne.n	100034f2 <y64_x48+0x40>
100034ec:	1892      	adds	r2, r2, r2
100034ee:	415b      	adcs	r3, r3
100034f0:	3501      	adds	r5, #1
100034f2:	001c      	movs	r4, r3
100034f4:	1897      	adds	r7, r2, r2
100034f6:	4164      	adcs	r4, r4
100034f8:	3401      	adds	r4, #1
100034fa:	4f46      	ldr	r7, [pc, #280]	; (10003614 <y64_x64+0x58>)
100034fc:	667c      	str	r4, [r7, #100]	; 0x64
100034fe:	4c46      	ldr	r4, [pc, #280]	; (10003618 <y64_x64+0x5c>)
10003500:	663c      	str	r4, [r7, #96]	; 0x60
10003502:	0c0e      	lsrs	r6, r1, #16
10003504:	e7ff      	b.n	10003506 <y64_x48+0x54>
10003506:	e7ff      	b.n	10003508 <y64_x48+0x56>
10003508:	e7ff      	b.n	1000350a <y64_x48+0x58>
1000350a:	46c0      	nop			; (mov r8, r8)
1000350c:	6f3c      	ldr	r4, [r7, #112]	; 0x70
1000350e:	4366      	muls	r6, r4
10003510:	0c36      	lsrs	r6, r6, #16
10003512:	0377      	lsls	r7, r6, #13
10003514:	46be      	mov	lr, r7
10003516:	b297      	uxth	r7, r2
10003518:	4377      	muls	r7, r6
1000351a:	1bc0      	subs	r0, r0, r7
1000351c:	d200      	bcs.n	10003520 <y64_x48+0x6e>
1000351e:	3901      	subs	r1, #1
10003520:	1bc0      	subs	r0, r0, r7
10003522:	d200      	bcs.n	10003526 <y64_x48+0x74>
10003524:	3901      	subs	r1, #1
10003526:	b29f      	uxth	r7, r3
10003528:	4377      	muls	r7, r6
1000352a:	1bc9      	subs	r1, r1, r7
1000352c:	1bc9      	subs	r1, r1, r7
1000352e:	0c17      	lsrs	r7, r2, #16
10003530:	4377      	muls	r7, r6
10003532:	047e      	lsls	r6, r7, #17
10003534:	0bff      	lsrs	r7, r7, #15
10003536:	1b80      	subs	r0, r0, r6
10003538:	41b9      	sbcs	r1, r7
1000353a:	08ce      	lsrs	r6, r1, #3
1000353c:	4366      	muls	r6, r4
1000353e:	0c36      	lsrs	r6, r6, #16
10003540:	2d0c      	cmp	r5, #12
10003542:	db33      	blt.n	100035ac <last1>
10003544:	44b6      	add	lr, r6
10003546:	0b12      	lsrs	r2, r2, #12
10003548:	051f      	lsls	r7, r3, #20
1000354a:	433a      	orrs	r2, r7
1000354c:	0b1b      	lsrs	r3, r3, #12
1000354e:	b297      	uxth	r7, r2
10003550:	4377      	muls	r7, r6
10003552:	1bc0      	subs	r0, r0, r7
10003554:	d200      	bcs.n	10003558 <y64_x48+0xa6>
10003556:	3901      	subs	r1, #1
10003558:	b29f      	uxth	r7, r3
1000355a:	4377      	muls	r7, r6
1000355c:	1bc9      	subs	r1, r1, r7
1000355e:	0c17      	lsrs	r7, r2, #16
10003560:	4377      	muls	r7, r6
10003562:	043e      	lsls	r6, r7, #16
10003564:	0c3f      	lsrs	r7, r7, #16
10003566:	1b80      	subs	r0, r0, r6
10003568:	41b9      	sbcs	r1, r7
1000356a:	0d86      	lsrs	r6, r0, #22
1000356c:	028f      	lsls	r7, r1, #10
1000356e:	433e      	orrs	r6, r7
10003570:	4366      	muls	r6, r4
10003572:	2729      	movs	r7, #41	; 0x29
10003574:	1b7f      	subs	r7, r7, r5
10003576:	40fe      	lsrs	r6, r7
10003578:	3d0c      	subs	r5, #12
1000357a:	4677      	mov	r7, lr
1000357c:	40af      	lsls	r7, r5
1000357e:	19bf      	adds	r7, r7, r6
10003580:	bc30      	pop	{r4, r5}
10003582:	b2a2      	uxth	r2, r4
10003584:	b2ab      	uxth	r3, r5
10003586:	4372      	muls	r2, r6
10003588:	4373      	muls	r3, r6
1000358a:	1a80      	subs	r0, r0, r2
1000358c:	4199      	sbcs	r1, r3
1000358e:	0c22      	lsrs	r2, r4, #16
10003590:	4372      	muls	r2, r6
10003592:	0c13      	lsrs	r3, r2, #16
10003594:	0412      	lsls	r2, r2, #16
10003596:	1a80      	subs	r0, r0, r2
10003598:	4199      	sbcs	r1, r3
1000359a:	0002      	movs	r2, r0
1000359c:	000b      	movs	r3, r1
1000359e:	3701      	adds	r7, #1
100035a0:	1b00      	subs	r0, r0, r4
100035a2:	41a9      	sbcs	r1, r5
100035a4:	d2f9      	bcs.n	1000359a <y64_x48+0xe8>
100035a6:	1e78      	subs	r0, r7, #1
100035a8:	2100      	movs	r1, #0
100035aa:	bdf0      	pop	{r4, r5, r6, r7, pc}

100035ac <last1>:
100035ac:	270c      	movs	r7, #12
100035ae:	1b7f      	subs	r7, r7, r5
100035b0:	40fe      	lsrs	r6, r7
100035b2:	4677      	mov	r7, lr
100035b4:	0b7f      	lsrs	r7, r7, #13
100035b6:	40af      	lsls	r7, r5
100035b8:	19ff      	adds	r7, r7, r7
100035ba:	e7e0      	b.n	1000357e <y64_x48+0xcc>

100035bc <y64_x64>:
100035bc:	2400      	movs	r4, #0
100035be:	1c5d      	adds	r5, r3, #1
100035c0:	d007      	beq.n	100035d2 <y64_x64+0x16>
100035c2:	4f14      	ldr	r7, [pc, #80]	; (10003614 <y64_x64+0x58>)
100035c4:	667d      	str	r5, [r7, #100]	; 0x64
100035c6:	6639      	str	r1, [r7, #96]	; 0x60
100035c8:	e7ff      	b.n	100035ca <y64_x64+0xe>
100035ca:	e7ff      	b.n	100035cc <y64_x64+0x10>
100035cc:	e7ff      	b.n	100035ce <y64_x64+0x12>
100035ce:	e7ff      	b.n	100035d0 <y64_x64+0x14>
100035d0:	6f3c      	ldr	r4, [r7, #112]	; 0x70
100035d2:	b295      	uxth	r5, r2
100035d4:	b29e      	uxth	r6, r3
100035d6:	4365      	muls	r5, r4
100035d8:	4366      	muls	r6, r4
100035da:	1b40      	subs	r0, r0, r5
100035dc:	41b1      	sbcs	r1, r6
100035de:	0c15      	lsrs	r5, r2, #16
100035e0:	0c1e      	lsrs	r6, r3, #16
100035e2:	4365      	muls	r5, r4
100035e4:	4366      	muls	r6, r4
100035e6:	0436      	lsls	r6, r6, #16
100035e8:	0c2f      	lsrs	r7, r5, #16
100035ea:	433e      	orrs	r6, r7
100035ec:	042d      	lsls	r5, r5, #16
100035ee:	1b40      	subs	r0, r0, r5
100035f0:	41b1      	sbcs	r1, r6
100035f2:	4299      	cmp	r1, r3
100035f4:	d204      	bcs.n	10003600 <y64_x64+0x44>
100035f6:	0002      	movs	r2, r0
100035f8:	000b      	movs	r3, r1
100035fa:	0020      	movs	r0, r4
100035fc:	2100      	movs	r1, #0
100035fe:	bdf0      	pop	{r4, r5, r6, r7, pc}
10003600:	d101      	bne.n	10003606 <y64_x64+0x4a>
10003602:	4290      	cmp	r0, r2
10003604:	d3f7      	bcc.n	100035f6 <y64_x64+0x3a>
10003606:	1a80      	subs	r0, r0, r2
10003608:	4199      	sbcs	r1, r3
1000360a:	3401      	adds	r4, #1
1000360c:	4299      	cmp	r1, r3
1000360e:	d3f2      	bcc.n	100035f6 <y64_x64+0x3a>
10003610:	e7f6      	b.n	10003600 <y64_x64+0x44>
10003612:	0000      	.short	0x0000
10003614:	d0000000 	.word	0xd0000000
10003618:	ffffffff 	.word	0xffffffff

1000361c <__wrap___aeabi_drsub>:
1000361c:	4048      	eors	r0, r1
1000361e:	4041      	eors	r1, r0
10003620:	4048      	eors	r0, r1

10003622 <__wrap___aeabi_dsub>:
10003622:	b418      	push	{r3, r4}
10003624:	4b11      	ldr	r3, [pc, #68]	; (1000366c <__wrap___aeabi_dmul+0x14>)
10003626:	685b      	ldr	r3, [r3, #4]
10003628:	46fc      	mov	ip, pc
1000362a:	9301      	str	r3, [sp, #4]
1000362c:	bd08      	pop	{r3, pc}
1000362e:	df04      	.short	0xdf04
10003630:	100038bf 	.word	0x100038bf

10003634 <__wrap___aeabi_dadd>:
10003634:	b418      	push	{r3, r4}
10003636:	4b0d      	ldr	r3, [pc, #52]	; (1000366c <__wrap___aeabi_dmul+0x14>)
10003638:	681b      	ldr	r3, [r3, #0]
1000363a:	46fc      	mov	ip, pc
1000363c:	9301      	str	r3, [sp, #4]
1000363e:	bd08      	pop	{r3, pc}
10003640:	38c9df00 	.word	0x38c9df00
10003644:	1000      	.short	0x1000

10003646 <__wrap___aeabi_ddiv>:
10003646:	b418      	push	{r3, r4}
10003648:	4b08      	ldr	r3, [pc, #32]	; (1000366c <__wrap___aeabi_dmul+0x14>)
1000364a:	68db      	ldr	r3, [r3, #12]
1000364c:	46fc      	mov	ip, pc
1000364e:	9301      	str	r3, [sp, #4]
10003650:	bd08      	pop	{r3, pc}
10003652:	df0c      	.short	0xdf0c
10003654:	10003b81 	.word	0x10003b81

10003658 <__wrap___aeabi_dmul>:
10003658:	b418      	push	{r3, r4}
1000365a:	4b04      	ldr	r3, [pc, #16]	; (1000366c <__wrap___aeabi_dmul+0x14>)
1000365c:	689b      	ldr	r3, [r3, #8]
1000365e:	46fc      	mov	ip, pc
10003660:	9301      	str	r3, [sp, #4]
10003662:	bd08      	pop	{r3, pc}
10003664:	3a25df08 	.word	0x3a25df08
10003668:	00001000 	.word	0x00001000
1000366c:	20000b30 	.word	0x20000b30

10003670 <__wrap___aeabi_cdrcmple>:
10003670:	b5ff      	push	{r0, r1, r2, r3, r4, r5, r6, r7, lr}
10003672:	4050      	eors	r0, r2
10003674:	4042      	eors	r2, r0
10003676:	4050      	eors	r0, r2
10003678:	4059      	eors	r1, r3
1000367a:	404b      	eors	r3, r1
1000367c:	4059      	eors	r1, r3
1000367e:	e000      	b.n	10003682 <__aeabi_dfcmple_guts>

10003680 <__wrap___aeabi_cdcmpeq>:
10003680:	b5ff      	push	{r0, r1, r2, r3, r4, r5, r6, r7, lr}

10003682 <__aeabi_dfcmple_guts>:
10003682:	4f15      	ldr	r7, [pc, #84]	; (100036d8 <__aeabi_dfcmple_guts+0x56>)
10003684:	004c      	lsls	r4, r1, #1
10003686:	0d64      	lsrs	r4, r4, #21
10003688:	d003      	beq.n	10003692 <__aeabi_dfcmple_guts+0x10>
1000368a:	42bc      	cmp	r4, r7
1000368c:	d104      	bne.n	10003698 <__aeabi_dfcmple_guts+0x16>
1000368e:	030c      	lsls	r4, r1, #12
10003690:	d814      	bhi.n	100036bc <__aeabi_dfcmple_guts+0x3a>
10003692:	2000      	movs	r0, #0
10003694:	0d09      	lsrs	r1, r1, #20
10003696:	0509      	lsls	r1, r1, #20
10003698:	005c      	lsls	r4, r3, #1
1000369a:	0d64      	lsrs	r4, r4, #21
1000369c:	d003      	beq.n	100036a6 <__aeabi_dfcmple_guts+0x24>
1000369e:	42bc      	cmp	r4, r7
100036a0:	d104      	bne.n	100036ac <__aeabi_dfcmple_guts+0x2a>
100036a2:	031c      	lsls	r4, r3, #12
100036a4:	d80a      	bhi.n	100036bc <__aeabi_dfcmple_guts+0x3a>
100036a6:	2200      	movs	r2, #0
100036a8:	0d1b      	lsrs	r3, r3, #20
100036aa:	051b      	lsls	r3, r3, #20
100036ac:	2601      	movs	r6, #1
100036ae:	404b      	eors	r3, r1
100036b0:	d409      	bmi.n	100036c6 <__aeabi_dfcmple_guts+0x44>
100036b2:	404b      	eors	r3, r1
100036b4:	d503      	bpl.n	100036be <__aeabi_dfcmple_guts+0x3c>
100036b6:	428b      	cmp	r3, r1
100036b8:	d100      	bne.n	100036bc <__aeabi_dfcmple_guts+0x3a>
100036ba:	4282      	cmp	r2, r0
100036bc:	bdff      	pop	{r0, r1, r2, r3, r4, r5, r6, r7, pc}
100036be:	4299      	cmp	r1, r3
100036c0:	d1fc      	bne.n	100036bc <__aeabi_dfcmple_guts+0x3a>
100036c2:	4290      	cmp	r0, r2
100036c4:	bdff      	pop	{r0, r1, r2, r3, r4, r5, r6, r7, pc}
100036c6:	430b      	orrs	r3, r1
100036c8:	18db      	adds	r3, r3, r3
100036ca:	4303      	orrs	r3, r0
100036cc:	4313      	orrs	r3, r2
100036ce:	d0f5      	beq.n	100036bc <__aeabi_dfcmple_guts+0x3a>
100036d0:	43c9      	mvns	r1, r1
100036d2:	1849      	adds	r1, r1, r1
100036d4:	bdff      	pop	{r0, r1, r2, r3, r4, r5, r6, r7, pc}
100036d6:	0000      	.short	0x0000
100036d8:	000007ff 	.word	0x000007ff

100036dc <__wrap___aeabi_dcmplt>:
100036dc:	b500      	push	{lr}
100036de:	f7ff ffcf 	bl	10003680 <__wrap___aeabi_cdcmpeq>
100036e2:	4180      	sbcs	r0, r0
100036e4:	bd00      	pop	{pc}
100036e6:	46c0      	nop			; (mov r8, r8)

100036e8 <__wrap___aeabi_dcmple>:
100036e8:	b500      	push	{lr}
100036ea:	f7ff ffc9 	bl	10003680 <__wrap___aeabi_cdcmpeq>
100036ee:	d901      	bls.n	100036f4 <__wrap___aeabi_dcmple+0xc>
100036f0:	2000      	movs	r0, #0
100036f2:	bd00      	pop	{pc}
100036f4:	2001      	movs	r0, #1
100036f6:	bd00      	pop	{pc}

100036f8 <__wrap___aeabi_dcmpge>:
100036f8:	b500      	push	{lr}
100036fa:	f7ff ffb9 	bl	10003670 <__wrap___aeabi_cdrcmple>
100036fe:	d901      	bls.n	10003704 <__wrap___aeabi_dcmpge+0xc>
10003700:	2000      	movs	r0, #0
10003702:	bd00      	pop	{pc}
10003704:	2001      	movs	r0, #1
10003706:	bd00      	pop	{pc}

10003708 <__wrap___aeabi_dcmpgt>:
10003708:	b500      	push	{lr}
1000370a:	f7ff ffb1 	bl	10003670 <__wrap___aeabi_cdrcmple>
1000370e:	4180      	sbcs	r0, r0
10003710:	bd00      	pop	{pc}

10003712 <__wrap___aeabi_dcmpun>:
10003712:	2001      	movs	r0, #1
10003714:	0540      	lsls	r0, r0, #21
10003716:	004a      	lsls	r2, r1, #1
10003718:	1812      	adds	r2, r2, r0
1000371a:	d804      	bhi.n	10003726 <__wrap___aeabi_dcmpun+0x14>
1000371c:	005a      	lsls	r2, r3, #1
1000371e:	1812      	adds	r2, r2, r0
10003720:	d801      	bhi.n	10003726 <__wrap___aeabi_dcmpun+0x14>
10003722:	2000      	movs	r0, #0
10003724:	4770      	bx	lr
10003726:	2001      	movs	r0, #1
10003728:	4770      	bx	lr
1000372a:	2000      	movs	r0, #0
1000372c:	4770      	bx	lr
	...

10003730 <__wrap___aeabi_ui2d>:
10003730:	2100      	movs	r1, #0
10003732:	2800      	cmp	r0, #0
10003734:	d105      	bne.n	10003742 <__wrap___aeabi_i2d+0xa>
10003736:	4770      	bx	lr

10003738 <__wrap___aeabi_i2d>:
10003738:	17c1      	asrs	r1, r0, #31
1000373a:	4048      	eors	r0, r1
1000373c:	1a40      	subs	r0, r0, r1
1000373e:	d0fa      	beq.n	10003736 <__wrap___aeabi_ui2d+0x6>
10003740:	07c9      	lsls	r1, r1, #31
10003742:	b513      	push	{r0, r1, r4, lr}
10003744:	4b06      	ldr	r3, [pc, #24]	; (10003760 <__wrap___aeabi_i2d+0x28>)
10003746:	681b      	ldr	r3, [r3, #0]
10003748:	4798      	blx	r3
1000374a:	bc0c      	pop	{r2, r3}
1000374c:	1c44      	adds	r4, r0, #1
1000374e:	40a2      	lsls	r2, r4
10003750:	0510      	lsls	r0, r2, #20
10003752:	0b12      	lsrs	r2, r2, #12
10003754:	4903      	ldr	r1, [pc, #12]	; (10003764 <__wrap___aeabi_i2d+0x2c>)
10003756:	1b09      	subs	r1, r1, r4
10003758:	0509      	lsls	r1, r1, #20
1000375a:	4319      	orrs	r1, r3
1000375c:	4311      	orrs	r1, r2
1000375e:	bd10      	pop	{r4, pc}
10003760:	20000d30 	.word	0x20000d30
10003764:	0000041f 	.word	0x0000041f

10003768 <__wrap___aeabi_d2iz>:
10003768:	b510      	push	{r4, lr}
1000376a:	004c      	lsls	r4, r1, #1
1000376c:	0d62      	lsrs	r2, r4, #21
1000376e:	2380      	movs	r3, #128	; 0x80
10003770:	18d2      	adds	r2, r2, r3
10003772:	00db      	lsls	r3, r3, #3
10003774:	1ad2      	subs	r2, r2, r3
10003776:	055b      	lsls	r3, r3, #21
10003778:	2a7e      	cmp	r2, #126	; 0x7e
1000377a:	dd10      	ble.n	1000379e <__wrap___aeabi_d2iz+0x36>
1000377c:	3a9e      	subs	r2, #158	; 0x9e
1000377e:	da13      	bge.n	100037a8 <__wrap___aeabi_d2iz+0x40>
10003780:	17cc      	asrs	r4, r1, #31
10003782:	0309      	lsls	r1, r1, #12
10003784:	0849      	lsrs	r1, r1, #1
10003786:	4319      	orrs	r1, r3
10003788:	4252      	negs	r2, r2
1000378a:	40d1      	lsrs	r1, r2
1000378c:	0064      	lsls	r4, r4, #1
1000378e:	3401      	adds	r4, #1
10003790:	3215      	adds	r2, #21
10003792:	2a20      	cmp	r2, #32
10003794:	da05      	bge.n	100037a2 <__wrap___aeabi_d2iz+0x3a>
10003796:	40d0      	lsrs	r0, r2
10003798:	4308      	orrs	r0, r1
1000379a:	4360      	muls	r0, r4
1000379c:	bd10      	pop	{r4, pc}
1000379e:	2000      	movs	r0, #0
100037a0:	bd10      	pop	{r4, pc}
100037a2:	4608      	mov	r0, r1
100037a4:	4360      	muls	r0, r4
100037a6:	bd10      	pop	{r4, pc}
100037a8:	0fc8      	lsrs	r0, r1, #31
100037aa:	18c0      	adds	r0, r0, r3
100037ac:	3801      	subs	r0, #1
100037ae:	bd10      	pop	{r4, pc}

100037b0 <__wrap___aeabi_d2uiz>:
100037b0:	b418      	push	{r3, r4}
100037b2:	4b04      	ldr	r3, [pc, #16]	; (100037c4 <__wrap___aeabi_d2uiz+0x14>)
100037b4:	6a5b      	ldr	r3, [r3, #36]	; 0x24
100037b6:	46fc      	mov	ip, pc
100037b8:	9301      	str	r3, [sp, #4]
100037ba:	bd08      	pop	{r3, pc}
100037bc:	3daddf24 	.word	0x3daddf24
100037c0:	00001000 	.word	0x00001000
100037c4:	20000b30 	.word	0x20000b30

100037c8 <__wrap___aeabi_d2f>:
100037c8:	b418      	push	{r3, r4}
100037ca:	4b04      	ldr	r3, [pc, #16]	; (100037dc <__wrap___aeabi_d2f+0x14>)
100037cc:	6fdb      	ldr	r3, [r3, #124]	; 0x7c
100037ce:	46fc      	mov	ip, pc
100037d0:	9301      	str	r3, [sp, #4]
100037d2:	bd08      	pop	{r3, pc}
100037d4:	3e29df7c 	.word	0x3e29df7c
100037d8:	00001000 	.word	0x00001000
100037dc:	20000b30 	.word	0x20000b30

100037e0 <__aeabi_double_init>:
100037e0:	2313      	movs	r3, #19
100037e2:	b570      	push	{r4, r5, r6, lr}
100037e4:	781d      	ldrb	r5, [r3, #0]
100037e6:	2d01      	cmp	r5, #1
100037e8:	d010      	beq.n	1000380c <__aeabi_double_init+0x2c>
100037ea:	dd0b      	ble.n	10003804 <__aeabi_double_init+0x24>
100037ec:	4824      	ldr	r0, [pc, #144]	; (10003880 <__aeabi_double_init+0xa0>)
100037ee:	f7ff fc81 	bl	100030f4 <rom_data_lookup>
100037f2:	4c24      	ldr	r4, [pc, #144]	; (10003884 <__aeabi_double_init+0xa4>)
100037f4:	0001      	movs	r1, r0
100037f6:	2280      	movs	r2, #128	; 0x80
100037f8:	0020      	movs	r0, r4
100037fa:	f000 fc3b 	bl	10004074 <__wrap___aeabi_memcpy>
100037fe:	2d02      	cmp	r5, #2
10003800:	d001      	beq.n	10003806 <__aeabi_double_init+0x26>
10003802:	bd70      	pop	{r4, r5, r6, pc}
10003804:	4c1f      	ldr	r4, [pc, #124]	; (10003884 <__aeabi_double_init+0xa4>)
10003806:	4a20      	ldr	r2, [pc, #128]	; (10003888 <__aeabi_double_init+0xa8>)
10003808:	64a2      	str	r2, [r4, #72]	; 0x48
1000380a:	e7fa      	b.n	10003802 <__aeabi_double_init+0x22>
1000380c:	002e      	movs	r6, r5
1000380e:	4c1d      	ldr	r4, [pc, #116]	; (10003884 <__aeabi_double_init+0xa4>)
10003810:	4a1d      	ldr	r2, [pc, #116]	; (10003888 <__aeabi_double_init+0xa8>)
10003812:	08a3      	lsrs	r3, r4, #2
10003814:	425b      	negs	r3, r3
10003816:	401e      	ands	r6, r3
10003818:	421d      	tst	r5, r3
1000381a:	d02f      	beq.n	1000387c <__aeabi_double_init+0x9c>
1000381c:	0033      	movs	r3, r6
1000381e:	6022      	str	r2, [r4, #0]
10003820:	2020      	movs	r0, #32
10003822:	00b1      	lsls	r1, r6, #2
10003824:	1861      	adds	r1, r4, r1
10003826:	1b80      	subs	r0, r0, r6
10003828:	600a      	str	r2, [r1, #0]
1000382a:	604a      	str	r2, [r1, #4]
1000382c:	608a      	str	r2, [r1, #8]
1000382e:	60ca      	str	r2, [r1, #12]
10003830:	610a      	str	r2, [r1, #16]
10003832:	614a      	str	r2, [r1, #20]
10003834:	618a      	str	r2, [r1, #24]
10003836:	61ca      	str	r2, [r1, #28]
10003838:	620a      	str	r2, [r1, #32]
1000383a:	624a      	str	r2, [r1, #36]	; 0x24
1000383c:	628a      	str	r2, [r1, #40]	; 0x28
1000383e:	62ca      	str	r2, [r1, #44]	; 0x2c
10003840:	630a      	str	r2, [r1, #48]	; 0x30
10003842:	634a      	str	r2, [r1, #52]	; 0x34
10003844:	638a      	str	r2, [r1, #56]	; 0x38
10003846:	63ca      	str	r2, [r1, #60]	; 0x3c
10003848:	640a      	str	r2, [r1, #64]	; 0x40
1000384a:	644a      	str	r2, [r1, #68]	; 0x44
1000384c:	648a      	str	r2, [r1, #72]	; 0x48
1000384e:	64ca      	str	r2, [r1, #76]	; 0x4c
10003850:	650a      	str	r2, [r1, #80]	; 0x50
10003852:	654a      	str	r2, [r1, #84]	; 0x54
10003854:	658a      	str	r2, [r1, #88]	; 0x58
10003856:	65ca      	str	r2, [r1, #92]	; 0x5c
10003858:	660a      	str	r2, [r1, #96]	; 0x60
1000385a:	664a      	str	r2, [r1, #100]	; 0x64
1000385c:	668a      	str	r2, [r1, #104]	; 0x68
1000385e:	66ca      	str	r2, [r1, #108]	; 0x6c
10003860:	670a      	str	r2, [r1, #112]	; 0x70
10003862:	674a      	str	r2, [r1, #116]	; 0x74
10003864:	0840      	lsrs	r0, r0, #1
10003866:	2810      	cmp	r0, #16
10003868:	d103      	bne.n	10003872 <__aeabi_double_init+0x92>
1000386a:	678a      	str	r2, [r1, #120]	; 0x78
1000386c:	67ca      	str	r2, [r1, #124]	; 0x7c
1000386e:	64a2      	str	r2, [r4, #72]	; 0x48
10003870:	e7c7      	b.n	10003802 <__aeabi_double_init+0x22>
10003872:	331e      	adds	r3, #30
10003874:	009b      	lsls	r3, r3, #2
10003876:	50e2      	str	r2, [r4, r3]
10003878:	64a2      	str	r2, [r4, #72]	; 0x48
1000387a:	e7c2      	b.n	10003802 <__aeabi_double_init+0x22>
1000387c:	2300      	movs	r3, #0
1000387e:	e7cf      	b.n	10003820 <__aeabi_double_init+0x40>
10003880:	00004453 	.word	0x00004453
10003884:	20000b30 	.word	0x20000b30
10003888:	1000388d 	.word	0x1000388d

1000388c <double_table_shim_on_use_helper>:
1000388c:	b507      	push	{r0, r1, r2, lr}
1000388e:	4660      	mov	r0, ip
10003890:	8801      	ldrh	r1, [r0, #0]
10003892:	0a0a      	lsrs	r2, r1, #8
10003894:	3002      	adds	r0, #2
10003896:	2adf      	cmp	r2, #223	; 0xdf
10003898:	d1fa      	bne.n	10003890 <double_table_shim_on_use_helper+0x4>
1000389a:	b2c9      	uxtb	r1, r1
1000389c:	0882      	lsrs	r2, r0, #2
1000389e:	d304      	bcc.n	100038aa <double_table_shim_on_use_helper+0x1e>
100038a0:	8802      	ldrh	r2, [r0, #0]
100038a2:	8840      	ldrh	r0, [r0, #2]
100038a4:	0400      	lsls	r0, r0, #16
100038a6:	4310      	orrs	r0, r2
100038a8:	e000      	b.n	100038ac <double_table_shim_on_use_helper+0x20>
100038aa:	6800      	ldr	r0, [r0, #0]
100038ac:	4a01      	ldr	r2, [pc, #4]	; (100038b4 <double_table_shim_on_use_helper+0x28>)
100038ae:	5050      	str	r0, [r2, r1]
100038b0:	9003      	str	r0, [sp, #12]
100038b2:	bd07      	pop	{r0, r1, r2, pc}
100038b4:	20000b30 	.word	0x20000b30

100038b8 <drsub_shim>:
100038b8:	b40f      	push	{r0, r1, r2, r3}
100038ba:	bc03      	pop	{r0, r1}
100038bc:	bc0c      	pop	{r2, r3}

100038be <dsub_shim>:
100038be:	b5f0      	push	{r4, r5, r6, r7, lr}
100038c0:	2401      	movs	r4, #1
100038c2:	07e4      	lsls	r4, r4, #31
100038c4:	4063      	eors	r3, r4
100038c6:	e000      	b.n	100038ca <da_entry>

100038c8 <dadd_shim>:
100038c8:	b5f0      	push	{r4, r5, r6, r7, lr}

100038ca <da_entry>:
100038ca:	0d0c      	lsrs	r4, r1, #20
100038cc:	0fcf      	lsrs	r7, r1, #31
100038ce:	1e66      	subs	r6, r4, #1
100038d0:	0536      	lsls	r6, r6, #20
100038d2:	1b89      	subs	r1, r1, r6
100038d4:	0564      	lsls	r4, r4, #21
100038d6:	d303      	bcc.n	100038e0 <l7_1>
100038d8:	43c9      	mvns	r1, r1
100038da:	4240      	negs	r0, r0
100038dc:	d300      	bcc.n	100038e0 <l7_1>
100038de:	3101      	adds	r1, #1

100038e0 <l7_1>:
100038e0:	0d64      	lsrs	r4, r4, #21
100038e2:	d003      	beq.n	100038ec <l7_2>
100038e4:	1c66      	adds	r6, r4, #1
100038e6:	0af6      	lsrs	r6, r6, #11
100038e8:	d007      	beq.n	100038fa <l7_3>
100038ea:	1be4      	subs	r4, r4, r7

100038ec <l7_2>:
100038ec:	2000      	movs	r0, #0
100038ee:	007f      	lsls	r7, r7, #1
100038f0:	1c79      	adds	r1, r7, #1
100038f2:	0789      	lsls	r1, r1, #30
100038f4:	1289      	asrs	r1, r1, #10
100038f6:	3c80      	subs	r4, #128	; 0x80
100038f8:	0324      	lsls	r4, r4, #12

100038fa <l7_3>:
100038fa:	0d1d      	lsrs	r5, r3, #20
100038fc:	0fdf      	lsrs	r7, r3, #31
100038fe:	1e6e      	subs	r6, r5, #1
10003900:	0536      	lsls	r6, r6, #20
10003902:	1b9b      	subs	r3, r3, r6
10003904:	056d      	lsls	r5, r5, #21
10003906:	d303      	bcc.n	10003910 <l8_1>
10003908:	43db      	mvns	r3, r3
1000390a:	4252      	negs	r2, r2
1000390c:	d300      	bcc.n	10003910 <l8_1>
1000390e:	3301      	adds	r3, #1

10003910 <l8_1>:
10003910:	0d6d      	lsrs	r5, r5, #21
10003912:	d003      	beq.n	1000391c <l8_2>
10003914:	1c6e      	adds	r6, r5, #1
10003916:	0af6      	lsrs	r6, r6, #11
10003918:	d007      	beq.n	1000392a <l8_3>
1000391a:	1bed      	subs	r5, r5, r7

1000391c <l8_2>:
1000391c:	2200      	movs	r2, #0
1000391e:	007f      	lsls	r7, r7, #1
10003920:	1c7b      	adds	r3, r7, #1
10003922:	079b      	lsls	r3, r3, #30
10003924:	129b      	asrs	r3, r3, #10
10003926:	3d80      	subs	r5, #128	; 0x80
10003928:	032d      	lsls	r5, r5, #12

1000392a <l8_3>:
1000392a:	1b2f      	subs	r7, r5, r4
1000392c:	1b66      	subs	r6, r4, r5
1000392e:	d458      	bmi.n	100039e2 <da_ygtx>
10003930:	46a4      	mov	ip, r4
10003932:	2e20      	cmp	r6, #32
10003934:	da46      	bge.n	100039c4 <da_xrgty>
10003936:	3720      	adds	r7, #32
10003938:	0014      	movs	r4, r2
1000393a:	40bc      	lsls	r4, r7

1000393c <da_xgty0>:
1000393c:	001d      	movs	r5, r3
1000393e:	40bd      	lsls	r5, r7
10003940:	40f2      	lsrs	r2, r6
10003942:	4133      	asrs	r3, r6
10003944:	432a      	orrs	r2, r5

10003946 <da_add>:
10003946:	1880      	adds	r0, r0, r2
10003948:	4159      	adcs	r1, r3

1000394a <da_pack>:
1000394a:	0fcb      	lsrs	r3, r1, #31
1000394c:	d005      	beq.n	1000395a <da_pack+0x10>
1000394e:	43c9      	mvns	r1, r1
10003950:	43c0      	mvns	r0, r0
10003952:	2200      	movs	r2, #0
10003954:	4264      	negs	r4, r4
10003956:	4150      	adcs	r0, r2
10003958:	4151      	adcs	r1, r2
1000395a:	4662      	mov	r2, ip
1000395c:	0d4d      	lsrs	r5, r1, #21
1000395e:	d128      	bne.n	100039b2 <da_0>
10003960:	0d0d      	lsrs	r5, r1, #20
10003962:	d107      	bne.n	10003974 <da_1>
10003964:	2800      	cmp	r0, #0
10003966:	d01f      	beq.n	100039a8 <da_5>

10003968 <da_2>:
10003968:	1924      	adds	r4, r4, r4
1000396a:	4140      	adcs	r0, r0
1000396c:	4149      	adcs	r1, r1
1000396e:	3a01      	subs	r2, #1
10003970:	0d0d      	lsrs	r5, r1, #20
10003972:	d0f9      	beq.n	10003968 <da_2>

10003974 <da_1>:
10003974:	0064      	lsls	r4, r4, #1
10003976:	d306      	bcc.n	10003986 <da_3>

10003978 <da_4>:
10003978:	3001      	adds	r0, #1
1000397a:	d300      	bcc.n	1000397e <da_4+0x6>
1000397c:	3101      	adds	r1, #1
1000397e:	2c00      	cmp	r4, #0
10003980:	d101      	bne.n	10003986 <da_3>
10003982:	0840      	lsrs	r0, r0, #1
10003984:	0040      	lsls	r0, r0, #1

10003986 <da_3>:
10003986:	3a01      	subs	r2, #1
10003988:	d40b      	bmi.n	100039a2 <da_6>
1000398a:	1c94      	adds	r4, r2, #2
1000398c:	0ae4      	lsrs	r4, r4, #11
1000398e:	d104      	bne.n	1000399a <da_7>
10003990:	0512      	lsls	r2, r2, #20
10003992:	4411      	add	r1, r2
10003994:	07db      	lsls	r3, r3, #31
10003996:	4419      	add	r1, r3
10003998:	bdf0      	pop	{r4, r5, r6, r7, pc}

1000399a <da_7>:
1000399a:	07d9      	lsls	r1, r3, #31
1000399c:	4b20      	ldr	r3, [pc, #128]	; (10003a20 <da_xmgty+0x4>)
1000399e:	4319      	orrs	r1, r3
100039a0:	e000      	b.n	100039a4 <da_6+0x2>

100039a2 <da_6>:
100039a2:	07d9      	lsls	r1, r3, #31
100039a4:	2000      	movs	r0, #0
100039a6:	bdf0      	pop	{r4, r5, r6, r7, pc}

100039a8 <da_5>:
100039a8:	2900      	cmp	r1, #0
100039aa:	d1dd      	bne.n	10003968 <da_2>
100039ac:	2c00      	cmp	r4, #0
100039ae:	d1db      	bne.n	10003968 <da_2>
100039b0:	bdf0      	pop	{r4, r5, r6, r7, pc}

100039b2 <da_0>:
100039b2:	3201      	adds	r2, #1
100039b4:	07c6      	lsls	r6, r0, #31
100039b6:	0840      	lsrs	r0, r0, #1
100039b8:	07cd      	lsls	r5, r1, #31
100039ba:	4328      	orrs	r0, r5
100039bc:	0849      	lsrs	r1, r1, #1
100039be:	2e00      	cmp	r6, #0
100039c0:	d0e1      	beq.n	10003986 <da_3>
100039c2:	e7d9      	b.n	10003978 <da_4>

100039c4 <da_xrgty>:
100039c4:	2e3c      	cmp	r6, #60	; 0x3c
100039c6:	da29      	bge.n	10003a1c <da_xmgty>
100039c8:	3e20      	subs	r6, #32
100039ca:	3740      	adds	r7, #64	; 0x40
100039cc:	0014      	movs	r4, r2
100039ce:	40bc      	lsls	r4, r7
100039d0:	d000      	beq.n	100039d4 <da_xrgty+0x10>
100039d2:	2401      	movs	r4, #1
100039d4:	40f2      	lsrs	r2, r6
100039d6:	4314      	orrs	r4, r2
100039d8:	001a      	movs	r2, r3
100039da:	40bb      	lsls	r3, r7
100039dc:	431c      	orrs	r4, r3
100039de:	17d3      	asrs	r3, r2, #31
100039e0:	e7ac      	b.n	1000393c <da_xgty0>

100039e2 <da_ygtx>:
100039e2:	46ac      	mov	ip, r5
100039e4:	2f20      	cmp	r7, #32
100039e6:	da08      	bge.n	100039fa <da_yrgtx>
100039e8:	3620      	adds	r6, #32
100039ea:	0004      	movs	r4, r0
100039ec:	40b4      	lsls	r4, r6

100039ee <da_ygtx0>:
100039ee:	000d      	movs	r5, r1
100039f0:	40b5      	lsls	r5, r6
100039f2:	40f8      	lsrs	r0, r7
100039f4:	4139      	asrs	r1, r7
100039f6:	4328      	orrs	r0, r5
100039f8:	e7a5      	b.n	10003946 <da_add>

100039fa <da_yrgtx>:
100039fa:	2f3c      	cmp	r7, #60	; 0x3c
100039fc:	da0c      	bge.n	10003a18 <da_ymgtx>
100039fe:	3f20      	subs	r7, #32
10003a00:	3640      	adds	r6, #64	; 0x40
10003a02:	0004      	movs	r4, r0
10003a04:	40b4      	lsls	r4, r6
10003a06:	d000      	beq.n	10003a0a <da_yrgtx+0x10>
10003a08:	2401      	movs	r4, #1
10003a0a:	40f8      	lsrs	r0, r7
10003a0c:	4304      	orrs	r4, r0
10003a0e:	0008      	movs	r0, r1
10003a10:	40b1      	lsls	r1, r6
10003a12:	430c      	orrs	r4, r1
10003a14:	17c1      	asrs	r1, r0, #31
10003a16:	e7ea      	b.n	100039ee <da_ygtx0>

10003a18 <da_ymgtx>:
10003a18:	0010      	movs	r0, r2
10003a1a:	0019      	movs	r1, r3

10003a1c <da_xmgty>:
10003a1c:	2400      	movs	r4, #0
10003a1e:	e794      	b.n	1000394a <da_pack>
10003a20:	7ff00000 	.word	0x7ff00000

10003a24 <dmul_shim>:
10003a24:	b5f0      	push	{r4, r5, r6, r7, lr}
10003a26:	0d0c      	lsrs	r4, r1, #20
10003a28:	1e66      	subs	r6, r4, #1
10003a2a:	0536      	lsls	r6, r6, #20
10003a2c:	1b89      	subs	r1, r1, r6
10003a2e:	0ae6      	lsrs	r6, r4, #11
10003a30:	0564      	lsls	r4, r4, #21
10003a32:	0d64      	lsrs	r4, r4, #21
10003a34:	d002      	beq.n	10003a3c <l11_1>
10003a36:	1c65      	adds	r5, r4, #1
10003a38:	0aed      	lsrs	r5, r5, #11
10003a3a:	d004      	beq.n	10003a46 <l11_2>

10003a3c <l11_1>:
10003a3c:	2000      	movs	r0, #0
10003a3e:	2101      	movs	r1, #1
10003a40:	0509      	lsls	r1, r1, #20
10003a42:	3c80      	subs	r4, #128	; 0x80
10003a44:	0324      	lsls	r4, r4, #12

10003a46 <l11_2>:
10003a46:	46a4      	mov	ip, r4
10003a48:	0d1c      	lsrs	r4, r3, #20
10003a4a:	1e67      	subs	r7, r4, #1
10003a4c:	053f      	lsls	r7, r7, #20
10003a4e:	1bdb      	subs	r3, r3, r7
10003a50:	0ae7      	lsrs	r7, r4, #11
10003a52:	0564      	lsls	r4, r4, #21
10003a54:	0d64      	lsrs	r4, r4, #21
10003a56:	d002      	beq.n	10003a5e <l12_1>
10003a58:	1c65      	adds	r5, r4, #1
10003a5a:	0aed      	lsrs	r5, r5, #11
10003a5c:	d004      	beq.n	10003a68 <l12_2>

10003a5e <l12_1>:
10003a5e:	2200      	movs	r2, #0
10003a60:	2301      	movs	r3, #1
10003a62:	051b      	lsls	r3, r3, #20
10003a64:	3c80      	subs	r4, #128	; 0x80
10003a66:	0324      	lsls	r4, r4, #12

10003a68 <l12_2>:
10003a68:	4077      	eors	r7, r6
10003a6a:	4464      	add	r4, ip
10003a6c:	b497      	push	{r0, r1, r2, r4, r7}
10003a6e:	b284      	uxth	r4, r0
10003a70:	b296      	uxth	r6, r2
10003a72:	4374      	muls	r4, r6
10003a74:	0c07      	lsrs	r7, r0, #16
10003a76:	437e      	muls	r6, r7
10003a78:	0c15      	lsrs	r5, r2, #16
10003a7a:	436f      	muls	r7, r5
10003a7c:	b280      	uxth	r0, r0
10003a7e:	4368      	muls	r0, r5
10003a80:	1836      	adds	r6, r6, r0
10003a82:	d302      	bcc.n	10003a8a <l13_1>
10003a84:	2001      	movs	r0, #1
10003a86:	0400      	lsls	r0, r0, #16
10003a88:	183f      	adds	r7, r7, r0

10003a8a <l13_1>:
10003a8a:	0430      	lsls	r0, r6, #16
10003a8c:	0c35      	lsrs	r5, r6, #16
10003a8e:	1900      	adds	r0, r0, r4
10003a90:	417d      	adcs	r5, r7
10003a92:	4684      	mov	ip, r0
10003a94:	b288      	uxth	r0, r1
10003a96:	b29a      	uxth	r2, r3
10003a98:	4350      	muls	r0, r2
10003a9a:	0c0c      	lsrs	r4, r1, #16
10003a9c:	4362      	muls	r2, r4
10003a9e:	0c1f      	lsrs	r7, r3, #16
10003aa0:	437c      	muls	r4, r7
10003aa2:	b28e      	uxth	r6, r1
10003aa4:	437e      	muls	r6, r7
10003aa6:	1992      	adds	r2, r2, r6
10003aa8:	d302      	bcc.n	10003ab0 <l14_1>
10003aaa:	2601      	movs	r6, #1
10003aac:	0436      	lsls	r6, r6, #16
10003aae:	19a4      	adds	r4, r4, r6

10003ab0 <l14_1>:
10003ab0:	0416      	lsls	r6, r2, #16
10003ab2:	0c17      	lsrs	r7, r2, #16
10003ab4:	1836      	adds	r6, r6, r0
10003ab6:	4167      	adcs	r7, r4
10003ab8:	bc01      	pop	{r0}
10003aba:	b281      	uxth	r1, r0
10003abc:	b29a      	uxth	r2, r3
10003abe:	4351      	muls	r1, r2
10003ac0:	0c04      	lsrs	r4, r0, #16
10003ac2:	4362      	muls	r2, r4
10003ac4:	0c1b      	lsrs	r3, r3, #16
10003ac6:	435c      	muls	r4, r3
10003ac8:	b280      	uxth	r0, r0
10003aca:	4358      	muls	r0, r3
10003acc:	1812      	adds	r2, r2, r0
10003ace:	d302      	bcc.n	10003ad6 <l15_1>
10003ad0:	2001      	movs	r0, #1
10003ad2:	0400      	lsls	r0, r0, #16
10003ad4:	1824      	adds	r4, r4, r0

10003ad6 <l15_1>:
10003ad6:	0410      	lsls	r0, r2, #16
10003ad8:	0c13      	lsrs	r3, r2, #16
10003ada:	1840      	adds	r0, r0, r1
10003adc:	4163      	adcs	r3, r4
10003ade:	182d      	adds	r5, r5, r0
10003ae0:	415e      	adcs	r6, r3
10003ae2:	2000      	movs	r0, #0
10003ae4:	4147      	adcs	r7, r0
10003ae6:	bc06      	pop	{r1, r2}
10003ae8:	b288      	uxth	r0, r1
10003aea:	b293      	uxth	r3, r2
10003aec:	4358      	muls	r0, r3
10003aee:	0c0c      	lsrs	r4, r1, #16
10003af0:	4363      	muls	r3, r4
10003af2:	0c12      	lsrs	r2, r2, #16
10003af4:	4354      	muls	r4, r2
10003af6:	b289      	uxth	r1, r1
10003af8:	4351      	muls	r1, r2
10003afa:	185b      	adds	r3, r3, r1
10003afc:	d302      	bcc.n	10003b04 <l16_1>
10003afe:	2101      	movs	r1, #1
10003b00:	0409      	lsls	r1, r1, #16
10003b02:	1864      	adds	r4, r4, r1

10003b04 <l16_1>:
10003b04:	0419      	lsls	r1, r3, #16
10003b06:	0c1a      	lsrs	r2, r3, #16
10003b08:	1809      	adds	r1, r1, r0
10003b0a:	4162      	adcs	r2, r4
10003b0c:	186d      	adds	r5, r5, r1
10003b0e:	4156      	adcs	r6, r2
10003b10:	2000      	movs	r0, #0
10003b12:	4147      	adcs	r7, r0
10003b14:	bc18      	pop	{r3, r4}
10003b16:	02f9      	lsls	r1, r7, #11
10003b18:	0d72      	lsrs	r2, r6, #21
10003b1a:	4311      	orrs	r1, r2
10003b1c:	02f0      	lsls	r0, r6, #11
10003b1e:	0d6a      	lsrs	r2, r5, #21
10003b20:	4310      	orrs	r0, r2
10003b22:	02ed      	lsls	r5, r5, #11
10003b24:	0d0a      	lsrs	r2, r1, #20
10003b26:	d103      	bne.n	10003b30 <l16_1+0x2c>
10003b28:	196d      	adds	r5, r5, r5
10003b2a:	4140      	adcs	r0, r0
10003b2c:	4149      	adcs	r1, r1
10003b2e:	3b01      	subs	r3, #1
10003b30:	4e12      	ldr	r6, [pc, #72]	; (10003b7c <dm_1+0xa>)
10003b32:	1b9b      	subs	r3, r3, r6
10003b34:	0076      	lsls	r6, r6, #1
10003b36:	42b3      	cmp	r3, r6
10003b38:	d20e      	bcs.n	10003b58 <dm_0>
10003b3a:	006d      	lsls	r5, r5, #1
10003b3c:	d307      	bcc.n	10003b4e <l16_1+0x4a>
10003b3e:	3001      	adds	r0, #1
10003b40:	2600      	movs	r6, #0
10003b42:	4171      	adcs	r1, r6
10003b44:	4666      	mov	r6, ip
10003b46:	4335      	orrs	r5, r6
10003b48:	d101      	bne.n	10003b4e <l16_1+0x4a>
10003b4a:	0840      	lsrs	r0, r0, #1
10003b4c:	0040      	lsls	r0, r0, #1
10003b4e:	051b      	lsls	r3, r3, #20
10003b50:	18c9      	adds	r1, r1, r3

10003b52 <dm_2>:
10003b52:	07e4      	lsls	r4, r4, #31
10003b54:	4421      	add	r1, r4
10003b56:	bdf0      	pop	{r4, r5, r6, r7, pc}

10003b58 <dm_0>:
10003b58:	da0b      	bge.n	10003b72 <dm_1>
10003b5a:	3301      	adds	r3, #1
10003b5c:	d106      	bne.n	10003b6c <dm_0+0x14>
10003b5e:	3001      	adds	r0, #1
10003b60:	d104      	bne.n	10003b6c <dm_0+0x14>
10003b62:	3101      	adds	r1, #1
10003b64:	0d4f      	lsrs	r7, r1, #21
10003b66:	d001      	beq.n	10003b6c <dm_0+0x14>
10003b68:	0849      	lsrs	r1, r1, #1
10003b6a:	e7f2      	b.n	10003b52 <dm_2>
10003b6c:	07e1      	lsls	r1, r4, #31
10003b6e:	2000      	movs	r0, #0
10003b70:	bdf0      	pop	{r4, r5, r6, r7, pc}

10003b72 <dm_1>:
10003b72:	3601      	adds	r6, #1
10003b74:	0531      	lsls	r1, r6, #20
10003b76:	2000      	movs	r0, #0
10003b78:	e7eb      	b.n	10003b52 <dm_2>
10003b7a:	0000      	.short	0x0000
10003b7c:	000003ff 	.word	0x000003ff

10003b80 <ddiv_shim>:
10003b80:	b5f0      	push	{r4, r5, r6, r7, lr}

10003b82 <ddiv0>:
10003b82:	0d1c      	lsrs	r4, r3, #20
10003b84:	1e67      	subs	r7, r4, #1
10003b86:	053f      	lsls	r7, r7, #20
10003b88:	1bdb      	subs	r3, r3, r7
10003b8a:	0ae7      	lsrs	r7, r4, #11
10003b8c:	0564      	lsls	r4, r4, #21
10003b8e:	0d64      	lsrs	r4, r4, #21
10003b90:	d002      	beq.n	10003b98 <l19_1>
10003b92:	1c66      	adds	r6, r4, #1
10003b94:	0af6      	lsrs	r6, r6, #11
10003b96:	d004      	beq.n	10003ba2 <l19_2>

10003b98 <l19_1>:
10003b98:	2200      	movs	r2, #0
10003b9a:	2301      	movs	r3, #1
10003b9c:	051b      	lsls	r3, r3, #20
10003b9e:	3c80      	subs	r4, #128	; 0x80
10003ba0:	0324      	lsls	r4, r4, #12

10003ba2 <l19_2>:
10003ba2:	25d0      	movs	r5, #208	; 0xd0
10003ba4:	062d      	lsls	r5, r5, #24
10003ba6:	2600      	movs	r6, #0
10003ba8:	43f6      	mvns	r6, r6
10003baa:	662e      	str	r6, [r5, #96]	; 0x60
10003bac:	091e      	lsrs	r6, r3, #4
10003bae:	666e      	str	r6, [r5, #100]	; 0x64
10003bb0:	0fce      	lsrs	r6, r1, #31
10003bb2:	19f6      	adds	r6, r6, r7
10003bb4:	46b4      	mov	ip, r6
10003bb6:	0049      	lsls	r1, r1, #1
10003bb8:	0d4f      	lsrs	r7, r1, #21
10003bba:	d002      	beq.n	10003bc2 <l19_2+0x20>
10003bbc:	1c7e      	adds	r6, r7, #1
10003bbe:	0af6      	lsrs	r6, r6, #11
10003bc0:	d003      	beq.n	10003bca <l19_2+0x28>
10003bc2:	2000      	movs	r0, #0
10003bc4:	2100      	movs	r1, #0
10003bc6:	3f40      	subs	r7, #64	; 0x40
10003bc8:	033f      	lsls	r7, r7, #12
10003bca:	1b3e      	subs	r6, r7, r4
10003bcc:	00b6      	lsls	r6, r6, #2
10003bce:	44b4      	add	ip, r6
10003bd0:	3f01      	subs	r7, #1
10003bd2:	057f      	lsls	r7, r7, #21
10003bd4:	1bc9      	subs	r1, r1, r7
10003bd6:	0849      	lsrs	r1, r1, #1
10003bd8:	6f2e      	ldr	r6, [r5, #112]	; 0x70
10003bda:	3601      	adds	r6, #1
10003bdc:	0876      	lsrs	r6, r6, #1
10003bde:	029c      	lsls	r4, r3, #10
10003be0:	0d95      	lsrs	r5, r2, #22
10003be2:	4325      	orrs	r5, r4
10003be4:	4375      	muls	r5, r6
10003be6:	13ed      	asrs	r5, r5, #15
10003be8:	4375      	muls	r5, r6
10003bea:	13ad      	asrs	r5, r5, #14
10003bec:	3501      	adds	r5, #1
10003bee:	106d      	asrs	r5, r5, #1
10003bf0:	03f6      	lsls	r6, r6, #15
10003bf2:	1b76      	subs	r6, r6, r5
10003bf4:	b40c      	push	{r2, r3}
10003bf6:	02cc      	lsls	r4, r1, #11
10003bf8:	0d45      	lsrs	r5, r0, #21
10003bfa:	432c      	orrs	r4, r5
10003bfc:	b2a2      	uxth	r2, r4
10003bfe:	b2b3      	uxth	r3, r6
10003c00:	435a      	muls	r2, r3
10003c02:	0c27      	lsrs	r7, r4, #16
10003c04:	437b      	muls	r3, r7
10003c06:	0c35      	lsrs	r5, r6, #16
10003c08:	436f      	muls	r7, r5
10003c0a:	b2a4      	uxth	r4, r4
10003c0c:	436c      	muls	r4, r5
10003c0e:	191b      	adds	r3, r3, r4
10003c10:	d302      	bcc.n	10003c18 <l20_1>
10003c12:	2401      	movs	r4, #1
10003c14:	0424      	lsls	r4, r4, #16
10003c16:	193f      	adds	r7, r7, r4

10003c18 <l20_1>:
10003c18:	041c      	lsls	r4, r3, #16
10003c1a:	0c1d      	lsrs	r5, r3, #16
10003c1c:	18a4      	adds	r4, r4, r2
10003c1e:	417d      	adcs	r5, r7
10003c20:	1924      	adds	r4, r4, r4
10003c22:	416d      	adcs	r5, r5
10003c24:	9a00      	ldr	r2, [sp, #0]
10003c26:	b291      	uxth	r1, r2
10003c28:	b2ac      	uxth	r4, r5
10003c2a:	4361      	muls	r1, r4
10003c2c:	0c17      	lsrs	r7, r2, #16
10003c2e:	437c      	muls	r4, r7
10003c30:	0c2b      	lsrs	r3, r5, #16
10003c32:	435f      	muls	r7, r3
10003c34:	b292      	uxth	r2, r2
10003c36:	435a      	muls	r2, r3
10003c38:	18a4      	adds	r4, r4, r2
10003c3a:	d302      	bcc.n	10003c42 <l21_1>
10003c3c:	2201      	movs	r2, #1
10003c3e:	0412      	lsls	r2, r2, #16
10003c40:	18bf      	adds	r7, r7, r2

10003c42 <l21_1>:
10003c42:	0422      	lsls	r2, r4, #16
10003c44:	0c23      	lsrs	r3, r4, #16
10003c46:	1852      	adds	r2, r2, r1
10003c48:	417b      	adcs	r3, r7
10003c4a:	9c01      	ldr	r4, [sp, #4]
10003c4c:	436c      	muls	r4, r5
10003c4e:	191b      	adds	r3, r3, r4
10003c50:	0e52      	lsrs	r2, r2, #25
10003c52:	01d9      	lsls	r1, r3, #7
10003c54:	430a      	orrs	r2, r1
10003c56:	0144      	lsls	r4, r0, #5
10003c58:	1aa0      	subs	r0, r4, r2
10003c5a:	b281      	uxth	r1, r0
10003c5c:	b2b2      	uxth	r2, r6
10003c5e:	4351      	muls	r1, r2
10003c60:	1403      	asrs	r3, r0, #16
10003c62:	435a      	muls	r2, r3
10003c64:	0c36      	lsrs	r6, r6, #16
10003c66:	4373      	muls	r3, r6
10003c68:	b287      	uxth	r7, r0
10003c6a:	4377      	muls	r7, r6
10003c6c:	17d6      	asrs	r6, r2, #31
10003c6e:	19d2      	adds	r2, r2, r7
10003c70:	2700      	movs	r7, #0
10003c72:	417e      	adcs	r6, r7
10003c74:	0436      	lsls	r6, r6, #16
10003c76:	199b      	adds	r3, r3, r6
10003c78:	0417      	lsls	r7, r2, #16
10003c7a:	0c16      	lsrs	r6, r2, #16
10003c7c:	187f      	adds	r7, r7, r1
10003c7e:	415e      	adcs	r6, r3
10003c80:	1673      	asrs	r3, r6, #25
10003c82:	18ed      	adds	r5, r5, r3
10003c84:	01f3      	lsls	r3, r6, #7
10003c86:	2600      	movs	r6, #0
10003c88:	3380      	adds	r3, #128	; 0x80
10003c8a:	4175      	adcs	r5, r6
10003c8c:	0fa9      	lsrs	r1, r5, #30
10003c8e:	d106      	bne.n	10003c9e <dd_0>
10003c90:	0064      	lsls	r4, r4, #1
10003c92:	0a69      	lsrs	r1, r5, #9
10003c94:	05e8      	lsls	r0, r5, #23
10003c96:	0a5b      	lsrs	r3, r3, #9
10003c98:	4318      	orrs	r0, r3
10003c9a:	d209      	bcs.n	10003cb0 <dd_1>
10003c9c:	e02f      	b.n	10003cfe <dd_2>

10003c9e <dd_0>:
10003c9e:	2204      	movs	r2, #4
10003ca0:	4494      	add	ip, r2
10003ca2:	3380      	adds	r3, #128	; 0x80
10003ca4:	4175      	adcs	r5, r6
10003ca6:	0aa9      	lsrs	r1, r5, #10
10003ca8:	05a8      	lsls	r0, r5, #22
10003caa:	0a9b      	lsrs	r3, r3, #10
10003cac:	4318      	orrs	r0, r3
10003cae:	d326      	bcc.n	10003cfe <dd_2>

10003cb0 <dd_1>:
10003cb0:	4140      	adcs	r0, r0
10003cb2:	4149      	adcs	r1, r1
10003cb4:	0424      	lsls	r4, r4, #16
10003cb6:	9a00      	ldr	r2, [sp, #0]
10003cb8:	9b01      	ldr	r3, [sp, #4]
10003cba:	000d      	movs	r5, r1
10003cbc:	4355      	muls	r5, r2
10003cbe:	1b64      	subs	r4, r4, r5
10003cc0:	4343      	muls	r3, r0
10003cc2:	1ae4      	subs	r4, r4, r3
10003cc4:	b295      	uxth	r5, r2
10003cc6:	b286      	uxth	r6, r0
10003cc8:	4375      	muls	r5, r6
10003cca:	0c17      	lsrs	r7, r2, #16
10003ccc:	437e      	muls	r6, r7
10003cce:	0c03      	lsrs	r3, r0, #16
10003cd0:	435f      	muls	r7, r3
10003cd2:	b292      	uxth	r2, r2
10003cd4:	435a      	muls	r2, r3
10003cd6:	18b6      	adds	r6, r6, r2
10003cd8:	d302      	bcc.n	10003ce0 <l23_1>
10003cda:	2201      	movs	r2, #1
10003cdc:	0412      	lsls	r2, r2, #16
10003cde:	18bf      	adds	r7, r7, r2

10003ce0 <l23_1>:
10003ce0:	0432      	lsls	r2, r6, #16
10003ce2:	0c33      	lsrs	r3, r6, #16
10003ce4:	1952      	adds	r2, r2, r5
10003ce6:	417b      	adcs	r3, r7
10003ce8:	4252      	negs	r2, r2
10003cea:	419c      	sbcs	r4, r3
10003cec:	2c00      	cmp	r4, #0
10003cee:	d402      	bmi.n	10003cf6 <l23_1+0x16>
10003cf0:	2200      	movs	r2, #0
10003cf2:	3001      	adds	r0, #1
10003cf4:	4151      	adcs	r1, r2
10003cf6:	0840      	lsrs	r0, r0, #1
10003cf8:	07ca      	lsls	r2, r1, #31
10003cfa:	4310      	orrs	r0, r2
10003cfc:	0849      	lsrs	r1, r1, #1

10003cfe <dd_2>:
10003cfe:	b002      	add	sp, #8
10003d00:	4662      	mov	r2, ip
10003d02:	07d7      	lsls	r7, r2, #31
10003d04:	1092      	asrs	r2, r2, #2
10003d06:	4b08      	ldr	r3, [pc, #32]	; (10003d28 <dd_4+0x6>)
10003d08:	18d2      	adds	r2, r2, r3
10003d0a:	4b08      	ldr	r3, [pc, #32]	; (10003d2c <dd_4+0xa>)
10003d0c:	429a      	cmp	r2, r3
10003d0e:	d203      	bcs.n	10003d18 <dd_3>
10003d10:	0512      	lsls	r2, r2, #20
10003d12:	1889      	adds	r1, r1, r2

10003d14 <dd_5>:
10003d14:	19c9      	adds	r1, r1, r7
10003d16:	bdf0      	pop	{r4, r5, r6, r7, pc}

10003d18 <dd_3>:
10003d18:	2000      	movs	r0, #0
10003d1a:	2a00      	cmp	r2, #0
10003d1c:	dc01      	bgt.n	10003d22 <dd_4>
10003d1e:	0039      	movs	r1, r7
10003d20:	bdf0      	pop	{r4, r5, r6, r7, pc}

10003d22 <dd_4>:
10003d22:	3301      	adds	r3, #1
10003d24:	0519      	lsls	r1, r3, #20
10003d26:	e7f5      	b.n	10003d14 <dd_5>
10003d28:	000003fd 	.word	0x000003fd
10003d2c:	000007fe 	.word	0x000007fe

10003d30 <dcordic_rot_step>:
10003d30:	4662      	mov	r2, ip
10003d32:	ca18      	ldmia	r2!, {r3, r4}
10003d34:	4694      	mov	ip, r2
10003d36:	2900      	cmp	r1, #0
10003d38:	da1a      	bge.n	10003d70 <dcordic_rot_step+0x40>
10003d3a:	18c0      	adds	r0, r0, r3
10003d3c:	4161      	adcs	r1, r4
10003d3e:	465b      	mov	r3, fp
10003d40:	413b      	asrs	r3, r7
10003d42:	465c      	mov	r4, fp
10003d44:	40b4      	lsls	r4, r6
10003d46:	4652      	mov	r2, sl
10003d48:	40fa      	lsrs	r2, r7
10003d4a:	4322      	orrs	r2, r4
10003d4c:	4644      	mov	r4, r8
10003d4e:	464d      	mov	r5, r9
10003d50:	4162      	adcs	r2, r4
10003d52:	416b      	adcs	r3, r5
10003d54:	4690      	mov	r8, r2
10003d56:	4699      	mov	r9, r3
10003d58:	462b      	mov	r3, r5
10003d5a:	40b3      	lsls	r3, r6
10003d5c:	413d      	asrs	r5, r7
10003d5e:	40fc      	lsrs	r4, r7
10003d60:	431c      	orrs	r4, r3
10003d62:	4652      	mov	r2, sl
10003d64:	465b      	mov	r3, fp
10003d66:	41a2      	sbcs	r2, r4
10003d68:	41ab      	sbcs	r3, r5
10003d6a:	4692      	mov	sl, r2
10003d6c:	469b      	mov	fp, r3
10003d6e:	4770      	bx	lr
10003d70:	1ac0      	subs	r0, r0, r3
10003d72:	41a1      	sbcs	r1, r4
10003d74:	464b      	mov	r3, r9
10003d76:	413b      	asrs	r3, r7
10003d78:	464c      	mov	r4, r9
10003d7a:	40b4      	lsls	r4, r6
10003d7c:	4642      	mov	r2, r8
10003d7e:	40fa      	lsrs	r2, r7
10003d80:	4322      	orrs	r2, r4
10003d82:	4654      	mov	r4, sl
10003d84:	465d      	mov	r5, fp
10003d86:	4162      	adcs	r2, r4
10003d88:	416b      	adcs	r3, r5
10003d8a:	4692      	mov	sl, r2
10003d8c:	469b      	mov	fp, r3
10003d8e:	462b      	mov	r3, r5
10003d90:	40b3      	lsls	r3, r6
10003d92:	413d      	asrs	r5, r7
10003d94:	40fc      	lsrs	r4, r7
10003d96:	431c      	orrs	r4, r3
10003d98:	4642      	mov	r2, r8
10003d9a:	464b      	mov	r3, r9
10003d9c:	41a2      	sbcs	r2, r4
10003d9e:	41ab      	sbcs	r3, r5
10003da0:	4690      	mov	r8, r2
10003da2:	4699      	mov	r9, r3
10003da4:	4770      	bx	lr

10003da6 <ret_dzero>:
10003da6:	2000      	movs	r0, #0
10003da8:	2100      	movs	r1, #0
10003daa:	4770      	bx	lr

10003dac <double2uint_shim>:
10003dac:	2200      	movs	r2, #0

10003dae <double2ufix_shim>:
10003dae:	b500      	push	{lr}
10003db0:	3220      	adds	r2, #32
10003db2:	f000 f804 	bl	10003dbe <double2ufix64_shim>
10003db6:	0008      	movs	r0, r1
10003db8:	bd00      	pop	{pc}
	...

10003dbc <double2uint64_shim>:
10003dbc:	2200      	movs	r2, #0

10003dbe <double2ufix64_shim>:
10003dbe:	150b      	asrs	r3, r1, #20
10003dc0:	d4f1      	bmi.n	10003da6 <ret_dzero>

10003dc2 <d2fix>:
10003dc2:	b510      	push	{r4, lr}
10003dc4:	4694      	mov	ip, r2
10003dc6:	f000 f85d 	bl	10003e84 <dunpacks>
10003dca:	1414      	asrs	r4, r2, #16
10003dcc:	3401      	adds	r4, #1
10003dce:	da00      	bge.n	10003dd2 <d2fix+0x10>
10003dd0:	2100      	movs	r1, #0
10003dd2:	17cb      	asrs	r3, r1, #31
10003dd4:	4c13      	ldr	r4, [pc, #76]	; (10003e24 <d2fix_a+0x4c>)
10003dd6:	4720      	bx	r4

10003dd8 <d2fix_a>:
10003dd8:	4462      	add	r2, ip
10003dda:	3a34      	subs	r2, #52	; 0x34
10003ddc:	d40c      	bmi.n	10003df8 <d2fix_a+0x20>
10003dde:	2a0c      	cmp	r2, #12
10003de0:	da07      	bge.n	10003df2 <d2fix_a+0x1a>
10003de2:	0004      	movs	r4, r0
10003de4:	4091      	lsls	r1, r2
10003de6:	4090      	lsls	r0, r2
10003de8:	4252      	negs	r2, r2
10003dea:	3220      	adds	r2, #32
10003dec:	40d4      	lsrs	r4, r2
10003dee:	4321      	orrs	r1, r4
10003df0:	bd10      	pop	{r4, pc}
10003df2:	43d8      	mvns	r0, r3
10003df4:	43d9      	mvns	r1, r3
10003df6:	bd10      	pop	{r4, pc}
10003df8:	3220      	adds	r2, #32
10003dfa:	d407      	bmi.n	10003e0c <d2fix_a+0x34>
10003dfc:	460c      	mov	r4, r1
10003dfe:	4094      	lsls	r4, r2
10003e00:	4252      	negs	r2, r2
10003e02:	3220      	adds	r2, #32
10003e04:	4111      	asrs	r1, r2
10003e06:	40d0      	lsrs	r0, r2
10003e08:	4320      	orrs	r0, r4
10003e0a:	bd10      	pop	{r4, pc}
10003e0c:	0008      	movs	r0, r1
10003e0e:	17c9      	asrs	r1, r1, #31
10003e10:	3220      	adds	r2, #32
10003e12:	d403      	bmi.n	10003e1c <d2fix_a+0x44>
10003e14:	4252      	negs	r2, r2
10003e16:	3220      	adds	r2, #32
10003e18:	4110      	asrs	r0, r2
10003e1a:	bd10      	pop	{r4, pc}
10003e1c:	0018      	movs	r0, r3
10003e1e:	0019      	movs	r1, r3
10003e20:	bd10      	pop	{r4, pc}
10003e22:	0000      	.short	0x0000
10003e24:	10003dd9 	.word	0x10003dd9

10003e28 <double2float_shim>:
10003e28:	004a      	lsls	r2, r1, #1
10003e2a:	0d52      	lsrs	r2, r2, #21
10003e2c:	4b14      	ldr	r3, [pc, #80]	; (10003e80 <double2float_shim+0x58>)
10003e2e:	1ad2      	subs	r2, r2, r3
10003e30:	dd13      	ble.n	10003e5a <double2float_shim+0x32>
10003e32:	2aff      	cmp	r2, #255	; 0xff
10003e34:	da1e      	bge.n	10003e74 <double2float_shim+0x4c>
10003e36:	05d2      	lsls	r2, r2, #23
10003e38:	0fcb      	lsrs	r3, r1, #31
10003e3a:	07db      	lsls	r3, r3, #31
10003e3c:	431a      	orrs	r2, r3
10003e3e:	00c3      	lsls	r3, r0, #3
10003e40:	0f40      	lsrs	r0, r0, #29
10003e42:	0309      	lsls	r1, r1, #12
10003e44:	0a49      	lsrs	r1, r1, #9
10003e46:	4308      	orrs	r0, r1
10003e48:	4310      	orrs	r0, r2
10003e4a:	005b      	lsls	r3, r3, #1
10003e4c:	d301      	bcc.n	10003e52 <double2float_shim+0x2a>
10003e4e:	d001      	beq.n	10003e54 <double2float_shim+0x2c>
10003e50:	3001      	adds	r0, #1
10003e52:	4770      	bx	lr
10003e54:	0843      	lsrs	r3, r0, #1
10003e56:	d2fb      	bcs.n	10003e50 <double2float_shim+0x28>
10003e58:	4770      	bx	lr
10003e5a:	d002      	beq.n	10003e62 <double2float_shim+0x3a>
10003e5c:	0fc8      	lsrs	r0, r1, #31
10003e5e:	07c0      	lsls	r0, r0, #31
10003e60:	4770      	bx	lr
10003e62:	030a      	lsls	r2, r1, #12
10003e64:	1312      	asrs	r2, r2, #12
10003e66:	3201      	adds	r2, #1
10003e68:	d1f8      	bne.n	10003e5c <double2float_shim+0x34>
10003e6a:	0f42      	lsrs	r2, r0, #29
10003e6c:	2a07      	cmp	r2, #7
10003e6e:	d1f5      	bne.n	10003e5c <double2float_shim+0x34>
10003e70:	2201      	movs	r2, #1
10003e72:	e000      	b.n	10003e76 <double2float_shim+0x4e>
10003e74:	22ff      	movs	r2, #255	; 0xff
10003e76:	0fc8      	lsrs	r0, r1, #31
10003e78:	0200      	lsls	r0, r0, #8
10003e7a:	1880      	adds	r0, r0, r2
10003e7c:	05c0      	lsls	r0, r0, #23
10003e7e:	4770      	bx	lr
10003e80:	00000380 	.word	0x00000380

10003e84 <dunpacks>:
10003e84:	0d0a      	lsrs	r2, r1, #20
10003e86:	0fcc      	lsrs	r4, r1, #31
10003e88:	1e53      	subs	r3, r2, #1
10003e8a:	051b      	lsls	r3, r3, #20
10003e8c:	1ac9      	subs	r1, r1, r3
10003e8e:	0552      	lsls	r2, r2, #21
10003e90:	d303      	bcc.n	10003e9a <l60_1>
10003e92:	43c9      	mvns	r1, r1
10003e94:	4240      	negs	r0, r0
10003e96:	d300      	bcc.n	10003e9a <l60_1>
10003e98:	3101      	adds	r1, #1

10003e9a <l60_1>:
10003e9a:	0d52      	lsrs	r2, r2, #21
10003e9c:	d003      	beq.n	10003ea6 <l60_2>
10003e9e:	1c53      	adds	r3, r2, #1
10003ea0:	0adb      	lsrs	r3, r3, #11
10003ea2:	d007      	beq.n	10003eb4 <l60_3>
10003ea4:	1b12      	subs	r2, r2, r4

10003ea6 <l60_2>:
10003ea6:	2000      	movs	r0, #0
10003ea8:	0064      	lsls	r4, r4, #1
10003eaa:	1c61      	adds	r1, r4, #1
10003eac:	0789      	lsls	r1, r1, #30
10003eae:	1289      	asrs	r1, r1, #10
10003eb0:	3a80      	subs	r2, #128	; 0x80
10003eb2:	0312      	lsls	r2, r2, #12

10003eb4 <l60_3>:
10003eb4:	4b01      	ldr	r3, [pc, #4]	; (10003ebc <l60_3+0x8>)
10003eb6:	1ad2      	subs	r2, r2, r3
10003eb8:	4770      	bx	lr
10003eba:	0000      	.short	0x0000
10003ebc:	000003ff 	.word	0x000003ff

10003ec0 <__wrap___aeabi_lmul>:
10003ec0:	4351      	muls	r1, r2
10003ec2:	4343      	muls	r3, r0
10003ec4:	18c9      	adds	r1, r1, r3
10003ec6:	468c      	mov	ip, r1
10003ec8:	0c11      	lsrs	r1, r2, #16
10003eca:	b283      	uxth	r3, r0
10003ecc:	434b      	muls	r3, r1
10003ece:	b410      	push	{r4}
10003ed0:	0c04      	lsrs	r4, r0, #16
10003ed2:	4361      	muls	r1, r4
10003ed4:	b292      	uxth	r2, r2
10003ed6:	b280      	uxth	r0, r0
10003ed8:	4350      	muls	r0, r2
10003eda:	4362      	muls	r2, r4
10003edc:	041c      	lsls	r4, r3, #16
10003ede:	0c1b      	lsrs	r3, r3, #16
10003ee0:	1900      	adds	r0, r0, r4
10003ee2:	bc10      	pop	{r4}
10003ee4:	4159      	adcs	r1, r3
10003ee6:	0413      	lsls	r3, r2, #16
10003ee8:	0c12      	lsrs	r2, r2, #16
10003eea:	18c0      	adds	r0, r0, r3
10003eec:	4151      	adcs	r1, r2
10003eee:	4461      	add	r1, ip
10003ef0:	4770      	bx	lr
	...

10003ef4 <__wrap___aeabi_frsub>:
10003ef4:	4048      	eors	r0, r1
10003ef6:	4041      	eors	r1, r0
10003ef8:	4048      	eors	r0, r1

10003efa <__wrap___aeabi_fsub>:
10003efa:	4b06      	ldr	r3, [pc, #24]	; (10003f14 <__wrap___aeabi_fmul+0x8>)
10003efc:	685b      	ldr	r3, [r3, #4]
10003efe:	4718      	bx	r3

10003f00 <__wrap___aeabi_fadd>:
10003f00:	4b04      	ldr	r3, [pc, #16]	; (10003f14 <__wrap___aeabi_fmul+0x8>)
10003f02:	681b      	ldr	r3, [r3, #0]
10003f04:	4718      	bx	r3

10003f06 <__wrap___aeabi_fdiv>:
10003f06:	4b03      	ldr	r3, [pc, #12]	; (10003f14 <__wrap___aeabi_fmul+0x8>)
10003f08:	68db      	ldr	r3, [r3, #12]
10003f0a:	4718      	bx	r3

10003f0c <__wrap___aeabi_fmul>:
10003f0c:	4b01      	ldr	r3, [pc, #4]	; (10003f14 <__wrap___aeabi_fmul+0x8>)
10003f0e:	689b      	ldr	r3, [r3, #8]
10003f10:	4718      	bx	r3
10003f12:	0000      	.short	0x0000
10003f14:	20000c30 	.word	0x20000c30

10003f18 <__wrap___aeabi_ui2f>:
10003f18:	1a49      	subs	r1, r1, r1
10003f1a:	2800      	cmp	r0, #0
10003f1c:	d108      	bne.n	10003f30 <__aeabi_i2f_main>
10003f1e:	4608      	mov	r0, r1
10003f20:	4770      	bx	lr
	...

10003f24 <__wrap___aeabi_i2f>:
10003f24:	0fc1      	lsrs	r1, r0, #31
10003f26:	07c9      	lsls	r1, r1, #31
10003f28:	d500      	bpl.n	10003f2c <__wrap___aeabi_i2f+0x8>
10003f2a:	4240      	negs	r0, r0
10003f2c:	2800      	cmp	r0, #0
10003f2e:	d017      	beq.n	10003f60 <__aeabi_i2f_main+0x30>

10003f30 <__aeabi_i2f_main>:
10003f30:	46f4      	mov	ip, lr
10003f32:	b403      	push	{r0, r1}
10003f34:	4b0b      	ldr	r3, [pc, #44]	; (10003f64 <__aeabi_i2f_main+0x34>)
10003f36:	681b      	ldr	r3, [r3, #0]
10003f38:	4798      	blx	r3
10003f3a:	bc06      	pop	{r1, r2}
10003f3c:	4081      	lsls	r1, r0
10003f3e:	389e      	subs	r0, #158	; 0x9e
10003f40:	4240      	negs	r0, r0
10003f42:	3180      	adds	r1, #128	; 0x80
10003f44:	d207      	bcs.n	10003f56 <__aeabi_i2f_main+0x26>
10003f46:	060b      	lsls	r3, r1, #24
10003f48:	d007      	beq.n	10003f5a <__aeabi_i2f_main+0x2a>
10003f4a:	0049      	lsls	r1, r1, #1
10003f4c:	0a49      	lsrs	r1, r1, #9
10003f4e:	05c0      	lsls	r0, r0, #23
10003f50:	4310      	orrs	r0, r2
10003f52:	4308      	orrs	r0, r1
10003f54:	4760      	bx	ip
10003f56:	3001      	adds	r0, #1
10003f58:	e7f8      	b.n	10003f4c <__aeabi_i2f_main+0x1c>
10003f5a:	0a49      	lsrs	r1, r1, #9
10003f5c:	0289      	lsls	r1, r1, #10
10003f5e:	e7f5      	b.n	10003f4c <__aeabi_i2f_main+0x1c>
10003f60:	4770      	bx	lr
10003f62:	0000      	.short	0x0000
10003f64:	20000d30 	.word	0x20000d30

10003f68 <__wrap___aeabi_f2uiz>:
10003f68:	4b01      	ldr	r3, [pc, #4]	; (10003f70 <__wrap___aeabi_f2uiz+0x8>)
10003f6a:	6a5b      	ldr	r3, [r3, #36]	; 0x24
10003f6c:	4718      	bx	r3
10003f6e:	0000      	.short	0x0000
10003f70:	20000c30 	.word	0x20000c30

10003f74 <__wrap___aeabi_f2d>:
10003f74:	4b03      	ldr	r3, [pc, #12]	; (10003f84 <__wrap___aeabi_f2d+0x10>)
10003f76:	6fdb      	ldr	r3, [r3, #124]	; 0x7c
10003f78:	46fc      	mov	ip, pc
10003f7a:	4718      	bx	r3
10003f7c:	4019df7c 	.word	0x4019df7c
10003f80:	00001000 	.word	0x00001000
10003f84:	20000c30 	.word	0x20000c30

10003f88 <__aeabi_float_init>:
10003f88:	2313      	movs	r3, #19
10003f8a:	b510      	push	{r4, lr}
10003f8c:	4812      	ldr	r0, [pc, #72]	; (10003fd8 <__aeabi_float_init+0x50>)
10003f8e:	781c      	ldrb	r4, [r3, #0]
10003f90:	f7ff f8b0 	bl	100030f4 <rom_data_lookup>
10003f94:	0001      	movs	r1, r0
10003f96:	2c01      	cmp	r4, #1
10003f98:	d00a      	beq.n	10003fb0 <__aeabi_float_init+0x28>
10003f9a:	dd03      	ble.n	10003fa4 <__aeabi_float_init+0x1c>
10003f9c:	2280      	movs	r2, #128	; 0x80
10003f9e:	480f      	ldr	r0, [pc, #60]	; (10003fdc <__aeabi_float_init+0x54>)
10003fa0:	f000 f868 	bl	10004074 <__wrap___aeabi_memcpy>
10003fa4:	480e      	ldr	r0, [pc, #56]	; (10003fe0 <__aeabi_float_init+0x58>)
10003fa6:	f7ff f89d 	bl	100030e4 <rom_func_lookup>
10003faa:	4b0e      	ldr	r3, [pc, #56]	; (10003fe4 <__aeabi_float_init+0x5c>)
10003fac:	6018      	str	r0, [r3, #0]
10003fae:	bd10      	pop	{r4, pc}
10003fb0:	4c0a      	ldr	r4, [pc, #40]	; (10003fdc <__aeabi_float_init+0x54>)
10003fb2:	2254      	movs	r2, #84	; 0x54
10003fb4:	0020      	movs	r0, r4
10003fb6:	f000 f85d 	bl	10004074 <__wrap___aeabi_memcpy>
10003fba:	4b0b      	ldr	r3, [pc, #44]	; (10003fe8 <__aeabi_float_init+0x60>)
10003fbc:	6563      	str	r3, [r4, #84]	; 0x54
10003fbe:	65a3      	str	r3, [r4, #88]	; 0x58
10003fc0:	65e3      	str	r3, [r4, #92]	; 0x5c
10003fc2:	6623      	str	r3, [r4, #96]	; 0x60
10003fc4:	6663      	str	r3, [r4, #100]	; 0x64
10003fc6:	66a3      	str	r3, [r4, #104]	; 0x68
10003fc8:	66e3      	str	r3, [r4, #108]	; 0x6c
10003fca:	6723      	str	r3, [r4, #112]	; 0x70
10003fcc:	6763      	str	r3, [r4, #116]	; 0x74
10003fce:	67a3      	str	r3, [r4, #120]	; 0x78
10003fd0:	67e3      	str	r3, [r4, #124]	; 0x7c
10003fd2:	6223      	str	r3, [r4, #32]
10003fd4:	61e3      	str	r3, [r4, #28]
10003fd6:	e7e5      	b.n	10003fa4 <__aeabi_float_init+0x1c>
10003fd8:	00004653 	.word	0x00004653
10003fdc:	20000c30 	.word	0x20000c30
10003fe0:	0000334c 	.word	0x0000334c
10003fe4:	20000d30 	.word	0x20000d30
10003fe8:	10003fed 	.word	0x10003fed

10003fec <float_table_shim_on_use_helper>:
10003fec:	b507      	push	{r0, r1, r2, lr}
10003fee:	4660      	mov	r0, ip
10003ff0:	8801      	ldrh	r1, [r0, #0]
10003ff2:	0a0a      	lsrs	r2, r1, #8
10003ff4:	3002      	adds	r0, #2
10003ff6:	2adf      	cmp	r2, #223	; 0xdf
10003ff8:	d1fa      	bne.n	10003ff0 <float_table_shim_on_use_helper+0x4>
10003ffa:	b2c9      	uxtb	r1, r1
10003ffc:	0882      	lsrs	r2, r0, #2
10003ffe:	d304      	bcc.n	1000400a <float_table_shim_on_use_helper+0x1e>
10004000:	8802      	ldrh	r2, [r0, #0]
10004002:	8840      	ldrh	r0, [r0, #2]
10004004:	0400      	lsls	r0, r0, #16
10004006:	4310      	orrs	r0, r2
10004008:	e000      	b.n	1000400c <float_table_shim_on_use_helper+0x20>
1000400a:	6800      	ldr	r0, [r0, #0]
1000400c:	4a01      	ldr	r2, [pc, #4]	; (10004014 <float_table_shim_on_use_helper+0x28>)
1000400e:	5050      	str	r0, [r2, r1]
10004010:	9003      	str	r0, [sp, #12]
10004012:	bd07      	pop	{r0, r1, r2, pc}
10004014:	20000c30 	.word	0x20000c30

10004018 <float2double_shim>:
10004018:	0fc3      	lsrs	r3, r0, #31
1000401a:	07db      	lsls	r3, r3, #31
1000401c:	0041      	lsls	r1, r0, #1
1000401e:	0e0a      	lsrs	r2, r1, #24
10004020:	d007      	beq.n	10004032 <float2double_shim+0x1a>
10004022:	2aff      	cmp	r2, #255	; 0xff
10004024:	d008      	beq.n	10004038 <float2double_shim+0x20>
10004026:	0909      	lsrs	r1, r1, #4
10004028:	4a05      	ldr	r2, [pc, #20]	; (10004040 <float2double_shim+0x28>)
1000402a:	1889      	adds	r1, r1, r2
1000402c:	4319      	orrs	r1, r3
1000402e:	0740      	lsls	r0, r0, #29
10004030:	4770      	bx	lr
10004032:	0019      	movs	r1, r3
10004034:	2000      	movs	r0, #0
10004036:	4770      	bx	lr
10004038:	4902      	ldr	r1, [pc, #8]	; (10004044 <float2double_shim+0x2c>)
1000403a:	18c9      	adds	r1, r1, r3
1000403c:	e7fa      	b.n	10004034 <float2double_shim+0x1c>
1000403e:	0000      	.short	0x0000
10004040:	38000000 	.word	0x38000000
10004044:	7ff00000 	.word	0x7ff00000

10004048 <__wrap_malloc>:
10004048:	b510      	push	{r4, lr}
1000404a:	f000 fa79 	bl	10004540 <malloc>
1000404e:	bd10      	pop	{r4, pc}

10004050 <__wrap_calloc>:
10004050:	b510      	push	{r4, lr}
10004052:	f000 fa3b 	bl	100044cc <calloc>
10004056:	bd10      	pop	{r4, pc}

10004058 <__aeabi_mem_init>:
10004058:	4801      	ldr	r0, [pc, #4]	; (10004060 <__aeabi_mem_init+0x8>)
1000405a:	2104      	movs	r1, #4
1000405c:	4b01      	ldr	r3, [pc, #4]	; (10004064 <__aeabi_mem_init+0xc>)
1000405e:	4718      	bx	r3
10004060:	200001f0 	.word	0x200001f0
10004064:	10003105 	.word	0x10003105

10004068 <__wrap_memset>:
10004068:	4b01      	ldr	r3, [pc, #4]	; (10004070 <__wrap_memset+0x8>)
1000406a:	681b      	ldr	r3, [r3, #0]
1000406c:	4718      	bx	r3
1000406e:	0000      	.short	0x0000
10004070:	200001f0 	.word	0x200001f0

10004074 <__wrap___aeabi_memcpy>:
10004074:	4b01      	ldr	r3, [pc, #4]	; (1000407c <__wrap___aeabi_memcpy+0x8>)
10004076:	685b      	ldr	r3, [r3, #4]
10004078:	4718      	bx	r3
1000407a:	0000      	.short	0x0000
1000407c:	200001f0 	.word	0x200001f0

10004080 <stdio_out_chars_crlf.part.0>:
10004080:	b5f8      	push	{r3, r4, r5, r6, r7, lr}
10004082:	4647      	mov	r7, r8
10004084:	46ce      	mov	lr, r9
10004086:	000d      	movs	r5, r1
10004088:	b580      	push	{r7, lr}
1000408a:	0016      	movs	r6, r2
1000408c:	0007      	movs	r7, r0
1000408e:	2a00      	cmp	r2, #0
10004090:	dd20      	ble.n	100040d4 <stdio_out_chars_crlf.part.0+0x54>
10004092:	1e4b      	subs	r3, r1, #1
10004094:	4698      	mov	r8, r3
10004096:	4b1a      	ldr	r3, [pc, #104]	; (10004100 <stdio_out_chars_crlf.part.0+0x80>)
10004098:	2400      	movs	r4, #0
1000409a:	2000      	movs	r0, #0
1000409c:	4699      	mov	r9, r3
1000409e:	2c00      	cmp	r4, #0
100040a0:	d02b      	beq.n	100040fa <stdio_out_chars_crlf.part.0+0x7a>
100040a2:	4643      	mov	r3, r8
100040a4:	5d1b      	ldrb	r3, [r3, r4]
100040a6:	3b0d      	subs	r3, #13
100040a8:	425a      	negs	r2, r3
100040aa:	4153      	adcs	r3, r2
100040ac:	b2db      	uxtb	r3, r3
100040ae:	5d2a      	ldrb	r2, [r5, r4]
100040b0:	2a0a      	cmp	r2, #10
100040b2:	d013      	beq.n	100040dc <stdio_out_chars_crlf.part.0+0x5c>
100040b4:	3401      	adds	r4, #1
100040b6:	42a6      	cmp	r6, r4
100040b8:	dcf1      	bgt.n	1000409e <stdio_out_chars_crlf.part.0+0x1e>
100040ba:	4286      	cmp	r6, r0
100040bc:	dd03      	ble.n	100040c6 <stdio_out_chars_crlf.part.0+0x46>
100040be:	1a31      	subs	r1, r6, r0
100040c0:	683b      	ldr	r3, [r7, #0]
100040c2:	1828      	adds	r0, r5, r0
100040c4:	4798      	blx	r3
100040c6:	19ad      	adds	r5, r5, r6
100040c8:	3d01      	subs	r5, #1
100040ca:	782b      	ldrb	r3, [r5, #0]
100040cc:	3b0d      	subs	r3, #13
100040ce:	425a      	negs	r2, r3
100040d0:	4153      	adcs	r3, r2
100040d2:	743b      	strb	r3, [r7, #16]
100040d4:	bc0c      	pop	{r2, r3}
100040d6:	4690      	mov	r8, r2
100040d8:	4699      	mov	r9, r3
100040da:	bdf8      	pop	{r3, r4, r5, r6, r7, pc}
100040dc:	2b00      	cmp	r3, #0
100040de:	d1e9      	bne.n	100040b4 <stdio_out_chars_crlf.part.0+0x34>
100040e0:	42a0      	cmp	r0, r4
100040e2:	da03      	bge.n	100040ec <stdio_out_chars_crlf.part.0+0x6c>
100040e4:	1a21      	subs	r1, r4, r0
100040e6:	683b      	ldr	r3, [r7, #0]
100040e8:	1828      	adds	r0, r5, r0
100040ea:	4798      	blx	r3
100040ec:	4648      	mov	r0, r9
100040ee:	2102      	movs	r1, #2
100040f0:	683b      	ldr	r3, [r7, #0]
100040f2:	3401      	adds	r4, #1
100040f4:	4798      	blx	r3
100040f6:	0020      	movs	r0, r4
100040f8:	e7dd      	b.n	100040b6 <stdio_out_chars_crlf.part.0+0x36>
100040fa:	7c3b      	ldrb	r3, [r7, #16]
100040fc:	e7d7      	b.n	100040ae <stdio_out_chars_crlf.part.0+0x2e>
100040fe:	46c0      	nop			; (mov r8, r8)
10004100:	100051e8 	.word	0x100051e8

10004104 <stdio_buffered_printer>:
10004104:	b5f8      	push	{r3, r4, r5, r6, r7, lr}
10004106:	4647      	mov	r7, r8
10004108:	46ce      	mov	lr, r9
1000410a:	000c      	movs	r4, r1
1000410c:	6809      	ldr	r1, [r1, #0]
1000410e:	b580      	push	{r7, lr}
10004110:	0007      	movs	r7, r0
10004112:	2980      	cmp	r1, #128	; 0x80
10004114:	d007      	beq.n	10004126 <stdio_buffered_printer+0x22>
10004116:	1c4b      	adds	r3, r1, #1
10004118:	6023      	str	r3, [r4, #0]
1000411a:	1864      	adds	r4, r4, r1
1000411c:	7127      	strb	r7, [r4, #4]
1000411e:	bc0c      	pop	{r2, r3}
10004120:	4690      	mov	r8, r2
10004122:	4699      	mov	r9, r3
10004124:	bdf8      	pop	{r3, r4, r5, r6, r7, pc}
10004126:	4b13      	ldr	r3, [pc, #76]	; (10004174 <stdio_buffered_printer+0x70>)
10004128:	681d      	ldr	r5, [r3, #0]
1000412a:	2d00      	cmp	r5, #0
1000412c:	d01b      	beq.n	10004166 <stdio_buffered_printer+0x62>
1000412e:	4b12      	ldr	r3, [pc, #72]	; (10004178 <stdio_buffered_printer+0x74>)
10004130:	4698      	mov	r8, r3
10004132:	1d23      	adds	r3, r4, #4
10004134:	4699      	mov	r9, r3
10004136:	e002      	b.n	1000413e <stdio_buffered_printer+0x3a>
10004138:	68ed      	ldr	r5, [r5, #12]
1000413a:	2d00      	cmp	r5, #0
1000413c:	d013      	beq.n	10004166 <stdio_buffered_printer+0x62>
1000413e:	682e      	ldr	r6, [r5, #0]
10004140:	2e00      	cmp	r6, #0
10004142:	d0f9      	beq.n	10004138 <stdio_buffered_printer+0x34>
10004144:	4643      	mov	r3, r8
10004146:	681b      	ldr	r3, [r3, #0]
10004148:	2b00      	cmp	r3, #0
1000414a:	d001      	beq.n	10004150 <stdio_buffered_printer+0x4c>
1000414c:	429d      	cmp	r5, r3
1000414e:	d1f3      	bne.n	10004138 <stdio_buffered_printer+0x34>
10004150:	7c6b      	ldrb	r3, [r5, #17]
10004152:	6822      	ldr	r2, [r4, #0]
10004154:	2b00      	cmp	r3, #0
10004156:	d009      	beq.n	1000416c <stdio_buffered_printer+0x68>
10004158:	0028      	movs	r0, r5
1000415a:	4649      	mov	r1, r9
1000415c:	f7ff ff90 	bl	10004080 <stdio_out_chars_crlf.part.0>
10004160:	68ed      	ldr	r5, [r5, #12]
10004162:	2d00      	cmp	r5, #0
10004164:	d1eb      	bne.n	1000413e <stdio_buffered_printer+0x3a>
10004166:	2301      	movs	r3, #1
10004168:	2100      	movs	r1, #0
1000416a:	e7d5      	b.n	10004118 <stdio_buffered_printer+0x14>
1000416c:	0011      	movs	r1, r2
1000416e:	4648      	mov	r0, r9
10004170:	47b0      	blx	r6
10004172:	e7e1      	b.n	10004138 <stdio_buffered_printer+0x34>
10004174:	20000af8 	.word	0x20000af8
10004178:	20000afc 	.word	0x20000afc

1000417c <stdio_put_string>:
1000417c:	b5f0      	push	{r4, r5, r6, r7, lr}
1000417e:	4657      	mov	r7, sl
10004180:	4645      	mov	r5, r8
10004182:	46de      	mov	lr, fp
10004184:	464e      	mov	r6, r9
10004186:	23d0      	movs	r3, #208	; 0xd0
10004188:	b5e0      	push	{r5, r6, r7, lr}
1000418a:	061b      	lsls	r3, r3, #24
1000418c:	681c      	ldr	r4, [r3, #0]
1000418e:	4b37      	ldr	r3, [pc, #220]	; (1000426c <stdio_put_string+0xf0>)
10004190:	b083      	sub	sp, #12
10004192:	0007      	movs	r7, r0
10004194:	000d      	movs	r5, r1
10004196:	0018      	movs	r0, r3
10004198:	a901      	add	r1, sp, #4
1000419a:	4690      	mov	r8, r2
1000419c:	469a      	mov	sl, r3
1000419e:	f000 fe37 	bl	10004e10 <__mutex_try_enter_veneer>
100041a2:	4681      	mov	r9, r0
100041a4:	2800      	cmp	r0, #0
100041a6:	d107      	bne.n	100041b8 <stdio_put_string+0x3c>
100041a8:	9b01      	ldr	r3, [sp, #4]
100041aa:	429c      	cmp	r4, r3
100041ac:	d004      	beq.n	100041b8 <stdio_put_string+0x3c>
100041ae:	4650      	mov	r0, sl
100041b0:	f000 fe36 	bl	10004e20 <__mutex_enter_blocking_veneer>
100041b4:	2301      	movs	r3, #1
100041b6:	4699      	mov	r9, r3
100041b8:	1c6b      	adds	r3, r5, #1
100041ba:	d103      	bne.n	100041c4 <stdio_put_string+0x48>
100041bc:	0038      	movs	r0, r7
100041be:	f000 fcab 	bl	10004b18 <strlen>
100041c2:	0005      	movs	r5, r0
100041c4:	4b2a      	ldr	r3, [pc, #168]	; (10004270 <stdio_put_string+0xf4>)
100041c6:	681c      	ldr	r4, [r3, #0]
100041c8:	2c00      	cmp	r4, #0
100041ca:	d02f      	beq.n	1000422c <stdio_put_string+0xb0>
100041cc:	230a      	movs	r3, #10
100041ce:	4e29      	ldr	r6, [pc, #164]	; (10004274 <stdio_put_string+0xf8>)
100041d0:	469b      	mov	fp, r3
100041d2:	e002      	b.n	100041da <stdio_put_string+0x5e>
100041d4:	68e4      	ldr	r4, [r4, #12]
100041d6:	2c00      	cmp	r4, #0
100041d8:	d028      	beq.n	1000422c <stdio_put_string+0xb0>
100041da:	6822      	ldr	r2, [r4, #0]
100041dc:	2a00      	cmp	r2, #0
100041de:	d0f9      	beq.n	100041d4 <stdio_put_string+0x58>
100041e0:	6833      	ldr	r3, [r6, #0]
100041e2:	2b00      	cmp	r3, #0
100041e4:	d001      	beq.n	100041ea <stdio_put_string+0x6e>
100041e6:	42a3      	cmp	r3, r4
100041e8:	d1f4      	bne.n	100041d4 <stdio_put_string+0x58>
100041ea:	7c63      	ldrb	r3, [r4, #17]
100041ec:	2b00      	cmp	r3, #0
100041ee:	d02a      	beq.n	10004246 <stdio_put_string+0xca>
100041f0:	002a      	movs	r2, r5
100041f2:	0039      	movs	r1, r7
100041f4:	0020      	movs	r0, r4
100041f6:	f7ff ff43 	bl	10004080 <stdio_out_chars_crlf.part.0>
100041fa:	4643      	mov	r3, r8
100041fc:	2b00      	cmp	r3, #0
100041fe:	d0e9      	beq.n	100041d4 <stdio_put_string+0x58>
10004200:	466b      	mov	r3, sp
10004202:	465a      	mov	r2, fp
10004204:	711a      	strb	r2, [r3, #4]
10004206:	7c63      	ldrb	r3, [r4, #17]
10004208:	2b00      	cmp	r3, #0
1000420a:	d020      	beq.n	1000424e <stdio_put_string+0xd2>
1000420c:	7c23      	ldrb	r3, [r4, #16]
1000420e:	2b00      	cmp	r3, #0
10004210:	d026      	beq.n	10004260 <stdio_put_string+0xe4>
10004212:	2101      	movs	r1, #1
10004214:	6823      	ldr	r3, [r4, #0]
10004216:	a801      	add	r0, sp, #4
10004218:	4798      	blx	r3
1000421a:	466b      	mov	r3, sp
1000421c:	791b      	ldrb	r3, [r3, #4]
1000421e:	3b0d      	subs	r3, #13
10004220:	425a      	negs	r2, r3
10004222:	4153      	adcs	r3, r2
10004224:	7423      	strb	r3, [r4, #16]
10004226:	68e4      	ldr	r4, [r4, #12]
10004228:	2c00      	cmp	r4, #0
1000422a:	d1d6      	bne.n	100041da <stdio_put_string+0x5e>
1000422c:	464b      	mov	r3, r9
1000422e:	2b00      	cmp	r3, #0
10004230:	d112      	bne.n	10004258 <stdio_put_string+0xdc>
10004232:	1e68      	subs	r0, r5, #1
10004234:	4185      	sbcs	r5, r0
10004236:	b2e8      	uxtb	r0, r5
10004238:	b003      	add	sp, #12
1000423a:	bc3c      	pop	{r2, r3, r4, r5}
1000423c:	4690      	mov	r8, r2
1000423e:	4699      	mov	r9, r3
10004240:	46a2      	mov	sl, r4
10004242:	46ab      	mov	fp, r5
10004244:	bdf0      	pop	{r4, r5, r6, r7, pc}
10004246:	0029      	movs	r1, r5
10004248:	0038      	movs	r0, r7
1000424a:	4790      	blx	r2
1000424c:	e7d5      	b.n	100041fa <stdio_put_string+0x7e>
1000424e:	2101      	movs	r1, #1
10004250:	6823      	ldr	r3, [r4, #0]
10004252:	a801      	add	r0, sp, #4
10004254:	4798      	blx	r3
10004256:	e7bd      	b.n	100041d4 <stdio_put_string+0x58>
10004258:	4650      	mov	r0, sl
1000425a:	f000 fdc1 	bl	10004de0 <__mutex_exit_veneer>
1000425e:	e7e8      	b.n	10004232 <stdio_put_string+0xb6>
10004260:	2102      	movs	r1, #2
10004262:	4805      	ldr	r0, [pc, #20]	; (10004278 <stdio_put_string+0xfc>)
10004264:	6823      	ldr	r3, [r4, #0]
10004266:	4798      	blx	r3
10004268:	e7d7      	b.n	1000421a <stdio_put_string+0x9e>
1000426a:	46c0      	nop			; (mov r8, r8)
1000426c:	20000a50 	.word	0x20000a50
10004270:	20000af8 	.word	0x20000af8
10004274:	20000afc 	.word	0x20000afc
10004278:	100051e8 	.word	0x100051e8

1000427c <__wrap_putchar>:
1000427c:	b510      	push	{r4, lr}
1000427e:	b082      	sub	sp, #8
10004280:	466b      	mov	r3, sp
10004282:	0004      	movs	r4, r0
10004284:	2200      	movs	r2, #0
10004286:	1dd8      	adds	r0, r3, #7
10004288:	2101      	movs	r1, #1
1000428a:	7004      	strb	r4, [r0, #0]
1000428c:	f7ff ff76 	bl	1000417c <stdio_put_string>
10004290:	0020      	movs	r0, r4
10004292:	b002      	add	sp, #8
10004294:	bd10      	pop	{r4, pc}
10004296:	46c0      	nop			; (mov r8, r8)

10004298 <__wrap_puts>:
10004298:	b570      	push	{r4, r5, r6, lr}
1000429a:	0004      	movs	r4, r0
1000429c:	f000 fc3c 	bl	10004b18 <strlen>
100042a0:	2201      	movs	r2, #1
100042a2:	0001      	movs	r1, r0
100042a4:	0005      	movs	r5, r0
100042a6:	0020      	movs	r0, r4
100042a8:	f7ff ff68 	bl	1000417c <stdio_put_string>
100042ac:	4b08      	ldr	r3, [pc, #32]	; (100042d0 <__wrap_puts+0x38>)
100042ae:	681c      	ldr	r4, [r3, #0]
100042b0:	2c00      	cmp	r4, #0
100042b2:	d006      	beq.n	100042c2 <__wrap_puts+0x2a>
100042b4:	6863      	ldr	r3, [r4, #4]
100042b6:	2b00      	cmp	r3, #0
100042b8:	d005      	beq.n	100042c6 <__wrap_puts+0x2e>
100042ba:	4798      	blx	r3
100042bc:	68e4      	ldr	r4, [r4, #12]
100042be:	2c00      	cmp	r4, #0
100042c0:	d1f8      	bne.n	100042b4 <__wrap_puts+0x1c>
100042c2:	0028      	movs	r0, r5
100042c4:	bd70      	pop	{r4, r5, r6, pc}
100042c6:	68e4      	ldr	r4, [r4, #12]
100042c8:	2c00      	cmp	r4, #0
100042ca:	d1f3      	bne.n	100042b4 <__wrap_puts+0x1c>
100042cc:	e7f9      	b.n	100042c2 <__wrap_puts+0x2a>
100042ce:	46c0      	nop			; (mov r8, r8)
100042d0:	20000af8 	.word	0x20000af8

100042d4 <stdio_set_driver_enabled>:
100042d4:	4a0d      	ldr	r2, [pc, #52]	; (1000430c <stdio_set_driver_enabled+0x38>)
100042d6:	6813      	ldr	r3, [r2, #0]
100042d8:	2b00      	cmp	r3, #0
100042da:	d013      	beq.n	10004304 <stdio_set_driver_enabled+0x30>
100042dc:	4283      	cmp	r3, r0
100042de:	d102      	bne.n	100042e6 <stdio_set_driver_enabled+0x12>
100042e0:	e009      	b.n	100042f6 <stdio_set_driver_enabled+0x22>
100042e2:	4298      	cmp	r0, r3
100042e4:	d008      	beq.n	100042f8 <stdio_set_driver_enabled+0x24>
100042e6:	001a      	movs	r2, r3
100042e8:	68db      	ldr	r3, [r3, #12]
100042ea:	2b00      	cmp	r3, #0
100042ec:	d1f9      	bne.n	100042e2 <stdio_set_driver_enabled+0xe>
100042ee:	2900      	cmp	r1, #0
100042f0:	d000      	beq.n	100042f4 <stdio_set_driver_enabled+0x20>
100042f2:	60d0      	str	r0, [r2, #12]
100042f4:	4770      	bx	lr
100042f6:	001a      	movs	r2, r3
100042f8:	2900      	cmp	r1, #0
100042fa:	d1fb      	bne.n	100042f4 <stdio_set_driver_enabled+0x20>
100042fc:	68db      	ldr	r3, [r3, #12]
100042fe:	60d3      	str	r3, [r2, #12]
10004300:	60c1      	str	r1, [r0, #12]
10004302:	e7f7      	b.n	100042f4 <stdio_set_driver_enabled+0x20>
10004304:	2900      	cmp	r1, #0
10004306:	d0f5      	beq.n	100042f4 <stdio_set_driver_enabled+0x20>
10004308:	6010      	str	r0, [r2, #0]
1000430a:	e7f3      	b.n	100042f4 <stdio_set_driver_enabled+0x20>
1000430c:	20000af8 	.word	0x20000af8

10004310 <__wrap_vprintf>:
10004310:	b5f0      	push	{r4, r5, r6, r7, lr}
10004312:	4646      	mov	r6, r8
10004314:	46d6      	mov	lr, sl
10004316:	464f      	mov	r7, r9
10004318:	23d0      	movs	r3, #208	; 0xd0
1000431a:	b5c0      	push	{r6, r7, lr}
1000431c:	061b      	lsls	r3, r3, #24
1000431e:	681f      	ldr	r7, [r3, #0]
10004320:	4b31      	ldr	r3, [pc, #196]	; (100043e8 <__wrap_vprintf+0xd8>)
10004322:	b0a2      	sub	sp, #136	; 0x88
10004324:	0004      	movs	r4, r0
10004326:	000d      	movs	r5, r1
10004328:	0018      	movs	r0, r3
1000432a:	a901      	add	r1, sp, #4
1000432c:	4698      	mov	r8, r3
1000432e:	f000 fd6f 	bl	10004e10 <__mutex_try_enter_veneer>
10004332:	1e06      	subs	r6, r0, #0
10004334:	d106      	bne.n	10004344 <__wrap_vprintf+0x34>
10004336:	9b01      	ldr	r3, [sp, #4]
10004338:	429f      	cmp	r7, r3
1000433a:	d003      	beq.n	10004344 <__wrap_vprintf+0x34>
1000433c:	4640      	mov	r0, r8
1000433e:	f000 fd6f 	bl	10004e20 <__mutex_enter_blocking_veneer>
10004342:	3601      	adds	r6, #1
10004344:	2284      	movs	r2, #132	; 0x84
10004346:	2100      	movs	r1, #0
10004348:	a801      	add	r0, sp, #4
1000434a:	f7ff fe8d 	bl	10004068 <__wrap_memset>
1000434e:	002b      	movs	r3, r5
10004350:	0022      	movs	r2, r4
10004352:	4826      	ldr	r0, [pc, #152]	; (100043ec <__wrap_vprintf+0xdc>)
10004354:	a901      	add	r1, sp, #4
10004356:	f7fe fe95 	bl	10003084 <vfctprintf>
1000435a:	9b01      	ldr	r3, [sp, #4]
1000435c:	0007      	movs	r7, r0
1000435e:	2b00      	cmp	r3, #0
10004360:	d115      	bne.n	1000438e <__wrap_vprintf+0x7e>
10004362:	4b23      	ldr	r3, [pc, #140]	; (100043f0 <__wrap_vprintf+0xe0>)
10004364:	681c      	ldr	r4, [r3, #0]
10004366:	2c00      	cmp	r4, #0
10004368:	d006      	beq.n	10004378 <__wrap_vprintf+0x68>
1000436a:	6863      	ldr	r3, [r4, #4]
1000436c:	2b00      	cmp	r3, #0
1000436e:	d00c      	beq.n	1000438a <__wrap_vprintf+0x7a>
10004370:	4798      	blx	r3
10004372:	68e4      	ldr	r4, [r4, #12]
10004374:	2c00      	cmp	r4, #0
10004376:	d1f8      	bne.n	1000436a <__wrap_vprintf+0x5a>
10004378:	2e00      	cmp	r6, #0
1000437a:	d12f      	bne.n	100043dc <__wrap_vprintf+0xcc>
1000437c:	0038      	movs	r0, r7
1000437e:	b022      	add	sp, #136	; 0x88
10004380:	bc1c      	pop	{r2, r3, r4}
10004382:	4690      	mov	r8, r2
10004384:	4699      	mov	r9, r3
10004386:	46a2      	mov	sl, r4
10004388:	bdf0      	pop	{r4, r5, r6, r7, pc}
1000438a:	68e4      	ldr	r4, [r4, #12]
1000438c:	e7eb      	b.n	10004366 <__wrap_vprintf+0x56>
1000438e:	4b18      	ldr	r3, [pc, #96]	; (100043f0 <__wrap_vprintf+0xe0>)
10004390:	681d      	ldr	r5, [r3, #0]
10004392:	469a      	mov	sl, r3
10004394:	2d00      	cmp	r5, #0
10004396:	d025      	beq.n	100043e4 <__wrap_vprintf+0xd4>
10004398:	4b16      	ldr	r3, [pc, #88]	; (100043f4 <__wrap_vprintf+0xe4>)
1000439a:	4699      	mov	r9, r3
1000439c:	e002      	b.n	100043a4 <__wrap_vprintf+0x94>
1000439e:	68ed      	ldr	r5, [r5, #12]
100043a0:	2d00      	cmp	r5, #0
100043a2:	d013      	beq.n	100043cc <__wrap_vprintf+0xbc>
100043a4:	682c      	ldr	r4, [r5, #0]
100043a6:	2c00      	cmp	r4, #0
100043a8:	d0f9      	beq.n	1000439e <__wrap_vprintf+0x8e>
100043aa:	464b      	mov	r3, r9
100043ac:	681b      	ldr	r3, [r3, #0]
100043ae:	2b00      	cmp	r3, #0
100043b0:	d001      	beq.n	100043b6 <__wrap_vprintf+0xa6>
100043b2:	429d      	cmp	r5, r3
100043b4:	d1f3      	bne.n	1000439e <__wrap_vprintf+0x8e>
100043b6:	7c6b      	ldrb	r3, [r5, #17]
100043b8:	9a01      	ldr	r2, [sp, #4]
100043ba:	2b00      	cmp	r3, #0
100043bc:	d00a      	beq.n	100043d4 <__wrap_vprintf+0xc4>
100043be:	0028      	movs	r0, r5
100043c0:	a902      	add	r1, sp, #8
100043c2:	f7ff fe5d 	bl	10004080 <stdio_out_chars_crlf.part.0>
100043c6:	68ed      	ldr	r5, [r5, #12]
100043c8:	2d00      	cmp	r5, #0
100043ca:	d1eb      	bne.n	100043a4 <__wrap_vprintf+0x94>
100043cc:	4653      	mov	r3, sl
100043ce:	9501      	str	r5, [sp, #4]
100043d0:	681c      	ldr	r4, [r3, #0]
100043d2:	e7c8      	b.n	10004366 <__wrap_vprintf+0x56>
100043d4:	0011      	movs	r1, r2
100043d6:	a802      	add	r0, sp, #8
100043d8:	47a0      	blx	r4
100043da:	e7e0      	b.n	1000439e <__wrap_vprintf+0x8e>
100043dc:	4640      	mov	r0, r8
100043de:	f000 fcff 	bl	10004de0 <__mutex_exit_veneer>
100043e2:	e7cb      	b.n	1000437c <__wrap_vprintf+0x6c>
100043e4:	9501      	str	r5, [sp, #4]
100043e6:	e7c7      	b.n	10004378 <__wrap_vprintf+0x68>
100043e8:	20000a50 	.word	0x20000a50
100043ec:	10004105 	.word	0x10004105
100043f0:	20000af8 	.word	0x20000af8
100043f4:	20000afc 	.word	0x20000afc

100043f8 <__wrap_printf>:
100043f8:	b40f      	push	{r0, r1, r2, r3}
100043fa:	b500      	push	{lr}
100043fc:	b083      	sub	sp, #12
100043fe:	a904      	add	r1, sp, #16
10004400:	c901      	ldmia	r1!, {r0}
10004402:	9101      	str	r1, [sp, #4]
10004404:	f7ff ff84 	bl	10004310 <__wrap_vprintf>
10004408:	b003      	add	sp, #12
1000440a:	bc08      	pop	{r3}
1000440c:	b004      	add	sp, #16
1000440e:	4718      	bx	r3

10004410 <stdio_init_all>:
10004410:	b510      	push	{r4, lr}
10004412:	f000 f83b 	bl	1000448c <stdio_uart_init>
10004416:	bd10      	pop	{r4, pc}

10004418 <stdio_uart_out_chars>:
10004418:	b5f0      	push	{r4, r5, r6, r7, lr}
1000441a:	2900      	cmp	r1, #0
1000441c:	d010      	beq.n	10004440 <stdio_uart_out_chars+0x28>
1000441e:	1845      	adds	r5, r0, r1
10004420:	270d      	movs	r7, #13
10004422:	2120      	movs	r1, #32
10004424:	4b09      	ldr	r3, [pc, #36]	; (1000444c <stdio_uart_out_chars+0x34>)
10004426:	4a0a      	ldr	r2, [pc, #40]	; (10004450 <stdio_uart_out_chars+0x38>)
10004428:	2600      	movs	r6, #0
1000442a:	5f9e      	ldrsh	r6, [r3, r6]
1000442c:	7804      	ldrb	r4, [r0, #0]
1000442e:	42a6      	cmp	r6, r4
10004430:	d007      	beq.n	10004442 <stdio_uart_out_chars+0x2a>
10004432:	6993      	ldr	r3, [r2, #24]
10004434:	4219      	tst	r1, r3
10004436:	d1fc      	bne.n	10004432 <stdio_uart_out_chars+0x1a>
10004438:	3001      	adds	r0, #1
1000443a:	6014      	str	r4, [r2, #0]
1000443c:	42a8      	cmp	r0, r5
1000443e:	d1f5      	bne.n	1000442c <stdio_uart_out_chars+0x14>
10004440:	bdf0      	pop	{r4, r5, r6, r7, pc}
10004442:	6993      	ldr	r3, [r2, #24]
10004444:	4219      	tst	r1, r3
10004446:	d1fc      	bne.n	10004442 <stdio_uart_out_chars+0x2a>
10004448:	6017      	str	r7, [r2, #0]
1000444a:	e7f2      	b.n	10004432 <stdio_uart_out_chars+0x1a>
1000444c:	20000b2c 	.word	0x20000b2c
10004450:	40034000 	.word	0x40034000

10004454 <stdio_uart_in_chars>:
10004454:	b530      	push	{r4, r5, lr}
10004456:	0005      	movs	r5, r0
10004458:	2000      	movs	r0, #0
1000445a:	2900      	cmp	r1, #0
1000445c:	dd10      	ble.n	10004480 <stdio_uart_in_chars+0x2c>
1000445e:	2410      	movs	r4, #16
10004460:	4a09      	ldr	r2, [pc, #36]	; (10004488 <stdio_uart_in_chars+0x34>)
10004462:	3d01      	subs	r5, #1
10004464:	6993      	ldr	r3, [r2, #24]
10004466:	421c      	tst	r4, r3
10004468:	d108      	bne.n	1000447c <stdio_uart_in_chars+0x28>
1000446a:	3001      	adds	r0, #1
1000446c:	6993      	ldr	r3, [r2, #24]
1000446e:	421c      	tst	r4, r3
10004470:	d1fc      	bne.n	1000446c <stdio_uart_in_chars+0x18>
10004472:	6813      	ldr	r3, [r2, #0]
10004474:	542b      	strb	r3, [r5, r0]
10004476:	4281      	cmp	r1, r0
10004478:	d1f4      	bne.n	10004464 <stdio_uart_in_chars+0x10>
1000447a:	bd30      	pop	{r4, r5, pc}
1000447c:	2800      	cmp	r0, #0
1000447e:	d1fc      	bne.n	1000447a <stdio_uart_in_chars+0x26>
10004480:	2003      	movs	r0, #3
10004482:	4240      	negs	r0, r0
10004484:	e7f9      	b.n	1000447a <stdio_uart_in_chars+0x26>
10004486:	46c0      	nop			; (mov r8, r8)
10004488:	40034000 	.word	0x40034000

1000448c <stdio_uart_init>:
1000448c:	21e1      	movs	r1, #225	; 0xe1
1000448e:	b510      	push	{r4, lr}
10004490:	4b0a      	ldr	r3, [pc, #40]	; (100044bc <stdio_uart_init+0x30>)
10004492:	0249      	lsls	r1, r1, #9
10004494:	781b      	ldrb	r3, [r3, #0]
10004496:	4b0a      	ldr	r3, [pc, #40]	; (100044c0 <stdio_uart_init+0x34>)
10004498:	480a      	ldr	r0, [pc, #40]	; (100044c4 <stdio_uart_init+0x38>)
1000449a:	781b      	ldrb	r3, [r3, #0]
1000449c:	f7fc f852 	bl	10000544 <uart_init>
100044a0:	2102      	movs	r1, #2
100044a2:	2000      	movs	r0, #0
100044a4:	f7fb ffe4 	bl	10000470 <gpio_set_function>
100044a8:	2102      	movs	r1, #2
100044aa:	2001      	movs	r0, #1
100044ac:	f7fb ffe0 	bl	10000470 <gpio_set_function>
100044b0:	2101      	movs	r1, #1
100044b2:	4805      	ldr	r0, [pc, #20]	; (100044c8 <stdio_uart_init+0x3c>)
100044b4:	f7ff ff0e 	bl	100042d4 <stdio_set_driver_enabled>
100044b8:	bd10      	pop	{r4, pc}
100044ba:	46c0      	nop			; (mov r8, r8)
100044bc:	10005248 	.word	0x10005248
100044c0:	1000524c 	.word	0x1000524c
100044c4:	40034000 	.word	0x40034000
100044c8:	20000200 	.word	0x20000200

100044cc <calloc>:
100044cc:	0003      	movs	r3, r0
100044ce:	b510      	push	{r4, lr}
100044d0:	000a      	movs	r2, r1
100044d2:	4903      	ldr	r1, [pc, #12]	; (100044e0 <calloc+0x14>)
100044d4:	6808      	ldr	r0, [r1, #0]
100044d6:	0019      	movs	r1, r3
100044d8:	f000 f804 	bl	100044e4 <_calloc_r>
100044dc:	bd10      	pop	{r4, pc}
100044de:	46c0      	nop			; (mov r8, r8)
100044e0:	20000214 	.word	0x20000214

100044e4 <_calloc_r>:
100044e4:	b510      	push	{r4, lr}
100044e6:	4351      	muls	r1, r2
100044e8:	f000 f834 	bl	10004554 <_malloc_r>
100044ec:	1e04      	subs	r4, r0, #0
100044ee:	d00e      	beq.n	1000450e <_calloc_r+0x2a>
100044f0:	0003      	movs	r3, r0
100044f2:	3b08      	subs	r3, #8
100044f4:	685a      	ldr	r2, [r3, #4]
100044f6:	2303      	movs	r3, #3
100044f8:	439a      	bics	r2, r3
100044fa:	3a04      	subs	r2, #4
100044fc:	2a24      	cmp	r2, #36	; 0x24
100044fe:	d815      	bhi.n	1000452c <_calloc_r+0x48>
10004500:	0003      	movs	r3, r0
10004502:	2a13      	cmp	r2, #19
10004504:	d805      	bhi.n	10004512 <_calloc_r+0x2e>
10004506:	2200      	movs	r2, #0
10004508:	601a      	str	r2, [r3, #0]
1000450a:	605a      	str	r2, [r3, #4]
1000450c:	609a      	str	r2, [r3, #8]
1000450e:	0020      	movs	r0, r4
10004510:	bd10      	pop	{r4, pc}
10004512:	2100      	movs	r1, #0
10004514:	3308      	adds	r3, #8
10004516:	6001      	str	r1, [r0, #0]
10004518:	6041      	str	r1, [r0, #4]
1000451a:	2a1b      	cmp	r2, #27
1000451c:	d9f3      	bls.n	10004506 <_calloc_r+0x22>
1000451e:	6081      	str	r1, [r0, #8]
10004520:	60c1      	str	r1, [r0, #12]
10004522:	2a24      	cmp	r2, #36	; 0x24
10004524:	d006      	beq.n	10004534 <_calloc_r+0x50>
10004526:	0003      	movs	r3, r0
10004528:	3310      	adds	r3, #16
1000452a:	e7ec      	b.n	10004506 <_calloc_r+0x22>
1000452c:	2100      	movs	r1, #0
1000452e:	f7ff fd9b 	bl	10004068 <__wrap_memset>
10004532:	e7ec      	b.n	1000450e <_calloc_r+0x2a>
10004534:	0003      	movs	r3, r0
10004536:	6101      	str	r1, [r0, #16]
10004538:	3318      	adds	r3, #24
1000453a:	6141      	str	r1, [r0, #20]
1000453c:	e7e3      	b.n	10004506 <_calloc_r+0x22>
1000453e:	46c0      	nop			; (mov r8, r8)

10004540 <malloc>:
10004540:	b510      	push	{r4, lr}
10004542:	4b03      	ldr	r3, [pc, #12]	; (10004550 <malloc+0x10>)
10004544:	0001      	movs	r1, r0
10004546:	6818      	ldr	r0, [r3, #0]
10004548:	f000 f804 	bl	10004554 <_malloc_r>
1000454c:	bd10      	pop	{r4, pc}
1000454e:	46c0      	nop			; (mov r8, r8)
10004550:	20000214 	.word	0x20000214

10004554 <_malloc_r>:
10004554:	b5f0      	push	{r4, r5, r6, r7, lr}
10004556:	464e      	mov	r6, r9
10004558:	4645      	mov	r5, r8
1000455a:	46de      	mov	lr, fp
1000455c:	4657      	mov	r7, sl
1000455e:	b5e0      	push	{r5, r6, r7, lr}
10004560:	000d      	movs	r5, r1
10004562:	350b      	adds	r5, #11
10004564:	0006      	movs	r6, r0
10004566:	b083      	sub	sp, #12
10004568:	2d16      	cmp	r5, #22
1000456a:	d822      	bhi.n	100045b2 <_malloc_r+0x5e>
1000456c:	2910      	cmp	r1, #16
1000456e:	d900      	bls.n	10004572 <_malloc_r+0x1e>
10004570:	e0b2      	b.n	100046d8 <_malloc_r+0x184>
10004572:	f000 faaf 	bl	10004ad4 <__malloc_lock>
10004576:	2510      	movs	r5, #16
10004578:	2002      	movs	r0, #2
1000457a:	2318      	movs	r3, #24
1000457c:	4fcb      	ldr	r7, [pc, #812]	; (100048ac <_malloc_r+0x358>)
1000457e:	18fb      	adds	r3, r7, r3
10004580:	001a      	movs	r2, r3
10004582:	685c      	ldr	r4, [r3, #4]
10004584:	3a08      	subs	r2, #8
10004586:	4294      	cmp	r4, r2
10004588:	d100      	bne.n	1000458c <_malloc_r+0x38>
1000458a:	e0b5      	b.n	100046f8 <_malloc_r+0x1a4>
1000458c:	2303      	movs	r3, #3
1000458e:	6862      	ldr	r2, [r4, #4]
10004590:	439a      	bics	r2, r3
10004592:	0013      	movs	r3, r2
10004594:	68e2      	ldr	r2, [r4, #12]
10004596:	68a1      	ldr	r1, [r4, #8]
10004598:	60ca      	str	r2, [r1, #12]
1000459a:	6091      	str	r1, [r2, #8]
1000459c:	2201      	movs	r2, #1
1000459e:	18e3      	adds	r3, r4, r3
100045a0:	6859      	ldr	r1, [r3, #4]
100045a2:	0030      	movs	r0, r6
100045a4:	430a      	orrs	r2, r1
100045a6:	605a      	str	r2, [r3, #4]
100045a8:	f000 fa9c 	bl	10004ae4 <__malloc_unlock>
100045ac:	0020      	movs	r0, r4
100045ae:	3008      	adds	r0, #8
100045b0:	e095      	b.n	100046de <_malloc_r+0x18a>
100045b2:	2307      	movs	r3, #7
100045b4:	439d      	bics	r5, r3
100045b6:	d500      	bpl.n	100045ba <_malloc_r+0x66>
100045b8:	e08e      	b.n	100046d8 <_malloc_r+0x184>
100045ba:	42a9      	cmp	r1, r5
100045bc:	d900      	bls.n	100045c0 <_malloc_r+0x6c>
100045be:	e08b      	b.n	100046d8 <_malloc_r+0x184>
100045c0:	f000 fa88 	bl	10004ad4 <__malloc_lock>
100045c4:	23fc      	movs	r3, #252	; 0xfc
100045c6:	005b      	lsls	r3, r3, #1
100045c8:	429d      	cmp	r5, r3
100045ca:	d200      	bcs.n	100045ce <_malloc_r+0x7a>
100045cc:	e1a5      	b.n	1000491a <_malloc_r+0x3c6>
100045ce:	0a68      	lsrs	r0, r5, #9
100045d0:	d100      	bne.n	100045d4 <_malloc_r+0x80>
100045d2:	e08b      	b.n	100046ec <_malloc_r+0x198>
100045d4:	2804      	cmp	r0, #4
100045d6:	d900      	bls.n	100045da <_malloc_r+0x86>
100045d8:	e178      	b.n	100048cc <_malloc_r+0x378>
100045da:	2338      	movs	r3, #56	; 0x38
100045dc:	4698      	mov	r8, r3
100045de:	09a8      	lsrs	r0, r5, #6
100045e0:	4480      	add	r8, r0
100045e2:	3039      	adds	r0, #57	; 0x39
100045e4:	00c1      	lsls	r1, r0, #3
100045e6:	4fb1      	ldr	r7, [pc, #708]	; (100048ac <_malloc_r+0x358>)
100045e8:	1879      	adds	r1, r7, r1
100045ea:	684c      	ldr	r4, [r1, #4]
100045ec:	3908      	subs	r1, #8
100045ee:	42a1      	cmp	r1, r4
100045f0:	d00e      	beq.n	10004610 <_malloc_r+0xbc>
100045f2:	2303      	movs	r3, #3
100045f4:	469c      	mov	ip, r3
100045f6:	e004      	b.n	10004602 <_malloc_r+0xae>
100045f8:	2a00      	cmp	r2, #0
100045fa:	dacb      	bge.n	10004594 <_malloc_r+0x40>
100045fc:	68e4      	ldr	r4, [r4, #12]
100045fe:	42a1      	cmp	r1, r4
10004600:	d006      	beq.n	10004610 <_malloc_r+0xbc>
10004602:	4662      	mov	r2, ip
10004604:	6863      	ldr	r3, [r4, #4]
10004606:	4393      	bics	r3, r2
10004608:	1b5a      	subs	r2, r3, r5
1000460a:	2a0f      	cmp	r2, #15
1000460c:	ddf4      	ble.n	100045f8 <_malloc_r+0xa4>
1000460e:	4640      	mov	r0, r8
10004610:	003a      	movs	r2, r7
10004612:	693c      	ldr	r4, [r7, #16]
10004614:	3208      	adds	r2, #8
10004616:	4294      	cmp	r4, r2
10004618:	d100      	bne.n	1000461c <_malloc_r+0xc8>
1000461a:	e078      	b.n	1000470e <_malloc_r+0x1ba>
1000461c:	2303      	movs	r3, #3
1000461e:	6861      	ldr	r1, [r4, #4]
10004620:	4399      	bics	r1, r3
10004622:	4689      	mov	r9, r1
10004624:	000b      	movs	r3, r1
10004626:	1b49      	subs	r1, r1, r5
10004628:	290f      	cmp	r1, #15
1000462a:	dd00      	ble.n	1000462e <_malloc_r+0xda>
1000462c:	e179      	b.n	10004922 <_malloc_r+0x3ce>
1000462e:	617a      	str	r2, [r7, #20]
10004630:	613a      	str	r2, [r7, #16]
10004632:	2900      	cmp	r1, #0
10004634:	dab2      	bge.n	1000459c <_malloc_r+0x48>
10004636:	2280      	movs	r2, #128	; 0x80
10004638:	0092      	lsls	r2, r2, #2
1000463a:	4591      	cmp	r9, r2
1000463c:	d300      	bcc.n	10004640 <_malloc_r+0xec>
1000463e:	e10e      	b.n	1000485e <_malloc_r+0x30a>
10004640:	0959      	lsrs	r1, r3, #5
10004642:	08da      	lsrs	r2, r3, #3
10004644:	2301      	movs	r3, #1
10004646:	408b      	lsls	r3, r1
10004648:	00d2      	lsls	r2, r2, #3
1000464a:	6879      	ldr	r1, [r7, #4]
1000464c:	19d2      	adds	r2, r2, r7
1000464e:	430b      	orrs	r3, r1
10004650:	6891      	ldr	r1, [r2, #8]
10004652:	607b      	str	r3, [r7, #4]
10004654:	60e2      	str	r2, [r4, #12]
10004656:	60a1      	str	r1, [r4, #8]
10004658:	6094      	str	r4, [r2, #8]
1000465a:	60cc      	str	r4, [r1, #12]
1000465c:	2101      	movs	r1, #1
1000465e:	1082      	asrs	r2, r0, #2
10004660:	4091      	lsls	r1, r2
10004662:	4299      	cmp	r1, r3
10004664:	d859      	bhi.n	1000471a <_malloc_r+0x1c6>
10004666:	420b      	tst	r3, r1
10004668:	d105      	bne.n	10004676 <_malloc_r+0x122>
1000466a:	2203      	movs	r2, #3
1000466c:	4390      	bics	r0, r2
1000466e:	0049      	lsls	r1, r1, #1
10004670:	3004      	adds	r0, #4
10004672:	420b      	tst	r3, r1
10004674:	d0fb      	beq.n	1000466e <_malloc_r+0x11a>
10004676:	2303      	movs	r3, #3
10004678:	4698      	mov	r8, r3
1000467a:	00c3      	lsls	r3, r0, #3
1000467c:	4699      	mov	r9, r3
1000467e:	44b9      	add	r9, r7
10004680:	46cc      	mov	ip, r9
10004682:	4682      	mov	sl, r0
10004684:	4663      	mov	r3, ip
10004686:	68dc      	ldr	r4, [r3, #12]
10004688:	45a4      	cmp	ip, r4
1000468a:	d107      	bne.n	1000469c <_malloc_r+0x148>
1000468c:	e12a      	b.n	100048e4 <_malloc_r+0x390>
1000468e:	2a00      	cmp	r2, #0
10004690:	db00      	blt.n	10004694 <_malloc_r+0x140>
10004692:	e133      	b.n	100048fc <_malloc_r+0x3a8>
10004694:	68e4      	ldr	r4, [r4, #12]
10004696:	45a4      	cmp	ip, r4
10004698:	d100      	bne.n	1000469c <_malloc_r+0x148>
1000469a:	e123      	b.n	100048e4 <_malloc_r+0x390>
1000469c:	4642      	mov	r2, r8
1000469e:	6863      	ldr	r3, [r4, #4]
100046a0:	4393      	bics	r3, r2
100046a2:	1b5a      	subs	r2, r3, r5
100046a4:	2a0f      	cmp	r2, #15
100046a6:	ddf2      	ble.n	1000468e <_malloc_r+0x13a>
100046a8:	2001      	movs	r0, #1
100046aa:	4680      	mov	r8, r0
100046ac:	1961      	adds	r1, r4, r5
100046ae:	4305      	orrs	r5, r0
100046b0:	6065      	str	r5, [r4, #4]
100046b2:	68a0      	ldr	r0, [r4, #8]
100046b4:	68e5      	ldr	r5, [r4, #12]
100046b6:	3708      	adds	r7, #8
100046b8:	60c5      	str	r5, [r0, #12]
100046ba:	60a8      	str	r0, [r5, #8]
100046bc:	4640      	mov	r0, r8
100046be:	4310      	orrs	r0, r2
100046c0:	60f9      	str	r1, [r7, #12]
100046c2:	60b9      	str	r1, [r7, #8]
100046c4:	6048      	str	r0, [r1, #4]
100046c6:	60cf      	str	r7, [r1, #12]
100046c8:	0030      	movs	r0, r6
100046ca:	608f      	str	r7, [r1, #8]
100046cc:	50e2      	str	r2, [r4, r3]
100046ce:	f000 fa09 	bl	10004ae4 <__malloc_unlock>
100046d2:	0020      	movs	r0, r4
100046d4:	3008      	adds	r0, #8
100046d6:	e002      	b.n	100046de <_malloc_r+0x18a>
100046d8:	230c      	movs	r3, #12
100046da:	2000      	movs	r0, #0
100046dc:	6033      	str	r3, [r6, #0]
100046de:	b003      	add	sp, #12
100046e0:	bc3c      	pop	{r2, r3, r4, r5}
100046e2:	4690      	mov	r8, r2
100046e4:	4699      	mov	r9, r3
100046e6:	46a2      	mov	sl, r4
100046e8:	46ab      	mov	fp, r5
100046ea:	bdf0      	pop	{r4, r5, r6, r7, pc}
100046ec:	2180      	movs	r1, #128	; 0x80
100046ee:	233f      	movs	r3, #63	; 0x3f
100046f0:	2040      	movs	r0, #64	; 0x40
100046f2:	4698      	mov	r8, r3
100046f4:	0089      	lsls	r1, r1, #2
100046f6:	e776      	b.n	100045e6 <_malloc_r+0x92>
100046f8:	68dc      	ldr	r4, [r3, #12]
100046fa:	3002      	adds	r0, #2
100046fc:	42a3      	cmp	r3, r4
100046fe:	d000      	beq.n	10004702 <_malloc_r+0x1ae>
10004700:	e744      	b.n	1000458c <_malloc_r+0x38>
10004702:	003a      	movs	r2, r7
10004704:	693c      	ldr	r4, [r7, #16]
10004706:	3208      	adds	r2, #8
10004708:	4294      	cmp	r4, r2
1000470a:	d000      	beq.n	1000470e <_malloc_r+0x1ba>
1000470c:	e786      	b.n	1000461c <_malloc_r+0xc8>
1000470e:	2101      	movs	r1, #1
10004710:	687b      	ldr	r3, [r7, #4]
10004712:	1082      	asrs	r2, r0, #2
10004714:	4091      	lsls	r1, r2
10004716:	4299      	cmp	r1, r3
10004718:	d9a5      	bls.n	10004666 <_malloc_r+0x112>
1000471a:	2303      	movs	r3, #3
1000471c:	68bc      	ldr	r4, [r7, #8]
1000471e:	6862      	ldr	r2, [r4, #4]
10004720:	439a      	bics	r2, r3
10004722:	4691      	mov	r9, r2
10004724:	4295      	cmp	r5, r2
10004726:	d803      	bhi.n	10004730 <_malloc_r+0x1dc>
10004728:	1b53      	subs	r3, r2, r5
1000472a:	2b0f      	cmp	r3, #15
1000472c:	dd00      	ble.n	10004730 <_malloc_r+0x1dc>
1000472e:	e088      	b.n	10004842 <_malloc_r+0x2ee>
10004730:	0023      	movs	r3, r4
10004732:	444b      	add	r3, r9
10004734:	4a5e      	ldr	r2, [pc, #376]	; (100048b0 <_malloc_r+0x35c>)
10004736:	9301      	str	r3, [sp, #4]
10004738:	4b5e      	ldr	r3, [pc, #376]	; (100048b4 <_malloc_r+0x360>)
1000473a:	4693      	mov	fp, r2
1000473c:	681b      	ldr	r3, [r3, #0]
1000473e:	6812      	ldr	r2, [r2, #0]
10004740:	18eb      	adds	r3, r5, r3
10004742:	3201      	adds	r2, #1
10004744:	d100      	bne.n	10004748 <_malloc_r+0x1f4>
10004746:	e13b      	b.n	100049c0 <_malloc_r+0x46c>
10004748:	4a5b      	ldr	r2, [pc, #364]	; (100048b8 <_malloc_r+0x364>)
1000474a:	4694      	mov	ip, r2
1000474c:	4463      	add	r3, ip
1000474e:	0b1b      	lsrs	r3, r3, #12
10004750:	031b      	lsls	r3, r3, #12
10004752:	9300      	str	r3, [sp, #0]
10004754:	0030      	movs	r0, r6
10004756:	9900      	ldr	r1, [sp, #0]
10004758:	f000 f9cc 	bl	10004af4 <_sbrk_r>
1000475c:	0003      	movs	r3, r0
1000475e:	4680      	mov	r8, r0
10004760:	3301      	adds	r3, #1
10004762:	d100      	bne.n	10004766 <_malloc_r+0x212>
10004764:	e0f8      	b.n	10004958 <_malloc_r+0x404>
10004766:	9b01      	ldr	r3, [sp, #4]
10004768:	4283      	cmp	r3, r0
1000476a:	d900      	bls.n	1000476e <_malloc_r+0x21a>
1000476c:	e0f2      	b.n	10004954 <_malloc_r+0x400>
1000476e:	4b53      	ldr	r3, [pc, #332]	; (100048bc <_malloc_r+0x368>)
10004770:	0019      	movs	r1, r3
10004772:	469a      	mov	sl, r3
10004774:	6809      	ldr	r1, [r1, #0]
10004776:	9b00      	ldr	r3, [sp, #0]
10004778:	468c      	mov	ip, r1
1000477a:	4651      	mov	r1, sl
1000477c:	4463      	add	r3, ip
1000477e:	600b      	str	r3, [r1, #0]
10004780:	9901      	ldr	r1, [sp, #4]
10004782:	001a      	movs	r2, r3
10004784:	4281      	cmp	r1, r0
10004786:	d100      	bne.n	1000478a <_malloc_r+0x236>
10004788:	e150      	b.n	10004a2c <_malloc_r+0x4d8>
1000478a:	465b      	mov	r3, fp
1000478c:	681b      	ldr	r3, [r3, #0]
1000478e:	3301      	adds	r3, #1
10004790:	d100      	bne.n	10004794 <_malloc_r+0x240>
10004792:	e155      	b.n	10004a40 <_malloc_r+0x4ec>
10004794:	4643      	mov	r3, r8
10004796:	9901      	ldr	r1, [sp, #4]
10004798:	1a5b      	subs	r3, r3, r1
1000479a:	189a      	adds	r2, r3, r2
1000479c:	4653      	mov	r3, sl
1000479e:	601a      	str	r2, [r3, #0]
100047a0:	2307      	movs	r3, #7
100047a2:	4642      	mov	r2, r8
100047a4:	4641      	mov	r1, r8
100047a6:	401a      	ands	r2, r3
100047a8:	9201      	str	r2, [sp, #4]
100047aa:	4219      	tst	r1, r3
100047ac:	d100      	bne.n	100047b0 <_malloc_r+0x25c>
100047ae:	e111      	b.n	100049d4 <_malloc_r+0x480>
100047b0:	2308      	movs	r3, #8
100047b2:	4698      	mov	r8, r3
100047b4:	1a88      	subs	r0, r1, r2
100047b6:	4b42      	ldr	r3, [pc, #264]	; (100048c0 <_malloc_r+0x36c>)
100047b8:	9900      	ldr	r1, [sp, #0]
100047ba:	4480      	add	r8, r0
100047bc:	4441      	add	r1, r8
100047be:	1a9b      	subs	r3, r3, r2
100047c0:	1a5b      	subs	r3, r3, r1
100047c2:	051b      	lsls	r3, r3, #20
100047c4:	0d1b      	lsrs	r3, r3, #20
100047c6:	9100      	str	r1, [sp, #0]
100047c8:	0030      	movs	r0, r6
100047ca:	0019      	movs	r1, r3
100047cc:	469b      	mov	fp, r3
100047ce:	f000 f991 	bl	10004af4 <_sbrk_r>
100047d2:	1c43      	adds	r3, r0, #1
100047d4:	d100      	bne.n	100047d8 <_malloc_r+0x284>
100047d6:	e14f      	b.n	10004a78 <_malloc_r+0x524>
100047d8:	4643      	mov	r3, r8
100047da:	1ac0      	subs	r0, r0, r3
100047dc:	0003      	movs	r3, r0
100047de:	445b      	add	r3, fp
100047e0:	9300      	str	r3, [sp, #0]
100047e2:	4653      	mov	r3, sl
100047e4:	4652      	mov	r2, sl
100047e6:	681b      	ldr	r3, [r3, #0]
100047e8:	2101      	movs	r1, #1
100047ea:	445b      	add	r3, fp
100047ec:	6013      	str	r3, [r2, #0]
100047ee:	4642      	mov	r2, r8
100047f0:	4640      	mov	r0, r8
100047f2:	60ba      	str	r2, [r7, #8]
100047f4:	9a00      	ldr	r2, [sp, #0]
100047f6:	430a      	orrs	r2, r1
100047f8:	6042      	str	r2, [r0, #4]
100047fa:	42bc      	cmp	r4, r7
100047fc:	d100      	bne.n	10004800 <_malloc_r+0x2ac>
100047fe:	e123      	b.n	10004a48 <_malloc_r+0x4f4>
10004800:	464a      	mov	r2, r9
10004802:	2a0f      	cmp	r2, #15
10004804:	d800      	bhi.n	10004808 <_malloc_r+0x2b4>
10004806:	e121      	b.n	10004a4c <_malloc_r+0x4f8>
10004808:	2007      	movs	r0, #7
1000480a:	3a0c      	subs	r2, #12
1000480c:	4382      	bics	r2, r0
1000480e:	6860      	ldr	r0, [r4, #4]
10004810:	4001      	ands	r1, r0
10004812:	2005      	movs	r0, #5
10004814:	4311      	orrs	r1, r2
10004816:	6061      	str	r1, [r4, #4]
10004818:	18a1      	adds	r1, r4, r2
1000481a:	6048      	str	r0, [r1, #4]
1000481c:	6088      	str	r0, [r1, #8]
1000481e:	2a0f      	cmp	r2, #15
10004820:	d900      	bls.n	10004824 <_malloc_r+0x2d0>
10004822:	e134      	b.n	10004a8e <_malloc_r+0x53a>
10004824:	4642      	mov	r2, r8
10004826:	4644      	mov	r4, r8
10004828:	6852      	ldr	r2, [r2, #4]
1000482a:	4926      	ldr	r1, [pc, #152]	; (100048c4 <_malloc_r+0x370>)
1000482c:	6808      	ldr	r0, [r1, #0]
1000482e:	4298      	cmp	r0, r3
10004830:	d200      	bcs.n	10004834 <_malloc_r+0x2e0>
10004832:	600b      	str	r3, [r1, #0]
10004834:	4924      	ldr	r1, [pc, #144]	; (100048c8 <_malloc_r+0x374>)
10004836:	6808      	ldr	r0, [r1, #0]
10004838:	4298      	cmp	r0, r3
1000483a:	d300      	bcc.n	1000483e <_malloc_r+0x2ea>
1000483c:	e08e      	b.n	1000495c <_malloc_r+0x408>
1000483e:	600b      	str	r3, [r1, #0]
10004840:	e08c      	b.n	1000495c <_malloc_r+0x408>
10004842:	2201      	movs	r2, #1
10004844:	0029      	movs	r1, r5
10004846:	4313      	orrs	r3, r2
10004848:	4311      	orrs	r1, r2
1000484a:	1965      	adds	r5, r4, r5
1000484c:	6061      	str	r1, [r4, #4]
1000484e:	0030      	movs	r0, r6
10004850:	60bd      	str	r5, [r7, #8]
10004852:	606b      	str	r3, [r5, #4]
10004854:	f000 f946 	bl	10004ae4 <__malloc_unlock>
10004858:	0020      	movs	r0, r4
1000485a:	3008      	adds	r0, #8
1000485c:	e73f      	b.n	100046de <_malloc_r+0x18a>
1000485e:	0a5a      	lsrs	r2, r3, #9
10004860:	2a04      	cmp	r2, #4
10004862:	d971      	bls.n	10004948 <_malloc_r+0x3f4>
10004864:	2a14      	cmp	r2, #20
10004866:	d900      	bls.n	1000486a <_malloc_r+0x316>
10004868:	e0c4      	b.n	100049f4 <_malloc_r+0x4a0>
1000486a:	0011      	movs	r1, r2
1000486c:	325c      	adds	r2, #92	; 0x5c
1000486e:	315b      	adds	r1, #91	; 0x5b
10004870:	00d2      	lsls	r2, r2, #3
10004872:	2308      	movs	r3, #8
10004874:	425b      	negs	r3, r3
10004876:	469c      	mov	ip, r3
10004878:	18ba      	adds	r2, r7, r2
1000487a:	4494      	add	ip, r2
1000487c:	4663      	mov	r3, ip
1000487e:	689a      	ldr	r2, [r3, #8]
10004880:	2303      	movs	r3, #3
10004882:	4698      	mov	r8, r3
10004884:	4594      	cmp	ip, r2
10004886:	d100      	bne.n	1000488a <_malloc_r+0x336>
10004888:	e09d      	b.n	100049c6 <_malloc_r+0x472>
1000488a:	4643      	mov	r3, r8
1000488c:	6851      	ldr	r1, [r2, #4]
1000488e:	4399      	bics	r1, r3
10004890:	4549      	cmp	r1, r9
10004892:	d902      	bls.n	1000489a <_malloc_r+0x346>
10004894:	6892      	ldr	r2, [r2, #8]
10004896:	4594      	cmp	ip, r2
10004898:	d1f7      	bne.n	1000488a <_malloc_r+0x336>
1000489a:	68d3      	ldr	r3, [r2, #12]
1000489c:	469c      	mov	ip, r3
1000489e:	687b      	ldr	r3, [r7, #4]
100048a0:	4661      	mov	r1, ip
100048a2:	60a2      	str	r2, [r4, #8]
100048a4:	60e1      	str	r1, [r4, #12]
100048a6:	608c      	str	r4, [r1, #8]
100048a8:	60d4      	str	r4, [r2, #12]
100048aa:	e6d7      	b.n	1000465c <_malloc_r+0x108>
100048ac:	20000640 	.word	0x20000640
100048b0:	20000a48 	.word	0x20000a48
100048b4:	20000ab8 	.word	0x20000ab8
100048b8:	0000100f 	.word	0x0000100f
100048bc:	20000a88 	.word	0x20000a88
100048c0:	00001008 	.word	0x00001008
100048c4:	20000ab0 	.word	0x20000ab0
100048c8:	20000ab4 	.word	0x20000ab4
100048cc:	2814      	cmp	r0, #20
100048ce:	d952      	bls.n	10004976 <_malloc_r+0x422>
100048d0:	2854      	cmp	r0, #84	; 0x54
100048d2:	d900      	bls.n	100048d6 <_malloc_r+0x382>
100048d4:	e096      	b.n	10004a04 <_malloc_r+0x4b0>
100048d6:	236e      	movs	r3, #110	; 0x6e
100048d8:	4698      	mov	r8, r3
100048da:	0b28      	lsrs	r0, r5, #12
100048dc:	4480      	add	r8, r0
100048de:	306f      	adds	r0, #111	; 0x6f
100048e0:	00c1      	lsls	r1, r0, #3
100048e2:	e680      	b.n	100045e6 <_malloc_r+0x92>
100048e4:	2308      	movs	r3, #8
100048e6:	469b      	mov	fp, r3
100048e8:	3b07      	subs	r3, #7
100048ea:	44dc      	add	ip, fp
100048ec:	469b      	mov	fp, r3
100048ee:	44da      	add	sl, fp
100048f0:	4643      	mov	r3, r8
100048f2:	4652      	mov	r2, sl
100048f4:	4213      	tst	r3, r2
100048f6:	d000      	beq.n	100048fa <_malloc_r+0x3a6>
100048f8:	e6c4      	b.n	10004684 <_malloc_r+0x130>
100048fa:	e04c      	b.n	10004996 <_malloc_r+0x442>
100048fc:	2201      	movs	r2, #1
100048fe:	18e3      	adds	r3, r4, r3
10004900:	6859      	ldr	r1, [r3, #4]
10004902:	0030      	movs	r0, r6
10004904:	430a      	orrs	r2, r1
10004906:	605a      	str	r2, [r3, #4]
10004908:	68e3      	ldr	r3, [r4, #12]
1000490a:	68a2      	ldr	r2, [r4, #8]
1000490c:	60d3      	str	r3, [r2, #12]
1000490e:	609a      	str	r2, [r3, #8]
10004910:	f000 f8e8 	bl	10004ae4 <__malloc_unlock>
10004914:	0020      	movs	r0, r4
10004916:	3008      	adds	r0, #8
10004918:	e6e1      	b.n	100046de <_malloc_r+0x18a>
1000491a:	002b      	movs	r3, r5
1000491c:	08e8      	lsrs	r0, r5, #3
1000491e:	3308      	adds	r3, #8
10004920:	e62c      	b.n	1000457c <_malloc_r+0x28>
10004922:	2301      	movs	r3, #1
10004924:	1960      	adds	r0, r4, r5
10004926:	431d      	orrs	r5, r3
10004928:	6065      	str	r5, [r4, #4]
1000492a:	6178      	str	r0, [r7, #20]
1000492c:	6138      	str	r0, [r7, #16]
1000492e:	60c2      	str	r2, [r0, #12]
10004930:	6082      	str	r2, [r0, #8]
10004932:	001a      	movs	r2, r3
10004934:	464b      	mov	r3, r9
10004936:	430a      	orrs	r2, r1
10004938:	6042      	str	r2, [r0, #4]
1000493a:	0030      	movs	r0, r6
1000493c:	50e1      	str	r1, [r4, r3]
1000493e:	f000 f8d1 	bl	10004ae4 <__malloc_unlock>
10004942:	0020      	movs	r0, r4
10004944:	3008      	adds	r0, #8
10004946:	e6ca      	b.n	100046de <_malloc_r+0x18a>
10004948:	099a      	lsrs	r2, r3, #6
1000494a:	0011      	movs	r1, r2
1000494c:	3239      	adds	r2, #57	; 0x39
1000494e:	3138      	adds	r1, #56	; 0x38
10004950:	00d2      	lsls	r2, r2, #3
10004952:	e78e      	b.n	10004872 <_malloc_r+0x31e>
10004954:	42bc      	cmp	r4, r7
10004956:	d060      	beq.n	10004a1a <_malloc_r+0x4c6>
10004958:	68bc      	ldr	r4, [r7, #8]
1000495a:	6862      	ldr	r2, [r4, #4]
1000495c:	2303      	movs	r3, #3
1000495e:	439a      	bics	r2, r3
10004960:	1b53      	subs	r3, r2, r5
10004962:	4295      	cmp	r5, r2
10004964:	d802      	bhi.n	1000496c <_malloc_r+0x418>
10004966:	2b0f      	cmp	r3, #15
10004968:	dd00      	ble.n	1000496c <_malloc_r+0x418>
1000496a:	e76a      	b.n	10004842 <_malloc_r+0x2ee>
1000496c:	0030      	movs	r0, r6
1000496e:	f000 f8b9 	bl	10004ae4 <__malloc_unlock>
10004972:	2000      	movs	r0, #0
10004974:	e6b3      	b.n	100046de <_malloc_r+0x18a>
10004976:	235b      	movs	r3, #91	; 0x5b
10004978:	4698      	mov	r8, r3
1000497a:	4480      	add	r8, r0
1000497c:	305c      	adds	r0, #92	; 0x5c
1000497e:	00c1      	lsls	r1, r0, #3
10004980:	e631      	b.n	100045e6 <_malloc_r+0x92>
10004982:	2308      	movs	r3, #8
10004984:	425b      	negs	r3, r3
10004986:	469c      	mov	ip, r3
10004988:	44e1      	add	r9, ip
1000498a:	464b      	mov	r3, r9
1000498c:	689b      	ldr	r3, [r3, #8]
1000498e:	3801      	subs	r0, #1
10004990:	454b      	cmp	r3, r9
10004992:	d000      	beq.n	10004996 <_malloc_r+0x442>
10004994:	e098      	b.n	10004ac8 <_malloc_r+0x574>
10004996:	4643      	mov	r3, r8
10004998:	4203      	tst	r3, r0
1000499a:	d1f2      	bne.n	10004982 <_malloc_r+0x42e>
1000499c:	687b      	ldr	r3, [r7, #4]
1000499e:	438b      	bics	r3, r1
100049a0:	607b      	str	r3, [r7, #4]
100049a2:	0049      	lsls	r1, r1, #1
100049a4:	4299      	cmp	r1, r3
100049a6:	d900      	bls.n	100049aa <_malloc_r+0x456>
100049a8:	e6b7      	b.n	1000471a <_malloc_r+0x1c6>
100049aa:	2900      	cmp	r1, #0
100049ac:	d104      	bne.n	100049b8 <_malloc_r+0x464>
100049ae:	e6b4      	b.n	1000471a <_malloc_r+0x1c6>
100049b0:	2204      	movs	r2, #4
100049b2:	4694      	mov	ip, r2
100049b4:	0049      	lsls	r1, r1, #1
100049b6:	44e2      	add	sl, ip
100049b8:	420b      	tst	r3, r1
100049ba:	d0f9      	beq.n	100049b0 <_malloc_r+0x45c>
100049bc:	4650      	mov	r0, sl
100049be:	e65c      	b.n	1000467a <_malloc_r+0x126>
100049c0:	3310      	adds	r3, #16
100049c2:	9300      	str	r3, [sp, #0]
100049c4:	e6c6      	b.n	10004754 <_malloc_r+0x200>
100049c6:	1089      	asrs	r1, r1, #2
100049c8:	3b02      	subs	r3, #2
100049ca:	408b      	lsls	r3, r1
100049cc:	6879      	ldr	r1, [r7, #4]
100049ce:	430b      	orrs	r3, r1
100049d0:	607b      	str	r3, [r7, #4]
100049d2:	e765      	b.n	100048a0 <_malloc_r+0x34c>
100049d4:	9b00      	ldr	r3, [sp, #0]
100049d6:	0030      	movs	r0, r6
100049d8:	4443      	add	r3, r8
100049da:	425b      	negs	r3, r3
100049dc:	051b      	lsls	r3, r3, #20
100049de:	0d1b      	lsrs	r3, r3, #20
100049e0:	0019      	movs	r1, r3
100049e2:	469b      	mov	fp, r3
100049e4:	f000 f886 	bl	10004af4 <_sbrk_r>
100049e8:	1c43      	adds	r3, r0, #1
100049ea:	d000      	beq.n	100049ee <_malloc_r+0x49a>
100049ec:	e6f4      	b.n	100047d8 <_malloc_r+0x284>
100049ee:	2300      	movs	r3, #0
100049f0:	469b      	mov	fp, r3
100049f2:	e6f6      	b.n	100047e2 <_malloc_r+0x28e>
100049f4:	2a54      	cmp	r2, #84	; 0x54
100049f6:	d82b      	bhi.n	10004a50 <_malloc_r+0x4fc>
100049f8:	0b1a      	lsrs	r2, r3, #12
100049fa:	0011      	movs	r1, r2
100049fc:	326f      	adds	r2, #111	; 0x6f
100049fe:	316e      	adds	r1, #110	; 0x6e
10004a00:	00d2      	lsls	r2, r2, #3
10004a02:	e736      	b.n	10004872 <_malloc_r+0x31e>
10004a04:	23aa      	movs	r3, #170	; 0xaa
10004a06:	005b      	lsls	r3, r3, #1
10004a08:	4298      	cmp	r0, r3
10004a0a:	d82b      	bhi.n	10004a64 <_malloc_r+0x510>
10004a0c:	3bdd      	subs	r3, #221	; 0xdd
10004a0e:	4698      	mov	r8, r3
10004a10:	0be8      	lsrs	r0, r5, #15
10004a12:	4480      	add	r8, r0
10004a14:	3078      	adds	r0, #120	; 0x78
10004a16:	00c1      	lsls	r1, r0, #3
10004a18:	e5e5      	b.n	100045e6 <_malloc_r+0x92>
10004a1a:	4b2c      	ldr	r3, [pc, #176]	; (10004acc <_malloc_r+0x578>)
10004a1c:	9a00      	ldr	r2, [sp, #0]
10004a1e:	469a      	mov	sl, r3
10004a20:	681b      	ldr	r3, [r3, #0]
10004a22:	469c      	mov	ip, r3
10004a24:	4653      	mov	r3, sl
10004a26:	4462      	add	r2, ip
10004a28:	601a      	str	r2, [r3, #0]
10004a2a:	e6ae      	b.n	1000478a <_malloc_r+0x236>
10004a2c:	0509      	lsls	r1, r1, #20
10004a2e:	d000      	beq.n	10004a32 <_malloc_r+0x4de>
10004a30:	e6ab      	b.n	1000478a <_malloc_r+0x236>
10004a32:	9a00      	ldr	r2, [sp, #0]
10004a34:	68bc      	ldr	r4, [r7, #8]
10004a36:	444a      	add	r2, r9
10004a38:	3101      	adds	r1, #1
10004a3a:	430a      	orrs	r2, r1
10004a3c:	6062      	str	r2, [r4, #4]
10004a3e:	e6f4      	b.n	1000482a <_malloc_r+0x2d6>
10004a40:	465b      	mov	r3, fp
10004a42:	4642      	mov	r2, r8
10004a44:	601a      	str	r2, [r3, #0]
10004a46:	e6ab      	b.n	100047a0 <_malloc_r+0x24c>
10004a48:	4644      	mov	r4, r8
10004a4a:	e6ee      	b.n	1000482a <_malloc_r+0x2d6>
10004a4c:	6041      	str	r1, [r0, #4]
10004a4e:	e78d      	b.n	1000496c <_malloc_r+0x418>
10004a50:	21aa      	movs	r1, #170	; 0xaa
10004a52:	0049      	lsls	r1, r1, #1
10004a54:	428a      	cmp	r2, r1
10004a56:	d824      	bhi.n	10004aa2 <_malloc_r+0x54e>
10004a58:	0bda      	lsrs	r2, r3, #15
10004a5a:	0011      	movs	r1, r2
10004a5c:	3278      	adds	r2, #120	; 0x78
10004a5e:	3177      	adds	r1, #119	; 0x77
10004a60:	00d2      	lsls	r2, r2, #3
10004a62:	e706      	b.n	10004872 <_malloc_r+0x31e>
10004a64:	4b1a      	ldr	r3, [pc, #104]	; (10004ad0 <_malloc_r+0x57c>)
10004a66:	4298      	cmp	r0, r3
10004a68:	d824      	bhi.n	10004ab4 <_malloc_r+0x560>
10004a6a:	237c      	movs	r3, #124	; 0x7c
10004a6c:	4698      	mov	r8, r3
10004a6e:	0ca8      	lsrs	r0, r5, #18
10004a70:	4480      	add	r8, r0
10004a72:	307d      	adds	r0, #125	; 0x7d
10004a74:	00c1      	lsls	r1, r0, #3
10004a76:	e5b6      	b.n	100045e6 <_malloc_r+0x92>
10004a78:	9a00      	ldr	r2, [sp, #0]
10004a7a:	9b01      	ldr	r3, [sp, #4]
10004a7c:	4694      	mov	ip, r2
10004a7e:	4642      	mov	r2, r8
10004a80:	3b08      	subs	r3, #8
10004a82:	4463      	add	r3, ip
10004a84:	1a9b      	subs	r3, r3, r2
10004a86:	9300      	str	r3, [sp, #0]
10004a88:	2300      	movs	r3, #0
10004a8a:	469b      	mov	fp, r3
10004a8c:	e6a9      	b.n	100047e2 <_malloc_r+0x28e>
10004a8e:	0021      	movs	r1, r4
10004a90:	0030      	movs	r0, r6
10004a92:	3108      	adds	r1, #8
10004a94:	f000 f8bc 	bl	10004c10 <_free_r>
10004a98:	4653      	mov	r3, sl
10004a9a:	68bc      	ldr	r4, [r7, #8]
10004a9c:	681b      	ldr	r3, [r3, #0]
10004a9e:	6862      	ldr	r2, [r4, #4]
10004aa0:	e6c3      	b.n	1000482a <_malloc_r+0x2d6>
10004aa2:	490b      	ldr	r1, [pc, #44]	; (10004ad0 <_malloc_r+0x57c>)
10004aa4:	428a      	cmp	r2, r1
10004aa6:	d80b      	bhi.n	10004ac0 <_malloc_r+0x56c>
10004aa8:	0c9a      	lsrs	r2, r3, #18
10004aaa:	0011      	movs	r1, r2
10004aac:	327d      	adds	r2, #125	; 0x7d
10004aae:	317c      	adds	r1, #124	; 0x7c
10004ab0:	00d2      	lsls	r2, r2, #3
10004ab2:	e6de      	b.n	10004872 <_malloc_r+0x31e>
10004ab4:	21fe      	movs	r1, #254	; 0xfe
10004ab6:	237e      	movs	r3, #126	; 0x7e
10004ab8:	207f      	movs	r0, #127	; 0x7f
10004aba:	4698      	mov	r8, r3
10004abc:	0089      	lsls	r1, r1, #2
10004abe:	e592      	b.n	100045e6 <_malloc_r+0x92>
10004ac0:	22fe      	movs	r2, #254	; 0xfe
10004ac2:	217e      	movs	r1, #126	; 0x7e
10004ac4:	0092      	lsls	r2, r2, #2
10004ac6:	e6d4      	b.n	10004872 <_malloc_r+0x31e>
10004ac8:	687b      	ldr	r3, [r7, #4]
10004aca:	e76a      	b.n	100049a2 <_malloc_r+0x44e>
10004acc:	20000a88 	.word	0x20000a88
10004ad0:	00000554 	.word	0x00000554

10004ad4 <__malloc_lock>:
10004ad4:	b510      	push	{r4, lr}
10004ad6:	4802      	ldr	r0, [pc, #8]	; (10004ae0 <__malloc_lock+0xc>)
10004ad8:	f000 f97c 	bl	10004dd4 <__retarget_lock_acquire_recursive>
10004adc:	bd10      	pop	{r4, pc}
10004ade:	46c0      	nop			; (mov r8, r8)
10004ae0:	20000d44 	.word	0x20000d44

10004ae4 <__malloc_unlock>:
10004ae4:	b510      	push	{r4, lr}
10004ae6:	4802      	ldr	r0, [pc, #8]	; (10004af0 <__malloc_unlock+0xc>)
10004ae8:	f000 f976 	bl	10004dd8 <__retarget_lock_release_recursive>
10004aec:	bd10      	pop	{r4, pc}
10004aee:	46c0      	nop			; (mov r8, r8)
10004af0:	20000d44 	.word	0x20000d44

10004af4 <_sbrk_r>:
10004af4:	2300      	movs	r3, #0
10004af6:	b570      	push	{r4, r5, r6, lr}
10004af8:	4d06      	ldr	r5, [pc, #24]	; (10004b14 <_sbrk_r+0x20>)
10004afa:	0004      	movs	r4, r0
10004afc:	0008      	movs	r0, r1
10004afe:	602b      	str	r3, [r5, #0]
10004b00:	f7fc fc2e 	bl	10001360 <_sbrk>
10004b04:	1c43      	adds	r3, r0, #1
10004b06:	d000      	beq.n	10004b0a <_sbrk_r+0x16>
10004b08:	bd70      	pop	{r4, r5, r6, pc}
10004b0a:	682b      	ldr	r3, [r5, #0]
10004b0c:	2b00      	cmp	r3, #0
10004b0e:	d0fb      	beq.n	10004b08 <_sbrk_r+0x14>
10004b10:	6023      	str	r3, [r4, #0]
10004b12:	e7f9      	b.n	10004b08 <_sbrk_r+0x14>
10004b14:	20000d58 	.word	0x20000d58

10004b18 <strlen>:
10004b18:	b510      	push	{r4, lr}
10004b1a:	0783      	lsls	r3, r0, #30
10004b1c:	d00a      	beq.n	10004b34 <strlen+0x1c>
10004b1e:	0003      	movs	r3, r0
10004b20:	2103      	movs	r1, #3
10004b22:	e002      	b.n	10004b2a <strlen+0x12>
10004b24:	3301      	adds	r3, #1
10004b26:	420b      	tst	r3, r1
10004b28:	d005      	beq.n	10004b36 <strlen+0x1e>
10004b2a:	781a      	ldrb	r2, [r3, #0]
10004b2c:	2a00      	cmp	r2, #0
10004b2e:	d1f9      	bne.n	10004b24 <strlen+0xc>
10004b30:	1a18      	subs	r0, r3, r0
10004b32:	bd10      	pop	{r4, pc}
10004b34:	0003      	movs	r3, r0
10004b36:	6819      	ldr	r1, [r3, #0]
10004b38:	4a0c      	ldr	r2, [pc, #48]	; (10004b6c <strlen+0x54>)
10004b3a:	4c0d      	ldr	r4, [pc, #52]	; (10004b70 <strlen+0x58>)
10004b3c:	188a      	adds	r2, r1, r2
10004b3e:	438a      	bics	r2, r1
10004b40:	4222      	tst	r2, r4
10004b42:	d10f      	bne.n	10004b64 <strlen+0x4c>
10004b44:	6859      	ldr	r1, [r3, #4]
10004b46:	4a09      	ldr	r2, [pc, #36]	; (10004b6c <strlen+0x54>)
10004b48:	3304      	adds	r3, #4
10004b4a:	188a      	adds	r2, r1, r2
10004b4c:	438a      	bics	r2, r1
10004b4e:	4222      	tst	r2, r4
10004b50:	d108      	bne.n	10004b64 <strlen+0x4c>
10004b52:	6859      	ldr	r1, [r3, #4]
10004b54:	4a05      	ldr	r2, [pc, #20]	; (10004b6c <strlen+0x54>)
10004b56:	3304      	adds	r3, #4
10004b58:	188a      	adds	r2, r1, r2
10004b5a:	438a      	bics	r2, r1
10004b5c:	4222      	tst	r2, r4
10004b5e:	d0f1      	beq.n	10004b44 <strlen+0x2c>
10004b60:	e000      	b.n	10004b64 <strlen+0x4c>
10004b62:	3301      	adds	r3, #1
10004b64:	781a      	ldrb	r2, [r3, #0]
10004b66:	2a00      	cmp	r2, #0
10004b68:	d1fb      	bne.n	10004b62 <strlen+0x4a>
10004b6a:	e7e1      	b.n	10004b30 <strlen+0x18>
10004b6c:	fefefeff 	.word	0xfefefeff
10004b70:	80808080 	.word	0x80808080

10004b74 <_malloc_trim_r>:
10004b74:	b5f8      	push	{r3, r4, r5, r6, r7, lr}
10004b76:	000c      	movs	r4, r1
10004b78:	0005      	movs	r5, r0
10004b7a:	f7ff ffab 	bl	10004ad4 <__malloc_lock>
10004b7e:	4f20      	ldr	r7, [pc, #128]	; (10004c00 <_malloc_trim_r+0x8c>)
10004b80:	68bb      	ldr	r3, [r7, #8]
10004b82:	685e      	ldr	r6, [r3, #4]
10004b84:	2303      	movs	r3, #3
10004b86:	439e      	bics	r6, r3
10004b88:	4b1e      	ldr	r3, [pc, #120]	; (10004c04 <_malloc_trim_r+0x90>)
10004b8a:	1b34      	subs	r4, r6, r4
10004b8c:	469c      	mov	ip, r3
10004b8e:	4464      	add	r4, ip
10004b90:	0b24      	lsrs	r4, r4, #12
10004b92:	3c01      	subs	r4, #1
10004b94:	3311      	adds	r3, #17
10004b96:	0324      	lsls	r4, r4, #12
10004b98:	429c      	cmp	r4, r3
10004b9a:	db07      	blt.n	10004bac <_malloc_trim_r+0x38>
10004b9c:	2100      	movs	r1, #0
10004b9e:	0028      	movs	r0, r5
10004ba0:	f7ff ffa8 	bl	10004af4 <_sbrk_r>
10004ba4:	68bb      	ldr	r3, [r7, #8]
10004ba6:	199b      	adds	r3, r3, r6
10004ba8:	4298      	cmp	r0, r3
10004baa:	d004      	beq.n	10004bb6 <_malloc_trim_r+0x42>
10004bac:	0028      	movs	r0, r5
10004bae:	f7ff ff99 	bl	10004ae4 <__malloc_unlock>
10004bb2:	2000      	movs	r0, #0
10004bb4:	bdf8      	pop	{r3, r4, r5, r6, r7, pc}
10004bb6:	0028      	movs	r0, r5
10004bb8:	4261      	negs	r1, r4
10004bba:	f7ff ff9b 	bl	10004af4 <_sbrk_r>
10004bbe:	1c43      	adds	r3, r0, #1
10004bc0:	d00d      	beq.n	10004bde <_malloc_trim_r+0x6a>
10004bc2:	2201      	movs	r2, #1
10004bc4:	68bb      	ldr	r3, [r7, #8]
10004bc6:	1b36      	subs	r6, r6, r4
10004bc8:	4316      	orrs	r6, r2
10004bca:	605e      	str	r6, [r3, #4]
10004bcc:	4b0e      	ldr	r3, [pc, #56]	; (10004c08 <_malloc_trim_r+0x94>)
10004bce:	0028      	movs	r0, r5
10004bd0:	681a      	ldr	r2, [r3, #0]
10004bd2:	1b14      	subs	r4, r2, r4
10004bd4:	601c      	str	r4, [r3, #0]
10004bd6:	f7ff ff85 	bl	10004ae4 <__malloc_unlock>
10004bda:	2001      	movs	r0, #1
10004bdc:	e7ea      	b.n	10004bb4 <_malloc_trim_r+0x40>
10004bde:	2100      	movs	r1, #0
10004be0:	0028      	movs	r0, r5
10004be2:	f7ff ff87 	bl	10004af4 <_sbrk_r>
10004be6:	68ba      	ldr	r2, [r7, #8]
10004be8:	1a83      	subs	r3, r0, r2
10004bea:	2b0f      	cmp	r3, #15
10004bec:	ddde      	ble.n	10004bac <_malloc_trim_r+0x38>
10004bee:	4907      	ldr	r1, [pc, #28]	; (10004c0c <_malloc_trim_r+0x98>)
10004bf0:	6809      	ldr	r1, [r1, #0]
10004bf2:	1a40      	subs	r0, r0, r1
10004bf4:	4904      	ldr	r1, [pc, #16]	; (10004c08 <_malloc_trim_r+0x94>)
10004bf6:	6008      	str	r0, [r1, #0]
10004bf8:	2101      	movs	r1, #1
10004bfa:	430b      	orrs	r3, r1
10004bfc:	6053      	str	r3, [r2, #4]
10004bfe:	e7d5      	b.n	10004bac <_malloc_trim_r+0x38>
10004c00:	20000640 	.word	0x20000640
10004c04:	00000fef 	.word	0x00000fef
10004c08:	20000a88 	.word	0x20000a88
10004c0c:	20000a48 	.word	0x20000a48

10004c10 <_free_r>:
10004c10:	b5f0      	push	{r4, r5, r6, r7, lr}
10004c12:	46c6      	mov	lr, r8
10004c14:	0005      	movs	r5, r0
10004c16:	000c      	movs	r4, r1
10004c18:	b500      	push	{lr}
10004c1a:	2900      	cmp	r1, #0
10004c1c:	d04f      	beq.n	10004cbe <_free_r+0xae>
10004c1e:	f7ff ff59 	bl	10004ad4 <__malloc_lock>
10004c22:	0021      	movs	r1, r4
10004c24:	3908      	subs	r1, #8
10004c26:	684c      	ldr	r4, [r1, #4]
10004c28:	2601      	movs	r6, #1
10004c2a:	0022      	movs	r2, r4
10004c2c:	2003      	movs	r0, #3
10004c2e:	43b2      	bics	r2, r6
10004c30:	188f      	adds	r7, r1, r2
10004c32:	687b      	ldr	r3, [r7, #4]
10004c34:	4383      	bics	r3, r0
10004c36:	4862      	ldr	r0, [pc, #392]	; (10004dc0 <_free_r+0x1b0>)
10004c38:	4698      	mov	r8, r3
10004c3a:	6883      	ldr	r3, [r0, #8]
10004c3c:	42bb      	cmp	r3, r7
10004c3e:	d06b      	beq.n	10004d18 <_free_r+0x108>
10004c40:	4643      	mov	r3, r8
10004c42:	607b      	str	r3, [r7, #4]
10004c44:	4226      	tst	r6, r4
10004c46:	d11e      	bne.n	10004c86 <_free_r+0x76>
10004c48:	2308      	movs	r3, #8
10004c4a:	469c      	mov	ip, r3
10004c4c:	680c      	ldr	r4, [r1, #0]
10004c4e:	4484      	add	ip, r0
10004c50:	1b09      	subs	r1, r1, r4
10004c52:	1912      	adds	r2, r2, r4
10004c54:	688c      	ldr	r4, [r1, #8]
10004c56:	4564      	cmp	r4, ip
10004c58:	d04f      	beq.n	10004cfa <_free_r+0xea>
10004c5a:	68cb      	ldr	r3, [r1, #12]
10004c5c:	60e3      	str	r3, [r4, #12]
10004c5e:	609c      	str	r4, [r3, #8]
10004c60:	4643      	mov	r3, r8
10004c62:	18fc      	adds	r4, r7, r3
10004c64:	6864      	ldr	r4, [r4, #4]
10004c66:	4234      	tst	r4, r6
10004c68:	d111      	bne.n	10004c8e <_free_r+0x7e>
10004c6a:	68bb      	ldr	r3, [r7, #8]
10004c6c:	4c55      	ldr	r4, [pc, #340]	; (10004dc4 <_free_r+0x1b4>)
10004c6e:	4442      	add	r2, r8
10004c70:	42a3      	cmp	r3, r4
10004c72:	d100      	bne.n	10004c76 <_free_r+0x66>
10004c74:	e07f      	b.n	10004d76 <_free_r+0x166>
10004c76:	68fc      	ldr	r4, [r7, #12]
10004c78:	60dc      	str	r4, [r3, #12]
10004c7a:	60a3      	str	r3, [r4, #8]
10004c7c:	2301      	movs	r3, #1
10004c7e:	4313      	orrs	r3, r2
10004c80:	604b      	str	r3, [r1, #4]
10004c82:	508a      	str	r2, [r1, r2]
10004c84:	e006      	b.n	10004c94 <_free_r+0x84>
10004c86:	18fc      	adds	r4, r7, r3
10004c88:	6864      	ldr	r4, [r4, #4]
10004c8a:	4234      	tst	r4, r6
10004c8c:	d0ed      	beq.n	10004c6a <_free_r+0x5a>
10004c8e:	4316      	orrs	r6, r2
10004c90:	604e      	str	r6, [r1, #4]
10004c92:	603a      	str	r2, [r7, #0]
10004c94:	2380      	movs	r3, #128	; 0x80
10004c96:	009b      	lsls	r3, r3, #2
10004c98:	429a      	cmp	r2, r3
10004c9a:	d213      	bcs.n	10004cc4 <_free_r+0xb4>
10004c9c:	0954      	lsrs	r4, r2, #5
10004c9e:	08d3      	lsrs	r3, r2, #3
10004ca0:	2201      	movs	r2, #1
10004ca2:	40a2      	lsls	r2, r4
10004ca4:	6844      	ldr	r4, [r0, #4]
10004ca6:	00db      	lsls	r3, r3, #3
10004ca8:	4322      	orrs	r2, r4
10004caa:	6042      	str	r2, [r0, #4]
10004cac:	1818      	adds	r0, r3, r0
10004cae:	6883      	ldr	r3, [r0, #8]
10004cb0:	60c8      	str	r0, [r1, #12]
10004cb2:	608b      	str	r3, [r1, #8]
10004cb4:	6081      	str	r1, [r0, #8]
10004cb6:	60d9      	str	r1, [r3, #12]
10004cb8:	0028      	movs	r0, r5
10004cba:	f7ff ff13 	bl	10004ae4 <__malloc_unlock>
10004cbe:	bc04      	pop	{r2}
10004cc0:	4690      	mov	r8, r2
10004cc2:	bdf0      	pop	{r4, r5, r6, r7, pc}
10004cc4:	0a53      	lsrs	r3, r2, #9
10004cc6:	2b04      	cmp	r3, #4
10004cc8:	d83f      	bhi.n	10004d4a <_free_r+0x13a>
10004cca:	0994      	lsrs	r4, r2, #6
10004ccc:	0026      	movs	r6, r4
10004cce:	3439      	adds	r4, #57	; 0x39
10004cd0:	3638      	adds	r6, #56	; 0x38
10004cd2:	00e4      	lsls	r4, r4, #3
10004cd4:	1904      	adds	r4, r0, r4
10004cd6:	6823      	ldr	r3, [r4, #0]
10004cd8:	3c08      	subs	r4, #8
10004cda:	2703      	movs	r7, #3
10004cdc:	429c      	cmp	r4, r3
10004cde:	d043      	beq.n	10004d68 <_free_r+0x158>
10004ce0:	6858      	ldr	r0, [r3, #4]
10004ce2:	43b8      	bics	r0, r7
10004ce4:	4290      	cmp	r0, r2
10004ce6:	d902      	bls.n	10004cee <_free_r+0xde>
10004ce8:	689b      	ldr	r3, [r3, #8]
10004cea:	429c      	cmp	r4, r3
10004cec:	d1f8      	bne.n	10004ce0 <_free_r+0xd0>
10004cee:	68dc      	ldr	r4, [r3, #12]
10004cf0:	60cc      	str	r4, [r1, #12]
10004cf2:	608b      	str	r3, [r1, #8]
10004cf4:	60a1      	str	r1, [r4, #8]
10004cf6:	60d9      	str	r1, [r3, #12]
10004cf8:	e7de      	b.n	10004cb8 <_free_r+0xa8>
10004cfa:	4643      	mov	r3, r8
10004cfc:	18f8      	adds	r0, r7, r3
10004cfe:	6840      	ldr	r0, [r0, #4]
10004d00:	4230      	tst	r0, r6
10004d02:	d158      	bne.n	10004db6 <_free_r+0x1a6>
10004d04:	0013      	movs	r3, r2
10004d06:	68b8      	ldr	r0, [r7, #8]
10004d08:	68fa      	ldr	r2, [r7, #12]
10004d0a:	4443      	add	r3, r8
10004d0c:	431e      	orrs	r6, r3
10004d0e:	60c2      	str	r2, [r0, #12]
10004d10:	6090      	str	r0, [r2, #8]
10004d12:	604e      	str	r6, [r1, #4]
10004d14:	50cb      	str	r3, [r1, r3]
10004d16:	e7cf      	b.n	10004cb8 <_free_r+0xa8>
10004d18:	0013      	movs	r3, r2
10004d1a:	4443      	add	r3, r8
10004d1c:	4226      	tst	r6, r4
10004d1e:	d106      	bne.n	10004d2e <_free_r+0x11e>
10004d20:	680a      	ldr	r2, [r1, #0]
10004d22:	1a89      	subs	r1, r1, r2
10004d24:	688c      	ldr	r4, [r1, #8]
10004d26:	189b      	adds	r3, r3, r2
10004d28:	68ca      	ldr	r2, [r1, #12]
10004d2a:	60e2      	str	r2, [r4, #12]
10004d2c:	6094      	str	r4, [r2, #8]
10004d2e:	2201      	movs	r2, #1
10004d30:	431a      	orrs	r2, r3
10004d32:	604a      	str	r2, [r1, #4]
10004d34:	4a24      	ldr	r2, [pc, #144]	; (10004dc8 <_free_r+0x1b8>)
10004d36:	6081      	str	r1, [r0, #8]
10004d38:	6812      	ldr	r2, [r2, #0]
10004d3a:	429a      	cmp	r2, r3
10004d3c:	d8bc      	bhi.n	10004cb8 <_free_r+0xa8>
10004d3e:	4b23      	ldr	r3, [pc, #140]	; (10004dcc <_free_r+0x1bc>)
10004d40:	0028      	movs	r0, r5
10004d42:	6819      	ldr	r1, [r3, #0]
10004d44:	f7ff ff16 	bl	10004b74 <_malloc_trim_r>
10004d48:	e7b6      	b.n	10004cb8 <_free_r+0xa8>
10004d4a:	2b14      	cmp	r3, #20
10004d4c:	d907      	bls.n	10004d5e <_free_r+0x14e>
10004d4e:	2b54      	cmp	r3, #84	; 0x54
10004d50:	d81a      	bhi.n	10004d88 <_free_r+0x178>
10004d52:	0b14      	lsrs	r4, r2, #12
10004d54:	0026      	movs	r6, r4
10004d56:	346f      	adds	r4, #111	; 0x6f
10004d58:	366e      	adds	r6, #110	; 0x6e
10004d5a:	00e4      	lsls	r4, r4, #3
10004d5c:	e7ba      	b.n	10004cd4 <_free_r+0xc4>
10004d5e:	001e      	movs	r6, r3
10004d60:	335c      	adds	r3, #92	; 0x5c
10004d62:	365b      	adds	r6, #91	; 0x5b
10004d64:	00dc      	lsls	r4, r3, #3
10004d66:	e7b5      	b.n	10004cd4 <_free_r+0xc4>
10004d68:	2201      	movs	r2, #1
10004d6a:	10b6      	asrs	r6, r6, #2
10004d6c:	40b2      	lsls	r2, r6
10004d6e:	6846      	ldr	r6, [r0, #4]
10004d70:	4332      	orrs	r2, r6
10004d72:	6042      	str	r2, [r0, #4]
10004d74:	e7bc      	b.n	10004cf0 <_free_r+0xe0>
10004d76:	60d9      	str	r1, [r3, #12]
10004d78:	6099      	str	r1, [r3, #8]
10004d7a:	60cb      	str	r3, [r1, #12]
10004d7c:	608b      	str	r3, [r1, #8]
10004d7e:	2301      	movs	r3, #1
10004d80:	4313      	orrs	r3, r2
10004d82:	604b      	str	r3, [r1, #4]
10004d84:	508a      	str	r2, [r1, r2]
10004d86:	e797      	b.n	10004cb8 <_free_r+0xa8>
10004d88:	24aa      	movs	r4, #170	; 0xaa
10004d8a:	0064      	lsls	r4, r4, #1
10004d8c:	42a3      	cmp	r3, r4
10004d8e:	d805      	bhi.n	10004d9c <_free_r+0x18c>
10004d90:	0bd4      	lsrs	r4, r2, #15
10004d92:	0026      	movs	r6, r4
10004d94:	3478      	adds	r4, #120	; 0x78
10004d96:	3677      	adds	r6, #119	; 0x77
10004d98:	00e4      	lsls	r4, r4, #3
10004d9a:	e79b      	b.n	10004cd4 <_free_r+0xc4>
10004d9c:	4c0c      	ldr	r4, [pc, #48]	; (10004dd0 <_free_r+0x1c0>)
10004d9e:	42a3      	cmp	r3, r4
10004da0:	d805      	bhi.n	10004dae <_free_r+0x19e>
10004da2:	0c94      	lsrs	r4, r2, #18
10004da4:	0026      	movs	r6, r4
10004da6:	347d      	adds	r4, #125	; 0x7d
10004da8:	367c      	adds	r6, #124	; 0x7c
10004daa:	00e4      	lsls	r4, r4, #3
10004dac:	e792      	b.n	10004cd4 <_free_r+0xc4>
10004dae:	24fe      	movs	r4, #254	; 0xfe
10004db0:	267e      	movs	r6, #126	; 0x7e
10004db2:	00a4      	lsls	r4, r4, #2
10004db4:	e78e      	b.n	10004cd4 <_free_r+0xc4>
10004db6:	0033      	movs	r3, r6
10004db8:	4313      	orrs	r3, r2
10004dba:	604b      	str	r3, [r1, #4]
10004dbc:	603a      	str	r2, [r7, #0]
10004dbe:	e77b      	b.n	10004cb8 <_free_r+0xa8>
10004dc0:	20000640 	.word	0x20000640
10004dc4:	20000648 	.word	0x20000648
10004dc8:	20000a4c 	.word	0x20000a4c
10004dcc:	20000ab8 	.word	0x20000ab8
10004dd0:	00000554 	.word	0x00000554

10004dd4 <__retarget_lock_acquire_recursive>:
10004dd4:	4770      	bx	lr
10004dd6:	46c0      	nop			; (mov r8, r8)

10004dd8 <__retarget_lock_release_recursive>:
10004dd8:	4770      	bx	lr
10004dda:	46c0      	nop			; (mov r8, r8)

10004ddc <_fini>:
10004ddc:	b5f8      	push	{r3, r4, r5, r6, r7, lr}
10004dde:	46c0      	nop			; (mov r8, r8)

10004de0 <__mutex_exit_veneer>:
10004de0:	b401      	push	{r0}
10004de2:	4802      	ldr	r0, [pc, #8]	; (10004dec <__mutex_exit_veneer+0xc>)
10004de4:	4684      	mov	ip, r0
10004de6:	bc01      	pop	{r0}
10004de8:	4760      	bx	ip
10004dea:	bf00      	nop
10004dec:	2000015d 	.word	0x2000015d

10004df0 <____aeabi_ldiv0_veneer>:
10004df0:	b401      	push	{r0}
10004df2:	4802      	ldr	r0, [pc, #8]	; (10004dfc <____aeabi_ldiv0_veneer+0xc>)
10004df4:	4684      	mov	ip, r0
10004df6:	bc01      	pop	{r0}
10004df8:	4760      	bx	ip
10004dfa:	bf00      	nop
10004dfc:	20000185 	.word	0x20000185

10004e00 <____aeabi_idiv0_veneer>:
10004e00:	b401      	push	{r0}
10004e02:	4802      	ldr	r0, [pc, #8]	; (10004e0c <____aeabi_idiv0_veneer+0xc>)
10004e04:	4684      	mov	ip, r0
10004e06:	bc01      	pop	{r0}
10004e08:	4760      	bx	ip
10004e0a:	bf00      	nop
10004e0c:	20000185 	.word	0x20000185

10004e10 <__mutex_try_enter_veneer>:
10004e10:	b401      	push	{r0}
10004e12:	4802      	ldr	r0, [pc, #8]	; (10004e1c <__mutex_try_enter_veneer+0xc>)
10004e14:	4684      	mov	ip, r0
10004e16:	bc01      	pop	{r0}
10004e18:	4760      	bx	ip
10004e1a:	bf00      	nop
10004e1c:	20000111 	.word	0x20000111

10004e20 <__mutex_enter_blocking_veneer>:
10004e20:	b401      	push	{r0}
10004e22:	4802      	ldr	r0, [pc, #8]	; (10004e2c <__mutex_enter_blocking_veneer+0xc>)
10004e24:	4684      	mov	ip, r0
10004e26:	bc01      	pop	{r0}
10004e28:	4760      	bx	ip
10004e2a:	bf00      	nop
10004e2c:	200000c1 	.word	0x200000c1

Disassembly of section .data:

200000c0 <mutex_enter_blocking>:
200000c0:	b510      	push	{r4, lr}
200000c2:	6802      	ldr	r2, [r0, #0]
200000c4:	2400      	movs	r4, #0
200000c6:	f3ef 8110 	mrs	r1, PRIMASK
200000ca:	b672      	cpsid	i
200000cc:	6813      	ldr	r3, [r2, #0]
200000ce:	2b00      	cmp	r3, #0
200000d0:	d0fc      	beq.n	200000cc <mutex_enter_blocking+0xc>
200000d2:	f3bf 8f5f 	dmb	sy
200000d6:	7903      	ldrb	r3, [r0, #4]
200000d8:	2b00      	cmp	r3, #0
200000da:	d00b      	beq.n	200000f4 <mutex_enter_blocking+0x34>
200000dc:	6803      	ldr	r3, [r0, #0]
200000de:	f3bf 8f5f 	dmb	sy
200000e2:	601c      	str	r4, [r3, #0]
200000e4:	f381 8810 	msr	PRIMASK, r1
200000e8:	bf20      	wfe
200000ea:	6802      	ldr	r2, [r0, #0]
200000ec:	f3ef 8110 	mrs	r1, PRIMASK
200000f0:	b672      	cpsid	i
200000f2:	e7eb      	b.n	200000cc <mutex_enter_blocking+0xc>
200000f4:	2201      	movs	r2, #1
200000f6:	7102      	strb	r2, [r0, #4]
200000f8:	22d0      	movs	r2, #208	; 0xd0
200000fa:	0612      	lsls	r2, r2, #24
200000fc:	6812      	ldr	r2, [r2, #0]
200000fe:	7142      	strb	r2, [r0, #5]
20000100:	6802      	ldr	r2, [r0, #0]
20000102:	f3bf 8f5f 	dmb	sy
20000106:	6013      	str	r3, [r2, #0]
20000108:	f381 8810 	msr	PRIMASK, r1
2000010c:	bd10      	pop	{r4, pc}
2000010e:	46c0      	nop			; (mov r8, r8)

20000110 <mutex_try_enter>:
20000110:	0003      	movs	r3, r0
20000112:	b510      	push	{r4, lr}
20000114:	6800      	ldr	r0, [r0, #0]
20000116:	f3ef 8410 	mrs	r4, PRIMASK
2000011a:	b672      	cpsid	i
2000011c:	6802      	ldr	r2, [r0, #0]
2000011e:	2a00      	cmp	r2, #0
20000120:	d0fc      	beq.n	2000011c <mutex_try_enter+0xc>
20000122:	f3bf 8f5f 	dmb	sy
20000126:	791a      	ldrb	r2, [r3, #4]
20000128:	2a00      	cmp	r2, #0
2000012a:	d00d      	beq.n	20000148 <mutex_try_enter+0x38>
2000012c:	2900      	cmp	r1, #0
2000012e:	d013      	beq.n	20000158 <mutex_try_enter+0x48>
20000130:	2205      	movs	r2, #5
20000132:	2000      	movs	r0, #0
20000134:	569a      	ldrsb	r2, [r3, r2]
20000136:	600a      	str	r2, [r1, #0]
20000138:	681b      	ldr	r3, [r3, #0]
2000013a:	f3bf 8f5f 	dmb	sy
2000013e:	2200      	movs	r2, #0
20000140:	601a      	str	r2, [r3, #0]
20000142:	f384 8810 	msr	PRIMASK, r4
20000146:	bd10      	pop	{r4, pc}
20000148:	3201      	adds	r2, #1
2000014a:	711a      	strb	r2, [r3, #4]
2000014c:	22d0      	movs	r2, #208	; 0xd0
2000014e:	0612      	lsls	r2, r2, #24
20000150:	6812      	ldr	r2, [r2, #0]
20000152:	2001      	movs	r0, #1
20000154:	715a      	strb	r2, [r3, #5]
20000156:	e7ef      	b.n	20000138 <mutex_try_enter+0x28>
20000158:	2000      	movs	r0, #0
2000015a:	e7ed      	b.n	20000138 <mutex_try_enter+0x28>

2000015c <mutex_exit>:
2000015c:	6802      	ldr	r2, [r0, #0]
2000015e:	f3ef 8110 	mrs	r1, PRIMASK
20000162:	b672      	cpsid	i
20000164:	6813      	ldr	r3, [r2, #0]
20000166:	2b00      	cmp	r3, #0
20000168:	d0fc      	beq.n	20000164 <mutex_exit+0x8>
2000016a:	f3bf 8f5f 	dmb	sy
2000016e:	2300      	movs	r3, #0
20000170:	7103      	strb	r3, [r0, #4]
20000172:	bf40      	sev
20000174:	6802      	ldr	r2, [r0, #0]
20000176:	f3bf 8f5f 	dmb	sy
2000017a:	6013      	str	r3, [r2, #0]
2000017c:	f381 8810 	msr	PRIMASK, r1
20000180:	4770      	bx	lr
20000182:	46c0      	nop			; (mov r8, r8)

20000184 <__aeabi_idiv0>:
20000184:	4770      	bx	lr
20000186:	46c0      	nop			; (mov r8, r8)

20000188 <striped_spin_lock_num>:
20000188:	0010 0000                                   ....

2000018c <irq_handler_chain_slots>:
2000018c:	00000000 	.word	0x00000000
20000190:	00010000 	.word	0x00010000
	...
2000019c:	00020000 	.word	0x00020000
	...
200001a8:	00030000 	.word	0x00030000
	...
200001b4:	00ff0000 	.word	0x00ff0000
200001b8:	00000000 	.word	0x00000000

200001bc <irq_handler_chain_first_slot>:
200001bc:	b500      	push	{lr}
200001be:	6848      	ldr	r0, [r1, #4]
200001c0:	3101      	adds	r1, #1
200001c2:	468e      	mov	lr, r1
200001c4:	4700      	bx	r0

200001c6 <irq_handler_chain_remove_tail>:
200001c6:	4670      	mov	r0, lr
200001c8:	3809      	subs	r0, #9
200001ca:	4901      	ldr	r1, [pc, #4]	; (200001d0 <irq_handler_chain_remove_tail+0xa>)
200001cc:	4788      	blx	r1
200001ce:	bd00      	pop	{pc}
200001d0:	10001999 	.word	0x10001999
	...

200001e0 <aeabi_bits_funcs>:
200001e0:	00003350 	.word	0x00003350
200001e4:	0000334c 	.word	0x0000334c
200001e8:	00003354 	.word	0x00003354
200001ec:	00003352 	.word	0x00003352

200001f0 <aeabi_bits_funcs_end>:
200001f0:	0000534d 	.word	0x0000534d
200001f4:	0000434d 	.word	0x0000434d
200001f8:	00003453 	.word	0x00003453
200001fc:	00003443 	.word	0x00003443

20000200 <stdio_uart>:
20000200:	10004419 00000000 10004455 00000000     .D......UD......
20000210:	00000100                                ....

20000214 <_impure_ptr>:
20000214:	20000218                                ... 

20000218 <impure_data>:
20000218:	00000000 20000504 2000056c 200005d4     ....... l.. ... 
	...
200002c0:	00000001 00000000 abcd330e e66d1234     .........3..4.m.
200002d0:	0005deec 0000000b 00000000 00000000     ................
	...

20000640 <__malloc_av_>:
	...
20000648:	20000640 20000640 20000648 20000648     @.. @.. H.. H.. 
20000658:	20000650 20000650 20000658 20000658     P.. P.. X.. X.. 
20000668:	20000660 20000660 20000668 20000668     `.. `.. h.. h.. 
20000678:	20000670 20000670 20000678 20000678     p.. p.. x.. x.. 
20000688:	20000680 20000680 20000688 20000688     ... ... ... ... 
20000698:	20000690 20000690 20000698 20000698     ... ... ... ... 
200006a8:	200006a0 200006a0 200006a8 200006a8     ... ... ... ... 
200006b8:	200006b0 200006b0 200006b8 200006b8     ... ... ... ... 
200006c8:	200006c0 200006c0 200006c8 200006c8     ... ... ... ... 
200006d8:	200006d0 200006d0 200006d8 200006d8     ... ... ... ... 
200006e8:	200006e0 200006e0 200006e8 200006e8     ... ... ... ... 
200006f8:	200006f0 200006f0 200006f8 200006f8     ... ... ... ... 
20000708:	20000700 20000700 20000708 20000708     ... ... ... ... 
20000718:	20000710 20000710 20000718 20000718     ... ... ... ... 
20000728:	20000720 20000720 20000728 20000728      ..  .. (.. (.. 
20000738:	20000730 20000730 20000738 20000738     0.. 0.. 8.. 8.. 
20000748:	20000740 20000740 20000748 20000748     @.. @.. H.. H.. 
20000758:	20000750 20000750 20000758 20000758     P.. P.. X.. X.. 
20000768:	20000760 20000760 20000768 20000768     `.. `.. h.. h.. 
20000778:	20000770 20000770 20000778 20000778     p.. p.. x.. x.. 
20000788:	20000780 20000780 20000788 20000788     ... ... ... ... 
20000798:	20000790 20000790 20000798 20000798     ... ... ... ... 
200007a8:	200007a0 200007a0 200007a8 200007a8     ... ... ... ... 
200007b8:	200007b0 200007b0 200007b8 200007b8     ... ... ... ... 
200007c8:	200007c0 200007c0 200007c8 200007c8     ... ... ... ... 
200007d8:	200007d0 200007d0 200007d8 200007d8     ... ... ... ... 
200007e8:	200007e0 200007e0 200007e8 200007e8     ... ... ... ... 
200007f8:	200007f0 200007f0 200007f8 200007f8     ... ... ... ... 
20000808:	20000800 20000800 20000808 20000808     ... ... ... ... 
20000818:	20000810 20000810 20000818 20000818     ... ... ... ... 
20000828:	20000820 20000820 20000828 20000828      ..  .. (.. (.. 
20000838:	20000830 20000830 20000838 20000838     0.. 0.. 8.. 8.. 
20000848:	20000840 20000840 20000848 20000848     @.. @.. H.. H.. 
20000858:	20000850 20000850 20000858 20000858     P.. P.. X.. X.. 
20000868:	20000860 20000860 20000868 20000868     `.. `.. h.. h.. 
20000878:	20000870 20000870 20000878 20000878     p.. p.. x.. x.. 
20000888:	20000880 20000880 20000888 20000888     ... ... ... ... 
20000898:	20000890 20000890 20000898 20000898     ... ... ... ... 
200008a8:	200008a0 200008a0 200008a8 200008a8     ... ... ... ... 
200008b8:	200008b0 200008b0 200008b8 200008b8     ... ... ... ... 
200008c8:	200008c0 200008c0 200008c8 200008c8     ... ... ... ... 
200008d8:	200008d0 200008d0 200008d8 200008d8     ... ... ... ... 
200008e8:	200008e0 200008e0 200008e8 200008e8     ... ... ... ... 
200008f8:	200008f0 200008f0 200008f8 200008f8     ... ... ... ... 
20000908:	20000900 20000900 20000908 20000908     ... ... ... ... 
20000918:	20000910 20000910 20000918 20000918     ... ... ... ... 
20000928:	20000920 20000920 20000928 20000928      ..  .. (.. (.. 
20000938:	20000930 20000930 20000938 20000938     0.. 0.. 8.. 8.. 
20000948:	20000940 20000940 20000948 20000948     @.. @.. H.. H.. 
20000958:	20000950 20000950 20000958 20000958     P.. P.. X.. X.. 
20000968:	20000960 20000960 20000968 20000968     `.. `.. h.. h.. 
20000978:	20000970 20000970 20000978 20000978     p.. p.. x.. x.. 
20000988:	20000980 20000980 20000988 20000988     ... ... ... ... 
20000998:	20000990 20000990 20000998 20000998     ... ... ... ... 
200009a8:	200009a0 200009a0 200009a8 200009a8     ... ... ... ... 
200009b8:	200009b0 200009b0 200009b8 200009b8     ... ... ... ... 
200009c8:	200009c0 200009c0 200009c8 200009c8     ... ... ... ... 
200009d8:	200009d0 200009d0 200009d8 200009d8     ... ... ... ... 
200009e8:	200009e0 200009e0 200009e8 200009e8     ... ... ... ... 
200009f8:	200009f0 200009f0 200009f8 200009f8     ... ... ... ... 
20000a08:	20000a00 20000a00 20000a08 20000a08     ... ... ... ... 
20000a18:	20000a10 20000a10 20000a18 20000a18     ... ... ... ... 
20000a28:	20000a20 20000a20 20000a28 20000a28      ..  .. (.. (.. 
20000a38:	20000a30 20000a30 20000a38 20000a38     0.. 0.. 8.. 8.. 

20000a48 <__malloc_sbrk_base>:
20000a48:	ffffffff                                ....

20000a4c <__malloc_trim_threshold>:
20000a4c:	00020000                                ....

20000a50 <print_mutex>:
	...

20000a58 <__mutex_array_end>:
20000a58:	10004059 	.word	0x10004059
20000a5c:	100030d5 	.word	0x100030d5
20000a60:	100037e1 	.word	0x100037e1
20000a64:	10003f89 	.word	0x10003f89

20000a68 <__frame_dummy_init_array_entry>:
20000a68:	10000301                                ....
