
hello_gpio_irq.elf:     file format elf32-littlearm

Sections:
Idx Name          Size      VMA       LMA       File off  Algn
  0 .boot2        00000100  10000000  10000000  00010000  2**0
                  CONTENTS, ALLOC, LOAD, READONLY, DATA
  1 .text         00004a18  10000100  10000100  00010100  2**3
                  CONTENTS, ALLOC, LOAD, READONLY, CODE
  2 .rodata       000003c0  10004b18  10004b18  00014b18  2**3
                  CONTENTS, ALLOC, LOAD, READONLY, DATA
  3 .binary_info  00000024  10004ed8  10004ed8  00014ed8  2**2
                  CONTENTS, ALLOC, LOAD, DATA
  4 .ram_vector_table 000000c0  20000000  20000000  00020a6c  2**2
                  CONTENTS
  5 .data         000009ac  200000c0  10004efc  000200c0  2**4
                  CONTENTS, ALLOC, LOAD, CODE
  6 .uninitialized_data 00000000  20000a6c  20000a6c  00020b2c  2**0
                  CONTENTS
  7 .scratch_x    00000000  20040000  20040000  00020b2c  2**0
                  CONTENTS
  8 .scratch_y    00000000  20041000  20041000  00020b2c  2**0
                  CONTENTS
  9 .bss          00000378  20000a6c  20000a6c  00020a6c  2**2
                  ALLOC
 10 .heap         00000800  20000de4  20000de4  00020b2c  2**2
                  CONTENTS, READONLY
 11 .stack_dummy  00000800  20041000  20041000  00021340  2**5
                  CONTENTS, READONLY
 12 .ARM.attributes 00000028  00000000  00000000  00021b40  2**0
                  CONTENTS, READONLY
 13 .comment      00000079  00000000  00000000  00021b68  2**0
                  CONTENTS, READONLY
 14 .debug_frame  000002ac  00000000  00000000  00021be4  2**2
                  CONTENTS, READONLY, DEBUGGING

hello_gpio_irq.elf:     file format elf32-littlearm


Disassembly of section .text:

10000100 <__reset_start>:
10000100:	4827      	ldr	r0, [pc, #156]	; (100001a0 <__get_current_exception+0xa>)
10000102:	e000      	b.n	10000106 <__vector_entry>

10000104 <_entry_point>:
10000104:	2000      	movs	r0, #0

10000106 <__vector_entry>:
10000106:	4927      	ldr	r1, [pc, #156]	; (100001a4 <__get_current_exception+0xe>)
10000108:	6088      	str	r0, [r1, #8]
1000010a:	c806      	ldmia	r0!, {r1, r2}
1000010c:	f381 8808 	msr	MSP, r1
10000110:	4710      	bx	r2

10000112 <_reset_handler>:
10000112:	4825      	ldr	r0, [pc, #148]	; (100001a8 <__get_current_exception+0x12>)
10000114:	6800      	ldr	r0, [r0, #0]
10000116:	2800      	cmp	r0, #0
10000118:	d139      	bne.n	1000018e <wait_for_vector>
1000011a:	a412      	add	r4, pc, #72	; (adr r4, 10000164 <data_cpy_table>)
1000011c:	cc0e      	ldmia	r4!, {r1, r2, r3}
1000011e:	2900      	cmp	r1, #0
10000120:	d002      	beq.n	10000128 <_reset_handler+0x16>
10000122:	f000 f812 	bl	1000014a <data_cpy>
10000126:	e7f9      	b.n	1000011c <_reset_handler+0xa>
10000128:	4920      	ldr	r1, [pc, #128]	; (100001ac <__get_current_exception+0x16>)
1000012a:	4a21      	ldr	r2, [pc, #132]	; (100001b0 <__get_current_exception+0x1a>)
1000012c:	2000      	movs	r0, #0
1000012e:	e000      	b.n	10000132 <bss_fill_test>

10000130 <bss_fill_loop>:
10000130:	c101      	stmia	r1!, {r0}

10000132 <bss_fill_test>:
10000132:	4291      	cmp	r1, r2
10000134:	d1fc      	bne.n	10000130 <bss_fill_loop>

10000136 <platform_entry>:
10000136:	491f      	ldr	r1, [pc, #124]	; (100001b4 <__get_current_exception+0x1e>)
10000138:	4788      	blx	r1
1000013a:	491f      	ldr	r1, [pc, #124]	; (100001b8 <__get_current_exception+0x22>)
1000013c:	4788      	blx	r1
1000013e:	491f      	ldr	r1, [pc, #124]	; (100001bc <__get_current_exception+0x26>)
10000140:	4788      	blx	r1
10000142:	be00      	bkpt	0x0000
10000144:	e7fd      	b.n	10000142 <platform_entry+0xc>

10000146 <data_cpy_loop>:
10000146:	c901      	ldmia	r1!, {r0}
10000148:	c201      	stmia	r2!, {r0}

1000014a <data_cpy>:
1000014a:	429a      	cmp	r2, r3
1000014c:	d3fb      	bcc.n	10000146 <data_cpy_loop>
1000014e:	4770      	bx	lr

10000150 <binary_info_header>:
10000150:	7188ebf2 	.word	0x7188ebf2
10000154:	10004ed8 	.word	0x10004ed8
10000158:	10004efc 	.word	0x10004efc
1000015c:	10000164 	.word	0x10000164
10000160:	e71aa390 	.word	0xe71aa390

10000164 <data_cpy_table>:
10000164:	10004efc 	.word	0x10004efc
10000168:	200000c0 	.word	0x200000c0
1000016c:	20000a6c 	.word	0x20000a6c
10000170:	100058a8 	.word	0x100058a8
10000174:	20040000 	.word	0x20040000
10000178:	20040000 	.word	0x20040000
1000017c:	100058a8 	.word	0x100058a8
10000180:	20041000 	.word	0x20041000
10000184:	20041000 	.word	0x20041000
10000188:	00000000 	.word	0x00000000
1000018c:	4770      	bx	lr

1000018e <wait_for_vector>:
1000018e:	480c      	ldr	r0, [pc, #48]	; (100001c0 <__get_current_exception+0x2a>)
10000190:	f002 fed0 	bl	10002f34 <rom_func_lookup>
10000194:	4700      	bx	r0

10000196 <__get_current_exception>:
10000196:	f3ef 8005 	mrs	r0, IPSR
1000019a:	b2c0      	uxtb	r0, r0
1000019c:	4770      	bx	lr
1000019e:	0000      	.short	0x0000
100001a0:	10000200 	.word	0x10000200
100001a4:	e000ed00 	.word	0xe000ed00
100001a8:	d0000000 	.word	0xd0000000
100001ac:	20000a6c 	.word	0x20000a6c
100001b0:	20000de4 	.word	0x20000de4
100001b4:	100010c5 	.word	0x100010c5
100001b8:	100003a1 	.word	0x100003a1
100001bc:	100011e5 	.word	0x100011e5
100001c0:	00005657 	.word	0x00005657

100001c4 <__bi_46>:
100001c4:	50520006 5360b3ab 10004e54              ..RP..`STN..

100001d0 <__bi_34>:
100001d0:	50520006 02031c86 10004e44              ..RP....DN..

100001dc <__bi_26>:
100001dc:	50520006 9da22254 10004e64              ..RPT"..dN..

100001e8 <__bi_18>:
100001e8:	50520005 68f465de 100058a8 00000000     ..RP.e.h.X......
	...

10000200 <__reset_end>:
10000200:	20042000 	.word	0x20042000
10000204:	10000113 	.word	0x10000113
10000208:	100002c3 	.word	0x100002c3
1000020c:	100002c5 	.word	0x100002c5
10000210:	100002c1 	.word	0x100002c1
10000214:	100002c1 	.word	0x100002c1
10000218:	100002c1 	.word	0x100002c1
1000021c:	100002c1 	.word	0x100002c1
10000220:	100002c1 	.word	0x100002c1
10000224:	100002c1 	.word	0x100002c1
10000228:	100002c1 	.word	0x100002c1
1000022c:	100002c7 	.word	0x100002c7
10000230:	100002c1 	.word	0x100002c1
10000234:	100002c1 	.word	0x100002c1
10000238:	100002c9 	.word	0x100002c9
1000023c:	100002cb 	.word	0x100002cb
10000240:	100002cd 	.word	0x100002cd
10000244:	100002cd 	.word	0x100002cd
10000248:	100002cd 	.word	0x100002cd
1000024c:	100002cd 	.word	0x100002cd
10000250:	100002cd 	.word	0x100002cd
10000254:	100002cd 	.word	0x100002cd
10000258:	100002cd 	.word	0x100002cd
1000025c:	100002cd 	.word	0x100002cd
10000260:	100002cd 	.word	0x100002cd
10000264:	100002cd 	.word	0x100002cd
10000268:	100002cd 	.word	0x100002cd
1000026c:	100002cd 	.word	0x100002cd
10000270:	100002cd 	.word	0x100002cd
10000274:	100002cd 	.word	0x100002cd
10000278:	100002cd 	.word	0x100002cd
1000027c:	100002cd 	.word	0x100002cd
10000280:	100002cd 	.word	0x100002cd
10000284:	100002cd 	.word	0x100002cd
10000288:	100002cd 	.word	0x100002cd
1000028c:	100002cd 	.word	0x100002cd
10000290:	100002cd 	.word	0x100002cd
10000294:	100002cd 	.word	0x100002cd
10000298:	100002cd 	.word	0x100002cd
1000029c:	100002cd 	.word	0x100002cd
100002a0:	100002cd 	.word	0x100002cd
100002a4:	100002cd 	.word	0x100002cd
100002a8:	100002cd 	.word	0x100002cd
100002ac:	100002cd 	.word	0x100002cd
100002b0:	100002cd 	.word	0x100002cd
100002b4:	100002cd 	.word	0x100002cd
100002b8:	100002cd 	.word	0x100002cd
100002bc:	100002cd 	.word	0x100002cd

100002c0 <isr_invalid>:
100002c0:	be00      	bkpt	0x0000

100002c2 <isr_nmi>:
100002c2:	be00      	bkpt	0x0000

100002c4 <isr_hardfault>:
100002c4:	be00      	bkpt	0x0000

100002c6 <isr_svcall>:
100002c6:	be00      	bkpt	0x0000

100002c8 <isr_pendsv>:
100002c8:	be00      	bkpt	0x0000

100002ca <isr_systick>:
100002ca:	be00      	bkpt	0x0000

100002cc <__unhandled_user_irq>:
100002cc:	f7ff ff63 	bl	10000196 <__get_current_exception>
100002d0:	3810      	subs	r0, #16

100002d2 <unhandled_user_irq_num_in_r0>:
100002d2:	be00      	bkpt	0x0000

100002d4 <_init>:
100002d4:	b5f8      	push	{r3, r4, r5, r6, r7, lr}
100002d6:	46c0      	nop			; (mov r8, r8)

100002d8 <__do_global_dtors_aux>:
100002d8:	b510      	push	{r4, lr}
100002da:	4c06      	ldr	r4, [pc, #24]	; (100002f4 <__do_global_dtors_aux+0x1c>)
100002dc:	7823      	ldrb	r3, [r4, #0]
100002de:	2b00      	cmp	r3, #0
100002e0:	d107      	bne.n	100002f2 <__do_global_dtors_aux+0x1a>
100002e2:	4b05      	ldr	r3, [pc, #20]	; (100002f8 <__do_global_dtors_aux+0x20>)
100002e4:	2b00      	cmp	r3, #0
100002e6:	d002      	beq.n	100002ee <__do_global_dtors_aux+0x16>
100002e8:	4804      	ldr	r0, [pc, #16]	; (100002fc <__do_global_dtors_aux+0x24>)
100002ea:	e000      	b.n	100002ee <__do_global_dtors_aux+0x16>
100002ec:	bf00      	nop
100002ee:	2301      	movs	r3, #1
100002f0:	7023      	strb	r3, [r4, #0]
100002f2:	bd10      	pop	{r4, pc}
100002f4:	20000a6c 	.word	0x20000a6c
100002f8:	00000000 	.word	0x00000000
100002fc:	10004b18 	.word	0x10004b18

10000300 <frame_dummy>:
10000300:	4b04      	ldr	r3, [pc, #16]	; (10000314 <frame_dummy+0x14>)
10000302:	b510      	push	{r4, lr}
10000304:	2b00      	cmp	r3, #0
10000306:	d003      	beq.n	10000310 <frame_dummy+0x10>
10000308:	4903      	ldr	r1, [pc, #12]	; (10000318 <frame_dummy+0x18>)
1000030a:	4804      	ldr	r0, [pc, #16]	; (1000031c <frame_dummy+0x1c>)
1000030c:	e000      	b.n	10000310 <frame_dummy+0x10>
1000030e:	bf00      	nop
10000310:	bd10      	pop	{r4, pc}
10000312:	46c0      	nop			; (mov r8, r8)
10000314:	00000000 	.word	0x00000000
10000318:	20000a70 	.word	0x20000a70
1000031c:	10004b18 	.word	0x10004b18

10000320 <gpio_callback>:
10000320:	b5f8      	push	{r3, r4, r5, r6, r7, lr}
10000322:	46de      	mov	lr, fp
10000324:	4657      	mov	r7, sl
10000326:	464e      	mov	r6, r9
10000328:	4645      	mov	r5, r8
1000032a:	b5e0      	push	{r5, r6, r7, lr}
1000032c:	2501      	movs	r5, #1
1000032e:	4b19      	ldr	r3, [pc, #100]	; (10000394 <gpio_callback+0x74>)
10000330:	46a9      	mov	r9, r5
10000332:	352b      	adds	r5, #43	; 0x2b
10000334:	469c      	mov	ip, r3
10000336:	2400      	movs	r4, #0
10000338:	46ab      	mov	fp, r5
1000033a:	4682      	mov	sl, r0
1000033c:	4a16      	ldr	r2, [pc, #88]	; (10000398 <gpio_callback+0x78>)
1000033e:	4648      	mov	r0, r9
10000340:	40a0      	lsls	r0, r4
10000342:	4201      	tst	r1, r0
10000344:	d110      	bne.n	10000368 <gpio_callback+0x48>
10000346:	3401      	adds	r4, #1
10000348:	3204      	adds	r2, #4
1000034a:	2c04      	cmp	r4, #4
1000034c:	d1f7      	bne.n	1000033e <gpio_callback+0x1e>
1000034e:	2200      	movs	r2, #0
10000350:	4651      	mov	r1, sl
10000352:	701a      	strb	r2, [r3, #0]
10000354:	4811      	ldr	r0, [pc, #68]	; (1000039c <gpio_callback+0x7c>)
10000356:	4662      	mov	r2, ip
10000358:	f003 fec0 	bl	100040dc <__wrap_printf>
1000035c:	bc3c      	pop	{r2, r3, r4, r5}
1000035e:	4690      	mov	r8, r2
10000360:	4699      	mov	r9, r3
10000362:	46a2      	mov	sl, r4
10000364:	46ab      	mov	fp, r5
10000366:	bdf8      	pop	{r3, r4, r5, r6, r7, pc}
10000368:	6815      	ldr	r5, [r2, #0]
1000036a:	782e      	ldrb	r6, [r5, #0]
1000036c:	2e00      	cmp	r6, #0
1000036e:	d008      	beq.n	10000382 <gpio_callback+0x62>
10000370:	001f      	movs	r7, r3
10000372:	003b      	movs	r3, r7
10000374:	3501      	adds	r5, #1
10000376:	701e      	strb	r6, [r3, #0]
10000378:	782e      	ldrb	r6, [r5, #0]
1000037a:	3701      	adds	r7, #1
1000037c:	2e00      	cmp	r6, #0
1000037e:	d1f8      	bne.n	10000372 <gpio_callback+0x52>
10000380:	003b      	movs	r3, r7
10000382:	4381      	bics	r1, r0
10000384:	d0df      	beq.n	10000346 <gpio_callback+0x26>
10000386:	4658      	mov	r0, fp
10000388:	7018      	strb	r0, [r3, #0]
1000038a:	2020      	movs	r0, #32
1000038c:	7058      	strb	r0, [r3, #1]
1000038e:	3302      	adds	r3, #2
10000390:	e7d9      	b.n	10000346 <gpio_callback+0x26>
10000392:	46c0      	nop			; (mov r8, r8)
10000394:	20000b04 	.word	0x20000b04
10000398:	10004b64 	.word	0x10004b64
1000039c:	10004b18 	.word	0x10004b18

100003a0 <main>:
100003a0:	b510      	push	{r4, lr}
100003a2:	f003 fea7 	bl	100040f4 <stdio_init_all>
100003a6:	4805      	ldr	r0, [pc, #20]	; (100003bc <main+0x1c>)
100003a8:	f003 fde8 	bl	10003f7c <__wrap_puts>
100003ac:	2201      	movs	r2, #1
100003ae:	210c      	movs	r1, #12
100003b0:	2002      	movs	r0, #2
100003b2:	4b03      	ldr	r3, [pc, #12]	; (100003c0 <main+0x20>)
100003b4:	f000 f85c 	bl	10000470 <gpio_set_irq_enabled_with_callback>
100003b8:	e7fe      	b.n	100003b8 <main+0x18>
100003ba:	46c0      	nop			; (mov r8, r8)
100003bc:	10004b24 	.word	0x10004b24
100003c0:	10000321 	.word	0x10000321

100003c4 <gpio_irq_handler>:
100003c4:	23d0      	movs	r3, #208	; 0xd0
100003c6:	061b      	lsls	r3, r3, #24
100003c8:	b5f0      	push	{r4, r5, r6, r7, lr}
100003ca:	681e      	ldr	r6, [r3, #0]
100003cc:	46c6      	mov	lr, r8
100003ce:	1e73      	subs	r3, r6, #1
100003d0:	419e      	sbcs	r6, r3
100003d2:	4273      	negs	r3, r6
100003d4:	2630      	movs	r6, #48	; 0x30
100003d6:	401e      	ands	r6, r3
100003d8:	4b16      	ldr	r3, [pc, #88]	; (10000434 <gpio_irq_handler+0x70>)
100003da:	2400      	movs	r4, #0
100003dc:	469c      	mov	ip, r3
100003de:	4b16      	ldr	r3, [pc, #88]	; (10000438 <gpio_irq_handler+0x74>)
100003e0:	2707      	movs	r7, #7
100003e2:	250f      	movs	r5, #15
100003e4:	4698      	mov	r8, r3
100003e6:	b500      	push	{lr}
100003e8:	4466      	add	r6, ip
100003ea:	08e0      	lsrs	r0, r4, #3
100003ec:	0003      	movs	r3, r0
100003ee:	003a      	movs	r2, r7
100003f0:	3308      	adds	r3, #8
100003f2:	009b      	lsls	r3, r3, #2
100003f4:	599b      	ldr	r3, [r3, r6]
100003f6:	4022      	ands	r2, r4
100003f8:	0092      	lsls	r2, r2, #2
100003fa:	40d3      	lsrs	r3, r2
100003fc:	0029      	movs	r1, r5
100003fe:	4019      	ands	r1, r3
10000400:	421d      	tst	r5, r3
10000402:	d010      	beq.n	10000426 <gpio_irq_handler+0x62>
10000404:	000b      	movs	r3, r1
10000406:	4093      	lsls	r3, r2
10000408:	001a      	movs	r2, r3
1000040a:	303c      	adds	r0, #60	; 0x3c
1000040c:	4b0b      	ldr	r3, [pc, #44]	; (1000043c <gpio_irq_handler+0x78>)
1000040e:	0080      	lsls	r0, r0, #2
10000410:	50c2      	str	r2, [r0, r3]
10000412:	23d0      	movs	r3, #208	; 0xd0
10000414:	4642      	mov	r2, r8
10000416:	061b      	lsls	r3, r3, #24
10000418:	681b      	ldr	r3, [r3, #0]
1000041a:	009b      	lsls	r3, r3, #2
1000041c:	589b      	ldr	r3, [r3, r2]
1000041e:	2b00      	cmp	r3, #0
10000420:	d001      	beq.n	10000426 <gpio_irq_handler+0x62>
10000422:	0020      	movs	r0, r4
10000424:	4798      	blx	r3
10000426:	3401      	adds	r4, #1
10000428:	2c1e      	cmp	r4, #30
1000042a:	d1de      	bne.n	100003ea <gpio_irq_handler+0x26>
1000042c:	bc04      	pop	{r2}
1000042e:	4690      	mov	r8, r2
10000430:	bdf0      	pop	{r4, r5, r6, r7, pc}
10000432:	46c0      	nop			; (mov r8, r8)
10000434:	40014100 	.word	0x40014100
10000438:	20000abc 	.word	0x20000abc
1000043c:	40014000 	.word	0x40014000

10000440 <gpio_set_function>:
10000440:	4a09      	ldr	r2, [pc, #36]	; (10000468 <gpio_set_function+0x28>)
10000442:	0083      	lsls	r3, r0, #2
10000444:	4694      	mov	ip, r2
10000446:	2240      	movs	r2, #64	; 0x40
10000448:	4463      	add	r3, ip
1000044a:	b510      	push	{r4, lr}
1000044c:	681c      	ldr	r4, [r3, #0]
1000044e:	00c0      	lsls	r0, r0, #3
10000450:	4062      	eors	r2, r4
10000452:	24c0      	movs	r4, #192	; 0xc0
10000454:	4014      	ands	r4, r2
10000456:	2280      	movs	r2, #128	; 0x80
10000458:	0152      	lsls	r2, r2, #5
1000045a:	4313      	orrs	r3, r2
1000045c:	601c      	str	r4, [r3, #0]
1000045e:	4b03      	ldr	r3, [pc, #12]	; (1000046c <gpio_set_function+0x2c>)
10000460:	469c      	mov	ip, r3
10000462:	4460      	add	r0, ip
10000464:	6041      	str	r1, [r0, #4]
10000466:	bd10      	pop	{r4, pc}
10000468:	4001c004 	.word	0x4001c004
1000046c:	40014000 	.word	0x40014000

10000470 <gpio_set_irq_enabled_with_callback>:
10000470:	b570      	push	{r4, r5, r6, lr}
10000472:	0006      	movs	r6, r0
10000474:	20d0      	movs	r0, #208	; 0xd0
10000476:	0600      	lsls	r0, r0, #24
10000478:	6804      	ldr	r4, [r0, #0]
1000047a:	08f5      	lsrs	r5, r6, #3
1000047c:	1e60      	subs	r0, r4, #1
1000047e:	4184      	sbcs	r4, r0
10000480:	2030      	movs	r0, #48	; 0x30
10000482:	4264      	negs	r4, r4
10000484:	4004      	ands	r4, r0
10000486:	4814      	ldr	r0, [pc, #80]	; (100004d8 <gpio_set_irq_enabled_with_callback+0x68>)
10000488:	4684      	mov	ip, r0
1000048a:	2007      	movs	r0, #7
1000048c:	4030      	ands	r0, r6
1000048e:	0080      	lsls	r0, r0, #2
10000490:	4081      	lsls	r1, r0
10000492:	0028      	movs	r0, r5
10000494:	4e11      	ldr	r6, [pc, #68]	; (100004dc <gpio_set_irq_enabled_with_callback+0x6c>)
10000496:	303c      	adds	r0, #60	; 0x3c
10000498:	4464      	add	r4, ip
1000049a:	0080      	lsls	r0, r0, #2
1000049c:	00ad      	lsls	r5, r5, #2
1000049e:	5181      	str	r1, [r0, r6]
100004a0:	1964      	adds	r4, r4, r5
100004a2:	2a00      	cmp	r2, #0
100004a4:	d012      	beq.n	100004cc <gpio_set_irq_enabled_with_callback+0x5c>
100004a6:	2280      	movs	r2, #128	; 0x80
100004a8:	0192      	lsls	r2, r2, #6
100004aa:	4314      	orrs	r4, r2
100004ac:	6021      	str	r1, [r4, #0]
100004ae:	22d0      	movs	r2, #208	; 0xd0
100004b0:	0612      	lsls	r2, r2, #24
100004b2:	6812      	ldr	r2, [r2, #0]
100004b4:	490a      	ldr	r1, [pc, #40]	; (100004e0 <gpio_set_irq_enabled_with_callback+0x70>)
100004b6:	0092      	lsls	r2, r2, #2
100004b8:	5053      	str	r3, [r2, r1]
100004ba:	200d      	movs	r0, #13
100004bc:	4909      	ldr	r1, [pc, #36]	; (100004e4 <gpio_set_irq_enabled_with_callback+0x74>)
100004be:	f001 f887 	bl	100015d0 <irq_set_exclusive_handler>
100004c2:	2101      	movs	r1, #1
100004c4:	200d      	movs	r0, #13
100004c6:	f001 f869 	bl	1000159c <irq_set_enabled>
100004ca:	bd70      	pop	{r4, r5, r6, pc}
100004cc:	22c0      	movs	r2, #192	; 0xc0
100004ce:	0192      	lsls	r2, r2, #6
100004d0:	4314      	orrs	r4, r2
100004d2:	6021      	str	r1, [r4, #0]
100004d4:	e7eb      	b.n	100004ae <gpio_set_irq_enabled_with_callback+0x3e>
100004d6:	46c0      	nop			; (mov r8, r8)
100004d8:	40014100 	.word	0x40014100
100004dc:	40014000 	.word	0x40014000
100004e0:	20000abc 	.word	0x20000abc
100004e4:	100003c5 	.word	0x100003c5

100004e8 <hw_claim_or_assert>:
100004e8:	b5f8      	push	{r3, r4, r5, r6, r7, lr}
100004ea:	46ce      	mov	lr, r9
100004ec:	4647      	mov	r7, r8
100004ee:	4691      	mov	r9, r2
100004f0:	b580      	push	{r7, lr}
100004f2:	f3ef 8710 	mrs	r7, PRIMASK
100004f6:	b672      	cpsid	i
100004f8:	4e12      	ldr	r6, [pc, #72]	; (10000544 <hw_claim_or_assert+0x5c>)
100004fa:	6833      	ldr	r3, [r6, #0]
100004fc:	2b00      	cmp	r3, #0
100004fe:	d0fc      	beq.n	100004fa <hw_claim_or_assert+0x12>
10000500:	f3bf 8f5f 	dmb	sy
10000504:	08cb      	lsrs	r3, r1, #3
10000506:	5cc5      	ldrb	r5, [r0, r3]
10000508:	2407      	movs	r4, #7
1000050a:	18c2      	adds	r2, r0, r3
1000050c:	0028      	movs	r0, r5
1000050e:	2301      	movs	r3, #1
10000510:	400c      	ands	r4, r1
10000512:	4694      	mov	ip, r2
10000514:	40e0      	lsrs	r0, r4
10000516:	001a      	movs	r2, r3
10000518:	4002      	ands	r2, r0
1000051a:	4690      	mov	r8, r2
1000051c:	4203      	tst	r3, r0
1000051e:	d10d      	bne.n	1000053c <hw_claim_or_assert+0x54>
10000520:	40a3      	lsls	r3, r4
10000522:	4662      	mov	r2, ip
10000524:	432b      	orrs	r3, r5
10000526:	7013      	strb	r3, [r2, #0]
10000528:	f3bf 8f5f 	dmb	sy
1000052c:	4643      	mov	r3, r8
1000052e:	6033      	str	r3, [r6, #0]
10000530:	f387 8810 	msr	PRIMASK, r7
10000534:	bc0c      	pop	{r2, r3}
10000536:	4690      	mov	r8, r2
10000538:	4699      	mov	r9, r3
1000053a:	bdf8      	pop	{r3, r4, r5, r6, r7, pc}
1000053c:	4648      	mov	r0, r9
1000053e:	f000 fe53 	bl	100011e8 <panic>
10000542:	46c0      	nop			; (mov r8, r8)
10000544:	d000012c 	.word	0xd000012c

10000548 <spin_locks_reset>:
10000548:	2100      	movs	r1, #0
1000054a:	4b04      	ldr	r3, [pc, #16]	; (1000055c <spin_locks_reset+0x14>)
1000054c:	4a04      	ldr	r2, [pc, #16]	; (10000560 <spin_locks_reset+0x18>)
1000054e:	f3bf 8f5f 	dmb	sy
10000552:	c302      	stmia	r3!, {r1}
10000554:	4293      	cmp	r3, r2
10000556:	d1fa      	bne.n	1000054e <spin_locks_reset+0x6>
10000558:	4770      	bx	lr
1000055a:	46c0      	nop			; (mov r8, r8)
1000055c:	d0000100 	.word	0xd0000100
10000560:	d0000180 	.word	0xd0000180

10000564 <next_striped_spin_lock_num>:
10000564:	4a04      	ldr	r2, [pc, #16]	; (10000578 <next_striped_spin_lock_num+0x14>)
10000566:	7810      	ldrb	r0, [r2, #0]
10000568:	1c43      	adds	r3, r0, #1
1000056a:	b2db      	uxtb	r3, r3
1000056c:	2b17      	cmp	r3, #23
1000056e:	d900      	bls.n	10000572 <next_striped_spin_lock_num+0xe>
10000570:	2310      	movs	r3, #16
10000572:	7013      	strb	r3, [r2, #0]
10000574:	4770      	bx	lr
10000576:	46c0      	nop			; (mov r8, r8)
10000578:	20000188 	.word	0x20000188

1000057c <running_on_fpga>:
1000057c:	4b02      	ldr	r3, [pc, #8]	; (10000588 <running_on_fpga+0xc>)
1000057e:	6818      	ldr	r0, [r3, #0]
10000580:	0780      	lsls	r0, r0, #30
10000582:	0fc0      	lsrs	r0, r0, #31
10000584:	4770      	bx	lr
10000586:	46c0      	nop			; (mov r8, r8)
10000588:	4006c000 	.word	0x4006c000

1000058c <uart_init>:
1000058c:	b5f0      	push	{r4, r5, r6, r7, lr}
1000058e:	46c6      	mov	lr, r8
10000590:	0005      	movs	r5, r0
10000592:	b500      	push	{lr}
10000594:	2006      	movs	r0, #6
10000596:	000e      	movs	r6, r1
10000598:	f000 ffb4 	bl	10001504 <clock_get_hz>
1000059c:	2800      	cmp	r0, #0
1000059e:	d04d      	beq.n	1000063c <uart_init+0xb0>
100005a0:	4b29      	ldr	r3, [pc, #164]	; (10000648 <uart_init+0xbc>)
100005a2:	492a      	ldr	r1, [pc, #168]	; (1000064c <uart_init+0xc0>)
100005a4:	18eb      	adds	r3, r5, r3
100005a6:	425a      	negs	r2, r3
100005a8:	4153      	adcs	r3, r2
100005aa:	2280      	movs	r2, #128	; 0x80
100005ac:	03d2      	lsls	r2, r2, #15
100005ae:	4694      	mov	ip, r2
100005b0:	425b      	negs	r3, r3
100005b2:	4013      	ands	r3, r2
100005b4:	4a26      	ldr	r2, [pc, #152]	; (10000650 <uart_init+0xc4>)
100005b6:	4463      	add	r3, ip
100005b8:	6013      	str	r3, [r2, #0]
100005ba:	4a26      	ldr	r2, [pc, #152]	; (10000654 <uart_init+0xc8>)
100005bc:	6013      	str	r3, [r2, #0]
100005be:	001c      	movs	r4, r3
100005c0:	688a      	ldr	r2, [r1, #8]
100005c2:	4394      	bics	r4, r2
100005c4:	d1fb      	bne.n	100005be <uart_init+0x32>
100005c6:	4b20      	ldr	r3, [pc, #128]	; (10000648 <uart_init+0xbc>)
100005c8:	2180      	movs	r1, #128	; 0x80
100005ca:	18eb      	adds	r3, r5, r3
100005cc:	425a      	negs	r2, r3
100005ce:	4153      	adcs	r3, r2
100005d0:	4a21      	ldr	r2, [pc, #132]	; (10000658 <uart_init+0xcc>)
100005d2:	005b      	lsls	r3, r3, #1
100005d4:	0049      	lsls	r1, r1, #1
100005d6:	2006      	movs	r0, #6
100005d8:	5299      	strh	r1, [r3, r2]
100005da:	f000 ff93 	bl	10001504 <clock_get_hz>
100005de:	0031      	movs	r1, r6
100005e0:	00c0      	lsls	r0, r0, #3
100005e2:	f002 fd01 	bl	10002fe8 <__wrap___aeabi_uidiv>
100005e6:	267f      	movs	r6, #127	; 0x7f
100005e8:	4b1c      	ldr	r3, [pc, #112]	; (1000065c <uart_init+0xd0>)
100005ea:	4006      	ands	r6, r0
100005ec:	09c7      	lsrs	r7, r0, #7
100005ee:	3601      	adds	r6, #1
100005f0:	0876      	lsrs	r6, r6, #1
100005f2:	626f      	str	r7, [r5, #36]	; 0x24
100005f4:	429f      	cmp	r7, r3
100005f6:	d024      	beq.n	10000642 <uart_init+0xb6>
100005f8:	62ae      	str	r6, [r5, #40]	; 0x28
100005fa:	232c      	movs	r3, #44	; 0x2c
100005fc:	4698      	mov	r8, r3
100005fe:	2480      	movs	r4, #128	; 0x80
10000600:	44a8      	add	r8, r5
10000602:	4643      	mov	r3, r8
10000604:	01a4      	lsls	r4, r4, #6
10000606:	431c      	orrs	r4, r3
10000608:	2300      	movs	r3, #0
1000060a:	2006      	movs	r0, #6
1000060c:	6023      	str	r3, [r4, #0]
1000060e:	f000 ff79 	bl	10001504 <clock_get_hz>
10000612:	01b9      	lsls	r1, r7, #6
10000614:	1989      	adds	r1, r1, r6
10000616:	0080      	lsls	r0, r0, #2
10000618:	f002 fce6 	bl	10002fe8 <__wrap___aeabi_uidiv>
1000061c:	2360      	movs	r3, #96	; 0x60
1000061e:	6aea      	ldr	r2, [r5, #44]	; 0x2c
10000620:	4641      	mov	r1, r8
10000622:	4053      	eors	r3, r2
10000624:	226e      	movs	r2, #110	; 0x6e
10000626:	401a      	ands	r2, r3
10000628:	2380      	movs	r3, #128	; 0x80
1000062a:	015b      	lsls	r3, r3, #5
1000062c:	430b      	orrs	r3, r1
1000062e:	601a      	str	r2, [r3, #0]
10000630:	4b0b      	ldr	r3, [pc, #44]	; (10000660 <uart_init+0xd4>)
10000632:	632b      	str	r3, [r5, #48]	; 0x30
10000634:	2310      	movs	r3, #16
10000636:	6023      	str	r3, [r4, #0]
10000638:	3b0d      	subs	r3, #13
1000063a:	64ab      	str	r3, [r5, #72]	; 0x48
1000063c:	bc04      	pop	{r2}
1000063e:	4690      	mov	r8, r2
10000640:	bdf0      	pop	{r4, r5, r6, r7, pc}
10000642:	62ac      	str	r4, [r5, #40]	; 0x28
10000644:	e7d9      	b.n	100005fa <uart_init+0x6e>
10000646:	46c0      	nop			; (mov r8, r8)
10000648:	bffc8000 	.word	0xbffc8000
1000064c:	4000c000 	.word	0x4000c000
10000650:	4000e000 	.word	0x4000e000
10000654:	4000f000 	.word	0x4000f000
10000658:	20000bb4 	.word	0x20000bb4
1000065c:	0000ffff 	.word	0x0000ffff
10000660:	00000301 	.word	0x00000301

10000664 <timer_pool_entry_comparator>:
10000664:	6883      	ldr	r3, [r0, #8]
10000666:	480b      	ldr	r0, [pc, #44]	; (10000694 <timer_pool_entry_comparator+0x30>)
10000668:	b510      	push	{r4, lr}
1000066a:	4684      	mov	ip, r0
1000066c:	4461      	add	r1, ip
1000066e:	4462      	add	r2, ip
10000670:	0109      	lsls	r1, r1, #4
10000672:	0112      	lsls	r2, r2, #4
10000674:	189a      	adds	r2, r3, r2
10000676:	1859      	adds	r1, r3, r1
10000678:	6854      	ldr	r4, [r2, #4]
1000067a:	684b      	ldr	r3, [r1, #4]
1000067c:	2001      	movs	r0, #1
1000067e:	429c      	cmp	r4, r3
10000680:	d801      	bhi.n	10000686 <timer_pool_entry_comparator+0x22>
10000682:	d002      	beq.n	1000068a <timer_pool_entry_comparator+0x26>
10000684:	2000      	movs	r0, #0
10000686:	b2c0      	uxtb	r0, r0
10000688:	bd10      	pop	{r4, pc}
1000068a:	6812      	ldr	r2, [r2, #0]
1000068c:	680b      	ldr	r3, [r1, #0]
1000068e:	429a      	cmp	r2, r3
10000690:	d8f9      	bhi.n	10000686 <timer_pool_entry_comparator+0x22>
10000692:	e7f7      	b.n	10000684 <timer_pool_entry_comparator+0x20>
10000694:	0fffffff 	.word	0x0fffffff

10000698 <add_alarm_under_lock>:
10000698:	b5f0      	push	{r4, r5, r6, r7, lr}
1000069a:	4657      	mov	r7, sl
1000069c:	4645      	mov	r5, r8
1000069e:	46de      	mov	lr, fp
100006a0:	464e      	mov	r6, r9
100006a2:	b5e0      	push	{r5, r6, r7, lr}
100006a4:	b083      	sub	sp, #12
100006a6:	001f      	movs	r7, r3
100006a8:	ab0f      	add	r3, sp, #60	; 0x3c
100006aa:	781b      	ldrb	r3, [r3, #0]
100006ac:	9c0e      	ldr	r4, [sp, #56]	; 0x38
100006ae:	0005      	movs	r5, r0
100006b0:	4692      	mov	sl, r2
100006b2:	9301      	str	r3, [sp, #4]
100006b4:	2c00      	cmp	r4, #0
100006b6:	d10d      	bne.n	100006d4 <add_alarm_under_lock+0x3c>
100006b8:	6802      	ldr	r2, [r0, #0]
100006ba:	7b94      	ldrb	r4, [r2, #14]
100006bc:	2c00      	cmp	r4, #0
100006be:	d056      	beq.n	1000076e <add_alarm_under_lock+0xd6>
100006c0:	6811      	ldr	r1, [r2, #0]
100006c2:	0063      	lsls	r3, r4, #1
100006c4:	468c      	mov	ip, r1
100006c6:	191b      	adds	r3, r3, r4
100006c8:	4463      	add	r3, ip
100006ca:	3b03      	subs	r3, #3
100006cc:	785b      	ldrb	r3, [r3, #1]
100006ce:	7393      	strb	r3, [r2, #14]
100006d0:	2b00      	cmp	r3, #0
100006d2:	d054      	beq.n	1000077e <add_alarm_under_lock+0xe6>
100006d4:	68aa      	ldr	r2, [r5, #8]
100006d6:	b2e3      	uxtb	r3, r4
100006d8:	4694      	mov	ip, r2
100006da:	4652      	mov	r2, sl
100006dc:	469b      	mov	fp, r3
100006de:	4b38      	ldr	r3, [pc, #224]	; (100007c0 <add_alarm_under_lock+0x128>)
100006e0:	682e      	ldr	r6, [r5, #0]
100006e2:	18e3      	adds	r3, r4, r3
100006e4:	011b      	lsls	r3, r3, #4
100006e6:	4463      	add	r3, ip
100006e8:	601a      	str	r2, [r3, #0]
100006ea:	9a0c      	ldr	r2, [sp, #48]	; 0x30
100006ec:	605f      	str	r7, [r3, #4]
100006ee:	609a      	str	r2, [r3, #8]
100006f0:	9a0d      	ldr	r2, [sp, #52]	; 0x34
100006f2:	60da      	str	r2, [r3, #12]
100006f4:	23d0      	movs	r3, #208	; 0xd0
100006f6:	2280      	movs	r2, #128	; 0x80
100006f8:	061b      	lsls	r3, r3, #24
100006fa:	0312      	lsls	r2, r2, #12
100006fc:	615a      	str	r2, [r3, #20]
100006fe:	0063      	lsls	r3, r4, #1
10000700:	191b      	adds	r3, r3, r4
10000702:	3b03      	subs	r3, #3
10000704:	4698      	mov	r8, r3
10000706:	2200      	movs	r2, #0
10000708:	6833      	ldr	r3, [r6, #0]
1000070a:	4443      	add	r3, r8
1000070c:	709a      	strb	r2, [r3, #2]
1000070e:	705a      	strb	r2, [r3, #1]
10000710:	701a      	strb	r2, [r3, #0]
10000712:	7b73      	ldrb	r3, [r6, #13]
10000714:	4699      	mov	r9, r3
10000716:	2b00      	cmp	r3, #0
10000718:	d017      	beq.n	1000074a <add_alarm_under_lock+0xb2>
1000071a:	465a      	mov	r2, fp
1000071c:	0019      	movs	r1, r3
1000071e:	68b0      	ldr	r0, [r6, #8]
10000720:	6873      	ldr	r3, [r6, #4]
10000722:	4798      	blx	r3
10000724:	6832      	ldr	r2, [r6, #0]
10000726:	2800      	cmp	r0, #0
10000728:	d12b      	bne.n	10000782 <add_alarm_under_lock+0xea>
1000072a:	4643      	mov	r3, r8
1000072c:	18d1      	adds	r1, r2, r3
1000072e:	464b      	mov	r3, r9
10000730:	4658      	mov	r0, fp
10000732:	005b      	lsls	r3, r3, #1
10000734:	444b      	add	r3, r9
10000736:	3b03      	subs	r3, #3
10000738:	18d3      	adds	r3, r2, r3
1000073a:	7098      	strb	r0, [r3, #2]
1000073c:	4640      	mov	r0, r8
1000073e:	5c12      	ldrb	r2, [r2, r0]
10000740:	2a00      	cmp	r2, #0
10000742:	d000      	beq.n	10000746 <add_alarm_under_lock+0xae>
10000744:	705a      	strb	r2, [r3, #1]
10000746:	464b      	mov	r3, r9
10000748:	700b      	strb	r3, [r1, #0]
1000074a:	465b      	mov	r3, fp
1000074c:	7373      	strb	r3, [r6, #13]
1000074e:	4652      	mov	r2, sl
10000750:	003b      	movs	r3, r7
10000752:	7d28      	ldrb	r0, [r5, #20]
10000754:	f000 fa1a 	bl	10000b8c <hardware_alarm_set_target>
10000758:	1e06      	subs	r6, r0, #0
1000075a:	d002      	beq.n	10000762 <add_alarm_under_lock+0xca>
1000075c:	9b01      	ldr	r3, [sp, #4]
1000075e:	2b00      	cmp	r3, #0
10000760:	d026      	beq.n	100007b0 <add_alarm_under_lock+0x118>
10000762:	9b10      	ldr	r3, [sp, #64]	; 0x40
10000764:	2b00      	cmp	r3, #0
10000766:	d028      	beq.n	100007ba <add_alarm_under_lock+0x122>
10000768:	0020      	movs	r0, r4
1000076a:	701e      	strb	r6, [r3, #0]
1000076c:	e000      	b.n	10000770 <add_alarm_under_lock+0xd8>
1000076e:	2000      	movs	r0, #0
10000770:	b003      	add	sp, #12
10000772:	bc3c      	pop	{r2, r3, r4, r5}
10000774:	4690      	mov	r8, r2
10000776:	4699      	mov	r9, r3
10000778:	46a2      	mov	sl, r4
1000077a:	46ab      	mov	fp, r5
1000077c:	bdf0      	pop	{r4, r5, r6, r7, pc}
1000077e:	73d3      	strb	r3, [r2, #15]
10000780:	e7a8      	b.n	100006d4 <add_alarm_under_lock+0x3c>
10000782:	464b      	mov	r3, r9
10000784:	005b      	lsls	r3, r3, #1
10000786:	444b      	add	r3, r9
10000788:	3b03      	subs	r3, #3
1000078a:	18d1      	adds	r1, r2, r3
1000078c:	468c      	mov	ip, r1
1000078e:	4641      	mov	r1, r8
10000790:	4648      	mov	r0, r9
10000792:	1851      	adds	r1, r2, r1
10000794:	7088      	strb	r0, [r1, #2]
10000796:	5cd3      	ldrb	r3, [r2, r3]
10000798:	2b00      	cmp	r3, #0
1000079a:	d000      	beq.n	1000079e <add_alarm_under_lock+0x106>
1000079c:	704b      	strb	r3, [r1, #1]
1000079e:	465b      	mov	r3, fp
100007a0:	4662      	mov	r2, ip
100007a2:	7013      	strb	r3, [r2, #0]
100007a4:	464b      	mov	r3, r9
100007a6:	0020      	movs	r0, r4
100007a8:	7373      	strb	r3, [r6, #13]
100007aa:	45a1      	cmp	r9, r4
100007ac:	d1e0      	bne.n	10000770 <add_alarm_under_lock+0xd8>
100007ae:	e7ce      	b.n	1000074e <add_alarm_under_lock+0xb6>
100007b0:	4659      	mov	r1, fp
100007b2:	6828      	ldr	r0, [r5, #0]
100007b4:	f000 fc48 	bl	10001048 <ph_delete>
100007b8:	e7d3      	b.n	10000762 <add_alarm_under_lock+0xca>
100007ba:	0020      	movs	r0, r4
100007bc:	e7d8      	b.n	10000770 <add_alarm_under_lock+0xd8>
100007be:	46c0      	nop			; (mov r8, r8)
100007c0:	0fffffff 	.word	0x0fffffff

100007c4 <alarm_pool_alarm_callback>:
100007c4:	b5f0      	push	{r4, r5, r6, r7, lr}
100007c6:	46de      	mov	lr, fp
100007c8:	464e      	mov	r6, r9
100007ca:	4657      	mov	r7, sl
100007cc:	4645      	mov	r5, r8
100007ce:	2300      	movs	r3, #0
100007d0:	b5e0      	push	{r5, r6, r7, lr}
100007d2:	b08d      	sub	sp, #52	; 0x34
100007d4:	930a      	str	r3, [sp, #40]	; 0x28
100007d6:	4b71      	ldr	r3, [pc, #452]	; (1000099c <alarm_pool_alarm_callback+0x1d8>)
100007d8:	0082      	lsls	r2, r0, #2
100007da:	58d3      	ldr	r3, [r2, r3]
100007dc:	900b      	str	r0, [sp, #44]	; 0x2c
100007de:	4699      	mov	r9, r3
100007e0:	2300      	movs	r3, #0
100007e2:	469b      	mov	fp, r3
100007e4:	464b      	mov	r3, r9
100007e6:	9307      	str	r3, [sp, #28]
100007e8:	f000 f980 	bl	10000aec <time_us_64>
100007ec:	9c07      	ldr	r4, [sp, #28]
100007ee:	0006      	movs	r6, r0
100007f0:	000f      	movs	r7, r1
100007f2:	6862      	ldr	r2, [r4, #4]
100007f4:	f3ef 8510 	mrs	r5, PRIMASK
100007f8:	b672      	cpsid	i
100007fa:	6813      	ldr	r3, [r2, #0]
100007fc:	2b00      	cmp	r3, #0
100007fe:	d0fc      	beq.n	100007fa <alarm_pool_alarm_callback+0x36>
10000800:	0022      	movs	r2, r4
10000802:	9407      	str	r4, [sp, #28]
10000804:	f3bf 8f5f 	dmb	sy
10000808:	6824      	ldr	r4, [r4, #0]
1000080a:	7b63      	ldrb	r3, [r4, #13]
1000080c:	4699      	mov	r9, r3
1000080e:	2b00      	cmp	r3, #0
10000810:	d100      	bne.n	10000814 <alarm_pool_alarm_callback+0x50>
10000812:	e070      	b.n	100008f6 <alarm_pool_alarm_callback+0x132>
10000814:	6892      	ldr	r2, [r2, #8]
10000816:	4b62      	ldr	r3, [pc, #392]	; (100009a0 <alarm_pool_alarm_callback+0x1dc>)
10000818:	4690      	mov	r8, r2
1000081a:	444b      	add	r3, r9
1000081c:	011b      	lsls	r3, r3, #4
1000081e:	4498      	add	r8, r3
10000820:	4643      	mov	r3, r8
10000822:	681a      	ldr	r2, [r3, #0]
10000824:	685b      	ldr	r3, [r3, #4]
10000826:	0010      	movs	r0, r2
10000828:	0019      	movs	r1, r3
1000082a:	1b80      	subs	r0, r0, r6
1000082c:	41b9      	sbcs	r1, r7
1000082e:	2900      	cmp	r1, #0
10000830:	dd68      	ble.n	10000904 <alarm_pool_alarm_callback+0x140>
10000832:	980b      	ldr	r0, [sp, #44]	; 0x2c
10000834:	f000 f9aa 	bl	10000b8c <hardware_alarm_set_target>
10000838:	2300      	movs	r3, #0
1000083a:	2600      	movs	r6, #0
1000083c:	4698      	mov	r8, r3
1000083e:	2700      	movs	r7, #0
10000840:	469a      	mov	sl, r3
10000842:	9c07      	ldr	r4, [sp, #28]
10000844:	6863      	ldr	r3, [r4, #4]
10000846:	f3bf 8f5f 	dmb	sy
1000084a:	465a      	mov	r2, fp
1000084c:	601a      	str	r2, [r3, #0]
1000084e:	f385 8810 	msr	PRIMASK, r5
10000852:	4653      	mov	r3, sl
10000854:	2b00      	cmp	r3, #0
10000856:	d108      	bne.n	1000086a <alarm_pool_alarm_callback+0xa6>
10000858:	2800      	cmp	r0, #0
1000085a:	d1c5      	bne.n	100007e8 <alarm_pool_alarm_callback+0x24>
1000085c:	b00d      	add	sp, #52	; 0x34
1000085e:	bc3c      	pop	{r2, r3, r4, r5}
10000860:	4690      	mov	r8, r2
10000862:	4699      	mov	r9, r3
10000864:	46a2      	mov	sl, r4
10000866:	46ab      	mov	fp, r5
10000868:	bdf0      	pop	{r4, r5, r6, r7, pc}
1000086a:	23d0      	movs	r3, #208	; 0xd0
1000086c:	2280      	movs	r2, #128	; 0x80
1000086e:	2180      	movs	r1, #128	; 0x80
10000870:	061b      	lsls	r3, r3, #24
10000872:	0392      	lsls	r2, r2, #14
10000874:	0309      	lsls	r1, r1, #12
10000876:	615a      	str	r2, [r3, #20]
10000878:	6199      	str	r1, [r3, #24]
1000087a:	619a      	str	r2, [r3, #24]
1000087c:	9b0a      	ldr	r3, [sp, #40]	; 0x28
1000087e:	4641      	mov	r1, r8
10000880:	0218      	lsls	r0, r3, #8
10000882:	464b      	mov	r3, r9
10000884:	4318      	orrs	r0, r3
10000886:	47d0      	blx	sl
10000888:	9008      	str	r0, [sp, #32]
1000088a:	9109      	str	r1, [sp, #36]	; 0x24
1000088c:	6862      	ldr	r2, [r4, #4]
1000088e:	f3ef 8510 	mrs	r5, PRIMASK
10000892:	b672      	cpsid	i
10000894:	6813      	ldr	r3, [r2, #0]
10000896:	2b00      	cmp	r3, #0
10000898:	d0fc      	beq.n	10000894 <alarm_pool_alarm_callback+0xd0>
1000089a:	9407      	str	r4, [sp, #28]
1000089c:	f3bf 8f5f 	dmb	sy
100008a0:	9908      	ldr	r1, [sp, #32]
100008a2:	9a09      	ldr	r2, [sp, #36]	; 0x24
100008a4:	2a00      	cmp	r2, #0
100008a6:	db49      	blt.n	1000093c <alarm_pool_alarm_callback+0x178>
100008a8:	4311      	orrs	r1, r2
100008aa:	d003      	beq.n	100008b4 <alarm_pool_alarm_callback+0xf0>
100008ac:	9b07      	ldr	r3, [sp, #28]
100008ae:	691b      	ldr	r3, [r3, #16]
100008b0:	2b00      	cmp	r3, #0
100008b2:	d15e      	bne.n	10000972 <alarm_pool_alarm_callback+0x1ae>
100008b4:	9b07      	ldr	r3, [sp, #28]
100008b6:	681b      	ldr	r3, [r3, #0]
100008b8:	7bda      	ldrb	r2, [r3, #15]
100008ba:	2a00      	cmp	r2, #0
100008bc:	d007      	beq.n	100008ce <alarm_pool_alarm_callback+0x10a>
100008be:	0051      	lsls	r1, r2, #1
100008c0:	188a      	adds	r2, r1, r2
100008c2:	6819      	ldr	r1, [r3, #0]
100008c4:	468c      	mov	ip, r1
100008c6:	4649      	mov	r1, r9
100008c8:	4462      	add	r2, ip
100008ca:	3a03      	subs	r2, #3
100008cc:	7051      	strb	r1, [r2, #1]
100008ce:	464a      	mov	r2, r9
100008d0:	73da      	strb	r2, [r3, #15]
100008d2:	464b      	mov	r3, r9
100008d4:	9a07      	ldr	r2, [sp, #28]
100008d6:	3b01      	subs	r3, #1
100008d8:	68d1      	ldr	r1, [r2, #12]
100008da:	5cca      	ldrb	r2, [r1, r3]
100008dc:	3201      	adds	r2, #1
100008de:	54ca      	strb	r2, [r1, r3]
100008e0:	465b      	mov	r3, fp
100008e2:	9a07      	ldr	r2, [sp, #28]
100008e4:	6113      	str	r3, [r2, #16]
100008e6:	6853      	ldr	r3, [r2, #4]
100008e8:	f3bf 8f5f 	dmb	sy
100008ec:	465a      	mov	r2, fp
100008ee:	601a      	str	r2, [r3, #0]
100008f0:	f385 8810 	msr	PRIMASK, r5
100008f4:	e778      	b.n	100007e8 <alarm_pool_alarm_callback+0x24>
100008f6:	2300      	movs	r3, #0
100008f8:	2600      	movs	r6, #0
100008fa:	4698      	mov	r8, r3
100008fc:	2700      	movs	r7, #0
100008fe:	469a      	mov	sl, r3
10000900:	2000      	movs	r0, #0
10000902:	e79e      	b.n	10000842 <alarm_pool_alarm_callback+0x7e>
10000904:	2900      	cmp	r1, #0
10000906:	d102      	bne.n	1000090e <alarm_pool_alarm_callback+0x14a>
10000908:	2800      	cmp	r0, #0
1000090a:	d000      	beq.n	1000090e <alarm_pool_alarm_callback+0x14a>
1000090c:	e791      	b.n	10000832 <alarm_pool_alarm_callback+0x6e>
1000090e:	2101      	movs	r1, #1
10000910:	0020      	movs	r0, r4
10000912:	f000 fafb 	bl	10000f0c <ph_remove_head_reserve>
10000916:	4643      	mov	r3, r8
10000918:	681e      	ldr	r6, [r3, #0]
1000091a:	685f      	ldr	r7, [r3, #4]
1000091c:	689b      	ldr	r3, [r3, #8]
1000091e:	9a07      	ldr	r2, [sp, #28]
10000920:	469a      	mov	sl, r3
10000922:	4643      	mov	r3, r8
10000924:	68db      	ldr	r3, [r3, #12]
10000926:	4698      	mov	r8, r3
10000928:	68d3      	ldr	r3, [r2, #12]
1000092a:	444b      	add	r3, r9
1000092c:	3b01      	subs	r3, #1
1000092e:	781b      	ldrb	r3, [r3, #0]
10000930:	930a      	str	r3, [sp, #40]	; 0x28
10000932:	021b      	lsls	r3, r3, #8
10000934:	4303      	orrs	r3, r0
10000936:	6113      	str	r3, [r2, #16]
10000938:	2000      	movs	r0, #0
1000093a:	e782      	b.n	10000842 <alarm_pool_alarm_callback+0x7e>
1000093c:	6923      	ldr	r3, [r4, #16]
1000093e:	2b00      	cmp	r3, #0
10000940:	d0b8      	beq.n	100008b4 <alarm_pool_alarm_callback+0xf0>
10000942:	0033      	movs	r3, r6
10000944:	003c      	movs	r4, r7
10000946:	1a5b      	subs	r3, r3, r1
10000948:	4194      	sbcs	r4, r2
1000094a:	001a      	movs	r2, r3
1000094c:	0023      	movs	r3, r4
1000094e:	42a7      	cmp	r7, r4
10000950:	d819      	bhi.n	10000986 <alarm_pool_alarm_callback+0x1c2>
10000952:	429f      	cmp	r7, r3
10000954:	d01b      	beq.n	1000098e <alarm_pool_alarm_callback+0x1ca>
10000956:	4659      	mov	r1, fp
10000958:	9104      	str	r1, [sp, #16]
1000095a:	2101      	movs	r1, #1
1000095c:	9103      	str	r1, [sp, #12]
1000095e:	4649      	mov	r1, r9
10000960:	9102      	str	r1, [sp, #8]
10000962:	4641      	mov	r1, r8
10000964:	9101      	str	r1, [sp, #4]
10000966:	4651      	mov	r1, sl
10000968:	9807      	ldr	r0, [sp, #28]
1000096a:	9100      	str	r1, [sp, #0]
1000096c:	f7ff fe94 	bl	10000698 <add_alarm_under_lock>
10000970:	e7b6      	b.n	100008e0 <alarm_pool_alarm_callback+0x11c>
10000972:	f000 f8bb 	bl	10000aec <time_us_64>
10000976:	9a08      	ldr	r2, [sp, #32]
10000978:	9b09      	ldr	r3, [sp, #36]	; 0x24
1000097a:	0006      	movs	r6, r0
1000097c:	000f      	movs	r7, r1
1000097e:	1992      	adds	r2, r2, r6
10000980:	417b      	adcs	r3, r7
10000982:	4299      	cmp	r1, r3
10000984:	d9e5      	bls.n	10000952 <alarm_pool_alarm_callback+0x18e>
10000986:	2201      	movs	r2, #1
10000988:	4252      	negs	r2, r2
1000098a:	17d3      	asrs	r3, r2, #31
1000098c:	e7e3      	b.n	10000956 <alarm_pool_alarm_callback+0x192>
1000098e:	4296      	cmp	r6, r2
10000990:	d9e1      	bls.n	10000956 <alarm_pool_alarm_callback+0x192>
10000992:	2201      	movs	r2, #1
10000994:	4252      	negs	r2, r2
10000996:	17d3      	asrs	r3, r2, #31
10000998:	e7dd      	b.n	10000956 <alarm_pool_alarm_callback+0x192>
1000099a:	46c0      	nop			; (mov r8, r8)
1000099c:	20000b90 	.word	0x20000b90
100009a0:	0fffffff 	.word	0x0fffffff

100009a4 <alarm_pool_init_default>:
100009a4:	b570      	push	{r4, r5, r6, lr}
100009a6:	4c18      	ldr	r4, [pc, #96]	; (10000a08 <alarm_pool_init_default+0x64>)
100009a8:	6823      	ldr	r3, [r4, #0]
100009aa:	2b00      	cmp	r3, #0
100009ac:	d000      	beq.n	100009b0 <alarm_pool_init_default+0xc>
100009ae:	bd70      	pop	{r4, r5, r6, pc}
100009b0:	2003      	movs	r0, #3
100009b2:	f000 f88f 	bl	10000ad4 <hardware_alarm_claim>
100009b6:	2003      	movs	r0, #3
100009b8:	f000 f94a 	bl	10000c50 <hardware_alarm_cancel>
100009bc:	4913      	ldr	r1, [pc, #76]	; (10000a0c <alarm_pool_init_default+0x68>)
100009be:	2003      	movs	r0, #3
100009c0:	f000 f89e 	bl	10000b00 <hardware_alarm_set_callback>
100009c4:	2018      	movs	r0, #24
100009c6:	f003 f9b1 	bl	10003d2c <__wrap_malloc>
100009ca:	0005      	movs	r5, r0
100009cc:	f7ff fdca 	bl	10000564 <next_striped_spin_lock_num>
100009d0:	4b0f      	ldr	r3, [pc, #60]	; (10000a10 <alarm_pool_init_default+0x6c>)
100009d2:	002a      	movs	r2, r5
100009d4:	469c      	mov	ip, r3
100009d6:	4460      	add	r0, ip
100009d8:	0080      	lsls	r0, r0, #2
100009da:	490e      	ldr	r1, [pc, #56]	; (10000a14 <alarm_pool_init_default+0x70>)
100009dc:	6068      	str	r0, [r5, #4]
100009de:	2010      	movs	r0, #16
100009e0:	f000 f99e 	bl	10000d20 <ph_create>
100009e4:	2110      	movs	r1, #16
100009e6:	6028      	str	r0, [r5, #0]
100009e8:	2010      	movs	r0, #16
100009ea:	f003 f9a3 	bl	10003d34 <__wrap_calloc>
100009ee:	2101      	movs	r1, #1
100009f0:	60a8      	str	r0, [r5, #8]
100009f2:	2010      	movs	r0, #16
100009f4:	f003 f99e 	bl	10003d34 <__wrap_calloc>
100009f8:	2303      	movs	r3, #3
100009fa:	752b      	strb	r3, [r5, #20]
100009fc:	4b06      	ldr	r3, [pc, #24]	; (10000a18 <alarm_pool_init_default+0x74>)
100009fe:	60e8      	str	r0, [r5, #12]
10000a00:	60dd      	str	r5, [r3, #12]
10000a02:	6025      	str	r5, [r4, #0]
10000a04:	e7d3      	b.n	100009ae <alarm_pool_init_default+0xa>
10000a06:	46c0      	nop			; (mov r8, r8)
10000a08:	20000afc 	.word	0x20000afc
10000a0c:	100007c5 	.word	0x100007c5
10000a10:	34000040 	.word	0x34000040
10000a14:	10000665 	.word	0x10000665
10000a18:	20000b90 	.word	0x20000b90

10000a1c <hardware_alarm_irq_handler>:
10000a1c:	b5f0      	push	{r4, r5, r6, r7, lr}
10000a1e:	46d6      	mov	lr, sl
10000a20:	464f      	mov	r7, r9
10000a22:	4646      	mov	r6, r8
10000a24:	b5c0      	push	{r6, r7, lr}
10000a26:	f3ef 8305 	mrs	r3, IPSR
10000a2a:	223f      	movs	r2, #63	; 0x3f
10000a2c:	4013      	ands	r3, r2
10000a2e:	0018      	movs	r0, r3
10000a30:	3810      	subs	r0, #16
10000a32:	f3ef 8c10 	mrs	ip, PRIMASK
10000a36:	b672      	cpsid	i
10000a38:	4d20      	ldr	r5, [pc, #128]	; (10000abc <hardware_alarm_irq_handler+0xa0>)
10000a3a:	682a      	ldr	r2, [r5, #0]
10000a3c:	2a00      	cmp	r2, #0
10000a3e:	d0fc      	beq.n	10000a3a <hardware_alarm_irq_handler+0x1e>
10000a40:	f3bf 8f5f 	dmb	sy
10000a44:	2201      	movs	r2, #1
10000a46:	0011      	movs	r1, r2
10000a48:	4081      	lsls	r1, r0
10000a4a:	4c1d      	ldr	r4, [pc, #116]	; (10000ac0 <hardware_alarm_irq_handler+0xa4>)
10000a4c:	4688      	mov	r8, r1
10000a4e:	6361      	str	r1, [r4, #52]	; 0x34
10000a50:	491c      	ldr	r1, [pc, #112]	; (10000ac4 <hardware_alarm_irq_handler+0xa8>)
10000a52:	0017      	movs	r7, r2
10000a54:	780e      	ldrb	r6, [r1, #0]
10000a56:	468a      	mov	sl, r1
10000a58:	0031      	movs	r1, r6
10000a5a:	40c1      	lsrs	r1, r0
10000a5c:	400f      	ands	r7, r1
10000a5e:	420a      	tst	r2, r1
10000a60:	d015      	beq.n	10000a8e <hardware_alarm_irq_handler+0x72>
10000a62:	4919      	ldr	r1, [pc, #100]	; (10000ac8 <hardware_alarm_irq_handler+0xac>)
10000a64:	0082      	lsls	r2, r0, #2
10000a66:	6a64      	ldr	r4, [r4, #36]	; 0x24
10000a68:	5851      	ldr	r1, [r2, r1]
10000a6a:	428c      	cmp	r4, r1
10000a6c:	d319      	bcc.n	10000aa2 <hardware_alarm_irq_handler+0x86>
10000a6e:	4b17      	ldr	r3, [pc, #92]	; (10000acc <hardware_alarm_irq_handler+0xb0>)
10000a70:	58d2      	ldr	r2, [r2, r3]
10000a72:	4643      	mov	r3, r8
10000a74:	439e      	bics	r6, r3
10000a76:	4653      	mov	r3, sl
10000a78:	701e      	strb	r6, [r3, #0]
10000a7a:	f3bf 8f5f 	dmb	sy
10000a7e:	2300      	movs	r3, #0
10000a80:	602b      	str	r3, [r5, #0]
10000a82:	f38c 8810 	msr	PRIMASK, ip
10000a86:	2a00      	cmp	r2, #0
10000a88:	d006      	beq.n	10000a98 <hardware_alarm_irq_handler+0x7c>
10000a8a:	4790      	blx	r2
10000a8c:	e004      	b.n	10000a98 <hardware_alarm_irq_handler+0x7c>
10000a8e:	f3bf 8f5f 	dmb	sy
10000a92:	602f      	str	r7, [r5, #0]
10000a94:	f38c 8810 	msr	PRIMASK, ip
10000a98:	bc1c      	pop	{r2, r3, r4}
10000a9a:	4690      	mov	r8, r2
10000a9c:	4699      	mov	r9, r3
10000a9e:	46a2      	mov	sl, r4
10000aa0:	bdf0      	pop	{r4, r5, r6, r7, pc}
10000aa2:	4a0b      	ldr	r2, [pc, #44]	; (10000ad0 <hardware_alarm_irq_handler+0xb4>)
10000aa4:	009b      	lsls	r3, r3, #2
10000aa6:	4690      	mov	r8, r2
10000aa8:	4443      	add	r3, r8
10000aaa:	681a      	ldr	r2, [r3, #0]
10000aac:	601a      	str	r2, [r3, #0]
10000aae:	f3bf 8f5f 	dmb	sy
10000ab2:	2300      	movs	r3, #0
10000ab4:	602b      	str	r3, [r5, #0]
10000ab6:	f38c 8810 	msr	PRIMASK, ip
10000aba:	e7ed      	b.n	10000a98 <hardware_alarm_irq_handler+0x7c>
10000abc:	d0000128 	.word	0xd0000128
10000ac0:	40054000 	.word	0x40054000
10000ac4:	20000bb2 	.word	0x20000bb2
10000ac8:	20000ba0 	.word	0x20000ba0
10000acc:	20000ac4 	.word	0x20000ac4
10000ad0:	40053fd0 	.word	0x40053fd0

10000ad4 <hardware_alarm_claim>:
10000ad4:	b510      	push	{r4, lr}
10000ad6:	0001      	movs	r1, r0
10000ad8:	4a02      	ldr	r2, [pc, #8]	; (10000ae4 <hardware_alarm_claim+0x10>)
10000ada:	4803      	ldr	r0, [pc, #12]	; (10000ae8 <hardware_alarm_claim+0x14>)
10000adc:	f7ff fd04 	bl	100004e8 <hw_claim_or_assert>
10000ae0:	bd10      	pop	{r4, pc}
10000ae2:	46c0      	nop			; (mov r8, r8)
10000ae4:	10004b74 	.word	0x10004b74
10000ae8:	20000bb0 	.word	0x20000bb0

10000aec <time_us_64>:
10000aec:	4b03      	ldr	r3, [pc, #12]	; (10000afc <time_us_64+0x10>)
10000aee:	6a59      	ldr	r1, [r3, #36]	; 0x24
10000af0:	000a      	movs	r2, r1
10000af2:	6a98      	ldr	r0, [r3, #40]	; 0x28
10000af4:	6a59      	ldr	r1, [r3, #36]	; 0x24
10000af6:	428a      	cmp	r2, r1
10000af8:	d1fa      	bne.n	10000af0 <time_us_64+0x4>
10000afa:	4770      	bx	lr
10000afc:	40054000 	.word	0x40054000

10000b00 <hardware_alarm_set_callback>:
10000b00:	b570      	push	{r4, r5, r6, lr}
10000b02:	0004      	movs	r4, r0
10000b04:	000d      	movs	r5, r1
10000b06:	f3ef 8610 	mrs	r6, PRIMASK
10000b0a:	b672      	cpsid	i
10000b0c:	4a1a      	ldr	r2, [pc, #104]	; (10000b78 <hardware_alarm_set_callback+0x78>)
10000b0e:	6813      	ldr	r3, [r2, #0]
10000b10:	2b00      	cmp	r3, #0
10000b12:	d0fc      	beq.n	10000b0e <hardware_alarm_set_callback+0xe>
10000b14:	f3bf 8f5f 	dmb	sy
10000b18:	2d00      	cmp	r5, #0
10000b1a:	d01b      	beq.n	10000b54 <hardware_alarm_set_callback+0x54>
10000b1c:	0020      	movs	r0, r4
10000b1e:	f000 fd4f 	bl	100015c0 <irq_get_vtable_handler>
10000b22:	4916      	ldr	r1, [pc, #88]	; (10000b7c <hardware_alarm_set_callback+0x7c>)
10000b24:	4281      	cmp	r1, r0
10000b26:	d00a      	beq.n	10000b3e <hardware_alarm_set_callback+0x3e>
10000b28:	0020      	movs	r0, r4
10000b2a:	f000 fd51 	bl	100015d0 <irq_set_exclusive_handler>
10000b2e:	2101      	movs	r1, #1
10000b30:	0020      	movs	r0, r4
10000b32:	f000 fd33 	bl	1000159c <irq_set_enabled>
10000b36:	2301      	movs	r3, #1
10000b38:	40a3      	lsls	r3, r4
10000b3a:	4a11      	ldr	r2, [pc, #68]	; (10000b80 <hardware_alarm_set_callback+0x80>)
10000b3c:	6013      	str	r3, [r2, #0]
10000b3e:	4b11      	ldr	r3, [pc, #68]	; (10000b84 <hardware_alarm_set_callback+0x84>)
10000b40:	00a4      	lsls	r4, r4, #2
10000b42:	50e5      	str	r5, [r4, r3]
10000b44:	f3bf 8f5f 	dmb	sy
10000b48:	2200      	movs	r2, #0
10000b4a:	4b0b      	ldr	r3, [pc, #44]	; (10000b78 <hardware_alarm_set_callback+0x78>)
10000b4c:	601a      	str	r2, [r3, #0]
10000b4e:	f386 8810 	msr	PRIMASK, r6
10000b52:	bd70      	pop	{r4, r5, r6, pc}
10000b54:	4b0b      	ldr	r3, [pc, #44]	; (10000b84 <hardware_alarm_set_callback+0x84>)
10000b56:	00a2      	lsls	r2, r4, #2
10000b58:	50d5      	str	r5, [r2, r3]
10000b5a:	2201      	movs	r2, #1
10000b5c:	40a2      	lsls	r2, r4
10000b5e:	490a      	ldr	r1, [pc, #40]	; (10000b88 <hardware_alarm_set_callback+0x88>)
10000b60:	0020      	movs	r0, r4
10000b62:	780b      	ldrb	r3, [r1, #0]
10000b64:	4393      	bics	r3, r2
10000b66:	700b      	strb	r3, [r1, #0]
10000b68:	4904      	ldr	r1, [pc, #16]	; (10000b7c <hardware_alarm_set_callback+0x7c>)
10000b6a:	f000 fd5b 	bl	10001624 <irq_remove_handler>
10000b6e:	2100      	movs	r1, #0
10000b70:	0020      	movs	r0, r4
10000b72:	f000 fd13 	bl	1000159c <irq_set_enabled>
10000b76:	e7e5      	b.n	10000b44 <hardware_alarm_set_callback+0x44>
10000b78:	d0000128 	.word	0xd0000128
10000b7c:	10000a1d 	.word	0x10000a1d
10000b80:	40056038 	.word	0x40056038
10000b84:	20000ac4 	.word	0x20000ac4
10000b88:	20000bb2 	.word	0x20000bb2

10000b8c <hardware_alarm_set_target>:
10000b8c:	b5f0      	push	{r4, r5, r6, r7, lr}
10000b8e:	46ce      	mov	lr, r9
10000b90:	4647      	mov	r7, r8
10000b92:	b580      	push	{r7, lr}
10000b94:	4c2a      	ldr	r4, [pc, #168]	; (10000c40 <hardware_alarm_set_target+0xb4>)
10000b96:	6a61      	ldr	r1, [r4, #36]	; 0x24
10000b98:	000d      	movs	r5, r1
10000b9a:	6aa6      	ldr	r6, [r4, #40]	; 0x28
10000b9c:	6a61      	ldr	r1, [r4, #36]	; 0x24
10000b9e:	42a9      	cmp	r1, r5
10000ba0:	d1fa      	bne.n	10000b98 <hardware_alarm_set_target+0xc>
10000ba2:	428b      	cmp	r3, r1
10000ba4:	d807      	bhi.n	10000bb6 <hardware_alarm_set_target+0x2a>
10000ba6:	d004      	beq.n	10000bb2 <hardware_alarm_set_target+0x26>
10000ba8:	2001      	movs	r0, #1
10000baa:	bc0c      	pop	{r2, r3}
10000bac:	4690      	mov	r8, r2
10000bae:	4699      	mov	r9, r3
10000bb0:	bdf0      	pop	{r4, r5, r6, r7, pc}
10000bb2:	42b2      	cmp	r2, r6
10000bb4:	d9f8      	bls.n	10000ba8 <hardware_alarm_set_target+0x1c>
10000bb6:	f3ef 8810 	mrs	r8, PRIMASK
10000bba:	b672      	cpsid	i
10000bbc:	4c21      	ldr	r4, [pc, #132]	; (10000c44 <hardware_alarm_set_target+0xb8>)
10000bbe:	6821      	ldr	r1, [r4, #0]
10000bc0:	2900      	cmp	r1, #0
10000bc2:	d0fc      	beq.n	10000bbe <hardware_alarm_set_target+0x32>
10000bc4:	f3bf 8f5f 	dmb	sy
10000bc8:	2501      	movs	r5, #1
10000bca:	4085      	lsls	r5, r0
10000bcc:	4c1c      	ldr	r4, [pc, #112]	; (10000c40 <hardware_alarm_set_target+0xb4>)
10000bce:	4e1e      	ldr	r6, [pc, #120]	; (10000c48 <hardware_alarm_set_target+0xbc>)
10000bd0:	6365      	str	r5, [r4, #52]	; 0x34
10000bd2:	b2e9      	uxtb	r1, r5
10000bd4:	468c      	mov	ip, r1
10000bd6:	7831      	ldrb	r1, [r6, #0]
10000bd8:	4689      	mov	r9, r1
10000bda:	4661      	mov	r1, ip
10000bdc:	464f      	mov	r7, r9
10000bde:	4339      	orrs	r1, r7
10000be0:	7031      	strb	r1, [r6, #0]
10000be2:	1d01      	adds	r1, r0, #4
10000be4:	0089      	lsls	r1, r1, #2
10000be6:	510a      	str	r2, [r1, r4]
10000be8:	4918      	ldr	r1, [pc, #96]	; (10000c4c <hardware_alarm_set_target+0xc0>)
10000bea:	0080      	lsls	r0, r0, #2
10000bec:	5043      	str	r3, [r0, r1]
10000bee:	6a21      	ldr	r1, [r4, #32]
10000bf0:	2000      	movs	r0, #0
10000bf2:	4229      	tst	r1, r5
10000bf4:	d00c      	beq.n	10000c10 <hardware_alarm_set_target+0x84>
10000bf6:	0020      	movs	r0, r4
10000bf8:	6a61      	ldr	r1, [r4, #36]	; 0x24
10000bfa:	000c      	movs	r4, r1
10000bfc:	6a87      	ldr	r7, [r0, #40]	; 0x28
10000bfe:	6a41      	ldr	r1, [r0, #36]	; 0x24
10000c00:	42a1      	cmp	r1, r4
10000c02:	d1fa      	bne.n	10000bfa <hardware_alarm_set_target+0x6e>
10000c04:	428b      	cmp	r3, r1
10000c06:	d802      	bhi.n	10000c0e <hardware_alarm_set_target+0x82>
10000c08:	d10a      	bne.n	10000c20 <hardware_alarm_set_target+0x94>
10000c0a:	42ba      	cmp	r2, r7
10000c0c:	d908      	bls.n	10000c20 <hardware_alarm_set_target+0x94>
10000c0e:	2000      	movs	r0, #0
10000c10:	f3bf 8f5f 	dmb	sy
10000c14:	2200      	movs	r2, #0
10000c16:	4b0b      	ldr	r3, [pc, #44]	; (10000c44 <hardware_alarm_set_target+0xb8>)
10000c18:	601a      	str	r2, [r3, #0]
10000c1a:	f388 8810 	msr	PRIMASK, r8
10000c1e:	e7c4      	b.n	10000baa <hardware_alarm_set_target+0x1e>
10000c20:	4b07      	ldr	r3, [pc, #28]	; (10000c40 <hardware_alarm_set_target+0xb4>)
10000c22:	464f      	mov	r7, r9
10000c24:	621d      	str	r5, [r3, #32]
10000c26:	635d      	str	r5, [r3, #52]	; 0x34
10000c28:	4663      	mov	r3, ip
10000c2a:	439f      	bics	r7, r3
10000c2c:	2001      	movs	r0, #1
10000c2e:	7037      	strb	r7, [r6, #0]
10000c30:	f3bf 8f5f 	dmb	sy
10000c34:	2200      	movs	r2, #0
10000c36:	4b03      	ldr	r3, [pc, #12]	; (10000c44 <hardware_alarm_set_target+0xb8>)
10000c38:	601a      	str	r2, [r3, #0]
10000c3a:	f388 8810 	msr	PRIMASK, r8
10000c3e:	e7b4      	b.n	10000baa <hardware_alarm_set_target+0x1e>
10000c40:	40054000 	.word	0x40054000
10000c44:	d0000128 	.word	0xd0000128
10000c48:	20000bb2 	.word	0x20000bb2
10000c4c:	20000ba0 	.word	0x20000ba0

10000c50 <hardware_alarm_cancel>:
10000c50:	b510      	push	{r4, lr}
10000c52:	f3ef 8410 	mrs	r4, PRIMASK
10000c56:	b672      	cpsid	i
10000c58:	490a      	ldr	r1, [pc, #40]	; (10000c84 <hardware_alarm_cancel+0x34>)
10000c5a:	680b      	ldr	r3, [r1, #0]
10000c5c:	2b00      	cmp	r3, #0
10000c5e:	d0fc      	beq.n	10000c5a <hardware_alarm_cancel+0xa>
10000c60:	f3bf 8f5f 	dmb	sy
10000c64:	2301      	movs	r3, #1
10000c66:	4083      	lsls	r3, r0
10000c68:	4a07      	ldr	r2, [pc, #28]	; (10000c88 <hardware_alarm_cancel+0x38>)
10000c6a:	4808      	ldr	r0, [pc, #32]	; (10000c8c <hardware_alarm_cancel+0x3c>)
10000c6c:	6213      	str	r3, [r2, #32]
10000c6e:	7802      	ldrb	r2, [r0, #0]
10000c70:	439a      	bics	r2, r3
10000c72:	7002      	strb	r2, [r0, #0]
10000c74:	f3bf 8f5f 	dmb	sy
10000c78:	2300      	movs	r3, #0
10000c7a:	600b      	str	r3, [r1, #0]
10000c7c:	f384 8810 	msr	PRIMASK, r4
10000c80:	bd10      	pop	{r4, pc}
10000c82:	46c0      	nop			; (mov r8, r8)
10000c84:	d0000128 	.word	0xd0000128
10000c88:	40054000 	.word	0x40054000
10000c8c:	20000bb2 	.word	0x20000bb2

10000c90 <lock_init>:
10000c90:	4b02      	ldr	r3, [pc, #8]	; (10000c9c <lock_init+0xc>)
10000c92:	469c      	mov	ip, r3
10000c94:	4461      	add	r1, ip
10000c96:	0089      	lsls	r1, r1, #2
10000c98:	6001      	str	r1, [r0, #0]
10000c9a:	4770      	bx	lr
10000c9c:	34000040 	.word	0x34000040

10000ca0 <mutex_init>:
10000ca0:	b510      	push	{r4, lr}
10000ca2:	0004      	movs	r4, r0
10000ca4:	f7ff fc5e 	bl	10000564 <next_striped_spin_lock_num>
10000ca8:	0001      	movs	r1, r0
10000caa:	0020      	movs	r0, r4
10000cac:	f7ff fff0 	bl	10000c90 <lock_init>
10000cb0:	f3bf 8f5f 	dmb	sy
10000cb4:	bd10      	pop	{r4, pc}
10000cb6:	46c0      	nop			; (mov r8, r8)

10000cb8 <ph_merge_nodes>:
10000cb8:	b570      	push	{r4, r5, r6, lr}
10000cba:	0005      	movs	r5, r0
10000cbc:	000e      	movs	r6, r1
10000cbe:	0014      	movs	r4, r2
10000cc0:	2900      	cmp	r1, #0
10000cc2:	d024      	beq.n	10000d0e <ph_merge_nodes+0x56>
10000cc4:	2a00      	cmp	r2, #0
10000cc6:	d024      	beq.n	10000d12 <ph_merge_nodes+0x5a>
10000cc8:	6880      	ldr	r0, [r0, #8]
10000cca:	686b      	ldr	r3, [r5, #4]
10000ccc:	4798      	blx	r3
10000cce:	6829      	ldr	r1, [r5, #0]
10000cd0:	2800      	cmp	r0, #0
10000cd2:	d00e      	beq.n	10000cf2 <ph_merge_nodes+0x3a>
10000cd4:	0063      	lsls	r3, r4, #1
10000cd6:	191b      	adds	r3, r3, r4
10000cd8:	0072      	lsls	r2, r6, #1
10000cda:	3b03      	subs	r3, #3
10000cdc:	1992      	adds	r2, r2, r6
10000cde:	18cb      	adds	r3, r1, r3
10000ce0:	3a03      	subs	r2, #3
10000ce2:	709e      	strb	r6, [r3, #2]
10000ce4:	1888      	adds	r0, r1, r2
10000ce6:	5c8a      	ldrb	r2, [r1, r2]
10000ce8:	2a00      	cmp	r2, #0
10000cea:	d114      	bne.n	10000d16 <ph_merge_nodes+0x5e>
10000cec:	7004      	strb	r4, [r0, #0]
10000cee:	0030      	movs	r0, r6
10000cf0:	e00e      	b.n	10000d10 <ph_merge_nodes+0x58>
10000cf2:	0073      	lsls	r3, r6, #1
10000cf4:	199b      	adds	r3, r3, r6
10000cf6:	0062      	lsls	r2, r4, #1
10000cf8:	3b03      	subs	r3, #3
10000cfa:	1912      	adds	r2, r2, r4
10000cfc:	18cb      	adds	r3, r1, r3
10000cfe:	3a03      	subs	r2, #3
10000d00:	709c      	strb	r4, [r3, #2]
10000d02:	1888      	adds	r0, r1, r2
10000d04:	5c8a      	ldrb	r2, [r1, r2]
10000d06:	2a00      	cmp	r2, #0
10000d08:	d000      	beq.n	10000d0c <ph_merge_nodes+0x54>
10000d0a:	705a      	strb	r2, [r3, #1]
10000d0c:	7006      	strb	r6, [r0, #0]
10000d0e:	0020      	movs	r0, r4
10000d10:	bd70      	pop	{r4, r5, r6, pc}
10000d12:	0008      	movs	r0, r1
10000d14:	e7fc      	b.n	10000d10 <ph_merge_nodes+0x58>
10000d16:	705a      	strb	r2, [r3, #1]
10000d18:	7004      	strb	r4, [r0, #0]
10000d1a:	0030      	movs	r0, r6
10000d1c:	e7f8      	b.n	10000d10 <ph_merge_nodes+0x58>
10000d1e:	46c0      	nop			; (mov r8, r8)

10000d20 <ph_create>:
10000d20:	b5f0      	push	{r4, r5, r6, r7, lr}
10000d22:	46c6      	mov	lr, r8
10000d24:	0005      	movs	r5, r0
10000d26:	000f      	movs	r7, r1
10000d28:	b500      	push	{lr}
10000d2a:	2110      	movs	r1, #16
10000d2c:	2001      	movs	r0, #1
10000d2e:	0016      	movs	r6, r2
10000d30:	f003 f800 	bl	10003d34 <__wrap_calloc>
10000d34:	b2eb      	uxtb	r3, r5
10000d36:	0004      	movs	r4, r0
10000d38:	7303      	strb	r3, [r0, #12]
10000d3a:	2103      	movs	r1, #3
10000d3c:	6047      	str	r7, [r0, #4]
10000d3e:	0028      	movs	r0, r5
10000d40:	4698      	mov	r8, r3
10000d42:	f002 fff7 	bl	10003d34 <__wrap_calloc>
10000d46:	2300      	movs	r3, #0
10000d48:	7363      	strb	r3, [r4, #13]
10000d4a:	3301      	adds	r3, #1
10000d4c:	73a3      	strb	r3, [r4, #14]
10000d4e:	4643      	mov	r3, r8
10000d50:	21ff      	movs	r1, #255	; 0xff
10000d52:	73e3      	strb	r3, [r4, #15]
10000d54:	23fe      	movs	r3, #254	; 0xfe
10000d56:	6020      	str	r0, [r4, #0]
10000d58:	60a6      	str	r6, [r4, #8]
10000d5a:	4029      	ands	r1, r5
10000d5c:	422b      	tst	r3, r5
10000d5e:	d006      	beq.n	10000d6e <ph_create+0x4e>
10000d60:	1c42      	adds	r2, r0, #1
10000d62:	3bfd      	subs	r3, #253	; 0xfd
10000d64:	3301      	adds	r3, #1
10000d66:	7013      	strb	r3, [r2, #0]
10000d68:	3203      	adds	r2, #3
10000d6a:	428b      	cmp	r3, r1
10000d6c:	d3fa      	bcc.n	10000d64 <ph_create+0x44>
10000d6e:	004b      	lsls	r3, r1, #1
10000d70:	1859      	adds	r1, r3, r1
10000d72:	2300      	movs	r3, #0
10000d74:	1840      	adds	r0, r0, r1
10000d76:	3803      	subs	r0, #3
10000d78:	7043      	strb	r3, [r0, #1]
10000d7a:	0020      	movs	r0, r4
10000d7c:	bc04      	pop	{r2}
10000d7e:	4690      	mov	r8, r2
10000d80:	bdf0      	pop	{r4, r5, r6, r7, pc}
10000d82:	46c0      	nop			; (mov r8, r8)

10000d84 <ph_merge_two_pass>:
10000d84:	b5f8      	push	{r3, r4, r5, r6, r7, lr}
10000d86:	46ce      	mov	lr, r9
10000d88:	4647      	mov	r7, r8
10000d8a:	0006      	movs	r6, r0
10000d8c:	000c      	movs	r4, r1
10000d8e:	b580      	push	{r7, lr}
10000d90:	2900      	cmp	r1, #0
10000d92:	d007      	beq.n	10000da4 <ph_merge_two_pass+0x20>
10000d94:	004d      	lsls	r5, r1, #1
10000d96:	6803      	ldr	r3, [r0, #0]
10000d98:	186d      	adds	r5, r5, r1
10000d9a:	3d03      	subs	r5, #3
10000d9c:	195a      	adds	r2, r3, r5
10000d9e:	7857      	ldrb	r7, [r2, #1]
10000da0:	2f00      	cmp	r7, #0
10000da2:	d104      	bne.n	10000dae <ph_merge_two_pass+0x2a>
10000da4:	0020      	movs	r0, r4
10000da6:	bc0c      	pop	{r2, r3}
10000da8:	4690      	mov	r8, r2
10000daa:	4699      	mov	r9, r3
10000dac:	bdf8      	pop	{r3, r4, r5, r6, r7, pc}
10000dae:	0079      	lsls	r1, r7, #1
10000db0:	19c9      	adds	r1, r1, r7
10000db2:	3903      	subs	r1, #3
10000db4:	4688      	mov	r8, r1
10000db6:	4443      	add	r3, r8
10000db8:	7859      	ldrb	r1, [r3, #1]
10000dba:	4689      	mov	r9, r1
10000dbc:	2100      	movs	r1, #0
10000dbe:	7059      	strb	r1, [r3, #1]
10000dc0:	7051      	strb	r1, [r2, #1]
10000dc2:	6873      	ldr	r3, [r6, #4]
10000dc4:	003a      	movs	r2, r7
10000dc6:	0021      	movs	r1, r4
10000dc8:	6880      	ldr	r0, [r0, #8]
10000dca:	4798      	blx	r3
10000dcc:	6833      	ldr	r3, [r6, #0]
10000dce:	2800      	cmp	r0, #0
10000dd0:	d014      	beq.n	10000dfc <ph_merge_two_pass+0x78>
10000dd2:	4642      	mov	r2, r8
10000dd4:	189a      	adds	r2, r3, r2
10000dd6:	7094      	strb	r4, [r2, #2]
10000dd8:	1959      	adds	r1, r3, r5
10000dda:	5d5b      	ldrb	r3, [r3, r5]
10000ddc:	2b00      	cmp	r3, #0
10000dde:	d000      	beq.n	10000de2 <ph_merge_two_pass+0x5e>
10000de0:	7053      	strb	r3, [r2, #1]
10000de2:	700f      	strb	r7, [r1, #0]
10000de4:	0027      	movs	r7, r4
10000de6:	4649      	mov	r1, r9
10000de8:	0030      	movs	r0, r6
10000dea:	f7ff ffcb 	bl	10000d84 <ph_merge_two_pass>
10000dee:	0039      	movs	r1, r7
10000df0:	0002      	movs	r2, r0
10000df2:	0030      	movs	r0, r6
10000df4:	f7ff ff60 	bl	10000cb8 <ph_merge_nodes>
10000df8:	0004      	movs	r4, r0
10000dfa:	e7d3      	b.n	10000da4 <ph_merge_two_pass+0x20>
10000dfc:	4642      	mov	r2, r8
10000dfe:	4641      	mov	r1, r8
10000e00:	195d      	adds	r5, r3, r5
10000e02:	70af      	strb	r7, [r5, #2]
10000e04:	189a      	adds	r2, r3, r2
10000e06:	5c5b      	ldrb	r3, [r3, r1]
10000e08:	2b00      	cmp	r3, #0
10000e0a:	d000      	beq.n	10000e0e <ph_merge_two_pass+0x8a>
10000e0c:	706b      	strb	r3, [r5, #1]
10000e0e:	7014      	strb	r4, [r2, #0]
10000e10:	e7e9      	b.n	10000de6 <ph_merge_two_pass+0x62>
10000e12:	46c0      	nop			; (mov r8, r8)

10000e14 <ph_remove_any_head>:
10000e14:	b5f0      	push	{r4, r5, r6, r7, lr}
10000e16:	4657      	mov	r7, sl
10000e18:	4645      	mov	r5, r8
10000e1a:	46de      	mov	lr, fp
10000e1c:	464e      	mov	r6, r9
10000e1e:	b5e0      	push	{r5, r6, r7, lr}
10000e20:	000d      	movs	r5, r1
10000e22:	006b      	lsls	r3, r5, #1
10000e24:	6801      	ldr	r1, [r0, #0]
10000e26:	195b      	adds	r3, r3, r5
10000e28:	1edf      	subs	r7, r3, #3
10000e2a:	0004      	movs	r4, r0
10000e2c:	5dc8      	ldrb	r0, [r1, r7]
10000e2e:	b083      	sub	sp, #12
10000e30:	9201      	str	r2, [sp, #4]
10000e32:	19ca      	adds	r2, r1, r7
10000e34:	2800      	cmp	r0, #0
10000e36:	d04c      	beq.n	10000ed2 <ph_remove_any_head+0xbe>
10000e38:	0043      	lsls	r3, r0, #1
10000e3a:	181b      	adds	r3, r3, r0
10000e3c:	3b03      	subs	r3, #3
10000e3e:	18cb      	adds	r3, r1, r3
10000e40:	785e      	ldrb	r6, [r3, #1]
10000e42:	46b4      	mov	ip, r6
10000e44:	2e00      	cmp	r6, #0
10000e46:	d116      	bne.n	10000e76 <ph_remove_any_head+0x62>
10000e48:	9e01      	ldr	r6, [sp, #4]
10000e4a:	2e00      	cmp	r6, #0
10000e4c:	d13e      	bne.n	10000ecc <ph_remove_any_head+0xb8>
10000e4e:	7be6      	ldrb	r6, [r4, #15]
10000e50:	2e00      	cmp	r6, #0
10000e52:	d004      	beq.n	10000e5e <ph_remove_any_head+0x4a>
10000e54:	0073      	lsls	r3, r6, #1
10000e56:	199b      	adds	r3, r3, r6
10000e58:	18cb      	adds	r3, r1, r3
10000e5a:	3b03      	subs	r3, #3
10000e5c:	705d      	strb	r5, [r3, #1]
10000e5e:	73e5      	strb	r5, [r4, #15]
10000e60:	2800      	cmp	r0, #0
10000e62:	d12f      	bne.n	10000ec4 <ph_remove_any_head+0xb0>
10000e64:	2300      	movs	r3, #0
10000e66:	7053      	strb	r3, [r2, #1]
10000e68:	b003      	add	sp, #12
10000e6a:	bc3c      	pop	{r2, r3, r4, r5}
10000e6c:	4690      	mov	r8, r2
10000e6e:	4699      	mov	r9, r3
10000e70:	46a2      	mov	sl, r4
10000e72:	46ab      	mov	fp, r5
10000e74:	bdf0      	pop	{r4, r5, r6, r7, pc}
10000e76:	0072      	lsls	r2, r6, #1
10000e78:	4462      	add	r2, ip
10000e7a:	3a03      	subs	r2, #3
10000e7c:	1889      	adds	r1, r1, r2
10000e7e:	784a      	ldrb	r2, [r1, #1]
10000e80:	4690      	mov	r8, r2
10000e82:	2200      	movs	r2, #0
10000e84:	704a      	strb	r2, [r1, #1]
10000e86:	4691      	mov	r9, r2
10000e88:	705a      	strb	r2, [r3, #1]
10000e8a:	0001      	movs	r1, r0
10000e8c:	0032      	movs	r2, r6
10000e8e:	0020      	movs	r0, r4
10000e90:	f7ff ff12 	bl	10000cb8 <ph_merge_nodes>
10000e94:	4643      	mov	r3, r8
10000e96:	4682      	mov	sl, r0
10000e98:	2b00      	cmp	r3, #0
10000e9a:	d007      	beq.n	10000eac <ph_remove_any_head+0x98>
10000e9c:	005b      	lsls	r3, r3, #1
10000e9e:	6821      	ldr	r1, [r4, #0]
10000ea0:	4443      	add	r3, r8
10000ea2:	3b03      	subs	r3, #3
10000ea4:	18cb      	adds	r3, r1, r3
10000ea6:	785a      	ldrb	r2, [r3, #1]
10000ea8:	2a00      	cmp	r2, #0
10000eaa:	d116      	bne.n	10000eda <ph_remove_any_head+0xc6>
10000eac:	4642      	mov	r2, r8
10000eae:	4651      	mov	r1, sl
10000eb0:	0020      	movs	r0, r4
10000eb2:	f7ff ff01 	bl	10000cb8 <ph_merge_nodes>
10000eb6:	6821      	ldr	r1, [r4, #0]
10000eb8:	9b01      	ldr	r3, [sp, #4]
10000eba:	19ca      	adds	r2, r1, r7
10000ebc:	2b00      	cmp	r3, #0
10000ebe:	d0c6      	beq.n	10000e4e <ph_remove_any_head+0x3a>
10000ec0:	2800      	cmp	r0, #0
10000ec2:	d0cf      	beq.n	10000e64 <ph_remove_any_head+0x50>
10000ec4:	0043      	lsls	r3, r0, #1
10000ec6:	181b      	adds	r3, r3, r0
10000ec8:	3b03      	subs	r3, #3
10000eca:	18cb      	adds	r3, r1, r3
10000ecc:	2100      	movs	r1, #0
10000ece:	7099      	strb	r1, [r3, #2]
10000ed0:	e7c8      	b.n	10000e64 <ph_remove_any_head+0x50>
10000ed2:	9b01      	ldr	r3, [sp, #4]
10000ed4:	2b00      	cmp	r3, #0
10000ed6:	d1c5      	bne.n	10000e64 <ph_remove_any_head+0x50>
10000ed8:	e7b9      	b.n	10000e4e <ph_remove_any_head+0x3a>
10000eda:	0050      	lsls	r0, r2, #1
10000edc:	1880      	adds	r0, r0, r2
10000ede:	3803      	subs	r0, #3
10000ee0:	1809      	adds	r1, r1, r0
10000ee2:	7848      	ldrb	r0, [r1, #1]
10000ee4:	4683      	mov	fp, r0
10000ee6:	4648      	mov	r0, r9
10000ee8:	7048      	strb	r0, [r1, #1]
10000eea:	7058      	strb	r0, [r3, #1]
10000eec:	4641      	mov	r1, r8
10000eee:	0020      	movs	r0, r4
10000ef0:	f7ff fee2 	bl	10000cb8 <ph_merge_nodes>
10000ef4:	4659      	mov	r1, fp
10000ef6:	4680      	mov	r8, r0
10000ef8:	0020      	movs	r0, r4
10000efa:	f7ff ff43 	bl	10000d84 <ph_merge_two_pass>
10000efe:	4641      	mov	r1, r8
10000f00:	0002      	movs	r2, r0
10000f02:	0020      	movs	r0, r4
10000f04:	f7ff fed8 	bl	10000cb8 <ph_merge_nodes>
10000f08:	4680      	mov	r8, r0
10000f0a:	e7cf      	b.n	10000eac <ph_remove_any_head+0x98>

10000f0c <ph_remove_head_reserve>:
10000f0c:	b5f0      	push	{r4, r5, r6, r7, lr}
10000f0e:	464e      	mov	r6, r9
10000f10:	4645      	mov	r5, r8
10000f12:	46de      	mov	lr, fp
10000f14:	4657      	mov	r7, sl
10000f16:	b5e0      	push	{r5, r6, r7, lr}
10000f18:	7b46      	ldrb	r6, [r0, #13]
10000f1a:	0004      	movs	r4, r0
10000f1c:	0075      	lsls	r5, r6, #1
10000f1e:	6800      	ldr	r0, [r0, #0]
10000f20:	19ad      	adds	r5, r5, r6
10000f22:	3d03      	subs	r5, #3
10000f24:	b083      	sub	sp, #12
10000f26:	9101      	str	r1, [sp, #4]
10000f28:	5d41      	ldrb	r1, [r0, r5]
10000f2a:	1942      	adds	r2, r0, r5
10000f2c:	2900      	cmp	r1, #0
10000f2e:	d04e      	beq.n	10000fce <ph_remove_head_reserve+0xc2>
10000f30:	004b      	lsls	r3, r1, #1
10000f32:	185b      	adds	r3, r3, r1
10000f34:	3b03      	subs	r3, #3
10000f36:	18c3      	adds	r3, r0, r3
10000f38:	785f      	ldrb	r7, [r3, #1]
10000f3a:	46bc      	mov	ip, r7
10000f3c:	2f00      	cmp	r7, #0
10000f3e:	d118      	bne.n	10000f72 <ph_remove_head_reserve+0x66>
10000f40:	9d01      	ldr	r5, [sp, #4]
10000f42:	2d00      	cmp	r5, #0
10000f44:	d140      	bne.n	10000fc8 <ph_remove_head_reserve+0xbc>
10000f46:	7be5      	ldrb	r5, [r4, #15]
10000f48:	2d00      	cmp	r5, #0
10000f4a:	d004      	beq.n	10000f56 <ph_remove_head_reserve+0x4a>
10000f4c:	006b      	lsls	r3, r5, #1
10000f4e:	195b      	adds	r3, r3, r5
10000f50:	18c3      	adds	r3, r0, r3
10000f52:	3b03      	subs	r3, #3
10000f54:	705e      	strb	r6, [r3, #1]
10000f56:	73e6      	strb	r6, [r4, #15]
10000f58:	2900      	cmp	r1, #0
10000f5a:	d131      	bne.n	10000fc0 <ph_remove_head_reserve+0xb4>
10000f5c:	2300      	movs	r3, #0
10000f5e:	0030      	movs	r0, r6
10000f60:	7053      	strb	r3, [r2, #1]
10000f62:	7361      	strb	r1, [r4, #13]
10000f64:	b003      	add	sp, #12
10000f66:	bc3c      	pop	{r2, r3, r4, r5}
10000f68:	4690      	mov	r8, r2
10000f6a:	4699      	mov	r9, r3
10000f6c:	46a2      	mov	sl, r4
10000f6e:	46ab      	mov	fp, r5
10000f70:	bdf0      	pop	{r4, r5, r6, r7, pc}
10000f72:	007a      	lsls	r2, r7, #1
10000f74:	4462      	add	r2, ip
10000f76:	3a03      	subs	r2, #3
10000f78:	1880      	adds	r0, r0, r2
10000f7a:	7842      	ldrb	r2, [r0, #1]
10000f7c:	4693      	mov	fp, r2
10000f7e:	2200      	movs	r2, #0
10000f80:	7042      	strb	r2, [r0, #1]
10000f82:	4691      	mov	r9, r2
10000f84:	705a      	strb	r2, [r3, #1]
10000f86:	0020      	movs	r0, r4
10000f88:	003a      	movs	r2, r7
10000f8a:	f7ff fe95 	bl	10000cb8 <ph_merge_nodes>
10000f8e:	465b      	mov	r3, fp
10000f90:	4680      	mov	r8, r0
10000f92:	2b00      	cmp	r3, #0
10000f94:	d007      	beq.n	10000fa6 <ph_remove_head_reserve+0x9a>
10000f96:	005b      	lsls	r3, r3, #1
10000f98:	6821      	ldr	r1, [r4, #0]
10000f9a:	445b      	add	r3, fp
10000f9c:	3b03      	subs	r3, #3
10000f9e:	18cb      	adds	r3, r1, r3
10000fa0:	785a      	ldrb	r2, [r3, #1]
10000fa2:	2a00      	cmp	r2, #0
10000fa4:	d117      	bne.n	10000fd6 <ph_remove_head_reserve+0xca>
10000fa6:	465a      	mov	r2, fp
10000fa8:	4641      	mov	r1, r8
10000faa:	0020      	movs	r0, r4
10000fac:	f7ff fe84 	bl	10000cb8 <ph_merge_nodes>
10000fb0:	9b01      	ldr	r3, [sp, #4]
10000fb2:	0001      	movs	r1, r0
10000fb4:	6820      	ldr	r0, [r4, #0]
10000fb6:	1942      	adds	r2, r0, r5
10000fb8:	2b00      	cmp	r3, #0
10000fba:	d0c4      	beq.n	10000f46 <ph_remove_head_reserve+0x3a>
10000fbc:	2900      	cmp	r1, #0
10000fbe:	d0cd      	beq.n	10000f5c <ph_remove_head_reserve+0x50>
10000fc0:	004b      	lsls	r3, r1, #1
10000fc2:	185b      	adds	r3, r3, r1
10000fc4:	3b03      	subs	r3, #3
10000fc6:	18c3      	adds	r3, r0, r3
10000fc8:	2000      	movs	r0, #0
10000fca:	7098      	strb	r0, [r3, #2]
10000fcc:	e7c6      	b.n	10000f5c <ph_remove_head_reserve+0x50>
10000fce:	9b01      	ldr	r3, [sp, #4]
10000fd0:	2b00      	cmp	r3, #0
10000fd2:	d1c3      	bne.n	10000f5c <ph_remove_head_reserve+0x50>
10000fd4:	e7b7      	b.n	10000f46 <ph_remove_head_reserve+0x3a>
10000fd6:	0050      	lsls	r0, r2, #1
10000fd8:	1880      	adds	r0, r0, r2
10000fda:	3803      	subs	r0, #3
10000fdc:	1809      	adds	r1, r1, r0
10000fde:	7848      	ldrb	r0, [r1, #1]
10000fe0:	4682      	mov	sl, r0
10000fe2:	4648      	mov	r0, r9
10000fe4:	7048      	strb	r0, [r1, #1]
10000fe6:	7058      	strb	r0, [r3, #1]
10000fe8:	4659      	mov	r1, fp
10000fea:	0020      	movs	r0, r4
10000fec:	f7ff fe64 	bl	10000cb8 <ph_merge_nodes>
10000ff0:	4653      	mov	r3, sl
10000ff2:	4683      	mov	fp, r0
10000ff4:	2b00      	cmp	r3, #0
10000ff6:	d007      	beq.n	10001008 <ph_remove_head_reserve+0xfc>
10000ff8:	005b      	lsls	r3, r3, #1
10000ffa:	6821      	ldr	r1, [r4, #0]
10000ffc:	4453      	add	r3, sl
10000ffe:	3b03      	subs	r3, #3
10001000:	18cb      	adds	r3, r1, r3
10001002:	785a      	ldrb	r2, [r3, #1]
10001004:	2a00      	cmp	r2, #0
10001006:	d106      	bne.n	10001016 <ph_remove_head_reserve+0x10a>
10001008:	4659      	mov	r1, fp
1000100a:	4652      	mov	r2, sl
1000100c:	0020      	movs	r0, r4
1000100e:	f7ff fe53 	bl	10000cb8 <ph_merge_nodes>
10001012:	4683      	mov	fp, r0
10001014:	e7c7      	b.n	10000fa6 <ph_remove_head_reserve+0x9a>
10001016:	0050      	lsls	r0, r2, #1
10001018:	1880      	adds	r0, r0, r2
1000101a:	3803      	subs	r0, #3
1000101c:	1809      	adds	r1, r1, r0
1000101e:	4648      	mov	r0, r9
10001020:	784f      	ldrb	r7, [r1, #1]
10001022:	7048      	strb	r0, [r1, #1]
10001024:	7058      	strb	r0, [r3, #1]
10001026:	4651      	mov	r1, sl
10001028:	0020      	movs	r0, r4
1000102a:	f7ff fe45 	bl	10000cb8 <ph_merge_nodes>
1000102e:	0039      	movs	r1, r7
10001030:	4681      	mov	r9, r0
10001032:	0020      	movs	r0, r4
10001034:	f7ff fea6 	bl	10000d84 <ph_merge_two_pass>
10001038:	4649      	mov	r1, r9
1000103a:	0002      	movs	r2, r0
1000103c:	0020      	movs	r0, r4
1000103e:	f7ff fe3b 	bl	10000cb8 <ph_merge_nodes>
10001042:	4682      	mov	sl, r0
10001044:	e7e0      	b.n	10001008 <ph_remove_head_reserve+0xfc>
10001046:	46c0      	nop			; (mov r8, r8)

10001048 <ph_delete>:
10001048:	b570      	push	{r4, r5, r6, lr}
1000104a:	0004      	movs	r4, r0
1000104c:	2900      	cmp	r1, #0
1000104e:	d02c      	beq.n	100010aa <ph_delete+0x62>
10001050:	7b43      	ldrb	r3, [r0, #13]
10001052:	428b      	cmp	r3, r1
10001054:	d02e      	beq.n	100010b4 <ph_delete+0x6c>
10001056:	6805      	ldr	r5, [r0, #0]
10001058:	0048      	lsls	r0, r1, #1
1000105a:	1840      	adds	r0, r0, r1
1000105c:	3803      	subs	r0, #3
1000105e:	1828      	adds	r0, r5, r0
10001060:	7882      	ldrb	r2, [r0, #2]
10001062:	2a00      	cmp	r2, #0
10001064:	d021      	beq.n	100010aa <ph_delete+0x62>
10001066:	0053      	lsls	r3, r2, #1
10001068:	189b      	adds	r3, r3, r2
1000106a:	3b03      	subs	r3, #3
1000106c:	5cea      	ldrb	r2, [r5, r3]
1000106e:	18ee      	adds	r6, r5, r3
10001070:	428a      	cmp	r2, r1
10001072:	d102      	bne.n	1000107a <ph_delete+0x32>
10001074:	e01b      	b.n	100010ae <ph_delete+0x66>
10001076:	2a00      	cmp	r2, #0
10001078:	d008      	beq.n	1000108c <ph_delete+0x44>
1000107a:	0053      	lsls	r3, r2, #1
1000107c:	189b      	adds	r3, r3, r2
1000107e:	3b03      	subs	r3, #3
10001080:	18eb      	adds	r3, r5, r3
10001082:	785a      	ldrb	r2, [r3, #1]
10001084:	428a      	cmp	r2, r1
10001086:	d1f6      	bne.n	10001076 <ph_delete+0x2e>
10001088:	7842      	ldrb	r2, [r0, #1]
1000108a:	705a      	strb	r2, [r3, #1]
1000108c:	2300      	movs	r3, #0
1000108e:	2200      	movs	r2, #0
10001090:	7083      	strb	r3, [r0, #2]
10001092:	7043      	strb	r3, [r0, #1]
10001094:	0020      	movs	r0, r4
10001096:	f7ff febd 	bl	10000e14 <ph_remove_any_head>
1000109a:	7b61      	ldrb	r1, [r4, #13]
1000109c:	0002      	movs	r2, r0
1000109e:	0020      	movs	r0, r4
100010a0:	f7ff fe0a 	bl	10000cb8 <ph_merge_nodes>
100010a4:	7360      	strb	r0, [r4, #13]
100010a6:	2001      	movs	r0, #1
100010a8:	e000      	b.n	100010ac <ph_delete+0x64>
100010aa:	2000      	movs	r0, #0
100010ac:	bd70      	pop	{r4, r5, r6, pc}
100010ae:	7843      	ldrb	r3, [r0, #1]
100010b0:	7033      	strb	r3, [r6, #0]
100010b2:	e7eb      	b.n	1000108c <ph_delete+0x44>
100010b4:	2200      	movs	r2, #0
100010b6:	0019      	movs	r1, r3
100010b8:	f7ff feac 	bl	10000e14 <ph_remove_any_head>
100010bc:	7360      	strb	r0, [r4, #13]
100010be:	2001      	movs	r0, #1
100010c0:	e7f4      	b.n	100010ac <ph_delete+0x64>
100010c2:	46c0      	nop			; (mov r8, r8)

100010c4 <runtime_init>:
100010c4:	4b2b      	ldr	r3, [pc, #172]	; (10001174 <runtime_init+0xb0>)
100010c6:	4a2c      	ldr	r2, [pc, #176]	; (10001178 <runtime_init+0xb4>)
100010c8:	b570      	push	{r4, r5, r6, lr}
100010ca:	601a      	str	r2, [r3, #0]
100010cc:	4a2b      	ldr	r2, [pc, #172]	; (1000117c <runtime_init+0xb8>)
100010ce:	4b2c      	ldr	r3, [pc, #176]	; (10001180 <runtime_init+0xbc>)
100010d0:	492c      	ldr	r1, [pc, #176]	; (10001184 <runtime_init+0xc0>)
100010d2:	601a      	str	r2, [r3, #0]
100010d4:	0010      	movs	r0, r2
100010d6:	688b      	ldr	r3, [r1, #8]
100010d8:	4398      	bics	r0, r3
100010da:	d1fb      	bne.n	100010d4 <runtime_init+0x10>
100010dc:	4c2a      	ldr	r4, [pc, #168]	; (10001188 <runtime_init+0xc4>)
100010de:	4b2b      	ldr	r3, [pc, #172]	; (1000118c <runtime_init+0xc8>)
100010e0:	429c      	cmp	r4, r3
100010e2:	d209      	bcs.n	100010f8 <runtime_init+0x34>
100010e4:	3b01      	subs	r3, #1
100010e6:	1b1d      	subs	r5, r3, r4
100010e8:	08ad      	lsrs	r5, r5, #2
100010ea:	3501      	adds	r5, #1
100010ec:	00ad      	lsls	r5, r5, #2
100010ee:	192d      	adds	r5, r5, r4
100010f0:	cc08      	ldmia	r4!, {r3}
100010f2:	4798      	blx	r3
100010f4:	42ac      	cmp	r4, r5
100010f6:	d1fb      	bne.n	100010f0 <runtime_init+0x2c>
100010f8:	f000 f894 	bl	10001224 <clocks_init>
100010fc:	4a24      	ldr	r2, [pc, #144]	; (10001190 <runtime_init+0xcc>)
100010fe:	4b20      	ldr	r3, [pc, #128]	; (10001180 <runtime_init+0xbc>)
10001100:	601a      	str	r2, [r3, #0]
10001102:	4a20      	ldr	r2, [pc, #128]	; (10001184 <runtime_init+0xc0>)
10001104:	6893      	ldr	r3, [r2, #8]
10001106:	01db      	lsls	r3, r3, #7
10001108:	3380      	adds	r3, #128	; 0x80
1000110a:	d1fb      	bne.n	10001104 <runtime_init+0x40>
1000110c:	2240      	movs	r2, #64	; 0x40
1000110e:	4b21      	ldr	r3, [pc, #132]	; (10001194 <runtime_init+0xd0>)
10001110:	4c21      	ldr	r4, [pc, #132]	; (10001198 <runtime_init+0xd4>)
10001112:	679a      	str	r2, [r3, #120]	; 0x78
10001114:	675a      	str	r2, [r3, #116]	; 0x74
10001116:	671a      	str	r2, [r3, #112]	; 0x70
10001118:	66da      	str	r2, [r3, #108]	; 0x6c
1000111a:	4b20      	ldr	r3, [pc, #128]	; (1000119c <runtime_init+0xd8>)
1000111c:	429c      	cmp	r4, r3
1000111e:	d20b      	bcs.n	10001138 <runtime_init+0x74>
10001120:	3b01      	subs	r3, #1
10001122:	1b1d      	subs	r5, r3, r4
10001124:	08ed      	lsrs	r5, r5, #3
10001126:	3501      	adds	r5, #1
10001128:	00ed      	lsls	r5, r5, #3
1000112a:	192d      	adds	r5, r5, r4
1000112c:	0020      	movs	r0, r4
1000112e:	3408      	adds	r4, #8
10001130:	f7ff fdb6 	bl	10000ca0 <mutex_init>
10001134:	42ac      	cmp	r4, r5
10001136:	d1f9      	bne.n	1000112c <runtime_init+0x68>
10001138:	4c19      	ldr	r4, [pc, #100]	; (100011a0 <runtime_init+0xdc>)
1000113a:	4d1a      	ldr	r5, [pc, #104]	; (100011a4 <runtime_init+0xe0>)
1000113c:	68a1      	ldr	r1, [r4, #8]
1000113e:	22c0      	movs	r2, #192	; 0xc0
10001140:	0028      	movs	r0, r5
10001142:	f002 fe09 	bl	10003d58 <__wrap___aeabi_memcpy>
10001146:	60a5      	str	r5, [r4, #8]
10001148:	f7ff f9fe 	bl	10000548 <spin_locks_reset>
1000114c:	f000 fbaa 	bl	100018a4 <irq_init_priorities>
10001150:	f7ff fc28 	bl	100009a4 <alarm_pool_init_default>
10001154:	4c14      	ldr	r4, [pc, #80]	; (100011a8 <runtime_init+0xe4>)
10001156:	4b15      	ldr	r3, [pc, #84]	; (100011ac <runtime_init+0xe8>)
10001158:	429c      	cmp	r4, r3
1000115a:	d209      	bcs.n	10001170 <runtime_init+0xac>
1000115c:	3b01      	subs	r3, #1
1000115e:	1b1d      	subs	r5, r3, r4
10001160:	08ad      	lsrs	r5, r5, #2
10001162:	3501      	adds	r5, #1
10001164:	00ad      	lsls	r5, r5, #2
10001166:	192d      	adds	r5, r5, r4
10001168:	cc08      	ldmia	r4!, {r3}
1000116a:	4798      	blx	r3
1000116c:	42a5      	cmp	r5, r4
1000116e:	d1fb      	bne.n	10001168 <runtime_init+0xa4>
10001170:	bd70      	pop	{r4, r5, r6, pc}
10001172:	46c0      	nop			; (mov r8, r8)
10001174:	4000e000 	.word	0x4000e000
10001178:	ffffcdbf 	.word	0xffffcdbf
1000117c:	003c7ffe 	.word	0x003c7ffe
10001180:	4000f000 	.word	0x4000f000
10001184:	4000c000 	.word	0x4000c000
10001188:	20000a58 	.word	0x20000a58
1000118c:	20000a68 	.word	0x20000a68
10001190:	01ffffff 	.word	0x01ffffff
10001194:	4001f000 	.word	0x4001f000
10001198:	20000a50 	.word	0x20000a50
1000119c:	20000a58 	.word	0x20000a58
100011a0:	e000ed00 	.word	0xe000ed00
100011a4:	20000000 	.word	0x20000000
100011a8:	20000a68 	.word	0x20000a68
100011ac:	20000a6c 	.word	0x20000a6c

100011b0 <_sbrk>:
100011b0:	4a09      	ldr	r2, [pc, #36]	; (100011d8 <_sbrk+0x28>)
100011b2:	0003      	movs	r3, r0
100011b4:	6810      	ldr	r0, [r2, #0]
100011b6:	2800      	cmp	r0, #0
100011b8:	d005      	beq.n	100011c6 <_sbrk+0x16>
100011ba:	4908      	ldr	r1, [pc, #32]	; (100011dc <_sbrk+0x2c>)
100011bc:	18c3      	adds	r3, r0, r3
100011be:	428b      	cmp	r3, r1
100011c0:	d207      	bcs.n	100011d2 <_sbrk+0x22>
100011c2:	6013      	str	r3, [r2, #0]
100011c4:	4770      	bx	lr
100011c6:	4806      	ldr	r0, [pc, #24]	; (100011e0 <_sbrk+0x30>)
100011c8:	4904      	ldr	r1, [pc, #16]	; (100011dc <_sbrk+0x2c>)
100011ca:	18c3      	adds	r3, r0, r3
100011cc:	6010      	str	r0, [r2, #0]
100011ce:	428b      	cmp	r3, r1
100011d0:	d3f7      	bcc.n	100011c2 <_sbrk+0x12>
100011d2:	2001      	movs	r0, #1
100011d4:	4240      	negs	r0, r0
100011d6:	e7f5      	b.n	100011c4 <_sbrk+0x14>
100011d8:	20000b88 	.word	0x20000b88
100011dc:	20040000 	.word	0x20040000
100011e0:	20000de4 	.word	0x20000de4

100011e4 <exit>:
100011e4:	be00      	bkpt	0x0000
100011e6:	e7fd      	b.n	100011e4 <exit>

100011e8 <panic>:
100011e8:	b40f      	push	{r0, r1, r2, r3}
100011ea:	b500      	push	{lr}
100011ec:	4808      	ldr	r0, [pc, #32]	; (10001210 <panic+0x28>)
100011ee:	b083      	sub	sp, #12
100011f0:	f002 fec4 	bl	10003f7c <__wrap_puts>
100011f4:	9b04      	ldr	r3, [sp, #16]
100011f6:	2b00      	cmp	r3, #0
100011f8:	d007      	beq.n	1000120a <panic+0x22>
100011fa:	a905      	add	r1, sp, #20
100011fc:	0018      	movs	r0, r3
100011fe:	9101      	str	r1, [sp, #4]
10001200:	f001 fe78 	bl	10002ef4 <weak_raw_vprintf>
10001204:	4803      	ldr	r0, [pc, #12]	; (10001214 <panic+0x2c>)
10001206:	f002 feb9 	bl	10003f7c <__wrap_puts>
1000120a:	be00      	bkpt	0x0000
1000120c:	e7fd      	b.n	1000120a <panic+0x22>
1000120e:	46c0      	nop			; (mov r8, r8)
10001210:	10004b98 	.word	0x10004b98
10001214:	10004ba8 	.word	0x10004ba8

10001218 <hard_assertion_failure>:
10001218:	b510      	push	{r4, lr}
1000121a:	4801      	ldr	r0, [pc, #4]	; (10001220 <hard_assertion_failure+0x8>)
1000121c:	f7ff ffe4 	bl	100011e8 <panic>
10001220:	10004bac 	.word	0x10004bac

10001224 <clocks_init>:
10001224:	b530      	push	{r4, r5, lr}
10001226:	200c      	movs	r0, #12
10001228:	b083      	sub	sp, #12
1000122a:	f000 f971 	bl	10001510 <watchdog_start_tick>
1000122e:	f7ff f9a5 	bl	1000057c <running_on_fpga>
10001232:	2800      	cmp	r0, #0
10001234:	d00e      	beq.n	10001254 <clocks_init+0x30>
10001236:	4b9a      	ldr	r3, [pc, #616]	; (100014a0 <clocks_init+0x27c>)
10001238:	4a9a      	ldr	r2, [pc, #616]	; (100014a4 <clocks_init+0x280>)
1000123a:	601a      	str	r2, [r3, #0]
1000123c:	605a      	str	r2, [r3, #4]
1000123e:	609a      	str	r2, [r3, #8]
10001240:	60da      	str	r2, [r3, #12]
10001242:	611a      	str	r2, [r3, #16]
10001244:	615a      	str	r2, [r3, #20]
10001246:	619a      	str	r2, [r3, #24]
10001248:	61da      	str	r2, [r3, #28]
1000124a:	621a      	str	r2, [r3, #32]
1000124c:	4a96      	ldr	r2, [pc, #600]	; (100014a8 <clocks_init+0x284>)
1000124e:	625a      	str	r2, [r3, #36]	; 0x24
10001250:	b003      	add	sp, #12
10001252:	bd30      	pop	{r4, r5, pc}
10001254:	4c95      	ldr	r4, [pc, #596]	; (100014ac <clocks_init+0x288>)
10001256:	67a0      	str	r0, [r4, #120]	; 0x78
10001258:	f000 f962 	bl	10001520 <xosc_init>
1000125c:	2201      	movs	r2, #1
1000125e:	4b94      	ldr	r3, [pc, #592]	; (100014b0 <clocks_init+0x28c>)
10001260:	601a      	str	r2, [r3, #0]
10001262:	6c63      	ldr	r3, [r4, #68]	; 0x44
10001264:	2b01      	cmp	r3, #1
10001266:	d1fc      	bne.n	10001262 <clocks_init+0x3e>
10001268:	2203      	movs	r2, #3
1000126a:	4b92      	ldr	r3, [pc, #584]	; (100014b4 <clocks_init+0x290>)
1000126c:	601a      	str	r2, [r3, #0]
1000126e:	4a8f      	ldr	r2, [pc, #572]	; (100014ac <clocks_init+0x288>)
10001270:	6b93      	ldr	r3, [r2, #56]	; 0x38
10001272:	2b01      	cmp	r3, #1
10001274:	d1fc      	bne.n	10001270 <clocks_init+0x4c>
10001276:	22c0      	movs	r2, #192	; 0xc0
10001278:	4b8f      	ldr	r3, [pc, #572]	; (100014b8 <clocks_init+0x294>)
1000127a:	0192      	lsls	r2, r2, #6
1000127c:	601a      	str	r2, [r3, #0]
1000127e:	4b8f      	ldr	r3, [pc, #572]	; (100014bc <clocks_init+0x298>)
10001280:	498f      	ldr	r1, [pc, #572]	; (100014c0 <clocks_init+0x29c>)
10001282:	601a      	str	r2, [r3, #0]
10001284:	0010      	movs	r0, r2
10001286:	688b      	ldr	r3, [r1, #8]
10001288:	4398      	bics	r0, r3
1000128a:	1e03      	subs	r3, r0, #0
1000128c:	d1fa      	bne.n	10001284 <clocks_init+0x60>
1000128e:	2402      	movs	r4, #2
10001290:	2101      	movs	r1, #1
10001292:	4a8c      	ldr	r2, [pc, #560]	; (100014c4 <clocks_init+0x2a0>)
10001294:	488c      	ldr	r0, [pc, #560]	; (100014c8 <clocks_init+0x2a4>)
10001296:	3306      	adds	r3, #6
10001298:	9400      	str	r4, [sp, #0]
1000129a:	f000 f955 	bl	10001548 <pll_init>
1000129e:	2305      	movs	r3, #5
100012a0:	4a8a      	ldr	r2, [pc, #552]	; (100014cc <clocks_init+0x2a8>)
100012a2:	2101      	movs	r1, #1
100012a4:	488a      	ldr	r0, [pc, #552]	; (100014d0 <clocks_init+0x2ac>)
100012a6:	9400      	str	r4, [sp, #0]
100012a8:	f000 f94e 	bl	10001548 <pll_init>
100012ac:	4b89      	ldr	r3, [pc, #548]	; (100014d4 <clocks_init+0x2b0>)
100012ae:	685a      	ldr	r2, [r3, #4]
100012b0:	2aff      	cmp	r2, #255	; 0xff
100012b2:	d802      	bhi.n	100012ba <clocks_init+0x96>
100012b4:	2280      	movs	r2, #128	; 0x80
100012b6:	0052      	lsls	r2, r2, #1
100012b8:	605a      	str	r2, [r3, #4]
100012ba:	2280      	movs	r2, #128	; 0x80
100012bc:	4c78      	ldr	r4, [pc, #480]	; (100014a0 <clocks_init+0x27c>)
100012be:	4b7d      	ldr	r3, [pc, #500]	; (100014b4 <clocks_init+0x290>)
100012c0:	6921      	ldr	r1, [r4, #16]
100012c2:	0112      	lsls	r2, r2, #4
100012c4:	4d83      	ldr	r5, [pc, #524]	; (100014d4 <clocks_init+0x2b0>)
100012c6:	601a      	str	r2, [r3, #0]
100012c8:	2900      	cmp	r1, #0
100012ca:	d005      	beq.n	100012d8 <clocks_init+0xb4>
100012cc:	6960      	ldr	r0, [r4, #20]
100012ce:	f001 fe8b 	bl	10002fe8 <__wrap___aeabi_uidiv>
100012d2:	3001      	adds	r0, #1
100012d4:	3801      	subs	r0, #1
100012d6:	d1fd      	bne.n	100012d4 <clocks_init+0xb0>
100012d8:	21e0      	movs	r1, #224	; 0xe0
100012da:	4b7e      	ldr	r3, [pc, #504]	; (100014d4 <clocks_init+0x2b0>)
100012dc:	2002      	movs	r0, #2
100012de:	681a      	ldr	r2, [r3, #0]
100012e0:	4011      	ands	r1, r2
100012e2:	2280      	movs	r2, #128	; 0x80
100012e4:	0152      	lsls	r2, r2, #5
100012e6:	432a      	orrs	r2, r5
100012e8:	6011      	str	r1, [r2, #0]
100012ea:	6819      	ldr	r1, [r3, #0]
100012ec:	4048      	eors	r0, r1
100012ee:	2103      	movs	r1, #3
100012f0:	4001      	ands	r1, r0
100012f2:	6011      	str	r1, [r2, #0]
100012f4:	2104      	movs	r1, #4
100012f6:	689a      	ldr	r2, [r3, #8]
100012f8:	4211      	tst	r1, r2
100012fa:	d0fc      	beq.n	100012f6 <clocks_init+0xd2>
100012fc:	2280      	movs	r2, #128	; 0x80
100012fe:	2180      	movs	r1, #128	; 0x80
10001300:	0192      	lsls	r2, r2, #6
10001302:	432a      	orrs	r2, r5
10001304:	0109      	lsls	r1, r1, #4
10001306:	6011      	str	r1, [r2, #0]
10001308:	2280      	movs	r2, #128	; 0x80
1000130a:	0052      	lsls	r2, r2, #1
1000130c:	605a      	str	r2, [r3, #4]
1000130e:	4b72      	ldr	r3, [pc, #456]	; (100014d8 <clocks_init+0x2b4>)
10001310:	6123      	str	r3, [r4, #16]
10001312:	4b72      	ldr	r3, [pc, #456]	; (100014dc <clocks_init+0x2b8>)
10001314:	6859      	ldr	r1, [r3, #4]
10001316:	29ff      	cmp	r1, #255	; 0xff
10001318:	d800      	bhi.n	1000131c <clocks_init+0xf8>
1000131a:	605a      	str	r2, [r3, #4]
1000131c:	2203      	movs	r2, #3
1000131e:	486f      	ldr	r0, [pc, #444]	; (100014dc <clocks_init+0x2b8>)
10001320:	4b63      	ldr	r3, [pc, #396]	; (100014b0 <clocks_init+0x28c>)
10001322:	2101      	movs	r1, #1
10001324:	601a      	str	r2, [r3, #0]
10001326:	0002      	movs	r2, r0
10001328:	6893      	ldr	r3, [r2, #8]
1000132a:	4219      	tst	r1, r3
1000132c:	d0fc      	beq.n	10001328 <clocks_init+0x104>
1000132e:	25e0      	movs	r5, #224	; 0xe0
10001330:	6813      	ldr	r3, [r2, #0]
10001332:	401d      	ands	r5, r3
10001334:	2380      	movs	r3, #128	; 0x80
10001336:	015b      	lsls	r3, r3, #5
10001338:	4303      	orrs	r3, r0
1000133a:	601d      	str	r5, [r3, #0]
1000133c:	6812      	ldr	r2, [r2, #0]
1000133e:	404a      	eors	r2, r1
10001340:	2103      	movs	r1, #3
10001342:	4011      	ands	r1, r2
10001344:	6019      	str	r1, [r3, #0]
10001346:	2102      	movs	r1, #2
10001348:	4a64      	ldr	r2, [pc, #400]	; (100014dc <clocks_init+0x2b8>)
1000134a:	6893      	ldr	r3, [r2, #8]
1000134c:	4219      	tst	r1, r3
1000134e:	d0fc      	beq.n	1000134a <clocks_init+0x126>
10001350:	2380      	movs	r3, #128	; 0x80
10001352:	2180      	movs	r1, #128	; 0x80
10001354:	019b      	lsls	r3, r3, #6
10001356:	4303      	orrs	r3, r0
10001358:	0109      	lsls	r1, r1, #4
1000135a:	6019      	str	r1, [r3, #0]
1000135c:	2180      	movs	r1, #128	; 0x80
1000135e:	4b60      	ldr	r3, [pc, #384]	; (100014e0 <clocks_init+0x2bc>)
10001360:	0049      	lsls	r1, r1, #1
10001362:	6051      	str	r1, [r2, #4]
10001364:	6163      	str	r3, [r4, #20]
10001366:	4b5f      	ldr	r3, [pc, #380]	; (100014e4 <clocks_init+0x2c0>)
10001368:	685a      	ldr	r2, [r3, #4]
1000136a:	2aff      	cmp	r2, #255	; 0xff
1000136c:	d800      	bhi.n	10001370 <clocks_init+0x14c>
1000136e:	6059      	str	r1, [r3, #4]
10001370:	2280      	movs	r2, #128	; 0x80
10001372:	4b5d      	ldr	r3, [pc, #372]	; (100014e8 <clocks_init+0x2c4>)
10001374:	69e1      	ldr	r1, [r4, #28]
10001376:	0112      	lsls	r2, r2, #4
10001378:	4d5a      	ldr	r5, [pc, #360]	; (100014e4 <clocks_init+0x2c0>)
1000137a:	601a      	str	r2, [r3, #0]
1000137c:	2900      	cmp	r1, #0
1000137e:	d005      	beq.n	1000138c <clocks_init+0x168>
10001380:	6960      	ldr	r0, [r4, #20]
10001382:	f001 fe31 	bl	10002fe8 <__wrap___aeabi_uidiv>
10001386:	3001      	adds	r0, #1
10001388:	3801      	subs	r0, #1
1000138a:	d1fd      	bne.n	10001388 <clocks_init+0x164>
1000138c:	22e0      	movs	r2, #224	; 0xe0
1000138e:	4955      	ldr	r1, [pc, #340]	; (100014e4 <clocks_init+0x2c0>)
10001390:	680b      	ldr	r3, [r1, #0]
10001392:	401a      	ands	r2, r3
10001394:	2380      	movs	r3, #128	; 0x80
10001396:	015b      	lsls	r3, r3, #5
10001398:	432b      	orrs	r3, r5
1000139a:	601a      	str	r2, [r3, #0]
1000139c:	2380      	movs	r3, #128	; 0x80
1000139e:	2280      	movs	r2, #128	; 0x80
100013a0:	019b      	lsls	r3, r3, #6
100013a2:	432b      	orrs	r3, r5
100013a4:	0112      	lsls	r2, r2, #4
100013a6:	601a      	str	r2, [r3, #0]
100013a8:	2280      	movs	r2, #128	; 0x80
100013aa:	4b3e      	ldr	r3, [pc, #248]	; (100014a4 <clocks_init+0x280>)
100013ac:	0052      	lsls	r2, r2, #1
100013ae:	604a      	str	r2, [r1, #4]
100013b0:	61e3      	str	r3, [r4, #28]
100013b2:	4b4e      	ldr	r3, [pc, #312]	; (100014ec <clocks_init+0x2c8>)
100013b4:	6859      	ldr	r1, [r3, #4]
100013b6:	29ff      	cmp	r1, #255	; 0xff
100013b8:	d800      	bhi.n	100013bc <clocks_init+0x198>
100013ba:	605a      	str	r2, [r3, #4]
100013bc:	2280      	movs	r2, #128	; 0x80
100013be:	4b4c      	ldr	r3, [pc, #304]	; (100014f0 <clocks_init+0x2cc>)
100013c0:	6a21      	ldr	r1, [r4, #32]
100013c2:	0112      	lsls	r2, r2, #4
100013c4:	4d49      	ldr	r5, [pc, #292]	; (100014ec <clocks_init+0x2c8>)
100013c6:	601a      	str	r2, [r3, #0]
100013c8:	2900      	cmp	r1, #0
100013ca:	d005      	beq.n	100013d8 <clocks_init+0x1b4>
100013cc:	6960      	ldr	r0, [r4, #20]
100013ce:	f001 fe0b 	bl	10002fe8 <__wrap___aeabi_uidiv>
100013d2:	3001      	adds	r0, #1
100013d4:	3801      	subs	r0, #1
100013d6:	d1fd      	bne.n	100013d4 <clocks_init+0x1b0>
100013d8:	22e0      	movs	r2, #224	; 0xe0
100013da:	4944      	ldr	r1, [pc, #272]	; (100014ec <clocks_init+0x2c8>)
100013dc:	680b      	ldr	r3, [r1, #0]
100013de:	401a      	ands	r2, r3
100013e0:	2380      	movs	r3, #128	; 0x80
100013e2:	015b      	lsls	r3, r3, #5
100013e4:	432b      	orrs	r3, r5
100013e6:	601a      	str	r2, [r3, #0]
100013e8:	2380      	movs	r3, #128	; 0x80
100013ea:	2280      	movs	r2, #128	; 0x80
100013ec:	019b      	lsls	r3, r3, #6
100013ee:	432b      	orrs	r3, r5
100013f0:	0112      	lsls	r2, r2, #4
100013f2:	601a      	str	r2, [r3, #0]
100013f4:	2380      	movs	r3, #128	; 0x80
100013f6:	2280      	movs	r2, #128	; 0x80
100013f8:	005b      	lsls	r3, r3, #1
100013fa:	604b      	str	r3, [r1, #4]
100013fc:	4b29      	ldr	r3, [pc, #164]	; (100014a4 <clocks_init+0x280>)
100013fe:	02d2      	lsls	r2, r2, #11
10001400:	6223      	str	r3, [r4, #32]
10001402:	4b3c      	ldr	r3, [pc, #240]	; (100014f4 <clocks_init+0x2d0>)
10001404:	6859      	ldr	r1, [r3, #4]
10001406:	4291      	cmp	r1, r2
10001408:	d200      	bcs.n	1000140c <clocks_init+0x1e8>
1000140a:	605a      	str	r2, [r3, #4]
1000140c:	2280      	movs	r2, #128	; 0x80
1000140e:	4b3a      	ldr	r3, [pc, #232]	; (100014f8 <clocks_init+0x2d4>)
10001410:	6a61      	ldr	r1, [r4, #36]	; 0x24
10001412:	0112      	lsls	r2, r2, #4
10001414:	4d37      	ldr	r5, [pc, #220]	; (100014f4 <clocks_init+0x2d0>)
10001416:	601a      	str	r2, [r3, #0]
10001418:	2900      	cmp	r1, #0
1000141a:	d005      	beq.n	10001428 <clocks_init+0x204>
1000141c:	6960      	ldr	r0, [r4, #20]
1000141e:	f001 fde3 	bl	10002fe8 <__wrap___aeabi_uidiv>
10001422:	3001      	adds	r0, #1
10001424:	3801      	subs	r0, #1
10001426:	d1fd      	bne.n	10001424 <clocks_init+0x200>
10001428:	22e0      	movs	r2, #224	; 0xe0
1000142a:	4932      	ldr	r1, [pc, #200]	; (100014f4 <clocks_init+0x2d0>)
1000142c:	680b      	ldr	r3, [r1, #0]
1000142e:	401a      	ands	r2, r3
10001430:	2380      	movs	r3, #128	; 0x80
10001432:	015b      	lsls	r3, r3, #5
10001434:	432b      	orrs	r3, r5
10001436:	601a      	str	r2, [r3, #0]
10001438:	2380      	movs	r3, #128	; 0x80
1000143a:	2280      	movs	r2, #128	; 0x80
1000143c:	019b      	lsls	r3, r3, #6
1000143e:	432b      	orrs	r3, r5
10001440:	0112      	lsls	r2, r2, #4
10001442:	601a      	str	r2, [r3, #0]
10001444:	2380      	movs	r3, #128	; 0x80
10001446:	02db      	lsls	r3, r3, #11
10001448:	604b      	str	r3, [r1, #4]
1000144a:	4b17      	ldr	r3, [pc, #92]	; (100014a8 <clocks_init+0x284>)
1000144c:	6263      	str	r3, [r4, #36]	; 0x24
1000144e:	4b2b      	ldr	r3, [pc, #172]	; (100014fc <clocks_init+0x2d8>)
10001450:	685a      	ldr	r2, [r3, #4]
10001452:	2aff      	cmp	r2, #255	; 0xff
10001454:	d802      	bhi.n	1000145c <clocks_init+0x238>
10001456:	2280      	movs	r2, #128	; 0x80
10001458:	0052      	lsls	r2, r2, #1
1000145a:	605a      	str	r2, [r3, #4]
1000145c:	2280      	movs	r2, #128	; 0x80
1000145e:	4b28      	ldr	r3, [pc, #160]	; (10001500 <clocks_init+0x2dc>)
10001460:	69a1      	ldr	r1, [r4, #24]
10001462:	0112      	lsls	r2, r2, #4
10001464:	4d25      	ldr	r5, [pc, #148]	; (100014fc <clocks_init+0x2d8>)
10001466:	601a      	str	r2, [r3, #0]
10001468:	2900      	cmp	r1, #0
1000146a:	d005      	beq.n	10001478 <clocks_init+0x254>
1000146c:	6960      	ldr	r0, [r4, #20]
1000146e:	f001 fdbb 	bl	10002fe8 <__wrap___aeabi_uidiv>
10001472:	3001      	adds	r0, #1
10001474:	3801      	subs	r0, #1
10001476:	d1fd      	bne.n	10001474 <clocks_init+0x250>
10001478:	22e0      	movs	r2, #224	; 0xe0
1000147a:	4920      	ldr	r1, [pc, #128]	; (100014fc <clocks_init+0x2d8>)
1000147c:	680b      	ldr	r3, [r1, #0]
1000147e:	401a      	ands	r2, r3
10001480:	2380      	movs	r3, #128	; 0x80
10001482:	015b      	lsls	r3, r3, #5
10001484:	432b      	orrs	r3, r5
10001486:	601a      	str	r2, [r3, #0]
10001488:	2380      	movs	r3, #128	; 0x80
1000148a:	2280      	movs	r2, #128	; 0x80
1000148c:	019b      	lsls	r3, r3, #6
1000148e:	432b      	orrs	r3, r5
10001490:	0112      	lsls	r2, r2, #4
10001492:	601a      	str	r2, [r3, #0]
10001494:	2380      	movs	r3, #128	; 0x80
10001496:	005b      	lsls	r3, r3, #1
10001498:	604b      	str	r3, [r1, #4]
1000149a:	4b11      	ldr	r3, [pc, #68]	; (100014e0 <clocks_init+0x2bc>)
1000149c:	61a3      	str	r3, [r4, #24]
1000149e:	e6d7      	b.n	10001250 <clocks_init+0x2c>
100014a0:	20000ad4 	.word	0x20000ad4
100014a4:	02dc6c00 	.word	0x02dc6c00
100014a8:	0000b71b 	.word	0x0000b71b
100014ac:	40008000 	.word	0x40008000
100014b0:	4000b03c 	.word	0x4000b03c
100014b4:	4000b030 	.word	0x4000b030
100014b8:	4000e000 	.word	0x4000e000
100014bc:	4000f000 	.word	0x4000f000
100014c0:	4000c000 	.word	0x4000c000
100014c4:	59682f00 	.word	0x59682f00
100014c8:	40028000 	.word	0x40028000
100014cc:	1c9c3800 	.word	0x1c9c3800
100014d0:	4002c000 	.word	0x4002c000
100014d4:	40008030 	.word	0x40008030
100014d8:	00b71b00 	.word	0x00b71b00
100014dc:	4000803c 	.word	0x4000803c
100014e0:	07735940 	.word	0x07735940
100014e4:	40008054 	.word	0x40008054
100014e8:	4000b054 	.word	0x4000b054
100014ec:	40008060 	.word	0x40008060
100014f0:	4000b060 	.word	0x4000b060
100014f4:	4000806c 	.word	0x4000806c
100014f8:	4000b06c 	.word	0x4000b06c
100014fc:	40008048 	.word	0x40008048
10001500:	4000b048 	.word	0x4000b048

10001504 <clock_get_hz>:
10001504:	4b01      	ldr	r3, [pc, #4]	; (1000150c <clock_get_hz+0x8>)
10001506:	0080      	lsls	r0, r0, #2
10001508:	58c0      	ldr	r0, [r0, r3]
1000150a:	4770      	bx	lr
1000150c:	20000ad4 	.word	0x20000ad4

10001510 <watchdog_start_tick>:
10001510:	2380      	movs	r3, #128	; 0x80
10001512:	4a02      	ldr	r2, [pc, #8]	; (1000151c <watchdog_start_tick+0xc>)
10001514:	009b      	lsls	r3, r3, #2
10001516:	4303      	orrs	r3, r0
10001518:	62d3      	str	r3, [r2, #44]	; 0x2c
1000151a:	4770      	bx	lr
1000151c:	40058000 	.word	0x40058000

10001520 <xosc_init>:
10001520:	23aa      	movs	r3, #170	; 0xaa
10001522:	4a06      	ldr	r2, [pc, #24]	; (1000153c <xosc_init+0x1c>)
10001524:	011b      	lsls	r3, r3, #4
10001526:	6013      	str	r3, [r2, #0]
10001528:	232f      	movs	r3, #47	; 0x2f
1000152a:	4905      	ldr	r1, [pc, #20]	; (10001540 <xosc_init+0x20>)
1000152c:	60d3      	str	r3, [r2, #12]
1000152e:	4b05      	ldr	r3, [pc, #20]	; (10001544 <xosc_init+0x24>)
10001530:	6019      	str	r1, [r3, #0]
10001532:	6853      	ldr	r3, [r2, #4]
10001534:	2b00      	cmp	r3, #0
10001536:	dafc      	bge.n	10001532 <xosc_init+0x12>
10001538:	4770      	bx	lr
1000153a:	46c0      	nop			; (mov r8, r8)
1000153c:	40024000 	.word	0x40024000
10001540:	00fab000 	.word	0x00fab000
10001544:	40026000 	.word	0x40026000

10001548 <pll_init>:
10001548:	b5f8      	push	{r3, r4, r5, r6, r7, lr}
1000154a:	001d      	movs	r5, r3
1000154c:	ab06      	add	r3, sp, #24
1000154e:	781e      	ldrb	r6, [r3, #0]
10001550:	2301      	movs	r3, #1
10001552:	425b      	negs	r3, r3
10001554:	6043      	str	r3, [r0, #4]
10001556:	2300      	movs	r3, #0
10001558:	0004      	movs	r4, r0
1000155a:	6083      	str	r3, [r0, #8]
1000155c:	6001      	str	r1, [r0, #0]
1000155e:	200c      	movs	r0, #12
10001560:	0017      	movs	r7, r2
10001562:	f001 fd41 	bl	10002fe8 <__wrap___aeabi_uidiv>
10001566:	0141      	lsls	r1, r0, #5
10001568:	1a09      	subs	r1, r1, r0
1000156a:	018b      	lsls	r3, r1, #6
1000156c:	1a59      	subs	r1, r3, r1
1000156e:	00c9      	lsls	r1, r1, #3
10001570:	1809      	adds	r1, r1, r0
10001572:	0189      	lsls	r1, r1, #6
10001574:	0038      	movs	r0, r7
10001576:	f001 fd37 	bl	10002fe8 <__wrap___aeabi_uidiv>
1000157a:	21c0      	movs	r1, #192	; 0xc0
1000157c:	1d23      	adds	r3, r4, #4
1000157e:	0189      	lsls	r1, r1, #6
10001580:	4319      	orrs	r1, r3
10001582:	2321      	movs	r3, #33	; 0x21
10001584:	60a0      	str	r0, [r4, #8]
10001586:	600b      	str	r3, [r1, #0]
10001588:	6822      	ldr	r2, [r4, #0]
1000158a:	2a00      	cmp	r2, #0
1000158c:	dafc      	bge.n	10001588 <pll_init+0x40>
1000158e:	2308      	movs	r3, #8
10001590:	042d      	lsls	r5, r5, #16
10001592:	0336      	lsls	r6, r6, #12
10001594:	432e      	orrs	r6, r5
10001596:	60e6      	str	r6, [r4, #12]
10001598:	600b      	str	r3, [r1, #0]
1000159a:	bdf8      	pop	{r3, r4, r5, r6, r7, pc}

1000159c <irq_set_enabled>:
1000159c:	2301      	movs	r3, #1
1000159e:	4083      	lsls	r3, r0
100015a0:	2900      	cmp	r1, #0
100015a2:	d004      	beq.n	100015ae <irq_set_enabled+0x12>
100015a4:	4a03      	ldr	r2, [pc, #12]	; (100015b4 <irq_set_enabled+0x18>)
100015a6:	6013      	str	r3, [r2, #0]
100015a8:	4a03      	ldr	r2, [pc, #12]	; (100015b8 <irq_set_enabled+0x1c>)
100015aa:	6013      	str	r3, [r2, #0]
100015ac:	4770      	bx	lr
100015ae:	4a03      	ldr	r2, [pc, #12]	; (100015bc <irq_set_enabled+0x20>)
100015b0:	6013      	str	r3, [r2, #0]
100015b2:	e7fb      	b.n	100015ac <irq_set_enabled+0x10>
100015b4:	e000e280 	.word	0xe000e280
100015b8:	e000e100 	.word	0xe000e100
100015bc:	e000e180 	.word	0xe000e180

100015c0 <irq_get_vtable_handler>:
100015c0:	4b02      	ldr	r3, [pc, #8]	; (100015cc <irq_get_vtable_handler+0xc>)
100015c2:	3010      	adds	r0, #16
100015c4:	689b      	ldr	r3, [r3, #8]
100015c6:	0080      	lsls	r0, r0, #2
100015c8:	58c0      	ldr	r0, [r0, r3]
100015ca:	4770      	bx	lr
100015cc:	e000ed00 	.word	0xe000ed00

100015d0 <irq_set_exclusive_handler>:
100015d0:	b570      	push	{r4, r5, r6, lr}
100015d2:	000d      	movs	r5, r1
100015d4:	f3ef 8610 	mrs	r6, PRIMASK
100015d8:	b672      	cpsid	i
100015da:	4a0f      	ldr	r2, [pc, #60]	; (10001618 <irq_set_exclusive_handler+0x48>)
100015dc:	6813      	ldr	r3, [r2, #0]
100015de:	2b00      	cmp	r3, #0
100015e0:	d0fc      	beq.n	100015dc <irq_set_exclusive_handler+0xc>
100015e2:	f3bf 8f5f 	dmb	sy
100015e6:	4b0d      	ldr	r3, [pc, #52]	; (1000161c <irq_set_exclusive_handler+0x4c>)
100015e8:	3010      	adds	r0, #16
100015ea:	689b      	ldr	r3, [r3, #8]
100015ec:	0084      	lsls	r4, r0, #2
100015ee:	591b      	ldr	r3, [r3, r4]
100015f0:	4a0b      	ldr	r2, [pc, #44]	; (10001620 <irq_set_exclusive_handler+0x50>)
100015f2:	4293      	cmp	r3, r2
100015f4:	d003      	beq.n	100015fe <irq_set_exclusive_handler+0x2e>
100015f6:	429d      	cmp	r5, r3
100015f8:	d001      	beq.n	100015fe <irq_set_exclusive_handler+0x2e>
100015fa:	f7ff fe0d 	bl	10001218 <hard_assertion_failure>
100015fe:	4b07      	ldr	r3, [pc, #28]	; (1000161c <irq_set_exclusive_handler+0x4c>)
10001600:	689b      	ldr	r3, [r3, #8]
10001602:	511d      	str	r5, [r3, r4]
10001604:	f3bf 8f5f 	dmb	sy
10001608:	f3bf 8f5f 	dmb	sy
1000160c:	2200      	movs	r2, #0
1000160e:	4b02      	ldr	r3, [pc, #8]	; (10001618 <irq_set_exclusive_handler+0x48>)
10001610:	601a      	str	r2, [r3, #0]
10001612:	f386 8810 	msr	PRIMASK, r6
10001616:	bd70      	pop	{r4, r5, r6, pc}
10001618:	d0000124 	.word	0xd0000124
1000161c:	e000ed00 	.word	0xe000ed00
10001620:	100002cd 	.word	0x100002cd

10001624 <irq_remove_handler>:
10001624:	b5f0      	push	{r4, r5, r6, r7, lr}
10001626:	46de      	mov	lr, fp
10001628:	4657      	mov	r7, sl
1000162a:	464e      	mov	r6, r9
1000162c:	4645      	mov	r5, r8
1000162e:	b5e0      	push	{r5, r6, r7, lr}
10001630:	000c      	movs	r4, r1
10001632:	b083      	sub	sp, #12
10001634:	f3ef 8a10 	mrs	sl, PRIMASK
10001638:	b672      	cpsid	i
1000163a:	4a5f      	ldr	r2, [pc, #380]	; (100017b8 <irq_remove_handler+0x194>)
1000163c:	6813      	ldr	r3, [r2, #0]
1000163e:	2b00      	cmp	r3, #0
10001640:	d0fc      	beq.n	1000163c <irq_remove_handler+0x18>
10001642:	f3bf 8f5f 	dmb	sy
10001646:	2210      	movs	r2, #16
10001648:	4691      	mov	r9, r2
1000164a:	4481      	add	r9, r0
1000164c:	464a      	mov	r2, r9
1000164e:	4b5b      	ldr	r3, [pc, #364]	; (100017bc <irq_remove_handler+0x198>)
10001650:	0096      	lsls	r6, r2, #2
10001652:	689b      	ldr	r3, [r3, #8]
10001654:	599d      	ldr	r5, [r3, r6]
10001656:	4b5a      	ldr	r3, [pc, #360]	; (100017c0 <irq_remove_handler+0x19c>)
10001658:	4698      	mov	r8, r3
1000165a:	429d      	cmp	r5, r3
1000165c:	d005      	beq.n	1000166a <irq_remove_handler+0x46>
1000165e:	42a5      	cmp	r5, r4
10001660:	d016      	beq.n	10001690 <irq_remove_handler+0x6c>
10001662:	4f58      	ldr	r7, [pc, #352]	; (100017c4 <irq_remove_handler+0x1a0>)
10001664:	1beb      	subs	r3, r5, r7
10001666:	2b2f      	cmp	r3, #47	; 0x2f
10001668:	d914      	bls.n	10001694 <irq_remove_handler+0x70>
1000166a:	4b54      	ldr	r3, [pc, #336]	; (100017bc <irq_remove_handler+0x198>)
1000166c:	689b      	ldr	r3, [r3, #8]
1000166e:	519d      	str	r5, [r3, r6]
10001670:	f3bf 8f5f 	dmb	sy
10001674:	f3bf 8f5f 	dmb	sy
10001678:	2200      	movs	r2, #0
1000167a:	4b4f      	ldr	r3, [pc, #316]	; (100017b8 <irq_remove_handler+0x194>)
1000167c:	601a      	str	r2, [r3, #0]
1000167e:	f38a 8810 	msr	PRIMASK, sl
10001682:	b003      	add	sp, #12
10001684:	bc3c      	pop	{r2, r3, r4, r5}
10001686:	4690      	mov	r8, r2
10001688:	4699      	mov	r9, r3
1000168a:	46a2      	mov	sl, r4
1000168c:	46ab      	mov	fp, r5
1000168e:	bdf0      	pop	{r4, r5, r6, r7, pc}
10001690:	001d      	movs	r5, r3
10001692:	e7ea      	b.n	1000166a <irq_remove_handler+0x46>
10001694:	2301      	movs	r3, #1
10001696:	4083      	lsls	r3, r0
10001698:	469b      	mov	fp, r3
1000169a:	465a      	mov	r2, fp
1000169c:	4b4a      	ldr	r3, [pc, #296]	; (100017c8 <irq_remove_handler+0x1a4>)
1000169e:	681b      	ldr	r3, [r3, #0]
100016a0:	401a      	ands	r2, r3
100016a2:	9200      	str	r2, [sp, #0]
100016a4:	465a      	mov	r2, fp
100016a6:	4b49      	ldr	r3, [pc, #292]	; (100017cc <irq_remove_handler+0x1a8>)
100016a8:	601a      	str	r2, [r3, #0]
100016aa:	f3bf 8f5f 	dmb	sy
100016ae:	f7fe fd72 	bl	10000196 <__get_current_exception>
100016b2:	9001      	str	r0, [sp, #4]
100016b4:	2800      	cmp	r0, #0
100016b6:	d003      	beq.n	100016c0 <irq_remove_handler+0x9c>
100016b8:	4581      	cmp	r9, r0
100016ba:	d001      	beq.n	100016c0 <irq_remove_handler+0x9c>
100016bc:	f7ff fdac 	bl	10001218 <hard_assertion_failure>
100016c0:	2301      	movs	r3, #1
100016c2:	0029      	movs	r1, r5
100016c4:	4399      	bics	r1, r3
100016c6:	688b      	ldr	r3, [r1, #8]
100016c8:	42a3      	cmp	r3, r4
100016ca:	d069      	beq.n	100017a0 <irq_remove_handler+0x17c>
100016cc:	000a      	movs	r2, r1
100016ce:	e007      	b.n	100016e0 <irq_remove_handler+0xbc>
100016d0:	0043      	lsls	r3, r0, #1
100016d2:	181b      	adds	r3, r3, r0
100016d4:	009b      	lsls	r3, r3, #2
100016d6:	18fb      	adds	r3, r7, r3
100016d8:	6898      	ldr	r0, [r3, #8]
100016da:	42a0      	cmp	r0, r4
100016dc:	d011      	beq.n	10001702 <irq_remove_handler+0xde>
100016de:	001a      	movs	r2, r3
100016e0:	2006      	movs	r0, #6
100016e2:	5610      	ldrsb	r0, [r2, r0]
100016e4:	2800      	cmp	r0, #0
100016e6:	daf3      	bge.n	100016d0 <irq_remove_handler+0xac>
100016e8:	9b00      	ldr	r3, [sp, #0]
100016ea:	2b00      	cmp	r3, #0
100016ec:	d005      	beq.n	100016fa <irq_remove_handler+0xd6>
100016ee:	465a      	mov	r2, fp
100016f0:	4b37      	ldr	r3, [pc, #220]	; (100017d0 <irq_remove_handler+0x1ac>)
100016f2:	601a      	str	r2, [r3, #0]
100016f4:	4b34      	ldr	r3, [pc, #208]	; (100017c8 <irq_remove_handler+0x1a4>)
100016f6:	601a      	str	r2, [r3, #0]
100016f8:	e7b7      	b.n	1000166a <irq_remove_handler+0x46>
100016fa:	465a      	mov	r2, fp
100016fc:	4b33      	ldr	r3, [pc, #204]	; (100017cc <irq_remove_handler+0x1a8>)
100016fe:	601a      	str	r2, [r3, #0]
10001700:	e7b3      	b.n	1000166a <irq_remove_handler+0x46>
10001702:	2006      	movs	r0, #6
10001704:	5618      	ldrsb	r0, [r3, r0]
10001706:	2800      	cmp	r0, #0
10001708:	db22      	blt.n	10001750 <irq_remove_handler+0x12c>
1000170a:	0042      	lsls	r2, r0, #1
1000170c:	1811      	adds	r1, r2, r0
1000170e:	0089      	lsls	r1, r1, #2
10001710:	187c      	adds	r4, r7, r1
10001712:	4688      	mov	r8, r1
10001714:	68a1      	ldr	r1, [r4, #8]
10001716:	6099      	str	r1, [r3, #8]
10001718:	79e1      	ldrb	r1, [r4, #7]
1000171a:	71d9      	strb	r1, [r3, #7]
1000171c:	2106      	movs	r1, #6
1000171e:	5661      	ldrsb	r1, [r4, r1]
10001720:	7199      	strb	r1, [r3, #6]
10001722:	79a1      	ldrb	r1, [r4, #6]
10001724:	297f      	cmp	r1, #127	; 0x7f
10001726:	d82b      	bhi.n	10001780 <irq_remove_handler+0x15c>
10001728:	88a4      	ldrh	r4, [r4, #4]
1000172a:	1af9      	subs	r1, r7, r3
1000172c:	0564      	lsls	r4, r4, #21
1000172e:	1524      	asrs	r4, r4, #20
10001730:	4444      	add	r4, r8
10001732:	1909      	adds	r1, r1, r4
10001734:	24e0      	movs	r4, #224	; 0xe0
10001736:	0509      	lsls	r1, r1, #20
10001738:	0d49      	lsrs	r1, r1, #21
1000173a:	0224      	lsls	r4, r4, #8
1000173c:	4321      	orrs	r1, r4
1000173e:	8099      	strh	r1, [r3, #4]
10001740:	1812      	adds	r2, r2, r0
10001742:	4b24      	ldr	r3, [pc, #144]	; (100017d4 <irq_remove_handler+0x1b0>)
10001744:	0092      	lsls	r2, r2, #2
10001746:	18bf      	adds	r7, r7, r2
10001748:	781a      	ldrb	r2, [r3, #0]
1000174a:	7018      	strb	r0, [r3, #0]
1000174c:	71ba      	strb	r2, [r7, #6]
1000174e:	e7cb      	b.n	100016e8 <irq_remove_handler+0xc4>
10001750:	9801      	ldr	r0, [sp, #4]
10001752:	2800      	cmp	r0, #0
10001754:	d117      	bne.n	10001786 <irq_remove_handler+0x162>
10001756:	30ff      	adds	r0, #255	; 0xff
10001758:	7190      	strb	r0, [r2, #6]
1000175a:	481f      	ldr	r0, [pc, #124]	; (100017d8 <irq_remove_handler+0x1b4>)
1000175c:	8090      	strh	r0, [r2, #4]
1000175e:	4a1d      	ldr	r2, [pc, #116]	; (100017d4 <irq_remove_handler+0x1b0>)
10001760:	1bcf      	subs	r7, r1, r7
10001762:	7810      	ldrb	r0, [r2, #0]
10001764:	10bf      	asrs	r7, r7, #2
10001766:	7198      	strb	r0, [r3, #6]
10001768:	00bb      	lsls	r3, r7, #2
1000176a:	19db      	adds	r3, r3, r7
1000176c:	0119      	lsls	r1, r3, #4
1000176e:	185b      	adds	r3, r3, r1
10001770:	0219      	lsls	r1, r3, #8
10001772:	185b      	adds	r3, r3, r1
10001774:	0419      	lsls	r1, r3, #16
10001776:	185b      	adds	r3, r3, r1
10001778:	005b      	lsls	r3, r3, #1
1000177a:	19db      	adds	r3, r3, r7
1000177c:	7013      	strb	r3, [r2, #0]
1000177e:	e7b3      	b.n	100016e8 <irq_remove_handler+0xc4>
10001780:	21bd      	movs	r1, #189	; 0xbd
10001782:	0209      	lsls	r1, r1, #8
10001784:	e7db      	b.n	1000173e <irq_remove_handler+0x11a>
10001786:	4a15      	ldr	r2, [pc, #84]	; (100017dc <irq_remove_handler+0x1b8>)
10001788:	4915      	ldr	r1, [pc, #84]	; (100017e0 <irq_remove_handler+0x1bc>)
1000178a:	1ad2      	subs	r2, r2, r3
1000178c:	3a08      	subs	r2, #8
1000178e:	0250      	lsls	r0, r2, #9
10001790:	0d40      	lsrs	r0, r0, #21
10001792:	4301      	orrs	r1, r0
10001794:	8099      	strh	r1, [r3, #4]
10001796:	4913      	ldr	r1, [pc, #76]	; (100017e4 <irq_remove_handler+0x1c0>)
10001798:	0852      	lsrs	r2, r2, #1
1000179a:	430a      	orrs	r2, r1
1000179c:	80da      	strh	r2, [r3, #6]
1000179e:	e7a3      	b.n	100016e8 <irq_remove_handler+0xc4>
100017a0:	2006      	movs	r0, #6
100017a2:	5608      	ldrsb	r0, [r1, r0]
100017a4:	000b      	movs	r3, r1
100017a6:	2800      	cmp	r0, #0
100017a8:	daaf      	bge.n	1000170a <irq_remove_handler+0xe6>
100017aa:	9a01      	ldr	r2, [sp, #4]
100017ac:	2a00      	cmp	r2, #0
100017ae:	d1ea      	bne.n	10001786 <irq_remove_handler+0x162>
100017b0:	000b      	movs	r3, r1
100017b2:	4645      	mov	r5, r8
100017b4:	e7d3      	b.n	1000175e <irq_remove_handler+0x13a>
100017b6:	46c0      	nop			; (mov r8, r8)
100017b8:	d0000124 	.word	0xd0000124
100017bc:	e000ed00 	.word	0xe000ed00
100017c0:	100002cd 	.word	0x100002cd
100017c4:	2000018c 	.word	0x2000018c
100017c8:	e000e100 	.word	0xe000e100
100017cc:	e000e180 	.word	0xe000e180
100017d0:	e000e280 	.word	0xe000e280
100017d4:	20000bb1 	.word	0x20000bb1
100017d8:	ffffbd00 	.word	0xffffbd00
100017dc:	200001c6 	.word	0x200001c6
100017e0:	fffff000 	.word	0xfffff000
100017e4:	fffff800 	.word	0xfffff800

100017e8 <irq_add_tail_to_free_list>:
100017e8:	b5f8      	push	{r3, r4, r5, r6, r7, lr}
100017ea:	2501      	movs	r5, #1
100017ec:	0004      	movs	r4, r0
100017ee:	4305      	orrs	r5, r0
100017f0:	f7fe fcd1 	bl	10000196 <__get_current_exception>
100017f4:	f3ef 8610 	mrs	r6, PRIMASK
100017f8:	b672      	cpsid	i
100017fa:	4a24      	ldr	r2, [pc, #144]	; (1000188c <irq_add_tail_to_free_list+0xa4>)
100017fc:	6813      	ldr	r3, [r2, #0]
100017fe:	2b00      	cmp	r3, #0
10001800:	d0fc      	beq.n	100017fc <irq_add_tail_to_free_list+0x14>
10001802:	f3bf 8f5f 	dmb	sy
10001806:	4f22      	ldr	r7, [pc, #136]	; (10001890 <irq_add_tail_to_free_list+0xa8>)
10001808:	0080      	lsls	r0, r0, #2
1000180a:	1be1      	subs	r1, r4, r7
1000180c:	1089      	asrs	r1, r1, #2
1000180e:	008a      	lsls	r2, r1, #2
10001810:	1852      	adds	r2, r2, r1
10001812:	0113      	lsls	r3, r2, #4
10001814:	18d2      	adds	r2, r2, r3
10001816:	0213      	lsls	r3, r2, #8
10001818:	18d2      	adds	r2, r2, r3
1000181a:	0413      	lsls	r3, r2, #16
1000181c:	18d3      	adds	r3, r2, r3
1000181e:	4a1d      	ldr	r2, [pc, #116]	; (10001894 <irq_add_tail_to_free_list+0xac>)
10001820:	005b      	lsls	r3, r3, #1
10001822:	185b      	adds	r3, r3, r1
10001824:	6891      	ldr	r1, [r2, #8]
10001826:	5809      	ldr	r1, [r1, r0]
10001828:	42a9      	cmp	r1, r5
1000182a:	d01c      	beq.n	10001866 <irq_add_tail_to_free_list+0x7e>
1000182c:	2206      	movs	r2, #6
1000182e:	56ba      	ldrsb	r2, [r7, r2]
10001830:	4293      	cmp	r3, r2
10001832:	d01c      	beq.n	1000186e <irq_add_tail_to_free_list+0x86>
10001834:	2212      	movs	r2, #18
10001836:	56ba      	ldrsb	r2, [r7, r2]
10001838:	4293      	cmp	r3, r2
1000183a:	d022      	beq.n	10001882 <irq_add_tail_to_free_list+0x9a>
1000183c:	221e      	movs	r2, #30
1000183e:	56ba      	ldrsb	r2, [r7, r2]
10001840:	4293      	cmp	r3, r2
10001842:	d020      	beq.n	10001886 <irq_add_tail_to_free_list+0x9e>
10001844:	222a      	movs	r2, #42	; 0x2a
10001846:	56ba      	ldrsb	r2, [r7, r2]
10001848:	2103      	movs	r1, #3
1000184a:	429a      	cmp	r2, r3
1000184c:	d010      	beq.n	10001870 <irq_add_tail_to_free_list+0x88>
1000184e:	4a12      	ldr	r2, [pc, #72]	; (10001898 <irq_add_tail_to_free_list+0xb0>)
10001850:	7811      	ldrb	r1, [r2, #0]
10001852:	7013      	strb	r3, [r2, #0]
10001854:	71a1      	strb	r1, [r4, #6]
10001856:	f3bf 8f5f 	dmb	sy
1000185a:	2200      	movs	r2, #0
1000185c:	4b0b      	ldr	r3, [pc, #44]	; (1000188c <irq_add_tail_to_free_list+0xa4>)
1000185e:	601a      	str	r2, [r3, #0]
10001860:	f386 8810 	msr	PRIMASK, r6
10001864:	bdf8      	pop	{r3, r4, r5, r6, r7, pc}
10001866:	6892      	ldr	r2, [r2, #8]
10001868:	490c      	ldr	r1, [pc, #48]	; (1000189c <irq_add_tail_to_free_list+0xb4>)
1000186a:	5011      	str	r1, [r2, r0]
1000186c:	e7ef      	b.n	1000184e <irq_add_tail_to_free_list+0x66>
1000186e:	2100      	movs	r1, #0
10001870:	004a      	lsls	r2, r1, #1
10001872:	1852      	adds	r2, r2, r1
10001874:	21ff      	movs	r1, #255	; 0xff
10001876:	0092      	lsls	r2, r2, #2
10001878:	18ba      	adds	r2, r7, r2
1000187a:	7191      	strb	r1, [r2, #6]
1000187c:	4908      	ldr	r1, [pc, #32]	; (100018a0 <irq_add_tail_to_free_list+0xb8>)
1000187e:	8091      	strh	r1, [r2, #4]
10001880:	e7e5      	b.n	1000184e <irq_add_tail_to_free_list+0x66>
10001882:	2101      	movs	r1, #1
10001884:	e7f4      	b.n	10001870 <irq_add_tail_to_free_list+0x88>
10001886:	2102      	movs	r1, #2
10001888:	e7f2      	b.n	10001870 <irq_add_tail_to_free_list+0x88>
1000188a:	46c0      	nop			; (mov r8, r8)
1000188c:	d0000124 	.word	0xd0000124
10001890:	2000018c 	.word	0x2000018c
10001894:	e000ed00 	.word	0xe000ed00
10001898:	20000bb1 	.word	0x20000bb1
1000189c:	100002cd 	.word	0x100002cd
100018a0:	ffffbd00 	.word	0xffffbd00

100018a4 <irq_init_priorities>:
100018a4:	b5f0      	push	{r4, r5, r6, r7, lr}
100018a6:	2200      	movs	r2, #0
100018a8:	2403      	movs	r4, #3
100018aa:	27ff      	movs	r7, #255	; 0xff
100018ac:	2680      	movs	r6, #128	; 0x80
100018ae:	0020      	movs	r0, r4
100018b0:	003d      	movs	r5, r7
100018b2:	4b09      	ldr	r3, [pc, #36]	; (100018d8 <irq_init_priorities+0x34>)
100018b4:	0011      	movs	r1, r2
100018b6:	469c      	mov	ip, r3
100018b8:	4010      	ands	r0, r2
100018ba:	00c0      	lsls	r0, r0, #3
100018bc:	4085      	lsls	r5, r0
100018be:	43a1      	bics	r1, r4
100018c0:	4461      	add	r1, ip
100018c2:	680b      	ldr	r3, [r1, #0]
100018c4:	3201      	adds	r2, #1
100018c6:	43ab      	bics	r3, r5
100018c8:	0035      	movs	r5, r6
100018ca:	4085      	lsls	r5, r0
100018cc:	432b      	orrs	r3, r5
100018ce:	600b      	str	r3, [r1, #0]
100018d0:	2a20      	cmp	r2, #32
100018d2:	d1ec      	bne.n	100018ae <irq_init_priorities+0xa>
100018d4:	bdf0      	pop	{r4, r5, r6, r7, pc}
100018d6:	46c0      	nop			; (mov r8, r8)
100018d8:	e000e400 	.word	0xe000e400

100018dc <_out_null>:
100018dc:	4770      	bx	lr
100018de:	46c0      	nop			; (mov r8, r8)

100018e0 <_out_rev>:
100018e0:	b5f8      	push	{r3, r4, r5, r6, r7, lr}
100018e2:	4657      	mov	r7, sl
100018e4:	464e      	mov	r6, r9
100018e6:	46de      	mov	lr, fp
100018e8:	4645      	mov	r5, r8
100018ea:	b5e0      	push	{r5, r6, r7, lr}
100018ec:	001f      	movs	r7, r3
100018ee:	9b0a      	ldr	r3, [sp, #40]	; 0x28
100018f0:	0005      	movs	r5, r0
100018f2:	469b      	mov	fp, r3
100018f4:	9b0d      	ldr	r3, [sp, #52]	; 0x34
100018f6:	000e      	movs	r6, r1
100018f8:	4691      	mov	r9, r2
100018fa:	4692      	mov	sl, r2
100018fc:	079b      	lsls	r3, r3, #30
100018fe:	d118      	bne.n	10001932 <_out_rev+0x52>
10001900:	9b0b      	ldr	r3, [sp, #44]	; 0x2c
10001902:	9a0c      	ldr	r2, [sp, #48]	; 0x30
10001904:	4293      	cmp	r3, r2
10001906:	d214      	bcs.n	10001932 <_out_rev+0x52>
10001908:	0013      	movs	r3, r2
1000190a:	9a0b      	ldr	r2, [sp, #44]	; 0x2c
1000190c:	46b8      	mov	r8, r7
1000190e:	1a9b      	subs	r3, r3, r2
10001910:	444b      	add	r3, r9
10001912:	464c      	mov	r4, r9
10001914:	000f      	movs	r7, r1
10001916:	0006      	movs	r6, r0
10001918:	001d      	movs	r5, r3
1000191a:	0022      	movs	r2, r4
1000191c:	4643      	mov	r3, r8
1000191e:	3401      	adds	r4, #1
10001920:	0039      	movs	r1, r7
10001922:	2020      	movs	r0, #32
10001924:	47b0      	blx	r6
10001926:	42ac      	cmp	r4, r5
10001928:	d1f7      	bne.n	1000191a <_out_rev+0x3a>
1000192a:	46aa      	mov	sl, r5
1000192c:	0035      	movs	r5, r6
1000192e:	003e      	movs	r6, r7
10001930:	4647      	mov	r7, r8
10001932:	9b0b      	ldr	r3, [sp, #44]	; 0x2c
10001934:	2b00      	cmp	r3, #0
10001936:	d038      	beq.n	100019aa <_out_rev+0xca>
10001938:	449a      	add	sl, r3
1000193a:	001c      	movs	r4, r3
1000193c:	46d0      	mov	r8, sl
1000193e:	4653      	mov	r3, sl
10001940:	1b1a      	subs	r2, r3, r4
10001942:	465b      	mov	r3, fp
10001944:	3c01      	subs	r4, #1
10001946:	5d18      	ldrb	r0, [r3, r4]
10001948:	0031      	movs	r1, r6
1000194a:	003b      	movs	r3, r7
1000194c:	47a8      	blx	r5
1000194e:	2c00      	cmp	r4, #0
10001950:	d1f5      	bne.n	1000193e <_out_rev+0x5e>
10001952:	9b0d      	ldr	r3, [sp, #52]	; 0x34
10001954:	079b      	lsls	r3, r3, #30
10001956:	d521      	bpl.n	1000199c <_out_rev+0xbc>
10001958:	4643      	mov	r3, r8
1000195a:	464a      	mov	r2, r9
1000195c:	1a9c      	subs	r4, r3, r2
1000195e:	9b0c      	ldr	r3, [sp, #48]	; 0x30
10001960:	42a3      	cmp	r3, r4
10001962:	d91b      	bls.n	1000199c <_out_rev+0xbc>
10001964:	003a      	movs	r2, r7
10001966:	469a      	mov	sl, r3
10001968:	464f      	mov	r7, r9
1000196a:	4691      	mov	r9, r2
1000196c:	19e2      	adds	r2, r4, r7
1000196e:	464b      	mov	r3, r9
10001970:	0031      	movs	r1, r6
10001972:	2020      	movs	r0, #32
10001974:	3401      	adds	r4, #1
10001976:	47a8      	blx	r5
10001978:	4554      	cmp	r4, sl
1000197a:	d3f7      	bcc.n	1000196c <_out_rev+0x8c>
1000197c:	4643      	mov	r3, r8
1000197e:	990c      	ldr	r1, [sp, #48]	; 0x30
10001980:	1bdb      	subs	r3, r3, r7
10001982:	3301      	adds	r3, #1
10001984:	46b9      	mov	r9, r7
10001986:	2200      	movs	r2, #0
10001988:	4299      	cmp	r1, r3
1000198a:	d303      	bcc.n	10001994 <_out_rev+0xb4>
1000198c:	4643      	mov	r3, r8
1000198e:	1e4a      	subs	r2, r1, #1
10001990:	444a      	add	r2, r9
10001992:	1ad2      	subs	r2, r2, r3
10001994:	4643      	mov	r3, r8
10001996:	4690      	mov	r8, r2
10001998:	3301      	adds	r3, #1
1000199a:	4498      	add	r8, r3
1000199c:	4640      	mov	r0, r8
1000199e:	bc3c      	pop	{r2, r3, r4, r5}
100019a0:	4690      	mov	r8, r2
100019a2:	4699      	mov	r9, r3
100019a4:	46a2      	mov	sl, r4
100019a6:	46ab      	mov	fp, r5
100019a8:	bdf8      	pop	{r3, r4, r5, r6, r7, pc}
100019aa:	46d0      	mov	r8, sl
100019ac:	e7d1      	b.n	10001952 <_out_rev+0x72>
100019ae:	46c0      	nop			; (mov r8, r8)

100019b0 <_ntoa_format>:
100019b0:	b5f0      	push	{r4, r5, r6, r7, lr}
100019b2:	464f      	mov	r7, r9
100019b4:	4646      	mov	r6, r8
100019b6:	46d6      	mov	lr, sl
100019b8:	b5c0      	push	{r6, r7, lr}
100019ba:	b084      	sub	sp, #16
100019bc:	4698      	mov	r8, r3
100019be:	ab0e      	add	r3, sp, #56	; 0x38
100019c0:	781b      	ldrb	r3, [r3, #0]
100019c2:	9f12      	ldr	r7, [sp, #72]	; 0x48
100019c4:	4699      	mov	r9, r3
100019c6:	4694      	mov	ip, r2
100019c8:	9c0d      	ldr	r4, [sp, #52]	; 0x34
100019ca:	9b10      	ldr	r3, [sp, #64]	; 0x40
100019cc:	9e11      	ldr	r6, [sp, #68]	; 0x44
100019ce:	07ba      	lsls	r2, r7, #30
100019d0:	d425      	bmi.n	10001a1e <_ntoa_format+0x6e>
100019d2:	2e00      	cmp	r6, #0
100019d4:	d169      	bne.n	10001aaa <_ntoa_format+0xfa>
100019d6:	429c      	cmp	r4, r3
100019d8:	d300      	bcc.n	100019dc <_ntoa_format+0x2c>
100019da:	e0c2      	b.n	10001b62 <_ntoa_format+0x1b2>
100019dc:	2201      	movs	r2, #1
100019de:	403a      	ands	r2, r7
100019e0:	4692      	mov	sl, r2
100019e2:	2c1f      	cmp	r4, #31
100019e4:	d900      	bls.n	100019e8 <_ntoa_format+0x38>
100019e6:	e0bb      	b.n	10001b60 <_ntoa_format+0x1b0>
100019e8:	9a0c      	ldr	r2, [sp, #48]	; 0x30
100019ea:	1e55      	subs	r5, r2, #1
100019ec:	2230      	movs	r2, #48	; 0x30
100019ee:	e001      	b.n	100019f4 <_ntoa_format+0x44>
100019f0:	2c20      	cmp	r4, #32
100019f2:	d003      	beq.n	100019fc <_ntoa_format+0x4c>
100019f4:	3401      	adds	r4, #1
100019f6:	552a      	strb	r2, [r5, r4]
100019f8:	42a3      	cmp	r3, r4
100019fa:	d8f9      	bhi.n	100019f0 <_ntoa_format+0x40>
100019fc:	4652      	mov	r2, sl
100019fe:	2a00      	cmp	r2, #0
10001a00:	d00d      	beq.n	10001a1e <_ntoa_format+0x6e>
10001a02:	42b4      	cmp	r4, r6
10001a04:	d20b      	bcs.n	10001a1e <_ntoa_format+0x6e>
10001a06:	2c1f      	cmp	r4, #31
10001a08:	d862      	bhi.n	10001ad0 <_ntoa_format+0x120>
10001a0a:	9a0c      	ldr	r2, [sp, #48]	; 0x30
10001a0c:	1e55      	subs	r5, r2, #1
10001a0e:	2230      	movs	r2, #48	; 0x30
10001a10:	e001      	b.n	10001a16 <_ntoa_format+0x66>
10001a12:	2c20      	cmp	r4, #32
10001a14:	d05c      	beq.n	10001ad0 <_ntoa_format+0x120>
10001a16:	3401      	adds	r4, #1
10001a18:	552a      	strb	r2, [r5, r4]
10001a1a:	42b4      	cmp	r4, r6
10001a1c:	d1f9      	bne.n	10001a12 <_ntoa_format+0x62>
10001a1e:	06fa      	lsls	r2, r7, #27
10001a20:	d535      	bpl.n	10001a8e <_ntoa_format+0xde>
10001a22:	057a      	lsls	r2, r7, #21
10001a24:	d45d      	bmi.n	10001ae2 <_ntoa_format+0x132>
10001a26:	2c00      	cmp	r4, #0
10001a28:	d157      	bne.n	10001ada <_ntoa_format+0x12a>
10001a2a:	9b0f      	ldr	r3, [sp, #60]	; 0x3c
10001a2c:	2b10      	cmp	r3, #16
10001a2e:	d100      	bne.n	10001a32 <_ntoa_format+0x82>
10001a30:	e07c      	b.n	10001b2c <_ntoa_format+0x17c>
10001a32:	9b0f      	ldr	r3, [sp, #60]	; 0x3c
10001a34:	2b02      	cmp	r3, #2
10001a36:	d100      	bne.n	10001a3a <_ntoa_format+0x8a>
10001a38:	e08d      	b.n	10001b56 <_ntoa_format+0x1a6>
10001a3a:	2330      	movs	r3, #48	; 0x30
10001a3c:	9a0c      	ldr	r2, [sp, #48]	; 0x30
10001a3e:	2401      	movs	r4, #1
10001a40:	7013      	strb	r3, [r2, #0]
10001a42:	464b      	mov	r3, r9
10001a44:	2b00      	cmp	r3, #0
10001a46:	d027      	beq.n	10001a98 <_ntoa_format+0xe8>
10001a48:	232d      	movs	r3, #45	; 0x2d
10001a4a:	9a0c      	ldr	r2, [sp, #48]	; 0x30
10001a4c:	5513      	strb	r3, [r2, r4]
10001a4e:	3401      	adds	r4, #1
10001a50:	9b0c      	ldr	r3, [sp, #48]	; 0x30
10001a52:	4662      	mov	r2, ip
10001a54:	9300      	str	r3, [sp, #0]
10001a56:	9703      	str	r7, [sp, #12]
10001a58:	4643      	mov	r3, r8
10001a5a:	9602      	str	r6, [sp, #8]
10001a5c:	9401      	str	r4, [sp, #4]
10001a5e:	f7ff ff3f 	bl	100018e0 <_out_rev>
10001a62:	b004      	add	sp, #16
10001a64:	bc1c      	pop	{r2, r3, r4}
10001a66:	4690      	mov	r8, r2
10001a68:	4699      	mov	r9, r3
10001a6a:	46a2      	mov	sl, r4
10001a6c:	bdf0      	pop	{r4, r5, r6, r7, pc}
10001a6e:	06bb      	lsls	r3, r7, #26
10001a70:	d463      	bmi.n	10001b3a <_ntoa_format+0x18a>
10001a72:	2c20      	cmp	r4, #32
10001a74:	d0ec      	beq.n	10001a50 <_ntoa_format+0xa0>
10001a76:	9b0c      	ldr	r3, [sp, #48]	; 0x30
10001a78:	191a      	adds	r2, r3, r4
10001a7a:	3401      	adds	r4, #1
10001a7c:	2378      	movs	r3, #120	; 0x78
10001a7e:	7013      	strb	r3, [r2, #0]
10001a80:	2c20      	cmp	r4, #32
10001a82:	d0e5      	beq.n	10001a50 <_ntoa_format+0xa0>
10001a84:	2230      	movs	r2, #48	; 0x30
10001a86:	9b0c      	ldr	r3, [sp, #48]	; 0x30
10001a88:	191b      	adds	r3, r3, r4
10001a8a:	701a      	strb	r2, [r3, #0]
10001a8c:	3401      	adds	r4, #1
10001a8e:	2c20      	cmp	r4, #32
10001a90:	d0de      	beq.n	10001a50 <_ntoa_format+0xa0>
10001a92:	464b      	mov	r3, r9
10001a94:	2b00      	cmp	r3, #0
10001a96:	d1d7      	bne.n	10001a48 <_ntoa_format+0x98>
10001a98:	077b      	lsls	r3, r7, #29
10001a9a:	d435      	bmi.n	10001b08 <_ntoa_format+0x158>
10001a9c:	073b      	lsls	r3, r7, #28
10001a9e:	d5d7      	bpl.n	10001a50 <_ntoa_format+0xa0>
10001aa0:	2320      	movs	r3, #32
10001aa2:	9a0c      	ldr	r2, [sp, #48]	; 0x30
10001aa4:	5513      	strb	r3, [r2, r4]
10001aa6:	3401      	adds	r4, #1
10001aa8:	e7d2      	b.n	10001a50 <_ntoa_format+0xa0>
10001aaa:	2201      	movs	r2, #1
10001aac:	0015      	movs	r5, r2
10001aae:	403d      	ands	r5, r7
10001ab0:	46aa      	mov	sl, r5
10001ab2:	423a      	tst	r2, r7
10001ab4:	d020      	beq.n	10001af8 <_ntoa_format+0x148>
10001ab6:	464a      	mov	r2, r9
10001ab8:	2a00      	cmp	r2, #0
10001aba:	d12a      	bne.n	10001b12 <_ntoa_format+0x162>
10001abc:	320c      	adds	r2, #12
10001abe:	423a      	tst	r2, r7
10001ac0:	d127      	bne.n	10001b12 <_ntoa_format+0x162>
10001ac2:	429c      	cmp	r4, r3
10001ac4:	d29d      	bcs.n	10001a02 <_ntoa_format+0x52>
10001ac6:	2c1f      	cmp	r4, #31
10001ac8:	d800      	bhi.n	10001acc <_ntoa_format+0x11c>
10001aca:	e78d      	b.n	100019e8 <_ntoa_format+0x38>
10001acc:	2e20      	cmp	r6, #32
10001ace:	d919      	bls.n	10001b04 <_ntoa_format+0x154>
10001ad0:	2420      	movs	r4, #32
10001ad2:	06fa      	lsls	r2, r7, #27
10001ad4:	d5bc      	bpl.n	10001a50 <_ntoa_format+0xa0>
10001ad6:	057a      	lsls	r2, r7, #21
10001ad8:	d403      	bmi.n	10001ae2 <_ntoa_format+0x132>
10001ada:	42a3      	cmp	r3, r4
10001adc:	d01b      	beq.n	10001b16 <_ntoa_format+0x166>
10001ade:	42a6      	cmp	r6, r4
10001ae0:	d019      	beq.n	10001b16 <_ntoa_format+0x166>
10001ae2:	9b0f      	ldr	r3, [sp, #60]	; 0x3c
10001ae4:	2b10      	cmp	r3, #16
10001ae6:	d0c2      	beq.n	10001a6e <_ntoa_format+0xbe>
10001ae8:	2b02      	cmp	r3, #2
10001aea:	d1c9      	bne.n	10001a80 <_ntoa_format+0xd0>
10001aec:	2c20      	cmp	r4, #32
10001aee:	d0af      	beq.n	10001a50 <_ntoa_format+0xa0>
10001af0:	9b0c      	ldr	r3, [sp, #48]	; 0x30
10001af2:	191b      	adds	r3, r3, r4
10001af4:	3401      	adds	r4, #1
10001af6:	e040      	b.n	10001b7a <_ntoa_format+0x1ca>
10001af8:	429c      	cmp	r4, r3
10001afa:	d300      	bcc.n	10001afe <_ntoa_format+0x14e>
10001afc:	e78f      	b.n	10001a1e <_ntoa_format+0x6e>
10001afe:	2c1f      	cmp	r4, #31
10001b00:	d800      	bhi.n	10001b04 <_ntoa_format+0x154>
10001b02:	e771      	b.n	100019e8 <_ntoa_format+0x38>
10001b04:	2420      	movs	r4, #32
10001b06:	e78a      	b.n	10001a1e <_ntoa_format+0x6e>
10001b08:	232b      	movs	r3, #43	; 0x2b
10001b0a:	9a0c      	ldr	r2, [sp, #48]	; 0x30
10001b0c:	5513      	strb	r3, [r2, r4]
10001b0e:	3401      	adds	r4, #1
10001b10:	e79e      	b.n	10001a50 <_ntoa_format+0xa0>
10001b12:	3e01      	subs	r6, #1
10001b14:	e7d5      	b.n	10001ac2 <_ntoa_format+0x112>
10001b16:	1e63      	subs	r3, r4, #1
10001b18:	2c01      	cmp	r4, #1
10001b1a:	d100      	bne.n	10001b1e <_ntoa_format+0x16e>
10001b1c:	e785      	b.n	10001a2a <_ntoa_format+0x7a>
10001b1e:	9a0f      	ldr	r2, [sp, #60]	; 0x3c
10001b20:	2a10      	cmp	r2, #16
10001b22:	d020      	beq.n	10001b66 <_ntoa_format+0x1b6>
10001b24:	2a02      	cmp	r2, #2
10001b26:	d025      	beq.n	10001b74 <_ntoa_format+0x1c4>
10001b28:	001c      	movs	r4, r3
10001b2a:	e7ab      	b.n	10001a84 <_ntoa_format+0xd4>
10001b2c:	06bb      	lsls	r3, r7, #26
10001b2e:	d40d      	bmi.n	10001b4c <_ntoa_format+0x19c>
10001b30:	2378      	movs	r3, #120	; 0x78
10001b32:	9a0c      	ldr	r2, [sp, #48]	; 0x30
10001b34:	2401      	movs	r4, #1
10001b36:	7013      	strb	r3, [r2, #0]
10001b38:	e7a4      	b.n	10001a84 <_ntoa_format+0xd4>
10001b3a:	2c20      	cmp	r4, #32
10001b3c:	d100      	bne.n	10001b40 <_ntoa_format+0x190>
10001b3e:	e787      	b.n	10001a50 <_ntoa_format+0xa0>
10001b40:	2258      	movs	r2, #88	; 0x58
10001b42:	9b0c      	ldr	r3, [sp, #48]	; 0x30
10001b44:	191b      	adds	r3, r3, r4
10001b46:	701a      	strb	r2, [r3, #0]
10001b48:	3401      	adds	r4, #1
10001b4a:	e799      	b.n	10001a80 <_ntoa_format+0xd0>
10001b4c:	2358      	movs	r3, #88	; 0x58
10001b4e:	9a0c      	ldr	r2, [sp, #48]	; 0x30
10001b50:	2401      	movs	r4, #1
10001b52:	7013      	strb	r3, [r2, #0]
10001b54:	e796      	b.n	10001a84 <_ntoa_format+0xd4>
10001b56:	9a0c      	ldr	r2, [sp, #48]	; 0x30
10001b58:	3360      	adds	r3, #96	; 0x60
10001b5a:	2401      	movs	r4, #1
10001b5c:	7013      	strb	r3, [r2, #0]
10001b5e:	e791      	b.n	10001a84 <_ntoa_format+0xd4>
10001b60:	2420      	movs	r4, #32
10001b62:	2600      	movs	r6, #0
10001b64:	e75b      	b.n	10001a1e <_ntoa_format+0x6e>
10001b66:	3c02      	subs	r4, #2
10001b68:	06ba      	lsls	r2, r7, #26
10001b6a:	d4e9      	bmi.n	10001b40 <_ntoa_format+0x190>
10001b6c:	9a0c      	ldr	r2, [sp, #48]	; 0x30
10001b6e:	1912      	adds	r2, r2, r4
10001b70:	001c      	movs	r4, r3
10001b72:	e783      	b.n	10001a7c <_ntoa_format+0xcc>
10001b74:	9a0c      	ldr	r2, [sp, #48]	; 0x30
10001b76:	4692      	mov	sl, r2
10001b78:	4453      	add	r3, sl
10001b7a:	2262      	movs	r2, #98	; 0x62
10001b7c:	701a      	strb	r2, [r3, #0]
10001b7e:	e77f      	b.n	10001a80 <_ntoa_format+0xd0>

10001b80 <_out_char>:
10001b80:	b510      	push	{r4, lr}
10001b82:	2800      	cmp	r0, #0
10001b84:	d100      	bne.n	10001b88 <_out_char+0x8>
10001b86:	bd10      	pop	{r4, pc}
10001b88:	f002 f9ea 	bl	10003f60 <__wrap_putchar>
10001b8c:	e7fb      	b.n	10001b86 <_out_char+0x6>
10001b8e:	46c0      	nop			; (mov r8, r8)

10001b90 <_out_fct>:
10001b90:	000b      	movs	r3, r1
10001b92:	b510      	push	{r4, lr}
10001b94:	2800      	cmp	r0, #0
10001b96:	d002      	beq.n	10001b9e <_out_fct+0xe>
10001b98:	6849      	ldr	r1, [r1, #4]
10001b9a:	681b      	ldr	r3, [r3, #0]
10001b9c:	4798      	blx	r3
10001b9e:	bd10      	pop	{r4, pc}

10001ba0 <_etoa>:
10001ba0:	b5f0      	push	{r4, r5, r6, r7, lr}
10001ba2:	46de      	mov	lr, fp
10001ba4:	4657      	mov	r7, sl
10001ba6:	464e      	mov	r6, r9
10001ba8:	4645      	mov	r5, r8
10001baa:	b5e0      	push	{r5, r6, r7, lr}
10001bac:	b09b      	sub	sp, #108	; 0x6c
10001bae:	469a      	mov	sl, r3
10001bb0:	9b24      	ldr	r3, [sp, #144]	; 0x90
10001bb2:	468b      	mov	fp, r1
10001bb4:	4699      	mov	r9, r3
10001bb6:	9b25      	ldr	r3, [sp, #148]	; 0x94
10001bb8:	900b      	str	r0, [sp, #44]	; 0x2c
10001bba:	4698      	mov	r8, r3
10001bbc:	920c      	str	r2, [sp, #48]	; 0x30
10001bbe:	4643      	mov	r3, r8
10001bc0:	464a      	mov	r2, r9
10001bc2:	4648      	mov	r0, r9
10001bc4:	4641      	mov	r1, r8
10001bc6:	f001 fccc 	bl	10003562 <__wrap___aeabi_dcmpun>
10001bca:	2800      	cmp	r0, #0
10001bcc:	d000      	beq.n	10001bd0 <_etoa+0x30>
10001bce:	e1a3      	b.n	10001f18 <_etoa+0x378>
10001bd0:	2201      	movs	r2, #1
10001bd2:	4648      	mov	r0, r9
10001bd4:	4641      	mov	r1, r8
10001bd6:	4be2      	ldr	r3, [pc, #904]	; (10001f60 <_etoa+0x3c0>)
10001bd8:	4252      	negs	r2, r2
10001bda:	f001 fcbd 	bl	10003558 <__wrap___aeabi_dcmpgt>
10001bde:	2800      	cmp	r0, #0
10001be0:	d000      	beq.n	10001be4 <_etoa+0x44>
10001be2:	e199      	b.n	10001f18 <_etoa+0x378>
10001be4:	2201      	movs	r2, #1
10001be6:	4648      	mov	r0, r9
10001be8:	4641      	mov	r1, r8
10001bea:	4bde      	ldr	r3, [pc, #888]	; (10001f64 <_etoa+0x3c4>)
10001bec:	4252      	negs	r2, r2
10001bee:	f001 fc9d 	bl	1000352c <__wrap___aeabi_dcmplt>
10001bf2:	2800      	cmp	r0, #0
10001bf4:	d000      	beq.n	10001bf8 <_etoa+0x58>
10001bf6:	e18f      	b.n	10001f18 <_etoa+0x378>
10001bf8:	2200      	movs	r2, #0
10001bfa:	2300      	movs	r3, #0
10001bfc:	4648      	mov	r0, r9
10001bfe:	4641      	mov	r1, r8
10001c00:	f001 fc94 	bl	1000352c <__wrap___aeabi_dcmplt>
10001c04:	2800      	cmp	r0, #0
10001c06:	d000      	beq.n	10001c0a <_etoa+0x6a>
10001c08:	e1de      	b.n	10001fc8 <_etoa+0x428>
10001c0a:	464a      	mov	r2, r9
10001c0c:	4643      	mov	r3, r8
10001c0e:	920a      	str	r2, [sp, #40]	; 0x28
10001c10:	9309      	str	r3, [sp, #36]	; 0x24
10001c12:	2380      	movs	r3, #128	; 0x80
10001c14:	9a28      	ldr	r2, [sp, #160]	; 0xa0
10001c16:	00db      	lsls	r3, r3, #3
10001c18:	401a      	ands	r2, r3
10001c1a:	9211      	str	r2, [sp, #68]	; 0x44
10001c1c:	9a28      	ldr	r2, [sp, #160]	; 0xa0
10001c1e:	421a      	tst	r2, r3
10001c20:	d101      	bne.n	10001c26 <_etoa+0x86>
10001c22:	2306      	movs	r3, #6
10001c24:	9326      	str	r3, [sp, #152]	; 0x98
10001c26:	4bd0      	ldr	r3, [pc, #832]	; (10001f68 <_etoa+0x3c8>)
10001c28:	9f09      	ldr	r7, [sp, #36]	; 0x24
10001c2a:	469c      	mov	ip, r3
10001c2c:	0078      	lsls	r0, r7, #1
10001c2e:	0d40      	lsrs	r0, r0, #21
10001c30:	4460      	add	r0, ip
10001c32:	f001 fca9 	bl	10003588 <__wrap___aeabi_i2d>
10001c36:	4acd      	ldr	r2, [pc, #820]	; (10001f6c <_etoa+0x3cc>)
10001c38:	4bcd      	ldr	r3, [pc, #820]	; (10001f70 <_etoa+0x3d0>)
10001c3a:	f001 fc35 	bl	100034a8 <__wrap___aeabi_dmul>
10001c3e:	4acd      	ldr	r2, [pc, #820]	; (10001f74 <_etoa+0x3d4>)
10001c40:	4bcd      	ldr	r3, [pc, #820]	; (10001f78 <_etoa+0x3d8>)
10001c42:	f001 fc1f 	bl	10003484 <__wrap___aeabi_dadd>
10001c46:	033b      	lsls	r3, r7, #12
10001c48:	4acc      	ldr	r2, [pc, #816]	; (10001f7c <_etoa+0x3dc>)
10001c4a:	9e0a      	ldr	r6, [sp, #40]	; 0x28
10001c4c:	0b1b      	lsrs	r3, r3, #12
10001c4e:	431a      	orrs	r2, r3
10001c50:	0004      	movs	r4, r0
10001c52:	000d      	movs	r5, r1
10001c54:	0030      	movs	r0, r6
10001c56:	0011      	movs	r1, r2
10001c58:	4bc9      	ldr	r3, [pc, #804]	; (10001f80 <_etoa+0x3e0>)
10001c5a:	2200      	movs	r2, #0
10001c5c:	9709      	str	r7, [sp, #36]	; 0x24
10001c5e:	f001 fc08 	bl	10003472 <__wrap___aeabi_dsub>
10001c62:	4ac8      	ldr	r2, [pc, #800]	; (10001f84 <_etoa+0x3e4>)
10001c64:	4bc8      	ldr	r3, [pc, #800]	; (10001f88 <_etoa+0x3e8>)
10001c66:	f001 fc1f 	bl	100034a8 <__wrap___aeabi_dmul>
10001c6a:	0002      	movs	r2, r0
10001c6c:	000b      	movs	r3, r1
10001c6e:	0020      	movs	r0, r4
10001c70:	0029      	movs	r1, r5
10001c72:	f001 fc07 	bl	10003484 <__wrap___aeabi_dadd>
10001c76:	f001 fc9f 	bl	100035b8 <__wrap___aeabi_d2iz>
10001c7a:	900d      	str	r0, [sp, #52]	; 0x34
10001c7c:	f001 fc84 	bl	10003588 <__wrap___aeabi_i2d>
10001c80:	4ac2      	ldr	r2, [pc, #776]	; (10001f8c <_etoa+0x3ec>)
10001c82:	4bc3      	ldr	r3, [pc, #780]	; (10001f90 <_etoa+0x3f0>)
10001c84:	0004      	movs	r4, r0
10001c86:	000d      	movs	r5, r1
10001c88:	f001 fc0e 	bl	100034a8 <__wrap___aeabi_dmul>
10001c8c:	2200      	movs	r2, #0
10001c8e:	4bc1      	ldr	r3, [pc, #772]	; (10001f94 <_etoa+0x3f4>)
10001c90:	f001 fbf8 	bl	10003484 <__wrap___aeabi_dadd>
10001c94:	f001 fc90 	bl	100035b8 <__wrap___aeabi_d2iz>
10001c98:	4abf      	ldr	r2, [pc, #764]	; (10001f98 <_etoa+0x3f8>)
10001c9a:	0006      	movs	r6, r0
10001c9c:	4bbf      	ldr	r3, [pc, #764]	; (10001f9c <_etoa+0x3fc>)
10001c9e:	0020      	movs	r0, r4
10001ca0:	0029      	movs	r1, r5
10001ca2:	f001 fc01 	bl	100034a8 <__wrap___aeabi_dmul>
10001ca6:	0004      	movs	r4, r0
10001ca8:	0030      	movs	r0, r6
10001caa:	000d      	movs	r5, r1
10001cac:	9610      	str	r6, [sp, #64]	; 0x40
10001cae:	f001 fc6b 	bl	10003588 <__wrap___aeabi_i2d>
10001cb2:	4abb      	ldr	r2, [pc, #748]	; (10001fa0 <_etoa+0x400>)
10001cb4:	4bbb      	ldr	r3, [pc, #748]	; (10001fa4 <_etoa+0x404>)
10001cb6:	f001 fbf7 	bl	100034a8 <__wrap___aeabi_dmul>
10001cba:	0002      	movs	r2, r0
10001cbc:	000b      	movs	r3, r1
10001cbe:	0020      	movs	r0, r4
10001cc0:	0029      	movs	r1, r5
10001cc2:	f001 fbd6 	bl	10003472 <__wrap___aeabi_dsub>
10001cc6:	0002      	movs	r2, r0
10001cc8:	000b      	movs	r3, r1
10001cca:	0006      	movs	r6, r0
10001ccc:	000f      	movs	r7, r1
10001cce:	f001 fbeb 	bl	100034a8 <__wrap___aeabi_dmul>
10001cd2:	0032      	movs	r2, r6
10001cd4:	0004      	movs	r4, r0
10001cd6:	000d      	movs	r5, r1
10001cd8:	003b      	movs	r3, r7
10001cda:	0030      	movs	r0, r6
10001cdc:	0039      	movs	r1, r7
10001cde:	f001 fbd1 	bl	10003484 <__wrap___aeabi_dadd>
10001ce2:	2200      	movs	r2, #0
10001ce4:	900e      	str	r0, [sp, #56]	; 0x38
10001ce6:	910f      	str	r1, [sp, #60]	; 0x3c
10001ce8:	4baf      	ldr	r3, [pc, #700]	; (10001fa8 <_etoa+0x408>)
10001cea:	0020      	movs	r0, r4
10001cec:	0029      	movs	r1, r5
10001cee:	f001 fbd2 	bl	10003496 <__wrap___aeabi_ddiv>
10001cf2:	2200      	movs	r2, #0
10001cf4:	4bad      	ldr	r3, [pc, #692]	; (10001fac <_etoa+0x40c>)
10001cf6:	f001 fbc5 	bl	10003484 <__wrap___aeabi_dadd>
10001cfa:	0002      	movs	r2, r0
10001cfc:	000b      	movs	r3, r1
10001cfe:	0020      	movs	r0, r4
10001d00:	0029      	movs	r1, r5
10001d02:	f001 fbc8 	bl	10003496 <__wrap___aeabi_ddiv>
10001d06:	2200      	movs	r2, #0
10001d08:	4ba9      	ldr	r3, [pc, #676]	; (10001fb0 <_etoa+0x410>)
10001d0a:	f001 fbbb 	bl	10003484 <__wrap___aeabi_dadd>
10001d0e:	0002      	movs	r2, r0
10001d10:	000b      	movs	r3, r1
10001d12:	0020      	movs	r0, r4
10001d14:	0029      	movs	r1, r5
10001d16:	f001 fbbe 	bl	10003496 <__wrap___aeabi_ddiv>
10001d1a:	000d      	movs	r5, r1
10001d1c:	2180      	movs	r1, #128	; 0x80
10001d1e:	0004      	movs	r4, r0
10001d20:	0032      	movs	r2, r6
10001d22:	003b      	movs	r3, r7
10001d24:	2000      	movs	r0, #0
10001d26:	05c9      	lsls	r1, r1, #23
10001d28:	f001 fba3 	bl	10003472 <__wrap___aeabi_dsub>
10001d2c:	0002      	movs	r2, r0
10001d2e:	000b      	movs	r3, r1
10001d30:	0020      	movs	r0, r4
10001d32:	0029      	movs	r1, r5
10001d34:	f001 fba6 	bl	10003484 <__wrap___aeabi_dadd>
10001d38:	0002      	movs	r2, r0
10001d3a:	000b      	movs	r3, r1
10001d3c:	980e      	ldr	r0, [sp, #56]	; 0x38
10001d3e:	990f      	ldr	r1, [sp, #60]	; 0x3c
10001d40:	f001 fba9 	bl	10003496 <__wrap___aeabi_ddiv>
10001d44:	2200      	movs	r2, #0
10001d46:	4b8d      	ldr	r3, [pc, #564]	; (10001f7c <_etoa+0x3dc>)
10001d48:	f001 fb9c 	bl	10003484 <__wrap___aeabi_dadd>
10001d4c:	9b10      	ldr	r3, [sp, #64]	; 0x40
10001d4e:	4a99      	ldr	r2, [pc, #612]	; (10001fb4 <_etoa+0x414>)
10001d50:	001c      	movs	r4, r3
10001d52:	4694      	mov	ip, r2
10001d54:	4464      	add	r4, ip
10001d56:	2200      	movs	r2, #0
10001d58:	0523      	lsls	r3, r4, #20
10001d5a:	f001 fba5 	bl	100034a8 <__wrap___aeabi_dmul>
10001d5e:	0006      	movs	r6, r0
10001d60:	000f      	movs	r7, r1
10001d62:	0002      	movs	r2, r0
10001d64:	000b      	movs	r3, r1
10001d66:	980a      	ldr	r0, [sp, #40]	; 0x28
10001d68:	9909      	ldr	r1, [sp, #36]	; 0x24
10001d6a:	f001 fbdf 	bl	1000352c <__wrap___aeabi_dcmplt>
10001d6e:	2800      	cmp	r0, #0
10001d70:	d00a      	beq.n	10001d88 <_etoa+0x1e8>
10001d72:	9b0d      	ldr	r3, [sp, #52]	; 0x34
10001d74:	0030      	movs	r0, r6
10001d76:	3b01      	subs	r3, #1
10001d78:	0039      	movs	r1, r7
10001d7a:	930d      	str	r3, [sp, #52]	; 0x34
10001d7c:	2200      	movs	r2, #0
10001d7e:	4b8b      	ldr	r3, [pc, #556]	; (10001fac <_etoa+0x40c>)
10001d80:	f001 fb89 	bl	10003496 <__wrap___aeabi_ddiv>
10001d84:	0006      	movs	r6, r0
10001d86:	000f      	movs	r7, r1
10001d88:	9d0d      	ldr	r5, [sp, #52]	; 0x34
10001d8a:	24c6      	movs	r4, #198	; 0xc6
10001d8c:	002b      	movs	r3, r5
10001d8e:	3363      	adds	r3, #99	; 0x63
10001d90:	429c      	cmp	r4, r3
10001d92:	41a4      	sbcs	r4, r4
10001d94:	9b28      	ldr	r3, [sp, #160]	; 0xa0
10001d96:	4264      	negs	r4, r4
10001d98:	3404      	adds	r4, #4
10001d9a:	051b      	lsls	r3, r3, #20
10001d9c:	d51f      	bpl.n	10001dde <_etoa+0x23e>
10001d9e:	4a86      	ldr	r2, [pc, #536]	; (10001fb8 <_etoa+0x418>)
10001da0:	4b86      	ldr	r3, [pc, #536]	; (10001fbc <_etoa+0x41c>)
10001da2:	980a      	ldr	r0, [sp, #40]	; 0x28
10001da4:	9909      	ldr	r1, [sp, #36]	; 0x24
10001da6:	f001 fbcf 	bl	10003548 <__wrap___aeabi_dcmpge>
10001daa:	2800      	cmp	r0, #0
10001dac:	d100      	bne.n	10001db0 <_etoa+0x210>
10001dae:	e0cc      	b.n	10001f4a <_etoa+0x3aa>
10001db0:	2200      	movs	r2, #0
10001db2:	4b83      	ldr	r3, [pc, #524]	; (10001fc0 <_etoa+0x420>)
10001db4:	980a      	ldr	r0, [sp, #40]	; 0x28
10001db6:	9909      	ldr	r1, [sp, #36]	; 0x24
10001db8:	f001 fbb8 	bl	1000352c <__wrap___aeabi_dcmplt>
10001dbc:	2800      	cmp	r0, #0
10001dbe:	d100      	bne.n	10001dc2 <_etoa+0x222>
10001dc0:	e0c3      	b.n	10001f4a <_etoa+0x3aa>
10001dc2:	9a26      	ldr	r2, [sp, #152]	; 0x98
10001dc4:	4295      	cmp	r5, r2
10001dc6:	da00      	bge.n	10001dca <_etoa+0x22a>
10001dc8:	e10b      	b.n	10001fe2 <_etoa+0x442>
10001dca:	2300      	movs	r3, #0
10001dcc:	9326      	str	r3, [sp, #152]	; 0x98
10001dce:	2380      	movs	r3, #128	; 0x80
10001dd0:	9a28      	ldr	r2, [sp, #160]	; 0xa0
10001dd2:	00db      	lsls	r3, r3, #3
10001dd4:	431a      	orrs	r2, r3
10001dd6:	2300      	movs	r3, #0
10001dd8:	2400      	movs	r4, #0
10001dda:	9228      	str	r2, [sp, #160]	; 0xa0
10001ddc:	930d      	str	r3, [sp, #52]	; 0x34
10001dde:	9b27      	ldr	r3, [sp, #156]	; 0x9c
10001de0:	2500      	movs	r5, #0
10001de2:	42a3      	cmp	r3, r4
10001de4:	d900      	bls.n	10001de8 <_etoa+0x248>
10001de6:	1b1d      	subs	r5, r3, r4
10001de8:	2302      	movs	r3, #2
10001dea:	9a28      	ldr	r2, [sp, #160]	; 0xa0
10001dec:	401a      	ands	r2, r3
10001dee:	9210      	str	r2, [sp, #64]	; 0x40
10001df0:	9a28      	ldr	r2, [sp, #160]	; 0xa0
10001df2:	4213      	tst	r3, r2
10001df4:	d003      	beq.n	10001dfe <_etoa+0x25e>
10001df6:	4263      	negs	r3, r4
10001df8:	4163      	adcs	r3, r4
10001dfa:	425b      	negs	r3, r3
10001dfc:	401d      	ands	r5, r3
10001dfe:	9b0d      	ldr	r3, [sp, #52]	; 0x34
10001e00:	2b00      	cmp	r3, #0
10001e02:	d007      	beq.n	10001e14 <_etoa+0x274>
10001e04:	980a      	ldr	r0, [sp, #40]	; 0x28
10001e06:	9909      	ldr	r1, [sp, #36]	; 0x24
10001e08:	0032      	movs	r2, r6
10001e0a:	003b      	movs	r3, r7
10001e0c:	f001 fb43 	bl	10003496 <__wrap___aeabi_ddiv>
10001e10:	900a      	str	r0, [sp, #40]	; 0x28
10001e12:	9109      	str	r1, [sp, #36]	; 0x24
10001e14:	2200      	movs	r2, #0
10001e16:	2300      	movs	r3, #0
10001e18:	4648      	mov	r0, r9
10001e1a:	4641      	mov	r1, r8
10001e1c:	f001 fb86 	bl	1000352c <__wrap___aeabi_dcmplt>
10001e20:	2800      	cmp	r0, #0
10001e22:	d005      	beq.n	10001e30 <_etoa+0x290>
10001e24:	2080      	movs	r0, #128	; 0x80
10001e26:	0600      	lsls	r0, r0, #24
10001e28:	4684      	mov	ip, r0
10001e2a:	9909      	ldr	r1, [sp, #36]	; 0x24
10001e2c:	4461      	add	r1, ip
10001e2e:	9109      	str	r1, [sp, #36]	; 0x24
10001e30:	9a28      	ldr	r2, [sp, #160]	; 0xa0
10001e32:	4b64      	ldr	r3, [pc, #400]	; (10001fc4 <_etoa+0x424>)
10001e34:	9e0b      	ldr	r6, [sp, #44]	; 0x2c
10001e36:	4013      	ands	r3, r2
10001e38:	9304      	str	r3, [sp, #16]
10001e3a:	9b26      	ldr	r3, [sp, #152]	; 0x98
10001e3c:	9a0a      	ldr	r2, [sp, #40]	; 0x28
10001e3e:	9302      	str	r3, [sp, #8]
10001e40:	9b09      	ldr	r3, [sp, #36]	; 0x24
10001e42:	9503      	str	r5, [sp, #12]
10001e44:	9200      	str	r2, [sp, #0]
10001e46:	9301      	str	r3, [sp, #4]
10001e48:	4659      	mov	r1, fp
10001e4a:	4653      	mov	r3, sl
10001e4c:	0030      	movs	r0, r6
10001e4e:	9a0c      	ldr	r2, [sp, #48]	; 0x30
10001e50:	f000 f8cc 	bl	10001fec <_ftoa>
10001e54:	0005      	movs	r5, r0
10001e56:	2c00      	cmp	r4, #0
10001e58:	d06f      	beq.n	10001f3a <_etoa+0x39a>
10001e5a:	9b28      	ldr	r3, [sp, #160]	; 0xa0
10001e5c:	002a      	movs	r2, r5
10001e5e:	0698      	lsls	r0, r3, #26
10001e60:	231f      	movs	r3, #31
10001e62:	17c0      	asrs	r0, r0, #31
10001e64:	4398      	bics	r0, r3
10001e66:	1c6b      	adds	r3, r5, #1
10001e68:	4698      	mov	r8, r3
10001e6a:	4659      	mov	r1, fp
10001e6c:	4653      	mov	r3, sl
10001e6e:	3065      	adds	r0, #101	; 0x65
10001e70:	47b0      	blx	r6
10001e72:	9b0d      	ldr	r3, [sp, #52]	; 0x34
10001e74:	2600      	movs	r6, #0
10001e76:	17da      	asrs	r2, r3, #31
10001e78:	189d      	adds	r5, r3, r2
10001e7a:	0fdb      	lsrs	r3, r3, #31
10001e7c:	4699      	mov	r9, r3
10001e7e:	4055      	eors	r5, r2
10001e80:	3c01      	subs	r4, #1
10001e82:	e001      	b.n	10001e88 <_etoa+0x2e8>
10001e84:	2e20      	cmp	r6, #32
10001e86:	d013      	beq.n	10001eb0 <_etoa+0x310>
10001e88:	aa0a      	add	r2, sp, #40	; 0x28
10001e8a:	4694      	mov	ip, r2
10001e8c:	231f      	movs	r3, #31
10001e8e:	0028      	movs	r0, r5
10001e90:	4463      	add	r3, ip
10001e92:	210a      	movs	r1, #10
10001e94:	3601      	adds	r6, #1
10001e96:	199f      	adds	r7, r3, r6
10001e98:	f001 f8a6 	bl	10002fe8 <__wrap___aeabi_uidiv>
10001e9c:	3130      	adds	r1, #48	; 0x30
10001e9e:	7039      	strb	r1, [r7, #0]
10001ea0:	0028      	movs	r0, r5
10001ea2:	210a      	movs	r1, #10
10001ea4:	f001 f8a0 	bl	10002fe8 <__wrap___aeabi_uidiv>
10001ea8:	002f      	movs	r7, r5
10001eaa:	0005      	movs	r5, r0
10001eac:	2f09      	cmp	r7, #9
10001eae:	d8e9      	bhi.n	10001e84 <_etoa+0x2e4>
10001eb0:	2305      	movs	r3, #5
10001eb2:	9306      	str	r3, [sp, #24]
10001eb4:	2300      	movs	r3, #0
10001eb6:	9304      	str	r3, [sp, #16]
10001eb8:	330a      	adds	r3, #10
10001eba:	9303      	str	r3, [sp, #12]
10001ebc:	464b      	mov	r3, r9
10001ebe:	9601      	str	r6, [sp, #4]
10001ec0:	9e0b      	ldr	r6, [sp, #44]	; 0x2c
10001ec2:	9302      	str	r3, [sp, #8]
10001ec4:	ab12      	add	r3, sp, #72	; 0x48
10001ec6:	9300      	str	r3, [sp, #0]
10001ec8:	4642      	mov	r2, r8
10001eca:	4653      	mov	r3, sl
10001ecc:	4659      	mov	r1, fp
10001ece:	0030      	movs	r0, r6
10001ed0:	9405      	str	r4, [sp, #20]
10001ed2:	f7ff fd6d 	bl	100019b0 <_ntoa_format>
10001ed6:	9b10      	ldr	r3, [sp, #64]	; 0x40
10001ed8:	0005      	movs	r5, r0
10001eda:	2b00      	cmp	r3, #0
10001edc:	d02d      	beq.n	10001f3a <_etoa+0x39a>
10001ede:	9b0c      	ldr	r3, [sp, #48]	; 0x30
10001ee0:	9a27      	ldr	r2, [sp, #156]	; 0x9c
10001ee2:	1ac4      	subs	r4, r0, r3
10001ee4:	42a2      	cmp	r2, r4
10001ee6:	d928      	bls.n	10001f3a <_etoa+0x39a>
10001ee8:	4681      	mov	r9, r0
10001eea:	465d      	mov	r5, fp
10001eec:	4698      	mov	r8, r3
10001eee:	0017      	movs	r7, r2
10001ef0:	4643      	mov	r3, r8
10001ef2:	0029      	movs	r1, r5
10001ef4:	191a      	adds	r2, r3, r4
10001ef6:	2020      	movs	r0, #32
10001ef8:	4653      	mov	r3, sl
10001efa:	3401      	adds	r4, #1
10001efc:	47b0      	blx	r6
10001efe:	42a7      	cmp	r7, r4
10001f00:	d8f6      	bhi.n	10001ef0 <_etoa+0x350>
10001f02:	464d      	mov	r5, r9
10001f04:	990c      	ldr	r1, [sp, #48]	; 0x30
10001f06:	9827      	ldr	r0, [sp, #156]	; 0x9c
10001f08:	1a6b      	subs	r3, r5, r1
10001f0a:	3301      	adds	r3, #1
10001f0c:	2200      	movs	r2, #0
10001f0e:	4298      	cmp	r0, r3
10001f10:	d261      	bcs.n	10001fd6 <_etoa+0x436>
10001f12:	3501      	adds	r5, #1
10001f14:	1955      	adds	r5, r2, r5
10001f16:	e010      	b.n	10001f3a <_etoa+0x39a>
10001f18:	9b28      	ldr	r3, [sp, #160]	; 0xa0
10001f1a:	464a      	mov	r2, r9
10001f1c:	9304      	str	r3, [sp, #16]
10001f1e:	9b27      	ldr	r3, [sp, #156]	; 0x9c
10001f20:	4659      	mov	r1, fp
10001f22:	9303      	str	r3, [sp, #12]
10001f24:	9b26      	ldr	r3, [sp, #152]	; 0x98
10001f26:	980b      	ldr	r0, [sp, #44]	; 0x2c
10001f28:	9302      	str	r3, [sp, #8]
10001f2a:	4643      	mov	r3, r8
10001f2c:	9200      	str	r2, [sp, #0]
10001f2e:	9301      	str	r3, [sp, #4]
10001f30:	4653      	mov	r3, sl
10001f32:	9a0c      	ldr	r2, [sp, #48]	; 0x30
10001f34:	f000 f85a 	bl	10001fec <_ftoa>
10001f38:	0005      	movs	r5, r0
10001f3a:	0028      	movs	r0, r5
10001f3c:	b01b      	add	sp, #108	; 0x6c
10001f3e:	bc3c      	pop	{r2, r3, r4, r5}
10001f40:	4690      	mov	r8, r2
10001f42:	4699      	mov	r9, r3
10001f44:	46a2      	mov	sl, r4
10001f46:	46ab      	mov	fp, r5
10001f48:	bdf0      	pop	{r4, r5, r6, r7, pc}
10001f4a:	9b26      	ldr	r3, [sp, #152]	; 0x98
10001f4c:	2b00      	cmp	r3, #0
10001f4e:	d100      	bne.n	10001f52 <_etoa+0x3b2>
10001f50:	e745      	b.n	10001dde <_etoa+0x23e>
10001f52:	9b11      	ldr	r3, [sp, #68]	; 0x44
10001f54:	1e5a      	subs	r2, r3, #1
10001f56:	4193      	sbcs	r3, r2
10001f58:	9a26      	ldr	r2, [sp, #152]	; 0x98
10001f5a:	1ad3      	subs	r3, r2, r3
10001f5c:	9326      	str	r3, [sp, #152]	; 0x98
10001f5e:	e73e      	b.n	10001dde <_etoa+0x23e>
10001f60:	7fefffff 	.word	0x7fefffff
10001f64:	ffefffff 	.word	0xffefffff
10001f68:	fffffc01 	.word	0xfffffc01
10001f6c:	509f79fb 	.word	0x509f79fb
10001f70:	3fd34413 	.word	0x3fd34413
10001f74:	8b60c8b3 	.word	0x8b60c8b3
10001f78:	3fc68a28 	.word	0x3fc68a28
10001f7c:	3ff00000 	.word	0x3ff00000
10001f80:	3ff80000 	.word	0x3ff80000
10001f84:	636f4361 	.word	0x636f4361
10001f88:	3fd287a7 	.word	0x3fd287a7
10001f8c:	0979a371 	.word	0x0979a371
10001f90:	400a934f 	.word	0x400a934f
10001f94:	3fe00000 	.word	0x3fe00000
10001f98:	bbb55516 	.word	0xbbb55516
10001f9c:	40026bb1 	.word	0x40026bb1
10001fa0:	fefa39ef 	.word	0xfefa39ef
10001fa4:	3fe62e42 	.word	0x3fe62e42
10001fa8:	402c0000 	.word	0x402c0000
10001fac:	40240000 	.word	0x40240000
10001fb0:	40180000 	.word	0x40180000
10001fb4:	000003ff 	.word	0x000003ff
10001fb8:	eb1c432d 	.word	0xeb1c432d
10001fbc:	3f1a36e2 	.word	0x3f1a36e2
10001fc0:	412e8480 	.word	0x412e8480
10001fc4:	fffff7ff 	.word	0xfffff7ff
10001fc8:	464b      	mov	r3, r9
10001fca:	930a      	str	r3, [sp, #40]	; 0x28
10001fcc:	2380      	movs	r3, #128	; 0x80
10001fce:	061b      	lsls	r3, r3, #24
10001fd0:	4443      	add	r3, r8
10001fd2:	9309      	str	r3, [sp, #36]	; 0x24
10001fd4:	e61d      	b.n	10001c12 <_etoa+0x72>
10001fd6:	000a      	movs	r2, r1
10001fd8:	4684      	mov	ip, r0
10001fda:	3a01      	subs	r2, #1
10001fdc:	4462      	add	r2, ip
10001fde:	1b52      	subs	r2, r2, r5
10001fe0:	e797      	b.n	10001f12 <_etoa+0x372>
10001fe2:	1b50      	subs	r0, r2, r5
10001fe4:	1e43      	subs	r3, r0, #1
10001fe6:	9326      	str	r3, [sp, #152]	; 0x98
10001fe8:	e6f1      	b.n	10001dce <_etoa+0x22e>
10001fea:	46c0      	nop			; (mov r8, r8)

10001fec <_ftoa>:
10001fec:	b5f0      	push	{r4, r5, r6, r7, lr}
10001fee:	464e      	mov	r6, r9
10001ff0:	46de      	mov	lr, fp
10001ff2:	4657      	mov	r7, sl
10001ff4:	4645      	mov	r5, r8
10001ff6:	b5e0      	push	{r5, r6, r7, lr}
10001ff8:	b097      	sub	sp, #92	; 0x5c
10001ffa:	4699      	mov	r9, r3
10001ffc:	9e20      	ldr	r6, [sp, #128]	; 0x80
10001ffe:	9f21      	ldr	r7, [sp, #132]	; 0x84
10002000:	9b22      	ldr	r3, [sp, #136]	; 0x88
10002002:	4683      	mov	fp, r0
10002004:	4698      	mov	r8, r3
10002006:	9107      	str	r1, [sp, #28]
10002008:	920c      	str	r2, [sp, #48]	; 0x30
1000200a:	003b      	movs	r3, r7
1000200c:	0032      	movs	r2, r6
1000200e:	0030      	movs	r0, r6
10002010:	0039      	movs	r1, r7
10002012:	f001 faa6 	bl	10003562 <__wrap___aeabi_dcmpun>
10002016:	2800      	cmp	r0, #0
10002018:	d000      	beq.n	1000201c <_ftoa+0x30>
1000201a:	e1c1      	b.n	100023a0 <_ftoa+0x3b4>
1000201c:	2201      	movs	r2, #1
1000201e:	0030      	movs	r0, r6
10002020:	0039      	movs	r1, r7
10002022:	4bca      	ldr	r3, [pc, #808]	; (1000234c <_ftoa+0x360>)
10002024:	4252      	negs	r2, r2
10002026:	f001 fa81 	bl	1000352c <__wrap___aeabi_dcmplt>
1000202a:	2800      	cmp	r0, #0
1000202c:	d000      	beq.n	10002030 <_ftoa+0x44>
1000202e:	e0e0      	b.n	100021f2 <_ftoa+0x206>
10002030:	2201      	movs	r2, #1
10002032:	0030      	movs	r0, r6
10002034:	0039      	movs	r1, r7
10002036:	4bc6      	ldr	r3, [pc, #792]	; (10002350 <_ftoa+0x364>)
10002038:	4252      	negs	r2, r2
1000203a:	f001 fa8d 	bl	10003558 <__wrap___aeabi_dcmpgt>
1000203e:	2800      	cmp	r0, #0
10002040:	d000      	beq.n	10002044 <_ftoa+0x58>
10002042:	e0b6      	b.n	100021b2 <_ftoa+0x1c6>
10002044:	2200      	movs	r2, #0
10002046:	0030      	movs	r0, r6
10002048:	0039      	movs	r1, r7
1000204a:	4bc2      	ldr	r3, [pc, #776]	; (10002354 <_ftoa+0x368>)
1000204c:	f001 fa84 	bl	10003558 <__wrap___aeabi_dcmpgt>
10002050:	2800      	cmp	r0, #0
10002052:	d000      	beq.n	10002056 <_ftoa+0x6a>
10002054:	e098      	b.n	10002188 <_ftoa+0x19c>
10002056:	2200      	movs	r2, #0
10002058:	0030      	movs	r0, r6
1000205a:	0039      	movs	r1, r7
1000205c:	4bbe      	ldr	r3, [pc, #760]	; (10002358 <_ftoa+0x36c>)
1000205e:	f001 fa65 	bl	1000352c <__wrap___aeabi_dcmplt>
10002062:	2800      	cmp	r0, #0
10002064:	d000      	beq.n	10002068 <_ftoa+0x7c>
10002066:	e08f      	b.n	10002188 <_ftoa+0x19c>
10002068:	2200      	movs	r2, #0
1000206a:	2300      	movs	r3, #0
1000206c:	0030      	movs	r0, r6
1000206e:	0039      	movs	r1, r7
10002070:	f001 fa5c 	bl	1000352c <__wrap___aeabi_dcmplt>
10002074:	2800      	cmp	r0, #0
10002076:	d000      	beq.n	1000207a <_ftoa+0x8e>
10002078:	e0b0      	b.n	100021dc <_ftoa+0x1f0>
1000207a:	2300      	movs	r3, #0
1000207c:	930d      	str	r3, [sp, #52]	; 0x34
1000207e:	9b24      	ldr	r3, [sp, #144]	; 0x90
10002080:	055b      	lsls	r3, r3, #21
10002082:	d401      	bmi.n	10002088 <_ftoa+0x9c>
10002084:	2306      	movs	r3, #6
10002086:	4698      	mov	r8, r3
10002088:	ab08      	add	r3, sp, #32
1000208a:	469c      	mov	ip, r3
1000208c:	2217      	movs	r2, #23
1000208e:	2400      	movs	r4, #0
10002090:	2330      	movs	r3, #48	; 0x30
10002092:	4641      	mov	r1, r8
10002094:	4462      	add	r2, ip
10002096:	e004      	b.n	100020a2 <_ftoa+0xb6>
10002098:	3401      	adds	r4, #1
1000209a:	5513      	strb	r3, [r2, r4]
1000209c:	3901      	subs	r1, #1
1000209e:	2c20      	cmp	r4, #32
100020a0:	d001      	beq.n	100020a6 <_ftoa+0xba>
100020a2:	2909      	cmp	r1, #9
100020a4:	d8f8      	bhi.n	10002098 <_ftoa+0xac>
100020a6:	4688      	mov	r8, r1
100020a8:	0030      	movs	r0, r6
100020aa:	0039      	movs	r1, r7
100020ac:	f001 fa84 	bl	100035b8 <__wrap___aeabi_d2iz>
100020b0:	4643      	mov	r3, r8
100020b2:	00da      	lsls	r2, r3, #3
100020b4:	4ba9      	ldr	r3, [pc, #676]	; (1000235c <_ftoa+0x370>)
100020b6:	0005      	movs	r5, r0
100020b8:	189b      	adds	r3, r3, r2
100020ba:	681a      	ldr	r2, [r3, #0]
100020bc:	685b      	ldr	r3, [r3, #4]
100020be:	9208      	str	r2, [sp, #32]
100020c0:	9309      	str	r3, [sp, #36]	; 0x24
100020c2:	f001 fa61 	bl	10003588 <__wrap___aeabi_i2d>
100020c6:	0002      	movs	r2, r0
100020c8:	000b      	movs	r3, r1
100020ca:	0030      	movs	r0, r6
100020cc:	0039      	movs	r1, r7
100020ce:	f001 f9d0 	bl	10003472 <__wrap___aeabi_dsub>
100020d2:	9a08      	ldr	r2, [sp, #32]
100020d4:	9b09      	ldr	r3, [sp, #36]	; 0x24
100020d6:	f001 f9e7 	bl	100034a8 <__wrap___aeabi_dmul>
100020da:	900a      	str	r0, [sp, #40]	; 0x28
100020dc:	910b      	str	r1, [sp, #44]	; 0x2c
100020de:	f001 fa8f 	bl	10003600 <__wrap___aeabi_d2uiz>
100020e2:	4682      	mov	sl, r0
100020e4:	f001 fa4c 	bl	10003580 <__wrap___aeabi_ui2d>
100020e8:	0002      	movs	r2, r0
100020ea:	000b      	movs	r3, r1
100020ec:	980a      	ldr	r0, [sp, #40]	; 0x28
100020ee:	990b      	ldr	r1, [sp, #44]	; 0x2c
100020f0:	f001 f9bf 	bl	10003472 <__wrap___aeabi_dsub>
100020f4:	2200      	movs	r2, #0
100020f6:	4b9a      	ldr	r3, [pc, #616]	; (10002360 <_ftoa+0x374>)
100020f8:	900a      	str	r0, [sp, #40]	; 0x28
100020fa:	910b      	str	r1, [sp, #44]	; 0x2c
100020fc:	f001 fa2c 	bl	10003558 <__wrap___aeabi_dcmpgt>
10002100:	2800      	cmp	r0, #0
10002102:	d100      	bne.n	10002106 <_ftoa+0x11a>
10002104:	e0c0      	b.n	10002288 <_ftoa+0x29c>
10002106:	2301      	movs	r3, #1
10002108:	469c      	mov	ip, r3
1000210a:	44e2      	add	sl, ip
1000210c:	4650      	mov	r0, sl
1000210e:	f001 fa37 	bl	10003580 <__wrap___aeabi_ui2d>
10002112:	0002      	movs	r2, r0
10002114:	000b      	movs	r3, r1
10002116:	9808      	ldr	r0, [sp, #32]
10002118:	9909      	ldr	r1, [sp, #36]	; 0x24
1000211a:	f001 fa0d 	bl	10003538 <__wrap___aeabi_dcmple>
1000211e:	2800      	cmp	r0, #0
10002120:	d002      	beq.n	10002128 <_ftoa+0x13c>
10002122:	2300      	movs	r3, #0
10002124:	469a      	mov	sl, r3
10002126:	3501      	adds	r5, #1
10002128:	4643      	mov	r3, r8
1000212a:	2b00      	cmp	r3, #0
1000212c:	d069      	beq.n	10002202 <_ftoa+0x216>
1000212e:	ab08      	add	r3, sp, #32
10002130:	2617      	movs	r6, #23
10002132:	469c      	mov	ip, r3
10002134:	9508      	str	r5, [sp, #32]
10002136:	4466      	add	r6, ip
10002138:	4655      	mov	r5, sl
1000213a:	e014      	b.n	10002166 <_ftoa+0x17a>
1000213c:	2301      	movs	r3, #1
1000213e:	425b      	negs	r3, r3
10002140:	4443      	add	r3, r8
10002142:	210a      	movs	r1, #10
10002144:	0028      	movs	r0, r5
10002146:	469a      	mov	sl, r3
10002148:	f000 ff4e 	bl	10002fe8 <__wrap___aeabi_uidiv>
1000214c:	3401      	adds	r4, #1
1000214e:	3130      	adds	r1, #48	; 0x30
10002150:	1937      	adds	r7, r6, r4
10002152:	7039      	strb	r1, [r7, #0]
10002154:	0028      	movs	r0, r5
10002156:	210a      	movs	r1, #10
10002158:	f000 ff46 	bl	10002fe8 <__wrap___aeabi_uidiv>
1000215c:	2d09      	cmp	r5, #9
1000215e:	d800      	bhi.n	10002162 <_ftoa+0x176>
10002160:	e0d5      	b.n	1000230e <_ftoa+0x322>
10002162:	46d0      	mov	r8, sl
10002164:	0005      	movs	r5, r0
10002166:	2c20      	cmp	r4, #32
10002168:	d1e8      	bne.n	1000213c <_ftoa+0x150>
1000216a:	2303      	movs	r3, #3
1000216c:	9a24      	ldr	r2, [sp, #144]	; 0x90
1000216e:	4013      	ands	r3, r2
10002170:	2b01      	cmp	r3, #1
10002172:	d100      	bne.n	10002176 <_ftoa+0x18a>
10002174:	e100      	b.n	10002378 <_ftoa+0x38c>
10002176:	ab0e      	add	r3, sp, #56	; 0x38
10002178:	4698      	mov	r8, r3
1000217a:	9b24      	ldr	r3, [sp, #144]	; 0x90
1000217c:	9401      	str	r4, [sp, #4]
1000217e:	9303      	str	r3, [sp, #12]
10002180:	9b23      	ldr	r3, [sp, #140]	; 0x8c
10002182:	9302      	str	r3, [sp, #8]
10002184:	4643      	mov	r3, r8
10002186:	e01e      	b.n	100021c6 <_ftoa+0x1da>
10002188:	9b24      	ldr	r3, [sp, #144]	; 0x90
1000218a:	4658      	mov	r0, fp
1000218c:	9304      	str	r3, [sp, #16]
1000218e:	9b23      	ldr	r3, [sp, #140]	; 0x8c
10002190:	9600      	str	r6, [sp, #0]
10002192:	9701      	str	r7, [sp, #4]
10002194:	9303      	str	r3, [sp, #12]
10002196:	4643      	mov	r3, r8
10002198:	9a0c      	ldr	r2, [sp, #48]	; 0x30
1000219a:	9302      	str	r3, [sp, #8]
1000219c:	9907      	ldr	r1, [sp, #28]
1000219e:	464b      	mov	r3, r9
100021a0:	f7ff fcfe 	bl	10001ba0 <_etoa>
100021a4:	b017      	add	sp, #92	; 0x5c
100021a6:	bc3c      	pop	{r2, r3, r4, r5}
100021a8:	4690      	mov	r8, r2
100021aa:	4699      	mov	r9, r3
100021ac:	46a2      	mov	sl, r4
100021ae:	46ab      	mov	fp, r5
100021b0:	bdf0      	pop	{r4, r5, r6, r7, pc}
100021b2:	9b24      	ldr	r3, [sp, #144]	; 0x90
100021b4:	075b      	lsls	r3, r3, #29
100021b6:	d40e      	bmi.n	100021d6 <_ftoa+0x1ea>
100021b8:	2203      	movs	r2, #3
100021ba:	4b6a      	ldr	r3, [pc, #424]	; (10002364 <_ftoa+0x378>)
100021bc:	9924      	ldr	r1, [sp, #144]	; 0x90
100021be:	9201      	str	r2, [sp, #4]
100021c0:	9103      	str	r1, [sp, #12]
100021c2:	9923      	ldr	r1, [sp, #140]	; 0x8c
100021c4:	9102      	str	r1, [sp, #8]
100021c6:	9300      	str	r3, [sp, #0]
100021c8:	4658      	mov	r0, fp
100021ca:	464b      	mov	r3, r9
100021cc:	9a0c      	ldr	r2, [sp, #48]	; 0x30
100021ce:	9907      	ldr	r1, [sp, #28]
100021d0:	f7ff fb86 	bl	100018e0 <_out_rev>
100021d4:	e7e6      	b.n	100021a4 <_ftoa+0x1b8>
100021d6:	2204      	movs	r2, #4
100021d8:	4b63      	ldr	r3, [pc, #396]	; (10002368 <_ftoa+0x37c>)
100021da:	e7ef      	b.n	100021bc <_ftoa+0x1d0>
100021dc:	003b      	movs	r3, r7
100021de:	0032      	movs	r2, r6
100021e0:	2000      	movs	r0, #0
100021e2:	2100      	movs	r1, #0
100021e4:	f001 f945 	bl	10003472 <__wrap___aeabi_dsub>
100021e8:	2301      	movs	r3, #1
100021ea:	0006      	movs	r6, r0
100021ec:	000f      	movs	r7, r1
100021ee:	930d      	str	r3, [sp, #52]	; 0x34
100021f0:	e745      	b.n	1000207e <_ftoa+0x92>
100021f2:	9b24      	ldr	r3, [sp, #144]	; 0x90
100021f4:	9303      	str	r3, [sp, #12]
100021f6:	9b23      	ldr	r3, [sp, #140]	; 0x8c
100021f8:	9302      	str	r3, [sp, #8]
100021fa:	2304      	movs	r3, #4
100021fc:	9301      	str	r3, [sp, #4]
100021fe:	4b5b      	ldr	r3, [pc, #364]	; (1000236c <_ftoa+0x380>)
10002200:	e7e1      	b.n	100021c6 <_ftoa+0x1da>
10002202:	0028      	movs	r0, r5
10002204:	f001 f9c0 	bl	10003588 <__wrap___aeabi_i2d>
10002208:	0002      	movs	r2, r0
1000220a:	000b      	movs	r3, r1
1000220c:	0030      	movs	r0, r6
1000220e:	0039      	movs	r1, r7
10002210:	f001 f92f 	bl	10003472 <__wrap___aeabi_dsub>
10002214:	4b52      	ldr	r3, [pc, #328]	; (10002360 <_ftoa+0x374>)
10002216:	2200      	movs	r2, #0
10002218:	0006      	movs	r6, r0
1000221a:	000f      	movs	r7, r1
1000221c:	f001 f986 	bl	1000352c <__wrap___aeabi_dcmplt>
10002220:	ab0e      	add	r3, sp, #56	; 0x38
10002222:	4698      	mov	r8, r3
10002224:	2800      	cmp	r0, #0
10002226:	d10a      	bne.n	1000223e <_ftoa+0x252>
10002228:	2200      	movs	r2, #0
1000222a:	0030      	movs	r0, r6
1000222c:	0039      	movs	r1, r7
1000222e:	4b4c      	ldr	r3, [pc, #304]	; (10002360 <_ftoa+0x374>)
10002230:	f001 f992 	bl	10003558 <__wrap___aeabi_dcmpgt>
10002234:	2800      	cmp	r0, #0
10002236:	d102      	bne.n	1000223e <_ftoa+0x252>
10002238:	07eb      	lsls	r3, r5, #31
1000223a:	d500      	bpl.n	1000223e <_ftoa+0x252>
1000223c:	3501      	adds	r5, #1
1000223e:	2c20      	cmp	r4, #32
10002240:	d032      	beq.n	100022a8 <_ftoa+0x2bc>
10002242:	aa08      	add	r2, sp, #32
10002244:	4694      	mov	ip, r2
10002246:	2317      	movs	r3, #23
10002248:	0028      	movs	r0, r5
1000224a:	4463      	add	r3, ip
1000224c:	210a      	movs	r1, #10
1000224e:	3401      	adds	r4, #1
10002250:	191e      	adds	r6, r3, r4
10002252:	f000 fe9d 	bl	10002f90 <__wrap___aeabi_idiv>
10002256:	3130      	adds	r1, #48	; 0x30
10002258:	0028      	movs	r0, r5
1000225a:	7031      	strb	r1, [r6, #0]
1000225c:	210a      	movs	r1, #10
1000225e:	f000 fe97 	bl	10002f90 <__wrap___aeabi_idiv>
10002262:	1e05      	subs	r5, r0, #0
10002264:	d1eb      	bne.n	1000223e <_ftoa+0x252>
10002266:	2303      	movs	r3, #3
10002268:	9a24      	ldr	r2, [sp, #144]	; 0x90
1000226a:	4013      	ands	r3, r2
1000226c:	2b01      	cmp	r3, #1
1000226e:	d100      	bne.n	10002272 <_ftoa+0x286>
10002270:	e091      	b.n	10002396 <_ftoa+0x3aa>
10002272:	2c1f      	cmp	r4, #31
10002274:	d900      	bls.n	10002278 <_ftoa+0x28c>
10002276:	e780      	b.n	1000217a <_ftoa+0x18e>
10002278:	9b0d      	ldr	r3, [sp, #52]	; 0x34
1000227a:	2b00      	cmp	r3, #0
1000227c:	d03b      	beq.n	100022f6 <_ftoa+0x30a>
1000227e:	232d      	movs	r3, #45	; 0x2d
10002280:	4642      	mov	r2, r8
10002282:	5513      	strb	r3, [r2, r4]
10002284:	3401      	adds	r4, #1
10002286:	e778      	b.n	1000217a <_ftoa+0x18e>
10002288:	2200      	movs	r2, #0
1000228a:	980a      	ldr	r0, [sp, #40]	; 0x28
1000228c:	990b      	ldr	r1, [sp, #44]	; 0x2c
1000228e:	4b34      	ldr	r3, [pc, #208]	; (10002360 <_ftoa+0x374>)
10002290:	f001 f94c 	bl	1000352c <__wrap___aeabi_dcmplt>
10002294:	2800      	cmp	r0, #0
10002296:	d000      	beq.n	1000229a <_ftoa+0x2ae>
10002298:	e746      	b.n	10002128 <_ftoa+0x13c>
1000229a:	4653      	mov	r3, sl
1000229c:	2b00      	cmp	r3, #0
1000229e:	d167      	bne.n	10002370 <_ftoa+0x384>
100022a0:	2301      	movs	r3, #1
100022a2:	469c      	mov	ip, r3
100022a4:	44e2      	add	sl, ip
100022a6:	e73f      	b.n	10002128 <_ftoa+0x13c>
100022a8:	2303      	movs	r3, #3
100022aa:	9a24      	ldr	r2, [sp, #144]	; 0x90
100022ac:	4013      	ands	r3, r2
100022ae:	2b01      	cmp	r3, #1
100022b0:	d000      	beq.n	100022b4 <_ftoa+0x2c8>
100022b2:	e762      	b.n	1000217a <_ftoa+0x18e>
100022b4:	9b23      	ldr	r3, [sp, #140]	; 0x8c
100022b6:	2b00      	cmp	r3, #0
100022b8:	d100      	bne.n	100022bc <_ftoa+0x2d0>
100022ba:	e75e      	b.n	1000217a <_ftoa+0x18e>
100022bc:	9b0d      	ldr	r3, [sp, #52]	; 0x34
100022be:	2b00      	cmp	r3, #0
100022c0:	d103      	bne.n	100022ca <_ftoa+0x2de>
100022c2:	9a24      	ldr	r2, [sp, #144]	; 0x90
100022c4:	330c      	adds	r3, #12
100022c6:	4213      	tst	r3, r2
100022c8:	d002      	beq.n	100022d0 <_ftoa+0x2e4>
100022ca:	9b23      	ldr	r3, [sp, #140]	; 0x8c
100022cc:	3b01      	subs	r3, #1
100022ce:	9323      	str	r3, [sp, #140]	; 0x8c
100022d0:	9b23      	ldr	r3, [sp, #140]	; 0x8c
100022d2:	429c      	cmp	r4, r3
100022d4:	d2cd      	bcs.n	10002272 <_ftoa+0x286>
100022d6:	ab08      	add	r3, sp, #32
100022d8:	469c      	mov	ip, r3
100022da:	2217      	movs	r2, #23
100022dc:	2330      	movs	r3, #48	; 0x30
100022de:	4462      	add	r2, ip
100022e0:	2c1f      	cmp	r4, #31
100022e2:	d806      	bhi.n	100022f2 <_ftoa+0x306>
100022e4:	9923      	ldr	r1, [sp, #140]	; 0x8c
100022e6:	3401      	adds	r4, #1
100022e8:	5513      	strb	r3, [r2, r4]
100022ea:	428c      	cmp	r4, r1
100022ec:	d0c1      	beq.n	10002272 <_ftoa+0x286>
100022ee:	2c20      	cmp	r4, #32
100022f0:	d1f8      	bne.n	100022e4 <_ftoa+0x2f8>
100022f2:	2420      	movs	r4, #32
100022f4:	e741      	b.n	1000217a <_ftoa+0x18e>
100022f6:	9b24      	ldr	r3, [sp, #144]	; 0x90
100022f8:	075b      	lsls	r3, r3, #29
100022fa:	d421      	bmi.n	10002340 <_ftoa+0x354>
100022fc:	9b24      	ldr	r3, [sp, #144]	; 0x90
100022fe:	071b      	lsls	r3, r3, #28
10002300:	d400      	bmi.n	10002304 <_ftoa+0x318>
10002302:	e73a      	b.n	1000217a <_ftoa+0x18e>
10002304:	2320      	movs	r3, #32
10002306:	4642      	mov	r2, r8
10002308:	5513      	strb	r3, [r2, r4]
1000230a:	3401      	adds	r4, #1
1000230c:	e735      	b.n	1000217a <_ftoa+0x18e>
1000230e:	4657      	mov	r7, sl
10002310:	9d08      	ldr	r5, [sp, #32]
10002312:	2c20      	cmp	r4, #32
10002314:	d037      	beq.n	10002386 <_ftoa+0x39a>
10002316:	0022      	movs	r2, r4
10002318:	2130      	movs	r1, #48	; 0x30
1000231a:	4640      	mov	r0, r8
1000231c:	2f00      	cmp	r7, #0
1000231e:	d008      	beq.n	10002332 <_ftoa+0x346>
10002320:	3201      	adds	r2, #1
10002322:	54b1      	strb	r1, [r6, r2]
10002324:	2a20      	cmp	r2, #32
10002326:	d043      	beq.n	100023b0 <_ftoa+0x3c4>
10002328:	43d3      	mvns	r3, r2
1000232a:	191b      	adds	r3, r3, r4
1000232c:	181b      	adds	r3, r3, r0
1000232e:	2b00      	cmp	r3, #0
10002330:	d1f6      	bne.n	10002320 <_ftoa+0x334>
10002332:	ab0e      	add	r3, sp, #56	; 0x38
10002334:	4698      	mov	r8, r3
10002336:	232e      	movs	r3, #46	; 0x2e
10002338:	4641      	mov	r1, r8
1000233a:	1c54      	adds	r4, r2, #1
1000233c:	548b      	strb	r3, [r1, r2]
1000233e:	e77e      	b.n	1000223e <_ftoa+0x252>
10002340:	232b      	movs	r3, #43	; 0x2b
10002342:	4642      	mov	r2, r8
10002344:	5513      	strb	r3, [r2, r4]
10002346:	3401      	adds	r4, #1
10002348:	e717      	b.n	1000217a <_ftoa+0x18e>
1000234a:	46c0      	nop			; (mov r8, r8)
1000234c:	ffefffff 	.word	0xffefffff
10002350:	7fefffff 	.word	0x7fefffff
10002354:	41cdcd65 	.word	0x41cdcd65
10002358:	c1cdcd65 	.word	0xc1cdcd65
1000235c:	10004db0 	.word	0x10004db0
10002360:	3fe00000 	.word	0x3fe00000
10002364:	10004bb8 	.word	0x10004bb8
10002368:	10004bbc 	.word	0x10004bbc
1000236c:	10004bc8 	.word	0x10004bc8
10002370:	07db      	lsls	r3, r3, #31
10002372:	d400      	bmi.n	10002376 <_ftoa+0x38a>
10002374:	e6d8      	b.n	10002128 <_ftoa+0x13c>
10002376:	e793      	b.n	100022a0 <_ftoa+0x2b4>
10002378:	9b23      	ldr	r3, [sp, #140]	; 0x8c
1000237a:	2b00      	cmp	r3, #0
1000237c:	d100      	bne.n	10002380 <_ftoa+0x394>
1000237e:	e6fa      	b.n	10002176 <_ftoa+0x18a>
10002380:	ab0e      	add	r3, sp, #56	; 0x38
10002382:	4698      	mov	r8, r3
10002384:	e79a      	b.n	100022bc <_ftoa+0x2d0>
10002386:	2303      	movs	r3, #3
10002388:	9a24      	ldr	r2, [sp, #144]	; 0x90
1000238a:	4013      	ands	r3, r2
1000238c:	2b01      	cmp	r3, #1
1000238e:	d000      	beq.n	10002392 <_ftoa+0x3a6>
10002390:	e6f1      	b.n	10002176 <_ftoa+0x18a>
10002392:	ab0e      	add	r3, sp, #56	; 0x38
10002394:	4698      	mov	r8, r3
10002396:	9b23      	ldr	r3, [sp, #140]	; 0x8c
10002398:	2b00      	cmp	r3, #0
1000239a:	d100      	bne.n	1000239e <_ftoa+0x3b2>
1000239c:	e769      	b.n	10002272 <_ftoa+0x286>
1000239e:	e78d      	b.n	100022bc <_ftoa+0x2d0>
100023a0:	9b24      	ldr	r3, [sp, #144]	; 0x90
100023a2:	9303      	str	r3, [sp, #12]
100023a4:	9b23      	ldr	r3, [sp, #140]	; 0x8c
100023a6:	9302      	str	r3, [sp, #8]
100023a8:	2303      	movs	r3, #3
100023aa:	9301      	str	r3, [sp, #4]
100023ac:	4b06      	ldr	r3, [pc, #24]	; (100023c8 <_ftoa+0x3dc>)
100023ae:	e70a      	b.n	100021c6 <_ftoa+0x1da>
100023b0:	2303      	movs	r3, #3
100023b2:	9a24      	ldr	r2, [sp, #144]	; 0x90
100023b4:	2420      	movs	r4, #32
100023b6:	4013      	ands	r3, r2
100023b8:	2b01      	cmp	r3, #1
100023ba:	d000      	beq.n	100023be <_ftoa+0x3d2>
100023bc:	e6db      	b.n	10002176 <_ftoa+0x18a>
100023be:	9b23      	ldr	r3, [sp, #140]	; 0x8c
100023c0:	2420      	movs	r4, #32
100023c2:	2b00      	cmp	r3, #0
100023c4:	d1dc      	bne.n	10002380 <_ftoa+0x394>
100023c6:	e6d6      	b.n	10002176 <_ftoa+0x18a>
100023c8:	10004bc4 	.word	0x10004bc4

100023cc <_vsnprintf>:
100023cc:	b5f0      	push	{r4, r5, r6, r7, lr}
100023ce:	46de      	mov	lr, fp
100023d0:	464e      	mov	r6, r9
100023d2:	4657      	mov	r7, sl
100023d4:	4645      	mov	r5, r8
100023d6:	b5e0      	push	{r5, r6, r7, lr}
100023d8:	b09f      	sub	sp, #124	; 0x7c
100023da:	001c      	movs	r4, r3
100023dc:	9b28      	ldr	r3, [sp, #160]	; 0xa0
100023de:	4693      	mov	fp, r2
100023e0:	9309      	str	r3, [sp, #36]	; 0x24
100023e2:	4acf      	ldr	r2, [pc, #828]	; (10002720 <_vsnprintf+0x354>)
100023e4:	4bcf      	ldr	r3, [pc, #828]	; (10002724 <_vsnprintf+0x358>)
100023e6:	4689      	mov	r9, r1
100023e8:	9008      	str	r0, [sp, #32]
100023ea:	601a      	str	r2, [r3, #0]
100023ec:	2900      	cmp	r1, #0
100023ee:	d100      	bne.n	100023f2 <_vsnprintf+0x26>
100023f0:	e216      	b.n	10002820 <_vsnprintf+0x454>
100023f2:	2300      	movs	r3, #0
100023f4:	7820      	ldrb	r0, [r4, #0]
100023f6:	469a      	mov	sl, r3
100023f8:	2800      	cmp	r0, #0
100023fa:	d100      	bne.n	100023fe <_vsnprintf+0x32>
100023fc:	e218      	b.n	10002830 <_vsnprintf+0x464>
100023fe:	0026      	movs	r6, r4
10002400:	001d      	movs	r5, r3
10002402:	464c      	mov	r4, r9
10002404:	e00a      	b.n	1000241c <_vsnprintf+0x50>
10002406:	002a      	movs	r2, r5
10002408:	1c6f      	adds	r7, r5, #1
1000240a:	465b      	mov	r3, fp
1000240c:	9d08      	ldr	r5, [sp, #32]
1000240e:	0021      	movs	r1, r4
10002410:	47a8      	blx	r5
10002412:	003d      	movs	r5, r7
10002414:	3601      	adds	r6, #1
10002416:	7830      	ldrb	r0, [r6, #0]
10002418:	2800      	cmp	r0, #0
1000241a:	d07a      	beq.n	10002512 <_vsnprintf+0x146>
1000241c:	2825      	cmp	r0, #37	; 0x25
1000241e:	d1f2      	bne.n	10002406 <_vsnprintf+0x3a>
10002420:	2310      	movs	r3, #16
10002422:	469a      	mov	sl, r3
10002424:	3b08      	subs	r3, #8
10002426:	4699      	mov	r9, r3
10002428:	3b04      	subs	r3, #4
1000242a:	4698      	mov	r8, r3
1000242c:	3b02      	subs	r3, #2
1000242e:	2100      	movs	r1, #0
10002430:	469c      	mov	ip, r3
10002432:	1c72      	adds	r2, r6, #1
10002434:	7810      	ldrb	r0, [r2, #0]
10002436:	0016      	movs	r6, r2
10002438:	0003      	movs	r3, r0
1000243a:	3b20      	subs	r3, #32
1000243c:	b2db      	uxtb	r3, r3
1000243e:	2b10      	cmp	r3, #16
10002440:	d803      	bhi.n	1000244a <_vsnprintf+0x7e>
10002442:	4fb9      	ldr	r7, [pc, #740]	; (10002728 <_vsnprintf+0x35c>)
10002444:	009b      	lsls	r3, r3, #2
10002446:	58fb      	ldr	r3, [r7, r3]
10002448:	469f      	mov	pc, r3
1000244a:	0003      	movs	r3, r0
1000244c:	3b30      	subs	r3, #48	; 0x30
1000244e:	2b09      	cmp	r3, #9
10002450:	d93c      	bls.n	100024cc <_vsnprintf+0x100>
10002452:	2300      	movs	r3, #0
10002454:	930a      	str	r3, [sp, #40]	; 0x28
10002456:	282a      	cmp	r0, #42	; 0x2a
10002458:	d100      	bne.n	1000245c <_vsnprintf+0x90>
1000245a:	e071      	b.n	10002540 <_vsnprintf+0x174>
1000245c:	2300      	movs	r3, #0
1000245e:	4698      	mov	r8, r3
10002460:	282e      	cmp	r0, #46	; 0x2e
10002462:	d047      	beq.n	100024f4 <_vsnprintf+0x128>
10002464:	0003      	movs	r3, r0
10002466:	3b68      	subs	r3, #104	; 0x68
10002468:	b2db      	uxtb	r3, r3
1000246a:	2b12      	cmp	r3, #18
1000246c:	d81f      	bhi.n	100024ae <_vsnprintf+0xe2>
1000246e:	4aaf      	ldr	r2, [pc, #700]	; (1000272c <_vsnprintf+0x360>)
10002470:	009b      	lsls	r3, r3, #2
10002472:	58d3      	ldr	r3, [r2, r3]
10002474:	469f      	mov	pc, r3
10002476:	2301      	movs	r3, #1
10002478:	3201      	adds	r2, #1
1000247a:	4319      	orrs	r1, r3
1000247c:	e7da      	b.n	10002434 <_vsnprintf+0x68>
1000247e:	4663      	mov	r3, ip
10002480:	3201      	adds	r2, #1
10002482:	4319      	orrs	r1, r3
10002484:	e7d6      	b.n	10002434 <_vsnprintf+0x68>
10002486:	4643      	mov	r3, r8
10002488:	3201      	adds	r2, #1
1000248a:	4319      	orrs	r1, r3
1000248c:	e7d2      	b.n	10002434 <_vsnprintf+0x68>
1000248e:	4653      	mov	r3, sl
10002490:	3201      	adds	r2, #1
10002492:	4319      	orrs	r1, r3
10002494:	e7ce      	b.n	10002434 <_vsnprintf+0x68>
10002496:	464b      	mov	r3, r9
10002498:	3201      	adds	r2, #1
1000249a:	4319      	orrs	r1, r3
1000249c:	e7ca      	b.n	10002434 <_vsnprintf+0x68>
1000249e:	7870      	ldrb	r0, [r6, #1]
100024a0:	286c      	cmp	r0, #108	; 0x6c
100024a2:	d100      	bne.n	100024a6 <_vsnprintf+0xda>
100024a4:	e2bf      	b.n	10002a26 <_vsnprintf+0x65a>
100024a6:	2380      	movs	r3, #128	; 0x80
100024a8:	005b      	lsls	r3, r3, #1
100024aa:	4319      	orrs	r1, r3
100024ac:	3601      	adds	r6, #1
100024ae:	0003      	movs	r3, r0
100024b0:	3b25      	subs	r3, #37	; 0x25
100024b2:	b2db      	uxtb	r3, r3
100024b4:	2b53      	cmp	r3, #83	; 0x53
100024b6:	d8a6      	bhi.n	10002406 <_vsnprintf+0x3a>
100024b8:	4a9d      	ldr	r2, [pc, #628]	; (10002730 <_vsnprintf+0x364>)
100024ba:	009b      	lsls	r3, r3, #2
100024bc:	58d3      	ldr	r3, [r2, r3]
100024be:	469f      	mov	pc, r3
100024c0:	2380      	movs	r3, #128	; 0x80
100024c2:	005b      	lsls	r3, r3, #1
100024c4:	7870      	ldrb	r0, [r6, #1]
100024c6:	4319      	orrs	r1, r3
100024c8:	3601      	adds	r6, #1
100024ca:	e7f0      	b.n	100024ae <_vsnprintf+0xe2>
100024cc:	2700      	movs	r7, #0
100024ce:	0003      	movs	r3, r0
100024d0:	00b8      	lsls	r0, r7, #2
100024d2:	19c0      	adds	r0, r0, r7
100024d4:	3601      	adds	r6, #1
100024d6:	0040      	lsls	r0, r0, #1
100024d8:	18c0      	adds	r0, r0, r3
100024da:	7833      	ldrb	r3, [r6, #0]
100024dc:	3830      	subs	r0, #48	; 0x30
100024de:	001a      	movs	r2, r3
100024e0:	3a30      	subs	r2, #48	; 0x30
100024e2:	0007      	movs	r7, r0
100024e4:	2a09      	cmp	r2, #9
100024e6:	d9f3      	bls.n	100024d0 <_vsnprintf+0x104>
100024e8:	900a      	str	r0, [sp, #40]	; 0x28
100024ea:	0018      	movs	r0, r3
100024ec:	2300      	movs	r3, #0
100024ee:	4698      	mov	r8, r3
100024f0:	282e      	cmp	r0, #46	; 0x2e
100024f2:	d1b7      	bne.n	10002464 <_vsnprintf+0x98>
100024f4:	2380      	movs	r3, #128	; 0x80
100024f6:	7870      	ldrb	r0, [r6, #1]
100024f8:	00db      	lsls	r3, r3, #3
100024fa:	4319      	orrs	r1, r3
100024fc:	0003      	movs	r3, r0
100024fe:	3b30      	subs	r3, #48	; 0x30
10002500:	1c72      	adds	r2, r6, #1
10002502:	2b09      	cmp	r3, #9
10002504:	d800      	bhi.n	10002508 <_vsnprintf+0x13c>
10002506:	e195      	b.n	10002834 <_vsnprintf+0x468>
10002508:	282a      	cmp	r0, #42	; 0x2a
1000250a:	d100      	bne.n	1000250e <_vsnprintf+0x142>
1000250c:	e1a6      	b.n	1000285c <_vsnprintf+0x490>
1000250e:	0016      	movs	r6, r2
10002510:	e7a8      	b.n	10002464 <_vsnprintf+0x98>
10002512:	46a1      	mov	r9, r4
10002514:	46aa      	mov	sl, r5
10002516:	002c      	movs	r4, r5
10002518:	45d3      	cmp	fp, sl
1000251a:	d803      	bhi.n	10002524 <_vsnprintf+0x158>
1000251c:	2301      	movs	r3, #1
1000251e:	425b      	negs	r3, r3
10002520:	445b      	add	r3, fp
10002522:	469a      	mov	sl, r3
10002524:	465b      	mov	r3, fp
10002526:	4652      	mov	r2, sl
10002528:	4649      	mov	r1, r9
1000252a:	2000      	movs	r0, #0
1000252c:	9d08      	ldr	r5, [sp, #32]
1000252e:	47a8      	blx	r5
10002530:	0020      	movs	r0, r4
10002532:	b01f      	add	sp, #124	; 0x7c
10002534:	bc3c      	pop	{r2, r3, r4, r5}
10002536:	4690      	mov	r8, r2
10002538:	4699      	mov	r9, r3
1000253a:	46a2      	mov	sl, r4
1000253c:	46ab      	mov	fp, r5
1000253e:	bdf0      	pop	{r4, r5, r6, r7, pc}
10002540:	9b09      	ldr	r3, [sp, #36]	; 0x24
10002542:	cb40      	ldmia	r3!, {r6}
10002544:	960a      	str	r6, [sp, #40]	; 0x28
10002546:	2e00      	cmp	r6, #0
10002548:	db03      	blt.n	10002552 <_vsnprintf+0x186>
1000254a:	7850      	ldrb	r0, [r2, #1]
1000254c:	9309      	str	r3, [sp, #36]	; 0x24
1000254e:	1c56      	adds	r6, r2, #1
10002550:	e784      	b.n	1000245c <_vsnprintf+0x90>
10002552:	3828      	subs	r0, #40	; 0x28
10002554:	4301      	orrs	r1, r0
10002556:	4270      	negs	r0, r6
10002558:	900a      	str	r0, [sp, #40]	; 0x28
1000255a:	9309      	str	r3, [sp, #36]	; 0x24
1000255c:	7850      	ldrb	r0, [r2, #1]
1000255e:	1c56      	adds	r6, r2, #1
10002560:	e77c      	b.n	1000245c <_vsnprintf+0x90>
10002562:	2878      	cmp	r0, #120	; 0x78
10002564:	d100      	bne.n	10002568 <_vsnprintf+0x19c>
10002566:	e1d4      	b.n	10002912 <_vsnprintf+0x546>
10002568:	2858      	cmp	r0, #88	; 0x58
1000256a:	d100      	bne.n	1000256e <_vsnprintf+0x1a2>
1000256c:	e268      	b.n	10002a40 <_vsnprintf+0x674>
1000256e:	286f      	cmp	r0, #111	; 0x6f
10002570:	d100      	bne.n	10002574 <_vsnprintf+0x1a8>
10002572:	e352      	b.n	10002c1a <_vsnprintf+0x84e>
10002574:	2862      	cmp	r0, #98	; 0x62
10002576:	d100      	bne.n	1000257a <_vsnprintf+0x1ae>
10002578:	e1d8      	b.n	1000292c <_vsnprintf+0x560>
1000257a:	2310      	movs	r3, #16
1000257c:	000a      	movs	r2, r1
1000257e:	439a      	bics	r2, r3
10002580:	920b      	str	r2, [sp, #44]	; 0x2c
10002582:	2869      	cmp	r0, #105	; 0x69
10002584:	d001      	beq.n	1000258a <_vsnprintf+0x1be>
10002586:	f000 fca2 	bl	10002ece <_vsnprintf+0xb02>
1000258a:	230a      	movs	r3, #10
1000258c:	930c      	str	r3, [sp, #48]	; 0x30
1000258e:	054b      	lsls	r3, r1, #21
10002590:	d400      	bmi.n	10002594 <_vsnprintf+0x1c8>
10002592:	e1d5      	b.n	10002940 <_vsnprintf+0x574>
10002594:	2301      	movs	r3, #1
10002596:	9a0b      	ldr	r2, [sp, #44]	; 0x2c
10002598:	439a      	bics	r2, r3
1000259a:	920b      	str	r2, [sp, #44]	; 0x2c
1000259c:	2869      	cmp	r0, #105	; 0x69
1000259e:	d100      	bne.n	100025a2 <_vsnprintf+0x1d6>
100025a0:	e1ce      	b.n	10002940 <_vsnprintf+0x574>
100025a2:	2864      	cmp	r0, #100	; 0x64
100025a4:	d100      	bne.n	100025a8 <_vsnprintf+0x1dc>
100025a6:	e1cb      	b.n	10002940 <_vsnprintf+0x574>
100025a8:	9a0b      	ldr	r2, [sp, #44]	; 0x2c
100025aa:	2380      	movs	r3, #128	; 0x80
100025ac:	0011      	movs	r1, r2
100025ae:	009b      	lsls	r3, r3, #2
100025b0:	4019      	ands	r1, r3
100025b2:	468a      	mov	sl, r1
100025b4:	421a      	tst	r2, r3
100025b6:	d000      	beq.n	100025ba <_vsnprintf+0x1ee>
100025b8:	e332      	b.n	10002c20 <_vsnprintf+0x854>
100025ba:	2380      	movs	r3, #128	; 0x80
100025bc:	0011      	movs	r1, r2
100025be:	005b      	lsls	r3, r3, #1
100025c0:	4019      	ands	r1, r3
100025c2:	4689      	mov	r9, r1
100025c4:	421a      	tst	r2, r3
100025c6:	d001      	beq.n	100025cc <_vsnprintf+0x200>
100025c8:	f000 fc02 	bl	10002dd0 <_vsnprintf+0xa04>
100025cc:	0013      	movs	r3, r2
100025ce:	065b      	lsls	r3, r3, #25
100025d0:	d500      	bpl.n	100025d4 <_vsnprintf+0x208>
100025d2:	e310      	b.n	10002bf6 <_vsnprintf+0x82a>
100025d4:	9b0b      	ldr	r3, [sp, #44]	; 0x2c
100025d6:	061b      	lsls	r3, r3, #24
100025d8:	d401      	bmi.n	100025de <_vsnprintf+0x212>
100025da:	f000 fc6e 	bl	10002eba <_vsnprintf+0xaee>
100025de:	9b09      	ldr	r3, [sp, #36]	; 0x24
100025e0:	cb04      	ldmia	r3!, {r2}
100025e2:	0412      	lsls	r2, r2, #16
100025e4:	0c12      	lsrs	r2, r2, #16
100025e6:	4692      	mov	sl, r2
100025e8:	9309      	str	r3, [sp, #36]	; 0x24
100025ea:	4653      	mov	r3, sl
100025ec:	2b00      	cmp	r3, #0
100025ee:	d000      	beq.n	100025f2 <_vsnprintf+0x226>
100025f0:	e364      	b.n	10002cbc <_vsnprintf+0x8f0>
100025f2:	9a0b      	ldr	r2, [sp, #44]	; 0x2c
100025f4:	3310      	adds	r3, #16
100025f6:	0011      	movs	r1, r2
100025f8:	4399      	bics	r1, r3
100025fa:	910b      	str	r1, [sp, #44]	; 0x2c
100025fc:	0552      	lsls	r2, r2, #21
100025fe:	d400      	bmi.n	10002602 <_vsnprintf+0x236>
10002600:	e35c      	b.n	10002cbc <_vsnprintf+0x8f0>
10002602:	2300      	movs	r3, #0
10002604:	4699      	mov	r9, r3
10002606:	9b0b      	ldr	r3, [sp, #44]	; 0x2c
10002608:	9306      	str	r3, [sp, #24]
1000260a:	9b0a      	ldr	r3, [sp, #40]	; 0x28
1000260c:	9305      	str	r3, [sp, #20]
1000260e:	4643      	mov	r3, r8
10002610:	9304      	str	r3, [sp, #16]
10002612:	9b0c      	ldr	r3, [sp, #48]	; 0x30
10002614:	9303      	str	r3, [sp, #12]
10002616:	2300      	movs	r3, #0
10002618:	e2de      	b.n	10002bd8 <_vsnprintf+0x80c>
1000261a:	7870      	ldrb	r0, [r6, #1]
1000261c:	2868      	cmp	r0, #104	; 0x68
1000261e:	d100      	bne.n	10002622 <_vsnprintf+0x256>
10002620:	e207      	b.n	10002a32 <_vsnprintf+0x666>
10002622:	2380      	movs	r3, #128	; 0x80
10002624:	3601      	adds	r6, #1
10002626:	4319      	orrs	r1, r3
10002628:	e741      	b.n	100024ae <_vsnprintf+0xe2>
1000262a:	2380      	movs	r3, #128	; 0x80
1000262c:	009b      	lsls	r3, r3, #2
1000262e:	7870      	ldrb	r0, [r6, #1]
10002630:	4319      	orrs	r1, r3
10002632:	3601      	adds	r6, #1
10002634:	e73b      	b.n	100024ae <_vsnprintf+0xe2>
10002636:	2846      	cmp	r0, #70	; 0x46
10002638:	d100      	bne.n	1000263c <_vsnprintf+0x270>
1000263a:	e174      	b.n	10002926 <_vsnprintf+0x55a>
1000263c:	2207      	movs	r2, #7
1000263e:	9b09      	ldr	r3, [sp, #36]	; 0x24
10002640:	9104      	str	r1, [sp, #16]
10002642:	3307      	adds	r3, #7
10002644:	4393      	bics	r3, r2
10002646:	9a0a      	ldr	r2, [sp, #40]	; 0x28
10002648:	0019      	movs	r1, r3
1000264a:	9203      	str	r2, [sp, #12]
1000264c:	4642      	mov	r2, r8
1000264e:	9202      	str	r2, [sp, #8]
10002650:	c90c      	ldmia	r1!, {r2, r3}
10002652:	9808      	ldr	r0, [sp, #32]
10002654:	9200      	str	r2, [sp, #0]
10002656:	9301      	str	r3, [sp, #4]
10002658:	9109      	str	r1, [sp, #36]	; 0x24
1000265a:	002a      	movs	r2, r5
1000265c:	465b      	mov	r3, fp
1000265e:	0021      	movs	r1, r4
10002660:	f7ff fcc4 	bl	10001fec <_ftoa>
10002664:	3601      	adds	r6, #1
10002666:	0005      	movs	r5, r0
10002668:	e6d5      	b.n	10002416 <_vsnprintf+0x4a>
1000266a:	9b09      	ldr	r3, [sp, #36]	; 0x24
1000266c:	001a      	movs	r2, r3
1000266e:	ca08      	ldmia	r2!, {r3}
10002670:	4691      	mov	r9, r2
10002672:	2b00      	cmp	r3, #0
10002674:	d100      	bne.n	10002678 <_vsnprintf+0x2ac>
10002676:	e105      	b.n	10002884 <_vsnprintf+0x4b8>
10002678:	2221      	movs	r2, #33	; 0x21
1000267a:	4311      	orrs	r1, r2
1000267c:	468a      	mov	sl, r1
1000267e:	a80e      	add	r0, sp, #56	; 0x38
10002680:	4684      	mov	ip, r0
10002682:	211f      	movs	r1, #31
10002684:	4461      	add	r1, ip
10002686:	9509      	str	r5, [sp, #36]	; 0x24
10002688:	2200      	movs	r2, #0
1000268a:	270f      	movs	r7, #15
1000268c:	46a4      	mov	ip, r4
1000268e:	000d      	movs	r5, r1
10002690:	e002      	b.n	10002698 <_vsnprintf+0x2cc>
10002692:	2a20      	cmp	r2, #32
10002694:	d00c      	beq.n	100026b0 <_vsnprintf+0x2e4>
10002696:	000b      	movs	r3, r1
10002698:	003c      	movs	r4, r7
1000269a:	401c      	ands	r4, r3
1000269c:	0020      	movs	r0, r4
1000269e:	3037      	adds	r0, #55	; 0x37
100026a0:	2c09      	cmp	r4, #9
100026a2:	d800      	bhi.n	100026a6 <_vsnprintf+0x2da>
100026a4:	3807      	subs	r0, #7
100026a6:	3201      	adds	r2, #1
100026a8:	54a8      	strb	r0, [r5, r2]
100026aa:	0919      	lsrs	r1, r3, #4
100026ac:	2b0f      	cmp	r3, #15
100026ae:	d8f0      	bhi.n	10002692 <_vsnprintf+0x2c6>
100026b0:	4664      	mov	r4, ip
100026b2:	9d09      	ldr	r5, [sp, #36]	; 0x24
100026b4:	e0f0      	b.n	10002898 <_vsnprintf+0x4cc>
100026b6:	078b      	lsls	r3, r1, #30
100026b8:	d400      	bmi.n	100026bc <_vsnprintf+0x2f0>
100026ba:	e1d1      	b.n	10002a60 <_vsnprintf+0x694>
100026bc:	9b09      	ldr	r3, [sp, #36]	; 0x24
100026be:	002a      	movs	r2, r5
100026c0:	4699      	mov	r9, r3
100026c2:	1c6b      	adds	r3, r5, #1
100026c4:	4698      	mov	r8, r3
100026c6:	464b      	mov	r3, r9
100026c8:	cb01      	ldmia	r3!, {r0}
100026ca:	0021      	movs	r1, r4
100026cc:	4699      	mov	r9, r3
100026ce:	9f08      	ldr	r7, [sp, #32]
100026d0:	465b      	mov	r3, fp
100026d2:	b2c0      	uxtb	r0, r0
100026d4:	47b8      	blx	r7
100026d6:	9b0a      	ldr	r3, [sp, #40]	; 0x28
100026d8:	469c      	mov	ip, r3
100026da:	4465      	add	r5, ip
100026dc:	2b01      	cmp	r3, #1
100026de:	d800      	bhi.n	100026e2 <_vsnprintf+0x316>
100026e0:	e290      	b.n	10002c04 <_vsnprintf+0x838>
100026e2:	46b2      	mov	sl, r6
100026e4:	465e      	mov	r6, fp
100026e6:	4647      	mov	r7, r8
100026e8:	46a8      	mov	r8, r5
100026ea:	9d08      	ldr	r5, [sp, #32]
100026ec:	003a      	movs	r2, r7
100026ee:	0033      	movs	r3, r6
100026f0:	3701      	adds	r7, #1
100026f2:	0021      	movs	r1, r4
100026f4:	2020      	movs	r0, #32
100026f6:	47a8      	blx	r5
100026f8:	4547      	cmp	r7, r8
100026fa:	d1f7      	bne.n	100026ec <_vsnprintf+0x320>
100026fc:	46b3      	mov	fp, r6
100026fe:	464b      	mov	r3, r9
10002700:	4656      	mov	r6, sl
10002702:	003d      	movs	r5, r7
10002704:	9309      	str	r3, [sp, #36]	; 0x24
10002706:	3601      	adds	r6, #1
10002708:	e685      	b.n	10002416 <_vsnprintf+0x4a>
1000270a:	002a      	movs	r2, r5
1000270c:	1c6f      	adds	r7, r5, #1
1000270e:	465b      	mov	r3, fp
10002710:	9d08      	ldr	r5, [sp, #32]
10002712:	0021      	movs	r1, r4
10002714:	2025      	movs	r0, #37	; 0x25
10002716:	47a8      	blx	r5
10002718:	3601      	adds	r6, #1
1000271a:	003d      	movs	r5, r7
1000271c:	e67b      	b.n	10002416 <_vsnprintf+0x4a>
1000271e:	46c0      	nop			; (mov r8, r8)
10002720:	100023cd 	.word	0x100023cd
10002724:	20000b8c 	.word	0x20000b8c
10002728:	10004bd0 	.word	0x10004bd0
1000272c:	10004c14 	.word	0x10004c14
10002730:	10004c60 	.word	0x10004c60
10002734:	9b09      	ldr	r3, [sp, #36]	; 0x24
10002736:	cb04      	ldmia	r3!, {r2}
10002738:	4699      	mov	r9, r3
1000273a:	4643      	mov	r3, r8
1000273c:	9209      	str	r2, [sp, #36]	; 0x24
1000273e:	2b00      	cmp	r3, #0
10002740:	d000      	beq.n	10002744 <_vsnprintf+0x378>
10002742:	e097      	b.n	10002874 <_vsnprintf+0x4a8>
10002744:	7813      	ldrb	r3, [r2, #0]
10002746:	469c      	mov	ip, r3
10002748:	2b00      	cmp	r3, #0
1000274a:	d100      	bne.n	1000274e <_vsnprintf+0x382>
1000274c:	e3b3      	b.n	10002eb6 <_vsnprintf+0xaea>
1000274e:	2302      	movs	r3, #2
10002750:	425b      	negs	r3, r3
10002752:	1c5a      	adds	r2, r3, #1
10002754:	9b09      	ldr	r3, [sp, #36]	; 0x24
10002756:	4692      	mov	sl, r2
10002758:	0018      	movs	r0, r3
1000275a:	9f0a      	ldr	r7, [sp, #40]	; 0x28
1000275c:	920b      	str	r2, [sp, #44]	; 0x2c
1000275e:	4450      	add	r0, sl
10002760:	e002      	b.n	10002768 <_vsnprintf+0x39c>
10002762:	4283      	cmp	r3, r0
10002764:	d100      	bne.n	10002768 <_vsnprintf+0x39c>
10002766:	e169      	b.n	10002a3c <_vsnprintf+0x670>
10002768:	785a      	ldrb	r2, [r3, #1]
1000276a:	3301      	adds	r3, #1
1000276c:	2a00      	cmp	r2, #0
1000276e:	d1f8      	bne.n	10002762 <_vsnprintf+0x396>
10002770:	9a09      	ldr	r2, [sp, #36]	; 0x24
10002772:	970a      	str	r7, [sp, #40]	; 0x28
10002774:	1a9b      	subs	r3, r3, r2
10002776:	930b      	str	r3, [sp, #44]	; 0x2c
10002778:	2380      	movs	r3, #128	; 0x80
1000277a:	000a      	movs	r2, r1
1000277c:	00db      	lsls	r3, r3, #3
1000277e:	401a      	ands	r2, r3
10002780:	920c      	str	r2, [sp, #48]	; 0x30
10002782:	4219      	tst	r1, r3
10002784:	d004      	beq.n	10002790 <_vsnprintf+0x3c4>
10002786:	9b0b      	ldr	r3, [sp, #44]	; 0x2c
10002788:	4543      	cmp	r3, r8
1000278a:	d901      	bls.n	10002790 <_vsnprintf+0x3c4>
1000278c:	4643      	mov	r3, r8
1000278e:	930b      	str	r3, [sp, #44]	; 0x2c
10002790:	2302      	movs	r3, #2
10002792:	001a      	movs	r2, r3
10002794:	400a      	ands	r2, r1
10002796:	920d      	str	r2, [sp, #52]	; 0x34
10002798:	420b      	tst	r3, r1
1000279a:	d100      	bne.n	1000279e <_vsnprintf+0x3d2>
1000279c:	e184      	b.n	10002aa8 <_vsnprintf+0x6dc>
1000279e:	4660      	mov	r0, ip
100027a0:	2800      	cmp	r0, #0
100027a2:	d023      	beq.n	100027ec <_vsnprintf+0x420>
100027a4:	9b0c      	ldr	r3, [sp, #48]	; 0x30
100027a6:	2b00      	cmp	r3, #0
100027a8:	d100      	bne.n	100027ac <_vsnprintf+0x3e0>
100027aa:	e124      	b.n	100029f6 <_vsnprintf+0x62a>
100027ac:	44a8      	add	r8, r5
100027ae:	46c2      	mov	sl, r8
100027b0:	9b09      	ldr	r3, [sp, #36]	; 0x24
100027b2:	4657      	mov	r7, sl
100027b4:	1b5b      	subs	r3, r3, r5
100027b6:	4698      	mov	r8, r3
100027b8:	9b08      	ldr	r3, [sp, #32]
100027ba:	46b2      	mov	sl, r6
100027bc:	002a      	movs	r2, r5
100027be:	0026      	movs	r6, r4
100027c0:	465c      	mov	r4, fp
100027c2:	469b      	mov	fp, r3
100027c4:	e009      	b.n	100027da <_vsnprintf+0x40e>
100027c6:	0023      	movs	r3, r4
100027c8:	0031      	movs	r1, r6
100027ca:	1c55      	adds	r5, r2, #1
100027cc:	47d8      	blx	fp
100027ce:	4643      	mov	r3, r8
100027d0:	5d58      	ldrb	r0, [r3, r5]
100027d2:	2800      	cmp	r0, #0
100027d4:	d100      	bne.n	100027d8 <_vsnprintf+0x40c>
100027d6:	e13f      	b.n	10002a58 <_vsnprintf+0x68c>
100027d8:	002a      	movs	r2, r5
100027da:	4297      	cmp	r7, r2
100027dc:	d1f3      	bne.n	100027c6 <_vsnprintf+0x3fa>
100027de:	46a3      	mov	fp, r4
100027e0:	003d      	movs	r5, r7
100027e2:	0034      	movs	r4, r6
100027e4:	4656      	mov	r6, sl
100027e6:	9b0d      	ldr	r3, [sp, #52]	; 0x34
100027e8:	2b00      	cmp	r3, #0
100027ea:	d069      	beq.n	100028c0 <_vsnprintf+0x4f4>
100027ec:	9b0b      	ldr	r3, [sp, #44]	; 0x2c
100027ee:	990a      	ldr	r1, [sp, #40]	; 0x28
100027f0:	46a8      	mov	r8, r5
100027f2:	4299      	cmp	r1, r3
100027f4:	d964      	bls.n	100028c0 <_vsnprintf+0x4f4>
100027f6:	468c      	mov	ip, r1
100027f8:	4465      	add	r5, ip
100027fa:	1aed      	subs	r5, r5, r3
100027fc:	9b08      	ldr	r3, [sp, #32]
100027fe:	4647      	mov	r7, r8
10002800:	469a      	mov	sl, r3
10002802:	46b0      	mov	r8, r6
10002804:	0026      	movs	r6, r4
10002806:	465c      	mov	r4, fp
10002808:	003a      	movs	r2, r7
1000280a:	0023      	movs	r3, r4
1000280c:	3701      	adds	r7, #1
1000280e:	0031      	movs	r1, r6
10002810:	2020      	movs	r0, #32
10002812:	47d0      	blx	sl
10002814:	42af      	cmp	r7, r5
10002816:	d1f7      	bne.n	10002808 <_vsnprintf+0x43c>
10002818:	46a3      	mov	fp, r4
1000281a:	0034      	movs	r4, r6
1000281c:	4646      	mov	r6, r8
1000281e:	e04f      	b.n	100028c0 <_vsnprintf+0x4f4>
10002820:	4bd2      	ldr	r3, [pc, #840]	; (10002b6c <_vsnprintf+0x7a0>)
10002822:	7820      	ldrb	r0, [r4, #0]
10002824:	9308      	str	r3, [sp, #32]
10002826:	2300      	movs	r3, #0
10002828:	469a      	mov	sl, r3
1000282a:	2800      	cmp	r0, #0
1000282c:	d000      	beq.n	10002830 <_vsnprintf+0x464>
1000282e:	e5e6      	b.n	100023fe <_vsnprintf+0x32>
10002830:	2400      	movs	r4, #0
10002832:	e671      	b.n	10002518 <_vsnprintf+0x14c>
10002834:	4643      	mov	r3, r8
10002836:	0006      	movs	r6, r0
10002838:	9f0a      	ldr	r7, [sp, #40]	; 0x28
1000283a:	0098      	lsls	r0, r3, #2
1000283c:	18c0      	adds	r0, r0, r3
1000283e:	3201      	adds	r2, #1
10002840:	0040      	lsls	r0, r0, #1
10002842:	1980      	adds	r0, r0, r6
10002844:	7816      	ldrb	r6, [r2, #0]
10002846:	0003      	movs	r3, r0
10002848:	0030      	movs	r0, r6
1000284a:	3830      	subs	r0, #48	; 0x30
1000284c:	3b30      	subs	r3, #48	; 0x30
1000284e:	2809      	cmp	r0, #9
10002850:	d9f3      	bls.n	1000283a <_vsnprintf+0x46e>
10002852:	0030      	movs	r0, r6
10002854:	4698      	mov	r8, r3
10002856:	0016      	movs	r6, r2
10002858:	970a      	str	r7, [sp, #40]	; 0x28
1000285a:	e603      	b.n	10002464 <_vsnprintf+0x98>
1000285c:	9b09      	ldr	r3, [sp, #36]	; 0x24
1000285e:	3602      	adds	r6, #2
10002860:	cb04      	ldmia	r3!, {r2}
10002862:	4690      	mov	r8, r2
10002864:	43d2      	mvns	r2, r2
10002866:	4640      	mov	r0, r8
10002868:	17d2      	asrs	r2, r2, #31
1000286a:	4010      	ands	r0, r2
1000286c:	4680      	mov	r8, r0
1000286e:	9309      	str	r3, [sp, #36]	; 0x24
10002870:	7830      	ldrb	r0, [r6, #0]
10002872:	e5f7      	b.n	10002464 <_vsnprintf+0x98>
10002874:	7813      	ldrb	r3, [r2, #0]
10002876:	469c      	mov	ip, r3
10002878:	2b00      	cmp	r3, #0
1000287a:	d100      	bne.n	1000287e <_vsnprintf+0x4b2>
1000287c:	e31a      	b.n	10002eb4 <_vsnprintf+0xae8>
1000287e:	4643      	mov	r3, r8
10002880:	3b01      	subs	r3, #1
10002882:	e766      	b.n	10002752 <_vsnprintf+0x386>
10002884:	2210      	movs	r2, #16
10002886:	0008      	movs	r0, r1
10002888:	4390      	bics	r0, r2
1000288a:	3211      	adds	r2, #17
1000288c:	4310      	orrs	r0, r2
1000288e:	4682      	mov	sl, r0
10002890:	2200      	movs	r2, #0
10002892:	0549      	lsls	r1, r1, #21
10002894:	d400      	bmi.n	10002898 <_vsnprintf+0x4cc>
10002896:	e6f2      	b.n	1000267e <_vsnprintf+0x2b2>
10002898:	4653      	mov	r3, sl
1000289a:	9306      	str	r3, [sp, #24]
1000289c:	2308      	movs	r3, #8
1000289e:	9305      	str	r3, [sp, #20]
100028a0:	4643      	mov	r3, r8
100028a2:	9304      	str	r3, [sp, #16]
100028a4:	2310      	movs	r3, #16
100028a6:	9303      	str	r3, [sp, #12]
100028a8:	2300      	movs	r3, #0
100028aa:	9302      	str	r3, [sp, #8]
100028ac:	ab16      	add	r3, sp, #88	; 0x58
100028ae:	9201      	str	r2, [sp, #4]
100028b0:	9300      	str	r3, [sp, #0]
100028b2:	002a      	movs	r2, r5
100028b4:	465b      	mov	r3, fp
100028b6:	0021      	movs	r1, r4
100028b8:	9808      	ldr	r0, [sp, #32]
100028ba:	f7ff f879 	bl	100019b0 <_ntoa_format>
100028be:	0005      	movs	r5, r0
100028c0:	464b      	mov	r3, r9
100028c2:	3601      	adds	r6, #1
100028c4:	9309      	str	r3, [sp, #36]	; 0x24
100028c6:	e5a6      	b.n	10002416 <_vsnprintf+0x4a>
100028c8:	2320      	movs	r3, #32
100028ca:	0002      	movs	r2, r0
100028cc:	439a      	bics	r2, r3
100028ce:	2a47      	cmp	r2, #71	; 0x47
100028d0:	d104      	bne.n	100028dc <_vsnprintf+0x510>
100028d2:	2380      	movs	r3, #128	; 0x80
100028d4:	011b      	lsls	r3, r3, #4
100028d6:	4319      	orrs	r1, r3
100028d8:	2302      	movs	r3, #2
100028da:	4398      	bics	r0, r3
100028dc:	2845      	cmp	r0, #69	; 0x45
100028de:	d101      	bne.n	100028e4 <_vsnprintf+0x518>
100028e0:	2320      	movs	r3, #32
100028e2:	4319      	orrs	r1, r3
100028e4:	2207      	movs	r2, #7
100028e6:	9b09      	ldr	r3, [sp, #36]	; 0x24
100028e8:	9104      	str	r1, [sp, #16]
100028ea:	3307      	adds	r3, #7
100028ec:	4393      	bics	r3, r2
100028ee:	9a0a      	ldr	r2, [sp, #40]	; 0x28
100028f0:	0019      	movs	r1, r3
100028f2:	9203      	str	r2, [sp, #12]
100028f4:	4642      	mov	r2, r8
100028f6:	9202      	str	r2, [sp, #8]
100028f8:	c90c      	ldmia	r1!, {r2, r3}
100028fa:	9808      	ldr	r0, [sp, #32]
100028fc:	9200      	str	r2, [sp, #0]
100028fe:	9301      	str	r3, [sp, #4]
10002900:	9109      	str	r1, [sp, #36]	; 0x24
10002902:	002a      	movs	r2, r5
10002904:	465b      	mov	r3, fp
10002906:	0021      	movs	r1, r4
10002908:	f7ff f94a 	bl	10001ba0 <_etoa>
1000290c:	3601      	adds	r6, #1
1000290e:	0005      	movs	r5, r0
10002910:	e581      	b.n	10002416 <_vsnprintf+0x4a>
10002912:	2310      	movs	r3, #16
10002914:	930c      	str	r3, [sp, #48]	; 0x30
10002916:	230c      	movs	r3, #12
10002918:	000a      	movs	r2, r1
1000291a:	439a      	bics	r2, r3
1000291c:	920b      	str	r2, [sp, #44]	; 0x2c
1000291e:	054b      	lsls	r3, r1, #21
10002920:	d400      	bmi.n	10002924 <_vsnprintf+0x558>
10002922:	e63b      	b.n	1000259c <_vsnprintf+0x1d0>
10002924:	e636      	b.n	10002594 <_vsnprintf+0x1c8>
10002926:	2320      	movs	r3, #32
10002928:	4319      	orrs	r1, r3
1000292a:	e687      	b.n	1000263c <_vsnprintf+0x270>
1000292c:	2302      	movs	r3, #2
1000292e:	930c      	str	r3, [sp, #48]	; 0x30
10002930:	910b      	str	r1, [sp, #44]	; 0x2c
10002932:	990b      	ldr	r1, [sp, #44]	; 0x2c
10002934:	2864      	cmp	r0, #100	; 0x64
10002936:	d1ee      	bne.n	10002916 <_vsnprintf+0x54a>
10002938:	9b0b      	ldr	r3, [sp, #44]	; 0x2c
1000293a:	055b      	lsls	r3, r3, #21
1000293c:	d500      	bpl.n	10002940 <_vsnprintf+0x574>
1000293e:	e629      	b.n	10002594 <_vsnprintf+0x1c8>
10002940:	9a0b      	ldr	r2, [sp, #44]	; 0x2c
10002942:	2380      	movs	r3, #128	; 0x80
10002944:	0011      	movs	r1, r2
10002946:	009b      	lsls	r3, r3, #2
10002948:	4019      	ands	r1, r3
1000294a:	468a      	mov	sl, r1
1000294c:	421a      	tst	r2, r3
1000294e:	d000      	beq.n	10002952 <_vsnprintf+0x586>
10002950:	e0ce      	b.n	10002af0 <_vsnprintf+0x724>
10002952:	2380      	movs	r3, #128	; 0x80
10002954:	0011      	movs	r1, r2
10002956:	005b      	lsls	r3, r3, #1
10002958:	4019      	ands	r1, r3
1000295a:	4689      	mov	r9, r1
1000295c:	421a      	tst	r2, r3
1000295e:	d000      	beq.n	10002962 <_vsnprintf+0x596>
10002960:	e1db      	b.n	10002d1a <_vsnprintf+0x94e>
10002962:	0013      	movs	r3, r2
10002964:	065b      	lsls	r3, r3, #25
10002966:	d500      	bpl.n	1000296a <_vsnprintf+0x59e>
10002968:	e11d      	b.n	10002ba6 <_vsnprintf+0x7da>
1000296a:	9b0b      	ldr	r3, [sp, #44]	; 0x2c
1000296c:	9909      	ldr	r1, [sp, #36]	; 0x24
1000296e:	061b      	lsls	r3, r3, #24
10002970:	d400      	bmi.n	10002974 <_vsnprintf+0x5a8>
10002972:	e299      	b.n	10002ea8 <_vsnprintf+0xadc>
10002974:	c908      	ldmia	r1!, {r3}
10002976:	b21b      	sxth	r3, r3
10002978:	17d8      	asrs	r0, r3, #31
1000297a:	181a      	adds	r2, r3, r0
1000297c:	4042      	eors	r2, r0
1000297e:	b292      	uxth	r2, r2
10002980:	9109      	str	r1, [sp, #36]	; 0x24
10002982:	4692      	mov	sl, r2
10002984:	0fda      	lsrs	r2, r3, #31
10002986:	9212      	str	r2, [sp, #72]	; 0x48
10002988:	2b00      	cmp	r3, #0
1000298a:	d109      	bne.n	100029a0 <_vsnprintf+0x5d4>
1000298c:	2380      	movs	r3, #128	; 0x80
1000298e:	2210      	movs	r2, #16
10002990:	990b      	ldr	r1, [sp, #44]	; 0x2c
10002992:	00db      	lsls	r3, r3, #3
10002994:	400b      	ands	r3, r1
10002996:	4391      	bics	r1, r2
10002998:	910b      	str	r1, [sp, #44]	; 0x2c
1000299a:	2b00      	cmp	r3, #0
1000299c:	d000      	beq.n	100029a0 <_vsnprintf+0x5d4>
1000299e:	e112      	b.n	10002bc6 <_vsnprintf+0x7fa>
100029a0:	9a0b      	ldr	r2, [sp, #44]	; 0x2c
100029a2:	2361      	movs	r3, #97	; 0x61
100029a4:	0692      	lsls	r2, r2, #26
100029a6:	d500      	bpl.n	100029aa <_vsnprintf+0x5de>
100029a8:	2341      	movs	r3, #65	; 0x41
100029aa:	a90e      	add	r1, sp, #56	; 0x38
100029ac:	221f      	movs	r2, #31
100029ae:	468c      	mov	ip, r1
100029b0:	b2db      	uxtb	r3, r3
100029b2:	4462      	add	r2, ip
100029b4:	3b0a      	subs	r3, #10
100029b6:	4657      	mov	r7, sl
100029b8:	9513      	str	r5, [sp, #76]	; 0x4c
100029ba:	46a2      	mov	sl, r4
100029bc:	464d      	mov	r5, r9
100029be:	9c0c      	ldr	r4, [sp, #48]	; 0x30
100029c0:	46b1      	mov	r9, r6
100029c2:	930d      	str	r3, [sp, #52]	; 0x34
100029c4:	0016      	movs	r6, r2
100029c6:	e00a      	b.n	100029de <_vsnprintf+0x612>
100029c8:	3330      	adds	r3, #48	; 0x30
100029ca:	b2db      	uxtb	r3, r3
100029cc:	3501      	adds	r5, #1
100029ce:	5573      	strb	r3, [r6, r5]
100029d0:	42a7      	cmp	r7, r4
100029d2:	d200      	bcs.n	100029d6 <_vsnprintf+0x60a>
100029d4:	e11c      	b.n	10002c10 <_vsnprintf+0x844>
100029d6:	2d20      	cmp	r5, #32
100029d8:	d100      	bne.n	100029dc <_vsnprintf+0x610>
100029da:	e119      	b.n	10002c10 <_vsnprintf+0x844>
100029dc:	0007      	movs	r7, r0
100029de:	0021      	movs	r1, r4
100029e0:	0038      	movs	r0, r7
100029e2:	f000 fb01 	bl	10002fe8 <__wrap___aeabi_uidiv>
100029e6:	b2cb      	uxtb	r3, r1
100029e8:	2909      	cmp	r1, #9
100029ea:	d9ed      	bls.n	100029c8 <_vsnprintf+0x5fc>
100029ec:	9a0d      	ldr	r2, [sp, #52]	; 0x34
100029ee:	4694      	mov	ip, r2
100029f0:	4463      	add	r3, ip
100029f2:	b2db      	uxtb	r3, r3
100029f4:	e7ea      	b.n	100029cc <_vsnprintf+0x600>
100029f6:	9b09      	ldr	r3, [sp, #36]	; 0x24
100029f8:	465f      	mov	r7, fp
100029fa:	1b5b      	subs	r3, r3, r5
100029fc:	4698      	mov	r8, r3
100029fe:	9b0a      	ldr	r3, [sp, #40]	; 0x28
10002a00:	46b3      	mov	fp, r6
10002a02:	469a      	mov	sl, r3
10002a04:	0026      	movs	r6, r4
10002a06:	9c08      	ldr	r4, [sp, #32]
10002a08:	002a      	movs	r2, r5
10002a0a:	003b      	movs	r3, r7
10002a0c:	0031      	movs	r1, r6
10002a0e:	47a0      	blx	r4
10002a10:	4643      	mov	r3, r8
10002a12:	3501      	adds	r5, #1
10002a14:	5d58      	ldrb	r0, [r3, r5]
10002a16:	2800      	cmp	r0, #0
10002a18:	d1f6      	bne.n	10002a08 <_vsnprintf+0x63c>
10002a1a:	4653      	mov	r3, sl
10002a1c:	0034      	movs	r4, r6
10002a1e:	930a      	str	r3, [sp, #40]	; 0x28
10002a20:	465e      	mov	r6, fp
10002a22:	46bb      	mov	fp, r7
10002a24:	e6df      	b.n	100027e6 <_vsnprintf+0x41a>
10002a26:	23c0      	movs	r3, #192	; 0xc0
10002a28:	009b      	lsls	r3, r3, #2
10002a2a:	78b0      	ldrb	r0, [r6, #2]
10002a2c:	4319      	orrs	r1, r3
10002a2e:	3602      	adds	r6, #2
10002a30:	e53d      	b.n	100024ae <_vsnprintf+0xe2>
10002a32:	23c0      	movs	r3, #192	; 0xc0
10002a34:	78b0      	ldrb	r0, [r6, #2]
10002a36:	4319      	orrs	r1, r3
10002a38:	3602      	adds	r6, #2
10002a3a:	e538      	b.n	100024ae <_vsnprintf+0xe2>
10002a3c:	970a      	str	r7, [sp, #40]	; 0x28
10002a3e:	e69b      	b.n	10002778 <_vsnprintf+0x3ac>
10002a40:	230c      	movs	r3, #12
10002a42:	000a      	movs	r2, r1
10002a44:	439a      	bics	r2, r3
10002a46:	3314      	adds	r3, #20
10002a48:	431a      	orrs	r2, r3
10002a4a:	2310      	movs	r3, #16
10002a4c:	920b      	str	r2, [sp, #44]	; 0x2c
10002a4e:	930c      	str	r3, [sp, #48]	; 0x30
10002a50:	054b      	lsls	r3, r1, #21
10002a52:	d400      	bmi.n	10002a56 <_vsnprintf+0x68a>
10002a54:	e5a8      	b.n	100025a8 <_vsnprintf+0x1dc>
10002a56:	e59d      	b.n	10002594 <_vsnprintf+0x1c8>
10002a58:	46a3      	mov	fp, r4
10002a5a:	0034      	movs	r4, r6
10002a5c:	4656      	mov	r6, sl
10002a5e:	e6c2      	b.n	100027e6 <_vsnprintf+0x41a>
10002a60:	9a0a      	ldr	r2, [sp, #40]	; 0x28
10002a62:	2a01      	cmp	r2, #1
10002a64:	d800      	bhi.n	10002a68 <_vsnprintf+0x69c>
10002a66:	e22e      	b.n	10002ec6 <_vsnprintf+0xafa>
10002a68:	1e6b      	subs	r3, r5, #1
10002a6a:	189f      	adds	r7, r3, r2
10002a6c:	9b08      	ldr	r3, [sp, #32]
10002a6e:	46b0      	mov	r8, r6
10002a70:	4699      	mov	r9, r3
10002a72:	0026      	movs	r6, r4
10002a74:	465c      	mov	r4, fp
10002a76:	002a      	movs	r2, r5
10002a78:	0023      	movs	r3, r4
10002a7a:	3501      	adds	r5, #1
10002a7c:	0031      	movs	r1, r6
10002a7e:	2020      	movs	r0, #32
10002a80:	47c8      	blx	r9
10002a82:	42bd      	cmp	r5, r7
10002a84:	d1f7      	bne.n	10002a76 <_vsnprintf+0x6aa>
10002a86:	46a3      	mov	fp, r4
10002a88:	0034      	movs	r4, r6
10002a8a:	4646      	mov	r6, r8
10002a8c:	9b09      	ldr	r3, [sp, #36]	; 0x24
10002a8e:	003a      	movs	r2, r7
10002a90:	cb01      	ldmia	r3!, {r0}
10002a92:	0021      	movs	r1, r4
10002a94:	4698      	mov	r8, r3
10002a96:	1c7d      	adds	r5, r7, #1
10002a98:	465b      	mov	r3, fp
10002a9a:	9f08      	ldr	r7, [sp, #32]
10002a9c:	b2c0      	uxtb	r0, r0
10002a9e:	47b8      	blx	r7
10002aa0:	4643      	mov	r3, r8
10002aa2:	3601      	adds	r6, #1
10002aa4:	9309      	str	r3, [sp, #36]	; 0x24
10002aa6:	e4b6      	b.n	10002416 <_vsnprintf+0x4a>
10002aa8:	9a0b      	ldr	r2, [sp, #44]	; 0x2c
10002aaa:	980a      	ldr	r0, [sp, #40]	; 0x28
10002aac:	1c53      	adds	r3, r2, #1
10002aae:	4290      	cmp	r0, r2
10002ab0:	d800      	bhi.n	10002ab4 <_vsnprintf+0x6e8>
10002ab2:	e20a      	b.n	10002eca <_vsnprintf+0xafe>
10002ab4:	1943      	adds	r3, r0, r5
10002ab6:	1a9b      	subs	r3, r3, r2
10002ab8:	001f      	movs	r7, r3
10002aba:	9b08      	ldr	r3, [sp, #32]
10002abc:	46b2      	mov	sl, r6
10002abe:	0026      	movs	r6, r4
10002ac0:	465c      	mov	r4, fp
10002ac2:	469b      	mov	fp, r3
10002ac4:	002a      	movs	r2, r5
10002ac6:	0023      	movs	r3, r4
10002ac8:	3501      	adds	r5, #1
10002aca:	0031      	movs	r1, r6
10002acc:	2020      	movs	r0, #32
10002ace:	47d8      	blx	fp
10002ad0:	42bd      	cmp	r5, r7
10002ad2:	d1f7      	bne.n	10002ac4 <_vsnprintf+0x6f8>
10002ad4:	9b0a      	ldr	r3, [sp, #40]	; 0x28
10002ad6:	46a3      	mov	fp, r4
10002ad8:	3301      	adds	r3, #1
10002ada:	930b      	str	r3, [sp, #44]	; 0x2c
10002adc:	9b09      	ldr	r3, [sp, #36]	; 0x24
10002ade:	0034      	movs	r4, r6
10002ae0:	781b      	ldrb	r3, [r3, #0]
10002ae2:	4656      	mov	r6, sl
10002ae4:	469c      	mov	ip, r3
10002ae6:	4660      	mov	r0, ip
10002ae8:	2800      	cmp	r0, #0
10002aea:	d000      	beq.n	10002aee <_vsnprintf+0x722>
10002aec:	e65a      	b.n	100027a4 <_vsnprintf+0x3d8>
10002aee:	e6e7      	b.n	100028c0 <_vsnprintf+0x4f4>
10002af0:	2207      	movs	r2, #7
10002af2:	9b09      	ldr	r3, [sp, #36]	; 0x24
10002af4:	3307      	adds	r3, #7
10002af6:	4393      	bics	r3, r2
10002af8:	3201      	adds	r2, #1
10002afa:	4694      	mov	ip, r2
10002afc:	449c      	add	ip, r3
10002afe:	4662      	mov	r2, ip
10002b00:	685f      	ldr	r7, [r3, #4]
10002b02:	9209      	str	r2, [sp, #36]	; 0x24
10002b04:	681a      	ldr	r2, [r3, #0]
10002b06:	17fb      	asrs	r3, r7, #31
10002b08:	9310      	str	r3, [sp, #64]	; 0x40
10002b0a:	9311      	str	r3, [sp, #68]	; 0x44
10002b0c:	9810      	ldr	r0, [sp, #64]	; 0x40
10002b0e:	9911      	ldr	r1, [sp, #68]	; 0x44
10002b10:	0003      	movs	r3, r0
10002b12:	4053      	eors	r3, r2
10002b14:	930e      	str	r3, [sp, #56]	; 0x38
10002b16:	000b      	movs	r3, r1
10002b18:	407b      	eors	r3, r7
10002b1a:	930f      	str	r3, [sp, #60]	; 0x3c
10002b1c:	4694      	mov	ip, r2
10002b1e:	9a0e      	ldr	r2, [sp, #56]	; 0x38
10002b20:	9b0f      	ldr	r3, [sp, #60]	; 0x3c
10002b22:	1a12      	subs	r2, r2, r0
10002b24:	418b      	sbcs	r3, r1
10002b26:	920e      	str	r2, [sp, #56]	; 0x38
10002b28:	930f      	str	r3, [sp, #60]	; 0x3c
10002b2a:	0ffb      	lsrs	r3, r7, #31
10002b2c:	4662      	mov	r2, ip
10002b2e:	9312      	str	r3, [sp, #72]	; 0x48
10002b30:	2300      	movs	r3, #0
10002b32:	433a      	orrs	r2, r7
10002b34:	469a      	mov	sl, r3
10002b36:	d03d      	beq.n	10002bb4 <_vsnprintf+0x7e8>
10002b38:	9a0b      	ldr	r2, [sp, #44]	; 0x2c
10002b3a:	2361      	movs	r3, #97	; 0x61
10002b3c:	0692      	lsls	r2, r2, #26
10002b3e:	d500      	bpl.n	10002b42 <_vsnprintf+0x776>
10002b40:	2341      	movs	r3, #65	; 0x41
10002b42:	2200      	movs	r2, #0
10002b44:	b2db      	uxtb	r3, r3
10002b46:	a90e      	add	r1, sp, #56	; 0x38
10002b48:	3b0a      	subs	r3, #10
10002b4a:	468c      	mov	ip, r1
10002b4c:	4691      	mov	r9, r2
10002b4e:	930d      	str	r3, [sp, #52]	; 0x34
10002b50:	4643      	mov	r3, r8
10002b52:	321f      	adds	r2, #31
10002b54:	4462      	add	r2, ip
10002b56:	9513      	str	r5, [sp, #76]	; 0x4c
10002b58:	9615      	str	r6, [sp, #84]	; 0x54
10002b5a:	464d      	mov	r5, r9
10002b5c:	9e0e      	ldr	r6, [sp, #56]	; 0x38
10002b5e:	9f0f      	ldr	r7, [sp, #60]	; 0x3c
10002b60:	46a1      	mov	r9, r4
10002b62:	4690      	mov	r8, r2
10002b64:	9c0c      	ldr	r4, [sp, #48]	; 0x30
10002b66:	9314      	str	r3, [sp, #80]	; 0x50
10002b68:	e00f      	b.n	10002b8a <_vsnprintf+0x7be>
10002b6a:	46c0      	nop			; (mov r8, r8)
10002b6c:	100018dd 	.word	0x100018dd
10002b70:	3230      	adds	r2, #48	; 0x30
10002b72:	b2d2      	uxtb	r2, r2
10002b74:	4643      	mov	r3, r8
10002b76:	3501      	adds	r5, #1
10002b78:	555a      	strb	r2, [r3, r5]
10002b7a:	45ba      	cmp	sl, r7
10002b7c:	d100      	bne.n	10002b80 <_vsnprintf+0x7b4>
10002b7e:	e17c      	b.n	10002e7a <_vsnprintf+0xaae>
10002b80:	2d20      	cmp	r5, #32
10002b82:	d100      	bne.n	10002b86 <_vsnprintf+0x7ba>
10002b84:	e17c      	b.n	10002e80 <_vsnprintf+0xab4>
10002b86:	0006      	movs	r6, r0
10002b88:	000f      	movs	r7, r1
10002b8a:	0022      	movs	r2, r4
10002b8c:	2300      	movs	r3, #0
10002b8e:	0030      	movs	r0, r6
10002b90:	0039      	movs	r1, r7
10002b92:	f000 fa6f 	bl	10003074 <__wrap___aeabi_uldivmod>
10002b96:	b2d2      	uxtb	r2, r2
10002b98:	2a09      	cmp	r2, #9
10002b9a:	d9e9      	bls.n	10002b70 <_vsnprintf+0x7a4>
10002b9c:	9b0d      	ldr	r3, [sp, #52]	; 0x34
10002b9e:	469c      	mov	ip, r3
10002ba0:	4462      	add	r2, ip
10002ba2:	b2d2      	uxtb	r2, r2
10002ba4:	e7e6      	b.n	10002b74 <_vsnprintf+0x7a8>
10002ba6:	23ff      	movs	r3, #255	; 0xff
10002ba8:	9909      	ldr	r1, [sp, #36]	; 0x24
10002baa:	c904      	ldmia	r1!, {r2}
10002bac:	4013      	ands	r3, r2
10002bae:	001a      	movs	r2, r3
10002bb0:	9109      	str	r1, [sp, #36]	; 0x24
10002bb2:	e6e6      	b.n	10002982 <_vsnprintf+0x5b6>
10002bb4:	9a0b      	ldr	r2, [sp, #44]	; 0x2c
10002bb6:	3310      	adds	r3, #16
10002bb8:	0011      	movs	r1, r2
10002bba:	4399      	bics	r1, r3
10002bbc:	910b      	str	r1, [sp, #44]	; 0x2c
10002bbe:	0552      	lsls	r2, r2, #21
10002bc0:	d5ba      	bpl.n	10002b38 <_vsnprintf+0x76c>
10002bc2:	2300      	movs	r3, #0
10002bc4:	4699      	mov	r9, r3
10002bc6:	9b0b      	ldr	r3, [sp, #44]	; 0x2c
10002bc8:	9306      	str	r3, [sp, #24]
10002bca:	9b0a      	ldr	r3, [sp, #40]	; 0x28
10002bcc:	9305      	str	r3, [sp, #20]
10002bce:	4643      	mov	r3, r8
10002bd0:	9304      	str	r3, [sp, #16]
10002bd2:	9b0c      	ldr	r3, [sp, #48]	; 0x30
10002bd4:	9303      	str	r3, [sp, #12]
10002bd6:	9b12      	ldr	r3, [sp, #72]	; 0x48
10002bd8:	9302      	str	r3, [sp, #8]
10002bda:	464b      	mov	r3, r9
10002bdc:	9301      	str	r3, [sp, #4]
10002bde:	ab16      	add	r3, sp, #88	; 0x58
10002be0:	002a      	movs	r2, r5
10002be2:	9300      	str	r3, [sp, #0]
10002be4:	0021      	movs	r1, r4
10002be6:	465b      	mov	r3, fp
10002be8:	9808      	ldr	r0, [sp, #32]
10002bea:	f7fe fee1 	bl	100019b0 <_ntoa_format>
10002bee:	3601      	adds	r6, #1
10002bf0:	0005      	movs	r5, r0
10002bf2:	f7ff fc10 	bl	10002416 <_vsnprintf+0x4a>
10002bf6:	22ff      	movs	r2, #255	; 0xff
10002bf8:	9b09      	ldr	r3, [sp, #36]	; 0x24
10002bfa:	cb02      	ldmia	r3!, {r1}
10002bfc:	4011      	ands	r1, r2
10002bfe:	468a      	mov	sl, r1
10002c00:	9309      	str	r3, [sp, #36]	; 0x24
10002c02:	e4f2      	b.n	100025ea <_vsnprintf+0x21e>
10002c04:	464b      	mov	r3, r9
10002c06:	4645      	mov	r5, r8
10002c08:	9309      	str	r3, [sp, #36]	; 0x24
10002c0a:	3601      	adds	r6, #1
10002c0c:	f7ff fc03 	bl	10002416 <_vsnprintf+0x4a>
10002c10:	464e      	mov	r6, r9
10002c12:	4654      	mov	r4, sl
10002c14:	46a9      	mov	r9, r5
10002c16:	9d13      	ldr	r5, [sp, #76]	; 0x4c
10002c18:	e7d5      	b.n	10002bc6 <_vsnprintf+0x7fa>
10002c1a:	2308      	movs	r3, #8
10002c1c:	930c      	str	r3, [sp, #48]	; 0x30
10002c1e:	e687      	b.n	10002930 <_vsnprintf+0x564>
10002c20:	2207      	movs	r2, #7
10002c22:	9b09      	ldr	r3, [sp, #36]	; 0x24
10002c24:	3307      	adds	r3, #7
10002c26:	4393      	bics	r3, r2
10002c28:	3201      	adds	r2, #1
10002c2a:	4694      	mov	ip, r2
10002c2c:	449c      	add	ip, r3
10002c2e:	4662      	mov	r2, ip
10002c30:	9209      	str	r2, [sp, #36]	; 0x24
10002c32:	681a      	ldr	r2, [r3, #0]
10002c34:	685b      	ldr	r3, [r3, #4]
10002c36:	0010      	movs	r0, r2
10002c38:	469a      	mov	sl, r3
10002c3a:	0013      	movs	r3, r2
10002c3c:	4652      	mov	r2, sl
10002c3e:	4313      	orrs	r3, r2
10002c40:	d107      	bne.n	10002c52 <_vsnprintf+0x886>
10002c42:	9a0b      	ldr	r2, [sp, #44]	; 0x2c
10002c44:	3310      	adds	r3, #16
10002c46:	0011      	movs	r1, r2
10002c48:	4399      	bics	r1, r3
10002c4a:	910b      	str	r1, [sp, #44]	; 0x2c
10002c4c:	0552      	lsls	r2, r2, #21
10002c4e:	d500      	bpl.n	10002c52 <_vsnprintf+0x886>
10002c50:	e4d7      	b.n	10002602 <_vsnprintf+0x236>
10002c52:	9a0b      	ldr	r2, [sp, #44]	; 0x2c
10002c54:	2361      	movs	r3, #97	; 0x61
10002c56:	0692      	lsls	r2, r2, #26
10002c58:	d500      	bpl.n	10002c5c <_vsnprintf+0x890>
10002c5a:	2341      	movs	r3, #65	; 0x41
10002c5c:	2200      	movs	r2, #0
10002c5e:	b2db      	uxtb	r3, r3
10002c60:	a90e      	add	r1, sp, #56	; 0x38
10002c62:	3b0a      	subs	r3, #10
10002c64:	468c      	mov	ip, r1
10002c66:	4691      	mov	r9, r2
10002c68:	930d      	str	r3, [sp, #52]	; 0x34
10002c6a:	4643      	mov	r3, r8
10002c6c:	321f      	adds	r2, #31
10002c6e:	4462      	add	r2, ip
10002c70:	4657      	mov	r7, sl
10002c72:	9512      	str	r5, [sp, #72]	; 0x48
10002c74:	46a2      	mov	sl, r4
10002c76:	464d      	mov	r5, r9
10002c78:	0004      	movs	r4, r0
10002c7a:	46b1      	mov	r9, r6
10002c7c:	4690      	mov	r8, r2
10002c7e:	9e0c      	ldr	r6, [sp, #48]	; 0x30
10002c80:	9313      	str	r3, [sp, #76]	; 0x4c
10002c82:	e00d      	b.n	10002ca0 <_vsnprintf+0x8d4>
10002c84:	3230      	adds	r2, #48	; 0x30
10002c86:	b2d2      	uxtb	r2, r2
10002c88:	4643      	mov	r3, r8
10002c8a:	3501      	adds	r5, #1
10002c8c:	555a      	strb	r2, [r3, r5]
10002c8e:	2300      	movs	r3, #0
10002c90:	42bb      	cmp	r3, r7
10002c92:	d100      	bne.n	10002c96 <_vsnprintf+0x8ca>
10002c94:	e0fd      	b.n	10002e92 <_vsnprintf+0xac6>
10002c96:	2d20      	cmp	r5, #32
10002c98:	d100      	bne.n	10002c9c <_vsnprintf+0x8d0>
10002c9a:	e0fd      	b.n	10002e98 <_vsnprintf+0xacc>
10002c9c:	0004      	movs	r4, r0
10002c9e:	000f      	movs	r7, r1
10002ca0:	0032      	movs	r2, r6
10002ca2:	2300      	movs	r3, #0
10002ca4:	0020      	movs	r0, r4
10002ca6:	0039      	movs	r1, r7
10002ca8:	f000 f9e4 	bl	10003074 <__wrap___aeabi_uldivmod>
10002cac:	b2d2      	uxtb	r2, r2
10002cae:	2a09      	cmp	r2, #9
10002cb0:	d9e8      	bls.n	10002c84 <_vsnprintf+0x8b8>
10002cb2:	9b0d      	ldr	r3, [sp, #52]	; 0x34
10002cb4:	469c      	mov	ip, r3
10002cb6:	4462      	add	r2, ip
10002cb8:	b2d2      	uxtb	r2, r2
10002cba:	e7e5      	b.n	10002c88 <_vsnprintf+0x8bc>
10002cbc:	9a0b      	ldr	r2, [sp, #44]	; 0x2c
10002cbe:	2361      	movs	r3, #97	; 0x61
10002cc0:	0692      	lsls	r2, r2, #26
10002cc2:	d500      	bpl.n	10002cc6 <_vsnprintf+0x8fa>
10002cc4:	2341      	movs	r3, #65	; 0x41
10002cc6:	b2db      	uxtb	r3, r3
10002cc8:	a90e      	add	r1, sp, #56	; 0x38
10002cca:	3b0a      	subs	r3, #10
10002ccc:	221f      	movs	r2, #31
10002cce:	468c      	mov	ip, r1
10002cd0:	930d      	str	r3, [sp, #52]	; 0x34
10002cd2:	0023      	movs	r3, r4
10002cd4:	4462      	add	r2, ip
10002cd6:	4654      	mov	r4, sl
10002cd8:	9512      	str	r5, [sp, #72]	; 0x48
10002cda:	0017      	movs	r7, r2
10002cdc:	464d      	mov	r5, r9
10002cde:	469a      	mov	sl, r3
10002ce0:	46b1      	mov	r9, r6
10002ce2:	9e0c      	ldr	r6, [sp, #48]	; 0x30
10002ce4:	e008      	b.n	10002cf8 <_vsnprintf+0x92c>
10002ce6:	3330      	adds	r3, #48	; 0x30
10002ce8:	b2db      	uxtb	r3, r3
10002cea:	3501      	adds	r5, #1
10002cec:	557b      	strb	r3, [r7, r5]
10002cee:	42b4      	cmp	r4, r6
10002cf0:	d30e      	bcc.n	10002d10 <_vsnprintf+0x944>
10002cf2:	2d20      	cmp	r5, #32
10002cf4:	d00c      	beq.n	10002d10 <_vsnprintf+0x944>
10002cf6:	0004      	movs	r4, r0
10002cf8:	0031      	movs	r1, r6
10002cfa:	0020      	movs	r0, r4
10002cfc:	f000 f974 	bl	10002fe8 <__wrap___aeabi_uidiv>
10002d00:	b2cb      	uxtb	r3, r1
10002d02:	2909      	cmp	r1, #9
10002d04:	d9ef      	bls.n	10002ce6 <_vsnprintf+0x91a>
10002d06:	9a0d      	ldr	r2, [sp, #52]	; 0x34
10002d08:	4694      	mov	ip, r2
10002d0a:	4463      	add	r3, ip
10002d0c:	b2db      	uxtb	r3, r3
10002d0e:	e7ec      	b.n	10002cea <_vsnprintf+0x91e>
10002d10:	464e      	mov	r6, r9
10002d12:	4654      	mov	r4, sl
10002d14:	46a9      	mov	r9, r5
10002d16:	9d12      	ldr	r5, [sp, #72]	; 0x48
10002d18:	e475      	b.n	10002606 <_vsnprintf+0x23a>
10002d1a:	9b09      	ldr	r3, [sp, #36]	; 0x24
10002d1c:	001a      	movs	r2, r3
10002d1e:	ca08      	ldmia	r2!, {r3}
10002d20:	17d9      	asrs	r1, r3, #31
10002d22:	9213      	str	r2, [sp, #76]	; 0x4c
10002d24:	185a      	adds	r2, r3, r1
10002d26:	404a      	eors	r2, r1
10002d28:	4691      	mov	r9, r2
10002d2a:	0fda      	lsrs	r2, r3, #31
10002d2c:	9212      	str	r2, [sp, #72]	; 0x48
10002d2e:	2b00      	cmp	r3, #0
10002d30:	d108      	bne.n	10002d44 <_vsnprintf+0x978>
10002d32:	2380      	movs	r3, #128	; 0x80
10002d34:	2210      	movs	r2, #16
10002d36:	990b      	ldr	r1, [sp, #44]	; 0x2c
10002d38:	00db      	lsls	r3, r3, #3
10002d3a:	400b      	ands	r3, r1
10002d3c:	4391      	bics	r1, r2
10002d3e:	910b      	str	r1, [sp, #44]	; 0x2c
10002d40:	2b00      	cmp	r3, #0
10002d42:	d12b      	bne.n	10002d9c <_vsnprintf+0x9d0>
10002d44:	9a0b      	ldr	r2, [sp, #44]	; 0x2c
10002d46:	2361      	movs	r3, #97	; 0x61
10002d48:	0692      	lsls	r2, r2, #26
10002d4a:	d500      	bpl.n	10002d4e <_vsnprintf+0x982>
10002d4c:	2341      	movs	r3, #65	; 0x41
10002d4e:	aa0e      	add	r2, sp, #56	; 0x38
10002d50:	271f      	movs	r7, #31
10002d52:	4694      	mov	ip, r2
10002d54:	b2db      	uxtb	r3, r3
10002d56:	3b0a      	subs	r3, #10
10002d58:	950d      	str	r5, [sp, #52]	; 0x34
10002d5a:	4467      	add	r7, ip
10002d5c:	4655      	mov	r5, sl
10002d5e:	9309      	str	r3, [sp, #36]	; 0x24
10002d60:	46a2      	mov	sl, r4
10002d62:	464c      	mov	r4, r9
10002d64:	46b1      	mov	r9, r6
10002d66:	9e0c      	ldr	r6, [sp, #48]	; 0x30
10002d68:	e008      	b.n	10002d7c <_vsnprintf+0x9b0>
10002d6a:	3330      	adds	r3, #48	; 0x30
10002d6c:	b2db      	uxtb	r3, r3
10002d6e:	3501      	adds	r5, #1
10002d70:	557b      	strb	r3, [r7, r5]
10002d72:	42b4      	cmp	r4, r6
10002d74:	d30e      	bcc.n	10002d94 <_vsnprintf+0x9c8>
10002d76:	2d20      	cmp	r5, #32
10002d78:	d00c      	beq.n	10002d94 <_vsnprintf+0x9c8>
10002d7a:	0004      	movs	r4, r0
10002d7c:	0031      	movs	r1, r6
10002d7e:	0020      	movs	r0, r4
10002d80:	f000 f932 	bl	10002fe8 <__wrap___aeabi_uidiv>
10002d84:	b2cb      	uxtb	r3, r1
10002d86:	2909      	cmp	r1, #9
10002d88:	d9ef      	bls.n	10002d6a <_vsnprintf+0x99e>
10002d8a:	9a09      	ldr	r2, [sp, #36]	; 0x24
10002d8c:	4694      	mov	ip, r2
10002d8e:	4463      	add	r3, ip
10002d90:	b2db      	uxtb	r3, r3
10002d92:	e7ec      	b.n	10002d6e <_vsnprintf+0x9a2>
10002d94:	464e      	mov	r6, r9
10002d96:	4654      	mov	r4, sl
10002d98:	46aa      	mov	sl, r5
10002d9a:	9d0d      	ldr	r5, [sp, #52]	; 0x34
10002d9c:	9b0b      	ldr	r3, [sp, #44]	; 0x2c
10002d9e:	002a      	movs	r2, r5
10002da0:	9306      	str	r3, [sp, #24]
10002da2:	9b0a      	ldr	r3, [sp, #40]	; 0x28
10002da4:	0021      	movs	r1, r4
10002da6:	9305      	str	r3, [sp, #20]
10002da8:	4643      	mov	r3, r8
10002daa:	9304      	str	r3, [sp, #16]
10002dac:	9b0c      	ldr	r3, [sp, #48]	; 0x30
10002dae:	9808      	ldr	r0, [sp, #32]
10002db0:	9303      	str	r3, [sp, #12]
10002db2:	9b12      	ldr	r3, [sp, #72]	; 0x48
10002db4:	3601      	adds	r6, #1
10002db6:	9302      	str	r3, [sp, #8]
10002db8:	4653      	mov	r3, sl
10002dba:	9301      	str	r3, [sp, #4]
10002dbc:	ab16      	add	r3, sp, #88	; 0x58
10002dbe:	9300      	str	r3, [sp, #0]
10002dc0:	465b      	mov	r3, fp
10002dc2:	f7fe fdf5 	bl	100019b0 <_ntoa_format>
10002dc6:	9b13      	ldr	r3, [sp, #76]	; 0x4c
10002dc8:	0005      	movs	r5, r0
10002dca:	9309      	str	r3, [sp, #36]	; 0x24
10002dcc:	f7ff fb23 	bl	10002416 <_vsnprintf+0x4a>
10002dd0:	9b09      	ldr	r3, [sp, #36]	; 0x24
10002dd2:	cb04      	ldmia	r3!, {r2}
10002dd4:	4691      	mov	r9, r2
10002dd6:	9312      	str	r3, [sp, #72]	; 0x48
10002dd8:	2a00      	cmp	r2, #0
10002dda:	d108      	bne.n	10002dee <_vsnprintf+0xa22>
10002ddc:	2380      	movs	r3, #128	; 0x80
10002dde:	2210      	movs	r2, #16
10002de0:	990b      	ldr	r1, [sp, #44]	; 0x2c
10002de2:	00db      	lsls	r3, r3, #3
10002de4:	400b      	ands	r3, r1
10002de6:	4391      	bics	r1, r2
10002de8:	910b      	str	r1, [sp, #44]	; 0x2c
10002dea:	2b00      	cmp	r3, #0
10002dec:	d12b      	bne.n	10002e46 <_vsnprintf+0xa7a>
10002dee:	9a0b      	ldr	r2, [sp, #44]	; 0x2c
10002df0:	2361      	movs	r3, #97	; 0x61
10002df2:	0692      	lsls	r2, r2, #26
10002df4:	d500      	bpl.n	10002df8 <_vsnprintf+0xa2c>
10002df6:	2341      	movs	r3, #65	; 0x41
10002df8:	aa0e      	add	r2, sp, #56	; 0x38
10002dfa:	271f      	movs	r7, #31
10002dfc:	4694      	mov	ip, r2
10002dfe:	b2db      	uxtb	r3, r3
10002e00:	3b0a      	subs	r3, #10
10002e02:	950d      	str	r5, [sp, #52]	; 0x34
10002e04:	4467      	add	r7, ip
10002e06:	4655      	mov	r5, sl
10002e08:	9309      	str	r3, [sp, #36]	; 0x24
10002e0a:	46a2      	mov	sl, r4
10002e0c:	464c      	mov	r4, r9
10002e0e:	46b1      	mov	r9, r6
10002e10:	9e0c      	ldr	r6, [sp, #48]	; 0x30
10002e12:	e008      	b.n	10002e26 <_vsnprintf+0xa5a>
10002e14:	3330      	adds	r3, #48	; 0x30
10002e16:	b2db      	uxtb	r3, r3
10002e18:	3501      	adds	r5, #1
10002e1a:	557b      	strb	r3, [r7, r5]
10002e1c:	42b4      	cmp	r4, r6
10002e1e:	d30e      	bcc.n	10002e3e <_vsnprintf+0xa72>
10002e20:	2d20      	cmp	r5, #32
10002e22:	d00c      	beq.n	10002e3e <_vsnprintf+0xa72>
10002e24:	0004      	movs	r4, r0
10002e26:	0031      	movs	r1, r6
10002e28:	0020      	movs	r0, r4
10002e2a:	f000 f8dd 	bl	10002fe8 <__wrap___aeabi_uidiv>
10002e2e:	b2cb      	uxtb	r3, r1
10002e30:	2909      	cmp	r1, #9
10002e32:	d9ef      	bls.n	10002e14 <_vsnprintf+0xa48>
10002e34:	9a09      	ldr	r2, [sp, #36]	; 0x24
10002e36:	4694      	mov	ip, r2
10002e38:	4463      	add	r3, ip
10002e3a:	b2db      	uxtb	r3, r3
10002e3c:	e7ec      	b.n	10002e18 <_vsnprintf+0xa4c>
10002e3e:	464e      	mov	r6, r9
10002e40:	4654      	mov	r4, sl
10002e42:	46aa      	mov	sl, r5
10002e44:	9d0d      	ldr	r5, [sp, #52]	; 0x34
10002e46:	9b0b      	ldr	r3, [sp, #44]	; 0x2c
10002e48:	002a      	movs	r2, r5
10002e4a:	9306      	str	r3, [sp, #24]
10002e4c:	9b0a      	ldr	r3, [sp, #40]	; 0x28
10002e4e:	0021      	movs	r1, r4
10002e50:	9305      	str	r3, [sp, #20]
10002e52:	4643      	mov	r3, r8
10002e54:	9304      	str	r3, [sp, #16]
10002e56:	9b0c      	ldr	r3, [sp, #48]	; 0x30
10002e58:	9808      	ldr	r0, [sp, #32]
10002e5a:	9303      	str	r3, [sp, #12]
10002e5c:	2300      	movs	r3, #0
10002e5e:	9302      	str	r3, [sp, #8]
10002e60:	4653      	mov	r3, sl
10002e62:	9301      	str	r3, [sp, #4]
10002e64:	ab16      	add	r3, sp, #88	; 0x58
10002e66:	9300      	str	r3, [sp, #0]
10002e68:	465b      	mov	r3, fp
10002e6a:	f7fe fda1 	bl	100019b0 <_ntoa_format>
10002e6e:	9b12      	ldr	r3, [sp, #72]	; 0x48
10002e70:	0005      	movs	r5, r0
10002e72:	9309      	str	r3, [sp, #36]	; 0x24
10002e74:	3601      	adds	r6, #1
10002e76:	f7ff face 	bl	10002416 <_vsnprintf+0x4a>
10002e7a:	42b4      	cmp	r4, r6
10002e7c:	d800      	bhi.n	10002e80 <_vsnprintf+0xab4>
10002e7e:	e67f      	b.n	10002b80 <_vsnprintf+0x7b4>
10002e80:	9b14      	ldr	r3, [sp, #80]	; 0x50
10002e82:	464c      	mov	r4, r9
10002e84:	960e      	str	r6, [sp, #56]	; 0x38
10002e86:	970f      	str	r7, [sp, #60]	; 0x3c
10002e88:	46a9      	mov	r9, r5
10002e8a:	4698      	mov	r8, r3
10002e8c:	9e15      	ldr	r6, [sp, #84]	; 0x54
10002e8e:	9d13      	ldr	r5, [sp, #76]	; 0x4c
10002e90:	e699      	b.n	10002bc6 <_vsnprintf+0x7fa>
10002e92:	42a6      	cmp	r6, r4
10002e94:	d800      	bhi.n	10002e98 <_vsnprintf+0xacc>
10002e96:	e6fe      	b.n	10002c96 <_vsnprintf+0x8ca>
10002e98:	9b13      	ldr	r3, [sp, #76]	; 0x4c
10002e9a:	464e      	mov	r6, r9
10002e9c:	4698      	mov	r8, r3
10002e9e:	46a9      	mov	r9, r5
10002ea0:	4654      	mov	r4, sl
10002ea2:	9d12      	ldr	r5, [sp, #72]	; 0x48
10002ea4:	f7ff fbaf 	bl	10002606 <_vsnprintf+0x23a>
10002ea8:	c908      	ldmia	r1!, {r3}
10002eaa:	17d8      	asrs	r0, r3, #31
10002eac:	181a      	adds	r2, r3, r0
10002eae:	4042      	eors	r2, r0
10002eb0:	9109      	str	r1, [sp, #36]	; 0x24
10002eb2:	e566      	b.n	10002982 <_vsnprintf+0x5b6>
10002eb4:	2300      	movs	r3, #0
10002eb6:	930b      	str	r3, [sp, #44]	; 0x2c
10002eb8:	e45e      	b.n	10002778 <_vsnprintf+0x3ac>
10002eba:	9b09      	ldr	r3, [sp, #36]	; 0x24
10002ebc:	cb04      	ldmia	r3!, {r2}
10002ebe:	4692      	mov	sl, r2
10002ec0:	9309      	str	r3, [sp, #36]	; 0x24
10002ec2:	f7ff fb92 	bl	100025ea <_vsnprintf+0x21e>
10002ec6:	002f      	movs	r7, r5
10002ec8:	e5e0      	b.n	10002a8c <_vsnprintf+0x6c0>
10002eca:	930b      	str	r3, [sp, #44]	; 0x2c
10002ecc:	e60b      	b.n	10002ae6 <_vsnprintf+0x71a>
10002ece:	3b06      	subs	r3, #6
10002ed0:	930c      	str	r3, [sp, #48]	; 0x30
10002ed2:	e52e      	b.n	10002932 <_vsnprintf+0x566>

10002ed4 <vfctprintf>:
10002ed4:	b500      	push	{lr}
10002ed6:	b085      	sub	sp, #20
10002ed8:	9103      	str	r1, [sp, #12]
10002eda:	2101      	movs	r1, #1
10002edc:	9002      	str	r0, [sp, #8]
10002ede:	9300      	str	r3, [sp, #0]
10002ee0:	4803      	ldr	r0, [pc, #12]	; (10002ef0 <vfctprintf+0x1c>)
10002ee2:	0013      	movs	r3, r2
10002ee4:	424a      	negs	r2, r1
10002ee6:	a902      	add	r1, sp, #8
10002ee8:	f7ff fa70 	bl	100023cc <_vsnprintf>
10002eec:	b005      	add	sp, #20
10002eee:	bd00      	pop	{pc}
10002ef0:	10001b91 	.word	0x10001b91

10002ef4 <weak_raw_vprintf>:
10002ef4:	b510      	push	{r4, lr}
10002ef6:	4a09      	ldr	r2, [pc, #36]	; (10002f1c <weak_raw_vprintf+0x28>)
10002ef8:	0003      	movs	r3, r0
10002efa:	6814      	ldr	r4, [r2, #0]
10002efc:	b084      	sub	sp, #16
10002efe:	2c00      	cmp	r4, #0
10002f00:	d008      	beq.n	10002f14 <weak_raw_vprintf+0x20>
10002f02:	2201      	movs	r2, #1
10002f04:	9100      	str	r1, [sp, #0]
10002f06:	4806      	ldr	r0, [pc, #24]	; (10002f20 <weak_raw_vprintf+0x2c>)
10002f08:	4252      	negs	r2, r2
10002f0a:	a903      	add	r1, sp, #12
10002f0c:	47a0      	blx	r4
10002f0e:	2001      	movs	r0, #1
10002f10:	b004      	add	sp, #16
10002f12:	bd10      	pop	{r4, pc}
10002f14:	f001 f832 	bl	10003f7c <__wrap_puts>
10002f18:	2000      	movs	r0, #0
10002f1a:	e7f9      	b.n	10002f10 <weak_raw_vprintf+0x1c>
10002f1c:	20000b8c 	.word	0x20000b8c
10002f20:	10001b81 	.word	0x10001b81

10002f24 <__aeabi_bits_init>:
10002f24:	4801      	ldr	r0, [pc, #4]	; (10002f2c <__aeabi_bits_init+0x8>)
10002f26:	2104      	movs	r1, #4
10002f28:	4b01      	ldr	r3, [pc, #4]	; (10002f30 <__aeabi_bits_init+0xc>)
10002f2a:	4718      	bx	r3
10002f2c:	200001e0 	.word	0x200001e0
10002f30:	10002f55 	.word	0x10002f55

10002f34 <rom_func_lookup>:
10002f34:	2314      	movs	r3, #20
10002f36:	b510      	push	{r4, lr}
10002f38:	0001      	movs	r1, r0
10002f3a:	8818      	ldrh	r0, [r3, #0]
10002f3c:	3304      	adds	r3, #4
10002f3e:	881b      	ldrh	r3, [r3, #0]
10002f40:	4798      	blx	r3
10002f42:	bd10      	pop	{r4, pc}

10002f44 <rom_data_lookup>:
10002f44:	2316      	movs	r3, #22
10002f46:	b510      	push	{r4, lr}
10002f48:	0001      	movs	r1, r0
10002f4a:	8818      	ldrh	r0, [r3, #0]
10002f4c:	3302      	adds	r3, #2
10002f4e:	881b      	ldrh	r3, [r3, #0]
10002f50:	4798      	blx	r3
10002f52:	bd10      	pop	{r4, pc}

10002f54 <rom_funcs_lookup>:
10002f54:	b5f0      	push	{r4, r5, r6, r7, lr}
10002f56:	46c6      	mov	lr, r8
10002f58:	b500      	push	{lr}
10002f5a:	2900      	cmp	r1, #0
10002f5c:	d016      	beq.n	10002f8c <rom_funcs_lookup+0x38>
10002f5e:	2314      	movs	r3, #20
10002f60:	0004      	movs	r4, r0
10002f62:	2501      	movs	r5, #1
10002f64:	4698      	mov	r8, r3
10002f66:	2718      	movs	r7, #24
10002f68:	0089      	lsls	r1, r1, #2
10002f6a:	1846      	adds	r6, r0, r1
10002f6c:	4643      	mov	r3, r8
10002f6e:	6821      	ldr	r1, [r4, #0]
10002f70:	8818      	ldrh	r0, [r3, #0]
10002f72:	883b      	ldrh	r3, [r7, #0]
10002f74:	4798      	blx	r3
10002f76:	c401      	stmia	r4!, {r0}
10002f78:	1e43      	subs	r3, r0, #1
10002f7a:	4198      	sbcs	r0, r3
10002f7c:	4240      	negs	r0, r0
10002f7e:	4005      	ands	r5, r0
10002f80:	42a6      	cmp	r6, r4
10002f82:	d1f3      	bne.n	10002f6c <rom_funcs_lookup+0x18>
10002f84:	0028      	movs	r0, r5
10002f86:	bc04      	pop	{r2}
10002f88:	4690      	mov	r8, r2
10002f8a:	bdf0      	pop	{r4, r5, r6, r7, pc}
10002f8c:	2501      	movs	r5, #1
10002f8e:	e7f9      	b.n	10002f84 <rom_funcs_lookup+0x30>

10002f90 <__wrap___aeabi_idiv>:
10002f90:	4a14      	ldr	r2, [pc, #80]	; (10002fe4 <divmod_s32s32_savestate+0x20>)
10002f92:	6f93      	ldr	r3, [r2, #120]	; 0x78
10002f94:	089b      	lsrs	r3, r3, #2
10002f96:	d215      	bcs.n	10002fc4 <divmod_s32s32_savestate>

10002f98 <divmod_s32s32_unsafe>:
10002f98:	6690      	str	r0, [r2, #104]	; 0x68
10002f9a:	66d1      	str	r1, [r2, #108]	; 0x6c
10002f9c:	2900      	cmp	r1, #0
10002f9e:	d005      	beq.n	10002fac <divmod_s32s32_unsafe+0x14>
10002fa0:	e7ff      	b.n	10002fa2 <divmod_s32s32_unsafe+0xa>
10002fa2:	e7ff      	b.n	10002fa4 <divmod_s32s32_unsafe+0xc>
10002fa4:	e7ff      	b.n	10002fa6 <divmod_s32s32_unsafe+0xe>
10002fa6:	6f51      	ldr	r1, [r2, #116]	; 0x74
10002fa8:	6f10      	ldr	r0, [r2, #112]	; 0x70
10002faa:	4770      	bx	lr
10002fac:	b504      	push	{r2, lr}
10002fae:	2180      	movs	r1, #128	; 0x80
10002fb0:	0609      	lsls	r1, r1, #24
10002fb2:	17c2      	asrs	r2, r0, #31
10002fb4:	4051      	eors	r1, r2
10002fb6:	2800      	cmp	r0, #0
10002fb8:	d000      	beq.n	10002fbc <divmod_s32s32_unsafe+0x24>
10002fba:	43c8      	mvns	r0, r1
10002fbc:	f001 fd94 	bl	10004ae8 <____aeabi_idiv0_veneer>
10002fc0:	2100      	movs	r1, #0
10002fc2:	bd04      	pop	{r2, pc}

10002fc4 <divmod_s32s32_savestate>:
10002fc4:	6f93      	ldr	r3, [r2, #120]	; 0x78
10002fc6:	085b      	lsrs	r3, r3, #1
10002fc8:	d3fd      	bcc.n	10002fc6 <divmod_s32s32_savestate+0x2>
10002fca:	b5f0      	push	{r4, r5, r6, r7, lr}
10002fcc:	6e94      	ldr	r4, [r2, #104]	; 0x68
10002fce:	6ed5      	ldr	r5, [r2, #108]	; 0x6c
10002fd0:	6f57      	ldr	r7, [r2, #116]	; 0x74
10002fd2:	6f16      	ldr	r6, [r2, #112]	; 0x70
10002fd4:	f7ff ffe0 	bl	10002f98 <divmod_s32s32_unsafe>
10002fd8:	6694      	str	r4, [r2, #104]	; 0x68
10002fda:	66d5      	str	r5, [r2, #108]	; 0x6c
10002fdc:	6757      	str	r7, [r2, #116]	; 0x74
10002fde:	6716      	str	r6, [r2, #112]	; 0x70
10002fe0:	bdf0      	pop	{r4, r5, r6, r7, pc}
10002fe2:	0000      	.short	0x0000
10002fe4:	d0000000 	.word	0xd0000000

10002fe8 <__wrap___aeabi_uidiv>:
10002fe8:	4a13      	ldr	r2, [pc, #76]	; (10003038 <divmod_u32u32_savestate+0x20>)
10002fea:	6f93      	ldr	r3, [r2, #120]	; 0x78
10002fec:	089b      	lsrs	r3, r3, #2
10002fee:	d213      	bcs.n	10003018 <divmod_u32u32_savestate>

10002ff0 <divmod_u32u32_unsafe>:
10002ff0:	6610      	str	r0, [r2, #96]	; 0x60
10002ff2:	6651      	str	r1, [r2, #100]	; 0x64
10002ff4:	2900      	cmp	r1, #0
10002ff6:	d005      	beq.n	10003004 <divmod_u32u32_unsafe+0x14>
10002ff8:	e7ff      	b.n	10002ffa <divmod_u32u32_unsafe+0xa>
10002ffa:	e7ff      	b.n	10002ffc <divmod_u32u32_unsafe+0xc>
10002ffc:	e7ff      	b.n	10002ffe <divmod_u32u32_unsafe+0xe>
10002ffe:	6f51      	ldr	r1, [r2, #116]	; 0x74
10003000:	6f10      	ldr	r0, [r2, #112]	; 0x70
10003002:	4770      	bx	lr
10003004:	b504      	push	{r2, lr}
10003006:	2800      	cmp	r0, #0
10003008:	d001      	beq.n	1000300e <divmod_u32u32_unsafe+0x1e>
1000300a:	2000      	movs	r0, #0
1000300c:	43c0      	mvns	r0, r0
1000300e:	f001 fd6b 	bl	10004ae8 <____aeabi_idiv0_veneer>
10003012:	2100      	movs	r1, #0
10003014:	bd04      	pop	{r2, pc}
10003016:	46c0      	nop			; (mov r8, r8)

10003018 <divmod_u32u32_savestate>:
10003018:	6f93      	ldr	r3, [r2, #120]	; 0x78
1000301a:	085b      	lsrs	r3, r3, #1
1000301c:	d3fd      	bcc.n	1000301a <divmod_u32u32_savestate+0x2>
1000301e:	b5f0      	push	{r4, r5, r6, r7, lr}
10003020:	6e94      	ldr	r4, [r2, #104]	; 0x68
10003022:	6ed5      	ldr	r5, [r2, #108]	; 0x6c
10003024:	6f57      	ldr	r7, [r2, #116]	; 0x74
10003026:	6f16      	ldr	r6, [r2, #112]	; 0x70
10003028:	f7ff ffe2 	bl	10002ff0 <divmod_u32u32_unsafe>
1000302c:	6694      	str	r4, [r2, #104]	; 0x68
1000302e:	66d5      	str	r5, [r2, #108]	; 0x6c
10003030:	6757      	str	r7, [r2, #116]	; 0x74
10003032:	6716      	str	r6, [r2, #112]	; 0x70
10003034:	bdf0      	pop	{r4, r5, r6, r7, pc}
10003036:	0000      	.short	0x0000
10003038:	d0000000 	.word	0xd0000000

1000303c <__wrap___aeabi_ldivmod>:
1000303c:	4694      	mov	ip, r2
1000303e:	4a4e      	ldr	r2, [pc, #312]	; (10003178 <udiv0+0x1a>)
10003040:	6f92      	ldr	r2, [r2, #120]	; 0x78
10003042:	0892      	lsrs	r2, r2, #2
10003044:	4662      	mov	r2, ip
10003046:	d201      	bcs.n	1000304c <divmod_s64s64_savestate>
10003048:	e030      	b.n	100030ac <divmod_s64s64_unsafe>
1000304a:	46c0      	nop			; (mov r8, r8)

1000304c <divmod_s64s64_savestate>:
1000304c:	b5f0      	push	{r4, r5, r6, r7, lr}
1000304e:	4e4a      	ldr	r6, [pc, #296]	; (10003178 <udiv0+0x1a>)
10003050:	6fb5      	ldr	r5, [r6, #120]	; 0x78
10003052:	086d      	lsrs	r5, r5, #1
10003054:	d3fc      	bcc.n	10003050 <divmod_s64s64_savestate+0x4>
10003056:	6e34      	ldr	r4, [r6, #96]	; 0x60
10003058:	6e75      	ldr	r5, [r6, #100]	; 0x64
1000305a:	6f77      	ldr	r7, [r6, #116]	; 0x74
1000305c:	6f36      	ldr	r6, [r6, #112]	; 0x70
1000305e:	f000 f825 	bl	100030ac <divmod_s64s64_unsafe>
10003062:	4694      	mov	ip, r2
10003064:	4a44      	ldr	r2, [pc, #272]	; (10003178 <udiv0+0x1a>)
10003066:	6614      	str	r4, [r2, #96]	; 0x60
10003068:	6655      	str	r5, [r2, #100]	; 0x64
1000306a:	6757      	str	r7, [r2, #116]	; 0x74
1000306c:	6716      	str	r6, [r2, #112]	; 0x70
1000306e:	4662      	mov	r2, ip
10003070:	bdf0      	pop	{r4, r5, r6, r7, pc}
10003072:	46c0      	nop			; (mov r8, r8)

10003074 <__wrap___aeabi_uldivmod>:
10003074:	4694      	mov	ip, r2
10003076:	4a40      	ldr	r2, [pc, #256]	; (10003178 <udiv0+0x1a>)
10003078:	6f92      	ldr	r2, [r2, #120]	; 0x78
1000307a:	0892      	lsrs	r2, r2, #2
1000307c:	4662      	mov	r2, ip
1000307e:	d201      	bcs.n	10003084 <divmod_u64u64_savestate>
10003080:	e058      	b.n	10003134 <divmod_u64u64_unsafe>
10003082:	46c0      	nop			; (mov r8, r8)

10003084 <divmod_u64u64_savestate>:
10003084:	b5f0      	push	{r4, r5, r6, r7, lr}
10003086:	4e3c      	ldr	r6, [pc, #240]	; (10003178 <udiv0+0x1a>)
10003088:	6fb5      	ldr	r5, [r6, #120]	; 0x78
1000308a:	086d      	lsrs	r5, r5, #1
1000308c:	d3fc      	bcc.n	10003088 <divmod_u64u64_savestate+0x4>
1000308e:	6e34      	ldr	r4, [r6, #96]	; 0x60
10003090:	6e75      	ldr	r5, [r6, #100]	; 0x64
10003092:	6f77      	ldr	r7, [r6, #116]	; 0x74
10003094:	6f36      	ldr	r6, [r6, #112]	; 0x70
10003096:	f000 f84d 	bl	10003134 <divmod_u64u64_unsafe>
1000309a:	4694      	mov	ip, r2
1000309c:	4a36      	ldr	r2, [pc, #216]	; (10003178 <udiv0+0x1a>)
1000309e:	6614      	str	r4, [r2, #96]	; 0x60
100030a0:	6655      	str	r5, [r2, #100]	; 0x64
100030a2:	6757      	str	r7, [r2, #116]	; 0x74
100030a4:	6716      	str	r6, [r2, #112]	; 0x70
100030a6:	4662      	mov	r2, ip
100030a8:	bdf0      	pop	{r4, r5, r6, r7, pc}
100030aa:	46c0      	nop			; (mov r8, r8)

100030ac <divmod_s64s64_unsafe>:
100030ac:	2b00      	cmp	r3, #0
100030ae:	db24      	blt.n	100030fa <l41_1+0x26>
100030b0:	d011      	beq.n	100030d6 <l41_1+0x2>
100030b2:	2900      	cmp	r1, #0
100030b4:	da3e      	bge.n	10003134 <divmod_u64u64_unsafe>
100030b6:	b500      	push	{lr}
100030b8:	43c9      	mvns	r1, r1
100030ba:	4240      	negs	r0, r0
100030bc:	d100      	bne.n	100030c0 <l39_1>
100030be:	3101      	adds	r1, #1

100030c0 <l39_1>:
100030c0:	f000 f838 	bl	10003134 <divmod_u64u64_unsafe>
100030c4:	43c9      	mvns	r1, r1
100030c6:	4240      	negs	r0, r0
100030c8:	d100      	bne.n	100030cc <l40_1>
100030ca:	3101      	adds	r1, #1

100030cc <l40_1>:
100030cc:	43db      	mvns	r3, r3
100030ce:	4252      	negs	r2, r2
100030d0:	d100      	bne.n	100030d4 <l41_1>
100030d2:	3301      	adds	r3, #1

100030d4 <l41_1>:
100030d4:	bd00      	pop	{pc}
100030d6:	2a00      	cmp	r2, #0
100030d8:	d1eb      	bne.n	100030b2 <divmod_s64s64_unsafe+0x6>
100030da:	2800      	cmp	r0, #0
100030dc:	d101      	bne.n	100030e2 <l41_1+0xe>
100030de:	2900      	cmp	r1, #0
100030e0:	d005      	beq.n	100030ee <l41_1+0x1a>
100030e2:	2000      	movs	r0, #0
100030e4:	0fc9      	lsrs	r1, r1, #31
100030e6:	07c9      	lsls	r1, r1, #31
100030e8:	d101      	bne.n	100030ee <l41_1+0x1a>
100030ea:	43c0      	mvns	r0, r0
100030ec:	0841      	lsrs	r1, r0, #1
100030ee:	b500      	push	{lr}
100030f0:	f001 fcf2 	bl	10004ad8 <____aeabi_ldiv0_veneer>
100030f4:	2200      	movs	r2, #0
100030f6:	2300      	movs	r3, #0
100030f8:	bd00      	pop	{pc}
100030fa:	b500      	push	{lr}
100030fc:	2900      	cmp	r1, #0
100030fe:	db0a      	blt.n	10003116 <l43_1+0x2>
10003100:	43db      	mvns	r3, r3
10003102:	4252      	negs	r2, r2
10003104:	d100      	bne.n	10003108 <l42_1>
10003106:	3301      	adds	r3, #1

10003108 <l42_1>:
10003108:	f000 f814 	bl	10003134 <divmod_u64u64_unsafe>
1000310c:	43c9      	mvns	r1, r1
1000310e:	4240      	negs	r0, r0
10003110:	d100      	bne.n	10003114 <l43_1>
10003112:	3101      	adds	r1, #1

10003114 <l43_1>:
10003114:	bd00      	pop	{pc}
10003116:	43c9      	mvns	r1, r1
10003118:	4240      	negs	r0, r0
1000311a:	d100      	bne.n	1000311e <l44_1>
1000311c:	3101      	adds	r1, #1

1000311e <l44_1>:
1000311e:	43db      	mvns	r3, r3
10003120:	4252      	negs	r2, r2
10003122:	d100      	bne.n	10003126 <l45_1>
10003124:	3301      	adds	r3, #1

10003126 <l45_1>:
10003126:	f000 f805 	bl	10003134 <divmod_u64u64_unsafe>
1000312a:	43db      	mvns	r3, r3
1000312c:	4252      	negs	r2, r2
1000312e:	d100      	bne.n	10003132 <l46_1>
10003130:	3301      	adds	r3, #1

10003132 <l46_1>:
10003132:	bd00      	pop	{pc}

10003134 <divmod_u64u64_unsafe>:
10003134:	2900      	cmp	r1, #0
10003136:	d123      	bne.n	10003180 <y64>
10003138:	2b00      	cmp	r3, #0
1000313a:	d118      	bne.n	1000316e <udiv0+0x10>
1000313c:	2a00      	cmp	r2, #0
1000313e:	d00c      	beq.n	1000315a <divmod_u64u64_unsafe+0x26>
10003140:	46bc      	mov	ip, r7
10003142:	4f0d      	ldr	r7, [pc, #52]	; (10003178 <udiv0+0x1a>)
10003144:	6638      	str	r0, [r7, #96]	; 0x60
10003146:	667a      	str	r2, [r7, #100]	; 0x64
10003148:	2100      	movs	r1, #0
1000314a:	2300      	movs	r3, #0
1000314c:	e7ff      	b.n	1000314e <divmod_u64u64_unsafe+0x1a>
1000314e:	e7ff      	b.n	10003150 <divmod_u64u64_unsafe+0x1c>
10003150:	e7ff      	b.n	10003152 <divmod_u64u64_unsafe+0x1e>
10003152:	6f7a      	ldr	r2, [r7, #116]	; 0x74
10003154:	6f38      	ldr	r0, [r7, #112]	; 0x70
10003156:	4667      	mov	r7, ip
10003158:	4770      	bx	lr
1000315a:	2800      	cmp	r0, #0
1000315c:	d001      	beq.n	10003162 <udiv0+0x4>

1000315e <udiv0>:
1000315e:	4807      	ldr	r0, [pc, #28]	; (1000317c <udiv0+0x1e>)
10003160:	0001      	movs	r1, r0
10003162:	b500      	push	{lr}
10003164:	f001 fcb8 	bl	10004ad8 <____aeabi_ldiv0_veneer>
10003168:	2200      	movs	r2, #0
1000316a:	2300      	movs	r3, #0
1000316c:	bd00      	pop	{pc}
1000316e:	0002      	movs	r2, r0
10003170:	000b      	movs	r3, r1
10003172:	2000      	movs	r0, #0
10003174:	2100      	movs	r1, #0
10003176:	4770      	bx	lr
10003178:	d0000000 	.word	0xd0000000
1000317c:	ffffffff 	.word	0xffffffff

10003180 <y64>:
10003180:	2b00      	cmp	r3, #0
10003182:	d000      	beq.n	10003186 <y64+0x6>
10003184:	e0bd      	b.n	10003302 <y64_x48>
10003186:	0c13      	lsrs	r3, r2, #16
10003188:	d126      	bne.n	100031d8 <y64_x32>
1000318a:	2a00      	cmp	r2, #0
1000318c:	d0e7      	beq.n	1000315e <udiv0>
1000318e:	b480      	push	{r7}
10003190:	4f10      	ldr	r7, [pc, #64]	; (100031d4 <y64+0x54>)
10003192:	6639      	str	r1, [r7, #96]	; 0x60
10003194:	667a      	str	r2, [r7, #100]	; 0x64
10003196:	e7ff      	b.n	10003198 <y64+0x18>
10003198:	e7ff      	b.n	1000319a <y64+0x1a>
1000319a:	b430      	push	{r4, r5}
1000319c:	0c04      	lsrs	r4, r0, #16
1000319e:	6f7b      	ldr	r3, [r7, #116]	; 0x74
100031a0:	6f39      	ldr	r1, [r7, #112]	; 0x70
100031a2:	041b      	lsls	r3, r3, #16
100031a4:	4323      	orrs	r3, r4
100031a6:	663b      	str	r3, [r7, #96]	; 0x60
100031a8:	e7ff      	b.n	100031aa <y64+0x2a>
100031aa:	e7ff      	b.n	100031ac <y64+0x2c>
100031ac:	e7ff      	b.n	100031ae <y64+0x2e>
100031ae:	46c0      	nop			; (mov r8, r8)
100031b0:	b284      	uxth	r4, r0
100031b2:	6f7b      	ldr	r3, [r7, #116]	; 0x74
100031b4:	6f3d      	ldr	r5, [r7, #112]	; 0x70
100031b6:	041b      	lsls	r3, r3, #16
100031b8:	4323      	orrs	r3, r4
100031ba:	663b      	str	r3, [r7, #96]	; 0x60
100031bc:	e7ff      	b.n	100031be <y64+0x3e>
100031be:	e7ff      	b.n	100031c0 <y64+0x40>
100031c0:	46c0      	nop			; (mov r8, r8)
100031c2:	2300      	movs	r3, #0
100031c4:	042c      	lsls	r4, r5, #16
100031c6:	0c2d      	lsrs	r5, r5, #16
100031c8:	6f7a      	ldr	r2, [r7, #116]	; 0x74
100031ca:	6f38      	ldr	r0, [r7, #112]	; 0x70
100031cc:	1900      	adds	r0, r0, r4
100031ce:	4169      	adcs	r1, r5
100031d0:	bcb0      	pop	{r4, r5, r7}
100031d2:	4770      	bx	lr
100031d4:	d0000000 	.word	0xd0000000

100031d8 <y64_x32>:
100031d8:	b5f0      	push	{r4, r5, r6, r7, lr}
100031da:	4694      	mov	ip, r2
100031dc:	2500      	movs	r5, #0
100031de:	0e14      	lsrs	r4, r2, #24
100031e0:	d101      	bne.n	100031e6 <y64_x32+0xe>
100031e2:	0212      	lsls	r2, r2, #8
100031e4:	3508      	adds	r5, #8
100031e6:	0f14      	lsrs	r4, r2, #28
100031e8:	d101      	bne.n	100031ee <y64_x32+0x16>
100031ea:	0112      	lsls	r2, r2, #4
100031ec:	3504      	adds	r5, #4
100031ee:	0f94      	lsrs	r4, r2, #30
100031f0:	d101      	bne.n	100031f6 <y64_x32+0x1e>
100031f2:	0092      	lsls	r2, r2, #2
100031f4:	3502      	adds	r5, #2
100031f6:	0fd4      	lsrs	r4, r2, #31
100031f8:	d101      	bne.n	100031fe <y64_x32+0x26>
100031fa:	0052      	lsls	r2, r2, #1
100031fc:	3501      	adds	r5, #1
100031fe:	0bd4      	lsrs	r4, r2, #15
10003200:	3401      	adds	r4, #1
10003202:	4f25      	ldr	r7, [pc, #148]	; (10003298 <y64_x32+0xc0>)
10003204:	667c      	str	r4, [r7, #100]	; 0x64
10003206:	4c25      	ldr	r4, [pc, #148]	; (1000329c <y64_x32+0xc4>)
10003208:	663c      	str	r4, [r7, #96]	; 0x60
1000320a:	0c0e      	lsrs	r6, r1, #16
1000320c:	b293      	uxth	r3, r2
1000320e:	e7ff      	b.n	10003210 <y64_x32+0x38>
10003210:	e7ff      	b.n	10003212 <y64_x32+0x3a>
10003212:	e7ff      	b.n	10003214 <y64_x32+0x3c>
10003214:	6f3c      	ldr	r4, [r7, #112]	; 0x70
10003216:	4366      	muls	r6, r4
10003218:	0c36      	lsrs	r6, r6, #16
1000321a:	0377      	lsls	r7, r6, #13
1000321c:	46be      	mov	lr, r7
1000321e:	4373      	muls	r3, r6
10003220:	0bdf      	lsrs	r7, r3, #15
10003222:	045b      	lsls	r3, r3, #17
10003224:	1ac0      	subs	r0, r0, r3
10003226:	41b9      	sbcs	r1, r7
10003228:	0c13      	lsrs	r3, r2, #16
1000322a:	4373      	muls	r3, r6
1000322c:	18db      	adds	r3, r3, r3
1000322e:	1ac9      	subs	r1, r1, r3
10003230:	08ce      	lsrs	r6, r1, #3
10003232:	4366      	muls	r6, r4
10003234:	0c36      	lsrs	r6, r6, #16
10003236:	44b6      	add	lr, r6
10003238:	b293      	uxth	r3, r2
1000323a:	4373      	muls	r3, r6
1000323c:	0f1f      	lsrs	r7, r3, #28
1000323e:	011b      	lsls	r3, r3, #4
10003240:	1ac0      	subs	r0, r0, r3
10003242:	41b9      	sbcs	r1, r7
10003244:	0c13      	lsrs	r3, r2, #16
10003246:	4373      	muls	r3, r6
10003248:	0b1f      	lsrs	r7, r3, #12
1000324a:	051b      	lsls	r3, r3, #20
1000324c:	1ac0      	subs	r0, r0, r3
1000324e:	41b9      	sbcs	r1, r7
10003250:	0d86      	lsrs	r6, r0, #22
10003252:	028f      	lsls	r7, r1, #10
10003254:	433e      	orrs	r6, r7
10003256:	4366      	muls	r6, r4
10003258:	0c36      	lsrs	r6, r6, #16
1000325a:	2d09      	cmp	r5, #9
1000325c:	db24      	blt.n	100032a8 <last0>
1000325e:	0a52      	lsrs	r2, r2, #9
10003260:	4372      	muls	r2, r6
10003262:	1a80      	subs	r0, r0, r2
10003264:	0377      	lsls	r7, r6, #13
10003266:	0a46      	lsrs	r6, r0, #9
10003268:	4366      	muls	r6, r4
1000326a:	0c36      	lsrs	r6, r6, #16
1000326c:	2316      	movs	r3, #22
1000326e:	1b5b      	subs	r3, r3, r5
10003270:	40de      	lsrs	r6, r3
10003272:	40df      	lsrs	r7, r3
10003274:	19bf      	adds	r7, r7, r6
10003276:	4664      	mov	r4, ip
10003278:	4366      	muls	r6, r4
1000327a:	1b82      	subs	r2, r0, r6
1000327c:	4670      	mov	r0, lr
1000327e:	3504      	adds	r5, #4
10003280:	3306      	adds	r3, #6
10003282:	0001      	movs	r1, r0
10003284:	40d9      	lsrs	r1, r3
10003286:	40a8      	lsls	r0, r5
10003288:	19c0      	adds	r0, r0, r7
1000328a:	d300      	bcc.n	1000328e <y64_x32+0xb6>
1000328c:	3101      	adds	r1, #1
1000328e:	42a2      	cmp	r2, r4
10003290:	d206      	bcs.n	100032a0 <y64_x32+0xc8>
10003292:	2300      	movs	r3, #0
10003294:	bdf0      	pop	{r4, r5, r6, r7, pc}
10003296:	0000      	.short	0x0000
10003298:	d0000000 	.word	0xd0000000
1000329c:	ffffffff 	.word	0xffffffff
100032a0:	1b12      	subs	r2, r2, r4
100032a2:	3001      	adds	r0, #1
100032a4:	d3f3      	bcc.n	1000328e <y64_x32+0xb6>
100032a6:	e7f1      	b.n	1000328c <y64_x32+0xb4>

100032a8 <last0>:
100032a8:	2709      	movs	r7, #9
100032aa:	1b7f      	subs	r7, r7, r5
100032ac:	40fe      	lsrs	r6, r7
100032ae:	4664      	mov	r4, ip
100032b0:	b2a2      	uxth	r2, r4
100032b2:	4372      	muls	r2, r6
100032b4:	1a80      	subs	r0, r0, r2
100032b6:	d200      	bcs.n	100032ba <last0+0x12>
100032b8:	3901      	subs	r1, #1
100032ba:	0c22      	lsrs	r2, r4, #16
100032bc:	4372      	muls	r2, r6
100032be:	0c13      	lsrs	r3, r2, #16
100032c0:	0412      	lsls	r2, r2, #16
100032c2:	1a82      	subs	r2, r0, r2
100032c4:	4199      	sbcs	r1, r3
100032c6:	000b      	movs	r3, r1
100032c8:	4670      	mov	r0, lr
100032ca:	3504      	adds	r5, #4
100032cc:	3713      	adds	r7, #19
100032ce:	0001      	movs	r1, r0
100032d0:	40f9      	lsrs	r1, r7
100032d2:	40a8      	lsls	r0, r5
100032d4:	1980      	adds	r0, r0, r6
100032d6:	d300      	bcc.n	100032da <last0+0x32>
100032d8:	3101      	adds	r1, #1
100032da:	2b00      	cmp	r3, #0
100032dc:	d102      	bne.n	100032e4 <last0+0x3c>
100032de:	42a2      	cmp	r2, r4
100032e0:	d20a      	bcs.n	100032f8 <last0+0x50>
100032e2:	bdf0      	pop	{r4, r5, r6, r7, pc}
100032e4:	3001      	adds	r0, #1
100032e6:	d300      	bcc.n	100032ea <last0+0x42>
100032e8:	3101      	adds	r1, #1
100032ea:	1b12      	subs	r2, r2, r4
100032ec:	d2fa      	bcs.n	100032e4 <last0+0x3c>
100032ee:	3b01      	subs	r3, #1
100032f0:	d1f8      	bne.n	100032e4 <last0+0x3c>
100032f2:	42a2      	cmp	r2, r4
100032f4:	d200      	bcs.n	100032f8 <last0+0x50>
100032f6:	bdf0      	pop	{r4, r5, r6, r7, pc}
100032f8:	3001      	adds	r0, #1
100032fa:	d300      	bcc.n	100032fe <last0+0x56>
100032fc:	3101      	adds	r1, #1
100032fe:	1b12      	subs	r2, r2, r4
10003300:	e7f7      	b.n	100032f2 <last0+0x4a>

10003302 <y64_x48>:
10003302:	b5f0      	push	{r4, r5, r6, r7, lr}
10003304:	0c1c      	lsrs	r4, r3, #16
10003306:	d000      	beq.n	1000330a <y64_x48+0x8>
10003308:	e080      	b.n	1000340c <y64_x64>
1000330a:	b40c      	push	{r2, r3}
1000330c:	2500      	movs	r5, #0
1000330e:	0a1c      	lsrs	r4, r3, #8
10003310:	d104      	bne.n	1000331c <y64_x48+0x1a>
10003312:	021b      	lsls	r3, r3, #8
10003314:	0e16      	lsrs	r6, r2, #24
10003316:	4333      	orrs	r3, r6
10003318:	0212      	lsls	r2, r2, #8
1000331a:	3508      	adds	r5, #8
1000331c:	0b1c      	lsrs	r4, r3, #12
1000331e:	d104      	bne.n	1000332a <y64_x48+0x28>
10003320:	011b      	lsls	r3, r3, #4
10003322:	0f16      	lsrs	r6, r2, #28
10003324:	4333      	orrs	r3, r6
10003326:	0112      	lsls	r2, r2, #4
10003328:	3504      	adds	r5, #4
1000332a:	0b9c      	lsrs	r4, r3, #14
1000332c:	d104      	bne.n	10003338 <y64_x48+0x36>
1000332e:	009b      	lsls	r3, r3, #2
10003330:	0f96      	lsrs	r6, r2, #30
10003332:	4333      	orrs	r3, r6
10003334:	0092      	lsls	r2, r2, #2
10003336:	3502      	adds	r5, #2
10003338:	0bdc      	lsrs	r4, r3, #15
1000333a:	d102      	bne.n	10003342 <y64_x48+0x40>
1000333c:	1892      	adds	r2, r2, r2
1000333e:	415b      	adcs	r3, r3
10003340:	3501      	adds	r5, #1
10003342:	001c      	movs	r4, r3
10003344:	1897      	adds	r7, r2, r2
10003346:	4164      	adcs	r4, r4
10003348:	3401      	adds	r4, #1
1000334a:	4f46      	ldr	r7, [pc, #280]	; (10003464 <y64_x64+0x58>)
1000334c:	667c      	str	r4, [r7, #100]	; 0x64
1000334e:	4c46      	ldr	r4, [pc, #280]	; (10003468 <y64_x64+0x5c>)
10003350:	663c      	str	r4, [r7, #96]	; 0x60
10003352:	0c0e      	lsrs	r6, r1, #16
10003354:	e7ff      	b.n	10003356 <y64_x48+0x54>
10003356:	e7ff      	b.n	10003358 <y64_x48+0x56>
10003358:	e7ff      	b.n	1000335a <y64_x48+0x58>
1000335a:	46c0      	nop			; (mov r8, r8)
1000335c:	6f3c      	ldr	r4, [r7, #112]	; 0x70
1000335e:	4366      	muls	r6, r4
10003360:	0c36      	lsrs	r6, r6, #16
10003362:	0377      	lsls	r7, r6, #13
10003364:	46be      	mov	lr, r7
10003366:	b297      	uxth	r7, r2
10003368:	4377      	muls	r7, r6
1000336a:	1bc0      	subs	r0, r0, r7
1000336c:	d200      	bcs.n	10003370 <y64_x48+0x6e>
1000336e:	3901      	subs	r1, #1
10003370:	1bc0      	subs	r0, r0, r7
10003372:	d200      	bcs.n	10003376 <y64_x48+0x74>
10003374:	3901      	subs	r1, #1
10003376:	b29f      	uxth	r7, r3
10003378:	4377      	muls	r7, r6
1000337a:	1bc9      	subs	r1, r1, r7
1000337c:	1bc9      	subs	r1, r1, r7
1000337e:	0c17      	lsrs	r7, r2, #16
10003380:	4377      	muls	r7, r6
10003382:	047e      	lsls	r6, r7, #17
10003384:	0bff      	lsrs	r7, r7, #15
10003386:	1b80      	subs	r0, r0, r6
10003388:	41b9      	sbcs	r1, r7
1000338a:	08ce      	lsrs	r6, r1, #3
1000338c:	4366      	muls	r6, r4
1000338e:	0c36      	lsrs	r6, r6, #16
10003390:	2d0c      	cmp	r5, #12
10003392:	db33      	blt.n	100033fc <last1>
10003394:	44b6      	add	lr, r6
10003396:	0b12      	lsrs	r2, r2, #12
10003398:	051f      	lsls	r7, r3, #20
1000339a:	433a      	orrs	r2, r7
1000339c:	0b1b      	lsrs	r3, r3, #12
1000339e:	b297      	uxth	r7, r2
100033a0:	4377      	muls	r7, r6
100033a2:	1bc0      	subs	r0, r0, r7
100033a4:	d200      	bcs.n	100033a8 <y64_x48+0xa6>
100033a6:	3901      	subs	r1, #1
100033a8:	b29f      	uxth	r7, r3
100033aa:	4377      	muls	r7, r6
100033ac:	1bc9      	subs	r1, r1, r7
100033ae:	0c17      	lsrs	r7, r2, #16
100033b0:	4377      	muls	r7, r6
100033b2:	043e      	lsls	r6, r7, #16
100033b4:	0c3f      	lsrs	r7, r7, #16
100033b6:	1b80      	subs	r0, r0, r6
100033b8:	41b9      	sbcs	r1, r7
100033ba:	0d86      	lsrs	r6, r0, #22
100033bc:	028f      	lsls	r7, r1, #10
100033be:	433e      	orrs	r6, r7
100033c0:	4366      	muls	r6, r4
100033c2:	2729      	movs	r7, #41	; 0x29
100033c4:	1b7f      	subs	r7, r7, r5
100033c6:	40fe      	lsrs	r6, r7
100033c8:	3d0c      	subs	r5, #12
100033ca:	4677      	mov	r7, lr
100033cc:	40af      	lsls	r7, r5
100033ce:	19bf      	adds	r7, r7, r6
100033d0:	bc30      	pop	{r4, r5}
100033d2:	b2a2      	uxth	r2, r4
100033d4:	b2ab      	uxth	r3, r5
100033d6:	4372      	muls	r2, r6
100033d8:	4373      	muls	r3, r6
100033da:	1a80      	subs	r0, r0, r2
100033dc:	4199      	sbcs	r1, r3
100033de:	0c22      	lsrs	r2, r4, #16
100033e0:	4372      	muls	r2, r6
100033e2:	0c13      	lsrs	r3, r2, #16
100033e4:	0412      	lsls	r2, r2, #16
100033e6:	1a80      	subs	r0, r0, r2
100033e8:	4199      	sbcs	r1, r3
100033ea:	0002      	movs	r2, r0
100033ec:	000b      	movs	r3, r1
100033ee:	3701      	adds	r7, #1
100033f0:	1b00      	subs	r0, r0, r4
100033f2:	41a9      	sbcs	r1, r5
100033f4:	d2f9      	bcs.n	100033ea <y64_x48+0xe8>
100033f6:	1e78      	subs	r0, r7, #1
100033f8:	2100      	movs	r1, #0
100033fa:	bdf0      	pop	{r4, r5, r6, r7, pc}

100033fc <last1>:
100033fc:	270c      	movs	r7, #12
100033fe:	1b7f      	subs	r7, r7, r5
10003400:	40fe      	lsrs	r6, r7
10003402:	4677      	mov	r7, lr
10003404:	0b7f      	lsrs	r7, r7, #13
10003406:	40af      	lsls	r7, r5
10003408:	19ff      	adds	r7, r7, r7
1000340a:	e7e0      	b.n	100033ce <y64_x48+0xcc>

1000340c <y64_x64>:
1000340c:	2400      	movs	r4, #0
1000340e:	1c5d      	adds	r5, r3, #1
10003410:	d007      	beq.n	10003422 <y64_x64+0x16>
10003412:	4f14      	ldr	r7, [pc, #80]	; (10003464 <y64_x64+0x58>)
10003414:	667d      	str	r5, [r7, #100]	; 0x64
10003416:	6639      	str	r1, [r7, #96]	; 0x60
10003418:	e7ff      	b.n	1000341a <y64_x64+0xe>
1000341a:	e7ff      	b.n	1000341c <y64_x64+0x10>
1000341c:	e7ff      	b.n	1000341e <y64_x64+0x12>
1000341e:	e7ff      	b.n	10003420 <y64_x64+0x14>
10003420:	6f3c      	ldr	r4, [r7, #112]	; 0x70
10003422:	b295      	uxth	r5, r2
10003424:	b29e      	uxth	r6, r3
10003426:	4365      	muls	r5, r4
10003428:	4366      	muls	r6, r4
1000342a:	1b40      	subs	r0, r0, r5
1000342c:	41b1      	sbcs	r1, r6
1000342e:	0c15      	lsrs	r5, r2, #16
10003430:	0c1e      	lsrs	r6, r3, #16
10003432:	4365      	muls	r5, r4
10003434:	4366      	muls	r6, r4
10003436:	0436      	lsls	r6, r6, #16
10003438:	0c2f      	lsrs	r7, r5, #16
1000343a:	433e      	orrs	r6, r7
1000343c:	042d      	lsls	r5, r5, #16
1000343e:	1b40      	subs	r0, r0, r5
10003440:	41b1      	sbcs	r1, r6
10003442:	4299      	cmp	r1, r3
10003444:	d204      	bcs.n	10003450 <y64_x64+0x44>
10003446:	0002      	movs	r2, r0
10003448:	000b      	movs	r3, r1
1000344a:	0020      	movs	r0, r4
1000344c:	2100      	movs	r1, #0
1000344e:	bdf0      	pop	{r4, r5, r6, r7, pc}
10003450:	d101      	bne.n	10003456 <y64_x64+0x4a>
10003452:	4290      	cmp	r0, r2
10003454:	d3f7      	bcc.n	10003446 <y64_x64+0x3a>
10003456:	1a80      	subs	r0, r0, r2
10003458:	4199      	sbcs	r1, r3
1000345a:	3401      	adds	r4, #1
1000345c:	4299      	cmp	r1, r3
1000345e:	d3f2      	bcc.n	10003446 <y64_x64+0x3a>
10003460:	e7f6      	b.n	10003450 <y64_x64+0x44>
10003462:	0000      	.short	0x0000
10003464:	d0000000 	.word	0xd0000000
10003468:	ffffffff 	.word	0xffffffff

1000346c <__wrap___aeabi_drsub>:
1000346c:	4048      	eors	r0, r1
1000346e:	4041      	eors	r1, r0
10003470:	4048      	eors	r0, r1

10003472 <__wrap___aeabi_dsub>:
10003472:	b418      	push	{r3, r4}
10003474:	4b11      	ldr	r3, [pc, #68]	; (100034bc <__wrap___aeabi_dmul+0x14>)
10003476:	685b      	ldr	r3, [r3, #4]
10003478:	46fc      	mov	ip, pc
1000347a:	9301      	str	r3, [sp, #4]
1000347c:	bd08      	pop	{r3, pc}
1000347e:	df04      	.short	0xdf04
10003480:	100036f7 	.word	0x100036f7

10003484 <__wrap___aeabi_dadd>:
10003484:	b418      	push	{r3, r4}
10003486:	4b0d      	ldr	r3, [pc, #52]	; (100034bc <__wrap___aeabi_dmul+0x14>)
10003488:	681b      	ldr	r3, [r3, #0]
1000348a:	46fc      	mov	ip, pc
1000348c:	9301      	str	r3, [sp, #4]
1000348e:	bd08      	pop	{r3, pc}
10003490:	3701df00 	.word	0x3701df00
10003494:	1000      	.short	0x1000

10003496 <__wrap___aeabi_ddiv>:
10003496:	b418      	push	{r3, r4}
10003498:	4b08      	ldr	r3, [pc, #32]	; (100034bc <__wrap___aeabi_dmul+0x14>)
1000349a:	68db      	ldr	r3, [r3, #12]
1000349c:	46fc      	mov	ip, pc
1000349e:	9301      	str	r3, [sp, #4]
100034a0:	bd08      	pop	{r3, pc}
100034a2:	df0c      	.short	0xdf0c
100034a4:	100039b9 	.word	0x100039b9

100034a8 <__wrap___aeabi_dmul>:
100034a8:	b418      	push	{r3, r4}
100034aa:	4b04      	ldr	r3, [pc, #16]	; (100034bc <__wrap___aeabi_dmul+0x14>)
100034ac:	689b      	ldr	r3, [r3, #8]
100034ae:	46fc      	mov	ip, pc
100034b0:	9301      	str	r3, [sp, #4]
100034b2:	bd08      	pop	{r3, pc}
100034b4:	385ddf08 	.word	0x385ddf08
100034b8:	00001000 	.word	0x00001000
100034bc:	20000bb8 	.word	0x20000bb8

100034c0 <__wrap___aeabi_cdrcmple>:
100034c0:	b5ff      	push	{r0, r1, r2, r3, r4, r5, r6, r7, lr}
100034c2:	4050      	eors	r0, r2
100034c4:	4042      	eors	r2, r0
100034c6:	4050      	eors	r0, r2
100034c8:	4059      	eors	r1, r3
100034ca:	404b      	eors	r3, r1
100034cc:	4059      	eors	r1, r3
100034ce:	e000      	b.n	100034d2 <__aeabi_dfcmple_guts>

100034d0 <__wrap___aeabi_cdcmpeq>:
100034d0:	b5ff      	push	{r0, r1, r2, r3, r4, r5, r6, r7, lr}

100034d2 <__aeabi_dfcmple_guts>:
100034d2:	4f15      	ldr	r7, [pc, #84]	; (10003528 <__aeabi_dfcmple_guts+0x56>)
100034d4:	004c      	lsls	r4, r1, #1
100034d6:	0d64      	lsrs	r4, r4, #21
100034d8:	d003      	beq.n	100034e2 <__aeabi_dfcmple_guts+0x10>
100034da:	42bc      	cmp	r4, r7
100034dc:	d104      	bne.n	100034e8 <__aeabi_dfcmple_guts+0x16>
100034de:	030c      	lsls	r4, r1, #12
100034e0:	d814      	bhi.n	1000350c <__aeabi_dfcmple_guts+0x3a>
100034e2:	2000      	movs	r0, #0
100034e4:	0d09      	lsrs	r1, r1, #20
100034e6:	0509      	lsls	r1, r1, #20
100034e8:	005c      	lsls	r4, r3, #1
100034ea:	0d64      	lsrs	r4, r4, #21
100034ec:	d003      	beq.n	100034f6 <__aeabi_dfcmple_guts+0x24>
100034ee:	42bc      	cmp	r4, r7
100034f0:	d104      	bne.n	100034fc <__aeabi_dfcmple_guts+0x2a>
100034f2:	031c      	lsls	r4, r3, #12
100034f4:	d80a      	bhi.n	1000350c <__aeabi_dfcmple_guts+0x3a>
100034f6:	2200      	movs	r2, #0
100034f8:	0d1b      	lsrs	r3, r3, #20
100034fa:	051b      	lsls	r3, r3, #20
100034fc:	2601      	movs	r6, #1
100034fe:	404b      	eors	r3, r1
10003500:	d409      	bmi.n	10003516 <__aeabi_dfcmple_guts+0x44>
10003502:	404b      	eors	r3, r1
10003504:	d503      	bpl.n	1000350e <__aeabi_dfcmple_guts+0x3c>
10003506:	428b      	cmp	r3, r1
10003508:	d100      	bne.n	1000350c <__aeabi_dfcmple_guts+0x3a>
1000350a:	4282      	cmp	r2, r0
1000350c:	bdff      	pop	{r0, r1, r2, r3, r4, r5, r6, r7, pc}
1000350e:	4299      	cmp	r1, r3
10003510:	d1fc      	bne.n	1000350c <__aeabi_dfcmple_guts+0x3a>
10003512:	4290      	cmp	r0, r2
10003514:	bdff      	pop	{r0, r1, r2, r3, r4, r5, r6, r7, pc}
10003516:	430b      	orrs	r3, r1
10003518:	18db      	adds	r3, r3, r3
1000351a:	4303      	orrs	r3, r0
1000351c:	4313      	orrs	r3, r2
1000351e:	d0f5      	beq.n	1000350c <__aeabi_dfcmple_guts+0x3a>
10003520:	43c9      	mvns	r1, r1
10003522:	1849      	adds	r1, r1, r1
10003524:	bdff      	pop	{r0, r1, r2, r3, r4, r5, r6, r7, pc}
10003526:	0000      	.short	0x0000
10003528:	000007ff 	.word	0x000007ff

1000352c <__wrap___aeabi_dcmplt>:
1000352c:	b500      	push	{lr}
1000352e:	f7ff ffcf 	bl	100034d0 <__wrap___aeabi_cdcmpeq>
10003532:	4180      	sbcs	r0, r0
10003534:	bd00      	pop	{pc}
10003536:	46c0      	nop			; (mov r8, r8)

10003538 <__wrap___aeabi_dcmple>:
10003538:	b500      	push	{lr}
1000353a:	f7ff ffc9 	bl	100034d0 <__wrap___aeabi_cdcmpeq>
1000353e:	d901      	bls.n	10003544 <__wrap___aeabi_dcmple+0xc>
10003540:	2000      	movs	r0, #0
10003542:	bd00      	pop	{pc}
10003544:	2001      	movs	r0, #1
10003546:	bd00      	pop	{pc}

10003548 <__wrap___aeabi_dcmpge>:
10003548:	b500      	push	{lr}
1000354a:	f7ff ffb9 	bl	100034c0 <__wrap___aeabi_cdrcmple>
1000354e:	d901      	bls.n	10003554 <__wrap___aeabi_dcmpge+0xc>
10003550:	2000      	movs	r0, #0
10003552:	bd00      	pop	{pc}
10003554:	2001      	movs	r0, #1
10003556:	bd00      	pop	{pc}

10003558 <__wrap___aeabi_dcmpgt>:
10003558:	b500      	push	{lr}
1000355a:	f7ff ffb1 	bl	100034c0 <__wrap___aeabi_cdrcmple>
1000355e:	4180      	sbcs	r0, r0
10003560:	bd00      	pop	{pc}

10003562 <__wrap___aeabi_dcmpun>:
10003562:	2001      	movs	r0, #1
10003564:	0540      	lsls	r0, r0, #21
10003566:	004a      	lsls	r2, r1, #1
10003568:	1812      	adds	r2, r2, r0
1000356a:	d804      	bhi.n	10003576 <__wrap___aeabi_dcmpun+0x14>
1000356c:	005a      	lsls	r2, r3, #1
1000356e:	1812      	adds	r2, r2, r0
10003570:	d801      	bhi.n	10003576 <__wrap___aeabi_dcmpun+0x14>
10003572:	2000      	movs	r0, #0
10003574:	4770      	bx	lr
10003576:	2001      	movs	r0, #1
10003578:	4770      	bx	lr
1000357a:	2000      	movs	r0, #0
1000357c:	4770      	bx	lr
	...

10003580 <__wrap___aeabi_ui2d>:
10003580:	2100      	movs	r1, #0
10003582:	2800      	cmp	r0, #0
10003584:	d105      	bne.n	10003592 <__wrap___aeabi_i2d+0xa>
10003586:	4770      	bx	lr

10003588 <__wrap___aeabi_i2d>:
10003588:	17c1      	asrs	r1, r0, #31
1000358a:	4048      	eors	r0, r1
1000358c:	1a40      	subs	r0, r0, r1
1000358e:	d0fa      	beq.n	10003586 <__wrap___aeabi_ui2d+0x6>
10003590:	07c9      	lsls	r1, r1, #31
10003592:	b513      	push	{r0, r1, r4, lr}
10003594:	4b06      	ldr	r3, [pc, #24]	; (100035b0 <__wrap___aeabi_i2d+0x28>)
10003596:	681b      	ldr	r3, [r3, #0]
10003598:	4798      	blx	r3
1000359a:	bc0c      	pop	{r2, r3}
1000359c:	1c44      	adds	r4, r0, #1
1000359e:	40a2      	lsls	r2, r4
100035a0:	0510      	lsls	r0, r2, #20
100035a2:	0b12      	lsrs	r2, r2, #12
100035a4:	4903      	ldr	r1, [pc, #12]	; (100035b4 <__wrap___aeabi_i2d+0x2c>)
100035a6:	1b09      	subs	r1, r1, r4
100035a8:	0509      	lsls	r1, r1, #20
100035aa:	4319      	orrs	r1, r3
100035ac:	4311      	orrs	r1, r2
100035ae:	bd10      	pop	{r4, pc}
100035b0:	20000db8 	.word	0x20000db8
100035b4:	0000041f 	.word	0x0000041f

100035b8 <__wrap___aeabi_d2iz>:
100035b8:	b510      	push	{r4, lr}
100035ba:	004c      	lsls	r4, r1, #1
100035bc:	0d62      	lsrs	r2, r4, #21
100035be:	2380      	movs	r3, #128	; 0x80
100035c0:	18d2      	adds	r2, r2, r3
100035c2:	00db      	lsls	r3, r3, #3
100035c4:	1ad2      	subs	r2, r2, r3
100035c6:	055b      	lsls	r3, r3, #21
100035c8:	2a7e      	cmp	r2, #126	; 0x7e
100035ca:	dd10      	ble.n	100035ee <__wrap___aeabi_d2iz+0x36>
100035cc:	3a9e      	subs	r2, #158	; 0x9e
100035ce:	da13      	bge.n	100035f8 <__wrap___aeabi_d2iz+0x40>
100035d0:	17cc      	asrs	r4, r1, #31
100035d2:	0309      	lsls	r1, r1, #12
100035d4:	0849      	lsrs	r1, r1, #1
100035d6:	4319      	orrs	r1, r3
100035d8:	4252      	negs	r2, r2
100035da:	40d1      	lsrs	r1, r2
100035dc:	0064      	lsls	r4, r4, #1
100035de:	3401      	adds	r4, #1
100035e0:	3215      	adds	r2, #21
100035e2:	2a20      	cmp	r2, #32
100035e4:	da05      	bge.n	100035f2 <__wrap___aeabi_d2iz+0x3a>
100035e6:	40d0      	lsrs	r0, r2
100035e8:	4308      	orrs	r0, r1
100035ea:	4360      	muls	r0, r4
100035ec:	bd10      	pop	{r4, pc}
100035ee:	2000      	movs	r0, #0
100035f0:	bd10      	pop	{r4, pc}
100035f2:	4608      	mov	r0, r1
100035f4:	4360      	muls	r0, r4
100035f6:	bd10      	pop	{r4, pc}
100035f8:	0fc8      	lsrs	r0, r1, #31
100035fa:	18c0      	adds	r0, r0, r3
100035fc:	3801      	subs	r0, #1
100035fe:	bd10      	pop	{r4, pc}

10003600 <__wrap___aeabi_d2uiz>:
10003600:	b418      	push	{r3, r4}
10003602:	4b04      	ldr	r3, [pc, #16]	; (10003614 <__wrap___aeabi_d2uiz+0x14>)
10003604:	6a5b      	ldr	r3, [r3, #36]	; 0x24
10003606:	46fc      	mov	ip, pc
10003608:	9301      	str	r3, [sp, #4]
1000360a:	bd08      	pop	{r3, pc}
1000360c:	3be5df24 	.word	0x3be5df24
10003610:	00001000 	.word	0x00001000
10003614:	20000bb8 	.word	0x20000bb8

10003618 <__aeabi_double_init>:
10003618:	2313      	movs	r3, #19
1000361a:	b570      	push	{r4, r5, r6, lr}
1000361c:	781d      	ldrb	r5, [r3, #0]
1000361e:	2d01      	cmp	r5, #1
10003620:	d010      	beq.n	10003644 <__aeabi_double_init+0x2c>
10003622:	dd0b      	ble.n	1000363c <__aeabi_double_init+0x24>
10003624:	4824      	ldr	r0, [pc, #144]	; (100036b8 <__aeabi_double_init+0xa0>)
10003626:	f7ff fc8d 	bl	10002f44 <rom_data_lookup>
1000362a:	4c24      	ldr	r4, [pc, #144]	; (100036bc <__aeabi_double_init+0xa4>)
1000362c:	0001      	movs	r1, r0
1000362e:	2280      	movs	r2, #128	; 0x80
10003630:	0020      	movs	r0, r4
10003632:	f000 fb91 	bl	10003d58 <__wrap___aeabi_memcpy>
10003636:	2d02      	cmp	r5, #2
10003638:	d001      	beq.n	1000363e <__aeabi_double_init+0x26>
1000363a:	bd70      	pop	{r4, r5, r6, pc}
1000363c:	4c1f      	ldr	r4, [pc, #124]	; (100036bc <__aeabi_double_init+0xa4>)
1000363e:	4a20      	ldr	r2, [pc, #128]	; (100036c0 <__aeabi_double_init+0xa8>)
10003640:	64a2      	str	r2, [r4, #72]	; 0x48
10003642:	e7fa      	b.n	1000363a <__aeabi_double_init+0x22>
10003644:	002e      	movs	r6, r5
10003646:	4c1d      	ldr	r4, [pc, #116]	; (100036bc <__aeabi_double_init+0xa4>)
10003648:	4a1d      	ldr	r2, [pc, #116]	; (100036c0 <__aeabi_double_init+0xa8>)
1000364a:	08a3      	lsrs	r3, r4, #2
1000364c:	425b      	negs	r3, r3
1000364e:	401e      	ands	r6, r3
10003650:	421d      	tst	r5, r3
10003652:	d02f      	beq.n	100036b4 <__aeabi_double_init+0x9c>
10003654:	0033      	movs	r3, r6
10003656:	6022      	str	r2, [r4, #0]
10003658:	2020      	movs	r0, #32
1000365a:	00b1      	lsls	r1, r6, #2
1000365c:	1861      	adds	r1, r4, r1
1000365e:	1b80      	subs	r0, r0, r6
10003660:	600a      	str	r2, [r1, #0]
10003662:	604a      	str	r2, [r1, #4]
10003664:	608a      	str	r2, [r1, #8]
10003666:	60ca      	str	r2, [r1, #12]
10003668:	610a      	str	r2, [r1, #16]
1000366a:	614a      	str	r2, [r1, #20]
1000366c:	618a      	str	r2, [r1, #24]
1000366e:	61ca      	str	r2, [r1, #28]
10003670:	620a      	str	r2, [r1, #32]
10003672:	624a      	str	r2, [r1, #36]	; 0x24
10003674:	628a      	str	r2, [r1, #40]	; 0x28
10003676:	62ca      	str	r2, [r1, #44]	; 0x2c
10003678:	630a      	str	r2, [r1, #48]	; 0x30
1000367a:	634a      	str	r2, [r1, #52]	; 0x34
1000367c:	638a      	str	r2, [r1, #56]	; 0x38
1000367e:	63ca      	str	r2, [r1, #60]	; 0x3c
10003680:	640a      	str	r2, [r1, #64]	; 0x40
10003682:	644a      	str	r2, [r1, #68]	; 0x44
10003684:	648a      	str	r2, [r1, #72]	; 0x48
10003686:	64ca      	str	r2, [r1, #76]	; 0x4c
10003688:	650a      	str	r2, [r1, #80]	; 0x50
1000368a:	654a      	str	r2, [r1, #84]	; 0x54
1000368c:	658a      	str	r2, [r1, #88]	; 0x58
1000368e:	65ca      	str	r2, [r1, #92]	; 0x5c
10003690:	660a      	str	r2, [r1, #96]	; 0x60
10003692:	664a      	str	r2, [r1, #100]	; 0x64
10003694:	668a      	str	r2, [r1, #104]	; 0x68
10003696:	66ca      	str	r2, [r1, #108]	; 0x6c
10003698:	670a      	str	r2, [r1, #112]	; 0x70
1000369a:	674a      	str	r2, [r1, #116]	; 0x74
1000369c:	0840      	lsrs	r0, r0, #1
1000369e:	2810      	cmp	r0, #16
100036a0:	d103      	bne.n	100036aa <__aeabi_double_init+0x92>
100036a2:	678a      	str	r2, [r1, #120]	; 0x78
100036a4:	67ca      	str	r2, [r1, #124]	; 0x7c
100036a6:	64a2      	str	r2, [r4, #72]	; 0x48
100036a8:	e7c7      	b.n	1000363a <__aeabi_double_init+0x22>
100036aa:	331e      	adds	r3, #30
100036ac:	009b      	lsls	r3, r3, #2
100036ae:	50e2      	str	r2, [r4, r3]
100036b0:	64a2      	str	r2, [r4, #72]	; 0x48
100036b2:	e7c2      	b.n	1000363a <__aeabi_double_init+0x22>
100036b4:	2300      	movs	r3, #0
100036b6:	e7cf      	b.n	10003658 <__aeabi_double_init+0x40>
100036b8:	00004453 	.word	0x00004453
100036bc:	20000bb8 	.word	0x20000bb8
100036c0:	100036c5 	.word	0x100036c5

100036c4 <double_table_shim_on_use_helper>:
100036c4:	b507      	push	{r0, r1, r2, lr}
100036c6:	4660      	mov	r0, ip
100036c8:	8801      	ldrh	r1, [r0, #0]
100036ca:	0a0a      	lsrs	r2, r1, #8
100036cc:	3002      	adds	r0, #2
100036ce:	2adf      	cmp	r2, #223	; 0xdf
100036d0:	d1fa      	bne.n	100036c8 <double_table_shim_on_use_helper+0x4>
100036d2:	b2c9      	uxtb	r1, r1
100036d4:	0882      	lsrs	r2, r0, #2
100036d6:	d304      	bcc.n	100036e2 <double_table_shim_on_use_helper+0x1e>
100036d8:	8802      	ldrh	r2, [r0, #0]
100036da:	8840      	ldrh	r0, [r0, #2]
100036dc:	0400      	lsls	r0, r0, #16
100036de:	4310      	orrs	r0, r2
100036e0:	e000      	b.n	100036e4 <double_table_shim_on_use_helper+0x20>
100036e2:	6800      	ldr	r0, [r0, #0]
100036e4:	4a01      	ldr	r2, [pc, #4]	; (100036ec <double_table_shim_on_use_helper+0x28>)
100036e6:	5050      	str	r0, [r2, r1]
100036e8:	9003      	str	r0, [sp, #12]
100036ea:	bd07      	pop	{r0, r1, r2, pc}
100036ec:	20000bb8 	.word	0x20000bb8

100036f0 <drsub_shim>:
100036f0:	b40f      	push	{r0, r1, r2, r3}
100036f2:	bc03      	pop	{r0, r1}
100036f4:	bc0c      	pop	{r2, r3}

100036f6 <dsub_shim>:
100036f6:	b5f0      	push	{r4, r5, r6, r7, lr}
100036f8:	2401      	movs	r4, #1
100036fa:	07e4      	lsls	r4, r4, #31
100036fc:	4063      	eors	r3, r4
100036fe:	e000      	b.n	10003702 <da_entry>

10003700 <dadd_shim>:
10003700:	b5f0      	push	{r4, r5, r6, r7, lr}

10003702 <da_entry>:
10003702:	0d0c      	lsrs	r4, r1, #20
10003704:	0fcf      	lsrs	r7, r1, #31
10003706:	1e66      	subs	r6, r4, #1
10003708:	0536      	lsls	r6, r6, #20
1000370a:	1b89      	subs	r1, r1, r6
1000370c:	0564      	lsls	r4, r4, #21
1000370e:	d303      	bcc.n	10003718 <l7_1>
10003710:	43c9      	mvns	r1, r1
10003712:	4240      	negs	r0, r0
10003714:	d300      	bcc.n	10003718 <l7_1>
10003716:	3101      	adds	r1, #1

10003718 <l7_1>:
10003718:	0d64      	lsrs	r4, r4, #21
1000371a:	d003      	beq.n	10003724 <l7_2>
1000371c:	1c66      	adds	r6, r4, #1
1000371e:	0af6      	lsrs	r6, r6, #11
10003720:	d007      	beq.n	10003732 <l7_3>
10003722:	1be4      	subs	r4, r4, r7

10003724 <l7_2>:
10003724:	2000      	movs	r0, #0
10003726:	007f      	lsls	r7, r7, #1
10003728:	1c79      	adds	r1, r7, #1
1000372a:	0789      	lsls	r1, r1, #30
1000372c:	1289      	asrs	r1, r1, #10
1000372e:	3c80      	subs	r4, #128	; 0x80
10003730:	0324      	lsls	r4, r4, #12

10003732 <l7_3>:
10003732:	0d1d      	lsrs	r5, r3, #20
10003734:	0fdf      	lsrs	r7, r3, #31
10003736:	1e6e      	subs	r6, r5, #1
10003738:	0536      	lsls	r6, r6, #20
1000373a:	1b9b      	subs	r3, r3, r6
1000373c:	056d      	lsls	r5, r5, #21
1000373e:	d303      	bcc.n	10003748 <l8_1>
10003740:	43db      	mvns	r3, r3
10003742:	4252      	negs	r2, r2
10003744:	d300      	bcc.n	10003748 <l8_1>
10003746:	3301      	adds	r3, #1

10003748 <l8_1>:
10003748:	0d6d      	lsrs	r5, r5, #21
1000374a:	d003      	beq.n	10003754 <l8_2>
1000374c:	1c6e      	adds	r6, r5, #1
1000374e:	0af6      	lsrs	r6, r6, #11
10003750:	d007      	beq.n	10003762 <l8_3>
10003752:	1bed      	subs	r5, r5, r7

10003754 <l8_2>:
10003754:	2200      	movs	r2, #0
10003756:	007f      	lsls	r7, r7, #1
10003758:	1c7b      	adds	r3, r7, #1
1000375a:	079b      	lsls	r3, r3, #30
1000375c:	129b      	asrs	r3, r3, #10
1000375e:	3d80      	subs	r5, #128	; 0x80
10003760:	032d      	lsls	r5, r5, #12

10003762 <l8_3>:
10003762:	1b2f      	subs	r7, r5, r4
10003764:	1b66      	subs	r6, r4, r5
10003766:	d458      	bmi.n	1000381a <da_ygtx>
10003768:	46a4      	mov	ip, r4
1000376a:	2e20      	cmp	r6, #32
1000376c:	da46      	bge.n	100037fc <da_xrgty>
1000376e:	3720      	adds	r7, #32
10003770:	0014      	movs	r4, r2
10003772:	40bc      	lsls	r4, r7

10003774 <da_xgty0>:
10003774:	001d      	movs	r5, r3
10003776:	40bd      	lsls	r5, r7
10003778:	40f2      	lsrs	r2, r6
1000377a:	4133      	asrs	r3, r6
1000377c:	432a      	orrs	r2, r5

1000377e <da_add>:
1000377e:	1880      	adds	r0, r0, r2
10003780:	4159      	adcs	r1, r3

10003782 <da_pack>:
10003782:	0fcb      	lsrs	r3, r1, #31
10003784:	d005      	beq.n	10003792 <da_pack+0x10>
10003786:	43c9      	mvns	r1, r1
10003788:	43c0      	mvns	r0, r0
1000378a:	2200      	movs	r2, #0
1000378c:	4264      	negs	r4, r4
1000378e:	4150      	adcs	r0, r2
10003790:	4151      	adcs	r1, r2
10003792:	4662      	mov	r2, ip
10003794:	0d4d      	lsrs	r5, r1, #21
10003796:	d128      	bne.n	100037ea <da_0>
10003798:	0d0d      	lsrs	r5, r1, #20
1000379a:	d107      	bne.n	100037ac <da_1>
1000379c:	2800      	cmp	r0, #0
1000379e:	d01f      	beq.n	100037e0 <da_5>

100037a0 <da_2>:
100037a0:	1924      	adds	r4, r4, r4
100037a2:	4140      	adcs	r0, r0
100037a4:	4149      	adcs	r1, r1
100037a6:	3a01      	subs	r2, #1
100037a8:	0d0d      	lsrs	r5, r1, #20
100037aa:	d0f9      	beq.n	100037a0 <da_2>

100037ac <da_1>:
100037ac:	0064      	lsls	r4, r4, #1
100037ae:	d306      	bcc.n	100037be <da_3>

100037b0 <da_4>:
100037b0:	3001      	adds	r0, #1
100037b2:	d300      	bcc.n	100037b6 <da_4+0x6>
100037b4:	3101      	adds	r1, #1
100037b6:	2c00      	cmp	r4, #0
100037b8:	d101      	bne.n	100037be <da_3>
100037ba:	0840      	lsrs	r0, r0, #1
100037bc:	0040      	lsls	r0, r0, #1

100037be <da_3>:
100037be:	3a01      	subs	r2, #1
100037c0:	d40b      	bmi.n	100037da <da_6>
100037c2:	1c94      	adds	r4, r2, #2
100037c4:	0ae4      	lsrs	r4, r4, #11
100037c6:	d104      	bne.n	100037d2 <da_7>
100037c8:	0512      	lsls	r2, r2, #20
100037ca:	4411      	add	r1, r2
100037cc:	07db      	lsls	r3, r3, #31
100037ce:	4419      	add	r1, r3
100037d0:	bdf0      	pop	{r4, r5, r6, r7, pc}

100037d2 <da_7>:
100037d2:	07d9      	lsls	r1, r3, #31
100037d4:	4b20      	ldr	r3, [pc, #128]	; (10003858 <da_xmgty+0x4>)
100037d6:	4319      	orrs	r1, r3
100037d8:	e000      	b.n	100037dc <da_6+0x2>

100037da <da_6>:
100037da:	07d9      	lsls	r1, r3, #31
100037dc:	2000      	movs	r0, #0
100037de:	bdf0      	pop	{r4, r5, r6, r7, pc}

100037e0 <da_5>:
100037e0:	2900      	cmp	r1, #0
100037e2:	d1dd      	bne.n	100037a0 <da_2>
100037e4:	2c00      	cmp	r4, #0
100037e6:	d1db      	bne.n	100037a0 <da_2>
100037e8:	bdf0      	pop	{r4, r5, r6, r7, pc}

100037ea <da_0>:
100037ea:	3201      	adds	r2, #1
100037ec:	07c6      	lsls	r6, r0, #31
100037ee:	0840      	lsrs	r0, r0, #1
100037f0:	07cd      	lsls	r5, r1, #31
100037f2:	4328      	orrs	r0, r5
100037f4:	0849      	lsrs	r1, r1, #1
100037f6:	2e00      	cmp	r6, #0
100037f8:	d0e1      	beq.n	100037be <da_3>
100037fa:	e7d9      	b.n	100037b0 <da_4>

100037fc <da_xrgty>:
100037fc:	2e3c      	cmp	r6, #60	; 0x3c
100037fe:	da29      	bge.n	10003854 <da_xmgty>
10003800:	3e20      	subs	r6, #32
10003802:	3740      	adds	r7, #64	; 0x40
10003804:	0014      	movs	r4, r2
10003806:	40bc      	lsls	r4, r7
10003808:	d000      	beq.n	1000380c <da_xrgty+0x10>
1000380a:	2401      	movs	r4, #1
1000380c:	40f2      	lsrs	r2, r6
1000380e:	4314      	orrs	r4, r2
10003810:	001a      	movs	r2, r3
10003812:	40bb      	lsls	r3, r7
10003814:	431c      	orrs	r4, r3
10003816:	17d3      	asrs	r3, r2, #31
10003818:	e7ac      	b.n	10003774 <da_xgty0>

1000381a <da_ygtx>:
1000381a:	46ac      	mov	ip, r5
1000381c:	2f20      	cmp	r7, #32
1000381e:	da08      	bge.n	10003832 <da_yrgtx>
10003820:	3620      	adds	r6, #32
10003822:	0004      	movs	r4, r0
10003824:	40b4      	lsls	r4, r6

10003826 <da_ygtx0>:
10003826:	000d      	movs	r5, r1
10003828:	40b5      	lsls	r5, r6
1000382a:	40f8      	lsrs	r0, r7
1000382c:	4139      	asrs	r1, r7
1000382e:	4328      	orrs	r0, r5
10003830:	e7a5      	b.n	1000377e <da_add>

10003832 <da_yrgtx>:
10003832:	2f3c      	cmp	r7, #60	; 0x3c
10003834:	da0c      	bge.n	10003850 <da_ymgtx>
10003836:	3f20      	subs	r7, #32
10003838:	3640      	adds	r6, #64	; 0x40
1000383a:	0004      	movs	r4, r0
1000383c:	40b4      	lsls	r4, r6
1000383e:	d000      	beq.n	10003842 <da_yrgtx+0x10>
10003840:	2401      	movs	r4, #1
10003842:	40f8      	lsrs	r0, r7
10003844:	4304      	orrs	r4, r0
10003846:	0008      	movs	r0, r1
10003848:	40b1      	lsls	r1, r6
1000384a:	430c      	orrs	r4, r1
1000384c:	17c1      	asrs	r1, r0, #31
1000384e:	e7ea      	b.n	10003826 <da_ygtx0>

10003850 <da_ymgtx>:
10003850:	0010      	movs	r0, r2
10003852:	0019      	movs	r1, r3

10003854 <da_xmgty>:
10003854:	2400      	movs	r4, #0
10003856:	e794      	b.n	10003782 <da_pack>
10003858:	7ff00000 	.word	0x7ff00000

1000385c <dmul_shim>:
1000385c:	b5f0      	push	{r4, r5, r6, r7, lr}
1000385e:	0d0c      	lsrs	r4, r1, #20
10003860:	1e66      	subs	r6, r4, #1
10003862:	0536      	lsls	r6, r6, #20
10003864:	1b89      	subs	r1, r1, r6
10003866:	0ae6      	lsrs	r6, r4, #11
10003868:	0564      	lsls	r4, r4, #21
1000386a:	0d64      	lsrs	r4, r4, #21
1000386c:	d002      	beq.n	10003874 <l11_1>
1000386e:	1c65      	adds	r5, r4, #1
10003870:	0aed      	lsrs	r5, r5, #11
10003872:	d004      	beq.n	1000387e <l11_2>

10003874 <l11_1>:
10003874:	2000      	movs	r0, #0
10003876:	2101      	movs	r1, #1
10003878:	0509      	lsls	r1, r1, #20
1000387a:	3c80      	subs	r4, #128	; 0x80
1000387c:	0324      	lsls	r4, r4, #12

1000387e <l11_2>:
1000387e:	46a4      	mov	ip, r4
10003880:	0d1c      	lsrs	r4, r3, #20
10003882:	1e67      	subs	r7, r4, #1
10003884:	053f      	lsls	r7, r7, #20
10003886:	1bdb      	subs	r3, r3, r7
10003888:	0ae7      	lsrs	r7, r4, #11
1000388a:	0564      	lsls	r4, r4, #21
1000388c:	0d64      	lsrs	r4, r4, #21
1000388e:	d002      	beq.n	10003896 <l12_1>
10003890:	1c65      	adds	r5, r4, #1
10003892:	0aed      	lsrs	r5, r5, #11
10003894:	d004      	beq.n	100038a0 <l12_2>

10003896 <l12_1>:
10003896:	2200      	movs	r2, #0
10003898:	2301      	movs	r3, #1
1000389a:	051b      	lsls	r3, r3, #20
1000389c:	3c80      	subs	r4, #128	; 0x80
1000389e:	0324      	lsls	r4, r4, #12

100038a0 <l12_2>:
100038a0:	4077      	eors	r7, r6
100038a2:	4464      	add	r4, ip
100038a4:	b497      	push	{r0, r1, r2, r4, r7}
100038a6:	b284      	uxth	r4, r0
100038a8:	b296      	uxth	r6, r2
100038aa:	4374      	muls	r4, r6
100038ac:	0c07      	lsrs	r7, r0, #16
100038ae:	437e      	muls	r6, r7
100038b0:	0c15      	lsrs	r5, r2, #16
100038b2:	436f      	muls	r7, r5
100038b4:	b280      	uxth	r0, r0
100038b6:	4368      	muls	r0, r5
100038b8:	1836      	adds	r6, r6, r0
100038ba:	d302      	bcc.n	100038c2 <l13_1>
100038bc:	2001      	movs	r0, #1
100038be:	0400      	lsls	r0, r0, #16
100038c0:	183f      	adds	r7, r7, r0

100038c2 <l13_1>:
100038c2:	0430      	lsls	r0, r6, #16
100038c4:	0c35      	lsrs	r5, r6, #16
100038c6:	1900      	adds	r0, r0, r4
100038c8:	417d      	adcs	r5, r7
100038ca:	4684      	mov	ip, r0
100038cc:	b288      	uxth	r0, r1
100038ce:	b29a      	uxth	r2, r3
100038d0:	4350      	muls	r0, r2
100038d2:	0c0c      	lsrs	r4, r1, #16
100038d4:	4362      	muls	r2, r4
100038d6:	0c1f      	lsrs	r7, r3, #16
100038d8:	437c      	muls	r4, r7
100038da:	b28e      	uxth	r6, r1
100038dc:	437e      	muls	r6, r7
100038de:	1992      	adds	r2, r2, r6
100038e0:	d302      	bcc.n	100038e8 <l14_1>
100038e2:	2601      	movs	r6, #1
100038e4:	0436      	lsls	r6, r6, #16
100038e6:	19a4      	adds	r4, r4, r6

100038e8 <l14_1>:
100038e8:	0416      	lsls	r6, r2, #16
100038ea:	0c17      	lsrs	r7, r2, #16
100038ec:	1836      	adds	r6, r6, r0
100038ee:	4167      	adcs	r7, r4
100038f0:	bc01      	pop	{r0}
100038f2:	b281      	uxth	r1, r0
100038f4:	b29a      	uxth	r2, r3
100038f6:	4351      	muls	r1, r2
100038f8:	0c04      	lsrs	r4, r0, #16
100038fa:	4362      	muls	r2, r4
100038fc:	0c1b      	lsrs	r3, r3, #16
100038fe:	435c      	muls	r4, r3
10003900:	b280      	uxth	r0, r0
10003902:	4358      	muls	r0, r3
10003904:	1812      	adds	r2, r2, r0
10003906:	d302      	bcc.n	1000390e <l15_1>
10003908:	2001      	movs	r0, #1
1000390a:	0400      	lsls	r0, r0, #16
1000390c:	1824      	adds	r4, r4, r0

1000390e <l15_1>:
1000390e:	0410      	lsls	r0, r2, #16
10003910:	0c13      	lsrs	r3, r2, #16
10003912:	1840      	adds	r0, r0, r1
10003914:	4163      	adcs	r3, r4
10003916:	182d      	adds	r5, r5, r0
10003918:	415e      	adcs	r6, r3
1000391a:	2000      	movs	r0, #0
1000391c:	4147      	adcs	r7, r0
1000391e:	bc06      	pop	{r1, r2}
10003920:	b288      	uxth	r0, r1
10003922:	b293      	uxth	r3, r2
10003924:	4358      	muls	r0, r3
10003926:	0c0c      	lsrs	r4, r1, #16
10003928:	4363      	muls	r3, r4
1000392a:	0c12      	lsrs	r2, r2, #16
1000392c:	4354      	muls	r4, r2
1000392e:	b289      	uxth	r1, r1
10003930:	4351      	muls	r1, r2
10003932:	185b      	adds	r3, r3, r1
10003934:	d302      	bcc.n	1000393c <l16_1>
10003936:	2101      	movs	r1, #1
10003938:	0409      	lsls	r1, r1, #16
1000393a:	1864      	adds	r4, r4, r1

1000393c <l16_1>:
1000393c:	0419      	lsls	r1, r3, #16
1000393e:	0c1a      	lsrs	r2, r3, #16
10003940:	1809      	adds	r1, r1, r0
10003942:	4162      	adcs	r2, r4
10003944:	186d      	adds	r5, r5, r1
10003946:	4156      	adcs	r6, r2
10003948:	2000      	movs	r0, #0
1000394a:	4147      	adcs	r7, r0
1000394c:	bc18      	pop	{r3, r4}
1000394e:	02f9      	lsls	r1, r7, #11
10003950:	0d72      	lsrs	r2, r6, #21
10003952:	4311      	orrs	r1, r2
10003954:	02f0      	lsls	r0, r6, #11
10003956:	0d6a      	lsrs	r2, r5, #21
10003958:	4310      	orrs	r0, r2
1000395a:	02ed      	lsls	r5, r5, #11
1000395c:	0d0a      	lsrs	r2, r1, #20
1000395e:	d103      	bne.n	10003968 <l16_1+0x2c>
10003960:	196d      	adds	r5, r5, r5
10003962:	4140      	adcs	r0, r0
10003964:	4149      	adcs	r1, r1
10003966:	3b01      	subs	r3, #1
10003968:	4e12      	ldr	r6, [pc, #72]	; (100039b4 <dm_1+0xa>)
1000396a:	1b9b      	subs	r3, r3, r6
1000396c:	0076      	lsls	r6, r6, #1
1000396e:	42b3      	cmp	r3, r6
10003970:	d20e      	bcs.n	10003990 <dm_0>
10003972:	006d      	lsls	r5, r5, #1
10003974:	d307      	bcc.n	10003986 <l16_1+0x4a>
10003976:	3001      	adds	r0, #1
10003978:	2600      	movs	r6, #0
1000397a:	4171      	adcs	r1, r6
1000397c:	4666      	mov	r6, ip
1000397e:	4335      	orrs	r5, r6
10003980:	d101      	bne.n	10003986 <l16_1+0x4a>
10003982:	0840      	lsrs	r0, r0, #1
10003984:	0040      	lsls	r0, r0, #1
10003986:	051b      	lsls	r3, r3, #20
10003988:	18c9      	adds	r1, r1, r3

1000398a <dm_2>:
1000398a:	07e4      	lsls	r4, r4, #31
1000398c:	4421      	add	r1, r4
1000398e:	bdf0      	pop	{r4, r5, r6, r7, pc}

10003990 <dm_0>:
10003990:	da0b      	bge.n	100039aa <dm_1>
10003992:	3301      	adds	r3, #1
10003994:	d106      	bne.n	100039a4 <dm_0+0x14>
10003996:	3001      	adds	r0, #1
10003998:	d104      	bne.n	100039a4 <dm_0+0x14>
1000399a:	3101      	adds	r1, #1
1000399c:	0d4f      	lsrs	r7, r1, #21
1000399e:	d001      	beq.n	100039a4 <dm_0+0x14>
100039a0:	0849      	lsrs	r1, r1, #1
100039a2:	e7f2      	b.n	1000398a <dm_2>
100039a4:	07e1      	lsls	r1, r4, #31
100039a6:	2000      	movs	r0, #0
100039a8:	bdf0      	pop	{r4, r5, r6, r7, pc}

100039aa <dm_1>:
100039aa:	3601      	adds	r6, #1
100039ac:	0531      	lsls	r1, r6, #20
100039ae:	2000      	movs	r0, #0
100039b0:	e7eb      	b.n	1000398a <dm_2>
100039b2:	0000      	.short	0x0000
100039b4:	000003ff 	.word	0x000003ff

100039b8 <ddiv_shim>:
100039b8:	b5f0      	push	{r4, r5, r6, r7, lr}

100039ba <ddiv0>:
100039ba:	0d1c      	lsrs	r4, r3, #20
100039bc:	1e67      	subs	r7, r4, #1
100039be:	053f      	lsls	r7, r7, #20
100039c0:	1bdb      	subs	r3, r3, r7
100039c2:	0ae7      	lsrs	r7, r4, #11
100039c4:	0564      	lsls	r4, r4, #21
100039c6:	0d64      	lsrs	r4, r4, #21
100039c8:	d002      	beq.n	100039d0 <l19_1>
100039ca:	1c66      	adds	r6, r4, #1
100039cc:	0af6      	lsrs	r6, r6, #11
100039ce:	d004      	beq.n	100039da <l19_2>

100039d0 <l19_1>:
100039d0:	2200      	movs	r2, #0
100039d2:	2301      	movs	r3, #1
100039d4:	051b      	lsls	r3, r3, #20
100039d6:	3c80      	subs	r4, #128	; 0x80
100039d8:	0324      	lsls	r4, r4, #12

100039da <l19_2>:
100039da:	25d0      	movs	r5, #208	; 0xd0
100039dc:	062d      	lsls	r5, r5, #24
100039de:	2600      	movs	r6, #0
100039e0:	43f6      	mvns	r6, r6
100039e2:	662e      	str	r6, [r5, #96]	; 0x60
100039e4:	091e      	lsrs	r6, r3, #4
100039e6:	666e      	str	r6, [r5, #100]	; 0x64
100039e8:	0fce      	lsrs	r6, r1, #31
100039ea:	19f6      	adds	r6, r6, r7
100039ec:	46b4      	mov	ip, r6
100039ee:	0049      	lsls	r1, r1, #1
100039f0:	0d4f      	lsrs	r7, r1, #21
100039f2:	d002      	beq.n	100039fa <l19_2+0x20>
100039f4:	1c7e      	adds	r6, r7, #1
100039f6:	0af6      	lsrs	r6, r6, #11
100039f8:	d003      	beq.n	10003a02 <l19_2+0x28>
100039fa:	2000      	movs	r0, #0
100039fc:	2100      	movs	r1, #0
100039fe:	3f40      	subs	r7, #64	; 0x40
10003a00:	033f      	lsls	r7, r7, #12
10003a02:	1b3e      	subs	r6, r7, r4
10003a04:	00b6      	lsls	r6, r6, #2
10003a06:	44b4      	add	ip, r6
10003a08:	3f01      	subs	r7, #1
10003a0a:	057f      	lsls	r7, r7, #21
10003a0c:	1bc9      	subs	r1, r1, r7
10003a0e:	0849      	lsrs	r1, r1, #1
10003a10:	6f2e      	ldr	r6, [r5, #112]	; 0x70
10003a12:	3601      	adds	r6, #1
10003a14:	0876      	lsrs	r6, r6, #1
10003a16:	029c      	lsls	r4, r3, #10
10003a18:	0d95      	lsrs	r5, r2, #22
10003a1a:	4325      	orrs	r5, r4
10003a1c:	4375      	muls	r5, r6
10003a1e:	13ed      	asrs	r5, r5, #15
10003a20:	4375      	muls	r5, r6
10003a22:	13ad      	asrs	r5, r5, #14
10003a24:	3501      	adds	r5, #1
10003a26:	106d      	asrs	r5, r5, #1
10003a28:	03f6      	lsls	r6, r6, #15
10003a2a:	1b76      	subs	r6, r6, r5
10003a2c:	b40c      	push	{r2, r3}
10003a2e:	02cc      	lsls	r4, r1, #11
10003a30:	0d45      	lsrs	r5, r0, #21
10003a32:	432c      	orrs	r4, r5
10003a34:	b2a2      	uxth	r2, r4
10003a36:	b2b3      	uxth	r3, r6
10003a38:	435a      	muls	r2, r3
10003a3a:	0c27      	lsrs	r7, r4, #16
10003a3c:	437b      	muls	r3, r7
10003a3e:	0c35      	lsrs	r5, r6, #16
10003a40:	436f      	muls	r7, r5
10003a42:	b2a4      	uxth	r4, r4
10003a44:	436c      	muls	r4, r5
10003a46:	191b      	adds	r3, r3, r4
10003a48:	d302      	bcc.n	10003a50 <l20_1>
10003a4a:	2401      	movs	r4, #1
10003a4c:	0424      	lsls	r4, r4, #16
10003a4e:	193f      	adds	r7, r7, r4

10003a50 <l20_1>:
10003a50:	041c      	lsls	r4, r3, #16
10003a52:	0c1d      	lsrs	r5, r3, #16
10003a54:	18a4      	adds	r4, r4, r2
10003a56:	417d      	adcs	r5, r7
10003a58:	1924      	adds	r4, r4, r4
10003a5a:	416d      	adcs	r5, r5
10003a5c:	9a00      	ldr	r2, [sp, #0]
10003a5e:	b291      	uxth	r1, r2
10003a60:	b2ac      	uxth	r4, r5
10003a62:	4361      	muls	r1, r4
10003a64:	0c17      	lsrs	r7, r2, #16
10003a66:	437c      	muls	r4, r7
10003a68:	0c2b      	lsrs	r3, r5, #16
10003a6a:	435f      	muls	r7, r3
10003a6c:	b292      	uxth	r2, r2
10003a6e:	435a      	muls	r2, r3
10003a70:	18a4      	adds	r4, r4, r2
10003a72:	d302      	bcc.n	10003a7a <l21_1>
10003a74:	2201      	movs	r2, #1
10003a76:	0412      	lsls	r2, r2, #16
10003a78:	18bf      	adds	r7, r7, r2

10003a7a <l21_1>:
10003a7a:	0422      	lsls	r2, r4, #16
10003a7c:	0c23      	lsrs	r3, r4, #16
10003a7e:	1852      	adds	r2, r2, r1
10003a80:	417b      	adcs	r3, r7
10003a82:	9c01      	ldr	r4, [sp, #4]
10003a84:	436c      	muls	r4, r5
10003a86:	191b      	adds	r3, r3, r4
10003a88:	0e52      	lsrs	r2, r2, #25
10003a8a:	01d9      	lsls	r1, r3, #7
10003a8c:	430a      	orrs	r2, r1
10003a8e:	0144      	lsls	r4, r0, #5
10003a90:	1aa0      	subs	r0, r4, r2
10003a92:	b281      	uxth	r1, r0
10003a94:	b2b2      	uxth	r2, r6
10003a96:	4351      	muls	r1, r2
10003a98:	1403      	asrs	r3, r0, #16
10003a9a:	435a      	muls	r2, r3
10003a9c:	0c36      	lsrs	r6, r6, #16
10003a9e:	4373      	muls	r3, r6
10003aa0:	b287      	uxth	r7, r0
10003aa2:	4377      	muls	r7, r6
10003aa4:	17d6      	asrs	r6, r2, #31
10003aa6:	19d2      	adds	r2, r2, r7
10003aa8:	2700      	movs	r7, #0
10003aaa:	417e      	adcs	r6, r7
10003aac:	0436      	lsls	r6, r6, #16
10003aae:	199b      	adds	r3, r3, r6
10003ab0:	0417      	lsls	r7, r2, #16
10003ab2:	0c16      	lsrs	r6, r2, #16
10003ab4:	187f      	adds	r7, r7, r1
10003ab6:	415e      	adcs	r6, r3
10003ab8:	1673      	asrs	r3, r6, #25
10003aba:	18ed      	adds	r5, r5, r3
10003abc:	01f3      	lsls	r3, r6, #7
10003abe:	2600      	movs	r6, #0
10003ac0:	3380      	adds	r3, #128	; 0x80
10003ac2:	4175      	adcs	r5, r6
10003ac4:	0fa9      	lsrs	r1, r5, #30
10003ac6:	d106      	bne.n	10003ad6 <dd_0>
10003ac8:	0064      	lsls	r4, r4, #1
10003aca:	0a69      	lsrs	r1, r5, #9
10003acc:	05e8      	lsls	r0, r5, #23
10003ace:	0a5b      	lsrs	r3, r3, #9
10003ad0:	4318      	orrs	r0, r3
10003ad2:	d209      	bcs.n	10003ae8 <dd_1>
10003ad4:	e02f      	b.n	10003b36 <dd_2>

10003ad6 <dd_0>:
10003ad6:	2204      	movs	r2, #4
10003ad8:	4494      	add	ip, r2
10003ada:	3380      	adds	r3, #128	; 0x80
10003adc:	4175      	adcs	r5, r6
10003ade:	0aa9      	lsrs	r1, r5, #10
10003ae0:	05a8      	lsls	r0, r5, #22
10003ae2:	0a9b      	lsrs	r3, r3, #10
10003ae4:	4318      	orrs	r0, r3
10003ae6:	d326      	bcc.n	10003b36 <dd_2>

10003ae8 <dd_1>:
10003ae8:	4140      	adcs	r0, r0
10003aea:	4149      	adcs	r1, r1
10003aec:	0424      	lsls	r4, r4, #16
10003aee:	9a00      	ldr	r2, [sp, #0]
10003af0:	9b01      	ldr	r3, [sp, #4]
10003af2:	000d      	movs	r5, r1
10003af4:	4355      	muls	r5, r2
10003af6:	1b64      	subs	r4, r4, r5
10003af8:	4343      	muls	r3, r0
10003afa:	1ae4      	subs	r4, r4, r3
10003afc:	b295      	uxth	r5, r2
10003afe:	b286      	uxth	r6, r0
10003b00:	4375      	muls	r5, r6
10003b02:	0c17      	lsrs	r7, r2, #16
10003b04:	437e      	muls	r6, r7
10003b06:	0c03      	lsrs	r3, r0, #16
10003b08:	435f      	muls	r7, r3
10003b0a:	b292      	uxth	r2, r2
10003b0c:	435a      	muls	r2, r3
10003b0e:	18b6      	adds	r6, r6, r2
10003b10:	d302      	bcc.n	10003b18 <l23_1>
10003b12:	2201      	movs	r2, #1
10003b14:	0412      	lsls	r2, r2, #16
10003b16:	18bf      	adds	r7, r7, r2

10003b18 <l23_1>:
10003b18:	0432      	lsls	r2, r6, #16
10003b1a:	0c33      	lsrs	r3, r6, #16
10003b1c:	1952      	adds	r2, r2, r5
10003b1e:	417b      	adcs	r3, r7
10003b20:	4252      	negs	r2, r2
10003b22:	419c      	sbcs	r4, r3
10003b24:	2c00      	cmp	r4, #0
10003b26:	d402      	bmi.n	10003b2e <l23_1+0x16>
10003b28:	2200      	movs	r2, #0
10003b2a:	3001      	adds	r0, #1
10003b2c:	4151      	adcs	r1, r2
10003b2e:	0840      	lsrs	r0, r0, #1
10003b30:	07ca      	lsls	r2, r1, #31
10003b32:	4310      	orrs	r0, r2
10003b34:	0849      	lsrs	r1, r1, #1

10003b36 <dd_2>:
10003b36:	b002      	add	sp, #8
10003b38:	4662      	mov	r2, ip
10003b3a:	07d7      	lsls	r7, r2, #31
10003b3c:	1092      	asrs	r2, r2, #2
10003b3e:	4b08      	ldr	r3, [pc, #32]	; (10003b60 <dd_4+0x6>)
10003b40:	18d2      	adds	r2, r2, r3
10003b42:	4b08      	ldr	r3, [pc, #32]	; (10003b64 <dd_4+0xa>)
10003b44:	429a      	cmp	r2, r3
10003b46:	d203      	bcs.n	10003b50 <dd_3>
10003b48:	0512      	lsls	r2, r2, #20
10003b4a:	1889      	adds	r1, r1, r2

10003b4c <dd_5>:
10003b4c:	19c9      	adds	r1, r1, r7
10003b4e:	bdf0      	pop	{r4, r5, r6, r7, pc}

10003b50 <dd_3>:
10003b50:	2000      	movs	r0, #0
10003b52:	2a00      	cmp	r2, #0
10003b54:	dc01      	bgt.n	10003b5a <dd_4>
10003b56:	0039      	movs	r1, r7
10003b58:	bdf0      	pop	{r4, r5, r6, r7, pc}

10003b5a <dd_4>:
10003b5a:	3301      	adds	r3, #1
10003b5c:	0519      	lsls	r1, r3, #20
10003b5e:	e7f5      	b.n	10003b4c <dd_5>
10003b60:	000003fd 	.word	0x000003fd
10003b64:	000007fe 	.word	0x000007fe

10003b68 <dcordic_rot_step>:
10003b68:	4662      	mov	r2, ip
10003b6a:	ca18      	ldmia	r2!, {r3, r4}
10003b6c:	4694      	mov	ip, r2
10003b6e:	2900      	cmp	r1, #0
10003b70:	da1a      	bge.n	10003ba8 <dcordic_rot_step+0x40>
10003b72:	18c0      	adds	r0, r0, r3
10003b74:	4161      	adcs	r1, r4
10003b76:	465b      	mov	r3, fp
10003b78:	413b      	asrs	r3, r7
10003b7a:	465c      	mov	r4, fp
10003b7c:	40b4      	lsls	r4, r6
10003b7e:	4652      	mov	r2, sl
10003b80:	40fa      	lsrs	r2, r7
10003b82:	4322      	orrs	r2, r4
10003b84:	4644      	mov	r4, r8
10003b86:	464d      	mov	r5, r9
10003b88:	4162      	adcs	r2, r4
10003b8a:	416b      	adcs	r3, r5
10003b8c:	4690      	mov	r8, r2
10003b8e:	4699      	mov	r9, r3
10003b90:	462b      	mov	r3, r5
10003b92:	40b3      	lsls	r3, r6
10003b94:	413d      	asrs	r5, r7
10003b96:	40fc      	lsrs	r4, r7
10003b98:	431c      	orrs	r4, r3
10003b9a:	4652      	mov	r2, sl
10003b9c:	465b      	mov	r3, fp
10003b9e:	41a2      	sbcs	r2, r4
10003ba0:	41ab      	sbcs	r3, r5
10003ba2:	4692      	mov	sl, r2
10003ba4:	469b      	mov	fp, r3
10003ba6:	4770      	bx	lr
10003ba8:	1ac0      	subs	r0, r0, r3
10003baa:	41a1      	sbcs	r1, r4
10003bac:	464b      	mov	r3, r9
10003bae:	413b      	asrs	r3, r7
10003bb0:	464c      	mov	r4, r9
10003bb2:	40b4      	lsls	r4, r6
10003bb4:	4642      	mov	r2, r8
10003bb6:	40fa      	lsrs	r2, r7
10003bb8:	4322      	orrs	r2, r4
10003bba:	4654      	mov	r4, sl
10003bbc:	465d      	mov	r5, fp
10003bbe:	4162      	adcs	r2, r4
10003bc0:	416b      	adcs	r3, r5
10003bc2:	4692      	mov	sl, r2
10003bc4:	469b      	mov	fp, r3
10003bc6:	462b      	mov	r3, r5
10003bc8:	40b3      	lsls	r3, r6
10003bca:	413d      	asrs	r5, r7
10003bcc:	40fc      	lsrs	r4, r7
10003bce:	431c      	orrs	r4, r3
10003bd0:	4642      	mov	r2, r8
10003bd2:	464b      	mov	r3, r9
10003bd4:	41a2      	sbcs	r2, r4
10003bd6:	41ab      	sbcs	r3, r5
10003bd8:	4690      	mov	r8, r2
10003bda:	4699      	mov	r9, r3
10003bdc:	4770      	bx	lr

10003bde <ret_dzero>:
10003bde:	2000      	movs	r0, #0
10003be0:	2100      	movs	r1, #0
10003be2:	4770      	bx	lr

10003be4 <double2uint_shim>:
10003be4:	2200      	movs	r2, #0

10003be6 <double2ufix_shim>:
10003be6:	b500      	push	{lr}
10003be8:	3220      	adds	r2, #32
10003bea:	f000 f804 	bl	10003bf6 <double2ufix64_shim>
10003bee:	0008      	movs	r0, r1
10003bf0:	bd00      	pop	{pc}
	...

10003bf4 <double2uint64_shim>:
10003bf4:	2200      	movs	r2, #0

10003bf6 <double2ufix64_shim>:
10003bf6:	150b      	asrs	r3, r1, #20
10003bf8:	d4f1      	bmi.n	10003bde <ret_dzero>

10003bfa <d2fix>:
10003bfa:	b510      	push	{r4, lr}
10003bfc:	4694      	mov	ip, r2
10003bfe:	f000 f82f 	bl	10003c60 <dunpacks>
10003c02:	1414      	asrs	r4, r2, #16
10003c04:	3401      	adds	r4, #1
10003c06:	da00      	bge.n	10003c0a <d2fix+0x10>
10003c08:	2100      	movs	r1, #0
10003c0a:	17cb      	asrs	r3, r1, #31
10003c0c:	4c13      	ldr	r4, [pc, #76]	; (10003c5c <d2fix_a+0x4c>)
10003c0e:	4720      	bx	r4

10003c10 <d2fix_a>:
10003c10:	4462      	add	r2, ip
10003c12:	3a34      	subs	r2, #52	; 0x34
10003c14:	d40c      	bmi.n	10003c30 <d2fix_a+0x20>
10003c16:	2a0c      	cmp	r2, #12
10003c18:	da07      	bge.n	10003c2a <d2fix_a+0x1a>
10003c1a:	0004      	movs	r4, r0
10003c1c:	4091      	lsls	r1, r2
10003c1e:	4090      	lsls	r0, r2
10003c20:	4252      	negs	r2, r2
10003c22:	3220      	adds	r2, #32
10003c24:	40d4      	lsrs	r4, r2
10003c26:	4321      	orrs	r1, r4
10003c28:	bd10      	pop	{r4, pc}
10003c2a:	43d8      	mvns	r0, r3
10003c2c:	43d9      	mvns	r1, r3
10003c2e:	bd10      	pop	{r4, pc}
10003c30:	3220      	adds	r2, #32
10003c32:	d407      	bmi.n	10003c44 <d2fix_a+0x34>
10003c34:	460c      	mov	r4, r1
10003c36:	4094      	lsls	r4, r2
10003c38:	4252      	negs	r2, r2
10003c3a:	3220      	adds	r2, #32
10003c3c:	4111      	asrs	r1, r2
10003c3e:	40d0      	lsrs	r0, r2
10003c40:	4320      	orrs	r0, r4
10003c42:	bd10      	pop	{r4, pc}
10003c44:	0008      	movs	r0, r1
10003c46:	17c9      	asrs	r1, r1, #31
10003c48:	3220      	adds	r2, #32
10003c4a:	d403      	bmi.n	10003c54 <d2fix_a+0x44>
10003c4c:	4252      	negs	r2, r2
10003c4e:	3220      	adds	r2, #32
10003c50:	4110      	asrs	r0, r2
10003c52:	bd10      	pop	{r4, pc}
10003c54:	0018      	movs	r0, r3
10003c56:	0019      	movs	r1, r3
10003c58:	bd10      	pop	{r4, pc}
10003c5a:	0000      	.short	0x0000
10003c5c:	10003c11 	.word	0x10003c11

10003c60 <dunpacks>:
10003c60:	0d0a      	lsrs	r2, r1, #20
10003c62:	0fcc      	lsrs	r4, r1, #31
10003c64:	1e53      	subs	r3, r2, #1
10003c66:	051b      	lsls	r3, r3, #20
10003c68:	1ac9      	subs	r1, r1, r3
10003c6a:	0552      	lsls	r2, r2, #21
10003c6c:	d303      	bcc.n	10003c76 <l60_1>
10003c6e:	43c9      	mvns	r1, r1
10003c70:	4240      	negs	r0, r0
10003c72:	d300      	bcc.n	10003c76 <l60_1>
10003c74:	3101      	adds	r1, #1

10003c76 <l60_1>:
10003c76:	0d52      	lsrs	r2, r2, #21
10003c78:	d003      	beq.n	10003c82 <l60_2>
10003c7a:	1c53      	adds	r3, r2, #1
10003c7c:	0adb      	lsrs	r3, r3, #11
10003c7e:	d007      	beq.n	10003c90 <l60_3>
10003c80:	1b12      	subs	r2, r2, r4

10003c82 <l60_2>:
10003c82:	2000      	movs	r0, #0
10003c84:	0064      	lsls	r4, r4, #1
10003c86:	1c61      	adds	r1, r4, #1
10003c88:	0789      	lsls	r1, r1, #30
10003c8a:	1289      	asrs	r1, r1, #10
10003c8c:	3a80      	subs	r2, #128	; 0x80
10003c8e:	0312      	lsls	r2, r2, #12

10003c90 <l60_3>:
10003c90:	4b01      	ldr	r3, [pc, #4]	; (10003c98 <l60_3+0x8>)
10003c92:	1ad2      	subs	r2, r2, r3
10003c94:	4770      	bx	lr
10003c96:	0000      	.short	0x0000
10003c98:	000003ff 	.word	0x000003ff

10003c9c <__aeabi_float_init>:
10003c9c:	2313      	movs	r3, #19
10003c9e:	b510      	push	{r4, lr}
10003ca0:	4812      	ldr	r0, [pc, #72]	; (10003cec <__aeabi_float_init+0x50>)
10003ca2:	781c      	ldrb	r4, [r3, #0]
10003ca4:	f7ff f94e 	bl	10002f44 <rom_data_lookup>
10003ca8:	0001      	movs	r1, r0
10003caa:	2c01      	cmp	r4, #1
10003cac:	d00a      	beq.n	10003cc4 <__aeabi_float_init+0x28>
10003cae:	dd03      	ble.n	10003cb8 <__aeabi_float_init+0x1c>
10003cb0:	2280      	movs	r2, #128	; 0x80
10003cb2:	480f      	ldr	r0, [pc, #60]	; (10003cf0 <__aeabi_float_init+0x54>)
10003cb4:	f000 f850 	bl	10003d58 <__wrap___aeabi_memcpy>
10003cb8:	480e      	ldr	r0, [pc, #56]	; (10003cf4 <__aeabi_float_init+0x58>)
10003cba:	f7ff f93b 	bl	10002f34 <rom_func_lookup>
10003cbe:	4b0e      	ldr	r3, [pc, #56]	; (10003cf8 <__aeabi_float_init+0x5c>)
10003cc0:	6018      	str	r0, [r3, #0]
10003cc2:	bd10      	pop	{r4, pc}
10003cc4:	4c0a      	ldr	r4, [pc, #40]	; (10003cf0 <__aeabi_float_init+0x54>)
10003cc6:	2254      	movs	r2, #84	; 0x54
10003cc8:	0020      	movs	r0, r4
10003cca:	f000 f845 	bl	10003d58 <__wrap___aeabi_memcpy>
10003cce:	4b0b      	ldr	r3, [pc, #44]	; (10003cfc <__aeabi_float_init+0x60>)
10003cd0:	6563      	str	r3, [r4, #84]	; 0x54
10003cd2:	65a3      	str	r3, [r4, #88]	; 0x58
10003cd4:	65e3      	str	r3, [r4, #92]	; 0x5c
10003cd6:	6623      	str	r3, [r4, #96]	; 0x60
10003cd8:	6663      	str	r3, [r4, #100]	; 0x64
10003cda:	66a3      	str	r3, [r4, #104]	; 0x68
10003cdc:	66e3      	str	r3, [r4, #108]	; 0x6c
10003cde:	6723      	str	r3, [r4, #112]	; 0x70
10003ce0:	6763      	str	r3, [r4, #116]	; 0x74
10003ce2:	67a3      	str	r3, [r4, #120]	; 0x78
10003ce4:	67e3      	str	r3, [r4, #124]	; 0x7c
10003ce6:	6223      	str	r3, [r4, #32]
10003ce8:	61e3      	str	r3, [r4, #28]
10003cea:	e7e5      	b.n	10003cb8 <__aeabi_float_init+0x1c>
10003cec:	00004653 	.word	0x00004653
10003cf0:	20000cb8 	.word	0x20000cb8
10003cf4:	0000334c 	.word	0x0000334c
10003cf8:	20000db8 	.word	0x20000db8
10003cfc:	10003d01 	.word	0x10003d01

10003d00 <float_table_shim_on_use_helper>:
10003d00:	b507      	push	{r0, r1, r2, lr}
10003d02:	4660      	mov	r0, ip
10003d04:	8801      	ldrh	r1, [r0, #0]
10003d06:	0a0a      	lsrs	r2, r1, #8
10003d08:	3002      	adds	r0, #2
10003d0a:	2adf      	cmp	r2, #223	; 0xdf
10003d0c:	d1fa      	bne.n	10003d04 <float_table_shim_on_use_helper+0x4>
10003d0e:	b2c9      	uxtb	r1, r1
10003d10:	0882      	lsrs	r2, r0, #2
10003d12:	d304      	bcc.n	10003d1e <float_table_shim_on_use_helper+0x1e>
10003d14:	8802      	ldrh	r2, [r0, #0]
10003d16:	8840      	ldrh	r0, [r0, #2]
10003d18:	0400      	lsls	r0, r0, #16
10003d1a:	4310      	orrs	r0, r2
10003d1c:	e000      	b.n	10003d20 <float_table_shim_on_use_helper+0x20>
10003d1e:	6800      	ldr	r0, [r0, #0]
10003d20:	4a01      	ldr	r2, [pc, #4]	; (10003d28 <float_table_shim_on_use_helper+0x28>)
10003d22:	5050      	str	r0, [r2, r1]
10003d24:	9003      	str	r0, [sp, #12]
10003d26:	bd07      	pop	{r0, r1, r2, pc}
10003d28:	20000cb8 	.word	0x20000cb8

10003d2c <__wrap_malloc>:
10003d2c:	b510      	push	{r4, lr}
10003d2e:	f000 fa79 	bl	10004224 <malloc>
10003d32:	bd10      	pop	{r4, pc}

10003d34 <__wrap_calloc>:
10003d34:	b510      	push	{r4, lr}
10003d36:	f000 fa3b 	bl	100041b0 <calloc>
10003d3a:	bd10      	pop	{r4, pc}

10003d3c <__aeabi_mem_init>:
10003d3c:	4801      	ldr	r0, [pc, #4]	; (10003d44 <__aeabi_mem_init+0x8>)
10003d3e:	2104      	movs	r1, #4
10003d40:	4b01      	ldr	r3, [pc, #4]	; (10003d48 <__aeabi_mem_init+0xc>)
10003d42:	4718      	bx	r3
10003d44:	200001f0 	.word	0x200001f0
10003d48:	10002f55 	.word	0x10002f55

10003d4c <__wrap_memset>:
10003d4c:	4b01      	ldr	r3, [pc, #4]	; (10003d54 <__wrap_memset+0x8>)
10003d4e:	681b      	ldr	r3, [r3, #0]
10003d50:	4718      	bx	r3
10003d52:	0000      	.short	0x0000
10003d54:	200001f0 	.word	0x200001f0

10003d58 <__wrap___aeabi_memcpy>:
10003d58:	4b01      	ldr	r3, [pc, #4]	; (10003d60 <__wrap___aeabi_memcpy+0x8>)
10003d5a:	685b      	ldr	r3, [r3, #4]
10003d5c:	4718      	bx	r3
10003d5e:	0000      	.short	0x0000
10003d60:	200001f0 	.word	0x200001f0

10003d64 <stdio_out_chars_crlf.part.0>:
10003d64:	b5f8      	push	{r3, r4, r5, r6, r7, lr}
10003d66:	4647      	mov	r7, r8
10003d68:	46ce      	mov	lr, r9
10003d6a:	000d      	movs	r5, r1
10003d6c:	b580      	push	{r7, lr}
10003d6e:	0016      	movs	r6, r2
10003d70:	0007      	movs	r7, r0
10003d72:	2a00      	cmp	r2, #0
10003d74:	dd20      	ble.n	10003db8 <stdio_out_chars_crlf.part.0+0x54>
10003d76:	1e4b      	subs	r3, r1, #1
10003d78:	4698      	mov	r8, r3
10003d7a:	4b1a      	ldr	r3, [pc, #104]	; (10003de4 <stdio_out_chars_crlf.part.0+0x80>)
10003d7c:	2400      	movs	r4, #0
10003d7e:	2000      	movs	r0, #0
10003d80:	4699      	mov	r9, r3
10003d82:	2c00      	cmp	r4, #0
10003d84:	d02b      	beq.n	10003dde <stdio_out_chars_crlf.part.0+0x7a>
10003d86:	4643      	mov	r3, r8
10003d88:	5d1b      	ldrb	r3, [r3, r4]
10003d8a:	3b0d      	subs	r3, #13
10003d8c:	425a      	negs	r2, r3
10003d8e:	4153      	adcs	r3, r2
10003d90:	b2db      	uxtb	r3, r3
10003d92:	5d2a      	ldrb	r2, [r5, r4]
10003d94:	2a0a      	cmp	r2, #10
10003d96:	d013      	beq.n	10003dc0 <stdio_out_chars_crlf.part.0+0x5c>
10003d98:	3401      	adds	r4, #1
10003d9a:	42a6      	cmp	r6, r4
10003d9c:	dcf1      	bgt.n	10003d82 <stdio_out_chars_crlf.part.0+0x1e>
10003d9e:	4286      	cmp	r6, r0
10003da0:	dd03      	ble.n	10003daa <stdio_out_chars_crlf.part.0+0x46>
10003da2:	1a31      	subs	r1, r6, r0
10003da4:	683b      	ldr	r3, [r7, #0]
10003da6:	1828      	adds	r0, r5, r0
10003da8:	4798      	blx	r3
10003daa:	19ad      	adds	r5, r5, r6
10003dac:	3d01      	subs	r5, #1
10003dae:	782b      	ldrb	r3, [r5, #0]
10003db0:	3b0d      	subs	r3, #13
10003db2:	425a      	negs	r2, r3
10003db4:	4153      	adcs	r3, r2
10003db6:	743b      	strb	r3, [r7, #16]
10003db8:	bc0c      	pop	{r2, r3}
10003dba:	4690      	mov	r8, r2
10003dbc:	4699      	mov	r9, r3
10003dbe:	bdf8      	pop	{r3, r4, r5, r6, r7, pc}
10003dc0:	2b00      	cmp	r3, #0
10003dc2:	d1e9      	bne.n	10003d98 <stdio_out_chars_crlf.part.0+0x34>
10003dc4:	42a0      	cmp	r0, r4
10003dc6:	da03      	bge.n	10003dd0 <stdio_out_chars_crlf.part.0+0x6c>
10003dc8:	1a21      	subs	r1, r4, r0
10003dca:	683b      	ldr	r3, [r7, #0]
10003dcc:	1828      	adds	r0, r5, r0
10003dce:	4798      	blx	r3
10003dd0:	4648      	mov	r0, r9
10003dd2:	2102      	movs	r1, #2
10003dd4:	683b      	ldr	r3, [r7, #0]
10003dd6:	3401      	adds	r4, #1
10003dd8:	4798      	blx	r3
10003dda:	0020      	movs	r0, r4
10003ddc:	e7dd      	b.n	10003d9a <stdio_out_chars_crlf.part.0+0x36>
10003dde:	7c3b      	ldrb	r3, [r7, #16]
10003de0:	e7d7      	b.n	10003d92 <stdio_out_chars_crlf.part.0+0x2e>
10003de2:	46c0      	nop			; (mov r8, r8)
10003de4:	10004e94 	.word	0x10004e94

10003de8 <stdio_buffered_printer>:
10003de8:	b5f8      	push	{r3, r4, r5, r6, r7, lr}
10003dea:	4647      	mov	r7, r8
10003dec:	46ce      	mov	lr, r9
10003dee:	000c      	movs	r4, r1
10003df0:	6809      	ldr	r1, [r1, #0]
10003df2:	b580      	push	{r7, lr}
10003df4:	0007      	movs	r7, r0
10003df6:	2980      	cmp	r1, #128	; 0x80
10003df8:	d007      	beq.n	10003e0a <stdio_buffered_printer+0x22>
10003dfa:	1c4b      	adds	r3, r1, #1
10003dfc:	6023      	str	r3, [r4, #0]
10003dfe:	1864      	adds	r4, r4, r1
10003e00:	7127      	strb	r7, [r4, #4]
10003e02:	bc0c      	pop	{r2, r3}
10003e04:	4690      	mov	r8, r2
10003e06:	4699      	mov	r9, r3
10003e08:	bdf8      	pop	{r3, r4, r5, r6, r7, pc}
10003e0a:	4b13      	ldr	r3, [pc, #76]	; (10003e58 <stdio_buffered_printer+0x70>)
10003e0c:	681d      	ldr	r5, [r3, #0]
10003e0e:	2d00      	cmp	r5, #0
10003e10:	d01b      	beq.n	10003e4a <stdio_buffered_printer+0x62>
10003e12:	4b12      	ldr	r3, [pc, #72]	; (10003e5c <stdio_buffered_printer+0x74>)
10003e14:	4698      	mov	r8, r3
10003e16:	1d23      	adds	r3, r4, #4
10003e18:	4699      	mov	r9, r3
10003e1a:	e002      	b.n	10003e22 <stdio_buffered_printer+0x3a>
10003e1c:	68ed      	ldr	r5, [r5, #12]
10003e1e:	2d00      	cmp	r5, #0
10003e20:	d013      	beq.n	10003e4a <stdio_buffered_printer+0x62>
10003e22:	682e      	ldr	r6, [r5, #0]
10003e24:	2e00      	cmp	r6, #0
10003e26:	d0f9      	beq.n	10003e1c <stdio_buffered_printer+0x34>
10003e28:	4643      	mov	r3, r8
10003e2a:	681b      	ldr	r3, [r3, #0]
10003e2c:	2b00      	cmp	r3, #0
10003e2e:	d001      	beq.n	10003e34 <stdio_buffered_printer+0x4c>
10003e30:	429d      	cmp	r5, r3
10003e32:	d1f3      	bne.n	10003e1c <stdio_buffered_printer+0x34>
10003e34:	7c6b      	ldrb	r3, [r5, #17]
10003e36:	6822      	ldr	r2, [r4, #0]
10003e38:	2b00      	cmp	r3, #0
10003e3a:	d009      	beq.n	10003e50 <stdio_buffered_printer+0x68>
10003e3c:	0028      	movs	r0, r5
10003e3e:	4649      	mov	r1, r9
10003e40:	f7ff ff90 	bl	10003d64 <stdio_out_chars_crlf.part.0>
10003e44:	68ed      	ldr	r5, [r5, #12]
10003e46:	2d00      	cmp	r5, #0
10003e48:	d1eb      	bne.n	10003e22 <stdio_buffered_printer+0x3a>
10003e4a:	2301      	movs	r3, #1
10003e4c:	2100      	movs	r1, #0
10003e4e:	e7d5      	b.n	10003dfc <stdio_buffered_printer+0x14>
10003e50:	0011      	movs	r1, r2
10003e52:	4648      	mov	r0, r9
10003e54:	47b0      	blx	r6
10003e56:	e7e1      	b.n	10003e1c <stdio_buffered_printer+0x34>
10003e58:	20000b00 	.word	0x20000b00
10003e5c:	20000b84 	.word	0x20000b84

10003e60 <stdio_put_string>:
10003e60:	b5f0      	push	{r4, r5, r6, r7, lr}
10003e62:	4657      	mov	r7, sl
10003e64:	4645      	mov	r5, r8
10003e66:	46de      	mov	lr, fp
10003e68:	464e      	mov	r6, r9
10003e6a:	23d0      	movs	r3, #208	; 0xd0
10003e6c:	b5e0      	push	{r5, r6, r7, lr}
10003e6e:	061b      	lsls	r3, r3, #24
10003e70:	681c      	ldr	r4, [r3, #0]
10003e72:	4b37      	ldr	r3, [pc, #220]	; (10003f50 <stdio_put_string+0xf0>)
10003e74:	b083      	sub	sp, #12
10003e76:	0007      	movs	r7, r0
10003e78:	000d      	movs	r5, r1
10003e7a:	0018      	movs	r0, r3
10003e7c:	a901      	add	r1, sp, #4
10003e7e:	4690      	mov	r8, r2
10003e80:	469a      	mov	sl, r3
10003e82:	f000 fe39 	bl	10004af8 <__mutex_try_enter_veneer>
10003e86:	4681      	mov	r9, r0
10003e88:	2800      	cmp	r0, #0
10003e8a:	d107      	bne.n	10003e9c <stdio_put_string+0x3c>
10003e8c:	9b01      	ldr	r3, [sp, #4]
10003e8e:	429c      	cmp	r4, r3
10003e90:	d004      	beq.n	10003e9c <stdio_put_string+0x3c>
10003e92:	4650      	mov	r0, sl
10003e94:	f000 fe38 	bl	10004b08 <__mutex_enter_blocking_veneer>
10003e98:	2301      	movs	r3, #1
10003e9a:	4699      	mov	r9, r3
10003e9c:	1c6b      	adds	r3, r5, #1
10003e9e:	d103      	bne.n	10003ea8 <stdio_put_string+0x48>
10003ea0:	0038      	movs	r0, r7
10003ea2:	f000 fcab 	bl	100047fc <strlen>
10003ea6:	0005      	movs	r5, r0
10003ea8:	4b2a      	ldr	r3, [pc, #168]	; (10003f54 <stdio_put_string+0xf4>)
10003eaa:	681c      	ldr	r4, [r3, #0]
10003eac:	2c00      	cmp	r4, #0
10003eae:	d02f      	beq.n	10003f10 <stdio_put_string+0xb0>
10003eb0:	230a      	movs	r3, #10
10003eb2:	4e29      	ldr	r6, [pc, #164]	; (10003f58 <stdio_put_string+0xf8>)
10003eb4:	469b      	mov	fp, r3
10003eb6:	e002      	b.n	10003ebe <stdio_put_string+0x5e>
10003eb8:	68e4      	ldr	r4, [r4, #12]
10003eba:	2c00      	cmp	r4, #0
10003ebc:	d028      	beq.n	10003f10 <stdio_put_string+0xb0>
10003ebe:	6822      	ldr	r2, [r4, #0]
10003ec0:	2a00      	cmp	r2, #0
10003ec2:	d0f9      	beq.n	10003eb8 <stdio_put_string+0x58>
10003ec4:	6833      	ldr	r3, [r6, #0]
10003ec6:	2b00      	cmp	r3, #0
10003ec8:	d001      	beq.n	10003ece <stdio_put_string+0x6e>
10003eca:	42a3      	cmp	r3, r4
10003ecc:	d1f4      	bne.n	10003eb8 <stdio_put_string+0x58>
10003ece:	7c63      	ldrb	r3, [r4, #17]
10003ed0:	2b00      	cmp	r3, #0
10003ed2:	d02a      	beq.n	10003f2a <stdio_put_string+0xca>
10003ed4:	002a      	movs	r2, r5
10003ed6:	0039      	movs	r1, r7
10003ed8:	0020      	movs	r0, r4
10003eda:	f7ff ff43 	bl	10003d64 <stdio_out_chars_crlf.part.0>
10003ede:	4643      	mov	r3, r8
10003ee0:	2b00      	cmp	r3, #0
10003ee2:	d0e9      	beq.n	10003eb8 <stdio_put_string+0x58>
10003ee4:	466b      	mov	r3, sp
10003ee6:	465a      	mov	r2, fp
10003ee8:	711a      	strb	r2, [r3, #4]
10003eea:	7c63      	ldrb	r3, [r4, #17]
10003eec:	2b00      	cmp	r3, #0
10003eee:	d020      	beq.n	10003f32 <stdio_put_string+0xd2>
10003ef0:	7c23      	ldrb	r3, [r4, #16]
10003ef2:	2b00      	cmp	r3, #0
10003ef4:	d026      	beq.n	10003f44 <stdio_put_string+0xe4>
10003ef6:	2101      	movs	r1, #1
10003ef8:	6823      	ldr	r3, [r4, #0]
10003efa:	a801      	add	r0, sp, #4
10003efc:	4798      	blx	r3
10003efe:	466b      	mov	r3, sp
10003f00:	791b      	ldrb	r3, [r3, #4]
10003f02:	3b0d      	subs	r3, #13
10003f04:	425a      	negs	r2, r3
10003f06:	4153      	adcs	r3, r2
10003f08:	7423      	strb	r3, [r4, #16]
10003f0a:	68e4      	ldr	r4, [r4, #12]
10003f0c:	2c00      	cmp	r4, #0
10003f0e:	d1d6      	bne.n	10003ebe <stdio_put_string+0x5e>
10003f10:	464b      	mov	r3, r9
10003f12:	2b00      	cmp	r3, #0
10003f14:	d112      	bne.n	10003f3c <stdio_put_string+0xdc>
10003f16:	1e68      	subs	r0, r5, #1
10003f18:	4185      	sbcs	r5, r0
10003f1a:	b2e8      	uxtb	r0, r5
10003f1c:	b003      	add	sp, #12
10003f1e:	bc3c      	pop	{r2, r3, r4, r5}
10003f20:	4690      	mov	r8, r2
10003f22:	4699      	mov	r9, r3
10003f24:	46a2      	mov	sl, r4
10003f26:	46ab      	mov	fp, r5
10003f28:	bdf0      	pop	{r4, r5, r6, r7, pc}
10003f2a:	0029      	movs	r1, r5
10003f2c:	0038      	movs	r0, r7
10003f2e:	4790      	blx	r2
10003f30:	e7d5      	b.n	10003ede <stdio_put_string+0x7e>
10003f32:	2101      	movs	r1, #1
10003f34:	6823      	ldr	r3, [r4, #0]
10003f36:	a801      	add	r0, sp, #4
10003f38:	4798      	blx	r3
10003f3a:	e7bd      	b.n	10003eb8 <stdio_put_string+0x58>
10003f3c:	4650      	mov	r0, sl
10003f3e:	f000 fdc3 	bl	10004ac8 <__mutex_exit_veneer>
10003f42:	e7e8      	b.n	10003f16 <stdio_put_string+0xb6>
10003f44:	2102      	movs	r1, #2
10003f46:	4805      	ldr	r0, [pc, #20]	; (10003f5c <stdio_put_string+0xfc>)
10003f48:	6823      	ldr	r3, [r4, #0]
10003f4a:	4798      	blx	r3
10003f4c:	e7d7      	b.n	10003efe <stdio_put_string+0x9e>
10003f4e:	46c0      	nop			; (mov r8, r8)
10003f50:	20000a50 	.word	0x20000a50
10003f54:	20000b00 	.word	0x20000b00
10003f58:	20000b84 	.word	0x20000b84
10003f5c:	10004e94 	.word	0x10004e94

10003f60 <__wrap_putchar>:
10003f60:	b510      	push	{r4, lr}
10003f62:	b082      	sub	sp, #8
10003f64:	466b      	mov	r3, sp
10003f66:	0004      	movs	r4, r0
10003f68:	2200      	movs	r2, #0
10003f6a:	1dd8      	adds	r0, r3, #7
10003f6c:	2101      	movs	r1, #1
10003f6e:	7004      	strb	r4, [r0, #0]
10003f70:	f7ff ff76 	bl	10003e60 <stdio_put_string>
10003f74:	0020      	movs	r0, r4
10003f76:	b002      	add	sp, #8
10003f78:	bd10      	pop	{r4, pc}
10003f7a:	46c0      	nop			; (mov r8, r8)

10003f7c <__wrap_puts>:
10003f7c:	b570      	push	{r4, r5, r6, lr}
10003f7e:	0004      	movs	r4, r0
10003f80:	f000 fc3c 	bl	100047fc <strlen>
10003f84:	2201      	movs	r2, #1
10003f86:	0001      	movs	r1, r0
10003f88:	0005      	movs	r5, r0
10003f8a:	0020      	movs	r0, r4
10003f8c:	f7ff ff68 	bl	10003e60 <stdio_put_string>
10003f90:	4b08      	ldr	r3, [pc, #32]	; (10003fb4 <__wrap_puts+0x38>)
10003f92:	681c      	ldr	r4, [r3, #0]
10003f94:	2c00      	cmp	r4, #0
10003f96:	d006      	beq.n	10003fa6 <__wrap_puts+0x2a>
10003f98:	6863      	ldr	r3, [r4, #4]
10003f9a:	2b00      	cmp	r3, #0
10003f9c:	d005      	beq.n	10003faa <__wrap_puts+0x2e>
10003f9e:	4798      	blx	r3
10003fa0:	68e4      	ldr	r4, [r4, #12]
10003fa2:	2c00      	cmp	r4, #0
10003fa4:	d1f8      	bne.n	10003f98 <__wrap_puts+0x1c>
10003fa6:	0028      	movs	r0, r5
10003fa8:	bd70      	pop	{r4, r5, r6, pc}
10003faa:	68e4      	ldr	r4, [r4, #12]
10003fac:	2c00      	cmp	r4, #0
10003fae:	d1f3      	bne.n	10003f98 <__wrap_puts+0x1c>
10003fb0:	e7f9      	b.n	10003fa6 <__wrap_puts+0x2a>
10003fb2:	46c0      	nop			; (mov r8, r8)
10003fb4:	20000b00 	.word	0x20000b00

10003fb8 <stdio_set_driver_enabled>:
10003fb8:	4a0d      	ldr	r2, [pc, #52]	; (10003ff0 <stdio_set_driver_enabled+0x38>)
10003fba:	6813      	ldr	r3, [r2, #0]
10003fbc:	2b00      	cmp	r3, #0
10003fbe:	d013      	beq.n	10003fe8 <stdio_set_driver_enabled+0x30>
10003fc0:	4283      	cmp	r3, r0
10003fc2:	d102      	bne.n	10003fca <stdio_set_driver_enabled+0x12>
10003fc4:	e009      	b.n	10003fda <stdio_set_driver_enabled+0x22>
10003fc6:	4298      	cmp	r0, r3
10003fc8:	d008      	beq.n	10003fdc <stdio_set_driver_enabled+0x24>
10003fca:	001a      	movs	r2, r3
10003fcc:	68db      	ldr	r3, [r3, #12]
10003fce:	2b00      	cmp	r3, #0
10003fd0:	d1f9      	bne.n	10003fc6 <stdio_set_driver_enabled+0xe>
10003fd2:	2900      	cmp	r1, #0
10003fd4:	d000      	beq.n	10003fd8 <stdio_set_driver_enabled+0x20>
10003fd6:	60d0      	str	r0, [r2, #12]
10003fd8:	4770      	bx	lr
10003fda:	001a      	movs	r2, r3
10003fdc:	2900      	cmp	r1, #0
10003fde:	d1fb      	bne.n	10003fd8 <stdio_set_driver_enabled+0x20>
10003fe0:	68db      	ldr	r3, [r3, #12]
10003fe2:	60d3      	str	r3, [r2, #12]
10003fe4:	60c1      	str	r1, [r0, #12]
10003fe6:	e7f7      	b.n	10003fd8 <stdio_set_driver_enabled+0x20>
10003fe8:	2900      	cmp	r1, #0
10003fea:	d0f5      	beq.n	10003fd8 <stdio_set_driver_enabled+0x20>
10003fec:	6010      	str	r0, [r2, #0]
10003fee:	e7f3      	b.n	10003fd8 <stdio_set_driver_enabled+0x20>
10003ff0:	20000b00 	.word	0x20000b00

10003ff4 <__wrap_vprintf>:
10003ff4:	b5f0      	push	{r4, r5, r6, r7, lr}
10003ff6:	4646      	mov	r6, r8
10003ff8:	46d6      	mov	lr, sl
10003ffa:	464f      	mov	r7, r9
10003ffc:	23d0      	movs	r3, #208	; 0xd0
10003ffe:	b5c0      	push	{r6, r7, lr}
10004000:	061b      	lsls	r3, r3, #24
10004002:	681f      	ldr	r7, [r3, #0]
10004004:	4b31      	ldr	r3, [pc, #196]	; (100040cc <__wrap_vprintf+0xd8>)
10004006:	b0a2      	sub	sp, #136	; 0x88
10004008:	0004      	movs	r4, r0
1000400a:	000d      	movs	r5, r1
1000400c:	0018      	movs	r0, r3
1000400e:	a901      	add	r1, sp, #4
10004010:	4698      	mov	r8, r3
10004012:	f000 fd71 	bl	10004af8 <__mutex_try_enter_veneer>
10004016:	1e06      	subs	r6, r0, #0
10004018:	d106      	bne.n	10004028 <__wrap_vprintf+0x34>
1000401a:	9b01      	ldr	r3, [sp, #4]
1000401c:	429f      	cmp	r7, r3
1000401e:	d003      	beq.n	10004028 <__wrap_vprintf+0x34>
10004020:	4640      	mov	r0, r8
10004022:	f000 fd71 	bl	10004b08 <__mutex_enter_blocking_veneer>
10004026:	3601      	adds	r6, #1
10004028:	2284      	movs	r2, #132	; 0x84
1000402a:	2100      	movs	r1, #0
1000402c:	a801      	add	r0, sp, #4
1000402e:	f7ff fe8d 	bl	10003d4c <__wrap_memset>
10004032:	002b      	movs	r3, r5
10004034:	0022      	movs	r2, r4
10004036:	4826      	ldr	r0, [pc, #152]	; (100040d0 <__wrap_vprintf+0xdc>)
10004038:	a901      	add	r1, sp, #4
1000403a:	f7fe ff4b 	bl	10002ed4 <vfctprintf>
1000403e:	9b01      	ldr	r3, [sp, #4]
10004040:	0007      	movs	r7, r0
10004042:	2b00      	cmp	r3, #0
10004044:	d115      	bne.n	10004072 <__wrap_vprintf+0x7e>
10004046:	4b23      	ldr	r3, [pc, #140]	; (100040d4 <__wrap_vprintf+0xe0>)
10004048:	681c      	ldr	r4, [r3, #0]
1000404a:	2c00      	cmp	r4, #0
1000404c:	d006      	beq.n	1000405c <__wrap_vprintf+0x68>
1000404e:	6863      	ldr	r3, [r4, #4]
10004050:	2b00      	cmp	r3, #0
10004052:	d00c      	beq.n	1000406e <__wrap_vprintf+0x7a>
10004054:	4798      	blx	r3
10004056:	68e4      	ldr	r4, [r4, #12]
10004058:	2c00      	cmp	r4, #0
1000405a:	d1f8      	bne.n	1000404e <__wrap_vprintf+0x5a>
1000405c:	2e00      	cmp	r6, #0
1000405e:	d12f      	bne.n	100040c0 <__wrap_vprintf+0xcc>
10004060:	0038      	movs	r0, r7
10004062:	b022      	add	sp, #136	; 0x88
10004064:	bc1c      	pop	{r2, r3, r4}
10004066:	4690      	mov	r8, r2
10004068:	4699      	mov	r9, r3
1000406a:	46a2      	mov	sl, r4
1000406c:	bdf0      	pop	{r4, r5, r6, r7, pc}
1000406e:	68e4      	ldr	r4, [r4, #12]
10004070:	e7eb      	b.n	1000404a <__wrap_vprintf+0x56>
10004072:	4b18      	ldr	r3, [pc, #96]	; (100040d4 <__wrap_vprintf+0xe0>)
10004074:	681d      	ldr	r5, [r3, #0]
10004076:	469a      	mov	sl, r3
10004078:	2d00      	cmp	r5, #0
1000407a:	d025      	beq.n	100040c8 <__wrap_vprintf+0xd4>
1000407c:	4b16      	ldr	r3, [pc, #88]	; (100040d8 <__wrap_vprintf+0xe4>)
1000407e:	4699      	mov	r9, r3
10004080:	e002      	b.n	10004088 <__wrap_vprintf+0x94>
10004082:	68ed      	ldr	r5, [r5, #12]
10004084:	2d00      	cmp	r5, #0
10004086:	d013      	beq.n	100040b0 <__wrap_vprintf+0xbc>
10004088:	682c      	ldr	r4, [r5, #0]
1000408a:	2c00      	cmp	r4, #0
1000408c:	d0f9      	beq.n	10004082 <__wrap_vprintf+0x8e>
1000408e:	464b      	mov	r3, r9
10004090:	681b      	ldr	r3, [r3, #0]
10004092:	2b00      	cmp	r3, #0
10004094:	d001      	beq.n	1000409a <__wrap_vprintf+0xa6>
10004096:	429d      	cmp	r5, r3
10004098:	d1f3      	bne.n	10004082 <__wrap_vprintf+0x8e>
1000409a:	7c6b      	ldrb	r3, [r5, #17]
1000409c:	9a01      	ldr	r2, [sp, #4]
1000409e:	2b00      	cmp	r3, #0
100040a0:	d00a      	beq.n	100040b8 <__wrap_vprintf+0xc4>
100040a2:	0028      	movs	r0, r5
100040a4:	a902      	add	r1, sp, #8
100040a6:	f7ff fe5d 	bl	10003d64 <stdio_out_chars_crlf.part.0>
100040aa:	68ed      	ldr	r5, [r5, #12]
100040ac:	2d00      	cmp	r5, #0
100040ae:	d1eb      	bne.n	10004088 <__wrap_vprintf+0x94>
100040b0:	4653      	mov	r3, sl
100040b2:	9501      	str	r5, [sp, #4]
100040b4:	681c      	ldr	r4, [r3, #0]
100040b6:	e7c8      	b.n	1000404a <__wrap_vprintf+0x56>
100040b8:	0011      	movs	r1, r2
100040ba:	a802      	add	r0, sp, #8
100040bc:	47a0      	blx	r4
100040be:	e7e0      	b.n	10004082 <__wrap_vprintf+0x8e>
100040c0:	4640      	mov	r0, r8
100040c2:	f000 fd01 	bl	10004ac8 <__mutex_exit_veneer>
100040c6:	e7cb      	b.n	10004060 <__wrap_vprintf+0x6c>
100040c8:	9501      	str	r5, [sp, #4]
100040ca:	e7c7      	b.n	1000405c <__wrap_vprintf+0x68>
100040cc:	20000a50 	.word	0x20000a50
100040d0:	10003de9 	.word	0x10003de9
100040d4:	20000b00 	.word	0x20000b00
100040d8:	20000b84 	.word	0x20000b84

100040dc <__wrap_printf>:
100040dc:	b40f      	push	{r0, r1, r2, r3}
100040de:	b500      	push	{lr}
100040e0:	b083      	sub	sp, #12
100040e2:	a904      	add	r1, sp, #16
100040e4:	c901      	ldmia	r1!, {r0}
100040e6:	9101      	str	r1, [sp, #4]
100040e8:	f7ff ff84 	bl	10003ff4 <__wrap_vprintf>
100040ec:	b003      	add	sp, #12
100040ee:	bc08      	pop	{r3}
100040f0:	b004      	add	sp, #16
100040f2:	4718      	bx	r3

100040f4 <stdio_init_all>:
100040f4:	b510      	push	{r4, lr}
100040f6:	f000 f83b 	bl	10004170 <stdio_uart_init>
100040fa:	bd10      	pop	{r4, pc}

100040fc <stdio_uart_out_chars>:
100040fc:	b5f0      	push	{r4, r5, r6, r7, lr}
100040fe:	2900      	cmp	r1, #0
10004100:	d010      	beq.n	10004124 <stdio_uart_out_chars+0x28>
10004102:	1845      	adds	r5, r0, r1
10004104:	270d      	movs	r7, #13
10004106:	2120      	movs	r1, #32
10004108:	4b09      	ldr	r3, [pc, #36]	; (10004130 <stdio_uart_out_chars+0x34>)
1000410a:	4a0a      	ldr	r2, [pc, #40]	; (10004134 <stdio_uart_out_chars+0x38>)
1000410c:	2600      	movs	r6, #0
1000410e:	5f9e      	ldrsh	r6, [r3, r6]
10004110:	7804      	ldrb	r4, [r0, #0]
10004112:	42a6      	cmp	r6, r4
10004114:	d007      	beq.n	10004126 <stdio_uart_out_chars+0x2a>
10004116:	6993      	ldr	r3, [r2, #24]
10004118:	4219      	tst	r1, r3
1000411a:	d1fc      	bne.n	10004116 <stdio_uart_out_chars+0x1a>
1000411c:	3001      	adds	r0, #1
1000411e:	6014      	str	r4, [r2, #0]
10004120:	42a8      	cmp	r0, r5
10004122:	d1f5      	bne.n	10004110 <stdio_uart_out_chars+0x14>
10004124:	bdf0      	pop	{r4, r5, r6, r7, pc}
10004126:	6993      	ldr	r3, [r2, #24]
10004128:	4219      	tst	r1, r3
1000412a:	d1fc      	bne.n	10004126 <stdio_uart_out_chars+0x2a>
1000412c:	6017      	str	r7, [r2, #0]
1000412e:	e7f2      	b.n	10004116 <stdio_uart_out_chars+0x1a>
10004130:	20000bb4 	.word	0x20000bb4
10004134:	40034000 	.word	0x40034000

10004138 <stdio_uart_in_chars>:
10004138:	b530      	push	{r4, r5, lr}
1000413a:	0005      	movs	r5, r0
1000413c:	2000      	movs	r0, #0
1000413e:	2900      	cmp	r1, #0
10004140:	dd10      	ble.n	10004164 <stdio_uart_in_chars+0x2c>
10004142:	2410      	movs	r4, #16
10004144:	4a09      	ldr	r2, [pc, #36]	; (1000416c <stdio_uart_in_chars+0x34>)
10004146:	3d01      	subs	r5, #1
10004148:	6993      	ldr	r3, [r2, #24]
1000414a:	421c      	tst	r4, r3
1000414c:	d108      	bne.n	10004160 <stdio_uart_in_chars+0x28>
1000414e:	3001      	adds	r0, #1
10004150:	6993      	ldr	r3, [r2, #24]
10004152:	421c      	tst	r4, r3
10004154:	d1fc      	bne.n	10004150 <stdio_uart_in_chars+0x18>
10004156:	6813      	ldr	r3, [r2, #0]
10004158:	542b      	strb	r3, [r5, r0]
1000415a:	4281      	cmp	r1, r0
1000415c:	d1f4      	bne.n	10004148 <stdio_uart_in_chars+0x10>
1000415e:	bd30      	pop	{r4, r5, pc}
10004160:	2800      	cmp	r0, #0
10004162:	d1fc      	bne.n	1000415e <stdio_uart_in_chars+0x26>
10004164:	2003      	movs	r0, #3
10004166:	4240      	negs	r0, r0
10004168:	e7f9      	b.n	1000415e <stdio_uart_in_chars+0x26>
1000416a:	46c0      	nop			; (mov r8, r8)
1000416c:	40034000 	.word	0x40034000

10004170 <stdio_uart_init>:
10004170:	21e1      	movs	r1, #225	; 0xe1
10004172:	b510      	push	{r4, lr}
10004174:	4b0a      	ldr	r3, [pc, #40]	; (100041a0 <stdio_uart_init+0x30>)
10004176:	0249      	lsls	r1, r1, #9
10004178:	781b      	ldrb	r3, [r3, #0]
1000417a:	4b0a      	ldr	r3, [pc, #40]	; (100041a4 <stdio_uart_init+0x34>)
1000417c:	480a      	ldr	r0, [pc, #40]	; (100041a8 <stdio_uart_init+0x38>)
1000417e:	781b      	ldrb	r3, [r3, #0]
10004180:	f7fc fa04 	bl	1000058c <uart_init>
10004184:	2102      	movs	r1, #2
10004186:	2000      	movs	r0, #0
10004188:	f7fc f95a 	bl	10000440 <gpio_set_function>
1000418c:	2102      	movs	r1, #2
1000418e:	2001      	movs	r0, #1
10004190:	f7fc f956 	bl	10000440 <gpio_set_function>
10004194:	2101      	movs	r1, #1
10004196:	4805      	ldr	r0, [pc, #20]	; (100041ac <stdio_uart_init+0x3c>)
10004198:	f7ff ff0e 	bl	10003fb8 <stdio_set_driver_enabled>
1000419c:	bd10      	pop	{r4, pc}
1000419e:	46c0      	nop			; (mov r8, r8)
100041a0:	10004ef4 	.word	0x10004ef4
100041a4:	10004ef8 	.word	0x10004ef8
100041a8:	40034000 	.word	0x40034000
100041ac:	20000200 	.word	0x20000200

100041b0 <calloc>:
100041b0:	0003      	movs	r3, r0
100041b2:	b510      	push	{r4, lr}
100041b4:	000a      	movs	r2, r1
100041b6:	4903      	ldr	r1, [pc, #12]	; (100041c4 <calloc+0x14>)
100041b8:	6808      	ldr	r0, [r1, #0]
100041ba:	0019      	movs	r1, r3
100041bc:	f000 f804 	bl	100041c8 <_calloc_r>
100041c0:	bd10      	pop	{r4, pc}
100041c2:	46c0      	nop			; (mov r8, r8)
100041c4:	20000214 	.word	0x20000214

100041c8 <_calloc_r>:
100041c8:	b510      	push	{r4, lr}
100041ca:	4351      	muls	r1, r2
100041cc:	f000 f834 	bl	10004238 <_malloc_r>
100041d0:	1e04      	subs	r4, r0, #0
100041d2:	d00e      	beq.n	100041f2 <_calloc_r+0x2a>
100041d4:	0003      	movs	r3, r0
100041d6:	3b08      	subs	r3, #8
100041d8:	685a      	ldr	r2, [r3, #4]
100041da:	2303      	movs	r3, #3
100041dc:	439a      	bics	r2, r3
100041de:	3a04      	subs	r2, #4
100041e0:	2a24      	cmp	r2, #36	; 0x24
100041e2:	d815      	bhi.n	10004210 <_calloc_r+0x48>
100041e4:	0003      	movs	r3, r0
100041e6:	2a13      	cmp	r2, #19
100041e8:	d805      	bhi.n	100041f6 <_calloc_r+0x2e>
100041ea:	2200      	movs	r2, #0
100041ec:	601a      	str	r2, [r3, #0]
100041ee:	605a      	str	r2, [r3, #4]
100041f0:	609a      	str	r2, [r3, #8]
100041f2:	0020      	movs	r0, r4
100041f4:	bd10      	pop	{r4, pc}
100041f6:	2100      	movs	r1, #0
100041f8:	3308      	adds	r3, #8
100041fa:	6001      	str	r1, [r0, #0]
100041fc:	6041      	str	r1, [r0, #4]
100041fe:	2a1b      	cmp	r2, #27
10004200:	d9f3      	bls.n	100041ea <_calloc_r+0x22>
10004202:	6081      	str	r1, [r0, #8]
10004204:	60c1      	str	r1, [r0, #12]
10004206:	2a24      	cmp	r2, #36	; 0x24
10004208:	d006      	beq.n	10004218 <_calloc_r+0x50>
1000420a:	0003      	movs	r3, r0
1000420c:	3310      	adds	r3, #16
1000420e:	e7ec      	b.n	100041ea <_calloc_r+0x22>
10004210:	2100      	movs	r1, #0
10004212:	f7ff fd9b 	bl	10003d4c <__wrap_memset>
10004216:	e7ec      	b.n	100041f2 <_calloc_r+0x2a>
10004218:	0003      	movs	r3, r0
1000421a:	6101      	str	r1, [r0, #16]
1000421c:	3318      	adds	r3, #24
1000421e:	6141      	str	r1, [r0, #20]
10004220:	e7e3      	b.n	100041ea <_calloc_r+0x22>
10004222:	46c0      	nop			; (mov r8, r8)

10004224 <malloc>:
10004224:	b510      	push	{r4, lr}
10004226:	4b03      	ldr	r3, [pc, #12]	; (10004234 <malloc+0x10>)
10004228:	0001      	movs	r1, r0
1000422a:	6818      	ldr	r0, [r3, #0]
1000422c:	f000 f804 	bl	10004238 <_malloc_r>
10004230:	bd10      	pop	{r4, pc}
10004232:	46c0      	nop			; (mov r8, r8)
10004234:	20000214 	.word	0x20000214

10004238 <_malloc_r>:
10004238:	b5f0      	push	{r4, r5, r6, r7, lr}
1000423a:	464e      	mov	r6, r9
1000423c:	4645      	mov	r5, r8
1000423e:	46de      	mov	lr, fp
10004240:	4657      	mov	r7, sl
10004242:	b5e0      	push	{r5, r6, r7, lr}
10004244:	000d      	movs	r5, r1
10004246:	350b      	adds	r5, #11
10004248:	0006      	movs	r6, r0
1000424a:	b083      	sub	sp, #12
1000424c:	2d16      	cmp	r5, #22
1000424e:	d822      	bhi.n	10004296 <_malloc_r+0x5e>
10004250:	2910      	cmp	r1, #16
10004252:	d900      	bls.n	10004256 <_malloc_r+0x1e>
10004254:	e0b2      	b.n	100043bc <_malloc_r+0x184>
10004256:	f000 faaf 	bl	100047b8 <__malloc_lock>
1000425a:	2510      	movs	r5, #16
1000425c:	2002      	movs	r0, #2
1000425e:	2318      	movs	r3, #24
10004260:	4fcb      	ldr	r7, [pc, #812]	; (10004590 <_malloc_r+0x358>)
10004262:	18fb      	adds	r3, r7, r3
10004264:	001a      	movs	r2, r3
10004266:	685c      	ldr	r4, [r3, #4]
10004268:	3a08      	subs	r2, #8
1000426a:	4294      	cmp	r4, r2
1000426c:	d100      	bne.n	10004270 <_malloc_r+0x38>
1000426e:	e0b5      	b.n	100043dc <_malloc_r+0x1a4>
10004270:	2303      	movs	r3, #3
10004272:	6862      	ldr	r2, [r4, #4]
10004274:	439a      	bics	r2, r3
10004276:	0013      	movs	r3, r2
10004278:	68e2      	ldr	r2, [r4, #12]
1000427a:	68a1      	ldr	r1, [r4, #8]
1000427c:	60ca      	str	r2, [r1, #12]
1000427e:	6091      	str	r1, [r2, #8]
10004280:	2201      	movs	r2, #1
10004282:	18e3      	adds	r3, r4, r3
10004284:	6859      	ldr	r1, [r3, #4]
10004286:	0030      	movs	r0, r6
10004288:	430a      	orrs	r2, r1
1000428a:	605a      	str	r2, [r3, #4]
1000428c:	f000 fa9c 	bl	100047c8 <__malloc_unlock>
10004290:	0020      	movs	r0, r4
10004292:	3008      	adds	r0, #8
10004294:	e095      	b.n	100043c2 <_malloc_r+0x18a>
10004296:	2307      	movs	r3, #7
10004298:	439d      	bics	r5, r3
1000429a:	d500      	bpl.n	1000429e <_malloc_r+0x66>
1000429c:	e08e      	b.n	100043bc <_malloc_r+0x184>
1000429e:	42a9      	cmp	r1, r5
100042a0:	d900      	bls.n	100042a4 <_malloc_r+0x6c>
100042a2:	e08b      	b.n	100043bc <_malloc_r+0x184>
100042a4:	f000 fa88 	bl	100047b8 <__malloc_lock>
100042a8:	23fc      	movs	r3, #252	; 0xfc
100042aa:	005b      	lsls	r3, r3, #1
100042ac:	429d      	cmp	r5, r3
100042ae:	d200      	bcs.n	100042b2 <_malloc_r+0x7a>
100042b0:	e1a5      	b.n	100045fe <_malloc_r+0x3c6>
100042b2:	0a68      	lsrs	r0, r5, #9
100042b4:	d100      	bne.n	100042b8 <_malloc_r+0x80>
100042b6:	e08b      	b.n	100043d0 <_malloc_r+0x198>
100042b8:	2804      	cmp	r0, #4
100042ba:	d900      	bls.n	100042be <_malloc_r+0x86>
100042bc:	e178      	b.n	100045b0 <_malloc_r+0x378>
100042be:	2338      	movs	r3, #56	; 0x38
100042c0:	4698      	mov	r8, r3
100042c2:	09a8      	lsrs	r0, r5, #6
100042c4:	4480      	add	r8, r0
100042c6:	3039      	adds	r0, #57	; 0x39
100042c8:	00c1      	lsls	r1, r0, #3
100042ca:	4fb1      	ldr	r7, [pc, #708]	; (10004590 <_malloc_r+0x358>)
100042cc:	1879      	adds	r1, r7, r1
100042ce:	684c      	ldr	r4, [r1, #4]
100042d0:	3908      	subs	r1, #8
100042d2:	42a1      	cmp	r1, r4
100042d4:	d00e      	beq.n	100042f4 <_malloc_r+0xbc>
100042d6:	2303      	movs	r3, #3
100042d8:	469c      	mov	ip, r3
100042da:	e004      	b.n	100042e6 <_malloc_r+0xae>
100042dc:	2a00      	cmp	r2, #0
100042de:	dacb      	bge.n	10004278 <_malloc_r+0x40>
100042e0:	68e4      	ldr	r4, [r4, #12]
100042e2:	42a1      	cmp	r1, r4
100042e4:	d006      	beq.n	100042f4 <_malloc_r+0xbc>
100042e6:	4662      	mov	r2, ip
100042e8:	6863      	ldr	r3, [r4, #4]
100042ea:	4393      	bics	r3, r2
100042ec:	1b5a      	subs	r2, r3, r5
100042ee:	2a0f      	cmp	r2, #15
100042f0:	ddf4      	ble.n	100042dc <_malloc_r+0xa4>
100042f2:	4640      	mov	r0, r8
100042f4:	003a      	movs	r2, r7
100042f6:	693c      	ldr	r4, [r7, #16]
100042f8:	3208      	adds	r2, #8
100042fa:	4294      	cmp	r4, r2
100042fc:	d100      	bne.n	10004300 <_malloc_r+0xc8>
100042fe:	e078      	b.n	100043f2 <_malloc_r+0x1ba>
10004300:	2303      	movs	r3, #3
10004302:	6861      	ldr	r1, [r4, #4]
10004304:	4399      	bics	r1, r3
10004306:	4689      	mov	r9, r1
10004308:	000b      	movs	r3, r1
1000430a:	1b49      	subs	r1, r1, r5
1000430c:	290f      	cmp	r1, #15
1000430e:	dd00      	ble.n	10004312 <_malloc_r+0xda>
10004310:	e179      	b.n	10004606 <_malloc_r+0x3ce>
10004312:	617a      	str	r2, [r7, #20]
10004314:	613a      	str	r2, [r7, #16]
10004316:	2900      	cmp	r1, #0
10004318:	dab2      	bge.n	10004280 <_malloc_r+0x48>
1000431a:	2280      	movs	r2, #128	; 0x80
1000431c:	0092      	lsls	r2, r2, #2
1000431e:	4591      	cmp	r9, r2
10004320:	d300      	bcc.n	10004324 <_malloc_r+0xec>
10004322:	e10e      	b.n	10004542 <_malloc_r+0x30a>
10004324:	0959      	lsrs	r1, r3, #5
10004326:	08da      	lsrs	r2, r3, #3
10004328:	2301      	movs	r3, #1
1000432a:	408b      	lsls	r3, r1
1000432c:	00d2      	lsls	r2, r2, #3
1000432e:	6879      	ldr	r1, [r7, #4]
10004330:	19d2      	adds	r2, r2, r7
10004332:	430b      	orrs	r3, r1
10004334:	6891      	ldr	r1, [r2, #8]
10004336:	607b      	str	r3, [r7, #4]
10004338:	60e2      	str	r2, [r4, #12]
1000433a:	60a1      	str	r1, [r4, #8]
1000433c:	6094      	str	r4, [r2, #8]
1000433e:	60cc      	str	r4, [r1, #12]
10004340:	2101      	movs	r1, #1
10004342:	1082      	asrs	r2, r0, #2
10004344:	4091      	lsls	r1, r2
10004346:	4299      	cmp	r1, r3
10004348:	d859      	bhi.n	100043fe <_malloc_r+0x1c6>
1000434a:	420b      	tst	r3, r1
1000434c:	d105      	bne.n	1000435a <_malloc_r+0x122>
1000434e:	2203      	movs	r2, #3
10004350:	4390      	bics	r0, r2
10004352:	0049      	lsls	r1, r1, #1
10004354:	3004      	adds	r0, #4
10004356:	420b      	tst	r3, r1
10004358:	d0fb      	beq.n	10004352 <_malloc_r+0x11a>
1000435a:	2303      	movs	r3, #3
1000435c:	4698      	mov	r8, r3
1000435e:	00c3      	lsls	r3, r0, #3
10004360:	4699      	mov	r9, r3
10004362:	44b9      	add	r9, r7
10004364:	46cc      	mov	ip, r9
10004366:	4682      	mov	sl, r0
10004368:	4663      	mov	r3, ip
1000436a:	68dc      	ldr	r4, [r3, #12]
1000436c:	45a4      	cmp	ip, r4
1000436e:	d107      	bne.n	10004380 <_malloc_r+0x148>
10004370:	e12a      	b.n	100045c8 <_malloc_r+0x390>
10004372:	2a00      	cmp	r2, #0
10004374:	db00      	blt.n	10004378 <_malloc_r+0x140>
10004376:	e133      	b.n	100045e0 <_malloc_r+0x3a8>
10004378:	68e4      	ldr	r4, [r4, #12]
1000437a:	45a4      	cmp	ip, r4
1000437c:	d100      	bne.n	10004380 <_malloc_r+0x148>
1000437e:	e123      	b.n	100045c8 <_malloc_r+0x390>
10004380:	4642      	mov	r2, r8
10004382:	6863      	ldr	r3, [r4, #4]
10004384:	4393      	bics	r3, r2
10004386:	1b5a      	subs	r2, r3, r5
10004388:	2a0f      	cmp	r2, #15
1000438a:	ddf2      	ble.n	10004372 <_malloc_r+0x13a>
1000438c:	2001      	movs	r0, #1
1000438e:	4680      	mov	r8, r0
10004390:	1961      	adds	r1, r4, r5
10004392:	4305      	orrs	r5, r0
10004394:	6065      	str	r5, [r4, #4]
10004396:	68a0      	ldr	r0, [r4, #8]
10004398:	68e5      	ldr	r5, [r4, #12]
1000439a:	3708      	adds	r7, #8
1000439c:	60c5      	str	r5, [r0, #12]
1000439e:	60a8      	str	r0, [r5, #8]
100043a0:	4640      	mov	r0, r8
100043a2:	4310      	orrs	r0, r2
100043a4:	60f9      	str	r1, [r7, #12]
100043a6:	60b9      	str	r1, [r7, #8]
100043a8:	6048      	str	r0, [r1, #4]
100043aa:	60cf      	str	r7, [r1, #12]
100043ac:	0030      	movs	r0, r6
100043ae:	608f      	str	r7, [r1, #8]
100043b0:	50e2      	str	r2, [r4, r3]
100043b2:	f000 fa09 	bl	100047c8 <__malloc_unlock>
100043b6:	0020      	movs	r0, r4
100043b8:	3008      	adds	r0, #8
100043ba:	e002      	b.n	100043c2 <_malloc_r+0x18a>
100043bc:	230c      	movs	r3, #12
100043be:	2000      	movs	r0, #0
100043c0:	6033      	str	r3, [r6, #0]
100043c2:	b003      	add	sp, #12
100043c4:	bc3c      	pop	{r2, r3, r4, r5}
100043c6:	4690      	mov	r8, r2
100043c8:	4699      	mov	r9, r3
100043ca:	46a2      	mov	sl, r4
100043cc:	46ab      	mov	fp, r5
100043ce:	bdf0      	pop	{r4, r5, r6, r7, pc}
100043d0:	2180      	movs	r1, #128	; 0x80
100043d2:	233f      	movs	r3, #63	; 0x3f
100043d4:	2040      	movs	r0, #64	; 0x40
100043d6:	4698      	mov	r8, r3
100043d8:	0089      	lsls	r1, r1, #2
100043da:	e776      	b.n	100042ca <_malloc_r+0x92>
100043dc:	68dc      	ldr	r4, [r3, #12]
100043de:	3002      	adds	r0, #2
100043e0:	42a3      	cmp	r3, r4
100043e2:	d000      	beq.n	100043e6 <_malloc_r+0x1ae>
100043e4:	e744      	b.n	10004270 <_malloc_r+0x38>
100043e6:	003a      	movs	r2, r7
100043e8:	693c      	ldr	r4, [r7, #16]
100043ea:	3208      	adds	r2, #8
100043ec:	4294      	cmp	r4, r2
100043ee:	d000      	beq.n	100043f2 <_malloc_r+0x1ba>
100043f0:	e786      	b.n	10004300 <_malloc_r+0xc8>
100043f2:	2101      	movs	r1, #1
100043f4:	687b      	ldr	r3, [r7, #4]
100043f6:	1082      	asrs	r2, r0, #2
100043f8:	4091      	lsls	r1, r2
100043fa:	4299      	cmp	r1, r3
100043fc:	d9a5      	bls.n	1000434a <_malloc_r+0x112>
100043fe:	2303      	movs	r3, #3
10004400:	68bc      	ldr	r4, [r7, #8]
10004402:	6862      	ldr	r2, [r4, #4]
10004404:	439a      	bics	r2, r3
10004406:	4691      	mov	r9, r2
10004408:	4295      	cmp	r5, r2
1000440a:	d803      	bhi.n	10004414 <_malloc_r+0x1dc>
1000440c:	1b53      	subs	r3, r2, r5
1000440e:	2b0f      	cmp	r3, #15
10004410:	dd00      	ble.n	10004414 <_malloc_r+0x1dc>
10004412:	e088      	b.n	10004526 <_malloc_r+0x2ee>
10004414:	0023      	movs	r3, r4
10004416:	444b      	add	r3, r9
10004418:	4a5e      	ldr	r2, [pc, #376]	; (10004594 <_malloc_r+0x35c>)
1000441a:	9301      	str	r3, [sp, #4]
1000441c:	4b5e      	ldr	r3, [pc, #376]	; (10004598 <_malloc_r+0x360>)
1000441e:	4693      	mov	fp, r2
10004420:	681b      	ldr	r3, [r3, #0]
10004422:	6812      	ldr	r2, [r2, #0]
10004424:	18eb      	adds	r3, r5, r3
10004426:	3201      	adds	r2, #1
10004428:	d100      	bne.n	1000442c <_malloc_r+0x1f4>
1000442a:	e13b      	b.n	100046a4 <_malloc_r+0x46c>
1000442c:	4a5b      	ldr	r2, [pc, #364]	; (1000459c <_malloc_r+0x364>)
1000442e:	4694      	mov	ip, r2
10004430:	4463      	add	r3, ip
10004432:	0b1b      	lsrs	r3, r3, #12
10004434:	031b      	lsls	r3, r3, #12
10004436:	9300      	str	r3, [sp, #0]
10004438:	0030      	movs	r0, r6
1000443a:	9900      	ldr	r1, [sp, #0]
1000443c:	f000 f9cc 	bl	100047d8 <_sbrk_r>
10004440:	0003      	movs	r3, r0
10004442:	4680      	mov	r8, r0
10004444:	3301      	adds	r3, #1
10004446:	d100      	bne.n	1000444a <_malloc_r+0x212>
10004448:	e0f8      	b.n	1000463c <_malloc_r+0x404>
1000444a:	9b01      	ldr	r3, [sp, #4]
1000444c:	4283      	cmp	r3, r0
1000444e:	d900      	bls.n	10004452 <_malloc_r+0x21a>
10004450:	e0f2      	b.n	10004638 <_malloc_r+0x400>
10004452:	4b53      	ldr	r3, [pc, #332]	; (100045a0 <_malloc_r+0x368>)
10004454:	0019      	movs	r1, r3
10004456:	469a      	mov	sl, r3
10004458:	6809      	ldr	r1, [r1, #0]
1000445a:	9b00      	ldr	r3, [sp, #0]
1000445c:	468c      	mov	ip, r1
1000445e:	4651      	mov	r1, sl
10004460:	4463      	add	r3, ip
10004462:	600b      	str	r3, [r1, #0]
10004464:	9901      	ldr	r1, [sp, #4]
10004466:	001a      	movs	r2, r3
10004468:	4281      	cmp	r1, r0
1000446a:	d100      	bne.n	1000446e <_malloc_r+0x236>
1000446c:	e150      	b.n	10004710 <_malloc_r+0x4d8>
1000446e:	465b      	mov	r3, fp
10004470:	681b      	ldr	r3, [r3, #0]
10004472:	3301      	adds	r3, #1
10004474:	d100      	bne.n	10004478 <_malloc_r+0x240>
10004476:	e155      	b.n	10004724 <_malloc_r+0x4ec>
10004478:	4643      	mov	r3, r8
1000447a:	9901      	ldr	r1, [sp, #4]
1000447c:	1a5b      	subs	r3, r3, r1
1000447e:	189a      	adds	r2, r3, r2
10004480:	4653      	mov	r3, sl
10004482:	601a      	str	r2, [r3, #0]
10004484:	2307      	movs	r3, #7
10004486:	4642      	mov	r2, r8
10004488:	4641      	mov	r1, r8
1000448a:	401a      	ands	r2, r3
1000448c:	9201      	str	r2, [sp, #4]
1000448e:	4219      	tst	r1, r3
10004490:	d100      	bne.n	10004494 <_malloc_r+0x25c>
10004492:	e111      	b.n	100046b8 <_malloc_r+0x480>
10004494:	2308      	movs	r3, #8
10004496:	4698      	mov	r8, r3
10004498:	1a88      	subs	r0, r1, r2
1000449a:	4b42      	ldr	r3, [pc, #264]	; (100045a4 <_malloc_r+0x36c>)
1000449c:	9900      	ldr	r1, [sp, #0]
1000449e:	4480      	add	r8, r0
100044a0:	4441      	add	r1, r8
100044a2:	1a9b      	subs	r3, r3, r2
100044a4:	1a5b      	subs	r3, r3, r1
100044a6:	051b      	lsls	r3, r3, #20
100044a8:	0d1b      	lsrs	r3, r3, #20
100044aa:	9100      	str	r1, [sp, #0]
100044ac:	0030      	movs	r0, r6
100044ae:	0019      	movs	r1, r3
100044b0:	469b      	mov	fp, r3
100044b2:	f000 f991 	bl	100047d8 <_sbrk_r>
100044b6:	1c43      	adds	r3, r0, #1
100044b8:	d100      	bne.n	100044bc <_malloc_r+0x284>
100044ba:	e14f      	b.n	1000475c <_malloc_r+0x524>
100044bc:	4643      	mov	r3, r8
100044be:	1ac0      	subs	r0, r0, r3
100044c0:	0003      	movs	r3, r0
100044c2:	445b      	add	r3, fp
100044c4:	9300      	str	r3, [sp, #0]
100044c6:	4653      	mov	r3, sl
100044c8:	4652      	mov	r2, sl
100044ca:	681b      	ldr	r3, [r3, #0]
100044cc:	2101      	movs	r1, #1
100044ce:	445b      	add	r3, fp
100044d0:	6013      	str	r3, [r2, #0]
100044d2:	4642      	mov	r2, r8
100044d4:	4640      	mov	r0, r8
100044d6:	60ba      	str	r2, [r7, #8]
100044d8:	9a00      	ldr	r2, [sp, #0]
100044da:	430a      	orrs	r2, r1
100044dc:	6042      	str	r2, [r0, #4]
100044de:	42bc      	cmp	r4, r7
100044e0:	d100      	bne.n	100044e4 <_malloc_r+0x2ac>
100044e2:	e123      	b.n	1000472c <_malloc_r+0x4f4>
100044e4:	464a      	mov	r2, r9
100044e6:	2a0f      	cmp	r2, #15
100044e8:	d800      	bhi.n	100044ec <_malloc_r+0x2b4>
100044ea:	e121      	b.n	10004730 <_malloc_r+0x4f8>
100044ec:	2007      	movs	r0, #7
100044ee:	3a0c      	subs	r2, #12
100044f0:	4382      	bics	r2, r0
100044f2:	6860      	ldr	r0, [r4, #4]
100044f4:	4001      	ands	r1, r0
100044f6:	2005      	movs	r0, #5
100044f8:	4311      	orrs	r1, r2
100044fa:	6061      	str	r1, [r4, #4]
100044fc:	18a1      	adds	r1, r4, r2
100044fe:	6048      	str	r0, [r1, #4]
10004500:	6088      	str	r0, [r1, #8]
10004502:	2a0f      	cmp	r2, #15
10004504:	d900      	bls.n	10004508 <_malloc_r+0x2d0>
10004506:	e134      	b.n	10004772 <_malloc_r+0x53a>
10004508:	4642      	mov	r2, r8
1000450a:	4644      	mov	r4, r8
1000450c:	6852      	ldr	r2, [r2, #4]
1000450e:	4926      	ldr	r1, [pc, #152]	; (100045a8 <_malloc_r+0x370>)
10004510:	6808      	ldr	r0, [r1, #0]
10004512:	4298      	cmp	r0, r3
10004514:	d200      	bcs.n	10004518 <_malloc_r+0x2e0>
10004516:	600b      	str	r3, [r1, #0]
10004518:	4924      	ldr	r1, [pc, #144]	; (100045ac <_malloc_r+0x374>)
1000451a:	6808      	ldr	r0, [r1, #0]
1000451c:	4298      	cmp	r0, r3
1000451e:	d300      	bcc.n	10004522 <_malloc_r+0x2ea>
10004520:	e08e      	b.n	10004640 <_malloc_r+0x408>
10004522:	600b      	str	r3, [r1, #0]
10004524:	e08c      	b.n	10004640 <_malloc_r+0x408>
10004526:	2201      	movs	r2, #1
10004528:	0029      	movs	r1, r5
1000452a:	4313      	orrs	r3, r2
1000452c:	4311      	orrs	r1, r2
1000452e:	1965      	adds	r5, r4, r5
10004530:	6061      	str	r1, [r4, #4]
10004532:	0030      	movs	r0, r6
10004534:	60bd      	str	r5, [r7, #8]
10004536:	606b      	str	r3, [r5, #4]
10004538:	f000 f946 	bl	100047c8 <__malloc_unlock>
1000453c:	0020      	movs	r0, r4
1000453e:	3008      	adds	r0, #8
10004540:	e73f      	b.n	100043c2 <_malloc_r+0x18a>
10004542:	0a5a      	lsrs	r2, r3, #9
10004544:	2a04      	cmp	r2, #4
10004546:	d971      	bls.n	1000462c <_malloc_r+0x3f4>
10004548:	2a14      	cmp	r2, #20
1000454a:	d900      	bls.n	1000454e <_malloc_r+0x316>
1000454c:	e0c4      	b.n	100046d8 <_malloc_r+0x4a0>
1000454e:	0011      	movs	r1, r2
10004550:	325c      	adds	r2, #92	; 0x5c
10004552:	315b      	adds	r1, #91	; 0x5b
10004554:	00d2      	lsls	r2, r2, #3
10004556:	2308      	movs	r3, #8
10004558:	425b      	negs	r3, r3
1000455a:	469c      	mov	ip, r3
1000455c:	18ba      	adds	r2, r7, r2
1000455e:	4494      	add	ip, r2
10004560:	4663      	mov	r3, ip
10004562:	689a      	ldr	r2, [r3, #8]
10004564:	2303      	movs	r3, #3
10004566:	4698      	mov	r8, r3
10004568:	4594      	cmp	ip, r2
1000456a:	d100      	bne.n	1000456e <_malloc_r+0x336>
1000456c:	e09d      	b.n	100046aa <_malloc_r+0x472>
1000456e:	4643      	mov	r3, r8
10004570:	6851      	ldr	r1, [r2, #4]
10004572:	4399      	bics	r1, r3
10004574:	4549      	cmp	r1, r9
10004576:	d902      	bls.n	1000457e <_malloc_r+0x346>
10004578:	6892      	ldr	r2, [r2, #8]
1000457a:	4594      	cmp	ip, r2
1000457c:	d1f7      	bne.n	1000456e <_malloc_r+0x336>
1000457e:	68d3      	ldr	r3, [r2, #12]
10004580:	469c      	mov	ip, r3
10004582:	687b      	ldr	r3, [r7, #4]
10004584:	4661      	mov	r1, ip
10004586:	60a2      	str	r2, [r4, #8]
10004588:	60e1      	str	r1, [r4, #12]
1000458a:	608c      	str	r4, [r1, #8]
1000458c:	60d4      	str	r4, [r2, #12]
1000458e:	e6d7      	b.n	10004340 <_malloc_r+0x108>
10004590:	20000640 	.word	0x20000640
10004594:	20000a48 	.word	0x20000a48
10004598:	20000ab8 	.word	0x20000ab8
1000459c:	0000100f 	.word	0x0000100f
100045a0:	20000a88 	.word	0x20000a88
100045a4:	00001008 	.word	0x00001008
100045a8:	20000ab0 	.word	0x20000ab0
100045ac:	20000ab4 	.word	0x20000ab4
100045b0:	2814      	cmp	r0, #20
100045b2:	d952      	bls.n	1000465a <_malloc_r+0x422>
100045b4:	2854      	cmp	r0, #84	; 0x54
100045b6:	d900      	bls.n	100045ba <_malloc_r+0x382>
100045b8:	e096      	b.n	100046e8 <_malloc_r+0x4b0>
100045ba:	236e      	movs	r3, #110	; 0x6e
100045bc:	4698      	mov	r8, r3
100045be:	0b28      	lsrs	r0, r5, #12
100045c0:	4480      	add	r8, r0
100045c2:	306f      	adds	r0, #111	; 0x6f
100045c4:	00c1      	lsls	r1, r0, #3
100045c6:	e680      	b.n	100042ca <_malloc_r+0x92>
100045c8:	2308      	movs	r3, #8
100045ca:	469b      	mov	fp, r3
100045cc:	3b07      	subs	r3, #7
100045ce:	44dc      	add	ip, fp
100045d0:	469b      	mov	fp, r3
100045d2:	44da      	add	sl, fp
100045d4:	4643      	mov	r3, r8
100045d6:	4652      	mov	r2, sl
100045d8:	4213      	tst	r3, r2
100045da:	d000      	beq.n	100045de <_malloc_r+0x3a6>
100045dc:	e6c4      	b.n	10004368 <_malloc_r+0x130>
100045de:	e04c      	b.n	1000467a <_malloc_r+0x442>
100045e0:	2201      	movs	r2, #1
100045e2:	18e3      	adds	r3, r4, r3
100045e4:	6859      	ldr	r1, [r3, #4]
100045e6:	0030      	movs	r0, r6
100045e8:	430a      	orrs	r2, r1
100045ea:	605a      	str	r2, [r3, #4]
100045ec:	68e3      	ldr	r3, [r4, #12]
100045ee:	68a2      	ldr	r2, [r4, #8]
100045f0:	60d3      	str	r3, [r2, #12]
100045f2:	609a      	str	r2, [r3, #8]
100045f4:	f000 f8e8 	bl	100047c8 <__malloc_unlock>
100045f8:	0020      	movs	r0, r4
100045fa:	3008      	adds	r0, #8
100045fc:	e6e1      	b.n	100043c2 <_malloc_r+0x18a>
100045fe:	002b      	movs	r3, r5
10004600:	08e8      	lsrs	r0, r5, #3
10004602:	3308      	adds	r3, #8
10004604:	e62c      	b.n	10004260 <_malloc_r+0x28>
10004606:	2301      	movs	r3, #1
10004608:	1960      	adds	r0, r4, r5
1000460a:	431d      	orrs	r5, r3
1000460c:	6065      	str	r5, [r4, #4]
1000460e:	6178      	str	r0, [r7, #20]
10004610:	6138      	str	r0, [r7, #16]
10004612:	60c2      	str	r2, [r0, #12]
10004614:	6082      	str	r2, [r0, #8]
10004616:	001a      	movs	r2, r3
10004618:	464b      	mov	r3, r9
1000461a:	430a      	orrs	r2, r1
1000461c:	6042      	str	r2, [r0, #4]
1000461e:	0030      	movs	r0, r6
10004620:	50e1      	str	r1, [r4, r3]
10004622:	f000 f8d1 	bl	100047c8 <__malloc_unlock>
10004626:	0020      	movs	r0, r4
10004628:	3008      	adds	r0, #8
1000462a:	e6ca      	b.n	100043c2 <_malloc_r+0x18a>
1000462c:	099a      	lsrs	r2, r3, #6
1000462e:	0011      	movs	r1, r2
10004630:	3239      	adds	r2, #57	; 0x39
10004632:	3138      	adds	r1, #56	; 0x38
10004634:	00d2      	lsls	r2, r2, #3
10004636:	e78e      	b.n	10004556 <_malloc_r+0x31e>
10004638:	42bc      	cmp	r4, r7
1000463a:	d060      	beq.n	100046fe <_malloc_r+0x4c6>
1000463c:	68bc      	ldr	r4, [r7, #8]
1000463e:	6862      	ldr	r2, [r4, #4]
10004640:	2303      	movs	r3, #3
10004642:	439a      	bics	r2, r3
10004644:	1b53      	subs	r3, r2, r5
10004646:	4295      	cmp	r5, r2
10004648:	d802      	bhi.n	10004650 <_malloc_r+0x418>
1000464a:	2b0f      	cmp	r3, #15
1000464c:	dd00      	ble.n	10004650 <_malloc_r+0x418>
1000464e:	e76a      	b.n	10004526 <_malloc_r+0x2ee>
10004650:	0030      	movs	r0, r6
10004652:	f000 f8b9 	bl	100047c8 <__malloc_unlock>
10004656:	2000      	movs	r0, #0
10004658:	e6b3      	b.n	100043c2 <_malloc_r+0x18a>
1000465a:	235b      	movs	r3, #91	; 0x5b
1000465c:	4698      	mov	r8, r3
1000465e:	4480      	add	r8, r0
10004660:	305c      	adds	r0, #92	; 0x5c
10004662:	00c1      	lsls	r1, r0, #3
10004664:	e631      	b.n	100042ca <_malloc_r+0x92>
10004666:	2308      	movs	r3, #8
10004668:	425b      	negs	r3, r3
1000466a:	469c      	mov	ip, r3
1000466c:	44e1      	add	r9, ip
1000466e:	464b      	mov	r3, r9
10004670:	689b      	ldr	r3, [r3, #8]
10004672:	3801      	subs	r0, #1
10004674:	454b      	cmp	r3, r9
10004676:	d000      	beq.n	1000467a <_malloc_r+0x442>
10004678:	e098      	b.n	100047ac <_malloc_r+0x574>
1000467a:	4643      	mov	r3, r8
1000467c:	4203      	tst	r3, r0
1000467e:	d1f2      	bne.n	10004666 <_malloc_r+0x42e>
10004680:	687b      	ldr	r3, [r7, #4]
10004682:	438b      	bics	r3, r1
10004684:	607b      	str	r3, [r7, #4]
10004686:	0049      	lsls	r1, r1, #1
10004688:	4299      	cmp	r1, r3
1000468a:	d900      	bls.n	1000468e <_malloc_r+0x456>
1000468c:	e6b7      	b.n	100043fe <_malloc_r+0x1c6>
1000468e:	2900      	cmp	r1, #0
10004690:	d104      	bne.n	1000469c <_malloc_r+0x464>
10004692:	e6b4      	b.n	100043fe <_malloc_r+0x1c6>
10004694:	2204      	movs	r2, #4
10004696:	4694      	mov	ip, r2
10004698:	0049      	lsls	r1, r1, #1
1000469a:	44e2      	add	sl, ip
1000469c:	420b      	tst	r3, r1
1000469e:	d0f9      	beq.n	10004694 <_malloc_r+0x45c>
100046a0:	4650      	mov	r0, sl
100046a2:	e65c      	b.n	1000435e <_malloc_r+0x126>
100046a4:	3310      	adds	r3, #16
100046a6:	9300      	str	r3, [sp, #0]
100046a8:	e6c6      	b.n	10004438 <_malloc_r+0x200>
100046aa:	1089      	asrs	r1, r1, #2
100046ac:	3b02      	subs	r3, #2
100046ae:	408b      	lsls	r3, r1
100046b0:	6879      	ldr	r1, [r7, #4]
100046b2:	430b      	orrs	r3, r1
100046b4:	607b      	str	r3, [r7, #4]
100046b6:	e765      	b.n	10004584 <_malloc_r+0x34c>
100046b8:	9b00      	ldr	r3, [sp, #0]
100046ba:	0030      	movs	r0, r6
100046bc:	4443      	add	r3, r8
100046be:	425b      	negs	r3, r3
100046c0:	051b      	lsls	r3, r3, #20
100046c2:	0d1b      	lsrs	r3, r3, #20
100046c4:	0019      	movs	r1, r3
100046c6:	469b      	mov	fp, r3
100046c8:	f000 f886 	bl	100047d8 <_sbrk_r>
100046cc:	1c43      	adds	r3, r0, #1
100046ce:	d000      	beq.n	100046d2 <_malloc_r+0x49a>
100046d0:	e6f4      	b.n	100044bc <_malloc_r+0x284>
100046d2:	2300      	movs	r3, #0
100046d4:	469b      	mov	fp, r3
100046d6:	e6f6      	b.n	100044c6 <_malloc_r+0x28e>
100046d8:	2a54      	cmp	r2, #84	; 0x54
100046da:	d82b      	bhi.n	10004734 <_malloc_r+0x4fc>
100046dc:	0b1a      	lsrs	r2, r3, #12
100046de:	0011      	movs	r1, r2
100046e0:	326f      	adds	r2, #111	; 0x6f
100046e2:	316e      	adds	r1, #110	; 0x6e
100046e4:	00d2      	lsls	r2, r2, #3
100046e6:	e736      	b.n	10004556 <_malloc_r+0x31e>
100046e8:	23aa      	movs	r3, #170	; 0xaa
100046ea:	005b      	lsls	r3, r3, #1
100046ec:	4298      	cmp	r0, r3
100046ee:	d82b      	bhi.n	10004748 <_malloc_r+0x510>
100046f0:	3bdd      	subs	r3, #221	; 0xdd
100046f2:	4698      	mov	r8, r3
100046f4:	0be8      	lsrs	r0, r5, #15
100046f6:	4480      	add	r8, r0
100046f8:	3078      	adds	r0, #120	; 0x78
100046fa:	00c1      	lsls	r1, r0, #3
100046fc:	e5e5      	b.n	100042ca <_malloc_r+0x92>
100046fe:	4b2c      	ldr	r3, [pc, #176]	; (100047b0 <_malloc_r+0x578>)
10004700:	9a00      	ldr	r2, [sp, #0]
10004702:	469a      	mov	sl, r3
10004704:	681b      	ldr	r3, [r3, #0]
10004706:	469c      	mov	ip, r3
10004708:	4653      	mov	r3, sl
1000470a:	4462      	add	r2, ip
1000470c:	601a      	str	r2, [r3, #0]
1000470e:	e6ae      	b.n	1000446e <_malloc_r+0x236>
10004710:	0509      	lsls	r1, r1, #20
10004712:	d000      	beq.n	10004716 <_malloc_r+0x4de>
10004714:	e6ab      	b.n	1000446e <_malloc_r+0x236>
10004716:	9a00      	ldr	r2, [sp, #0]
10004718:	68bc      	ldr	r4, [r7, #8]
1000471a:	444a      	add	r2, r9
1000471c:	3101      	adds	r1, #1
1000471e:	430a      	orrs	r2, r1
10004720:	6062      	str	r2, [r4, #4]
10004722:	e6f4      	b.n	1000450e <_malloc_r+0x2d6>
10004724:	465b      	mov	r3, fp
10004726:	4642      	mov	r2, r8
10004728:	601a      	str	r2, [r3, #0]
1000472a:	e6ab      	b.n	10004484 <_malloc_r+0x24c>
1000472c:	4644      	mov	r4, r8
1000472e:	e6ee      	b.n	1000450e <_malloc_r+0x2d6>
10004730:	6041      	str	r1, [r0, #4]
10004732:	e78d      	b.n	10004650 <_malloc_r+0x418>
10004734:	21aa      	movs	r1, #170	; 0xaa
10004736:	0049      	lsls	r1, r1, #1
10004738:	428a      	cmp	r2, r1
1000473a:	d824      	bhi.n	10004786 <_malloc_r+0x54e>
1000473c:	0bda      	lsrs	r2, r3, #15
1000473e:	0011      	movs	r1, r2
10004740:	3278      	adds	r2, #120	; 0x78
10004742:	3177      	adds	r1, #119	; 0x77
10004744:	00d2      	lsls	r2, r2, #3
10004746:	e706      	b.n	10004556 <_malloc_r+0x31e>
10004748:	4b1a      	ldr	r3, [pc, #104]	; (100047b4 <_malloc_r+0x57c>)
1000474a:	4298      	cmp	r0, r3
1000474c:	d824      	bhi.n	10004798 <_malloc_r+0x560>
1000474e:	237c      	movs	r3, #124	; 0x7c
10004750:	4698      	mov	r8, r3
10004752:	0ca8      	lsrs	r0, r5, #18
10004754:	4480      	add	r8, r0
10004756:	307d      	adds	r0, #125	; 0x7d
10004758:	00c1      	lsls	r1, r0, #3
1000475a:	e5b6      	b.n	100042ca <_malloc_r+0x92>
1000475c:	9a00      	ldr	r2, [sp, #0]
1000475e:	9b01      	ldr	r3, [sp, #4]
10004760:	4694      	mov	ip, r2
10004762:	4642      	mov	r2, r8
10004764:	3b08      	subs	r3, #8
10004766:	4463      	add	r3, ip
10004768:	1a9b      	subs	r3, r3, r2
1000476a:	9300      	str	r3, [sp, #0]
1000476c:	2300      	movs	r3, #0
1000476e:	469b      	mov	fp, r3
10004770:	e6a9      	b.n	100044c6 <_malloc_r+0x28e>
10004772:	0021      	movs	r1, r4
10004774:	0030      	movs	r0, r6
10004776:	3108      	adds	r1, #8
10004778:	f000 f8bc 	bl	100048f4 <_free_r>
1000477c:	4653      	mov	r3, sl
1000477e:	68bc      	ldr	r4, [r7, #8]
10004780:	681b      	ldr	r3, [r3, #0]
10004782:	6862      	ldr	r2, [r4, #4]
10004784:	e6c3      	b.n	1000450e <_malloc_r+0x2d6>
10004786:	490b      	ldr	r1, [pc, #44]	; (100047b4 <_malloc_r+0x57c>)
10004788:	428a      	cmp	r2, r1
1000478a:	d80b      	bhi.n	100047a4 <_malloc_r+0x56c>
1000478c:	0c9a      	lsrs	r2, r3, #18
1000478e:	0011      	movs	r1, r2
10004790:	327d      	adds	r2, #125	; 0x7d
10004792:	317c      	adds	r1, #124	; 0x7c
10004794:	00d2      	lsls	r2, r2, #3
10004796:	e6de      	b.n	10004556 <_malloc_r+0x31e>
10004798:	21fe      	movs	r1, #254	; 0xfe
1000479a:	237e      	movs	r3, #126	; 0x7e
1000479c:	207f      	movs	r0, #127	; 0x7f
1000479e:	4698      	mov	r8, r3
100047a0:	0089      	lsls	r1, r1, #2
100047a2:	e592      	b.n	100042ca <_malloc_r+0x92>
100047a4:	22fe      	movs	r2, #254	; 0xfe
100047a6:	217e      	movs	r1, #126	; 0x7e
100047a8:	0092      	lsls	r2, r2, #2
100047aa:	e6d4      	b.n	10004556 <_malloc_r+0x31e>
100047ac:	687b      	ldr	r3, [r7, #4]
100047ae:	e76a      	b.n	10004686 <_malloc_r+0x44e>
100047b0:	20000a88 	.word	0x20000a88
100047b4:	00000554 	.word	0x00000554

100047b8 <__malloc_lock>:
100047b8:	b510      	push	{r4, lr}
100047ba:	4802      	ldr	r0, [pc, #8]	; (100047c4 <__malloc_lock+0xc>)
100047bc:	f000 f97c 	bl	10004ab8 <__retarget_lock_acquire_recursive>
100047c0:	bd10      	pop	{r4, pc}
100047c2:	46c0      	nop			; (mov r8, r8)
100047c4:	20000dcc 	.word	0x20000dcc

100047c8 <__malloc_unlock>:
100047c8:	b510      	push	{r4, lr}
100047ca:	4802      	ldr	r0, [pc, #8]	; (100047d4 <__malloc_unlock+0xc>)
100047cc:	f000 f976 	bl	10004abc <__retarget_lock_release_recursive>
100047d0:	bd10      	pop	{r4, pc}
100047d2:	46c0      	nop			; (mov r8, r8)
100047d4:	20000dcc 	.word	0x20000dcc

100047d8 <_sbrk_r>:
100047d8:	2300      	movs	r3, #0
100047da:	b570      	push	{r4, r5, r6, lr}
100047dc:	4d06      	ldr	r5, [pc, #24]	; (100047f8 <_sbrk_r+0x20>)
100047de:	0004      	movs	r4, r0
100047e0:	0008      	movs	r0, r1
100047e2:	602b      	str	r3, [r5, #0]
100047e4:	f7fc fce4 	bl	100011b0 <_sbrk>
100047e8:	1c43      	adds	r3, r0, #1
100047ea:	d000      	beq.n	100047ee <_sbrk_r+0x16>
100047ec:	bd70      	pop	{r4, r5, r6, pc}
100047ee:	682b      	ldr	r3, [r5, #0]
100047f0:	2b00      	cmp	r3, #0
100047f2:	d0fb      	beq.n	100047ec <_sbrk_r+0x14>
100047f4:	6023      	str	r3, [r4, #0]
100047f6:	e7f9      	b.n	100047ec <_sbrk_r+0x14>
100047f8:	20000de0 	.word	0x20000de0

100047fc <strlen>:
100047fc:	b510      	push	{r4, lr}
100047fe:	0783      	lsls	r3, r0, #30
10004800:	d00a      	beq.n	10004818 <strlen+0x1c>
10004802:	0003      	movs	r3, r0
10004804:	2103      	movs	r1, #3
10004806:	e002      	b.n	1000480e <strlen+0x12>
10004808:	3301      	adds	r3, #1
1000480a:	420b      	tst	r3, r1
1000480c:	d005      	beq.n	1000481a <strlen+0x1e>
1000480e:	781a      	ldrb	r2, [r3, #0]
10004810:	2a00      	cmp	r2, #0
10004812:	d1f9      	bne.n	10004808 <strlen+0xc>
10004814:	1a18      	subs	r0, r3, r0
10004816:	bd10      	pop	{r4, pc}
10004818:	0003      	movs	r3, r0
1000481a:	6819      	ldr	r1, [r3, #0]
1000481c:	4a0c      	ldr	r2, [pc, #48]	; (10004850 <strlen+0x54>)
1000481e:	4c0d      	ldr	r4, [pc, #52]	; (10004854 <strlen+0x58>)
10004820:	188a      	adds	r2, r1, r2
10004822:	438a      	bics	r2, r1
10004824:	4222      	tst	r2, r4
10004826:	d10f      	bne.n	10004848 <strlen+0x4c>
10004828:	6859      	ldr	r1, [r3, #4]
1000482a:	4a09      	ldr	r2, [pc, #36]	; (10004850 <strlen+0x54>)
1000482c:	3304      	adds	r3, #4
1000482e:	188a      	adds	r2, r1, r2
10004830:	438a      	bics	r2, r1
10004832:	4222      	tst	r2, r4
10004834:	d108      	bne.n	10004848 <strlen+0x4c>
10004836:	6859      	ldr	r1, [r3, #4]
10004838:	4a05      	ldr	r2, [pc, #20]	; (10004850 <strlen+0x54>)
1000483a:	3304      	adds	r3, #4
1000483c:	188a      	adds	r2, r1, r2
1000483e:	438a      	bics	r2, r1
10004840:	4222      	tst	r2, r4
10004842:	d0f1      	beq.n	10004828 <strlen+0x2c>
10004844:	e000      	b.n	10004848 <strlen+0x4c>
10004846:	3301      	adds	r3, #1
10004848:	781a      	ldrb	r2, [r3, #0]
1000484a:	2a00      	cmp	r2, #0
1000484c:	d1fb      	bne.n	10004846 <strlen+0x4a>
1000484e:	e7e1      	b.n	10004814 <strlen+0x18>
10004850:	fefefeff 	.word	0xfefefeff
10004854:	80808080 	.word	0x80808080

10004858 <_malloc_trim_r>:
10004858:	b5f8      	push	{r3, r4, r5, r6, r7, lr}
1000485a:	000c      	movs	r4, r1
1000485c:	0005      	movs	r5, r0
1000485e:	f7ff ffab 	bl	100047b8 <__malloc_lock>
10004862:	4f20      	ldr	r7, [pc, #128]	; (100048e4 <_malloc_trim_r+0x8c>)
10004864:	68bb      	ldr	r3, [r7, #8]
10004866:	685e      	ldr	r6, [r3, #4]
10004868:	2303      	movs	r3, #3
1000486a:	439e      	bics	r6, r3
1000486c:	4b1e      	ldr	r3, [pc, #120]	; (100048e8 <_malloc_trim_r+0x90>)
1000486e:	1b34      	subs	r4, r6, r4
10004870:	469c      	mov	ip, r3
10004872:	4464      	add	r4, ip
10004874:	0b24      	lsrs	r4, r4, #12
10004876:	3c01      	subs	r4, #1
10004878:	3311      	adds	r3, #17
1000487a:	0324      	lsls	r4, r4, #12
1000487c:	429c      	cmp	r4, r3
1000487e:	db07      	blt.n	10004890 <_malloc_trim_r+0x38>
10004880:	2100      	movs	r1, #0
10004882:	0028      	movs	r0, r5
10004884:	f7ff ffa8 	bl	100047d8 <_sbrk_r>
10004888:	68bb      	ldr	r3, [r7, #8]
1000488a:	199b      	adds	r3, r3, r6
1000488c:	4298      	cmp	r0, r3
1000488e:	d004      	beq.n	1000489a <_malloc_trim_r+0x42>
10004890:	0028      	movs	r0, r5
10004892:	f7ff ff99 	bl	100047c8 <__malloc_unlock>
10004896:	2000      	movs	r0, #0
10004898:	bdf8      	pop	{r3, r4, r5, r6, r7, pc}
1000489a:	0028      	movs	r0, r5
1000489c:	4261      	negs	r1, r4
1000489e:	f7ff ff9b 	bl	100047d8 <_sbrk_r>
100048a2:	1c43      	adds	r3, r0, #1
100048a4:	d00d      	beq.n	100048c2 <_malloc_trim_r+0x6a>
100048a6:	2201      	movs	r2, #1
100048a8:	68bb      	ldr	r3, [r7, #8]
100048aa:	1b36      	subs	r6, r6, r4
100048ac:	4316      	orrs	r6, r2
100048ae:	605e      	str	r6, [r3, #4]
100048b0:	4b0e      	ldr	r3, [pc, #56]	; (100048ec <_malloc_trim_r+0x94>)
100048b2:	0028      	movs	r0, r5
100048b4:	681a      	ldr	r2, [r3, #0]
100048b6:	1b14      	subs	r4, r2, r4
100048b8:	601c      	str	r4, [r3, #0]
100048ba:	f7ff ff85 	bl	100047c8 <__malloc_unlock>
100048be:	2001      	movs	r0, #1
100048c0:	e7ea      	b.n	10004898 <_malloc_trim_r+0x40>
100048c2:	2100      	movs	r1, #0
100048c4:	0028      	movs	r0, r5
100048c6:	f7ff ff87 	bl	100047d8 <_sbrk_r>
100048ca:	68ba      	ldr	r2, [r7, #8]
100048cc:	1a83      	subs	r3, r0, r2
100048ce:	2b0f      	cmp	r3, #15
100048d0:	ddde      	ble.n	10004890 <_malloc_trim_r+0x38>
100048d2:	4907      	ldr	r1, [pc, #28]	; (100048f0 <_malloc_trim_r+0x98>)
100048d4:	6809      	ldr	r1, [r1, #0]
100048d6:	1a40      	subs	r0, r0, r1
100048d8:	4904      	ldr	r1, [pc, #16]	; (100048ec <_malloc_trim_r+0x94>)
100048da:	6008      	str	r0, [r1, #0]
100048dc:	2101      	movs	r1, #1
100048de:	430b      	orrs	r3, r1
100048e0:	6053      	str	r3, [r2, #4]
100048e2:	e7d5      	b.n	10004890 <_malloc_trim_r+0x38>
100048e4:	20000640 	.word	0x20000640
100048e8:	00000fef 	.word	0x00000fef
100048ec:	20000a88 	.word	0x20000a88
100048f0:	20000a48 	.word	0x20000a48

100048f4 <_free_r>:
100048f4:	b5f0      	push	{r4, r5, r6, r7, lr}
100048f6:	46c6      	mov	lr, r8
100048f8:	0005      	movs	r5, r0
100048fa:	000c      	movs	r4, r1
100048fc:	b500      	push	{lr}
100048fe:	2900      	cmp	r1, #0
10004900:	d04f      	beq.n	100049a2 <_free_r+0xae>
10004902:	f7ff ff59 	bl	100047b8 <__malloc_lock>
10004906:	0021      	movs	r1, r4
10004908:	3908      	subs	r1, #8
1000490a:	684c      	ldr	r4, [r1, #4]
1000490c:	2601      	movs	r6, #1
1000490e:	0022      	movs	r2, r4
10004910:	2003      	movs	r0, #3
10004912:	43b2      	bics	r2, r6
10004914:	188f      	adds	r7, r1, r2
10004916:	687b      	ldr	r3, [r7, #4]
10004918:	4383      	bics	r3, r0
1000491a:	4862      	ldr	r0, [pc, #392]	; (10004aa4 <_free_r+0x1b0>)
1000491c:	4698      	mov	r8, r3
1000491e:	6883      	ldr	r3, [r0, #8]
10004920:	42bb      	cmp	r3, r7
10004922:	d06b      	beq.n	100049fc <_free_r+0x108>
10004924:	4643      	mov	r3, r8
10004926:	607b      	str	r3, [r7, #4]
10004928:	4226      	tst	r6, r4
1000492a:	d11e      	bne.n	1000496a <_free_r+0x76>
1000492c:	2308      	movs	r3, #8
1000492e:	469c      	mov	ip, r3
10004930:	680c      	ldr	r4, [r1, #0]
10004932:	4484      	add	ip, r0
10004934:	1b09      	subs	r1, r1, r4
10004936:	1912      	adds	r2, r2, r4
10004938:	688c      	ldr	r4, [r1, #8]
1000493a:	4564      	cmp	r4, ip
1000493c:	d04f      	beq.n	100049de <_free_r+0xea>
1000493e:	68cb      	ldr	r3, [r1, #12]
10004940:	60e3      	str	r3, [r4, #12]
10004942:	609c      	str	r4, [r3, #8]
10004944:	4643      	mov	r3, r8
10004946:	18fc      	adds	r4, r7, r3
10004948:	6864      	ldr	r4, [r4, #4]
1000494a:	4234      	tst	r4, r6
1000494c:	d111      	bne.n	10004972 <_free_r+0x7e>
1000494e:	68bb      	ldr	r3, [r7, #8]
10004950:	4c55      	ldr	r4, [pc, #340]	; (10004aa8 <_free_r+0x1b4>)
10004952:	4442      	add	r2, r8
10004954:	42a3      	cmp	r3, r4
10004956:	d100      	bne.n	1000495a <_free_r+0x66>
10004958:	e07f      	b.n	10004a5a <_free_r+0x166>
1000495a:	68fc      	ldr	r4, [r7, #12]
1000495c:	60dc      	str	r4, [r3, #12]
1000495e:	60a3      	str	r3, [r4, #8]
10004960:	2301      	movs	r3, #1
10004962:	4313      	orrs	r3, r2
10004964:	604b      	str	r3, [r1, #4]
10004966:	508a      	str	r2, [r1, r2]
10004968:	e006      	b.n	10004978 <_free_r+0x84>
1000496a:	18fc      	adds	r4, r7, r3
1000496c:	6864      	ldr	r4, [r4, #4]
1000496e:	4234      	tst	r4, r6
10004970:	d0ed      	beq.n	1000494e <_free_r+0x5a>
10004972:	4316      	orrs	r6, r2
10004974:	604e      	str	r6, [r1, #4]
10004976:	603a      	str	r2, [r7, #0]
10004978:	2380      	movs	r3, #128	; 0x80
1000497a:	009b      	lsls	r3, r3, #2
1000497c:	429a      	cmp	r2, r3
1000497e:	d213      	bcs.n	100049a8 <_free_r+0xb4>
10004980:	0954      	lsrs	r4, r2, #5
10004982:	08d3      	lsrs	r3, r2, #3
10004984:	2201      	movs	r2, #1
10004986:	40a2      	lsls	r2, r4
10004988:	6844      	ldr	r4, [r0, #4]
1000498a:	00db      	lsls	r3, r3, #3
1000498c:	4322      	orrs	r2, r4
1000498e:	6042      	str	r2, [r0, #4]
10004990:	1818      	adds	r0, r3, r0
10004992:	6883      	ldr	r3, [r0, #8]
10004994:	60c8      	str	r0, [r1, #12]
10004996:	608b      	str	r3, [r1, #8]
10004998:	6081      	str	r1, [r0, #8]
1000499a:	60d9      	str	r1, [r3, #12]
1000499c:	0028      	movs	r0, r5
1000499e:	f7ff ff13 	bl	100047c8 <__malloc_unlock>
100049a2:	bc04      	pop	{r2}
100049a4:	4690      	mov	r8, r2
100049a6:	bdf0      	pop	{r4, r5, r6, r7, pc}
100049a8:	0a53      	lsrs	r3, r2, #9
100049aa:	2b04      	cmp	r3, #4
100049ac:	d83f      	bhi.n	10004a2e <_free_r+0x13a>
100049ae:	0994      	lsrs	r4, r2, #6
100049b0:	0026      	movs	r6, r4
100049b2:	3439      	adds	r4, #57	; 0x39
100049b4:	3638      	adds	r6, #56	; 0x38
100049b6:	00e4      	lsls	r4, r4, #3
100049b8:	1904      	adds	r4, r0, r4
100049ba:	6823      	ldr	r3, [r4, #0]
100049bc:	3c08      	subs	r4, #8
100049be:	2703      	movs	r7, #3
100049c0:	429c      	cmp	r4, r3
100049c2:	d043      	beq.n	10004a4c <_free_r+0x158>
100049c4:	6858      	ldr	r0, [r3, #4]
100049c6:	43b8      	bics	r0, r7
100049c8:	4290      	cmp	r0, r2
100049ca:	d902      	bls.n	100049d2 <_free_r+0xde>
100049cc:	689b      	ldr	r3, [r3, #8]
100049ce:	429c      	cmp	r4, r3
100049d0:	d1f8      	bne.n	100049c4 <_free_r+0xd0>
100049d2:	68dc      	ldr	r4, [r3, #12]
100049d4:	60cc      	str	r4, [r1, #12]
100049d6:	608b      	str	r3, [r1, #8]
100049d8:	60a1      	str	r1, [r4, #8]
100049da:	60d9      	str	r1, [r3, #12]
100049dc:	e7de      	b.n	1000499c <_free_r+0xa8>
100049de:	4643      	mov	r3, r8
100049e0:	18f8      	adds	r0, r7, r3
100049e2:	6840      	ldr	r0, [r0, #4]
100049e4:	4230      	tst	r0, r6
100049e6:	d158      	bne.n	10004a9a <_free_r+0x1a6>
100049e8:	0013      	movs	r3, r2
100049ea:	68b8      	ldr	r0, [r7, #8]
100049ec:	68fa      	ldr	r2, [r7, #12]
100049ee:	4443      	add	r3, r8
100049f0:	431e      	orrs	r6, r3
100049f2:	60c2      	str	r2, [r0, #12]
100049f4:	6090      	str	r0, [r2, #8]
100049f6:	604e      	str	r6, [r1, #4]
100049f8:	50cb      	str	r3, [r1, r3]
100049fa:	e7cf      	b.n	1000499c <_free_r+0xa8>
100049fc:	0013      	movs	r3, r2
100049fe:	4443      	add	r3, r8
10004a00:	4226      	tst	r6, r4
10004a02:	d106      	bne.n	10004a12 <_free_r+0x11e>
10004a04:	680a      	ldr	r2, [r1, #0]
10004a06:	1a89      	subs	r1, r1, r2
10004a08:	688c      	ldr	r4, [r1, #8]
10004a0a:	189b      	adds	r3, r3, r2
10004a0c:	68ca      	ldr	r2, [r1, #12]
10004a0e:	60e2      	str	r2, [r4, #12]
10004a10:	6094      	str	r4, [r2, #8]
10004a12:	2201      	movs	r2, #1
10004a14:	431a      	orrs	r2, r3
10004a16:	604a      	str	r2, [r1, #4]
10004a18:	4a24      	ldr	r2, [pc, #144]	; (10004aac <_free_r+0x1b8>)
10004a1a:	6081      	str	r1, [r0, #8]
10004a1c:	6812      	ldr	r2, [r2, #0]
10004a1e:	429a      	cmp	r2, r3
10004a20:	d8bc      	bhi.n	1000499c <_free_r+0xa8>
10004a22:	4b23      	ldr	r3, [pc, #140]	; (10004ab0 <_free_r+0x1bc>)
10004a24:	0028      	movs	r0, r5
10004a26:	6819      	ldr	r1, [r3, #0]
10004a28:	f7ff ff16 	bl	10004858 <_malloc_trim_r>
10004a2c:	e7b6      	b.n	1000499c <_free_r+0xa8>
10004a2e:	2b14      	cmp	r3, #20
10004a30:	d907      	bls.n	10004a42 <_free_r+0x14e>
10004a32:	2b54      	cmp	r3, #84	; 0x54
10004a34:	d81a      	bhi.n	10004a6c <_free_r+0x178>
10004a36:	0b14      	lsrs	r4, r2, #12
10004a38:	0026      	movs	r6, r4
10004a3a:	346f      	adds	r4, #111	; 0x6f
10004a3c:	366e      	adds	r6, #110	; 0x6e
10004a3e:	00e4      	lsls	r4, r4, #3
10004a40:	e7ba      	b.n	100049b8 <_free_r+0xc4>
10004a42:	001e      	movs	r6, r3
10004a44:	335c      	adds	r3, #92	; 0x5c
10004a46:	365b      	adds	r6, #91	; 0x5b
10004a48:	00dc      	lsls	r4, r3, #3
10004a4a:	e7b5      	b.n	100049b8 <_free_r+0xc4>
10004a4c:	2201      	movs	r2, #1
10004a4e:	10b6      	asrs	r6, r6, #2
10004a50:	40b2      	lsls	r2, r6
10004a52:	6846      	ldr	r6, [r0, #4]
10004a54:	4332      	orrs	r2, r6
10004a56:	6042      	str	r2, [r0, #4]
10004a58:	e7bc      	b.n	100049d4 <_free_r+0xe0>
10004a5a:	60d9      	str	r1, [r3, #12]
10004a5c:	6099      	str	r1, [r3, #8]
10004a5e:	60cb      	str	r3, [r1, #12]
10004a60:	608b      	str	r3, [r1, #8]
10004a62:	2301      	movs	r3, #1
10004a64:	4313      	orrs	r3, r2
10004a66:	604b      	str	r3, [r1, #4]
10004a68:	508a      	str	r2, [r1, r2]
10004a6a:	e797      	b.n	1000499c <_free_r+0xa8>
10004a6c:	24aa      	movs	r4, #170	; 0xaa
10004a6e:	0064      	lsls	r4, r4, #1
10004a70:	42a3      	cmp	r3, r4
10004a72:	d805      	bhi.n	10004a80 <_free_r+0x18c>
10004a74:	0bd4      	lsrs	r4, r2, #15
10004a76:	0026      	movs	r6, r4
10004a78:	3478      	adds	r4, #120	; 0x78
10004a7a:	3677      	adds	r6, #119	; 0x77
10004a7c:	00e4      	lsls	r4, r4, #3
10004a7e:	e79b      	b.n	100049b8 <_free_r+0xc4>
10004a80:	4c0c      	ldr	r4, [pc, #48]	; (10004ab4 <_free_r+0x1c0>)
10004a82:	42a3      	cmp	r3, r4
10004a84:	d805      	bhi.n	10004a92 <_free_r+0x19e>
10004a86:	0c94      	lsrs	r4, r2, #18
10004a88:	0026      	movs	r6, r4
10004a8a:	347d      	adds	r4, #125	; 0x7d
10004a8c:	367c      	adds	r6, #124	; 0x7c
10004a8e:	00e4      	lsls	r4, r4, #3
10004a90:	e792      	b.n	100049b8 <_free_r+0xc4>
10004a92:	24fe      	movs	r4, #254	; 0xfe
10004a94:	267e      	movs	r6, #126	; 0x7e
10004a96:	00a4      	lsls	r4, r4, #2
10004a98:	e78e      	b.n	100049b8 <_free_r+0xc4>
10004a9a:	0033      	movs	r3, r6
10004a9c:	4313      	orrs	r3, r2
10004a9e:	604b      	str	r3, [r1, #4]
10004aa0:	603a      	str	r2, [r7, #0]
10004aa2:	e77b      	b.n	1000499c <_free_r+0xa8>
10004aa4:	20000640 	.word	0x20000640
10004aa8:	20000648 	.word	0x20000648
10004aac:	20000a4c 	.word	0x20000a4c
10004ab0:	20000ab8 	.word	0x20000ab8
10004ab4:	00000554 	.word	0x00000554

10004ab8 <__retarget_lock_acquire_recursive>:
10004ab8:	4770      	bx	lr
10004aba:	46c0      	nop			; (mov r8, r8)

10004abc <__retarget_lock_release_recursive>:
10004abc:	4770      	bx	lr
10004abe:	46c0      	nop			; (mov r8, r8)

10004ac0 <_fini>:
10004ac0:	b5f8      	push	{r3, r4, r5, r6, r7, lr}
10004ac2:	46c0      	nop			; (mov r8, r8)
10004ac4:	0000      	movs	r0, r0
	...

10004ac8 <__mutex_exit_veneer>:
10004ac8:	b401      	push	{r0}
10004aca:	4802      	ldr	r0, [pc, #8]	; (10004ad4 <__mutex_exit_veneer+0xc>)
10004acc:	4684      	mov	ip, r0
10004ace:	bc01      	pop	{r0}
10004ad0:	4760      	bx	ip
10004ad2:	bf00      	nop
10004ad4:	2000015d 	.word	0x2000015d

10004ad8 <____aeabi_ldiv0_veneer>:
10004ad8:	b401      	push	{r0}
10004ada:	4802      	ldr	r0, [pc, #8]	; (10004ae4 <____aeabi_ldiv0_veneer+0xc>)
10004adc:	4684      	mov	ip, r0
10004ade:	bc01      	pop	{r0}
10004ae0:	4760      	bx	ip
10004ae2:	bf00      	nop
10004ae4:	20000185 	.word	0x20000185

10004ae8 <____aeabi_idiv0_veneer>:
10004ae8:	b401      	push	{r0}
10004aea:	4802      	ldr	r0, [pc, #8]	; (10004af4 <____aeabi_idiv0_veneer+0xc>)
10004aec:	4684      	mov	ip, r0
10004aee:	bc01      	pop	{r0}
10004af0:	4760      	bx	ip
10004af2:	bf00      	nop
10004af4:	20000185 	.word	0x20000185

10004af8 <__mutex_try_enter_veneer>:
10004af8:	b401      	push	{r0}
10004afa:	4802      	ldr	r0, [pc, #8]	; (10004b04 <__mutex_try_enter_veneer+0xc>)
10004afc:	4684      	mov	ip, r0
10004afe:	bc01      	pop	{r0}
10004b00:	4760      	bx	ip
10004b02:	bf00      	nop
10004b04:	20000111 	.word	0x20000111

10004b08 <__mutex_enter_blocking_veneer>:
10004b08:	b401      	push	{r0}
10004b0a:	4802      	ldr	r0, [pc, #8]	; (10004b14 <__mutex_enter_blocking_veneer+0xc>)
10004b0c:	4684      	mov	ip, r0
10004b0e:	bc01      	pop	{r0}
10004b10:	4760      	bx	ip
10004b12:	bf00      	nop
10004b14:	200000c1 	.word	0x200000c1

Disassembly of section .data:

200000c0 <mutex_enter_blocking>:
200000c0:	b510      	push	{r4, lr}
200000c2:	6802      	ldr	r2, [r0, #0]
200000c4:	2400      	movs	r4, #0
200000c6:	f3ef 8110 	mrs	r1, PRIMASK
200000ca:	b672      	cpsid	i
200000cc:	6813      	ldr	r3, [r2, #0]
200000ce:	2b00      	cmp	r3, #0
200000d0:	d0fc      	beq.n	200000cc <mutex_enter_blocking+0xc>
200000d2:	f3bf 8f5f 	dmb	sy
200000d6:	7903      	ldrb	r3, [r0, #4]
200000d8:	2b00      	cmp	r3, #0
200000da:	d00b      	beq.n	200000f4 <mutex_enter_blocking+0x34>
200000dc:	6803      	ldr	r3, [r0, #0]
200000de:	f3bf 8f5f 	dmb	sy
200000e2:	601c      	str	r4, [r3, #0]
200000e4:	f381 8810 	msr	PRIMASK, r1
200000e8:	bf20      	wfe
200000ea:	6802      	ldr	r2, [r0, #0]
200000ec:	f3ef 8110 	mrs	r1, PRIMASK
200000f0:	b672      	cpsid	i
200000f2:	e7eb      	b.n	200000cc <mutex_enter_blocking+0xc>
200000f4:	2201      	movs	r2, #1
200000f6:	7102      	strb	r2, [r0, #4]
200000f8:	22d0      	movs	r2, #208	; 0xd0
200000fa:	0612      	lsls	r2, r2, #24
200000fc:	6812      	ldr	r2, [r2, #0]
200000fe:	7142      	strb	r2, [r0, #5]
20000100:	6802      	ldr	r2, [r0, #0]
20000102:	f3bf 8f5f 	dmb	sy
20000106:	6013      	str	r3, [r2, #0]
20000108:	f381 8810 	msr	PRIMASK, r1
2000010c:	bd10      	pop	{r4, pc}
2000010e:	46c0      	nop			; (mov r8, r8)

20000110 <mutex_try_enter>:
20000110:	0003      	movs	r3, r0
20000112:	b510      	push	{r4, lr}
20000114:	6800      	ldr	r0, [r0, #0]
20000116:	f3ef 8410 	mrs	r4, PRIMASK
2000011a:	b672      	cpsid	i
2000011c:	6802      	ldr	r2, [r0, #0]
2000011e:	2a00      	cmp	r2, #0
20000120:	d0fc      	beq.n	2000011c <mutex_try_enter+0xc>
20000122:	f3bf 8f5f 	dmb	sy
20000126:	791a      	ldrb	r2, [r3, #4]
20000128:	2a00      	cmp	r2, #0
2000012a:	d00d      	beq.n	20000148 <mutex_try_enter+0x38>
2000012c:	2900      	cmp	r1, #0
2000012e:	d013      	beq.n	20000158 <mutex_try_enter+0x48>
20000130:	2205      	movs	r2, #5
20000132:	2000      	movs	r0, #0
20000134:	569a      	ldrsb	r2, [r3, r2]
20000136:	600a      	str	r2, [r1, #0]
20000138:	681b      	ldr	r3, [r3, #0]
2000013a:	f3bf 8f5f 	dmb	sy
2000013e:	2200      	movs	r2, #0
20000140:	601a      	str	r2, [r3, #0]
20000142:	f384 8810 	msr	PRIMASK, r4
20000146:	bd10      	pop	{r4, pc}
20000148:	3201      	adds	r2, #1
2000014a:	711a      	strb	r2, [r3, #4]
2000014c:	22d0      	movs	r2, #208	; 0xd0
2000014e:	0612      	lsls	r2, r2, #24
20000150:	6812      	ldr	r2, [r2, #0]
20000152:	2001      	movs	r0, #1
20000154:	715a      	strb	r2, [r3, #5]
20000156:	e7ef      	b.n	20000138 <mutex_try_enter+0x28>
20000158:	2000      	movs	r0, #0
2000015a:	e7ed      	b.n	20000138 <mutex_try_enter+0x28>

2000015c <mutex_exit>:
2000015c:	6802      	ldr	r2, [r0, #0]
2000015e:	f3ef 8110 	mrs	r1, PRIMASK
20000162:	b672      	cpsid	i
20000164:	6813      	ldr	r3, [r2, #0]
20000166:	2b00      	cmp	r3, #0
20000168:	d0fc      	beq.n	20000164 <mutex_exit+0x8>
2000016a:	f3bf 8f5f 	dmb	sy
2000016e:	2300      	movs	r3, #0
20000170:	7103      	strb	r3, [r0, #4]
20000172:	bf40      	sev
20000174:	6802      	ldr	r2, [r0, #0]
20000176:	f3bf 8f5f 	dmb	sy
2000017a:	6013      	str	r3, [r2, #0]
2000017c:	f381 8810 	msr	PRIMASK, r1
20000180:	4770      	bx	lr
20000182:	46c0      	nop			; (mov r8, r8)

20000184 <__aeabi_idiv0>:
20000184:	4770      	bx	lr
20000186:	46c0      	nop			; (mov r8, r8)

20000188 <striped_spin_lock_num>:
20000188:	0010 0000                                   ....

2000018c <irq_handler_chain_slots>:
2000018c:	00000000 	.word	0x00000000
20000190:	00010000 	.word	0x00010000
	...
2000019c:	00020000 	.word	0x00020000
	...
200001a8:	00030000 	.word	0x00030000
	...
200001b4:	00ff0000 	.word	0x00ff0000
200001b8:	00000000 	.word	0x00000000

200001bc <irq_handler_chain_first_slot>:
200001bc:	b500      	push	{lr}
200001be:	6848      	ldr	r0, [r1, #4]
200001c0:	3101      	adds	r1, #1
200001c2:	468e      	mov	lr, r1
200001c4:	4700      	bx	r0

200001c6 <irq_handler_chain_remove_tail>:
200001c6:	4670      	mov	r0, lr
200001c8:	3809      	subs	r0, #9
200001ca:	4901      	ldr	r1, [pc, #4]	; (200001d0 <irq_handler_chain_remove_tail+0xa>)
200001cc:	4788      	blx	r1
200001ce:	bd00      	pop	{pc}
200001d0:	100017e9 	.word	0x100017e9
	...

200001e0 <aeabi_bits_funcs>:
200001e0:	00003350 	.word	0x00003350
200001e4:	0000334c 	.word	0x0000334c
200001e8:	00003354 	.word	0x00003354
200001ec:	00003352 	.word	0x00003352

200001f0 <aeabi_bits_funcs_end>:
200001f0:	0000534d 	.word	0x0000534d
200001f4:	0000434d 	.word	0x0000434d
200001f8:	00003453 	.word	0x00003453
200001fc:	00003443 	.word	0x00003443

20000200 <stdio_uart>:
20000200:	100040fd 00000000 10004139 00000000     .@......9A......
20000210:	00000100                                ....

20000214 <_impure_ptr>:
20000214:	20000218                                ... 

20000218 <impure_data>:
20000218:	00000000 20000504 2000056c 200005d4     ....... l.. ... 
	...
200002c0:	00000001 00000000 abcd330e e66d1234     .........3..4.m.
200002d0:	0005deec 0000000b 00000000 00000000     ................
	...

20000640 <__malloc_av_>:
	...
20000648:	20000640 20000640 20000648 20000648     @.. @.. H.. H.. 
20000658:	20000650 20000650 20000658 20000658     P.. P.. X.. X.. 
20000668:	20000660 20000660 20000668 20000668     `.. `.. h.. h.. 
20000678:	20000670 20000670 20000678 20000678     p.. p.. x.. x.. 
20000688:	20000680 20000680 20000688 20000688     ... ... ... ... 
20000698:	20000690 20000690 20000698 20000698     ... ... ... ... 
200006a8:	200006a0 200006a0 200006a8 200006a8     ... ... ... ... 
200006b8:	200006b0 200006b0 200006b8 200006b8     ... ... ... ... 
200006c8:	200006c0 200006c0 200006c8 200006c8     ... ... ... ... 
200006d8:	200006d0 200006d0 200006d8 200006d8     ... ... ... ... 
200006e8:	200006e0 200006e0 200006e8 200006e8     ... ... ... ... 
200006f8:	200006f0 200006f0 200006f8 200006f8     ... ... ... ... 
20000708:	20000700 20000700 20000708 20000708     ... ... ... ... 
20000718:	20000710 20000710 20000718 20000718     ... ... ... ... 
20000728:	20000720 20000720 20000728 20000728      ..  .. (.. (.. 
20000738:	20000730 20000730 20000738 20000738     0.. 0.. 8.. 8.. 
20000748:	20000740 20000740 20000748 20000748     @.. @.. H.. H.. 
20000758:	20000750 20000750 20000758 20000758     P.. P.. X.. X.. 
20000768:	20000760 20000760 20000768 20000768     `.. `.. h.. h.. 
20000778:	20000770 20000770 20000778 20000778     p.. p.. x.. x.. 
20000788:	20000780 20000780 20000788 20000788     ... ... ... ... 
20000798:	20000790 20000790 20000798 20000798     ... ... ... ... 
200007a8:	200007a0 200007a0 200007a8 200007a8     ... ... ... ... 
200007b8:	200007b0 200007b0 200007b8 200007b8     ... ... ... ... 
200007c8:	200007c0 200007c0 200007c8 200007c8     ... ... ... ... 
200007d8:	200007d0 200007d0 200007d8 200007d8     ... ... ... ... 
200007e8:	200007e0 200007e0 200007e8 200007e8     ... ... ... ... 
200007f8:	200007f0 200007f0 200007f8 200007f8     ... ... ... ... 
20000808:	20000800 20000800 20000808 20000808     ... ... ... ... 
20000818:	20000810 20000810 20000818 20000818     ... ... ... ... 
20000828:	20000820 20000820 20000828 20000828      ..  .. (.. (.. 
20000838:	20000830 20000830 20000838 20000838     0.. 0.. 8.. 8.. 
20000848:	20000840 20000840 20000848 20000848     @.. @.. H.. H.. 
20000858:	20000850 20000850 20000858 20000858     P.. P.. X.. X.. 
20000868:	20000860 20000860 20000868 20000868     `.. `.. h.. h.. 
20000878:	20000870 20000870 20000878 20000878     p.. p.. x.. x.. 
20000888:	20000880 20000880 20000888 20000888     ... ... ... ... 
20000898:	20000890 20000890 20000898 20000898     ... ... ... ... 
200008a8:	200008a0 200008a0 200008a8 200008a8     ... ... ... ... 
200008b8:	200008b0 200008b0 200008b8 200008b8     ... ... ... ... 
200008c8:	200008c0 200008c0 200008c8 200008c8     ... ... ... ... 
200008d8:	200008d0 200008d0 200008d8 200008d8     ... ... ... ... 
200008e8:	200008e0 200008e0 200008e8 200008e8     ... ... ... ... 
200008f8:	200008f0 200008f0 200008f8 200008f8     ... ... ... ... 
20000908:	20000900 20000900 20000908 20000908     ... ... ... ... 
20000918:	20000910 20000910 20000918 20000918     ... ... ... ... 
20000928:	20000920 20000920 20000928 20000928      ..  .. (.. (.. 
20000938:	20000930 20000930 20000938 20000938     0.. 0.. 8.. 8.. 
20000948:	20000940 20000940 20000948 20000948     @.. @.. H.. H.. 
20000958:	20000950 20000950 20000958 20000958     P.. P.. X.. X.. 
20000968:	20000960 20000960 20000968 20000968     `.. `.. h.. h.. 
20000978:	20000970 20000970 20000978 20000978     p.. p.. x.. x.. 
20000988:	20000980 20000980 20000988 20000988     ... ... ... ... 
20000998:	20000990 20000990 20000998 20000998     ... ... ... ... 
200009a8:	200009a0 200009a0 200009a8 200009a8     ... ... ... ... 
200009b8:	200009b0 200009b0 200009b8 200009b8     ... ... ... ... 
200009c8:	200009c0 200009c0 200009c8 200009c8     ... ... ... ... 
200009d8:	200009d0 200009d0 200009d8 200009d8     ... ... ... ... 
200009e8:	200009e0 200009e0 200009e8 200009e8     ... ... ... ... 
200009f8:	200009f0 200009f0 200009f8 200009f8     ... ... ... ... 
20000a08:	20000a00 20000a00 20000a08 20000a08     ... ... ... ... 
20000a18:	20000a10 20000a10 20000a18 20000a18     ... ... ... ... 
20000a28:	20000a20 20000a20 20000a28 20000a28      ..  .. (.. (.. 
20000a38:	20000a30 20000a30 20000a38 20000a38     0.. 0.. 8.. 8.. 

20000a48 <__malloc_sbrk_base>:
20000a48:	ffffffff                                ....

20000a4c <__malloc_trim_threshold>:
20000a4c:	00020000                                ....

20000a50 <print_mutex>:
	...

20000a58 <__mutex_array_end>:
20000a58:	10003d3d 	.word	0x10003d3d
20000a5c:	10002f25 	.word	0x10002f25
20000a60:	10003619 	.word	0x10003619
20000a64:	10003c9d 	.word	0x10003c9d

20000a68 <__frame_dummy_init_array_entry>:
20000a68:	10000301                                ....
