
rtc_alarm_repeat.elf:     file format elf32-littlearm

Sections:
Idx Name          Size      VMA       LMA       File off  Algn
  0 .boot2        00000100  10000000  10000000  00010000  2**0
                  CONTENTS, ALLOC, LOAD, READONLY, DATA
  1 .text         00004c80  10000100  10000100  00010100  2**3
                  CONTENTS, ALLOC, LOAD, READONLY, CODE
  2 .rodata       000004cc  10004d80  10004d80  00014d80  2**3
                  CONTENTS, ALLOC, LOAD, READONLY, DATA
  3 .binary_info  00000024  1000524c  1000524c  0001524c  2**2
                  CONTENTS, ALLOC, LOAD, DATA
  4 .ram_vector_table 000000c0  20000000  20000000  00020a6c  2**2
                  CONTENTS
  5 .data         000009ac  200000c0  10005270  000200c0  2**4
                  CONTENTS, ALLOC, LOAD, CODE
  6 .uninitialized_data 00000000  20000a6c  20000a6c  00020b2c  2**0
                  CONTENTS
  7 .scratch_x    00000000  20040000  20040000  00020b2c  2**0
                  CONTENTS
  8 .scratch_y    00000000  20041000  20041000  00020b2c  2**0
                  CONTENTS
  9 .bss          000002f8  20000a6c  20000a6c  00020a6c  2**2
                  ALLOC
 10 .heap         00000800  20000d64  20000d64  00020b2c  2**2
                  CONTENTS, READONLY
 11 .stack_dummy  00000800  20041000  20041000  00021340  2**5
                  CONTENTS, READONLY
 12 .ARM.attributes 00000028  00000000  00000000  00021b40  2**0
                  CONTENTS, READONLY
 13 .comment      00000079  00000000  00000000  00021b68  2**0
                  CONTENTS, READONLY
 14 .debug_frame  000002ac  00000000  00000000  00021be4  2**2
                  CONTENTS, READONLY, DEBUGGING

rtc_alarm_repeat.elf:     file format elf32-littlearm


Disassembly of section .text:

10000100 <__reset_start>:
10000100:	4827      	ldr	r0, [pc, #156]	; (100001a0 <__get_current_exception+0xa>)
10000102:	e000      	b.n	10000106 <__vector_entry>

10000104 <_entry_point>:
10000104:	2000      	movs	r0, #0

10000106 <__vector_entry>:
10000106:	4927      	ldr	r1, [pc, #156]	; (100001a4 <__get_current_exception+0xe>)
10000108:	6088      	str	r0, [r1, #8]
1000010a:	c806      	ldmia	r0!, {r1, r2}
1000010c:	f381 8808 	msr	MSP, r1
10000110:	4710      	bx	r2

10000112 <_reset_handler>:
10000112:	4825      	ldr	r0, [pc, #148]	; (100001a8 <__get_current_exception+0x12>)
10000114:	6800      	ldr	r0, [r0, #0]
10000116:	2800      	cmp	r0, #0
10000118:	d139      	bne.n	1000018e <wait_for_vector>
1000011a:	a412      	add	r4, pc, #72	; (adr r4, 10000164 <data_cpy_table>)
1000011c:	cc0e      	ldmia	r4!, {r1, r2, r3}
1000011e:	2900      	cmp	r1, #0
10000120:	d002      	beq.n	10000128 <_reset_handler+0x16>
10000122:	f000 f812 	bl	1000014a <data_cpy>
10000126:	e7f9      	b.n	1000011c <_reset_handler+0xa>
10000128:	4920      	ldr	r1, [pc, #128]	; (100001ac <__get_current_exception+0x16>)
1000012a:	4a21      	ldr	r2, [pc, #132]	; (100001b0 <__get_current_exception+0x1a>)
1000012c:	2000      	movs	r0, #0
1000012e:	e000      	b.n	10000132 <bss_fill_test>

10000130 <bss_fill_loop>:
10000130:	c101      	stmia	r1!, {r0}

10000132 <bss_fill_test>:
10000132:	4291      	cmp	r1, r2
10000134:	d1fc      	bne.n	10000130 <bss_fill_loop>

10000136 <platform_entry>:
10000136:	491f      	ldr	r1, [pc, #124]	; (100001b4 <__get_current_exception+0x1e>)
10000138:	4788      	blx	r1
1000013a:	491f      	ldr	r1, [pc, #124]	; (100001b8 <__get_current_exception+0x22>)
1000013c:	4788      	blx	r1
1000013e:	491f      	ldr	r1, [pc, #124]	; (100001bc <__get_current_exception+0x26>)
10000140:	4788      	blx	r1
10000142:	be00      	bkpt	0x0000
10000144:	e7fd      	b.n	10000142 <platform_entry+0xc>

10000146 <data_cpy_loop>:
10000146:	c901      	ldmia	r1!, {r0}
10000148:	c201      	stmia	r2!, {r0}

1000014a <data_cpy>:
1000014a:	429a      	cmp	r2, r3
1000014c:	d3fb      	bcc.n	10000146 <data_cpy_loop>
1000014e:	4770      	bx	lr

10000150 <binary_info_header>:
10000150:	7188ebf2 	.word	0x7188ebf2
10000154:	1000524c 	.word	0x1000524c
10000158:	10005270 	.word	0x10005270
1000015c:	10000164 	.word	0x10000164
10000160:	e71aa390 	.word	0xe71aa390

10000164 <data_cpy_table>:
10000164:	10005270 	.word	0x10005270
10000168:	200000c0 	.word	0x200000c0
1000016c:	20000a6c 	.word	0x20000a6c
10000170:	10005c1c 	.word	0x10005c1c
10000174:	20040000 	.word	0x20040000
10000178:	20040000 	.word	0x20040000
1000017c:	10005c1c 	.word	0x10005c1c
10000180:	20041000 	.word	0x20041000
10000184:	20041000 	.word	0x20041000
10000188:	00000000 	.word	0x00000000
1000018c:	4770      	bx	lr

1000018e <wait_for_vector>:
1000018e:	480c      	ldr	r0, [pc, #48]	; (100001c0 <__get_current_exception+0x2a>)
10000190:	f002 fe84 	bl	10002e9c <rom_func_lookup>
10000194:	4700      	bx	r0

10000196 <__get_current_exception>:
10000196:	f3ef 8005 	mrs	r0, IPSR
1000019a:	b2c0      	uxtb	r0, r0
1000019c:	4770      	bx	lr
1000019e:	0000      	.short	0x0000
100001a0:	10000200 	.word	0x10000200
100001a4:	e000ed00 	.word	0xe000ed00
100001a8:	d0000000 	.word	0xd0000000
100001ac:	20000a6c 	.word	0x20000a6c
100001b0:	20000d64 	.word	0x20000d64
100001b4:	10000ffd 	.word	0x10000ffd
100001b8:	10000361 	.word	0x10000361
100001bc:	1000111d 	.word	0x1000111d
100001c0:	00005657 	.word	0x00005657

100001c4 <__bi_46>:
100001c4:	50520006 5360b3ab 100051b4              ..RP..`S.Q..

100001d0 <__bi_34>:
100001d0:	50520006 02031c86 100051c4              ..RP.....Q..

100001dc <__bi_26>:
100001dc:	50520006 9da22254 100051d8              ..RPT"...Q..

100001e8 <__bi_18>:
100001e8:	50520005 68f465de 10005c1c 00000000     ..RP.e.h.\......
	...

10000200 <__reset_end>:
10000200:	20042000 	.word	0x20042000
10000204:	10000113 	.word	0x10000113
10000208:	100002c3 	.word	0x100002c3
1000020c:	100002c5 	.word	0x100002c5
10000210:	100002c1 	.word	0x100002c1
10000214:	100002c1 	.word	0x100002c1
10000218:	100002c1 	.word	0x100002c1
1000021c:	100002c1 	.word	0x100002c1
10000220:	100002c1 	.word	0x100002c1
10000224:	100002c1 	.word	0x100002c1
10000228:	100002c1 	.word	0x100002c1
1000022c:	100002c7 	.word	0x100002c7
10000230:	100002c1 	.word	0x100002c1
10000234:	100002c1 	.word	0x100002c1
10000238:	100002c9 	.word	0x100002c9
1000023c:	100002cb 	.word	0x100002cb
10000240:	100002cd 	.word	0x100002cd
10000244:	100002cd 	.word	0x100002cd
10000248:	100002cd 	.word	0x100002cd
1000024c:	100002cd 	.word	0x100002cd
10000250:	100002cd 	.word	0x100002cd
10000254:	100002cd 	.word	0x100002cd
10000258:	100002cd 	.word	0x100002cd
1000025c:	100002cd 	.word	0x100002cd
10000260:	100002cd 	.word	0x100002cd
10000264:	100002cd 	.word	0x100002cd
10000268:	100002cd 	.word	0x100002cd
1000026c:	100002cd 	.word	0x100002cd
10000270:	100002cd 	.word	0x100002cd
10000274:	100002cd 	.word	0x100002cd
10000278:	100002cd 	.word	0x100002cd
1000027c:	100002cd 	.word	0x100002cd
10000280:	100002cd 	.word	0x100002cd
10000284:	100002cd 	.word	0x100002cd
10000288:	100002cd 	.word	0x100002cd
1000028c:	100002cd 	.word	0x100002cd
10000290:	100002cd 	.word	0x100002cd
10000294:	100002cd 	.word	0x100002cd
10000298:	100002cd 	.word	0x100002cd
1000029c:	100002cd 	.word	0x100002cd
100002a0:	100002cd 	.word	0x100002cd
100002a4:	100002cd 	.word	0x100002cd
100002a8:	100002cd 	.word	0x100002cd
100002ac:	100002cd 	.word	0x100002cd
100002b0:	100002cd 	.word	0x100002cd
100002b4:	100002cd 	.word	0x100002cd
100002b8:	100002cd 	.word	0x100002cd
100002bc:	100002cd 	.word	0x100002cd

100002c0 <isr_invalid>:
100002c0:	be00      	bkpt	0x0000

100002c2 <isr_nmi>:
100002c2:	be00      	bkpt	0x0000

100002c4 <isr_hardfault>:
100002c4:	be00      	bkpt	0x0000

100002c6 <isr_svcall>:
100002c6:	be00      	bkpt	0x0000

100002c8 <isr_pendsv>:
100002c8:	be00      	bkpt	0x0000

100002ca <isr_systick>:
100002ca:	be00      	bkpt	0x0000

100002cc <__unhandled_user_irq>:
100002cc:	f7ff ff63 	bl	10000196 <__get_current_exception>
100002d0:	3810      	subs	r0, #16

100002d2 <unhandled_user_irq_num_in_r0>:
100002d2:	be00      	bkpt	0x0000

100002d4 <_init>:
100002d4:	b5f8      	push	{r3, r4, r5, r6, r7, lr}
100002d6:	46c0      	nop			; (mov r8, r8)

100002d8 <__do_global_dtors_aux>:
100002d8:	b510      	push	{r4, lr}
100002da:	4c06      	ldr	r4, [pc, #24]	; (100002f4 <__do_global_dtors_aux+0x1c>)
100002dc:	7823      	ldrb	r3, [r4, #0]
100002de:	2b00      	cmp	r3, #0
100002e0:	d107      	bne.n	100002f2 <__do_global_dtors_aux+0x1a>
100002e2:	4b05      	ldr	r3, [pc, #20]	; (100002f8 <__do_global_dtors_aux+0x20>)
100002e4:	2b00      	cmp	r3, #0
100002e6:	d002      	beq.n	100002ee <__do_global_dtors_aux+0x16>
100002e8:	4804      	ldr	r0, [pc, #16]	; (100002fc <__do_global_dtors_aux+0x24>)
100002ea:	e000      	b.n	100002ee <__do_global_dtors_aux+0x16>
100002ec:	bf00      	nop
100002ee:	2301      	movs	r3, #1
100002f0:	7023      	strb	r3, [r4, #0]
100002f2:	bd10      	pop	{r4, pc}
100002f4:	20000a6c 	.word	0x20000a6c
100002f8:	00000000 	.word	0x00000000
100002fc:	10004d80 	.word	0x10004d80

10000300 <frame_dummy>:
10000300:	4b04      	ldr	r3, [pc, #16]	; (10000314 <frame_dummy+0x14>)
10000302:	b510      	push	{r4, lr}
10000304:	2b00      	cmp	r3, #0
10000306:	d003      	beq.n	10000310 <frame_dummy+0x10>
10000308:	4903      	ldr	r1, [pc, #12]	; (10000318 <frame_dummy+0x18>)
1000030a:	4804      	ldr	r0, [pc, #16]	; (1000031c <frame_dummy+0x1c>)
1000030c:	e000      	b.n	10000310 <frame_dummy+0x10>
1000030e:	bf00      	nop
10000310:	bd10      	pop	{r4, pc}
10000312:	46c0      	nop			; (mov r8, r8)
10000314:	00000000 	.word	0x00000000
10000318:	20000a70 	.word	0x20000a70
1000031c:	10004d80 	.word	0x10004d80

10000320 <alarm_callback>:
10000320:	b500      	push	{lr}
10000322:	b0c3      	sub	sp, #268	; 0x10c
10000324:	2208      	movs	r2, #8
10000326:	2100      	movs	r1, #0
10000328:	4668      	mov	r0, sp
1000032a:	f003 fcc3 	bl	10003cb4 <__wrap_memset>
1000032e:	4668      	mov	r0, sp
10000330:	f003 ffa2 	bl	10004278 <rtc_get_datetime>
10000334:	2180      	movs	r1, #128	; 0x80
10000336:	466a      	mov	r2, sp
10000338:	a802      	add	r0, sp, #8
1000033a:	0049      	lsls	r1, r1, #1
1000033c:	f000 fc30 	bl	10000ba0 <datetime_to_str>
10000340:	a902      	add	r1, sp, #8
10000342:	4805      	ldr	r0, [pc, #20]	; (10000358 <alarm_callback+0x38>)
10000344:	f003 fe92 	bl	1000406c <__wrap_printf>
10000348:	f003 fe08 	bl	10003f5c <stdio_flush>
1000034c:	2201      	movs	r2, #1
1000034e:	4b03      	ldr	r3, [pc, #12]	; (1000035c <alarm_callback+0x3c>)
10000350:	701a      	strb	r2, [r3, #0]
10000352:	b043      	add	sp, #268	; 0x10c
10000354:	bd00      	pop	{pc}
10000356:	46c0      	nop			; (mov r8, r8)
10000358:	10004d80 	.word	0x10004d80
1000035c:	20000b2e 	.word	0x20000b2e

10000360 <main>:
10000360:	b530      	push	{r4, r5, lr}
10000362:	b085      	sub	sp, #20
10000364:	466d      	mov	r5, sp
10000366:	f003 fe8d 	bl	10004084 <stdio_init_all>
1000036a:	480a      	ldr	r0, [pc, #40]	; (10000394 <main+0x34>)
1000036c:	f003 fdba 	bl	10003ee4 <__wrap_puts>
10000370:	002b      	movs	r3, r5
10000372:	4c09      	ldr	r4, [pc, #36]	; (10000398 <main+0x38>)
10000374:	cc06      	ldmia	r4!, {r1, r2}
10000376:	c306      	stmia	r3!, {r1, r2}
10000378:	f003 ff0c 	bl	10004194 <rtc_init>
1000037c:	0028      	movs	r0, r5
1000037e:	f003 ff25 	bl	100041cc <rtc_set_datetime>
10000382:	a802      	add	r0, sp, #8
10000384:	0003      	movs	r3, r0
10000386:	cc06      	ldmia	r4!, {r1, r2}
10000388:	c306      	stmia	r3!, {r1, r2}
1000038a:	4904      	ldr	r1, [pc, #16]	; (1000039c <main+0x3c>)
1000038c:	f003 ff9c 	bl	100042c8 <rtc_set_alarm>
10000390:	e7fe      	b.n	10000390 <main+0x30>
10000392:	46c0      	nop			; (mov r8, r8)
10000394:	10004d94 	.word	0x10004d94
10000398:	10004da8 	.word	0x10004da8
1000039c:	10000321 	.word	0x10000321

100003a0 <gpio_set_function>:
100003a0:	4a09      	ldr	r2, [pc, #36]	; (100003c8 <gpio_set_function+0x28>)
100003a2:	0083      	lsls	r3, r0, #2
100003a4:	4694      	mov	ip, r2
100003a6:	2240      	movs	r2, #64	; 0x40
100003a8:	4463      	add	r3, ip
100003aa:	b510      	push	{r4, lr}
100003ac:	681c      	ldr	r4, [r3, #0]
100003ae:	00c0      	lsls	r0, r0, #3
100003b0:	4062      	eors	r2, r4
100003b2:	24c0      	movs	r4, #192	; 0xc0
100003b4:	4014      	ands	r4, r2
100003b6:	2280      	movs	r2, #128	; 0x80
100003b8:	0152      	lsls	r2, r2, #5
100003ba:	4313      	orrs	r3, r2
100003bc:	601c      	str	r4, [r3, #0]
100003be:	4b03      	ldr	r3, [pc, #12]	; (100003cc <gpio_set_function+0x2c>)
100003c0:	469c      	mov	ip, r3
100003c2:	4460      	add	r0, ip
100003c4:	6041      	str	r1, [r0, #4]
100003c6:	bd10      	pop	{r4, pc}
100003c8:	4001c004 	.word	0x4001c004
100003cc:	40014000 	.word	0x40014000

100003d0 <hw_claim_or_assert>:
100003d0:	b5f8      	push	{r3, r4, r5, r6, r7, lr}
100003d2:	46ce      	mov	lr, r9
100003d4:	4647      	mov	r7, r8
100003d6:	4691      	mov	r9, r2
100003d8:	b580      	push	{r7, lr}
100003da:	f3ef 8710 	mrs	r7, PRIMASK
100003de:	b672      	cpsid	i
100003e0:	4e12      	ldr	r6, [pc, #72]	; (1000042c <hw_claim_or_assert+0x5c>)
100003e2:	6833      	ldr	r3, [r6, #0]
100003e4:	2b00      	cmp	r3, #0
100003e6:	d0fc      	beq.n	100003e2 <hw_claim_or_assert+0x12>
100003e8:	f3bf 8f5f 	dmb	sy
100003ec:	08cb      	lsrs	r3, r1, #3
100003ee:	5cc5      	ldrb	r5, [r0, r3]
100003f0:	2407      	movs	r4, #7
100003f2:	18c2      	adds	r2, r0, r3
100003f4:	0028      	movs	r0, r5
100003f6:	2301      	movs	r3, #1
100003f8:	400c      	ands	r4, r1
100003fa:	4694      	mov	ip, r2
100003fc:	40e0      	lsrs	r0, r4
100003fe:	001a      	movs	r2, r3
10000400:	4002      	ands	r2, r0
10000402:	4690      	mov	r8, r2
10000404:	4203      	tst	r3, r0
10000406:	d10d      	bne.n	10000424 <hw_claim_or_assert+0x54>
10000408:	40a3      	lsls	r3, r4
1000040a:	4662      	mov	r2, ip
1000040c:	432b      	orrs	r3, r5
1000040e:	7013      	strb	r3, [r2, #0]
10000410:	f3bf 8f5f 	dmb	sy
10000414:	4643      	mov	r3, r8
10000416:	6033      	str	r3, [r6, #0]
10000418:	f387 8810 	msr	PRIMASK, r7
1000041c:	bc0c      	pop	{r2, r3}
1000041e:	4690      	mov	r8, r2
10000420:	4699      	mov	r9, r3
10000422:	bdf8      	pop	{r3, r4, r5, r6, r7, pc}
10000424:	4648      	mov	r0, r9
10000426:	f000 fe7b 	bl	10001120 <panic>
1000042a:	46c0      	nop			; (mov r8, r8)
1000042c:	d000012c 	.word	0xd000012c

10000430 <spin_locks_reset>:
10000430:	2100      	movs	r1, #0
10000432:	4b04      	ldr	r3, [pc, #16]	; (10000444 <spin_locks_reset+0x14>)
10000434:	4a04      	ldr	r2, [pc, #16]	; (10000448 <spin_locks_reset+0x18>)
10000436:	f3bf 8f5f 	dmb	sy
1000043a:	c302      	stmia	r3!, {r1}
1000043c:	4293      	cmp	r3, r2
1000043e:	d1fa      	bne.n	10000436 <spin_locks_reset+0x6>
10000440:	4770      	bx	lr
10000442:	46c0      	nop			; (mov r8, r8)
10000444:	d0000100 	.word	0xd0000100
10000448:	d0000180 	.word	0xd0000180

1000044c <next_striped_spin_lock_num>:
1000044c:	4a04      	ldr	r2, [pc, #16]	; (10000460 <next_striped_spin_lock_num+0x14>)
1000044e:	7810      	ldrb	r0, [r2, #0]
10000450:	1c43      	adds	r3, r0, #1
10000452:	b2db      	uxtb	r3, r3
10000454:	2b17      	cmp	r3, #23
10000456:	d900      	bls.n	1000045a <next_striped_spin_lock_num+0xe>
10000458:	2310      	movs	r3, #16
1000045a:	7013      	strb	r3, [r2, #0]
1000045c:	4770      	bx	lr
1000045e:	46c0      	nop			; (mov r8, r8)
10000460:	20000188 	.word	0x20000188

10000464 <running_on_fpga>:
10000464:	4b02      	ldr	r3, [pc, #8]	; (10000470 <running_on_fpga+0xc>)
10000466:	6818      	ldr	r0, [r3, #0]
10000468:	0780      	lsls	r0, r0, #30
1000046a:	0fc0      	lsrs	r0, r0, #31
1000046c:	4770      	bx	lr
1000046e:	46c0      	nop			; (mov r8, r8)
10000470:	4006c000 	.word	0x4006c000

10000474 <uart_init>:
10000474:	b5f0      	push	{r4, r5, r6, r7, lr}
10000476:	46c6      	mov	lr, r8
10000478:	0005      	movs	r5, r0
1000047a:	b500      	push	{lr}
1000047c:	2006      	movs	r0, #6
1000047e:	000e      	movs	r6, r1
10000480:	f000 ffdc 	bl	1000143c <clock_get_hz>
10000484:	2800      	cmp	r0, #0
10000486:	d04d      	beq.n	10000524 <uart_init+0xb0>
10000488:	4b29      	ldr	r3, [pc, #164]	; (10000530 <uart_init+0xbc>)
1000048a:	492a      	ldr	r1, [pc, #168]	; (10000534 <uart_init+0xc0>)
1000048c:	18eb      	adds	r3, r5, r3
1000048e:	425a      	negs	r2, r3
10000490:	4153      	adcs	r3, r2
10000492:	2280      	movs	r2, #128	; 0x80
10000494:	03d2      	lsls	r2, r2, #15
10000496:	4694      	mov	ip, r2
10000498:	425b      	negs	r3, r3
1000049a:	4013      	ands	r3, r2
1000049c:	4a26      	ldr	r2, [pc, #152]	; (10000538 <uart_init+0xc4>)
1000049e:	4463      	add	r3, ip
100004a0:	6013      	str	r3, [r2, #0]
100004a2:	4a26      	ldr	r2, [pc, #152]	; (1000053c <uart_init+0xc8>)
100004a4:	6013      	str	r3, [r2, #0]
100004a6:	001c      	movs	r4, r3
100004a8:	688a      	ldr	r2, [r1, #8]
100004aa:	4394      	bics	r4, r2
100004ac:	d1fb      	bne.n	100004a6 <uart_init+0x32>
100004ae:	4b20      	ldr	r3, [pc, #128]	; (10000530 <uart_init+0xbc>)
100004b0:	2180      	movs	r1, #128	; 0x80
100004b2:	18eb      	adds	r3, r5, r3
100004b4:	425a      	negs	r2, r3
100004b6:	4153      	adcs	r3, r2
100004b8:	4a21      	ldr	r2, [pc, #132]	; (10000540 <uart_init+0xcc>)
100004ba:	005b      	lsls	r3, r3, #1
100004bc:	0049      	lsls	r1, r1, #1
100004be:	2006      	movs	r0, #6
100004c0:	5299      	strh	r1, [r3, r2]
100004c2:	f000 ffbb 	bl	1000143c <clock_get_hz>
100004c6:	0031      	movs	r1, r6
100004c8:	00c0      	lsls	r0, r0, #3
100004ca:	f002 fd41 	bl	10002f50 <__wrap___aeabi_uidiv>
100004ce:	267f      	movs	r6, #127	; 0x7f
100004d0:	4b1c      	ldr	r3, [pc, #112]	; (10000544 <uart_init+0xd0>)
100004d2:	4006      	ands	r6, r0
100004d4:	09c7      	lsrs	r7, r0, #7
100004d6:	3601      	adds	r6, #1
100004d8:	0876      	lsrs	r6, r6, #1
100004da:	626f      	str	r7, [r5, #36]	; 0x24
100004dc:	429f      	cmp	r7, r3
100004de:	d024      	beq.n	1000052a <uart_init+0xb6>
100004e0:	62ae      	str	r6, [r5, #40]	; 0x28
100004e2:	232c      	movs	r3, #44	; 0x2c
100004e4:	4698      	mov	r8, r3
100004e6:	2480      	movs	r4, #128	; 0x80
100004e8:	44a8      	add	r8, r5
100004ea:	4643      	mov	r3, r8
100004ec:	01a4      	lsls	r4, r4, #6
100004ee:	431c      	orrs	r4, r3
100004f0:	2300      	movs	r3, #0
100004f2:	2006      	movs	r0, #6
100004f4:	6023      	str	r3, [r4, #0]
100004f6:	f000 ffa1 	bl	1000143c <clock_get_hz>
100004fa:	01b9      	lsls	r1, r7, #6
100004fc:	1989      	adds	r1, r1, r6
100004fe:	0080      	lsls	r0, r0, #2
10000500:	f002 fd26 	bl	10002f50 <__wrap___aeabi_uidiv>
10000504:	2360      	movs	r3, #96	; 0x60
10000506:	6aea      	ldr	r2, [r5, #44]	; 0x2c
10000508:	4641      	mov	r1, r8
1000050a:	4053      	eors	r3, r2
1000050c:	226e      	movs	r2, #110	; 0x6e
1000050e:	401a      	ands	r2, r3
10000510:	2380      	movs	r3, #128	; 0x80
10000512:	015b      	lsls	r3, r3, #5
10000514:	430b      	orrs	r3, r1
10000516:	601a      	str	r2, [r3, #0]
10000518:	4b0b      	ldr	r3, [pc, #44]	; (10000548 <uart_init+0xd4>)
1000051a:	632b      	str	r3, [r5, #48]	; 0x30
1000051c:	2310      	movs	r3, #16
1000051e:	6023      	str	r3, [r4, #0]
10000520:	3b0d      	subs	r3, #13
10000522:	64ab      	str	r3, [r5, #72]	; 0x48
10000524:	bc04      	pop	{r2}
10000526:	4690      	mov	r8, r2
10000528:	bdf0      	pop	{r4, r5, r6, r7, pc}
1000052a:	62ac      	str	r4, [r5, #40]	; 0x28
1000052c:	e7d9      	b.n	100004e2 <uart_init+0x6e>
1000052e:	46c0      	nop			; (mov r8, r8)
10000530:	bffc8000 	.word	0xbffc8000
10000534:	4000c000 	.word	0x4000c000
10000538:	4000e000 	.word	0x4000e000
1000053c:	4000f000 	.word	0x4000f000
10000540:	20000b34 	.word	0x20000b34
10000544:	0000ffff 	.word	0x0000ffff
10000548:	00000301 	.word	0x00000301

1000054c <timer_pool_entry_comparator>:
1000054c:	6883      	ldr	r3, [r0, #8]
1000054e:	480b      	ldr	r0, [pc, #44]	; (1000057c <timer_pool_entry_comparator+0x30>)
10000550:	b510      	push	{r4, lr}
10000552:	4684      	mov	ip, r0
10000554:	4461      	add	r1, ip
10000556:	4462      	add	r2, ip
10000558:	0109      	lsls	r1, r1, #4
1000055a:	0112      	lsls	r2, r2, #4
1000055c:	189a      	adds	r2, r3, r2
1000055e:	1859      	adds	r1, r3, r1
10000560:	6854      	ldr	r4, [r2, #4]
10000562:	684b      	ldr	r3, [r1, #4]
10000564:	2001      	movs	r0, #1
10000566:	429c      	cmp	r4, r3
10000568:	d801      	bhi.n	1000056e <timer_pool_entry_comparator+0x22>
1000056a:	d002      	beq.n	10000572 <timer_pool_entry_comparator+0x26>
1000056c:	2000      	movs	r0, #0
1000056e:	b2c0      	uxtb	r0, r0
10000570:	bd10      	pop	{r4, pc}
10000572:	6812      	ldr	r2, [r2, #0]
10000574:	680b      	ldr	r3, [r1, #0]
10000576:	429a      	cmp	r2, r3
10000578:	d8f9      	bhi.n	1000056e <timer_pool_entry_comparator+0x22>
1000057a:	e7f7      	b.n	1000056c <timer_pool_entry_comparator+0x20>
1000057c:	0fffffff 	.word	0x0fffffff

10000580 <add_alarm_under_lock>:
10000580:	b5f0      	push	{r4, r5, r6, r7, lr}
10000582:	4657      	mov	r7, sl
10000584:	4645      	mov	r5, r8
10000586:	46de      	mov	lr, fp
10000588:	464e      	mov	r6, r9
1000058a:	b5e0      	push	{r5, r6, r7, lr}
1000058c:	b083      	sub	sp, #12
1000058e:	001f      	movs	r7, r3
10000590:	ab0f      	add	r3, sp, #60	; 0x3c
10000592:	781b      	ldrb	r3, [r3, #0]
10000594:	9c0e      	ldr	r4, [sp, #56]	; 0x38
10000596:	0005      	movs	r5, r0
10000598:	4692      	mov	sl, r2
1000059a:	9301      	str	r3, [sp, #4]
1000059c:	2c00      	cmp	r4, #0
1000059e:	d10d      	bne.n	100005bc <add_alarm_under_lock+0x3c>
100005a0:	6802      	ldr	r2, [r0, #0]
100005a2:	7b94      	ldrb	r4, [r2, #14]
100005a4:	2c00      	cmp	r4, #0
100005a6:	d056      	beq.n	10000656 <add_alarm_under_lock+0xd6>
100005a8:	6811      	ldr	r1, [r2, #0]
100005aa:	0063      	lsls	r3, r4, #1
100005ac:	468c      	mov	ip, r1
100005ae:	191b      	adds	r3, r3, r4
100005b0:	4463      	add	r3, ip
100005b2:	3b03      	subs	r3, #3
100005b4:	785b      	ldrb	r3, [r3, #1]
100005b6:	7393      	strb	r3, [r2, #14]
100005b8:	2b00      	cmp	r3, #0
100005ba:	d054      	beq.n	10000666 <add_alarm_under_lock+0xe6>
100005bc:	68aa      	ldr	r2, [r5, #8]
100005be:	b2e3      	uxtb	r3, r4
100005c0:	4694      	mov	ip, r2
100005c2:	4652      	mov	r2, sl
100005c4:	469b      	mov	fp, r3
100005c6:	4b38      	ldr	r3, [pc, #224]	; (100006a8 <add_alarm_under_lock+0x128>)
100005c8:	682e      	ldr	r6, [r5, #0]
100005ca:	18e3      	adds	r3, r4, r3
100005cc:	011b      	lsls	r3, r3, #4
100005ce:	4463      	add	r3, ip
100005d0:	601a      	str	r2, [r3, #0]
100005d2:	9a0c      	ldr	r2, [sp, #48]	; 0x30
100005d4:	605f      	str	r7, [r3, #4]
100005d6:	609a      	str	r2, [r3, #8]
100005d8:	9a0d      	ldr	r2, [sp, #52]	; 0x34
100005da:	60da      	str	r2, [r3, #12]
100005dc:	23d0      	movs	r3, #208	; 0xd0
100005de:	2280      	movs	r2, #128	; 0x80
100005e0:	061b      	lsls	r3, r3, #24
100005e2:	0312      	lsls	r2, r2, #12
100005e4:	615a      	str	r2, [r3, #20]
100005e6:	0063      	lsls	r3, r4, #1
100005e8:	191b      	adds	r3, r3, r4
100005ea:	3b03      	subs	r3, #3
100005ec:	4698      	mov	r8, r3
100005ee:	2200      	movs	r2, #0
100005f0:	6833      	ldr	r3, [r6, #0]
100005f2:	4443      	add	r3, r8
100005f4:	709a      	strb	r2, [r3, #2]
100005f6:	705a      	strb	r2, [r3, #1]
100005f8:	701a      	strb	r2, [r3, #0]
100005fa:	7b73      	ldrb	r3, [r6, #13]
100005fc:	4699      	mov	r9, r3
100005fe:	2b00      	cmp	r3, #0
10000600:	d017      	beq.n	10000632 <add_alarm_under_lock+0xb2>
10000602:	465a      	mov	r2, fp
10000604:	0019      	movs	r1, r3
10000606:	68b0      	ldr	r0, [r6, #8]
10000608:	6873      	ldr	r3, [r6, #4]
1000060a:	4798      	blx	r3
1000060c:	6832      	ldr	r2, [r6, #0]
1000060e:	2800      	cmp	r0, #0
10000610:	d12b      	bne.n	1000066a <add_alarm_under_lock+0xea>
10000612:	4643      	mov	r3, r8
10000614:	18d1      	adds	r1, r2, r3
10000616:	464b      	mov	r3, r9
10000618:	4658      	mov	r0, fp
1000061a:	005b      	lsls	r3, r3, #1
1000061c:	444b      	add	r3, r9
1000061e:	3b03      	subs	r3, #3
10000620:	18d3      	adds	r3, r2, r3
10000622:	7098      	strb	r0, [r3, #2]
10000624:	4640      	mov	r0, r8
10000626:	5c12      	ldrb	r2, [r2, r0]
10000628:	2a00      	cmp	r2, #0
1000062a:	d000      	beq.n	1000062e <add_alarm_under_lock+0xae>
1000062c:	705a      	strb	r2, [r3, #1]
1000062e:	464b      	mov	r3, r9
10000630:	700b      	strb	r3, [r1, #0]
10000632:	465b      	mov	r3, fp
10000634:	7373      	strb	r3, [r6, #13]
10000636:	4652      	mov	r2, sl
10000638:	003b      	movs	r3, r7
1000063a:	7d28      	ldrb	r0, [r5, #20]
1000063c:	f000 fa1a 	bl	10000a74 <hardware_alarm_set_target>
10000640:	1e06      	subs	r6, r0, #0
10000642:	d002      	beq.n	1000064a <add_alarm_under_lock+0xca>
10000644:	9b01      	ldr	r3, [sp, #4]
10000646:	2b00      	cmp	r3, #0
10000648:	d026      	beq.n	10000698 <add_alarm_under_lock+0x118>
1000064a:	9b10      	ldr	r3, [sp, #64]	; 0x40
1000064c:	2b00      	cmp	r3, #0
1000064e:	d028      	beq.n	100006a2 <add_alarm_under_lock+0x122>
10000650:	0020      	movs	r0, r4
10000652:	701e      	strb	r6, [r3, #0]
10000654:	e000      	b.n	10000658 <add_alarm_under_lock+0xd8>
10000656:	2000      	movs	r0, #0
10000658:	b003      	add	sp, #12
1000065a:	bc3c      	pop	{r2, r3, r4, r5}
1000065c:	4690      	mov	r8, r2
1000065e:	4699      	mov	r9, r3
10000660:	46a2      	mov	sl, r4
10000662:	46ab      	mov	fp, r5
10000664:	bdf0      	pop	{r4, r5, r6, r7, pc}
10000666:	73d3      	strb	r3, [r2, #15]
10000668:	e7a8      	b.n	100005bc <add_alarm_under_lock+0x3c>
1000066a:	464b      	mov	r3, r9
1000066c:	005b      	lsls	r3, r3, #1
1000066e:	444b      	add	r3, r9
10000670:	3b03      	subs	r3, #3
10000672:	18d1      	adds	r1, r2, r3
10000674:	468c      	mov	ip, r1
10000676:	4641      	mov	r1, r8
10000678:	4648      	mov	r0, r9
1000067a:	1851      	adds	r1, r2, r1
1000067c:	7088      	strb	r0, [r1, #2]
1000067e:	5cd3      	ldrb	r3, [r2, r3]
10000680:	2b00      	cmp	r3, #0
10000682:	d000      	beq.n	10000686 <add_alarm_under_lock+0x106>
10000684:	704b      	strb	r3, [r1, #1]
10000686:	465b      	mov	r3, fp
10000688:	4662      	mov	r2, ip
1000068a:	7013      	strb	r3, [r2, #0]
1000068c:	464b      	mov	r3, r9
1000068e:	0020      	movs	r0, r4
10000690:	7373      	strb	r3, [r6, #13]
10000692:	45a1      	cmp	r9, r4
10000694:	d1e0      	bne.n	10000658 <add_alarm_under_lock+0xd8>
10000696:	e7ce      	b.n	10000636 <add_alarm_under_lock+0xb6>
10000698:	4659      	mov	r1, fp
1000069a:	6828      	ldr	r0, [r5, #0]
1000069c:	f000 fc70 	bl	10000f80 <ph_delete>
100006a0:	e7d3      	b.n	1000064a <add_alarm_under_lock+0xca>
100006a2:	0020      	movs	r0, r4
100006a4:	e7d8      	b.n	10000658 <add_alarm_under_lock+0xd8>
100006a6:	46c0      	nop			; (mov r8, r8)
100006a8:	0fffffff 	.word	0x0fffffff

100006ac <alarm_pool_alarm_callback>:
100006ac:	b5f0      	push	{r4, r5, r6, r7, lr}
100006ae:	46de      	mov	lr, fp
100006b0:	464e      	mov	r6, r9
100006b2:	4657      	mov	r7, sl
100006b4:	4645      	mov	r5, r8
100006b6:	2300      	movs	r3, #0
100006b8:	b5e0      	push	{r5, r6, r7, lr}
100006ba:	b08d      	sub	sp, #52	; 0x34
100006bc:	930a      	str	r3, [sp, #40]	; 0x28
100006be:	4b71      	ldr	r3, [pc, #452]	; (10000884 <alarm_pool_alarm_callback+0x1d8>)
100006c0:	0082      	lsls	r2, r0, #2
100006c2:	58d3      	ldr	r3, [r2, r3]
100006c4:	900b      	str	r0, [sp, #44]	; 0x2c
100006c6:	4699      	mov	r9, r3
100006c8:	2300      	movs	r3, #0
100006ca:	469b      	mov	fp, r3
100006cc:	464b      	mov	r3, r9
100006ce:	9307      	str	r3, [sp, #28]
100006d0:	f000 f980 	bl	100009d4 <time_us_64>
100006d4:	9c07      	ldr	r4, [sp, #28]
100006d6:	0006      	movs	r6, r0
100006d8:	000f      	movs	r7, r1
100006da:	6862      	ldr	r2, [r4, #4]
100006dc:	f3ef 8510 	mrs	r5, PRIMASK
100006e0:	b672      	cpsid	i
100006e2:	6813      	ldr	r3, [r2, #0]
100006e4:	2b00      	cmp	r3, #0
100006e6:	d0fc      	beq.n	100006e2 <alarm_pool_alarm_callback+0x36>
100006e8:	0022      	movs	r2, r4
100006ea:	9407      	str	r4, [sp, #28]
100006ec:	f3bf 8f5f 	dmb	sy
100006f0:	6824      	ldr	r4, [r4, #0]
100006f2:	7b63      	ldrb	r3, [r4, #13]
100006f4:	4699      	mov	r9, r3
100006f6:	2b00      	cmp	r3, #0
100006f8:	d100      	bne.n	100006fc <alarm_pool_alarm_callback+0x50>
100006fa:	e070      	b.n	100007de <alarm_pool_alarm_callback+0x132>
100006fc:	6892      	ldr	r2, [r2, #8]
100006fe:	4b62      	ldr	r3, [pc, #392]	; (10000888 <alarm_pool_alarm_callback+0x1dc>)
10000700:	4690      	mov	r8, r2
10000702:	444b      	add	r3, r9
10000704:	011b      	lsls	r3, r3, #4
10000706:	4498      	add	r8, r3
10000708:	4643      	mov	r3, r8
1000070a:	681a      	ldr	r2, [r3, #0]
1000070c:	685b      	ldr	r3, [r3, #4]
1000070e:	0010      	movs	r0, r2
10000710:	0019      	movs	r1, r3
10000712:	1b80      	subs	r0, r0, r6
10000714:	41b9      	sbcs	r1, r7
10000716:	2900      	cmp	r1, #0
10000718:	dd68      	ble.n	100007ec <alarm_pool_alarm_callback+0x140>
1000071a:	980b      	ldr	r0, [sp, #44]	; 0x2c
1000071c:	f000 f9aa 	bl	10000a74 <hardware_alarm_set_target>
10000720:	2300      	movs	r3, #0
10000722:	2600      	movs	r6, #0
10000724:	4698      	mov	r8, r3
10000726:	2700      	movs	r7, #0
10000728:	469a      	mov	sl, r3
1000072a:	9c07      	ldr	r4, [sp, #28]
1000072c:	6863      	ldr	r3, [r4, #4]
1000072e:	f3bf 8f5f 	dmb	sy
10000732:	465a      	mov	r2, fp
10000734:	601a      	str	r2, [r3, #0]
10000736:	f385 8810 	msr	PRIMASK, r5
1000073a:	4653      	mov	r3, sl
1000073c:	2b00      	cmp	r3, #0
1000073e:	d108      	bne.n	10000752 <alarm_pool_alarm_callback+0xa6>
10000740:	2800      	cmp	r0, #0
10000742:	d1c5      	bne.n	100006d0 <alarm_pool_alarm_callback+0x24>
10000744:	b00d      	add	sp, #52	; 0x34
10000746:	bc3c      	pop	{r2, r3, r4, r5}
10000748:	4690      	mov	r8, r2
1000074a:	4699      	mov	r9, r3
1000074c:	46a2      	mov	sl, r4
1000074e:	46ab      	mov	fp, r5
10000750:	bdf0      	pop	{r4, r5, r6, r7, pc}
10000752:	23d0      	movs	r3, #208	; 0xd0
10000754:	2280      	movs	r2, #128	; 0x80
10000756:	2180      	movs	r1, #128	; 0x80
10000758:	061b      	lsls	r3, r3, #24
1000075a:	0392      	lsls	r2, r2, #14
1000075c:	0309      	lsls	r1, r1, #12
1000075e:	615a      	str	r2, [r3, #20]
10000760:	6199      	str	r1, [r3, #24]
10000762:	619a      	str	r2, [r3, #24]
10000764:	9b0a      	ldr	r3, [sp, #40]	; 0x28
10000766:	4641      	mov	r1, r8
10000768:	0218      	lsls	r0, r3, #8
1000076a:	464b      	mov	r3, r9
1000076c:	4318      	orrs	r0, r3
1000076e:	47d0      	blx	sl
10000770:	9008      	str	r0, [sp, #32]
10000772:	9109      	str	r1, [sp, #36]	; 0x24
10000774:	6862      	ldr	r2, [r4, #4]
10000776:	f3ef 8510 	mrs	r5, PRIMASK
1000077a:	b672      	cpsid	i
1000077c:	6813      	ldr	r3, [r2, #0]
1000077e:	2b00      	cmp	r3, #0
10000780:	d0fc      	beq.n	1000077c <alarm_pool_alarm_callback+0xd0>
10000782:	9407      	str	r4, [sp, #28]
10000784:	f3bf 8f5f 	dmb	sy
10000788:	9908      	ldr	r1, [sp, #32]
1000078a:	9a09      	ldr	r2, [sp, #36]	; 0x24
1000078c:	2a00      	cmp	r2, #0
1000078e:	db49      	blt.n	10000824 <alarm_pool_alarm_callback+0x178>
10000790:	4311      	orrs	r1, r2
10000792:	d003      	beq.n	1000079c <alarm_pool_alarm_callback+0xf0>
10000794:	9b07      	ldr	r3, [sp, #28]
10000796:	691b      	ldr	r3, [r3, #16]
10000798:	2b00      	cmp	r3, #0
1000079a:	d15e      	bne.n	1000085a <alarm_pool_alarm_callback+0x1ae>
1000079c:	9b07      	ldr	r3, [sp, #28]
1000079e:	681b      	ldr	r3, [r3, #0]
100007a0:	7bda      	ldrb	r2, [r3, #15]
100007a2:	2a00      	cmp	r2, #0
100007a4:	d007      	beq.n	100007b6 <alarm_pool_alarm_callback+0x10a>
100007a6:	0051      	lsls	r1, r2, #1
100007a8:	188a      	adds	r2, r1, r2
100007aa:	6819      	ldr	r1, [r3, #0]
100007ac:	468c      	mov	ip, r1
100007ae:	4649      	mov	r1, r9
100007b0:	4462      	add	r2, ip
100007b2:	3a03      	subs	r2, #3
100007b4:	7051      	strb	r1, [r2, #1]
100007b6:	464a      	mov	r2, r9
100007b8:	73da      	strb	r2, [r3, #15]
100007ba:	464b      	mov	r3, r9
100007bc:	9a07      	ldr	r2, [sp, #28]
100007be:	3b01      	subs	r3, #1
100007c0:	68d1      	ldr	r1, [r2, #12]
100007c2:	5cca      	ldrb	r2, [r1, r3]
100007c4:	3201      	adds	r2, #1
100007c6:	54ca      	strb	r2, [r1, r3]
100007c8:	465b      	mov	r3, fp
100007ca:	9a07      	ldr	r2, [sp, #28]
100007cc:	6113      	str	r3, [r2, #16]
100007ce:	6853      	ldr	r3, [r2, #4]
100007d0:	f3bf 8f5f 	dmb	sy
100007d4:	465a      	mov	r2, fp
100007d6:	601a      	str	r2, [r3, #0]
100007d8:	f385 8810 	msr	PRIMASK, r5
100007dc:	e778      	b.n	100006d0 <alarm_pool_alarm_callback+0x24>
100007de:	2300      	movs	r3, #0
100007e0:	2600      	movs	r6, #0
100007e2:	4698      	mov	r8, r3
100007e4:	2700      	movs	r7, #0
100007e6:	469a      	mov	sl, r3
100007e8:	2000      	movs	r0, #0
100007ea:	e79e      	b.n	1000072a <alarm_pool_alarm_callback+0x7e>
100007ec:	2900      	cmp	r1, #0
100007ee:	d102      	bne.n	100007f6 <alarm_pool_alarm_callback+0x14a>
100007f0:	2800      	cmp	r0, #0
100007f2:	d000      	beq.n	100007f6 <alarm_pool_alarm_callback+0x14a>
100007f4:	e791      	b.n	1000071a <alarm_pool_alarm_callback+0x6e>
100007f6:	2101      	movs	r1, #1
100007f8:	0020      	movs	r0, r4
100007fa:	f000 fb23 	bl	10000e44 <ph_remove_head_reserve>
100007fe:	4643      	mov	r3, r8
10000800:	681e      	ldr	r6, [r3, #0]
10000802:	685f      	ldr	r7, [r3, #4]
10000804:	689b      	ldr	r3, [r3, #8]
10000806:	9a07      	ldr	r2, [sp, #28]
10000808:	469a      	mov	sl, r3
1000080a:	4643      	mov	r3, r8
1000080c:	68db      	ldr	r3, [r3, #12]
1000080e:	4698      	mov	r8, r3
10000810:	68d3      	ldr	r3, [r2, #12]
10000812:	444b      	add	r3, r9
10000814:	3b01      	subs	r3, #1
10000816:	781b      	ldrb	r3, [r3, #0]
10000818:	930a      	str	r3, [sp, #40]	; 0x28
1000081a:	021b      	lsls	r3, r3, #8
1000081c:	4303      	orrs	r3, r0
1000081e:	6113      	str	r3, [r2, #16]
10000820:	2000      	movs	r0, #0
10000822:	e782      	b.n	1000072a <alarm_pool_alarm_callback+0x7e>
10000824:	6923      	ldr	r3, [r4, #16]
10000826:	2b00      	cmp	r3, #0
10000828:	d0b8      	beq.n	1000079c <alarm_pool_alarm_callback+0xf0>
1000082a:	0033      	movs	r3, r6
1000082c:	003c      	movs	r4, r7
1000082e:	1a5b      	subs	r3, r3, r1
10000830:	4194      	sbcs	r4, r2
10000832:	001a      	movs	r2, r3
10000834:	0023      	movs	r3, r4
10000836:	42a7      	cmp	r7, r4
10000838:	d819      	bhi.n	1000086e <alarm_pool_alarm_callback+0x1c2>
1000083a:	429f      	cmp	r7, r3
1000083c:	d01b      	beq.n	10000876 <alarm_pool_alarm_callback+0x1ca>
1000083e:	4659      	mov	r1, fp
10000840:	9104      	str	r1, [sp, #16]
10000842:	2101      	movs	r1, #1
10000844:	9103      	str	r1, [sp, #12]
10000846:	4649      	mov	r1, r9
10000848:	9102      	str	r1, [sp, #8]
1000084a:	4641      	mov	r1, r8
1000084c:	9101      	str	r1, [sp, #4]
1000084e:	4651      	mov	r1, sl
10000850:	9807      	ldr	r0, [sp, #28]
10000852:	9100      	str	r1, [sp, #0]
10000854:	f7ff fe94 	bl	10000580 <add_alarm_under_lock>
10000858:	e7b6      	b.n	100007c8 <alarm_pool_alarm_callback+0x11c>
1000085a:	f000 f8bb 	bl	100009d4 <time_us_64>
1000085e:	9a08      	ldr	r2, [sp, #32]
10000860:	9b09      	ldr	r3, [sp, #36]	; 0x24
10000862:	0006      	movs	r6, r0
10000864:	000f      	movs	r7, r1
10000866:	1992      	adds	r2, r2, r6
10000868:	417b      	adcs	r3, r7
1000086a:	4299      	cmp	r1, r3
1000086c:	d9e5      	bls.n	1000083a <alarm_pool_alarm_callback+0x18e>
1000086e:	2201      	movs	r2, #1
10000870:	4252      	negs	r2, r2
10000872:	17d3      	asrs	r3, r2, #31
10000874:	e7e3      	b.n	1000083e <alarm_pool_alarm_callback+0x192>
10000876:	4296      	cmp	r6, r2
10000878:	d9e1      	bls.n	1000083e <alarm_pool_alarm_callback+0x192>
1000087a:	2201      	movs	r2, #1
1000087c:	4252      	negs	r2, r2
1000087e:	17d3      	asrs	r3, r2, #31
10000880:	e7dd      	b.n	1000083e <alarm_pool_alarm_callback+0x192>
10000882:	46c0      	nop			; (mov r8, r8)
10000884:	20000b0c 	.word	0x20000b0c
10000888:	0fffffff 	.word	0x0fffffff

1000088c <alarm_pool_init_default>:
1000088c:	b570      	push	{r4, r5, r6, lr}
1000088e:	4c18      	ldr	r4, [pc, #96]	; (100008f0 <alarm_pool_init_default+0x64>)
10000890:	6823      	ldr	r3, [r4, #0]
10000892:	2b00      	cmp	r3, #0
10000894:	d000      	beq.n	10000898 <alarm_pool_init_default+0xc>
10000896:	bd70      	pop	{r4, r5, r6, pc}
10000898:	2003      	movs	r0, #3
1000089a:	f000 f88f 	bl	100009bc <hardware_alarm_claim>
1000089e:	2003      	movs	r0, #3
100008a0:	f000 f94a 	bl	10000b38 <hardware_alarm_cancel>
100008a4:	4913      	ldr	r1, [pc, #76]	; (100008f4 <alarm_pool_init_default+0x68>)
100008a6:	2003      	movs	r0, #3
100008a8:	f000 f89e 	bl	100009e8 <hardware_alarm_set_callback>
100008ac:	2018      	movs	r0, #24
100008ae:	f003 f9f1 	bl	10003c94 <__wrap_malloc>
100008b2:	0005      	movs	r5, r0
100008b4:	f7ff fdca 	bl	1000044c <next_striped_spin_lock_num>
100008b8:	4b0f      	ldr	r3, [pc, #60]	; (100008f8 <alarm_pool_init_default+0x6c>)
100008ba:	002a      	movs	r2, r5
100008bc:	469c      	mov	ip, r3
100008be:	4460      	add	r0, ip
100008c0:	0080      	lsls	r0, r0, #2
100008c2:	490e      	ldr	r1, [pc, #56]	; (100008fc <alarm_pool_init_default+0x70>)
100008c4:	6068      	str	r0, [r5, #4]
100008c6:	2010      	movs	r0, #16
100008c8:	f000 f9c6 	bl	10000c58 <ph_create>
100008cc:	2110      	movs	r1, #16
100008ce:	6028      	str	r0, [r5, #0]
100008d0:	2010      	movs	r0, #16
100008d2:	f003 f9e3 	bl	10003c9c <__wrap_calloc>
100008d6:	2101      	movs	r1, #1
100008d8:	60a8      	str	r0, [r5, #8]
100008da:	2010      	movs	r0, #16
100008dc:	f003 f9de 	bl	10003c9c <__wrap_calloc>
100008e0:	2303      	movs	r3, #3
100008e2:	752b      	strb	r3, [r5, #20]
100008e4:	4b06      	ldr	r3, [pc, #24]	; (10000900 <alarm_pool_init_default+0x74>)
100008e6:	60e8      	str	r0, [r5, #12]
100008e8:	60dd      	str	r5, [r3, #12]
100008ea:	6025      	str	r5, [r4, #0]
100008ec:	e7d3      	b.n	10000896 <alarm_pool_init_default+0xa>
100008ee:	46c0      	nop			; (mov r8, r8)
100008f0:	20000af8 	.word	0x20000af8
100008f4:	100006ad 	.word	0x100006ad
100008f8:	34000040 	.word	0x34000040
100008fc:	1000054d 	.word	0x1000054d
10000900:	20000b0c 	.word	0x20000b0c

10000904 <hardware_alarm_irq_handler>:
10000904:	b5f0      	push	{r4, r5, r6, r7, lr}
10000906:	46d6      	mov	lr, sl
10000908:	464f      	mov	r7, r9
1000090a:	4646      	mov	r6, r8
1000090c:	b5c0      	push	{r6, r7, lr}
1000090e:	f3ef 8305 	mrs	r3, IPSR
10000912:	223f      	movs	r2, #63	; 0x3f
10000914:	4013      	ands	r3, r2
10000916:	0018      	movs	r0, r3
10000918:	3810      	subs	r0, #16
1000091a:	f3ef 8c10 	mrs	ip, PRIMASK
1000091e:	b672      	cpsid	i
10000920:	4d20      	ldr	r5, [pc, #128]	; (100009a4 <hardware_alarm_irq_handler+0xa0>)
10000922:	682a      	ldr	r2, [r5, #0]
10000924:	2a00      	cmp	r2, #0
10000926:	d0fc      	beq.n	10000922 <hardware_alarm_irq_handler+0x1e>
10000928:	f3bf 8f5f 	dmb	sy
1000092c:	2201      	movs	r2, #1
1000092e:	0011      	movs	r1, r2
10000930:	4081      	lsls	r1, r0
10000932:	4c1d      	ldr	r4, [pc, #116]	; (100009a8 <hardware_alarm_irq_handler+0xa4>)
10000934:	4688      	mov	r8, r1
10000936:	6361      	str	r1, [r4, #52]	; 0x34
10000938:	491c      	ldr	r1, [pc, #112]	; (100009ac <hardware_alarm_irq_handler+0xa8>)
1000093a:	0017      	movs	r7, r2
1000093c:	780e      	ldrb	r6, [r1, #0]
1000093e:	468a      	mov	sl, r1
10000940:	0031      	movs	r1, r6
10000942:	40c1      	lsrs	r1, r0
10000944:	400f      	ands	r7, r1
10000946:	420a      	tst	r2, r1
10000948:	d015      	beq.n	10000976 <hardware_alarm_irq_handler+0x72>
1000094a:	4919      	ldr	r1, [pc, #100]	; (100009b0 <hardware_alarm_irq_handler+0xac>)
1000094c:	0082      	lsls	r2, r0, #2
1000094e:	6a64      	ldr	r4, [r4, #36]	; 0x24
10000950:	5851      	ldr	r1, [r2, r1]
10000952:	428c      	cmp	r4, r1
10000954:	d319      	bcc.n	1000098a <hardware_alarm_irq_handler+0x86>
10000956:	4b17      	ldr	r3, [pc, #92]	; (100009b4 <hardware_alarm_irq_handler+0xb0>)
10000958:	58d2      	ldr	r2, [r2, r3]
1000095a:	4643      	mov	r3, r8
1000095c:	439e      	bics	r6, r3
1000095e:	4653      	mov	r3, sl
10000960:	701e      	strb	r6, [r3, #0]
10000962:	f3bf 8f5f 	dmb	sy
10000966:	2300      	movs	r3, #0
10000968:	602b      	str	r3, [r5, #0]
1000096a:	f38c 8810 	msr	PRIMASK, ip
1000096e:	2a00      	cmp	r2, #0
10000970:	d006      	beq.n	10000980 <hardware_alarm_irq_handler+0x7c>
10000972:	4790      	blx	r2
10000974:	e004      	b.n	10000980 <hardware_alarm_irq_handler+0x7c>
10000976:	f3bf 8f5f 	dmb	sy
1000097a:	602f      	str	r7, [r5, #0]
1000097c:	f38c 8810 	msr	PRIMASK, ip
10000980:	bc1c      	pop	{r2, r3, r4}
10000982:	4690      	mov	r8, r2
10000984:	4699      	mov	r9, r3
10000986:	46a2      	mov	sl, r4
10000988:	bdf0      	pop	{r4, r5, r6, r7, pc}
1000098a:	4a0b      	ldr	r2, [pc, #44]	; (100009b8 <hardware_alarm_irq_handler+0xb4>)
1000098c:	009b      	lsls	r3, r3, #2
1000098e:	4690      	mov	r8, r2
10000990:	4443      	add	r3, r8
10000992:	681a      	ldr	r2, [r3, #0]
10000994:	601a      	str	r2, [r3, #0]
10000996:	f3bf 8f5f 	dmb	sy
1000099a:	2300      	movs	r3, #0
1000099c:	602b      	str	r3, [r5, #0]
1000099e:	f38c 8810 	msr	PRIMASK, ip
100009a2:	e7ed      	b.n	10000980 <hardware_alarm_irq_handler+0x7c>
100009a4:	d0000128 	.word	0xd0000128
100009a8:	40054000 	.word	0x40054000
100009ac:	20000b30 	.word	0x20000b30
100009b0:	20000b1c 	.word	0x20000b1c
100009b4:	20000ac0 	.word	0x20000ac0
100009b8:	40053fd0 	.word	0x40053fd0

100009bc <hardware_alarm_claim>:
100009bc:	b510      	push	{r4, lr}
100009be:	0001      	movs	r1, r0
100009c0:	4a02      	ldr	r2, [pc, #8]	; (100009cc <hardware_alarm_claim+0x10>)
100009c2:	4803      	ldr	r0, [pc, #12]	; (100009d0 <hardware_alarm_claim+0x14>)
100009c4:	f7ff fd04 	bl	100003d0 <hw_claim_or_assert>
100009c8:	bd10      	pop	{r4, pc}
100009ca:	46c0      	nop			; (mov r8, r8)
100009cc:	10004db8 	.word	0x10004db8
100009d0:	20000b2d 	.word	0x20000b2d

100009d4 <time_us_64>:
100009d4:	4b03      	ldr	r3, [pc, #12]	; (100009e4 <time_us_64+0x10>)
100009d6:	6a59      	ldr	r1, [r3, #36]	; 0x24
100009d8:	000a      	movs	r2, r1
100009da:	6a98      	ldr	r0, [r3, #40]	; 0x28
100009dc:	6a59      	ldr	r1, [r3, #36]	; 0x24
100009de:	428a      	cmp	r2, r1
100009e0:	d1fa      	bne.n	100009d8 <time_us_64+0x4>
100009e2:	4770      	bx	lr
100009e4:	40054000 	.word	0x40054000

100009e8 <hardware_alarm_set_callback>:
100009e8:	b570      	push	{r4, r5, r6, lr}
100009ea:	0004      	movs	r4, r0
100009ec:	000d      	movs	r5, r1
100009ee:	f3ef 8610 	mrs	r6, PRIMASK
100009f2:	b672      	cpsid	i
100009f4:	4a1a      	ldr	r2, [pc, #104]	; (10000a60 <hardware_alarm_set_callback+0x78>)
100009f6:	6813      	ldr	r3, [r2, #0]
100009f8:	2b00      	cmp	r3, #0
100009fa:	d0fc      	beq.n	100009f6 <hardware_alarm_set_callback+0xe>
100009fc:	f3bf 8f5f 	dmb	sy
10000a00:	2d00      	cmp	r5, #0
10000a02:	d01b      	beq.n	10000a3c <hardware_alarm_set_callback+0x54>
10000a04:	0020      	movs	r0, r4
10000a06:	f000 fd77 	bl	100014f8 <irq_get_vtable_handler>
10000a0a:	4916      	ldr	r1, [pc, #88]	; (10000a64 <hardware_alarm_set_callback+0x7c>)
10000a0c:	4281      	cmp	r1, r0
10000a0e:	d00a      	beq.n	10000a26 <hardware_alarm_set_callback+0x3e>
10000a10:	0020      	movs	r0, r4
10000a12:	f000 fd79 	bl	10001508 <irq_set_exclusive_handler>
10000a16:	2101      	movs	r1, #1
10000a18:	0020      	movs	r0, r4
10000a1a:	f000 fd5b 	bl	100014d4 <irq_set_enabled>
10000a1e:	2301      	movs	r3, #1
10000a20:	40a3      	lsls	r3, r4
10000a22:	4a11      	ldr	r2, [pc, #68]	; (10000a68 <hardware_alarm_set_callback+0x80>)
10000a24:	6013      	str	r3, [r2, #0]
10000a26:	4b11      	ldr	r3, [pc, #68]	; (10000a6c <hardware_alarm_set_callback+0x84>)
10000a28:	00a4      	lsls	r4, r4, #2
10000a2a:	50e5      	str	r5, [r4, r3]
10000a2c:	f3bf 8f5f 	dmb	sy
10000a30:	2200      	movs	r2, #0
10000a32:	4b0b      	ldr	r3, [pc, #44]	; (10000a60 <hardware_alarm_set_callback+0x78>)
10000a34:	601a      	str	r2, [r3, #0]
10000a36:	f386 8810 	msr	PRIMASK, r6
10000a3a:	bd70      	pop	{r4, r5, r6, pc}
10000a3c:	4b0b      	ldr	r3, [pc, #44]	; (10000a6c <hardware_alarm_set_callback+0x84>)
10000a3e:	00a2      	lsls	r2, r4, #2
10000a40:	50d5      	str	r5, [r2, r3]
10000a42:	2201      	movs	r2, #1
10000a44:	40a2      	lsls	r2, r4
10000a46:	490a      	ldr	r1, [pc, #40]	; (10000a70 <hardware_alarm_set_callback+0x88>)
10000a48:	0020      	movs	r0, r4
10000a4a:	780b      	ldrb	r3, [r1, #0]
10000a4c:	4393      	bics	r3, r2
10000a4e:	700b      	strb	r3, [r1, #0]
10000a50:	4904      	ldr	r1, [pc, #16]	; (10000a64 <hardware_alarm_set_callback+0x7c>)
10000a52:	f000 fd83 	bl	1000155c <irq_remove_handler>
10000a56:	2100      	movs	r1, #0
10000a58:	0020      	movs	r0, r4
10000a5a:	f000 fd3b 	bl	100014d4 <irq_set_enabled>
10000a5e:	e7e5      	b.n	10000a2c <hardware_alarm_set_callback+0x44>
10000a60:	d0000128 	.word	0xd0000128
10000a64:	10000905 	.word	0x10000905
10000a68:	40056038 	.word	0x40056038
10000a6c:	20000ac0 	.word	0x20000ac0
10000a70:	20000b30 	.word	0x20000b30

10000a74 <hardware_alarm_set_target>:
10000a74:	b5f0      	push	{r4, r5, r6, r7, lr}
10000a76:	46ce      	mov	lr, r9
10000a78:	4647      	mov	r7, r8
10000a7a:	b580      	push	{r7, lr}
10000a7c:	4c2a      	ldr	r4, [pc, #168]	; (10000b28 <hardware_alarm_set_target+0xb4>)
10000a7e:	6a61      	ldr	r1, [r4, #36]	; 0x24
10000a80:	000d      	movs	r5, r1
10000a82:	6aa6      	ldr	r6, [r4, #40]	; 0x28
10000a84:	6a61      	ldr	r1, [r4, #36]	; 0x24
10000a86:	42a9      	cmp	r1, r5
10000a88:	d1fa      	bne.n	10000a80 <hardware_alarm_set_target+0xc>
10000a8a:	428b      	cmp	r3, r1
10000a8c:	d807      	bhi.n	10000a9e <hardware_alarm_set_target+0x2a>
10000a8e:	d004      	beq.n	10000a9a <hardware_alarm_set_target+0x26>
10000a90:	2001      	movs	r0, #1
10000a92:	bc0c      	pop	{r2, r3}
10000a94:	4690      	mov	r8, r2
10000a96:	4699      	mov	r9, r3
10000a98:	bdf0      	pop	{r4, r5, r6, r7, pc}
10000a9a:	42b2      	cmp	r2, r6
10000a9c:	d9f8      	bls.n	10000a90 <hardware_alarm_set_target+0x1c>
10000a9e:	f3ef 8810 	mrs	r8, PRIMASK
10000aa2:	b672      	cpsid	i
10000aa4:	4c21      	ldr	r4, [pc, #132]	; (10000b2c <hardware_alarm_set_target+0xb8>)
10000aa6:	6821      	ldr	r1, [r4, #0]
10000aa8:	2900      	cmp	r1, #0
10000aaa:	d0fc      	beq.n	10000aa6 <hardware_alarm_set_target+0x32>
10000aac:	f3bf 8f5f 	dmb	sy
10000ab0:	2501      	movs	r5, #1
10000ab2:	4085      	lsls	r5, r0
10000ab4:	4c1c      	ldr	r4, [pc, #112]	; (10000b28 <hardware_alarm_set_target+0xb4>)
10000ab6:	4e1e      	ldr	r6, [pc, #120]	; (10000b30 <hardware_alarm_set_target+0xbc>)
10000ab8:	6365      	str	r5, [r4, #52]	; 0x34
10000aba:	b2e9      	uxtb	r1, r5
10000abc:	468c      	mov	ip, r1
10000abe:	7831      	ldrb	r1, [r6, #0]
10000ac0:	4689      	mov	r9, r1
10000ac2:	4661      	mov	r1, ip
10000ac4:	464f      	mov	r7, r9
10000ac6:	4339      	orrs	r1, r7
10000ac8:	7031      	strb	r1, [r6, #0]
10000aca:	1d01      	adds	r1, r0, #4
10000acc:	0089      	lsls	r1, r1, #2
10000ace:	510a      	str	r2, [r1, r4]
10000ad0:	4918      	ldr	r1, [pc, #96]	; (10000b34 <hardware_alarm_set_target+0xc0>)
10000ad2:	0080      	lsls	r0, r0, #2
10000ad4:	5043      	str	r3, [r0, r1]
10000ad6:	6a21      	ldr	r1, [r4, #32]
10000ad8:	2000      	movs	r0, #0
10000ada:	4229      	tst	r1, r5
10000adc:	d00c      	beq.n	10000af8 <hardware_alarm_set_target+0x84>
10000ade:	0020      	movs	r0, r4
10000ae0:	6a61      	ldr	r1, [r4, #36]	; 0x24
10000ae2:	000c      	movs	r4, r1
10000ae4:	6a87      	ldr	r7, [r0, #40]	; 0x28
10000ae6:	6a41      	ldr	r1, [r0, #36]	; 0x24
10000ae8:	42a1      	cmp	r1, r4
10000aea:	d1fa      	bne.n	10000ae2 <hardware_alarm_set_target+0x6e>
10000aec:	428b      	cmp	r3, r1
10000aee:	d802      	bhi.n	10000af6 <hardware_alarm_set_target+0x82>
10000af0:	d10a      	bne.n	10000b08 <hardware_alarm_set_target+0x94>
10000af2:	42ba      	cmp	r2, r7
10000af4:	d908      	bls.n	10000b08 <hardware_alarm_set_target+0x94>
10000af6:	2000      	movs	r0, #0
10000af8:	f3bf 8f5f 	dmb	sy
10000afc:	2200      	movs	r2, #0
10000afe:	4b0b      	ldr	r3, [pc, #44]	; (10000b2c <hardware_alarm_set_target+0xb8>)
10000b00:	601a      	str	r2, [r3, #0]
10000b02:	f388 8810 	msr	PRIMASK, r8
10000b06:	e7c4      	b.n	10000a92 <hardware_alarm_set_target+0x1e>
10000b08:	4b07      	ldr	r3, [pc, #28]	; (10000b28 <hardware_alarm_set_target+0xb4>)
10000b0a:	464f      	mov	r7, r9
10000b0c:	621d      	str	r5, [r3, #32]
10000b0e:	635d      	str	r5, [r3, #52]	; 0x34
10000b10:	4663      	mov	r3, ip
10000b12:	439f      	bics	r7, r3
10000b14:	2001      	movs	r0, #1
10000b16:	7037      	strb	r7, [r6, #0]
10000b18:	f3bf 8f5f 	dmb	sy
10000b1c:	2200      	movs	r2, #0
10000b1e:	4b03      	ldr	r3, [pc, #12]	; (10000b2c <hardware_alarm_set_target+0xb8>)
10000b20:	601a      	str	r2, [r3, #0]
10000b22:	f388 8810 	msr	PRIMASK, r8
10000b26:	e7b4      	b.n	10000a92 <hardware_alarm_set_target+0x1e>
10000b28:	40054000 	.word	0x40054000
10000b2c:	d0000128 	.word	0xd0000128
10000b30:	20000b30 	.word	0x20000b30
10000b34:	20000b1c 	.word	0x20000b1c

10000b38 <hardware_alarm_cancel>:
10000b38:	b510      	push	{r4, lr}
10000b3a:	f3ef 8410 	mrs	r4, PRIMASK
10000b3e:	b672      	cpsid	i
10000b40:	490a      	ldr	r1, [pc, #40]	; (10000b6c <hardware_alarm_cancel+0x34>)
10000b42:	680b      	ldr	r3, [r1, #0]
10000b44:	2b00      	cmp	r3, #0
10000b46:	d0fc      	beq.n	10000b42 <hardware_alarm_cancel+0xa>
10000b48:	f3bf 8f5f 	dmb	sy
10000b4c:	2301      	movs	r3, #1
10000b4e:	4083      	lsls	r3, r0
10000b50:	4a07      	ldr	r2, [pc, #28]	; (10000b70 <hardware_alarm_cancel+0x38>)
10000b52:	4808      	ldr	r0, [pc, #32]	; (10000b74 <hardware_alarm_cancel+0x3c>)
10000b54:	6213      	str	r3, [r2, #32]
10000b56:	7802      	ldrb	r2, [r0, #0]
10000b58:	439a      	bics	r2, r3
10000b5a:	7002      	strb	r2, [r0, #0]
10000b5c:	f3bf 8f5f 	dmb	sy
10000b60:	2300      	movs	r3, #0
10000b62:	600b      	str	r3, [r1, #0]
10000b64:	f384 8810 	msr	PRIMASK, r4
10000b68:	bd10      	pop	{r4, pc}
10000b6a:	46c0      	nop			; (mov r8, r8)
10000b6c:	d0000128 	.word	0xd0000128
10000b70:	40054000 	.word	0x40054000
10000b74:	20000b30 	.word	0x20000b30

10000b78 <lock_init>:
10000b78:	4b02      	ldr	r3, [pc, #8]	; (10000b84 <lock_init+0xc>)
10000b7a:	469c      	mov	ip, r3
10000b7c:	4461      	add	r1, ip
10000b7e:	0089      	lsls	r1, r1, #2
10000b80:	6001      	str	r1, [r0, #0]
10000b82:	4770      	bx	lr
10000b84:	34000040 	.word	0x34000040

10000b88 <mutex_init>:
10000b88:	b510      	push	{r4, lr}
10000b8a:	0004      	movs	r4, r0
10000b8c:	f7ff fc5e 	bl	1000044c <next_striped_spin_lock_num>
10000b90:	0001      	movs	r1, r0
10000b92:	0020      	movs	r0, r4
10000b94:	f7ff fff0 	bl	10000b78 <lock_init>
10000b98:	f3bf 8f5f 	dmb	sy
10000b9c:	bd10      	pop	{r4, pc}
10000b9e:	46c0      	nop			; (mov r8, r8)

10000ba0 <datetime_to_str>:
10000ba0:	2304      	movs	r3, #4
10000ba2:	b530      	push	{r4, r5, lr}
10000ba4:	56d3      	ldrsb	r3, [r2, r3]
10000ba6:	4c0f      	ldr	r4, [pc, #60]	; (10000be4 <datetime_to_str+0x44>)
10000ba8:	009b      	lsls	r3, r3, #2
10000baa:	591b      	ldr	r3, [r3, r4]
10000bac:	2500      	movs	r5, #0
10000bae:	5f54      	ldrsh	r4, [r2, r5]
10000bb0:	b087      	sub	sp, #28
10000bb2:	9405      	str	r4, [sp, #20]
10000bb4:	2407      	movs	r4, #7
10000bb6:	5714      	ldrsb	r4, [r2, r4]
10000bb8:	4d0b      	ldr	r5, [pc, #44]	; (10000be8 <datetime_to_str+0x48>)
10000bba:	9404      	str	r4, [sp, #16]
10000bbc:	2406      	movs	r4, #6
10000bbe:	5714      	ldrsb	r4, [r2, r4]
10000bc0:	9403      	str	r4, [sp, #12]
10000bc2:	2405      	movs	r4, #5
10000bc4:	5714      	ldrsb	r4, [r2, r4]
10000bc6:	9402      	str	r4, [sp, #8]
10000bc8:	2402      	movs	r4, #2
10000bca:	5714      	ldrsb	r4, [r2, r4]
10000bcc:	3c01      	subs	r4, #1
10000bce:	00a4      	lsls	r4, r4, #2
10000bd0:	5964      	ldr	r4, [r4, r5]
10000bd2:	9401      	str	r4, [sp, #4]
10000bd4:	78d2      	ldrb	r2, [r2, #3]
10000bd6:	b252      	sxtb	r2, r2
10000bd8:	9200      	str	r2, [sp, #0]
10000bda:	4a04      	ldr	r2, [pc, #16]	; (10000bec <datetime_to_str+0x4c>)
10000bdc:	f002 f91a 	bl	10002e14 <__wrap_snprintf>
10000be0:	b007      	add	sp, #28
10000be2:	bd30      	pop	{r4, r5, pc}
10000be4:	10004ea8 	.word	0x10004ea8
10000be8:	10004ec4 	.word	0x10004ec4
10000bec:	10004ddc 	.word	0x10004ddc

10000bf0 <ph_merge_nodes>:
10000bf0:	b570      	push	{r4, r5, r6, lr}
10000bf2:	0005      	movs	r5, r0
10000bf4:	000e      	movs	r6, r1
10000bf6:	0014      	movs	r4, r2
10000bf8:	2900      	cmp	r1, #0
10000bfa:	d024      	beq.n	10000c46 <ph_merge_nodes+0x56>
10000bfc:	2a00      	cmp	r2, #0
10000bfe:	d024      	beq.n	10000c4a <ph_merge_nodes+0x5a>
10000c00:	6880      	ldr	r0, [r0, #8]
10000c02:	686b      	ldr	r3, [r5, #4]
10000c04:	4798      	blx	r3
10000c06:	6829      	ldr	r1, [r5, #0]
10000c08:	2800      	cmp	r0, #0
10000c0a:	d00e      	beq.n	10000c2a <ph_merge_nodes+0x3a>
10000c0c:	0063      	lsls	r3, r4, #1
10000c0e:	191b      	adds	r3, r3, r4
10000c10:	0072      	lsls	r2, r6, #1
10000c12:	3b03      	subs	r3, #3
10000c14:	1992      	adds	r2, r2, r6
10000c16:	18cb      	adds	r3, r1, r3
10000c18:	3a03      	subs	r2, #3
10000c1a:	709e      	strb	r6, [r3, #2]
10000c1c:	1888      	adds	r0, r1, r2
10000c1e:	5c8a      	ldrb	r2, [r1, r2]
10000c20:	2a00      	cmp	r2, #0
10000c22:	d114      	bne.n	10000c4e <ph_merge_nodes+0x5e>
10000c24:	7004      	strb	r4, [r0, #0]
10000c26:	0030      	movs	r0, r6
10000c28:	e00e      	b.n	10000c48 <ph_merge_nodes+0x58>
10000c2a:	0073      	lsls	r3, r6, #1
10000c2c:	199b      	adds	r3, r3, r6
10000c2e:	0062      	lsls	r2, r4, #1
10000c30:	3b03      	subs	r3, #3
10000c32:	1912      	adds	r2, r2, r4
10000c34:	18cb      	adds	r3, r1, r3
10000c36:	3a03      	subs	r2, #3
10000c38:	709c      	strb	r4, [r3, #2]
10000c3a:	1888      	adds	r0, r1, r2
10000c3c:	5c8a      	ldrb	r2, [r1, r2]
10000c3e:	2a00      	cmp	r2, #0
10000c40:	d000      	beq.n	10000c44 <ph_merge_nodes+0x54>
10000c42:	705a      	strb	r2, [r3, #1]
10000c44:	7006      	strb	r6, [r0, #0]
10000c46:	0020      	movs	r0, r4
10000c48:	bd70      	pop	{r4, r5, r6, pc}
10000c4a:	0008      	movs	r0, r1
10000c4c:	e7fc      	b.n	10000c48 <ph_merge_nodes+0x58>
10000c4e:	705a      	strb	r2, [r3, #1]
10000c50:	7004      	strb	r4, [r0, #0]
10000c52:	0030      	movs	r0, r6
10000c54:	e7f8      	b.n	10000c48 <ph_merge_nodes+0x58>
10000c56:	46c0      	nop			; (mov r8, r8)

10000c58 <ph_create>:
10000c58:	b5f0      	push	{r4, r5, r6, r7, lr}
10000c5a:	46c6      	mov	lr, r8
10000c5c:	0005      	movs	r5, r0
10000c5e:	000f      	movs	r7, r1
10000c60:	b500      	push	{lr}
10000c62:	2110      	movs	r1, #16
10000c64:	2001      	movs	r0, #1
10000c66:	0016      	movs	r6, r2
10000c68:	f003 f818 	bl	10003c9c <__wrap_calloc>
10000c6c:	b2eb      	uxtb	r3, r5
10000c6e:	0004      	movs	r4, r0
10000c70:	7303      	strb	r3, [r0, #12]
10000c72:	2103      	movs	r1, #3
10000c74:	6047      	str	r7, [r0, #4]
10000c76:	0028      	movs	r0, r5
10000c78:	4698      	mov	r8, r3
10000c7a:	f003 f80f 	bl	10003c9c <__wrap_calloc>
10000c7e:	2300      	movs	r3, #0
10000c80:	7363      	strb	r3, [r4, #13]
10000c82:	3301      	adds	r3, #1
10000c84:	73a3      	strb	r3, [r4, #14]
10000c86:	4643      	mov	r3, r8
10000c88:	21ff      	movs	r1, #255	; 0xff
10000c8a:	73e3      	strb	r3, [r4, #15]
10000c8c:	23fe      	movs	r3, #254	; 0xfe
10000c8e:	6020      	str	r0, [r4, #0]
10000c90:	60a6      	str	r6, [r4, #8]
10000c92:	4029      	ands	r1, r5
10000c94:	422b      	tst	r3, r5
10000c96:	d006      	beq.n	10000ca6 <ph_create+0x4e>
10000c98:	1c42      	adds	r2, r0, #1
10000c9a:	3bfd      	subs	r3, #253	; 0xfd
10000c9c:	3301      	adds	r3, #1
10000c9e:	7013      	strb	r3, [r2, #0]
10000ca0:	3203      	adds	r2, #3
10000ca2:	428b      	cmp	r3, r1
10000ca4:	d3fa      	bcc.n	10000c9c <ph_create+0x44>
10000ca6:	004b      	lsls	r3, r1, #1
10000ca8:	1859      	adds	r1, r3, r1
10000caa:	2300      	movs	r3, #0
10000cac:	1840      	adds	r0, r0, r1
10000cae:	3803      	subs	r0, #3
10000cb0:	7043      	strb	r3, [r0, #1]
10000cb2:	0020      	movs	r0, r4
10000cb4:	bc04      	pop	{r2}
10000cb6:	4690      	mov	r8, r2
10000cb8:	bdf0      	pop	{r4, r5, r6, r7, pc}
10000cba:	46c0      	nop			; (mov r8, r8)

10000cbc <ph_merge_two_pass>:
10000cbc:	b5f8      	push	{r3, r4, r5, r6, r7, lr}
10000cbe:	46ce      	mov	lr, r9
10000cc0:	4647      	mov	r7, r8
10000cc2:	0006      	movs	r6, r0
10000cc4:	000c      	movs	r4, r1
10000cc6:	b580      	push	{r7, lr}
10000cc8:	2900      	cmp	r1, #0
10000cca:	d007      	beq.n	10000cdc <ph_merge_two_pass+0x20>
10000ccc:	004d      	lsls	r5, r1, #1
10000cce:	6803      	ldr	r3, [r0, #0]
10000cd0:	186d      	adds	r5, r5, r1
10000cd2:	3d03      	subs	r5, #3
10000cd4:	195a      	adds	r2, r3, r5
10000cd6:	7857      	ldrb	r7, [r2, #1]
10000cd8:	2f00      	cmp	r7, #0
10000cda:	d104      	bne.n	10000ce6 <ph_merge_two_pass+0x2a>
10000cdc:	0020      	movs	r0, r4
10000cde:	bc0c      	pop	{r2, r3}
10000ce0:	4690      	mov	r8, r2
10000ce2:	4699      	mov	r9, r3
10000ce4:	bdf8      	pop	{r3, r4, r5, r6, r7, pc}
10000ce6:	0079      	lsls	r1, r7, #1
10000ce8:	19c9      	adds	r1, r1, r7
10000cea:	3903      	subs	r1, #3
10000cec:	4688      	mov	r8, r1
10000cee:	4443      	add	r3, r8
10000cf0:	7859      	ldrb	r1, [r3, #1]
10000cf2:	4689      	mov	r9, r1
10000cf4:	2100      	movs	r1, #0
10000cf6:	7059      	strb	r1, [r3, #1]
10000cf8:	7051      	strb	r1, [r2, #1]
10000cfa:	6873      	ldr	r3, [r6, #4]
10000cfc:	003a      	movs	r2, r7
10000cfe:	0021      	movs	r1, r4
10000d00:	6880      	ldr	r0, [r0, #8]
10000d02:	4798      	blx	r3
10000d04:	6833      	ldr	r3, [r6, #0]
10000d06:	2800      	cmp	r0, #0
10000d08:	d014      	beq.n	10000d34 <ph_merge_two_pass+0x78>
10000d0a:	4642      	mov	r2, r8
10000d0c:	189a      	adds	r2, r3, r2
10000d0e:	7094      	strb	r4, [r2, #2]
10000d10:	1959      	adds	r1, r3, r5
10000d12:	5d5b      	ldrb	r3, [r3, r5]
10000d14:	2b00      	cmp	r3, #0
10000d16:	d000      	beq.n	10000d1a <ph_merge_two_pass+0x5e>
10000d18:	7053      	strb	r3, [r2, #1]
10000d1a:	700f      	strb	r7, [r1, #0]
10000d1c:	0027      	movs	r7, r4
10000d1e:	4649      	mov	r1, r9
10000d20:	0030      	movs	r0, r6
10000d22:	f7ff ffcb 	bl	10000cbc <ph_merge_two_pass>
10000d26:	0039      	movs	r1, r7
10000d28:	0002      	movs	r2, r0
10000d2a:	0030      	movs	r0, r6
10000d2c:	f7ff ff60 	bl	10000bf0 <ph_merge_nodes>
10000d30:	0004      	movs	r4, r0
10000d32:	e7d3      	b.n	10000cdc <ph_merge_two_pass+0x20>
10000d34:	4642      	mov	r2, r8
10000d36:	4641      	mov	r1, r8
10000d38:	195d      	adds	r5, r3, r5
10000d3a:	70af      	strb	r7, [r5, #2]
10000d3c:	189a      	adds	r2, r3, r2
10000d3e:	5c5b      	ldrb	r3, [r3, r1]
10000d40:	2b00      	cmp	r3, #0
10000d42:	d000      	beq.n	10000d46 <ph_merge_two_pass+0x8a>
10000d44:	706b      	strb	r3, [r5, #1]
10000d46:	7014      	strb	r4, [r2, #0]
10000d48:	e7e9      	b.n	10000d1e <ph_merge_two_pass+0x62>
10000d4a:	46c0      	nop			; (mov r8, r8)

10000d4c <ph_remove_any_head>:
10000d4c:	b5f0      	push	{r4, r5, r6, r7, lr}
10000d4e:	4657      	mov	r7, sl
10000d50:	4645      	mov	r5, r8
10000d52:	46de      	mov	lr, fp
10000d54:	464e      	mov	r6, r9
10000d56:	b5e0      	push	{r5, r6, r7, lr}
10000d58:	000d      	movs	r5, r1
10000d5a:	006b      	lsls	r3, r5, #1
10000d5c:	6801      	ldr	r1, [r0, #0]
10000d5e:	195b      	adds	r3, r3, r5
10000d60:	1edf      	subs	r7, r3, #3
10000d62:	0004      	movs	r4, r0
10000d64:	5dc8      	ldrb	r0, [r1, r7]
10000d66:	b083      	sub	sp, #12
10000d68:	9201      	str	r2, [sp, #4]
10000d6a:	19ca      	adds	r2, r1, r7
10000d6c:	2800      	cmp	r0, #0
10000d6e:	d04c      	beq.n	10000e0a <ph_remove_any_head+0xbe>
10000d70:	0043      	lsls	r3, r0, #1
10000d72:	181b      	adds	r3, r3, r0
10000d74:	3b03      	subs	r3, #3
10000d76:	18cb      	adds	r3, r1, r3
10000d78:	785e      	ldrb	r6, [r3, #1]
10000d7a:	46b4      	mov	ip, r6
10000d7c:	2e00      	cmp	r6, #0
10000d7e:	d116      	bne.n	10000dae <ph_remove_any_head+0x62>
10000d80:	9e01      	ldr	r6, [sp, #4]
10000d82:	2e00      	cmp	r6, #0
10000d84:	d13e      	bne.n	10000e04 <ph_remove_any_head+0xb8>
10000d86:	7be6      	ldrb	r6, [r4, #15]
10000d88:	2e00      	cmp	r6, #0
10000d8a:	d004      	beq.n	10000d96 <ph_remove_any_head+0x4a>
10000d8c:	0073      	lsls	r3, r6, #1
10000d8e:	199b      	adds	r3, r3, r6
10000d90:	18cb      	adds	r3, r1, r3
10000d92:	3b03      	subs	r3, #3
10000d94:	705d      	strb	r5, [r3, #1]
10000d96:	73e5      	strb	r5, [r4, #15]
10000d98:	2800      	cmp	r0, #0
10000d9a:	d12f      	bne.n	10000dfc <ph_remove_any_head+0xb0>
10000d9c:	2300      	movs	r3, #0
10000d9e:	7053      	strb	r3, [r2, #1]
10000da0:	b003      	add	sp, #12
10000da2:	bc3c      	pop	{r2, r3, r4, r5}
10000da4:	4690      	mov	r8, r2
10000da6:	4699      	mov	r9, r3
10000da8:	46a2      	mov	sl, r4
10000daa:	46ab      	mov	fp, r5
10000dac:	bdf0      	pop	{r4, r5, r6, r7, pc}
10000dae:	0072      	lsls	r2, r6, #1
10000db0:	4462      	add	r2, ip
10000db2:	3a03      	subs	r2, #3
10000db4:	1889      	adds	r1, r1, r2
10000db6:	784a      	ldrb	r2, [r1, #1]
10000db8:	4690      	mov	r8, r2
10000dba:	2200      	movs	r2, #0
10000dbc:	704a      	strb	r2, [r1, #1]
10000dbe:	4691      	mov	r9, r2
10000dc0:	705a      	strb	r2, [r3, #1]
10000dc2:	0001      	movs	r1, r0
10000dc4:	0032      	movs	r2, r6
10000dc6:	0020      	movs	r0, r4
10000dc8:	f7ff ff12 	bl	10000bf0 <ph_merge_nodes>
10000dcc:	4643      	mov	r3, r8
10000dce:	4682      	mov	sl, r0
10000dd0:	2b00      	cmp	r3, #0
10000dd2:	d007      	beq.n	10000de4 <ph_remove_any_head+0x98>
10000dd4:	005b      	lsls	r3, r3, #1
10000dd6:	6821      	ldr	r1, [r4, #0]
10000dd8:	4443      	add	r3, r8
10000dda:	3b03      	subs	r3, #3
10000ddc:	18cb      	adds	r3, r1, r3
10000dde:	785a      	ldrb	r2, [r3, #1]
10000de0:	2a00      	cmp	r2, #0
10000de2:	d116      	bne.n	10000e12 <ph_remove_any_head+0xc6>
10000de4:	4642      	mov	r2, r8
10000de6:	4651      	mov	r1, sl
10000de8:	0020      	movs	r0, r4
10000dea:	f7ff ff01 	bl	10000bf0 <ph_merge_nodes>
10000dee:	6821      	ldr	r1, [r4, #0]
10000df0:	9b01      	ldr	r3, [sp, #4]
10000df2:	19ca      	adds	r2, r1, r7
10000df4:	2b00      	cmp	r3, #0
10000df6:	d0c6      	beq.n	10000d86 <ph_remove_any_head+0x3a>
10000df8:	2800      	cmp	r0, #0
10000dfa:	d0cf      	beq.n	10000d9c <ph_remove_any_head+0x50>
10000dfc:	0043      	lsls	r3, r0, #1
10000dfe:	181b      	adds	r3, r3, r0
10000e00:	3b03      	subs	r3, #3
10000e02:	18cb      	adds	r3, r1, r3
10000e04:	2100      	movs	r1, #0
10000e06:	7099      	strb	r1, [r3, #2]
10000e08:	e7c8      	b.n	10000d9c <ph_remove_any_head+0x50>
10000e0a:	9b01      	ldr	r3, [sp, #4]
10000e0c:	2b00      	cmp	r3, #0
10000e0e:	d1c5      	bne.n	10000d9c <ph_remove_any_head+0x50>
10000e10:	e7b9      	b.n	10000d86 <ph_remove_any_head+0x3a>
10000e12:	0050      	lsls	r0, r2, #1
10000e14:	1880      	adds	r0, r0, r2
10000e16:	3803      	subs	r0, #3
10000e18:	1809      	adds	r1, r1, r0
10000e1a:	7848      	ldrb	r0, [r1, #1]
10000e1c:	4683      	mov	fp, r0
10000e1e:	4648      	mov	r0, r9
10000e20:	7048      	strb	r0, [r1, #1]
10000e22:	7058      	strb	r0, [r3, #1]
10000e24:	4641      	mov	r1, r8
10000e26:	0020      	movs	r0, r4
10000e28:	f7ff fee2 	bl	10000bf0 <ph_merge_nodes>
10000e2c:	4659      	mov	r1, fp
10000e2e:	4680      	mov	r8, r0
10000e30:	0020      	movs	r0, r4
10000e32:	f7ff ff43 	bl	10000cbc <ph_merge_two_pass>
10000e36:	4641      	mov	r1, r8
10000e38:	0002      	movs	r2, r0
10000e3a:	0020      	movs	r0, r4
10000e3c:	f7ff fed8 	bl	10000bf0 <ph_merge_nodes>
10000e40:	4680      	mov	r8, r0
10000e42:	e7cf      	b.n	10000de4 <ph_remove_any_head+0x98>

10000e44 <ph_remove_head_reserve>:
10000e44:	b5f0      	push	{r4, r5, r6, r7, lr}
10000e46:	464e      	mov	r6, r9
10000e48:	4645      	mov	r5, r8
10000e4a:	46de      	mov	lr, fp
10000e4c:	4657      	mov	r7, sl
10000e4e:	b5e0      	push	{r5, r6, r7, lr}
10000e50:	7b46      	ldrb	r6, [r0, #13]
10000e52:	0004      	movs	r4, r0
10000e54:	0075      	lsls	r5, r6, #1
10000e56:	6800      	ldr	r0, [r0, #0]
10000e58:	19ad      	adds	r5, r5, r6
10000e5a:	3d03      	subs	r5, #3
10000e5c:	b083      	sub	sp, #12
10000e5e:	9101      	str	r1, [sp, #4]
10000e60:	5d41      	ldrb	r1, [r0, r5]
10000e62:	1942      	adds	r2, r0, r5
10000e64:	2900      	cmp	r1, #0
10000e66:	d04e      	beq.n	10000f06 <ph_remove_head_reserve+0xc2>
10000e68:	004b      	lsls	r3, r1, #1
10000e6a:	185b      	adds	r3, r3, r1
10000e6c:	3b03      	subs	r3, #3
10000e6e:	18c3      	adds	r3, r0, r3
10000e70:	785f      	ldrb	r7, [r3, #1]
10000e72:	46bc      	mov	ip, r7
10000e74:	2f00      	cmp	r7, #0
10000e76:	d118      	bne.n	10000eaa <ph_remove_head_reserve+0x66>
10000e78:	9d01      	ldr	r5, [sp, #4]
10000e7a:	2d00      	cmp	r5, #0
10000e7c:	d140      	bne.n	10000f00 <ph_remove_head_reserve+0xbc>
10000e7e:	7be5      	ldrb	r5, [r4, #15]
10000e80:	2d00      	cmp	r5, #0
10000e82:	d004      	beq.n	10000e8e <ph_remove_head_reserve+0x4a>
10000e84:	006b      	lsls	r3, r5, #1
10000e86:	195b      	adds	r3, r3, r5
10000e88:	18c3      	adds	r3, r0, r3
10000e8a:	3b03      	subs	r3, #3
10000e8c:	705e      	strb	r6, [r3, #1]
10000e8e:	73e6      	strb	r6, [r4, #15]
10000e90:	2900      	cmp	r1, #0
10000e92:	d131      	bne.n	10000ef8 <ph_remove_head_reserve+0xb4>
10000e94:	2300      	movs	r3, #0
10000e96:	0030      	movs	r0, r6
10000e98:	7053      	strb	r3, [r2, #1]
10000e9a:	7361      	strb	r1, [r4, #13]
10000e9c:	b003      	add	sp, #12
10000e9e:	bc3c      	pop	{r2, r3, r4, r5}
10000ea0:	4690      	mov	r8, r2
10000ea2:	4699      	mov	r9, r3
10000ea4:	46a2      	mov	sl, r4
10000ea6:	46ab      	mov	fp, r5
10000ea8:	bdf0      	pop	{r4, r5, r6, r7, pc}
10000eaa:	007a      	lsls	r2, r7, #1
10000eac:	4462      	add	r2, ip
10000eae:	3a03      	subs	r2, #3
10000eb0:	1880      	adds	r0, r0, r2
10000eb2:	7842      	ldrb	r2, [r0, #1]
10000eb4:	4693      	mov	fp, r2
10000eb6:	2200      	movs	r2, #0
10000eb8:	7042      	strb	r2, [r0, #1]
10000eba:	4691      	mov	r9, r2
10000ebc:	705a      	strb	r2, [r3, #1]
10000ebe:	0020      	movs	r0, r4
10000ec0:	003a      	movs	r2, r7
10000ec2:	f7ff fe95 	bl	10000bf0 <ph_merge_nodes>
10000ec6:	465b      	mov	r3, fp
10000ec8:	4680      	mov	r8, r0
10000eca:	2b00      	cmp	r3, #0
10000ecc:	d007      	beq.n	10000ede <ph_remove_head_reserve+0x9a>
10000ece:	005b      	lsls	r3, r3, #1
10000ed0:	6821      	ldr	r1, [r4, #0]
10000ed2:	445b      	add	r3, fp
10000ed4:	3b03      	subs	r3, #3
10000ed6:	18cb      	adds	r3, r1, r3
10000ed8:	785a      	ldrb	r2, [r3, #1]
10000eda:	2a00      	cmp	r2, #0
10000edc:	d117      	bne.n	10000f0e <ph_remove_head_reserve+0xca>
10000ede:	465a      	mov	r2, fp
10000ee0:	4641      	mov	r1, r8
10000ee2:	0020      	movs	r0, r4
10000ee4:	f7ff fe84 	bl	10000bf0 <ph_merge_nodes>
10000ee8:	9b01      	ldr	r3, [sp, #4]
10000eea:	0001      	movs	r1, r0
10000eec:	6820      	ldr	r0, [r4, #0]
10000eee:	1942      	adds	r2, r0, r5
10000ef0:	2b00      	cmp	r3, #0
10000ef2:	d0c4      	beq.n	10000e7e <ph_remove_head_reserve+0x3a>
10000ef4:	2900      	cmp	r1, #0
10000ef6:	d0cd      	beq.n	10000e94 <ph_remove_head_reserve+0x50>
10000ef8:	004b      	lsls	r3, r1, #1
10000efa:	185b      	adds	r3, r3, r1
10000efc:	3b03      	subs	r3, #3
10000efe:	18c3      	adds	r3, r0, r3
10000f00:	2000      	movs	r0, #0
10000f02:	7098      	strb	r0, [r3, #2]
10000f04:	e7c6      	b.n	10000e94 <ph_remove_head_reserve+0x50>
10000f06:	9b01      	ldr	r3, [sp, #4]
10000f08:	2b00      	cmp	r3, #0
10000f0a:	d1c3      	bne.n	10000e94 <ph_remove_head_reserve+0x50>
10000f0c:	e7b7      	b.n	10000e7e <ph_remove_head_reserve+0x3a>
10000f0e:	0050      	lsls	r0, r2, #1
10000f10:	1880      	adds	r0, r0, r2
10000f12:	3803      	subs	r0, #3
10000f14:	1809      	adds	r1, r1, r0
10000f16:	7848      	ldrb	r0, [r1, #1]
10000f18:	4682      	mov	sl, r0
10000f1a:	4648      	mov	r0, r9
10000f1c:	7048      	strb	r0, [r1, #1]
10000f1e:	7058      	strb	r0, [r3, #1]
10000f20:	4659      	mov	r1, fp
10000f22:	0020      	movs	r0, r4
10000f24:	f7ff fe64 	bl	10000bf0 <ph_merge_nodes>
10000f28:	4653      	mov	r3, sl
10000f2a:	4683      	mov	fp, r0
10000f2c:	2b00      	cmp	r3, #0
10000f2e:	d007      	beq.n	10000f40 <ph_remove_head_reserve+0xfc>
10000f30:	005b      	lsls	r3, r3, #1
10000f32:	6821      	ldr	r1, [r4, #0]
10000f34:	4453      	add	r3, sl
10000f36:	3b03      	subs	r3, #3
10000f38:	18cb      	adds	r3, r1, r3
10000f3a:	785a      	ldrb	r2, [r3, #1]
10000f3c:	2a00      	cmp	r2, #0
10000f3e:	d106      	bne.n	10000f4e <ph_remove_head_reserve+0x10a>
10000f40:	4659      	mov	r1, fp
10000f42:	4652      	mov	r2, sl
10000f44:	0020      	movs	r0, r4
10000f46:	f7ff fe53 	bl	10000bf0 <ph_merge_nodes>
10000f4a:	4683      	mov	fp, r0
10000f4c:	e7c7      	b.n	10000ede <ph_remove_head_reserve+0x9a>
10000f4e:	0050      	lsls	r0, r2, #1
10000f50:	1880      	adds	r0, r0, r2
10000f52:	3803      	subs	r0, #3
10000f54:	1809      	adds	r1, r1, r0
10000f56:	4648      	mov	r0, r9
10000f58:	784f      	ldrb	r7, [r1, #1]
10000f5a:	7048      	strb	r0, [r1, #1]
10000f5c:	7058      	strb	r0, [r3, #1]
10000f5e:	4651      	mov	r1, sl
10000f60:	0020      	movs	r0, r4
10000f62:	f7ff fe45 	bl	10000bf0 <ph_merge_nodes>
10000f66:	0039      	movs	r1, r7
10000f68:	4681      	mov	r9, r0
10000f6a:	0020      	movs	r0, r4
10000f6c:	f7ff fea6 	bl	10000cbc <ph_merge_two_pass>
10000f70:	4649      	mov	r1, r9
10000f72:	0002      	movs	r2, r0
10000f74:	0020      	movs	r0, r4
10000f76:	f7ff fe3b 	bl	10000bf0 <ph_merge_nodes>
10000f7a:	4682      	mov	sl, r0
10000f7c:	e7e0      	b.n	10000f40 <ph_remove_head_reserve+0xfc>
10000f7e:	46c0      	nop			; (mov r8, r8)

10000f80 <ph_delete>:
10000f80:	b570      	push	{r4, r5, r6, lr}
10000f82:	0004      	movs	r4, r0
10000f84:	2900      	cmp	r1, #0
10000f86:	d02c      	beq.n	10000fe2 <ph_delete+0x62>
10000f88:	7b43      	ldrb	r3, [r0, #13]
10000f8a:	428b      	cmp	r3, r1
10000f8c:	d02e      	beq.n	10000fec <ph_delete+0x6c>
10000f8e:	6805      	ldr	r5, [r0, #0]
10000f90:	0048      	lsls	r0, r1, #1
10000f92:	1840      	adds	r0, r0, r1
10000f94:	3803      	subs	r0, #3
10000f96:	1828      	adds	r0, r5, r0
10000f98:	7882      	ldrb	r2, [r0, #2]
10000f9a:	2a00      	cmp	r2, #0
10000f9c:	d021      	beq.n	10000fe2 <ph_delete+0x62>
10000f9e:	0053      	lsls	r3, r2, #1
10000fa0:	189b      	adds	r3, r3, r2
10000fa2:	3b03      	subs	r3, #3
10000fa4:	5cea      	ldrb	r2, [r5, r3]
10000fa6:	18ee      	adds	r6, r5, r3
10000fa8:	428a      	cmp	r2, r1
10000faa:	d102      	bne.n	10000fb2 <ph_delete+0x32>
10000fac:	e01b      	b.n	10000fe6 <ph_delete+0x66>
10000fae:	2a00      	cmp	r2, #0
10000fb0:	d008      	beq.n	10000fc4 <ph_delete+0x44>
10000fb2:	0053      	lsls	r3, r2, #1
10000fb4:	189b      	adds	r3, r3, r2
10000fb6:	3b03      	subs	r3, #3
10000fb8:	18eb      	adds	r3, r5, r3
10000fba:	785a      	ldrb	r2, [r3, #1]
10000fbc:	428a      	cmp	r2, r1
10000fbe:	d1f6      	bne.n	10000fae <ph_delete+0x2e>
10000fc0:	7842      	ldrb	r2, [r0, #1]
10000fc2:	705a      	strb	r2, [r3, #1]
10000fc4:	2300      	movs	r3, #0
10000fc6:	2200      	movs	r2, #0
10000fc8:	7083      	strb	r3, [r0, #2]
10000fca:	7043      	strb	r3, [r0, #1]
10000fcc:	0020      	movs	r0, r4
10000fce:	f7ff febd 	bl	10000d4c <ph_remove_any_head>
10000fd2:	7b61      	ldrb	r1, [r4, #13]
10000fd4:	0002      	movs	r2, r0
10000fd6:	0020      	movs	r0, r4
10000fd8:	f7ff fe0a 	bl	10000bf0 <ph_merge_nodes>
10000fdc:	7360      	strb	r0, [r4, #13]
10000fde:	2001      	movs	r0, #1
10000fe0:	e000      	b.n	10000fe4 <ph_delete+0x64>
10000fe2:	2000      	movs	r0, #0
10000fe4:	bd70      	pop	{r4, r5, r6, pc}
10000fe6:	7843      	ldrb	r3, [r0, #1]
10000fe8:	7033      	strb	r3, [r6, #0]
10000fea:	e7eb      	b.n	10000fc4 <ph_delete+0x44>
10000fec:	2200      	movs	r2, #0
10000fee:	0019      	movs	r1, r3
10000ff0:	f7ff feac 	bl	10000d4c <ph_remove_any_head>
10000ff4:	7360      	strb	r0, [r4, #13]
10000ff6:	2001      	movs	r0, #1
10000ff8:	e7f4      	b.n	10000fe4 <ph_delete+0x64>
10000ffa:	46c0      	nop			; (mov r8, r8)

10000ffc <runtime_init>:
10000ffc:	4b2b      	ldr	r3, [pc, #172]	; (100010ac <runtime_init+0xb0>)
10000ffe:	4a2c      	ldr	r2, [pc, #176]	; (100010b0 <runtime_init+0xb4>)
10001000:	b570      	push	{r4, r5, r6, lr}
10001002:	601a      	str	r2, [r3, #0]
10001004:	4a2b      	ldr	r2, [pc, #172]	; (100010b4 <runtime_init+0xb8>)
10001006:	4b2c      	ldr	r3, [pc, #176]	; (100010b8 <runtime_init+0xbc>)
10001008:	492c      	ldr	r1, [pc, #176]	; (100010bc <runtime_init+0xc0>)
1000100a:	601a      	str	r2, [r3, #0]
1000100c:	0010      	movs	r0, r2
1000100e:	688b      	ldr	r3, [r1, #8]
10001010:	4398      	bics	r0, r3
10001012:	d1fb      	bne.n	1000100c <runtime_init+0x10>
10001014:	4c2a      	ldr	r4, [pc, #168]	; (100010c0 <runtime_init+0xc4>)
10001016:	4b2b      	ldr	r3, [pc, #172]	; (100010c4 <runtime_init+0xc8>)
10001018:	429c      	cmp	r4, r3
1000101a:	d209      	bcs.n	10001030 <runtime_init+0x34>
1000101c:	3b01      	subs	r3, #1
1000101e:	1b1d      	subs	r5, r3, r4
10001020:	08ad      	lsrs	r5, r5, #2
10001022:	3501      	adds	r5, #1
10001024:	00ad      	lsls	r5, r5, #2
10001026:	192d      	adds	r5, r5, r4
10001028:	cc08      	ldmia	r4!, {r3}
1000102a:	4798      	blx	r3
1000102c:	42ac      	cmp	r4, r5
1000102e:	d1fb      	bne.n	10001028 <runtime_init+0x2c>
10001030:	f000 f894 	bl	1000115c <clocks_init>
10001034:	4a24      	ldr	r2, [pc, #144]	; (100010c8 <runtime_init+0xcc>)
10001036:	4b20      	ldr	r3, [pc, #128]	; (100010b8 <runtime_init+0xbc>)
10001038:	601a      	str	r2, [r3, #0]
1000103a:	4a20      	ldr	r2, [pc, #128]	; (100010bc <runtime_init+0xc0>)
1000103c:	6893      	ldr	r3, [r2, #8]
1000103e:	01db      	lsls	r3, r3, #7
10001040:	3380      	adds	r3, #128	; 0x80
10001042:	d1fb      	bne.n	1000103c <runtime_init+0x40>
10001044:	2240      	movs	r2, #64	; 0x40
10001046:	4b21      	ldr	r3, [pc, #132]	; (100010cc <runtime_init+0xd0>)
10001048:	4c21      	ldr	r4, [pc, #132]	; (100010d0 <runtime_init+0xd4>)
1000104a:	679a      	str	r2, [r3, #120]	; 0x78
1000104c:	675a      	str	r2, [r3, #116]	; 0x74
1000104e:	671a      	str	r2, [r3, #112]	; 0x70
10001050:	66da      	str	r2, [r3, #108]	; 0x6c
10001052:	4b20      	ldr	r3, [pc, #128]	; (100010d4 <runtime_init+0xd8>)
10001054:	429c      	cmp	r4, r3
10001056:	d20b      	bcs.n	10001070 <runtime_init+0x74>
10001058:	3b01      	subs	r3, #1
1000105a:	1b1d      	subs	r5, r3, r4
1000105c:	08ed      	lsrs	r5, r5, #3
1000105e:	3501      	adds	r5, #1
10001060:	00ed      	lsls	r5, r5, #3
10001062:	192d      	adds	r5, r5, r4
10001064:	0020      	movs	r0, r4
10001066:	3408      	adds	r4, #8
10001068:	f7ff fd8e 	bl	10000b88 <mutex_init>
1000106c:	42ac      	cmp	r4, r5
1000106e:	d1f9      	bne.n	10001064 <runtime_init+0x68>
10001070:	4c19      	ldr	r4, [pc, #100]	; (100010d8 <runtime_init+0xdc>)
10001072:	4d1a      	ldr	r5, [pc, #104]	; (100010dc <runtime_init+0xe0>)
10001074:	68a1      	ldr	r1, [r4, #8]
10001076:	22c0      	movs	r2, #192	; 0xc0
10001078:	0028      	movs	r0, r5
1000107a:	f002 fe21 	bl	10003cc0 <__wrap___aeabi_memcpy>
1000107e:	60a5      	str	r5, [r4, #8]
10001080:	f7ff f9d6 	bl	10000430 <spin_locks_reset>
10001084:	f000 fbaa 	bl	100017dc <irq_init_priorities>
10001088:	f7ff fc00 	bl	1000088c <alarm_pool_init_default>
1000108c:	4c14      	ldr	r4, [pc, #80]	; (100010e0 <runtime_init+0xe4>)
1000108e:	4b15      	ldr	r3, [pc, #84]	; (100010e4 <runtime_init+0xe8>)
10001090:	429c      	cmp	r4, r3
10001092:	d209      	bcs.n	100010a8 <runtime_init+0xac>
10001094:	3b01      	subs	r3, #1
10001096:	1b1d      	subs	r5, r3, r4
10001098:	08ad      	lsrs	r5, r5, #2
1000109a:	3501      	adds	r5, #1
1000109c:	00ad      	lsls	r5, r5, #2
1000109e:	192d      	adds	r5, r5, r4
100010a0:	cc08      	ldmia	r4!, {r3}
100010a2:	4798      	blx	r3
100010a4:	42a5      	cmp	r5, r4
100010a6:	d1fb      	bne.n	100010a0 <runtime_init+0xa4>
100010a8:	bd70      	pop	{r4, r5, r6, pc}
100010aa:	46c0      	nop			; (mov r8, r8)
100010ac:	4000e000 	.word	0x4000e000
100010b0:	ffffcdbf 	.word	0xffffcdbf
100010b4:	003c7ffe 	.word	0x003c7ffe
100010b8:	4000f000 	.word	0x4000f000
100010bc:	4000c000 	.word	0x4000c000
100010c0:	20000a58 	.word	0x20000a58
100010c4:	20000a68 	.word	0x20000a68
100010c8:	01ffffff 	.word	0x01ffffff
100010cc:	4001f000 	.word	0x4001f000
100010d0:	20000a50 	.word	0x20000a50
100010d4:	20000a58 	.word	0x20000a58
100010d8:	e000ed00 	.word	0xe000ed00
100010dc:	20000000 	.word	0x20000000
100010e0:	20000a68 	.word	0x20000a68
100010e4:	20000a6c 	.word	0x20000a6c

100010e8 <_sbrk>:
100010e8:	4a09      	ldr	r2, [pc, #36]	; (10001110 <_sbrk+0x28>)
100010ea:	0003      	movs	r3, r0
100010ec:	6810      	ldr	r0, [r2, #0]
100010ee:	2800      	cmp	r0, #0
100010f0:	d005      	beq.n	100010fe <_sbrk+0x16>
100010f2:	4908      	ldr	r1, [pc, #32]	; (10001114 <_sbrk+0x2c>)
100010f4:	18c3      	adds	r3, r0, r3
100010f6:	428b      	cmp	r3, r1
100010f8:	d207      	bcs.n	1000110a <_sbrk+0x22>
100010fa:	6013      	str	r3, [r2, #0]
100010fc:	4770      	bx	lr
100010fe:	4806      	ldr	r0, [pc, #24]	; (10001118 <_sbrk+0x30>)
10001100:	4904      	ldr	r1, [pc, #16]	; (10001114 <_sbrk+0x2c>)
10001102:	18c3      	adds	r3, r0, r3
10001104:	6010      	str	r0, [r2, #0]
10001106:	428b      	cmp	r3, r1
10001108:	d3f7      	bcc.n	100010fa <_sbrk+0x12>
1000110a:	2001      	movs	r0, #1
1000110c:	4240      	negs	r0, r0
1000110e:	e7f5      	b.n	100010fc <_sbrk+0x14>
10001110:	20000b04 	.word	0x20000b04
10001114:	20040000 	.word	0x20040000
10001118:	20000d64 	.word	0x20000d64

1000111c <exit>:
1000111c:	be00      	bkpt	0x0000
1000111e:	e7fd      	b.n	1000111c <exit>

10001120 <panic>:
10001120:	b40f      	push	{r0, r1, r2, r3}
10001122:	b500      	push	{lr}
10001124:	4808      	ldr	r0, [pc, #32]	; (10001148 <panic+0x28>)
10001126:	b083      	sub	sp, #12
10001128:	f002 fedc 	bl	10003ee4 <__wrap_puts>
1000112c:	9b04      	ldr	r3, [sp, #16]
1000112e:	2b00      	cmp	r3, #0
10001130:	d007      	beq.n	10001142 <panic+0x22>
10001132:	a905      	add	r1, sp, #20
10001134:	0018      	movs	r0, r3
10001136:	9101      	str	r1, [sp, #4]
10001138:	f001 fe90 	bl	10002e5c <weak_raw_vprintf>
1000113c:	4803      	ldr	r0, [pc, #12]	; (1000114c <panic+0x2c>)
1000113e:	f002 fed1 	bl	10003ee4 <__wrap_puts>
10001142:	be00      	bkpt	0x0000
10001144:	e7fd      	b.n	10001142 <panic+0x22>
10001146:	46c0      	nop			; (mov r8, r8)
10001148:	10004ef4 	.word	0x10004ef4
1000114c:	10004f04 	.word	0x10004f04

10001150 <hard_assertion_failure>:
10001150:	b510      	push	{r4, lr}
10001152:	4801      	ldr	r0, [pc, #4]	; (10001158 <hard_assertion_failure+0x8>)
10001154:	f7ff ffe4 	bl	10001120 <panic>
10001158:	10004f08 	.word	0x10004f08

1000115c <clocks_init>:
1000115c:	b530      	push	{r4, r5, lr}
1000115e:	200c      	movs	r0, #12
10001160:	b083      	sub	sp, #12
10001162:	f000 f971 	bl	10001448 <watchdog_start_tick>
10001166:	f7ff f97d 	bl	10000464 <running_on_fpga>
1000116a:	2800      	cmp	r0, #0
1000116c:	d00e      	beq.n	1000118c <clocks_init+0x30>
1000116e:	4b9a      	ldr	r3, [pc, #616]	; (100013d8 <clocks_init+0x27c>)
10001170:	4a9a      	ldr	r2, [pc, #616]	; (100013dc <clocks_init+0x280>)
10001172:	601a      	str	r2, [r3, #0]
10001174:	605a      	str	r2, [r3, #4]
10001176:	609a      	str	r2, [r3, #8]
10001178:	60da      	str	r2, [r3, #12]
1000117a:	611a      	str	r2, [r3, #16]
1000117c:	615a      	str	r2, [r3, #20]
1000117e:	619a      	str	r2, [r3, #24]
10001180:	61da      	str	r2, [r3, #28]
10001182:	621a      	str	r2, [r3, #32]
10001184:	4a96      	ldr	r2, [pc, #600]	; (100013e0 <clocks_init+0x284>)
10001186:	625a      	str	r2, [r3, #36]	; 0x24
10001188:	b003      	add	sp, #12
1000118a:	bd30      	pop	{r4, r5, pc}
1000118c:	4c95      	ldr	r4, [pc, #596]	; (100013e4 <clocks_init+0x288>)
1000118e:	67a0      	str	r0, [r4, #120]	; 0x78
10001190:	f000 f962 	bl	10001458 <xosc_init>
10001194:	2201      	movs	r2, #1
10001196:	4b94      	ldr	r3, [pc, #592]	; (100013e8 <clocks_init+0x28c>)
10001198:	601a      	str	r2, [r3, #0]
1000119a:	6c63      	ldr	r3, [r4, #68]	; 0x44
1000119c:	2b01      	cmp	r3, #1
1000119e:	d1fc      	bne.n	1000119a <clocks_init+0x3e>
100011a0:	2203      	movs	r2, #3
100011a2:	4b92      	ldr	r3, [pc, #584]	; (100013ec <clocks_init+0x290>)
100011a4:	601a      	str	r2, [r3, #0]
100011a6:	4a8f      	ldr	r2, [pc, #572]	; (100013e4 <clocks_init+0x288>)
100011a8:	6b93      	ldr	r3, [r2, #56]	; 0x38
100011aa:	2b01      	cmp	r3, #1
100011ac:	d1fc      	bne.n	100011a8 <clocks_init+0x4c>
100011ae:	22c0      	movs	r2, #192	; 0xc0
100011b0:	4b8f      	ldr	r3, [pc, #572]	; (100013f0 <clocks_init+0x294>)
100011b2:	0192      	lsls	r2, r2, #6
100011b4:	601a      	str	r2, [r3, #0]
100011b6:	4b8f      	ldr	r3, [pc, #572]	; (100013f4 <clocks_init+0x298>)
100011b8:	498f      	ldr	r1, [pc, #572]	; (100013f8 <clocks_init+0x29c>)
100011ba:	601a      	str	r2, [r3, #0]
100011bc:	0010      	movs	r0, r2
100011be:	688b      	ldr	r3, [r1, #8]
100011c0:	4398      	bics	r0, r3
100011c2:	1e03      	subs	r3, r0, #0
100011c4:	d1fa      	bne.n	100011bc <clocks_init+0x60>
100011c6:	2402      	movs	r4, #2
100011c8:	2101      	movs	r1, #1
100011ca:	4a8c      	ldr	r2, [pc, #560]	; (100013fc <clocks_init+0x2a0>)
100011cc:	488c      	ldr	r0, [pc, #560]	; (10001400 <clocks_init+0x2a4>)
100011ce:	3306      	adds	r3, #6
100011d0:	9400      	str	r4, [sp, #0]
100011d2:	f000 f955 	bl	10001480 <pll_init>
100011d6:	2305      	movs	r3, #5
100011d8:	4a8a      	ldr	r2, [pc, #552]	; (10001404 <clocks_init+0x2a8>)
100011da:	2101      	movs	r1, #1
100011dc:	488a      	ldr	r0, [pc, #552]	; (10001408 <clocks_init+0x2ac>)
100011de:	9400      	str	r4, [sp, #0]
100011e0:	f000 f94e 	bl	10001480 <pll_init>
100011e4:	4b89      	ldr	r3, [pc, #548]	; (1000140c <clocks_init+0x2b0>)
100011e6:	685a      	ldr	r2, [r3, #4]
100011e8:	2aff      	cmp	r2, #255	; 0xff
100011ea:	d802      	bhi.n	100011f2 <clocks_init+0x96>
100011ec:	2280      	movs	r2, #128	; 0x80
100011ee:	0052      	lsls	r2, r2, #1
100011f0:	605a      	str	r2, [r3, #4]
100011f2:	2280      	movs	r2, #128	; 0x80
100011f4:	4c78      	ldr	r4, [pc, #480]	; (100013d8 <clocks_init+0x27c>)
100011f6:	4b7d      	ldr	r3, [pc, #500]	; (100013ec <clocks_init+0x290>)
100011f8:	6921      	ldr	r1, [r4, #16]
100011fa:	0112      	lsls	r2, r2, #4
100011fc:	4d83      	ldr	r5, [pc, #524]	; (1000140c <clocks_init+0x2b0>)
100011fe:	601a      	str	r2, [r3, #0]
10001200:	2900      	cmp	r1, #0
10001202:	d005      	beq.n	10001210 <clocks_init+0xb4>
10001204:	6960      	ldr	r0, [r4, #20]
10001206:	f001 fea3 	bl	10002f50 <__wrap___aeabi_uidiv>
1000120a:	3001      	adds	r0, #1
1000120c:	3801      	subs	r0, #1
1000120e:	d1fd      	bne.n	1000120c <clocks_init+0xb0>
10001210:	21e0      	movs	r1, #224	; 0xe0
10001212:	4b7e      	ldr	r3, [pc, #504]	; (1000140c <clocks_init+0x2b0>)
10001214:	2002      	movs	r0, #2
10001216:	681a      	ldr	r2, [r3, #0]
10001218:	4011      	ands	r1, r2
1000121a:	2280      	movs	r2, #128	; 0x80
1000121c:	0152      	lsls	r2, r2, #5
1000121e:	432a      	orrs	r2, r5
10001220:	6011      	str	r1, [r2, #0]
10001222:	6819      	ldr	r1, [r3, #0]
10001224:	4048      	eors	r0, r1
10001226:	2103      	movs	r1, #3
10001228:	4001      	ands	r1, r0
1000122a:	6011      	str	r1, [r2, #0]
1000122c:	2104      	movs	r1, #4
1000122e:	689a      	ldr	r2, [r3, #8]
10001230:	4211      	tst	r1, r2
10001232:	d0fc      	beq.n	1000122e <clocks_init+0xd2>
10001234:	2280      	movs	r2, #128	; 0x80
10001236:	2180      	movs	r1, #128	; 0x80
10001238:	0192      	lsls	r2, r2, #6
1000123a:	432a      	orrs	r2, r5
1000123c:	0109      	lsls	r1, r1, #4
1000123e:	6011      	str	r1, [r2, #0]
10001240:	2280      	movs	r2, #128	; 0x80
10001242:	0052      	lsls	r2, r2, #1
10001244:	605a      	str	r2, [r3, #4]
10001246:	4b72      	ldr	r3, [pc, #456]	; (10001410 <clocks_init+0x2b4>)
10001248:	6123      	str	r3, [r4, #16]
1000124a:	4b72      	ldr	r3, [pc, #456]	; (10001414 <clocks_init+0x2b8>)
1000124c:	6859      	ldr	r1, [r3, #4]
1000124e:	29ff      	cmp	r1, #255	; 0xff
10001250:	d800      	bhi.n	10001254 <clocks_init+0xf8>
10001252:	605a      	str	r2, [r3, #4]
10001254:	2203      	movs	r2, #3
10001256:	486f      	ldr	r0, [pc, #444]	; (10001414 <clocks_init+0x2b8>)
10001258:	4b63      	ldr	r3, [pc, #396]	; (100013e8 <clocks_init+0x28c>)
1000125a:	2101      	movs	r1, #1
1000125c:	601a      	str	r2, [r3, #0]
1000125e:	0002      	movs	r2, r0
10001260:	6893      	ldr	r3, [r2, #8]
10001262:	4219      	tst	r1, r3
10001264:	d0fc      	beq.n	10001260 <clocks_init+0x104>
10001266:	25e0      	movs	r5, #224	; 0xe0
10001268:	6813      	ldr	r3, [r2, #0]
1000126a:	401d      	ands	r5, r3
1000126c:	2380      	movs	r3, #128	; 0x80
1000126e:	015b      	lsls	r3, r3, #5
10001270:	4303      	orrs	r3, r0
10001272:	601d      	str	r5, [r3, #0]
10001274:	6812      	ldr	r2, [r2, #0]
10001276:	404a      	eors	r2, r1
10001278:	2103      	movs	r1, #3
1000127a:	4011      	ands	r1, r2
1000127c:	6019      	str	r1, [r3, #0]
1000127e:	2102      	movs	r1, #2
10001280:	4a64      	ldr	r2, [pc, #400]	; (10001414 <clocks_init+0x2b8>)
10001282:	6893      	ldr	r3, [r2, #8]
10001284:	4219      	tst	r1, r3
10001286:	d0fc      	beq.n	10001282 <clocks_init+0x126>
10001288:	2380      	movs	r3, #128	; 0x80
1000128a:	2180      	movs	r1, #128	; 0x80
1000128c:	019b      	lsls	r3, r3, #6
1000128e:	4303      	orrs	r3, r0
10001290:	0109      	lsls	r1, r1, #4
10001292:	6019      	str	r1, [r3, #0]
10001294:	2180      	movs	r1, #128	; 0x80
10001296:	4b60      	ldr	r3, [pc, #384]	; (10001418 <clocks_init+0x2bc>)
10001298:	0049      	lsls	r1, r1, #1
1000129a:	6051      	str	r1, [r2, #4]
1000129c:	6163      	str	r3, [r4, #20]
1000129e:	4b5f      	ldr	r3, [pc, #380]	; (1000141c <clocks_init+0x2c0>)
100012a0:	685a      	ldr	r2, [r3, #4]
100012a2:	2aff      	cmp	r2, #255	; 0xff
100012a4:	d800      	bhi.n	100012a8 <clocks_init+0x14c>
100012a6:	6059      	str	r1, [r3, #4]
100012a8:	2280      	movs	r2, #128	; 0x80
100012aa:	4b5d      	ldr	r3, [pc, #372]	; (10001420 <clocks_init+0x2c4>)
100012ac:	69e1      	ldr	r1, [r4, #28]
100012ae:	0112      	lsls	r2, r2, #4
100012b0:	4d5a      	ldr	r5, [pc, #360]	; (1000141c <clocks_init+0x2c0>)
100012b2:	601a      	str	r2, [r3, #0]
100012b4:	2900      	cmp	r1, #0
100012b6:	d005      	beq.n	100012c4 <clocks_init+0x168>
100012b8:	6960      	ldr	r0, [r4, #20]
100012ba:	f001 fe49 	bl	10002f50 <__wrap___aeabi_uidiv>
100012be:	3001      	adds	r0, #1
100012c0:	3801      	subs	r0, #1
100012c2:	d1fd      	bne.n	100012c0 <clocks_init+0x164>
100012c4:	22e0      	movs	r2, #224	; 0xe0
100012c6:	4955      	ldr	r1, [pc, #340]	; (1000141c <clocks_init+0x2c0>)
100012c8:	680b      	ldr	r3, [r1, #0]
100012ca:	401a      	ands	r2, r3
100012cc:	2380      	movs	r3, #128	; 0x80
100012ce:	015b      	lsls	r3, r3, #5
100012d0:	432b      	orrs	r3, r5
100012d2:	601a      	str	r2, [r3, #0]
100012d4:	2380      	movs	r3, #128	; 0x80
100012d6:	2280      	movs	r2, #128	; 0x80
100012d8:	019b      	lsls	r3, r3, #6
100012da:	432b      	orrs	r3, r5
100012dc:	0112      	lsls	r2, r2, #4
100012de:	601a      	str	r2, [r3, #0]
100012e0:	2280      	movs	r2, #128	; 0x80
100012e2:	4b3e      	ldr	r3, [pc, #248]	; (100013dc <clocks_init+0x280>)
100012e4:	0052      	lsls	r2, r2, #1
100012e6:	604a      	str	r2, [r1, #4]
100012e8:	61e3      	str	r3, [r4, #28]
100012ea:	4b4e      	ldr	r3, [pc, #312]	; (10001424 <clocks_init+0x2c8>)
100012ec:	6859      	ldr	r1, [r3, #4]
100012ee:	29ff      	cmp	r1, #255	; 0xff
100012f0:	d800      	bhi.n	100012f4 <clocks_init+0x198>
100012f2:	605a      	str	r2, [r3, #4]
100012f4:	2280      	movs	r2, #128	; 0x80
100012f6:	4b4c      	ldr	r3, [pc, #304]	; (10001428 <clocks_init+0x2cc>)
100012f8:	6a21      	ldr	r1, [r4, #32]
100012fa:	0112      	lsls	r2, r2, #4
100012fc:	4d49      	ldr	r5, [pc, #292]	; (10001424 <clocks_init+0x2c8>)
100012fe:	601a      	str	r2, [r3, #0]
10001300:	2900      	cmp	r1, #0
10001302:	d005      	beq.n	10001310 <clocks_init+0x1b4>
10001304:	6960      	ldr	r0, [r4, #20]
10001306:	f001 fe23 	bl	10002f50 <__wrap___aeabi_uidiv>
1000130a:	3001      	adds	r0, #1
1000130c:	3801      	subs	r0, #1
1000130e:	d1fd      	bne.n	1000130c <clocks_init+0x1b0>
10001310:	22e0      	movs	r2, #224	; 0xe0
10001312:	4944      	ldr	r1, [pc, #272]	; (10001424 <clocks_init+0x2c8>)
10001314:	680b      	ldr	r3, [r1, #0]
10001316:	401a      	ands	r2, r3
10001318:	2380      	movs	r3, #128	; 0x80
1000131a:	015b      	lsls	r3, r3, #5
1000131c:	432b      	orrs	r3, r5
1000131e:	601a      	str	r2, [r3, #0]
10001320:	2380      	movs	r3, #128	; 0x80
10001322:	2280      	movs	r2, #128	; 0x80
10001324:	019b      	lsls	r3, r3, #6
10001326:	432b      	orrs	r3, r5
10001328:	0112      	lsls	r2, r2, #4
1000132a:	601a      	str	r2, [r3, #0]
1000132c:	2380      	movs	r3, #128	; 0x80
1000132e:	2280      	movs	r2, #128	; 0x80
10001330:	005b      	lsls	r3, r3, #1
10001332:	604b      	str	r3, [r1, #4]
10001334:	4b29      	ldr	r3, [pc, #164]	; (100013dc <clocks_init+0x280>)
10001336:	02d2      	lsls	r2, r2, #11
10001338:	6223      	str	r3, [r4, #32]
1000133a:	4b3c      	ldr	r3, [pc, #240]	; (1000142c <clocks_init+0x2d0>)
1000133c:	6859      	ldr	r1, [r3, #4]
1000133e:	4291      	cmp	r1, r2
10001340:	d200      	bcs.n	10001344 <clocks_init+0x1e8>
10001342:	605a      	str	r2, [r3, #4]
10001344:	2280      	movs	r2, #128	; 0x80
10001346:	4b3a      	ldr	r3, [pc, #232]	; (10001430 <clocks_init+0x2d4>)
10001348:	6a61      	ldr	r1, [r4, #36]	; 0x24
1000134a:	0112      	lsls	r2, r2, #4
1000134c:	4d37      	ldr	r5, [pc, #220]	; (1000142c <clocks_init+0x2d0>)
1000134e:	601a      	str	r2, [r3, #0]
10001350:	2900      	cmp	r1, #0
10001352:	d005      	beq.n	10001360 <clocks_init+0x204>
10001354:	6960      	ldr	r0, [r4, #20]
10001356:	f001 fdfb 	bl	10002f50 <__wrap___aeabi_uidiv>
1000135a:	3001      	adds	r0, #1
1000135c:	3801      	subs	r0, #1
1000135e:	d1fd      	bne.n	1000135c <clocks_init+0x200>
10001360:	22e0      	movs	r2, #224	; 0xe0
10001362:	4932      	ldr	r1, [pc, #200]	; (1000142c <clocks_init+0x2d0>)
10001364:	680b      	ldr	r3, [r1, #0]
10001366:	401a      	ands	r2, r3
10001368:	2380      	movs	r3, #128	; 0x80
1000136a:	015b      	lsls	r3, r3, #5
1000136c:	432b      	orrs	r3, r5
1000136e:	601a      	str	r2, [r3, #0]
10001370:	2380      	movs	r3, #128	; 0x80
10001372:	2280      	movs	r2, #128	; 0x80
10001374:	019b      	lsls	r3, r3, #6
10001376:	432b      	orrs	r3, r5
10001378:	0112      	lsls	r2, r2, #4
1000137a:	601a      	str	r2, [r3, #0]
1000137c:	2380      	movs	r3, #128	; 0x80
1000137e:	02db      	lsls	r3, r3, #11
10001380:	604b      	str	r3, [r1, #4]
10001382:	4b17      	ldr	r3, [pc, #92]	; (100013e0 <clocks_init+0x284>)
10001384:	6263      	str	r3, [r4, #36]	; 0x24
10001386:	4b2b      	ldr	r3, [pc, #172]	; (10001434 <clocks_init+0x2d8>)
10001388:	685a      	ldr	r2, [r3, #4]
1000138a:	2aff      	cmp	r2, #255	; 0xff
1000138c:	d802      	bhi.n	10001394 <clocks_init+0x238>
1000138e:	2280      	movs	r2, #128	; 0x80
10001390:	0052      	lsls	r2, r2, #1
10001392:	605a      	str	r2, [r3, #4]
10001394:	2280      	movs	r2, #128	; 0x80
10001396:	4b28      	ldr	r3, [pc, #160]	; (10001438 <clocks_init+0x2dc>)
10001398:	69a1      	ldr	r1, [r4, #24]
1000139a:	0112      	lsls	r2, r2, #4
1000139c:	4d25      	ldr	r5, [pc, #148]	; (10001434 <clocks_init+0x2d8>)
1000139e:	601a      	str	r2, [r3, #0]
100013a0:	2900      	cmp	r1, #0
100013a2:	d005      	beq.n	100013b0 <clocks_init+0x254>
100013a4:	6960      	ldr	r0, [r4, #20]
100013a6:	f001 fdd3 	bl	10002f50 <__wrap___aeabi_uidiv>
100013aa:	3001      	adds	r0, #1
100013ac:	3801      	subs	r0, #1
100013ae:	d1fd      	bne.n	100013ac <clocks_init+0x250>
100013b0:	22e0      	movs	r2, #224	; 0xe0
100013b2:	4920      	ldr	r1, [pc, #128]	; (10001434 <clocks_init+0x2d8>)
100013b4:	680b      	ldr	r3, [r1, #0]
100013b6:	401a      	ands	r2, r3
100013b8:	2380      	movs	r3, #128	; 0x80
100013ba:	015b      	lsls	r3, r3, #5
100013bc:	432b      	orrs	r3, r5
100013be:	601a      	str	r2, [r3, #0]
100013c0:	2380      	movs	r3, #128	; 0x80
100013c2:	2280      	movs	r2, #128	; 0x80
100013c4:	019b      	lsls	r3, r3, #6
100013c6:	432b      	orrs	r3, r5
100013c8:	0112      	lsls	r2, r2, #4
100013ca:	601a      	str	r2, [r3, #0]
100013cc:	2380      	movs	r3, #128	; 0x80
100013ce:	005b      	lsls	r3, r3, #1
100013d0:	604b      	str	r3, [r1, #4]
100013d2:	4b11      	ldr	r3, [pc, #68]	; (10001418 <clocks_init+0x2bc>)
100013d4:	61a3      	str	r3, [r4, #24]
100013d6:	e6d7      	b.n	10001188 <clocks_init+0x2c>
100013d8:	20000ad0 	.word	0x20000ad0
100013dc:	02dc6c00 	.word	0x02dc6c00
100013e0:	0000b71b 	.word	0x0000b71b
100013e4:	40008000 	.word	0x40008000
100013e8:	4000b03c 	.word	0x4000b03c
100013ec:	4000b030 	.word	0x4000b030
100013f0:	4000e000 	.word	0x4000e000
100013f4:	4000f000 	.word	0x4000f000
100013f8:	4000c000 	.word	0x4000c000
100013fc:	59682f00 	.word	0x59682f00
10001400:	40028000 	.word	0x40028000
10001404:	1c9c3800 	.word	0x1c9c3800
10001408:	4002c000 	.word	0x4002c000
1000140c:	40008030 	.word	0x40008030
10001410:	00b71b00 	.word	0x00b71b00
10001414:	4000803c 	.word	0x4000803c
10001418:	07735940 	.word	0x07735940
1000141c:	40008054 	.word	0x40008054
10001420:	4000b054 	.word	0x4000b054
10001424:	40008060 	.word	0x40008060
10001428:	4000b060 	.word	0x4000b060
1000142c:	4000806c 	.word	0x4000806c
10001430:	4000b06c 	.word	0x4000b06c
10001434:	40008048 	.word	0x40008048
10001438:	4000b048 	.word	0x4000b048

1000143c <clock_get_hz>:
1000143c:	4b01      	ldr	r3, [pc, #4]	; (10001444 <clock_get_hz+0x8>)
1000143e:	0080      	lsls	r0, r0, #2
10001440:	58c0      	ldr	r0, [r0, r3]
10001442:	4770      	bx	lr
10001444:	20000ad0 	.word	0x20000ad0

10001448 <watchdog_start_tick>:
10001448:	2380      	movs	r3, #128	; 0x80
1000144a:	4a02      	ldr	r2, [pc, #8]	; (10001454 <watchdog_start_tick+0xc>)
1000144c:	009b      	lsls	r3, r3, #2
1000144e:	4303      	orrs	r3, r0
10001450:	62d3      	str	r3, [r2, #44]	; 0x2c
10001452:	4770      	bx	lr
10001454:	40058000 	.word	0x40058000

10001458 <xosc_init>:
10001458:	23aa      	movs	r3, #170	; 0xaa
1000145a:	4a06      	ldr	r2, [pc, #24]	; (10001474 <xosc_init+0x1c>)
1000145c:	011b      	lsls	r3, r3, #4
1000145e:	6013      	str	r3, [r2, #0]
10001460:	232f      	movs	r3, #47	; 0x2f
10001462:	4905      	ldr	r1, [pc, #20]	; (10001478 <xosc_init+0x20>)
10001464:	60d3      	str	r3, [r2, #12]
10001466:	4b05      	ldr	r3, [pc, #20]	; (1000147c <xosc_init+0x24>)
10001468:	6019      	str	r1, [r3, #0]
1000146a:	6853      	ldr	r3, [r2, #4]
1000146c:	2b00      	cmp	r3, #0
1000146e:	dafc      	bge.n	1000146a <xosc_init+0x12>
10001470:	4770      	bx	lr
10001472:	46c0      	nop			; (mov r8, r8)
10001474:	40024000 	.word	0x40024000
10001478:	00fab000 	.word	0x00fab000
1000147c:	40026000 	.word	0x40026000

10001480 <pll_init>:
10001480:	b5f8      	push	{r3, r4, r5, r6, r7, lr}
10001482:	001d      	movs	r5, r3
10001484:	ab06      	add	r3, sp, #24
10001486:	781e      	ldrb	r6, [r3, #0]
10001488:	2301      	movs	r3, #1
1000148a:	425b      	negs	r3, r3
1000148c:	6043      	str	r3, [r0, #4]
1000148e:	2300      	movs	r3, #0
10001490:	0004      	movs	r4, r0
10001492:	6083      	str	r3, [r0, #8]
10001494:	6001      	str	r1, [r0, #0]
10001496:	200c      	movs	r0, #12
10001498:	0017      	movs	r7, r2
1000149a:	f001 fd59 	bl	10002f50 <__wrap___aeabi_uidiv>
1000149e:	0141      	lsls	r1, r0, #5
100014a0:	1a09      	subs	r1, r1, r0
100014a2:	018b      	lsls	r3, r1, #6
100014a4:	1a59      	subs	r1, r3, r1
100014a6:	00c9      	lsls	r1, r1, #3
100014a8:	1809      	adds	r1, r1, r0
100014aa:	0189      	lsls	r1, r1, #6
100014ac:	0038      	movs	r0, r7
100014ae:	f001 fd4f 	bl	10002f50 <__wrap___aeabi_uidiv>
100014b2:	21c0      	movs	r1, #192	; 0xc0
100014b4:	1d23      	adds	r3, r4, #4
100014b6:	0189      	lsls	r1, r1, #6
100014b8:	4319      	orrs	r1, r3
100014ba:	2321      	movs	r3, #33	; 0x21
100014bc:	60a0      	str	r0, [r4, #8]
100014be:	600b      	str	r3, [r1, #0]
100014c0:	6822      	ldr	r2, [r4, #0]
100014c2:	2a00      	cmp	r2, #0
100014c4:	dafc      	bge.n	100014c0 <pll_init+0x40>
100014c6:	2308      	movs	r3, #8
100014c8:	042d      	lsls	r5, r5, #16
100014ca:	0336      	lsls	r6, r6, #12
100014cc:	432e      	orrs	r6, r5
100014ce:	60e6      	str	r6, [r4, #12]
100014d0:	600b      	str	r3, [r1, #0]
100014d2:	bdf8      	pop	{r3, r4, r5, r6, r7, pc}

100014d4 <irq_set_enabled>:
100014d4:	2301      	movs	r3, #1
100014d6:	4083      	lsls	r3, r0
100014d8:	2900      	cmp	r1, #0
100014da:	d004      	beq.n	100014e6 <irq_set_enabled+0x12>
100014dc:	4a03      	ldr	r2, [pc, #12]	; (100014ec <irq_set_enabled+0x18>)
100014de:	6013      	str	r3, [r2, #0]
100014e0:	4a03      	ldr	r2, [pc, #12]	; (100014f0 <irq_set_enabled+0x1c>)
100014e2:	6013      	str	r3, [r2, #0]
100014e4:	4770      	bx	lr
100014e6:	4a03      	ldr	r2, [pc, #12]	; (100014f4 <irq_set_enabled+0x20>)
100014e8:	6013      	str	r3, [r2, #0]
100014ea:	e7fb      	b.n	100014e4 <irq_set_enabled+0x10>
100014ec:	e000e280 	.word	0xe000e280
100014f0:	e000e100 	.word	0xe000e100
100014f4:	e000e180 	.word	0xe000e180

100014f8 <irq_get_vtable_handler>:
100014f8:	4b02      	ldr	r3, [pc, #8]	; (10001504 <irq_get_vtable_handler+0xc>)
100014fa:	3010      	adds	r0, #16
100014fc:	689b      	ldr	r3, [r3, #8]
100014fe:	0080      	lsls	r0, r0, #2
10001500:	58c0      	ldr	r0, [r0, r3]
10001502:	4770      	bx	lr
10001504:	e000ed00 	.word	0xe000ed00

10001508 <irq_set_exclusive_handler>:
10001508:	b570      	push	{r4, r5, r6, lr}
1000150a:	000d      	movs	r5, r1
1000150c:	f3ef 8610 	mrs	r6, PRIMASK
10001510:	b672      	cpsid	i
10001512:	4a0f      	ldr	r2, [pc, #60]	; (10001550 <irq_set_exclusive_handler+0x48>)
10001514:	6813      	ldr	r3, [r2, #0]
10001516:	2b00      	cmp	r3, #0
10001518:	d0fc      	beq.n	10001514 <irq_set_exclusive_handler+0xc>
1000151a:	f3bf 8f5f 	dmb	sy
1000151e:	4b0d      	ldr	r3, [pc, #52]	; (10001554 <irq_set_exclusive_handler+0x4c>)
10001520:	3010      	adds	r0, #16
10001522:	689b      	ldr	r3, [r3, #8]
10001524:	0084      	lsls	r4, r0, #2
10001526:	591b      	ldr	r3, [r3, r4]
10001528:	4a0b      	ldr	r2, [pc, #44]	; (10001558 <irq_set_exclusive_handler+0x50>)
1000152a:	4293      	cmp	r3, r2
1000152c:	d003      	beq.n	10001536 <irq_set_exclusive_handler+0x2e>
1000152e:	429d      	cmp	r5, r3
10001530:	d001      	beq.n	10001536 <irq_set_exclusive_handler+0x2e>
10001532:	f7ff fe0d 	bl	10001150 <hard_assertion_failure>
10001536:	4b07      	ldr	r3, [pc, #28]	; (10001554 <irq_set_exclusive_handler+0x4c>)
10001538:	689b      	ldr	r3, [r3, #8]
1000153a:	511d      	str	r5, [r3, r4]
1000153c:	f3bf 8f5f 	dmb	sy
10001540:	f3bf 8f5f 	dmb	sy
10001544:	2200      	movs	r2, #0
10001546:	4b02      	ldr	r3, [pc, #8]	; (10001550 <irq_set_exclusive_handler+0x48>)
10001548:	601a      	str	r2, [r3, #0]
1000154a:	f386 8810 	msr	PRIMASK, r6
1000154e:	bd70      	pop	{r4, r5, r6, pc}
10001550:	d0000124 	.word	0xd0000124
10001554:	e000ed00 	.word	0xe000ed00
10001558:	100002cd 	.word	0x100002cd

1000155c <irq_remove_handler>:
1000155c:	b5f0      	push	{r4, r5, r6, r7, lr}
1000155e:	46de      	mov	lr, fp
10001560:	4657      	mov	r7, sl
10001562:	464e      	mov	r6, r9
10001564:	4645      	mov	r5, r8
10001566:	b5e0      	push	{r5, r6, r7, lr}
10001568:	000c      	movs	r4, r1
1000156a:	b083      	sub	sp, #12
1000156c:	f3ef 8a10 	mrs	sl, PRIMASK
10001570:	b672      	cpsid	i
10001572:	4a5f      	ldr	r2, [pc, #380]	; (100016f0 <irq_remove_handler+0x194>)
10001574:	6813      	ldr	r3, [r2, #0]
10001576:	2b00      	cmp	r3, #0
10001578:	d0fc      	beq.n	10001574 <irq_remove_handler+0x18>
1000157a:	f3bf 8f5f 	dmb	sy
1000157e:	2210      	movs	r2, #16
10001580:	4691      	mov	r9, r2
10001582:	4481      	add	r9, r0
10001584:	464a      	mov	r2, r9
10001586:	4b5b      	ldr	r3, [pc, #364]	; (100016f4 <irq_remove_handler+0x198>)
10001588:	0096      	lsls	r6, r2, #2
1000158a:	689b      	ldr	r3, [r3, #8]
1000158c:	599d      	ldr	r5, [r3, r6]
1000158e:	4b5a      	ldr	r3, [pc, #360]	; (100016f8 <irq_remove_handler+0x19c>)
10001590:	4698      	mov	r8, r3
10001592:	429d      	cmp	r5, r3
10001594:	d005      	beq.n	100015a2 <irq_remove_handler+0x46>
10001596:	42a5      	cmp	r5, r4
10001598:	d016      	beq.n	100015c8 <irq_remove_handler+0x6c>
1000159a:	4f58      	ldr	r7, [pc, #352]	; (100016fc <irq_remove_handler+0x1a0>)
1000159c:	1beb      	subs	r3, r5, r7
1000159e:	2b2f      	cmp	r3, #47	; 0x2f
100015a0:	d914      	bls.n	100015cc <irq_remove_handler+0x70>
100015a2:	4b54      	ldr	r3, [pc, #336]	; (100016f4 <irq_remove_handler+0x198>)
100015a4:	689b      	ldr	r3, [r3, #8]
100015a6:	519d      	str	r5, [r3, r6]
100015a8:	f3bf 8f5f 	dmb	sy
100015ac:	f3bf 8f5f 	dmb	sy
100015b0:	2200      	movs	r2, #0
100015b2:	4b4f      	ldr	r3, [pc, #316]	; (100016f0 <irq_remove_handler+0x194>)
100015b4:	601a      	str	r2, [r3, #0]
100015b6:	f38a 8810 	msr	PRIMASK, sl
100015ba:	b003      	add	sp, #12
100015bc:	bc3c      	pop	{r2, r3, r4, r5}
100015be:	4690      	mov	r8, r2
100015c0:	4699      	mov	r9, r3
100015c2:	46a2      	mov	sl, r4
100015c4:	46ab      	mov	fp, r5
100015c6:	bdf0      	pop	{r4, r5, r6, r7, pc}
100015c8:	001d      	movs	r5, r3
100015ca:	e7ea      	b.n	100015a2 <irq_remove_handler+0x46>
100015cc:	2301      	movs	r3, #1
100015ce:	4083      	lsls	r3, r0
100015d0:	469b      	mov	fp, r3
100015d2:	465a      	mov	r2, fp
100015d4:	4b4a      	ldr	r3, [pc, #296]	; (10001700 <irq_remove_handler+0x1a4>)
100015d6:	681b      	ldr	r3, [r3, #0]
100015d8:	401a      	ands	r2, r3
100015da:	9200      	str	r2, [sp, #0]
100015dc:	465a      	mov	r2, fp
100015de:	4b49      	ldr	r3, [pc, #292]	; (10001704 <irq_remove_handler+0x1a8>)
100015e0:	601a      	str	r2, [r3, #0]
100015e2:	f3bf 8f5f 	dmb	sy
100015e6:	f7fe fdd6 	bl	10000196 <__get_current_exception>
100015ea:	9001      	str	r0, [sp, #4]
100015ec:	2800      	cmp	r0, #0
100015ee:	d003      	beq.n	100015f8 <irq_remove_handler+0x9c>
100015f0:	4581      	cmp	r9, r0
100015f2:	d001      	beq.n	100015f8 <irq_remove_handler+0x9c>
100015f4:	f7ff fdac 	bl	10001150 <hard_assertion_failure>
100015f8:	2301      	movs	r3, #1
100015fa:	0029      	movs	r1, r5
100015fc:	4399      	bics	r1, r3
100015fe:	688b      	ldr	r3, [r1, #8]
10001600:	42a3      	cmp	r3, r4
10001602:	d069      	beq.n	100016d8 <irq_remove_handler+0x17c>
10001604:	000a      	movs	r2, r1
10001606:	e007      	b.n	10001618 <irq_remove_handler+0xbc>
10001608:	0043      	lsls	r3, r0, #1
1000160a:	181b      	adds	r3, r3, r0
1000160c:	009b      	lsls	r3, r3, #2
1000160e:	18fb      	adds	r3, r7, r3
10001610:	6898      	ldr	r0, [r3, #8]
10001612:	42a0      	cmp	r0, r4
10001614:	d011      	beq.n	1000163a <irq_remove_handler+0xde>
10001616:	001a      	movs	r2, r3
10001618:	2006      	movs	r0, #6
1000161a:	5610      	ldrsb	r0, [r2, r0]
1000161c:	2800      	cmp	r0, #0
1000161e:	daf3      	bge.n	10001608 <irq_remove_handler+0xac>
10001620:	9b00      	ldr	r3, [sp, #0]
10001622:	2b00      	cmp	r3, #0
10001624:	d005      	beq.n	10001632 <irq_remove_handler+0xd6>
10001626:	465a      	mov	r2, fp
10001628:	4b37      	ldr	r3, [pc, #220]	; (10001708 <irq_remove_handler+0x1ac>)
1000162a:	601a      	str	r2, [r3, #0]
1000162c:	4b34      	ldr	r3, [pc, #208]	; (10001700 <irq_remove_handler+0x1a4>)
1000162e:	601a      	str	r2, [r3, #0]
10001630:	e7b7      	b.n	100015a2 <irq_remove_handler+0x46>
10001632:	465a      	mov	r2, fp
10001634:	4b33      	ldr	r3, [pc, #204]	; (10001704 <irq_remove_handler+0x1a8>)
10001636:	601a      	str	r2, [r3, #0]
10001638:	e7b3      	b.n	100015a2 <irq_remove_handler+0x46>
1000163a:	2006      	movs	r0, #6
1000163c:	5618      	ldrsb	r0, [r3, r0]
1000163e:	2800      	cmp	r0, #0
10001640:	db22      	blt.n	10001688 <irq_remove_handler+0x12c>
10001642:	0042      	lsls	r2, r0, #1
10001644:	1811      	adds	r1, r2, r0
10001646:	0089      	lsls	r1, r1, #2
10001648:	187c      	adds	r4, r7, r1
1000164a:	4688      	mov	r8, r1
1000164c:	68a1      	ldr	r1, [r4, #8]
1000164e:	6099      	str	r1, [r3, #8]
10001650:	79e1      	ldrb	r1, [r4, #7]
10001652:	71d9      	strb	r1, [r3, #7]
10001654:	2106      	movs	r1, #6
10001656:	5661      	ldrsb	r1, [r4, r1]
10001658:	7199      	strb	r1, [r3, #6]
1000165a:	79a1      	ldrb	r1, [r4, #6]
1000165c:	297f      	cmp	r1, #127	; 0x7f
1000165e:	d82b      	bhi.n	100016b8 <irq_remove_handler+0x15c>
10001660:	88a4      	ldrh	r4, [r4, #4]
10001662:	1af9      	subs	r1, r7, r3
10001664:	0564      	lsls	r4, r4, #21
10001666:	1524      	asrs	r4, r4, #20
10001668:	4444      	add	r4, r8
1000166a:	1909      	adds	r1, r1, r4
1000166c:	24e0      	movs	r4, #224	; 0xe0
1000166e:	0509      	lsls	r1, r1, #20
10001670:	0d49      	lsrs	r1, r1, #21
10001672:	0224      	lsls	r4, r4, #8
10001674:	4321      	orrs	r1, r4
10001676:	8099      	strh	r1, [r3, #4]
10001678:	1812      	adds	r2, r2, r0
1000167a:	4b24      	ldr	r3, [pc, #144]	; (1000170c <irq_remove_handler+0x1b0>)
1000167c:	0092      	lsls	r2, r2, #2
1000167e:	18bf      	adds	r7, r7, r2
10001680:	781a      	ldrb	r2, [r3, #0]
10001682:	7018      	strb	r0, [r3, #0]
10001684:	71ba      	strb	r2, [r7, #6]
10001686:	e7cb      	b.n	10001620 <irq_remove_handler+0xc4>
10001688:	9801      	ldr	r0, [sp, #4]
1000168a:	2800      	cmp	r0, #0
1000168c:	d117      	bne.n	100016be <irq_remove_handler+0x162>
1000168e:	30ff      	adds	r0, #255	; 0xff
10001690:	7190      	strb	r0, [r2, #6]
10001692:	481f      	ldr	r0, [pc, #124]	; (10001710 <irq_remove_handler+0x1b4>)
10001694:	8090      	strh	r0, [r2, #4]
10001696:	4a1d      	ldr	r2, [pc, #116]	; (1000170c <irq_remove_handler+0x1b0>)
10001698:	1bcf      	subs	r7, r1, r7
1000169a:	7810      	ldrb	r0, [r2, #0]
1000169c:	10bf      	asrs	r7, r7, #2
1000169e:	7198      	strb	r0, [r3, #6]
100016a0:	00bb      	lsls	r3, r7, #2
100016a2:	19db      	adds	r3, r3, r7
100016a4:	0119      	lsls	r1, r3, #4
100016a6:	185b      	adds	r3, r3, r1
100016a8:	0219      	lsls	r1, r3, #8
100016aa:	185b      	adds	r3, r3, r1
100016ac:	0419      	lsls	r1, r3, #16
100016ae:	185b      	adds	r3, r3, r1
100016b0:	005b      	lsls	r3, r3, #1
100016b2:	19db      	adds	r3, r3, r7
100016b4:	7013      	strb	r3, [r2, #0]
100016b6:	e7b3      	b.n	10001620 <irq_remove_handler+0xc4>
100016b8:	21bd      	movs	r1, #189	; 0xbd
100016ba:	0209      	lsls	r1, r1, #8
100016bc:	e7db      	b.n	10001676 <irq_remove_handler+0x11a>
100016be:	4a15      	ldr	r2, [pc, #84]	; (10001714 <irq_remove_handler+0x1b8>)
100016c0:	4915      	ldr	r1, [pc, #84]	; (10001718 <irq_remove_handler+0x1bc>)
100016c2:	1ad2      	subs	r2, r2, r3
100016c4:	3a08      	subs	r2, #8
100016c6:	0250      	lsls	r0, r2, #9
100016c8:	0d40      	lsrs	r0, r0, #21
100016ca:	4301      	orrs	r1, r0
100016cc:	8099      	strh	r1, [r3, #4]
100016ce:	4913      	ldr	r1, [pc, #76]	; (1000171c <irq_remove_handler+0x1c0>)
100016d0:	0852      	lsrs	r2, r2, #1
100016d2:	430a      	orrs	r2, r1
100016d4:	80da      	strh	r2, [r3, #6]
100016d6:	e7a3      	b.n	10001620 <irq_remove_handler+0xc4>
100016d8:	2006      	movs	r0, #6
100016da:	5608      	ldrsb	r0, [r1, r0]
100016dc:	000b      	movs	r3, r1
100016de:	2800      	cmp	r0, #0
100016e0:	daaf      	bge.n	10001642 <irq_remove_handler+0xe6>
100016e2:	9a01      	ldr	r2, [sp, #4]
100016e4:	2a00      	cmp	r2, #0
100016e6:	d1ea      	bne.n	100016be <irq_remove_handler+0x162>
100016e8:	000b      	movs	r3, r1
100016ea:	4645      	mov	r5, r8
100016ec:	e7d3      	b.n	10001696 <irq_remove_handler+0x13a>
100016ee:	46c0      	nop			; (mov r8, r8)
100016f0:	d0000124 	.word	0xd0000124
100016f4:	e000ed00 	.word	0xe000ed00
100016f8:	100002cd 	.word	0x100002cd
100016fc:	2000018c 	.word	0x2000018c
10001700:	e000e100 	.word	0xe000e100
10001704:	e000e180 	.word	0xe000e180
10001708:	e000e280 	.word	0xe000e280
1000170c:	20000b2f 	.word	0x20000b2f
10001710:	ffffbd00 	.word	0xffffbd00
10001714:	200001c6 	.word	0x200001c6
10001718:	fffff000 	.word	0xfffff000
1000171c:	fffff800 	.word	0xfffff800

10001720 <irq_add_tail_to_free_list>:
10001720:	b5f8      	push	{r3, r4, r5, r6, r7, lr}
10001722:	2501      	movs	r5, #1
10001724:	0004      	movs	r4, r0
10001726:	4305      	orrs	r5, r0
10001728:	f7fe fd35 	bl	10000196 <__get_current_exception>
1000172c:	f3ef 8610 	mrs	r6, PRIMASK
10001730:	b672      	cpsid	i
10001732:	4a24      	ldr	r2, [pc, #144]	; (100017c4 <irq_add_tail_to_free_list+0xa4>)
10001734:	6813      	ldr	r3, [r2, #0]
10001736:	2b00      	cmp	r3, #0
10001738:	d0fc      	beq.n	10001734 <irq_add_tail_to_free_list+0x14>
1000173a:	f3bf 8f5f 	dmb	sy
1000173e:	4f22      	ldr	r7, [pc, #136]	; (100017c8 <irq_add_tail_to_free_list+0xa8>)
10001740:	0080      	lsls	r0, r0, #2
10001742:	1be1      	subs	r1, r4, r7
10001744:	1089      	asrs	r1, r1, #2
10001746:	008a      	lsls	r2, r1, #2
10001748:	1852      	adds	r2, r2, r1
1000174a:	0113      	lsls	r3, r2, #4
1000174c:	18d2      	adds	r2, r2, r3
1000174e:	0213      	lsls	r3, r2, #8
10001750:	18d2      	adds	r2, r2, r3
10001752:	0413      	lsls	r3, r2, #16
10001754:	18d3      	adds	r3, r2, r3
10001756:	4a1d      	ldr	r2, [pc, #116]	; (100017cc <irq_add_tail_to_free_list+0xac>)
10001758:	005b      	lsls	r3, r3, #1
1000175a:	185b      	adds	r3, r3, r1
1000175c:	6891      	ldr	r1, [r2, #8]
1000175e:	5809      	ldr	r1, [r1, r0]
10001760:	42a9      	cmp	r1, r5
10001762:	d01c      	beq.n	1000179e <irq_add_tail_to_free_list+0x7e>
10001764:	2206      	movs	r2, #6
10001766:	56ba      	ldrsb	r2, [r7, r2]
10001768:	4293      	cmp	r3, r2
1000176a:	d01c      	beq.n	100017a6 <irq_add_tail_to_free_list+0x86>
1000176c:	2212      	movs	r2, #18
1000176e:	56ba      	ldrsb	r2, [r7, r2]
10001770:	4293      	cmp	r3, r2
10001772:	d022      	beq.n	100017ba <irq_add_tail_to_free_list+0x9a>
10001774:	221e      	movs	r2, #30
10001776:	56ba      	ldrsb	r2, [r7, r2]
10001778:	4293      	cmp	r3, r2
1000177a:	d020      	beq.n	100017be <irq_add_tail_to_free_list+0x9e>
1000177c:	222a      	movs	r2, #42	; 0x2a
1000177e:	56ba      	ldrsb	r2, [r7, r2]
10001780:	2103      	movs	r1, #3
10001782:	429a      	cmp	r2, r3
10001784:	d010      	beq.n	100017a8 <irq_add_tail_to_free_list+0x88>
10001786:	4a12      	ldr	r2, [pc, #72]	; (100017d0 <irq_add_tail_to_free_list+0xb0>)
10001788:	7811      	ldrb	r1, [r2, #0]
1000178a:	7013      	strb	r3, [r2, #0]
1000178c:	71a1      	strb	r1, [r4, #6]
1000178e:	f3bf 8f5f 	dmb	sy
10001792:	2200      	movs	r2, #0
10001794:	4b0b      	ldr	r3, [pc, #44]	; (100017c4 <irq_add_tail_to_free_list+0xa4>)
10001796:	601a      	str	r2, [r3, #0]
10001798:	f386 8810 	msr	PRIMASK, r6
1000179c:	bdf8      	pop	{r3, r4, r5, r6, r7, pc}
1000179e:	6892      	ldr	r2, [r2, #8]
100017a0:	490c      	ldr	r1, [pc, #48]	; (100017d4 <irq_add_tail_to_free_list+0xb4>)
100017a2:	5011      	str	r1, [r2, r0]
100017a4:	e7ef      	b.n	10001786 <irq_add_tail_to_free_list+0x66>
100017a6:	2100      	movs	r1, #0
100017a8:	004a      	lsls	r2, r1, #1
100017aa:	1852      	adds	r2, r2, r1
100017ac:	21ff      	movs	r1, #255	; 0xff
100017ae:	0092      	lsls	r2, r2, #2
100017b0:	18ba      	adds	r2, r7, r2
100017b2:	7191      	strb	r1, [r2, #6]
100017b4:	4908      	ldr	r1, [pc, #32]	; (100017d8 <irq_add_tail_to_free_list+0xb8>)
100017b6:	8091      	strh	r1, [r2, #4]
100017b8:	e7e5      	b.n	10001786 <irq_add_tail_to_free_list+0x66>
100017ba:	2101      	movs	r1, #1
100017bc:	e7f4      	b.n	100017a8 <irq_add_tail_to_free_list+0x88>
100017be:	2102      	movs	r1, #2
100017c0:	e7f2      	b.n	100017a8 <irq_add_tail_to_free_list+0x88>
100017c2:	46c0      	nop			; (mov r8, r8)
100017c4:	d0000124 	.word	0xd0000124
100017c8:	2000018c 	.word	0x2000018c
100017cc:	e000ed00 	.word	0xe000ed00
100017d0:	20000b2f 	.word	0x20000b2f
100017d4:	100002cd 	.word	0x100002cd
100017d8:	ffffbd00 	.word	0xffffbd00

100017dc <irq_init_priorities>:
100017dc:	b5f0      	push	{r4, r5, r6, r7, lr}
100017de:	2200      	movs	r2, #0
100017e0:	2403      	movs	r4, #3
100017e2:	27ff      	movs	r7, #255	; 0xff
100017e4:	2680      	movs	r6, #128	; 0x80
100017e6:	0020      	movs	r0, r4
100017e8:	003d      	movs	r5, r7
100017ea:	4b09      	ldr	r3, [pc, #36]	; (10001810 <irq_init_priorities+0x34>)
100017ec:	0011      	movs	r1, r2
100017ee:	469c      	mov	ip, r3
100017f0:	4010      	ands	r0, r2
100017f2:	00c0      	lsls	r0, r0, #3
100017f4:	4085      	lsls	r5, r0
100017f6:	43a1      	bics	r1, r4
100017f8:	4461      	add	r1, ip
100017fa:	680b      	ldr	r3, [r1, #0]
100017fc:	3201      	adds	r2, #1
100017fe:	43ab      	bics	r3, r5
10001800:	0035      	movs	r5, r6
10001802:	4085      	lsls	r5, r0
10001804:	432b      	orrs	r3, r5
10001806:	600b      	str	r3, [r1, #0]
10001808:	2a20      	cmp	r2, #32
1000180a:	d1ec      	bne.n	100017e6 <irq_init_priorities+0xa>
1000180c:	bdf0      	pop	{r4, r5, r6, r7, pc}
1000180e:	46c0      	nop			; (mov r8, r8)
10001810:	e000e400 	.word	0xe000e400

10001814 <_out_buffer>:
10001814:	429a      	cmp	r2, r3
10001816:	d200      	bcs.n	1000181a <_out_buffer+0x6>
10001818:	5488      	strb	r0, [r1, r2]
1000181a:	4770      	bx	lr

1000181c <_out_null>:
1000181c:	4770      	bx	lr
1000181e:	46c0      	nop			; (mov r8, r8)

10001820 <_out_rev>:
10001820:	b5f8      	push	{r3, r4, r5, r6, r7, lr}
10001822:	4657      	mov	r7, sl
10001824:	464e      	mov	r6, r9
10001826:	46de      	mov	lr, fp
10001828:	4645      	mov	r5, r8
1000182a:	b5e0      	push	{r5, r6, r7, lr}
1000182c:	001f      	movs	r7, r3
1000182e:	9b0a      	ldr	r3, [sp, #40]	; 0x28
10001830:	0005      	movs	r5, r0
10001832:	469b      	mov	fp, r3
10001834:	9b0d      	ldr	r3, [sp, #52]	; 0x34
10001836:	000e      	movs	r6, r1
10001838:	4691      	mov	r9, r2
1000183a:	4692      	mov	sl, r2
1000183c:	079b      	lsls	r3, r3, #30
1000183e:	d118      	bne.n	10001872 <_out_rev+0x52>
10001840:	9b0b      	ldr	r3, [sp, #44]	; 0x2c
10001842:	9a0c      	ldr	r2, [sp, #48]	; 0x30
10001844:	4293      	cmp	r3, r2
10001846:	d214      	bcs.n	10001872 <_out_rev+0x52>
10001848:	0013      	movs	r3, r2
1000184a:	9a0b      	ldr	r2, [sp, #44]	; 0x2c
1000184c:	46b8      	mov	r8, r7
1000184e:	1a9b      	subs	r3, r3, r2
10001850:	444b      	add	r3, r9
10001852:	464c      	mov	r4, r9
10001854:	000f      	movs	r7, r1
10001856:	0006      	movs	r6, r0
10001858:	001d      	movs	r5, r3
1000185a:	0022      	movs	r2, r4
1000185c:	4643      	mov	r3, r8
1000185e:	3401      	adds	r4, #1
10001860:	0039      	movs	r1, r7
10001862:	2020      	movs	r0, #32
10001864:	47b0      	blx	r6
10001866:	42ac      	cmp	r4, r5
10001868:	d1f7      	bne.n	1000185a <_out_rev+0x3a>
1000186a:	46aa      	mov	sl, r5
1000186c:	0035      	movs	r5, r6
1000186e:	003e      	movs	r6, r7
10001870:	4647      	mov	r7, r8
10001872:	9b0b      	ldr	r3, [sp, #44]	; 0x2c
10001874:	2b00      	cmp	r3, #0
10001876:	d038      	beq.n	100018ea <_out_rev+0xca>
10001878:	449a      	add	sl, r3
1000187a:	001c      	movs	r4, r3
1000187c:	46d0      	mov	r8, sl
1000187e:	4653      	mov	r3, sl
10001880:	1b1a      	subs	r2, r3, r4
10001882:	465b      	mov	r3, fp
10001884:	3c01      	subs	r4, #1
10001886:	5d18      	ldrb	r0, [r3, r4]
10001888:	0031      	movs	r1, r6
1000188a:	003b      	movs	r3, r7
1000188c:	47a8      	blx	r5
1000188e:	2c00      	cmp	r4, #0
10001890:	d1f5      	bne.n	1000187e <_out_rev+0x5e>
10001892:	9b0d      	ldr	r3, [sp, #52]	; 0x34
10001894:	079b      	lsls	r3, r3, #30
10001896:	d521      	bpl.n	100018dc <_out_rev+0xbc>
10001898:	4643      	mov	r3, r8
1000189a:	464a      	mov	r2, r9
1000189c:	1a9c      	subs	r4, r3, r2
1000189e:	9b0c      	ldr	r3, [sp, #48]	; 0x30
100018a0:	42a3      	cmp	r3, r4
100018a2:	d91b      	bls.n	100018dc <_out_rev+0xbc>
100018a4:	003a      	movs	r2, r7
100018a6:	469a      	mov	sl, r3
100018a8:	464f      	mov	r7, r9
100018aa:	4691      	mov	r9, r2
100018ac:	19e2      	adds	r2, r4, r7
100018ae:	464b      	mov	r3, r9
100018b0:	0031      	movs	r1, r6
100018b2:	2020      	movs	r0, #32
100018b4:	3401      	adds	r4, #1
100018b6:	47a8      	blx	r5
100018b8:	4554      	cmp	r4, sl
100018ba:	d3f7      	bcc.n	100018ac <_out_rev+0x8c>
100018bc:	4643      	mov	r3, r8
100018be:	990c      	ldr	r1, [sp, #48]	; 0x30
100018c0:	1bdb      	subs	r3, r3, r7
100018c2:	3301      	adds	r3, #1
100018c4:	46b9      	mov	r9, r7
100018c6:	2200      	movs	r2, #0
100018c8:	4299      	cmp	r1, r3
100018ca:	d303      	bcc.n	100018d4 <_out_rev+0xb4>
100018cc:	4643      	mov	r3, r8
100018ce:	1e4a      	subs	r2, r1, #1
100018d0:	444a      	add	r2, r9
100018d2:	1ad2      	subs	r2, r2, r3
100018d4:	4643      	mov	r3, r8
100018d6:	4690      	mov	r8, r2
100018d8:	3301      	adds	r3, #1
100018da:	4498      	add	r8, r3
100018dc:	4640      	mov	r0, r8
100018de:	bc3c      	pop	{r2, r3, r4, r5}
100018e0:	4690      	mov	r8, r2
100018e2:	4699      	mov	r9, r3
100018e4:	46a2      	mov	sl, r4
100018e6:	46ab      	mov	fp, r5
100018e8:	bdf8      	pop	{r3, r4, r5, r6, r7, pc}
100018ea:	46d0      	mov	r8, sl
100018ec:	e7d1      	b.n	10001892 <_out_rev+0x72>
100018ee:	46c0      	nop			; (mov r8, r8)

100018f0 <_ntoa_format>:
100018f0:	b5f0      	push	{r4, r5, r6, r7, lr}
100018f2:	464f      	mov	r7, r9
100018f4:	4646      	mov	r6, r8
100018f6:	46d6      	mov	lr, sl
100018f8:	b5c0      	push	{r6, r7, lr}
100018fa:	b084      	sub	sp, #16
100018fc:	4698      	mov	r8, r3
100018fe:	ab0e      	add	r3, sp, #56	; 0x38
10001900:	781b      	ldrb	r3, [r3, #0]
10001902:	9f12      	ldr	r7, [sp, #72]	; 0x48
10001904:	4699      	mov	r9, r3
10001906:	4694      	mov	ip, r2
10001908:	9c0d      	ldr	r4, [sp, #52]	; 0x34
1000190a:	9b10      	ldr	r3, [sp, #64]	; 0x40
1000190c:	9e11      	ldr	r6, [sp, #68]	; 0x44
1000190e:	07ba      	lsls	r2, r7, #30
10001910:	d425      	bmi.n	1000195e <_ntoa_format+0x6e>
10001912:	2e00      	cmp	r6, #0
10001914:	d169      	bne.n	100019ea <_ntoa_format+0xfa>
10001916:	429c      	cmp	r4, r3
10001918:	d300      	bcc.n	1000191c <_ntoa_format+0x2c>
1000191a:	e0c2      	b.n	10001aa2 <_ntoa_format+0x1b2>
1000191c:	2201      	movs	r2, #1
1000191e:	403a      	ands	r2, r7
10001920:	4692      	mov	sl, r2
10001922:	2c1f      	cmp	r4, #31
10001924:	d900      	bls.n	10001928 <_ntoa_format+0x38>
10001926:	e0bb      	b.n	10001aa0 <_ntoa_format+0x1b0>
10001928:	9a0c      	ldr	r2, [sp, #48]	; 0x30
1000192a:	1e55      	subs	r5, r2, #1
1000192c:	2230      	movs	r2, #48	; 0x30
1000192e:	e001      	b.n	10001934 <_ntoa_format+0x44>
10001930:	2c20      	cmp	r4, #32
10001932:	d003      	beq.n	1000193c <_ntoa_format+0x4c>
10001934:	3401      	adds	r4, #1
10001936:	552a      	strb	r2, [r5, r4]
10001938:	42a3      	cmp	r3, r4
1000193a:	d8f9      	bhi.n	10001930 <_ntoa_format+0x40>
1000193c:	4652      	mov	r2, sl
1000193e:	2a00      	cmp	r2, #0
10001940:	d00d      	beq.n	1000195e <_ntoa_format+0x6e>
10001942:	42b4      	cmp	r4, r6
10001944:	d20b      	bcs.n	1000195e <_ntoa_format+0x6e>
10001946:	2c1f      	cmp	r4, #31
10001948:	d862      	bhi.n	10001a10 <_ntoa_format+0x120>
1000194a:	9a0c      	ldr	r2, [sp, #48]	; 0x30
1000194c:	1e55      	subs	r5, r2, #1
1000194e:	2230      	movs	r2, #48	; 0x30
10001950:	e001      	b.n	10001956 <_ntoa_format+0x66>
10001952:	2c20      	cmp	r4, #32
10001954:	d05c      	beq.n	10001a10 <_ntoa_format+0x120>
10001956:	3401      	adds	r4, #1
10001958:	552a      	strb	r2, [r5, r4]
1000195a:	42b4      	cmp	r4, r6
1000195c:	d1f9      	bne.n	10001952 <_ntoa_format+0x62>
1000195e:	06fa      	lsls	r2, r7, #27
10001960:	d535      	bpl.n	100019ce <_ntoa_format+0xde>
10001962:	057a      	lsls	r2, r7, #21
10001964:	d45d      	bmi.n	10001a22 <_ntoa_format+0x132>
10001966:	2c00      	cmp	r4, #0
10001968:	d157      	bne.n	10001a1a <_ntoa_format+0x12a>
1000196a:	9b0f      	ldr	r3, [sp, #60]	; 0x3c
1000196c:	2b10      	cmp	r3, #16
1000196e:	d100      	bne.n	10001972 <_ntoa_format+0x82>
10001970:	e07c      	b.n	10001a6c <_ntoa_format+0x17c>
10001972:	9b0f      	ldr	r3, [sp, #60]	; 0x3c
10001974:	2b02      	cmp	r3, #2
10001976:	d100      	bne.n	1000197a <_ntoa_format+0x8a>
10001978:	e08d      	b.n	10001a96 <_ntoa_format+0x1a6>
1000197a:	2330      	movs	r3, #48	; 0x30
1000197c:	9a0c      	ldr	r2, [sp, #48]	; 0x30
1000197e:	2401      	movs	r4, #1
10001980:	7013      	strb	r3, [r2, #0]
10001982:	464b      	mov	r3, r9
10001984:	2b00      	cmp	r3, #0
10001986:	d027      	beq.n	100019d8 <_ntoa_format+0xe8>
10001988:	232d      	movs	r3, #45	; 0x2d
1000198a:	9a0c      	ldr	r2, [sp, #48]	; 0x30
1000198c:	5513      	strb	r3, [r2, r4]
1000198e:	3401      	adds	r4, #1
10001990:	9b0c      	ldr	r3, [sp, #48]	; 0x30
10001992:	4662      	mov	r2, ip
10001994:	9300      	str	r3, [sp, #0]
10001996:	9703      	str	r7, [sp, #12]
10001998:	4643      	mov	r3, r8
1000199a:	9602      	str	r6, [sp, #8]
1000199c:	9401      	str	r4, [sp, #4]
1000199e:	f7ff ff3f 	bl	10001820 <_out_rev>
100019a2:	b004      	add	sp, #16
100019a4:	bc1c      	pop	{r2, r3, r4}
100019a6:	4690      	mov	r8, r2
100019a8:	4699      	mov	r9, r3
100019aa:	46a2      	mov	sl, r4
100019ac:	bdf0      	pop	{r4, r5, r6, r7, pc}
100019ae:	06bb      	lsls	r3, r7, #26
100019b0:	d463      	bmi.n	10001a7a <_ntoa_format+0x18a>
100019b2:	2c20      	cmp	r4, #32
100019b4:	d0ec      	beq.n	10001990 <_ntoa_format+0xa0>
100019b6:	9b0c      	ldr	r3, [sp, #48]	; 0x30
100019b8:	191a      	adds	r2, r3, r4
100019ba:	3401      	adds	r4, #1
100019bc:	2378      	movs	r3, #120	; 0x78
100019be:	7013      	strb	r3, [r2, #0]
100019c0:	2c20      	cmp	r4, #32
100019c2:	d0e5      	beq.n	10001990 <_ntoa_format+0xa0>
100019c4:	2230      	movs	r2, #48	; 0x30
100019c6:	9b0c      	ldr	r3, [sp, #48]	; 0x30
100019c8:	191b      	adds	r3, r3, r4
100019ca:	701a      	strb	r2, [r3, #0]
100019cc:	3401      	adds	r4, #1
100019ce:	2c20      	cmp	r4, #32
100019d0:	d0de      	beq.n	10001990 <_ntoa_format+0xa0>
100019d2:	464b      	mov	r3, r9
100019d4:	2b00      	cmp	r3, #0
100019d6:	d1d7      	bne.n	10001988 <_ntoa_format+0x98>
100019d8:	077b      	lsls	r3, r7, #29
100019da:	d435      	bmi.n	10001a48 <_ntoa_format+0x158>
100019dc:	073b      	lsls	r3, r7, #28
100019de:	d5d7      	bpl.n	10001990 <_ntoa_format+0xa0>
100019e0:	2320      	movs	r3, #32
100019e2:	9a0c      	ldr	r2, [sp, #48]	; 0x30
100019e4:	5513      	strb	r3, [r2, r4]
100019e6:	3401      	adds	r4, #1
100019e8:	e7d2      	b.n	10001990 <_ntoa_format+0xa0>
100019ea:	2201      	movs	r2, #1
100019ec:	0015      	movs	r5, r2
100019ee:	403d      	ands	r5, r7
100019f0:	46aa      	mov	sl, r5
100019f2:	423a      	tst	r2, r7
100019f4:	d020      	beq.n	10001a38 <_ntoa_format+0x148>
100019f6:	464a      	mov	r2, r9
100019f8:	2a00      	cmp	r2, #0
100019fa:	d12a      	bne.n	10001a52 <_ntoa_format+0x162>
100019fc:	320c      	adds	r2, #12
100019fe:	423a      	tst	r2, r7
10001a00:	d127      	bne.n	10001a52 <_ntoa_format+0x162>
10001a02:	429c      	cmp	r4, r3
10001a04:	d29d      	bcs.n	10001942 <_ntoa_format+0x52>
10001a06:	2c1f      	cmp	r4, #31
10001a08:	d800      	bhi.n	10001a0c <_ntoa_format+0x11c>
10001a0a:	e78d      	b.n	10001928 <_ntoa_format+0x38>
10001a0c:	2e20      	cmp	r6, #32
10001a0e:	d919      	bls.n	10001a44 <_ntoa_format+0x154>
10001a10:	2420      	movs	r4, #32
10001a12:	06fa      	lsls	r2, r7, #27
10001a14:	d5bc      	bpl.n	10001990 <_ntoa_format+0xa0>
10001a16:	057a      	lsls	r2, r7, #21
10001a18:	d403      	bmi.n	10001a22 <_ntoa_format+0x132>
10001a1a:	42a3      	cmp	r3, r4
10001a1c:	d01b      	beq.n	10001a56 <_ntoa_format+0x166>
10001a1e:	42a6      	cmp	r6, r4
10001a20:	d019      	beq.n	10001a56 <_ntoa_format+0x166>
10001a22:	9b0f      	ldr	r3, [sp, #60]	; 0x3c
10001a24:	2b10      	cmp	r3, #16
10001a26:	d0c2      	beq.n	100019ae <_ntoa_format+0xbe>
10001a28:	2b02      	cmp	r3, #2
10001a2a:	d1c9      	bne.n	100019c0 <_ntoa_format+0xd0>
10001a2c:	2c20      	cmp	r4, #32
10001a2e:	d0af      	beq.n	10001990 <_ntoa_format+0xa0>
10001a30:	9b0c      	ldr	r3, [sp, #48]	; 0x30
10001a32:	191b      	adds	r3, r3, r4
10001a34:	3401      	adds	r4, #1
10001a36:	e040      	b.n	10001aba <_ntoa_format+0x1ca>
10001a38:	429c      	cmp	r4, r3
10001a3a:	d300      	bcc.n	10001a3e <_ntoa_format+0x14e>
10001a3c:	e78f      	b.n	1000195e <_ntoa_format+0x6e>
10001a3e:	2c1f      	cmp	r4, #31
10001a40:	d800      	bhi.n	10001a44 <_ntoa_format+0x154>
10001a42:	e771      	b.n	10001928 <_ntoa_format+0x38>
10001a44:	2420      	movs	r4, #32
10001a46:	e78a      	b.n	1000195e <_ntoa_format+0x6e>
10001a48:	232b      	movs	r3, #43	; 0x2b
10001a4a:	9a0c      	ldr	r2, [sp, #48]	; 0x30
10001a4c:	5513      	strb	r3, [r2, r4]
10001a4e:	3401      	adds	r4, #1
10001a50:	e79e      	b.n	10001990 <_ntoa_format+0xa0>
10001a52:	3e01      	subs	r6, #1
10001a54:	e7d5      	b.n	10001a02 <_ntoa_format+0x112>
10001a56:	1e63      	subs	r3, r4, #1
10001a58:	2c01      	cmp	r4, #1
10001a5a:	d100      	bne.n	10001a5e <_ntoa_format+0x16e>
10001a5c:	e785      	b.n	1000196a <_ntoa_format+0x7a>
10001a5e:	9a0f      	ldr	r2, [sp, #60]	; 0x3c
10001a60:	2a10      	cmp	r2, #16
10001a62:	d020      	beq.n	10001aa6 <_ntoa_format+0x1b6>
10001a64:	2a02      	cmp	r2, #2
10001a66:	d025      	beq.n	10001ab4 <_ntoa_format+0x1c4>
10001a68:	001c      	movs	r4, r3
10001a6a:	e7ab      	b.n	100019c4 <_ntoa_format+0xd4>
10001a6c:	06bb      	lsls	r3, r7, #26
10001a6e:	d40d      	bmi.n	10001a8c <_ntoa_format+0x19c>
10001a70:	2378      	movs	r3, #120	; 0x78
10001a72:	9a0c      	ldr	r2, [sp, #48]	; 0x30
10001a74:	2401      	movs	r4, #1
10001a76:	7013      	strb	r3, [r2, #0]
10001a78:	e7a4      	b.n	100019c4 <_ntoa_format+0xd4>
10001a7a:	2c20      	cmp	r4, #32
10001a7c:	d100      	bne.n	10001a80 <_ntoa_format+0x190>
10001a7e:	e787      	b.n	10001990 <_ntoa_format+0xa0>
10001a80:	2258      	movs	r2, #88	; 0x58
10001a82:	9b0c      	ldr	r3, [sp, #48]	; 0x30
10001a84:	191b      	adds	r3, r3, r4
10001a86:	701a      	strb	r2, [r3, #0]
10001a88:	3401      	adds	r4, #1
10001a8a:	e799      	b.n	100019c0 <_ntoa_format+0xd0>
10001a8c:	2358      	movs	r3, #88	; 0x58
10001a8e:	9a0c      	ldr	r2, [sp, #48]	; 0x30
10001a90:	2401      	movs	r4, #1
10001a92:	7013      	strb	r3, [r2, #0]
10001a94:	e796      	b.n	100019c4 <_ntoa_format+0xd4>
10001a96:	9a0c      	ldr	r2, [sp, #48]	; 0x30
10001a98:	3360      	adds	r3, #96	; 0x60
10001a9a:	2401      	movs	r4, #1
10001a9c:	7013      	strb	r3, [r2, #0]
10001a9e:	e791      	b.n	100019c4 <_ntoa_format+0xd4>
10001aa0:	2420      	movs	r4, #32
10001aa2:	2600      	movs	r6, #0
10001aa4:	e75b      	b.n	1000195e <_ntoa_format+0x6e>
10001aa6:	3c02      	subs	r4, #2
10001aa8:	06ba      	lsls	r2, r7, #26
10001aaa:	d4e9      	bmi.n	10001a80 <_ntoa_format+0x190>
10001aac:	9a0c      	ldr	r2, [sp, #48]	; 0x30
10001aae:	1912      	adds	r2, r2, r4
10001ab0:	001c      	movs	r4, r3
10001ab2:	e783      	b.n	100019bc <_ntoa_format+0xcc>
10001ab4:	9a0c      	ldr	r2, [sp, #48]	; 0x30
10001ab6:	4692      	mov	sl, r2
10001ab8:	4453      	add	r3, sl
10001aba:	2262      	movs	r2, #98	; 0x62
10001abc:	701a      	strb	r2, [r3, #0]
10001abe:	e77f      	b.n	100019c0 <_ntoa_format+0xd0>

10001ac0 <_out_char>:
10001ac0:	b510      	push	{r4, lr}
10001ac2:	2800      	cmp	r0, #0
10001ac4:	d100      	bne.n	10001ac8 <_out_char+0x8>
10001ac6:	bd10      	pop	{r4, pc}
10001ac8:	f002 f9fe 	bl	10003ec8 <__wrap_putchar>
10001acc:	e7fb      	b.n	10001ac6 <_out_char+0x6>
10001ace:	46c0      	nop			; (mov r8, r8)

10001ad0 <_out_fct>:
10001ad0:	000b      	movs	r3, r1
10001ad2:	b510      	push	{r4, lr}
10001ad4:	2800      	cmp	r0, #0
10001ad6:	d002      	beq.n	10001ade <_out_fct+0xe>
10001ad8:	6849      	ldr	r1, [r1, #4]
10001ada:	681b      	ldr	r3, [r3, #0]
10001adc:	4798      	blx	r3
10001ade:	bd10      	pop	{r4, pc}

10001ae0 <_etoa>:
10001ae0:	b5f0      	push	{r4, r5, r6, r7, lr}
10001ae2:	46de      	mov	lr, fp
10001ae4:	4657      	mov	r7, sl
10001ae6:	464e      	mov	r6, r9
10001ae8:	4645      	mov	r5, r8
10001aea:	b5e0      	push	{r5, r6, r7, lr}
10001aec:	b09b      	sub	sp, #108	; 0x6c
10001aee:	469a      	mov	sl, r3
10001af0:	9b24      	ldr	r3, [sp, #144]	; 0x90
10001af2:	468b      	mov	fp, r1
10001af4:	4699      	mov	r9, r3
10001af6:	9b25      	ldr	r3, [sp, #148]	; 0x94
10001af8:	900b      	str	r0, [sp, #44]	; 0x2c
10001afa:	4698      	mov	r8, r3
10001afc:	920c      	str	r2, [sp, #48]	; 0x30
10001afe:	4643      	mov	r3, r8
10001b00:	464a      	mov	r2, r9
10001b02:	4648      	mov	r0, r9
10001b04:	4641      	mov	r1, r8
10001b06:	f001 fce0 	bl	100034ca <__wrap___aeabi_dcmpun>
10001b0a:	2800      	cmp	r0, #0
10001b0c:	d000      	beq.n	10001b10 <_etoa+0x30>
10001b0e:	e1a3      	b.n	10001e58 <_etoa+0x378>
10001b10:	2201      	movs	r2, #1
10001b12:	4648      	mov	r0, r9
10001b14:	4641      	mov	r1, r8
10001b16:	4be2      	ldr	r3, [pc, #904]	; (10001ea0 <_etoa+0x3c0>)
10001b18:	4252      	negs	r2, r2
10001b1a:	f001 fcd1 	bl	100034c0 <__wrap___aeabi_dcmpgt>
10001b1e:	2800      	cmp	r0, #0
10001b20:	d000      	beq.n	10001b24 <_etoa+0x44>
10001b22:	e199      	b.n	10001e58 <_etoa+0x378>
10001b24:	2201      	movs	r2, #1
10001b26:	4648      	mov	r0, r9
10001b28:	4641      	mov	r1, r8
10001b2a:	4bde      	ldr	r3, [pc, #888]	; (10001ea4 <_etoa+0x3c4>)
10001b2c:	4252      	negs	r2, r2
10001b2e:	f001 fcb1 	bl	10003494 <__wrap___aeabi_dcmplt>
10001b32:	2800      	cmp	r0, #0
10001b34:	d000      	beq.n	10001b38 <_etoa+0x58>
10001b36:	e18f      	b.n	10001e58 <_etoa+0x378>
10001b38:	2200      	movs	r2, #0
10001b3a:	2300      	movs	r3, #0
10001b3c:	4648      	mov	r0, r9
10001b3e:	4641      	mov	r1, r8
10001b40:	f001 fca8 	bl	10003494 <__wrap___aeabi_dcmplt>
10001b44:	2800      	cmp	r0, #0
10001b46:	d000      	beq.n	10001b4a <_etoa+0x6a>
10001b48:	e1de      	b.n	10001f08 <_etoa+0x428>
10001b4a:	464a      	mov	r2, r9
10001b4c:	4643      	mov	r3, r8
10001b4e:	920a      	str	r2, [sp, #40]	; 0x28
10001b50:	9309      	str	r3, [sp, #36]	; 0x24
10001b52:	2380      	movs	r3, #128	; 0x80
10001b54:	9a28      	ldr	r2, [sp, #160]	; 0xa0
10001b56:	00db      	lsls	r3, r3, #3
10001b58:	401a      	ands	r2, r3
10001b5a:	9211      	str	r2, [sp, #68]	; 0x44
10001b5c:	9a28      	ldr	r2, [sp, #160]	; 0xa0
10001b5e:	421a      	tst	r2, r3
10001b60:	d101      	bne.n	10001b66 <_etoa+0x86>
10001b62:	2306      	movs	r3, #6
10001b64:	9326      	str	r3, [sp, #152]	; 0x98
10001b66:	4bd0      	ldr	r3, [pc, #832]	; (10001ea8 <_etoa+0x3c8>)
10001b68:	9f09      	ldr	r7, [sp, #36]	; 0x24
10001b6a:	469c      	mov	ip, r3
10001b6c:	0078      	lsls	r0, r7, #1
10001b6e:	0d40      	lsrs	r0, r0, #21
10001b70:	4460      	add	r0, ip
10001b72:	f001 fcbd 	bl	100034f0 <__wrap___aeabi_i2d>
10001b76:	4acd      	ldr	r2, [pc, #820]	; (10001eac <_etoa+0x3cc>)
10001b78:	4bcd      	ldr	r3, [pc, #820]	; (10001eb0 <_etoa+0x3d0>)
10001b7a:	f001 fc49 	bl	10003410 <__wrap___aeabi_dmul>
10001b7e:	4acd      	ldr	r2, [pc, #820]	; (10001eb4 <_etoa+0x3d4>)
10001b80:	4bcd      	ldr	r3, [pc, #820]	; (10001eb8 <_etoa+0x3d8>)
10001b82:	f001 fc33 	bl	100033ec <__wrap___aeabi_dadd>
10001b86:	033b      	lsls	r3, r7, #12
10001b88:	4acc      	ldr	r2, [pc, #816]	; (10001ebc <_etoa+0x3dc>)
10001b8a:	9e0a      	ldr	r6, [sp, #40]	; 0x28
10001b8c:	0b1b      	lsrs	r3, r3, #12
10001b8e:	431a      	orrs	r2, r3
10001b90:	0004      	movs	r4, r0
10001b92:	000d      	movs	r5, r1
10001b94:	0030      	movs	r0, r6
10001b96:	0011      	movs	r1, r2
10001b98:	4bc9      	ldr	r3, [pc, #804]	; (10001ec0 <_etoa+0x3e0>)
10001b9a:	2200      	movs	r2, #0
10001b9c:	9709      	str	r7, [sp, #36]	; 0x24
10001b9e:	f001 fc1c 	bl	100033da <__wrap___aeabi_dsub>
10001ba2:	4ac8      	ldr	r2, [pc, #800]	; (10001ec4 <_etoa+0x3e4>)
10001ba4:	4bc8      	ldr	r3, [pc, #800]	; (10001ec8 <_etoa+0x3e8>)
10001ba6:	f001 fc33 	bl	10003410 <__wrap___aeabi_dmul>
10001baa:	0002      	movs	r2, r0
10001bac:	000b      	movs	r3, r1
10001bae:	0020      	movs	r0, r4
10001bb0:	0029      	movs	r1, r5
10001bb2:	f001 fc1b 	bl	100033ec <__wrap___aeabi_dadd>
10001bb6:	f001 fcb3 	bl	10003520 <__wrap___aeabi_d2iz>
10001bba:	900d      	str	r0, [sp, #52]	; 0x34
10001bbc:	f001 fc98 	bl	100034f0 <__wrap___aeabi_i2d>
10001bc0:	4ac2      	ldr	r2, [pc, #776]	; (10001ecc <_etoa+0x3ec>)
10001bc2:	4bc3      	ldr	r3, [pc, #780]	; (10001ed0 <_etoa+0x3f0>)
10001bc4:	0004      	movs	r4, r0
10001bc6:	000d      	movs	r5, r1
10001bc8:	f001 fc22 	bl	10003410 <__wrap___aeabi_dmul>
10001bcc:	2200      	movs	r2, #0
10001bce:	4bc1      	ldr	r3, [pc, #772]	; (10001ed4 <_etoa+0x3f4>)
10001bd0:	f001 fc0c 	bl	100033ec <__wrap___aeabi_dadd>
10001bd4:	f001 fca4 	bl	10003520 <__wrap___aeabi_d2iz>
10001bd8:	4abf      	ldr	r2, [pc, #764]	; (10001ed8 <_etoa+0x3f8>)
10001bda:	0006      	movs	r6, r0
10001bdc:	4bbf      	ldr	r3, [pc, #764]	; (10001edc <_etoa+0x3fc>)
10001bde:	0020      	movs	r0, r4
10001be0:	0029      	movs	r1, r5
10001be2:	f001 fc15 	bl	10003410 <__wrap___aeabi_dmul>
10001be6:	0004      	movs	r4, r0
10001be8:	0030      	movs	r0, r6
10001bea:	000d      	movs	r5, r1
10001bec:	9610      	str	r6, [sp, #64]	; 0x40
10001bee:	f001 fc7f 	bl	100034f0 <__wrap___aeabi_i2d>
10001bf2:	4abb      	ldr	r2, [pc, #748]	; (10001ee0 <_etoa+0x400>)
10001bf4:	4bbb      	ldr	r3, [pc, #748]	; (10001ee4 <_etoa+0x404>)
10001bf6:	f001 fc0b 	bl	10003410 <__wrap___aeabi_dmul>
10001bfa:	0002      	movs	r2, r0
10001bfc:	000b      	movs	r3, r1
10001bfe:	0020      	movs	r0, r4
10001c00:	0029      	movs	r1, r5
10001c02:	f001 fbea 	bl	100033da <__wrap___aeabi_dsub>
10001c06:	0002      	movs	r2, r0
10001c08:	000b      	movs	r3, r1
10001c0a:	0006      	movs	r6, r0
10001c0c:	000f      	movs	r7, r1
10001c0e:	f001 fbff 	bl	10003410 <__wrap___aeabi_dmul>
10001c12:	0032      	movs	r2, r6
10001c14:	0004      	movs	r4, r0
10001c16:	000d      	movs	r5, r1
10001c18:	003b      	movs	r3, r7
10001c1a:	0030      	movs	r0, r6
10001c1c:	0039      	movs	r1, r7
10001c1e:	f001 fbe5 	bl	100033ec <__wrap___aeabi_dadd>
10001c22:	2200      	movs	r2, #0
10001c24:	900e      	str	r0, [sp, #56]	; 0x38
10001c26:	910f      	str	r1, [sp, #60]	; 0x3c
10001c28:	4baf      	ldr	r3, [pc, #700]	; (10001ee8 <_etoa+0x408>)
10001c2a:	0020      	movs	r0, r4
10001c2c:	0029      	movs	r1, r5
10001c2e:	f001 fbe6 	bl	100033fe <__wrap___aeabi_ddiv>
10001c32:	2200      	movs	r2, #0
10001c34:	4bad      	ldr	r3, [pc, #692]	; (10001eec <_etoa+0x40c>)
10001c36:	f001 fbd9 	bl	100033ec <__wrap___aeabi_dadd>
10001c3a:	0002      	movs	r2, r0
10001c3c:	000b      	movs	r3, r1
10001c3e:	0020      	movs	r0, r4
10001c40:	0029      	movs	r1, r5
10001c42:	f001 fbdc 	bl	100033fe <__wrap___aeabi_ddiv>
10001c46:	2200      	movs	r2, #0
10001c48:	4ba9      	ldr	r3, [pc, #676]	; (10001ef0 <_etoa+0x410>)
10001c4a:	f001 fbcf 	bl	100033ec <__wrap___aeabi_dadd>
10001c4e:	0002      	movs	r2, r0
10001c50:	000b      	movs	r3, r1
10001c52:	0020      	movs	r0, r4
10001c54:	0029      	movs	r1, r5
10001c56:	f001 fbd2 	bl	100033fe <__wrap___aeabi_ddiv>
10001c5a:	000d      	movs	r5, r1
10001c5c:	2180      	movs	r1, #128	; 0x80
10001c5e:	0004      	movs	r4, r0
10001c60:	0032      	movs	r2, r6
10001c62:	003b      	movs	r3, r7
10001c64:	2000      	movs	r0, #0
10001c66:	05c9      	lsls	r1, r1, #23
10001c68:	f001 fbb7 	bl	100033da <__wrap___aeabi_dsub>
10001c6c:	0002      	movs	r2, r0
10001c6e:	000b      	movs	r3, r1
10001c70:	0020      	movs	r0, r4
10001c72:	0029      	movs	r1, r5
10001c74:	f001 fbba 	bl	100033ec <__wrap___aeabi_dadd>
10001c78:	0002      	movs	r2, r0
10001c7a:	000b      	movs	r3, r1
10001c7c:	980e      	ldr	r0, [sp, #56]	; 0x38
10001c7e:	990f      	ldr	r1, [sp, #60]	; 0x3c
10001c80:	f001 fbbd 	bl	100033fe <__wrap___aeabi_ddiv>
10001c84:	2200      	movs	r2, #0
10001c86:	4b8d      	ldr	r3, [pc, #564]	; (10001ebc <_etoa+0x3dc>)
10001c88:	f001 fbb0 	bl	100033ec <__wrap___aeabi_dadd>
10001c8c:	9b10      	ldr	r3, [sp, #64]	; 0x40
10001c8e:	4a99      	ldr	r2, [pc, #612]	; (10001ef4 <_etoa+0x414>)
10001c90:	001c      	movs	r4, r3
10001c92:	4694      	mov	ip, r2
10001c94:	4464      	add	r4, ip
10001c96:	2200      	movs	r2, #0
10001c98:	0523      	lsls	r3, r4, #20
10001c9a:	f001 fbb9 	bl	10003410 <__wrap___aeabi_dmul>
10001c9e:	0006      	movs	r6, r0
10001ca0:	000f      	movs	r7, r1
10001ca2:	0002      	movs	r2, r0
10001ca4:	000b      	movs	r3, r1
10001ca6:	980a      	ldr	r0, [sp, #40]	; 0x28
10001ca8:	9909      	ldr	r1, [sp, #36]	; 0x24
10001caa:	f001 fbf3 	bl	10003494 <__wrap___aeabi_dcmplt>
10001cae:	2800      	cmp	r0, #0
10001cb0:	d00a      	beq.n	10001cc8 <_etoa+0x1e8>
10001cb2:	9b0d      	ldr	r3, [sp, #52]	; 0x34
10001cb4:	0030      	movs	r0, r6
10001cb6:	3b01      	subs	r3, #1
10001cb8:	0039      	movs	r1, r7
10001cba:	930d      	str	r3, [sp, #52]	; 0x34
10001cbc:	2200      	movs	r2, #0
10001cbe:	4b8b      	ldr	r3, [pc, #556]	; (10001eec <_etoa+0x40c>)
10001cc0:	f001 fb9d 	bl	100033fe <__wrap___aeabi_ddiv>
10001cc4:	0006      	movs	r6, r0
10001cc6:	000f      	movs	r7, r1
10001cc8:	9d0d      	ldr	r5, [sp, #52]	; 0x34
10001cca:	24c6      	movs	r4, #198	; 0xc6
10001ccc:	002b      	movs	r3, r5
10001cce:	3363      	adds	r3, #99	; 0x63
10001cd0:	429c      	cmp	r4, r3
10001cd2:	41a4      	sbcs	r4, r4
10001cd4:	9b28      	ldr	r3, [sp, #160]	; 0xa0
10001cd6:	4264      	negs	r4, r4
10001cd8:	3404      	adds	r4, #4
10001cda:	051b      	lsls	r3, r3, #20
10001cdc:	d51f      	bpl.n	10001d1e <_etoa+0x23e>
10001cde:	4a86      	ldr	r2, [pc, #536]	; (10001ef8 <_etoa+0x418>)
10001ce0:	4b86      	ldr	r3, [pc, #536]	; (10001efc <_etoa+0x41c>)
10001ce2:	980a      	ldr	r0, [sp, #40]	; 0x28
10001ce4:	9909      	ldr	r1, [sp, #36]	; 0x24
10001ce6:	f001 fbe3 	bl	100034b0 <__wrap___aeabi_dcmpge>
10001cea:	2800      	cmp	r0, #0
10001cec:	d100      	bne.n	10001cf0 <_etoa+0x210>
10001cee:	e0cc      	b.n	10001e8a <_etoa+0x3aa>
10001cf0:	2200      	movs	r2, #0
10001cf2:	4b83      	ldr	r3, [pc, #524]	; (10001f00 <_etoa+0x420>)
10001cf4:	980a      	ldr	r0, [sp, #40]	; 0x28
10001cf6:	9909      	ldr	r1, [sp, #36]	; 0x24
10001cf8:	f001 fbcc 	bl	10003494 <__wrap___aeabi_dcmplt>
10001cfc:	2800      	cmp	r0, #0
10001cfe:	d100      	bne.n	10001d02 <_etoa+0x222>
10001d00:	e0c3      	b.n	10001e8a <_etoa+0x3aa>
10001d02:	9a26      	ldr	r2, [sp, #152]	; 0x98
10001d04:	4295      	cmp	r5, r2
10001d06:	da00      	bge.n	10001d0a <_etoa+0x22a>
10001d08:	e10b      	b.n	10001f22 <_etoa+0x442>
10001d0a:	2300      	movs	r3, #0
10001d0c:	9326      	str	r3, [sp, #152]	; 0x98
10001d0e:	2380      	movs	r3, #128	; 0x80
10001d10:	9a28      	ldr	r2, [sp, #160]	; 0xa0
10001d12:	00db      	lsls	r3, r3, #3
10001d14:	431a      	orrs	r2, r3
10001d16:	2300      	movs	r3, #0
10001d18:	2400      	movs	r4, #0
10001d1a:	9228      	str	r2, [sp, #160]	; 0xa0
10001d1c:	930d      	str	r3, [sp, #52]	; 0x34
10001d1e:	9b27      	ldr	r3, [sp, #156]	; 0x9c
10001d20:	2500      	movs	r5, #0
10001d22:	42a3      	cmp	r3, r4
10001d24:	d900      	bls.n	10001d28 <_etoa+0x248>
10001d26:	1b1d      	subs	r5, r3, r4
10001d28:	2302      	movs	r3, #2
10001d2a:	9a28      	ldr	r2, [sp, #160]	; 0xa0
10001d2c:	401a      	ands	r2, r3
10001d2e:	9210      	str	r2, [sp, #64]	; 0x40
10001d30:	9a28      	ldr	r2, [sp, #160]	; 0xa0
10001d32:	4213      	tst	r3, r2
10001d34:	d003      	beq.n	10001d3e <_etoa+0x25e>
10001d36:	4263      	negs	r3, r4
10001d38:	4163      	adcs	r3, r4
10001d3a:	425b      	negs	r3, r3
10001d3c:	401d      	ands	r5, r3
10001d3e:	9b0d      	ldr	r3, [sp, #52]	; 0x34
10001d40:	2b00      	cmp	r3, #0
10001d42:	d007      	beq.n	10001d54 <_etoa+0x274>
10001d44:	980a      	ldr	r0, [sp, #40]	; 0x28
10001d46:	9909      	ldr	r1, [sp, #36]	; 0x24
10001d48:	0032      	movs	r2, r6
10001d4a:	003b      	movs	r3, r7
10001d4c:	f001 fb57 	bl	100033fe <__wrap___aeabi_ddiv>
10001d50:	900a      	str	r0, [sp, #40]	; 0x28
10001d52:	9109      	str	r1, [sp, #36]	; 0x24
10001d54:	2200      	movs	r2, #0
10001d56:	2300      	movs	r3, #0
10001d58:	4648      	mov	r0, r9
10001d5a:	4641      	mov	r1, r8
10001d5c:	f001 fb9a 	bl	10003494 <__wrap___aeabi_dcmplt>
10001d60:	2800      	cmp	r0, #0
10001d62:	d005      	beq.n	10001d70 <_etoa+0x290>
10001d64:	2080      	movs	r0, #128	; 0x80
10001d66:	0600      	lsls	r0, r0, #24
10001d68:	4684      	mov	ip, r0
10001d6a:	9909      	ldr	r1, [sp, #36]	; 0x24
10001d6c:	4461      	add	r1, ip
10001d6e:	9109      	str	r1, [sp, #36]	; 0x24
10001d70:	9a28      	ldr	r2, [sp, #160]	; 0xa0
10001d72:	4b64      	ldr	r3, [pc, #400]	; (10001f04 <_etoa+0x424>)
10001d74:	9e0b      	ldr	r6, [sp, #44]	; 0x2c
10001d76:	4013      	ands	r3, r2
10001d78:	9304      	str	r3, [sp, #16]
10001d7a:	9b26      	ldr	r3, [sp, #152]	; 0x98
10001d7c:	9a0a      	ldr	r2, [sp, #40]	; 0x28
10001d7e:	9302      	str	r3, [sp, #8]
10001d80:	9b09      	ldr	r3, [sp, #36]	; 0x24
10001d82:	9503      	str	r5, [sp, #12]
10001d84:	9200      	str	r2, [sp, #0]
10001d86:	9301      	str	r3, [sp, #4]
10001d88:	4659      	mov	r1, fp
10001d8a:	4653      	mov	r3, sl
10001d8c:	0030      	movs	r0, r6
10001d8e:	9a0c      	ldr	r2, [sp, #48]	; 0x30
10001d90:	f000 f8cc 	bl	10001f2c <_ftoa>
10001d94:	0005      	movs	r5, r0
10001d96:	2c00      	cmp	r4, #0
10001d98:	d06f      	beq.n	10001e7a <_etoa+0x39a>
10001d9a:	9b28      	ldr	r3, [sp, #160]	; 0xa0
10001d9c:	002a      	movs	r2, r5
10001d9e:	0698      	lsls	r0, r3, #26
10001da0:	231f      	movs	r3, #31
10001da2:	17c0      	asrs	r0, r0, #31
10001da4:	4398      	bics	r0, r3
10001da6:	1c6b      	adds	r3, r5, #1
10001da8:	4698      	mov	r8, r3
10001daa:	4659      	mov	r1, fp
10001dac:	4653      	mov	r3, sl
10001dae:	3065      	adds	r0, #101	; 0x65
10001db0:	47b0      	blx	r6
10001db2:	9b0d      	ldr	r3, [sp, #52]	; 0x34
10001db4:	2600      	movs	r6, #0
10001db6:	17da      	asrs	r2, r3, #31
10001db8:	189d      	adds	r5, r3, r2
10001dba:	0fdb      	lsrs	r3, r3, #31
10001dbc:	4699      	mov	r9, r3
10001dbe:	4055      	eors	r5, r2
10001dc0:	3c01      	subs	r4, #1
10001dc2:	e001      	b.n	10001dc8 <_etoa+0x2e8>
10001dc4:	2e20      	cmp	r6, #32
10001dc6:	d013      	beq.n	10001df0 <_etoa+0x310>
10001dc8:	aa0a      	add	r2, sp, #40	; 0x28
10001dca:	4694      	mov	ip, r2
10001dcc:	231f      	movs	r3, #31
10001dce:	0028      	movs	r0, r5
10001dd0:	4463      	add	r3, ip
10001dd2:	210a      	movs	r1, #10
10001dd4:	3601      	adds	r6, #1
10001dd6:	199f      	adds	r7, r3, r6
10001dd8:	f001 f8ba 	bl	10002f50 <__wrap___aeabi_uidiv>
10001ddc:	3130      	adds	r1, #48	; 0x30
10001dde:	7039      	strb	r1, [r7, #0]
10001de0:	0028      	movs	r0, r5
10001de2:	210a      	movs	r1, #10
10001de4:	f001 f8b4 	bl	10002f50 <__wrap___aeabi_uidiv>
10001de8:	002f      	movs	r7, r5
10001dea:	0005      	movs	r5, r0
10001dec:	2f09      	cmp	r7, #9
10001dee:	d8e9      	bhi.n	10001dc4 <_etoa+0x2e4>
10001df0:	2305      	movs	r3, #5
10001df2:	9306      	str	r3, [sp, #24]
10001df4:	2300      	movs	r3, #0
10001df6:	9304      	str	r3, [sp, #16]
10001df8:	330a      	adds	r3, #10
10001dfa:	9303      	str	r3, [sp, #12]
10001dfc:	464b      	mov	r3, r9
10001dfe:	9601      	str	r6, [sp, #4]
10001e00:	9e0b      	ldr	r6, [sp, #44]	; 0x2c
10001e02:	9302      	str	r3, [sp, #8]
10001e04:	ab12      	add	r3, sp, #72	; 0x48
10001e06:	9300      	str	r3, [sp, #0]
10001e08:	4642      	mov	r2, r8
10001e0a:	4653      	mov	r3, sl
10001e0c:	4659      	mov	r1, fp
10001e0e:	0030      	movs	r0, r6
10001e10:	9405      	str	r4, [sp, #20]
10001e12:	f7ff fd6d 	bl	100018f0 <_ntoa_format>
10001e16:	9b10      	ldr	r3, [sp, #64]	; 0x40
10001e18:	0005      	movs	r5, r0
10001e1a:	2b00      	cmp	r3, #0
10001e1c:	d02d      	beq.n	10001e7a <_etoa+0x39a>
10001e1e:	9b0c      	ldr	r3, [sp, #48]	; 0x30
10001e20:	9a27      	ldr	r2, [sp, #156]	; 0x9c
10001e22:	1ac4      	subs	r4, r0, r3
10001e24:	42a2      	cmp	r2, r4
10001e26:	d928      	bls.n	10001e7a <_etoa+0x39a>
10001e28:	4681      	mov	r9, r0
10001e2a:	465d      	mov	r5, fp
10001e2c:	4698      	mov	r8, r3
10001e2e:	0017      	movs	r7, r2
10001e30:	4643      	mov	r3, r8
10001e32:	0029      	movs	r1, r5
10001e34:	191a      	adds	r2, r3, r4
10001e36:	2020      	movs	r0, #32
10001e38:	4653      	mov	r3, sl
10001e3a:	3401      	adds	r4, #1
10001e3c:	47b0      	blx	r6
10001e3e:	42a7      	cmp	r7, r4
10001e40:	d8f6      	bhi.n	10001e30 <_etoa+0x350>
10001e42:	464d      	mov	r5, r9
10001e44:	990c      	ldr	r1, [sp, #48]	; 0x30
10001e46:	9827      	ldr	r0, [sp, #156]	; 0x9c
10001e48:	1a6b      	subs	r3, r5, r1
10001e4a:	3301      	adds	r3, #1
10001e4c:	2200      	movs	r2, #0
10001e4e:	4298      	cmp	r0, r3
10001e50:	d261      	bcs.n	10001f16 <_etoa+0x436>
10001e52:	3501      	adds	r5, #1
10001e54:	1955      	adds	r5, r2, r5
10001e56:	e010      	b.n	10001e7a <_etoa+0x39a>
10001e58:	9b28      	ldr	r3, [sp, #160]	; 0xa0
10001e5a:	464a      	mov	r2, r9
10001e5c:	9304      	str	r3, [sp, #16]
10001e5e:	9b27      	ldr	r3, [sp, #156]	; 0x9c
10001e60:	4659      	mov	r1, fp
10001e62:	9303      	str	r3, [sp, #12]
10001e64:	9b26      	ldr	r3, [sp, #152]	; 0x98
10001e66:	980b      	ldr	r0, [sp, #44]	; 0x2c
10001e68:	9302      	str	r3, [sp, #8]
10001e6a:	4643      	mov	r3, r8
10001e6c:	9200      	str	r2, [sp, #0]
10001e6e:	9301      	str	r3, [sp, #4]
10001e70:	4653      	mov	r3, sl
10001e72:	9a0c      	ldr	r2, [sp, #48]	; 0x30
10001e74:	f000 f85a 	bl	10001f2c <_ftoa>
10001e78:	0005      	movs	r5, r0
10001e7a:	0028      	movs	r0, r5
10001e7c:	b01b      	add	sp, #108	; 0x6c
10001e7e:	bc3c      	pop	{r2, r3, r4, r5}
10001e80:	4690      	mov	r8, r2
10001e82:	4699      	mov	r9, r3
10001e84:	46a2      	mov	sl, r4
10001e86:	46ab      	mov	fp, r5
10001e88:	bdf0      	pop	{r4, r5, r6, r7, pc}
10001e8a:	9b26      	ldr	r3, [sp, #152]	; 0x98
10001e8c:	2b00      	cmp	r3, #0
10001e8e:	d100      	bne.n	10001e92 <_etoa+0x3b2>
10001e90:	e745      	b.n	10001d1e <_etoa+0x23e>
10001e92:	9b11      	ldr	r3, [sp, #68]	; 0x44
10001e94:	1e5a      	subs	r2, r3, #1
10001e96:	4193      	sbcs	r3, r2
10001e98:	9a26      	ldr	r2, [sp, #152]	; 0x98
10001e9a:	1ad3      	subs	r3, r2, r3
10001e9c:	9326      	str	r3, [sp, #152]	; 0x98
10001e9e:	e73e      	b.n	10001d1e <_etoa+0x23e>
10001ea0:	7fefffff 	.word	0x7fefffff
10001ea4:	ffefffff 	.word	0xffefffff
10001ea8:	fffffc01 	.word	0xfffffc01
10001eac:	509f79fb 	.word	0x509f79fb
10001eb0:	3fd34413 	.word	0x3fd34413
10001eb4:	8b60c8b3 	.word	0x8b60c8b3
10001eb8:	3fc68a28 	.word	0x3fc68a28
10001ebc:	3ff00000 	.word	0x3ff00000
10001ec0:	3ff80000 	.word	0x3ff80000
10001ec4:	636f4361 	.word	0x636f4361
10001ec8:	3fd287a7 	.word	0x3fd287a7
10001ecc:	0979a371 	.word	0x0979a371
10001ed0:	400a934f 	.word	0x400a934f
10001ed4:	3fe00000 	.word	0x3fe00000
10001ed8:	bbb55516 	.word	0xbbb55516
10001edc:	40026bb1 	.word	0x40026bb1
10001ee0:	fefa39ef 	.word	0xfefa39ef
10001ee4:	3fe62e42 	.word	0x3fe62e42
10001ee8:	402c0000 	.word	0x402c0000
10001eec:	40240000 	.word	0x40240000
10001ef0:	40180000 	.word	0x40180000
10001ef4:	000003ff 	.word	0x000003ff
10001ef8:	eb1c432d 	.word	0xeb1c432d
10001efc:	3f1a36e2 	.word	0x3f1a36e2
10001f00:	412e8480 	.word	0x412e8480
10001f04:	fffff7ff 	.word	0xfffff7ff
10001f08:	464b      	mov	r3, r9
10001f0a:	930a      	str	r3, [sp, #40]	; 0x28
10001f0c:	2380      	movs	r3, #128	; 0x80
10001f0e:	061b      	lsls	r3, r3, #24
10001f10:	4443      	add	r3, r8
10001f12:	9309      	str	r3, [sp, #36]	; 0x24
10001f14:	e61d      	b.n	10001b52 <_etoa+0x72>
10001f16:	000a      	movs	r2, r1
10001f18:	4684      	mov	ip, r0
10001f1a:	3a01      	subs	r2, #1
10001f1c:	4462      	add	r2, ip
10001f1e:	1b52      	subs	r2, r2, r5
10001f20:	e797      	b.n	10001e52 <_etoa+0x372>
10001f22:	1b50      	subs	r0, r2, r5
10001f24:	1e43      	subs	r3, r0, #1
10001f26:	9326      	str	r3, [sp, #152]	; 0x98
10001f28:	e6f1      	b.n	10001d0e <_etoa+0x22e>
10001f2a:	46c0      	nop			; (mov r8, r8)

10001f2c <_ftoa>:
10001f2c:	b5f0      	push	{r4, r5, r6, r7, lr}
10001f2e:	464e      	mov	r6, r9
10001f30:	46de      	mov	lr, fp
10001f32:	4657      	mov	r7, sl
10001f34:	4645      	mov	r5, r8
10001f36:	b5e0      	push	{r5, r6, r7, lr}
10001f38:	b097      	sub	sp, #92	; 0x5c
10001f3a:	4699      	mov	r9, r3
10001f3c:	9e20      	ldr	r6, [sp, #128]	; 0x80
10001f3e:	9f21      	ldr	r7, [sp, #132]	; 0x84
10001f40:	9b22      	ldr	r3, [sp, #136]	; 0x88
10001f42:	4683      	mov	fp, r0
10001f44:	4698      	mov	r8, r3
10001f46:	9107      	str	r1, [sp, #28]
10001f48:	920c      	str	r2, [sp, #48]	; 0x30
10001f4a:	003b      	movs	r3, r7
10001f4c:	0032      	movs	r2, r6
10001f4e:	0030      	movs	r0, r6
10001f50:	0039      	movs	r1, r7
10001f52:	f001 faba 	bl	100034ca <__wrap___aeabi_dcmpun>
10001f56:	2800      	cmp	r0, #0
10001f58:	d000      	beq.n	10001f5c <_ftoa+0x30>
10001f5a:	e1c1      	b.n	100022e0 <_ftoa+0x3b4>
10001f5c:	2201      	movs	r2, #1
10001f5e:	0030      	movs	r0, r6
10001f60:	0039      	movs	r1, r7
10001f62:	4bca      	ldr	r3, [pc, #808]	; (1000228c <_ftoa+0x360>)
10001f64:	4252      	negs	r2, r2
10001f66:	f001 fa95 	bl	10003494 <__wrap___aeabi_dcmplt>
10001f6a:	2800      	cmp	r0, #0
10001f6c:	d000      	beq.n	10001f70 <_ftoa+0x44>
10001f6e:	e0e0      	b.n	10002132 <_ftoa+0x206>
10001f70:	2201      	movs	r2, #1
10001f72:	0030      	movs	r0, r6
10001f74:	0039      	movs	r1, r7
10001f76:	4bc6      	ldr	r3, [pc, #792]	; (10002290 <_ftoa+0x364>)
10001f78:	4252      	negs	r2, r2
10001f7a:	f001 faa1 	bl	100034c0 <__wrap___aeabi_dcmpgt>
10001f7e:	2800      	cmp	r0, #0
10001f80:	d000      	beq.n	10001f84 <_ftoa+0x58>
10001f82:	e0b6      	b.n	100020f2 <_ftoa+0x1c6>
10001f84:	2200      	movs	r2, #0
10001f86:	0030      	movs	r0, r6
10001f88:	0039      	movs	r1, r7
10001f8a:	4bc2      	ldr	r3, [pc, #776]	; (10002294 <_ftoa+0x368>)
10001f8c:	f001 fa98 	bl	100034c0 <__wrap___aeabi_dcmpgt>
10001f90:	2800      	cmp	r0, #0
10001f92:	d000      	beq.n	10001f96 <_ftoa+0x6a>
10001f94:	e098      	b.n	100020c8 <_ftoa+0x19c>
10001f96:	2200      	movs	r2, #0
10001f98:	0030      	movs	r0, r6
10001f9a:	0039      	movs	r1, r7
10001f9c:	4bbe      	ldr	r3, [pc, #760]	; (10002298 <_ftoa+0x36c>)
10001f9e:	f001 fa79 	bl	10003494 <__wrap___aeabi_dcmplt>
10001fa2:	2800      	cmp	r0, #0
10001fa4:	d000      	beq.n	10001fa8 <_ftoa+0x7c>
10001fa6:	e08f      	b.n	100020c8 <_ftoa+0x19c>
10001fa8:	2200      	movs	r2, #0
10001faa:	2300      	movs	r3, #0
10001fac:	0030      	movs	r0, r6
10001fae:	0039      	movs	r1, r7
10001fb0:	f001 fa70 	bl	10003494 <__wrap___aeabi_dcmplt>
10001fb4:	2800      	cmp	r0, #0
10001fb6:	d000      	beq.n	10001fba <_ftoa+0x8e>
10001fb8:	e0b0      	b.n	1000211c <_ftoa+0x1f0>
10001fba:	2300      	movs	r3, #0
10001fbc:	930d      	str	r3, [sp, #52]	; 0x34
10001fbe:	9b24      	ldr	r3, [sp, #144]	; 0x90
10001fc0:	055b      	lsls	r3, r3, #21
10001fc2:	d401      	bmi.n	10001fc8 <_ftoa+0x9c>
10001fc4:	2306      	movs	r3, #6
10001fc6:	4698      	mov	r8, r3
10001fc8:	ab08      	add	r3, sp, #32
10001fca:	469c      	mov	ip, r3
10001fcc:	2217      	movs	r2, #23
10001fce:	2400      	movs	r4, #0
10001fd0:	2330      	movs	r3, #48	; 0x30
10001fd2:	4641      	mov	r1, r8
10001fd4:	4462      	add	r2, ip
10001fd6:	e004      	b.n	10001fe2 <_ftoa+0xb6>
10001fd8:	3401      	adds	r4, #1
10001fda:	5513      	strb	r3, [r2, r4]
10001fdc:	3901      	subs	r1, #1
10001fde:	2c20      	cmp	r4, #32
10001fe0:	d001      	beq.n	10001fe6 <_ftoa+0xba>
10001fe2:	2909      	cmp	r1, #9
10001fe4:	d8f8      	bhi.n	10001fd8 <_ftoa+0xac>
10001fe6:	4688      	mov	r8, r1
10001fe8:	0030      	movs	r0, r6
10001fea:	0039      	movs	r1, r7
10001fec:	f001 fa98 	bl	10003520 <__wrap___aeabi_d2iz>
10001ff0:	4643      	mov	r3, r8
10001ff2:	00da      	lsls	r2, r3, #3
10001ff4:	4ba9      	ldr	r3, [pc, #676]	; (1000229c <_ftoa+0x370>)
10001ff6:	0005      	movs	r5, r0
10001ff8:	189b      	adds	r3, r3, r2
10001ffa:	681a      	ldr	r2, [r3, #0]
10001ffc:	685b      	ldr	r3, [r3, #4]
10001ffe:	9208      	str	r2, [sp, #32]
10002000:	9309      	str	r3, [sp, #36]	; 0x24
10002002:	f001 fa75 	bl	100034f0 <__wrap___aeabi_i2d>
10002006:	0002      	movs	r2, r0
10002008:	000b      	movs	r3, r1
1000200a:	0030      	movs	r0, r6
1000200c:	0039      	movs	r1, r7
1000200e:	f001 f9e4 	bl	100033da <__wrap___aeabi_dsub>
10002012:	9a08      	ldr	r2, [sp, #32]
10002014:	9b09      	ldr	r3, [sp, #36]	; 0x24
10002016:	f001 f9fb 	bl	10003410 <__wrap___aeabi_dmul>
1000201a:	900a      	str	r0, [sp, #40]	; 0x28
1000201c:	910b      	str	r1, [sp, #44]	; 0x2c
1000201e:	f001 faa3 	bl	10003568 <__wrap___aeabi_d2uiz>
10002022:	4682      	mov	sl, r0
10002024:	f001 fa60 	bl	100034e8 <__wrap___aeabi_ui2d>
10002028:	0002      	movs	r2, r0
1000202a:	000b      	movs	r3, r1
1000202c:	980a      	ldr	r0, [sp, #40]	; 0x28
1000202e:	990b      	ldr	r1, [sp, #44]	; 0x2c
10002030:	f001 f9d3 	bl	100033da <__wrap___aeabi_dsub>
10002034:	2200      	movs	r2, #0
10002036:	4b9a      	ldr	r3, [pc, #616]	; (100022a0 <_ftoa+0x374>)
10002038:	900a      	str	r0, [sp, #40]	; 0x28
1000203a:	910b      	str	r1, [sp, #44]	; 0x2c
1000203c:	f001 fa40 	bl	100034c0 <__wrap___aeabi_dcmpgt>
10002040:	2800      	cmp	r0, #0
10002042:	d100      	bne.n	10002046 <_ftoa+0x11a>
10002044:	e0c0      	b.n	100021c8 <_ftoa+0x29c>
10002046:	2301      	movs	r3, #1
10002048:	469c      	mov	ip, r3
1000204a:	44e2      	add	sl, ip
1000204c:	4650      	mov	r0, sl
1000204e:	f001 fa4b 	bl	100034e8 <__wrap___aeabi_ui2d>
10002052:	0002      	movs	r2, r0
10002054:	000b      	movs	r3, r1
10002056:	9808      	ldr	r0, [sp, #32]
10002058:	9909      	ldr	r1, [sp, #36]	; 0x24
1000205a:	f001 fa21 	bl	100034a0 <__wrap___aeabi_dcmple>
1000205e:	2800      	cmp	r0, #0
10002060:	d002      	beq.n	10002068 <_ftoa+0x13c>
10002062:	2300      	movs	r3, #0
10002064:	469a      	mov	sl, r3
10002066:	3501      	adds	r5, #1
10002068:	4643      	mov	r3, r8
1000206a:	2b00      	cmp	r3, #0
1000206c:	d069      	beq.n	10002142 <_ftoa+0x216>
1000206e:	ab08      	add	r3, sp, #32
10002070:	2617      	movs	r6, #23
10002072:	469c      	mov	ip, r3
10002074:	9508      	str	r5, [sp, #32]
10002076:	4466      	add	r6, ip
10002078:	4655      	mov	r5, sl
1000207a:	e014      	b.n	100020a6 <_ftoa+0x17a>
1000207c:	2301      	movs	r3, #1
1000207e:	425b      	negs	r3, r3
10002080:	4443      	add	r3, r8
10002082:	210a      	movs	r1, #10
10002084:	0028      	movs	r0, r5
10002086:	469a      	mov	sl, r3
10002088:	f000 ff62 	bl	10002f50 <__wrap___aeabi_uidiv>
1000208c:	3401      	adds	r4, #1
1000208e:	3130      	adds	r1, #48	; 0x30
10002090:	1937      	adds	r7, r6, r4
10002092:	7039      	strb	r1, [r7, #0]
10002094:	0028      	movs	r0, r5
10002096:	210a      	movs	r1, #10
10002098:	f000 ff5a 	bl	10002f50 <__wrap___aeabi_uidiv>
1000209c:	2d09      	cmp	r5, #9
1000209e:	d800      	bhi.n	100020a2 <_ftoa+0x176>
100020a0:	e0d5      	b.n	1000224e <_ftoa+0x322>
100020a2:	46d0      	mov	r8, sl
100020a4:	0005      	movs	r5, r0
100020a6:	2c20      	cmp	r4, #32
100020a8:	d1e8      	bne.n	1000207c <_ftoa+0x150>
100020aa:	2303      	movs	r3, #3
100020ac:	9a24      	ldr	r2, [sp, #144]	; 0x90
100020ae:	4013      	ands	r3, r2
100020b0:	2b01      	cmp	r3, #1
100020b2:	d100      	bne.n	100020b6 <_ftoa+0x18a>
100020b4:	e100      	b.n	100022b8 <_ftoa+0x38c>
100020b6:	ab0e      	add	r3, sp, #56	; 0x38
100020b8:	4698      	mov	r8, r3
100020ba:	9b24      	ldr	r3, [sp, #144]	; 0x90
100020bc:	9401      	str	r4, [sp, #4]
100020be:	9303      	str	r3, [sp, #12]
100020c0:	9b23      	ldr	r3, [sp, #140]	; 0x8c
100020c2:	9302      	str	r3, [sp, #8]
100020c4:	4643      	mov	r3, r8
100020c6:	e01e      	b.n	10002106 <_ftoa+0x1da>
100020c8:	9b24      	ldr	r3, [sp, #144]	; 0x90
100020ca:	4658      	mov	r0, fp
100020cc:	9304      	str	r3, [sp, #16]
100020ce:	9b23      	ldr	r3, [sp, #140]	; 0x8c
100020d0:	9600      	str	r6, [sp, #0]
100020d2:	9701      	str	r7, [sp, #4]
100020d4:	9303      	str	r3, [sp, #12]
100020d6:	4643      	mov	r3, r8
100020d8:	9a0c      	ldr	r2, [sp, #48]	; 0x30
100020da:	9302      	str	r3, [sp, #8]
100020dc:	9907      	ldr	r1, [sp, #28]
100020de:	464b      	mov	r3, r9
100020e0:	f7ff fcfe 	bl	10001ae0 <_etoa>
100020e4:	b017      	add	sp, #92	; 0x5c
100020e6:	bc3c      	pop	{r2, r3, r4, r5}
100020e8:	4690      	mov	r8, r2
100020ea:	4699      	mov	r9, r3
100020ec:	46a2      	mov	sl, r4
100020ee:	46ab      	mov	fp, r5
100020f0:	bdf0      	pop	{r4, r5, r6, r7, pc}
100020f2:	9b24      	ldr	r3, [sp, #144]	; 0x90
100020f4:	075b      	lsls	r3, r3, #29
100020f6:	d40e      	bmi.n	10002116 <_ftoa+0x1ea>
100020f8:	2203      	movs	r2, #3
100020fa:	4b6a      	ldr	r3, [pc, #424]	; (100022a4 <_ftoa+0x378>)
100020fc:	9924      	ldr	r1, [sp, #144]	; 0x90
100020fe:	9201      	str	r2, [sp, #4]
10002100:	9103      	str	r1, [sp, #12]
10002102:	9923      	ldr	r1, [sp, #140]	; 0x8c
10002104:	9102      	str	r1, [sp, #8]
10002106:	9300      	str	r3, [sp, #0]
10002108:	4658      	mov	r0, fp
1000210a:	464b      	mov	r3, r9
1000210c:	9a0c      	ldr	r2, [sp, #48]	; 0x30
1000210e:	9907      	ldr	r1, [sp, #28]
10002110:	f7ff fb86 	bl	10001820 <_out_rev>
10002114:	e7e6      	b.n	100020e4 <_ftoa+0x1b8>
10002116:	2204      	movs	r2, #4
10002118:	4b63      	ldr	r3, [pc, #396]	; (100022a8 <_ftoa+0x37c>)
1000211a:	e7ef      	b.n	100020fc <_ftoa+0x1d0>
1000211c:	003b      	movs	r3, r7
1000211e:	0032      	movs	r2, r6
10002120:	2000      	movs	r0, #0
10002122:	2100      	movs	r1, #0
10002124:	f001 f959 	bl	100033da <__wrap___aeabi_dsub>
10002128:	2301      	movs	r3, #1
1000212a:	0006      	movs	r6, r0
1000212c:	000f      	movs	r7, r1
1000212e:	930d      	str	r3, [sp, #52]	; 0x34
10002130:	e745      	b.n	10001fbe <_ftoa+0x92>
10002132:	9b24      	ldr	r3, [sp, #144]	; 0x90
10002134:	9303      	str	r3, [sp, #12]
10002136:	9b23      	ldr	r3, [sp, #140]	; 0x8c
10002138:	9302      	str	r3, [sp, #8]
1000213a:	2304      	movs	r3, #4
1000213c:	9301      	str	r3, [sp, #4]
1000213e:	4b5b      	ldr	r3, [pc, #364]	; (100022ac <_ftoa+0x380>)
10002140:	e7e1      	b.n	10002106 <_ftoa+0x1da>
10002142:	0028      	movs	r0, r5
10002144:	f001 f9d4 	bl	100034f0 <__wrap___aeabi_i2d>
10002148:	0002      	movs	r2, r0
1000214a:	000b      	movs	r3, r1
1000214c:	0030      	movs	r0, r6
1000214e:	0039      	movs	r1, r7
10002150:	f001 f943 	bl	100033da <__wrap___aeabi_dsub>
10002154:	4b52      	ldr	r3, [pc, #328]	; (100022a0 <_ftoa+0x374>)
10002156:	2200      	movs	r2, #0
10002158:	0006      	movs	r6, r0
1000215a:	000f      	movs	r7, r1
1000215c:	f001 f99a 	bl	10003494 <__wrap___aeabi_dcmplt>
10002160:	ab0e      	add	r3, sp, #56	; 0x38
10002162:	4698      	mov	r8, r3
10002164:	2800      	cmp	r0, #0
10002166:	d10a      	bne.n	1000217e <_ftoa+0x252>
10002168:	2200      	movs	r2, #0
1000216a:	0030      	movs	r0, r6
1000216c:	0039      	movs	r1, r7
1000216e:	4b4c      	ldr	r3, [pc, #304]	; (100022a0 <_ftoa+0x374>)
10002170:	f001 f9a6 	bl	100034c0 <__wrap___aeabi_dcmpgt>
10002174:	2800      	cmp	r0, #0
10002176:	d102      	bne.n	1000217e <_ftoa+0x252>
10002178:	07eb      	lsls	r3, r5, #31
1000217a:	d500      	bpl.n	1000217e <_ftoa+0x252>
1000217c:	3501      	adds	r5, #1
1000217e:	2c20      	cmp	r4, #32
10002180:	d032      	beq.n	100021e8 <_ftoa+0x2bc>
10002182:	aa08      	add	r2, sp, #32
10002184:	4694      	mov	ip, r2
10002186:	2317      	movs	r3, #23
10002188:	0028      	movs	r0, r5
1000218a:	4463      	add	r3, ip
1000218c:	210a      	movs	r1, #10
1000218e:	3401      	adds	r4, #1
10002190:	191e      	adds	r6, r3, r4
10002192:	f000 feb1 	bl	10002ef8 <__wrap___aeabi_idiv>
10002196:	3130      	adds	r1, #48	; 0x30
10002198:	0028      	movs	r0, r5
1000219a:	7031      	strb	r1, [r6, #0]
1000219c:	210a      	movs	r1, #10
1000219e:	f000 feab 	bl	10002ef8 <__wrap___aeabi_idiv>
100021a2:	1e05      	subs	r5, r0, #0
100021a4:	d1eb      	bne.n	1000217e <_ftoa+0x252>
100021a6:	2303      	movs	r3, #3
100021a8:	9a24      	ldr	r2, [sp, #144]	; 0x90
100021aa:	4013      	ands	r3, r2
100021ac:	2b01      	cmp	r3, #1
100021ae:	d100      	bne.n	100021b2 <_ftoa+0x286>
100021b0:	e091      	b.n	100022d6 <_ftoa+0x3aa>
100021b2:	2c1f      	cmp	r4, #31
100021b4:	d900      	bls.n	100021b8 <_ftoa+0x28c>
100021b6:	e780      	b.n	100020ba <_ftoa+0x18e>
100021b8:	9b0d      	ldr	r3, [sp, #52]	; 0x34
100021ba:	2b00      	cmp	r3, #0
100021bc:	d03b      	beq.n	10002236 <_ftoa+0x30a>
100021be:	232d      	movs	r3, #45	; 0x2d
100021c0:	4642      	mov	r2, r8
100021c2:	5513      	strb	r3, [r2, r4]
100021c4:	3401      	adds	r4, #1
100021c6:	e778      	b.n	100020ba <_ftoa+0x18e>
100021c8:	2200      	movs	r2, #0
100021ca:	980a      	ldr	r0, [sp, #40]	; 0x28
100021cc:	990b      	ldr	r1, [sp, #44]	; 0x2c
100021ce:	4b34      	ldr	r3, [pc, #208]	; (100022a0 <_ftoa+0x374>)
100021d0:	f001 f960 	bl	10003494 <__wrap___aeabi_dcmplt>
100021d4:	2800      	cmp	r0, #0
100021d6:	d000      	beq.n	100021da <_ftoa+0x2ae>
100021d8:	e746      	b.n	10002068 <_ftoa+0x13c>
100021da:	4653      	mov	r3, sl
100021dc:	2b00      	cmp	r3, #0
100021de:	d167      	bne.n	100022b0 <_ftoa+0x384>
100021e0:	2301      	movs	r3, #1
100021e2:	469c      	mov	ip, r3
100021e4:	44e2      	add	sl, ip
100021e6:	e73f      	b.n	10002068 <_ftoa+0x13c>
100021e8:	2303      	movs	r3, #3
100021ea:	9a24      	ldr	r2, [sp, #144]	; 0x90
100021ec:	4013      	ands	r3, r2
100021ee:	2b01      	cmp	r3, #1
100021f0:	d000      	beq.n	100021f4 <_ftoa+0x2c8>
100021f2:	e762      	b.n	100020ba <_ftoa+0x18e>
100021f4:	9b23      	ldr	r3, [sp, #140]	; 0x8c
100021f6:	2b00      	cmp	r3, #0
100021f8:	d100      	bne.n	100021fc <_ftoa+0x2d0>
100021fa:	e75e      	b.n	100020ba <_ftoa+0x18e>
100021fc:	9b0d      	ldr	r3, [sp, #52]	; 0x34
100021fe:	2b00      	cmp	r3, #0
10002200:	d103      	bne.n	1000220a <_ftoa+0x2de>
10002202:	9a24      	ldr	r2, [sp, #144]	; 0x90
10002204:	330c      	adds	r3, #12
10002206:	4213      	tst	r3, r2
10002208:	d002      	beq.n	10002210 <_ftoa+0x2e4>
1000220a:	9b23      	ldr	r3, [sp, #140]	; 0x8c
1000220c:	3b01      	subs	r3, #1
1000220e:	9323      	str	r3, [sp, #140]	; 0x8c
10002210:	9b23      	ldr	r3, [sp, #140]	; 0x8c
10002212:	429c      	cmp	r4, r3
10002214:	d2cd      	bcs.n	100021b2 <_ftoa+0x286>
10002216:	ab08      	add	r3, sp, #32
10002218:	469c      	mov	ip, r3
1000221a:	2217      	movs	r2, #23
1000221c:	2330      	movs	r3, #48	; 0x30
1000221e:	4462      	add	r2, ip
10002220:	2c1f      	cmp	r4, #31
10002222:	d806      	bhi.n	10002232 <_ftoa+0x306>
10002224:	9923      	ldr	r1, [sp, #140]	; 0x8c
10002226:	3401      	adds	r4, #1
10002228:	5513      	strb	r3, [r2, r4]
1000222a:	428c      	cmp	r4, r1
1000222c:	d0c1      	beq.n	100021b2 <_ftoa+0x286>
1000222e:	2c20      	cmp	r4, #32
10002230:	d1f8      	bne.n	10002224 <_ftoa+0x2f8>
10002232:	2420      	movs	r4, #32
10002234:	e741      	b.n	100020ba <_ftoa+0x18e>
10002236:	9b24      	ldr	r3, [sp, #144]	; 0x90
10002238:	075b      	lsls	r3, r3, #29
1000223a:	d421      	bmi.n	10002280 <_ftoa+0x354>
1000223c:	9b24      	ldr	r3, [sp, #144]	; 0x90
1000223e:	071b      	lsls	r3, r3, #28
10002240:	d400      	bmi.n	10002244 <_ftoa+0x318>
10002242:	e73a      	b.n	100020ba <_ftoa+0x18e>
10002244:	2320      	movs	r3, #32
10002246:	4642      	mov	r2, r8
10002248:	5513      	strb	r3, [r2, r4]
1000224a:	3401      	adds	r4, #1
1000224c:	e735      	b.n	100020ba <_ftoa+0x18e>
1000224e:	4657      	mov	r7, sl
10002250:	9d08      	ldr	r5, [sp, #32]
10002252:	2c20      	cmp	r4, #32
10002254:	d037      	beq.n	100022c6 <_ftoa+0x39a>
10002256:	0022      	movs	r2, r4
10002258:	2130      	movs	r1, #48	; 0x30
1000225a:	4640      	mov	r0, r8
1000225c:	2f00      	cmp	r7, #0
1000225e:	d008      	beq.n	10002272 <_ftoa+0x346>
10002260:	3201      	adds	r2, #1
10002262:	54b1      	strb	r1, [r6, r2]
10002264:	2a20      	cmp	r2, #32
10002266:	d043      	beq.n	100022f0 <_ftoa+0x3c4>
10002268:	43d3      	mvns	r3, r2
1000226a:	191b      	adds	r3, r3, r4
1000226c:	181b      	adds	r3, r3, r0
1000226e:	2b00      	cmp	r3, #0
10002270:	d1f6      	bne.n	10002260 <_ftoa+0x334>
10002272:	ab0e      	add	r3, sp, #56	; 0x38
10002274:	4698      	mov	r8, r3
10002276:	232e      	movs	r3, #46	; 0x2e
10002278:	4641      	mov	r1, r8
1000227a:	1c54      	adds	r4, r2, #1
1000227c:	548b      	strb	r3, [r1, r2]
1000227e:	e77e      	b.n	1000217e <_ftoa+0x252>
10002280:	232b      	movs	r3, #43	; 0x2b
10002282:	4642      	mov	r2, r8
10002284:	5513      	strb	r3, [r2, r4]
10002286:	3401      	adds	r4, #1
10002288:	e717      	b.n	100020ba <_ftoa+0x18e>
1000228a:	46c0      	nop			; (mov r8, r8)
1000228c:	ffefffff 	.word	0xffefffff
10002290:	7fefffff 	.word	0x7fefffff
10002294:	41cdcd65 	.word	0x41cdcd65
10002298:	c1cdcd65 	.word	0xc1cdcd65
1000229c:	10005110 	.word	0x10005110
100022a0:	3fe00000 	.word	0x3fe00000
100022a4:	10004f14 	.word	0x10004f14
100022a8:	10004f18 	.word	0x10004f18
100022ac:	10004f24 	.word	0x10004f24
100022b0:	07db      	lsls	r3, r3, #31
100022b2:	d400      	bmi.n	100022b6 <_ftoa+0x38a>
100022b4:	e6d8      	b.n	10002068 <_ftoa+0x13c>
100022b6:	e793      	b.n	100021e0 <_ftoa+0x2b4>
100022b8:	9b23      	ldr	r3, [sp, #140]	; 0x8c
100022ba:	2b00      	cmp	r3, #0
100022bc:	d100      	bne.n	100022c0 <_ftoa+0x394>
100022be:	e6fa      	b.n	100020b6 <_ftoa+0x18a>
100022c0:	ab0e      	add	r3, sp, #56	; 0x38
100022c2:	4698      	mov	r8, r3
100022c4:	e79a      	b.n	100021fc <_ftoa+0x2d0>
100022c6:	2303      	movs	r3, #3
100022c8:	9a24      	ldr	r2, [sp, #144]	; 0x90
100022ca:	4013      	ands	r3, r2
100022cc:	2b01      	cmp	r3, #1
100022ce:	d000      	beq.n	100022d2 <_ftoa+0x3a6>
100022d0:	e6f1      	b.n	100020b6 <_ftoa+0x18a>
100022d2:	ab0e      	add	r3, sp, #56	; 0x38
100022d4:	4698      	mov	r8, r3
100022d6:	9b23      	ldr	r3, [sp, #140]	; 0x8c
100022d8:	2b00      	cmp	r3, #0
100022da:	d100      	bne.n	100022de <_ftoa+0x3b2>
100022dc:	e769      	b.n	100021b2 <_ftoa+0x286>
100022de:	e78d      	b.n	100021fc <_ftoa+0x2d0>
100022e0:	9b24      	ldr	r3, [sp, #144]	; 0x90
100022e2:	9303      	str	r3, [sp, #12]
100022e4:	9b23      	ldr	r3, [sp, #140]	; 0x8c
100022e6:	9302      	str	r3, [sp, #8]
100022e8:	2303      	movs	r3, #3
100022ea:	9301      	str	r3, [sp, #4]
100022ec:	4b06      	ldr	r3, [pc, #24]	; (10002308 <_ftoa+0x3dc>)
100022ee:	e70a      	b.n	10002106 <_ftoa+0x1da>
100022f0:	2303      	movs	r3, #3
100022f2:	9a24      	ldr	r2, [sp, #144]	; 0x90
100022f4:	2420      	movs	r4, #32
100022f6:	4013      	ands	r3, r2
100022f8:	2b01      	cmp	r3, #1
100022fa:	d000      	beq.n	100022fe <_ftoa+0x3d2>
100022fc:	e6db      	b.n	100020b6 <_ftoa+0x18a>
100022fe:	9b23      	ldr	r3, [sp, #140]	; 0x8c
10002300:	2420      	movs	r4, #32
10002302:	2b00      	cmp	r3, #0
10002304:	d1dc      	bne.n	100022c0 <_ftoa+0x394>
10002306:	e6d6      	b.n	100020b6 <_ftoa+0x18a>
10002308:	10004f20 	.word	0x10004f20

1000230c <_vsnprintf>:
1000230c:	b5f0      	push	{r4, r5, r6, r7, lr}
1000230e:	46de      	mov	lr, fp
10002310:	464e      	mov	r6, r9
10002312:	4657      	mov	r7, sl
10002314:	4645      	mov	r5, r8
10002316:	b5e0      	push	{r5, r6, r7, lr}
10002318:	b09f      	sub	sp, #124	; 0x7c
1000231a:	001c      	movs	r4, r3
1000231c:	9b28      	ldr	r3, [sp, #160]	; 0xa0
1000231e:	4693      	mov	fp, r2
10002320:	9309      	str	r3, [sp, #36]	; 0x24
10002322:	4acf      	ldr	r2, [pc, #828]	; (10002660 <_vsnprintf+0x354>)
10002324:	4bcf      	ldr	r3, [pc, #828]	; (10002664 <_vsnprintf+0x358>)
10002326:	4689      	mov	r9, r1
10002328:	9008      	str	r0, [sp, #32]
1000232a:	601a      	str	r2, [r3, #0]
1000232c:	2900      	cmp	r1, #0
1000232e:	d100      	bne.n	10002332 <_vsnprintf+0x26>
10002330:	e216      	b.n	10002760 <_vsnprintf+0x454>
10002332:	2300      	movs	r3, #0
10002334:	7820      	ldrb	r0, [r4, #0]
10002336:	469a      	mov	sl, r3
10002338:	2800      	cmp	r0, #0
1000233a:	d100      	bne.n	1000233e <_vsnprintf+0x32>
1000233c:	e218      	b.n	10002770 <_vsnprintf+0x464>
1000233e:	0026      	movs	r6, r4
10002340:	001d      	movs	r5, r3
10002342:	464c      	mov	r4, r9
10002344:	e00a      	b.n	1000235c <_vsnprintf+0x50>
10002346:	002a      	movs	r2, r5
10002348:	1c6f      	adds	r7, r5, #1
1000234a:	465b      	mov	r3, fp
1000234c:	9d08      	ldr	r5, [sp, #32]
1000234e:	0021      	movs	r1, r4
10002350:	47a8      	blx	r5
10002352:	003d      	movs	r5, r7
10002354:	3601      	adds	r6, #1
10002356:	7830      	ldrb	r0, [r6, #0]
10002358:	2800      	cmp	r0, #0
1000235a:	d07a      	beq.n	10002452 <_vsnprintf+0x146>
1000235c:	2825      	cmp	r0, #37	; 0x25
1000235e:	d1f2      	bne.n	10002346 <_vsnprintf+0x3a>
10002360:	2310      	movs	r3, #16
10002362:	469a      	mov	sl, r3
10002364:	3b08      	subs	r3, #8
10002366:	4699      	mov	r9, r3
10002368:	3b04      	subs	r3, #4
1000236a:	4698      	mov	r8, r3
1000236c:	3b02      	subs	r3, #2
1000236e:	2100      	movs	r1, #0
10002370:	469c      	mov	ip, r3
10002372:	1c72      	adds	r2, r6, #1
10002374:	7810      	ldrb	r0, [r2, #0]
10002376:	0016      	movs	r6, r2
10002378:	0003      	movs	r3, r0
1000237a:	3b20      	subs	r3, #32
1000237c:	b2db      	uxtb	r3, r3
1000237e:	2b10      	cmp	r3, #16
10002380:	d803      	bhi.n	1000238a <_vsnprintf+0x7e>
10002382:	4fb9      	ldr	r7, [pc, #740]	; (10002668 <_vsnprintf+0x35c>)
10002384:	009b      	lsls	r3, r3, #2
10002386:	58fb      	ldr	r3, [r7, r3]
10002388:	469f      	mov	pc, r3
1000238a:	0003      	movs	r3, r0
1000238c:	3b30      	subs	r3, #48	; 0x30
1000238e:	2b09      	cmp	r3, #9
10002390:	d93c      	bls.n	1000240c <_vsnprintf+0x100>
10002392:	2300      	movs	r3, #0
10002394:	930a      	str	r3, [sp, #40]	; 0x28
10002396:	282a      	cmp	r0, #42	; 0x2a
10002398:	d100      	bne.n	1000239c <_vsnprintf+0x90>
1000239a:	e071      	b.n	10002480 <_vsnprintf+0x174>
1000239c:	2300      	movs	r3, #0
1000239e:	4698      	mov	r8, r3
100023a0:	282e      	cmp	r0, #46	; 0x2e
100023a2:	d047      	beq.n	10002434 <_vsnprintf+0x128>
100023a4:	0003      	movs	r3, r0
100023a6:	3b68      	subs	r3, #104	; 0x68
100023a8:	b2db      	uxtb	r3, r3
100023aa:	2b12      	cmp	r3, #18
100023ac:	d81f      	bhi.n	100023ee <_vsnprintf+0xe2>
100023ae:	4aaf      	ldr	r2, [pc, #700]	; (1000266c <_vsnprintf+0x360>)
100023b0:	009b      	lsls	r3, r3, #2
100023b2:	58d3      	ldr	r3, [r2, r3]
100023b4:	469f      	mov	pc, r3
100023b6:	2301      	movs	r3, #1
100023b8:	3201      	adds	r2, #1
100023ba:	4319      	orrs	r1, r3
100023bc:	e7da      	b.n	10002374 <_vsnprintf+0x68>
100023be:	4663      	mov	r3, ip
100023c0:	3201      	adds	r2, #1
100023c2:	4319      	orrs	r1, r3
100023c4:	e7d6      	b.n	10002374 <_vsnprintf+0x68>
100023c6:	4643      	mov	r3, r8
100023c8:	3201      	adds	r2, #1
100023ca:	4319      	orrs	r1, r3
100023cc:	e7d2      	b.n	10002374 <_vsnprintf+0x68>
100023ce:	4653      	mov	r3, sl
100023d0:	3201      	adds	r2, #1
100023d2:	4319      	orrs	r1, r3
100023d4:	e7ce      	b.n	10002374 <_vsnprintf+0x68>
100023d6:	464b      	mov	r3, r9
100023d8:	3201      	adds	r2, #1
100023da:	4319      	orrs	r1, r3
100023dc:	e7ca      	b.n	10002374 <_vsnprintf+0x68>
100023de:	7870      	ldrb	r0, [r6, #1]
100023e0:	286c      	cmp	r0, #108	; 0x6c
100023e2:	d100      	bne.n	100023e6 <_vsnprintf+0xda>
100023e4:	e2bf      	b.n	10002966 <_vsnprintf+0x65a>
100023e6:	2380      	movs	r3, #128	; 0x80
100023e8:	005b      	lsls	r3, r3, #1
100023ea:	4319      	orrs	r1, r3
100023ec:	3601      	adds	r6, #1
100023ee:	0003      	movs	r3, r0
100023f0:	3b25      	subs	r3, #37	; 0x25
100023f2:	b2db      	uxtb	r3, r3
100023f4:	2b53      	cmp	r3, #83	; 0x53
100023f6:	d8a6      	bhi.n	10002346 <_vsnprintf+0x3a>
100023f8:	4a9d      	ldr	r2, [pc, #628]	; (10002670 <_vsnprintf+0x364>)
100023fa:	009b      	lsls	r3, r3, #2
100023fc:	58d3      	ldr	r3, [r2, r3]
100023fe:	469f      	mov	pc, r3
10002400:	2380      	movs	r3, #128	; 0x80
10002402:	005b      	lsls	r3, r3, #1
10002404:	7870      	ldrb	r0, [r6, #1]
10002406:	4319      	orrs	r1, r3
10002408:	3601      	adds	r6, #1
1000240a:	e7f0      	b.n	100023ee <_vsnprintf+0xe2>
1000240c:	2700      	movs	r7, #0
1000240e:	0003      	movs	r3, r0
10002410:	00b8      	lsls	r0, r7, #2
10002412:	19c0      	adds	r0, r0, r7
10002414:	3601      	adds	r6, #1
10002416:	0040      	lsls	r0, r0, #1
10002418:	18c0      	adds	r0, r0, r3
1000241a:	7833      	ldrb	r3, [r6, #0]
1000241c:	3830      	subs	r0, #48	; 0x30
1000241e:	001a      	movs	r2, r3
10002420:	3a30      	subs	r2, #48	; 0x30
10002422:	0007      	movs	r7, r0
10002424:	2a09      	cmp	r2, #9
10002426:	d9f3      	bls.n	10002410 <_vsnprintf+0x104>
10002428:	900a      	str	r0, [sp, #40]	; 0x28
1000242a:	0018      	movs	r0, r3
1000242c:	2300      	movs	r3, #0
1000242e:	4698      	mov	r8, r3
10002430:	282e      	cmp	r0, #46	; 0x2e
10002432:	d1b7      	bne.n	100023a4 <_vsnprintf+0x98>
10002434:	2380      	movs	r3, #128	; 0x80
10002436:	7870      	ldrb	r0, [r6, #1]
10002438:	00db      	lsls	r3, r3, #3
1000243a:	4319      	orrs	r1, r3
1000243c:	0003      	movs	r3, r0
1000243e:	3b30      	subs	r3, #48	; 0x30
10002440:	1c72      	adds	r2, r6, #1
10002442:	2b09      	cmp	r3, #9
10002444:	d800      	bhi.n	10002448 <_vsnprintf+0x13c>
10002446:	e195      	b.n	10002774 <_vsnprintf+0x468>
10002448:	282a      	cmp	r0, #42	; 0x2a
1000244a:	d100      	bne.n	1000244e <_vsnprintf+0x142>
1000244c:	e1a6      	b.n	1000279c <_vsnprintf+0x490>
1000244e:	0016      	movs	r6, r2
10002450:	e7a8      	b.n	100023a4 <_vsnprintf+0x98>
10002452:	46a1      	mov	r9, r4
10002454:	46aa      	mov	sl, r5
10002456:	002c      	movs	r4, r5
10002458:	45d3      	cmp	fp, sl
1000245a:	d803      	bhi.n	10002464 <_vsnprintf+0x158>
1000245c:	2301      	movs	r3, #1
1000245e:	425b      	negs	r3, r3
10002460:	445b      	add	r3, fp
10002462:	469a      	mov	sl, r3
10002464:	465b      	mov	r3, fp
10002466:	4652      	mov	r2, sl
10002468:	4649      	mov	r1, r9
1000246a:	2000      	movs	r0, #0
1000246c:	9d08      	ldr	r5, [sp, #32]
1000246e:	47a8      	blx	r5
10002470:	0020      	movs	r0, r4
10002472:	b01f      	add	sp, #124	; 0x7c
10002474:	bc3c      	pop	{r2, r3, r4, r5}
10002476:	4690      	mov	r8, r2
10002478:	4699      	mov	r9, r3
1000247a:	46a2      	mov	sl, r4
1000247c:	46ab      	mov	fp, r5
1000247e:	bdf0      	pop	{r4, r5, r6, r7, pc}
10002480:	9b09      	ldr	r3, [sp, #36]	; 0x24
10002482:	cb40      	ldmia	r3!, {r6}
10002484:	960a      	str	r6, [sp, #40]	; 0x28
10002486:	2e00      	cmp	r6, #0
10002488:	db03      	blt.n	10002492 <_vsnprintf+0x186>
1000248a:	7850      	ldrb	r0, [r2, #1]
1000248c:	9309      	str	r3, [sp, #36]	; 0x24
1000248e:	1c56      	adds	r6, r2, #1
10002490:	e784      	b.n	1000239c <_vsnprintf+0x90>
10002492:	3828      	subs	r0, #40	; 0x28
10002494:	4301      	orrs	r1, r0
10002496:	4270      	negs	r0, r6
10002498:	900a      	str	r0, [sp, #40]	; 0x28
1000249a:	9309      	str	r3, [sp, #36]	; 0x24
1000249c:	7850      	ldrb	r0, [r2, #1]
1000249e:	1c56      	adds	r6, r2, #1
100024a0:	e77c      	b.n	1000239c <_vsnprintf+0x90>
100024a2:	2878      	cmp	r0, #120	; 0x78
100024a4:	d100      	bne.n	100024a8 <_vsnprintf+0x19c>
100024a6:	e1d4      	b.n	10002852 <_vsnprintf+0x546>
100024a8:	2858      	cmp	r0, #88	; 0x58
100024aa:	d100      	bne.n	100024ae <_vsnprintf+0x1a2>
100024ac:	e268      	b.n	10002980 <_vsnprintf+0x674>
100024ae:	286f      	cmp	r0, #111	; 0x6f
100024b0:	d100      	bne.n	100024b4 <_vsnprintf+0x1a8>
100024b2:	e352      	b.n	10002b5a <_vsnprintf+0x84e>
100024b4:	2862      	cmp	r0, #98	; 0x62
100024b6:	d100      	bne.n	100024ba <_vsnprintf+0x1ae>
100024b8:	e1d8      	b.n	1000286c <_vsnprintf+0x560>
100024ba:	2310      	movs	r3, #16
100024bc:	000a      	movs	r2, r1
100024be:	439a      	bics	r2, r3
100024c0:	920b      	str	r2, [sp, #44]	; 0x2c
100024c2:	2869      	cmp	r0, #105	; 0x69
100024c4:	d001      	beq.n	100024ca <_vsnprintf+0x1be>
100024c6:	f000 fca2 	bl	10002e0e <_vsnprintf+0xb02>
100024ca:	230a      	movs	r3, #10
100024cc:	930c      	str	r3, [sp, #48]	; 0x30
100024ce:	054b      	lsls	r3, r1, #21
100024d0:	d400      	bmi.n	100024d4 <_vsnprintf+0x1c8>
100024d2:	e1d5      	b.n	10002880 <_vsnprintf+0x574>
100024d4:	2301      	movs	r3, #1
100024d6:	9a0b      	ldr	r2, [sp, #44]	; 0x2c
100024d8:	439a      	bics	r2, r3
100024da:	920b      	str	r2, [sp, #44]	; 0x2c
100024dc:	2869      	cmp	r0, #105	; 0x69
100024de:	d100      	bne.n	100024e2 <_vsnprintf+0x1d6>
100024e0:	e1ce      	b.n	10002880 <_vsnprintf+0x574>
100024e2:	2864      	cmp	r0, #100	; 0x64
100024e4:	d100      	bne.n	100024e8 <_vsnprintf+0x1dc>
100024e6:	e1cb      	b.n	10002880 <_vsnprintf+0x574>
100024e8:	9a0b      	ldr	r2, [sp, #44]	; 0x2c
100024ea:	2380      	movs	r3, #128	; 0x80
100024ec:	0011      	movs	r1, r2
100024ee:	009b      	lsls	r3, r3, #2
100024f0:	4019      	ands	r1, r3
100024f2:	468a      	mov	sl, r1
100024f4:	421a      	tst	r2, r3
100024f6:	d000      	beq.n	100024fa <_vsnprintf+0x1ee>
100024f8:	e332      	b.n	10002b60 <_vsnprintf+0x854>
100024fa:	2380      	movs	r3, #128	; 0x80
100024fc:	0011      	movs	r1, r2
100024fe:	005b      	lsls	r3, r3, #1
10002500:	4019      	ands	r1, r3
10002502:	4689      	mov	r9, r1
10002504:	421a      	tst	r2, r3
10002506:	d001      	beq.n	1000250c <_vsnprintf+0x200>
10002508:	f000 fc02 	bl	10002d10 <_vsnprintf+0xa04>
1000250c:	0013      	movs	r3, r2
1000250e:	065b      	lsls	r3, r3, #25
10002510:	d500      	bpl.n	10002514 <_vsnprintf+0x208>
10002512:	e310      	b.n	10002b36 <_vsnprintf+0x82a>
10002514:	9b0b      	ldr	r3, [sp, #44]	; 0x2c
10002516:	061b      	lsls	r3, r3, #24
10002518:	d401      	bmi.n	1000251e <_vsnprintf+0x212>
1000251a:	f000 fc6e 	bl	10002dfa <_vsnprintf+0xaee>
1000251e:	9b09      	ldr	r3, [sp, #36]	; 0x24
10002520:	cb04      	ldmia	r3!, {r2}
10002522:	0412      	lsls	r2, r2, #16
10002524:	0c12      	lsrs	r2, r2, #16
10002526:	4692      	mov	sl, r2
10002528:	9309      	str	r3, [sp, #36]	; 0x24
1000252a:	4653      	mov	r3, sl
1000252c:	2b00      	cmp	r3, #0
1000252e:	d000      	beq.n	10002532 <_vsnprintf+0x226>
10002530:	e364      	b.n	10002bfc <_vsnprintf+0x8f0>
10002532:	9a0b      	ldr	r2, [sp, #44]	; 0x2c
10002534:	3310      	adds	r3, #16
10002536:	0011      	movs	r1, r2
10002538:	4399      	bics	r1, r3
1000253a:	910b      	str	r1, [sp, #44]	; 0x2c
1000253c:	0552      	lsls	r2, r2, #21
1000253e:	d400      	bmi.n	10002542 <_vsnprintf+0x236>
10002540:	e35c      	b.n	10002bfc <_vsnprintf+0x8f0>
10002542:	2300      	movs	r3, #0
10002544:	4699      	mov	r9, r3
10002546:	9b0b      	ldr	r3, [sp, #44]	; 0x2c
10002548:	9306      	str	r3, [sp, #24]
1000254a:	9b0a      	ldr	r3, [sp, #40]	; 0x28
1000254c:	9305      	str	r3, [sp, #20]
1000254e:	4643      	mov	r3, r8
10002550:	9304      	str	r3, [sp, #16]
10002552:	9b0c      	ldr	r3, [sp, #48]	; 0x30
10002554:	9303      	str	r3, [sp, #12]
10002556:	2300      	movs	r3, #0
10002558:	e2de      	b.n	10002b18 <_vsnprintf+0x80c>
1000255a:	7870      	ldrb	r0, [r6, #1]
1000255c:	2868      	cmp	r0, #104	; 0x68
1000255e:	d100      	bne.n	10002562 <_vsnprintf+0x256>
10002560:	e207      	b.n	10002972 <_vsnprintf+0x666>
10002562:	2380      	movs	r3, #128	; 0x80
10002564:	3601      	adds	r6, #1
10002566:	4319      	orrs	r1, r3
10002568:	e741      	b.n	100023ee <_vsnprintf+0xe2>
1000256a:	2380      	movs	r3, #128	; 0x80
1000256c:	009b      	lsls	r3, r3, #2
1000256e:	7870      	ldrb	r0, [r6, #1]
10002570:	4319      	orrs	r1, r3
10002572:	3601      	adds	r6, #1
10002574:	e73b      	b.n	100023ee <_vsnprintf+0xe2>
10002576:	2846      	cmp	r0, #70	; 0x46
10002578:	d100      	bne.n	1000257c <_vsnprintf+0x270>
1000257a:	e174      	b.n	10002866 <_vsnprintf+0x55a>
1000257c:	2207      	movs	r2, #7
1000257e:	9b09      	ldr	r3, [sp, #36]	; 0x24
10002580:	9104      	str	r1, [sp, #16]
10002582:	3307      	adds	r3, #7
10002584:	4393      	bics	r3, r2
10002586:	9a0a      	ldr	r2, [sp, #40]	; 0x28
10002588:	0019      	movs	r1, r3
1000258a:	9203      	str	r2, [sp, #12]
1000258c:	4642      	mov	r2, r8
1000258e:	9202      	str	r2, [sp, #8]
10002590:	c90c      	ldmia	r1!, {r2, r3}
10002592:	9808      	ldr	r0, [sp, #32]
10002594:	9200      	str	r2, [sp, #0]
10002596:	9301      	str	r3, [sp, #4]
10002598:	9109      	str	r1, [sp, #36]	; 0x24
1000259a:	002a      	movs	r2, r5
1000259c:	465b      	mov	r3, fp
1000259e:	0021      	movs	r1, r4
100025a0:	f7ff fcc4 	bl	10001f2c <_ftoa>
100025a4:	3601      	adds	r6, #1
100025a6:	0005      	movs	r5, r0
100025a8:	e6d5      	b.n	10002356 <_vsnprintf+0x4a>
100025aa:	9b09      	ldr	r3, [sp, #36]	; 0x24
100025ac:	001a      	movs	r2, r3
100025ae:	ca08      	ldmia	r2!, {r3}
100025b0:	4691      	mov	r9, r2
100025b2:	2b00      	cmp	r3, #0
100025b4:	d100      	bne.n	100025b8 <_vsnprintf+0x2ac>
100025b6:	e105      	b.n	100027c4 <_vsnprintf+0x4b8>
100025b8:	2221      	movs	r2, #33	; 0x21
100025ba:	4311      	orrs	r1, r2
100025bc:	468a      	mov	sl, r1
100025be:	a80e      	add	r0, sp, #56	; 0x38
100025c0:	4684      	mov	ip, r0
100025c2:	211f      	movs	r1, #31
100025c4:	4461      	add	r1, ip
100025c6:	9509      	str	r5, [sp, #36]	; 0x24
100025c8:	2200      	movs	r2, #0
100025ca:	270f      	movs	r7, #15
100025cc:	46a4      	mov	ip, r4
100025ce:	000d      	movs	r5, r1
100025d0:	e002      	b.n	100025d8 <_vsnprintf+0x2cc>
100025d2:	2a20      	cmp	r2, #32
100025d4:	d00c      	beq.n	100025f0 <_vsnprintf+0x2e4>
100025d6:	000b      	movs	r3, r1
100025d8:	003c      	movs	r4, r7
100025da:	401c      	ands	r4, r3
100025dc:	0020      	movs	r0, r4
100025de:	3037      	adds	r0, #55	; 0x37
100025e0:	2c09      	cmp	r4, #9
100025e2:	d800      	bhi.n	100025e6 <_vsnprintf+0x2da>
100025e4:	3807      	subs	r0, #7
100025e6:	3201      	adds	r2, #1
100025e8:	54a8      	strb	r0, [r5, r2]
100025ea:	0919      	lsrs	r1, r3, #4
100025ec:	2b0f      	cmp	r3, #15
100025ee:	d8f0      	bhi.n	100025d2 <_vsnprintf+0x2c6>
100025f0:	4664      	mov	r4, ip
100025f2:	9d09      	ldr	r5, [sp, #36]	; 0x24
100025f4:	e0f0      	b.n	100027d8 <_vsnprintf+0x4cc>
100025f6:	078b      	lsls	r3, r1, #30
100025f8:	d400      	bmi.n	100025fc <_vsnprintf+0x2f0>
100025fa:	e1d1      	b.n	100029a0 <_vsnprintf+0x694>
100025fc:	9b09      	ldr	r3, [sp, #36]	; 0x24
100025fe:	002a      	movs	r2, r5
10002600:	4699      	mov	r9, r3
10002602:	1c6b      	adds	r3, r5, #1
10002604:	4698      	mov	r8, r3
10002606:	464b      	mov	r3, r9
10002608:	cb01      	ldmia	r3!, {r0}
1000260a:	0021      	movs	r1, r4
1000260c:	4699      	mov	r9, r3
1000260e:	9f08      	ldr	r7, [sp, #32]
10002610:	465b      	mov	r3, fp
10002612:	b2c0      	uxtb	r0, r0
10002614:	47b8      	blx	r7
10002616:	9b0a      	ldr	r3, [sp, #40]	; 0x28
10002618:	469c      	mov	ip, r3
1000261a:	4465      	add	r5, ip
1000261c:	2b01      	cmp	r3, #1
1000261e:	d800      	bhi.n	10002622 <_vsnprintf+0x316>
10002620:	e290      	b.n	10002b44 <_vsnprintf+0x838>
10002622:	46b2      	mov	sl, r6
10002624:	465e      	mov	r6, fp
10002626:	4647      	mov	r7, r8
10002628:	46a8      	mov	r8, r5
1000262a:	9d08      	ldr	r5, [sp, #32]
1000262c:	003a      	movs	r2, r7
1000262e:	0033      	movs	r3, r6
10002630:	3701      	adds	r7, #1
10002632:	0021      	movs	r1, r4
10002634:	2020      	movs	r0, #32
10002636:	47a8      	blx	r5
10002638:	4547      	cmp	r7, r8
1000263a:	d1f7      	bne.n	1000262c <_vsnprintf+0x320>
1000263c:	46b3      	mov	fp, r6
1000263e:	464b      	mov	r3, r9
10002640:	4656      	mov	r6, sl
10002642:	003d      	movs	r5, r7
10002644:	9309      	str	r3, [sp, #36]	; 0x24
10002646:	3601      	adds	r6, #1
10002648:	e685      	b.n	10002356 <_vsnprintf+0x4a>
1000264a:	002a      	movs	r2, r5
1000264c:	1c6f      	adds	r7, r5, #1
1000264e:	465b      	mov	r3, fp
10002650:	9d08      	ldr	r5, [sp, #32]
10002652:	0021      	movs	r1, r4
10002654:	2025      	movs	r0, #37	; 0x25
10002656:	47a8      	blx	r5
10002658:	3601      	adds	r6, #1
1000265a:	003d      	movs	r5, r7
1000265c:	e67b      	b.n	10002356 <_vsnprintf+0x4a>
1000265e:	46c0      	nop			; (mov r8, r8)
10002660:	1000230d 	.word	0x1000230d
10002664:	20000b08 	.word	0x20000b08
10002668:	10004f2c 	.word	0x10004f2c
1000266c:	10004f70 	.word	0x10004f70
10002670:	10004fbc 	.word	0x10004fbc
10002674:	9b09      	ldr	r3, [sp, #36]	; 0x24
10002676:	cb04      	ldmia	r3!, {r2}
10002678:	4699      	mov	r9, r3
1000267a:	4643      	mov	r3, r8
1000267c:	9209      	str	r2, [sp, #36]	; 0x24
1000267e:	2b00      	cmp	r3, #0
10002680:	d000      	beq.n	10002684 <_vsnprintf+0x378>
10002682:	e097      	b.n	100027b4 <_vsnprintf+0x4a8>
10002684:	7813      	ldrb	r3, [r2, #0]
10002686:	469c      	mov	ip, r3
10002688:	2b00      	cmp	r3, #0
1000268a:	d100      	bne.n	1000268e <_vsnprintf+0x382>
1000268c:	e3b3      	b.n	10002df6 <_vsnprintf+0xaea>
1000268e:	2302      	movs	r3, #2
10002690:	425b      	negs	r3, r3
10002692:	1c5a      	adds	r2, r3, #1
10002694:	9b09      	ldr	r3, [sp, #36]	; 0x24
10002696:	4692      	mov	sl, r2
10002698:	0018      	movs	r0, r3
1000269a:	9f0a      	ldr	r7, [sp, #40]	; 0x28
1000269c:	920b      	str	r2, [sp, #44]	; 0x2c
1000269e:	4450      	add	r0, sl
100026a0:	e002      	b.n	100026a8 <_vsnprintf+0x39c>
100026a2:	4283      	cmp	r3, r0
100026a4:	d100      	bne.n	100026a8 <_vsnprintf+0x39c>
100026a6:	e169      	b.n	1000297c <_vsnprintf+0x670>
100026a8:	785a      	ldrb	r2, [r3, #1]
100026aa:	3301      	adds	r3, #1
100026ac:	2a00      	cmp	r2, #0
100026ae:	d1f8      	bne.n	100026a2 <_vsnprintf+0x396>
100026b0:	9a09      	ldr	r2, [sp, #36]	; 0x24
100026b2:	970a      	str	r7, [sp, #40]	; 0x28
100026b4:	1a9b      	subs	r3, r3, r2
100026b6:	930b      	str	r3, [sp, #44]	; 0x2c
100026b8:	2380      	movs	r3, #128	; 0x80
100026ba:	000a      	movs	r2, r1
100026bc:	00db      	lsls	r3, r3, #3
100026be:	401a      	ands	r2, r3
100026c0:	920c      	str	r2, [sp, #48]	; 0x30
100026c2:	4219      	tst	r1, r3
100026c4:	d004      	beq.n	100026d0 <_vsnprintf+0x3c4>
100026c6:	9b0b      	ldr	r3, [sp, #44]	; 0x2c
100026c8:	4543      	cmp	r3, r8
100026ca:	d901      	bls.n	100026d0 <_vsnprintf+0x3c4>
100026cc:	4643      	mov	r3, r8
100026ce:	930b      	str	r3, [sp, #44]	; 0x2c
100026d0:	2302      	movs	r3, #2
100026d2:	001a      	movs	r2, r3
100026d4:	400a      	ands	r2, r1
100026d6:	920d      	str	r2, [sp, #52]	; 0x34
100026d8:	420b      	tst	r3, r1
100026da:	d100      	bne.n	100026de <_vsnprintf+0x3d2>
100026dc:	e184      	b.n	100029e8 <_vsnprintf+0x6dc>
100026de:	4660      	mov	r0, ip
100026e0:	2800      	cmp	r0, #0
100026e2:	d023      	beq.n	1000272c <_vsnprintf+0x420>
100026e4:	9b0c      	ldr	r3, [sp, #48]	; 0x30
100026e6:	2b00      	cmp	r3, #0
100026e8:	d100      	bne.n	100026ec <_vsnprintf+0x3e0>
100026ea:	e124      	b.n	10002936 <_vsnprintf+0x62a>
100026ec:	44a8      	add	r8, r5
100026ee:	46c2      	mov	sl, r8
100026f0:	9b09      	ldr	r3, [sp, #36]	; 0x24
100026f2:	4657      	mov	r7, sl
100026f4:	1b5b      	subs	r3, r3, r5
100026f6:	4698      	mov	r8, r3
100026f8:	9b08      	ldr	r3, [sp, #32]
100026fa:	46b2      	mov	sl, r6
100026fc:	002a      	movs	r2, r5
100026fe:	0026      	movs	r6, r4
10002700:	465c      	mov	r4, fp
10002702:	469b      	mov	fp, r3
10002704:	e009      	b.n	1000271a <_vsnprintf+0x40e>
10002706:	0023      	movs	r3, r4
10002708:	0031      	movs	r1, r6
1000270a:	1c55      	adds	r5, r2, #1
1000270c:	47d8      	blx	fp
1000270e:	4643      	mov	r3, r8
10002710:	5d58      	ldrb	r0, [r3, r5]
10002712:	2800      	cmp	r0, #0
10002714:	d100      	bne.n	10002718 <_vsnprintf+0x40c>
10002716:	e13f      	b.n	10002998 <_vsnprintf+0x68c>
10002718:	002a      	movs	r2, r5
1000271a:	4297      	cmp	r7, r2
1000271c:	d1f3      	bne.n	10002706 <_vsnprintf+0x3fa>
1000271e:	46a3      	mov	fp, r4
10002720:	003d      	movs	r5, r7
10002722:	0034      	movs	r4, r6
10002724:	4656      	mov	r6, sl
10002726:	9b0d      	ldr	r3, [sp, #52]	; 0x34
10002728:	2b00      	cmp	r3, #0
1000272a:	d069      	beq.n	10002800 <_vsnprintf+0x4f4>
1000272c:	9b0b      	ldr	r3, [sp, #44]	; 0x2c
1000272e:	990a      	ldr	r1, [sp, #40]	; 0x28
10002730:	46a8      	mov	r8, r5
10002732:	4299      	cmp	r1, r3
10002734:	d964      	bls.n	10002800 <_vsnprintf+0x4f4>
10002736:	468c      	mov	ip, r1
10002738:	4465      	add	r5, ip
1000273a:	1aed      	subs	r5, r5, r3
1000273c:	9b08      	ldr	r3, [sp, #32]
1000273e:	4647      	mov	r7, r8
10002740:	469a      	mov	sl, r3
10002742:	46b0      	mov	r8, r6
10002744:	0026      	movs	r6, r4
10002746:	465c      	mov	r4, fp
10002748:	003a      	movs	r2, r7
1000274a:	0023      	movs	r3, r4
1000274c:	3701      	adds	r7, #1
1000274e:	0031      	movs	r1, r6
10002750:	2020      	movs	r0, #32
10002752:	47d0      	blx	sl
10002754:	42af      	cmp	r7, r5
10002756:	d1f7      	bne.n	10002748 <_vsnprintf+0x43c>
10002758:	46a3      	mov	fp, r4
1000275a:	0034      	movs	r4, r6
1000275c:	4646      	mov	r6, r8
1000275e:	e04f      	b.n	10002800 <_vsnprintf+0x4f4>
10002760:	4bd2      	ldr	r3, [pc, #840]	; (10002aac <_vsnprintf+0x7a0>)
10002762:	7820      	ldrb	r0, [r4, #0]
10002764:	9308      	str	r3, [sp, #32]
10002766:	2300      	movs	r3, #0
10002768:	469a      	mov	sl, r3
1000276a:	2800      	cmp	r0, #0
1000276c:	d000      	beq.n	10002770 <_vsnprintf+0x464>
1000276e:	e5e6      	b.n	1000233e <_vsnprintf+0x32>
10002770:	2400      	movs	r4, #0
10002772:	e671      	b.n	10002458 <_vsnprintf+0x14c>
10002774:	4643      	mov	r3, r8
10002776:	0006      	movs	r6, r0
10002778:	9f0a      	ldr	r7, [sp, #40]	; 0x28
1000277a:	0098      	lsls	r0, r3, #2
1000277c:	18c0      	adds	r0, r0, r3
1000277e:	3201      	adds	r2, #1
10002780:	0040      	lsls	r0, r0, #1
10002782:	1980      	adds	r0, r0, r6
10002784:	7816      	ldrb	r6, [r2, #0]
10002786:	0003      	movs	r3, r0
10002788:	0030      	movs	r0, r6
1000278a:	3830      	subs	r0, #48	; 0x30
1000278c:	3b30      	subs	r3, #48	; 0x30
1000278e:	2809      	cmp	r0, #9
10002790:	d9f3      	bls.n	1000277a <_vsnprintf+0x46e>
10002792:	0030      	movs	r0, r6
10002794:	4698      	mov	r8, r3
10002796:	0016      	movs	r6, r2
10002798:	970a      	str	r7, [sp, #40]	; 0x28
1000279a:	e603      	b.n	100023a4 <_vsnprintf+0x98>
1000279c:	9b09      	ldr	r3, [sp, #36]	; 0x24
1000279e:	3602      	adds	r6, #2
100027a0:	cb04      	ldmia	r3!, {r2}
100027a2:	4690      	mov	r8, r2
100027a4:	43d2      	mvns	r2, r2
100027a6:	4640      	mov	r0, r8
100027a8:	17d2      	asrs	r2, r2, #31
100027aa:	4010      	ands	r0, r2
100027ac:	4680      	mov	r8, r0
100027ae:	9309      	str	r3, [sp, #36]	; 0x24
100027b0:	7830      	ldrb	r0, [r6, #0]
100027b2:	e5f7      	b.n	100023a4 <_vsnprintf+0x98>
100027b4:	7813      	ldrb	r3, [r2, #0]
100027b6:	469c      	mov	ip, r3
100027b8:	2b00      	cmp	r3, #0
100027ba:	d100      	bne.n	100027be <_vsnprintf+0x4b2>
100027bc:	e31a      	b.n	10002df4 <_vsnprintf+0xae8>
100027be:	4643      	mov	r3, r8
100027c0:	3b01      	subs	r3, #1
100027c2:	e766      	b.n	10002692 <_vsnprintf+0x386>
100027c4:	2210      	movs	r2, #16
100027c6:	0008      	movs	r0, r1
100027c8:	4390      	bics	r0, r2
100027ca:	3211      	adds	r2, #17
100027cc:	4310      	orrs	r0, r2
100027ce:	4682      	mov	sl, r0
100027d0:	2200      	movs	r2, #0
100027d2:	0549      	lsls	r1, r1, #21
100027d4:	d400      	bmi.n	100027d8 <_vsnprintf+0x4cc>
100027d6:	e6f2      	b.n	100025be <_vsnprintf+0x2b2>
100027d8:	4653      	mov	r3, sl
100027da:	9306      	str	r3, [sp, #24]
100027dc:	2308      	movs	r3, #8
100027de:	9305      	str	r3, [sp, #20]
100027e0:	4643      	mov	r3, r8
100027e2:	9304      	str	r3, [sp, #16]
100027e4:	2310      	movs	r3, #16
100027e6:	9303      	str	r3, [sp, #12]
100027e8:	2300      	movs	r3, #0
100027ea:	9302      	str	r3, [sp, #8]
100027ec:	ab16      	add	r3, sp, #88	; 0x58
100027ee:	9201      	str	r2, [sp, #4]
100027f0:	9300      	str	r3, [sp, #0]
100027f2:	002a      	movs	r2, r5
100027f4:	465b      	mov	r3, fp
100027f6:	0021      	movs	r1, r4
100027f8:	9808      	ldr	r0, [sp, #32]
100027fa:	f7ff f879 	bl	100018f0 <_ntoa_format>
100027fe:	0005      	movs	r5, r0
10002800:	464b      	mov	r3, r9
10002802:	3601      	adds	r6, #1
10002804:	9309      	str	r3, [sp, #36]	; 0x24
10002806:	e5a6      	b.n	10002356 <_vsnprintf+0x4a>
10002808:	2320      	movs	r3, #32
1000280a:	0002      	movs	r2, r0
1000280c:	439a      	bics	r2, r3
1000280e:	2a47      	cmp	r2, #71	; 0x47
10002810:	d104      	bne.n	1000281c <_vsnprintf+0x510>
10002812:	2380      	movs	r3, #128	; 0x80
10002814:	011b      	lsls	r3, r3, #4
10002816:	4319      	orrs	r1, r3
10002818:	2302      	movs	r3, #2
1000281a:	4398      	bics	r0, r3
1000281c:	2845      	cmp	r0, #69	; 0x45
1000281e:	d101      	bne.n	10002824 <_vsnprintf+0x518>
10002820:	2320      	movs	r3, #32
10002822:	4319      	orrs	r1, r3
10002824:	2207      	movs	r2, #7
10002826:	9b09      	ldr	r3, [sp, #36]	; 0x24
10002828:	9104      	str	r1, [sp, #16]
1000282a:	3307      	adds	r3, #7
1000282c:	4393      	bics	r3, r2
1000282e:	9a0a      	ldr	r2, [sp, #40]	; 0x28
10002830:	0019      	movs	r1, r3
10002832:	9203      	str	r2, [sp, #12]
10002834:	4642      	mov	r2, r8
10002836:	9202      	str	r2, [sp, #8]
10002838:	c90c      	ldmia	r1!, {r2, r3}
1000283a:	9808      	ldr	r0, [sp, #32]
1000283c:	9200      	str	r2, [sp, #0]
1000283e:	9301      	str	r3, [sp, #4]
10002840:	9109      	str	r1, [sp, #36]	; 0x24
10002842:	002a      	movs	r2, r5
10002844:	465b      	mov	r3, fp
10002846:	0021      	movs	r1, r4
10002848:	f7ff f94a 	bl	10001ae0 <_etoa>
1000284c:	3601      	adds	r6, #1
1000284e:	0005      	movs	r5, r0
10002850:	e581      	b.n	10002356 <_vsnprintf+0x4a>
10002852:	2310      	movs	r3, #16
10002854:	930c      	str	r3, [sp, #48]	; 0x30
10002856:	230c      	movs	r3, #12
10002858:	000a      	movs	r2, r1
1000285a:	439a      	bics	r2, r3
1000285c:	920b      	str	r2, [sp, #44]	; 0x2c
1000285e:	054b      	lsls	r3, r1, #21
10002860:	d400      	bmi.n	10002864 <_vsnprintf+0x558>
10002862:	e63b      	b.n	100024dc <_vsnprintf+0x1d0>
10002864:	e636      	b.n	100024d4 <_vsnprintf+0x1c8>
10002866:	2320      	movs	r3, #32
10002868:	4319      	orrs	r1, r3
1000286a:	e687      	b.n	1000257c <_vsnprintf+0x270>
1000286c:	2302      	movs	r3, #2
1000286e:	930c      	str	r3, [sp, #48]	; 0x30
10002870:	910b      	str	r1, [sp, #44]	; 0x2c
10002872:	990b      	ldr	r1, [sp, #44]	; 0x2c
10002874:	2864      	cmp	r0, #100	; 0x64
10002876:	d1ee      	bne.n	10002856 <_vsnprintf+0x54a>
10002878:	9b0b      	ldr	r3, [sp, #44]	; 0x2c
1000287a:	055b      	lsls	r3, r3, #21
1000287c:	d500      	bpl.n	10002880 <_vsnprintf+0x574>
1000287e:	e629      	b.n	100024d4 <_vsnprintf+0x1c8>
10002880:	9a0b      	ldr	r2, [sp, #44]	; 0x2c
10002882:	2380      	movs	r3, #128	; 0x80
10002884:	0011      	movs	r1, r2
10002886:	009b      	lsls	r3, r3, #2
10002888:	4019      	ands	r1, r3
1000288a:	468a      	mov	sl, r1
1000288c:	421a      	tst	r2, r3
1000288e:	d000      	beq.n	10002892 <_vsnprintf+0x586>
10002890:	e0ce      	b.n	10002a30 <_vsnprintf+0x724>
10002892:	2380      	movs	r3, #128	; 0x80
10002894:	0011      	movs	r1, r2
10002896:	005b      	lsls	r3, r3, #1
10002898:	4019      	ands	r1, r3
1000289a:	4689      	mov	r9, r1
1000289c:	421a      	tst	r2, r3
1000289e:	d000      	beq.n	100028a2 <_vsnprintf+0x596>
100028a0:	e1db      	b.n	10002c5a <_vsnprintf+0x94e>
100028a2:	0013      	movs	r3, r2
100028a4:	065b      	lsls	r3, r3, #25
100028a6:	d500      	bpl.n	100028aa <_vsnprintf+0x59e>
100028a8:	e11d      	b.n	10002ae6 <_vsnprintf+0x7da>
100028aa:	9b0b      	ldr	r3, [sp, #44]	; 0x2c
100028ac:	9909      	ldr	r1, [sp, #36]	; 0x24
100028ae:	061b      	lsls	r3, r3, #24
100028b0:	d400      	bmi.n	100028b4 <_vsnprintf+0x5a8>
100028b2:	e299      	b.n	10002de8 <_vsnprintf+0xadc>
100028b4:	c908      	ldmia	r1!, {r3}
100028b6:	b21b      	sxth	r3, r3
100028b8:	17d8      	asrs	r0, r3, #31
100028ba:	181a      	adds	r2, r3, r0
100028bc:	4042      	eors	r2, r0
100028be:	b292      	uxth	r2, r2
100028c0:	9109      	str	r1, [sp, #36]	; 0x24
100028c2:	4692      	mov	sl, r2
100028c4:	0fda      	lsrs	r2, r3, #31
100028c6:	9212      	str	r2, [sp, #72]	; 0x48
100028c8:	2b00      	cmp	r3, #0
100028ca:	d109      	bne.n	100028e0 <_vsnprintf+0x5d4>
100028cc:	2380      	movs	r3, #128	; 0x80
100028ce:	2210      	movs	r2, #16
100028d0:	990b      	ldr	r1, [sp, #44]	; 0x2c
100028d2:	00db      	lsls	r3, r3, #3
100028d4:	400b      	ands	r3, r1
100028d6:	4391      	bics	r1, r2
100028d8:	910b      	str	r1, [sp, #44]	; 0x2c
100028da:	2b00      	cmp	r3, #0
100028dc:	d000      	beq.n	100028e0 <_vsnprintf+0x5d4>
100028de:	e112      	b.n	10002b06 <_vsnprintf+0x7fa>
100028e0:	9a0b      	ldr	r2, [sp, #44]	; 0x2c
100028e2:	2361      	movs	r3, #97	; 0x61
100028e4:	0692      	lsls	r2, r2, #26
100028e6:	d500      	bpl.n	100028ea <_vsnprintf+0x5de>
100028e8:	2341      	movs	r3, #65	; 0x41
100028ea:	a90e      	add	r1, sp, #56	; 0x38
100028ec:	221f      	movs	r2, #31
100028ee:	468c      	mov	ip, r1
100028f0:	b2db      	uxtb	r3, r3
100028f2:	4462      	add	r2, ip
100028f4:	3b0a      	subs	r3, #10
100028f6:	4657      	mov	r7, sl
100028f8:	9513      	str	r5, [sp, #76]	; 0x4c
100028fa:	46a2      	mov	sl, r4
100028fc:	464d      	mov	r5, r9
100028fe:	9c0c      	ldr	r4, [sp, #48]	; 0x30
10002900:	46b1      	mov	r9, r6
10002902:	930d      	str	r3, [sp, #52]	; 0x34
10002904:	0016      	movs	r6, r2
10002906:	e00a      	b.n	1000291e <_vsnprintf+0x612>
10002908:	3330      	adds	r3, #48	; 0x30
1000290a:	b2db      	uxtb	r3, r3
1000290c:	3501      	adds	r5, #1
1000290e:	5573      	strb	r3, [r6, r5]
10002910:	42a7      	cmp	r7, r4
10002912:	d200      	bcs.n	10002916 <_vsnprintf+0x60a>
10002914:	e11c      	b.n	10002b50 <_vsnprintf+0x844>
10002916:	2d20      	cmp	r5, #32
10002918:	d100      	bne.n	1000291c <_vsnprintf+0x610>
1000291a:	e119      	b.n	10002b50 <_vsnprintf+0x844>
1000291c:	0007      	movs	r7, r0
1000291e:	0021      	movs	r1, r4
10002920:	0038      	movs	r0, r7
10002922:	f000 fb15 	bl	10002f50 <__wrap___aeabi_uidiv>
10002926:	b2cb      	uxtb	r3, r1
10002928:	2909      	cmp	r1, #9
1000292a:	d9ed      	bls.n	10002908 <_vsnprintf+0x5fc>
1000292c:	9a0d      	ldr	r2, [sp, #52]	; 0x34
1000292e:	4694      	mov	ip, r2
10002930:	4463      	add	r3, ip
10002932:	b2db      	uxtb	r3, r3
10002934:	e7ea      	b.n	1000290c <_vsnprintf+0x600>
10002936:	9b09      	ldr	r3, [sp, #36]	; 0x24
10002938:	465f      	mov	r7, fp
1000293a:	1b5b      	subs	r3, r3, r5
1000293c:	4698      	mov	r8, r3
1000293e:	9b0a      	ldr	r3, [sp, #40]	; 0x28
10002940:	46b3      	mov	fp, r6
10002942:	469a      	mov	sl, r3
10002944:	0026      	movs	r6, r4
10002946:	9c08      	ldr	r4, [sp, #32]
10002948:	002a      	movs	r2, r5
1000294a:	003b      	movs	r3, r7
1000294c:	0031      	movs	r1, r6
1000294e:	47a0      	blx	r4
10002950:	4643      	mov	r3, r8
10002952:	3501      	adds	r5, #1
10002954:	5d58      	ldrb	r0, [r3, r5]
10002956:	2800      	cmp	r0, #0
10002958:	d1f6      	bne.n	10002948 <_vsnprintf+0x63c>
1000295a:	4653      	mov	r3, sl
1000295c:	0034      	movs	r4, r6
1000295e:	930a      	str	r3, [sp, #40]	; 0x28
10002960:	465e      	mov	r6, fp
10002962:	46bb      	mov	fp, r7
10002964:	e6df      	b.n	10002726 <_vsnprintf+0x41a>
10002966:	23c0      	movs	r3, #192	; 0xc0
10002968:	009b      	lsls	r3, r3, #2
1000296a:	78b0      	ldrb	r0, [r6, #2]
1000296c:	4319      	orrs	r1, r3
1000296e:	3602      	adds	r6, #2
10002970:	e53d      	b.n	100023ee <_vsnprintf+0xe2>
10002972:	23c0      	movs	r3, #192	; 0xc0
10002974:	78b0      	ldrb	r0, [r6, #2]
10002976:	4319      	orrs	r1, r3
10002978:	3602      	adds	r6, #2
1000297a:	e538      	b.n	100023ee <_vsnprintf+0xe2>
1000297c:	970a      	str	r7, [sp, #40]	; 0x28
1000297e:	e69b      	b.n	100026b8 <_vsnprintf+0x3ac>
10002980:	230c      	movs	r3, #12
10002982:	000a      	movs	r2, r1
10002984:	439a      	bics	r2, r3
10002986:	3314      	adds	r3, #20
10002988:	431a      	orrs	r2, r3
1000298a:	2310      	movs	r3, #16
1000298c:	920b      	str	r2, [sp, #44]	; 0x2c
1000298e:	930c      	str	r3, [sp, #48]	; 0x30
10002990:	054b      	lsls	r3, r1, #21
10002992:	d400      	bmi.n	10002996 <_vsnprintf+0x68a>
10002994:	e5a8      	b.n	100024e8 <_vsnprintf+0x1dc>
10002996:	e59d      	b.n	100024d4 <_vsnprintf+0x1c8>
10002998:	46a3      	mov	fp, r4
1000299a:	0034      	movs	r4, r6
1000299c:	4656      	mov	r6, sl
1000299e:	e6c2      	b.n	10002726 <_vsnprintf+0x41a>
100029a0:	9a0a      	ldr	r2, [sp, #40]	; 0x28
100029a2:	2a01      	cmp	r2, #1
100029a4:	d800      	bhi.n	100029a8 <_vsnprintf+0x69c>
100029a6:	e22e      	b.n	10002e06 <_vsnprintf+0xafa>
100029a8:	1e6b      	subs	r3, r5, #1
100029aa:	189f      	adds	r7, r3, r2
100029ac:	9b08      	ldr	r3, [sp, #32]
100029ae:	46b0      	mov	r8, r6
100029b0:	4699      	mov	r9, r3
100029b2:	0026      	movs	r6, r4
100029b4:	465c      	mov	r4, fp
100029b6:	002a      	movs	r2, r5
100029b8:	0023      	movs	r3, r4
100029ba:	3501      	adds	r5, #1
100029bc:	0031      	movs	r1, r6
100029be:	2020      	movs	r0, #32
100029c0:	47c8      	blx	r9
100029c2:	42bd      	cmp	r5, r7
100029c4:	d1f7      	bne.n	100029b6 <_vsnprintf+0x6aa>
100029c6:	46a3      	mov	fp, r4
100029c8:	0034      	movs	r4, r6
100029ca:	4646      	mov	r6, r8
100029cc:	9b09      	ldr	r3, [sp, #36]	; 0x24
100029ce:	003a      	movs	r2, r7
100029d0:	cb01      	ldmia	r3!, {r0}
100029d2:	0021      	movs	r1, r4
100029d4:	4698      	mov	r8, r3
100029d6:	1c7d      	adds	r5, r7, #1
100029d8:	465b      	mov	r3, fp
100029da:	9f08      	ldr	r7, [sp, #32]
100029dc:	b2c0      	uxtb	r0, r0
100029de:	47b8      	blx	r7
100029e0:	4643      	mov	r3, r8
100029e2:	3601      	adds	r6, #1
100029e4:	9309      	str	r3, [sp, #36]	; 0x24
100029e6:	e4b6      	b.n	10002356 <_vsnprintf+0x4a>
100029e8:	9a0b      	ldr	r2, [sp, #44]	; 0x2c
100029ea:	980a      	ldr	r0, [sp, #40]	; 0x28
100029ec:	1c53      	adds	r3, r2, #1
100029ee:	4290      	cmp	r0, r2
100029f0:	d800      	bhi.n	100029f4 <_vsnprintf+0x6e8>
100029f2:	e20a      	b.n	10002e0a <_vsnprintf+0xafe>
100029f4:	1943      	adds	r3, r0, r5
100029f6:	1a9b      	subs	r3, r3, r2
100029f8:	001f      	movs	r7, r3
100029fa:	9b08      	ldr	r3, [sp, #32]
100029fc:	46b2      	mov	sl, r6
100029fe:	0026      	movs	r6, r4
10002a00:	465c      	mov	r4, fp
10002a02:	469b      	mov	fp, r3
10002a04:	002a      	movs	r2, r5
10002a06:	0023      	movs	r3, r4
10002a08:	3501      	adds	r5, #1
10002a0a:	0031      	movs	r1, r6
10002a0c:	2020      	movs	r0, #32
10002a0e:	47d8      	blx	fp
10002a10:	42bd      	cmp	r5, r7
10002a12:	d1f7      	bne.n	10002a04 <_vsnprintf+0x6f8>
10002a14:	9b0a      	ldr	r3, [sp, #40]	; 0x28
10002a16:	46a3      	mov	fp, r4
10002a18:	3301      	adds	r3, #1
10002a1a:	930b      	str	r3, [sp, #44]	; 0x2c
10002a1c:	9b09      	ldr	r3, [sp, #36]	; 0x24
10002a1e:	0034      	movs	r4, r6
10002a20:	781b      	ldrb	r3, [r3, #0]
10002a22:	4656      	mov	r6, sl
10002a24:	469c      	mov	ip, r3
10002a26:	4660      	mov	r0, ip
10002a28:	2800      	cmp	r0, #0
10002a2a:	d000      	beq.n	10002a2e <_vsnprintf+0x722>
10002a2c:	e65a      	b.n	100026e4 <_vsnprintf+0x3d8>
10002a2e:	e6e7      	b.n	10002800 <_vsnprintf+0x4f4>
10002a30:	2207      	movs	r2, #7
10002a32:	9b09      	ldr	r3, [sp, #36]	; 0x24
10002a34:	3307      	adds	r3, #7
10002a36:	4393      	bics	r3, r2
10002a38:	3201      	adds	r2, #1
10002a3a:	4694      	mov	ip, r2
10002a3c:	449c      	add	ip, r3
10002a3e:	4662      	mov	r2, ip
10002a40:	685f      	ldr	r7, [r3, #4]
10002a42:	9209      	str	r2, [sp, #36]	; 0x24
10002a44:	681a      	ldr	r2, [r3, #0]
10002a46:	17fb      	asrs	r3, r7, #31
10002a48:	9310      	str	r3, [sp, #64]	; 0x40
10002a4a:	9311      	str	r3, [sp, #68]	; 0x44
10002a4c:	9810      	ldr	r0, [sp, #64]	; 0x40
10002a4e:	9911      	ldr	r1, [sp, #68]	; 0x44
10002a50:	0003      	movs	r3, r0
10002a52:	4053      	eors	r3, r2
10002a54:	930e      	str	r3, [sp, #56]	; 0x38
10002a56:	000b      	movs	r3, r1
10002a58:	407b      	eors	r3, r7
10002a5a:	930f      	str	r3, [sp, #60]	; 0x3c
10002a5c:	4694      	mov	ip, r2
10002a5e:	9a0e      	ldr	r2, [sp, #56]	; 0x38
10002a60:	9b0f      	ldr	r3, [sp, #60]	; 0x3c
10002a62:	1a12      	subs	r2, r2, r0
10002a64:	418b      	sbcs	r3, r1
10002a66:	920e      	str	r2, [sp, #56]	; 0x38
10002a68:	930f      	str	r3, [sp, #60]	; 0x3c
10002a6a:	0ffb      	lsrs	r3, r7, #31
10002a6c:	4662      	mov	r2, ip
10002a6e:	9312      	str	r3, [sp, #72]	; 0x48
10002a70:	2300      	movs	r3, #0
10002a72:	433a      	orrs	r2, r7
10002a74:	469a      	mov	sl, r3
10002a76:	d03d      	beq.n	10002af4 <_vsnprintf+0x7e8>
10002a78:	9a0b      	ldr	r2, [sp, #44]	; 0x2c
10002a7a:	2361      	movs	r3, #97	; 0x61
10002a7c:	0692      	lsls	r2, r2, #26
10002a7e:	d500      	bpl.n	10002a82 <_vsnprintf+0x776>
10002a80:	2341      	movs	r3, #65	; 0x41
10002a82:	2200      	movs	r2, #0
10002a84:	b2db      	uxtb	r3, r3
10002a86:	a90e      	add	r1, sp, #56	; 0x38
10002a88:	3b0a      	subs	r3, #10
10002a8a:	468c      	mov	ip, r1
10002a8c:	4691      	mov	r9, r2
10002a8e:	930d      	str	r3, [sp, #52]	; 0x34
10002a90:	4643      	mov	r3, r8
10002a92:	321f      	adds	r2, #31
10002a94:	4462      	add	r2, ip
10002a96:	9513      	str	r5, [sp, #76]	; 0x4c
10002a98:	9615      	str	r6, [sp, #84]	; 0x54
10002a9a:	464d      	mov	r5, r9
10002a9c:	9e0e      	ldr	r6, [sp, #56]	; 0x38
10002a9e:	9f0f      	ldr	r7, [sp, #60]	; 0x3c
10002aa0:	46a1      	mov	r9, r4
10002aa2:	4690      	mov	r8, r2
10002aa4:	9c0c      	ldr	r4, [sp, #48]	; 0x30
10002aa6:	9314      	str	r3, [sp, #80]	; 0x50
10002aa8:	e00f      	b.n	10002aca <_vsnprintf+0x7be>
10002aaa:	46c0      	nop			; (mov r8, r8)
10002aac:	1000181d 	.word	0x1000181d
10002ab0:	3230      	adds	r2, #48	; 0x30
10002ab2:	b2d2      	uxtb	r2, r2
10002ab4:	4643      	mov	r3, r8
10002ab6:	3501      	adds	r5, #1
10002ab8:	555a      	strb	r2, [r3, r5]
10002aba:	45ba      	cmp	sl, r7
10002abc:	d100      	bne.n	10002ac0 <_vsnprintf+0x7b4>
10002abe:	e17c      	b.n	10002dba <_vsnprintf+0xaae>
10002ac0:	2d20      	cmp	r5, #32
10002ac2:	d100      	bne.n	10002ac6 <_vsnprintf+0x7ba>
10002ac4:	e17c      	b.n	10002dc0 <_vsnprintf+0xab4>
10002ac6:	0006      	movs	r6, r0
10002ac8:	000f      	movs	r7, r1
10002aca:	0022      	movs	r2, r4
10002acc:	2300      	movs	r3, #0
10002ace:	0030      	movs	r0, r6
10002ad0:	0039      	movs	r1, r7
10002ad2:	f000 fa83 	bl	10002fdc <__wrap___aeabi_uldivmod>
10002ad6:	b2d2      	uxtb	r2, r2
10002ad8:	2a09      	cmp	r2, #9
10002ada:	d9e9      	bls.n	10002ab0 <_vsnprintf+0x7a4>
10002adc:	9b0d      	ldr	r3, [sp, #52]	; 0x34
10002ade:	469c      	mov	ip, r3
10002ae0:	4462      	add	r2, ip
10002ae2:	b2d2      	uxtb	r2, r2
10002ae4:	e7e6      	b.n	10002ab4 <_vsnprintf+0x7a8>
10002ae6:	23ff      	movs	r3, #255	; 0xff
10002ae8:	9909      	ldr	r1, [sp, #36]	; 0x24
10002aea:	c904      	ldmia	r1!, {r2}
10002aec:	4013      	ands	r3, r2
10002aee:	001a      	movs	r2, r3
10002af0:	9109      	str	r1, [sp, #36]	; 0x24
10002af2:	e6e6      	b.n	100028c2 <_vsnprintf+0x5b6>
10002af4:	9a0b      	ldr	r2, [sp, #44]	; 0x2c
10002af6:	3310      	adds	r3, #16
10002af8:	0011      	movs	r1, r2
10002afa:	4399      	bics	r1, r3
10002afc:	910b      	str	r1, [sp, #44]	; 0x2c
10002afe:	0552      	lsls	r2, r2, #21
10002b00:	d5ba      	bpl.n	10002a78 <_vsnprintf+0x76c>
10002b02:	2300      	movs	r3, #0
10002b04:	4699      	mov	r9, r3
10002b06:	9b0b      	ldr	r3, [sp, #44]	; 0x2c
10002b08:	9306      	str	r3, [sp, #24]
10002b0a:	9b0a      	ldr	r3, [sp, #40]	; 0x28
10002b0c:	9305      	str	r3, [sp, #20]
10002b0e:	4643      	mov	r3, r8
10002b10:	9304      	str	r3, [sp, #16]
10002b12:	9b0c      	ldr	r3, [sp, #48]	; 0x30
10002b14:	9303      	str	r3, [sp, #12]
10002b16:	9b12      	ldr	r3, [sp, #72]	; 0x48
10002b18:	9302      	str	r3, [sp, #8]
10002b1a:	464b      	mov	r3, r9
10002b1c:	9301      	str	r3, [sp, #4]
10002b1e:	ab16      	add	r3, sp, #88	; 0x58
10002b20:	002a      	movs	r2, r5
10002b22:	9300      	str	r3, [sp, #0]
10002b24:	0021      	movs	r1, r4
10002b26:	465b      	mov	r3, fp
10002b28:	9808      	ldr	r0, [sp, #32]
10002b2a:	f7fe fee1 	bl	100018f0 <_ntoa_format>
10002b2e:	3601      	adds	r6, #1
10002b30:	0005      	movs	r5, r0
10002b32:	f7ff fc10 	bl	10002356 <_vsnprintf+0x4a>
10002b36:	22ff      	movs	r2, #255	; 0xff
10002b38:	9b09      	ldr	r3, [sp, #36]	; 0x24
10002b3a:	cb02      	ldmia	r3!, {r1}
10002b3c:	4011      	ands	r1, r2
10002b3e:	468a      	mov	sl, r1
10002b40:	9309      	str	r3, [sp, #36]	; 0x24
10002b42:	e4f2      	b.n	1000252a <_vsnprintf+0x21e>
10002b44:	464b      	mov	r3, r9
10002b46:	4645      	mov	r5, r8
10002b48:	9309      	str	r3, [sp, #36]	; 0x24
10002b4a:	3601      	adds	r6, #1
10002b4c:	f7ff fc03 	bl	10002356 <_vsnprintf+0x4a>
10002b50:	464e      	mov	r6, r9
10002b52:	4654      	mov	r4, sl
10002b54:	46a9      	mov	r9, r5
10002b56:	9d13      	ldr	r5, [sp, #76]	; 0x4c
10002b58:	e7d5      	b.n	10002b06 <_vsnprintf+0x7fa>
10002b5a:	2308      	movs	r3, #8
10002b5c:	930c      	str	r3, [sp, #48]	; 0x30
10002b5e:	e687      	b.n	10002870 <_vsnprintf+0x564>
10002b60:	2207      	movs	r2, #7
10002b62:	9b09      	ldr	r3, [sp, #36]	; 0x24
10002b64:	3307      	adds	r3, #7
10002b66:	4393      	bics	r3, r2
10002b68:	3201      	adds	r2, #1
10002b6a:	4694      	mov	ip, r2
10002b6c:	449c      	add	ip, r3
10002b6e:	4662      	mov	r2, ip
10002b70:	9209      	str	r2, [sp, #36]	; 0x24
10002b72:	681a      	ldr	r2, [r3, #0]
10002b74:	685b      	ldr	r3, [r3, #4]
10002b76:	0010      	movs	r0, r2
10002b78:	469a      	mov	sl, r3
10002b7a:	0013      	movs	r3, r2
10002b7c:	4652      	mov	r2, sl
10002b7e:	4313      	orrs	r3, r2
10002b80:	d107      	bne.n	10002b92 <_vsnprintf+0x886>
10002b82:	9a0b      	ldr	r2, [sp, #44]	; 0x2c
10002b84:	3310      	adds	r3, #16
10002b86:	0011      	movs	r1, r2
10002b88:	4399      	bics	r1, r3
10002b8a:	910b      	str	r1, [sp, #44]	; 0x2c
10002b8c:	0552      	lsls	r2, r2, #21
10002b8e:	d500      	bpl.n	10002b92 <_vsnprintf+0x886>
10002b90:	e4d7      	b.n	10002542 <_vsnprintf+0x236>
10002b92:	9a0b      	ldr	r2, [sp, #44]	; 0x2c
10002b94:	2361      	movs	r3, #97	; 0x61
10002b96:	0692      	lsls	r2, r2, #26
10002b98:	d500      	bpl.n	10002b9c <_vsnprintf+0x890>
10002b9a:	2341      	movs	r3, #65	; 0x41
10002b9c:	2200      	movs	r2, #0
10002b9e:	b2db      	uxtb	r3, r3
10002ba0:	a90e      	add	r1, sp, #56	; 0x38
10002ba2:	3b0a      	subs	r3, #10
10002ba4:	468c      	mov	ip, r1
10002ba6:	4691      	mov	r9, r2
10002ba8:	930d      	str	r3, [sp, #52]	; 0x34
10002baa:	4643      	mov	r3, r8
10002bac:	321f      	adds	r2, #31
10002bae:	4462      	add	r2, ip
10002bb0:	4657      	mov	r7, sl
10002bb2:	9512      	str	r5, [sp, #72]	; 0x48
10002bb4:	46a2      	mov	sl, r4
10002bb6:	464d      	mov	r5, r9
10002bb8:	0004      	movs	r4, r0
10002bba:	46b1      	mov	r9, r6
10002bbc:	4690      	mov	r8, r2
10002bbe:	9e0c      	ldr	r6, [sp, #48]	; 0x30
10002bc0:	9313      	str	r3, [sp, #76]	; 0x4c
10002bc2:	e00d      	b.n	10002be0 <_vsnprintf+0x8d4>
10002bc4:	3230      	adds	r2, #48	; 0x30
10002bc6:	b2d2      	uxtb	r2, r2
10002bc8:	4643      	mov	r3, r8
10002bca:	3501      	adds	r5, #1
10002bcc:	555a      	strb	r2, [r3, r5]
10002bce:	2300      	movs	r3, #0
10002bd0:	42bb      	cmp	r3, r7
10002bd2:	d100      	bne.n	10002bd6 <_vsnprintf+0x8ca>
10002bd4:	e0fd      	b.n	10002dd2 <_vsnprintf+0xac6>
10002bd6:	2d20      	cmp	r5, #32
10002bd8:	d100      	bne.n	10002bdc <_vsnprintf+0x8d0>
10002bda:	e0fd      	b.n	10002dd8 <_vsnprintf+0xacc>
10002bdc:	0004      	movs	r4, r0
10002bde:	000f      	movs	r7, r1
10002be0:	0032      	movs	r2, r6
10002be2:	2300      	movs	r3, #0
10002be4:	0020      	movs	r0, r4
10002be6:	0039      	movs	r1, r7
10002be8:	f000 f9f8 	bl	10002fdc <__wrap___aeabi_uldivmod>
10002bec:	b2d2      	uxtb	r2, r2
10002bee:	2a09      	cmp	r2, #9
10002bf0:	d9e8      	bls.n	10002bc4 <_vsnprintf+0x8b8>
10002bf2:	9b0d      	ldr	r3, [sp, #52]	; 0x34
10002bf4:	469c      	mov	ip, r3
10002bf6:	4462      	add	r2, ip
10002bf8:	b2d2      	uxtb	r2, r2
10002bfa:	e7e5      	b.n	10002bc8 <_vsnprintf+0x8bc>
10002bfc:	9a0b      	ldr	r2, [sp, #44]	; 0x2c
10002bfe:	2361      	movs	r3, #97	; 0x61
10002c00:	0692      	lsls	r2, r2, #26
10002c02:	d500      	bpl.n	10002c06 <_vsnprintf+0x8fa>
10002c04:	2341      	movs	r3, #65	; 0x41
10002c06:	b2db      	uxtb	r3, r3
10002c08:	a90e      	add	r1, sp, #56	; 0x38
10002c0a:	3b0a      	subs	r3, #10
10002c0c:	221f      	movs	r2, #31
10002c0e:	468c      	mov	ip, r1
10002c10:	930d      	str	r3, [sp, #52]	; 0x34
10002c12:	0023      	movs	r3, r4
10002c14:	4462      	add	r2, ip
10002c16:	4654      	mov	r4, sl
10002c18:	9512      	str	r5, [sp, #72]	; 0x48
10002c1a:	0017      	movs	r7, r2
10002c1c:	464d      	mov	r5, r9
10002c1e:	469a      	mov	sl, r3
10002c20:	46b1      	mov	r9, r6
10002c22:	9e0c      	ldr	r6, [sp, #48]	; 0x30
10002c24:	e008      	b.n	10002c38 <_vsnprintf+0x92c>
10002c26:	3330      	adds	r3, #48	; 0x30
10002c28:	b2db      	uxtb	r3, r3
10002c2a:	3501      	adds	r5, #1
10002c2c:	557b      	strb	r3, [r7, r5]
10002c2e:	42b4      	cmp	r4, r6
10002c30:	d30e      	bcc.n	10002c50 <_vsnprintf+0x944>
10002c32:	2d20      	cmp	r5, #32
10002c34:	d00c      	beq.n	10002c50 <_vsnprintf+0x944>
10002c36:	0004      	movs	r4, r0
10002c38:	0031      	movs	r1, r6
10002c3a:	0020      	movs	r0, r4
10002c3c:	f000 f988 	bl	10002f50 <__wrap___aeabi_uidiv>
10002c40:	b2cb      	uxtb	r3, r1
10002c42:	2909      	cmp	r1, #9
10002c44:	d9ef      	bls.n	10002c26 <_vsnprintf+0x91a>
10002c46:	9a0d      	ldr	r2, [sp, #52]	; 0x34
10002c48:	4694      	mov	ip, r2
10002c4a:	4463      	add	r3, ip
10002c4c:	b2db      	uxtb	r3, r3
10002c4e:	e7ec      	b.n	10002c2a <_vsnprintf+0x91e>
10002c50:	464e      	mov	r6, r9
10002c52:	4654      	mov	r4, sl
10002c54:	46a9      	mov	r9, r5
10002c56:	9d12      	ldr	r5, [sp, #72]	; 0x48
10002c58:	e475      	b.n	10002546 <_vsnprintf+0x23a>
10002c5a:	9b09      	ldr	r3, [sp, #36]	; 0x24
10002c5c:	001a      	movs	r2, r3
10002c5e:	ca08      	ldmia	r2!, {r3}
10002c60:	17d9      	asrs	r1, r3, #31
10002c62:	9213      	str	r2, [sp, #76]	; 0x4c
10002c64:	185a      	adds	r2, r3, r1
10002c66:	404a      	eors	r2, r1
10002c68:	4691      	mov	r9, r2
10002c6a:	0fda      	lsrs	r2, r3, #31
10002c6c:	9212      	str	r2, [sp, #72]	; 0x48
10002c6e:	2b00      	cmp	r3, #0
10002c70:	d108      	bne.n	10002c84 <_vsnprintf+0x978>
10002c72:	2380      	movs	r3, #128	; 0x80
10002c74:	2210      	movs	r2, #16
10002c76:	990b      	ldr	r1, [sp, #44]	; 0x2c
10002c78:	00db      	lsls	r3, r3, #3
10002c7a:	400b      	ands	r3, r1
10002c7c:	4391      	bics	r1, r2
10002c7e:	910b      	str	r1, [sp, #44]	; 0x2c
10002c80:	2b00      	cmp	r3, #0
10002c82:	d12b      	bne.n	10002cdc <_vsnprintf+0x9d0>
10002c84:	9a0b      	ldr	r2, [sp, #44]	; 0x2c
10002c86:	2361      	movs	r3, #97	; 0x61
10002c88:	0692      	lsls	r2, r2, #26
10002c8a:	d500      	bpl.n	10002c8e <_vsnprintf+0x982>
10002c8c:	2341      	movs	r3, #65	; 0x41
10002c8e:	aa0e      	add	r2, sp, #56	; 0x38
10002c90:	271f      	movs	r7, #31
10002c92:	4694      	mov	ip, r2
10002c94:	b2db      	uxtb	r3, r3
10002c96:	3b0a      	subs	r3, #10
10002c98:	950d      	str	r5, [sp, #52]	; 0x34
10002c9a:	4467      	add	r7, ip
10002c9c:	4655      	mov	r5, sl
10002c9e:	9309      	str	r3, [sp, #36]	; 0x24
10002ca0:	46a2      	mov	sl, r4
10002ca2:	464c      	mov	r4, r9
10002ca4:	46b1      	mov	r9, r6
10002ca6:	9e0c      	ldr	r6, [sp, #48]	; 0x30
10002ca8:	e008      	b.n	10002cbc <_vsnprintf+0x9b0>
10002caa:	3330      	adds	r3, #48	; 0x30
10002cac:	b2db      	uxtb	r3, r3
10002cae:	3501      	adds	r5, #1
10002cb0:	557b      	strb	r3, [r7, r5]
10002cb2:	42b4      	cmp	r4, r6
10002cb4:	d30e      	bcc.n	10002cd4 <_vsnprintf+0x9c8>
10002cb6:	2d20      	cmp	r5, #32
10002cb8:	d00c      	beq.n	10002cd4 <_vsnprintf+0x9c8>
10002cba:	0004      	movs	r4, r0
10002cbc:	0031      	movs	r1, r6
10002cbe:	0020      	movs	r0, r4
10002cc0:	f000 f946 	bl	10002f50 <__wrap___aeabi_uidiv>
10002cc4:	b2cb      	uxtb	r3, r1
10002cc6:	2909      	cmp	r1, #9
10002cc8:	d9ef      	bls.n	10002caa <_vsnprintf+0x99e>
10002cca:	9a09      	ldr	r2, [sp, #36]	; 0x24
10002ccc:	4694      	mov	ip, r2
10002cce:	4463      	add	r3, ip
10002cd0:	b2db      	uxtb	r3, r3
10002cd2:	e7ec      	b.n	10002cae <_vsnprintf+0x9a2>
10002cd4:	464e      	mov	r6, r9
10002cd6:	4654      	mov	r4, sl
10002cd8:	46aa      	mov	sl, r5
10002cda:	9d0d      	ldr	r5, [sp, #52]	; 0x34
10002cdc:	9b0b      	ldr	r3, [sp, #44]	; 0x2c
10002cde:	002a      	movs	r2, r5
10002ce0:	9306      	str	r3, [sp, #24]
10002ce2:	9b0a      	ldr	r3, [sp, #40]	; 0x28
10002ce4:	0021      	movs	r1, r4
10002ce6:	9305      	str	r3, [sp, #20]
10002ce8:	4643      	mov	r3, r8
10002cea:	9304      	str	r3, [sp, #16]
10002cec:	9b0c      	ldr	r3, [sp, #48]	; 0x30
10002cee:	9808      	ldr	r0, [sp, #32]
10002cf0:	9303      	str	r3, [sp, #12]
10002cf2:	9b12      	ldr	r3, [sp, #72]	; 0x48
10002cf4:	3601      	adds	r6, #1
10002cf6:	9302      	str	r3, [sp, #8]
10002cf8:	4653      	mov	r3, sl
10002cfa:	9301      	str	r3, [sp, #4]
10002cfc:	ab16      	add	r3, sp, #88	; 0x58
10002cfe:	9300      	str	r3, [sp, #0]
10002d00:	465b      	mov	r3, fp
10002d02:	f7fe fdf5 	bl	100018f0 <_ntoa_format>
10002d06:	9b13      	ldr	r3, [sp, #76]	; 0x4c
10002d08:	0005      	movs	r5, r0
10002d0a:	9309      	str	r3, [sp, #36]	; 0x24
10002d0c:	f7ff fb23 	bl	10002356 <_vsnprintf+0x4a>
10002d10:	9b09      	ldr	r3, [sp, #36]	; 0x24
10002d12:	cb04      	ldmia	r3!, {r2}
10002d14:	4691      	mov	r9, r2
10002d16:	9312      	str	r3, [sp, #72]	; 0x48
10002d18:	2a00      	cmp	r2, #0
10002d1a:	d108      	bne.n	10002d2e <_vsnprintf+0xa22>
10002d1c:	2380      	movs	r3, #128	; 0x80
10002d1e:	2210      	movs	r2, #16
10002d20:	990b      	ldr	r1, [sp, #44]	; 0x2c
10002d22:	00db      	lsls	r3, r3, #3
10002d24:	400b      	ands	r3, r1
10002d26:	4391      	bics	r1, r2
10002d28:	910b      	str	r1, [sp, #44]	; 0x2c
10002d2a:	2b00      	cmp	r3, #0
10002d2c:	d12b      	bne.n	10002d86 <_vsnprintf+0xa7a>
10002d2e:	9a0b      	ldr	r2, [sp, #44]	; 0x2c
10002d30:	2361      	movs	r3, #97	; 0x61
10002d32:	0692      	lsls	r2, r2, #26
10002d34:	d500      	bpl.n	10002d38 <_vsnprintf+0xa2c>
10002d36:	2341      	movs	r3, #65	; 0x41
10002d38:	aa0e      	add	r2, sp, #56	; 0x38
10002d3a:	271f      	movs	r7, #31
10002d3c:	4694      	mov	ip, r2
10002d3e:	b2db      	uxtb	r3, r3
10002d40:	3b0a      	subs	r3, #10
10002d42:	950d      	str	r5, [sp, #52]	; 0x34
10002d44:	4467      	add	r7, ip
10002d46:	4655      	mov	r5, sl
10002d48:	9309      	str	r3, [sp, #36]	; 0x24
10002d4a:	46a2      	mov	sl, r4
10002d4c:	464c      	mov	r4, r9
10002d4e:	46b1      	mov	r9, r6
10002d50:	9e0c      	ldr	r6, [sp, #48]	; 0x30
10002d52:	e008      	b.n	10002d66 <_vsnprintf+0xa5a>
10002d54:	3330      	adds	r3, #48	; 0x30
10002d56:	b2db      	uxtb	r3, r3
10002d58:	3501      	adds	r5, #1
10002d5a:	557b      	strb	r3, [r7, r5]
10002d5c:	42b4      	cmp	r4, r6
10002d5e:	d30e      	bcc.n	10002d7e <_vsnprintf+0xa72>
10002d60:	2d20      	cmp	r5, #32
10002d62:	d00c      	beq.n	10002d7e <_vsnprintf+0xa72>
10002d64:	0004      	movs	r4, r0
10002d66:	0031      	movs	r1, r6
10002d68:	0020      	movs	r0, r4
10002d6a:	f000 f8f1 	bl	10002f50 <__wrap___aeabi_uidiv>
10002d6e:	b2cb      	uxtb	r3, r1
10002d70:	2909      	cmp	r1, #9
10002d72:	d9ef      	bls.n	10002d54 <_vsnprintf+0xa48>
10002d74:	9a09      	ldr	r2, [sp, #36]	; 0x24
10002d76:	4694      	mov	ip, r2
10002d78:	4463      	add	r3, ip
10002d7a:	b2db      	uxtb	r3, r3
10002d7c:	e7ec      	b.n	10002d58 <_vsnprintf+0xa4c>
10002d7e:	464e      	mov	r6, r9
10002d80:	4654      	mov	r4, sl
10002d82:	46aa      	mov	sl, r5
10002d84:	9d0d      	ldr	r5, [sp, #52]	; 0x34
10002d86:	9b0b      	ldr	r3, [sp, #44]	; 0x2c
10002d88:	002a      	movs	r2, r5
10002d8a:	9306      	str	r3, [sp, #24]
10002d8c:	9b0a      	ldr	r3, [sp, #40]	; 0x28
10002d8e:	0021      	movs	r1, r4
10002d90:	9305      	str	r3, [sp, #20]
10002d92:	4643      	mov	r3, r8
10002d94:	9304      	str	r3, [sp, #16]
10002d96:	9b0c      	ldr	r3, [sp, #48]	; 0x30
10002d98:	9808      	ldr	r0, [sp, #32]
10002d9a:	9303      	str	r3, [sp, #12]
10002d9c:	2300      	movs	r3, #0
10002d9e:	9302      	str	r3, [sp, #8]
10002da0:	4653      	mov	r3, sl
10002da2:	9301      	str	r3, [sp, #4]
10002da4:	ab16      	add	r3, sp, #88	; 0x58
10002da6:	9300      	str	r3, [sp, #0]
10002da8:	465b      	mov	r3, fp
10002daa:	f7fe fda1 	bl	100018f0 <_ntoa_format>
10002dae:	9b12      	ldr	r3, [sp, #72]	; 0x48
10002db0:	0005      	movs	r5, r0
10002db2:	9309      	str	r3, [sp, #36]	; 0x24
10002db4:	3601      	adds	r6, #1
10002db6:	f7ff face 	bl	10002356 <_vsnprintf+0x4a>
10002dba:	42b4      	cmp	r4, r6
10002dbc:	d800      	bhi.n	10002dc0 <_vsnprintf+0xab4>
10002dbe:	e67f      	b.n	10002ac0 <_vsnprintf+0x7b4>
10002dc0:	9b14      	ldr	r3, [sp, #80]	; 0x50
10002dc2:	464c      	mov	r4, r9
10002dc4:	960e      	str	r6, [sp, #56]	; 0x38
10002dc6:	970f      	str	r7, [sp, #60]	; 0x3c
10002dc8:	46a9      	mov	r9, r5
10002dca:	4698      	mov	r8, r3
10002dcc:	9e15      	ldr	r6, [sp, #84]	; 0x54
10002dce:	9d13      	ldr	r5, [sp, #76]	; 0x4c
10002dd0:	e699      	b.n	10002b06 <_vsnprintf+0x7fa>
10002dd2:	42a6      	cmp	r6, r4
10002dd4:	d800      	bhi.n	10002dd8 <_vsnprintf+0xacc>
10002dd6:	e6fe      	b.n	10002bd6 <_vsnprintf+0x8ca>
10002dd8:	9b13      	ldr	r3, [sp, #76]	; 0x4c
10002dda:	464e      	mov	r6, r9
10002ddc:	4698      	mov	r8, r3
10002dde:	46a9      	mov	r9, r5
10002de0:	4654      	mov	r4, sl
10002de2:	9d12      	ldr	r5, [sp, #72]	; 0x48
10002de4:	f7ff fbaf 	bl	10002546 <_vsnprintf+0x23a>
10002de8:	c908      	ldmia	r1!, {r3}
10002dea:	17d8      	asrs	r0, r3, #31
10002dec:	181a      	adds	r2, r3, r0
10002dee:	4042      	eors	r2, r0
10002df0:	9109      	str	r1, [sp, #36]	; 0x24
10002df2:	e566      	b.n	100028c2 <_vsnprintf+0x5b6>
10002df4:	2300      	movs	r3, #0
10002df6:	930b      	str	r3, [sp, #44]	; 0x2c
10002df8:	e45e      	b.n	100026b8 <_vsnprintf+0x3ac>
10002dfa:	9b09      	ldr	r3, [sp, #36]	; 0x24
10002dfc:	cb04      	ldmia	r3!, {r2}
10002dfe:	4692      	mov	sl, r2
10002e00:	9309      	str	r3, [sp, #36]	; 0x24
10002e02:	f7ff fb92 	bl	1000252a <_vsnprintf+0x21e>
10002e06:	002f      	movs	r7, r5
10002e08:	e5e0      	b.n	100029cc <_vsnprintf+0x6c0>
10002e0a:	930b      	str	r3, [sp, #44]	; 0x2c
10002e0c:	e60b      	b.n	10002a26 <_vsnprintf+0x71a>
10002e0e:	3b06      	subs	r3, #6
10002e10:	930c      	str	r3, [sp, #48]	; 0x30
10002e12:	e52e      	b.n	10002872 <_vsnprintf+0x566>

10002e14 <__wrap_snprintf>:
10002e14:	b40c      	push	{r2, r3}
10002e16:	b510      	push	{r4, lr}
10002e18:	b084      	sub	sp, #16
10002e1a:	ac06      	add	r4, sp, #24
10002e1c:	cc08      	ldmia	r4!, {r3}
10002e1e:	000a      	movs	r2, r1
10002e20:	9400      	str	r4, [sp, #0]
10002e22:	0001      	movs	r1, r0
10002e24:	4804      	ldr	r0, [pc, #16]	; (10002e38 <__wrap_snprintf+0x24>)
10002e26:	9403      	str	r4, [sp, #12]
10002e28:	f7ff fa70 	bl	1000230c <_vsnprintf>
10002e2c:	b004      	add	sp, #16
10002e2e:	bc10      	pop	{r4}
10002e30:	bc08      	pop	{r3}
10002e32:	b002      	add	sp, #8
10002e34:	4718      	bx	r3
10002e36:	46c0      	nop			; (mov r8, r8)
10002e38:	10001815 	.word	0x10001815

10002e3c <vfctprintf>:
10002e3c:	b500      	push	{lr}
10002e3e:	b085      	sub	sp, #20
10002e40:	9103      	str	r1, [sp, #12]
10002e42:	2101      	movs	r1, #1
10002e44:	9002      	str	r0, [sp, #8]
10002e46:	9300      	str	r3, [sp, #0]
10002e48:	4803      	ldr	r0, [pc, #12]	; (10002e58 <vfctprintf+0x1c>)
10002e4a:	0013      	movs	r3, r2
10002e4c:	424a      	negs	r2, r1
10002e4e:	a902      	add	r1, sp, #8
10002e50:	f7ff fa5c 	bl	1000230c <_vsnprintf>
10002e54:	b005      	add	sp, #20
10002e56:	bd00      	pop	{pc}
10002e58:	10001ad1 	.word	0x10001ad1

10002e5c <weak_raw_vprintf>:
10002e5c:	b510      	push	{r4, lr}
10002e5e:	4a09      	ldr	r2, [pc, #36]	; (10002e84 <weak_raw_vprintf+0x28>)
10002e60:	0003      	movs	r3, r0
10002e62:	6814      	ldr	r4, [r2, #0]
10002e64:	b084      	sub	sp, #16
10002e66:	2c00      	cmp	r4, #0
10002e68:	d008      	beq.n	10002e7c <weak_raw_vprintf+0x20>
10002e6a:	2201      	movs	r2, #1
10002e6c:	9100      	str	r1, [sp, #0]
10002e6e:	4806      	ldr	r0, [pc, #24]	; (10002e88 <weak_raw_vprintf+0x2c>)
10002e70:	4252      	negs	r2, r2
10002e72:	a903      	add	r1, sp, #12
10002e74:	47a0      	blx	r4
10002e76:	2001      	movs	r0, #1
10002e78:	b004      	add	sp, #16
10002e7a:	bd10      	pop	{r4, pc}
10002e7c:	f001 f832 	bl	10003ee4 <__wrap_puts>
10002e80:	2000      	movs	r0, #0
10002e82:	e7f9      	b.n	10002e78 <weak_raw_vprintf+0x1c>
10002e84:	20000b08 	.word	0x20000b08
10002e88:	10001ac1 	.word	0x10001ac1

10002e8c <__aeabi_bits_init>:
10002e8c:	4801      	ldr	r0, [pc, #4]	; (10002e94 <__aeabi_bits_init+0x8>)
10002e8e:	2104      	movs	r1, #4
10002e90:	4b01      	ldr	r3, [pc, #4]	; (10002e98 <__aeabi_bits_init+0xc>)
10002e92:	4718      	bx	r3
10002e94:	200001e0 	.word	0x200001e0
10002e98:	10002ebd 	.word	0x10002ebd

10002e9c <rom_func_lookup>:
10002e9c:	2314      	movs	r3, #20
10002e9e:	b510      	push	{r4, lr}
10002ea0:	0001      	movs	r1, r0
10002ea2:	8818      	ldrh	r0, [r3, #0]
10002ea4:	3304      	adds	r3, #4
10002ea6:	881b      	ldrh	r3, [r3, #0]
10002ea8:	4798      	blx	r3
10002eaa:	bd10      	pop	{r4, pc}

10002eac <rom_data_lookup>:
10002eac:	2316      	movs	r3, #22
10002eae:	b510      	push	{r4, lr}
10002eb0:	0001      	movs	r1, r0
10002eb2:	8818      	ldrh	r0, [r3, #0]
10002eb4:	3302      	adds	r3, #2
10002eb6:	881b      	ldrh	r3, [r3, #0]
10002eb8:	4798      	blx	r3
10002eba:	bd10      	pop	{r4, pc}

10002ebc <rom_funcs_lookup>:
10002ebc:	b5f0      	push	{r4, r5, r6, r7, lr}
10002ebe:	46c6      	mov	lr, r8
10002ec0:	b500      	push	{lr}
10002ec2:	2900      	cmp	r1, #0
10002ec4:	d016      	beq.n	10002ef4 <rom_funcs_lookup+0x38>
10002ec6:	2314      	movs	r3, #20
10002ec8:	0004      	movs	r4, r0
10002eca:	2501      	movs	r5, #1
10002ecc:	4698      	mov	r8, r3
10002ece:	2718      	movs	r7, #24
10002ed0:	0089      	lsls	r1, r1, #2
10002ed2:	1846      	adds	r6, r0, r1
10002ed4:	4643      	mov	r3, r8
10002ed6:	6821      	ldr	r1, [r4, #0]
10002ed8:	8818      	ldrh	r0, [r3, #0]
10002eda:	883b      	ldrh	r3, [r7, #0]
10002edc:	4798      	blx	r3
10002ede:	c401      	stmia	r4!, {r0}
10002ee0:	1e43      	subs	r3, r0, #1
10002ee2:	4198      	sbcs	r0, r3
10002ee4:	4240      	negs	r0, r0
10002ee6:	4005      	ands	r5, r0
10002ee8:	42a6      	cmp	r6, r4
10002eea:	d1f3      	bne.n	10002ed4 <rom_funcs_lookup+0x18>
10002eec:	0028      	movs	r0, r5
10002eee:	bc04      	pop	{r2}
10002ef0:	4690      	mov	r8, r2
10002ef2:	bdf0      	pop	{r4, r5, r6, r7, pc}
10002ef4:	2501      	movs	r5, #1
10002ef6:	e7f9      	b.n	10002eec <rom_funcs_lookup+0x30>

10002ef8 <__wrap___aeabi_idiv>:
10002ef8:	4a14      	ldr	r2, [pc, #80]	; (10002f4c <divmod_s32s32_savestate+0x20>)
10002efa:	6f93      	ldr	r3, [r2, #120]	; 0x78
10002efc:	089b      	lsrs	r3, r3, #2
10002efe:	d215      	bcs.n	10002f2c <divmod_s32s32_savestate>

10002f00 <divmod_s32s32_unsafe>:
10002f00:	6690      	str	r0, [r2, #104]	; 0x68
10002f02:	66d1      	str	r1, [r2, #108]	; 0x6c
10002f04:	2900      	cmp	r1, #0
10002f06:	d005      	beq.n	10002f14 <divmod_s32s32_unsafe+0x14>
10002f08:	e7ff      	b.n	10002f0a <divmod_s32s32_unsafe+0xa>
10002f0a:	e7ff      	b.n	10002f0c <divmod_s32s32_unsafe+0xc>
10002f0c:	e7ff      	b.n	10002f0e <divmod_s32s32_unsafe+0xe>
10002f0e:	6f51      	ldr	r1, [r2, #116]	; 0x74
10002f10:	6f10      	ldr	r0, [r2, #112]	; 0x70
10002f12:	4770      	bx	lr
10002f14:	b504      	push	{r2, lr}
10002f16:	2180      	movs	r1, #128	; 0x80
10002f18:	0609      	lsls	r1, r1, #24
10002f1a:	17c2      	asrs	r2, r0, #31
10002f1c:	4051      	eors	r1, r2
10002f1e:	2800      	cmp	r0, #0
10002f20:	d000      	beq.n	10002f24 <divmod_s32s32_unsafe+0x24>
10002f22:	43c8      	mvns	r0, r1
10002f24:	f001 ff14 	bl	10004d50 <____aeabi_idiv0_veneer>
10002f28:	2100      	movs	r1, #0
10002f2a:	bd04      	pop	{r2, pc}

10002f2c <divmod_s32s32_savestate>:
10002f2c:	6f93      	ldr	r3, [r2, #120]	; 0x78
10002f2e:	085b      	lsrs	r3, r3, #1
10002f30:	d3fd      	bcc.n	10002f2e <divmod_s32s32_savestate+0x2>
10002f32:	b5f0      	push	{r4, r5, r6, r7, lr}
10002f34:	6e94      	ldr	r4, [r2, #104]	; 0x68
10002f36:	6ed5      	ldr	r5, [r2, #108]	; 0x6c
10002f38:	6f57      	ldr	r7, [r2, #116]	; 0x74
10002f3a:	6f16      	ldr	r6, [r2, #112]	; 0x70
10002f3c:	f7ff ffe0 	bl	10002f00 <divmod_s32s32_unsafe>
10002f40:	6694      	str	r4, [r2, #104]	; 0x68
10002f42:	66d5      	str	r5, [r2, #108]	; 0x6c
10002f44:	6757      	str	r7, [r2, #116]	; 0x74
10002f46:	6716      	str	r6, [r2, #112]	; 0x70
10002f48:	bdf0      	pop	{r4, r5, r6, r7, pc}
10002f4a:	0000      	.short	0x0000
10002f4c:	d0000000 	.word	0xd0000000

10002f50 <__wrap___aeabi_uidiv>:
10002f50:	4a13      	ldr	r2, [pc, #76]	; (10002fa0 <divmod_u32u32_savestate+0x20>)
10002f52:	6f93      	ldr	r3, [r2, #120]	; 0x78
10002f54:	089b      	lsrs	r3, r3, #2
10002f56:	d213      	bcs.n	10002f80 <divmod_u32u32_savestate>

10002f58 <divmod_u32u32_unsafe>:
10002f58:	6610      	str	r0, [r2, #96]	; 0x60
10002f5a:	6651      	str	r1, [r2, #100]	; 0x64
10002f5c:	2900      	cmp	r1, #0
10002f5e:	d005      	beq.n	10002f6c <divmod_u32u32_unsafe+0x14>
10002f60:	e7ff      	b.n	10002f62 <divmod_u32u32_unsafe+0xa>
10002f62:	e7ff      	b.n	10002f64 <divmod_u32u32_unsafe+0xc>
10002f64:	e7ff      	b.n	10002f66 <divmod_u32u32_unsafe+0xe>
10002f66:	6f51      	ldr	r1, [r2, #116]	; 0x74
10002f68:	6f10      	ldr	r0, [r2, #112]	; 0x70
10002f6a:	4770      	bx	lr
10002f6c:	b504      	push	{r2, lr}
10002f6e:	2800      	cmp	r0, #0
10002f70:	d001      	beq.n	10002f76 <divmod_u32u32_unsafe+0x1e>
10002f72:	2000      	movs	r0, #0
10002f74:	43c0      	mvns	r0, r0
10002f76:	f001 feeb 	bl	10004d50 <____aeabi_idiv0_veneer>
10002f7a:	2100      	movs	r1, #0
10002f7c:	bd04      	pop	{r2, pc}
10002f7e:	46c0      	nop			; (mov r8, r8)

10002f80 <divmod_u32u32_savestate>:
10002f80:	6f93      	ldr	r3, [r2, #120]	; 0x78
10002f82:	085b      	lsrs	r3, r3, #1
10002f84:	d3fd      	bcc.n	10002f82 <divmod_u32u32_savestate+0x2>
10002f86:	b5f0      	push	{r4, r5, r6, r7, lr}
10002f88:	6e94      	ldr	r4, [r2, #104]	; 0x68
10002f8a:	6ed5      	ldr	r5, [r2, #108]	; 0x6c
10002f8c:	6f57      	ldr	r7, [r2, #116]	; 0x74
10002f8e:	6f16      	ldr	r6, [r2, #112]	; 0x70
10002f90:	f7ff ffe2 	bl	10002f58 <divmod_u32u32_unsafe>
10002f94:	6694      	str	r4, [r2, #104]	; 0x68
10002f96:	66d5      	str	r5, [r2, #108]	; 0x6c
10002f98:	6757      	str	r7, [r2, #116]	; 0x74
10002f9a:	6716      	str	r6, [r2, #112]	; 0x70
10002f9c:	bdf0      	pop	{r4, r5, r6, r7, pc}
10002f9e:	0000      	.short	0x0000
10002fa0:	d0000000 	.word	0xd0000000

10002fa4 <__wrap___aeabi_ldivmod>:
10002fa4:	4694      	mov	ip, r2
10002fa6:	4a4e      	ldr	r2, [pc, #312]	; (100030e0 <udiv0+0x1a>)
10002fa8:	6f92      	ldr	r2, [r2, #120]	; 0x78
10002faa:	0892      	lsrs	r2, r2, #2
10002fac:	4662      	mov	r2, ip
10002fae:	d201      	bcs.n	10002fb4 <divmod_s64s64_savestate>
10002fb0:	e030      	b.n	10003014 <divmod_s64s64_unsafe>
10002fb2:	46c0      	nop			; (mov r8, r8)

10002fb4 <divmod_s64s64_savestate>:
10002fb4:	b5f0      	push	{r4, r5, r6, r7, lr}
10002fb6:	4e4a      	ldr	r6, [pc, #296]	; (100030e0 <udiv0+0x1a>)
10002fb8:	6fb5      	ldr	r5, [r6, #120]	; 0x78
10002fba:	086d      	lsrs	r5, r5, #1
10002fbc:	d3fc      	bcc.n	10002fb8 <divmod_s64s64_savestate+0x4>
10002fbe:	6e34      	ldr	r4, [r6, #96]	; 0x60
10002fc0:	6e75      	ldr	r5, [r6, #100]	; 0x64
10002fc2:	6f77      	ldr	r7, [r6, #116]	; 0x74
10002fc4:	6f36      	ldr	r6, [r6, #112]	; 0x70
10002fc6:	f000 f825 	bl	10003014 <divmod_s64s64_unsafe>
10002fca:	4694      	mov	ip, r2
10002fcc:	4a44      	ldr	r2, [pc, #272]	; (100030e0 <udiv0+0x1a>)
10002fce:	6614      	str	r4, [r2, #96]	; 0x60
10002fd0:	6655      	str	r5, [r2, #100]	; 0x64
10002fd2:	6757      	str	r7, [r2, #116]	; 0x74
10002fd4:	6716      	str	r6, [r2, #112]	; 0x70
10002fd6:	4662      	mov	r2, ip
10002fd8:	bdf0      	pop	{r4, r5, r6, r7, pc}
10002fda:	46c0      	nop			; (mov r8, r8)

10002fdc <__wrap___aeabi_uldivmod>:
10002fdc:	4694      	mov	ip, r2
10002fde:	4a40      	ldr	r2, [pc, #256]	; (100030e0 <udiv0+0x1a>)
10002fe0:	6f92      	ldr	r2, [r2, #120]	; 0x78
10002fe2:	0892      	lsrs	r2, r2, #2
10002fe4:	4662      	mov	r2, ip
10002fe6:	d201      	bcs.n	10002fec <divmod_u64u64_savestate>
10002fe8:	e058      	b.n	1000309c <divmod_u64u64_unsafe>
10002fea:	46c0      	nop			; (mov r8, r8)

10002fec <divmod_u64u64_savestate>:
10002fec:	b5f0      	push	{r4, r5, r6, r7, lr}
10002fee:	4e3c      	ldr	r6, [pc, #240]	; (100030e0 <udiv0+0x1a>)
10002ff0:	6fb5      	ldr	r5, [r6, #120]	; 0x78
10002ff2:	086d      	lsrs	r5, r5, #1
10002ff4:	d3fc      	bcc.n	10002ff0 <divmod_u64u64_savestate+0x4>
10002ff6:	6e34      	ldr	r4, [r6, #96]	; 0x60
10002ff8:	6e75      	ldr	r5, [r6, #100]	; 0x64
10002ffa:	6f77      	ldr	r7, [r6, #116]	; 0x74
10002ffc:	6f36      	ldr	r6, [r6, #112]	; 0x70
10002ffe:	f000 f84d 	bl	1000309c <divmod_u64u64_unsafe>
10003002:	4694      	mov	ip, r2
10003004:	4a36      	ldr	r2, [pc, #216]	; (100030e0 <udiv0+0x1a>)
10003006:	6614      	str	r4, [r2, #96]	; 0x60
10003008:	6655      	str	r5, [r2, #100]	; 0x64
1000300a:	6757      	str	r7, [r2, #116]	; 0x74
1000300c:	6716      	str	r6, [r2, #112]	; 0x70
1000300e:	4662      	mov	r2, ip
10003010:	bdf0      	pop	{r4, r5, r6, r7, pc}
10003012:	46c0      	nop			; (mov r8, r8)

10003014 <divmod_s64s64_unsafe>:
10003014:	2b00      	cmp	r3, #0
10003016:	db24      	blt.n	10003062 <l41_1+0x26>
10003018:	d011      	beq.n	1000303e <l41_1+0x2>
1000301a:	2900      	cmp	r1, #0
1000301c:	da3e      	bge.n	1000309c <divmod_u64u64_unsafe>
1000301e:	b500      	push	{lr}
10003020:	43c9      	mvns	r1, r1
10003022:	4240      	negs	r0, r0
10003024:	d100      	bne.n	10003028 <l39_1>
10003026:	3101      	adds	r1, #1

10003028 <l39_1>:
10003028:	f000 f838 	bl	1000309c <divmod_u64u64_unsafe>
1000302c:	43c9      	mvns	r1, r1
1000302e:	4240      	negs	r0, r0
10003030:	d100      	bne.n	10003034 <l40_1>
10003032:	3101      	adds	r1, #1

10003034 <l40_1>:
10003034:	43db      	mvns	r3, r3
10003036:	4252      	negs	r2, r2
10003038:	d100      	bne.n	1000303c <l41_1>
1000303a:	3301      	adds	r3, #1

1000303c <l41_1>:
1000303c:	bd00      	pop	{pc}
1000303e:	2a00      	cmp	r2, #0
10003040:	d1eb      	bne.n	1000301a <divmod_s64s64_unsafe+0x6>
10003042:	2800      	cmp	r0, #0
10003044:	d101      	bne.n	1000304a <l41_1+0xe>
10003046:	2900      	cmp	r1, #0
10003048:	d005      	beq.n	10003056 <l41_1+0x1a>
1000304a:	2000      	movs	r0, #0
1000304c:	0fc9      	lsrs	r1, r1, #31
1000304e:	07c9      	lsls	r1, r1, #31
10003050:	d101      	bne.n	10003056 <l41_1+0x1a>
10003052:	43c0      	mvns	r0, r0
10003054:	0841      	lsrs	r1, r0, #1
10003056:	b500      	push	{lr}
10003058:	f001 fe72 	bl	10004d40 <____aeabi_ldiv0_veneer>
1000305c:	2200      	movs	r2, #0
1000305e:	2300      	movs	r3, #0
10003060:	bd00      	pop	{pc}
10003062:	b500      	push	{lr}
10003064:	2900      	cmp	r1, #0
10003066:	db0a      	blt.n	1000307e <l43_1+0x2>
10003068:	43db      	mvns	r3, r3
1000306a:	4252      	negs	r2, r2
1000306c:	d100      	bne.n	10003070 <l42_1>
1000306e:	3301      	adds	r3, #1

10003070 <l42_1>:
10003070:	f000 f814 	bl	1000309c <divmod_u64u64_unsafe>
10003074:	43c9      	mvns	r1, r1
10003076:	4240      	negs	r0, r0
10003078:	d100      	bne.n	1000307c <l43_1>
1000307a:	3101      	adds	r1, #1

1000307c <l43_1>:
1000307c:	bd00      	pop	{pc}
1000307e:	43c9      	mvns	r1, r1
10003080:	4240      	negs	r0, r0
10003082:	d100      	bne.n	10003086 <l44_1>
10003084:	3101      	adds	r1, #1

10003086 <l44_1>:
10003086:	43db      	mvns	r3, r3
10003088:	4252      	negs	r2, r2
1000308a:	d100      	bne.n	1000308e <l45_1>
1000308c:	3301      	adds	r3, #1

1000308e <l45_1>:
1000308e:	f000 f805 	bl	1000309c <divmod_u64u64_unsafe>
10003092:	43db      	mvns	r3, r3
10003094:	4252      	negs	r2, r2
10003096:	d100      	bne.n	1000309a <l46_1>
10003098:	3301      	adds	r3, #1

1000309a <l46_1>:
1000309a:	bd00      	pop	{pc}

1000309c <divmod_u64u64_unsafe>:
1000309c:	2900      	cmp	r1, #0
1000309e:	d123      	bne.n	100030e8 <y64>
100030a0:	2b00      	cmp	r3, #0
100030a2:	d118      	bne.n	100030d6 <udiv0+0x10>
100030a4:	2a00      	cmp	r2, #0
100030a6:	d00c      	beq.n	100030c2 <divmod_u64u64_unsafe+0x26>
100030a8:	46bc      	mov	ip, r7
100030aa:	4f0d      	ldr	r7, [pc, #52]	; (100030e0 <udiv0+0x1a>)
100030ac:	6638      	str	r0, [r7, #96]	; 0x60
100030ae:	667a      	str	r2, [r7, #100]	; 0x64
100030b0:	2100      	movs	r1, #0
100030b2:	2300      	movs	r3, #0
100030b4:	e7ff      	b.n	100030b6 <divmod_u64u64_unsafe+0x1a>
100030b6:	e7ff      	b.n	100030b8 <divmod_u64u64_unsafe+0x1c>
100030b8:	e7ff      	b.n	100030ba <divmod_u64u64_unsafe+0x1e>
100030ba:	6f7a      	ldr	r2, [r7, #116]	; 0x74
100030bc:	6f38      	ldr	r0, [r7, #112]	; 0x70
100030be:	4667      	mov	r7, ip
100030c0:	4770      	bx	lr
100030c2:	2800      	cmp	r0, #0
100030c4:	d001      	beq.n	100030ca <udiv0+0x4>

100030c6 <udiv0>:
100030c6:	4807      	ldr	r0, [pc, #28]	; (100030e4 <udiv0+0x1e>)
100030c8:	0001      	movs	r1, r0
100030ca:	b500      	push	{lr}
100030cc:	f001 fe38 	bl	10004d40 <____aeabi_ldiv0_veneer>
100030d0:	2200      	movs	r2, #0
100030d2:	2300      	movs	r3, #0
100030d4:	bd00      	pop	{pc}
100030d6:	0002      	movs	r2, r0
100030d8:	000b      	movs	r3, r1
100030da:	2000      	movs	r0, #0
100030dc:	2100      	movs	r1, #0
100030de:	4770      	bx	lr
100030e0:	d0000000 	.word	0xd0000000
100030e4:	ffffffff 	.word	0xffffffff

100030e8 <y64>:
100030e8:	2b00      	cmp	r3, #0
100030ea:	d000      	beq.n	100030ee <y64+0x6>
100030ec:	e0bd      	b.n	1000326a <y64_x48>
100030ee:	0c13      	lsrs	r3, r2, #16
100030f0:	d126      	bne.n	10003140 <y64_x32>
100030f2:	2a00      	cmp	r2, #0
100030f4:	d0e7      	beq.n	100030c6 <udiv0>
100030f6:	b480      	push	{r7}
100030f8:	4f10      	ldr	r7, [pc, #64]	; (1000313c <y64+0x54>)
100030fa:	6639      	str	r1, [r7, #96]	; 0x60
100030fc:	667a      	str	r2, [r7, #100]	; 0x64
100030fe:	e7ff      	b.n	10003100 <y64+0x18>
10003100:	e7ff      	b.n	10003102 <y64+0x1a>
10003102:	b430      	push	{r4, r5}
10003104:	0c04      	lsrs	r4, r0, #16
10003106:	6f7b      	ldr	r3, [r7, #116]	; 0x74
10003108:	6f39      	ldr	r1, [r7, #112]	; 0x70
1000310a:	041b      	lsls	r3, r3, #16
1000310c:	4323      	orrs	r3, r4
1000310e:	663b      	str	r3, [r7, #96]	; 0x60
10003110:	e7ff      	b.n	10003112 <y64+0x2a>
10003112:	e7ff      	b.n	10003114 <y64+0x2c>
10003114:	e7ff      	b.n	10003116 <y64+0x2e>
10003116:	46c0      	nop			; (mov r8, r8)
10003118:	b284      	uxth	r4, r0
1000311a:	6f7b      	ldr	r3, [r7, #116]	; 0x74
1000311c:	6f3d      	ldr	r5, [r7, #112]	; 0x70
1000311e:	041b      	lsls	r3, r3, #16
10003120:	4323      	orrs	r3, r4
10003122:	663b      	str	r3, [r7, #96]	; 0x60
10003124:	e7ff      	b.n	10003126 <y64+0x3e>
10003126:	e7ff      	b.n	10003128 <y64+0x40>
10003128:	46c0      	nop			; (mov r8, r8)
1000312a:	2300      	movs	r3, #0
1000312c:	042c      	lsls	r4, r5, #16
1000312e:	0c2d      	lsrs	r5, r5, #16
10003130:	6f7a      	ldr	r2, [r7, #116]	; 0x74
10003132:	6f38      	ldr	r0, [r7, #112]	; 0x70
10003134:	1900      	adds	r0, r0, r4
10003136:	4169      	adcs	r1, r5
10003138:	bcb0      	pop	{r4, r5, r7}
1000313a:	4770      	bx	lr
1000313c:	d0000000 	.word	0xd0000000

10003140 <y64_x32>:
10003140:	b5f0      	push	{r4, r5, r6, r7, lr}
10003142:	4694      	mov	ip, r2
10003144:	2500      	movs	r5, #0
10003146:	0e14      	lsrs	r4, r2, #24
10003148:	d101      	bne.n	1000314e <y64_x32+0xe>
1000314a:	0212      	lsls	r2, r2, #8
1000314c:	3508      	adds	r5, #8
1000314e:	0f14      	lsrs	r4, r2, #28
10003150:	d101      	bne.n	10003156 <y64_x32+0x16>
10003152:	0112      	lsls	r2, r2, #4
10003154:	3504      	adds	r5, #4
10003156:	0f94      	lsrs	r4, r2, #30
10003158:	d101      	bne.n	1000315e <y64_x32+0x1e>
1000315a:	0092      	lsls	r2, r2, #2
1000315c:	3502      	adds	r5, #2
1000315e:	0fd4      	lsrs	r4, r2, #31
10003160:	d101      	bne.n	10003166 <y64_x32+0x26>
10003162:	0052      	lsls	r2, r2, #1
10003164:	3501      	adds	r5, #1
10003166:	0bd4      	lsrs	r4, r2, #15
10003168:	3401      	adds	r4, #1
1000316a:	4f25      	ldr	r7, [pc, #148]	; (10003200 <y64_x32+0xc0>)
1000316c:	667c      	str	r4, [r7, #100]	; 0x64
1000316e:	4c25      	ldr	r4, [pc, #148]	; (10003204 <y64_x32+0xc4>)
10003170:	663c      	str	r4, [r7, #96]	; 0x60
10003172:	0c0e      	lsrs	r6, r1, #16
10003174:	b293      	uxth	r3, r2
10003176:	e7ff      	b.n	10003178 <y64_x32+0x38>
10003178:	e7ff      	b.n	1000317a <y64_x32+0x3a>
1000317a:	e7ff      	b.n	1000317c <y64_x32+0x3c>
1000317c:	6f3c      	ldr	r4, [r7, #112]	; 0x70
1000317e:	4366      	muls	r6, r4
10003180:	0c36      	lsrs	r6, r6, #16
10003182:	0377      	lsls	r7, r6, #13
10003184:	46be      	mov	lr, r7
10003186:	4373      	muls	r3, r6
10003188:	0bdf      	lsrs	r7, r3, #15
1000318a:	045b      	lsls	r3, r3, #17
1000318c:	1ac0      	subs	r0, r0, r3
1000318e:	41b9      	sbcs	r1, r7
10003190:	0c13      	lsrs	r3, r2, #16
10003192:	4373      	muls	r3, r6
10003194:	18db      	adds	r3, r3, r3
10003196:	1ac9      	subs	r1, r1, r3
10003198:	08ce      	lsrs	r6, r1, #3
1000319a:	4366      	muls	r6, r4
1000319c:	0c36      	lsrs	r6, r6, #16
1000319e:	44b6      	add	lr, r6
100031a0:	b293      	uxth	r3, r2
100031a2:	4373      	muls	r3, r6
100031a4:	0f1f      	lsrs	r7, r3, #28
100031a6:	011b      	lsls	r3, r3, #4
100031a8:	1ac0      	subs	r0, r0, r3
100031aa:	41b9      	sbcs	r1, r7
100031ac:	0c13      	lsrs	r3, r2, #16
100031ae:	4373      	muls	r3, r6
100031b0:	0b1f      	lsrs	r7, r3, #12
100031b2:	051b      	lsls	r3, r3, #20
100031b4:	1ac0      	subs	r0, r0, r3
100031b6:	41b9      	sbcs	r1, r7
100031b8:	0d86      	lsrs	r6, r0, #22
100031ba:	028f      	lsls	r7, r1, #10
100031bc:	433e      	orrs	r6, r7
100031be:	4366      	muls	r6, r4
100031c0:	0c36      	lsrs	r6, r6, #16
100031c2:	2d09      	cmp	r5, #9
100031c4:	db24      	blt.n	10003210 <last0>
100031c6:	0a52      	lsrs	r2, r2, #9
100031c8:	4372      	muls	r2, r6
100031ca:	1a80      	subs	r0, r0, r2
100031cc:	0377      	lsls	r7, r6, #13
100031ce:	0a46      	lsrs	r6, r0, #9
100031d0:	4366      	muls	r6, r4
100031d2:	0c36      	lsrs	r6, r6, #16
100031d4:	2316      	movs	r3, #22
100031d6:	1b5b      	subs	r3, r3, r5
100031d8:	40de      	lsrs	r6, r3
100031da:	40df      	lsrs	r7, r3
100031dc:	19bf      	adds	r7, r7, r6
100031de:	4664      	mov	r4, ip
100031e0:	4366      	muls	r6, r4
100031e2:	1b82      	subs	r2, r0, r6
100031e4:	4670      	mov	r0, lr
100031e6:	3504      	adds	r5, #4
100031e8:	3306      	adds	r3, #6
100031ea:	0001      	movs	r1, r0
100031ec:	40d9      	lsrs	r1, r3
100031ee:	40a8      	lsls	r0, r5
100031f0:	19c0      	adds	r0, r0, r7
100031f2:	d300      	bcc.n	100031f6 <y64_x32+0xb6>
100031f4:	3101      	adds	r1, #1
100031f6:	42a2      	cmp	r2, r4
100031f8:	d206      	bcs.n	10003208 <y64_x32+0xc8>
100031fa:	2300      	movs	r3, #0
100031fc:	bdf0      	pop	{r4, r5, r6, r7, pc}
100031fe:	0000      	.short	0x0000
10003200:	d0000000 	.word	0xd0000000
10003204:	ffffffff 	.word	0xffffffff
10003208:	1b12      	subs	r2, r2, r4
1000320a:	3001      	adds	r0, #1
1000320c:	d3f3      	bcc.n	100031f6 <y64_x32+0xb6>
1000320e:	e7f1      	b.n	100031f4 <y64_x32+0xb4>

10003210 <last0>:
10003210:	2709      	movs	r7, #9
10003212:	1b7f      	subs	r7, r7, r5
10003214:	40fe      	lsrs	r6, r7
10003216:	4664      	mov	r4, ip
10003218:	b2a2      	uxth	r2, r4
1000321a:	4372      	muls	r2, r6
1000321c:	1a80      	subs	r0, r0, r2
1000321e:	d200      	bcs.n	10003222 <last0+0x12>
10003220:	3901      	subs	r1, #1
10003222:	0c22      	lsrs	r2, r4, #16
10003224:	4372      	muls	r2, r6
10003226:	0c13      	lsrs	r3, r2, #16
10003228:	0412      	lsls	r2, r2, #16
1000322a:	1a82      	subs	r2, r0, r2
1000322c:	4199      	sbcs	r1, r3
1000322e:	000b      	movs	r3, r1
10003230:	4670      	mov	r0, lr
10003232:	3504      	adds	r5, #4
10003234:	3713      	adds	r7, #19
10003236:	0001      	movs	r1, r0
10003238:	40f9      	lsrs	r1, r7
1000323a:	40a8      	lsls	r0, r5
1000323c:	1980      	adds	r0, r0, r6
1000323e:	d300      	bcc.n	10003242 <last0+0x32>
10003240:	3101      	adds	r1, #1
10003242:	2b00      	cmp	r3, #0
10003244:	d102      	bne.n	1000324c <last0+0x3c>
10003246:	42a2      	cmp	r2, r4
10003248:	d20a      	bcs.n	10003260 <last0+0x50>
1000324a:	bdf0      	pop	{r4, r5, r6, r7, pc}
1000324c:	3001      	adds	r0, #1
1000324e:	d300      	bcc.n	10003252 <last0+0x42>
10003250:	3101      	adds	r1, #1
10003252:	1b12      	subs	r2, r2, r4
10003254:	d2fa      	bcs.n	1000324c <last0+0x3c>
10003256:	3b01      	subs	r3, #1
10003258:	d1f8      	bne.n	1000324c <last0+0x3c>
1000325a:	42a2      	cmp	r2, r4
1000325c:	d200      	bcs.n	10003260 <last0+0x50>
1000325e:	bdf0      	pop	{r4, r5, r6, r7, pc}
10003260:	3001      	adds	r0, #1
10003262:	d300      	bcc.n	10003266 <last0+0x56>
10003264:	3101      	adds	r1, #1
10003266:	1b12      	subs	r2, r2, r4
10003268:	e7f7      	b.n	1000325a <last0+0x4a>

1000326a <y64_x48>:
1000326a:	b5f0      	push	{r4, r5, r6, r7, lr}
1000326c:	0c1c      	lsrs	r4, r3, #16
1000326e:	d000      	beq.n	10003272 <y64_x48+0x8>
10003270:	e080      	b.n	10003374 <y64_x64>
10003272:	b40c      	push	{r2, r3}
10003274:	2500      	movs	r5, #0
10003276:	0a1c      	lsrs	r4, r3, #8
10003278:	d104      	bne.n	10003284 <y64_x48+0x1a>
1000327a:	021b      	lsls	r3, r3, #8
1000327c:	0e16      	lsrs	r6, r2, #24
1000327e:	4333      	orrs	r3, r6
10003280:	0212      	lsls	r2, r2, #8
10003282:	3508      	adds	r5, #8
10003284:	0b1c      	lsrs	r4, r3, #12
10003286:	d104      	bne.n	10003292 <y64_x48+0x28>
10003288:	011b      	lsls	r3, r3, #4
1000328a:	0f16      	lsrs	r6, r2, #28
1000328c:	4333      	orrs	r3, r6
1000328e:	0112      	lsls	r2, r2, #4
10003290:	3504      	adds	r5, #4
10003292:	0b9c      	lsrs	r4, r3, #14
10003294:	d104      	bne.n	100032a0 <y64_x48+0x36>
10003296:	009b      	lsls	r3, r3, #2
10003298:	0f96      	lsrs	r6, r2, #30
1000329a:	4333      	orrs	r3, r6
1000329c:	0092      	lsls	r2, r2, #2
1000329e:	3502      	adds	r5, #2
100032a0:	0bdc      	lsrs	r4, r3, #15
100032a2:	d102      	bne.n	100032aa <y64_x48+0x40>
100032a4:	1892      	adds	r2, r2, r2
100032a6:	415b      	adcs	r3, r3
100032a8:	3501      	adds	r5, #1
100032aa:	001c      	movs	r4, r3
100032ac:	1897      	adds	r7, r2, r2
100032ae:	4164      	adcs	r4, r4
100032b0:	3401      	adds	r4, #1
100032b2:	4f46      	ldr	r7, [pc, #280]	; (100033cc <y64_x64+0x58>)
100032b4:	667c      	str	r4, [r7, #100]	; 0x64
100032b6:	4c46      	ldr	r4, [pc, #280]	; (100033d0 <y64_x64+0x5c>)
100032b8:	663c      	str	r4, [r7, #96]	; 0x60
100032ba:	0c0e      	lsrs	r6, r1, #16
100032bc:	e7ff      	b.n	100032be <y64_x48+0x54>
100032be:	e7ff      	b.n	100032c0 <y64_x48+0x56>
100032c0:	e7ff      	b.n	100032c2 <y64_x48+0x58>
100032c2:	46c0      	nop			; (mov r8, r8)
100032c4:	6f3c      	ldr	r4, [r7, #112]	; 0x70
100032c6:	4366      	muls	r6, r4
100032c8:	0c36      	lsrs	r6, r6, #16
100032ca:	0377      	lsls	r7, r6, #13
100032cc:	46be      	mov	lr, r7
100032ce:	b297      	uxth	r7, r2
100032d0:	4377      	muls	r7, r6
100032d2:	1bc0      	subs	r0, r0, r7
100032d4:	d200      	bcs.n	100032d8 <y64_x48+0x6e>
100032d6:	3901      	subs	r1, #1
100032d8:	1bc0      	subs	r0, r0, r7
100032da:	d200      	bcs.n	100032de <y64_x48+0x74>
100032dc:	3901      	subs	r1, #1
100032de:	b29f      	uxth	r7, r3
100032e0:	4377      	muls	r7, r6
100032e2:	1bc9      	subs	r1, r1, r7
100032e4:	1bc9      	subs	r1, r1, r7
100032e6:	0c17      	lsrs	r7, r2, #16
100032e8:	4377      	muls	r7, r6
100032ea:	047e      	lsls	r6, r7, #17
100032ec:	0bff      	lsrs	r7, r7, #15
100032ee:	1b80      	subs	r0, r0, r6
100032f0:	41b9      	sbcs	r1, r7
100032f2:	08ce      	lsrs	r6, r1, #3
100032f4:	4366      	muls	r6, r4
100032f6:	0c36      	lsrs	r6, r6, #16
100032f8:	2d0c      	cmp	r5, #12
100032fa:	db33      	blt.n	10003364 <last1>
100032fc:	44b6      	add	lr, r6
100032fe:	0b12      	lsrs	r2, r2, #12
10003300:	051f      	lsls	r7, r3, #20
10003302:	433a      	orrs	r2, r7
10003304:	0b1b      	lsrs	r3, r3, #12
10003306:	b297      	uxth	r7, r2
10003308:	4377      	muls	r7, r6
1000330a:	1bc0      	subs	r0, r0, r7
1000330c:	d200      	bcs.n	10003310 <y64_x48+0xa6>
1000330e:	3901      	subs	r1, #1
10003310:	b29f      	uxth	r7, r3
10003312:	4377      	muls	r7, r6
10003314:	1bc9      	subs	r1, r1, r7
10003316:	0c17      	lsrs	r7, r2, #16
10003318:	4377      	muls	r7, r6
1000331a:	043e      	lsls	r6, r7, #16
1000331c:	0c3f      	lsrs	r7, r7, #16
1000331e:	1b80      	subs	r0, r0, r6
10003320:	41b9      	sbcs	r1, r7
10003322:	0d86      	lsrs	r6, r0, #22
10003324:	028f      	lsls	r7, r1, #10
10003326:	433e      	orrs	r6, r7
10003328:	4366      	muls	r6, r4
1000332a:	2729      	movs	r7, #41	; 0x29
1000332c:	1b7f      	subs	r7, r7, r5
1000332e:	40fe      	lsrs	r6, r7
10003330:	3d0c      	subs	r5, #12
10003332:	4677      	mov	r7, lr
10003334:	40af      	lsls	r7, r5
10003336:	19bf      	adds	r7, r7, r6
10003338:	bc30      	pop	{r4, r5}
1000333a:	b2a2      	uxth	r2, r4
1000333c:	b2ab      	uxth	r3, r5
1000333e:	4372      	muls	r2, r6
10003340:	4373      	muls	r3, r6
10003342:	1a80      	subs	r0, r0, r2
10003344:	4199      	sbcs	r1, r3
10003346:	0c22      	lsrs	r2, r4, #16
10003348:	4372      	muls	r2, r6
1000334a:	0c13      	lsrs	r3, r2, #16
1000334c:	0412      	lsls	r2, r2, #16
1000334e:	1a80      	subs	r0, r0, r2
10003350:	4199      	sbcs	r1, r3
10003352:	0002      	movs	r2, r0
10003354:	000b      	movs	r3, r1
10003356:	3701      	adds	r7, #1
10003358:	1b00      	subs	r0, r0, r4
1000335a:	41a9      	sbcs	r1, r5
1000335c:	d2f9      	bcs.n	10003352 <y64_x48+0xe8>
1000335e:	1e78      	subs	r0, r7, #1
10003360:	2100      	movs	r1, #0
10003362:	bdf0      	pop	{r4, r5, r6, r7, pc}

10003364 <last1>:
10003364:	270c      	movs	r7, #12
10003366:	1b7f      	subs	r7, r7, r5
10003368:	40fe      	lsrs	r6, r7
1000336a:	4677      	mov	r7, lr
1000336c:	0b7f      	lsrs	r7, r7, #13
1000336e:	40af      	lsls	r7, r5
10003370:	19ff      	adds	r7, r7, r7
10003372:	e7e0      	b.n	10003336 <y64_x48+0xcc>

10003374 <y64_x64>:
10003374:	2400      	movs	r4, #0
10003376:	1c5d      	adds	r5, r3, #1
10003378:	d007      	beq.n	1000338a <y64_x64+0x16>
1000337a:	4f14      	ldr	r7, [pc, #80]	; (100033cc <y64_x64+0x58>)
1000337c:	667d      	str	r5, [r7, #100]	; 0x64
1000337e:	6639      	str	r1, [r7, #96]	; 0x60
10003380:	e7ff      	b.n	10003382 <y64_x64+0xe>
10003382:	e7ff      	b.n	10003384 <y64_x64+0x10>
10003384:	e7ff      	b.n	10003386 <y64_x64+0x12>
10003386:	e7ff      	b.n	10003388 <y64_x64+0x14>
10003388:	6f3c      	ldr	r4, [r7, #112]	; 0x70
1000338a:	b295      	uxth	r5, r2
1000338c:	b29e      	uxth	r6, r3
1000338e:	4365      	muls	r5, r4
10003390:	4366      	muls	r6, r4
10003392:	1b40      	subs	r0, r0, r5
10003394:	41b1      	sbcs	r1, r6
10003396:	0c15      	lsrs	r5, r2, #16
10003398:	0c1e      	lsrs	r6, r3, #16
1000339a:	4365      	muls	r5, r4
1000339c:	4366      	muls	r6, r4
1000339e:	0436      	lsls	r6, r6, #16
100033a0:	0c2f      	lsrs	r7, r5, #16
100033a2:	433e      	orrs	r6, r7
100033a4:	042d      	lsls	r5, r5, #16
100033a6:	1b40      	subs	r0, r0, r5
100033a8:	41b1      	sbcs	r1, r6
100033aa:	4299      	cmp	r1, r3
100033ac:	d204      	bcs.n	100033b8 <y64_x64+0x44>
100033ae:	0002      	movs	r2, r0
100033b0:	000b      	movs	r3, r1
100033b2:	0020      	movs	r0, r4
100033b4:	2100      	movs	r1, #0
100033b6:	bdf0      	pop	{r4, r5, r6, r7, pc}
100033b8:	d101      	bne.n	100033be <y64_x64+0x4a>
100033ba:	4290      	cmp	r0, r2
100033bc:	d3f7      	bcc.n	100033ae <y64_x64+0x3a>
100033be:	1a80      	subs	r0, r0, r2
100033c0:	4199      	sbcs	r1, r3
100033c2:	3401      	adds	r4, #1
100033c4:	4299      	cmp	r1, r3
100033c6:	d3f2      	bcc.n	100033ae <y64_x64+0x3a>
100033c8:	e7f6      	b.n	100033b8 <y64_x64+0x44>
100033ca:	0000      	.short	0x0000
100033cc:	d0000000 	.word	0xd0000000
100033d0:	ffffffff 	.word	0xffffffff

100033d4 <__wrap___aeabi_drsub>:
100033d4:	4048      	eors	r0, r1
100033d6:	4041      	eors	r1, r0
100033d8:	4048      	eors	r0, r1

100033da <__wrap___aeabi_dsub>:
100033da:	b418      	push	{r3, r4}
100033dc:	4b11      	ldr	r3, [pc, #68]	; (10003424 <__wrap___aeabi_dmul+0x14>)
100033de:	685b      	ldr	r3, [r3, #4]
100033e0:	46fc      	mov	ip, pc
100033e2:	9301      	str	r3, [sp, #4]
100033e4:	bd08      	pop	{r3, pc}
100033e6:	df04      	.short	0xdf04
100033e8:	1000365f 	.word	0x1000365f

100033ec <__wrap___aeabi_dadd>:
100033ec:	b418      	push	{r3, r4}
100033ee:	4b0d      	ldr	r3, [pc, #52]	; (10003424 <__wrap___aeabi_dmul+0x14>)
100033f0:	681b      	ldr	r3, [r3, #0]
100033f2:	46fc      	mov	ip, pc
100033f4:	9301      	str	r3, [sp, #4]
100033f6:	bd08      	pop	{r3, pc}
100033f8:	3669df00 	.word	0x3669df00
100033fc:	1000      	.short	0x1000

100033fe <__wrap___aeabi_ddiv>:
100033fe:	b418      	push	{r3, r4}
10003400:	4b08      	ldr	r3, [pc, #32]	; (10003424 <__wrap___aeabi_dmul+0x14>)
10003402:	68db      	ldr	r3, [r3, #12]
10003404:	46fc      	mov	ip, pc
10003406:	9301      	str	r3, [sp, #4]
10003408:	bd08      	pop	{r3, pc}
1000340a:	df0c      	.short	0xdf0c
1000340c:	10003921 	.word	0x10003921

10003410 <__wrap___aeabi_dmul>:
10003410:	b418      	push	{r3, r4}
10003412:	4b04      	ldr	r3, [pc, #16]	; (10003424 <__wrap___aeabi_dmul+0x14>)
10003414:	689b      	ldr	r3, [r3, #8]
10003416:	46fc      	mov	ip, pc
10003418:	9301      	str	r3, [sp, #4]
1000341a:	bd08      	pop	{r3, pc}
1000341c:	37c5df08 	.word	0x37c5df08
10003420:	00001000 	.word	0x00001000
10003424:	20000b38 	.word	0x20000b38

10003428 <__wrap___aeabi_cdrcmple>:
10003428:	b5ff      	push	{r0, r1, r2, r3, r4, r5, r6, r7, lr}
1000342a:	4050      	eors	r0, r2
1000342c:	4042      	eors	r2, r0
1000342e:	4050      	eors	r0, r2
10003430:	4059      	eors	r1, r3
10003432:	404b      	eors	r3, r1
10003434:	4059      	eors	r1, r3
10003436:	e000      	b.n	1000343a <__aeabi_dfcmple_guts>

10003438 <__wrap___aeabi_cdcmpeq>:
10003438:	b5ff      	push	{r0, r1, r2, r3, r4, r5, r6, r7, lr}

1000343a <__aeabi_dfcmple_guts>:
1000343a:	4f15      	ldr	r7, [pc, #84]	; (10003490 <__aeabi_dfcmple_guts+0x56>)
1000343c:	004c      	lsls	r4, r1, #1
1000343e:	0d64      	lsrs	r4, r4, #21
10003440:	d003      	beq.n	1000344a <__aeabi_dfcmple_guts+0x10>
10003442:	42bc      	cmp	r4, r7
10003444:	d104      	bne.n	10003450 <__aeabi_dfcmple_guts+0x16>
10003446:	030c      	lsls	r4, r1, #12
10003448:	d814      	bhi.n	10003474 <__aeabi_dfcmple_guts+0x3a>
1000344a:	2000      	movs	r0, #0
1000344c:	0d09      	lsrs	r1, r1, #20
1000344e:	0509      	lsls	r1, r1, #20
10003450:	005c      	lsls	r4, r3, #1
10003452:	0d64      	lsrs	r4, r4, #21
10003454:	d003      	beq.n	1000345e <__aeabi_dfcmple_guts+0x24>
10003456:	42bc      	cmp	r4, r7
10003458:	d104      	bne.n	10003464 <__aeabi_dfcmple_guts+0x2a>
1000345a:	031c      	lsls	r4, r3, #12
1000345c:	d80a      	bhi.n	10003474 <__aeabi_dfcmple_guts+0x3a>
1000345e:	2200      	movs	r2, #0
10003460:	0d1b      	lsrs	r3, r3, #20
10003462:	051b      	lsls	r3, r3, #20
10003464:	2601      	movs	r6, #1
10003466:	404b      	eors	r3, r1
10003468:	d409      	bmi.n	1000347e <__aeabi_dfcmple_guts+0x44>
1000346a:	404b      	eors	r3, r1
1000346c:	d503      	bpl.n	10003476 <__aeabi_dfcmple_guts+0x3c>
1000346e:	428b      	cmp	r3, r1
10003470:	d100      	bne.n	10003474 <__aeabi_dfcmple_guts+0x3a>
10003472:	4282      	cmp	r2, r0
10003474:	bdff      	pop	{r0, r1, r2, r3, r4, r5, r6, r7, pc}
10003476:	4299      	cmp	r1, r3
10003478:	d1fc      	bne.n	10003474 <__aeabi_dfcmple_guts+0x3a>
1000347a:	4290      	cmp	r0, r2
1000347c:	bdff      	pop	{r0, r1, r2, r3, r4, r5, r6, r7, pc}
1000347e:	430b      	orrs	r3, r1
10003480:	18db      	adds	r3, r3, r3
10003482:	4303      	orrs	r3, r0
10003484:	4313      	orrs	r3, r2
10003486:	d0f5      	beq.n	10003474 <__aeabi_dfcmple_guts+0x3a>
10003488:	43c9      	mvns	r1, r1
1000348a:	1849      	adds	r1, r1, r1
1000348c:	bdff      	pop	{r0, r1, r2, r3, r4, r5, r6, r7, pc}
1000348e:	0000      	.short	0x0000
10003490:	000007ff 	.word	0x000007ff

10003494 <__wrap___aeabi_dcmplt>:
10003494:	b500      	push	{lr}
10003496:	f7ff ffcf 	bl	10003438 <__wrap___aeabi_cdcmpeq>
1000349a:	4180      	sbcs	r0, r0
1000349c:	bd00      	pop	{pc}
1000349e:	46c0      	nop			; (mov r8, r8)

100034a0 <__wrap___aeabi_dcmple>:
100034a0:	b500      	push	{lr}
100034a2:	f7ff ffc9 	bl	10003438 <__wrap___aeabi_cdcmpeq>
100034a6:	d901      	bls.n	100034ac <__wrap___aeabi_dcmple+0xc>
100034a8:	2000      	movs	r0, #0
100034aa:	bd00      	pop	{pc}
100034ac:	2001      	movs	r0, #1
100034ae:	bd00      	pop	{pc}

100034b0 <__wrap___aeabi_dcmpge>:
100034b0:	b500      	push	{lr}
100034b2:	f7ff ffb9 	bl	10003428 <__wrap___aeabi_cdrcmple>
100034b6:	d901      	bls.n	100034bc <__wrap___aeabi_dcmpge+0xc>
100034b8:	2000      	movs	r0, #0
100034ba:	bd00      	pop	{pc}
100034bc:	2001      	movs	r0, #1
100034be:	bd00      	pop	{pc}

100034c0 <__wrap___aeabi_dcmpgt>:
100034c0:	b500      	push	{lr}
100034c2:	f7ff ffb1 	bl	10003428 <__wrap___aeabi_cdrcmple>
100034c6:	4180      	sbcs	r0, r0
100034c8:	bd00      	pop	{pc}

100034ca <__wrap___aeabi_dcmpun>:
100034ca:	2001      	movs	r0, #1
100034cc:	0540      	lsls	r0, r0, #21
100034ce:	004a      	lsls	r2, r1, #1
100034d0:	1812      	adds	r2, r2, r0
100034d2:	d804      	bhi.n	100034de <__wrap___aeabi_dcmpun+0x14>
100034d4:	005a      	lsls	r2, r3, #1
100034d6:	1812      	adds	r2, r2, r0
100034d8:	d801      	bhi.n	100034de <__wrap___aeabi_dcmpun+0x14>
100034da:	2000      	movs	r0, #0
100034dc:	4770      	bx	lr
100034de:	2001      	movs	r0, #1
100034e0:	4770      	bx	lr
100034e2:	2000      	movs	r0, #0
100034e4:	4770      	bx	lr
	...

100034e8 <__wrap___aeabi_ui2d>:
100034e8:	2100      	movs	r1, #0
100034ea:	2800      	cmp	r0, #0
100034ec:	d105      	bne.n	100034fa <__wrap___aeabi_i2d+0xa>
100034ee:	4770      	bx	lr

100034f0 <__wrap___aeabi_i2d>:
100034f0:	17c1      	asrs	r1, r0, #31
100034f2:	4048      	eors	r0, r1
100034f4:	1a40      	subs	r0, r0, r1
100034f6:	d0fa      	beq.n	100034ee <__wrap___aeabi_ui2d+0x6>
100034f8:	07c9      	lsls	r1, r1, #31
100034fa:	b513      	push	{r0, r1, r4, lr}
100034fc:	4b06      	ldr	r3, [pc, #24]	; (10003518 <__wrap___aeabi_i2d+0x28>)
100034fe:	681b      	ldr	r3, [r3, #0]
10003500:	4798      	blx	r3
10003502:	bc0c      	pop	{r2, r3}
10003504:	1c44      	adds	r4, r0, #1
10003506:	40a2      	lsls	r2, r4
10003508:	0510      	lsls	r0, r2, #20
1000350a:	0b12      	lsrs	r2, r2, #12
1000350c:	4903      	ldr	r1, [pc, #12]	; (1000351c <__wrap___aeabi_i2d+0x2c>)
1000350e:	1b09      	subs	r1, r1, r4
10003510:	0509      	lsls	r1, r1, #20
10003512:	4319      	orrs	r1, r3
10003514:	4311      	orrs	r1, r2
10003516:	bd10      	pop	{r4, pc}
10003518:	20000d38 	.word	0x20000d38
1000351c:	0000041f 	.word	0x0000041f

10003520 <__wrap___aeabi_d2iz>:
10003520:	b510      	push	{r4, lr}
10003522:	004c      	lsls	r4, r1, #1
10003524:	0d62      	lsrs	r2, r4, #21
10003526:	2380      	movs	r3, #128	; 0x80
10003528:	18d2      	adds	r2, r2, r3
1000352a:	00db      	lsls	r3, r3, #3
1000352c:	1ad2      	subs	r2, r2, r3
1000352e:	055b      	lsls	r3, r3, #21
10003530:	2a7e      	cmp	r2, #126	; 0x7e
10003532:	dd10      	ble.n	10003556 <__wrap___aeabi_d2iz+0x36>
10003534:	3a9e      	subs	r2, #158	; 0x9e
10003536:	da13      	bge.n	10003560 <__wrap___aeabi_d2iz+0x40>
10003538:	17cc      	asrs	r4, r1, #31
1000353a:	0309      	lsls	r1, r1, #12
1000353c:	0849      	lsrs	r1, r1, #1
1000353e:	4319      	orrs	r1, r3
10003540:	4252      	negs	r2, r2
10003542:	40d1      	lsrs	r1, r2
10003544:	0064      	lsls	r4, r4, #1
10003546:	3401      	adds	r4, #1
10003548:	3215      	adds	r2, #21
1000354a:	2a20      	cmp	r2, #32
1000354c:	da05      	bge.n	1000355a <__wrap___aeabi_d2iz+0x3a>
1000354e:	40d0      	lsrs	r0, r2
10003550:	4308      	orrs	r0, r1
10003552:	4360      	muls	r0, r4
10003554:	bd10      	pop	{r4, pc}
10003556:	2000      	movs	r0, #0
10003558:	bd10      	pop	{r4, pc}
1000355a:	4608      	mov	r0, r1
1000355c:	4360      	muls	r0, r4
1000355e:	bd10      	pop	{r4, pc}
10003560:	0fc8      	lsrs	r0, r1, #31
10003562:	18c0      	adds	r0, r0, r3
10003564:	3801      	subs	r0, #1
10003566:	bd10      	pop	{r4, pc}

10003568 <__wrap___aeabi_d2uiz>:
10003568:	b418      	push	{r3, r4}
1000356a:	4b04      	ldr	r3, [pc, #16]	; (1000357c <__wrap___aeabi_d2uiz+0x14>)
1000356c:	6a5b      	ldr	r3, [r3, #36]	; 0x24
1000356e:	46fc      	mov	ip, pc
10003570:	9301      	str	r3, [sp, #4]
10003572:	bd08      	pop	{r3, pc}
10003574:	3b4ddf24 	.word	0x3b4ddf24
10003578:	00001000 	.word	0x00001000
1000357c:	20000b38 	.word	0x20000b38

10003580 <__aeabi_double_init>:
10003580:	2313      	movs	r3, #19
10003582:	b570      	push	{r4, r5, r6, lr}
10003584:	781d      	ldrb	r5, [r3, #0]
10003586:	2d01      	cmp	r5, #1
10003588:	d010      	beq.n	100035ac <__aeabi_double_init+0x2c>
1000358a:	dd0b      	ble.n	100035a4 <__aeabi_double_init+0x24>
1000358c:	4824      	ldr	r0, [pc, #144]	; (10003620 <__aeabi_double_init+0xa0>)
1000358e:	f7ff fc8d 	bl	10002eac <rom_data_lookup>
10003592:	4c24      	ldr	r4, [pc, #144]	; (10003624 <__aeabi_double_init+0xa4>)
10003594:	0001      	movs	r1, r0
10003596:	2280      	movs	r2, #128	; 0x80
10003598:	0020      	movs	r0, r4
1000359a:	f000 fb91 	bl	10003cc0 <__wrap___aeabi_memcpy>
1000359e:	2d02      	cmp	r5, #2
100035a0:	d001      	beq.n	100035a6 <__aeabi_double_init+0x26>
100035a2:	bd70      	pop	{r4, r5, r6, pc}
100035a4:	4c1f      	ldr	r4, [pc, #124]	; (10003624 <__aeabi_double_init+0xa4>)
100035a6:	4a20      	ldr	r2, [pc, #128]	; (10003628 <__aeabi_double_init+0xa8>)
100035a8:	64a2      	str	r2, [r4, #72]	; 0x48
100035aa:	e7fa      	b.n	100035a2 <__aeabi_double_init+0x22>
100035ac:	002e      	movs	r6, r5
100035ae:	4c1d      	ldr	r4, [pc, #116]	; (10003624 <__aeabi_double_init+0xa4>)
100035b0:	4a1d      	ldr	r2, [pc, #116]	; (10003628 <__aeabi_double_init+0xa8>)
100035b2:	08a3      	lsrs	r3, r4, #2
100035b4:	425b      	negs	r3, r3
100035b6:	401e      	ands	r6, r3
100035b8:	421d      	tst	r5, r3
100035ba:	d02f      	beq.n	1000361c <__aeabi_double_init+0x9c>
100035bc:	0033      	movs	r3, r6
100035be:	6022      	str	r2, [r4, #0]
100035c0:	2020      	movs	r0, #32
100035c2:	00b1      	lsls	r1, r6, #2
100035c4:	1861      	adds	r1, r4, r1
100035c6:	1b80      	subs	r0, r0, r6
100035c8:	600a      	str	r2, [r1, #0]
100035ca:	604a      	str	r2, [r1, #4]
100035cc:	608a      	str	r2, [r1, #8]
100035ce:	60ca      	str	r2, [r1, #12]
100035d0:	610a      	str	r2, [r1, #16]
100035d2:	614a      	str	r2, [r1, #20]
100035d4:	618a      	str	r2, [r1, #24]
100035d6:	61ca      	str	r2, [r1, #28]
100035d8:	620a      	str	r2, [r1, #32]
100035da:	624a      	str	r2, [r1, #36]	; 0x24
100035dc:	628a      	str	r2, [r1, #40]	; 0x28
100035de:	62ca      	str	r2, [r1, #44]	; 0x2c
100035e0:	630a      	str	r2, [r1, #48]	; 0x30
100035e2:	634a      	str	r2, [r1, #52]	; 0x34
100035e4:	638a      	str	r2, [r1, #56]	; 0x38
100035e6:	63ca      	str	r2, [r1, #60]	; 0x3c
100035e8:	640a      	str	r2, [r1, #64]	; 0x40
100035ea:	644a      	str	r2, [r1, #68]	; 0x44
100035ec:	648a      	str	r2, [r1, #72]	; 0x48
100035ee:	64ca      	str	r2, [r1, #76]	; 0x4c
100035f0:	650a      	str	r2, [r1, #80]	; 0x50
100035f2:	654a      	str	r2, [r1, #84]	; 0x54
100035f4:	658a      	str	r2, [r1, #88]	; 0x58
100035f6:	65ca      	str	r2, [r1, #92]	; 0x5c
100035f8:	660a      	str	r2, [r1, #96]	; 0x60
100035fa:	664a      	str	r2, [r1, #100]	; 0x64
100035fc:	668a      	str	r2, [r1, #104]	; 0x68
100035fe:	66ca      	str	r2, [r1, #108]	; 0x6c
10003600:	670a      	str	r2, [r1, #112]	; 0x70
10003602:	674a      	str	r2, [r1, #116]	; 0x74
10003604:	0840      	lsrs	r0, r0, #1
10003606:	2810      	cmp	r0, #16
10003608:	d103      	bne.n	10003612 <__aeabi_double_init+0x92>
1000360a:	678a      	str	r2, [r1, #120]	; 0x78
1000360c:	67ca      	str	r2, [r1, #124]	; 0x7c
1000360e:	64a2      	str	r2, [r4, #72]	; 0x48
10003610:	e7c7      	b.n	100035a2 <__aeabi_double_init+0x22>
10003612:	331e      	adds	r3, #30
10003614:	009b      	lsls	r3, r3, #2
10003616:	50e2      	str	r2, [r4, r3]
10003618:	64a2      	str	r2, [r4, #72]	; 0x48
1000361a:	e7c2      	b.n	100035a2 <__aeabi_double_init+0x22>
1000361c:	2300      	movs	r3, #0
1000361e:	e7cf      	b.n	100035c0 <__aeabi_double_init+0x40>
10003620:	00004453 	.word	0x00004453
10003624:	20000b38 	.word	0x20000b38
10003628:	1000362d 	.word	0x1000362d

1000362c <double_table_shim_on_use_helper>:
1000362c:	b507      	push	{r0, r1, r2, lr}
1000362e:	4660      	mov	r0, ip
10003630:	8801      	ldrh	r1, [r0, #0]
10003632:	0a0a      	lsrs	r2, r1, #8
10003634:	3002      	adds	r0, #2
10003636:	2adf      	cmp	r2, #223	; 0xdf
10003638:	d1fa      	bne.n	10003630 <double_table_shim_on_use_helper+0x4>
1000363a:	b2c9      	uxtb	r1, r1
1000363c:	0882      	lsrs	r2, r0, #2
1000363e:	d304      	bcc.n	1000364a <double_table_shim_on_use_helper+0x1e>
10003640:	8802      	ldrh	r2, [r0, #0]
10003642:	8840      	ldrh	r0, [r0, #2]
10003644:	0400      	lsls	r0, r0, #16
10003646:	4310      	orrs	r0, r2
10003648:	e000      	b.n	1000364c <double_table_shim_on_use_helper+0x20>
1000364a:	6800      	ldr	r0, [r0, #0]
1000364c:	4a01      	ldr	r2, [pc, #4]	; (10003654 <double_table_shim_on_use_helper+0x28>)
1000364e:	5050      	str	r0, [r2, r1]
10003650:	9003      	str	r0, [sp, #12]
10003652:	bd07      	pop	{r0, r1, r2, pc}
10003654:	20000b38 	.word	0x20000b38

10003658 <drsub_shim>:
10003658:	b40f      	push	{r0, r1, r2, r3}
1000365a:	bc03      	pop	{r0, r1}
1000365c:	bc0c      	pop	{r2, r3}

1000365e <dsub_shim>:
1000365e:	b5f0      	push	{r4, r5, r6, r7, lr}
10003660:	2401      	movs	r4, #1
10003662:	07e4      	lsls	r4, r4, #31
10003664:	4063      	eors	r3, r4
10003666:	e000      	b.n	1000366a <da_entry>

10003668 <dadd_shim>:
10003668:	b5f0      	push	{r4, r5, r6, r7, lr}

1000366a <da_entry>:
1000366a:	0d0c      	lsrs	r4, r1, #20
1000366c:	0fcf      	lsrs	r7, r1, #31
1000366e:	1e66      	subs	r6, r4, #1
10003670:	0536      	lsls	r6, r6, #20
10003672:	1b89      	subs	r1, r1, r6
10003674:	0564      	lsls	r4, r4, #21
10003676:	d303      	bcc.n	10003680 <l7_1>
10003678:	43c9      	mvns	r1, r1
1000367a:	4240      	negs	r0, r0
1000367c:	d300      	bcc.n	10003680 <l7_1>
1000367e:	3101      	adds	r1, #1

10003680 <l7_1>:
10003680:	0d64      	lsrs	r4, r4, #21
10003682:	d003      	beq.n	1000368c <l7_2>
10003684:	1c66      	adds	r6, r4, #1
10003686:	0af6      	lsrs	r6, r6, #11
10003688:	d007      	beq.n	1000369a <l7_3>
1000368a:	1be4      	subs	r4, r4, r7

1000368c <l7_2>:
1000368c:	2000      	movs	r0, #0
1000368e:	007f      	lsls	r7, r7, #1
10003690:	1c79      	adds	r1, r7, #1
10003692:	0789      	lsls	r1, r1, #30
10003694:	1289      	asrs	r1, r1, #10
10003696:	3c80      	subs	r4, #128	; 0x80
10003698:	0324      	lsls	r4, r4, #12

1000369a <l7_3>:
1000369a:	0d1d      	lsrs	r5, r3, #20
1000369c:	0fdf      	lsrs	r7, r3, #31
1000369e:	1e6e      	subs	r6, r5, #1
100036a0:	0536      	lsls	r6, r6, #20
100036a2:	1b9b      	subs	r3, r3, r6
100036a4:	056d      	lsls	r5, r5, #21
100036a6:	d303      	bcc.n	100036b0 <l8_1>
100036a8:	43db      	mvns	r3, r3
100036aa:	4252      	negs	r2, r2
100036ac:	d300      	bcc.n	100036b0 <l8_1>
100036ae:	3301      	adds	r3, #1

100036b0 <l8_1>:
100036b0:	0d6d      	lsrs	r5, r5, #21
100036b2:	d003      	beq.n	100036bc <l8_2>
100036b4:	1c6e      	adds	r6, r5, #1
100036b6:	0af6      	lsrs	r6, r6, #11
100036b8:	d007      	beq.n	100036ca <l8_3>
100036ba:	1bed      	subs	r5, r5, r7

100036bc <l8_2>:
100036bc:	2200      	movs	r2, #0
100036be:	007f      	lsls	r7, r7, #1
100036c0:	1c7b      	adds	r3, r7, #1
100036c2:	079b      	lsls	r3, r3, #30
100036c4:	129b      	asrs	r3, r3, #10
100036c6:	3d80      	subs	r5, #128	; 0x80
100036c8:	032d      	lsls	r5, r5, #12

100036ca <l8_3>:
100036ca:	1b2f      	subs	r7, r5, r4
100036cc:	1b66      	subs	r6, r4, r5
100036ce:	d458      	bmi.n	10003782 <da_ygtx>
100036d0:	46a4      	mov	ip, r4
100036d2:	2e20      	cmp	r6, #32
100036d4:	da46      	bge.n	10003764 <da_xrgty>
100036d6:	3720      	adds	r7, #32
100036d8:	0014      	movs	r4, r2
100036da:	40bc      	lsls	r4, r7

100036dc <da_xgty0>:
100036dc:	001d      	movs	r5, r3
100036de:	40bd      	lsls	r5, r7
100036e0:	40f2      	lsrs	r2, r6
100036e2:	4133      	asrs	r3, r6
100036e4:	432a      	orrs	r2, r5

100036e6 <da_add>:
100036e6:	1880      	adds	r0, r0, r2
100036e8:	4159      	adcs	r1, r3

100036ea <da_pack>:
100036ea:	0fcb      	lsrs	r3, r1, #31
100036ec:	d005      	beq.n	100036fa <da_pack+0x10>
100036ee:	43c9      	mvns	r1, r1
100036f0:	43c0      	mvns	r0, r0
100036f2:	2200      	movs	r2, #0
100036f4:	4264      	negs	r4, r4
100036f6:	4150      	adcs	r0, r2
100036f8:	4151      	adcs	r1, r2
100036fa:	4662      	mov	r2, ip
100036fc:	0d4d      	lsrs	r5, r1, #21
100036fe:	d128      	bne.n	10003752 <da_0>
10003700:	0d0d      	lsrs	r5, r1, #20
10003702:	d107      	bne.n	10003714 <da_1>
10003704:	2800      	cmp	r0, #0
10003706:	d01f      	beq.n	10003748 <da_5>

10003708 <da_2>:
10003708:	1924      	adds	r4, r4, r4
1000370a:	4140      	adcs	r0, r0
1000370c:	4149      	adcs	r1, r1
1000370e:	3a01      	subs	r2, #1
10003710:	0d0d      	lsrs	r5, r1, #20
10003712:	d0f9      	beq.n	10003708 <da_2>

10003714 <da_1>:
10003714:	0064      	lsls	r4, r4, #1
10003716:	d306      	bcc.n	10003726 <da_3>

10003718 <da_4>:
10003718:	3001      	adds	r0, #1
1000371a:	d300      	bcc.n	1000371e <da_4+0x6>
1000371c:	3101      	adds	r1, #1
1000371e:	2c00      	cmp	r4, #0
10003720:	d101      	bne.n	10003726 <da_3>
10003722:	0840      	lsrs	r0, r0, #1
10003724:	0040      	lsls	r0, r0, #1

10003726 <da_3>:
10003726:	3a01      	subs	r2, #1
10003728:	d40b      	bmi.n	10003742 <da_6>
1000372a:	1c94      	adds	r4, r2, #2
1000372c:	0ae4      	lsrs	r4, r4, #11
1000372e:	d104      	bne.n	1000373a <da_7>
10003730:	0512      	lsls	r2, r2, #20
10003732:	4411      	add	r1, r2
10003734:	07db      	lsls	r3, r3, #31
10003736:	4419      	add	r1, r3
10003738:	bdf0      	pop	{r4, r5, r6, r7, pc}

1000373a <da_7>:
1000373a:	07d9      	lsls	r1, r3, #31
1000373c:	4b20      	ldr	r3, [pc, #128]	; (100037c0 <da_xmgty+0x4>)
1000373e:	4319      	orrs	r1, r3
10003740:	e000      	b.n	10003744 <da_6+0x2>

10003742 <da_6>:
10003742:	07d9      	lsls	r1, r3, #31
10003744:	2000      	movs	r0, #0
10003746:	bdf0      	pop	{r4, r5, r6, r7, pc}

10003748 <da_5>:
10003748:	2900      	cmp	r1, #0
1000374a:	d1dd      	bne.n	10003708 <da_2>
1000374c:	2c00      	cmp	r4, #0
1000374e:	d1db      	bne.n	10003708 <da_2>
10003750:	bdf0      	pop	{r4, r5, r6, r7, pc}

10003752 <da_0>:
10003752:	3201      	adds	r2, #1
10003754:	07c6      	lsls	r6, r0, #31
10003756:	0840      	lsrs	r0, r0, #1
10003758:	07cd      	lsls	r5, r1, #31
1000375a:	4328      	orrs	r0, r5
1000375c:	0849      	lsrs	r1, r1, #1
1000375e:	2e00      	cmp	r6, #0
10003760:	d0e1      	beq.n	10003726 <da_3>
10003762:	e7d9      	b.n	10003718 <da_4>

10003764 <da_xrgty>:
10003764:	2e3c      	cmp	r6, #60	; 0x3c
10003766:	da29      	bge.n	100037bc <da_xmgty>
10003768:	3e20      	subs	r6, #32
1000376a:	3740      	adds	r7, #64	; 0x40
1000376c:	0014      	movs	r4, r2
1000376e:	40bc      	lsls	r4, r7
10003770:	d000      	beq.n	10003774 <da_xrgty+0x10>
10003772:	2401      	movs	r4, #1
10003774:	40f2      	lsrs	r2, r6
10003776:	4314      	orrs	r4, r2
10003778:	001a      	movs	r2, r3
1000377a:	40bb      	lsls	r3, r7
1000377c:	431c      	orrs	r4, r3
1000377e:	17d3      	asrs	r3, r2, #31
10003780:	e7ac      	b.n	100036dc <da_xgty0>

10003782 <da_ygtx>:
10003782:	46ac      	mov	ip, r5
10003784:	2f20      	cmp	r7, #32
10003786:	da08      	bge.n	1000379a <da_yrgtx>
10003788:	3620      	adds	r6, #32
1000378a:	0004      	movs	r4, r0
1000378c:	40b4      	lsls	r4, r6

1000378e <da_ygtx0>:
1000378e:	000d      	movs	r5, r1
10003790:	40b5      	lsls	r5, r6
10003792:	40f8      	lsrs	r0, r7
10003794:	4139      	asrs	r1, r7
10003796:	4328      	orrs	r0, r5
10003798:	e7a5      	b.n	100036e6 <da_add>

1000379a <da_yrgtx>:
1000379a:	2f3c      	cmp	r7, #60	; 0x3c
1000379c:	da0c      	bge.n	100037b8 <da_ymgtx>
1000379e:	3f20      	subs	r7, #32
100037a0:	3640      	adds	r6, #64	; 0x40
100037a2:	0004      	movs	r4, r0
100037a4:	40b4      	lsls	r4, r6
100037a6:	d000      	beq.n	100037aa <da_yrgtx+0x10>
100037a8:	2401      	movs	r4, #1
100037aa:	40f8      	lsrs	r0, r7
100037ac:	4304      	orrs	r4, r0
100037ae:	0008      	movs	r0, r1
100037b0:	40b1      	lsls	r1, r6
100037b2:	430c      	orrs	r4, r1
100037b4:	17c1      	asrs	r1, r0, #31
100037b6:	e7ea      	b.n	1000378e <da_ygtx0>

100037b8 <da_ymgtx>:
100037b8:	0010      	movs	r0, r2
100037ba:	0019      	movs	r1, r3

100037bc <da_xmgty>:
100037bc:	2400      	movs	r4, #0
100037be:	e794      	b.n	100036ea <da_pack>
100037c0:	7ff00000 	.word	0x7ff00000

100037c4 <dmul_shim>:
100037c4:	b5f0      	push	{r4, r5, r6, r7, lr}
100037c6:	0d0c      	lsrs	r4, r1, #20
100037c8:	1e66      	subs	r6, r4, #1
100037ca:	0536      	lsls	r6, r6, #20
100037cc:	1b89      	subs	r1, r1, r6
100037ce:	0ae6      	lsrs	r6, r4, #11
100037d0:	0564      	lsls	r4, r4, #21
100037d2:	0d64      	lsrs	r4, r4, #21
100037d4:	d002      	beq.n	100037dc <l11_1>
100037d6:	1c65      	adds	r5, r4, #1
100037d8:	0aed      	lsrs	r5, r5, #11
100037da:	d004      	beq.n	100037e6 <l11_2>

100037dc <l11_1>:
100037dc:	2000      	movs	r0, #0
100037de:	2101      	movs	r1, #1
100037e0:	0509      	lsls	r1, r1, #20
100037e2:	3c80      	subs	r4, #128	; 0x80
100037e4:	0324      	lsls	r4, r4, #12

100037e6 <l11_2>:
100037e6:	46a4      	mov	ip, r4
100037e8:	0d1c      	lsrs	r4, r3, #20
100037ea:	1e67      	subs	r7, r4, #1
100037ec:	053f      	lsls	r7, r7, #20
100037ee:	1bdb      	subs	r3, r3, r7
100037f0:	0ae7      	lsrs	r7, r4, #11
100037f2:	0564      	lsls	r4, r4, #21
100037f4:	0d64      	lsrs	r4, r4, #21
100037f6:	d002      	beq.n	100037fe <l12_1>
100037f8:	1c65      	adds	r5, r4, #1
100037fa:	0aed      	lsrs	r5, r5, #11
100037fc:	d004      	beq.n	10003808 <l12_2>

100037fe <l12_1>:
100037fe:	2200      	movs	r2, #0
10003800:	2301      	movs	r3, #1
10003802:	051b      	lsls	r3, r3, #20
10003804:	3c80      	subs	r4, #128	; 0x80
10003806:	0324      	lsls	r4, r4, #12

10003808 <l12_2>:
10003808:	4077      	eors	r7, r6
1000380a:	4464      	add	r4, ip
1000380c:	b497      	push	{r0, r1, r2, r4, r7}
1000380e:	b284      	uxth	r4, r0
10003810:	b296      	uxth	r6, r2
10003812:	4374      	muls	r4, r6
10003814:	0c07      	lsrs	r7, r0, #16
10003816:	437e      	muls	r6, r7
10003818:	0c15      	lsrs	r5, r2, #16
1000381a:	436f      	muls	r7, r5
1000381c:	b280      	uxth	r0, r0
1000381e:	4368      	muls	r0, r5
10003820:	1836      	adds	r6, r6, r0
10003822:	d302      	bcc.n	1000382a <l13_1>
10003824:	2001      	movs	r0, #1
10003826:	0400      	lsls	r0, r0, #16
10003828:	183f      	adds	r7, r7, r0

1000382a <l13_1>:
1000382a:	0430      	lsls	r0, r6, #16
1000382c:	0c35      	lsrs	r5, r6, #16
1000382e:	1900      	adds	r0, r0, r4
10003830:	417d      	adcs	r5, r7
10003832:	4684      	mov	ip, r0
10003834:	b288      	uxth	r0, r1
10003836:	b29a      	uxth	r2, r3
10003838:	4350      	muls	r0, r2
1000383a:	0c0c      	lsrs	r4, r1, #16
1000383c:	4362      	muls	r2, r4
1000383e:	0c1f      	lsrs	r7, r3, #16
10003840:	437c      	muls	r4, r7
10003842:	b28e      	uxth	r6, r1
10003844:	437e      	muls	r6, r7
10003846:	1992      	adds	r2, r2, r6
10003848:	d302      	bcc.n	10003850 <l14_1>
1000384a:	2601      	movs	r6, #1
1000384c:	0436      	lsls	r6, r6, #16
1000384e:	19a4      	adds	r4, r4, r6

10003850 <l14_1>:
10003850:	0416      	lsls	r6, r2, #16
10003852:	0c17      	lsrs	r7, r2, #16
10003854:	1836      	adds	r6, r6, r0
10003856:	4167      	adcs	r7, r4
10003858:	bc01      	pop	{r0}
1000385a:	b281      	uxth	r1, r0
1000385c:	b29a      	uxth	r2, r3
1000385e:	4351      	muls	r1, r2
10003860:	0c04      	lsrs	r4, r0, #16
10003862:	4362      	muls	r2, r4
10003864:	0c1b      	lsrs	r3, r3, #16
10003866:	435c      	muls	r4, r3
10003868:	b280      	uxth	r0, r0
1000386a:	4358      	muls	r0, r3
1000386c:	1812      	adds	r2, r2, r0
1000386e:	d302      	bcc.n	10003876 <l15_1>
10003870:	2001      	movs	r0, #1
10003872:	0400      	lsls	r0, r0, #16
10003874:	1824      	adds	r4, r4, r0

10003876 <l15_1>:
10003876:	0410      	lsls	r0, r2, #16
10003878:	0c13      	lsrs	r3, r2, #16
1000387a:	1840      	adds	r0, r0, r1
1000387c:	4163      	adcs	r3, r4
1000387e:	182d      	adds	r5, r5, r0
10003880:	415e      	adcs	r6, r3
10003882:	2000      	movs	r0, #0
10003884:	4147      	adcs	r7, r0
10003886:	bc06      	pop	{r1, r2}
10003888:	b288      	uxth	r0, r1
1000388a:	b293      	uxth	r3, r2
1000388c:	4358      	muls	r0, r3
1000388e:	0c0c      	lsrs	r4, r1, #16
10003890:	4363      	muls	r3, r4
10003892:	0c12      	lsrs	r2, r2, #16
10003894:	4354      	muls	r4, r2
10003896:	b289      	uxth	r1, r1
10003898:	4351      	muls	r1, r2
1000389a:	185b      	adds	r3, r3, r1
1000389c:	d302      	bcc.n	100038a4 <l16_1>
1000389e:	2101      	movs	r1, #1
100038a0:	0409      	lsls	r1, r1, #16
100038a2:	1864      	adds	r4, r4, r1

100038a4 <l16_1>:
100038a4:	0419      	lsls	r1, r3, #16
100038a6:	0c1a      	lsrs	r2, r3, #16
100038a8:	1809      	adds	r1, r1, r0
100038aa:	4162      	adcs	r2, r4
100038ac:	186d      	adds	r5, r5, r1
100038ae:	4156      	adcs	r6, r2
100038b0:	2000      	movs	r0, #0
100038b2:	4147      	adcs	r7, r0
100038b4:	bc18      	pop	{r3, r4}
100038b6:	02f9      	lsls	r1, r7, #11
100038b8:	0d72      	lsrs	r2, r6, #21
100038ba:	4311      	orrs	r1, r2
100038bc:	02f0      	lsls	r0, r6, #11
100038be:	0d6a      	lsrs	r2, r5, #21
100038c0:	4310      	orrs	r0, r2
100038c2:	02ed      	lsls	r5, r5, #11
100038c4:	0d0a      	lsrs	r2, r1, #20
100038c6:	d103      	bne.n	100038d0 <l16_1+0x2c>
100038c8:	196d      	adds	r5, r5, r5
100038ca:	4140      	adcs	r0, r0
100038cc:	4149      	adcs	r1, r1
100038ce:	3b01      	subs	r3, #1
100038d0:	4e12      	ldr	r6, [pc, #72]	; (1000391c <dm_1+0xa>)
100038d2:	1b9b      	subs	r3, r3, r6
100038d4:	0076      	lsls	r6, r6, #1
100038d6:	42b3      	cmp	r3, r6
100038d8:	d20e      	bcs.n	100038f8 <dm_0>
100038da:	006d      	lsls	r5, r5, #1
100038dc:	d307      	bcc.n	100038ee <l16_1+0x4a>
100038de:	3001      	adds	r0, #1
100038e0:	2600      	movs	r6, #0
100038e2:	4171      	adcs	r1, r6
100038e4:	4666      	mov	r6, ip
100038e6:	4335      	orrs	r5, r6
100038e8:	d101      	bne.n	100038ee <l16_1+0x4a>
100038ea:	0840      	lsrs	r0, r0, #1
100038ec:	0040      	lsls	r0, r0, #1
100038ee:	051b      	lsls	r3, r3, #20
100038f0:	18c9      	adds	r1, r1, r3

100038f2 <dm_2>:
100038f2:	07e4      	lsls	r4, r4, #31
100038f4:	4421      	add	r1, r4
100038f6:	bdf0      	pop	{r4, r5, r6, r7, pc}

100038f8 <dm_0>:
100038f8:	da0b      	bge.n	10003912 <dm_1>
100038fa:	3301      	adds	r3, #1
100038fc:	d106      	bne.n	1000390c <dm_0+0x14>
100038fe:	3001      	adds	r0, #1
10003900:	d104      	bne.n	1000390c <dm_0+0x14>
10003902:	3101      	adds	r1, #1
10003904:	0d4f      	lsrs	r7, r1, #21
10003906:	d001      	beq.n	1000390c <dm_0+0x14>
10003908:	0849      	lsrs	r1, r1, #1
1000390a:	e7f2      	b.n	100038f2 <dm_2>
1000390c:	07e1      	lsls	r1, r4, #31
1000390e:	2000      	movs	r0, #0
10003910:	bdf0      	pop	{r4, r5, r6, r7, pc}

10003912 <dm_1>:
10003912:	3601      	adds	r6, #1
10003914:	0531      	lsls	r1, r6, #20
10003916:	2000      	movs	r0, #0
10003918:	e7eb      	b.n	100038f2 <dm_2>
1000391a:	0000      	.short	0x0000
1000391c:	000003ff 	.word	0x000003ff

10003920 <ddiv_shim>:
10003920:	b5f0      	push	{r4, r5, r6, r7, lr}

10003922 <ddiv0>:
10003922:	0d1c      	lsrs	r4, r3, #20
10003924:	1e67      	subs	r7, r4, #1
10003926:	053f      	lsls	r7, r7, #20
10003928:	1bdb      	subs	r3, r3, r7
1000392a:	0ae7      	lsrs	r7, r4, #11
1000392c:	0564      	lsls	r4, r4, #21
1000392e:	0d64      	lsrs	r4, r4, #21
10003930:	d002      	beq.n	10003938 <l19_1>
10003932:	1c66      	adds	r6, r4, #1
10003934:	0af6      	lsrs	r6, r6, #11
10003936:	d004      	beq.n	10003942 <l19_2>

10003938 <l19_1>:
10003938:	2200      	movs	r2, #0
1000393a:	2301      	movs	r3, #1
1000393c:	051b      	lsls	r3, r3, #20
1000393e:	3c80      	subs	r4, #128	; 0x80
10003940:	0324      	lsls	r4, r4, #12

10003942 <l19_2>:
10003942:	25d0      	movs	r5, #208	; 0xd0
10003944:	062d      	lsls	r5, r5, #24
10003946:	2600      	movs	r6, #0
10003948:	43f6      	mvns	r6, r6
1000394a:	662e      	str	r6, [r5, #96]	; 0x60
1000394c:	091e      	lsrs	r6, r3, #4
1000394e:	666e      	str	r6, [r5, #100]	; 0x64
10003950:	0fce      	lsrs	r6, r1, #31
10003952:	19f6      	adds	r6, r6, r7
10003954:	46b4      	mov	ip, r6
10003956:	0049      	lsls	r1, r1, #1
10003958:	0d4f      	lsrs	r7, r1, #21
1000395a:	d002      	beq.n	10003962 <l19_2+0x20>
1000395c:	1c7e      	adds	r6, r7, #1
1000395e:	0af6      	lsrs	r6, r6, #11
10003960:	d003      	beq.n	1000396a <l19_2+0x28>
10003962:	2000      	movs	r0, #0
10003964:	2100      	movs	r1, #0
10003966:	3f40      	subs	r7, #64	; 0x40
10003968:	033f      	lsls	r7, r7, #12
1000396a:	1b3e      	subs	r6, r7, r4
1000396c:	00b6      	lsls	r6, r6, #2
1000396e:	44b4      	add	ip, r6
10003970:	3f01      	subs	r7, #1
10003972:	057f      	lsls	r7, r7, #21
10003974:	1bc9      	subs	r1, r1, r7
10003976:	0849      	lsrs	r1, r1, #1
10003978:	6f2e      	ldr	r6, [r5, #112]	; 0x70
1000397a:	3601      	adds	r6, #1
1000397c:	0876      	lsrs	r6, r6, #1
1000397e:	029c      	lsls	r4, r3, #10
10003980:	0d95      	lsrs	r5, r2, #22
10003982:	4325      	orrs	r5, r4
10003984:	4375      	muls	r5, r6
10003986:	13ed      	asrs	r5, r5, #15
10003988:	4375      	muls	r5, r6
1000398a:	13ad      	asrs	r5, r5, #14
1000398c:	3501      	adds	r5, #1
1000398e:	106d      	asrs	r5, r5, #1
10003990:	03f6      	lsls	r6, r6, #15
10003992:	1b76      	subs	r6, r6, r5
10003994:	b40c      	push	{r2, r3}
10003996:	02cc      	lsls	r4, r1, #11
10003998:	0d45      	lsrs	r5, r0, #21
1000399a:	432c      	orrs	r4, r5
1000399c:	b2a2      	uxth	r2, r4
1000399e:	b2b3      	uxth	r3, r6
100039a0:	435a      	muls	r2, r3
100039a2:	0c27      	lsrs	r7, r4, #16
100039a4:	437b      	muls	r3, r7
100039a6:	0c35      	lsrs	r5, r6, #16
100039a8:	436f      	muls	r7, r5
100039aa:	b2a4      	uxth	r4, r4
100039ac:	436c      	muls	r4, r5
100039ae:	191b      	adds	r3, r3, r4
100039b0:	d302      	bcc.n	100039b8 <l20_1>
100039b2:	2401      	movs	r4, #1
100039b4:	0424      	lsls	r4, r4, #16
100039b6:	193f      	adds	r7, r7, r4

100039b8 <l20_1>:
100039b8:	041c      	lsls	r4, r3, #16
100039ba:	0c1d      	lsrs	r5, r3, #16
100039bc:	18a4      	adds	r4, r4, r2
100039be:	417d      	adcs	r5, r7
100039c0:	1924      	adds	r4, r4, r4
100039c2:	416d      	adcs	r5, r5
100039c4:	9a00      	ldr	r2, [sp, #0]
100039c6:	b291      	uxth	r1, r2
100039c8:	b2ac      	uxth	r4, r5
100039ca:	4361      	muls	r1, r4
100039cc:	0c17      	lsrs	r7, r2, #16
100039ce:	437c      	muls	r4, r7
100039d0:	0c2b      	lsrs	r3, r5, #16
100039d2:	435f      	muls	r7, r3
100039d4:	b292      	uxth	r2, r2
100039d6:	435a      	muls	r2, r3
100039d8:	18a4      	adds	r4, r4, r2
100039da:	d302      	bcc.n	100039e2 <l21_1>
100039dc:	2201      	movs	r2, #1
100039de:	0412      	lsls	r2, r2, #16
100039e0:	18bf      	adds	r7, r7, r2

100039e2 <l21_1>:
100039e2:	0422      	lsls	r2, r4, #16
100039e4:	0c23      	lsrs	r3, r4, #16
100039e6:	1852      	adds	r2, r2, r1
100039e8:	417b      	adcs	r3, r7
100039ea:	9c01      	ldr	r4, [sp, #4]
100039ec:	436c      	muls	r4, r5
100039ee:	191b      	adds	r3, r3, r4
100039f0:	0e52      	lsrs	r2, r2, #25
100039f2:	01d9      	lsls	r1, r3, #7
100039f4:	430a      	orrs	r2, r1
100039f6:	0144      	lsls	r4, r0, #5
100039f8:	1aa0      	subs	r0, r4, r2
100039fa:	b281      	uxth	r1, r0
100039fc:	b2b2      	uxth	r2, r6
100039fe:	4351      	muls	r1, r2
10003a00:	1403      	asrs	r3, r0, #16
10003a02:	435a      	muls	r2, r3
10003a04:	0c36      	lsrs	r6, r6, #16
10003a06:	4373      	muls	r3, r6
10003a08:	b287      	uxth	r7, r0
10003a0a:	4377      	muls	r7, r6
10003a0c:	17d6      	asrs	r6, r2, #31
10003a0e:	19d2      	adds	r2, r2, r7
10003a10:	2700      	movs	r7, #0
10003a12:	417e      	adcs	r6, r7
10003a14:	0436      	lsls	r6, r6, #16
10003a16:	199b      	adds	r3, r3, r6
10003a18:	0417      	lsls	r7, r2, #16
10003a1a:	0c16      	lsrs	r6, r2, #16
10003a1c:	187f      	adds	r7, r7, r1
10003a1e:	415e      	adcs	r6, r3
10003a20:	1673      	asrs	r3, r6, #25
10003a22:	18ed      	adds	r5, r5, r3
10003a24:	01f3      	lsls	r3, r6, #7
10003a26:	2600      	movs	r6, #0
10003a28:	3380      	adds	r3, #128	; 0x80
10003a2a:	4175      	adcs	r5, r6
10003a2c:	0fa9      	lsrs	r1, r5, #30
10003a2e:	d106      	bne.n	10003a3e <dd_0>
10003a30:	0064      	lsls	r4, r4, #1
10003a32:	0a69      	lsrs	r1, r5, #9
10003a34:	05e8      	lsls	r0, r5, #23
10003a36:	0a5b      	lsrs	r3, r3, #9
10003a38:	4318      	orrs	r0, r3
10003a3a:	d209      	bcs.n	10003a50 <dd_1>
10003a3c:	e02f      	b.n	10003a9e <dd_2>

10003a3e <dd_0>:
10003a3e:	2204      	movs	r2, #4
10003a40:	4494      	add	ip, r2
10003a42:	3380      	adds	r3, #128	; 0x80
10003a44:	4175      	adcs	r5, r6
10003a46:	0aa9      	lsrs	r1, r5, #10
10003a48:	05a8      	lsls	r0, r5, #22
10003a4a:	0a9b      	lsrs	r3, r3, #10
10003a4c:	4318      	orrs	r0, r3
10003a4e:	d326      	bcc.n	10003a9e <dd_2>

10003a50 <dd_1>:
10003a50:	4140      	adcs	r0, r0
10003a52:	4149      	adcs	r1, r1
10003a54:	0424      	lsls	r4, r4, #16
10003a56:	9a00      	ldr	r2, [sp, #0]
10003a58:	9b01      	ldr	r3, [sp, #4]
10003a5a:	000d      	movs	r5, r1
10003a5c:	4355      	muls	r5, r2
10003a5e:	1b64      	subs	r4, r4, r5
10003a60:	4343      	muls	r3, r0
10003a62:	1ae4      	subs	r4, r4, r3
10003a64:	b295      	uxth	r5, r2
10003a66:	b286      	uxth	r6, r0
10003a68:	4375      	muls	r5, r6
10003a6a:	0c17      	lsrs	r7, r2, #16
10003a6c:	437e      	muls	r6, r7
10003a6e:	0c03      	lsrs	r3, r0, #16
10003a70:	435f      	muls	r7, r3
10003a72:	b292      	uxth	r2, r2
10003a74:	435a      	muls	r2, r3
10003a76:	18b6      	adds	r6, r6, r2
10003a78:	d302      	bcc.n	10003a80 <l23_1>
10003a7a:	2201      	movs	r2, #1
10003a7c:	0412      	lsls	r2, r2, #16
10003a7e:	18bf      	adds	r7, r7, r2

10003a80 <l23_1>:
10003a80:	0432      	lsls	r2, r6, #16
10003a82:	0c33      	lsrs	r3, r6, #16
10003a84:	1952      	adds	r2, r2, r5
10003a86:	417b      	adcs	r3, r7
10003a88:	4252      	negs	r2, r2
10003a8a:	419c      	sbcs	r4, r3
10003a8c:	2c00      	cmp	r4, #0
10003a8e:	d402      	bmi.n	10003a96 <l23_1+0x16>
10003a90:	2200      	movs	r2, #0
10003a92:	3001      	adds	r0, #1
10003a94:	4151      	adcs	r1, r2
10003a96:	0840      	lsrs	r0, r0, #1
10003a98:	07ca      	lsls	r2, r1, #31
10003a9a:	4310      	orrs	r0, r2
10003a9c:	0849      	lsrs	r1, r1, #1

10003a9e <dd_2>:
10003a9e:	b002      	add	sp, #8
10003aa0:	4662      	mov	r2, ip
10003aa2:	07d7      	lsls	r7, r2, #31
10003aa4:	1092      	asrs	r2, r2, #2
10003aa6:	4b08      	ldr	r3, [pc, #32]	; (10003ac8 <dd_4+0x6>)
10003aa8:	18d2      	adds	r2, r2, r3
10003aaa:	4b08      	ldr	r3, [pc, #32]	; (10003acc <dd_4+0xa>)
10003aac:	429a      	cmp	r2, r3
10003aae:	d203      	bcs.n	10003ab8 <dd_3>
10003ab0:	0512      	lsls	r2, r2, #20
10003ab2:	1889      	adds	r1, r1, r2

10003ab4 <dd_5>:
10003ab4:	19c9      	adds	r1, r1, r7
10003ab6:	bdf0      	pop	{r4, r5, r6, r7, pc}

10003ab8 <dd_3>:
10003ab8:	2000      	movs	r0, #0
10003aba:	2a00      	cmp	r2, #0
10003abc:	dc01      	bgt.n	10003ac2 <dd_4>
10003abe:	0039      	movs	r1, r7
10003ac0:	bdf0      	pop	{r4, r5, r6, r7, pc}

10003ac2 <dd_4>:
10003ac2:	3301      	adds	r3, #1
10003ac4:	0519      	lsls	r1, r3, #20
10003ac6:	e7f5      	b.n	10003ab4 <dd_5>
10003ac8:	000003fd 	.word	0x000003fd
10003acc:	000007fe 	.word	0x000007fe

10003ad0 <dcordic_rot_step>:
10003ad0:	4662      	mov	r2, ip
10003ad2:	ca18      	ldmia	r2!, {r3, r4}
10003ad4:	4694      	mov	ip, r2
10003ad6:	2900      	cmp	r1, #0
10003ad8:	da1a      	bge.n	10003b10 <dcordic_rot_step+0x40>
10003ada:	18c0      	adds	r0, r0, r3
10003adc:	4161      	adcs	r1, r4
10003ade:	465b      	mov	r3, fp
10003ae0:	413b      	asrs	r3, r7
10003ae2:	465c      	mov	r4, fp
10003ae4:	40b4      	lsls	r4, r6
10003ae6:	4652      	mov	r2, sl
10003ae8:	40fa      	lsrs	r2, r7
10003aea:	4322      	orrs	r2, r4
10003aec:	4644      	mov	r4, r8
10003aee:	464d      	mov	r5, r9
10003af0:	4162      	adcs	r2, r4
10003af2:	416b      	adcs	r3, r5
10003af4:	4690      	mov	r8, r2
10003af6:	4699      	mov	r9, r3
10003af8:	462b      	mov	r3, r5
10003afa:	40b3      	lsls	r3, r6
10003afc:	413d      	asrs	r5, r7
10003afe:	40fc      	lsrs	r4, r7
10003b00:	431c      	orrs	r4, r3
10003b02:	4652      	mov	r2, sl
10003b04:	465b      	mov	r3, fp
10003b06:	41a2      	sbcs	r2, r4
10003b08:	41ab      	sbcs	r3, r5
10003b0a:	4692      	mov	sl, r2
10003b0c:	469b      	mov	fp, r3
10003b0e:	4770      	bx	lr
10003b10:	1ac0      	subs	r0, r0, r3
10003b12:	41a1      	sbcs	r1, r4
10003b14:	464b      	mov	r3, r9
10003b16:	413b      	asrs	r3, r7
10003b18:	464c      	mov	r4, r9
10003b1a:	40b4      	lsls	r4, r6
10003b1c:	4642      	mov	r2, r8
10003b1e:	40fa      	lsrs	r2, r7
10003b20:	4322      	orrs	r2, r4
10003b22:	4654      	mov	r4, sl
10003b24:	465d      	mov	r5, fp
10003b26:	4162      	adcs	r2, r4
10003b28:	416b      	adcs	r3, r5
10003b2a:	4692      	mov	sl, r2
10003b2c:	469b      	mov	fp, r3
10003b2e:	462b      	mov	r3, r5
10003b30:	40b3      	lsls	r3, r6
10003b32:	413d      	asrs	r5, r7
10003b34:	40fc      	lsrs	r4, r7
10003b36:	431c      	orrs	r4, r3
10003b38:	4642      	mov	r2, r8
10003b3a:	464b      	mov	r3, r9
10003b3c:	41a2      	sbcs	r2, r4
10003b3e:	41ab      	sbcs	r3, r5
10003b40:	4690      	mov	r8, r2
10003b42:	4699      	mov	r9, r3
10003b44:	4770      	bx	lr

10003b46 <ret_dzero>:
10003b46:	2000      	movs	r0, #0
10003b48:	2100      	movs	r1, #0
10003b4a:	4770      	bx	lr

10003b4c <double2uint_shim>:
10003b4c:	2200      	movs	r2, #0

10003b4e <double2ufix_shim>:
10003b4e:	b500      	push	{lr}
10003b50:	3220      	adds	r2, #32
10003b52:	f000 f804 	bl	10003b5e <double2ufix64_shim>
10003b56:	0008      	movs	r0, r1
10003b58:	bd00      	pop	{pc}
	...

10003b5c <double2uint64_shim>:
10003b5c:	2200      	movs	r2, #0

10003b5e <double2ufix64_shim>:
10003b5e:	150b      	asrs	r3, r1, #20
10003b60:	d4f1      	bmi.n	10003b46 <ret_dzero>

10003b62 <d2fix>:
10003b62:	b510      	push	{r4, lr}
10003b64:	4694      	mov	ip, r2
10003b66:	f000 f82f 	bl	10003bc8 <dunpacks>
10003b6a:	1414      	asrs	r4, r2, #16
10003b6c:	3401      	adds	r4, #1
10003b6e:	da00      	bge.n	10003b72 <d2fix+0x10>
10003b70:	2100      	movs	r1, #0
10003b72:	17cb      	asrs	r3, r1, #31
10003b74:	4c13      	ldr	r4, [pc, #76]	; (10003bc4 <d2fix_a+0x4c>)
10003b76:	4720      	bx	r4

10003b78 <d2fix_a>:
10003b78:	4462      	add	r2, ip
10003b7a:	3a34      	subs	r2, #52	; 0x34
10003b7c:	d40c      	bmi.n	10003b98 <d2fix_a+0x20>
10003b7e:	2a0c      	cmp	r2, #12
10003b80:	da07      	bge.n	10003b92 <d2fix_a+0x1a>
10003b82:	0004      	movs	r4, r0
10003b84:	4091      	lsls	r1, r2
10003b86:	4090      	lsls	r0, r2
10003b88:	4252      	negs	r2, r2
10003b8a:	3220      	adds	r2, #32
10003b8c:	40d4      	lsrs	r4, r2
10003b8e:	4321      	orrs	r1, r4
10003b90:	bd10      	pop	{r4, pc}
10003b92:	43d8      	mvns	r0, r3
10003b94:	43d9      	mvns	r1, r3
10003b96:	bd10      	pop	{r4, pc}
10003b98:	3220      	adds	r2, #32
10003b9a:	d407      	bmi.n	10003bac <d2fix_a+0x34>
10003b9c:	460c      	mov	r4, r1
10003b9e:	4094      	lsls	r4, r2
10003ba0:	4252      	negs	r2, r2
10003ba2:	3220      	adds	r2, #32
10003ba4:	4111      	asrs	r1, r2
10003ba6:	40d0      	lsrs	r0, r2
10003ba8:	4320      	orrs	r0, r4
10003baa:	bd10      	pop	{r4, pc}
10003bac:	0008      	movs	r0, r1
10003bae:	17c9      	asrs	r1, r1, #31
10003bb0:	3220      	adds	r2, #32
10003bb2:	d403      	bmi.n	10003bbc <d2fix_a+0x44>
10003bb4:	4252      	negs	r2, r2
10003bb6:	3220      	adds	r2, #32
10003bb8:	4110      	asrs	r0, r2
10003bba:	bd10      	pop	{r4, pc}
10003bbc:	0018      	movs	r0, r3
10003bbe:	0019      	movs	r1, r3
10003bc0:	bd10      	pop	{r4, pc}
10003bc2:	0000      	.short	0x0000
10003bc4:	10003b79 	.word	0x10003b79

10003bc8 <dunpacks>:
10003bc8:	0d0a      	lsrs	r2, r1, #20
10003bca:	0fcc      	lsrs	r4, r1, #31
10003bcc:	1e53      	subs	r3, r2, #1
10003bce:	051b      	lsls	r3, r3, #20
10003bd0:	1ac9      	subs	r1, r1, r3
10003bd2:	0552      	lsls	r2, r2, #21
10003bd4:	d303      	bcc.n	10003bde <l60_1>
10003bd6:	43c9      	mvns	r1, r1
10003bd8:	4240      	negs	r0, r0
10003bda:	d300      	bcc.n	10003bde <l60_1>
10003bdc:	3101      	adds	r1, #1

10003bde <l60_1>:
10003bde:	0d52      	lsrs	r2, r2, #21
10003be0:	d003      	beq.n	10003bea <l60_2>
10003be2:	1c53      	adds	r3, r2, #1
10003be4:	0adb      	lsrs	r3, r3, #11
10003be6:	d007      	beq.n	10003bf8 <l60_3>
10003be8:	1b12      	subs	r2, r2, r4

10003bea <l60_2>:
10003bea:	2000      	movs	r0, #0
10003bec:	0064      	lsls	r4, r4, #1
10003bee:	1c61      	adds	r1, r4, #1
10003bf0:	0789      	lsls	r1, r1, #30
10003bf2:	1289      	asrs	r1, r1, #10
10003bf4:	3a80      	subs	r2, #128	; 0x80
10003bf6:	0312      	lsls	r2, r2, #12

10003bf8 <l60_3>:
10003bf8:	4b01      	ldr	r3, [pc, #4]	; (10003c00 <l60_3+0x8>)
10003bfa:	1ad2      	subs	r2, r2, r3
10003bfc:	4770      	bx	lr
10003bfe:	0000      	.short	0x0000
10003c00:	000003ff 	.word	0x000003ff

10003c04 <__aeabi_float_init>:
10003c04:	2313      	movs	r3, #19
10003c06:	b510      	push	{r4, lr}
10003c08:	4812      	ldr	r0, [pc, #72]	; (10003c54 <__aeabi_float_init+0x50>)
10003c0a:	781c      	ldrb	r4, [r3, #0]
10003c0c:	f7ff f94e 	bl	10002eac <rom_data_lookup>
10003c10:	0001      	movs	r1, r0
10003c12:	2c01      	cmp	r4, #1
10003c14:	d00a      	beq.n	10003c2c <__aeabi_float_init+0x28>
10003c16:	dd03      	ble.n	10003c20 <__aeabi_float_init+0x1c>
10003c18:	2280      	movs	r2, #128	; 0x80
10003c1a:	480f      	ldr	r0, [pc, #60]	; (10003c58 <__aeabi_float_init+0x54>)
10003c1c:	f000 f850 	bl	10003cc0 <__wrap___aeabi_memcpy>
10003c20:	480e      	ldr	r0, [pc, #56]	; (10003c5c <__aeabi_float_init+0x58>)
10003c22:	f7ff f93b 	bl	10002e9c <rom_func_lookup>
10003c26:	4b0e      	ldr	r3, [pc, #56]	; (10003c60 <__aeabi_float_init+0x5c>)
10003c28:	6018      	str	r0, [r3, #0]
10003c2a:	bd10      	pop	{r4, pc}
10003c2c:	4c0a      	ldr	r4, [pc, #40]	; (10003c58 <__aeabi_float_init+0x54>)
10003c2e:	2254      	movs	r2, #84	; 0x54
10003c30:	0020      	movs	r0, r4
10003c32:	f000 f845 	bl	10003cc0 <__wrap___aeabi_memcpy>
10003c36:	4b0b      	ldr	r3, [pc, #44]	; (10003c64 <__aeabi_float_init+0x60>)
10003c38:	6563      	str	r3, [r4, #84]	; 0x54
10003c3a:	65a3      	str	r3, [r4, #88]	; 0x58
10003c3c:	65e3      	str	r3, [r4, #92]	; 0x5c
10003c3e:	6623      	str	r3, [r4, #96]	; 0x60
10003c40:	6663      	str	r3, [r4, #100]	; 0x64
10003c42:	66a3      	str	r3, [r4, #104]	; 0x68
10003c44:	66e3      	str	r3, [r4, #108]	; 0x6c
10003c46:	6723      	str	r3, [r4, #112]	; 0x70
10003c48:	6763      	str	r3, [r4, #116]	; 0x74
10003c4a:	67a3      	str	r3, [r4, #120]	; 0x78
10003c4c:	67e3      	str	r3, [r4, #124]	; 0x7c
10003c4e:	6223      	str	r3, [r4, #32]
10003c50:	61e3      	str	r3, [r4, #28]
10003c52:	e7e5      	b.n	10003c20 <__aeabi_float_init+0x1c>
10003c54:	00004653 	.word	0x00004653
10003c58:	20000c38 	.word	0x20000c38
10003c5c:	0000334c 	.word	0x0000334c
10003c60:	20000d38 	.word	0x20000d38
10003c64:	10003c69 	.word	0x10003c69

10003c68 <float_table_shim_on_use_helper>:
10003c68:	b507      	push	{r0, r1, r2, lr}
10003c6a:	4660      	mov	r0, ip
10003c6c:	8801      	ldrh	r1, [r0, #0]
10003c6e:	0a0a      	lsrs	r2, r1, #8
10003c70:	3002      	adds	r0, #2
10003c72:	2adf      	cmp	r2, #223	; 0xdf
10003c74:	d1fa      	bne.n	10003c6c <float_table_shim_on_use_helper+0x4>
10003c76:	b2c9      	uxtb	r1, r1
10003c78:	0882      	lsrs	r2, r0, #2
10003c7a:	d304      	bcc.n	10003c86 <float_table_shim_on_use_helper+0x1e>
10003c7c:	8802      	ldrh	r2, [r0, #0]
10003c7e:	8840      	ldrh	r0, [r0, #2]
10003c80:	0400      	lsls	r0, r0, #16
10003c82:	4310      	orrs	r0, r2
10003c84:	e000      	b.n	10003c88 <float_table_shim_on_use_helper+0x20>
10003c86:	6800      	ldr	r0, [r0, #0]
10003c88:	4a01      	ldr	r2, [pc, #4]	; (10003c90 <float_table_shim_on_use_helper+0x28>)
10003c8a:	5050      	str	r0, [r2, r1]
10003c8c:	9003      	str	r0, [sp, #12]
10003c8e:	bd07      	pop	{r0, r1, r2, pc}
10003c90:	20000c38 	.word	0x20000c38

10003c94 <__wrap_malloc>:
10003c94:	b510      	push	{r4, lr}
10003c96:	f000 fbfb 	bl	10004490 <malloc>
10003c9a:	bd10      	pop	{r4, pc}

10003c9c <__wrap_calloc>:
10003c9c:	b510      	push	{r4, lr}
10003c9e:	f000 fbbd 	bl	1000441c <calloc>
10003ca2:	bd10      	pop	{r4, pc}

10003ca4 <__aeabi_mem_init>:
10003ca4:	4801      	ldr	r0, [pc, #4]	; (10003cac <__aeabi_mem_init+0x8>)
10003ca6:	2104      	movs	r1, #4
10003ca8:	4b01      	ldr	r3, [pc, #4]	; (10003cb0 <__aeabi_mem_init+0xc>)
10003caa:	4718      	bx	r3
10003cac:	200001f0 	.word	0x200001f0
10003cb0:	10002ebd 	.word	0x10002ebd

10003cb4 <__wrap_memset>:
10003cb4:	4b01      	ldr	r3, [pc, #4]	; (10003cbc <__wrap_memset+0x8>)
10003cb6:	681b      	ldr	r3, [r3, #0]
10003cb8:	4718      	bx	r3
10003cba:	0000      	.short	0x0000
10003cbc:	200001f0 	.word	0x200001f0

10003cc0 <__wrap___aeabi_memcpy>:
10003cc0:	4b01      	ldr	r3, [pc, #4]	; (10003cc8 <__wrap___aeabi_memcpy+0x8>)
10003cc2:	685b      	ldr	r3, [r3, #4]
10003cc4:	4718      	bx	r3
10003cc6:	0000      	.short	0x0000
10003cc8:	200001f0 	.word	0x200001f0

10003ccc <stdio_out_chars_crlf.part.0>:
10003ccc:	b5f8      	push	{r3, r4, r5, r6, r7, lr}
10003cce:	4647      	mov	r7, r8
10003cd0:	46ce      	mov	lr, r9
10003cd2:	000d      	movs	r5, r1
10003cd4:	b580      	push	{r7, lr}
10003cd6:	0016      	movs	r6, r2
10003cd8:	0007      	movs	r7, r0
10003cda:	2a00      	cmp	r2, #0
10003cdc:	dd20      	ble.n	10003d20 <stdio_out_chars_crlf.part.0+0x54>
10003cde:	1e4b      	subs	r3, r1, #1
10003ce0:	4698      	mov	r8, r3
10003ce2:	4b1a      	ldr	r3, [pc, #104]	; (10003d4c <stdio_out_chars_crlf.part.0+0x80>)
10003ce4:	2400      	movs	r4, #0
10003ce6:	2000      	movs	r0, #0
10003ce8:	4699      	mov	r9, r3
10003cea:	2c00      	cmp	r4, #0
10003cec:	d02b      	beq.n	10003d46 <stdio_out_chars_crlf.part.0+0x7a>
10003cee:	4643      	mov	r3, r8
10003cf0:	5d1b      	ldrb	r3, [r3, r4]
10003cf2:	3b0d      	subs	r3, #13
10003cf4:	425a      	negs	r2, r3
10003cf6:	4153      	adcs	r3, r2
10003cf8:	b2db      	uxtb	r3, r3
10003cfa:	5d2a      	ldrb	r2, [r5, r4]
10003cfc:	2a0a      	cmp	r2, #10
10003cfe:	d013      	beq.n	10003d28 <stdio_out_chars_crlf.part.0+0x5c>
10003d00:	3401      	adds	r4, #1
10003d02:	42a6      	cmp	r6, r4
10003d04:	dcf1      	bgt.n	10003cea <stdio_out_chars_crlf.part.0+0x1e>
10003d06:	4286      	cmp	r6, r0
10003d08:	dd03      	ble.n	10003d12 <stdio_out_chars_crlf.part.0+0x46>
10003d0a:	1a31      	subs	r1, r6, r0
10003d0c:	683b      	ldr	r3, [r7, #0]
10003d0e:	1828      	adds	r0, r5, r0
10003d10:	4798      	blx	r3
10003d12:	19ad      	adds	r5, r5, r6
10003d14:	3d01      	subs	r5, #1
10003d16:	782b      	ldrb	r3, [r5, #0]
10003d18:	3b0d      	subs	r3, #13
10003d1a:	425a      	negs	r2, r3
10003d1c:	4153      	adcs	r3, r2
10003d1e:	743b      	strb	r3, [r7, #16]
10003d20:	bc0c      	pop	{r2, r3}
10003d22:	4690      	mov	r8, r2
10003d24:	4699      	mov	r9, r3
10003d26:	bdf8      	pop	{r3, r4, r5, r6, r7, pc}
10003d28:	2b00      	cmp	r3, #0
10003d2a:	d1e9      	bne.n	10003d00 <stdio_out_chars_crlf.part.0+0x34>
10003d2c:	42a0      	cmp	r0, r4
10003d2e:	da03      	bge.n	10003d38 <stdio_out_chars_crlf.part.0+0x6c>
10003d30:	1a21      	subs	r1, r4, r0
10003d32:	683b      	ldr	r3, [r7, #0]
10003d34:	1828      	adds	r0, r5, r0
10003d36:	4798      	blx	r3
10003d38:	4648      	mov	r0, r9
10003d3a:	2102      	movs	r1, #2
10003d3c:	683b      	ldr	r3, [r7, #0]
10003d3e:	3401      	adds	r4, #1
10003d40:	4798      	blx	r3
10003d42:	0020      	movs	r0, r4
10003d44:	e7dd      	b.n	10003d02 <stdio_out_chars_crlf.part.0+0x36>
10003d46:	7c3b      	ldrb	r3, [r7, #16]
10003d48:	e7d7      	b.n	10003cfa <stdio_out_chars_crlf.part.0+0x2e>
10003d4a:	46c0      	nop			; (mov r8, r8)
10003d4c:	10005208 	.word	0x10005208

10003d50 <stdio_buffered_printer>:
10003d50:	b5f8      	push	{r3, r4, r5, r6, r7, lr}
10003d52:	4647      	mov	r7, r8
10003d54:	46ce      	mov	lr, r9
10003d56:	000c      	movs	r4, r1
10003d58:	6809      	ldr	r1, [r1, #0]
10003d5a:	b580      	push	{r7, lr}
10003d5c:	0007      	movs	r7, r0
10003d5e:	2980      	cmp	r1, #128	; 0x80
10003d60:	d007      	beq.n	10003d72 <stdio_buffered_printer+0x22>
10003d62:	1c4b      	adds	r3, r1, #1
10003d64:	6023      	str	r3, [r4, #0]
10003d66:	1864      	adds	r4, r4, r1
10003d68:	7127      	strb	r7, [r4, #4]
10003d6a:	bc0c      	pop	{r2, r3}
10003d6c:	4690      	mov	r8, r2
10003d6e:	4699      	mov	r9, r3
10003d70:	bdf8      	pop	{r3, r4, r5, r6, r7, pc}
10003d72:	4b13      	ldr	r3, [pc, #76]	; (10003dc0 <stdio_buffered_printer+0x70>)
10003d74:	681d      	ldr	r5, [r3, #0]
10003d76:	2d00      	cmp	r5, #0
10003d78:	d01b      	beq.n	10003db2 <stdio_buffered_printer+0x62>
10003d7a:	4b12      	ldr	r3, [pc, #72]	; (10003dc4 <stdio_buffered_printer+0x74>)
10003d7c:	4698      	mov	r8, r3
10003d7e:	1d23      	adds	r3, r4, #4
10003d80:	4699      	mov	r9, r3
10003d82:	e002      	b.n	10003d8a <stdio_buffered_printer+0x3a>
10003d84:	68ed      	ldr	r5, [r5, #12]
10003d86:	2d00      	cmp	r5, #0
10003d88:	d013      	beq.n	10003db2 <stdio_buffered_printer+0x62>
10003d8a:	682e      	ldr	r6, [r5, #0]
10003d8c:	2e00      	cmp	r6, #0
10003d8e:	d0f9      	beq.n	10003d84 <stdio_buffered_printer+0x34>
10003d90:	4643      	mov	r3, r8
10003d92:	681b      	ldr	r3, [r3, #0]
10003d94:	2b00      	cmp	r3, #0
10003d96:	d001      	beq.n	10003d9c <stdio_buffered_printer+0x4c>
10003d98:	429d      	cmp	r5, r3
10003d9a:	d1f3      	bne.n	10003d84 <stdio_buffered_printer+0x34>
10003d9c:	7c6b      	ldrb	r3, [r5, #17]
10003d9e:	6822      	ldr	r2, [r4, #0]
10003da0:	2b00      	cmp	r3, #0
10003da2:	d009      	beq.n	10003db8 <stdio_buffered_printer+0x68>
10003da4:	0028      	movs	r0, r5
10003da6:	4649      	mov	r1, r9
10003da8:	f7ff ff90 	bl	10003ccc <stdio_out_chars_crlf.part.0>
10003dac:	68ed      	ldr	r5, [r5, #12]
10003dae:	2d00      	cmp	r5, #0
10003db0:	d1eb      	bne.n	10003d8a <stdio_buffered_printer+0x3a>
10003db2:	2301      	movs	r3, #1
10003db4:	2100      	movs	r1, #0
10003db6:	e7d5      	b.n	10003d64 <stdio_buffered_printer+0x14>
10003db8:	0011      	movs	r1, r2
10003dba:	4648      	mov	r0, r9
10003dbc:	47b0      	blx	r6
10003dbe:	e7e1      	b.n	10003d84 <stdio_buffered_printer+0x34>
10003dc0:	20000afc 	.word	0x20000afc
10003dc4:	20000b00 	.word	0x20000b00

10003dc8 <stdio_put_string>:
10003dc8:	b5f0      	push	{r4, r5, r6, r7, lr}
10003dca:	4657      	mov	r7, sl
10003dcc:	4645      	mov	r5, r8
10003dce:	46de      	mov	lr, fp
10003dd0:	464e      	mov	r6, r9
10003dd2:	23d0      	movs	r3, #208	; 0xd0
10003dd4:	b5e0      	push	{r5, r6, r7, lr}
10003dd6:	061b      	lsls	r3, r3, #24
10003dd8:	681c      	ldr	r4, [r3, #0]
10003dda:	4b37      	ldr	r3, [pc, #220]	; (10003eb8 <stdio_put_string+0xf0>)
10003ddc:	b083      	sub	sp, #12
10003dde:	0007      	movs	r7, r0
10003de0:	000d      	movs	r5, r1
10003de2:	0018      	movs	r0, r3
10003de4:	a901      	add	r1, sp, #4
10003de6:	4690      	mov	r8, r2
10003de8:	469a      	mov	sl, r3
10003dea:	f000 ffb9 	bl	10004d60 <__mutex_try_enter_veneer>
10003dee:	4681      	mov	r9, r0
10003df0:	2800      	cmp	r0, #0
10003df2:	d107      	bne.n	10003e04 <stdio_put_string+0x3c>
10003df4:	9b01      	ldr	r3, [sp, #4]
10003df6:	429c      	cmp	r4, r3
10003df8:	d004      	beq.n	10003e04 <stdio_put_string+0x3c>
10003dfa:	4650      	mov	r0, sl
10003dfc:	f000 ffb8 	bl	10004d70 <__mutex_enter_blocking_veneer>
10003e00:	2301      	movs	r3, #1
10003e02:	4699      	mov	r9, r3
10003e04:	1c6b      	adds	r3, r5, #1
10003e06:	d103      	bne.n	10003e10 <stdio_put_string+0x48>
10003e08:	0038      	movs	r0, r7
10003e0a:	f000 fe2d 	bl	10004a68 <strlen>
10003e0e:	0005      	movs	r5, r0
10003e10:	4b2a      	ldr	r3, [pc, #168]	; (10003ebc <stdio_put_string+0xf4>)
10003e12:	681c      	ldr	r4, [r3, #0]
10003e14:	2c00      	cmp	r4, #0
10003e16:	d02f      	beq.n	10003e78 <stdio_put_string+0xb0>
10003e18:	230a      	movs	r3, #10
10003e1a:	4e29      	ldr	r6, [pc, #164]	; (10003ec0 <stdio_put_string+0xf8>)
10003e1c:	469b      	mov	fp, r3
10003e1e:	e002      	b.n	10003e26 <stdio_put_string+0x5e>
10003e20:	68e4      	ldr	r4, [r4, #12]
10003e22:	2c00      	cmp	r4, #0
10003e24:	d028      	beq.n	10003e78 <stdio_put_string+0xb0>
10003e26:	6822      	ldr	r2, [r4, #0]
10003e28:	2a00      	cmp	r2, #0
10003e2a:	d0f9      	beq.n	10003e20 <stdio_put_string+0x58>
10003e2c:	6833      	ldr	r3, [r6, #0]
10003e2e:	2b00      	cmp	r3, #0
10003e30:	d001      	beq.n	10003e36 <stdio_put_string+0x6e>
10003e32:	42a3      	cmp	r3, r4
10003e34:	d1f4      	bne.n	10003e20 <stdio_put_string+0x58>
10003e36:	7c63      	ldrb	r3, [r4, #17]
10003e38:	2b00      	cmp	r3, #0
10003e3a:	d02a      	beq.n	10003e92 <stdio_put_string+0xca>
10003e3c:	002a      	movs	r2, r5
10003e3e:	0039      	movs	r1, r7
10003e40:	0020      	movs	r0, r4
10003e42:	f7ff ff43 	bl	10003ccc <stdio_out_chars_crlf.part.0>
10003e46:	4643      	mov	r3, r8
10003e48:	2b00      	cmp	r3, #0
10003e4a:	d0e9      	beq.n	10003e20 <stdio_put_string+0x58>
10003e4c:	466b      	mov	r3, sp
10003e4e:	465a      	mov	r2, fp
10003e50:	711a      	strb	r2, [r3, #4]
10003e52:	7c63      	ldrb	r3, [r4, #17]
10003e54:	2b00      	cmp	r3, #0
10003e56:	d020      	beq.n	10003e9a <stdio_put_string+0xd2>
10003e58:	7c23      	ldrb	r3, [r4, #16]
10003e5a:	2b00      	cmp	r3, #0
10003e5c:	d026      	beq.n	10003eac <stdio_put_string+0xe4>
10003e5e:	2101      	movs	r1, #1
10003e60:	6823      	ldr	r3, [r4, #0]
10003e62:	a801      	add	r0, sp, #4
10003e64:	4798      	blx	r3
10003e66:	466b      	mov	r3, sp
10003e68:	791b      	ldrb	r3, [r3, #4]
10003e6a:	3b0d      	subs	r3, #13
10003e6c:	425a      	negs	r2, r3
10003e6e:	4153      	adcs	r3, r2
10003e70:	7423      	strb	r3, [r4, #16]
10003e72:	68e4      	ldr	r4, [r4, #12]
10003e74:	2c00      	cmp	r4, #0
10003e76:	d1d6      	bne.n	10003e26 <stdio_put_string+0x5e>
10003e78:	464b      	mov	r3, r9
10003e7a:	2b00      	cmp	r3, #0
10003e7c:	d112      	bne.n	10003ea4 <stdio_put_string+0xdc>
10003e7e:	1e68      	subs	r0, r5, #1
10003e80:	4185      	sbcs	r5, r0
10003e82:	b2e8      	uxtb	r0, r5
10003e84:	b003      	add	sp, #12
10003e86:	bc3c      	pop	{r2, r3, r4, r5}
10003e88:	4690      	mov	r8, r2
10003e8a:	4699      	mov	r9, r3
10003e8c:	46a2      	mov	sl, r4
10003e8e:	46ab      	mov	fp, r5
10003e90:	bdf0      	pop	{r4, r5, r6, r7, pc}
10003e92:	0029      	movs	r1, r5
10003e94:	0038      	movs	r0, r7
10003e96:	4790      	blx	r2
10003e98:	e7d5      	b.n	10003e46 <stdio_put_string+0x7e>
10003e9a:	2101      	movs	r1, #1
10003e9c:	6823      	ldr	r3, [r4, #0]
10003e9e:	a801      	add	r0, sp, #4
10003ea0:	4798      	blx	r3
10003ea2:	e7bd      	b.n	10003e20 <stdio_put_string+0x58>
10003ea4:	4650      	mov	r0, sl
10003ea6:	f000 ff43 	bl	10004d30 <__mutex_exit_veneer>
10003eaa:	e7e8      	b.n	10003e7e <stdio_put_string+0xb6>
10003eac:	2102      	movs	r1, #2
10003eae:	4805      	ldr	r0, [pc, #20]	; (10003ec4 <stdio_put_string+0xfc>)
10003eb0:	6823      	ldr	r3, [r4, #0]
10003eb2:	4798      	blx	r3
10003eb4:	e7d7      	b.n	10003e66 <stdio_put_string+0x9e>
10003eb6:	46c0      	nop			; (mov r8, r8)
10003eb8:	20000a50 	.word	0x20000a50
10003ebc:	20000afc 	.word	0x20000afc
10003ec0:	20000b00 	.word	0x20000b00
10003ec4:	10005208 	.word	0x10005208

10003ec8 <__wrap_putchar>:
10003ec8:	b510      	push	{r4, lr}
10003eca:	b082      	sub	sp, #8
10003ecc:	466b      	mov	r3, sp
10003ece:	0004      	movs	r4, r0
10003ed0:	2200      	movs	r2, #0
10003ed2:	1dd8      	adds	r0, r3, #7
10003ed4:	2101      	movs	r1, #1
10003ed6:	7004      	strb	r4, [r0, #0]
10003ed8:	f7ff ff76 	bl	10003dc8 <stdio_put_string>
10003edc:	0020      	movs	r0, r4
10003ede:	b002      	add	sp, #8
10003ee0:	bd10      	pop	{r4, pc}
10003ee2:	46c0      	nop			; (mov r8, r8)

10003ee4 <__wrap_puts>:
10003ee4:	b570      	push	{r4, r5, r6, lr}
10003ee6:	0004      	movs	r4, r0
10003ee8:	f000 fdbe 	bl	10004a68 <strlen>
10003eec:	2201      	movs	r2, #1
10003eee:	0001      	movs	r1, r0
10003ef0:	0005      	movs	r5, r0
10003ef2:	0020      	movs	r0, r4
10003ef4:	f7ff ff68 	bl	10003dc8 <stdio_put_string>
10003ef8:	4b08      	ldr	r3, [pc, #32]	; (10003f1c <__wrap_puts+0x38>)
10003efa:	681c      	ldr	r4, [r3, #0]
10003efc:	2c00      	cmp	r4, #0
10003efe:	d006      	beq.n	10003f0e <__wrap_puts+0x2a>
10003f00:	6863      	ldr	r3, [r4, #4]
10003f02:	2b00      	cmp	r3, #0
10003f04:	d005      	beq.n	10003f12 <__wrap_puts+0x2e>
10003f06:	4798      	blx	r3
10003f08:	68e4      	ldr	r4, [r4, #12]
10003f0a:	2c00      	cmp	r4, #0
10003f0c:	d1f8      	bne.n	10003f00 <__wrap_puts+0x1c>
10003f0e:	0028      	movs	r0, r5
10003f10:	bd70      	pop	{r4, r5, r6, pc}
10003f12:	68e4      	ldr	r4, [r4, #12]
10003f14:	2c00      	cmp	r4, #0
10003f16:	d1f3      	bne.n	10003f00 <__wrap_puts+0x1c>
10003f18:	e7f9      	b.n	10003f0e <__wrap_puts+0x2a>
10003f1a:	46c0      	nop			; (mov r8, r8)
10003f1c:	20000afc 	.word	0x20000afc

10003f20 <stdio_set_driver_enabled>:
10003f20:	4a0d      	ldr	r2, [pc, #52]	; (10003f58 <stdio_set_driver_enabled+0x38>)
10003f22:	6813      	ldr	r3, [r2, #0]
10003f24:	2b00      	cmp	r3, #0
10003f26:	d013      	beq.n	10003f50 <stdio_set_driver_enabled+0x30>
10003f28:	4283      	cmp	r3, r0
10003f2a:	d102      	bne.n	10003f32 <stdio_set_driver_enabled+0x12>
10003f2c:	e009      	b.n	10003f42 <stdio_set_driver_enabled+0x22>
10003f2e:	4298      	cmp	r0, r3
10003f30:	d008      	beq.n	10003f44 <stdio_set_driver_enabled+0x24>
10003f32:	001a      	movs	r2, r3
10003f34:	68db      	ldr	r3, [r3, #12]
10003f36:	2b00      	cmp	r3, #0
10003f38:	d1f9      	bne.n	10003f2e <stdio_set_driver_enabled+0xe>
10003f3a:	2900      	cmp	r1, #0
10003f3c:	d000      	beq.n	10003f40 <stdio_set_driver_enabled+0x20>
10003f3e:	60d0      	str	r0, [r2, #12]
10003f40:	4770      	bx	lr
10003f42:	001a      	movs	r2, r3
10003f44:	2900      	cmp	r1, #0
10003f46:	d1fb      	bne.n	10003f40 <stdio_set_driver_enabled+0x20>
10003f48:	68db      	ldr	r3, [r3, #12]
10003f4a:	60d3      	str	r3, [r2, #12]
10003f4c:	60c1      	str	r1, [r0, #12]
10003f4e:	e7f7      	b.n	10003f40 <stdio_set_driver_enabled+0x20>
10003f50:	2900      	cmp	r1, #0
10003f52:	d0f5      	beq.n	10003f40 <stdio_set_driver_enabled+0x20>
10003f54:	6010      	str	r0, [r2, #0]
10003f56:	e7f3      	b.n	10003f40 <stdio_set_driver_enabled+0x20>
10003f58:	20000afc 	.word	0x20000afc

10003f5c <stdio_flush>:
10003f5c:	4b08      	ldr	r3, [pc, #32]	; (10003f80 <stdio_flush+0x24>)
10003f5e:	b510      	push	{r4, lr}
10003f60:	681c      	ldr	r4, [r3, #0]
10003f62:	2c00      	cmp	r4, #0
10003f64:	d006      	beq.n	10003f74 <stdio_flush+0x18>
10003f66:	6863      	ldr	r3, [r4, #4]
10003f68:	2b00      	cmp	r3, #0
10003f6a:	d004      	beq.n	10003f76 <stdio_flush+0x1a>
10003f6c:	4798      	blx	r3
10003f6e:	68e4      	ldr	r4, [r4, #12]
10003f70:	2c00      	cmp	r4, #0
10003f72:	d1f8      	bne.n	10003f66 <stdio_flush+0xa>
10003f74:	bd10      	pop	{r4, pc}
10003f76:	68e4      	ldr	r4, [r4, #12]
10003f78:	2c00      	cmp	r4, #0
10003f7a:	d1f4      	bne.n	10003f66 <stdio_flush+0xa>
10003f7c:	e7fa      	b.n	10003f74 <stdio_flush+0x18>
10003f7e:	46c0      	nop			; (mov r8, r8)
10003f80:	20000afc 	.word	0x20000afc

10003f84 <__wrap_vprintf>:
10003f84:	b5f0      	push	{r4, r5, r6, r7, lr}
10003f86:	4646      	mov	r6, r8
10003f88:	46d6      	mov	lr, sl
10003f8a:	464f      	mov	r7, r9
10003f8c:	23d0      	movs	r3, #208	; 0xd0
10003f8e:	b5c0      	push	{r6, r7, lr}
10003f90:	061b      	lsls	r3, r3, #24
10003f92:	681f      	ldr	r7, [r3, #0]
10003f94:	4b31      	ldr	r3, [pc, #196]	; (1000405c <__wrap_vprintf+0xd8>)
10003f96:	b0a2      	sub	sp, #136	; 0x88
10003f98:	0004      	movs	r4, r0
10003f9a:	000d      	movs	r5, r1
10003f9c:	0018      	movs	r0, r3
10003f9e:	a901      	add	r1, sp, #4
10003fa0:	4698      	mov	r8, r3
10003fa2:	f000 fedd 	bl	10004d60 <__mutex_try_enter_veneer>
10003fa6:	1e06      	subs	r6, r0, #0
10003fa8:	d106      	bne.n	10003fb8 <__wrap_vprintf+0x34>
10003faa:	9b01      	ldr	r3, [sp, #4]
10003fac:	429f      	cmp	r7, r3
10003fae:	d003      	beq.n	10003fb8 <__wrap_vprintf+0x34>
10003fb0:	4640      	mov	r0, r8
10003fb2:	f000 fedd 	bl	10004d70 <__mutex_enter_blocking_veneer>
10003fb6:	3601      	adds	r6, #1
10003fb8:	2284      	movs	r2, #132	; 0x84
10003fba:	2100      	movs	r1, #0
10003fbc:	a801      	add	r0, sp, #4
10003fbe:	f7ff fe79 	bl	10003cb4 <__wrap_memset>
10003fc2:	002b      	movs	r3, r5
10003fc4:	0022      	movs	r2, r4
10003fc6:	4826      	ldr	r0, [pc, #152]	; (10004060 <__wrap_vprintf+0xdc>)
10003fc8:	a901      	add	r1, sp, #4
10003fca:	f7fe ff37 	bl	10002e3c <vfctprintf>
10003fce:	9b01      	ldr	r3, [sp, #4]
10003fd0:	0007      	movs	r7, r0
10003fd2:	2b00      	cmp	r3, #0
10003fd4:	d115      	bne.n	10004002 <__wrap_vprintf+0x7e>
10003fd6:	4b23      	ldr	r3, [pc, #140]	; (10004064 <__wrap_vprintf+0xe0>)
10003fd8:	681c      	ldr	r4, [r3, #0]
10003fda:	2c00      	cmp	r4, #0
10003fdc:	d006      	beq.n	10003fec <__wrap_vprintf+0x68>
10003fde:	6863      	ldr	r3, [r4, #4]
10003fe0:	2b00      	cmp	r3, #0
10003fe2:	d00c      	beq.n	10003ffe <__wrap_vprintf+0x7a>
10003fe4:	4798      	blx	r3
10003fe6:	68e4      	ldr	r4, [r4, #12]
10003fe8:	2c00      	cmp	r4, #0
10003fea:	d1f8      	bne.n	10003fde <__wrap_vprintf+0x5a>
10003fec:	2e00      	cmp	r6, #0
10003fee:	d12f      	bne.n	10004050 <__wrap_vprintf+0xcc>
10003ff0:	0038      	movs	r0, r7
10003ff2:	b022      	add	sp, #136	; 0x88
10003ff4:	bc1c      	pop	{r2, r3, r4}
10003ff6:	4690      	mov	r8, r2
10003ff8:	4699      	mov	r9, r3
10003ffa:	46a2      	mov	sl, r4
10003ffc:	bdf0      	pop	{r4, r5, r6, r7, pc}
10003ffe:	68e4      	ldr	r4, [r4, #12]
10004000:	e7eb      	b.n	10003fda <__wrap_vprintf+0x56>
10004002:	4b18      	ldr	r3, [pc, #96]	; (10004064 <__wrap_vprintf+0xe0>)
10004004:	681d      	ldr	r5, [r3, #0]
10004006:	469a      	mov	sl, r3
10004008:	2d00      	cmp	r5, #0
1000400a:	d025      	beq.n	10004058 <__wrap_vprintf+0xd4>
1000400c:	4b16      	ldr	r3, [pc, #88]	; (10004068 <__wrap_vprintf+0xe4>)
1000400e:	4699      	mov	r9, r3
10004010:	e002      	b.n	10004018 <__wrap_vprintf+0x94>
10004012:	68ed      	ldr	r5, [r5, #12]
10004014:	2d00      	cmp	r5, #0
10004016:	d013      	beq.n	10004040 <__wrap_vprintf+0xbc>
10004018:	682c      	ldr	r4, [r5, #0]
1000401a:	2c00      	cmp	r4, #0
1000401c:	d0f9      	beq.n	10004012 <__wrap_vprintf+0x8e>
1000401e:	464b      	mov	r3, r9
10004020:	681b      	ldr	r3, [r3, #0]
10004022:	2b00      	cmp	r3, #0
10004024:	d001      	beq.n	1000402a <__wrap_vprintf+0xa6>
10004026:	429d      	cmp	r5, r3
10004028:	d1f3      	bne.n	10004012 <__wrap_vprintf+0x8e>
1000402a:	7c6b      	ldrb	r3, [r5, #17]
1000402c:	9a01      	ldr	r2, [sp, #4]
1000402e:	2b00      	cmp	r3, #0
10004030:	d00a      	beq.n	10004048 <__wrap_vprintf+0xc4>
10004032:	0028      	movs	r0, r5
10004034:	a902      	add	r1, sp, #8
10004036:	f7ff fe49 	bl	10003ccc <stdio_out_chars_crlf.part.0>
1000403a:	68ed      	ldr	r5, [r5, #12]
1000403c:	2d00      	cmp	r5, #0
1000403e:	d1eb      	bne.n	10004018 <__wrap_vprintf+0x94>
10004040:	4653      	mov	r3, sl
10004042:	9501      	str	r5, [sp, #4]
10004044:	681c      	ldr	r4, [r3, #0]
10004046:	e7c8      	b.n	10003fda <__wrap_vprintf+0x56>
10004048:	0011      	movs	r1, r2
1000404a:	a802      	add	r0, sp, #8
1000404c:	47a0      	blx	r4
1000404e:	e7e0      	b.n	10004012 <__wrap_vprintf+0x8e>
10004050:	4640      	mov	r0, r8
10004052:	f000 fe6d 	bl	10004d30 <__mutex_exit_veneer>
10004056:	e7cb      	b.n	10003ff0 <__wrap_vprintf+0x6c>
10004058:	9501      	str	r5, [sp, #4]
1000405a:	e7c7      	b.n	10003fec <__wrap_vprintf+0x68>
1000405c:	20000a50 	.word	0x20000a50
10004060:	10003d51 	.word	0x10003d51
10004064:	20000afc 	.word	0x20000afc
10004068:	20000b00 	.word	0x20000b00

1000406c <__wrap_printf>:
1000406c:	b40f      	push	{r0, r1, r2, r3}
1000406e:	b500      	push	{lr}
10004070:	b083      	sub	sp, #12
10004072:	a904      	add	r1, sp, #16
10004074:	c901      	ldmia	r1!, {r0}
10004076:	9101      	str	r1, [sp, #4]
10004078:	f7ff ff84 	bl	10003f84 <__wrap_vprintf>
1000407c:	b003      	add	sp, #12
1000407e:	bc08      	pop	{r3}
10004080:	b004      	add	sp, #16
10004082:	4718      	bx	r3

10004084 <stdio_init_all>:
10004084:	b510      	push	{r4, lr}
10004086:	f000 f83b 	bl	10004100 <stdio_uart_init>
1000408a:	bd10      	pop	{r4, pc}

1000408c <stdio_uart_out_chars>:
1000408c:	b5f0      	push	{r4, r5, r6, r7, lr}
1000408e:	2900      	cmp	r1, #0
10004090:	d010      	beq.n	100040b4 <stdio_uart_out_chars+0x28>
10004092:	1845      	adds	r5, r0, r1
10004094:	270d      	movs	r7, #13
10004096:	2120      	movs	r1, #32
10004098:	4b09      	ldr	r3, [pc, #36]	; (100040c0 <stdio_uart_out_chars+0x34>)
1000409a:	4a0a      	ldr	r2, [pc, #40]	; (100040c4 <stdio_uart_out_chars+0x38>)
1000409c:	2600      	movs	r6, #0
1000409e:	5f9e      	ldrsh	r6, [r3, r6]
100040a0:	7804      	ldrb	r4, [r0, #0]
100040a2:	42a6      	cmp	r6, r4
100040a4:	d007      	beq.n	100040b6 <stdio_uart_out_chars+0x2a>
100040a6:	6993      	ldr	r3, [r2, #24]
100040a8:	4219      	tst	r1, r3
100040aa:	d1fc      	bne.n	100040a6 <stdio_uart_out_chars+0x1a>
100040ac:	3001      	adds	r0, #1
100040ae:	6014      	str	r4, [r2, #0]
100040b0:	42a8      	cmp	r0, r5
100040b2:	d1f5      	bne.n	100040a0 <stdio_uart_out_chars+0x14>
100040b4:	bdf0      	pop	{r4, r5, r6, r7, pc}
100040b6:	6993      	ldr	r3, [r2, #24]
100040b8:	4219      	tst	r1, r3
100040ba:	d1fc      	bne.n	100040b6 <stdio_uart_out_chars+0x2a>
100040bc:	6017      	str	r7, [r2, #0]
100040be:	e7f2      	b.n	100040a6 <stdio_uart_out_chars+0x1a>
100040c0:	20000b34 	.word	0x20000b34
100040c4:	40034000 	.word	0x40034000

100040c8 <stdio_uart_in_chars>:
100040c8:	b530      	push	{r4, r5, lr}
100040ca:	0005      	movs	r5, r0
100040cc:	2000      	movs	r0, #0
100040ce:	2900      	cmp	r1, #0
100040d0:	dd10      	ble.n	100040f4 <stdio_uart_in_chars+0x2c>
100040d2:	2410      	movs	r4, #16
100040d4:	4a09      	ldr	r2, [pc, #36]	; (100040fc <stdio_uart_in_chars+0x34>)
100040d6:	3d01      	subs	r5, #1
100040d8:	6993      	ldr	r3, [r2, #24]
100040da:	421c      	tst	r4, r3
100040dc:	d108      	bne.n	100040f0 <stdio_uart_in_chars+0x28>
100040de:	3001      	adds	r0, #1
100040e0:	6993      	ldr	r3, [r2, #24]
100040e2:	421c      	tst	r4, r3
100040e4:	d1fc      	bne.n	100040e0 <stdio_uart_in_chars+0x18>
100040e6:	6813      	ldr	r3, [r2, #0]
100040e8:	542b      	strb	r3, [r5, r0]
100040ea:	4281      	cmp	r1, r0
100040ec:	d1f4      	bne.n	100040d8 <stdio_uart_in_chars+0x10>
100040ee:	bd30      	pop	{r4, r5, pc}
100040f0:	2800      	cmp	r0, #0
100040f2:	d1fc      	bne.n	100040ee <stdio_uart_in_chars+0x26>
100040f4:	2003      	movs	r0, #3
100040f6:	4240      	negs	r0, r0
100040f8:	e7f9      	b.n	100040ee <stdio_uart_in_chars+0x26>
100040fa:	46c0      	nop			; (mov r8, r8)
100040fc:	40034000 	.word	0x40034000

10004100 <stdio_uart_init>:
10004100:	21e1      	movs	r1, #225	; 0xe1
10004102:	b510      	push	{r4, lr}
10004104:	4b0a      	ldr	r3, [pc, #40]	; (10004130 <stdio_uart_init+0x30>)
10004106:	0249      	lsls	r1, r1, #9
10004108:	781b      	ldrb	r3, [r3, #0]
1000410a:	4b0a      	ldr	r3, [pc, #40]	; (10004134 <stdio_uart_init+0x34>)
1000410c:	480a      	ldr	r0, [pc, #40]	; (10004138 <stdio_uart_init+0x38>)
1000410e:	781b      	ldrb	r3, [r3, #0]
10004110:	f7fc f9b0 	bl	10000474 <uart_init>
10004114:	2102      	movs	r1, #2
10004116:	2000      	movs	r0, #0
10004118:	f7fc f942 	bl	100003a0 <gpio_set_function>
1000411c:	2102      	movs	r1, #2
1000411e:	2001      	movs	r0, #1
10004120:	f7fc f93e 	bl	100003a0 <gpio_set_function>
10004124:	2101      	movs	r1, #1
10004126:	4805      	ldr	r0, [pc, #20]	; (1000413c <stdio_uart_init+0x3c>)
10004128:	f7ff fefa 	bl	10003f20 <stdio_set_driver_enabled>
1000412c:	bd10      	pop	{r4, pc}
1000412e:	46c0      	nop			; (mov r8, r8)
10004130:	10005268 	.word	0x10005268
10004134:	1000526c 	.word	0x1000526c
10004138:	40034000 	.word	0x40034000
1000413c:	20000200 	.word	0x20000200

10004140 <rtc_irq_handler>:
10004140:	2280      	movs	r2, #128	; 0x80
10004142:	4b0f      	ldr	r3, [pc, #60]	; (10004180 <rtc_irq_handler+0x40>)
10004144:	0552      	lsls	r2, r2, #21
10004146:	b510      	push	{r4, lr}
10004148:	601a      	str	r2, [r3, #0]
1000414a:	2280      	movs	r2, #128	; 0x80
1000414c:	490d      	ldr	r1, [pc, #52]	; (10004184 <rtc_irq_handler+0x44>)
1000414e:	0592      	lsls	r2, r2, #22
10004150:	690b      	ldr	r3, [r1, #16]
10004152:	4213      	tst	r3, r2
10004154:	d1fc      	bne.n	10004150 <rtc_irq_handler+0x10>
10004156:	4b0c      	ldr	r3, [pc, #48]	; (10004188 <rtc_irq_handler+0x48>)
10004158:	781b      	ldrb	r3, [r3, #0]
1000415a:	2b00      	cmp	r3, #0
1000415c:	d009      	beq.n	10004172 <rtc_irq_handler+0x32>
1000415e:	2280      	movs	r2, #128	; 0x80
10004160:	4b0a      	ldr	r3, [pc, #40]	; (1000418c <rtc_irq_handler+0x4c>)
10004162:	0552      	lsls	r2, r2, #21
10004164:	601a      	str	r2, [r3, #0]
10004166:	2280      	movs	r2, #128	; 0x80
10004168:	4906      	ldr	r1, [pc, #24]	; (10004184 <rtc_irq_handler+0x44>)
1000416a:	0592      	lsls	r2, r2, #22
1000416c:	690b      	ldr	r3, [r1, #16]
1000416e:	4213      	tst	r3, r2
10004170:	d0fc      	beq.n	1000416c <rtc_irq_handler+0x2c>
10004172:	4b07      	ldr	r3, [pc, #28]	; (10004190 <rtc_irq_handler+0x50>)
10004174:	681b      	ldr	r3, [r3, #0]
10004176:	2b00      	cmp	r3, #0
10004178:	d000      	beq.n	1000417c <rtc_irq_handler+0x3c>
1000417a:	4798      	blx	r3
1000417c:	bd10      	pop	{r4, pc}
1000417e:	46c0      	nop			; (mov r8, r8)
10004180:	4005f010 	.word	0x4005f010
10004184:	4005c000 	.word	0x4005c000
10004188:	20000b2c 	.word	0x20000b2c
1000418c:	4005e010 	.word	0x4005e010
10004190:	20000abc 	.word	0x20000abc

10004194 <rtc_init>:
10004194:	2009      	movs	r0, #9
10004196:	b510      	push	{r4, lr}
10004198:	f7fd f950 	bl	1000143c <clock_get_hz>
1000419c:	2280      	movs	r2, #128	; 0x80
1000419e:	4b07      	ldr	r3, [pc, #28]	; (100041bc <rtc_init+0x28>)
100041a0:	0212      	lsls	r2, r2, #8
100041a2:	601a      	str	r2, [r3, #0]
100041a4:	4b06      	ldr	r3, [pc, #24]	; (100041c0 <rtc_init+0x2c>)
100041a6:	4907      	ldr	r1, [pc, #28]	; (100041c4 <rtc_init+0x30>)
100041a8:	601a      	str	r2, [r3, #0]
100041aa:	0014      	movs	r4, r2
100041ac:	688b      	ldr	r3, [r1, #8]
100041ae:	439c      	bics	r4, r3
100041b0:	d1fb      	bne.n	100041aa <rtc_init+0x16>
100041b2:	4b05      	ldr	r3, [pc, #20]	; (100041c8 <rtc_init+0x34>)
100041b4:	3801      	subs	r0, #1
100041b6:	6018      	str	r0, [r3, #0]
100041b8:	bd10      	pop	{r4, pc}
100041ba:	46c0      	nop			; (mov r8, r8)
100041bc:	4000e000 	.word	0x4000e000
100041c0:	4000f000 	.word	0x4000f000
100041c4:	4000c000 	.word	0x4000c000
100041c8:	4005c000 	.word	0x4005c000

100041cc <rtc_set_datetime>:
100041cc:	b5f0      	push	{r4, r5, r6, r7, lr}
100041ce:	46ce      	mov	lr, r9
100041d0:	4647      	mov	r7, r8
100041d2:	2300      	movs	r3, #0
100041d4:	5ec5      	ldrsh	r5, [r0, r3]
100041d6:	2380      	movs	r3, #128	; 0x80
100041d8:	8802      	ldrh	r2, [r0, #0]
100041da:	b580      	push	{r7, lr}
100041dc:	015b      	lsls	r3, r3, #5
100041de:	429a      	cmp	r2, r3
100041e0:	d243      	bcs.n	1000426a <rtc_set_datetime+0x9e>
100041e2:	2402      	movs	r4, #2
100041e4:	5704      	ldrsb	r4, [r0, r4]
100041e6:	1e63      	subs	r3, r4, #1
100041e8:	b2db      	uxtb	r3, r3
100041ea:	2b0b      	cmp	r3, #11
100041ec:	d83d      	bhi.n	1000426a <rtc_set_datetime+0x9e>
100041ee:	2703      	movs	r7, #3
100041f0:	57c7      	ldrsb	r7, [r0, r7]
100041f2:	1e7b      	subs	r3, r7, #1
100041f4:	b2db      	uxtb	r3, r3
100041f6:	2b1e      	cmp	r3, #30
100041f8:	d837      	bhi.n	1000426a <rtc_set_datetime+0x9e>
100041fa:	2304      	movs	r3, #4
100041fc:	56c3      	ldrsb	r3, [r0, r3]
100041fe:	4699      	mov	r9, r3
10004200:	7903      	ldrb	r3, [r0, #4]
10004202:	2b06      	cmp	r3, #6
10004204:	d831      	bhi.n	1000426a <rtc_set_datetime+0x9e>
10004206:	2305      	movs	r3, #5
10004208:	56c3      	ldrsb	r3, [r0, r3]
1000420a:	469c      	mov	ip, r3
1000420c:	7943      	ldrb	r3, [r0, #5]
1000420e:	2b17      	cmp	r3, #23
10004210:	d82b      	bhi.n	1000426a <rtc_set_datetime+0x9e>
10004212:	2606      	movs	r6, #6
10004214:	7983      	ldrb	r3, [r0, #6]
10004216:	5786      	ldrsb	r6, [r0, r6]
10004218:	2b3b      	cmp	r3, #59	; 0x3b
1000421a:	d826      	bhi.n	1000426a <rtc_set_datetime+0x9e>
1000421c:	2307      	movs	r3, #7
1000421e:	56c3      	ldrsb	r3, [r0, r3]
10004220:	4698      	mov	r8, r3
10004222:	79c3      	ldrb	r3, [r0, #7]
10004224:	2b3b      	cmp	r3, #59	; 0x3b
10004226:	d820      	bhi.n	1000426a <rtc_set_datetime+0x9e>
10004228:	2300      	movs	r3, #0
1000422a:	2102      	movs	r1, #2
1000422c:	4a11      	ldr	r2, [pc, #68]	; (10004274 <rtc_set_datetime+0xa8>)
1000422e:	60d3      	str	r3, [r2, #12]
10004230:	68d3      	ldr	r3, [r2, #12]
10004232:	4219      	tst	r1, r3
10004234:	d1fc      	bne.n	10004230 <rtc_set_datetime+0x64>
10004236:	0223      	lsls	r3, r4, #8
10004238:	032d      	lsls	r5, r5, #12
1000423a:	431d      	orrs	r5, r3
1000423c:	4661      	mov	r1, ip
1000423e:	464b      	mov	r3, r9
10004240:	0409      	lsls	r1, r1, #16
10004242:	061b      	lsls	r3, r3, #24
10004244:	430b      	orrs	r3, r1
10004246:	4641      	mov	r1, r8
10004248:	0236      	lsls	r6, r6, #8
1000424a:	430b      	orrs	r3, r1
1000424c:	4333      	orrs	r3, r6
1000424e:	433d      	orrs	r5, r7
10004250:	6055      	str	r5, [r2, #4]
10004252:	6093      	str	r3, [r2, #8]
10004254:	2310      	movs	r3, #16
10004256:	60d3      	str	r3, [r2, #12]
10004258:	3b0f      	subs	r3, #15
1000425a:	60d3      	str	r3, [r2, #12]
1000425c:	2202      	movs	r2, #2
1000425e:	4905      	ldr	r1, [pc, #20]	; (10004274 <rtc_set_datetime+0xa8>)
10004260:	68cb      	ldr	r3, [r1, #12]
10004262:	421a      	tst	r2, r3
10004264:	d0fc      	beq.n	10004260 <rtc_set_datetime+0x94>
10004266:	2001      	movs	r0, #1
10004268:	e000      	b.n	1000426c <rtc_set_datetime+0xa0>
1000426a:	2000      	movs	r0, #0
1000426c:	bc0c      	pop	{r2, r3}
1000426e:	4690      	mov	r8, r2
10004270:	4699      	mov	r9, r3
10004272:	bdf0      	pop	{r4, r5, r6, r7, pc}
10004274:	4005c000 	.word	0x4005c000

10004278 <rtc_get_datetime>:
10004278:	4b12      	ldr	r3, [pc, #72]	; (100042c4 <rtc_get_datetime+0x4c>)
1000427a:	b510      	push	{r4, lr}
1000427c:	68da      	ldr	r2, [r3, #12]
1000427e:	0792      	lsls	r2, r2, #30
10004280:	d51d      	bpl.n	100042be <rtc_get_datetime+0x46>
10004282:	211f      	movs	r1, #31
10004284:	243f      	movs	r4, #63	; 0x3f
10004286:	69da      	ldr	r2, [r3, #28]
10004288:	0152      	lsls	r2, r2, #5
1000428a:	0f52      	lsrs	r2, r2, #29
1000428c:	7102      	strb	r2, [r0, #4]
1000428e:	69da      	ldr	r2, [r3, #28]
10004290:	0c12      	lsrs	r2, r2, #16
10004292:	400a      	ands	r2, r1
10004294:	7142      	strb	r2, [r0, #5]
10004296:	69da      	ldr	r2, [r3, #28]
10004298:	0a12      	lsrs	r2, r2, #8
1000429a:	4022      	ands	r2, r4
1000429c:	7182      	strb	r2, [r0, #6]
1000429e:	69da      	ldr	r2, [r3, #28]
100042a0:	4014      	ands	r4, r2
100042a2:	71c4      	strb	r4, [r0, #7]
100042a4:	699a      	ldr	r2, [r3, #24]
100042a6:	0212      	lsls	r2, r2, #8
100042a8:	0d12      	lsrs	r2, r2, #20
100042aa:	8002      	strh	r2, [r0, #0]
100042ac:	699a      	ldr	r2, [r3, #24]
100042ae:	0512      	lsls	r2, r2, #20
100042b0:	0f12      	lsrs	r2, r2, #28
100042b2:	7082      	strb	r2, [r0, #2]
100042b4:	699b      	ldr	r3, [r3, #24]
100042b6:	4019      	ands	r1, r3
100042b8:	70c1      	strb	r1, [r0, #3]
100042ba:	2001      	movs	r0, #1
100042bc:	bd10      	pop	{r4, pc}
100042be:	2000      	movs	r0, #0
100042c0:	e7fc      	b.n	100042bc <rtc_get_datetime+0x44>
100042c2:	46c0      	nop			; (mov r8, r8)
100042c4:	4005c000 	.word	0x4005c000

100042c8 <rtc_set_alarm>:
100042c8:	2280      	movs	r2, #128	; 0x80
100042ca:	b5f0      	push	{r4, r5, r6, r7, lr}
100042cc:	46c6      	mov	lr, r8
100042ce:	4b4c      	ldr	r3, [pc, #304]	; (10004400 <rtc_set_alarm+0x138>)
100042d0:	0552      	lsls	r2, r2, #21
100042d2:	b500      	push	{lr}
100042d4:	601a      	str	r2, [r3, #0]
100042d6:	2280      	movs	r2, #128	; 0x80
100042d8:	4c4a      	ldr	r4, [pc, #296]	; (10004404 <rtc_set_alarm+0x13c>)
100042da:	0592      	lsls	r2, r2, #22
100042dc:	6923      	ldr	r3, [r4, #16]
100042de:	4213      	tst	r3, r2
100042e0:	d1fc      	bne.n	100042dc <rtc_set_alarm+0x14>
100042e2:	2300      	movs	r3, #0
100042e4:	5ec4      	ldrsh	r4, [r0, r3]
100042e6:	1c63      	adds	r3, r4, #1
100042e8:	d100      	bne.n	100042ec <rtc_set_alarm+0x24>
100042ea:	e087      	b.n	100043fc <rtc_set_alarm+0x134>
100042ec:	0323      	lsls	r3, r4, #12
100042ee:	2502      	movs	r5, #2
100042f0:	5745      	ldrsb	r5, [r0, r5]
100042f2:	1c6a      	adds	r2, r5, #1
100042f4:	d001      	beq.n	100042fa <rtc_set_alarm+0x32>
100042f6:	022a      	lsls	r2, r5, #8
100042f8:	4313      	orrs	r3, r2
100042fa:	2603      	movs	r6, #3
100042fc:	5786      	ldrsb	r6, [r0, r6]
100042fe:	1c72      	adds	r2, r6, #1
10004300:	d000      	beq.n	10004304 <rtc_set_alarm+0x3c>
10004302:	4333      	orrs	r3, r6
10004304:	2704      	movs	r7, #4
10004306:	4a3f      	ldr	r2, [pc, #252]	; (10004404 <rtc_set_alarm+0x13c>)
10004308:	6113      	str	r3, [r2, #16]
1000430a:	57c7      	ldrsb	r7, [r0, r7]
1000430c:	1c7b      	adds	r3, r7, #1
1000430e:	d100      	bne.n	10004312 <rtc_set_alarm+0x4a>
10004310:	e072      	b.n	100043f8 <rtc_set_alarm+0x130>
10004312:	063a      	lsls	r2, r7, #24
10004314:	2305      	movs	r3, #5
10004316:	56c3      	ldrsb	r3, [r0, r3]
10004318:	469c      	mov	ip, r3
1000431a:	3301      	adds	r3, #1
1000431c:	d002      	beq.n	10004324 <rtc_set_alarm+0x5c>
1000431e:	4663      	mov	r3, ip
10004320:	041b      	lsls	r3, r3, #16
10004322:	431a      	orrs	r2, r3
10004324:	2306      	movs	r3, #6
10004326:	56c3      	ldrsb	r3, [r0, r3]
10004328:	4698      	mov	r8, r3
1000432a:	3301      	adds	r3, #1
1000432c:	d002      	beq.n	10004334 <rtc_set_alarm+0x6c>
1000432e:	4643      	mov	r3, r8
10004330:	021b      	lsls	r3, r3, #8
10004332:	431a      	orrs	r2, r3
10004334:	2307      	movs	r3, #7
10004336:	56c3      	ldrsb	r3, [r0, r3]
10004338:	1c58      	adds	r0, r3, #1
1000433a:	d000      	beq.n	1000433e <rtc_set_alarm+0x76>
1000433c:	431a      	orrs	r2, r3
1000433e:	4831      	ldr	r0, [pc, #196]	; (10004404 <rtc_set_alarm+0x13c>)
10004340:	6142      	str	r2, [r0, #20]
10004342:	1c62      	adds	r2, r4, #1
10004344:	d003      	beq.n	1000434e <rtc_set_alarm+0x86>
10004346:	2080      	movs	r0, #128	; 0x80
10004348:	4a2f      	ldr	r2, [pc, #188]	; (10004408 <rtc_set_alarm+0x140>)
1000434a:	04c0      	lsls	r0, r0, #19
1000434c:	6010      	str	r0, [r2, #0]
1000434e:	1c6a      	adds	r2, r5, #1
10004350:	d003      	beq.n	1000435a <rtc_set_alarm+0x92>
10004352:	2080      	movs	r0, #128	; 0x80
10004354:	4a2c      	ldr	r2, [pc, #176]	; (10004408 <rtc_set_alarm+0x140>)
10004356:	0480      	lsls	r0, r0, #18
10004358:	6010      	str	r0, [r2, #0]
1000435a:	1c72      	adds	r2, r6, #1
1000435c:	d003      	beq.n	10004366 <rtc_set_alarm+0x9e>
1000435e:	2080      	movs	r0, #128	; 0x80
10004360:	4a29      	ldr	r2, [pc, #164]	; (10004408 <rtc_set_alarm+0x140>)
10004362:	0440      	lsls	r0, r0, #17
10004364:	6010      	str	r0, [r2, #0]
10004366:	1c7a      	adds	r2, r7, #1
10004368:	d003      	beq.n	10004372 <rtc_set_alarm+0xaa>
1000436a:	2080      	movs	r0, #128	; 0x80
1000436c:	4a27      	ldr	r2, [pc, #156]	; (1000440c <rtc_set_alarm+0x144>)
1000436e:	0600      	lsls	r0, r0, #24
10004370:	6010      	str	r0, [r2, #0]
10004372:	4662      	mov	r2, ip
10004374:	3201      	adds	r2, #1
10004376:	d003      	beq.n	10004380 <rtc_set_alarm+0xb8>
10004378:	2080      	movs	r0, #128	; 0x80
1000437a:	4a24      	ldr	r2, [pc, #144]	; (1000440c <rtc_set_alarm+0x144>)
1000437c:	05c0      	lsls	r0, r0, #23
1000437e:	6010      	str	r0, [r2, #0]
10004380:	4642      	mov	r2, r8
10004382:	3201      	adds	r2, #1
10004384:	d003      	beq.n	1000438e <rtc_set_alarm+0xc6>
10004386:	2080      	movs	r0, #128	; 0x80
10004388:	4a20      	ldr	r2, [pc, #128]	; (1000440c <rtc_set_alarm+0x144>)
1000438a:	0580      	lsls	r0, r0, #22
1000438c:	6010      	str	r0, [r2, #0]
1000438e:	1c5a      	adds	r2, r3, #1
10004390:	d003      	beq.n	1000439a <rtc_set_alarm+0xd2>
10004392:	2080      	movs	r0, #128	; 0x80
10004394:	4a1d      	ldr	r2, [pc, #116]	; (1000440c <rtc_set_alarm+0x144>)
10004396:	0540      	lsls	r0, r0, #21
10004398:	6010      	str	r0, [r2, #0]
1000439a:	1c62      	adds	r2, r4, #1
1000439c:	d010      	beq.n	100043c0 <rtc_set_alarm+0xf8>
1000439e:	1c6a      	adds	r2, r5, #1
100043a0:	d00e      	beq.n	100043c0 <rtc_set_alarm+0xf8>
100043a2:	1c72      	adds	r2, r6, #1
100043a4:	d00c      	beq.n	100043c0 <rtc_set_alarm+0xf8>
100043a6:	1c7a      	adds	r2, r7, #1
100043a8:	d00a      	beq.n	100043c0 <rtc_set_alarm+0xf8>
100043aa:	4662      	mov	r2, ip
100043ac:	3201      	adds	r2, #1
100043ae:	d007      	beq.n	100043c0 <rtc_set_alarm+0xf8>
100043b0:	4642      	mov	r2, r8
100043b2:	3201      	adds	r2, #1
100043b4:	d004      	beq.n	100043c0 <rtc_set_alarm+0xf8>
100043b6:	3301      	adds	r3, #1
100043b8:	425a      	negs	r2, r3
100043ba:	4153      	adcs	r3, r2
100043bc:	b2db      	uxtb	r3, r3
100043be:	e000      	b.n	100043c2 <rtc_set_alarm+0xfa>
100043c0:	2301      	movs	r3, #1
100043c2:	4a13      	ldr	r2, [pc, #76]	; (10004410 <rtc_set_alarm+0x148>)
100043c4:	2019      	movs	r0, #25
100043c6:	7013      	strb	r3, [r2, #0]
100043c8:	4b12      	ldr	r3, [pc, #72]	; (10004414 <rtc_set_alarm+0x14c>)
100043ca:	4c0e      	ldr	r4, [pc, #56]	; (10004404 <rtc_set_alarm+0x13c>)
100043cc:	6019      	str	r1, [r3, #0]
100043ce:	4912      	ldr	r1, [pc, #72]	; (10004418 <rtc_set_alarm+0x150>)
100043d0:	f7fd f89a 	bl	10001508 <irq_set_exclusive_handler>
100043d4:	2301      	movs	r3, #1
100043d6:	2101      	movs	r1, #1
100043d8:	6263      	str	r3, [r4, #36]	; 0x24
100043da:	2019      	movs	r0, #25
100043dc:	f7fd f87a 	bl	100014d4 <irq_set_enabled>
100043e0:	2280      	movs	r2, #128	; 0x80
100043e2:	2180      	movs	r1, #128	; 0x80
100043e4:	4b08      	ldr	r3, [pc, #32]	; (10004408 <rtc_set_alarm+0x140>)
100043e6:	0552      	lsls	r2, r2, #21
100043e8:	601a      	str	r2, [r3, #0]
100043ea:	0589      	lsls	r1, r1, #22
100043ec:	6923      	ldr	r3, [r4, #16]
100043ee:	420b      	tst	r3, r1
100043f0:	d0fc      	beq.n	100043ec <rtc_set_alarm+0x124>
100043f2:	bc04      	pop	{r2}
100043f4:	4690      	mov	r8, r2
100043f6:	bdf0      	pop	{r4, r5, r6, r7, pc}
100043f8:	2200      	movs	r2, #0
100043fa:	e78b      	b.n	10004314 <rtc_set_alarm+0x4c>
100043fc:	2300      	movs	r3, #0
100043fe:	e776      	b.n	100042ee <rtc_set_alarm+0x26>
10004400:	4005f010 	.word	0x4005f010
10004404:	4005c000 	.word	0x4005c000
10004408:	4005e010 	.word	0x4005e010
1000440c:	4005e014 	.word	0x4005e014
10004410:	20000b2c 	.word	0x20000b2c
10004414:	20000abc 	.word	0x20000abc
10004418:	10004141 	.word	0x10004141

1000441c <calloc>:
1000441c:	0003      	movs	r3, r0
1000441e:	b510      	push	{r4, lr}
10004420:	000a      	movs	r2, r1
10004422:	4903      	ldr	r1, [pc, #12]	; (10004430 <calloc+0x14>)
10004424:	6808      	ldr	r0, [r1, #0]
10004426:	0019      	movs	r1, r3
10004428:	f000 f804 	bl	10004434 <_calloc_r>
1000442c:	bd10      	pop	{r4, pc}
1000442e:	46c0      	nop			; (mov r8, r8)
10004430:	20000214 	.word	0x20000214

10004434 <_calloc_r>:
10004434:	b510      	push	{r4, lr}
10004436:	4351      	muls	r1, r2
10004438:	f000 f834 	bl	100044a4 <_malloc_r>
1000443c:	1e04      	subs	r4, r0, #0
1000443e:	d00e      	beq.n	1000445e <_calloc_r+0x2a>
10004440:	0003      	movs	r3, r0
10004442:	3b08      	subs	r3, #8
10004444:	685a      	ldr	r2, [r3, #4]
10004446:	2303      	movs	r3, #3
10004448:	439a      	bics	r2, r3
1000444a:	3a04      	subs	r2, #4
1000444c:	2a24      	cmp	r2, #36	; 0x24
1000444e:	d815      	bhi.n	1000447c <_calloc_r+0x48>
10004450:	0003      	movs	r3, r0
10004452:	2a13      	cmp	r2, #19
10004454:	d805      	bhi.n	10004462 <_calloc_r+0x2e>
10004456:	2200      	movs	r2, #0
10004458:	601a      	str	r2, [r3, #0]
1000445a:	605a      	str	r2, [r3, #4]
1000445c:	609a      	str	r2, [r3, #8]
1000445e:	0020      	movs	r0, r4
10004460:	bd10      	pop	{r4, pc}
10004462:	2100      	movs	r1, #0
10004464:	3308      	adds	r3, #8
10004466:	6001      	str	r1, [r0, #0]
10004468:	6041      	str	r1, [r0, #4]
1000446a:	2a1b      	cmp	r2, #27
1000446c:	d9f3      	bls.n	10004456 <_calloc_r+0x22>
1000446e:	6081      	str	r1, [r0, #8]
10004470:	60c1      	str	r1, [r0, #12]
10004472:	2a24      	cmp	r2, #36	; 0x24
10004474:	d006      	beq.n	10004484 <_calloc_r+0x50>
10004476:	0003      	movs	r3, r0
10004478:	3310      	adds	r3, #16
1000447a:	e7ec      	b.n	10004456 <_calloc_r+0x22>
1000447c:	2100      	movs	r1, #0
1000447e:	f7ff fc19 	bl	10003cb4 <__wrap_memset>
10004482:	e7ec      	b.n	1000445e <_calloc_r+0x2a>
10004484:	0003      	movs	r3, r0
10004486:	6101      	str	r1, [r0, #16]
10004488:	3318      	adds	r3, #24
1000448a:	6141      	str	r1, [r0, #20]
1000448c:	e7e3      	b.n	10004456 <_calloc_r+0x22>
1000448e:	46c0      	nop			; (mov r8, r8)

10004490 <malloc>:
10004490:	b510      	push	{r4, lr}
10004492:	4b03      	ldr	r3, [pc, #12]	; (100044a0 <malloc+0x10>)
10004494:	0001      	movs	r1, r0
10004496:	6818      	ldr	r0, [r3, #0]
10004498:	f000 f804 	bl	100044a4 <_malloc_r>
1000449c:	bd10      	pop	{r4, pc}
1000449e:	46c0      	nop			; (mov r8, r8)
100044a0:	20000214 	.word	0x20000214

100044a4 <_malloc_r>:
100044a4:	b5f0      	push	{r4, r5, r6, r7, lr}
100044a6:	464e      	mov	r6, r9
100044a8:	4645      	mov	r5, r8
100044aa:	46de      	mov	lr, fp
100044ac:	4657      	mov	r7, sl
100044ae:	b5e0      	push	{r5, r6, r7, lr}
100044b0:	000d      	movs	r5, r1
100044b2:	350b      	adds	r5, #11
100044b4:	0006      	movs	r6, r0
100044b6:	b083      	sub	sp, #12
100044b8:	2d16      	cmp	r5, #22
100044ba:	d822      	bhi.n	10004502 <_malloc_r+0x5e>
100044bc:	2910      	cmp	r1, #16
100044be:	d900      	bls.n	100044c2 <_malloc_r+0x1e>
100044c0:	e0b2      	b.n	10004628 <_malloc_r+0x184>
100044c2:	f000 faaf 	bl	10004a24 <__malloc_lock>
100044c6:	2510      	movs	r5, #16
100044c8:	2002      	movs	r0, #2
100044ca:	2318      	movs	r3, #24
100044cc:	4fcb      	ldr	r7, [pc, #812]	; (100047fc <_malloc_r+0x358>)
100044ce:	18fb      	adds	r3, r7, r3
100044d0:	001a      	movs	r2, r3
100044d2:	685c      	ldr	r4, [r3, #4]
100044d4:	3a08      	subs	r2, #8
100044d6:	4294      	cmp	r4, r2
100044d8:	d100      	bne.n	100044dc <_malloc_r+0x38>
100044da:	e0b5      	b.n	10004648 <_malloc_r+0x1a4>
100044dc:	2303      	movs	r3, #3
100044de:	6862      	ldr	r2, [r4, #4]
100044e0:	439a      	bics	r2, r3
100044e2:	0013      	movs	r3, r2
100044e4:	68e2      	ldr	r2, [r4, #12]
100044e6:	68a1      	ldr	r1, [r4, #8]
100044e8:	60ca      	str	r2, [r1, #12]
100044ea:	6091      	str	r1, [r2, #8]
100044ec:	2201      	movs	r2, #1
100044ee:	18e3      	adds	r3, r4, r3
100044f0:	6859      	ldr	r1, [r3, #4]
100044f2:	0030      	movs	r0, r6
100044f4:	430a      	orrs	r2, r1
100044f6:	605a      	str	r2, [r3, #4]
100044f8:	f000 fa9c 	bl	10004a34 <__malloc_unlock>
100044fc:	0020      	movs	r0, r4
100044fe:	3008      	adds	r0, #8
10004500:	e095      	b.n	1000462e <_malloc_r+0x18a>
10004502:	2307      	movs	r3, #7
10004504:	439d      	bics	r5, r3
10004506:	d500      	bpl.n	1000450a <_malloc_r+0x66>
10004508:	e08e      	b.n	10004628 <_malloc_r+0x184>
1000450a:	42a9      	cmp	r1, r5
1000450c:	d900      	bls.n	10004510 <_malloc_r+0x6c>
1000450e:	e08b      	b.n	10004628 <_malloc_r+0x184>
10004510:	f000 fa88 	bl	10004a24 <__malloc_lock>
10004514:	23fc      	movs	r3, #252	; 0xfc
10004516:	005b      	lsls	r3, r3, #1
10004518:	429d      	cmp	r5, r3
1000451a:	d200      	bcs.n	1000451e <_malloc_r+0x7a>
1000451c:	e1a5      	b.n	1000486a <_malloc_r+0x3c6>
1000451e:	0a68      	lsrs	r0, r5, #9
10004520:	d100      	bne.n	10004524 <_malloc_r+0x80>
10004522:	e08b      	b.n	1000463c <_malloc_r+0x198>
10004524:	2804      	cmp	r0, #4
10004526:	d900      	bls.n	1000452a <_malloc_r+0x86>
10004528:	e178      	b.n	1000481c <_malloc_r+0x378>
1000452a:	2338      	movs	r3, #56	; 0x38
1000452c:	4698      	mov	r8, r3
1000452e:	09a8      	lsrs	r0, r5, #6
10004530:	4480      	add	r8, r0
10004532:	3039      	adds	r0, #57	; 0x39
10004534:	00c1      	lsls	r1, r0, #3
10004536:	4fb1      	ldr	r7, [pc, #708]	; (100047fc <_malloc_r+0x358>)
10004538:	1879      	adds	r1, r7, r1
1000453a:	684c      	ldr	r4, [r1, #4]
1000453c:	3908      	subs	r1, #8
1000453e:	42a1      	cmp	r1, r4
10004540:	d00e      	beq.n	10004560 <_malloc_r+0xbc>
10004542:	2303      	movs	r3, #3
10004544:	469c      	mov	ip, r3
10004546:	e004      	b.n	10004552 <_malloc_r+0xae>
10004548:	2a00      	cmp	r2, #0
1000454a:	dacb      	bge.n	100044e4 <_malloc_r+0x40>
1000454c:	68e4      	ldr	r4, [r4, #12]
1000454e:	42a1      	cmp	r1, r4
10004550:	d006      	beq.n	10004560 <_malloc_r+0xbc>
10004552:	4662      	mov	r2, ip
10004554:	6863      	ldr	r3, [r4, #4]
10004556:	4393      	bics	r3, r2
10004558:	1b5a      	subs	r2, r3, r5
1000455a:	2a0f      	cmp	r2, #15
1000455c:	ddf4      	ble.n	10004548 <_malloc_r+0xa4>
1000455e:	4640      	mov	r0, r8
10004560:	003a      	movs	r2, r7
10004562:	693c      	ldr	r4, [r7, #16]
10004564:	3208      	adds	r2, #8
10004566:	4294      	cmp	r4, r2
10004568:	d100      	bne.n	1000456c <_malloc_r+0xc8>
1000456a:	e078      	b.n	1000465e <_malloc_r+0x1ba>
1000456c:	2303      	movs	r3, #3
1000456e:	6861      	ldr	r1, [r4, #4]
10004570:	4399      	bics	r1, r3
10004572:	4689      	mov	r9, r1
10004574:	000b      	movs	r3, r1
10004576:	1b49      	subs	r1, r1, r5
10004578:	290f      	cmp	r1, #15
1000457a:	dd00      	ble.n	1000457e <_malloc_r+0xda>
1000457c:	e179      	b.n	10004872 <_malloc_r+0x3ce>
1000457e:	617a      	str	r2, [r7, #20]
10004580:	613a      	str	r2, [r7, #16]
10004582:	2900      	cmp	r1, #0
10004584:	dab2      	bge.n	100044ec <_malloc_r+0x48>
10004586:	2280      	movs	r2, #128	; 0x80
10004588:	0092      	lsls	r2, r2, #2
1000458a:	4591      	cmp	r9, r2
1000458c:	d300      	bcc.n	10004590 <_malloc_r+0xec>
1000458e:	e10e      	b.n	100047ae <_malloc_r+0x30a>
10004590:	0959      	lsrs	r1, r3, #5
10004592:	08da      	lsrs	r2, r3, #3
10004594:	2301      	movs	r3, #1
10004596:	408b      	lsls	r3, r1
10004598:	00d2      	lsls	r2, r2, #3
1000459a:	6879      	ldr	r1, [r7, #4]
1000459c:	19d2      	adds	r2, r2, r7
1000459e:	430b      	orrs	r3, r1
100045a0:	6891      	ldr	r1, [r2, #8]
100045a2:	607b      	str	r3, [r7, #4]
100045a4:	60e2      	str	r2, [r4, #12]
100045a6:	60a1      	str	r1, [r4, #8]
100045a8:	6094      	str	r4, [r2, #8]
100045aa:	60cc      	str	r4, [r1, #12]
100045ac:	2101      	movs	r1, #1
100045ae:	1082      	asrs	r2, r0, #2
100045b0:	4091      	lsls	r1, r2
100045b2:	4299      	cmp	r1, r3
100045b4:	d859      	bhi.n	1000466a <_malloc_r+0x1c6>
100045b6:	420b      	tst	r3, r1
100045b8:	d105      	bne.n	100045c6 <_malloc_r+0x122>
100045ba:	2203      	movs	r2, #3
100045bc:	4390      	bics	r0, r2
100045be:	0049      	lsls	r1, r1, #1
100045c0:	3004      	adds	r0, #4
100045c2:	420b      	tst	r3, r1
100045c4:	d0fb      	beq.n	100045be <_malloc_r+0x11a>
100045c6:	2303      	movs	r3, #3
100045c8:	4698      	mov	r8, r3
100045ca:	00c3      	lsls	r3, r0, #3
100045cc:	4699      	mov	r9, r3
100045ce:	44b9      	add	r9, r7
100045d0:	46cc      	mov	ip, r9
100045d2:	4682      	mov	sl, r0
100045d4:	4663      	mov	r3, ip
100045d6:	68dc      	ldr	r4, [r3, #12]
100045d8:	45a4      	cmp	ip, r4
100045da:	d107      	bne.n	100045ec <_malloc_r+0x148>
100045dc:	e12a      	b.n	10004834 <_malloc_r+0x390>
100045de:	2a00      	cmp	r2, #0
100045e0:	db00      	blt.n	100045e4 <_malloc_r+0x140>
100045e2:	e133      	b.n	1000484c <_malloc_r+0x3a8>
100045e4:	68e4      	ldr	r4, [r4, #12]
100045e6:	45a4      	cmp	ip, r4
100045e8:	d100      	bne.n	100045ec <_malloc_r+0x148>
100045ea:	e123      	b.n	10004834 <_malloc_r+0x390>
100045ec:	4642      	mov	r2, r8
100045ee:	6863      	ldr	r3, [r4, #4]
100045f0:	4393      	bics	r3, r2
100045f2:	1b5a      	subs	r2, r3, r5
100045f4:	2a0f      	cmp	r2, #15
100045f6:	ddf2      	ble.n	100045de <_malloc_r+0x13a>
100045f8:	2001      	movs	r0, #1
100045fa:	4680      	mov	r8, r0
100045fc:	1961      	adds	r1, r4, r5
100045fe:	4305      	orrs	r5, r0
10004600:	6065      	str	r5, [r4, #4]
10004602:	68a0      	ldr	r0, [r4, #8]
10004604:	68e5      	ldr	r5, [r4, #12]
10004606:	3708      	adds	r7, #8
10004608:	60c5      	str	r5, [r0, #12]
1000460a:	60a8      	str	r0, [r5, #8]
1000460c:	4640      	mov	r0, r8
1000460e:	4310      	orrs	r0, r2
10004610:	60f9      	str	r1, [r7, #12]
10004612:	60b9      	str	r1, [r7, #8]
10004614:	6048      	str	r0, [r1, #4]
10004616:	60cf      	str	r7, [r1, #12]
10004618:	0030      	movs	r0, r6
1000461a:	608f      	str	r7, [r1, #8]
1000461c:	50e2      	str	r2, [r4, r3]
1000461e:	f000 fa09 	bl	10004a34 <__malloc_unlock>
10004622:	0020      	movs	r0, r4
10004624:	3008      	adds	r0, #8
10004626:	e002      	b.n	1000462e <_malloc_r+0x18a>
10004628:	230c      	movs	r3, #12
1000462a:	2000      	movs	r0, #0
1000462c:	6033      	str	r3, [r6, #0]
1000462e:	b003      	add	sp, #12
10004630:	bc3c      	pop	{r2, r3, r4, r5}
10004632:	4690      	mov	r8, r2
10004634:	4699      	mov	r9, r3
10004636:	46a2      	mov	sl, r4
10004638:	46ab      	mov	fp, r5
1000463a:	bdf0      	pop	{r4, r5, r6, r7, pc}
1000463c:	2180      	movs	r1, #128	; 0x80
1000463e:	233f      	movs	r3, #63	; 0x3f
10004640:	2040      	movs	r0, #64	; 0x40
10004642:	4698      	mov	r8, r3
10004644:	0089      	lsls	r1, r1, #2
10004646:	e776      	b.n	10004536 <_malloc_r+0x92>
10004648:	68dc      	ldr	r4, [r3, #12]
1000464a:	3002      	adds	r0, #2
1000464c:	42a3      	cmp	r3, r4
1000464e:	d000      	beq.n	10004652 <_malloc_r+0x1ae>
10004650:	e744      	b.n	100044dc <_malloc_r+0x38>
10004652:	003a      	movs	r2, r7
10004654:	693c      	ldr	r4, [r7, #16]
10004656:	3208      	adds	r2, #8
10004658:	4294      	cmp	r4, r2
1000465a:	d000      	beq.n	1000465e <_malloc_r+0x1ba>
1000465c:	e786      	b.n	1000456c <_malloc_r+0xc8>
1000465e:	2101      	movs	r1, #1
10004660:	687b      	ldr	r3, [r7, #4]
10004662:	1082      	asrs	r2, r0, #2
10004664:	4091      	lsls	r1, r2
10004666:	4299      	cmp	r1, r3
10004668:	d9a5      	bls.n	100045b6 <_malloc_r+0x112>
1000466a:	2303      	movs	r3, #3
1000466c:	68bc      	ldr	r4, [r7, #8]
1000466e:	6862      	ldr	r2, [r4, #4]
10004670:	439a      	bics	r2, r3
10004672:	4691      	mov	r9, r2
10004674:	4295      	cmp	r5, r2
10004676:	d803      	bhi.n	10004680 <_malloc_r+0x1dc>
10004678:	1b53      	subs	r3, r2, r5
1000467a:	2b0f      	cmp	r3, #15
1000467c:	dd00      	ble.n	10004680 <_malloc_r+0x1dc>
1000467e:	e088      	b.n	10004792 <_malloc_r+0x2ee>
10004680:	0023      	movs	r3, r4
10004682:	444b      	add	r3, r9
10004684:	4a5e      	ldr	r2, [pc, #376]	; (10004800 <_malloc_r+0x35c>)
10004686:	9301      	str	r3, [sp, #4]
10004688:	4b5e      	ldr	r3, [pc, #376]	; (10004804 <_malloc_r+0x360>)
1000468a:	4693      	mov	fp, r2
1000468c:	681b      	ldr	r3, [r3, #0]
1000468e:	6812      	ldr	r2, [r2, #0]
10004690:	18eb      	adds	r3, r5, r3
10004692:	3201      	adds	r2, #1
10004694:	d100      	bne.n	10004698 <_malloc_r+0x1f4>
10004696:	e13b      	b.n	10004910 <_malloc_r+0x46c>
10004698:	4a5b      	ldr	r2, [pc, #364]	; (10004808 <_malloc_r+0x364>)
1000469a:	4694      	mov	ip, r2
1000469c:	4463      	add	r3, ip
1000469e:	0b1b      	lsrs	r3, r3, #12
100046a0:	031b      	lsls	r3, r3, #12
100046a2:	9300      	str	r3, [sp, #0]
100046a4:	0030      	movs	r0, r6
100046a6:	9900      	ldr	r1, [sp, #0]
100046a8:	f000 f9cc 	bl	10004a44 <_sbrk_r>
100046ac:	0003      	movs	r3, r0
100046ae:	4680      	mov	r8, r0
100046b0:	3301      	adds	r3, #1
100046b2:	d100      	bne.n	100046b6 <_malloc_r+0x212>
100046b4:	e0f8      	b.n	100048a8 <_malloc_r+0x404>
100046b6:	9b01      	ldr	r3, [sp, #4]
100046b8:	4283      	cmp	r3, r0
100046ba:	d900      	bls.n	100046be <_malloc_r+0x21a>
100046bc:	e0f2      	b.n	100048a4 <_malloc_r+0x400>
100046be:	4b53      	ldr	r3, [pc, #332]	; (1000480c <_malloc_r+0x368>)
100046c0:	0019      	movs	r1, r3
100046c2:	469a      	mov	sl, r3
100046c4:	6809      	ldr	r1, [r1, #0]
100046c6:	9b00      	ldr	r3, [sp, #0]
100046c8:	468c      	mov	ip, r1
100046ca:	4651      	mov	r1, sl
100046cc:	4463      	add	r3, ip
100046ce:	600b      	str	r3, [r1, #0]
100046d0:	9901      	ldr	r1, [sp, #4]
100046d2:	001a      	movs	r2, r3
100046d4:	4281      	cmp	r1, r0
100046d6:	d100      	bne.n	100046da <_malloc_r+0x236>
100046d8:	e150      	b.n	1000497c <_malloc_r+0x4d8>
100046da:	465b      	mov	r3, fp
100046dc:	681b      	ldr	r3, [r3, #0]
100046de:	3301      	adds	r3, #1
100046e0:	d100      	bne.n	100046e4 <_malloc_r+0x240>
100046e2:	e155      	b.n	10004990 <_malloc_r+0x4ec>
100046e4:	4643      	mov	r3, r8
100046e6:	9901      	ldr	r1, [sp, #4]
100046e8:	1a5b      	subs	r3, r3, r1
100046ea:	189a      	adds	r2, r3, r2
100046ec:	4653      	mov	r3, sl
100046ee:	601a      	str	r2, [r3, #0]
100046f0:	2307      	movs	r3, #7
100046f2:	4642      	mov	r2, r8
100046f4:	4641      	mov	r1, r8
100046f6:	401a      	ands	r2, r3
100046f8:	9201      	str	r2, [sp, #4]
100046fa:	4219      	tst	r1, r3
100046fc:	d100      	bne.n	10004700 <_malloc_r+0x25c>
100046fe:	e111      	b.n	10004924 <_malloc_r+0x480>
10004700:	2308      	movs	r3, #8
10004702:	4698      	mov	r8, r3
10004704:	1a88      	subs	r0, r1, r2
10004706:	4b42      	ldr	r3, [pc, #264]	; (10004810 <_malloc_r+0x36c>)
10004708:	9900      	ldr	r1, [sp, #0]
1000470a:	4480      	add	r8, r0
1000470c:	4441      	add	r1, r8
1000470e:	1a9b      	subs	r3, r3, r2
10004710:	1a5b      	subs	r3, r3, r1
10004712:	051b      	lsls	r3, r3, #20
10004714:	0d1b      	lsrs	r3, r3, #20
10004716:	9100      	str	r1, [sp, #0]
10004718:	0030      	movs	r0, r6
1000471a:	0019      	movs	r1, r3
1000471c:	469b      	mov	fp, r3
1000471e:	f000 f991 	bl	10004a44 <_sbrk_r>
10004722:	1c43      	adds	r3, r0, #1
10004724:	d100      	bne.n	10004728 <_malloc_r+0x284>
10004726:	e14f      	b.n	100049c8 <_malloc_r+0x524>
10004728:	4643      	mov	r3, r8
1000472a:	1ac0      	subs	r0, r0, r3
1000472c:	0003      	movs	r3, r0
1000472e:	445b      	add	r3, fp
10004730:	9300      	str	r3, [sp, #0]
10004732:	4653      	mov	r3, sl
10004734:	4652      	mov	r2, sl
10004736:	681b      	ldr	r3, [r3, #0]
10004738:	2101      	movs	r1, #1
1000473a:	445b      	add	r3, fp
1000473c:	6013      	str	r3, [r2, #0]
1000473e:	4642      	mov	r2, r8
10004740:	4640      	mov	r0, r8
10004742:	60ba      	str	r2, [r7, #8]
10004744:	9a00      	ldr	r2, [sp, #0]
10004746:	430a      	orrs	r2, r1
10004748:	6042      	str	r2, [r0, #4]
1000474a:	42bc      	cmp	r4, r7
1000474c:	d100      	bne.n	10004750 <_malloc_r+0x2ac>
1000474e:	e123      	b.n	10004998 <_malloc_r+0x4f4>
10004750:	464a      	mov	r2, r9
10004752:	2a0f      	cmp	r2, #15
10004754:	d800      	bhi.n	10004758 <_malloc_r+0x2b4>
10004756:	e121      	b.n	1000499c <_malloc_r+0x4f8>
10004758:	2007      	movs	r0, #7
1000475a:	3a0c      	subs	r2, #12
1000475c:	4382      	bics	r2, r0
1000475e:	6860      	ldr	r0, [r4, #4]
10004760:	4001      	ands	r1, r0
10004762:	2005      	movs	r0, #5
10004764:	4311      	orrs	r1, r2
10004766:	6061      	str	r1, [r4, #4]
10004768:	18a1      	adds	r1, r4, r2
1000476a:	6048      	str	r0, [r1, #4]
1000476c:	6088      	str	r0, [r1, #8]
1000476e:	2a0f      	cmp	r2, #15
10004770:	d900      	bls.n	10004774 <_malloc_r+0x2d0>
10004772:	e134      	b.n	100049de <_malloc_r+0x53a>
10004774:	4642      	mov	r2, r8
10004776:	4644      	mov	r4, r8
10004778:	6852      	ldr	r2, [r2, #4]
1000477a:	4926      	ldr	r1, [pc, #152]	; (10004814 <_malloc_r+0x370>)
1000477c:	6808      	ldr	r0, [r1, #0]
1000477e:	4298      	cmp	r0, r3
10004780:	d200      	bcs.n	10004784 <_malloc_r+0x2e0>
10004782:	600b      	str	r3, [r1, #0]
10004784:	4924      	ldr	r1, [pc, #144]	; (10004818 <_malloc_r+0x374>)
10004786:	6808      	ldr	r0, [r1, #0]
10004788:	4298      	cmp	r0, r3
1000478a:	d300      	bcc.n	1000478e <_malloc_r+0x2ea>
1000478c:	e08e      	b.n	100048ac <_malloc_r+0x408>
1000478e:	600b      	str	r3, [r1, #0]
10004790:	e08c      	b.n	100048ac <_malloc_r+0x408>
10004792:	2201      	movs	r2, #1
10004794:	0029      	movs	r1, r5
10004796:	4313      	orrs	r3, r2
10004798:	4311      	orrs	r1, r2
1000479a:	1965      	adds	r5, r4, r5
1000479c:	6061      	str	r1, [r4, #4]
1000479e:	0030      	movs	r0, r6
100047a0:	60bd      	str	r5, [r7, #8]
100047a2:	606b      	str	r3, [r5, #4]
100047a4:	f000 f946 	bl	10004a34 <__malloc_unlock>
100047a8:	0020      	movs	r0, r4
100047aa:	3008      	adds	r0, #8
100047ac:	e73f      	b.n	1000462e <_malloc_r+0x18a>
100047ae:	0a5a      	lsrs	r2, r3, #9
100047b0:	2a04      	cmp	r2, #4
100047b2:	d971      	bls.n	10004898 <_malloc_r+0x3f4>
100047b4:	2a14      	cmp	r2, #20
100047b6:	d900      	bls.n	100047ba <_malloc_r+0x316>
100047b8:	e0c4      	b.n	10004944 <_malloc_r+0x4a0>
100047ba:	0011      	movs	r1, r2
100047bc:	325c      	adds	r2, #92	; 0x5c
100047be:	315b      	adds	r1, #91	; 0x5b
100047c0:	00d2      	lsls	r2, r2, #3
100047c2:	2308      	movs	r3, #8
100047c4:	425b      	negs	r3, r3
100047c6:	469c      	mov	ip, r3
100047c8:	18ba      	adds	r2, r7, r2
100047ca:	4494      	add	ip, r2
100047cc:	4663      	mov	r3, ip
100047ce:	689a      	ldr	r2, [r3, #8]
100047d0:	2303      	movs	r3, #3
100047d2:	4698      	mov	r8, r3
100047d4:	4594      	cmp	ip, r2
100047d6:	d100      	bne.n	100047da <_malloc_r+0x336>
100047d8:	e09d      	b.n	10004916 <_malloc_r+0x472>
100047da:	4643      	mov	r3, r8
100047dc:	6851      	ldr	r1, [r2, #4]
100047de:	4399      	bics	r1, r3
100047e0:	4549      	cmp	r1, r9
100047e2:	d902      	bls.n	100047ea <_malloc_r+0x346>
100047e4:	6892      	ldr	r2, [r2, #8]
100047e6:	4594      	cmp	ip, r2
100047e8:	d1f7      	bne.n	100047da <_malloc_r+0x336>
100047ea:	68d3      	ldr	r3, [r2, #12]
100047ec:	469c      	mov	ip, r3
100047ee:	687b      	ldr	r3, [r7, #4]
100047f0:	4661      	mov	r1, ip
100047f2:	60a2      	str	r2, [r4, #8]
100047f4:	60e1      	str	r1, [r4, #12]
100047f6:	608c      	str	r4, [r1, #8]
100047f8:	60d4      	str	r4, [r2, #12]
100047fa:	e6d7      	b.n	100045ac <_malloc_r+0x108>
100047fc:	20000640 	.word	0x20000640
10004800:	20000a48 	.word	0x20000a48
10004804:	20000ab8 	.word	0x20000ab8
10004808:	0000100f 	.word	0x0000100f
1000480c:	20000a88 	.word	0x20000a88
10004810:	00001008 	.word	0x00001008
10004814:	20000ab0 	.word	0x20000ab0
10004818:	20000ab4 	.word	0x20000ab4
1000481c:	2814      	cmp	r0, #20
1000481e:	d952      	bls.n	100048c6 <_malloc_r+0x422>
10004820:	2854      	cmp	r0, #84	; 0x54
10004822:	d900      	bls.n	10004826 <_malloc_r+0x382>
10004824:	e096      	b.n	10004954 <_malloc_r+0x4b0>
10004826:	236e      	movs	r3, #110	; 0x6e
10004828:	4698      	mov	r8, r3
1000482a:	0b28      	lsrs	r0, r5, #12
1000482c:	4480      	add	r8, r0
1000482e:	306f      	adds	r0, #111	; 0x6f
10004830:	00c1      	lsls	r1, r0, #3
10004832:	e680      	b.n	10004536 <_malloc_r+0x92>
10004834:	2308      	movs	r3, #8
10004836:	469b      	mov	fp, r3
10004838:	3b07      	subs	r3, #7
1000483a:	44dc      	add	ip, fp
1000483c:	469b      	mov	fp, r3
1000483e:	44da      	add	sl, fp
10004840:	4643      	mov	r3, r8
10004842:	4652      	mov	r2, sl
10004844:	4213      	tst	r3, r2
10004846:	d000      	beq.n	1000484a <_malloc_r+0x3a6>
10004848:	e6c4      	b.n	100045d4 <_malloc_r+0x130>
1000484a:	e04c      	b.n	100048e6 <_malloc_r+0x442>
1000484c:	2201      	movs	r2, #1
1000484e:	18e3      	adds	r3, r4, r3
10004850:	6859      	ldr	r1, [r3, #4]
10004852:	0030      	movs	r0, r6
10004854:	430a      	orrs	r2, r1
10004856:	605a      	str	r2, [r3, #4]
10004858:	68e3      	ldr	r3, [r4, #12]
1000485a:	68a2      	ldr	r2, [r4, #8]
1000485c:	60d3      	str	r3, [r2, #12]
1000485e:	609a      	str	r2, [r3, #8]
10004860:	f000 f8e8 	bl	10004a34 <__malloc_unlock>
10004864:	0020      	movs	r0, r4
10004866:	3008      	adds	r0, #8
10004868:	e6e1      	b.n	1000462e <_malloc_r+0x18a>
1000486a:	002b      	movs	r3, r5
1000486c:	08e8      	lsrs	r0, r5, #3
1000486e:	3308      	adds	r3, #8
10004870:	e62c      	b.n	100044cc <_malloc_r+0x28>
10004872:	2301      	movs	r3, #1
10004874:	1960      	adds	r0, r4, r5
10004876:	431d      	orrs	r5, r3
10004878:	6065      	str	r5, [r4, #4]
1000487a:	6178      	str	r0, [r7, #20]
1000487c:	6138      	str	r0, [r7, #16]
1000487e:	60c2      	str	r2, [r0, #12]
10004880:	6082      	str	r2, [r0, #8]
10004882:	001a      	movs	r2, r3
10004884:	464b      	mov	r3, r9
10004886:	430a      	orrs	r2, r1
10004888:	6042      	str	r2, [r0, #4]
1000488a:	0030      	movs	r0, r6
1000488c:	50e1      	str	r1, [r4, r3]
1000488e:	f000 f8d1 	bl	10004a34 <__malloc_unlock>
10004892:	0020      	movs	r0, r4
10004894:	3008      	adds	r0, #8
10004896:	e6ca      	b.n	1000462e <_malloc_r+0x18a>
10004898:	099a      	lsrs	r2, r3, #6
1000489a:	0011      	movs	r1, r2
1000489c:	3239      	adds	r2, #57	; 0x39
1000489e:	3138      	adds	r1, #56	; 0x38
100048a0:	00d2      	lsls	r2, r2, #3
100048a2:	e78e      	b.n	100047c2 <_malloc_r+0x31e>
100048a4:	42bc      	cmp	r4, r7
100048a6:	d060      	beq.n	1000496a <_malloc_r+0x4c6>
100048a8:	68bc      	ldr	r4, [r7, #8]
100048aa:	6862      	ldr	r2, [r4, #4]
100048ac:	2303      	movs	r3, #3
100048ae:	439a      	bics	r2, r3
100048b0:	1b53      	subs	r3, r2, r5
100048b2:	4295      	cmp	r5, r2
100048b4:	d802      	bhi.n	100048bc <_malloc_r+0x418>
100048b6:	2b0f      	cmp	r3, #15
100048b8:	dd00      	ble.n	100048bc <_malloc_r+0x418>
100048ba:	e76a      	b.n	10004792 <_malloc_r+0x2ee>
100048bc:	0030      	movs	r0, r6
100048be:	f000 f8b9 	bl	10004a34 <__malloc_unlock>
100048c2:	2000      	movs	r0, #0
100048c4:	e6b3      	b.n	1000462e <_malloc_r+0x18a>
100048c6:	235b      	movs	r3, #91	; 0x5b
100048c8:	4698      	mov	r8, r3
100048ca:	4480      	add	r8, r0
100048cc:	305c      	adds	r0, #92	; 0x5c
100048ce:	00c1      	lsls	r1, r0, #3
100048d0:	e631      	b.n	10004536 <_malloc_r+0x92>
100048d2:	2308      	movs	r3, #8
100048d4:	425b      	negs	r3, r3
100048d6:	469c      	mov	ip, r3
100048d8:	44e1      	add	r9, ip
100048da:	464b      	mov	r3, r9
100048dc:	689b      	ldr	r3, [r3, #8]
100048de:	3801      	subs	r0, #1
100048e0:	454b      	cmp	r3, r9
100048e2:	d000      	beq.n	100048e6 <_malloc_r+0x442>
100048e4:	e098      	b.n	10004a18 <_malloc_r+0x574>
100048e6:	4643      	mov	r3, r8
100048e8:	4203      	tst	r3, r0
100048ea:	d1f2      	bne.n	100048d2 <_malloc_r+0x42e>
100048ec:	687b      	ldr	r3, [r7, #4]
100048ee:	438b      	bics	r3, r1
100048f0:	607b      	str	r3, [r7, #4]
100048f2:	0049      	lsls	r1, r1, #1
100048f4:	4299      	cmp	r1, r3
100048f6:	d900      	bls.n	100048fa <_malloc_r+0x456>
100048f8:	e6b7      	b.n	1000466a <_malloc_r+0x1c6>
100048fa:	2900      	cmp	r1, #0
100048fc:	d104      	bne.n	10004908 <_malloc_r+0x464>
100048fe:	e6b4      	b.n	1000466a <_malloc_r+0x1c6>
10004900:	2204      	movs	r2, #4
10004902:	4694      	mov	ip, r2
10004904:	0049      	lsls	r1, r1, #1
10004906:	44e2      	add	sl, ip
10004908:	420b      	tst	r3, r1
1000490a:	d0f9      	beq.n	10004900 <_malloc_r+0x45c>
1000490c:	4650      	mov	r0, sl
1000490e:	e65c      	b.n	100045ca <_malloc_r+0x126>
10004910:	3310      	adds	r3, #16
10004912:	9300      	str	r3, [sp, #0]
10004914:	e6c6      	b.n	100046a4 <_malloc_r+0x200>
10004916:	1089      	asrs	r1, r1, #2
10004918:	3b02      	subs	r3, #2
1000491a:	408b      	lsls	r3, r1
1000491c:	6879      	ldr	r1, [r7, #4]
1000491e:	430b      	orrs	r3, r1
10004920:	607b      	str	r3, [r7, #4]
10004922:	e765      	b.n	100047f0 <_malloc_r+0x34c>
10004924:	9b00      	ldr	r3, [sp, #0]
10004926:	0030      	movs	r0, r6
10004928:	4443      	add	r3, r8
1000492a:	425b      	negs	r3, r3
1000492c:	051b      	lsls	r3, r3, #20
1000492e:	0d1b      	lsrs	r3, r3, #20
10004930:	0019      	movs	r1, r3
10004932:	469b      	mov	fp, r3
10004934:	f000 f886 	bl	10004a44 <_sbrk_r>
10004938:	1c43      	adds	r3, r0, #1
1000493a:	d000      	beq.n	1000493e <_malloc_r+0x49a>
1000493c:	e6f4      	b.n	10004728 <_malloc_r+0x284>
1000493e:	2300      	movs	r3, #0
10004940:	469b      	mov	fp, r3
10004942:	e6f6      	b.n	10004732 <_malloc_r+0x28e>
10004944:	2a54      	cmp	r2, #84	; 0x54
10004946:	d82b      	bhi.n	100049a0 <_malloc_r+0x4fc>
10004948:	0b1a      	lsrs	r2, r3, #12
1000494a:	0011      	movs	r1, r2
1000494c:	326f      	adds	r2, #111	; 0x6f
1000494e:	316e      	adds	r1, #110	; 0x6e
10004950:	00d2      	lsls	r2, r2, #3
10004952:	e736      	b.n	100047c2 <_malloc_r+0x31e>
10004954:	23aa      	movs	r3, #170	; 0xaa
10004956:	005b      	lsls	r3, r3, #1
10004958:	4298      	cmp	r0, r3
1000495a:	d82b      	bhi.n	100049b4 <_malloc_r+0x510>
1000495c:	3bdd      	subs	r3, #221	; 0xdd
1000495e:	4698      	mov	r8, r3
10004960:	0be8      	lsrs	r0, r5, #15
10004962:	4480      	add	r8, r0
10004964:	3078      	adds	r0, #120	; 0x78
10004966:	00c1      	lsls	r1, r0, #3
10004968:	e5e5      	b.n	10004536 <_malloc_r+0x92>
1000496a:	4b2c      	ldr	r3, [pc, #176]	; (10004a1c <_malloc_r+0x578>)
1000496c:	9a00      	ldr	r2, [sp, #0]
1000496e:	469a      	mov	sl, r3
10004970:	681b      	ldr	r3, [r3, #0]
10004972:	469c      	mov	ip, r3
10004974:	4653      	mov	r3, sl
10004976:	4462      	add	r2, ip
10004978:	601a      	str	r2, [r3, #0]
1000497a:	e6ae      	b.n	100046da <_malloc_r+0x236>
1000497c:	0509      	lsls	r1, r1, #20
1000497e:	d000      	beq.n	10004982 <_malloc_r+0x4de>
10004980:	e6ab      	b.n	100046da <_malloc_r+0x236>
10004982:	9a00      	ldr	r2, [sp, #0]
10004984:	68bc      	ldr	r4, [r7, #8]
10004986:	444a      	add	r2, r9
10004988:	3101      	adds	r1, #1
1000498a:	430a      	orrs	r2, r1
1000498c:	6062      	str	r2, [r4, #4]
1000498e:	e6f4      	b.n	1000477a <_malloc_r+0x2d6>
10004990:	465b      	mov	r3, fp
10004992:	4642      	mov	r2, r8
10004994:	601a      	str	r2, [r3, #0]
10004996:	e6ab      	b.n	100046f0 <_malloc_r+0x24c>
10004998:	4644      	mov	r4, r8
1000499a:	e6ee      	b.n	1000477a <_malloc_r+0x2d6>
1000499c:	6041      	str	r1, [r0, #4]
1000499e:	e78d      	b.n	100048bc <_malloc_r+0x418>
100049a0:	21aa      	movs	r1, #170	; 0xaa
100049a2:	0049      	lsls	r1, r1, #1
100049a4:	428a      	cmp	r2, r1
100049a6:	d824      	bhi.n	100049f2 <_malloc_r+0x54e>
100049a8:	0bda      	lsrs	r2, r3, #15
100049aa:	0011      	movs	r1, r2
100049ac:	3278      	adds	r2, #120	; 0x78
100049ae:	3177      	adds	r1, #119	; 0x77
100049b0:	00d2      	lsls	r2, r2, #3
100049b2:	e706      	b.n	100047c2 <_malloc_r+0x31e>
100049b4:	4b1a      	ldr	r3, [pc, #104]	; (10004a20 <_malloc_r+0x57c>)
100049b6:	4298      	cmp	r0, r3
100049b8:	d824      	bhi.n	10004a04 <_malloc_r+0x560>
100049ba:	237c      	movs	r3, #124	; 0x7c
100049bc:	4698      	mov	r8, r3
100049be:	0ca8      	lsrs	r0, r5, #18
100049c0:	4480      	add	r8, r0
100049c2:	307d      	adds	r0, #125	; 0x7d
100049c4:	00c1      	lsls	r1, r0, #3
100049c6:	e5b6      	b.n	10004536 <_malloc_r+0x92>
100049c8:	9a00      	ldr	r2, [sp, #0]
100049ca:	9b01      	ldr	r3, [sp, #4]
100049cc:	4694      	mov	ip, r2
100049ce:	4642      	mov	r2, r8
100049d0:	3b08      	subs	r3, #8
100049d2:	4463      	add	r3, ip
100049d4:	1a9b      	subs	r3, r3, r2
100049d6:	9300      	str	r3, [sp, #0]
100049d8:	2300      	movs	r3, #0
100049da:	469b      	mov	fp, r3
100049dc:	e6a9      	b.n	10004732 <_malloc_r+0x28e>
100049de:	0021      	movs	r1, r4
100049e0:	0030      	movs	r0, r6
100049e2:	3108      	adds	r1, #8
100049e4:	f000 f8bc 	bl	10004b60 <_free_r>
100049e8:	4653      	mov	r3, sl
100049ea:	68bc      	ldr	r4, [r7, #8]
100049ec:	681b      	ldr	r3, [r3, #0]
100049ee:	6862      	ldr	r2, [r4, #4]
100049f0:	e6c3      	b.n	1000477a <_malloc_r+0x2d6>
100049f2:	490b      	ldr	r1, [pc, #44]	; (10004a20 <_malloc_r+0x57c>)
100049f4:	428a      	cmp	r2, r1
100049f6:	d80b      	bhi.n	10004a10 <_malloc_r+0x56c>
100049f8:	0c9a      	lsrs	r2, r3, #18
100049fa:	0011      	movs	r1, r2
100049fc:	327d      	adds	r2, #125	; 0x7d
100049fe:	317c      	adds	r1, #124	; 0x7c
10004a00:	00d2      	lsls	r2, r2, #3
10004a02:	e6de      	b.n	100047c2 <_malloc_r+0x31e>
10004a04:	21fe      	movs	r1, #254	; 0xfe
10004a06:	237e      	movs	r3, #126	; 0x7e
10004a08:	207f      	movs	r0, #127	; 0x7f
10004a0a:	4698      	mov	r8, r3
10004a0c:	0089      	lsls	r1, r1, #2
10004a0e:	e592      	b.n	10004536 <_malloc_r+0x92>
10004a10:	22fe      	movs	r2, #254	; 0xfe
10004a12:	217e      	movs	r1, #126	; 0x7e
10004a14:	0092      	lsls	r2, r2, #2
10004a16:	e6d4      	b.n	100047c2 <_malloc_r+0x31e>
10004a18:	687b      	ldr	r3, [r7, #4]
10004a1a:	e76a      	b.n	100048f2 <_malloc_r+0x44e>
10004a1c:	20000a88 	.word	0x20000a88
10004a20:	00000554 	.word	0x00000554

10004a24 <__malloc_lock>:
10004a24:	b510      	push	{r4, lr}
10004a26:	4802      	ldr	r0, [pc, #8]	; (10004a30 <__malloc_lock+0xc>)
10004a28:	f000 f97c 	bl	10004d24 <__retarget_lock_acquire_recursive>
10004a2c:	bd10      	pop	{r4, pc}
10004a2e:	46c0      	nop			; (mov r8, r8)
10004a30:	20000d4c 	.word	0x20000d4c

10004a34 <__malloc_unlock>:
10004a34:	b510      	push	{r4, lr}
10004a36:	4802      	ldr	r0, [pc, #8]	; (10004a40 <__malloc_unlock+0xc>)
10004a38:	f000 f976 	bl	10004d28 <__retarget_lock_release_recursive>
10004a3c:	bd10      	pop	{r4, pc}
10004a3e:	46c0      	nop			; (mov r8, r8)
10004a40:	20000d4c 	.word	0x20000d4c

10004a44 <_sbrk_r>:
10004a44:	2300      	movs	r3, #0
10004a46:	b570      	push	{r4, r5, r6, lr}
10004a48:	4d06      	ldr	r5, [pc, #24]	; (10004a64 <_sbrk_r+0x20>)
10004a4a:	0004      	movs	r4, r0
10004a4c:	0008      	movs	r0, r1
10004a4e:	602b      	str	r3, [r5, #0]
10004a50:	f7fc fb4a 	bl	100010e8 <_sbrk>
10004a54:	1c43      	adds	r3, r0, #1
10004a56:	d000      	beq.n	10004a5a <_sbrk_r+0x16>
10004a58:	bd70      	pop	{r4, r5, r6, pc}
10004a5a:	682b      	ldr	r3, [r5, #0]
10004a5c:	2b00      	cmp	r3, #0
10004a5e:	d0fb      	beq.n	10004a58 <_sbrk_r+0x14>
10004a60:	6023      	str	r3, [r4, #0]
10004a62:	e7f9      	b.n	10004a58 <_sbrk_r+0x14>
10004a64:	20000d60 	.word	0x20000d60

10004a68 <strlen>:
10004a68:	b510      	push	{r4, lr}
10004a6a:	0783      	lsls	r3, r0, #30
10004a6c:	d00a      	beq.n	10004a84 <strlen+0x1c>
10004a6e:	0003      	movs	r3, r0
10004a70:	2103      	movs	r1, #3
10004a72:	e002      	b.n	10004a7a <strlen+0x12>
10004a74:	3301      	adds	r3, #1
10004a76:	420b      	tst	r3, r1
10004a78:	d005      	beq.n	10004a86 <strlen+0x1e>
10004a7a:	781a      	ldrb	r2, [r3, #0]
10004a7c:	2a00      	cmp	r2, #0
10004a7e:	d1f9      	bne.n	10004a74 <strlen+0xc>
10004a80:	1a18      	subs	r0, r3, r0
10004a82:	bd10      	pop	{r4, pc}
10004a84:	0003      	movs	r3, r0
10004a86:	6819      	ldr	r1, [r3, #0]
10004a88:	4a0c      	ldr	r2, [pc, #48]	; (10004abc <strlen+0x54>)
10004a8a:	4c0d      	ldr	r4, [pc, #52]	; (10004ac0 <strlen+0x58>)
10004a8c:	188a      	adds	r2, r1, r2
10004a8e:	438a      	bics	r2, r1
10004a90:	4222      	tst	r2, r4
10004a92:	d10f      	bne.n	10004ab4 <strlen+0x4c>
10004a94:	6859      	ldr	r1, [r3, #4]
10004a96:	4a09      	ldr	r2, [pc, #36]	; (10004abc <strlen+0x54>)
10004a98:	3304      	adds	r3, #4
10004a9a:	188a      	adds	r2, r1, r2
10004a9c:	438a      	bics	r2, r1
10004a9e:	4222      	tst	r2, r4
10004aa0:	d108      	bne.n	10004ab4 <strlen+0x4c>
10004aa2:	6859      	ldr	r1, [r3, #4]
10004aa4:	4a05      	ldr	r2, [pc, #20]	; (10004abc <strlen+0x54>)
10004aa6:	3304      	adds	r3, #4
10004aa8:	188a      	adds	r2, r1, r2
10004aaa:	438a      	bics	r2, r1
10004aac:	4222      	tst	r2, r4
10004aae:	d0f1      	beq.n	10004a94 <strlen+0x2c>
10004ab0:	e000      	b.n	10004ab4 <strlen+0x4c>
10004ab2:	3301      	adds	r3, #1
10004ab4:	781a      	ldrb	r2, [r3, #0]
10004ab6:	2a00      	cmp	r2, #0
10004ab8:	d1fb      	bne.n	10004ab2 <strlen+0x4a>
10004aba:	e7e1      	b.n	10004a80 <strlen+0x18>
10004abc:	fefefeff 	.word	0xfefefeff
10004ac0:	80808080 	.word	0x80808080

10004ac4 <_malloc_trim_r>:
10004ac4:	b5f8      	push	{r3, r4, r5, r6, r7, lr}
10004ac6:	000c      	movs	r4, r1
10004ac8:	0005      	movs	r5, r0
10004aca:	f7ff ffab 	bl	10004a24 <__malloc_lock>
10004ace:	4f20      	ldr	r7, [pc, #128]	; (10004b50 <_malloc_trim_r+0x8c>)
10004ad0:	68bb      	ldr	r3, [r7, #8]
10004ad2:	685e      	ldr	r6, [r3, #4]
10004ad4:	2303      	movs	r3, #3
10004ad6:	439e      	bics	r6, r3
10004ad8:	4b1e      	ldr	r3, [pc, #120]	; (10004b54 <_malloc_trim_r+0x90>)
10004ada:	1b34      	subs	r4, r6, r4
10004adc:	469c      	mov	ip, r3
10004ade:	4464      	add	r4, ip
10004ae0:	0b24      	lsrs	r4, r4, #12
10004ae2:	3c01      	subs	r4, #1
10004ae4:	3311      	adds	r3, #17
10004ae6:	0324      	lsls	r4, r4, #12
10004ae8:	429c      	cmp	r4, r3
10004aea:	db07      	blt.n	10004afc <_malloc_trim_r+0x38>
10004aec:	2100      	movs	r1, #0
10004aee:	0028      	movs	r0, r5
10004af0:	f7ff ffa8 	bl	10004a44 <_sbrk_r>
10004af4:	68bb      	ldr	r3, [r7, #8]
10004af6:	199b      	adds	r3, r3, r6
10004af8:	4298      	cmp	r0, r3
10004afa:	d004      	beq.n	10004b06 <_malloc_trim_r+0x42>
10004afc:	0028      	movs	r0, r5
10004afe:	f7ff ff99 	bl	10004a34 <__malloc_unlock>
10004b02:	2000      	movs	r0, #0
10004b04:	bdf8      	pop	{r3, r4, r5, r6, r7, pc}
10004b06:	0028      	movs	r0, r5
10004b08:	4261      	negs	r1, r4
10004b0a:	f7ff ff9b 	bl	10004a44 <_sbrk_r>
10004b0e:	1c43      	adds	r3, r0, #1
10004b10:	d00d      	beq.n	10004b2e <_malloc_trim_r+0x6a>
10004b12:	2201      	movs	r2, #1
10004b14:	68bb      	ldr	r3, [r7, #8]
10004b16:	1b36      	subs	r6, r6, r4
10004b18:	4316      	orrs	r6, r2
10004b1a:	605e      	str	r6, [r3, #4]
10004b1c:	4b0e      	ldr	r3, [pc, #56]	; (10004b58 <_malloc_trim_r+0x94>)
10004b1e:	0028      	movs	r0, r5
10004b20:	681a      	ldr	r2, [r3, #0]
10004b22:	1b14      	subs	r4, r2, r4
10004b24:	601c      	str	r4, [r3, #0]
10004b26:	f7ff ff85 	bl	10004a34 <__malloc_unlock>
10004b2a:	2001      	movs	r0, #1
10004b2c:	e7ea      	b.n	10004b04 <_malloc_trim_r+0x40>
10004b2e:	2100      	movs	r1, #0
10004b30:	0028      	movs	r0, r5
10004b32:	f7ff ff87 	bl	10004a44 <_sbrk_r>
10004b36:	68ba      	ldr	r2, [r7, #8]
10004b38:	1a83      	subs	r3, r0, r2
10004b3a:	2b0f      	cmp	r3, #15
10004b3c:	ddde      	ble.n	10004afc <_malloc_trim_r+0x38>
10004b3e:	4907      	ldr	r1, [pc, #28]	; (10004b5c <_malloc_trim_r+0x98>)
10004b40:	6809      	ldr	r1, [r1, #0]
10004b42:	1a40      	subs	r0, r0, r1
10004b44:	4904      	ldr	r1, [pc, #16]	; (10004b58 <_malloc_trim_r+0x94>)
10004b46:	6008      	str	r0, [r1, #0]
10004b48:	2101      	movs	r1, #1
10004b4a:	430b      	orrs	r3, r1
10004b4c:	6053      	str	r3, [r2, #4]
10004b4e:	e7d5      	b.n	10004afc <_malloc_trim_r+0x38>
10004b50:	20000640 	.word	0x20000640
10004b54:	00000fef 	.word	0x00000fef
10004b58:	20000a88 	.word	0x20000a88
10004b5c:	20000a48 	.word	0x20000a48

10004b60 <_free_r>:
10004b60:	b5f0      	push	{r4, r5, r6, r7, lr}
10004b62:	46c6      	mov	lr, r8
10004b64:	0005      	movs	r5, r0
10004b66:	000c      	movs	r4, r1
10004b68:	b500      	push	{lr}
10004b6a:	2900      	cmp	r1, #0
10004b6c:	d04f      	beq.n	10004c0e <_free_r+0xae>
10004b6e:	f7ff ff59 	bl	10004a24 <__malloc_lock>
10004b72:	0021      	movs	r1, r4
10004b74:	3908      	subs	r1, #8
10004b76:	684c      	ldr	r4, [r1, #4]
10004b78:	2601      	movs	r6, #1
10004b7a:	0022      	movs	r2, r4
10004b7c:	2003      	movs	r0, #3
10004b7e:	43b2      	bics	r2, r6
10004b80:	188f      	adds	r7, r1, r2
10004b82:	687b      	ldr	r3, [r7, #4]
10004b84:	4383      	bics	r3, r0
10004b86:	4862      	ldr	r0, [pc, #392]	; (10004d10 <_free_r+0x1b0>)
10004b88:	4698      	mov	r8, r3
10004b8a:	6883      	ldr	r3, [r0, #8]
10004b8c:	42bb      	cmp	r3, r7
10004b8e:	d06b      	beq.n	10004c68 <_free_r+0x108>
10004b90:	4643      	mov	r3, r8
10004b92:	607b      	str	r3, [r7, #4]
10004b94:	4226      	tst	r6, r4
10004b96:	d11e      	bne.n	10004bd6 <_free_r+0x76>
10004b98:	2308      	movs	r3, #8
10004b9a:	469c      	mov	ip, r3
10004b9c:	680c      	ldr	r4, [r1, #0]
10004b9e:	4484      	add	ip, r0
10004ba0:	1b09      	subs	r1, r1, r4
10004ba2:	1912      	adds	r2, r2, r4
10004ba4:	688c      	ldr	r4, [r1, #8]
10004ba6:	4564      	cmp	r4, ip
10004ba8:	d04f      	beq.n	10004c4a <_free_r+0xea>
10004baa:	68cb      	ldr	r3, [r1, #12]
10004bac:	60e3      	str	r3, [r4, #12]
10004bae:	609c      	str	r4, [r3, #8]
10004bb0:	4643      	mov	r3, r8
10004bb2:	18fc      	adds	r4, r7, r3
10004bb4:	6864      	ldr	r4, [r4, #4]
10004bb6:	4234      	tst	r4, r6
10004bb8:	d111      	bne.n	10004bde <_free_r+0x7e>
10004bba:	68bb      	ldr	r3, [r7, #8]
10004bbc:	4c55      	ldr	r4, [pc, #340]	; (10004d14 <_free_r+0x1b4>)
10004bbe:	4442      	add	r2, r8
10004bc0:	42a3      	cmp	r3, r4
10004bc2:	d100      	bne.n	10004bc6 <_free_r+0x66>
10004bc4:	e07f      	b.n	10004cc6 <_free_r+0x166>
10004bc6:	68fc      	ldr	r4, [r7, #12]
10004bc8:	60dc      	str	r4, [r3, #12]
10004bca:	60a3      	str	r3, [r4, #8]
10004bcc:	2301      	movs	r3, #1
10004bce:	4313      	orrs	r3, r2
10004bd0:	604b      	str	r3, [r1, #4]
10004bd2:	508a      	str	r2, [r1, r2]
10004bd4:	e006      	b.n	10004be4 <_free_r+0x84>
10004bd6:	18fc      	adds	r4, r7, r3
10004bd8:	6864      	ldr	r4, [r4, #4]
10004bda:	4234      	tst	r4, r6
10004bdc:	d0ed      	beq.n	10004bba <_free_r+0x5a>
10004bde:	4316      	orrs	r6, r2
10004be0:	604e      	str	r6, [r1, #4]
10004be2:	603a      	str	r2, [r7, #0]
10004be4:	2380      	movs	r3, #128	; 0x80
10004be6:	009b      	lsls	r3, r3, #2
10004be8:	429a      	cmp	r2, r3
10004bea:	d213      	bcs.n	10004c14 <_free_r+0xb4>
10004bec:	0954      	lsrs	r4, r2, #5
10004bee:	08d3      	lsrs	r3, r2, #3
10004bf0:	2201      	movs	r2, #1
10004bf2:	40a2      	lsls	r2, r4
10004bf4:	6844      	ldr	r4, [r0, #4]
10004bf6:	00db      	lsls	r3, r3, #3
10004bf8:	4322      	orrs	r2, r4
10004bfa:	6042      	str	r2, [r0, #4]
10004bfc:	1818      	adds	r0, r3, r0
10004bfe:	6883      	ldr	r3, [r0, #8]
10004c00:	60c8      	str	r0, [r1, #12]
10004c02:	608b      	str	r3, [r1, #8]
10004c04:	6081      	str	r1, [r0, #8]
10004c06:	60d9      	str	r1, [r3, #12]
10004c08:	0028      	movs	r0, r5
10004c0a:	f7ff ff13 	bl	10004a34 <__malloc_unlock>
10004c0e:	bc04      	pop	{r2}
10004c10:	4690      	mov	r8, r2
10004c12:	bdf0      	pop	{r4, r5, r6, r7, pc}
10004c14:	0a53      	lsrs	r3, r2, #9
10004c16:	2b04      	cmp	r3, #4
10004c18:	d83f      	bhi.n	10004c9a <_free_r+0x13a>
10004c1a:	0994      	lsrs	r4, r2, #6
10004c1c:	0026      	movs	r6, r4
10004c1e:	3439      	adds	r4, #57	; 0x39
10004c20:	3638      	adds	r6, #56	; 0x38
10004c22:	00e4      	lsls	r4, r4, #3
10004c24:	1904      	adds	r4, r0, r4
10004c26:	6823      	ldr	r3, [r4, #0]
10004c28:	3c08      	subs	r4, #8
10004c2a:	2703      	movs	r7, #3
10004c2c:	429c      	cmp	r4, r3
10004c2e:	d043      	beq.n	10004cb8 <_free_r+0x158>
10004c30:	6858      	ldr	r0, [r3, #4]
10004c32:	43b8      	bics	r0, r7
10004c34:	4290      	cmp	r0, r2
10004c36:	d902      	bls.n	10004c3e <_free_r+0xde>
10004c38:	689b      	ldr	r3, [r3, #8]
10004c3a:	429c      	cmp	r4, r3
10004c3c:	d1f8      	bne.n	10004c30 <_free_r+0xd0>
10004c3e:	68dc      	ldr	r4, [r3, #12]
10004c40:	60cc      	str	r4, [r1, #12]
10004c42:	608b      	str	r3, [r1, #8]
10004c44:	60a1      	str	r1, [r4, #8]
10004c46:	60d9      	str	r1, [r3, #12]
10004c48:	e7de      	b.n	10004c08 <_free_r+0xa8>
10004c4a:	4643      	mov	r3, r8
10004c4c:	18f8      	adds	r0, r7, r3
10004c4e:	6840      	ldr	r0, [r0, #4]
10004c50:	4230      	tst	r0, r6
10004c52:	d158      	bne.n	10004d06 <_free_r+0x1a6>
10004c54:	0013      	movs	r3, r2
10004c56:	68b8      	ldr	r0, [r7, #8]
10004c58:	68fa      	ldr	r2, [r7, #12]
10004c5a:	4443      	add	r3, r8
10004c5c:	431e      	orrs	r6, r3
10004c5e:	60c2      	str	r2, [r0, #12]
10004c60:	6090      	str	r0, [r2, #8]
10004c62:	604e      	str	r6, [r1, #4]
10004c64:	50cb      	str	r3, [r1, r3]
10004c66:	e7cf      	b.n	10004c08 <_free_r+0xa8>
10004c68:	0013      	movs	r3, r2
10004c6a:	4443      	add	r3, r8
10004c6c:	4226      	tst	r6, r4
10004c6e:	d106      	bne.n	10004c7e <_free_r+0x11e>
10004c70:	680a      	ldr	r2, [r1, #0]
10004c72:	1a89      	subs	r1, r1, r2
10004c74:	688c      	ldr	r4, [r1, #8]
10004c76:	189b      	adds	r3, r3, r2
10004c78:	68ca      	ldr	r2, [r1, #12]
10004c7a:	60e2      	str	r2, [r4, #12]
10004c7c:	6094      	str	r4, [r2, #8]
10004c7e:	2201      	movs	r2, #1
10004c80:	431a      	orrs	r2, r3
10004c82:	604a      	str	r2, [r1, #4]
10004c84:	4a24      	ldr	r2, [pc, #144]	; (10004d18 <_free_r+0x1b8>)
10004c86:	6081      	str	r1, [r0, #8]
10004c88:	6812      	ldr	r2, [r2, #0]
10004c8a:	429a      	cmp	r2, r3
10004c8c:	d8bc      	bhi.n	10004c08 <_free_r+0xa8>
10004c8e:	4b23      	ldr	r3, [pc, #140]	; (10004d1c <_free_r+0x1bc>)
10004c90:	0028      	movs	r0, r5
10004c92:	6819      	ldr	r1, [r3, #0]
10004c94:	f7ff ff16 	bl	10004ac4 <_malloc_trim_r>
10004c98:	e7b6      	b.n	10004c08 <_free_r+0xa8>
10004c9a:	2b14      	cmp	r3, #20
10004c9c:	d907      	bls.n	10004cae <_free_r+0x14e>
10004c9e:	2b54      	cmp	r3, #84	; 0x54
10004ca0:	d81a      	bhi.n	10004cd8 <_free_r+0x178>
10004ca2:	0b14      	lsrs	r4, r2, #12
10004ca4:	0026      	movs	r6, r4
10004ca6:	346f      	adds	r4, #111	; 0x6f
10004ca8:	366e      	adds	r6, #110	; 0x6e
10004caa:	00e4      	lsls	r4, r4, #3
10004cac:	e7ba      	b.n	10004c24 <_free_r+0xc4>
10004cae:	001e      	movs	r6, r3
10004cb0:	335c      	adds	r3, #92	; 0x5c
10004cb2:	365b      	adds	r6, #91	; 0x5b
10004cb4:	00dc      	lsls	r4, r3, #3
10004cb6:	e7b5      	b.n	10004c24 <_free_r+0xc4>
10004cb8:	2201      	movs	r2, #1
10004cba:	10b6      	asrs	r6, r6, #2
10004cbc:	40b2      	lsls	r2, r6
10004cbe:	6846      	ldr	r6, [r0, #4]
10004cc0:	4332      	orrs	r2, r6
10004cc2:	6042      	str	r2, [r0, #4]
10004cc4:	e7bc      	b.n	10004c40 <_free_r+0xe0>
10004cc6:	60d9      	str	r1, [r3, #12]
10004cc8:	6099      	str	r1, [r3, #8]
10004cca:	60cb      	str	r3, [r1, #12]
10004ccc:	608b      	str	r3, [r1, #8]
10004cce:	2301      	movs	r3, #1
10004cd0:	4313      	orrs	r3, r2
10004cd2:	604b      	str	r3, [r1, #4]
10004cd4:	508a      	str	r2, [r1, r2]
10004cd6:	e797      	b.n	10004c08 <_free_r+0xa8>
10004cd8:	24aa      	movs	r4, #170	; 0xaa
10004cda:	0064      	lsls	r4, r4, #1
10004cdc:	42a3      	cmp	r3, r4
10004cde:	d805      	bhi.n	10004cec <_free_r+0x18c>
10004ce0:	0bd4      	lsrs	r4, r2, #15
10004ce2:	0026      	movs	r6, r4
10004ce4:	3478      	adds	r4, #120	; 0x78
10004ce6:	3677      	adds	r6, #119	; 0x77
10004ce8:	00e4      	lsls	r4, r4, #3
10004cea:	e79b      	b.n	10004c24 <_free_r+0xc4>
10004cec:	4c0c      	ldr	r4, [pc, #48]	; (10004d20 <_free_r+0x1c0>)
10004cee:	42a3      	cmp	r3, r4
10004cf0:	d805      	bhi.n	10004cfe <_free_r+0x19e>
10004cf2:	0c94      	lsrs	r4, r2, #18
10004cf4:	0026      	movs	r6, r4
10004cf6:	347d      	adds	r4, #125	; 0x7d
10004cf8:	367c      	adds	r6, #124	; 0x7c
10004cfa:	00e4      	lsls	r4, r4, #3
10004cfc:	e792      	b.n	10004c24 <_free_r+0xc4>
10004cfe:	24fe      	movs	r4, #254	; 0xfe
10004d00:	267e      	movs	r6, #126	; 0x7e
10004d02:	00a4      	lsls	r4, r4, #2
10004d04:	e78e      	b.n	10004c24 <_free_r+0xc4>
10004d06:	0033      	movs	r3, r6
10004d08:	4313      	orrs	r3, r2
10004d0a:	604b      	str	r3, [r1, #4]
10004d0c:	603a      	str	r2, [r7, #0]
10004d0e:	e77b      	b.n	10004c08 <_free_r+0xa8>
10004d10:	20000640 	.word	0x20000640
10004d14:	20000648 	.word	0x20000648
10004d18:	20000a4c 	.word	0x20000a4c
10004d1c:	20000ab8 	.word	0x20000ab8
10004d20:	00000554 	.word	0x00000554

10004d24 <__retarget_lock_acquire_recursive>:
10004d24:	4770      	bx	lr
10004d26:	46c0      	nop			; (mov r8, r8)

10004d28 <__retarget_lock_release_recursive>:
10004d28:	4770      	bx	lr
10004d2a:	46c0      	nop			; (mov r8, r8)

10004d2c <_fini>:
10004d2c:	b5f8      	push	{r3, r4, r5, r6, r7, lr}
10004d2e:	46c0      	nop			; (mov r8, r8)

10004d30 <__mutex_exit_veneer>:
10004d30:	b401      	push	{r0}
10004d32:	4802      	ldr	r0, [pc, #8]	; (10004d3c <__mutex_exit_veneer+0xc>)
10004d34:	4684      	mov	ip, r0
10004d36:	bc01      	pop	{r0}
10004d38:	4760      	bx	ip
10004d3a:	bf00      	nop
10004d3c:	2000015d 	.word	0x2000015d

10004d40 <____aeabi_ldiv0_veneer>:
10004d40:	b401      	push	{r0}
10004d42:	4802      	ldr	r0, [pc, #8]	; (10004d4c <____aeabi_ldiv0_veneer+0xc>)
10004d44:	4684      	mov	ip, r0
10004d46:	bc01      	pop	{r0}
10004d48:	4760      	bx	ip
10004d4a:	bf00      	nop
10004d4c:	20000185 	.word	0x20000185

10004d50 <____aeabi_idiv0_veneer>:
10004d50:	b401      	push	{r0}
10004d52:	4802      	ldr	r0, [pc, #8]	; (10004d5c <____aeabi_idiv0_veneer+0xc>)
10004d54:	4684      	mov	ip, r0
10004d56:	bc01      	pop	{r0}
10004d58:	4760      	bx	ip
10004d5a:	bf00      	nop
10004d5c:	20000185 	.word	0x20000185

10004d60 <__mutex_try_enter_veneer>:
10004d60:	b401      	push	{r0}
10004d62:	4802      	ldr	r0, [pc, #8]	; (10004d6c <__mutex_try_enter_veneer+0xc>)
10004d64:	4684      	mov	ip, r0
10004d66:	bc01      	pop	{r0}
10004d68:	4760      	bx	ip
10004d6a:	bf00      	nop
10004d6c:	20000111 	.word	0x20000111

10004d70 <__mutex_enter_blocking_veneer>:
10004d70:	b401      	push	{r0}
10004d72:	4802      	ldr	r0, [pc, #8]	; (10004d7c <__mutex_enter_blocking_veneer+0xc>)
10004d74:	4684      	mov	ip, r0
10004d76:	bc01      	pop	{r0}
10004d78:	4760      	bx	ip
10004d7a:	bf00      	nop
10004d7c:	200000c1 	.word	0x200000c1

Disassembly of section .data:

200000c0 <mutex_enter_blocking>:
200000c0:	b510      	push	{r4, lr}
200000c2:	6802      	ldr	r2, [r0, #0]
200000c4:	2400      	movs	r4, #0
200000c6:	f3ef 8110 	mrs	r1, PRIMASK
200000ca:	b672      	cpsid	i
200000cc:	6813      	ldr	r3, [r2, #0]
200000ce:	2b00      	cmp	r3, #0
200000d0:	d0fc      	beq.n	200000cc <mutex_enter_blocking+0xc>
200000d2:	f3bf 8f5f 	dmb	sy
200000d6:	7903      	ldrb	r3, [r0, #4]
200000d8:	2b00      	cmp	r3, #0
200000da:	d00b      	beq.n	200000f4 <mutex_enter_blocking+0x34>
200000dc:	6803      	ldr	r3, [r0, #0]
200000de:	f3bf 8f5f 	dmb	sy
200000e2:	601c      	str	r4, [r3, #0]
200000e4:	f381 8810 	msr	PRIMASK, r1
200000e8:	bf20      	wfe
200000ea:	6802      	ldr	r2, [r0, #0]
200000ec:	f3ef 8110 	mrs	r1, PRIMASK
200000f0:	b672      	cpsid	i
200000f2:	e7eb      	b.n	200000cc <mutex_enter_blocking+0xc>
200000f4:	2201      	movs	r2, #1
200000f6:	7102      	strb	r2, [r0, #4]
200000f8:	22d0      	movs	r2, #208	; 0xd0
200000fa:	0612      	lsls	r2, r2, #24
200000fc:	6812      	ldr	r2, [r2, #0]
200000fe:	7142      	strb	r2, [r0, #5]
20000100:	6802      	ldr	r2, [r0, #0]
20000102:	f3bf 8f5f 	dmb	sy
20000106:	6013      	str	r3, [r2, #0]
20000108:	f381 8810 	msr	PRIMASK, r1
2000010c:	bd10      	pop	{r4, pc}
2000010e:	46c0      	nop			; (mov r8, r8)

20000110 <mutex_try_enter>:
20000110:	0003      	movs	r3, r0
20000112:	b510      	push	{r4, lr}
20000114:	6800      	ldr	r0, [r0, #0]
20000116:	f3ef 8410 	mrs	r4, PRIMASK
2000011a:	b672      	cpsid	i
2000011c:	6802      	ldr	r2, [r0, #0]
2000011e:	2a00      	cmp	r2, #0
20000120:	d0fc      	beq.n	2000011c <mutex_try_enter+0xc>
20000122:	f3bf 8f5f 	dmb	sy
20000126:	791a      	ldrb	r2, [r3, #4]
20000128:	2a00      	cmp	r2, #0
2000012a:	d00d      	beq.n	20000148 <mutex_try_enter+0x38>
2000012c:	2900      	cmp	r1, #0
2000012e:	d013      	beq.n	20000158 <mutex_try_enter+0x48>
20000130:	2205      	movs	r2, #5
20000132:	2000      	movs	r0, #0
20000134:	569a      	ldrsb	r2, [r3, r2]
20000136:	600a      	str	r2, [r1, #0]
20000138:	681b      	ldr	r3, [r3, #0]
2000013a:	f3bf 8f5f 	dmb	sy
2000013e:	2200      	movs	r2, #0
20000140:	601a      	str	r2, [r3, #0]
20000142:	f384 8810 	msr	PRIMASK, r4
20000146:	bd10      	pop	{r4, pc}
20000148:	3201      	adds	r2, #1
2000014a:	711a      	strb	r2, [r3, #4]
2000014c:	22d0      	movs	r2, #208	; 0xd0
2000014e:	0612      	lsls	r2, r2, #24
20000150:	6812      	ldr	r2, [r2, #0]
20000152:	2001      	movs	r0, #1
20000154:	715a      	strb	r2, [r3, #5]
20000156:	e7ef      	b.n	20000138 <mutex_try_enter+0x28>
20000158:	2000      	movs	r0, #0
2000015a:	e7ed      	b.n	20000138 <mutex_try_enter+0x28>

2000015c <mutex_exit>:
2000015c:	6802      	ldr	r2, [r0, #0]
2000015e:	f3ef 8110 	mrs	r1, PRIMASK
20000162:	b672      	cpsid	i
20000164:	6813      	ldr	r3, [r2, #0]
20000166:	2b00      	cmp	r3, #0
20000168:	d0fc      	beq.n	20000164 <mutex_exit+0x8>
2000016a:	f3bf 8f5f 	dmb	sy
2000016e:	2300      	movs	r3, #0
20000170:	7103      	strb	r3, [r0, #4]
20000172:	bf40      	sev
20000174:	6802      	ldr	r2, [r0, #0]
20000176:	f3bf 8f5f 	dmb	sy
2000017a:	6013      	str	r3, [r2, #0]
2000017c:	f381 8810 	msr	PRIMASK, r1
20000180:	4770      	bx	lr
20000182:	46c0      	nop			; (mov r8, r8)

20000184 <__aeabi_idiv0>:
20000184:	4770      	bx	lr
20000186:	46c0      	nop			; (mov r8, r8)

20000188 <striped_spin_lock_num>:
20000188:	0010 0000                                   ....

2000018c <irq_handler_chain_slots>:
2000018c:	00000000 	.word	0x00000000
20000190:	00010000 	.word	0x00010000
	...
2000019c:	00020000 	.word	0x00020000
	...
200001a8:	00030000 	.word	0x00030000
	...
200001b4:	00ff0000 	.word	0x00ff0000
200001b8:	00000000 	.word	0x00000000

200001bc <irq_handler_chain_first_slot>:
200001bc:	b500      	push	{lr}
200001be:	6848      	ldr	r0, [r1, #4]
200001c0:	3101      	adds	r1, #1
200001c2:	468e      	mov	lr, r1
200001c4:	4700      	bx	r0

200001c6 <irq_handler_chain_remove_tail>:
200001c6:	4670      	mov	r0, lr
200001c8:	3809      	subs	r0, #9
200001ca:	4901      	ldr	r1, [pc, #4]	; (200001d0 <irq_handler_chain_remove_tail+0xa>)
200001cc:	4788      	blx	r1
200001ce:	bd00      	pop	{pc}
200001d0:	10001721 	.word	0x10001721
	...

200001e0 <aeabi_bits_funcs>:
200001e0:	00003350 	.word	0x00003350
200001e4:	0000334c 	.word	0x0000334c
200001e8:	00003354 	.word	0x00003354
200001ec:	00003352 	.word	0x00003352

200001f0 <aeabi_bits_funcs_end>:
200001f0:	0000534d 	.word	0x0000534d
200001f4:	0000434d 	.word	0x0000434d
200001f8:	00003453 	.word	0x00003453
200001fc:	00003443 	.word	0x00003443

20000200 <stdio_uart>:
20000200:	1000408d 00000000 100040c9 00000000     .@.......@......
20000210:	00000100                                ....

20000214 <_impure_ptr>:
20000214:	20000218                                ... 

20000218 <impure_data>:
20000218:	00000000 20000504 2000056c 200005d4     ....... l.. ... 
	...
200002c0:	00000001 00000000 abcd330e e66d1234     .........3..4.m.
200002d0:	0005deec 0000000b 00000000 00000000     ................
	...

20000640 <__malloc_av_>:
	...
20000648:	20000640 20000640 20000648 20000648     @.. @.. H.. H.. 
20000658:	20000650 20000650 20000658 20000658     P.. P.. X.. X.. 
20000668:	20000660 20000660 20000668 20000668     `.. `.. h.. h.. 
20000678:	20000670 20000670 20000678 20000678     p.. p.. x.. x.. 
20000688:	20000680 20000680 20000688 20000688     ... ... ... ... 
20000698:	20000690 20000690 20000698 20000698     ... ... ... ... 
200006a8:	200006a0 200006a0 200006a8 200006a8     ... ... ... ... 
200006b8:	200006b0 200006b0 200006b8 200006b8     ... ... ... ... 
200006c8:	200006c0 200006c0 200006c8 200006c8     ... ... ... ... 
200006d8:	200006d0 200006d0 200006d8 200006d8     ... ... ... ... 
200006e8:	200006e0 200006e0 200006e8 200006e8     ... ... ... ... 
200006f8:	200006f0 200006f0 200006f8 200006f8     ... ... ... ... 
20000708:	20000700 20000700 20000708 20000708     ... ... ... ... 
20000718:	20000710 20000710 20000718 20000718     ... ... ... ... 
20000728:	20000720 20000720 20000728 20000728      ..  .. (.. (.. 
20000738:	20000730 20000730 20000738 20000738     0.. 0.. 8.. 8.. 
20000748:	20000740 20000740 20000748 20000748     @.. @.. H.. H.. 
20000758:	20000750 20000750 20000758 20000758     P.. P.. X.. X.. 
20000768:	20000760 20000760 20000768 20000768     `.. `.. h.. h.. 
20000778:	20000770 20000770 20000778 20000778     p.. p.. x.. x.. 
20000788:	20000780 20000780 20000788 20000788     ... ... ... ... 
20000798:	20000790 20000790 20000798 20000798     ... ... ... ... 
200007a8:	200007a0 200007a0 200007a8 200007a8     ... ... ... ... 
200007b8:	200007b0 200007b0 200007b8 200007b8     ... ... ... ... 
200007c8:	200007c0 200007c0 200007c8 200007c8     ... ... ... ... 
200007d8:	200007d0 200007d0 200007d8 200007d8     ... ... ... ... 
200007e8:	200007e0 200007e0 200007e8 200007e8     ... ... ... ... 
200007f8:	200007f0 200007f0 200007f8 200007f8     ... ... ... ... 
20000808:	20000800 20000800 20000808 20000808     ... ... ... ... 
20000818:	20000810 20000810 20000818 20000818     ... ... ... ... 
20000828:	20000820 20000820 20000828 20000828      ..  .. (.. (.. 
20000838:	20000830 20000830 20000838 20000838     0.. 0.. 8.. 8.. 
20000848:	20000840 20000840 20000848 20000848     @.. @.. H.. H.. 
20000858:	20000850 20000850 20000858 20000858     P.. P.. X.. X.. 
20000868:	20000860 20000860 20000868 20000868     `.. `.. h.. h.. 
20000878:	20000870 20000870 20000878 20000878     p.. p.. x.. x.. 
20000888:	20000880 20000880 20000888 20000888     ... ... ... ... 
20000898:	20000890 20000890 20000898 20000898     ... ... ... ... 
200008a8:	200008a0 200008a0 200008a8 200008a8     ... ... ... ... 
200008b8:	200008b0 200008b0 200008b8 200008b8     ... ... ... ... 
200008c8:	200008c0 200008c0 200008c8 200008c8     ... ... ... ... 
200008d8:	200008d0 200008d0 200008d8 200008d8     ... ... ... ... 
200008e8:	200008e0 200008e0 200008e8 200008e8     ... ... ... ... 
200008f8:	200008f0 200008f0 200008f8 200008f8     ... ... ... ... 
20000908:	20000900 20000900 20000908 20000908     ... ... ... ... 
20000918:	20000910 20000910 20000918 20000918     ... ... ... ... 
20000928:	20000920 20000920 20000928 20000928      ..  .. (.. (.. 
20000938:	20000930 20000930 20000938 20000938     0.. 0.. 8.. 8.. 
20000948:	20000940 20000940 20000948 20000948     @.. @.. H.. H.. 
20000958:	20000950 20000950 20000958 20000958     P.. P.. X.. X.. 
20000968:	20000960 20000960 20000968 20000968     `.. `.. h.. h.. 
20000978:	20000970 20000970 20000978 20000978     p.. p.. x.. x.. 
20000988:	20000980 20000980 20000988 20000988     ... ... ... ... 
20000998:	20000990 20000990 20000998 20000998     ... ... ... ... 
200009a8:	200009a0 200009a0 200009a8 200009a8     ... ... ... ... 
200009b8:	200009b0 200009b0 200009b8 200009b8     ... ... ... ... 
200009c8:	200009c0 200009c0 200009c8 200009c8     ... ... ... ... 
200009d8:	200009d0 200009d0 200009d8 200009d8     ... ... ... ... 
200009e8:	200009e0 200009e0 200009e8 200009e8     ... ... ... ... 
200009f8:	200009f0 200009f0 200009f8 200009f8     ... ... ... ... 
20000a08:	20000a00 20000a00 20000a08 20000a08     ... ... ... ... 
20000a18:	20000a10 20000a10 20000a18 20000a18     ... ... ... ... 
20000a28:	20000a20 20000a20 20000a28 20000a28      ..  .. (.. (.. 
20000a38:	20000a30 20000a30 20000a38 20000a38     0.. 0.. 8.. 8.. 

20000a48 <__malloc_sbrk_base>:
20000a48:	ffffffff                                ....

20000a4c <__malloc_trim_threshold>:
20000a4c:	00020000                                ....

20000a50 <print_mutex>:
	...

20000a58 <__mutex_array_end>:
20000a58:	10003ca5 	.word	0x10003ca5
20000a5c:	10002e8d 	.word	0x10002e8d
20000a60:	10003581 	.word	0x10003581
20000a64:	10003c05 	.word	0x10003c05

20000a68 <__frame_dummy_init_array_entry>:
20000a68:	10000301                                ....
