
timer_lowlevel.elf:     file format elf32-littlearm

Sections:
Idx Name          Size      VMA       LMA       File off  Algn
  0 .boot2        00000100  10000000  10000000  00010000  2**0
                  CONTENTS, ALLOC, LOAD, READONLY, DATA
  1 .text         00002590  10000100  10000100  00010100  2**3
                  CONTENTS, ALLOC, LOAD, READONLY, CODE
  2 .rodata       0000014c  10002690  10002690  00012690  2**2
                  CONTENTS, ALLOC, LOAD, READONLY, DATA
  3 .binary_info  00000024  100027dc  100027dc  000127dc  2**2
                  CONTENTS, ALLOC, LOAD, DATA
  4 .ram_vector_table 000000c0  20000000  20000000  00020a6c  2**2
                  CONTENTS
  5 .data         000009ac  200000c0  10002800  000200c0  2**4
                  CONTENTS, ALLOC, LOAD, CODE
  6 .uninitialized_data 00000000  20000a6c  20000a6c  00020b2c  2**0
                  CONTENTS
  7 .scratch_x    00000000  20040000  20040000  00020b2c  2**0
                  CONTENTS
  8 .scratch_y    00000000  20041000  20041000  00020b2c  2**0
                  CONTENTS
  9 .bss          000002f0  20000a6c  20000a6c  00020a6c  2**2
                  ALLOC
 10 .heap         00000800  20000d5c  20000d5c  00020b2c  2**2
                  CONTENTS, READONLY
 11 .stack_dummy  00000800  20041000  20041000  00021340  2**5
                  CONTENTS, READONLY
 12 .ARM.attributes 00000028  00000000  00000000  00021b40  2**0
                  CONTENTS, READONLY
 13 .comment      00000079  00000000  00000000  00021b68  2**0
                  CONTENTS, READONLY
 14 .debug_frame  000002ac  00000000  00000000  00021be4  2**2
                  CONTENTS, READONLY, DEBUGGING

timer_lowlevel.elf:     file format elf32-littlearm


Disassembly of section .text:

10000100 <__reset_start>:
10000100:	4827      	ldr	r0, [pc, #156]	; (100001a0 <__get_current_exception+0xa>)
10000102:	e000      	b.n	10000106 <__vector_entry>

10000104 <_entry_point>:
10000104:	2000      	movs	r0, #0

10000106 <__vector_entry>:
10000106:	4927      	ldr	r1, [pc, #156]	; (100001a4 <__get_current_exception+0xe>)
10000108:	6088      	str	r0, [r1, #8]
1000010a:	c806      	ldmia	r0!, {r1, r2}
1000010c:	f381 8808 	msr	MSP, r1
10000110:	4710      	bx	r2

10000112 <_reset_handler>:
10000112:	4825      	ldr	r0, [pc, #148]	; (100001a8 <__get_current_exception+0x12>)
10000114:	6800      	ldr	r0, [r0, #0]
10000116:	2800      	cmp	r0, #0
10000118:	d139      	bne.n	1000018e <wait_for_vector>
1000011a:	a412      	add	r4, pc, #72	; (adr r4, 10000164 <data_cpy_table>)
1000011c:	cc0e      	ldmia	r4!, {r1, r2, r3}
1000011e:	2900      	cmp	r1, #0
10000120:	d002      	beq.n	10000128 <_reset_handler+0x16>
10000122:	f000 f812 	bl	1000014a <data_cpy>
10000126:	e7f9      	b.n	1000011c <_reset_handler+0xa>
10000128:	4920      	ldr	r1, [pc, #128]	; (100001ac <__get_current_exception+0x16>)
1000012a:	4a21      	ldr	r2, [pc, #132]	; (100001b0 <__get_current_exception+0x1a>)
1000012c:	2000      	movs	r0, #0
1000012e:	e000      	b.n	10000132 <bss_fill_test>

10000130 <bss_fill_loop>:
10000130:	c101      	stmia	r1!, {r0}

10000132 <bss_fill_test>:
10000132:	4291      	cmp	r1, r2
10000134:	d1fc      	bne.n	10000130 <bss_fill_loop>

10000136 <platform_entry>:
10000136:	491f      	ldr	r1, [pc, #124]	; (100001b4 <__get_current_exception+0x1e>)
10000138:	4788      	blx	r1
1000013a:	491f      	ldr	r1, [pc, #124]	; (100001b8 <__get_current_exception+0x22>)
1000013c:	4788      	blx	r1
1000013e:	491f      	ldr	r1, [pc, #124]	; (100001bc <__get_current_exception+0x26>)
10000140:	4788      	blx	r1
10000142:	be00      	bkpt	0x0000
10000144:	e7fd      	b.n	10000142 <platform_entry+0xc>

10000146 <data_cpy_loop>:
10000146:	c901      	ldmia	r1!, {r0}
10000148:	c201      	stmia	r2!, {r0}

1000014a <data_cpy>:
1000014a:	429a      	cmp	r2, r3
1000014c:	d3fb      	bcc.n	10000146 <data_cpy_loop>
1000014e:	4770      	bx	lr

10000150 <binary_info_header>:
10000150:	7188ebf2 	.word	0x7188ebf2
10000154:	100027dc 	.word	0x100027dc
10000158:	10002800 	.word	0x10002800
1000015c:	10000164 	.word	0x10000164
10000160:	e71aa390 	.word	0xe71aa390

10000164 <data_cpy_table>:
10000164:	10002800 	.word	0x10002800
10000168:	200000c0 	.word	0x200000c0
1000016c:	20000a6c 	.word	0x20000a6c
10000170:	100031ac 	.word	0x100031ac
10000174:	20040000 	.word	0x20040000
10000178:	20040000 	.word	0x20040000
1000017c:	100031ac 	.word	0x100031ac
10000180:	20041000 	.word	0x20041000
10000184:	20041000 	.word	0x20041000
10000188:	00000000 	.word	0x00000000
1000018c:	4770      	bx	lr

1000018e <wait_for_vector>:
1000018e:	480c      	ldr	r0, [pc, #48]	; (100001c0 <__get_current_exception+0x2a>)
10000190:	f001 fb42 	bl	10001818 <rom_func_lookup>
10000194:	4700      	bx	r0

10000196 <__get_current_exception>:
10000196:	f3ef 8005 	mrs	r0, IPSR
1000019a:	b2c0      	uxtb	r0, r0
1000019c:	4770      	bx	lr
1000019e:	0000      	.short	0x0000
100001a0:	10000200 	.word	0x10000200
100001a4:	e000ed00 	.word	0xe000ed00
100001a8:	d0000000 	.word	0xd0000000
100001ac:	20000a6c 	.word	0x20000a6c
100001b0:	20000d5c 	.word	0x20000d5c
100001b4:	10000fb1 	.word	0x10000fb1
100001b8:	10000341 	.word	0x10000341
100001bc:	100010d1 	.word	0x100010d1
100001c0:	00005657 	.word	0x00005657

100001c4 <__bi_46>:
100001c4:	50520006 5360b3ab 10002748              ..RP..`SH'..

100001d0 <__bi_34>:
100001d0:	50520006 02031c86 10002758              ..RP....X'..

100001dc <__bi_26>:
100001dc:	50520006 9da22254 10002768              ..RPT"..h'..

100001e8 <__bi_18>:
100001e8:	50520005 68f465de 100031ac 00000000     ..RP.e.h.1......
	...

10000200 <__reset_end>:
10000200:	20042000 	.word	0x20042000
10000204:	10000113 	.word	0x10000113
10000208:	100002c3 	.word	0x100002c3
1000020c:	100002c5 	.word	0x100002c5
10000210:	100002c1 	.word	0x100002c1
10000214:	100002c1 	.word	0x100002c1
10000218:	100002c1 	.word	0x100002c1
1000021c:	100002c1 	.word	0x100002c1
10000220:	100002c1 	.word	0x100002c1
10000224:	100002c1 	.word	0x100002c1
10000228:	100002c1 	.word	0x100002c1
1000022c:	100002c7 	.word	0x100002c7
10000230:	100002c1 	.word	0x100002c1
10000234:	100002c1 	.word	0x100002c1
10000238:	100002c9 	.word	0x100002c9
1000023c:	100002cb 	.word	0x100002cb
10000240:	100002cd 	.word	0x100002cd
10000244:	100002cd 	.word	0x100002cd
10000248:	100002cd 	.word	0x100002cd
1000024c:	100002cd 	.word	0x100002cd
10000250:	100002cd 	.word	0x100002cd
10000254:	100002cd 	.word	0x100002cd
10000258:	100002cd 	.word	0x100002cd
1000025c:	100002cd 	.word	0x100002cd
10000260:	100002cd 	.word	0x100002cd
10000264:	100002cd 	.word	0x100002cd
10000268:	100002cd 	.word	0x100002cd
1000026c:	100002cd 	.word	0x100002cd
10000270:	100002cd 	.word	0x100002cd
10000274:	100002cd 	.word	0x100002cd
10000278:	100002cd 	.word	0x100002cd
1000027c:	100002cd 	.word	0x100002cd
10000280:	100002cd 	.word	0x100002cd
10000284:	100002cd 	.word	0x100002cd
10000288:	100002cd 	.word	0x100002cd
1000028c:	100002cd 	.word	0x100002cd
10000290:	100002cd 	.word	0x100002cd
10000294:	100002cd 	.word	0x100002cd
10000298:	100002cd 	.word	0x100002cd
1000029c:	100002cd 	.word	0x100002cd
100002a0:	100002cd 	.word	0x100002cd
100002a4:	100002cd 	.word	0x100002cd
100002a8:	100002cd 	.word	0x100002cd
100002ac:	100002cd 	.word	0x100002cd
100002b0:	100002cd 	.word	0x100002cd
100002b4:	100002cd 	.word	0x100002cd
100002b8:	100002cd 	.word	0x100002cd
100002bc:	100002cd 	.word	0x100002cd

100002c0 <isr_invalid>:
100002c0:	be00      	bkpt	0x0000

100002c2 <isr_nmi>:
100002c2:	be00      	bkpt	0x0000

100002c4 <isr_hardfault>:
100002c4:	be00      	bkpt	0x0000

100002c6 <isr_svcall>:
100002c6:	be00      	bkpt	0x0000

100002c8 <isr_pendsv>:
100002c8:	be00      	bkpt	0x0000

100002ca <isr_systick>:
100002ca:	be00      	bkpt	0x0000

100002cc <__unhandled_user_irq>:
100002cc:	f7ff ff63 	bl	10000196 <__get_current_exception>
100002d0:	3810      	subs	r0, #16

100002d2 <unhandled_user_irq_num_in_r0>:
100002d2:	be00      	bkpt	0x0000

100002d4 <_init>:
100002d4:	b5f8      	push	{r3, r4, r5, r6, r7, lr}
100002d6:	46c0      	nop			; (mov r8, r8)

100002d8 <__do_global_dtors_aux>:
100002d8:	b510      	push	{r4, lr}
100002da:	4c06      	ldr	r4, [pc, #24]	; (100002f4 <__do_global_dtors_aux+0x1c>)
100002dc:	7823      	ldrb	r3, [r4, #0]
100002de:	2b00      	cmp	r3, #0
100002e0:	d107      	bne.n	100002f2 <__do_global_dtors_aux+0x1a>
100002e2:	4b05      	ldr	r3, [pc, #20]	; (100002f8 <__do_global_dtors_aux+0x20>)
100002e4:	2b00      	cmp	r3, #0
100002e6:	d002      	beq.n	100002ee <__do_global_dtors_aux+0x16>
100002e8:	4804      	ldr	r0, [pc, #16]	; (100002fc <__do_global_dtors_aux+0x24>)
100002ea:	e000      	b.n	100002ee <__do_global_dtors_aux+0x16>
100002ec:	bf00      	nop
100002ee:	2301      	movs	r3, #1
100002f0:	7023      	strb	r3, [r4, #0]
100002f2:	bd10      	pop	{r4, pc}
100002f4:	20000a6c 	.word	0x20000a6c
100002f8:	00000000 	.word	0x00000000
100002fc:	10002690 	.word	0x10002690

10000300 <frame_dummy>:
10000300:	4b04      	ldr	r3, [pc, #16]	; (10000314 <frame_dummy+0x14>)
10000302:	b510      	push	{r4, lr}
10000304:	2b00      	cmp	r3, #0
10000306:	d003      	beq.n	10000310 <frame_dummy+0x10>
10000308:	4903      	ldr	r1, [pc, #12]	; (10000318 <frame_dummy+0x18>)
1000030a:	4804      	ldr	r0, [pc, #16]	; (1000031c <frame_dummy+0x1c>)
1000030c:	e000      	b.n	10000310 <frame_dummy+0x10>
1000030e:	bf00      	nop
10000310:	bd10      	pop	{r4, pc}
10000312:	46c0      	nop			; (mov r8, r8)
10000314:	00000000 	.word	0x00000000
10000318:	20000a70 	.word	0x20000a70
1000031c:	10002690 	.word	0x10002690

10000320 <alarm_irq>:
10000320:	b510      	push	{r4, lr}
10000322:	2401      	movs	r4, #1
10000324:	4b03      	ldr	r3, [pc, #12]	; (10000334 <alarm_irq+0x14>)
10000326:	4804      	ldr	r0, [pc, #16]	; (10000338 <alarm_irq+0x18>)
10000328:	601c      	str	r4, [r3, #0]
1000032a:	f001 fc6d 	bl	10001c08 <__wrap_puts>
1000032e:	4b03      	ldr	r3, [pc, #12]	; (1000033c <alarm_irq+0x1c>)
10000330:	701c      	strb	r4, [r3, #0]
10000332:	bd10      	pop	{r4, pc}
10000334:	40057034 	.word	0x40057034
10000338:	10002690 	.word	0x10002690
1000033c:	20000b28 	.word	0x20000b28

10000340 <main>:
10000340:	b5f8      	push	{r3, r4, r5, r6, r7, lr}
10000342:	46ce      	mov	lr, r9
10000344:	4647      	mov	r7, r8
10000346:	b580      	push	{r7, lr}
10000348:	f001 fc9a 	bl	10001c80 <stdio_init_all>
1000034c:	480f      	ldr	r0, [pc, #60]	; (1000038c <main+0x4c>)
1000034e:	f001 fc5b 	bl	10001c08 <__wrap_puts>
10000352:	4b0f      	ldr	r3, [pc, #60]	; (10000390 <main+0x50>)
10000354:	2601      	movs	r6, #1
10000356:	4699      	mov	r9, r3
10000358:	2300      	movs	r3, #0
1000035a:	4698      	mov	r8, r3
1000035c:	4c0d      	ldr	r4, [pc, #52]	; (10000394 <main+0x54>)
1000035e:	4f0e      	ldr	r7, [pc, #56]	; (10000398 <main+0x58>)
10000360:	4d0e      	ldr	r5, [pc, #56]	; (1000039c <main+0x5c>)
10000362:	4643      	mov	r3, r8
10000364:	4649      	mov	r1, r9
10000366:	7023      	strb	r3, [r4, #0]
10000368:	2000      	movs	r0, #0
1000036a:	603e      	str	r6, [r7, #0]
1000036c:	f001 f8a6 	bl	100014bc <irq_set_exclusive_handler>
10000370:	2101      	movs	r1, #1
10000372:	2000      	movs	r0, #0
10000374:	f001 f888 	bl	10001488 <irq_set_enabled>
10000378:	4a09      	ldr	r2, [pc, #36]	; (100003a0 <main+0x60>)
1000037a:	6aab      	ldr	r3, [r5, #40]	; 0x28
1000037c:	4694      	mov	ip, r2
1000037e:	4463      	add	r3, ip
10000380:	612b      	str	r3, [r5, #16]
10000382:	7823      	ldrb	r3, [r4, #0]
10000384:	2b00      	cmp	r3, #0
10000386:	d1ec      	bne.n	10000362 <main+0x22>
10000388:	e7fb      	b.n	10000382 <main+0x42>
1000038a:	46c0      	nop			; (mov r8, r8)
1000038c:	100026a0 	.word	0x100026a0
10000390:	10000321 	.word	0x10000321
10000394:	20000b28 	.word	0x20000b28
10000398:	40056038 	.word	0x40056038
1000039c:	40054000 	.word	0x40054000
100003a0:	001e8480 	.word	0x001e8480

100003a4 <gpio_set_function>:
100003a4:	4a09      	ldr	r2, [pc, #36]	; (100003cc <gpio_set_function+0x28>)
100003a6:	0083      	lsls	r3, r0, #2
100003a8:	4694      	mov	ip, r2
100003aa:	2240      	movs	r2, #64	; 0x40
100003ac:	4463      	add	r3, ip
100003ae:	b510      	push	{r4, lr}
100003b0:	681c      	ldr	r4, [r3, #0]
100003b2:	00c0      	lsls	r0, r0, #3
100003b4:	4062      	eors	r2, r4
100003b6:	24c0      	movs	r4, #192	; 0xc0
100003b8:	4014      	ands	r4, r2
100003ba:	2280      	movs	r2, #128	; 0x80
100003bc:	0152      	lsls	r2, r2, #5
100003be:	4313      	orrs	r3, r2
100003c0:	601c      	str	r4, [r3, #0]
100003c2:	4b03      	ldr	r3, [pc, #12]	; (100003d0 <gpio_set_function+0x2c>)
100003c4:	469c      	mov	ip, r3
100003c6:	4460      	add	r0, ip
100003c8:	6041      	str	r1, [r0, #4]
100003ca:	bd10      	pop	{r4, pc}
100003cc:	4001c004 	.word	0x4001c004
100003d0:	40014000 	.word	0x40014000

100003d4 <hw_claim_or_assert>:
100003d4:	b5f8      	push	{r3, r4, r5, r6, r7, lr}
100003d6:	46ce      	mov	lr, r9
100003d8:	4647      	mov	r7, r8
100003da:	4691      	mov	r9, r2
100003dc:	b580      	push	{r7, lr}
100003de:	f3ef 8710 	mrs	r7, PRIMASK
100003e2:	b672      	cpsid	i
100003e4:	4e12      	ldr	r6, [pc, #72]	; (10000430 <hw_claim_or_assert+0x5c>)
100003e6:	6833      	ldr	r3, [r6, #0]
100003e8:	2b00      	cmp	r3, #0
100003ea:	d0fc      	beq.n	100003e6 <hw_claim_or_assert+0x12>
100003ec:	f3bf 8f5f 	dmb	sy
100003f0:	08cb      	lsrs	r3, r1, #3
100003f2:	5cc5      	ldrb	r5, [r0, r3]
100003f4:	2407      	movs	r4, #7
100003f6:	18c2      	adds	r2, r0, r3
100003f8:	0028      	movs	r0, r5
100003fa:	2301      	movs	r3, #1
100003fc:	400c      	ands	r4, r1
100003fe:	4694      	mov	ip, r2
10000400:	40e0      	lsrs	r0, r4
10000402:	001a      	movs	r2, r3
10000404:	4002      	ands	r2, r0
10000406:	4690      	mov	r8, r2
10000408:	4203      	tst	r3, r0
1000040a:	d10d      	bne.n	10000428 <hw_claim_or_assert+0x54>
1000040c:	40a3      	lsls	r3, r4
1000040e:	4662      	mov	r2, ip
10000410:	432b      	orrs	r3, r5
10000412:	7013      	strb	r3, [r2, #0]
10000414:	f3bf 8f5f 	dmb	sy
10000418:	4643      	mov	r3, r8
1000041a:	6033      	str	r3, [r6, #0]
1000041c:	f387 8810 	msr	PRIMASK, r7
10000420:	bc0c      	pop	{r2, r3}
10000422:	4690      	mov	r8, r2
10000424:	4699      	mov	r9, r3
10000426:	bdf8      	pop	{r3, r4, r5, r6, r7, pc}
10000428:	4648      	mov	r0, r9
1000042a:	f000 fe53 	bl	100010d4 <panic>
1000042e:	46c0      	nop			; (mov r8, r8)
10000430:	d000012c 	.word	0xd000012c

10000434 <spin_locks_reset>:
10000434:	2100      	movs	r1, #0
10000436:	4b04      	ldr	r3, [pc, #16]	; (10000448 <spin_locks_reset+0x14>)
10000438:	4a04      	ldr	r2, [pc, #16]	; (1000044c <spin_locks_reset+0x18>)
1000043a:	f3bf 8f5f 	dmb	sy
1000043e:	c302      	stmia	r3!, {r1}
10000440:	4293      	cmp	r3, r2
10000442:	d1fa      	bne.n	1000043a <spin_locks_reset+0x6>
10000444:	4770      	bx	lr
10000446:	46c0      	nop			; (mov r8, r8)
10000448:	d0000100 	.word	0xd0000100
1000044c:	d0000180 	.word	0xd0000180

10000450 <next_striped_spin_lock_num>:
10000450:	4a04      	ldr	r2, [pc, #16]	; (10000464 <next_striped_spin_lock_num+0x14>)
10000452:	7810      	ldrb	r0, [r2, #0]
10000454:	1c43      	adds	r3, r0, #1
10000456:	b2db      	uxtb	r3, r3
10000458:	2b17      	cmp	r3, #23
1000045a:	d900      	bls.n	1000045e <next_striped_spin_lock_num+0xe>
1000045c:	2310      	movs	r3, #16
1000045e:	7013      	strb	r3, [r2, #0]
10000460:	4770      	bx	lr
10000462:	46c0      	nop			; (mov r8, r8)
10000464:	20000188 	.word	0x20000188

10000468 <running_on_fpga>:
10000468:	4b02      	ldr	r3, [pc, #8]	; (10000474 <running_on_fpga+0xc>)
1000046a:	6818      	ldr	r0, [r3, #0]
1000046c:	0780      	lsls	r0, r0, #30
1000046e:	0fc0      	lsrs	r0, r0, #31
10000470:	4770      	bx	lr
10000472:	46c0      	nop			; (mov r8, r8)
10000474:	4006c000 	.word	0x4006c000

10000478 <uart_init>:
10000478:	b5f0      	push	{r4, r5, r6, r7, lr}
1000047a:	46c6      	mov	lr, r8
1000047c:	0005      	movs	r5, r0
1000047e:	b500      	push	{lr}
10000480:	2006      	movs	r0, #6
10000482:	000e      	movs	r6, r1
10000484:	f000 ffb4 	bl	100013f0 <clock_get_hz>
10000488:	2800      	cmp	r0, #0
1000048a:	d04d      	beq.n	10000528 <uart_init+0xb0>
1000048c:	4b29      	ldr	r3, [pc, #164]	; (10000534 <uart_init+0xbc>)
1000048e:	492a      	ldr	r1, [pc, #168]	; (10000538 <uart_init+0xc0>)
10000490:	18eb      	adds	r3, r5, r3
10000492:	425a      	negs	r2, r3
10000494:	4153      	adcs	r3, r2
10000496:	2280      	movs	r2, #128	; 0x80
10000498:	03d2      	lsls	r2, r2, #15
1000049a:	4694      	mov	ip, r2
1000049c:	425b      	negs	r3, r3
1000049e:	4013      	ands	r3, r2
100004a0:	4a26      	ldr	r2, [pc, #152]	; (1000053c <uart_init+0xc4>)
100004a2:	4463      	add	r3, ip
100004a4:	6013      	str	r3, [r2, #0]
100004a6:	4a26      	ldr	r2, [pc, #152]	; (10000540 <uart_init+0xc8>)
100004a8:	6013      	str	r3, [r2, #0]
100004aa:	001c      	movs	r4, r3
100004ac:	688a      	ldr	r2, [r1, #8]
100004ae:	4394      	bics	r4, r2
100004b0:	d1fb      	bne.n	100004aa <uart_init+0x32>
100004b2:	4b20      	ldr	r3, [pc, #128]	; (10000534 <uart_init+0xbc>)
100004b4:	2180      	movs	r1, #128	; 0x80
100004b6:	18eb      	adds	r3, r5, r3
100004b8:	425a      	negs	r2, r3
100004ba:	4153      	adcs	r3, r2
100004bc:	4a21      	ldr	r2, [pc, #132]	; (10000544 <uart_init+0xcc>)
100004be:	005b      	lsls	r3, r3, #1
100004c0:	0049      	lsls	r1, r1, #1
100004c2:	2006      	movs	r0, #6
100004c4:	5299      	strh	r1, [r3, r2]
100004c6:	f000 ff93 	bl	100013f0 <clock_get_hz>
100004ca:	0031      	movs	r1, r6
100004cc:	00c0      	lsls	r0, r0, #3
100004ce:	f001 f9d1 	bl	10001874 <__wrap___aeabi_uidiv>
100004d2:	267f      	movs	r6, #127	; 0x7f
100004d4:	4b1c      	ldr	r3, [pc, #112]	; (10000548 <uart_init+0xd0>)
100004d6:	4006      	ands	r6, r0
100004d8:	09c7      	lsrs	r7, r0, #7
100004da:	3601      	adds	r6, #1
100004dc:	0876      	lsrs	r6, r6, #1
100004de:	626f      	str	r7, [r5, #36]	; 0x24
100004e0:	429f      	cmp	r7, r3
100004e2:	d024      	beq.n	1000052e <uart_init+0xb6>
100004e4:	62ae      	str	r6, [r5, #40]	; 0x28
100004e6:	232c      	movs	r3, #44	; 0x2c
100004e8:	4698      	mov	r8, r3
100004ea:	2480      	movs	r4, #128	; 0x80
100004ec:	44a8      	add	r8, r5
100004ee:	4643      	mov	r3, r8
100004f0:	01a4      	lsls	r4, r4, #6
100004f2:	431c      	orrs	r4, r3
100004f4:	2300      	movs	r3, #0
100004f6:	2006      	movs	r0, #6
100004f8:	6023      	str	r3, [r4, #0]
100004fa:	f000 ff79 	bl	100013f0 <clock_get_hz>
100004fe:	01b9      	lsls	r1, r7, #6
10000500:	1989      	adds	r1, r1, r6
10000502:	0080      	lsls	r0, r0, #2
10000504:	f001 f9b6 	bl	10001874 <__wrap___aeabi_uidiv>
10000508:	2360      	movs	r3, #96	; 0x60
1000050a:	6aea      	ldr	r2, [r5, #44]	; 0x2c
1000050c:	4641      	mov	r1, r8
1000050e:	4053      	eors	r3, r2
10000510:	226e      	movs	r2, #110	; 0x6e
10000512:	401a      	ands	r2, r3
10000514:	2380      	movs	r3, #128	; 0x80
10000516:	015b      	lsls	r3, r3, #5
10000518:	430b      	orrs	r3, r1
1000051a:	601a      	str	r2, [r3, #0]
1000051c:	4b0b      	ldr	r3, [pc, #44]	; (1000054c <uart_init+0xd4>)
1000051e:	632b      	str	r3, [r5, #48]	; 0x30
10000520:	2310      	movs	r3, #16
10000522:	6023      	str	r3, [r4, #0]
10000524:	3b0d      	subs	r3, #13
10000526:	64ab      	str	r3, [r5, #72]	; 0x48
10000528:	bc04      	pop	{r2}
1000052a:	4690      	mov	r8, r2
1000052c:	bdf0      	pop	{r4, r5, r6, r7, pc}
1000052e:	62ac      	str	r4, [r5, #40]	; 0x28
10000530:	e7d9      	b.n	100004e6 <uart_init+0x6e>
10000532:	46c0      	nop			; (mov r8, r8)
10000534:	bffc8000 	.word	0xbffc8000
10000538:	4000c000 	.word	0x4000c000
1000053c:	4000e000 	.word	0x4000e000
10000540:	4000f000 	.word	0x4000f000
10000544:	20000b2c 	.word	0x20000b2c
10000548:	0000ffff 	.word	0x0000ffff
1000054c:	00000301 	.word	0x00000301

10000550 <timer_pool_entry_comparator>:
10000550:	6883      	ldr	r3, [r0, #8]
10000552:	480b      	ldr	r0, [pc, #44]	; (10000580 <timer_pool_entry_comparator+0x30>)
10000554:	b510      	push	{r4, lr}
10000556:	4684      	mov	ip, r0
10000558:	4461      	add	r1, ip
1000055a:	4462      	add	r2, ip
1000055c:	0109      	lsls	r1, r1, #4
1000055e:	0112      	lsls	r2, r2, #4
10000560:	189a      	adds	r2, r3, r2
10000562:	1859      	adds	r1, r3, r1
10000564:	6854      	ldr	r4, [r2, #4]
10000566:	684b      	ldr	r3, [r1, #4]
10000568:	2001      	movs	r0, #1
1000056a:	429c      	cmp	r4, r3
1000056c:	d801      	bhi.n	10000572 <timer_pool_entry_comparator+0x22>
1000056e:	d002      	beq.n	10000576 <timer_pool_entry_comparator+0x26>
10000570:	2000      	movs	r0, #0
10000572:	b2c0      	uxtb	r0, r0
10000574:	bd10      	pop	{r4, pc}
10000576:	6812      	ldr	r2, [r2, #0]
10000578:	680b      	ldr	r3, [r1, #0]
1000057a:	429a      	cmp	r2, r3
1000057c:	d8f9      	bhi.n	10000572 <timer_pool_entry_comparator+0x22>
1000057e:	e7f7      	b.n	10000570 <timer_pool_entry_comparator+0x20>
10000580:	0fffffff 	.word	0x0fffffff

10000584 <add_alarm_under_lock>:
10000584:	b5f0      	push	{r4, r5, r6, r7, lr}
10000586:	4657      	mov	r7, sl
10000588:	4645      	mov	r5, r8
1000058a:	46de      	mov	lr, fp
1000058c:	464e      	mov	r6, r9
1000058e:	b5e0      	push	{r5, r6, r7, lr}
10000590:	b083      	sub	sp, #12
10000592:	001f      	movs	r7, r3
10000594:	ab0f      	add	r3, sp, #60	; 0x3c
10000596:	781b      	ldrb	r3, [r3, #0]
10000598:	9c0e      	ldr	r4, [sp, #56]	; 0x38
1000059a:	0005      	movs	r5, r0
1000059c:	4692      	mov	sl, r2
1000059e:	9301      	str	r3, [sp, #4]
100005a0:	2c00      	cmp	r4, #0
100005a2:	d10d      	bne.n	100005c0 <add_alarm_under_lock+0x3c>
100005a4:	6802      	ldr	r2, [r0, #0]
100005a6:	7b94      	ldrb	r4, [r2, #14]
100005a8:	2c00      	cmp	r4, #0
100005aa:	d056      	beq.n	1000065a <add_alarm_under_lock+0xd6>
100005ac:	6811      	ldr	r1, [r2, #0]
100005ae:	0063      	lsls	r3, r4, #1
100005b0:	468c      	mov	ip, r1
100005b2:	191b      	adds	r3, r3, r4
100005b4:	4463      	add	r3, ip
100005b6:	3b03      	subs	r3, #3
100005b8:	785b      	ldrb	r3, [r3, #1]
100005ba:	7393      	strb	r3, [r2, #14]
100005bc:	2b00      	cmp	r3, #0
100005be:	d054      	beq.n	1000066a <add_alarm_under_lock+0xe6>
100005c0:	68aa      	ldr	r2, [r5, #8]
100005c2:	b2e3      	uxtb	r3, r4
100005c4:	4694      	mov	ip, r2
100005c6:	4652      	mov	r2, sl
100005c8:	469b      	mov	fp, r3
100005ca:	4b38      	ldr	r3, [pc, #224]	; (100006ac <add_alarm_under_lock+0x128>)
100005cc:	682e      	ldr	r6, [r5, #0]
100005ce:	18e3      	adds	r3, r4, r3
100005d0:	011b      	lsls	r3, r3, #4
100005d2:	4463      	add	r3, ip
100005d4:	601a      	str	r2, [r3, #0]
100005d6:	9a0c      	ldr	r2, [sp, #48]	; 0x30
100005d8:	605f      	str	r7, [r3, #4]
100005da:	609a      	str	r2, [r3, #8]
100005dc:	9a0d      	ldr	r2, [sp, #52]	; 0x34
100005de:	60da      	str	r2, [r3, #12]
100005e0:	23d0      	movs	r3, #208	; 0xd0
100005e2:	2280      	movs	r2, #128	; 0x80
100005e4:	061b      	lsls	r3, r3, #24
100005e6:	0312      	lsls	r2, r2, #12
100005e8:	615a      	str	r2, [r3, #20]
100005ea:	0063      	lsls	r3, r4, #1
100005ec:	191b      	adds	r3, r3, r4
100005ee:	3b03      	subs	r3, #3
100005f0:	4698      	mov	r8, r3
100005f2:	2200      	movs	r2, #0
100005f4:	6833      	ldr	r3, [r6, #0]
100005f6:	4443      	add	r3, r8
100005f8:	709a      	strb	r2, [r3, #2]
100005fa:	705a      	strb	r2, [r3, #1]
100005fc:	701a      	strb	r2, [r3, #0]
100005fe:	7b73      	ldrb	r3, [r6, #13]
10000600:	4699      	mov	r9, r3
10000602:	2b00      	cmp	r3, #0
10000604:	d017      	beq.n	10000636 <add_alarm_under_lock+0xb2>
10000606:	465a      	mov	r2, fp
10000608:	0019      	movs	r1, r3
1000060a:	68b0      	ldr	r0, [r6, #8]
1000060c:	6873      	ldr	r3, [r6, #4]
1000060e:	4798      	blx	r3
10000610:	6832      	ldr	r2, [r6, #0]
10000612:	2800      	cmp	r0, #0
10000614:	d12b      	bne.n	1000066e <add_alarm_under_lock+0xea>
10000616:	4643      	mov	r3, r8
10000618:	18d1      	adds	r1, r2, r3
1000061a:	464b      	mov	r3, r9
1000061c:	4658      	mov	r0, fp
1000061e:	005b      	lsls	r3, r3, #1
10000620:	444b      	add	r3, r9
10000622:	3b03      	subs	r3, #3
10000624:	18d3      	adds	r3, r2, r3
10000626:	7098      	strb	r0, [r3, #2]
10000628:	4640      	mov	r0, r8
1000062a:	5c12      	ldrb	r2, [r2, r0]
1000062c:	2a00      	cmp	r2, #0
1000062e:	d000      	beq.n	10000632 <add_alarm_under_lock+0xae>
10000630:	705a      	strb	r2, [r3, #1]
10000632:	464b      	mov	r3, r9
10000634:	700b      	strb	r3, [r1, #0]
10000636:	465b      	mov	r3, fp
10000638:	7373      	strb	r3, [r6, #13]
1000063a:	4652      	mov	r2, sl
1000063c:	003b      	movs	r3, r7
1000063e:	7d28      	ldrb	r0, [r5, #20]
10000640:	f000 fa1a 	bl	10000a78 <hardware_alarm_set_target>
10000644:	1e06      	subs	r6, r0, #0
10000646:	d002      	beq.n	1000064e <add_alarm_under_lock+0xca>
10000648:	9b01      	ldr	r3, [sp, #4]
1000064a:	2b00      	cmp	r3, #0
1000064c:	d026      	beq.n	1000069c <add_alarm_under_lock+0x118>
1000064e:	9b10      	ldr	r3, [sp, #64]	; 0x40
10000650:	2b00      	cmp	r3, #0
10000652:	d028      	beq.n	100006a6 <add_alarm_under_lock+0x122>
10000654:	0020      	movs	r0, r4
10000656:	701e      	strb	r6, [r3, #0]
10000658:	e000      	b.n	1000065c <add_alarm_under_lock+0xd8>
1000065a:	2000      	movs	r0, #0
1000065c:	b003      	add	sp, #12
1000065e:	bc3c      	pop	{r2, r3, r4, r5}
10000660:	4690      	mov	r8, r2
10000662:	4699      	mov	r9, r3
10000664:	46a2      	mov	sl, r4
10000666:	46ab      	mov	fp, r5
10000668:	bdf0      	pop	{r4, r5, r6, r7, pc}
1000066a:	73d3      	strb	r3, [r2, #15]
1000066c:	e7a8      	b.n	100005c0 <add_alarm_under_lock+0x3c>
1000066e:	464b      	mov	r3, r9
10000670:	005b      	lsls	r3, r3, #1
10000672:	444b      	add	r3, r9
10000674:	3b03      	subs	r3, #3
10000676:	18d1      	adds	r1, r2, r3
10000678:	468c      	mov	ip, r1
1000067a:	4641      	mov	r1, r8
1000067c:	4648      	mov	r0, r9
1000067e:	1851      	adds	r1, r2, r1
10000680:	7088      	strb	r0, [r1, #2]
10000682:	5cd3      	ldrb	r3, [r2, r3]
10000684:	2b00      	cmp	r3, #0
10000686:	d000      	beq.n	1000068a <add_alarm_under_lock+0x106>
10000688:	704b      	strb	r3, [r1, #1]
1000068a:	465b      	mov	r3, fp
1000068c:	4662      	mov	r2, ip
1000068e:	7013      	strb	r3, [r2, #0]
10000690:	464b      	mov	r3, r9
10000692:	0020      	movs	r0, r4
10000694:	7373      	strb	r3, [r6, #13]
10000696:	45a1      	cmp	r9, r4
10000698:	d1e0      	bne.n	1000065c <add_alarm_under_lock+0xd8>
1000069a:	e7ce      	b.n	1000063a <add_alarm_under_lock+0xb6>
1000069c:	4659      	mov	r1, fp
1000069e:	6828      	ldr	r0, [r5, #0]
100006a0:	f000 fc48 	bl	10000f34 <ph_delete>
100006a4:	e7d3      	b.n	1000064e <add_alarm_under_lock+0xca>
100006a6:	0020      	movs	r0, r4
100006a8:	e7d8      	b.n	1000065c <add_alarm_under_lock+0xd8>
100006aa:	46c0      	nop			; (mov r8, r8)
100006ac:	0fffffff 	.word	0x0fffffff

100006b0 <alarm_pool_alarm_callback>:
100006b0:	b5f0      	push	{r4, r5, r6, r7, lr}
100006b2:	46de      	mov	lr, fp
100006b4:	464e      	mov	r6, r9
100006b6:	4657      	mov	r7, sl
100006b8:	4645      	mov	r5, r8
100006ba:	2300      	movs	r3, #0
100006bc:	b5e0      	push	{r5, r6, r7, lr}
100006be:	b08d      	sub	sp, #52	; 0x34
100006c0:	930a      	str	r3, [sp, #40]	; 0x28
100006c2:	4b71      	ldr	r3, [pc, #452]	; (10000888 <alarm_pool_alarm_callback+0x1d8>)
100006c4:	0082      	lsls	r2, r0, #2
100006c6:	58d3      	ldr	r3, [r2, r3]
100006c8:	900b      	str	r0, [sp, #44]	; 0x2c
100006ca:	4699      	mov	r9, r3
100006cc:	2300      	movs	r3, #0
100006ce:	469b      	mov	fp, r3
100006d0:	464b      	mov	r3, r9
100006d2:	9307      	str	r3, [sp, #28]
100006d4:	f000 f980 	bl	100009d8 <time_us_64>
100006d8:	9c07      	ldr	r4, [sp, #28]
100006da:	0006      	movs	r6, r0
100006dc:	000f      	movs	r7, r1
100006de:	6862      	ldr	r2, [r4, #4]
100006e0:	f3ef 8510 	mrs	r5, PRIMASK
100006e4:	b672      	cpsid	i
100006e6:	6813      	ldr	r3, [r2, #0]
100006e8:	2b00      	cmp	r3, #0
100006ea:	d0fc      	beq.n	100006e6 <alarm_pool_alarm_callback+0x36>
100006ec:	0022      	movs	r2, r4
100006ee:	9407      	str	r4, [sp, #28]
100006f0:	f3bf 8f5f 	dmb	sy
100006f4:	6824      	ldr	r4, [r4, #0]
100006f6:	7b63      	ldrb	r3, [r4, #13]
100006f8:	4699      	mov	r9, r3
100006fa:	2b00      	cmp	r3, #0
100006fc:	d100      	bne.n	10000700 <alarm_pool_alarm_callback+0x50>
100006fe:	e070      	b.n	100007e2 <alarm_pool_alarm_callback+0x132>
10000700:	6892      	ldr	r2, [r2, #8]
10000702:	4b62      	ldr	r3, [pc, #392]	; (1000088c <alarm_pool_alarm_callback+0x1dc>)
10000704:	4690      	mov	r8, r2
10000706:	444b      	add	r3, r9
10000708:	011b      	lsls	r3, r3, #4
1000070a:	4498      	add	r8, r3
1000070c:	4643      	mov	r3, r8
1000070e:	681a      	ldr	r2, [r3, #0]
10000710:	685b      	ldr	r3, [r3, #4]
10000712:	0010      	movs	r0, r2
10000714:	0019      	movs	r1, r3
10000716:	1b80      	subs	r0, r0, r6
10000718:	41b9      	sbcs	r1, r7
1000071a:	2900      	cmp	r1, #0
1000071c:	dd68      	ble.n	100007f0 <alarm_pool_alarm_callback+0x140>
1000071e:	980b      	ldr	r0, [sp, #44]	; 0x2c
10000720:	f000 f9aa 	bl	10000a78 <hardware_alarm_set_target>
10000724:	2300      	movs	r3, #0
10000726:	2600      	movs	r6, #0
10000728:	4698      	mov	r8, r3
1000072a:	2700      	movs	r7, #0
1000072c:	469a      	mov	sl, r3
1000072e:	9c07      	ldr	r4, [sp, #28]
10000730:	6863      	ldr	r3, [r4, #4]
10000732:	f3bf 8f5f 	dmb	sy
10000736:	465a      	mov	r2, fp
10000738:	601a      	str	r2, [r3, #0]
1000073a:	f385 8810 	msr	PRIMASK, r5
1000073e:	4653      	mov	r3, sl
10000740:	2b00      	cmp	r3, #0
10000742:	d108      	bne.n	10000756 <alarm_pool_alarm_callback+0xa6>
10000744:	2800      	cmp	r0, #0
10000746:	d1c5      	bne.n	100006d4 <alarm_pool_alarm_callback+0x24>
10000748:	b00d      	add	sp, #52	; 0x34
1000074a:	bc3c      	pop	{r2, r3, r4, r5}
1000074c:	4690      	mov	r8, r2
1000074e:	4699      	mov	r9, r3
10000750:	46a2      	mov	sl, r4
10000752:	46ab      	mov	fp, r5
10000754:	bdf0      	pop	{r4, r5, r6, r7, pc}
10000756:	23d0      	movs	r3, #208	; 0xd0
10000758:	2280      	movs	r2, #128	; 0x80
1000075a:	2180      	movs	r1, #128	; 0x80
1000075c:	061b      	lsls	r3, r3, #24
1000075e:	0392      	lsls	r2, r2, #14
10000760:	0309      	lsls	r1, r1, #12
10000762:	615a      	str	r2, [r3, #20]
10000764:	6199      	str	r1, [r3, #24]
10000766:	619a      	str	r2, [r3, #24]
10000768:	9b0a      	ldr	r3, [sp, #40]	; 0x28
1000076a:	4641      	mov	r1, r8
1000076c:	0218      	lsls	r0, r3, #8
1000076e:	464b      	mov	r3, r9
10000770:	4318      	orrs	r0, r3
10000772:	47d0      	blx	sl
10000774:	9008      	str	r0, [sp, #32]
10000776:	9109      	str	r1, [sp, #36]	; 0x24
10000778:	6862      	ldr	r2, [r4, #4]
1000077a:	f3ef 8510 	mrs	r5, PRIMASK
1000077e:	b672      	cpsid	i
10000780:	6813      	ldr	r3, [r2, #0]
10000782:	2b00      	cmp	r3, #0
10000784:	d0fc      	beq.n	10000780 <alarm_pool_alarm_callback+0xd0>
10000786:	9407      	str	r4, [sp, #28]
10000788:	f3bf 8f5f 	dmb	sy
1000078c:	9908      	ldr	r1, [sp, #32]
1000078e:	9a09      	ldr	r2, [sp, #36]	; 0x24
10000790:	2a00      	cmp	r2, #0
10000792:	db49      	blt.n	10000828 <alarm_pool_alarm_callback+0x178>
10000794:	4311      	orrs	r1, r2
10000796:	d003      	beq.n	100007a0 <alarm_pool_alarm_callback+0xf0>
10000798:	9b07      	ldr	r3, [sp, #28]
1000079a:	691b      	ldr	r3, [r3, #16]
1000079c:	2b00      	cmp	r3, #0
1000079e:	d15e      	bne.n	1000085e <alarm_pool_alarm_callback+0x1ae>
100007a0:	9b07      	ldr	r3, [sp, #28]
100007a2:	681b      	ldr	r3, [r3, #0]
100007a4:	7bda      	ldrb	r2, [r3, #15]
100007a6:	2a00      	cmp	r2, #0
100007a8:	d007      	beq.n	100007ba <alarm_pool_alarm_callback+0x10a>
100007aa:	0051      	lsls	r1, r2, #1
100007ac:	188a      	adds	r2, r1, r2
100007ae:	6819      	ldr	r1, [r3, #0]
100007b0:	468c      	mov	ip, r1
100007b2:	4649      	mov	r1, r9
100007b4:	4462      	add	r2, ip
100007b6:	3a03      	subs	r2, #3
100007b8:	7051      	strb	r1, [r2, #1]
100007ba:	464a      	mov	r2, r9
100007bc:	73da      	strb	r2, [r3, #15]
100007be:	464b      	mov	r3, r9
100007c0:	9a07      	ldr	r2, [sp, #28]
100007c2:	3b01      	subs	r3, #1
100007c4:	68d1      	ldr	r1, [r2, #12]
100007c6:	5cca      	ldrb	r2, [r1, r3]
100007c8:	3201      	adds	r2, #1
100007ca:	54ca      	strb	r2, [r1, r3]
100007cc:	465b      	mov	r3, fp
100007ce:	9a07      	ldr	r2, [sp, #28]
100007d0:	6113      	str	r3, [r2, #16]
100007d2:	6853      	ldr	r3, [r2, #4]
100007d4:	f3bf 8f5f 	dmb	sy
100007d8:	465a      	mov	r2, fp
100007da:	601a      	str	r2, [r3, #0]
100007dc:	f385 8810 	msr	PRIMASK, r5
100007e0:	e778      	b.n	100006d4 <alarm_pool_alarm_callback+0x24>
100007e2:	2300      	movs	r3, #0
100007e4:	2600      	movs	r6, #0
100007e6:	4698      	mov	r8, r3
100007e8:	2700      	movs	r7, #0
100007ea:	469a      	mov	sl, r3
100007ec:	2000      	movs	r0, #0
100007ee:	e79e      	b.n	1000072e <alarm_pool_alarm_callback+0x7e>
100007f0:	2900      	cmp	r1, #0
100007f2:	d102      	bne.n	100007fa <alarm_pool_alarm_callback+0x14a>
100007f4:	2800      	cmp	r0, #0
100007f6:	d000      	beq.n	100007fa <alarm_pool_alarm_callback+0x14a>
100007f8:	e791      	b.n	1000071e <alarm_pool_alarm_callback+0x6e>
100007fa:	2101      	movs	r1, #1
100007fc:	0020      	movs	r0, r4
100007fe:	f000 fafb 	bl	10000df8 <ph_remove_head_reserve>
10000802:	4643      	mov	r3, r8
10000804:	681e      	ldr	r6, [r3, #0]
10000806:	685f      	ldr	r7, [r3, #4]
10000808:	689b      	ldr	r3, [r3, #8]
1000080a:	9a07      	ldr	r2, [sp, #28]
1000080c:	469a      	mov	sl, r3
1000080e:	4643      	mov	r3, r8
10000810:	68db      	ldr	r3, [r3, #12]
10000812:	4698      	mov	r8, r3
10000814:	68d3      	ldr	r3, [r2, #12]
10000816:	444b      	add	r3, r9
10000818:	3b01      	subs	r3, #1
1000081a:	781b      	ldrb	r3, [r3, #0]
1000081c:	930a      	str	r3, [sp, #40]	; 0x28
1000081e:	021b      	lsls	r3, r3, #8
10000820:	4303      	orrs	r3, r0
10000822:	6113      	str	r3, [r2, #16]
10000824:	2000      	movs	r0, #0
10000826:	e782      	b.n	1000072e <alarm_pool_alarm_callback+0x7e>
10000828:	6923      	ldr	r3, [r4, #16]
1000082a:	2b00      	cmp	r3, #0
1000082c:	d0b8      	beq.n	100007a0 <alarm_pool_alarm_callback+0xf0>
1000082e:	0033      	movs	r3, r6
10000830:	003c      	movs	r4, r7
10000832:	1a5b      	subs	r3, r3, r1
10000834:	4194      	sbcs	r4, r2
10000836:	001a      	movs	r2, r3
10000838:	0023      	movs	r3, r4
1000083a:	42a7      	cmp	r7, r4
1000083c:	d819      	bhi.n	10000872 <alarm_pool_alarm_callback+0x1c2>
1000083e:	429f      	cmp	r7, r3
10000840:	d01b      	beq.n	1000087a <alarm_pool_alarm_callback+0x1ca>
10000842:	4659      	mov	r1, fp
10000844:	9104      	str	r1, [sp, #16]
10000846:	2101      	movs	r1, #1
10000848:	9103      	str	r1, [sp, #12]
1000084a:	4649      	mov	r1, r9
1000084c:	9102      	str	r1, [sp, #8]
1000084e:	4641      	mov	r1, r8
10000850:	9101      	str	r1, [sp, #4]
10000852:	4651      	mov	r1, sl
10000854:	9807      	ldr	r0, [sp, #28]
10000856:	9100      	str	r1, [sp, #0]
10000858:	f7ff fe94 	bl	10000584 <add_alarm_under_lock>
1000085c:	e7b6      	b.n	100007cc <alarm_pool_alarm_callback+0x11c>
1000085e:	f000 f8bb 	bl	100009d8 <time_us_64>
10000862:	9a08      	ldr	r2, [sp, #32]
10000864:	9b09      	ldr	r3, [sp, #36]	; 0x24
10000866:	0006      	movs	r6, r0
10000868:	000f      	movs	r7, r1
1000086a:	1992      	adds	r2, r2, r6
1000086c:	417b      	adcs	r3, r7
1000086e:	4299      	cmp	r1, r3
10000870:	d9e5      	bls.n	1000083e <alarm_pool_alarm_callback+0x18e>
10000872:	2201      	movs	r2, #1
10000874:	4252      	negs	r2, r2
10000876:	17d3      	asrs	r3, r2, #31
10000878:	e7e3      	b.n	10000842 <alarm_pool_alarm_callback+0x192>
1000087a:	4296      	cmp	r6, r2
1000087c:	d9e1      	bls.n	10000842 <alarm_pool_alarm_callback+0x192>
1000087e:	2201      	movs	r2, #1
10000880:	4252      	negs	r2, r2
10000882:	17d3      	asrs	r3, r2, #31
10000884:	e7dd      	b.n	10000842 <alarm_pool_alarm_callback+0x192>
10000886:	46c0      	nop			; (mov r8, r8)
10000888:	20000b08 	.word	0x20000b08
1000088c:	0fffffff 	.word	0x0fffffff

10000890 <alarm_pool_init_default>:
10000890:	b570      	push	{r4, r5, r6, lr}
10000892:	4c18      	ldr	r4, [pc, #96]	; (100008f4 <alarm_pool_init_default+0x64>)
10000894:	6823      	ldr	r3, [r4, #0]
10000896:	2b00      	cmp	r3, #0
10000898:	d000      	beq.n	1000089c <alarm_pool_init_default+0xc>
1000089a:	bd70      	pop	{r4, r5, r6, pc}
1000089c:	2003      	movs	r0, #3
1000089e:	f000 f88f 	bl	100009c0 <hardware_alarm_claim>
100008a2:	2003      	movs	r0, #3
100008a4:	f000 f94a 	bl	10000b3c <hardware_alarm_cancel>
100008a8:	4913      	ldr	r1, [pc, #76]	; (100008f8 <alarm_pool_init_default+0x68>)
100008aa:	2003      	movs	r0, #3
100008ac:	f000 f89e 	bl	100009ec <hardware_alarm_set_callback>
100008b0:	2018      	movs	r0, #24
100008b2:	f001 f8bd 	bl	10001a30 <__wrap_malloc>
100008b6:	0005      	movs	r5, r0
100008b8:	f7ff fdca 	bl	10000450 <next_striped_spin_lock_num>
100008bc:	4b0f      	ldr	r3, [pc, #60]	; (100008fc <alarm_pool_init_default+0x6c>)
100008be:	002a      	movs	r2, r5
100008c0:	469c      	mov	ip, r3
100008c2:	4460      	add	r0, ip
100008c4:	0080      	lsls	r0, r0, #2
100008c6:	490e      	ldr	r1, [pc, #56]	; (10000900 <alarm_pool_init_default+0x70>)
100008c8:	6068      	str	r0, [r5, #4]
100008ca:	2010      	movs	r0, #16
100008cc:	f000 f99e 	bl	10000c0c <ph_create>
100008d0:	2110      	movs	r1, #16
100008d2:	6028      	str	r0, [r5, #0]
100008d4:	2010      	movs	r0, #16
100008d6:	f001 f8af 	bl	10001a38 <__wrap_calloc>
100008da:	2101      	movs	r1, #1
100008dc:	60a8      	str	r0, [r5, #8]
100008de:	2010      	movs	r0, #16
100008e0:	f001 f8aa 	bl	10001a38 <__wrap_calloc>
100008e4:	2303      	movs	r3, #3
100008e6:	752b      	strb	r3, [r5, #20]
100008e8:	4b06      	ldr	r3, [pc, #24]	; (10000904 <alarm_pool_init_default+0x74>)
100008ea:	60e8      	str	r0, [r5, #12]
100008ec:	60dd      	str	r5, [r3, #12]
100008ee:	6025      	str	r5, [r4, #0]
100008f0:	e7d3      	b.n	1000089a <alarm_pool_init_default+0xa>
100008f2:	46c0      	nop			; (mov r8, r8)
100008f4:	20000af4 	.word	0x20000af4
100008f8:	100006b1 	.word	0x100006b1
100008fc:	34000040 	.word	0x34000040
10000900:	10000551 	.word	0x10000551
10000904:	20000b08 	.word	0x20000b08

10000908 <hardware_alarm_irq_handler>:
10000908:	b5f0      	push	{r4, r5, r6, r7, lr}
1000090a:	46d6      	mov	lr, sl
1000090c:	464f      	mov	r7, r9
1000090e:	4646      	mov	r6, r8
10000910:	b5c0      	push	{r6, r7, lr}
10000912:	f3ef 8305 	mrs	r3, IPSR
10000916:	223f      	movs	r2, #63	; 0x3f
10000918:	4013      	ands	r3, r2
1000091a:	0018      	movs	r0, r3
1000091c:	3810      	subs	r0, #16
1000091e:	f3ef 8c10 	mrs	ip, PRIMASK
10000922:	b672      	cpsid	i
10000924:	4d20      	ldr	r5, [pc, #128]	; (100009a8 <hardware_alarm_irq_handler+0xa0>)
10000926:	682a      	ldr	r2, [r5, #0]
10000928:	2a00      	cmp	r2, #0
1000092a:	d0fc      	beq.n	10000926 <hardware_alarm_irq_handler+0x1e>
1000092c:	f3bf 8f5f 	dmb	sy
10000930:	2201      	movs	r2, #1
10000932:	0011      	movs	r1, r2
10000934:	4081      	lsls	r1, r0
10000936:	4c1d      	ldr	r4, [pc, #116]	; (100009ac <hardware_alarm_irq_handler+0xa4>)
10000938:	4688      	mov	r8, r1
1000093a:	6361      	str	r1, [r4, #52]	; 0x34
1000093c:	491c      	ldr	r1, [pc, #112]	; (100009b0 <hardware_alarm_irq_handler+0xa8>)
1000093e:	0017      	movs	r7, r2
10000940:	780e      	ldrb	r6, [r1, #0]
10000942:	468a      	mov	sl, r1
10000944:	0031      	movs	r1, r6
10000946:	40c1      	lsrs	r1, r0
10000948:	400f      	ands	r7, r1
1000094a:	420a      	tst	r2, r1
1000094c:	d015      	beq.n	1000097a <hardware_alarm_irq_handler+0x72>
1000094e:	4919      	ldr	r1, [pc, #100]	; (100009b4 <hardware_alarm_irq_handler+0xac>)
10000950:	0082      	lsls	r2, r0, #2
10000952:	6a64      	ldr	r4, [r4, #36]	; 0x24
10000954:	5851      	ldr	r1, [r2, r1]
10000956:	428c      	cmp	r4, r1
10000958:	d319      	bcc.n	1000098e <hardware_alarm_irq_handler+0x86>
1000095a:	4b17      	ldr	r3, [pc, #92]	; (100009b8 <hardware_alarm_irq_handler+0xb0>)
1000095c:	58d2      	ldr	r2, [r2, r3]
1000095e:	4643      	mov	r3, r8
10000960:	439e      	bics	r6, r3
10000962:	4653      	mov	r3, sl
10000964:	701e      	strb	r6, [r3, #0]
10000966:	f3bf 8f5f 	dmb	sy
1000096a:	2300      	movs	r3, #0
1000096c:	602b      	str	r3, [r5, #0]
1000096e:	f38c 8810 	msr	PRIMASK, ip
10000972:	2a00      	cmp	r2, #0
10000974:	d006      	beq.n	10000984 <hardware_alarm_irq_handler+0x7c>
10000976:	4790      	blx	r2
10000978:	e004      	b.n	10000984 <hardware_alarm_irq_handler+0x7c>
1000097a:	f3bf 8f5f 	dmb	sy
1000097e:	602f      	str	r7, [r5, #0]
10000980:	f38c 8810 	msr	PRIMASK, ip
10000984:	bc1c      	pop	{r2, r3, r4}
10000986:	4690      	mov	r8, r2
10000988:	4699      	mov	r9, r3
1000098a:	46a2      	mov	sl, r4
1000098c:	bdf0      	pop	{r4, r5, r6, r7, pc}
1000098e:	4a0b      	ldr	r2, [pc, #44]	; (100009bc <hardware_alarm_irq_handler+0xb4>)
10000990:	009b      	lsls	r3, r3, #2
10000992:	4690      	mov	r8, r2
10000994:	4443      	add	r3, r8
10000996:	681a      	ldr	r2, [r3, #0]
10000998:	601a      	str	r2, [r3, #0]
1000099a:	f3bf 8f5f 	dmb	sy
1000099e:	2300      	movs	r3, #0
100009a0:	602b      	str	r3, [r5, #0]
100009a2:	f38c 8810 	msr	PRIMASK, ip
100009a6:	e7ed      	b.n	10000984 <hardware_alarm_irq_handler+0x7c>
100009a8:	d0000128 	.word	0xd0000128
100009ac:	40054000 	.word	0x40054000
100009b0:	20000b2b 	.word	0x20000b2b
100009b4:	20000b18 	.word	0x20000b18
100009b8:	20000abc 	.word	0x20000abc
100009bc:	40053fd0 	.word	0x40053fd0

100009c0 <hardware_alarm_claim>:
100009c0:	b510      	push	{r4, lr}
100009c2:	0001      	movs	r1, r0
100009c4:	4a02      	ldr	r2, [pc, #8]	; (100009d0 <hardware_alarm_claim+0x10>)
100009c6:	4803      	ldr	r0, [pc, #12]	; (100009d4 <hardware_alarm_claim+0x14>)
100009c8:	f7ff fd04 	bl	100003d4 <hw_claim_or_assert>
100009cc:	bd10      	pop	{r4, pc}
100009ce:	46c0      	nop			; (mov r8, r8)
100009d0:	100026b0 	.word	0x100026b0
100009d4:	20000b29 	.word	0x20000b29

100009d8 <time_us_64>:
100009d8:	4b03      	ldr	r3, [pc, #12]	; (100009e8 <time_us_64+0x10>)
100009da:	6a59      	ldr	r1, [r3, #36]	; 0x24
100009dc:	000a      	movs	r2, r1
100009de:	6a98      	ldr	r0, [r3, #40]	; 0x28
100009e0:	6a59      	ldr	r1, [r3, #36]	; 0x24
100009e2:	428a      	cmp	r2, r1
100009e4:	d1fa      	bne.n	100009dc <time_us_64+0x4>
100009e6:	4770      	bx	lr
100009e8:	40054000 	.word	0x40054000

100009ec <hardware_alarm_set_callback>:
100009ec:	b570      	push	{r4, r5, r6, lr}
100009ee:	0004      	movs	r4, r0
100009f0:	000d      	movs	r5, r1
100009f2:	f3ef 8610 	mrs	r6, PRIMASK
100009f6:	b672      	cpsid	i
100009f8:	4a1a      	ldr	r2, [pc, #104]	; (10000a64 <hardware_alarm_set_callback+0x78>)
100009fa:	6813      	ldr	r3, [r2, #0]
100009fc:	2b00      	cmp	r3, #0
100009fe:	d0fc      	beq.n	100009fa <hardware_alarm_set_callback+0xe>
10000a00:	f3bf 8f5f 	dmb	sy
10000a04:	2d00      	cmp	r5, #0
10000a06:	d01b      	beq.n	10000a40 <hardware_alarm_set_callback+0x54>
10000a08:	0020      	movs	r0, r4
10000a0a:	f000 fd4f 	bl	100014ac <irq_get_vtable_handler>
10000a0e:	4916      	ldr	r1, [pc, #88]	; (10000a68 <hardware_alarm_set_callback+0x7c>)
10000a10:	4281      	cmp	r1, r0
10000a12:	d00a      	beq.n	10000a2a <hardware_alarm_set_callback+0x3e>
10000a14:	0020      	movs	r0, r4
10000a16:	f000 fd51 	bl	100014bc <irq_set_exclusive_handler>
10000a1a:	2101      	movs	r1, #1
10000a1c:	0020      	movs	r0, r4
10000a1e:	f000 fd33 	bl	10001488 <irq_set_enabled>
10000a22:	2301      	movs	r3, #1
10000a24:	40a3      	lsls	r3, r4
10000a26:	4a11      	ldr	r2, [pc, #68]	; (10000a6c <hardware_alarm_set_callback+0x80>)
10000a28:	6013      	str	r3, [r2, #0]
10000a2a:	4b11      	ldr	r3, [pc, #68]	; (10000a70 <hardware_alarm_set_callback+0x84>)
10000a2c:	00a4      	lsls	r4, r4, #2
10000a2e:	50e5      	str	r5, [r4, r3]
10000a30:	f3bf 8f5f 	dmb	sy
10000a34:	2200      	movs	r2, #0
10000a36:	4b0b      	ldr	r3, [pc, #44]	; (10000a64 <hardware_alarm_set_callback+0x78>)
10000a38:	601a      	str	r2, [r3, #0]
10000a3a:	f386 8810 	msr	PRIMASK, r6
10000a3e:	bd70      	pop	{r4, r5, r6, pc}
10000a40:	4b0b      	ldr	r3, [pc, #44]	; (10000a70 <hardware_alarm_set_callback+0x84>)
10000a42:	00a2      	lsls	r2, r4, #2
10000a44:	50d5      	str	r5, [r2, r3]
10000a46:	2201      	movs	r2, #1
10000a48:	40a2      	lsls	r2, r4
10000a4a:	490a      	ldr	r1, [pc, #40]	; (10000a74 <hardware_alarm_set_callback+0x88>)
10000a4c:	0020      	movs	r0, r4
10000a4e:	780b      	ldrb	r3, [r1, #0]
10000a50:	4393      	bics	r3, r2
10000a52:	700b      	strb	r3, [r1, #0]
10000a54:	4904      	ldr	r1, [pc, #16]	; (10000a68 <hardware_alarm_set_callback+0x7c>)
10000a56:	f000 fd5b 	bl	10001510 <irq_remove_handler>
10000a5a:	2100      	movs	r1, #0
10000a5c:	0020      	movs	r0, r4
10000a5e:	f000 fd13 	bl	10001488 <irq_set_enabled>
10000a62:	e7e5      	b.n	10000a30 <hardware_alarm_set_callback+0x44>
10000a64:	d0000128 	.word	0xd0000128
10000a68:	10000909 	.word	0x10000909
10000a6c:	40056038 	.word	0x40056038
10000a70:	20000abc 	.word	0x20000abc
10000a74:	20000b2b 	.word	0x20000b2b

10000a78 <hardware_alarm_set_target>:
10000a78:	b5f0      	push	{r4, r5, r6, r7, lr}
10000a7a:	46ce      	mov	lr, r9
10000a7c:	4647      	mov	r7, r8
10000a7e:	b580      	push	{r7, lr}
10000a80:	4c2a      	ldr	r4, [pc, #168]	; (10000b2c <hardware_alarm_set_target+0xb4>)
10000a82:	6a61      	ldr	r1, [r4, #36]	; 0x24
10000a84:	000d      	movs	r5, r1
10000a86:	6aa6      	ldr	r6, [r4, #40]	; 0x28
10000a88:	6a61      	ldr	r1, [r4, #36]	; 0x24
10000a8a:	42a9      	cmp	r1, r5
10000a8c:	d1fa      	bne.n	10000a84 <hardware_alarm_set_target+0xc>
10000a8e:	428b      	cmp	r3, r1
10000a90:	d807      	bhi.n	10000aa2 <hardware_alarm_set_target+0x2a>
10000a92:	d004      	beq.n	10000a9e <hardware_alarm_set_target+0x26>
10000a94:	2001      	movs	r0, #1
10000a96:	bc0c      	pop	{r2, r3}
10000a98:	4690      	mov	r8, r2
10000a9a:	4699      	mov	r9, r3
10000a9c:	bdf0      	pop	{r4, r5, r6, r7, pc}
10000a9e:	42b2      	cmp	r2, r6
10000aa0:	d9f8      	bls.n	10000a94 <hardware_alarm_set_target+0x1c>
10000aa2:	f3ef 8810 	mrs	r8, PRIMASK
10000aa6:	b672      	cpsid	i
10000aa8:	4c21      	ldr	r4, [pc, #132]	; (10000b30 <hardware_alarm_set_target+0xb8>)
10000aaa:	6821      	ldr	r1, [r4, #0]
10000aac:	2900      	cmp	r1, #0
10000aae:	d0fc      	beq.n	10000aaa <hardware_alarm_set_target+0x32>
10000ab0:	f3bf 8f5f 	dmb	sy
10000ab4:	2501      	movs	r5, #1
10000ab6:	4085      	lsls	r5, r0
10000ab8:	4c1c      	ldr	r4, [pc, #112]	; (10000b2c <hardware_alarm_set_target+0xb4>)
10000aba:	4e1e      	ldr	r6, [pc, #120]	; (10000b34 <hardware_alarm_set_target+0xbc>)
10000abc:	6365      	str	r5, [r4, #52]	; 0x34
10000abe:	b2e9      	uxtb	r1, r5
10000ac0:	468c      	mov	ip, r1
10000ac2:	7831      	ldrb	r1, [r6, #0]
10000ac4:	4689      	mov	r9, r1
10000ac6:	4661      	mov	r1, ip
10000ac8:	464f      	mov	r7, r9
10000aca:	4339      	orrs	r1, r7
10000acc:	7031      	strb	r1, [r6, #0]
10000ace:	1d01      	adds	r1, r0, #4
10000ad0:	0089      	lsls	r1, r1, #2
10000ad2:	510a      	str	r2, [r1, r4]
10000ad4:	4918      	ldr	r1, [pc, #96]	; (10000b38 <hardware_alarm_set_target+0xc0>)
10000ad6:	0080      	lsls	r0, r0, #2
10000ad8:	5043      	str	r3, [r0, r1]
10000ada:	6a21      	ldr	r1, [r4, #32]
10000adc:	2000      	movs	r0, #0
10000ade:	4229      	tst	r1, r5
10000ae0:	d00c      	beq.n	10000afc <hardware_alarm_set_target+0x84>
10000ae2:	0020      	movs	r0, r4
10000ae4:	6a61      	ldr	r1, [r4, #36]	; 0x24
10000ae6:	000c      	movs	r4, r1
10000ae8:	6a87      	ldr	r7, [r0, #40]	; 0x28
10000aea:	6a41      	ldr	r1, [r0, #36]	; 0x24
10000aec:	42a1      	cmp	r1, r4
10000aee:	d1fa      	bne.n	10000ae6 <hardware_alarm_set_target+0x6e>
10000af0:	428b      	cmp	r3, r1
10000af2:	d802      	bhi.n	10000afa <hardware_alarm_set_target+0x82>
10000af4:	d10a      	bne.n	10000b0c <hardware_alarm_set_target+0x94>
10000af6:	42ba      	cmp	r2, r7
10000af8:	d908      	bls.n	10000b0c <hardware_alarm_set_target+0x94>
10000afa:	2000      	movs	r0, #0
10000afc:	f3bf 8f5f 	dmb	sy
10000b00:	2200      	movs	r2, #0
10000b02:	4b0b      	ldr	r3, [pc, #44]	; (10000b30 <hardware_alarm_set_target+0xb8>)
10000b04:	601a      	str	r2, [r3, #0]
10000b06:	f388 8810 	msr	PRIMASK, r8
10000b0a:	e7c4      	b.n	10000a96 <hardware_alarm_set_target+0x1e>
10000b0c:	4b07      	ldr	r3, [pc, #28]	; (10000b2c <hardware_alarm_set_target+0xb4>)
10000b0e:	464f      	mov	r7, r9
10000b10:	621d      	str	r5, [r3, #32]
10000b12:	635d      	str	r5, [r3, #52]	; 0x34
10000b14:	4663      	mov	r3, ip
10000b16:	439f      	bics	r7, r3
10000b18:	2001      	movs	r0, #1
10000b1a:	7037      	strb	r7, [r6, #0]
10000b1c:	f3bf 8f5f 	dmb	sy
10000b20:	2200      	movs	r2, #0
10000b22:	4b03      	ldr	r3, [pc, #12]	; (10000b30 <hardware_alarm_set_target+0xb8>)
10000b24:	601a      	str	r2, [r3, #0]
10000b26:	f388 8810 	msr	PRIMASK, r8
10000b2a:	e7b4      	b.n	10000a96 <hardware_alarm_set_target+0x1e>
10000b2c:	40054000 	.word	0x40054000
10000b30:	d0000128 	.word	0xd0000128
10000b34:	20000b2b 	.word	0x20000b2b
10000b38:	20000b18 	.word	0x20000b18

10000b3c <hardware_alarm_cancel>:
10000b3c:	b510      	push	{r4, lr}
10000b3e:	f3ef 8410 	mrs	r4, PRIMASK
10000b42:	b672      	cpsid	i
10000b44:	490a      	ldr	r1, [pc, #40]	; (10000b70 <hardware_alarm_cancel+0x34>)
10000b46:	680b      	ldr	r3, [r1, #0]
10000b48:	2b00      	cmp	r3, #0
10000b4a:	d0fc      	beq.n	10000b46 <hardware_alarm_cancel+0xa>
10000b4c:	f3bf 8f5f 	dmb	sy
10000b50:	2301      	movs	r3, #1
10000b52:	4083      	lsls	r3, r0
10000b54:	4a07      	ldr	r2, [pc, #28]	; (10000b74 <hardware_alarm_cancel+0x38>)
10000b56:	4808      	ldr	r0, [pc, #32]	; (10000b78 <hardware_alarm_cancel+0x3c>)
10000b58:	6213      	str	r3, [r2, #32]
10000b5a:	7802      	ldrb	r2, [r0, #0]
10000b5c:	439a      	bics	r2, r3
10000b5e:	7002      	strb	r2, [r0, #0]
10000b60:	f3bf 8f5f 	dmb	sy
10000b64:	2300      	movs	r3, #0
10000b66:	600b      	str	r3, [r1, #0]
10000b68:	f384 8810 	msr	PRIMASK, r4
10000b6c:	bd10      	pop	{r4, pc}
10000b6e:	46c0      	nop			; (mov r8, r8)
10000b70:	d0000128 	.word	0xd0000128
10000b74:	40054000 	.word	0x40054000
10000b78:	20000b2b 	.word	0x20000b2b

10000b7c <lock_init>:
10000b7c:	4b02      	ldr	r3, [pc, #8]	; (10000b88 <lock_init+0xc>)
10000b7e:	469c      	mov	ip, r3
10000b80:	4461      	add	r1, ip
10000b82:	0089      	lsls	r1, r1, #2
10000b84:	6001      	str	r1, [r0, #0]
10000b86:	4770      	bx	lr
10000b88:	34000040 	.word	0x34000040

10000b8c <mutex_init>:
10000b8c:	b510      	push	{r4, lr}
10000b8e:	0004      	movs	r4, r0
10000b90:	f7ff fc5e 	bl	10000450 <next_striped_spin_lock_num>
10000b94:	0001      	movs	r1, r0
10000b96:	0020      	movs	r0, r4
10000b98:	f7ff fff0 	bl	10000b7c <lock_init>
10000b9c:	f3bf 8f5f 	dmb	sy
10000ba0:	bd10      	pop	{r4, pc}
10000ba2:	46c0      	nop			; (mov r8, r8)

10000ba4 <ph_merge_nodes>:
10000ba4:	b570      	push	{r4, r5, r6, lr}
10000ba6:	0005      	movs	r5, r0
10000ba8:	000e      	movs	r6, r1
10000baa:	0014      	movs	r4, r2
10000bac:	2900      	cmp	r1, #0
10000bae:	d024      	beq.n	10000bfa <ph_merge_nodes+0x56>
10000bb0:	2a00      	cmp	r2, #0
10000bb2:	d024      	beq.n	10000bfe <ph_merge_nodes+0x5a>
10000bb4:	6880      	ldr	r0, [r0, #8]
10000bb6:	686b      	ldr	r3, [r5, #4]
10000bb8:	4798      	blx	r3
10000bba:	6829      	ldr	r1, [r5, #0]
10000bbc:	2800      	cmp	r0, #0
10000bbe:	d00e      	beq.n	10000bde <ph_merge_nodes+0x3a>
10000bc0:	0063      	lsls	r3, r4, #1
10000bc2:	191b      	adds	r3, r3, r4
10000bc4:	0072      	lsls	r2, r6, #1
10000bc6:	3b03      	subs	r3, #3
10000bc8:	1992      	adds	r2, r2, r6
10000bca:	18cb      	adds	r3, r1, r3
10000bcc:	3a03      	subs	r2, #3
10000bce:	709e      	strb	r6, [r3, #2]
10000bd0:	1888      	adds	r0, r1, r2
10000bd2:	5c8a      	ldrb	r2, [r1, r2]
10000bd4:	2a00      	cmp	r2, #0
10000bd6:	d114      	bne.n	10000c02 <ph_merge_nodes+0x5e>
10000bd8:	7004      	strb	r4, [r0, #0]
10000bda:	0030      	movs	r0, r6
10000bdc:	e00e      	b.n	10000bfc <ph_merge_nodes+0x58>
10000bde:	0073      	lsls	r3, r6, #1
10000be0:	199b      	adds	r3, r3, r6
10000be2:	0062      	lsls	r2, r4, #1
10000be4:	3b03      	subs	r3, #3
10000be6:	1912      	adds	r2, r2, r4
10000be8:	18cb      	adds	r3, r1, r3
10000bea:	3a03      	subs	r2, #3
10000bec:	709c      	strb	r4, [r3, #2]
10000bee:	1888      	adds	r0, r1, r2
10000bf0:	5c8a      	ldrb	r2, [r1, r2]
10000bf2:	2a00      	cmp	r2, #0
10000bf4:	d000      	beq.n	10000bf8 <ph_merge_nodes+0x54>
10000bf6:	705a      	strb	r2, [r3, #1]
10000bf8:	7006      	strb	r6, [r0, #0]
10000bfa:	0020      	movs	r0, r4
10000bfc:	bd70      	pop	{r4, r5, r6, pc}
10000bfe:	0008      	movs	r0, r1
10000c00:	e7fc      	b.n	10000bfc <ph_merge_nodes+0x58>
10000c02:	705a      	strb	r2, [r3, #1]
10000c04:	7004      	strb	r4, [r0, #0]
10000c06:	0030      	movs	r0, r6
10000c08:	e7f8      	b.n	10000bfc <ph_merge_nodes+0x58>
10000c0a:	46c0      	nop			; (mov r8, r8)

10000c0c <ph_create>:
10000c0c:	b5f0      	push	{r4, r5, r6, r7, lr}
10000c0e:	46c6      	mov	lr, r8
10000c10:	0005      	movs	r5, r0
10000c12:	000f      	movs	r7, r1
10000c14:	b500      	push	{lr}
10000c16:	2110      	movs	r1, #16
10000c18:	2001      	movs	r0, #1
10000c1a:	0016      	movs	r6, r2
10000c1c:	f000 ff0c 	bl	10001a38 <__wrap_calloc>
10000c20:	b2eb      	uxtb	r3, r5
10000c22:	0004      	movs	r4, r0
10000c24:	7303      	strb	r3, [r0, #12]
10000c26:	2103      	movs	r1, #3
10000c28:	6047      	str	r7, [r0, #4]
10000c2a:	0028      	movs	r0, r5
10000c2c:	4698      	mov	r8, r3
10000c2e:	f000 ff03 	bl	10001a38 <__wrap_calloc>
10000c32:	2300      	movs	r3, #0
10000c34:	7363      	strb	r3, [r4, #13]
10000c36:	3301      	adds	r3, #1
10000c38:	73a3      	strb	r3, [r4, #14]
10000c3a:	4643      	mov	r3, r8
10000c3c:	21ff      	movs	r1, #255	; 0xff
10000c3e:	73e3      	strb	r3, [r4, #15]
10000c40:	23fe      	movs	r3, #254	; 0xfe
10000c42:	6020      	str	r0, [r4, #0]
10000c44:	60a6      	str	r6, [r4, #8]
10000c46:	4029      	ands	r1, r5
10000c48:	422b      	tst	r3, r5
10000c4a:	d006      	beq.n	10000c5a <ph_create+0x4e>
10000c4c:	1c42      	adds	r2, r0, #1
10000c4e:	3bfd      	subs	r3, #253	; 0xfd
10000c50:	3301      	adds	r3, #1
10000c52:	7013      	strb	r3, [r2, #0]
10000c54:	3203      	adds	r2, #3
10000c56:	428b      	cmp	r3, r1
10000c58:	d3fa      	bcc.n	10000c50 <ph_create+0x44>
10000c5a:	004b      	lsls	r3, r1, #1
10000c5c:	1859      	adds	r1, r3, r1
10000c5e:	2300      	movs	r3, #0
10000c60:	1840      	adds	r0, r0, r1
10000c62:	3803      	subs	r0, #3
10000c64:	7043      	strb	r3, [r0, #1]
10000c66:	0020      	movs	r0, r4
10000c68:	bc04      	pop	{r2}
10000c6a:	4690      	mov	r8, r2
10000c6c:	bdf0      	pop	{r4, r5, r6, r7, pc}
10000c6e:	46c0      	nop			; (mov r8, r8)

10000c70 <ph_merge_two_pass>:
10000c70:	b5f8      	push	{r3, r4, r5, r6, r7, lr}
10000c72:	46ce      	mov	lr, r9
10000c74:	4647      	mov	r7, r8
10000c76:	0006      	movs	r6, r0
10000c78:	000c      	movs	r4, r1
10000c7a:	b580      	push	{r7, lr}
10000c7c:	2900      	cmp	r1, #0
10000c7e:	d007      	beq.n	10000c90 <ph_merge_two_pass+0x20>
10000c80:	004d      	lsls	r5, r1, #1
10000c82:	6803      	ldr	r3, [r0, #0]
10000c84:	186d      	adds	r5, r5, r1
10000c86:	3d03      	subs	r5, #3
10000c88:	195a      	adds	r2, r3, r5
10000c8a:	7857      	ldrb	r7, [r2, #1]
10000c8c:	2f00      	cmp	r7, #0
10000c8e:	d104      	bne.n	10000c9a <ph_merge_two_pass+0x2a>
10000c90:	0020      	movs	r0, r4
10000c92:	bc0c      	pop	{r2, r3}
10000c94:	4690      	mov	r8, r2
10000c96:	4699      	mov	r9, r3
10000c98:	bdf8      	pop	{r3, r4, r5, r6, r7, pc}
10000c9a:	0079      	lsls	r1, r7, #1
10000c9c:	19c9      	adds	r1, r1, r7
10000c9e:	3903      	subs	r1, #3
10000ca0:	4688      	mov	r8, r1
10000ca2:	4443      	add	r3, r8
10000ca4:	7859      	ldrb	r1, [r3, #1]
10000ca6:	4689      	mov	r9, r1
10000ca8:	2100      	movs	r1, #0
10000caa:	7059      	strb	r1, [r3, #1]
10000cac:	7051      	strb	r1, [r2, #1]
10000cae:	6873      	ldr	r3, [r6, #4]
10000cb0:	003a      	movs	r2, r7
10000cb2:	0021      	movs	r1, r4
10000cb4:	6880      	ldr	r0, [r0, #8]
10000cb6:	4798      	blx	r3
10000cb8:	6833      	ldr	r3, [r6, #0]
10000cba:	2800      	cmp	r0, #0
10000cbc:	d014      	beq.n	10000ce8 <ph_merge_two_pass+0x78>
10000cbe:	4642      	mov	r2, r8
10000cc0:	189a      	adds	r2, r3, r2
10000cc2:	7094      	strb	r4, [r2, #2]
10000cc4:	1959      	adds	r1, r3, r5
10000cc6:	5d5b      	ldrb	r3, [r3, r5]
10000cc8:	2b00      	cmp	r3, #0
10000cca:	d000      	beq.n	10000cce <ph_merge_two_pass+0x5e>
10000ccc:	7053      	strb	r3, [r2, #1]
10000cce:	700f      	strb	r7, [r1, #0]
10000cd0:	0027      	movs	r7, r4
10000cd2:	4649      	mov	r1, r9
10000cd4:	0030      	movs	r0, r6
10000cd6:	f7ff ffcb 	bl	10000c70 <ph_merge_two_pass>
10000cda:	0039      	movs	r1, r7
10000cdc:	0002      	movs	r2, r0
10000cde:	0030      	movs	r0, r6
10000ce0:	f7ff ff60 	bl	10000ba4 <ph_merge_nodes>
10000ce4:	0004      	movs	r4, r0
10000ce6:	e7d3      	b.n	10000c90 <ph_merge_two_pass+0x20>
10000ce8:	4642      	mov	r2, r8
10000cea:	4641      	mov	r1, r8
10000cec:	195d      	adds	r5, r3, r5
10000cee:	70af      	strb	r7, [r5, #2]
10000cf0:	189a      	adds	r2, r3, r2
10000cf2:	5c5b      	ldrb	r3, [r3, r1]
10000cf4:	2b00      	cmp	r3, #0
10000cf6:	d000      	beq.n	10000cfa <ph_merge_two_pass+0x8a>
10000cf8:	706b      	strb	r3, [r5, #1]
10000cfa:	7014      	strb	r4, [r2, #0]
10000cfc:	e7e9      	b.n	10000cd2 <ph_merge_two_pass+0x62>
10000cfe:	46c0      	nop			; (mov r8, r8)

10000d00 <ph_remove_any_head>:
10000d00:	b5f0      	push	{r4, r5, r6, r7, lr}
10000d02:	4657      	mov	r7, sl
10000d04:	4645      	mov	r5, r8
10000d06:	46de      	mov	lr, fp
10000d08:	464e      	mov	r6, r9
10000d0a:	b5e0      	push	{r5, r6, r7, lr}
10000d0c:	000d      	movs	r5, r1
10000d0e:	006b      	lsls	r3, r5, #1
10000d10:	6801      	ldr	r1, [r0, #0]
10000d12:	195b      	adds	r3, r3, r5
10000d14:	1edf      	subs	r7, r3, #3
10000d16:	0004      	movs	r4, r0
10000d18:	5dc8      	ldrb	r0, [r1, r7]
10000d1a:	b083      	sub	sp, #12
10000d1c:	9201      	str	r2, [sp, #4]
10000d1e:	19ca      	adds	r2, r1, r7
10000d20:	2800      	cmp	r0, #0
10000d22:	d04c      	beq.n	10000dbe <ph_remove_any_head+0xbe>
10000d24:	0043      	lsls	r3, r0, #1
10000d26:	181b      	adds	r3, r3, r0
10000d28:	3b03      	subs	r3, #3
10000d2a:	18cb      	adds	r3, r1, r3
10000d2c:	785e      	ldrb	r6, [r3, #1]
10000d2e:	46b4      	mov	ip, r6
10000d30:	2e00      	cmp	r6, #0
10000d32:	d116      	bne.n	10000d62 <ph_remove_any_head+0x62>
10000d34:	9e01      	ldr	r6, [sp, #4]
10000d36:	2e00      	cmp	r6, #0
10000d38:	d13e      	bne.n	10000db8 <ph_remove_any_head+0xb8>
10000d3a:	7be6      	ldrb	r6, [r4, #15]
10000d3c:	2e00      	cmp	r6, #0
10000d3e:	d004      	beq.n	10000d4a <ph_remove_any_head+0x4a>
10000d40:	0073      	lsls	r3, r6, #1
10000d42:	199b      	adds	r3, r3, r6
10000d44:	18cb      	adds	r3, r1, r3
10000d46:	3b03      	subs	r3, #3
10000d48:	705d      	strb	r5, [r3, #1]
10000d4a:	73e5      	strb	r5, [r4, #15]
10000d4c:	2800      	cmp	r0, #0
10000d4e:	d12f      	bne.n	10000db0 <ph_remove_any_head+0xb0>
10000d50:	2300      	movs	r3, #0
10000d52:	7053      	strb	r3, [r2, #1]
10000d54:	b003      	add	sp, #12
10000d56:	bc3c      	pop	{r2, r3, r4, r5}
10000d58:	4690      	mov	r8, r2
10000d5a:	4699      	mov	r9, r3
10000d5c:	46a2      	mov	sl, r4
10000d5e:	46ab      	mov	fp, r5
10000d60:	bdf0      	pop	{r4, r5, r6, r7, pc}
10000d62:	0072      	lsls	r2, r6, #1
10000d64:	4462      	add	r2, ip
10000d66:	3a03      	subs	r2, #3
10000d68:	1889      	adds	r1, r1, r2
10000d6a:	784a      	ldrb	r2, [r1, #1]
10000d6c:	4690      	mov	r8, r2
10000d6e:	2200      	movs	r2, #0
10000d70:	704a      	strb	r2, [r1, #1]
10000d72:	4691      	mov	r9, r2
10000d74:	705a      	strb	r2, [r3, #1]
10000d76:	0001      	movs	r1, r0
10000d78:	0032      	movs	r2, r6
10000d7a:	0020      	movs	r0, r4
10000d7c:	f7ff ff12 	bl	10000ba4 <ph_merge_nodes>
10000d80:	4643      	mov	r3, r8
10000d82:	4682      	mov	sl, r0
10000d84:	2b00      	cmp	r3, #0
10000d86:	d007      	beq.n	10000d98 <ph_remove_any_head+0x98>
10000d88:	005b      	lsls	r3, r3, #1
10000d8a:	6821      	ldr	r1, [r4, #0]
10000d8c:	4443      	add	r3, r8
10000d8e:	3b03      	subs	r3, #3
10000d90:	18cb      	adds	r3, r1, r3
10000d92:	785a      	ldrb	r2, [r3, #1]
10000d94:	2a00      	cmp	r2, #0
10000d96:	d116      	bne.n	10000dc6 <ph_remove_any_head+0xc6>
10000d98:	4642      	mov	r2, r8
10000d9a:	4651      	mov	r1, sl
10000d9c:	0020      	movs	r0, r4
10000d9e:	f7ff ff01 	bl	10000ba4 <ph_merge_nodes>
10000da2:	6821      	ldr	r1, [r4, #0]
10000da4:	9b01      	ldr	r3, [sp, #4]
10000da6:	19ca      	adds	r2, r1, r7
10000da8:	2b00      	cmp	r3, #0
10000daa:	d0c6      	beq.n	10000d3a <ph_remove_any_head+0x3a>
10000dac:	2800      	cmp	r0, #0
10000dae:	d0cf      	beq.n	10000d50 <ph_remove_any_head+0x50>
10000db0:	0043      	lsls	r3, r0, #1
10000db2:	181b      	adds	r3, r3, r0
10000db4:	3b03      	subs	r3, #3
10000db6:	18cb      	adds	r3, r1, r3
10000db8:	2100      	movs	r1, #0
10000dba:	7099      	strb	r1, [r3, #2]
10000dbc:	e7c8      	b.n	10000d50 <ph_remove_any_head+0x50>
10000dbe:	9b01      	ldr	r3, [sp, #4]
10000dc0:	2b00      	cmp	r3, #0
10000dc2:	d1c5      	bne.n	10000d50 <ph_remove_any_head+0x50>
10000dc4:	e7b9      	b.n	10000d3a <ph_remove_any_head+0x3a>
10000dc6:	0050      	lsls	r0, r2, #1
10000dc8:	1880      	adds	r0, r0, r2
10000dca:	3803      	subs	r0, #3
10000dcc:	1809      	adds	r1, r1, r0
10000dce:	7848      	ldrb	r0, [r1, #1]
10000dd0:	4683      	mov	fp, r0
10000dd2:	4648      	mov	r0, r9
10000dd4:	7048      	strb	r0, [r1, #1]
10000dd6:	7058      	strb	r0, [r3, #1]
10000dd8:	4641      	mov	r1, r8
10000dda:	0020      	movs	r0, r4
10000ddc:	f7ff fee2 	bl	10000ba4 <ph_merge_nodes>
10000de0:	4659      	mov	r1, fp
10000de2:	4680      	mov	r8, r0
10000de4:	0020      	movs	r0, r4
10000de6:	f7ff ff43 	bl	10000c70 <ph_merge_two_pass>
10000dea:	4641      	mov	r1, r8
10000dec:	0002      	movs	r2, r0
10000dee:	0020      	movs	r0, r4
10000df0:	f7ff fed8 	bl	10000ba4 <ph_merge_nodes>
10000df4:	4680      	mov	r8, r0
10000df6:	e7cf      	b.n	10000d98 <ph_remove_any_head+0x98>

10000df8 <ph_remove_head_reserve>:
10000df8:	b5f0      	push	{r4, r5, r6, r7, lr}
10000dfa:	464e      	mov	r6, r9
10000dfc:	4645      	mov	r5, r8
10000dfe:	46de      	mov	lr, fp
10000e00:	4657      	mov	r7, sl
10000e02:	b5e0      	push	{r5, r6, r7, lr}
10000e04:	7b46      	ldrb	r6, [r0, #13]
10000e06:	0004      	movs	r4, r0
10000e08:	0075      	lsls	r5, r6, #1
10000e0a:	6800      	ldr	r0, [r0, #0]
10000e0c:	19ad      	adds	r5, r5, r6
10000e0e:	3d03      	subs	r5, #3
10000e10:	b083      	sub	sp, #12
10000e12:	9101      	str	r1, [sp, #4]
10000e14:	5d41      	ldrb	r1, [r0, r5]
10000e16:	1942      	adds	r2, r0, r5
10000e18:	2900      	cmp	r1, #0
10000e1a:	d04e      	beq.n	10000eba <ph_remove_head_reserve+0xc2>
10000e1c:	004b      	lsls	r3, r1, #1
10000e1e:	185b      	adds	r3, r3, r1
10000e20:	3b03      	subs	r3, #3
10000e22:	18c3      	adds	r3, r0, r3
10000e24:	785f      	ldrb	r7, [r3, #1]
10000e26:	46bc      	mov	ip, r7
10000e28:	2f00      	cmp	r7, #0
10000e2a:	d118      	bne.n	10000e5e <ph_remove_head_reserve+0x66>
10000e2c:	9d01      	ldr	r5, [sp, #4]
10000e2e:	2d00      	cmp	r5, #0
10000e30:	d140      	bne.n	10000eb4 <ph_remove_head_reserve+0xbc>
10000e32:	7be5      	ldrb	r5, [r4, #15]
10000e34:	2d00      	cmp	r5, #0
10000e36:	d004      	beq.n	10000e42 <ph_remove_head_reserve+0x4a>
10000e38:	006b      	lsls	r3, r5, #1
10000e3a:	195b      	adds	r3, r3, r5
10000e3c:	18c3      	adds	r3, r0, r3
10000e3e:	3b03      	subs	r3, #3
10000e40:	705e      	strb	r6, [r3, #1]
10000e42:	73e6      	strb	r6, [r4, #15]
10000e44:	2900      	cmp	r1, #0
10000e46:	d131      	bne.n	10000eac <ph_remove_head_reserve+0xb4>
10000e48:	2300      	movs	r3, #0
10000e4a:	0030      	movs	r0, r6
10000e4c:	7053      	strb	r3, [r2, #1]
10000e4e:	7361      	strb	r1, [r4, #13]
10000e50:	b003      	add	sp, #12
10000e52:	bc3c      	pop	{r2, r3, r4, r5}
10000e54:	4690      	mov	r8, r2
10000e56:	4699      	mov	r9, r3
10000e58:	46a2      	mov	sl, r4
10000e5a:	46ab      	mov	fp, r5
10000e5c:	bdf0      	pop	{r4, r5, r6, r7, pc}
10000e5e:	007a      	lsls	r2, r7, #1
10000e60:	4462      	add	r2, ip
10000e62:	3a03      	subs	r2, #3
10000e64:	1880      	adds	r0, r0, r2
10000e66:	7842      	ldrb	r2, [r0, #1]
10000e68:	4693      	mov	fp, r2
10000e6a:	2200      	movs	r2, #0
10000e6c:	7042      	strb	r2, [r0, #1]
10000e6e:	4691      	mov	r9, r2
10000e70:	705a      	strb	r2, [r3, #1]
10000e72:	0020      	movs	r0, r4
10000e74:	003a      	movs	r2, r7
10000e76:	f7ff fe95 	bl	10000ba4 <ph_merge_nodes>
10000e7a:	465b      	mov	r3, fp
10000e7c:	4680      	mov	r8, r0
10000e7e:	2b00      	cmp	r3, #0
10000e80:	d007      	beq.n	10000e92 <ph_remove_head_reserve+0x9a>
10000e82:	005b      	lsls	r3, r3, #1
10000e84:	6821      	ldr	r1, [r4, #0]
10000e86:	445b      	add	r3, fp
10000e88:	3b03      	subs	r3, #3
10000e8a:	18cb      	adds	r3, r1, r3
10000e8c:	785a      	ldrb	r2, [r3, #1]
10000e8e:	2a00      	cmp	r2, #0
10000e90:	d117      	bne.n	10000ec2 <ph_remove_head_reserve+0xca>
10000e92:	465a      	mov	r2, fp
10000e94:	4641      	mov	r1, r8
10000e96:	0020      	movs	r0, r4
10000e98:	f7ff fe84 	bl	10000ba4 <ph_merge_nodes>
10000e9c:	9b01      	ldr	r3, [sp, #4]
10000e9e:	0001      	movs	r1, r0
10000ea0:	6820      	ldr	r0, [r4, #0]
10000ea2:	1942      	adds	r2, r0, r5
10000ea4:	2b00      	cmp	r3, #0
10000ea6:	d0c4      	beq.n	10000e32 <ph_remove_head_reserve+0x3a>
10000ea8:	2900      	cmp	r1, #0
10000eaa:	d0cd      	beq.n	10000e48 <ph_remove_head_reserve+0x50>
10000eac:	004b      	lsls	r3, r1, #1
10000eae:	185b      	adds	r3, r3, r1
10000eb0:	3b03      	subs	r3, #3
10000eb2:	18c3      	adds	r3, r0, r3
10000eb4:	2000      	movs	r0, #0
10000eb6:	7098      	strb	r0, [r3, #2]
10000eb8:	e7c6      	b.n	10000e48 <ph_remove_head_reserve+0x50>
10000eba:	9b01      	ldr	r3, [sp, #4]
10000ebc:	2b00      	cmp	r3, #0
10000ebe:	d1c3      	bne.n	10000e48 <ph_remove_head_reserve+0x50>
10000ec0:	e7b7      	b.n	10000e32 <ph_remove_head_reserve+0x3a>
10000ec2:	0050      	lsls	r0, r2, #1
10000ec4:	1880      	adds	r0, r0, r2
10000ec6:	3803      	subs	r0, #3
10000ec8:	1809      	adds	r1, r1, r0
10000eca:	7848      	ldrb	r0, [r1, #1]
10000ecc:	4682      	mov	sl, r0
10000ece:	4648      	mov	r0, r9
10000ed0:	7048      	strb	r0, [r1, #1]
10000ed2:	7058      	strb	r0, [r3, #1]
10000ed4:	4659      	mov	r1, fp
10000ed6:	0020      	movs	r0, r4
10000ed8:	f7ff fe64 	bl	10000ba4 <ph_merge_nodes>
10000edc:	4653      	mov	r3, sl
10000ede:	4683      	mov	fp, r0
10000ee0:	2b00      	cmp	r3, #0
10000ee2:	d007      	beq.n	10000ef4 <ph_remove_head_reserve+0xfc>
10000ee4:	005b      	lsls	r3, r3, #1
10000ee6:	6821      	ldr	r1, [r4, #0]
10000ee8:	4453      	add	r3, sl
10000eea:	3b03      	subs	r3, #3
10000eec:	18cb      	adds	r3, r1, r3
10000eee:	785a      	ldrb	r2, [r3, #1]
10000ef0:	2a00      	cmp	r2, #0
10000ef2:	d106      	bne.n	10000f02 <ph_remove_head_reserve+0x10a>
10000ef4:	4659      	mov	r1, fp
10000ef6:	4652      	mov	r2, sl
10000ef8:	0020      	movs	r0, r4
10000efa:	f7ff fe53 	bl	10000ba4 <ph_merge_nodes>
10000efe:	4683      	mov	fp, r0
10000f00:	e7c7      	b.n	10000e92 <ph_remove_head_reserve+0x9a>
10000f02:	0050      	lsls	r0, r2, #1
10000f04:	1880      	adds	r0, r0, r2
10000f06:	3803      	subs	r0, #3
10000f08:	1809      	adds	r1, r1, r0
10000f0a:	4648      	mov	r0, r9
10000f0c:	784f      	ldrb	r7, [r1, #1]
10000f0e:	7048      	strb	r0, [r1, #1]
10000f10:	7058      	strb	r0, [r3, #1]
10000f12:	4651      	mov	r1, sl
10000f14:	0020      	movs	r0, r4
10000f16:	f7ff fe45 	bl	10000ba4 <ph_merge_nodes>
10000f1a:	0039      	movs	r1, r7
10000f1c:	4681      	mov	r9, r0
10000f1e:	0020      	movs	r0, r4
10000f20:	f7ff fea6 	bl	10000c70 <ph_merge_two_pass>
10000f24:	4649      	mov	r1, r9
10000f26:	0002      	movs	r2, r0
10000f28:	0020      	movs	r0, r4
10000f2a:	f7ff fe3b 	bl	10000ba4 <ph_merge_nodes>
10000f2e:	4682      	mov	sl, r0
10000f30:	e7e0      	b.n	10000ef4 <ph_remove_head_reserve+0xfc>
10000f32:	46c0      	nop			; (mov r8, r8)

10000f34 <ph_delete>:
10000f34:	b570      	push	{r4, r5, r6, lr}
10000f36:	0004      	movs	r4, r0
10000f38:	2900      	cmp	r1, #0
10000f3a:	d02c      	beq.n	10000f96 <ph_delete+0x62>
10000f3c:	7b43      	ldrb	r3, [r0, #13]
10000f3e:	428b      	cmp	r3, r1
10000f40:	d02e      	beq.n	10000fa0 <ph_delete+0x6c>
10000f42:	6805      	ldr	r5, [r0, #0]
10000f44:	0048      	lsls	r0, r1, #1
10000f46:	1840      	adds	r0, r0, r1
10000f48:	3803      	subs	r0, #3
10000f4a:	1828      	adds	r0, r5, r0
10000f4c:	7882      	ldrb	r2, [r0, #2]
10000f4e:	2a00      	cmp	r2, #0
10000f50:	d021      	beq.n	10000f96 <ph_delete+0x62>
10000f52:	0053      	lsls	r3, r2, #1
10000f54:	189b      	adds	r3, r3, r2
10000f56:	3b03      	subs	r3, #3
10000f58:	5cea      	ldrb	r2, [r5, r3]
10000f5a:	18ee      	adds	r6, r5, r3
10000f5c:	428a      	cmp	r2, r1
10000f5e:	d102      	bne.n	10000f66 <ph_delete+0x32>
10000f60:	e01b      	b.n	10000f9a <ph_delete+0x66>
10000f62:	2a00      	cmp	r2, #0
10000f64:	d008      	beq.n	10000f78 <ph_delete+0x44>
10000f66:	0053      	lsls	r3, r2, #1
10000f68:	189b      	adds	r3, r3, r2
10000f6a:	3b03      	subs	r3, #3
10000f6c:	18eb      	adds	r3, r5, r3
10000f6e:	785a      	ldrb	r2, [r3, #1]
10000f70:	428a      	cmp	r2, r1
10000f72:	d1f6      	bne.n	10000f62 <ph_delete+0x2e>
10000f74:	7842      	ldrb	r2, [r0, #1]
10000f76:	705a      	strb	r2, [r3, #1]
10000f78:	2300      	movs	r3, #0
10000f7a:	2200      	movs	r2, #0
10000f7c:	7083      	strb	r3, [r0, #2]
10000f7e:	7043      	strb	r3, [r0, #1]
10000f80:	0020      	movs	r0, r4
10000f82:	f7ff febd 	bl	10000d00 <ph_remove_any_head>
10000f86:	7b61      	ldrb	r1, [r4, #13]
10000f88:	0002      	movs	r2, r0
10000f8a:	0020      	movs	r0, r4
10000f8c:	f7ff fe0a 	bl	10000ba4 <ph_merge_nodes>
10000f90:	7360      	strb	r0, [r4, #13]
10000f92:	2001      	movs	r0, #1
10000f94:	e000      	b.n	10000f98 <ph_delete+0x64>
10000f96:	2000      	movs	r0, #0
10000f98:	bd70      	pop	{r4, r5, r6, pc}
10000f9a:	7843      	ldrb	r3, [r0, #1]
10000f9c:	7033      	strb	r3, [r6, #0]
10000f9e:	e7eb      	b.n	10000f78 <ph_delete+0x44>
10000fa0:	2200      	movs	r2, #0
10000fa2:	0019      	movs	r1, r3
10000fa4:	f7ff feac 	bl	10000d00 <ph_remove_any_head>
10000fa8:	7360      	strb	r0, [r4, #13]
10000faa:	2001      	movs	r0, #1
10000fac:	e7f4      	b.n	10000f98 <ph_delete+0x64>
10000fae:	46c0      	nop			; (mov r8, r8)

10000fb0 <runtime_init>:
10000fb0:	4b2b      	ldr	r3, [pc, #172]	; (10001060 <runtime_init+0xb0>)
10000fb2:	4a2c      	ldr	r2, [pc, #176]	; (10001064 <runtime_init+0xb4>)
10000fb4:	b570      	push	{r4, r5, r6, lr}
10000fb6:	601a      	str	r2, [r3, #0]
10000fb8:	4a2b      	ldr	r2, [pc, #172]	; (10001068 <runtime_init+0xb8>)
10000fba:	4b2c      	ldr	r3, [pc, #176]	; (1000106c <runtime_init+0xbc>)
10000fbc:	492c      	ldr	r1, [pc, #176]	; (10001070 <runtime_init+0xc0>)
10000fbe:	601a      	str	r2, [r3, #0]
10000fc0:	0010      	movs	r0, r2
10000fc2:	688b      	ldr	r3, [r1, #8]
10000fc4:	4398      	bics	r0, r3
10000fc6:	d1fb      	bne.n	10000fc0 <runtime_init+0x10>
10000fc8:	4c2a      	ldr	r4, [pc, #168]	; (10001074 <runtime_init+0xc4>)
10000fca:	4b2b      	ldr	r3, [pc, #172]	; (10001078 <runtime_init+0xc8>)
10000fcc:	429c      	cmp	r4, r3
10000fce:	d209      	bcs.n	10000fe4 <runtime_init+0x34>
10000fd0:	3b01      	subs	r3, #1
10000fd2:	1b1d      	subs	r5, r3, r4
10000fd4:	08ad      	lsrs	r5, r5, #2
10000fd6:	3501      	adds	r5, #1
10000fd8:	00ad      	lsls	r5, r5, #2
10000fda:	192d      	adds	r5, r5, r4
10000fdc:	cc08      	ldmia	r4!, {r3}
10000fde:	4798      	blx	r3
10000fe0:	42ac      	cmp	r4, r5
10000fe2:	d1fb      	bne.n	10000fdc <runtime_init+0x2c>
10000fe4:	f000 f894 	bl	10001110 <clocks_init>
10000fe8:	4a24      	ldr	r2, [pc, #144]	; (1000107c <runtime_init+0xcc>)
10000fea:	4b20      	ldr	r3, [pc, #128]	; (1000106c <runtime_init+0xbc>)
10000fec:	601a      	str	r2, [r3, #0]
10000fee:	4a20      	ldr	r2, [pc, #128]	; (10001070 <runtime_init+0xc0>)
10000ff0:	6893      	ldr	r3, [r2, #8]
10000ff2:	01db      	lsls	r3, r3, #7
10000ff4:	3380      	adds	r3, #128	; 0x80
10000ff6:	d1fb      	bne.n	10000ff0 <runtime_init+0x40>
10000ff8:	2240      	movs	r2, #64	; 0x40
10000ffa:	4b21      	ldr	r3, [pc, #132]	; (10001080 <runtime_init+0xd0>)
10000ffc:	4c21      	ldr	r4, [pc, #132]	; (10001084 <runtime_init+0xd4>)
10000ffe:	679a      	str	r2, [r3, #120]	; 0x78
10001000:	675a      	str	r2, [r3, #116]	; 0x74
10001002:	671a      	str	r2, [r3, #112]	; 0x70
10001004:	66da      	str	r2, [r3, #108]	; 0x6c
10001006:	4b20      	ldr	r3, [pc, #128]	; (10001088 <runtime_init+0xd8>)
10001008:	429c      	cmp	r4, r3
1000100a:	d20b      	bcs.n	10001024 <runtime_init+0x74>
1000100c:	3b01      	subs	r3, #1
1000100e:	1b1d      	subs	r5, r3, r4
10001010:	08ed      	lsrs	r5, r5, #3
10001012:	3501      	adds	r5, #1
10001014:	00ed      	lsls	r5, r5, #3
10001016:	192d      	adds	r5, r5, r4
10001018:	0020      	movs	r0, r4
1000101a:	3408      	adds	r4, #8
1000101c:	f7ff fdb6 	bl	10000b8c <mutex_init>
10001020:	42ac      	cmp	r4, r5
10001022:	d1f9      	bne.n	10001018 <runtime_init+0x68>
10001024:	4c19      	ldr	r4, [pc, #100]	; (1000108c <runtime_init+0xdc>)
10001026:	4d1a      	ldr	r5, [pc, #104]	; (10001090 <runtime_init+0xe0>)
10001028:	68a1      	ldr	r1, [r4, #8]
1000102a:	22c0      	movs	r2, #192	; 0xc0
1000102c:	0028      	movs	r0, r5
1000102e:	f000 fd15 	bl	10001a5c <__wrap___aeabi_memcpy>
10001032:	60a5      	str	r5, [r4, #8]
10001034:	f7ff f9fe 	bl	10000434 <spin_locks_reset>
10001038:	f000 fbaa 	bl	10001790 <irq_init_priorities>
1000103c:	f7ff fc28 	bl	10000890 <alarm_pool_init_default>
10001040:	4c14      	ldr	r4, [pc, #80]	; (10001094 <runtime_init+0xe4>)
10001042:	4b15      	ldr	r3, [pc, #84]	; (10001098 <runtime_init+0xe8>)
10001044:	429c      	cmp	r4, r3
10001046:	d209      	bcs.n	1000105c <runtime_init+0xac>
10001048:	3b01      	subs	r3, #1
1000104a:	1b1d      	subs	r5, r3, r4
1000104c:	08ad      	lsrs	r5, r5, #2
1000104e:	3501      	adds	r5, #1
10001050:	00ad      	lsls	r5, r5, #2
10001052:	192d      	adds	r5, r5, r4
10001054:	cc08      	ldmia	r4!, {r3}
10001056:	4798      	blx	r3
10001058:	42a5      	cmp	r5, r4
1000105a:	d1fb      	bne.n	10001054 <runtime_init+0xa4>
1000105c:	bd70      	pop	{r4, r5, r6, pc}
1000105e:	46c0      	nop			; (mov r8, r8)
10001060:	4000e000 	.word	0x4000e000
10001064:	ffffcdbf 	.word	0xffffcdbf
10001068:	003c7ffe 	.word	0x003c7ffe
1000106c:	4000f000 	.word	0x4000f000
10001070:	4000c000 	.word	0x4000c000
10001074:	20000a58 	.word	0x20000a58
10001078:	20000a68 	.word	0x20000a68
1000107c:	01ffffff 	.word	0x01ffffff
10001080:	4001f000 	.word	0x4001f000
10001084:	20000a50 	.word	0x20000a50
10001088:	20000a58 	.word	0x20000a58
1000108c:	e000ed00 	.word	0xe000ed00
10001090:	20000000 	.word	0x20000000
10001094:	20000a68 	.word	0x20000a68
10001098:	20000a6c 	.word	0x20000a6c

1000109c <_sbrk>:
1000109c:	4a09      	ldr	r2, [pc, #36]	; (100010c4 <_sbrk+0x28>)
1000109e:	0003      	movs	r3, r0
100010a0:	6810      	ldr	r0, [r2, #0]
100010a2:	2800      	cmp	r0, #0
100010a4:	d005      	beq.n	100010b2 <_sbrk+0x16>
100010a6:	4908      	ldr	r1, [pc, #32]	; (100010c8 <_sbrk+0x2c>)
100010a8:	18c3      	adds	r3, r0, r3
100010aa:	428b      	cmp	r3, r1
100010ac:	d207      	bcs.n	100010be <_sbrk+0x22>
100010ae:	6013      	str	r3, [r2, #0]
100010b0:	4770      	bx	lr
100010b2:	4806      	ldr	r0, [pc, #24]	; (100010cc <_sbrk+0x30>)
100010b4:	4904      	ldr	r1, [pc, #16]	; (100010c8 <_sbrk+0x2c>)
100010b6:	18c3      	adds	r3, r0, r3
100010b8:	6010      	str	r0, [r2, #0]
100010ba:	428b      	cmp	r3, r1
100010bc:	d3f7      	bcc.n	100010ae <_sbrk+0x12>
100010be:	2001      	movs	r0, #1
100010c0:	4240      	negs	r0, r0
100010c2:	e7f5      	b.n	100010b0 <_sbrk+0x14>
100010c4:	20000b00 	.word	0x20000b00
100010c8:	20040000 	.word	0x20040000
100010cc:	20000d5c 	.word	0x20000d5c

100010d0 <exit>:
100010d0:	be00      	bkpt	0x0000
100010d2:	e7fd      	b.n	100010d0 <exit>

100010d4 <panic>:
100010d4:	b40f      	push	{r0, r1, r2, r3}
100010d6:	b500      	push	{lr}
100010d8:	4808      	ldr	r0, [pc, #32]	; (100010fc <panic+0x28>)
100010da:	b083      	sub	sp, #12
100010dc:	f000 fd94 	bl	10001c08 <__wrap_puts>
100010e0:	9b04      	ldr	r3, [sp, #16]
100010e2:	2b00      	cmp	r3, #0
100010e4:	d007      	beq.n	100010f6 <panic+0x22>
100010e6:	a905      	add	r1, sp, #20
100010e8:	0018      	movs	r0, r3
100010ea:	9101      	str	r1, [sp, #4]
100010ec:	f000 fb74 	bl	100017d8 <weak_raw_vprintf>
100010f0:	4803      	ldr	r0, [pc, #12]	; (10001100 <panic+0x2c>)
100010f2:	f000 fd89 	bl	10001c08 <__wrap_puts>
100010f6:	be00      	bkpt	0x0000
100010f8:	e7fd      	b.n	100010f6 <panic+0x22>
100010fa:	46c0      	nop			; (mov r8, r8)
100010fc:	100026d4 	.word	0x100026d4
10001100:	100026e4 	.word	0x100026e4

10001104 <hard_assertion_failure>:
10001104:	b510      	push	{r4, lr}
10001106:	4801      	ldr	r0, [pc, #4]	; (1000110c <hard_assertion_failure+0x8>)
10001108:	f7ff ffe4 	bl	100010d4 <panic>
1000110c:	100026e8 	.word	0x100026e8

10001110 <clocks_init>:
10001110:	b530      	push	{r4, r5, lr}
10001112:	200c      	movs	r0, #12
10001114:	b083      	sub	sp, #12
10001116:	f000 f971 	bl	100013fc <watchdog_start_tick>
1000111a:	f7ff f9a5 	bl	10000468 <running_on_fpga>
1000111e:	2800      	cmp	r0, #0
10001120:	d00e      	beq.n	10001140 <clocks_init+0x30>
10001122:	4b9a      	ldr	r3, [pc, #616]	; (1000138c <clocks_init+0x27c>)
10001124:	4a9a      	ldr	r2, [pc, #616]	; (10001390 <clocks_init+0x280>)
10001126:	601a      	str	r2, [r3, #0]
10001128:	605a      	str	r2, [r3, #4]
1000112a:	609a      	str	r2, [r3, #8]
1000112c:	60da      	str	r2, [r3, #12]
1000112e:	611a      	str	r2, [r3, #16]
10001130:	615a      	str	r2, [r3, #20]
10001132:	619a      	str	r2, [r3, #24]
10001134:	61da      	str	r2, [r3, #28]
10001136:	621a      	str	r2, [r3, #32]
10001138:	4a96      	ldr	r2, [pc, #600]	; (10001394 <clocks_init+0x284>)
1000113a:	625a      	str	r2, [r3, #36]	; 0x24
1000113c:	b003      	add	sp, #12
1000113e:	bd30      	pop	{r4, r5, pc}
10001140:	4c95      	ldr	r4, [pc, #596]	; (10001398 <clocks_init+0x288>)
10001142:	67a0      	str	r0, [r4, #120]	; 0x78
10001144:	f000 f962 	bl	1000140c <xosc_init>
10001148:	2201      	movs	r2, #1
1000114a:	4b94      	ldr	r3, [pc, #592]	; (1000139c <clocks_init+0x28c>)
1000114c:	601a      	str	r2, [r3, #0]
1000114e:	6c63      	ldr	r3, [r4, #68]	; 0x44
10001150:	2b01      	cmp	r3, #1
10001152:	d1fc      	bne.n	1000114e <clocks_init+0x3e>
10001154:	2203      	movs	r2, #3
10001156:	4b92      	ldr	r3, [pc, #584]	; (100013a0 <clocks_init+0x290>)
10001158:	601a      	str	r2, [r3, #0]
1000115a:	4a8f      	ldr	r2, [pc, #572]	; (10001398 <clocks_init+0x288>)
1000115c:	6b93      	ldr	r3, [r2, #56]	; 0x38
1000115e:	2b01      	cmp	r3, #1
10001160:	d1fc      	bne.n	1000115c <clocks_init+0x4c>
10001162:	22c0      	movs	r2, #192	; 0xc0
10001164:	4b8f      	ldr	r3, [pc, #572]	; (100013a4 <clocks_init+0x294>)
10001166:	0192      	lsls	r2, r2, #6
10001168:	601a      	str	r2, [r3, #0]
1000116a:	4b8f      	ldr	r3, [pc, #572]	; (100013a8 <clocks_init+0x298>)
1000116c:	498f      	ldr	r1, [pc, #572]	; (100013ac <clocks_init+0x29c>)
1000116e:	601a      	str	r2, [r3, #0]
10001170:	0010      	movs	r0, r2
10001172:	688b      	ldr	r3, [r1, #8]
10001174:	4398      	bics	r0, r3
10001176:	1e03      	subs	r3, r0, #0
10001178:	d1fa      	bne.n	10001170 <clocks_init+0x60>
1000117a:	2402      	movs	r4, #2
1000117c:	2101      	movs	r1, #1
1000117e:	4a8c      	ldr	r2, [pc, #560]	; (100013b0 <clocks_init+0x2a0>)
10001180:	488c      	ldr	r0, [pc, #560]	; (100013b4 <clocks_init+0x2a4>)
10001182:	3306      	adds	r3, #6
10001184:	9400      	str	r4, [sp, #0]
10001186:	f000 f955 	bl	10001434 <pll_init>
1000118a:	2305      	movs	r3, #5
1000118c:	4a8a      	ldr	r2, [pc, #552]	; (100013b8 <clocks_init+0x2a8>)
1000118e:	2101      	movs	r1, #1
10001190:	488a      	ldr	r0, [pc, #552]	; (100013bc <clocks_init+0x2ac>)
10001192:	9400      	str	r4, [sp, #0]
10001194:	f000 f94e 	bl	10001434 <pll_init>
10001198:	4b89      	ldr	r3, [pc, #548]	; (100013c0 <clocks_init+0x2b0>)
1000119a:	685a      	ldr	r2, [r3, #4]
1000119c:	2aff      	cmp	r2, #255	; 0xff
1000119e:	d802      	bhi.n	100011a6 <clocks_init+0x96>
100011a0:	2280      	movs	r2, #128	; 0x80
100011a2:	0052      	lsls	r2, r2, #1
100011a4:	605a      	str	r2, [r3, #4]
100011a6:	2280      	movs	r2, #128	; 0x80
100011a8:	4c78      	ldr	r4, [pc, #480]	; (1000138c <clocks_init+0x27c>)
100011aa:	4b7d      	ldr	r3, [pc, #500]	; (100013a0 <clocks_init+0x290>)
100011ac:	6921      	ldr	r1, [r4, #16]
100011ae:	0112      	lsls	r2, r2, #4
100011b0:	4d83      	ldr	r5, [pc, #524]	; (100013c0 <clocks_init+0x2b0>)
100011b2:	601a      	str	r2, [r3, #0]
100011b4:	2900      	cmp	r1, #0
100011b6:	d005      	beq.n	100011c4 <clocks_init+0xb4>
100011b8:	6960      	ldr	r0, [r4, #20]
100011ba:	f000 fb5b 	bl	10001874 <__wrap___aeabi_uidiv>
100011be:	3001      	adds	r0, #1
100011c0:	3801      	subs	r0, #1
100011c2:	d1fd      	bne.n	100011c0 <clocks_init+0xb0>
100011c4:	21e0      	movs	r1, #224	; 0xe0
100011c6:	4b7e      	ldr	r3, [pc, #504]	; (100013c0 <clocks_init+0x2b0>)
100011c8:	2002      	movs	r0, #2
100011ca:	681a      	ldr	r2, [r3, #0]
100011cc:	4011      	ands	r1, r2
100011ce:	2280      	movs	r2, #128	; 0x80
100011d0:	0152      	lsls	r2, r2, #5
100011d2:	432a      	orrs	r2, r5
100011d4:	6011      	str	r1, [r2, #0]
100011d6:	6819      	ldr	r1, [r3, #0]
100011d8:	4048      	eors	r0, r1
100011da:	2103      	movs	r1, #3
100011dc:	4001      	ands	r1, r0
100011de:	6011      	str	r1, [r2, #0]
100011e0:	2104      	movs	r1, #4
100011e2:	689a      	ldr	r2, [r3, #8]
100011e4:	4211      	tst	r1, r2
100011e6:	d0fc      	beq.n	100011e2 <clocks_init+0xd2>
100011e8:	2280      	movs	r2, #128	; 0x80
100011ea:	2180      	movs	r1, #128	; 0x80
100011ec:	0192      	lsls	r2, r2, #6
100011ee:	432a      	orrs	r2, r5
100011f0:	0109      	lsls	r1, r1, #4
100011f2:	6011      	str	r1, [r2, #0]
100011f4:	2280      	movs	r2, #128	; 0x80
100011f6:	0052      	lsls	r2, r2, #1
100011f8:	605a      	str	r2, [r3, #4]
100011fa:	4b72      	ldr	r3, [pc, #456]	; (100013c4 <clocks_init+0x2b4>)
100011fc:	6123      	str	r3, [r4, #16]
100011fe:	4b72      	ldr	r3, [pc, #456]	; (100013c8 <clocks_init+0x2b8>)
10001200:	6859      	ldr	r1, [r3, #4]
10001202:	29ff      	cmp	r1, #255	; 0xff
10001204:	d800      	bhi.n	10001208 <clocks_init+0xf8>
10001206:	605a      	str	r2, [r3, #4]
10001208:	2203      	movs	r2, #3
1000120a:	486f      	ldr	r0, [pc, #444]	; (100013c8 <clocks_init+0x2b8>)
1000120c:	4b63      	ldr	r3, [pc, #396]	; (1000139c <clocks_init+0x28c>)
1000120e:	2101      	movs	r1, #1
10001210:	601a      	str	r2, [r3, #0]
10001212:	0002      	movs	r2, r0
10001214:	6893      	ldr	r3, [r2, #8]
10001216:	4219      	tst	r1, r3
10001218:	d0fc      	beq.n	10001214 <clocks_init+0x104>
1000121a:	25e0      	movs	r5, #224	; 0xe0
1000121c:	6813      	ldr	r3, [r2, #0]
1000121e:	401d      	ands	r5, r3
10001220:	2380      	movs	r3, #128	; 0x80
10001222:	015b      	lsls	r3, r3, #5
10001224:	4303      	orrs	r3, r0
10001226:	601d      	str	r5, [r3, #0]
10001228:	6812      	ldr	r2, [r2, #0]
1000122a:	404a      	eors	r2, r1
1000122c:	2103      	movs	r1, #3
1000122e:	4011      	ands	r1, r2
10001230:	6019      	str	r1, [r3, #0]
10001232:	2102      	movs	r1, #2
10001234:	4a64      	ldr	r2, [pc, #400]	; (100013c8 <clocks_init+0x2b8>)
10001236:	6893      	ldr	r3, [r2, #8]
10001238:	4219      	tst	r1, r3
1000123a:	d0fc      	beq.n	10001236 <clocks_init+0x126>
1000123c:	2380      	movs	r3, #128	; 0x80
1000123e:	2180      	movs	r1, #128	; 0x80
10001240:	019b      	lsls	r3, r3, #6
10001242:	4303      	orrs	r3, r0
10001244:	0109      	lsls	r1, r1, #4
10001246:	6019      	str	r1, [r3, #0]
10001248:	2180      	movs	r1, #128	; 0x80
1000124a:	4b60      	ldr	r3, [pc, #384]	; (100013cc <clocks_init+0x2bc>)
1000124c:	0049      	lsls	r1, r1, #1
1000124e:	6051      	str	r1, [r2, #4]
10001250:	6163      	str	r3, [r4, #20]
10001252:	4b5f      	ldr	r3, [pc, #380]	; (100013d0 <clocks_init+0x2c0>)
10001254:	685a      	ldr	r2, [r3, #4]
10001256:	2aff      	cmp	r2, #255	; 0xff
10001258:	d800      	bhi.n	1000125c <clocks_init+0x14c>
1000125a:	6059      	str	r1, [r3, #4]
1000125c:	2280      	movs	r2, #128	; 0x80
1000125e:	4b5d      	ldr	r3, [pc, #372]	; (100013d4 <clocks_init+0x2c4>)
10001260:	69e1      	ldr	r1, [r4, #28]
10001262:	0112      	lsls	r2, r2, #4
10001264:	4d5a      	ldr	r5, [pc, #360]	; (100013d0 <clocks_init+0x2c0>)
10001266:	601a      	str	r2, [r3, #0]
10001268:	2900      	cmp	r1, #0
1000126a:	d005      	beq.n	10001278 <clocks_init+0x168>
1000126c:	6960      	ldr	r0, [r4, #20]
1000126e:	f000 fb01 	bl	10001874 <__wrap___aeabi_uidiv>
10001272:	3001      	adds	r0, #1
10001274:	3801      	subs	r0, #1
10001276:	d1fd      	bne.n	10001274 <clocks_init+0x164>
10001278:	22e0      	movs	r2, #224	; 0xe0
1000127a:	4955      	ldr	r1, [pc, #340]	; (100013d0 <clocks_init+0x2c0>)
1000127c:	680b      	ldr	r3, [r1, #0]
1000127e:	401a      	ands	r2, r3
10001280:	2380      	movs	r3, #128	; 0x80
10001282:	015b      	lsls	r3, r3, #5
10001284:	432b      	orrs	r3, r5
10001286:	601a      	str	r2, [r3, #0]
10001288:	2380      	movs	r3, #128	; 0x80
1000128a:	2280      	movs	r2, #128	; 0x80
1000128c:	019b      	lsls	r3, r3, #6
1000128e:	432b      	orrs	r3, r5
10001290:	0112      	lsls	r2, r2, #4
10001292:	601a      	str	r2, [r3, #0]
10001294:	2280      	movs	r2, #128	; 0x80
10001296:	4b3e      	ldr	r3, [pc, #248]	; (10001390 <clocks_init+0x280>)
10001298:	0052      	lsls	r2, r2, #1
1000129a:	604a      	str	r2, [r1, #4]
1000129c:	61e3      	str	r3, [r4, #28]
1000129e:	4b4e      	ldr	r3, [pc, #312]	; (100013d8 <clocks_init+0x2c8>)
100012a0:	6859      	ldr	r1, [r3, #4]
100012a2:	29ff      	cmp	r1, #255	; 0xff
100012a4:	d800      	bhi.n	100012a8 <clocks_init+0x198>
100012a6:	605a      	str	r2, [r3, #4]
100012a8:	2280      	movs	r2, #128	; 0x80
100012aa:	4b4c      	ldr	r3, [pc, #304]	; (100013dc <clocks_init+0x2cc>)
100012ac:	6a21      	ldr	r1, [r4, #32]
100012ae:	0112      	lsls	r2, r2, #4
100012b0:	4d49      	ldr	r5, [pc, #292]	; (100013d8 <clocks_init+0x2c8>)
100012b2:	601a      	str	r2, [r3, #0]
100012b4:	2900      	cmp	r1, #0
100012b6:	d005      	beq.n	100012c4 <clocks_init+0x1b4>
100012b8:	6960      	ldr	r0, [r4, #20]
100012ba:	f000 fadb 	bl	10001874 <__wrap___aeabi_uidiv>
100012be:	3001      	adds	r0, #1
100012c0:	3801      	subs	r0, #1
100012c2:	d1fd      	bne.n	100012c0 <clocks_init+0x1b0>
100012c4:	22e0      	movs	r2, #224	; 0xe0
100012c6:	4944      	ldr	r1, [pc, #272]	; (100013d8 <clocks_init+0x2c8>)
100012c8:	680b      	ldr	r3, [r1, #0]
100012ca:	401a      	ands	r2, r3
100012cc:	2380      	movs	r3, #128	; 0x80
100012ce:	015b      	lsls	r3, r3, #5
100012d0:	432b      	orrs	r3, r5
100012d2:	601a      	str	r2, [r3, #0]
100012d4:	2380      	movs	r3, #128	; 0x80
100012d6:	2280      	movs	r2, #128	; 0x80
100012d8:	019b      	lsls	r3, r3, #6
100012da:	432b      	orrs	r3, r5
100012dc:	0112      	lsls	r2, r2, #4
100012de:	601a      	str	r2, [r3, #0]
100012e0:	2380      	movs	r3, #128	; 0x80
100012e2:	2280      	movs	r2, #128	; 0x80
100012e4:	005b      	lsls	r3, r3, #1
100012e6:	604b      	str	r3, [r1, #4]
100012e8:	4b29      	ldr	r3, [pc, #164]	; (10001390 <clocks_init+0x280>)
100012ea:	02d2      	lsls	r2, r2, #11
100012ec:	6223      	str	r3, [r4, #32]
100012ee:	4b3c      	ldr	r3, [pc, #240]	; (100013e0 <clocks_init+0x2d0>)
100012f0:	6859      	ldr	r1, [r3, #4]
100012f2:	4291      	cmp	r1, r2
100012f4:	d200      	bcs.n	100012f8 <clocks_init+0x1e8>
100012f6:	605a      	str	r2, [r3, #4]
100012f8:	2280      	movs	r2, #128	; 0x80
100012fa:	4b3a      	ldr	r3, [pc, #232]	; (100013e4 <clocks_init+0x2d4>)
100012fc:	6a61      	ldr	r1, [r4, #36]	; 0x24
100012fe:	0112      	lsls	r2, r2, #4
10001300:	4d37      	ldr	r5, [pc, #220]	; (100013e0 <clocks_init+0x2d0>)
10001302:	601a      	str	r2, [r3, #0]
10001304:	2900      	cmp	r1, #0
10001306:	d005      	beq.n	10001314 <clocks_init+0x204>
10001308:	6960      	ldr	r0, [r4, #20]
1000130a:	f000 fab3 	bl	10001874 <__wrap___aeabi_uidiv>
1000130e:	3001      	adds	r0, #1
10001310:	3801      	subs	r0, #1
10001312:	d1fd      	bne.n	10001310 <clocks_init+0x200>
10001314:	22e0      	movs	r2, #224	; 0xe0
10001316:	4932      	ldr	r1, [pc, #200]	; (100013e0 <clocks_init+0x2d0>)
10001318:	680b      	ldr	r3, [r1, #0]
1000131a:	401a      	ands	r2, r3
1000131c:	2380      	movs	r3, #128	; 0x80
1000131e:	015b      	lsls	r3, r3, #5
10001320:	432b      	orrs	r3, r5
10001322:	601a      	str	r2, [r3, #0]
10001324:	2380      	movs	r3, #128	; 0x80
10001326:	2280      	movs	r2, #128	; 0x80
10001328:	019b      	lsls	r3, r3, #6
1000132a:	432b      	orrs	r3, r5
1000132c:	0112      	lsls	r2, r2, #4
1000132e:	601a      	str	r2, [r3, #0]
10001330:	2380      	movs	r3, #128	; 0x80
10001332:	02db      	lsls	r3, r3, #11
10001334:	604b      	str	r3, [r1, #4]
10001336:	4b17      	ldr	r3, [pc, #92]	; (10001394 <clocks_init+0x284>)
10001338:	6263      	str	r3, [r4, #36]	; 0x24
1000133a:	4b2b      	ldr	r3, [pc, #172]	; (100013e8 <clocks_init+0x2d8>)
1000133c:	685a      	ldr	r2, [r3, #4]
1000133e:	2aff      	cmp	r2, #255	; 0xff
10001340:	d802      	bhi.n	10001348 <clocks_init+0x238>
10001342:	2280      	movs	r2, #128	; 0x80
10001344:	0052      	lsls	r2, r2, #1
10001346:	605a      	str	r2, [r3, #4]
10001348:	2280      	movs	r2, #128	; 0x80
1000134a:	4b28      	ldr	r3, [pc, #160]	; (100013ec <clocks_init+0x2dc>)
1000134c:	69a1      	ldr	r1, [r4, #24]
1000134e:	0112      	lsls	r2, r2, #4
10001350:	4d25      	ldr	r5, [pc, #148]	; (100013e8 <clocks_init+0x2d8>)
10001352:	601a      	str	r2, [r3, #0]
10001354:	2900      	cmp	r1, #0
10001356:	d005      	beq.n	10001364 <clocks_init+0x254>
10001358:	6960      	ldr	r0, [r4, #20]
1000135a:	f000 fa8b 	bl	10001874 <__wrap___aeabi_uidiv>
1000135e:	3001      	adds	r0, #1
10001360:	3801      	subs	r0, #1
10001362:	d1fd      	bne.n	10001360 <clocks_init+0x250>
10001364:	22e0      	movs	r2, #224	; 0xe0
10001366:	4920      	ldr	r1, [pc, #128]	; (100013e8 <clocks_init+0x2d8>)
10001368:	680b      	ldr	r3, [r1, #0]
1000136a:	401a      	ands	r2, r3
1000136c:	2380      	movs	r3, #128	; 0x80
1000136e:	015b      	lsls	r3, r3, #5
10001370:	432b      	orrs	r3, r5
10001372:	601a      	str	r2, [r3, #0]
10001374:	2380      	movs	r3, #128	; 0x80
10001376:	2280      	movs	r2, #128	; 0x80
10001378:	019b      	lsls	r3, r3, #6
1000137a:	432b      	orrs	r3, r5
1000137c:	0112      	lsls	r2, r2, #4
1000137e:	601a      	str	r2, [r3, #0]
10001380:	2380      	movs	r3, #128	; 0x80
10001382:	005b      	lsls	r3, r3, #1
10001384:	604b      	str	r3, [r1, #4]
10001386:	4b11      	ldr	r3, [pc, #68]	; (100013cc <clocks_init+0x2bc>)
10001388:	61a3      	str	r3, [r4, #24]
1000138a:	e6d7      	b.n	1000113c <clocks_init+0x2c>
1000138c:	20000acc 	.word	0x20000acc
10001390:	02dc6c00 	.word	0x02dc6c00
10001394:	0000b71b 	.word	0x0000b71b
10001398:	40008000 	.word	0x40008000
1000139c:	4000b03c 	.word	0x4000b03c
100013a0:	4000b030 	.word	0x4000b030
100013a4:	4000e000 	.word	0x4000e000
100013a8:	4000f000 	.word	0x4000f000
100013ac:	4000c000 	.word	0x4000c000
100013b0:	59682f00 	.word	0x59682f00
100013b4:	40028000 	.word	0x40028000
100013b8:	1c9c3800 	.word	0x1c9c3800
100013bc:	4002c000 	.word	0x4002c000
100013c0:	40008030 	.word	0x40008030
100013c4:	00b71b00 	.word	0x00b71b00
100013c8:	4000803c 	.word	0x4000803c
100013cc:	07735940 	.word	0x07735940
100013d0:	40008054 	.word	0x40008054
100013d4:	4000b054 	.word	0x4000b054
100013d8:	40008060 	.word	0x40008060
100013dc:	4000b060 	.word	0x4000b060
100013e0:	4000806c 	.word	0x4000806c
100013e4:	4000b06c 	.word	0x4000b06c
100013e8:	40008048 	.word	0x40008048
100013ec:	4000b048 	.word	0x4000b048

100013f0 <clock_get_hz>:
100013f0:	4b01      	ldr	r3, [pc, #4]	; (100013f8 <clock_get_hz+0x8>)
100013f2:	0080      	lsls	r0, r0, #2
100013f4:	58c0      	ldr	r0, [r0, r3]
100013f6:	4770      	bx	lr
100013f8:	20000acc 	.word	0x20000acc

100013fc <watchdog_start_tick>:
100013fc:	2380      	movs	r3, #128	; 0x80
100013fe:	4a02      	ldr	r2, [pc, #8]	; (10001408 <watchdog_start_tick+0xc>)
10001400:	009b      	lsls	r3, r3, #2
10001402:	4303      	orrs	r3, r0
10001404:	62d3      	str	r3, [r2, #44]	; 0x2c
10001406:	4770      	bx	lr
10001408:	40058000 	.word	0x40058000

1000140c <xosc_init>:
1000140c:	23aa      	movs	r3, #170	; 0xaa
1000140e:	4a06      	ldr	r2, [pc, #24]	; (10001428 <xosc_init+0x1c>)
10001410:	011b      	lsls	r3, r3, #4
10001412:	6013      	str	r3, [r2, #0]
10001414:	232f      	movs	r3, #47	; 0x2f
10001416:	4905      	ldr	r1, [pc, #20]	; (1000142c <xosc_init+0x20>)
10001418:	60d3      	str	r3, [r2, #12]
1000141a:	4b05      	ldr	r3, [pc, #20]	; (10001430 <xosc_init+0x24>)
1000141c:	6019      	str	r1, [r3, #0]
1000141e:	6853      	ldr	r3, [r2, #4]
10001420:	2b00      	cmp	r3, #0
10001422:	dafc      	bge.n	1000141e <xosc_init+0x12>
10001424:	4770      	bx	lr
10001426:	46c0      	nop			; (mov r8, r8)
10001428:	40024000 	.word	0x40024000
1000142c:	00fab000 	.word	0x00fab000
10001430:	40026000 	.word	0x40026000

10001434 <pll_init>:
10001434:	b5f8      	push	{r3, r4, r5, r6, r7, lr}
10001436:	001d      	movs	r5, r3
10001438:	ab06      	add	r3, sp, #24
1000143a:	781e      	ldrb	r6, [r3, #0]
1000143c:	2301      	movs	r3, #1
1000143e:	425b      	negs	r3, r3
10001440:	6043      	str	r3, [r0, #4]
10001442:	2300      	movs	r3, #0
10001444:	0004      	movs	r4, r0
10001446:	6083      	str	r3, [r0, #8]
10001448:	6001      	str	r1, [r0, #0]
1000144a:	200c      	movs	r0, #12
1000144c:	0017      	movs	r7, r2
1000144e:	f000 fa11 	bl	10001874 <__wrap___aeabi_uidiv>
10001452:	0141      	lsls	r1, r0, #5
10001454:	1a09      	subs	r1, r1, r0
10001456:	018b      	lsls	r3, r1, #6
10001458:	1a59      	subs	r1, r3, r1
1000145a:	00c9      	lsls	r1, r1, #3
1000145c:	1809      	adds	r1, r1, r0
1000145e:	0189      	lsls	r1, r1, #6
10001460:	0038      	movs	r0, r7
10001462:	f000 fa07 	bl	10001874 <__wrap___aeabi_uidiv>
10001466:	21c0      	movs	r1, #192	; 0xc0
10001468:	1d23      	adds	r3, r4, #4
1000146a:	0189      	lsls	r1, r1, #6
1000146c:	4319      	orrs	r1, r3
1000146e:	2321      	movs	r3, #33	; 0x21
10001470:	60a0      	str	r0, [r4, #8]
10001472:	600b      	str	r3, [r1, #0]
10001474:	6822      	ldr	r2, [r4, #0]
10001476:	2a00      	cmp	r2, #0
10001478:	dafc      	bge.n	10001474 <pll_init+0x40>
1000147a:	2308      	movs	r3, #8
1000147c:	042d      	lsls	r5, r5, #16
1000147e:	0336      	lsls	r6, r6, #12
10001480:	432e      	orrs	r6, r5
10001482:	60e6      	str	r6, [r4, #12]
10001484:	600b      	str	r3, [r1, #0]
10001486:	bdf8      	pop	{r3, r4, r5, r6, r7, pc}

10001488 <irq_set_enabled>:
10001488:	2301      	movs	r3, #1
1000148a:	4083      	lsls	r3, r0
1000148c:	2900      	cmp	r1, #0
1000148e:	d004      	beq.n	1000149a <irq_set_enabled+0x12>
10001490:	4a03      	ldr	r2, [pc, #12]	; (100014a0 <irq_set_enabled+0x18>)
10001492:	6013      	str	r3, [r2, #0]
10001494:	4a03      	ldr	r2, [pc, #12]	; (100014a4 <irq_set_enabled+0x1c>)
10001496:	6013      	str	r3, [r2, #0]
10001498:	4770      	bx	lr
1000149a:	4a03      	ldr	r2, [pc, #12]	; (100014a8 <irq_set_enabled+0x20>)
1000149c:	6013      	str	r3, [r2, #0]
1000149e:	e7fb      	b.n	10001498 <irq_set_enabled+0x10>
100014a0:	e000e280 	.word	0xe000e280
100014a4:	e000e100 	.word	0xe000e100
100014a8:	e000e180 	.word	0xe000e180

100014ac <irq_get_vtable_handler>:
100014ac:	4b02      	ldr	r3, [pc, #8]	; (100014b8 <irq_get_vtable_handler+0xc>)
100014ae:	3010      	adds	r0, #16
100014b0:	689b      	ldr	r3, [r3, #8]
100014b2:	0080      	lsls	r0, r0, #2
100014b4:	58c0      	ldr	r0, [r0, r3]
100014b6:	4770      	bx	lr
100014b8:	e000ed00 	.word	0xe000ed00

100014bc <irq_set_exclusive_handler>:
100014bc:	b570      	push	{r4, r5, r6, lr}
100014be:	000d      	movs	r5, r1
100014c0:	f3ef 8610 	mrs	r6, PRIMASK
100014c4:	b672      	cpsid	i
100014c6:	4a0f      	ldr	r2, [pc, #60]	; (10001504 <irq_set_exclusive_handler+0x48>)
100014c8:	6813      	ldr	r3, [r2, #0]
100014ca:	2b00      	cmp	r3, #0
100014cc:	d0fc      	beq.n	100014c8 <irq_set_exclusive_handler+0xc>
100014ce:	f3bf 8f5f 	dmb	sy
100014d2:	4b0d      	ldr	r3, [pc, #52]	; (10001508 <irq_set_exclusive_handler+0x4c>)
100014d4:	3010      	adds	r0, #16
100014d6:	689b      	ldr	r3, [r3, #8]
100014d8:	0084      	lsls	r4, r0, #2
100014da:	591b      	ldr	r3, [r3, r4]
100014dc:	4a0b      	ldr	r2, [pc, #44]	; (1000150c <irq_set_exclusive_handler+0x50>)
100014de:	4293      	cmp	r3, r2
100014e0:	d003      	beq.n	100014ea <irq_set_exclusive_handler+0x2e>
100014e2:	429d      	cmp	r5, r3
100014e4:	d001      	beq.n	100014ea <irq_set_exclusive_handler+0x2e>
100014e6:	f7ff fe0d 	bl	10001104 <hard_assertion_failure>
100014ea:	4b07      	ldr	r3, [pc, #28]	; (10001508 <irq_set_exclusive_handler+0x4c>)
100014ec:	689b      	ldr	r3, [r3, #8]
100014ee:	511d      	str	r5, [r3, r4]
100014f0:	f3bf 8f5f 	dmb	sy
100014f4:	f3bf 8f5f 	dmb	sy
100014f8:	2200      	movs	r2, #0
100014fa:	4b02      	ldr	r3, [pc, #8]	; (10001504 <irq_set_exclusive_handler+0x48>)
100014fc:	601a      	str	r2, [r3, #0]
100014fe:	f386 8810 	msr	PRIMASK, r6
10001502:	bd70      	pop	{r4, r5, r6, pc}
10001504:	d0000124 	.word	0xd0000124
10001508:	e000ed00 	.word	0xe000ed00
1000150c:	100002cd 	.word	0x100002cd

10001510 <irq_remove_handler>:
10001510:	b5f0      	push	{r4, r5, r6, r7, lr}
10001512:	46de      	mov	lr, fp
10001514:	4657      	mov	r7, sl
10001516:	464e      	mov	r6, r9
10001518:	4645      	mov	r5, r8
1000151a:	b5e0      	push	{r5, r6, r7, lr}
1000151c:	000c      	movs	r4, r1
1000151e:	b083      	sub	sp, #12
10001520:	f3ef 8a10 	mrs	sl, PRIMASK
10001524:	b672      	cpsid	i
10001526:	4a5f      	ldr	r2, [pc, #380]	; (100016a4 <irq_remove_handler+0x194>)
10001528:	6813      	ldr	r3, [r2, #0]
1000152a:	2b00      	cmp	r3, #0
1000152c:	d0fc      	beq.n	10001528 <irq_remove_handler+0x18>
1000152e:	f3bf 8f5f 	dmb	sy
10001532:	2210      	movs	r2, #16
10001534:	4691      	mov	r9, r2
10001536:	4481      	add	r9, r0
10001538:	464a      	mov	r2, r9
1000153a:	4b5b      	ldr	r3, [pc, #364]	; (100016a8 <irq_remove_handler+0x198>)
1000153c:	0096      	lsls	r6, r2, #2
1000153e:	689b      	ldr	r3, [r3, #8]
10001540:	599d      	ldr	r5, [r3, r6]
10001542:	4b5a      	ldr	r3, [pc, #360]	; (100016ac <irq_remove_handler+0x19c>)
10001544:	4698      	mov	r8, r3
10001546:	429d      	cmp	r5, r3
10001548:	d005      	beq.n	10001556 <irq_remove_handler+0x46>
1000154a:	42a5      	cmp	r5, r4
1000154c:	d016      	beq.n	1000157c <irq_remove_handler+0x6c>
1000154e:	4f58      	ldr	r7, [pc, #352]	; (100016b0 <irq_remove_handler+0x1a0>)
10001550:	1beb      	subs	r3, r5, r7
10001552:	2b2f      	cmp	r3, #47	; 0x2f
10001554:	d914      	bls.n	10001580 <irq_remove_handler+0x70>
10001556:	4b54      	ldr	r3, [pc, #336]	; (100016a8 <irq_remove_handler+0x198>)
10001558:	689b      	ldr	r3, [r3, #8]
1000155a:	519d      	str	r5, [r3, r6]
1000155c:	f3bf 8f5f 	dmb	sy
10001560:	f3bf 8f5f 	dmb	sy
10001564:	2200      	movs	r2, #0
10001566:	4b4f      	ldr	r3, [pc, #316]	; (100016a4 <irq_remove_handler+0x194>)
10001568:	601a      	str	r2, [r3, #0]
1000156a:	f38a 8810 	msr	PRIMASK, sl
1000156e:	b003      	add	sp, #12
10001570:	bc3c      	pop	{r2, r3, r4, r5}
10001572:	4690      	mov	r8, r2
10001574:	4699      	mov	r9, r3
10001576:	46a2      	mov	sl, r4
10001578:	46ab      	mov	fp, r5
1000157a:	bdf0      	pop	{r4, r5, r6, r7, pc}
1000157c:	001d      	movs	r5, r3
1000157e:	e7ea      	b.n	10001556 <irq_remove_handler+0x46>
10001580:	2301      	movs	r3, #1
10001582:	4083      	lsls	r3, r0
10001584:	469b      	mov	fp, r3
10001586:	465a      	mov	r2, fp
10001588:	4b4a      	ldr	r3, [pc, #296]	; (100016b4 <irq_remove_handler+0x1a4>)
1000158a:	681b      	ldr	r3, [r3, #0]
1000158c:	401a      	ands	r2, r3
1000158e:	9200      	str	r2, [sp, #0]
10001590:	465a      	mov	r2, fp
10001592:	4b49      	ldr	r3, [pc, #292]	; (100016b8 <irq_remove_handler+0x1a8>)
10001594:	601a      	str	r2, [r3, #0]
10001596:	f3bf 8f5f 	dmb	sy
1000159a:	f7fe fdfc 	bl	10000196 <__get_current_exception>
1000159e:	9001      	str	r0, [sp, #4]
100015a0:	2800      	cmp	r0, #0
100015a2:	d003      	beq.n	100015ac <irq_remove_handler+0x9c>
100015a4:	4581      	cmp	r9, r0
100015a6:	d001      	beq.n	100015ac <irq_remove_handler+0x9c>
100015a8:	f7ff fdac 	bl	10001104 <hard_assertion_failure>
100015ac:	2301      	movs	r3, #1
100015ae:	0029      	movs	r1, r5
100015b0:	4399      	bics	r1, r3
100015b2:	688b      	ldr	r3, [r1, #8]
100015b4:	42a3      	cmp	r3, r4
100015b6:	d069      	beq.n	1000168c <irq_remove_handler+0x17c>
100015b8:	000a      	movs	r2, r1
100015ba:	e007      	b.n	100015cc <irq_remove_handler+0xbc>
100015bc:	0043      	lsls	r3, r0, #1
100015be:	181b      	adds	r3, r3, r0
100015c0:	009b      	lsls	r3, r3, #2
100015c2:	18fb      	adds	r3, r7, r3
100015c4:	6898      	ldr	r0, [r3, #8]
100015c6:	42a0      	cmp	r0, r4
100015c8:	d011      	beq.n	100015ee <irq_remove_handler+0xde>
100015ca:	001a      	movs	r2, r3
100015cc:	2006      	movs	r0, #6
100015ce:	5610      	ldrsb	r0, [r2, r0]
100015d0:	2800      	cmp	r0, #0
100015d2:	daf3      	bge.n	100015bc <irq_remove_handler+0xac>
100015d4:	9b00      	ldr	r3, [sp, #0]
100015d6:	2b00      	cmp	r3, #0
100015d8:	d005      	beq.n	100015e6 <irq_remove_handler+0xd6>
100015da:	465a      	mov	r2, fp
100015dc:	4b37      	ldr	r3, [pc, #220]	; (100016bc <irq_remove_handler+0x1ac>)
100015de:	601a      	str	r2, [r3, #0]
100015e0:	4b34      	ldr	r3, [pc, #208]	; (100016b4 <irq_remove_handler+0x1a4>)
100015e2:	601a      	str	r2, [r3, #0]
100015e4:	e7b7      	b.n	10001556 <irq_remove_handler+0x46>
100015e6:	465a      	mov	r2, fp
100015e8:	4b33      	ldr	r3, [pc, #204]	; (100016b8 <irq_remove_handler+0x1a8>)
100015ea:	601a      	str	r2, [r3, #0]
100015ec:	e7b3      	b.n	10001556 <irq_remove_handler+0x46>
100015ee:	2006      	movs	r0, #6
100015f0:	5618      	ldrsb	r0, [r3, r0]
100015f2:	2800      	cmp	r0, #0
100015f4:	db22      	blt.n	1000163c <irq_remove_handler+0x12c>
100015f6:	0042      	lsls	r2, r0, #1
100015f8:	1811      	adds	r1, r2, r0
100015fa:	0089      	lsls	r1, r1, #2
100015fc:	187c      	adds	r4, r7, r1
100015fe:	4688      	mov	r8, r1
10001600:	68a1      	ldr	r1, [r4, #8]
10001602:	6099      	str	r1, [r3, #8]
10001604:	79e1      	ldrb	r1, [r4, #7]
10001606:	71d9      	strb	r1, [r3, #7]
10001608:	2106      	movs	r1, #6
1000160a:	5661      	ldrsb	r1, [r4, r1]
1000160c:	7199      	strb	r1, [r3, #6]
1000160e:	79a1      	ldrb	r1, [r4, #6]
10001610:	297f      	cmp	r1, #127	; 0x7f
10001612:	d82b      	bhi.n	1000166c <irq_remove_handler+0x15c>
10001614:	88a4      	ldrh	r4, [r4, #4]
10001616:	1af9      	subs	r1, r7, r3
10001618:	0564      	lsls	r4, r4, #21
1000161a:	1524      	asrs	r4, r4, #20
1000161c:	4444      	add	r4, r8
1000161e:	1909      	adds	r1, r1, r4
10001620:	24e0      	movs	r4, #224	; 0xe0
10001622:	0509      	lsls	r1, r1, #20
10001624:	0d49      	lsrs	r1, r1, #21
10001626:	0224      	lsls	r4, r4, #8
10001628:	4321      	orrs	r1, r4
1000162a:	8099      	strh	r1, [r3, #4]
1000162c:	1812      	adds	r2, r2, r0
1000162e:	4b24      	ldr	r3, [pc, #144]	; (100016c0 <irq_remove_handler+0x1b0>)
10001630:	0092      	lsls	r2, r2, #2
10001632:	18bf      	adds	r7, r7, r2
10001634:	781a      	ldrb	r2, [r3, #0]
10001636:	7018      	strb	r0, [r3, #0]
10001638:	71ba      	strb	r2, [r7, #6]
1000163a:	e7cb      	b.n	100015d4 <irq_remove_handler+0xc4>
1000163c:	9801      	ldr	r0, [sp, #4]
1000163e:	2800      	cmp	r0, #0
10001640:	d117      	bne.n	10001672 <irq_remove_handler+0x162>
10001642:	30ff      	adds	r0, #255	; 0xff
10001644:	7190      	strb	r0, [r2, #6]
10001646:	481f      	ldr	r0, [pc, #124]	; (100016c4 <irq_remove_handler+0x1b4>)
10001648:	8090      	strh	r0, [r2, #4]
1000164a:	4a1d      	ldr	r2, [pc, #116]	; (100016c0 <irq_remove_handler+0x1b0>)
1000164c:	1bcf      	subs	r7, r1, r7
1000164e:	7810      	ldrb	r0, [r2, #0]
10001650:	10bf      	asrs	r7, r7, #2
10001652:	7198      	strb	r0, [r3, #6]
10001654:	00bb      	lsls	r3, r7, #2
10001656:	19db      	adds	r3, r3, r7
10001658:	0119      	lsls	r1, r3, #4
1000165a:	185b      	adds	r3, r3, r1
1000165c:	0219      	lsls	r1, r3, #8
1000165e:	185b      	adds	r3, r3, r1
10001660:	0419      	lsls	r1, r3, #16
10001662:	185b      	adds	r3, r3, r1
10001664:	005b      	lsls	r3, r3, #1
10001666:	19db      	adds	r3, r3, r7
10001668:	7013      	strb	r3, [r2, #0]
1000166a:	e7b3      	b.n	100015d4 <irq_remove_handler+0xc4>
1000166c:	21bd      	movs	r1, #189	; 0xbd
1000166e:	0209      	lsls	r1, r1, #8
10001670:	e7db      	b.n	1000162a <irq_remove_handler+0x11a>
10001672:	4a15      	ldr	r2, [pc, #84]	; (100016c8 <irq_remove_handler+0x1b8>)
10001674:	4915      	ldr	r1, [pc, #84]	; (100016cc <irq_remove_handler+0x1bc>)
10001676:	1ad2      	subs	r2, r2, r3
10001678:	3a08      	subs	r2, #8
1000167a:	0250      	lsls	r0, r2, #9
1000167c:	0d40      	lsrs	r0, r0, #21
1000167e:	4301      	orrs	r1, r0
10001680:	8099      	strh	r1, [r3, #4]
10001682:	4913      	ldr	r1, [pc, #76]	; (100016d0 <irq_remove_handler+0x1c0>)
10001684:	0852      	lsrs	r2, r2, #1
10001686:	430a      	orrs	r2, r1
10001688:	80da      	strh	r2, [r3, #6]
1000168a:	e7a3      	b.n	100015d4 <irq_remove_handler+0xc4>
1000168c:	2006      	movs	r0, #6
1000168e:	5608      	ldrsb	r0, [r1, r0]
10001690:	000b      	movs	r3, r1
10001692:	2800      	cmp	r0, #0
10001694:	daaf      	bge.n	100015f6 <irq_remove_handler+0xe6>
10001696:	9a01      	ldr	r2, [sp, #4]
10001698:	2a00      	cmp	r2, #0
1000169a:	d1ea      	bne.n	10001672 <irq_remove_handler+0x162>
1000169c:	000b      	movs	r3, r1
1000169e:	4645      	mov	r5, r8
100016a0:	e7d3      	b.n	1000164a <irq_remove_handler+0x13a>
100016a2:	46c0      	nop			; (mov r8, r8)
100016a4:	d0000124 	.word	0xd0000124
100016a8:	e000ed00 	.word	0xe000ed00
100016ac:	100002cd 	.word	0x100002cd
100016b0:	2000018c 	.word	0x2000018c
100016b4:	e000e100 	.word	0xe000e100
100016b8:	e000e180 	.word	0xe000e180
100016bc:	e000e280 	.word	0xe000e280
100016c0:	20000b2a 	.word	0x20000b2a
100016c4:	ffffbd00 	.word	0xffffbd00
100016c8:	200001c6 	.word	0x200001c6
100016cc:	fffff000 	.word	0xfffff000
100016d0:	fffff800 	.word	0xfffff800

100016d4 <irq_add_tail_to_free_list>:
100016d4:	b5f8      	push	{r3, r4, r5, r6, r7, lr}
100016d6:	2501      	movs	r5, #1
100016d8:	0004      	movs	r4, r0
100016da:	4305      	orrs	r5, r0
100016dc:	f7fe fd5b 	bl	10000196 <__get_current_exception>
100016e0:	f3ef 8610 	mrs	r6, PRIMASK
100016e4:	b672      	cpsid	i
100016e6:	4a24      	ldr	r2, [pc, #144]	; (10001778 <irq_add_tail_to_free_list+0xa4>)
100016e8:	6813      	ldr	r3, [r2, #0]
100016ea:	2b00      	cmp	r3, #0
100016ec:	d0fc      	beq.n	100016e8 <irq_add_tail_to_free_list+0x14>
100016ee:	f3bf 8f5f 	dmb	sy
100016f2:	4f22      	ldr	r7, [pc, #136]	; (1000177c <irq_add_tail_to_free_list+0xa8>)
100016f4:	0080      	lsls	r0, r0, #2
100016f6:	1be1      	subs	r1, r4, r7
100016f8:	1089      	asrs	r1, r1, #2
100016fa:	008a      	lsls	r2, r1, #2
100016fc:	1852      	adds	r2, r2, r1
100016fe:	0113      	lsls	r3, r2, #4
10001700:	18d2      	adds	r2, r2, r3
10001702:	0213      	lsls	r3, r2, #8
10001704:	18d2      	adds	r2, r2, r3
10001706:	0413      	lsls	r3, r2, #16
10001708:	18d3      	adds	r3, r2, r3
1000170a:	4a1d      	ldr	r2, [pc, #116]	; (10001780 <irq_add_tail_to_free_list+0xac>)
1000170c:	005b      	lsls	r3, r3, #1
1000170e:	185b      	adds	r3, r3, r1
10001710:	6891      	ldr	r1, [r2, #8]
10001712:	5809      	ldr	r1, [r1, r0]
10001714:	42a9      	cmp	r1, r5
10001716:	d01c      	beq.n	10001752 <irq_add_tail_to_free_list+0x7e>
10001718:	2206      	movs	r2, #6
1000171a:	56ba      	ldrsb	r2, [r7, r2]
1000171c:	4293      	cmp	r3, r2
1000171e:	d01c      	beq.n	1000175a <irq_add_tail_to_free_list+0x86>
10001720:	2212      	movs	r2, #18
10001722:	56ba      	ldrsb	r2, [r7, r2]
10001724:	4293      	cmp	r3, r2
10001726:	d022      	beq.n	1000176e <irq_add_tail_to_free_list+0x9a>
10001728:	221e      	movs	r2, #30
1000172a:	56ba      	ldrsb	r2, [r7, r2]
1000172c:	4293      	cmp	r3, r2
1000172e:	d020      	beq.n	10001772 <irq_add_tail_to_free_list+0x9e>
10001730:	222a      	movs	r2, #42	; 0x2a
10001732:	56ba      	ldrsb	r2, [r7, r2]
10001734:	2103      	movs	r1, #3
10001736:	429a      	cmp	r2, r3
10001738:	d010      	beq.n	1000175c <irq_add_tail_to_free_list+0x88>
1000173a:	4a12      	ldr	r2, [pc, #72]	; (10001784 <irq_add_tail_to_free_list+0xb0>)
1000173c:	7811      	ldrb	r1, [r2, #0]
1000173e:	7013      	strb	r3, [r2, #0]
10001740:	71a1      	strb	r1, [r4, #6]
10001742:	f3bf 8f5f 	dmb	sy
10001746:	2200      	movs	r2, #0
10001748:	4b0b      	ldr	r3, [pc, #44]	; (10001778 <irq_add_tail_to_free_list+0xa4>)
1000174a:	601a      	str	r2, [r3, #0]
1000174c:	f386 8810 	msr	PRIMASK, r6
10001750:	bdf8      	pop	{r3, r4, r5, r6, r7, pc}
10001752:	6892      	ldr	r2, [r2, #8]
10001754:	490c      	ldr	r1, [pc, #48]	; (10001788 <irq_add_tail_to_free_list+0xb4>)
10001756:	5011      	str	r1, [r2, r0]
10001758:	e7ef      	b.n	1000173a <irq_add_tail_to_free_list+0x66>
1000175a:	2100      	movs	r1, #0
1000175c:	004a      	lsls	r2, r1, #1
1000175e:	1852      	adds	r2, r2, r1
10001760:	21ff      	movs	r1, #255	; 0xff
10001762:	0092      	lsls	r2, r2, #2
10001764:	18ba      	adds	r2, r7, r2
10001766:	7191      	strb	r1, [r2, #6]
10001768:	4908      	ldr	r1, [pc, #32]	; (1000178c <irq_add_tail_to_free_list+0xb8>)
1000176a:	8091      	strh	r1, [r2, #4]
1000176c:	e7e5      	b.n	1000173a <irq_add_tail_to_free_list+0x66>
1000176e:	2101      	movs	r1, #1
10001770:	e7f4      	b.n	1000175c <irq_add_tail_to_free_list+0x88>
10001772:	2102      	movs	r1, #2
10001774:	e7f2      	b.n	1000175c <irq_add_tail_to_free_list+0x88>
10001776:	46c0      	nop			; (mov r8, r8)
10001778:	d0000124 	.word	0xd0000124
1000177c:	2000018c 	.word	0x2000018c
10001780:	e000ed00 	.word	0xe000ed00
10001784:	20000b2a 	.word	0x20000b2a
10001788:	100002cd 	.word	0x100002cd
1000178c:	ffffbd00 	.word	0xffffbd00

10001790 <irq_init_priorities>:
10001790:	b5f0      	push	{r4, r5, r6, r7, lr}
10001792:	2200      	movs	r2, #0
10001794:	2403      	movs	r4, #3
10001796:	27ff      	movs	r7, #255	; 0xff
10001798:	2680      	movs	r6, #128	; 0x80
1000179a:	0020      	movs	r0, r4
1000179c:	003d      	movs	r5, r7
1000179e:	4b09      	ldr	r3, [pc, #36]	; (100017c4 <irq_init_priorities+0x34>)
100017a0:	0011      	movs	r1, r2
100017a2:	469c      	mov	ip, r3
100017a4:	4010      	ands	r0, r2
100017a6:	00c0      	lsls	r0, r0, #3
100017a8:	4085      	lsls	r5, r0
100017aa:	43a1      	bics	r1, r4
100017ac:	4461      	add	r1, ip
100017ae:	680b      	ldr	r3, [r1, #0]
100017b0:	3201      	adds	r2, #1
100017b2:	43ab      	bics	r3, r5
100017b4:	0035      	movs	r5, r6
100017b6:	4085      	lsls	r5, r0
100017b8:	432b      	orrs	r3, r5
100017ba:	600b      	str	r3, [r1, #0]
100017bc:	2a20      	cmp	r2, #32
100017be:	d1ec      	bne.n	1000179a <irq_init_priorities+0xa>
100017c0:	bdf0      	pop	{r4, r5, r6, r7, pc}
100017c2:	46c0      	nop			; (mov r8, r8)
100017c4:	e000e400 	.word	0xe000e400

100017c8 <_out_char>:
100017c8:	b510      	push	{r4, lr}
100017ca:	2800      	cmp	r0, #0
100017cc:	d100      	bne.n	100017d0 <_out_char+0x8>
100017ce:	bd10      	pop	{r4, pc}
100017d0:	f000 fa0c 	bl	10001bec <__wrap_putchar>
100017d4:	e7fb      	b.n	100017ce <_out_char+0x6>
100017d6:	46c0      	nop			; (mov r8, r8)

100017d8 <weak_raw_vprintf>:
100017d8:	b510      	push	{r4, lr}
100017da:	4a09      	ldr	r2, [pc, #36]	; (10001800 <weak_raw_vprintf+0x28>)
100017dc:	0003      	movs	r3, r0
100017de:	6814      	ldr	r4, [r2, #0]
100017e0:	b084      	sub	sp, #16
100017e2:	2c00      	cmp	r4, #0
100017e4:	d008      	beq.n	100017f8 <weak_raw_vprintf+0x20>
100017e6:	2201      	movs	r2, #1
100017e8:	9100      	str	r1, [sp, #0]
100017ea:	4806      	ldr	r0, [pc, #24]	; (10001804 <weak_raw_vprintf+0x2c>)
100017ec:	4252      	negs	r2, r2
100017ee:	a903      	add	r1, sp, #12
100017f0:	47a0      	blx	r4
100017f2:	2001      	movs	r0, #1
100017f4:	b004      	add	sp, #16
100017f6:	bd10      	pop	{r4, pc}
100017f8:	f000 fa06 	bl	10001c08 <__wrap_puts>
100017fc:	2000      	movs	r0, #0
100017fe:	e7f9      	b.n	100017f4 <weak_raw_vprintf+0x1c>
10001800:	20000b04 	.word	0x20000b04
10001804:	100017c9 	.word	0x100017c9

10001808 <__aeabi_bits_init>:
10001808:	4801      	ldr	r0, [pc, #4]	; (10001810 <__aeabi_bits_init+0x8>)
1000180a:	2104      	movs	r1, #4
1000180c:	4b01      	ldr	r3, [pc, #4]	; (10001814 <__aeabi_bits_init+0xc>)
1000180e:	4718      	bx	r3
10001810:	200001e0 	.word	0x200001e0
10001814:	10001839 	.word	0x10001839

10001818 <rom_func_lookup>:
10001818:	2314      	movs	r3, #20
1000181a:	b510      	push	{r4, lr}
1000181c:	0001      	movs	r1, r0
1000181e:	8818      	ldrh	r0, [r3, #0]
10001820:	3304      	adds	r3, #4
10001822:	881b      	ldrh	r3, [r3, #0]
10001824:	4798      	blx	r3
10001826:	bd10      	pop	{r4, pc}

10001828 <rom_data_lookup>:
10001828:	2316      	movs	r3, #22
1000182a:	b510      	push	{r4, lr}
1000182c:	0001      	movs	r1, r0
1000182e:	8818      	ldrh	r0, [r3, #0]
10001830:	3302      	adds	r3, #2
10001832:	881b      	ldrh	r3, [r3, #0]
10001834:	4798      	blx	r3
10001836:	bd10      	pop	{r4, pc}

10001838 <rom_funcs_lookup>:
10001838:	b5f0      	push	{r4, r5, r6, r7, lr}
1000183a:	46c6      	mov	lr, r8
1000183c:	b500      	push	{lr}
1000183e:	2900      	cmp	r1, #0
10001840:	d016      	beq.n	10001870 <rom_funcs_lookup+0x38>
10001842:	2314      	movs	r3, #20
10001844:	0004      	movs	r4, r0
10001846:	2501      	movs	r5, #1
10001848:	4698      	mov	r8, r3
1000184a:	2718      	movs	r7, #24
1000184c:	0089      	lsls	r1, r1, #2
1000184e:	1846      	adds	r6, r0, r1
10001850:	4643      	mov	r3, r8
10001852:	6821      	ldr	r1, [r4, #0]
10001854:	8818      	ldrh	r0, [r3, #0]
10001856:	883b      	ldrh	r3, [r7, #0]
10001858:	4798      	blx	r3
1000185a:	c401      	stmia	r4!, {r0}
1000185c:	1e43      	subs	r3, r0, #1
1000185e:	4198      	sbcs	r0, r3
10001860:	4240      	negs	r0, r0
10001862:	4005      	ands	r5, r0
10001864:	42a6      	cmp	r6, r4
10001866:	d1f3      	bne.n	10001850 <rom_funcs_lookup+0x18>
10001868:	0028      	movs	r0, r5
1000186a:	bc04      	pop	{r2}
1000186c:	4690      	mov	r8, r2
1000186e:	bdf0      	pop	{r4, r5, r6, r7, pc}
10001870:	2501      	movs	r5, #1
10001872:	e7f9      	b.n	10001868 <rom_funcs_lookup+0x30>

10001874 <__wrap___aeabi_uidiv>:
10001874:	4a13      	ldr	r2, [pc, #76]	; (100018c4 <divmod_u32u32_savestate+0x20>)
10001876:	6f93      	ldr	r3, [r2, #120]	; 0x78
10001878:	089b      	lsrs	r3, r3, #2
1000187a:	d213      	bcs.n	100018a4 <divmod_u32u32_savestate>

1000187c <divmod_u32u32_unsafe>:
1000187c:	6610      	str	r0, [r2, #96]	; 0x60
1000187e:	6651      	str	r1, [r2, #100]	; 0x64
10001880:	2900      	cmp	r1, #0
10001882:	d005      	beq.n	10001890 <divmod_u32u32_unsafe+0x14>
10001884:	e7ff      	b.n	10001886 <divmod_u32u32_unsafe+0xa>
10001886:	e7ff      	b.n	10001888 <divmod_u32u32_unsafe+0xc>
10001888:	e7ff      	b.n	1000188a <divmod_u32u32_unsafe+0xe>
1000188a:	6f51      	ldr	r1, [r2, #116]	; 0x74
1000188c:	6f10      	ldr	r0, [r2, #112]	; 0x70
1000188e:	4770      	bx	lr
10001890:	b504      	push	{r2, lr}
10001892:	2800      	cmp	r0, #0
10001894:	d001      	beq.n	1000189a <divmod_u32u32_unsafe+0x1e>
10001896:	2000      	movs	r0, #0
10001898:	43c0      	mvns	r0, r0
1000189a:	f000 fee1 	bl	10002660 <____aeabi_idiv0_veneer>
1000189e:	2100      	movs	r1, #0
100018a0:	bd04      	pop	{r2, pc}
100018a2:	46c0      	nop			; (mov r8, r8)

100018a4 <divmod_u32u32_savestate>:
100018a4:	6f93      	ldr	r3, [r2, #120]	; 0x78
100018a6:	085b      	lsrs	r3, r3, #1
100018a8:	d3fd      	bcc.n	100018a6 <divmod_u32u32_savestate+0x2>
100018aa:	b5f0      	push	{r4, r5, r6, r7, lr}
100018ac:	6e94      	ldr	r4, [r2, #104]	; 0x68
100018ae:	6ed5      	ldr	r5, [r2, #108]	; 0x6c
100018b0:	6f57      	ldr	r7, [r2, #116]	; 0x74
100018b2:	6f16      	ldr	r6, [r2, #112]	; 0x70
100018b4:	f7ff ffe2 	bl	1000187c <divmod_u32u32_unsafe>
100018b8:	6694      	str	r4, [r2, #104]	; 0x68
100018ba:	66d5      	str	r5, [r2, #108]	; 0x6c
100018bc:	6757      	str	r7, [r2, #116]	; 0x74
100018be:	6716      	str	r6, [r2, #112]	; 0x70
100018c0:	bdf0      	pop	{r4, r5, r6, r7, pc}
100018c2:	0000      	.short	0x0000
100018c4:	d0000000 	.word	0xd0000000

100018c8 <__aeabi_double_init>:
100018c8:	2313      	movs	r3, #19
100018ca:	b570      	push	{r4, r5, r6, lr}
100018cc:	781d      	ldrb	r5, [r3, #0]
100018ce:	2d01      	cmp	r5, #1
100018d0:	d010      	beq.n	100018f4 <__aeabi_double_init+0x2c>
100018d2:	dd0b      	ble.n	100018ec <__aeabi_double_init+0x24>
100018d4:	4824      	ldr	r0, [pc, #144]	; (10001968 <__aeabi_double_init+0xa0>)
100018d6:	f7ff ffa7 	bl	10001828 <rom_data_lookup>
100018da:	4c24      	ldr	r4, [pc, #144]	; (1000196c <__aeabi_double_init+0xa4>)
100018dc:	0001      	movs	r1, r0
100018de:	2280      	movs	r2, #128	; 0x80
100018e0:	0020      	movs	r0, r4
100018e2:	f000 f8bb 	bl	10001a5c <__wrap___aeabi_memcpy>
100018e6:	2d02      	cmp	r5, #2
100018e8:	d001      	beq.n	100018ee <__aeabi_double_init+0x26>
100018ea:	bd70      	pop	{r4, r5, r6, pc}
100018ec:	4c1f      	ldr	r4, [pc, #124]	; (1000196c <__aeabi_double_init+0xa4>)
100018ee:	4a20      	ldr	r2, [pc, #128]	; (10001970 <__aeabi_double_init+0xa8>)
100018f0:	64a2      	str	r2, [r4, #72]	; 0x48
100018f2:	e7fa      	b.n	100018ea <__aeabi_double_init+0x22>
100018f4:	002e      	movs	r6, r5
100018f6:	4c1d      	ldr	r4, [pc, #116]	; (1000196c <__aeabi_double_init+0xa4>)
100018f8:	4a1d      	ldr	r2, [pc, #116]	; (10001970 <__aeabi_double_init+0xa8>)
100018fa:	08a3      	lsrs	r3, r4, #2
100018fc:	425b      	negs	r3, r3
100018fe:	401e      	ands	r6, r3
10001900:	421d      	tst	r5, r3
10001902:	d02f      	beq.n	10001964 <__aeabi_double_init+0x9c>
10001904:	0033      	movs	r3, r6
10001906:	6022      	str	r2, [r4, #0]
10001908:	2020      	movs	r0, #32
1000190a:	00b1      	lsls	r1, r6, #2
1000190c:	1861      	adds	r1, r4, r1
1000190e:	1b80      	subs	r0, r0, r6
10001910:	600a      	str	r2, [r1, #0]
10001912:	604a      	str	r2, [r1, #4]
10001914:	608a      	str	r2, [r1, #8]
10001916:	60ca      	str	r2, [r1, #12]
10001918:	610a      	str	r2, [r1, #16]
1000191a:	614a      	str	r2, [r1, #20]
1000191c:	618a      	str	r2, [r1, #24]
1000191e:	61ca      	str	r2, [r1, #28]
10001920:	620a      	str	r2, [r1, #32]
10001922:	624a      	str	r2, [r1, #36]	; 0x24
10001924:	628a      	str	r2, [r1, #40]	; 0x28
10001926:	62ca      	str	r2, [r1, #44]	; 0x2c
10001928:	630a      	str	r2, [r1, #48]	; 0x30
1000192a:	634a      	str	r2, [r1, #52]	; 0x34
1000192c:	638a      	str	r2, [r1, #56]	; 0x38
1000192e:	63ca      	str	r2, [r1, #60]	; 0x3c
10001930:	640a      	str	r2, [r1, #64]	; 0x40
10001932:	644a      	str	r2, [r1, #68]	; 0x44
10001934:	648a      	str	r2, [r1, #72]	; 0x48
10001936:	64ca      	str	r2, [r1, #76]	; 0x4c
10001938:	650a      	str	r2, [r1, #80]	; 0x50
1000193a:	654a      	str	r2, [r1, #84]	; 0x54
1000193c:	658a      	str	r2, [r1, #88]	; 0x58
1000193e:	65ca      	str	r2, [r1, #92]	; 0x5c
10001940:	660a      	str	r2, [r1, #96]	; 0x60
10001942:	664a      	str	r2, [r1, #100]	; 0x64
10001944:	668a      	str	r2, [r1, #104]	; 0x68
10001946:	66ca      	str	r2, [r1, #108]	; 0x6c
10001948:	670a      	str	r2, [r1, #112]	; 0x70
1000194a:	674a      	str	r2, [r1, #116]	; 0x74
1000194c:	0840      	lsrs	r0, r0, #1
1000194e:	2810      	cmp	r0, #16
10001950:	d103      	bne.n	1000195a <__aeabi_double_init+0x92>
10001952:	678a      	str	r2, [r1, #120]	; 0x78
10001954:	67ca      	str	r2, [r1, #124]	; 0x7c
10001956:	64a2      	str	r2, [r4, #72]	; 0x48
10001958:	e7c7      	b.n	100018ea <__aeabi_double_init+0x22>
1000195a:	331e      	adds	r3, #30
1000195c:	009b      	lsls	r3, r3, #2
1000195e:	50e2      	str	r2, [r4, r3]
10001960:	64a2      	str	r2, [r4, #72]	; 0x48
10001962:	e7c2      	b.n	100018ea <__aeabi_double_init+0x22>
10001964:	2300      	movs	r3, #0
10001966:	e7cf      	b.n	10001908 <__aeabi_double_init+0x40>
10001968:	00004453 	.word	0x00004453
1000196c:	20000b30 	.word	0x20000b30
10001970:	10001975 	.word	0x10001975

10001974 <double_table_shim_on_use_helper>:
10001974:	b507      	push	{r0, r1, r2, lr}
10001976:	4660      	mov	r0, ip
10001978:	8801      	ldrh	r1, [r0, #0]
1000197a:	0a0a      	lsrs	r2, r1, #8
1000197c:	3002      	adds	r0, #2
1000197e:	2adf      	cmp	r2, #223	; 0xdf
10001980:	d1fa      	bne.n	10001978 <double_table_shim_on_use_helper+0x4>
10001982:	b2c9      	uxtb	r1, r1
10001984:	0882      	lsrs	r2, r0, #2
10001986:	d304      	bcc.n	10001992 <double_table_shim_on_use_helper+0x1e>
10001988:	8802      	ldrh	r2, [r0, #0]
1000198a:	8840      	ldrh	r0, [r0, #2]
1000198c:	0400      	lsls	r0, r0, #16
1000198e:	4310      	orrs	r0, r2
10001990:	e000      	b.n	10001994 <double_table_shim_on_use_helper+0x20>
10001992:	6800      	ldr	r0, [r0, #0]
10001994:	4a01      	ldr	r2, [pc, #4]	; (1000199c <double_table_shim_on_use_helper+0x28>)
10001996:	5050      	str	r0, [r2, r1]
10001998:	9003      	str	r0, [sp, #12]
1000199a:	bd07      	pop	{r0, r1, r2, pc}
1000199c:	20000b30 	.word	0x20000b30

100019a0 <__aeabi_float_init>:
100019a0:	2313      	movs	r3, #19
100019a2:	b510      	push	{r4, lr}
100019a4:	4812      	ldr	r0, [pc, #72]	; (100019f0 <__aeabi_float_init+0x50>)
100019a6:	781c      	ldrb	r4, [r3, #0]
100019a8:	f7ff ff3e 	bl	10001828 <rom_data_lookup>
100019ac:	0001      	movs	r1, r0
100019ae:	2c01      	cmp	r4, #1
100019b0:	d00a      	beq.n	100019c8 <__aeabi_float_init+0x28>
100019b2:	dd03      	ble.n	100019bc <__aeabi_float_init+0x1c>
100019b4:	2280      	movs	r2, #128	; 0x80
100019b6:	480f      	ldr	r0, [pc, #60]	; (100019f4 <__aeabi_float_init+0x54>)
100019b8:	f000 f850 	bl	10001a5c <__wrap___aeabi_memcpy>
100019bc:	480e      	ldr	r0, [pc, #56]	; (100019f8 <__aeabi_float_init+0x58>)
100019be:	f7ff ff2b 	bl	10001818 <rom_func_lookup>
100019c2:	4b0e      	ldr	r3, [pc, #56]	; (100019fc <__aeabi_float_init+0x5c>)
100019c4:	6018      	str	r0, [r3, #0]
100019c6:	bd10      	pop	{r4, pc}
100019c8:	4c0a      	ldr	r4, [pc, #40]	; (100019f4 <__aeabi_float_init+0x54>)
100019ca:	2254      	movs	r2, #84	; 0x54
100019cc:	0020      	movs	r0, r4
100019ce:	f000 f845 	bl	10001a5c <__wrap___aeabi_memcpy>
100019d2:	4b0b      	ldr	r3, [pc, #44]	; (10001a00 <__aeabi_float_init+0x60>)
100019d4:	6563      	str	r3, [r4, #84]	; 0x54
100019d6:	65a3      	str	r3, [r4, #88]	; 0x58
100019d8:	65e3      	str	r3, [r4, #92]	; 0x5c
100019da:	6623      	str	r3, [r4, #96]	; 0x60
100019dc:	6663      	str	r3, [r4, #100]	; 0x64
100019de:	66a3      	str	r3, [r4, #104]	; 0x68
100019e0:	66e3      	str	r3, [r4, #108]	; 0x6c
100019e2:	6723      	str	r3, [r4, #112]	; 0x70
100019e4:	6763      	str	r3, [r4, #116]	; 0x74
100019e6:	67a3      	str	r3, [r4, #120]	; 0x78
100019e8:	67e3      	str	r3, [r4, #124]	; 0x7c
100019ea:	6223      	str	r3, [r4, #32]
100019ec:	61e3      	str	r3, [r4, #28]
100019ee:	e7e5      	b.n	100019bc <__aeabi_float_init+0x1c>
100019f0:	00004653 	.word	0x00004653
100019f4:	20000c30 	.word	0x20000c30
100019f8:	0000334c 	.word	0x0000334c
100019fc:	20000d30 	.word	0x20000d30
10001a00:	10001a05 	.word	0x10001a05

10001a04 <float_table_shim_on_use_helper>:
10001a04:	b507      	push	{r0, r1, r2, lr}
10001a06:	4660      	mov	r0, ip
10001a08:	8801      	ldrh	r1, [r0, #0]
10001a0a:	0a0a      	lsrs	r2, r1, #8
10001a0c:	3002      	adds	r0, #2
10001a0e:	2adf      	cmp	r2, #223	; 0xdf
10001a10:	d1fa      	bne.n	10001a08 <float_table_shim_on_use_helper+0x4>
10001a12:	b2c9      	uxtb	r1, r1
10001a14:	0882      	lsrs	r2, r0, #2
10001a16:	d304      	bcc.n	10001a22 <float_table_shim_on_use_helper+0x1e>
10001a18:	8802      	ldrh	r2, [r0, #0]
10001a1a:	8840      	ldrh	r0, [r0, #2]
10001a1c:	0400      	lsls	r0, r0, #16
10001a1e:	4310      	orrs	r0, r2
10001a20:	e000      	b.n	10001a24 <float_table_shim_on_use_helper+0x20>
10001a22:	6800      	ldr	r0, [r0, #0]
10001a24:	4a01      	ldr	r2, [pc, #4]	; (10001a2c <float_table_shim_on_use_helper+0x28>)
10001a26:	5050      	str	r0, [r2, r1]
10001a28:	9003      	str	r0, [sp, #12]
10001a2a:	bd07      	pop	{r0, r1, r2, pc}
10001a2c:	20000c30 	.word	0x20000c30

10001a30 <__wrap_malloc>:
10001a30:	b510      	push	{r4, lr}
10001a32:	f000 f9bd 	bl	10001db0 <malloc>
10001a36:	bd10      	pop	{r4, pc}

10001a38 <__wrap_calloc>:
10001a38:	b510      	push	{r4, lr}
10001a3a:	f000 f97f 	bl	10001d3c <calloc>
10001a3e:	bd10      	pop	{r4, pc}

10001a40 <__aeabi_mem_init>:
10001a40:	4801      	ldr	r0, [pc, #4]	; (10001a48 <__aeabi_mem_init+0x8>)
10001a42:	2104      	movs	r1, #4
10001a44:	4b01      	ldr	r3, [pc, #4]	; (10001a4c <__aeabi_mem_init+0xc>)
10001a46:	4718      	bx	r3
10001a48:	200001f0 	.word	0x200001f0
10001a4c:	10001839 	.word	0x10001839

10001a50 <__wrap_memset>:
10001a50:	4b01      	ldr	r3, [pc, #4]	; (10001a58 <__wrap_memset+0x8>)
10001a52:	681b      	ldr	r3, [r3, #0]
10001a54:	4718      	bx	r3
10001a56:	0000      	.short	0x0000
10001a58:	200001f0 	.word	0x200001f0

10001a5c <__wrap___aeabi_memcpy>:
10001a5c:	4b01      	ldr	r3, [pc, #4]	; (10001a64 <__wrap___aeabi_memcpy+0x8>)
10001a5e:	685b      	ldr	r3, [r3, #4]
10001a60:	4718      	bx	r3
10001a62:	0000      	.short	0x0000
10001a64:	200001f0 	.word	0x200001f0

10001a68 <stdio_out_chars_crlf.part.0>:
10001a68:	b5f8      	push	{r3, r4, r5, r6, r7, lr}
10001a6a:	4647      	mov	r7, r8
10001a6c:	46ce      	mov	lr, r9
10001a6e:	000d      	movs	r5, r1
10001a70:	b580      	push	{r7, lr}
10001a72:	0016      	movs	r6, r2
10001a74:	0007      	movs	r7, r0
10001a76:	2a00      	cmp	r2, #0
10001a78:	dd20      	ble.n	10001abc <stdio_out_chars_crlf.part.0+0x54>
10001a7a:	1e4b      	subs	r3, r1, #1
10001a7c:	4698      	mov	r8, r3
10001a7e:	4b1a      	ldr	r3, [pc, #104]	; (10001ae8 <stdio_out_chars_crlf.part.0+0x80>)
10001a80:	2400      	movs	r4, #0
10001a82:	2000      	movs	r0, #0
10001a84:	4699      	mov	r9, r3
10001a86:	2c00      	cmp	r4, #0
10001a88:	d02b      	beq.n	10001ae2 <stdio_out_chars_crlf.part.0+0x7a>
10001a8a:	4643      	mov	r3, r8
10001a8c:	5d1b      	ldrb	r3, [r3, r4]
10001a8e:	3b0d      	subs	r3, #13
10001a90:	425a      	negs	r2, r3
10001a92:	4153      	adcs	r3, r2
10001a94:	b2db      	uxtb	r3, r3
10001a96:	5d2a      	ldrb	r2, [r5, r4]
10001a98:	2a0a      	cmp	r2, #10
10001a9a:	d013      	beq.n	10001ac4 <stdio_out_chars_crlf.part.0+0x5c>
10001a9c:	3401      	adds	r4, #1
10001a9e:	42a6      	cmp	r6, r4
10001aa0:	dcf1      	bgt.n	10001a86 <stdio_out_chars_crlf.part.0+0x1e>
10001aa2:	4286      	cmp	r6, r0
10001aa4:	dd03      	ble.n	10001aae <stdio_out_chars_crlf.part.0+0x46>
10001aa6:	1a31      	subs	r1, r6, r0
10001aa8:	683b      	ldr	r3, [r7, #0]
10001aaa:	1828      	adds	r0, r5, r0
10001aac:	4798      	blx	r3
10001aae:	19ad      	adds	r5, r5, r6
10001ab0:	3d01      	subs	r5, #1
10001ab2:	782b      	ldrb	r3, [r5, #0]
10001ab4:	3b0d      	subs	r3, #13
10001ab6:	425a      	negs	r2, r3
10001ab8:	4153      	adcs	r3, r2
10001aba:	743b      	strb	r3, [r7, #16]
10001abc:	bc0c      	pop	{r2, r3}
10001abe:	4690      	mov	r8, r2
10001ac0:	4699      	mov	r9, r3
10001ac2:	bdf8      	pop	{r3, r4, r5, r6, r7, pc}
10001ac4:	2b00      	cmp	r3, #0
10001ac6:	d1e9      	bne.n	10001a9c <stdio_out_chars_crlf.part.0+0x34>
10001ac8:	42a0      	cmp	r0, r4
10001aca:	da03      	bge.n	10001ad4 <stdio_out_chars_crlf.part.0+0x6c>
10001acc:	1a21      	subs	r1, r4, r0
10001ace:	683b      	ldr	r3, [r7, #0]
10001ad0:	1828      	adds	r0, r5, r0
10001ad2:	4798      	blx	r3
10001ad4:	4648      	mov	r0, r9
10001ad6:	2102      	movs	r1, #2
10001ad8:	683b      	ldr	r3, [r7, #0]
10001ada:	3401      	adds	r4, #1
10001adc:	4798      	blx	r3
10001ade:	0020      	movs	r0, r4
10001ae0:	e7dd      	b.n	10001a9e <stdio_out_chars_crlf.part.0+0x36>
10001ae2:	7c3b      	ldrb	r3, [r7, #16]
10001ae4:	e7d7      	b.n	10001a96 <stdio_out_chars_crlf.part.0+0x2e>
10001ae6:	46c0      	nop			; (mov r8, r8)
10001ae8:	10002798 	.word	0x10002798

10001aec <stdio_put_string>:
10001aec:	b5f0      	push	{r4, r5, r6, r7, lr}
10001aee:	4657      	mov	r7, sl
10001af0:	4645      	mov	r5, r8
10001af2:	46de      	mov	lr, fp
10001af4:	464e      	mov	r6, r9
10001af6:	23d0      	movs	r3, #208	; 0xd0
10001af8:	b5e0      	push	{r5, r6, r7, lr}
10001afa:	061b      	lsls	r3, r3, #24
10001afc:	681c      	ldr	r4, [r3, #0]
10001afe:	4b37      	ldr	r3, [pc, #220]	; (10001bdc <stdio_put_string+0xf0>)
10001b00:	b083      	sub	sp, #12
10001b02:	0007      	movs	r7, r0
10001b04:	000d      	movs	r5, r1
10001b06:	0018      	movs	r0, r3
10001b08:	a901      	add	r1, sp, #4
10001b0a:	4690      	mov	r8, r2
10001b0c:	469a      	mov	sl, r3
10001b0e:	f000 fdaf 	bl	10002670 <__mutex_try_enter_veneer>
10001b12:	4681      	mov	r9, r0
10001b14:	2800      	cmp	r0, #0
10001b16:	d107      	bne.n	10001b28 <stdio_put_string+0x3c>
10001b18:	9b01      	ldr	r3, [sp, #4]
10001b1a:	429c      	cmp	r4, r3
10001b1c:	d004      	beq.n	10001b28 <stdio_put_string+0x3c>
10001b1e:	4650      	mov	r0, sl
10001b20:	f000 fdae 	bl	10002680 <__mutex_enter_blocking_veneer>
10001b24:	2301      	movs	r3, #1
10001b26:	4699      	mov	r9, r3
10001b28:	1c6b      	adds	r3, r5, #1
10001b2a:	d103      	bne.n	10001b34 <stdio_put_string+0x48>
10001b2c:	0038      	movs	r0, r7
10001b2e:	f000 fc2b 	bl	10002388 <strlen>
10001b32:	0005      	movs	r5, r0
10001b34:	4b2a      	ldr	r3, [pc, #168]	; (10001be0 <stdio_put_string+0xf4>)
10001b36:	681c      	ldr	r4, [r3, #0]
10001b38:	2c00      	cmp	r4, #0
10001b3a:	d02f      	beq.n	10001b9c <stdio_put_string+0xb0>
10001b3c:	230a      	movs	r3, #10
10001b3e:	4e29      	ldr	r6, [pc, #164]	; (10001be4 <stdio_put_string+0xf8>)
10001b40:	469b      	mov	fp, r3
10001b42:	e002      	b.n	10001b4a <stdio_put_string+0x5e>
10001b44:	68e4      	ldr	r4, [r4, #12]
10001b46:	2c00      	cmp	r4, #0
10001b48:	d028      	beq.n	10001b9c <stdio_put_string+0xb0>
10001b4a:	6822      	ldr	r2, [r4, #0]
10001b4c:	2a00      	cmp	r2, #0
10001b4e:	d0f9      	beq.n	10001b44 <stdio_put_string+0x58>
10001b50:	6833      	ldr	r3, [r6, #0]
10001b52:	2b00      	cmp	r3, #0
10001b54:	d001      	beq.n	10001b5a <stdio_put_string+0x6e>
10001b56:	42a3      	cmp	r3, r4
10001b58:	d1f4      	bne.n	10001b44 <stdio_put_string+0x58>
10001b5a:	7c63      	ldrb	r3, [r4, #17]
10001b5c:	2b00      	cmp	r3, #0
10001b5e:	d02a      	beq.n	10001bb6 <stdio_put_string+0xca>
10001b60:	002a      	movs	r2, r5
10001b62:	0039      	movs	r1, r7
10001b64:	0020      	movs	r0, r4
10001b66:	f7ff ff7f 	bl	10001a68 <stdio_out_chars_crlf.part.0>
10001b6a:	4643      	mov	r3, r8
10001b6c:	2b00      	cmp	r3, #0
10001b6e:	d0e9      	beq.n	10001b44 <stdio_put_string+0x58>
10001b70:	466b      	mov	r3, sp
10001b72:	465a      	mov	r2, fp
10001b74:	711a      	strb	r2, [r3, #4]
10001b76:	7c63      	ldrb	r3, [r4, #17]
10001b78:	2b00      	cmp	r3, #0
10001b7a:	d020      	beq.n	10001bbe <stdio_put_string+0xd2>
10001b7c:	7c23      	ldrb	r3, [r4, #16]
10001b7e:	2b00      	cmp	r3, #0
10001b80:	d026      	beq.n	10001bd0 <stdio_put_string+0xe4>
10001b82:	2101      	movs	r1, #1
10001b84:	6823      	ldr	r3, [r4, #0]
10001b86:	a801      	add	r0, sp, #4
10001b88:	4798      	blx	r3
10001b8a:	466b      	mov	r3, sp
10001b8c:	791b      	ldrb	r3, [r3, #4]
10001b8e:	3b0d      	subs	r3, #13
10001b90:	425a      	negs	r2, r3
10001b92:	4153      	adcs	r3, r2
10001b94:	7423      	strb	r3, [r4, #16]
10001b96:	68e4      	ldr	r4, [r4, #12]
10001b98:	2c00      	cmp	r4, #0
10001b9a:	d1d6      	bne.n	10001b4a <stdio_put_string+0x5e>
10001b9c:	464b      	mov	r3, r9
10001b9e:	2b00      	cmp	r3, #0
10001ba0:	d112      	bne.n	10001bc8 <stdio_put_string+0xdc>
10001ba2:	1e68      	subs	r0, r5, #1
10001ba4:	4185      	sbcs	r5, r0
10001ba6:	b2e8      	uxtb	r0, r5
10001ba8:	b003      	add	sp, #12
10001baa:	bc3c      	pop	{r2, r3, r4, r5}
10001bac:	4690      	mov	r8, r2
10001bae:	4699      	mov	r9, r3
10001bb0:	46a2      	mov	sl, r4
10001bb2:	46ab      	mov	fp, r5
10001bb4:	bdf0      	pop	{r4, r5, r6, r7, pc}
10001bb6:	0029      	movs	r1, r5
10001bb8:	0038      	movs	r0, r7
10001bba:	4790      	blx	r2
10001bbc:	e7d5      	b.n	10001b6a <stdio_put_string+0x7e>
10001bbe:	2101      	movs	r1, #1
10001bc0:	6823      	ldr	r3, [r4, #0]
10001bc2:	a801      	add	r0, sp, #4
10001bc4:	4798      	blx	r3
10001bc6:	e7bd      	b.n	10001b44 <stdio_put_string+0x58>
10001bc8:	4650      	mov	r0, sl
10001bca:	f000 fd41 	bl	10002650 <__mutex_exit_veneer>
10001bce:	e7e8      	b.n	10001ba2 <stdio_put_string+0xb6>
10001bd0:	2102      	movs	r1, #2
10001bd2:	4805      	ldr	r0, [pc, #20]	; (10001be8 <stdio_put_string+0xfc>)
10001bd4:	6823      	ldr	r3, [r4, #0]
10001bd6:	4798      	blx	r3
10001bd8:	e7d7      	b.n	10001b8a <stdio_put_string+0x9e>
10001bda:	46c0      	nop			; (mov r8, r8)
10001bdc:	20000a50 	.word	0x20000a50
10001be0:	20000af8 	.word	0x20000af8
10001be4:	20000afc 	.word	0x20000afc
10001be8:	10002798 	.word	0x10002798

10001bec <__wrap_putchar>:
10001bec:	b510      	push	{r4, lr}
10001bee:	b082      	sub	sp, #8
10001bf0:	466b      	mov	r3, sp
10001bf2:	0004      	movs	r4, r0
10001bf4:	2200      	movs	r2, #0
10001bf6:	1dd8      	adds	r0, r3, #7
10001bf8:	2101      	movs	r1, #1
10001bfa:	7004      	strb	r4, [r0, #0]
10001bfc:	f7ff ff76 	bl	10001aec <stdio_put_string>
10001c00:	0020      	movs	r0, r4
10001c02:	b002      	add	sp, #8
10001c04:	bd10      	pop	{r4, pc}
10001c06:	46c0      	nop			; (mov r8, r8)

10001c08 <__wrap_puts>:
10001c08:	b570      	push	{r4, r5, r6, lr}
10001c0a:	0004      	movs	r4, r0
10001c0c:	f000 fbbc 	bl	10002388 <strlen>
10001c10:	2201      	movs	r2, #1
10001c12:	0001      	movs	r1, r0
10001c14:	0005      	movs	r5, r0
10001c16:	0020      	movs	r0, r4
10001c18:	f7ff ff68 	bl	10001aec <stdio_put_string>
10001c1c:	4b08      	ldr	r3, [pc, #32]	; (10001c40 <__wrap_puts+0x38>)
10001c1e:	681c      	ldr	r4, [r3, #0]
10001c20:	2c00      	cmp	r4, #0
10001c22:	d006      	beq.n	10001c32 <__wrap_puts+0x2a>
10001c24:	6863      	ldr	r3, [r4, #4]
10001c26:	2b00      	cmp	r3, #0
10001c28:	d005      	beq.n	10001c36 <__wrap_puts+0x2e>
10001c2a:	4798      	blx	r3
10001c2c:	68e4      	ldr	r4, [r4, #12]
10001c2e:	2c00      	cmp	r4, #0
10001c30:	d1f8      	bne.n	10001c24 <__wrap_puts+0x1c>
10001c32:	0028      	movs	r0, r5
10001c34:	bd70      	pop	{r4, r5, r6, pc}
10001c36:	68e4      	ldr	r4, [r4, #12]
10001c38:	2c00      	cmp	r4, #0
10001c3a:	d1f3      	bne.n	10001c24 <__wrap_puts+0x1c>
10001c3c:	e7f9      	b.n	10001c32 <__wrap_puts+0x2a>
10001c3e:	46c0      	nop			; (mov r8, r8)
10001c40:	20000af8 	.word	0x20000af8

10001c44 <stdio_set_driver_enabled>:
10001c44:	4a0d      	ldr	r2, [pc, #52]	; (10001c7c <stdio_set_driver_enabled+0x38>)
10001c46:	6813      	ldr	r3, [r2, #0]
10001c48:	2b00      	cmp	r3, #0
10001c4a:	d013      	beq.n	10001c74 <stdio_set_driver_enabled+0x30>
10001c4c:	4283      	cmp	r3, r0
10001c4e:	d102      	bne.n	10001c56 <stdio_set_driver_enabled+0x12>
10001c50:	e009      	b.n	10001c66 <stdio_set_driver_enabled+0x22>
10001c52:	4298      	cmp	r0, r3
10001c54:	d008      	beq.n	10001c68 <stdio_set_driver_enabled+0x24>
10001c56:	001a      	movs	r2, r3
10001c58:	68db      	ldr	r3, [r3, #12]
10001c5a:	2b00      	cmp	r3, #0
10001c5c:	d1f9      	bne.n	10001c52 <stdio_set_driver_enabled+0xe>
10001c5e:	2900      	cmp	r1, #0
10001c60:	d000      	beq.n	10001c64 <stdio_set_driver_enabled+0x20>
10001c62:	60d0      	str	r0, [r2, #12]
10001c64:	4770      	bx	lr
10001c66:	001a      	movs	r2, r3
10001c68:	2900      	cmp	r1, #0
10001c6a:	d1fb      	bne.n	10001c64 <stdio_set_driver_enabled+0x20>
10001c6c:	68db      	ldr	r3, [r3, #12]
10001c6e:	60d3      	str	r3, [r2, #12]
10001c70:	60c1      	str	r1, [r0, #12]
10001c72:	e7f7      	b.n	10001c64 <stdio_set_driver_enabled+0x20>
10001c74:	2900      	cmp	r1, #0
10001c76:	d0f5      	beq.n	10001c64 <stdio_set_driver_enabled+0x20>
10001c78:	6010      	str	r0, [r2, #0]
10001c7a:	e7f3      	b.n	10001c64 <stdio_set_driver_enabled+0x20>
10001c7c:	20000af8 	.word	0x20000af8

10001c80 <stdio_init_all>:
10001c80:	b510      	push	{r4, lr}
10001c82:	f000 f83b 	bl	10001cfc <stdio_uart_init>
10001c86:	bd10      	pop	{r4, pc}

10001c88 <stdio_uart_out_chars>:
10001c88:	b5f0      	push	{r4, r5, r6, r7, lr}
10001c8a:	2900      	cmp	r1, #0
10001c8c:	d010      	beq.n	10001cb0 <stdio_uart_out_chars+0x28>
10001c8e:	1845      	adds	r5, r0, r1
10001c90:	270d      	movs	r7, #13
10001c92:	2120      	movs	r1, #32
10001c94:	4b09      	ldr	r3, [pc, #36]	; (10001cbc <stdio_uart_out_chars+0x34>)
10001c96:	4a0a      	ldr	r2, [pc, #40]	; (10001cc0 <stdio_uart_out_chars+0x38>)
10001c98:	2600      	movs	r6, #0
10001c9a:	5f9e      	ldrsh	r6, [r3, r6]
10001c9c:	7804      	ldrb	r4, [r0, #0]
10001c9e:	42a6      	cmp	r6, r4
10001ca0:	d007      	beq.n	10001cb2 <stdio_uart_out_chars+0x2a>
10001ca2:	6993      	ldr	r3, [r2, #24]
10001ca4:	4219      	tst	r1, r3
10001ca6:	d1fc      	bne.n	10001ca2 <stdio_uart_out_chars+0x1a>
10001ca8:	3001      	adds	r0, #1
10001caa:	6014      	str	r4, [r2, #0]
10001cac:	42a8      	cmp	r0, r5
10001cae:	d1f5      	bne.n	10001c9c <stdio_uart_out_chars+0x14>
10001cb0:	bdf0      	pop	{r4, r5, r6, r7, pc}
10001cb2:	6993      	ldr	r3, [r2, #24]
10001cb4:	4219      	tst	r1, r3
10001cb6:	d1fc      	bne.n	10001cb2 <stdio_uart_out_chars+0x2a>
10001cb8:	6017      	str	r7, [r2, #0]
10001cba:	e7f2      	b.n	10001ca2 <stdio_uart_out_chars+0x1a>
10001cbc:	20000b2c 	.word	0x20000b2c
10001cc0:	40034000 	.word	0x40034000

10001cc4 <stdio_uart_in_chars>:
10001cc4:	b530      	push	{r4, r5, lr}
10001cc6:	0005      	movs	r5, r0
10001cc8:	2000      	movs	r0, #0
10001cca:	2900      	cmp	r1, #0
10001ccc:	dd10      	ble.n	10001cf0 <stdio_uart_in_chars+0x2c>
10001cce:	2410      	movs	r4, #16
10001cd0:	4a09      	ldr	r2, [pc, #36]	; (10001cf8 <stdio_uart_in_chars+0x34>)
10001cd2:	3d01      	subs	r5, #1
10001cd4:	6993      	ldr	r3, [r2, #24]
10001cd6:	421c      	tst	r4, r3
10001cd8:	d108      	bne.n	10001cec <stdio_uart_in_chars+0x28>
10001cda:	3001      	adds	r0, #1
10001cdc:	6993      	ldr	r3, [r2, #24]
10001cde:	421c      	tst	r4, r3
10001ce0:	d1fc      	bne.n	10001cdc <stdio_uart_in_chars+0x18>
10001ce2:	6813      	ldr	r3, [r2, #0]
10001ce4:	542b      	strb	r3, [r5, r0]
10001ce6:	4281      	cmp	r1, r0
10001ce8:	d1f4      	bne.n	10001cd4 <stdio_uart_in_chars+0x10>
10001cea:	bd30      	pop	{r4, r5, pc}
10001cec:	2800      	cmp	r0, #0
10001cee:	d1fc      	bne.n	10001cea <stdio_uart_in_chars+0x26>
10001cf0:	2003      	movs	r0, #3
10001cf2:	4240      	negs	r0, r0
10001cf4:	e7f9      	b.n	10001cea <stdio_uart_in_chars+0x26>
10001cf6:	46c0      	nop			; (mov r8, r8)
10001cf8:	40034000 	.word	0x40034000

10001cfc <stdio_uart_init>:
10001cfc:	21e1      	movs	r1, #225	; 0xe1
10001cfe:	b510      	push	{r4, lr}
10001d00:	4b0a      	ldr	r3, [pc, #40]	; (10001d2c <stdio_uart_init+0x30>)
10001d02:	0249      	lsls	r1, r1, #9
10001d04:	781b      	ldrb	r3, [r3, #0]
10001d06:	4b0a      	ldr	r3, [pc, #40]	; (10001d30 <stdio_uart_init+0x34>)
10001d08:	480a      	ldr	r0, [pc, #40]	; (10001d34 <stdio_uart_init+0x38>)
10001d0a:	781b      	ldrb	r3, [r3, #0]
10001d0c:	f7fe fbb4 	bl	10000478 <uart_init>
10001d10:	2102      	movs	r1, #2
10001d12:	2000      	movs	r0, #0
10001d14:	f7fe fb46 	bl	100003a4 <gpio_set_function>
10001d18:	2102      	movs	r1, #2
10001d1a:	2001      	movs	r0, #1
10001d1c:	f7fe fb42 	bl	100003a4 <gpio_set_function>
10001d20:	2101      	movs	r1, #1
10001d22:	4805      	ldr	r0, [pc, #20]	; (10001d38 <stdio_uart_init+0x3c>)
10001d24:	f7ff ff8e 	bl	10001c44 <stdio_set_driver_enabled>
10001d28:	bd10      	pop	{r4, pc}
10001d2a:	46c0      	nop			; (mov r8, r8)
10001d2c:	100027f8 	.word	0x100027f8
10001d30:	100027fc 	.word	0x100027fc
10001d34:	40034000 	.word	0x40034000
10001d38:	20000200 	.word	0x20000200

10001d3c <calloc>:
10001d3c:	0003      	movs	r3, r0
10001d3e:	b510      	push	{r4, lr}
10001d40:	000a      	movs	r2, r1
10001d42:	4903      	ldr	r1, [pc, #12]	; (10001d50 <calloc+0x14>)
10001d44:	6808      	ldr	r0, [r1, #0]
10001d46:	0019      	movs	r1, r3
10001d48:	f000 f804 	bl	10001d54 <_calloc_r>
10001d4c:	bd10      	pop	{r4, pc}
10001d4e:	46c0      	nop			; (mov r8, r8)
10001d50:	20000214 	.word	0x20000214

10001d54 <_calloc_r>:
10001d54:	b510      	push	{r4, lr}
10001d56:	4351      	muls	r1, r2
10001d58:	f000 f834 	bl	10001dc4 <_malloc_r>
10001d5c:	1e04      	subs	r4, r0, #0
10001d5e:	d00e      	beq.n	10001d7e <_calloc_r+0x2a>
10001d60:	0003      	movs	r3, r0
10001d62:	3b08      	subs	r3, #8
10001d64:	685a      	ldr	r2, [r3, #4]
10001d66:	2303      	movs	r3, #3
10001d68:	439a      	bics	r2, r3
10001d6a:	3a04      	subs	r2, #4
10001d6c:	2a24      	cmp	r2, #36	; 0x24
10001d6e:	d815      	bhi.n	10001d9c <_calloc_r+0x48>
10001d70:	0003      	movs	r3, r0
10001d72:	2a13      	cmp	r2, #19
10001d74:	d805      	bhi.n	10001d82 <_calloc_r+0x2e>
10001d76:	2200      	movs	r2, #0
10001d78:	601a      	str	r2, [r3, #0]
10001d7a:	605a      	str	r2, [r3, #4]
10001d7c:	609a      	str	r2, [r3, #8]
10001d7e:	0020      	movs	r0, r4
10001d80:	bd10      	pop	{r4, pc}
10001d82:	2100      	movs	r1, #0
10001d84:	3308      	adds	r3, #8
10001d86:	6001      	str	r1, [r0, #0]
10001d88:	6041      	str	r1, [r0, #4]
10001d8a:	2a1b      	cmp	r2, #27
10001d8c:	d9f3      	bls.n	10001d76 <_calloc_r+0x22>
10001d8e:	6081      	str	r1, [r0, #8]
10001d90:	60c1      	str	r1, [r0, #12]
10001d92:	2a24      	cmp	r2, #36	; 0x24
10001d94:	d006      	beq.n	10001da4 <_calloc_r+0x50>
10001d96:	0003      	movs	r3, r0
10001d98:	3310      	adds	r3, #16
10001d9a:	e7ec      	b.n	10001d76 <_calloc_r+0x22>
10001d9c:	2100      	movs	r1, #0
10001d9e:	f7ff fe57 	bl	10001a50 <__wrap_memset>
10001da2:	e7ec      	b.n	10001d7e <_calloc_r+0x2a>
10001da4:	0003      	movs	r3, r0
10001da6:	6101      	str	r1, [r0, #16]
10001da8:	3318      	adds	r3, #24
10001daa:	6141      	str	r1, [r0, #20]
10001dac:	e7e3      	b.n	10001d76 <_calloc_r+0x22>
10001dae:	46c0      	nop			; (mov r8, r8)

10001db0 <malloc>:
10001db0:	b510      	push	{r4, lr}
10001db2:	4b03      	ldr	r3, [pc, #12]	; (10001dc0 <malloc+0x10>)
10001db4:	0001      	movs	r1, r0
10001db6:	6818      	ldr	r0, [r3, #0]
10001db8:	f000 f804 	bl	10001dc4 <_malloc_r>
10001dbc:	bd10      	pop	{r4, pc}
10001dbe:	46c0      	nop			; (mov r8, r8)
10001dc0:	20000214 	.word	0x20000214

10001dc4 <_malloc_r>:
10001dc4:	b5f0      	push	{r4, r5, r6, r7, lr}
10001dc6:	464e      	mov	r6, r9
10001dc8:	4645      	mov	r5, r8
10001dca:	46de      	mov	lr, fp
10001dcc:	4657      	mov	r7, sl
10001dce:	b5e0      	push	{r5, r6, r7, lr}
10001dd0:	000d      	movs	r5, r1
10001dd2:	350b      	adds	r5, #11
10001dd4:	0006      	movs	r6, r0
10001dd6:	b083      	sub	sp, #12
10001dd8:	2d16      	cmp	r5, #22
10001dda:	d822      	bhi.n	10001e22 <_malloc_r+0x5e>
10001ddc:	2910      	cmp	r1, #16
10001dde:	d900      	bls.n	10001de2 <_malloc_r+0x1e>
10001de0:	e0b2      	b.n	10001f48 <_malloc_r+0x184>
10001de2:	f000 faaf 	bl	10002344 <__malloc_lock>
10001de6:	2510      	movs	r5, #16
10001de8:	2002      	movs	r0, #2
10001dea:	2318      	movs	r3, #24
10001dec:	4fcb      	ldr	r7, [pc, #812]	; (1000211c <_malloc_r+0x358>)
10001dee:	18fb      	adds	r3, r7, r3
10001df0:	001a      	movs	r2, r3
10001df2:	685c      	ldr	r4, [r3, #4]
10001df4:	3a08      	subs	r2, #8
10001df6:	4294      	cmp	r4, r2
10001df8:	d100      	bne.n	10001dfc <_malloc_r+0x38>
10001dfa:	e0b5      	b.n	10001f68 <_malloc_r+0x1a4>
10001dfc:	2303      	movs	r3, #3
10001dfe:	6862      	ldr	r2, [r4, #4]
10001e00:	439a      	bics	r2, r3
10001e02:	0013      	movs	r3, r2
10001e04:	68e2      	ldr	r2, [r4, #12]
10001e06:	68a1      	ldr	r1, [r4, #8]
10001e08:	60ca      	str	r2, [r1, #12]
10001e0a:	6091      	str	r1, [r2, #8]
10001e0c:	2201      	movs	r2, #1
10001e0e:	18e3      	adds	r3, r4, r3
10001e10:	6859      	ldr	r1, [r3, #4]
10001e12:	0030      	movs	r0, r6
10001e14:	430a      	orrs	r2, r1
10001e16:	605a      	str	r2, [r3, #4]
10001e18:	f000 fa9c 	bl	10002354 <__malloc_unlock>
10001e1c:	0020      	movs	r0, r4
10001e1e:	3008      	adds	r0, #8
10001e20:	e095      	b.n	10001f4e <_malloc_r+0x18a>
10001e22:	2307      	movs	r3, #7
10001e24:	439d      	bics	r5, r3
10001e26:	d500      	bpl.n	10001e2a <_malloc_r+0x66>
10001e28:	e08e      	b.n	10001f48 <_malloc_r+0x184>
10001e2a:	42a9      	cmp	r1, r5
10001e2c:	d900      	bls.n	10001e30 <_malloc_r+0x6c>
10001e2e:	e08b      	b.n	10001f48 <_malloc_r+0x184>
10001e30:	f000 fa88 	bl	10002344 <__malloc_lock>
10001e34:	23fc      	movs	r3, #252	; 0xfc
10001e36:	005b      	lsls	r3, r3, #1
10001e38:	429d      	cmp	r5, r3
10001e3a:	d200      	bcs.n	10001e3e <_malloc_r+0x7a>
10001e3c:	e1a5      	b.n	1000218a <_malloc_r+0x3c6>
10001e3e:	0a68      	lsrs	r0, r5, #9
10001e40:	d100      	bne.n	10001e44 <_malloc_r+0x80>
10001e42:	e08b      	b.n	10001f5c <_malloc_r+0x198>
10001e44:	2804      	cmp	r0, #4
10001e46:	d900      	bls.n	10001e4a <_malloc_r+0x86>
10001e48:	e178      	b.n	1000213c <_malloc_r+0x378>
10001e4a:	2338      	movs	r3, #56	; 0x38
10001e4c:	4698      	mov	r8, r3
10001e4e:	09a8      	lsrs	r0, r5, #6
10001e50:	4480      	add	r8, r0
10001e52:	3039      	adds	r0, #57	; 0x39
10001e54:	00c1      	lsls	r1, r0, #3
10001e56:	4fb1      	ldr	r7, [pc, #708]	; (1000211c <_malloc_r+0x358>)
10001e58:	1879      	adds	r1, r7, r1
10001e5a:	684c      	ldr	r4, [r1, #4]
10001e5c:	3908      	subs	r1, #8
10001e5e:	42a1      	cmp	r1, r4
10001e60:	d00e      	beq.n	10001e80 <_malloc_r+0xbc>
10001e62:	2303      	movs	r3, #3
10001e64:	469c      	mov	ip, r3
10001e66:	e004      	b.n	10001e72 <_malloc_r+0xae>
10001e68:	2a00      	cmp	r2, #0
10001e6a:	dacb      	bge.n	10001e04 <_malloc_r+0x40>
10001e6c:	68e4      	ldr	r4, [r4, #12]
10001e6e:	42a1      	cmp	r1, r4
10001e70:	d006      	beq.n	10001e80 <_malloc_r+0xbc>
10001e72:	4662      	mov	r2, ip
10001e74:	6863      	ldr	r3, [r4, #4]
10001e76:	4393      	bics	r3, r2
10001e78:	1b5a      	subs	r2, r3, r5
10001e7a:	2a0f      	cmp	r2, #15
10001e7c:	ddf4      	ble.n	10001e68 <_malloc_r+0xa4>
10001e7e:	4640      	mov	r0, r8
10001e80:	003a      	movs	r2, r7
10001e82:	693c      	ldr	r4, [r7, #16]
10001e84:	3208      	adds	r2, #8
10001e86:	4294      	cmp	r4, r2
10001e88:	d100      	bne.n	10001e8c <_malloc_r+0xc8>
10001e8a:	e078      	b.n	10001f7e <_malloc_r+0x1ba>
10001e8c:	2303      	movs	r3, #3
10001e8e:	6861      	ldr	r1, [r4, #4]
10001e90:	4399      	bics	r1, r3
10001e92:	4689      	mov	r9, r1
10001e94:	000b      	movs	r3, r1
10001e96:	1b49      	subs	r1, r1, r5
10001e98:	290f      	cmp	r1, #15
10001e9a:	dd00      	ble.n	10001e9e <_malloc_r+0xda>
10001e9c:	e179      	b.n	10002192 <_malloc_r+0x3ce>
10001e9e:	617a      	str	r2, [r7, #20]
10001ea0:	613a      	str	r2, [r7, #16]
10001ea2:	2900      	cmp	r1, #0
10001ea4:	dab2      	bge.n	10001e0c <_malloc_r+0x48>
10001ea6:	2280      	movs	r2, #128	; 0x80
10001ea8:	0092      	lsls	r2, r2, #2
10001eaa:	4591      	cmp	r9, r2
10001eac:	d300      	bcc.n	10001eb0 <_malloc_r+0xec>
10001eae:	e10e      	b.n	100020ce <_malloc_r+0x30a>
10001eb0:	0959      	lsrs	r1, r3, #5
10001eb2:	08da      	lsrs	r2, r3, #3
10001eb4:	2301      	movs	r3, #1
10001eb6:	408b      	lsls	r3, r1
10001eb8:	00d2      	lsls	r2, r2, #3
10001eba:	6879      	ldr	r1, [r7, #4]
10001ebc:	19d2      	adds	r2, r2, r7
10001ebe:	430b      	orrs	r3, r1
10001ec0:	6891      	ldr	r1, [r2, #8]
10001ec2:	607b      	str	r3, [r7, #4]
10001ec4:	60e2      	str	r2, [r4, #12]
10001ec6:	60a1      	str	r1, [r4, #8]
10001ec8:	6094      	str	r4, [r2, #8]
10001eca:	60cc      	str	r4, [r1, #12]
10001ecc:	2101      	movs	r1, #1
10001ece:	1082      	asrs	r2, r0, #2
10001ed0:	4091      	lsls	r1, r2
10001ed2:	4299      	cmp	r1, r3
10001ed4:	d859      	bhi.n	10001f8a <_malloc_r+0x1c6>
10001ed6:	420b      	tst	r3, r1
10001ed8:	d105      	bne.n	10001ee6 <_malloc_r+0x122>
10001eda:	2203      	movs	r2, #3
10001edc:	4390      	bics	r0, r2
10001ede:	0049      	lsls	r1, r1, #1
10001ee0:	3004      	adds	r0, #4
10001ee2:	420b      	tst	r3, r1
10001ee4:	d0fb      	beq.n	10001ede <_malloc_r+0x11a>
10001ee6:	2303      	movs	r3, #3
10001ee8:	4698      	mov	r8, r3
10001eea:	00c3      	lsls	r3, r0, #3
10001eec:	4699      	mov	r9, r3
10001eee:	44b9      	add	r9, r7
10001ef0:	46cc      	mov	ip, r9
10001ef2:	4682      	mov	sl, r0
10001ef4:	4663      	mov	r3, ip
10001ef6:	68dc      	ldr	r4, [r3, #12]
10001ef8:	45a4      	cmp	ip, r4
10001efa:	d107      	bne.n	10001f0c <_malloc_r+0x148>
10001efc:	e12a      	b.n	10002154 <_malloc_r+0x390>
10001efe:	2a00      	cmp	r2, #0
10001f00:	db00      	blt.n	10001f04 <_malloc_r+0x140>
10001f02:	e133      	b.n	1000216c <_malloc_r+0x3a8>
10001f04:	68e4      	ldr	r4, [r4, #12]
10001f06:	45a4      	cmp	ip, r4
10001f08:	d100      	bne.n	10001f0c <_malloc_r+0x148>
10001f0a:	e123      	b.n	10002154 <_malloc_r+0x390>
10001f0c:	4642      	mov	r2, r8
10001f0e:	6863      	ldr	r3, [r4, #4]
10001f10:	4393      	bics	r3, r2
10001f12:	1b5a      	subs	r2, r3, r5
10001f14:	2a0f      	cmp	r2, #15
10001f16:	ddf2      	ble.n	10001efe <_malloc_r+0x13a>
10001f18:	2001      	movs	r0, #1
10001f1a:	4680      	mov	r8, r0
10001f1c:	1961      	adds	r1, r4, r5
10001f1e:	4305      	orrs	r5, r0
10001f20:	6065      	str	r5, [r4, #4]
10001f22:	68a0      	ldr	r0, [r4, #8]
10001f24:	68e5      	ldr	r5, [r4, #12]
10001f26:	3708      	adds	r7, #8
10001f28:	60c5      	str	r5, [r0, #12]
10001f2a:	60a8      	str	r0, [r5, #8]
10001f2c:	4640      	mov	r0, r8
10001f2e:	4310      	orrs	r0, r2
10001f30:	60f9      	str	r1, [r7, #12]
10001f32:	60b9      	str	r1, [r7, #8]
10001f34:	6048      	str	r0, [r1, #4]
10001f36:	60cf      	str	r7, [r1, #12]
10001f38:	0030      	movs	r0, r6
10001f3a:	608f      	str	r7, [r1, #8]
10001f3c:	50e2      	str	r2, [r4, r3]
10001f3e:	f000 fa09 	bl	10002354 <__malloc_unlock>
10001f42:	0020      	movs	r0, r4
10001f44:	3008      	adds	r0, #8
10001f46:	e002      	b.n	10001f4e <_malloc_r+0x18a>
10001f48:	230c      	movs	r3, #12
10001f4a:	2000      	movs	r0, #0
10001f4c:	6033      	str	r3, [r6, #0]
10001f4e:	b003      	add	sp, #12
10001f50:	bc3c      	pop	{r2, r3, r4, r5}
10001f52:	4690      	mov	r8, r2
10001f54:	4699      	mov	r9, r3
10001f56:	46a2      	mov	sl, r4
10001f58:	46ab      	mov	fp, r5
10001f5a:	bdf0      	pop	{r4, r5, r6, r7, pc}
10001f5c:	2180      	movs	r1, #128	; 0x80
10001f5e:	233f      	movs	r3, #63	; 0x3f
10001f60:	2040      	movs	r0, #64	; 0x40
10001f62:	4698      	mov	r8, r3
10001f64:	0089      	lsls	r1, r1, #2
10001f66:	e776      	b.n	10001e56 <_malloc_r+0x92>
10001f68:	68dc      	ldr	r4, [r3, #12]
10001f6a:	3002      	adds	r0, #2
10001f6c:	42a3      	cmp	r3, r4
10001f6e:	d000      	beq.n	10001f72 <_malloc_r+0x1ae>
10001f70:	e744      	b.n	10001dfc <_malloc_r+0x38>
10001f72:	003a      	movs	r2, r7
10001f74:	693c      	ldr	r4, [r7, #16]
10001f76:	3208      	adds	r2, #8
10001f78:	4294      	cmp	r4, r2
10001f7a:	d000      	beq.n	10001f7e <_malloc_r+0x1ba>
10001f7c:	e786      	b.n	10001e8c <_malloc_r+0xc8>
10001f7e:	2101      	movs	r1, #1
10001f80:	687b      	ldr	r3, [r7, #4]
10001f82:	1082      	asrs	r2, r0, #2
10001f84:	4091      	lsls	r1, r2
10001f86:	4299      	cmp	r1, r3
10001f88:	d9a5      	bls.n	10001ed6 <_malloc_r+0x112>
10001f8a:	2303      	movs	r3, #3
10001f8c:	68bc      	ldr	r4, [r7, #8]
10001f8e:	6862      	ldr	r2, [r4, #4]
10001f90:	439a      	bics	r2, r3
10001f92:	4691      	mov	r9, r2
10001f94:	4295      	cmp	r5, r2
10001f96:	d803      	bhi.n	10001fa0 <_malloc_r+0x1dc>
10001f98:	1b53      	subs	r3, r2, r5
10001f9a:	2b0f      	cmp	r3, #15
10001f9c:	dd00      	ble.n	10001fa0 <_malloc_r+0x1dc>
10001f9e:	e088      	b.n	100020b2 <_malloc_r+0x2ee>
10001fa0:	0023      	movs	r3, r4
10001fa2:	444b      	add	r3, r9
10001fa4:	4a5e      	ldr	r2, [pc, #376]	; (10002120 <_malloc_r+0x35c>)
10001fa6:	9301      	str	r3, [sp, #4]
10001fa8:	4b5e      	ldr	r3, [pc, #376]	; (10002124 <_malloc_r+0x360>)
10001faa:	4693      	mov	fp, r2
10001fac:	681b      	ldr	r3, [r3, #0]
10001fae:	6812      	ldr	r2, [r2, #0]
10001fb0:	18eb      	adds	r3, r5, r3
10001fb2:	3201      	adds	r2, #1
10001fb4:	d100      	bne.n	10001fb8 <_malloc_r+0x1f4>
10001fb6:	e13b      	b.n	10002230 <_malloc_r+0x46c>
10001fb8:	4a5b      	ldr	r2, [pc, #364]	; (10002128 <_malloc_r+0x364>)
10001fba:	4694      	mov	ip, r2
10001fbc:	4463      	add	r3, ip
10001fbe:	0b1b      	lsrs	r3, r3, #12
10001fc0:	031b      	lsls	r3, r3, #12
10001fc2:	9300      	str	r3, [sp, #0]
10001fc4:	0030      	movs	r0, r6
10001fc6:	9900      	ldr	r1, [sp, #0]
10001fc8:	f000 f9cc 	bl	10002364 <_sbrk_r>
10001fcc:	0003      	movs	r3, r0
10001fce:	4680      	mov	r8, r0
10001fd0:	3301      	adds	r3, #1
10001fd2:	d100      	bne.n	10001fd6 <_malloc_r+0x212>
10001fd4:	e0f8      	b.n	100021c8 <_malloc_r+0x404>
10001fd6:	9b01      	ldr	r3, [sp, #4]
10001fd8:	4283      	cmp	r3, r0
10001fda:	d900      	bls.n	10001fde <_malloc_r+0x21a>
10001fdc:	e0f2      	b.n	100021c4 <_malloc_r+0x400>
10001fde:	4b53      	ldr	r3, [pc, #332]	; (1000212c <_malloc_r+0x368>)
10001fe0:	0019      	movs	r1, r3
10001fe2:	469a      	mov	sl, r3
10001fe4:	6809      	ldr	r1, [r1, #0]
10001fe6:	9b00      	ldr	r3, [sp, #0]
10001fe8:	468c      	mov	ip, r1
10001fea:	4651      	mov	r1, sl
10001fec:	4463      	add	r3, ip
10001fee:	600b      	str	r3, [r1, #0]
10001ff0:	9901      	ldr	r1, [sp, #4]
10001ff2:	001a      	movs	r2, r3
10001ff4:	4281      	cmp	r1, r0
10001ff6:	d100      	bne.n	10001ffa <_malloc_r+0x236>
10001ff8:	e150      	b.n	1000229c <_malloc_r+0x4d8>
10001ffa:	465b      	mov	r3, fp
10001ffc:	681b      	ldr	r3, [r3, #0]
10001ffe:	3301      	adds	r3, #1
10002000:	d100      	bne.n	10002004 <_malloc_r+0x240>
10002002:	e155      	b.n	100022b0 <_malloc_r+0x4ec>
10002004:	4643      	mov	r3, r8
10002006:	9901      	ldr	r1, [sp, #4]
10002008:	1a5b      	subs	r3, r3, r1
1000200a:	189a      	adds	r2, r3, r2
1000200c:	4653      	mov	r3, sl
1000200e:	601a      	str	r2, [r3, #0]
10002010:	2307      	movs	r3, #7
10002012:	4642      	mov	r2, r8
10002014:	4641      	mov	r1, r8
10002016:	401a      	ands	r2, r3
10002018:	9201      	str	r2, [sp, #4]
1000201a:	4219      	tst	r1, r3
1000201c:	d100      	bne.n	10002020 <_malloc_r+0x25c>
1000201e:	e111      	b.n	10002244 <_malloc_r+0x480>
10002020:	2308      	movs	r3, #8
10002022:	4698      	mov	r8, r3
10002024:	1a88      	subs	r0, r1, r2
10002026:	4b42      	ldr	r3, [pc, #264]	; (10002130 <_malloc_r+0x36c>)
10002028:	9900      	ldr	r1, [sp, #0]
1000202a:	4480      	add	r8, r0
1000202c:	4441      	add	r1, r8
1000202e:	1a9b      	subs	r3, r3, r2
10002030:	1a5b      	subs	r3, r3, r1
10002032:	051b      	lsls	r3, r3, #20
10002034:	0d1b      	lsrs	r3, r3, #20
10002036:	9100      	str	r1, [sp, #0]
10002038:	0030      	movs	r0, r6
1000203a:	0019      	movs	r1, r3
1000203c:	469b      	mov	fp, r3
1000203e:	f000 f991 	bl	10002364 <_sbrk_r>
10002042:	1c43      	adds	r3, r0, #1
10002044:	d100      	bne.n	10002048 <_malloc_r+0x284>
10002046:	e14f      	b.n	100022e8 <_malloc_r+0x524>
10002048:	4643      	mov	r3, r8
1000204a:	1ac0      	subs	r0, r0, r3
1000204c:	0003      	movs	r3, r0
1000204e:	445b      	add	r3, fp
10002050:	9300      	str	r3, [sp, #0]
10002052:	4653      	mov	r3, sl
10002054:	4652      	mov	r2, sl
10002056:	681b      	ldr	r3, [r3, #0]
10002058:	2101      	movs	r1, #1
1000205a:	445b      	add	r3, fp
1000205c:	6013      	str	r3, [r2, #0]
1000205e:	4642      	mov	r2, r8
10002060:	4640      	mov	r0, r8
10002062:	60ba      	str	r2, [r7, #8]
10002064:	9a00      	ldr	r2, [sp, #0]
10002066:	430a      	orrs	r2, r1
10002068:	6042      	str	r2, [r0, #4]
1000206a:	42bc      	cmp	r4, r7
1000206c:	d100      	bne.n	10002070 <_malloc_r+0x2ac>
1000206e:	e123      	b.n	100022b8 <_malloc_r+0x4f4>
10002070:	464a      	mov	r2, r9
10002072:	2a0f      	cmp	r2, #15
10002074:	d800      	bhi.n	10002078 <_malloc_r+0x2b4>
10002076:	e121      	b.n	100022bc <_malloc_r+0x4f8>
10002078:	2007      	movs	r0, #7
1000207a:	3a0c      	subs	r2, #12
1000207c:	4382      	bics	r2, r0
1000207e:	6860      	ldr	r0, [r4, #4]
10002080:	4001      	ands	r1, r0
10002082:	2005      	movs	r0, #5
10002084:	4311      	orrs	r1, r2
10002086:	6061      	str	r1, [r4, #4]
10002088:	18a1      	adds	r1, r4, r2
1000208a:	6048      	str	r0, [r1, #4]
1000208c:	6088      	str	r0, [r1, #8]
1000208e:	2a0f      	cmp	r2, #15
10002090:	d900      	bls.n	10002094 <_malloc_r+0x2d0>
10002092:	e134      	b.n	100022fe <_malloc_r+0x53a>
10002094:	4642      	mov	r2, r8
10002096:	4644      	mov	r4, r8
10002098:	6852      	ldr	r2, [r2, #4]
1000209a:	4926      	ldr	r1, [pc, #152]	; (10002134 <_malloc_r+0x370>)
1000209c:	6808      	ldr	r0, [r1, #0]
1000209e:	4298      	cmp	r0, r3
100020a0:	d200      	bcs.n	100020a4 <_malloc_r+0x2e0>
100020a2:	600b      	str	r3, [r1, #0]
100020a4:	4924      	ldr	r1, [pc, #144]	; (10002138 <_malloc_r+0x374>)
100020a6:	6808      	ldr	r0, [r1, #0]
100020a8:	4298      	cmp	r0, r3
100020aa:	d300      	bcc.n	100020ae <_malloc_r+0x2ea>
100020ac:	e08e      	b.n	100021cc <_malloc_r+0x408>
100020ae:	600b      	str	r3, [r1, #0]
100020b0:	e08c      	b.n	100021cc <_malloc_r+0x408>
100020b2:	2201      	movs	r2, #1
100020b4:	0029      	movs	r1, r5
100020b6:	4313      	orrs	r3, r2
100020b8:	4311      	orrs	r1, r2
100020ba:	1965      	adds	r5, r4, r5
100020bc:	6061      	str	r1, [r4, #4]
100020be:	0030      	movs	r0, r6
100020c0:	60bd      	str	r5, [r7, #8]
100020c2:	606b      	str	r3, [r5, #4]
100020c4:	f000 f946 	bl	10002354 <__malloc_unlock>
100020c8:	0020      	movs	r0, r4
100020ca:	3008      	adds	r0, #8
100020cc:	e73f      	b.n	10001f4e <_malloc_r+0x18a>
100020ce:	0a5a      	lsrs	r2, r3, #9
100020d0:	2a04      	cmp	r2, #4
100020d2:	d971      	bls.n	100021b8 <_malloc_r+0x3f4>
100020d4:	2a14      	cmp	r2, #20
100020d6:	d900      	bls.n	100020da <_malloc_r+0x316>
100020d8:	e0c4      	b.n	10002264 <_malloc_r+0x4a0>
100020da:	0011      	movs	r1, r2
100020dc:	325c      	adds	r2, #92	; 0x5c
100020de:	315b      	adds	r1, #91	; 0x5b
100020e0:	00d2      	lsls	r2, r2, #3
100020e2:	2308      	movs	r3, #8
100020e4:	425b      	negs	r3, r3
100020e6:	469c      	mov	ip, r3
100020e8:	18ba      	adds	r2, r7, r2
100020ea:	4494      	add	ip, r2
100020ec:	4663      	mov	r3, ip
100020ee:	689a      	ldr	r2, [r3, #8]
100020f0:	2303      	movs	r3, #3
100020f2:	4698      	mov	r8, r3
100020f4:	4594      	cmp	ip, r2
100020f6:	d100      	bne.n	100020fa <_malloc_r+0x336>
100020f8:	e09d      	b.n	10002236 <_malloc_r+0x472>
100020fa:	4643      	mov	r3, r8
100020fc:	6851      	ldr	r1, [r2, #4]
100020fe:	4399      	bics	r1, r3
10002100:	4549      	cmp	r1, r9
10002102:	d902      	bls.n	1000210a <_malloc_r+0x346>
10002104:	6892      	ldr	r2, [r2, #8]
10002106:	4594      	cmp	ip, r2
10002108:	d1f7      	bne.n	100020fa <_malloc_r+0x336>
1000210a:	68d3      	ldr	r3, [r2, #12]
1000210c:	469c      	mov	ip, r3
1000210e:	687b      	ldr	r3, [r7, #4]
10002110:	4661      	mov	r1, ip
10002112:	60a2      	str	r2, [r4, #8]
10002114:	60e1      	str	r1, [r4, #12]
10002116:	608c      	str	r4, [r1, #8]
10002118:	60d4      	str	r4, [r2, #12]
1000211a:	e6d7      	b.n	10001ecc <_malloc_r+0x108>
1000211c:	20000640 	.word	0x20000640
10002120:	20000a48 	.word	0x20000a48
10002124:	20000ab8 	.word	0x20000ab8
10002128:	0000100f 	.word	0x0000100f
1000212c:	20000a88 	.word	0x20000a88
10002130:	00001008 	.word	0x00001008
10002134:	20000ab0 	.word	0x20000ab0
10002138:	20000ab4 	.word	0x20000ab4
1000213c:	2814      	cmp	r0, #20
1000213e:	d952      	bls.n	100021e6 <_malloc_r+0x422>
10002140:	2854      	cmp	r0, #84	; 0x54
10002142:	d900      	bls.n	10002146 <_malloc_r+0x382>
10002144:	e096      	b.n	10002274 <_malloc_r+0x4b0>
10002146:	236e      	movs	r3, #110	; 0x6e
10002148:	4698      	mov	r8, r3
1000214a:	0b28      	lsrs	r0, r5, #12
1000214c:	4480      	add	r8, r0
1000214e:	306f      	adds	r0, #111	; 0x6f
10002150:	00c1      	lsls	r1, r0, #3
10002152:	e680      	b.n	10001e56 <_malloc_r+0x92>
10002154:	2308      	movs	r3, #8
10002156:	469b      	mov	fp, r3
10002158:	3b07      	subs	r3, #7
1000215a:	44dc      	add	ip, fp
1000215c:	469b      	mov	fp, r3
1000215e:	44da      	add	sl, fp
10002160:	4643      	mov	r3, r8
10002162:	4652      	mov	r2, sl
10002164:	4213      	tst	r3, r2
10002166:	d000      	beq.n	1000216a <_malloc_r+0x3a6>
10002168:	e6c4      	b.n	10001ef4 <_malloc_r+0x130>
1000216a:	e04c      	b.n	10002206 <_malloc_r+0x442>
1000216c:	2201      	movs	r2, #1
1000216e:	18e3      	adds	r3, r4, r3
10002170:	6859      	ldr	r1, [r3, #4]
10002172:	0030      	movs	r0, r6
10002174:	430a      	orrs	r2, r1
10002176:	605a      	str	r2, [r3, #4]
10002178:	68e3      	ldr	r3, [r4, #12]
1000217a:	68a2      	ldr	r2, [r4, #8]
1000217c:	60d3      	str	r3, [r2, #12]
1000217e:	609a      	str	r2, [r3, #8]
10002180:	f000 f8e8 	bl	10002354 <__malloc_unlock>
10002184:	0020      	movs	r0, r4
10002186:	3008      	adds	r0, #8
10002188:	e6e1      	b.n	10001f4e <_malloc_r+0x18a>
1000218a:	002b      	movs	r3, r5
1000218c:	08e8      	lsrs	r0, r5, #3
1000218e:	3308      	adds	r3, #8
10002190:	e62c      	b.n	10001dec <_malloc_r+0x28>
10002192:	2301      	movs	r3, #1
10002194:	1960      	adds	r0, r4, r5
10002196:	431d      	orrs	r5, r3
10002198:	6065      	str	r5, [r4, #4]
1000219a:	6178      	str	r0, [r7, #20]
1000219c:	6138      	str	r0, [r7, #16]
1000219e:	60c2      	str	r2, [r0, #12]
100021a0:	6082      	str	r2, [r0, #8]
100021a2:	001a      	movs	r2, r3
100021a4:	464b      	mov	r3, r9
100021a6:	430a      	orrs	r2, r1
100021a8:	6042      	str	r2, [r0, #4]
100021aa:	0030      	movs	r0, r6
100021ac:	50e1      	str	r1, [r4, r3]
100021ae:	f000 f8d1 	bl	10002354 <__malloc_unlock>
100021b2:	0020      	movs	r0, r4
100021b4:	3008      	adds	r0, #8
100021b6:	e6ca      	b.n	10001f4e <_malloc_r+0x18a>
100021b8:	099a      	lsrs	r2, r3, #6
100021ba:	0011      	movs	r1, r2
100021bc:	3239      	adds	r2, #57	; 0x39
100021be:	3138      	adds	r1, #56	; 0x38
100021c0:	00d2      	lsls	r2, r2, #3
100021c2:	e78e      	b.n	100020e2 <_malloc_r+0x31e>
100021c4:	42bc      	cmp	r4, r7
100021c6:	d060      	beq.n	1000228a <_malloc_r+0x4c6>
100021c8:	68bc      	ldr	r4, [r7, #8]
100021ca:	6862      	ldr	r2, [r4, #4]
100021cc:	2303      	movs	r3, #3
100021ce:	439a      	bics	r2, r3
100021d0:	1b53      	subs	r3, r2, r5
100021d2:	4295      	cmp	r5, r2
100021d4:	d802      	bhi.n	100021dc <_malloc_r+0x418>
100021d6:	2b0f      	cmp	r3, #15
100021d8:	dd00      	ble.n	100021dc <_malloc_r+0x418>
100021da:	e76a      	b.n	100020b2 <_malloc_r+0x2ee>
100021dc:	0030      	movs	r0, r6
100021de:	f000 f8b9 	bl	10002354 <__malloc_unlock>
100021e2:	2000      	movs	r0, #0
100021e4:	e6b3      	b.n	10001f4e <_malloc_r+0x18a>
100021e6:	235b      	movs	r3, #91	; 0x5b
100021e8:	4698      	mov	r8, r3
100021ea:	4480      	add	r8, r0
100021ec:	305c      	adds	r0, #92	; 0x5c
100021ee:	00c1      	lsls	r1, r0, #3
100021f0:	e631      	b.n	10001e56 <_malloc_r+0x92>
100021f2:	2308      	movs	r3, #8
100021f4:	425b      	negs	r3, r3
100021f6:	469c      	mov	ip, r3
100021f8:	44e1      	add	r9, ip
100021fa:	464b      	mov	r3, r9
100021fc:	689b      	ldr	r3, [r3, #8]
100021fe:	3801      	subs	r0, #1
10002200:	454b      	cmp	r3, r9
10002202:	d000      	beq.n	10002206 <_malloc_r+0x442>
10002204:	e098      	b.n	10002338 <_malloc_r+0x574>
10002206:	4643      	mov	r3, r8
10002208:	4203      	tst	r3, r0
1000220a:	d1f2      	bne.n	100021f2 <_malloc_r+0x42e>
1000220c:	687b      	ldr	r3, [r7, #4]
1000220e:	438b      	bics	r3, r1
10002210:	607b      	str	r3, [r7, #4]
10002212:	0049      	lsls	r1, r1, #1
10002214:	4299      	cmp	r1, r3
10002216:	d900      	bls.n	1000221a <_malloc_r+0x456>
10002218:	e6b7      	b.n	10001f8a <_malloc_r+0x1c6>
1000221a:	2900      	cmp	r1, #0
1000221c:	d104      	bne.n	10002228 <_malloc_r+0x464>
1000221e:	e6b4      	b.n	10001f8a <_malloc_r+0x1c6>
10002220:	2204      	movs	r2, #4
10002222:	4694      	mov	ip, r2
10002224:	0049      	lsls	r1, r1, #1
10002226:	44e2      	add	sl, ip
10002228:	420b      	tst	r3, r1
1000222a:	d0f9      	beq.n	10002220 <_malloc_r+0x45c>
1000222c:	4650      	mov	r0, sl
1000222e:	e65c      	b.n	10001eea <_malloc_r+0x126>
10002230:	3310      	adds	r3, #16
10002232:	9300      	str	r3, [sp, #0]
10002234:	e6c6      	b.n	10001fc4 <_malloc_r+0x200>
10002236:	1089      	asrs	r1, r1, #2
10002238:	3b02      	subs	r3, #2
1000223a:	408b      	lsls	r3, r1
1000223c:	6879      	ldr	r1, [r7, #4]
1000223e:	430b      	orrs	r3, r1
10002240:	607b      	str	r3, [r7, #4]
10002242:	e765      	b.n	10002110 <_malloc_r+0x34c>
10002244:	9b00      	ldr	r3, [sp, #0]
10002246:	0030      	movs	r0, r6
10002248:	4443      	add	r3, r8
1000224a:	425b      	negs	r3, r3
1000224c:	051b      	lsls	r3, r3, #20
1000224e:	0d1b      	lsrs	r3, r3, #20
10002250:	0019      	movs	r1, r3
10002252:	469b      	mov	fp, r3
10002254:	f000 f886 	bl	10002364 <_sbrk_r>
10002258:	1c43      	adds	r3, r0, #1
1000225a:	d000      	beq.n	1000225e <_malloc_r+0x49a>
1000225c:	e6f4      	b.n	10002048 <_malloc_r+0x284>
1000225e:	2300      	movs	r3, #0
10002260:	469b      	mov	fp, r3
10002262:	e6f6      	b.n	10002052 <_malloc_r+0x28e>
10002264:	2a54      	cmp	r2, #84	; 0x54
10002266:	d82b      	bhi.n	100022c0 <_malloc_r+0x4fc>
10002268:	0b1a      	lsrs	r2, r3, #12
1000226a:	0011      	movs	r1, r2
1000226c:	326f      	adds	r2, #111	; 0x6f
1000226e:	316e      	adds	r1, #110	; 0x6e
10002270:	00d2      	lsls	r2, r2, #3
10002272:	e736      	b.n	100020e2 <_malloc_r+0x31e>
10002274:	23aa      	movs	r3, #170	; 0xaa
10002276:	005b      	lsls	r3, r3, #1
10002278:	4298      	cmp	r0, r3
1000227a:	d82b      	bhi.n	100022d4 <_malloc_r+0x510>
1000227c:	3bdd      	subs	r3, #221	; 0xdd
1000227e:	4698      	mov	r8, r3
10002280:	0be8      	lsrs	r0, r5, #15
10002282:	4480      	add	r8, r0
10002284:	3078      	adds	r0, #120	; 0x78
10002286:	00c1      	lsls	r1, r0, #3
10002288:	e5e5      	b.n	10001e56 <_malloc_r+0x92>
1000228a:	4b2c      	ldr	r3, [pc, #176]	; (1000233c <_malloc_r+0x578>)
1000228c:	9a00      	ldr	r2, [sp, #0]
1000228e:	469a      	mov	sl, r3
10002290:	681b      	ldr	r3, [r3, #0]
10002292:	469c      	mov	ip, r3
10002294:	4653      	mov	r3, sl
10002296:	4462      	add	r2, ip
10002298:	601a      	str	r2, [r3, #0]
1000229a:	e6ae      	b.n	10001ffa <_malloc_r+0x236>
1000229c:	0509      	lsls	r1, r1, #20
1000229e:	d000      	beq.n	100022a2 <_malloc_r+0x4de>
100022a0:	e6ab      	b.n	10001ffa <_malloc_r+0x236>
100022a2:	9a00      	ldr	r2, [sp, #0]
100022a4:	68bc      	ldr	r4, [r7, #8]
100022a6:	444a      	add	r2, r9
100022a8:	3101      	adds	r1, #1
100022aa:	430a      	orrs	r2, r1
100022ac:	6062      	str	r2, [r4, #4]
100022ae:	e6f4      	b.n	1000209a <_malloc_r+0x2d6>
100022b0:	465b      	mov	r3, fp
100022b2:	4642      	mov	r2, r8
100022b4:	601a      	str	r2, [r3, #0]
100022b6:	e6ab      	b.n	10002010 <_malloc_r+0x24c>
100022b8:	4644      	mov	r4, r8
100022ba:	e6ee      	b.n	1000209a <_malloc_r+0x2d6>
100022bc:	6041      	str	r1, [r0, #4]
100022be:	e78d      	b.n	100021dc <_malloc_r+0x418>
100022c0:	21aa      	movs	r1, #170	; 0xaa
100022c2:	0049      	lsls	r1, r1, #1
100022c4:	428a      	cmp	r2, r1
100022c6:	d824      	bhi.n	10002312 <_malloc_r+0x54e>
100022c8:	0bda      	lsrs	r2, r3, #15
100022ca:	0011      	movs	r1, r2
100022cc:	3278      	adds	r2, #120	; 0x78
100022ce:	3177      	adds	r1, #119	; 0x77
100022d0:	00d2      	lsls	r2, r2, #3
100022d2:	e706      	b.n	100020e2 <_malloc_r+0x31e>
100022d4:	4b1a      	ldr	r3, [pc, #104]	; (10002340 <_malloc_r+0x57c>)
100022d6:	4298      	cmp	r0, r3
100022d8:	d824      	bhi.n	10002324 <_malloc_r+0x560>
100022da:	237c      	movs	r3, #124	; 0x7c
100022dc:	4698      	mov	r8, r3
100022de:	0ca8      	lsrs	r0, r5, #18
100022e0:	4480      	add	r8, r0
100022e2:	307d      	adds	r0, #125	; 0x7d
100022e4:	00c1      	lsls	r1, r0, #3
100022e6:	e5b6      	b.n	10001e56 <_malloc_r+0x92>
100022e8:	9a00      	ldr	r2, [sp, #0]
100022ea:	9b01      	ldr	r3, [sp, #4]
100022ec:	4694      	mov	ip, r2
100022ee:	4642      	mov	r2, r8
100022f0:	3b08      	subs	r3, #8
100022f2:	4463      	add	r3, ip
100022f4:	1a9b      	subs	r3, r3, r2
100022f6:	9300      	str	r3, [sp, #0]
100022f8:	2300      	movs	r3, #0
100022fa:	469b      	mov	fp, r3
100022fc:	e6a9      	b.n	10002052 <_malloc_r+0x28e>
100022fe:	0021      	movs	r1, r4
10002300:	0030      	movs	r0, r6
10002302:	3108      	adds	r1, #8
10002304:	f000 f8bc 	bl	10002480 <_free_r>
10002308:	4653      	mov	r3, sl
1000230a:	68bc      	ldr	r4, [r7, #8]
1000230c:	681b      	ldr	r3, [r3, #0]
1000230e:	6862      	ldr	r2, [r4, #4]
10002310:	e6c3      	b.n	1000209a <_malloc_r+0x2d6>
10002312:	490b      	ldr	r1, [pc, #44]	; (10002340 <_malloc_r+0x57c>)
10002314:	428a      	cmp	r2, r1
10002316:	d80b      	bhi.n	10002330 <_malloc_r+0x56c>
10002318:	0c9a      	lsrs	r2, r3, #18
1000231a:	0011      	movs	r1, r2
1000231c:	327d      	adds	r2, #125	; 0x7d
1000231e:	317c      	adds	r1, #124	; 0x7c
10002320:	00d2      	lsls	r2, r2, #3
10002322:	e6de      	b.n	100020e2 <_malloc_r+0x31e>
10002324:	21fe      	movs	r1, #254	; 0xfe
10002326:	237e      	movs	r3, #126	; 0x7e
10002328:	207f      	movs	r0, #127	; 0x7f
1000232a:	4698      	mov	r8, r3
1000232c:	0089      	lsls	r1, r1, #2
1000232e:	e592      	b.n	10001e56 <_malloc_r+0x92>
10002330:	22fe      	movs	r2, #254	; 0xfe
10002332:	217e      	movs	r1, #126	; 0x7e
10002334:	0092      	lsls	r2, r2, #2
10002336:	e6d4      	b.n	100020e2 <_malloc_r+0x31e>
10002338:	687b      	ldr	r3, [r7, #4]
1000233a:	e76a      	b.n	10002212 <_malloc_r+0x44e>
1000233c:	20000a88 	.word	0x20000a88
10002340:	00000554 	.word	0x00000554

10002344 <__malloc_lock>:
10002344:	b510      	push	{r4, lr}
10002346:	4802      	ldr	r0, [pc, #8]	; (10002350 <__malloc_lock+0xc>)
10002348:	f000 f97c 	bl	10002644 <__retarget_lock_acquire_recursive>
1000234c:	bd10      	pop	{r4, pc}
1000234e:	46c0      	nop			; (mov r8, r8)
10002350:	20000d44 	.word	0x20000d44

10002354 <__malloc_unlock>:
10002354:	b510      	push	{r4, lr}
10002356:	4802      	ldr	r0, [pc, #8]	; (10002360 <__malloc_unlock+0xc>)
10002358:	f000 f976 	bl	10002648 <__retarget_lock_release_recursive>
1000235c:	bd10      	pop	{r4, pc}
1000235e:	46c0      	nop			; (mov r8, r8)
10002360:	20000d44 	.word	0x20000d44

10002364 <_sbrk_r>:
10002364:	2300      	movs	r3, #0
10002366:	b570      	push	{r4, r5, r6, lr}
10002368:	4d06      	ldr	r5, [pc, #24]	; (10002384 <_sbrk_r+0x20>)
1000236a:	0004      	movs	r4, r0
1000236c:	0008      	movs	r0, r1
1000236e:	602b      	str	r3, [r5, #0]
10002370:	f7fe fe94 	bl	1000109c <_sbrk>
10002374:	1c43      	adds	r3, r0, #1
10002376:	d000      	beq.n	1000237a <_sbrk_r+0x16>
10002378:	bd70      	pop	{r4, r5, r6, pc}
1000237a:	682b      	ldr	r3, [r5, #0]
1000237c:	2b00      	cmp	r3, #0
1000237e:	d0fb      	beq.n	10002378 <_sbrk_r+0x14>
10002380:	6023      	str	r3, [r4, #0]
10002382:	e7f9      	b.n	10002378 <_sbrk_r+0x14>
10002384:	20000d58 	.word	0x20000d58

10002388 <strlen>:
10002388:	b510      	push	{r4, lr}
1000238a:	0783      	lsls	r3, r0, #30
1000238c:	d00a      	beq.n	100023a4 <strlen+0x1c>
1000238e:	0003      	movs	r3, r0
10002390:	2103      	movs	r1, #3
10002392:	e002      	b.n	1000239a <strlen+0x12>
10002394:	3301      	adds	r3, #1
10002396:	420b      	tst	r3, r1
10002398:	d005      	beq.n	100023a6 <strlen+0x1e>
1000239a:	781a      	ldrb	r2, [r3, #0]
1000239c:	2a00      	cmp	r2, #0
1000239e:	d1f9      	bne.n	10002394 <strlen+0xc>
100023a0:	1a18      	subs	r0, r3, r0
100023a2:	bd10      	pop	{r4, pc}
100023a4:	0003      	movs	r3, r0
100023a6:	6819      	ldr	r1, [r3, #0]
100023a8:	4a0c      	ldr	r2, [pc, #48]	; (100023dc <strlen+0x54>)
100023aa:	4c0d      	ldr	r4, [pc, #52]	; (100023e0 <strlen+0x58>)
100023ac:	188a      	adds	r2, r1, r2
100023ae:	438a      	bics	r2, r1
100023b0:	4222      	tst	r2, r4
100023b2:	d10f      	bne.n	100023d4 <strlen+0x4c>
100023b4:	6859      	ldr	r1, [r3, #4]
100023b6:	4a09      	ldr	r2, [pc, #36]	; (100023dc <strlen+0x54>)
100023b8:	3304      	adds	r3, #4
100023ba:	188a      	adds	r2, r1, r2
100023bc:	438a      	bics	r2, r1
100023be:	4222      	tst	r2, r4
100023c0:	d108      	bne.n	100023d4 <strlen+0x4c>
100023c2:	6859      	ldr	r1, [r3, #4]
100023c4:	4a05      	ldr	r2, [pc, #20]	; (100023dc <strlen+0x54>)
100023c6:	3304      	adds	r3, #4
100023c8:	188a      	adds	r2, r1, r2
100023ca:	438a      	bics	r2, r1
100023cc:	4222      	tst	r2, r4
100023ce:	d0f1      	beq.n	100023b4 <strlen+0x2c>
100023d0:	e000      	b.n	100023d4 <strlen+0x4c>
100023d2:	3301      	adds	r3, #1
100023d4:	781a      	ldrb	r2, [r3, #0]
100023d6:	2a00      	cmp	r2, #0
100023d8:	d1fb      	bne.n	100023d2 <strlen+0x4a>
100023da:	e7e1      	b.n	100023a0 <strlen+0x18>
100023dc:	fefefeff 	.word	0xfefefeff
100023e0:	80808080 	.word	0x80808080

100023e4 <_malloc_trim_r>:
100023e4:	b5f8      	push	{r3, r4, r5, r6, r7, lr}
100023e6:	000c      	movs	r4, r1
100023e8:	0005      	movs	r5, r0
100023ea:	f7ff ffab 	bl	10002344 <__malloc_lock>
100023ee:	4f20      	ldr	r7, [pc, #128]	; (10002470 <_malloc_trim_r+0x8c>)
100023f0:	68bb      	ldr	r3, [r7, #8]
100023f2:	685e      	ldr	r6, [r3, #4]
100023f4:	2303      	movs	r3, #3
100023f6:	439e      	bics	r6, r3
100023f8:	4b1e      	ldr	r3, [pc, #120]	; (10002474 <_malloc_trim_r+0x90>)
100023fa:	1b34      	subs	r4, r6, r4
100023fc:	469c      	mov	ip, r3
100023fe:	4464      	add	r4, ip
10002400:	0b24      	lsrs	r4, r4, #12
10002402:	3c01      	subs	r4, #1
10002404:	3311      	adds	r3, #17
10002406:	0324      	lsls	r4, r4, #12
10002408:	429c      	cmp	r4, r3
1000240a:	db07      	blt.n	1000241c <_malloc_trim_r+0x38>
1000240c:	2100      	movs	r1, #0
1000240e:	0028      	movs	r0, r5
10002410:	f7ff ffa8 	bl	10002364 <_sbrk_r>
10002414:	68bb      	ldr	r3, [r7, #8]
10002416:	199b      	adds	r3, r3, r6
10002418:	4298      	cmp	r0, r3
1000241a:	d004      	beq.n	10002426 <_malloc_trim_r+0x42>
1000241c:	0028      	movs	r0, r5
1000241e:	f7ff ff99 	bl	10002354 <__malloc_unlock>
10002422:	2000      	movs	r0, #0
10002424:	bdf8      	pop	{r3, r4, r5, r6, r7, pc}
10002426:	0028      	movs	r0, r5
10002428:	4261      	negs	r1, r4
1000242a:	f7ff ff9b 	bl	10002364 <_sbrk_r>
1000242e:	1c43      	adds	r3, r0, #1
10002430:	d00d      	beq.n	1000244e <_malloc_trim_r+0x6a>
10002432:	2201      	movs	r2, #1
10002434:	68bb      	ldr	r3, [r7, #8]
10002436:	1b36      	subs	r6, r6, r4
10002438:	4316      	orrs	r6, r2
1000243a:	605e      	str	r6, [r3, #4]
1000243c:	4b0e      	ldr	r3, [pc, #56]	; (10002478 <_malloc_trim_r+0x94>)
1000243e:	0028      	movs	r0, r5
10002440:	681a      	ldr	r2, [r3, #0]
10002442:	1b14      	subs	r4, r2, r4
10002444:	601c      	str	r4, [r3, #0]
10002446:	f7ff ff85 	bl	10002354 <__malloc_unlock>
1000244a:	2001      	movs	r0, #1
1000244c:	e7ea      	b.n	10002424 <_malloc_trim_r+0x40>
1000244e:	2100      	movs	r1, #0
10002450:	0028      	movs	r0, r5
10002452:	f7ff ff87 	bl	10002364 <_sbrk_r>
10002456:	68ba      	ldr	r2, [r7, #8]
10002458:	1a83      	subs	r3, r0, r2
1000245a:	2b0f      	cmp	r3, #15
1000245c:	ddde      	ble.n	1000241c <_malloc_trim_r+0x38>
1000245e:	4907      	ldr	r1, [pc, #28]	; (1000247c <_malloc_trim_r+0x98>)
10002460:	6809      	ldr	r1, [r1, #0]
10002462:	1a40      	subs	r0, r0, r1
10002464:	4904      	ldr	r1, [pc, #16]	; (10002478 <_malloc_trim_r+0x94>)
10002466:	6008      	str	r0, [r1, #0]
10002468:	2101      	movs	r1, #1
1000246a:	430b      	orrs	r3, r1
1000246c:	6053      	str	r3, [r2, #4]
1000246e:	e7d5      	b.n	1000241c <_malloc_trim_r+0x38>
10002470:	20000640 	.word	0x20000640
10002474:	00000fef 	.word	0x00000fef
10002478:	20000a88 	.word	0x20000a88
1000247c:	20000a48 	.word	0x20000a48

10002480 <_free_r>:
10002480:	b5f0      	push	{r4, r5, r6, r7, lr}
10002482:	46c6      	mov	lr, r8
10002484:	0005      	movs	r5, r0
10002486:	000c      	movs	r4, r1
10002488:	b500      	push	{lr}
1000248a:	2900      	cmp	r1, #0
1000248c:	d04f      	beq.n	1000252e <_free_r+0xae>
1000248e:	f7ff ff59 	bl	10002344 <__malloc_lock>
10002492:	0021      	movs	r1, r4
10002494:	3908      	subs	r1, #8
10002496:	684c      	ldr	r4, [r1, #4]
10002498:	2601      	movs	r6, #1
1000249a:	0022      	movs	r2, r4
1000249c:	2003      	movs	r0, #3
1000249e:	43b2      	bics	r2, r6
100024a0:	188f      	adds	r7, r1, r2
100024a2:	687b      	ldr	r3, [r7, #4]
100024a4:	4383      	bics	r3, r0
100024a6:	4862      	ldr	r0, [pc, #392]	; (10002630 <_free_r+0x1b0>)
100024a8:	4698      	mov	r8, r3
100024aa:	6883      	ldr	r3, [r0, #8]
100024ac:	42bb      	cmp	r3, r7
100024ae:	d06b      	beq.n	10002588 <_free_r+0x108>
100024b0:	4643      	mov	r3, r8
100024b2:	607b      	str	r3, [r7, #4]
100024b4:	4226      	tst	r6, r4
100024b6:	d11e      	bne.n	100024f6 <_free_r+0x76>
100024b8:	2308      	movs	r3, #8
100024ba:	469c      	mov	ip, r3
100024bc:	680c      	ldr	r4, [r1, #0]
100024be:	4484      	add	ip, r0
100024c0:	1b09      	subs	r1, r1, r4
100024c2:	1912      	adds	r2, r2, r4
100024c4:	688c      	ldr	r4, [r1, #8]
100024c6:	4564      	cmp	r4, ip
100024c8:	d04f      	beq.n	1000256a <_free_r+0xea>
100024ca:	68cb      	ldr	r3, [r1, #12]
100024cc:	60e3      	str	r3, [r4, #12]
100024ce:	609c      	str	r4, [r3, #8]
100024d0:	4643      	mov	r3, r8
100024d2:	18fc      	adds	r4, r7, r3
100024d4:	6864      	ldr	r4, [r4, #4]
100024d6:	4234      	tst	r4, r6
100024d8:	d111      	bne.n	100024fe <_free_r+0x7e>
100024da:	68bb      	ldr	r3, [r7, #8]
100024dc:	4c55      	ldr	r4, [pc, #340]	; (10002634 <_free_r+0x1b4>)
100024de:	4442      	add	r2, r8
100024e0:	42a3      	cmp	r3, r4
100024e2:	d100      	bne.n	100024e6 <_free_r+0x66>
100024e4:	e07f      	b.n	100025e6 <_free_r+0x166>
100024e6:	68fc      	ldr	r4, [r7, #12]
100024e8:	60dc      	str	r4, [r3, #12]
100024ea:	60a3      	str	r3, [r4, #8]
100024ec:	2301      	movs	r3, #1
100024ee:	4313      	orrs	r3, r2
100024f0:	604b      	str	r3, [r1, #4]
100024f2:	508a      	str	r2, [r1, r2]
100024f4:	e006      	b.n	10002504 <_free_r+0x84>
100024f6:	18fc      	adds	r4, r7, r3
100024f8:	6864      	ldr	r4, [r4, #4]
100024fa:	4234      	tst	r4, r6
100024fc:	d0ed      	beq.n	100024da <_free_r+0x5a>
100024fe:	4316      	orrs	r6, r2
10002500:	604e      	str	r6, [r1, #4]
10002502:	603a      	str	r2, [r7, #0]
10002504:	2380      	movs	r3, #128	; 0x80
10002506:	009b      	lsls	r3, r3, #2
10002508:	429a      	cmp	r2, r3
1000250a:	d213      	bcs.n	10002534 <_free_r+0xb4>
1000250c:	0954      	lsrs	r4, r2, #5
1000250e:	08d3      	lsrs	r3, r2, #3
10002510:	2201      	movs	r2, #1
10002512:	40a2      	lsls	r2, r4
10002514:	6844      	ldr	r4, [r0, #4]
10002516:	00db      	lsls	r3, r3, #3
10002518:	4322      	orrs	r2, r4
1000251a:	6042      	str	r2, [r0, #4]
1000251c:	1818      	adds	r0, r3, r0
1000251e:	6883      	ldr	r3, [r0, #8]
10002520:	60c8      	str	r0, [r1, #12]
10002522:	608b      	str	r3, [r1, #8]
10002524:	6081      	str	r1, [r0, #8]
10002526:	60d9      	str	r1, [r3, #12]
10002528:	0028      	movs	r0, r5
1000252a:	f7ff ff13 	bl	10002354 <__malloc_unlock>
1000252e:	bc04      	pop	{r2}
10002530:	4690      	mov	r8, r2
10002532:	bdf0      	pop	{r4, r5, r6, r7, pc}
10002534:	0a53      	lsrs	r3, r2, #9
10002536:	2b04      	cmp	r3, #4
10002538:	d83f      	bhi.n	100025ba <_free_r+0x13a>
1000253a:	0994      	lsrs	r4, r2, #6
1000253c:	0026      	movs	r6, r4
1000253e:	3439      	adds	r4, #57	; 0x39
10002540:	3638      	adds	r6, #56	; 0x38
10002542:	00e4      	lsls	r4, r4, #3
10002544:	1904      	adds	r4, r0, r4
10002546:	6823      	ldr	r3, [r4, #0]
10002548:	3c08      	subs	r4, #8
1000254a:	2703      	movs	r7, #3
1000254c:	429c      	cmp	r4, r3
1000254e:	d043      	beq.n	100025d8 <_free_r+0x158>
10002550:	6858      	ldr	r0, [r3, #4]
10002552:	43b8      	bics	r0, r7
10002554:	4290      	cmp	r0, r2
10002556:	d902      	bls.n	1000255e <_free_r+0xde>
10002558:	689b      	ldr	r3, [r3, #8]
1000255a:	429c      	cmp	r4, r3
1000255c:	d1f8      	bne.n	10002550 <_free_r+0xd0>
1000255e:	68dc      	ldr	r4, [r3, #12]
10002560:	60cc      	str	r4, [r1, #12]
10002562:	608b      	str	r3, [r1, #8]
10002564:	60a1      	str	r1, [r4, #8]
10002566:	60d9      	str	r1, [r3, #12]
10002568:	e7de      	b.n	10002528 <_free_r+0xa8>
1000256a:	4643      	mov	r3, r8
1000256c:	18f8      	adds	r0, r7, r3
1000256e:	6840      	ldr	r0, [r0, #4]
10002570:	4230      	tst	r0, r6
10002572:	d158      	bne.n	10002626 <_free_r+0x1a6>
10002574:	0013      	movs	r3, r2
10002576:	68b8      	ldr	r0, [r7, #8]
10002578:	68fa      	ldr	r2, [r7, #12]
1000257a:	4443      	add	r3, r8
1000257c:	431e      	orrs	r6, r3
1000257e:	60c2      	str	r2, [r0, #12]
10002580:	6090      	str	r0, [r2, #8]
10002582:	604e      	str	r6, [r1, #4]
10002584:	50cb      	str	r3, [r1, r3]
10002586:	e7cf      	b.n	10002528 <_free_r+0xa8>
10002588:	0013      	movs	r3, r2
1000258a:	4443      	add	r3, r8
1000258c:	4226      	tst	r6, r4
1000258e:	d106      	bne.n	1000259e <_free_r+0x11e>
10002590:	680a      	ldr	r2, [r1, #0]
10002592:	1a89      	subs	r1, r1, r2
10002594:	688c      	ldr	r4, [r1, #8]
10002596:	189b      	adds	r3, r3, r2
10002598:	68ca      	ldr	r2, [r1, #12]
1000259a:	60e2      	str	r2, [r4, #12]
1000259c:	6094      	str	r4, [r2, #8]
1000259e:	2201      	movs	r2, #1
100025a0:	431a      	orrs	r2, r3
100025a2:	604a      	str	r2, [r1, #4]
100025a4:	4a24      	ldr	r2, [pc, #144]	; (10002638 <_free_r+0x1b8>)
100025a6:	6081      	str	r1, [r0, #8]
100025a8:	6812      	ldr	r2, [r2, #0]
100025aa:	429a      	cmp	r2, r3
100025ac:	d8bc      	bhi.n	10002528 <_free_r+0xa8>
100025ae:	4b23      	ldr	r3, [pc, #140]	; (1000263c <_free_r+0x1bc>)
100025b0:	0028      	movs	r0, r5
100025b2:	6819      	ldr	r1, [r3, #0]
100025b4:	f7ff ff16 	bl	100023e4 <_malloc_trim_r>
100025b8:	e7b6      	b.n	10002528 <_free_r+0xa8>
100025ba:	2b14      	cmp	r3, #20
100025bc:	d907      	bls.n	100025ce <_free_r+0x14e>
100025be:	2b54      	cmp	r3, #84	; 0x54
100025c0:	d81a      	bhi.n	100025f8 <_free_r+0x178>
100025c2:	0b14      	lsrs	r4, r2, #12
100025c4:	0026      	movs	r6, r4
100025c6:	346f      	adds	r4, #111	; 0x6f
100025c8:	366e      	adds	r6, #110	; 0x6e
100025ca:	00e4      	lsls	r4, r4, #3
100025cc:	e7ba      	b.n	10002544 <_free_r+0xc4>
100025ce:	001e      	movs	r6, r3
100025d0:	335c      	adds	r3, #92	; 0x5c
100025d2:	365b      	adds	r6, #91	; 0x5b
100025d4:	00dc      	lsls	r4, r3, #3
100025d6:	e7b5      	b.n	10002544 <_free_r+0xc4>
100025d8:	2201      	movs	r2, #1
100025da:	10b6      	asrs	r6, r6, #2
100025dc:	40b2      	lsls	r2, r6
100025de:	6846      	ldr	r6, [r0, #4]
100025e0:	4332      	orrs	r2, r6
100025e2:	6042      	str	r2, [r0, #4]
100025e4:	e7bc      	b.n	10002560 <_free_r+0xe0>
100025e6:	60d9      	str	r1, [r3, #12]
100025e8:	6099      	str	r1, [r3, #8]
100025ea:	60cb      	str	r3, [r1, #12]
100025ec:	608b      	str	r3, [r1, #8]
100025ee:	2301      	movs	r3, #1
100025f0:	4313      	orrs	r3, r2
100025f2:	604b      	str	r3, [r1, #4]
100025f4:	508a      	str	r2, [r1, r2]
100025f6:	e797      	b.n	10002528 <_free_r+0xa8>
100025f8:	24aa      	movs	r4, #170	; 0xaa
100025fa:	0064      	lsls	r4, r4, #1
100025fc:	42a3      	cmp	r3, r4
100025fe:	d805      	bhi.n	1000260c <_free_r+0x18c>
10002600:	0bd4      	lsrs	r4, r2, #15
10002602:	0026      	movs	r6, r4
10002604:	3478      	adds	r4, #120	; 0x78
10002606:	3677      	adds	r6, #119	; 0x77
10002608:	00e4      	lsls	r4, r4, #3
1000260a:	e79b      	b.n	10002544 <_free_r+0xc4>
1000260c:	4c0c      	ldr	r4, [pc, #48]	; (10002640 <_free_r+0x1c0>)
1000260e:	42a3      	cmp	r3, r4
10002610:	d805      	bhi.n	1000261e <_free_r+0x19e>
10002612:	0c94      	lsrs	r4, r2, #18
10002614:	0026      	movs	r6, r4
10002616:	347d      	adds	r4, #125	; 0x7d
10002618:	367c      	adds	r6, #124	; 0x7c
1000261a:	00e4      	lsls	r4, r4, #3
1000261c:	e792      	b.n	10002544 <_free_r+0xc4>
1000261e:	24fe      	movs	r4, #254	; 0xfe
10002620:	267e      	movs	r6, #126	; 0x7e
10002622:	00a4      	lsls	r4, r4, #2
10002624:	e78e      	b.n	10002544 <_free_r+0xc4>
10002626:	0033      	movs	r3, r6
10002628:	4313      	orrs	r3, r2
1000262a:	604b      	str	r3, [r1, #4]
1000262c:	603a      	str	r2, [r7, #0]
1000262e:	e77b      	b.n	10002528 <_free_r+0xa8>
10002630:	20000640 	.word	0x20000640
10002634:	20000648 	.word	0x20000648
10002638:	20000a4c 	.word	0x20000a4c
1000263c:	20000ab8 	.word	0x20000ab8
10002640:	00000554 	.word	0x00000554

10002644 <__retarget_lock_acquire_recursive>:
10002644:	4770      	bx	lr
10002646:	46c0      	nop			; (mov r8, r8)

10002648 <__retarget_lock_release_recursive>:
10002648:	4770      	bx	lr
1000264a:	46c0      	nop			; (mov r8, r8)

1000264c <_fini>:
1000264c:	b5f8      	push	{r3, r4, r5, r6, r7, lr}
1000264e:	46c0      	nop			; (mov r8, r8)

10002650 <__mutex_exit_veneer>:
10002650:	b401      	push	{r0}
10002652:	4802      	ldr	r0, [pc, #8]	; (1000265c <__mutex_exit_veneer+0xc>)
10002654:	4684      	mov	ip, r0
10002656:	bc01      	pop	{r0}
10002658:	4760      	bx	ip
1000265a:	bf00      	nop
1000265c:	2000015d 	.word	0x2000015d

10002660 <____aeabi_idiv0_veneer>:
10002660:	b401      	push	{r0}
10002662:	4802      	ldr	r0, [pc, #8]	; (1000266c <____aeabi_idiv0_veneer+0xc>)
10002664:	4684      	mov	ip, r0
10002666:	bc01      	pop	{r0}
10002668:	4760      	bx	ip
1000266a:	bf00      	nop
1000266c:	20000185 	.word	0x20000185

10002670 <__mutex_try_enter_veneer>:
10002670:	b401      	push	{r0}
10002672:	4802      	ldr	r0, [pc, #8]	; (1000267c <__mutex_try_enter_veneer+0xc>)
10002674:	4684      	mov	ip, r0
10002676:	bc01      	pop	{r0}
10002678:	4760      	bx	ip
1000267a:	bf00      	nop
1000267c:	20000111 	.word	0x20000111

10002680 <__mutex_enter_blocking_veneer>:
10002680:	b401      	push	{r0}
10002682:	4802      	ldr	r0, [pc, #8]	; (1000268c <__mutex_enter_blocking_veneer+0xc>)
10002684:	4684      	mov	ip, r0
10002686:	bc01      	pop	{r0}
10002688:	4760      	bx	ip
1000268a:	bf00      	nop
1000268c:	200000c1 	.word	0x200000c1

Disassembly of section .data:

200000c0 <mutex_enter_blocking>:
200000c0:	b510      	push	{r4, lr}
200000c2:	6802      	ldr	r2, [r0, #0]
200000c4:	2400      	movs	r4, #0
200000c6:	f3ef 8110 	mrs	r1, PRIMASK
200000ca:	b672      	cpsid	i
200000cc:	6813      	ldr	r3, [r2, #0]
200000ce:	2b00      	cmp	r3, #0
200000d0:	d0fc      	beq.n	200000cc <mutex_enter_blocking+0xc>
200000d2:	f3bf 8f5f 	dmb	sy
200000d6:	7903      	ldrb	r3, [r0, #4]
200000d8:	2b00      	cmp	r3, #0
200000da:	d00b      	beq.n	200000f4 <mutex_enter_blocking+0x34>
200000dc:	6803      	ldr	r3, [r0, #0]
200000de:	f3bf 8f5f 	dmb	sy
200000e2:	601c      	str	r4, [r3, #0]
200000e4:	f381 8810 	msr	PRIMASK, r1
200000e8:	bf20      	wfe
200000ea:	6802      	ldr	r2, [r0, #0]
200000ec:	f3ef 8110 	mrs	r1, PRIMASK
200000f0:	b672      	cpsid	i
200000f2:	e7eb      	b.n	200000cc <mutex_enter_blocking+0xc>
200000f4:	2201      	movs	r2, #1
200000f6:	7102      	strb	r2, [r0, #4]
200000f8:	22d0      	movs	r2, #208	; 0xd0
200000fa:	0612      	lsls	r2, r2, #24
200000fc:	6812      	ldr	r2, [r2, #0]
200000fe:	7142      	strb	r2, [r0, #5]
20000100:	6802      	ldr	r2, [r0, #0]
20000102:	f3bf 8f5f 	dmb	sy
20000106:	6013      	str	r3, [r2, #0]
20000108:	f381 8810 	msr	PRIMASK, r1
2000010c:	bd10      	pop	{r4, pc}
2000010e:	46c0      	nop			; (mov r8, r8)

20000110 <mutex_try_enter>:
20000110:	0003      	movs	r3, r0
20000112:	b510      	push	{r4, lr}
20000114:	6800      	ldr	r0, [r0, #0]
20000116:	f3ef 8410 	mrs	r4, PRIMASK
2000011a:	b672      	cpsid	i
2000011c:	6802      	ldr	r2, [r0, #0]
2000011e:	2a00      	cmp	r2, #0
20000120:	d0fc      	beq.n	2000011c <mutex_try_enter+0xc>
20000122:	f3bf 8f5f 	dmb	sy
20000126:	791a      	ldrb	r2, [r3, #4]
20000128:	2a00      	cmp	r2, #0
2000012a:	d00d      	beq.n	20000148 <mutex_try_enter+0x38>
2000012c:	2900      	cmp	r1, #0
2000012e:	d013      	beq.n	20000158 <mutex_try_enter+0x48>
20000130:	2205      	movs	r2, #5
20000132:	2000      	movs	r0, #0
20000134:	569a      	ldrsb	r2, [r3, r2]
20000136:	600a      	str	r2, [r1, #0]
20000138:	681b      	ldr	r3, [r3, #0]
2000013a:	f3bf 8f5f 	dmb	sy
2000013e:	2200      	movs	r2, #0
20000140:	601a      	str	r2, [r3, #0]
20000142:	f384 8810 	msr	PRIMASK, r4
20000146:	bd10      	pop	{r4, pc}
20000148:	3201      	adds	r2, #1
2000014a:	711a      	strb	r2, [r3, #4]
2000014c:	22d0      	movs	r2, #208	; 0xd0
2000014e:	0612      	lsls	r2, r2, #24
20000150:	6812      	ldr	r2, [r2, #0]
20000152:	2001      	movs	r0, #1
20000154:	715a      	strb	r2, [r3, #5]
20000156:	e7ef      	b.n	20000138 <mutex_try_enter+0x28>
20000158:	2000      	movs	r0, #0
2000015a:	e7ed      	b.n	20000138 <mutex_try_enter+0x28>

2000015c <mutex_exit>:
2000015c:	6802      	ldr	r2, [r0, #0]
2000015e:	f3ef 8110 	mrs	r1, PRIMASK
20000162:	b672      	cpsid	i
20000164:	6813      	ldr	r3, [r2, #0]
20000166:	2b00      	cmp	r3, #0
20000168:	d0fc      	beq.n	20000164 <mutex_exit+0x8>
2000016a:	f3bf 8f5f 	dmb	sy
2000016e:	2300      	movs	r3, #0
20000170:	7103      	strb	r3, [r0, #4]
20000172:	bf40      	sev
20000174:	6802      	ldr	r2, [r0, #0]
20000176:	f3bf 8f5f 	dmb	sy
2000017a:	6013      	str	r3, [r2, #0]
2000017c:	f381 8810 	msr	PRIMASK, r1
20000180:	4770      	bx	lr
20000182:	46c0      	nop			; (mov r8, r8)

20000184 <__aeabi_idiv0>:
20000184:	4770      	bx	lr
20000186:	46c0      	nop			; (mov r8, r8)

20000188 <striped_spin_lock_num>:
20000188:	0010 0000                                   ....

2000018c <irq_handler_chain_slots>:
2000018c:	00000000 	.word	0x00000000
20000190:	00010000 	.word	0x00010000
	...
2000019c:	00020000 	.word	0x00020000
	...
200001a8:	00030000 	.word	0x00030000
	...
200001b4:	00ff0000 	.word	0x00ff0000
200001b8:	00000000 	.word	0x00000000

200001bc <irq_handler_chain_first_slot>:
200001bc:	b500      	push	{lr}
200001be:	6848      	ldr	r0, [r1, #4]
200001c0:	3101      	adds	r1, #1
200001c2:	468e      	mov	lr, r1
200001c4:	4700      	bx	r0

200001c6 <irq_handler_chain_remove_tail>:
200001c6:	4670      	mov	r0, lr
200001c8:	3809      	subs	r0, #9
200001ca:	4901      	ldr	r1, [pc, #4]	; (200001d0 <irq_handler_chain_remove_tail+0xa>)
200001cc:	4788      	blx	r1
200001ce:	bd00      	pop	{pc}
200001d0:	100016d5 	.word	0x100016d5
	...

200001e0 <aeabi_bits_funcs>:
200001e0:	00003350 	.word	0x00003350
200001e4:	0000334c 	.word	0x0000334c
200001e8:	00003354 	.word	0x00003354
200001ec:	00003352 	.word	0x00003352

200001f0 <aeabi_bits_funcs_end>:
200001f0:	0000534d 	.word	0x0000534d
200001f4:	0000434d 	.word	0x0000434d
200001f8:	00003453 	.word	0x00003453
200001fc:	00003443 	.word	0x00003443

20000200 <stdio_uart>:
20000200:	10001c89 00000000 10001cc5 00000000     ................
20000210:	00000100                                ....

20000214 <_impure_ptr>:
20000214:	20000218                                ... 

20000218 <impure_data>:
20000218:	00000000 20000504 2000056c 200005d4     ....... l.. ... 
	...
200002c0:	00000001 00000000 abcd330e e66d1234     .........3..4.m.
200002d0:	0005deec 0000000b 00000000 00000000     ................
	...

20000640 <__malloc_av_>:
	...
20000648:	20000640 20000640 20000648 20000648     @.. @.. H.. H.. 
20000658:	20000650 20000650 20000658 20000658     P.. P.. X.. X.. 
20000668:	20000660 20000660 20000668 20000668     `.. `.. h.. h.. 
20000678:	20000670 20000670 20000678 20000678     p.. p.. x.. x.. 
20000688:	20000680 20000680 20000688 20000688     ... ... ... ... 
20000698:	20000690 20000690 20000698 20000698     ... ... ... ... 
200006a8:	200006a0 200006a0 200006a8 200006a8     ... ... ... ... 
200006b8:	200006b0 200006b0 200006b8 200006b8     ... ... ... ... 
200006c8:	200006c0 200006c0 200006c8 200006c8     ... ... ... ... 
200006d8:	200006d0 200006d0 200006d8 200006d8     ... ... ... ... 
200006e8:	200006e0 200006e0 200006e8 200006e8     ... ... ... ... 
200006f8:	200006f0 200006f0 200006f8 200006f8     ... ... ... ... 
20000708:	20000700 20000700 20000708 20000708     ... ... ... ... 
20000718:	20000710 20000710 20000718 20000718     ... ... ... ... 
20000728:	20000720 20000720 20000728 20000728      ..  .. (.. (.. 
20000738:	20000730 20000730 20000738 20000738     0.. 0.. 8.. 8.. 
20000748:	20000740 20000740 20000748 20000748     @.. @.. H.. H.. 
20000758:	20000750 20000750 20000758 20000758     P.. P.. X.. X.. 
20000768:	20000760 20000760 20000768 20000768     `.. `.. h.. h.. 
20000778:	20000770 20000770 20000778 20000778     p.. p.. x.. x.. 
20000788:	20000780 20000780 20000788 20000788     ... ... ... ... 
20000798:	20000790 20000790 20000798 20000798     ... ... ... ... 
200007a8:	200007a0 200007a0 200007a8 200007a8     ... ... ... ... 
200007b8:	200007b0 200007b0 200007b8 200007b8     ... ... ... ... 
200007c8:	200007c0 200007c0 200007c8 200007c8     ... ... ... ... 
200007d8:	200007d0 200007d0 200007d8 200007d8     ... ... ... ... 
200007e8:	200007e0 200007e0 200007e8 200007e8     ... ... ... ... 
200007f8:	200007f0 200007f0 200007f8 200007f8     ... ... ... ... 
20000808:	20000800 20000800 20000808 20000808     ... ... ... ... 
20000818:	20000810 20000810 20000818 20000818     ... ... ... ... 
20000828:	20000820 20000820 20000828 20000828      ..  .. (.. (.. 
20000838:	20000830 20000830 20000838 20000838     0.. 0.. 8.. 8.. 
20000848:	20000840 20000840 20000848 20000848     @.. @.. H.. H.. 
20000858:	20000850 20000850 20000858 20000858     P.. P.. X.. X.. 
20000868:	20000860 20000860 20000868 20000868     `.. `.. h.. h.. 
20000878:	20000870 20000870 20000878 20000878     p.. p.. x.. x.. 
20000888:	20000880 20000880 20000888 20000888     ... ... ... ... 
20000898:	20000890 20000890 20000898 20000898     ... ... ... ... 
200008a8:	200008a0 200008a0 200008a8 200008a8     ... ... ... ... 
200008b8:	200008b0 200008b0 200008b8 200008b8     ... ... ... ... 
200008c8:	200008c0 200008c0 200008c8 200008c8     ... ... ... ... 
200008d8:	200008d0 200008d0 200008d8 200008d8     ... ... ... ... 
200008e8:	200008e0 200008e0 200008e8 200008e8     ... ... ... ... 
200008f8:	200008f0 200008f0 200008f8 200008f8     ... ... ... ... 
20000908:	20000900 20000900 20000908 20000908     ... ... ... ... 
20000918:	20000910 20000910 20000918 20000918     ... ... ... ... 
20000928:	20000920 20000920 20000928 20000928      ..  .. (.. (.. 
20000938:	20000930 20000930 20000938 20000938     0.. 0.. 8.. 8.. 
20000948:	20000940 20000940 20000948 20000948     @.. @.. H.. H.. 
20000958:	20000950 20000950 20000958 20000958     P.. P.. X.. X.. 
20000968:	20000960 20000960 20000968 20000968     `.. `.. h.. h.. 
20000978:	20000970 20000970 20000978 20000978     p.. p.. x.. x.. 
20000988:	20000980 20000980 20000988 20000988     ... ... ... ... 
20000998:	20000990 20000990 20000998 20000998     ... ... ... ... 
200009a8:	200009a0 200009a0 200009a8 200009a8     ... ... ... ... 
200009b8:	200009b0 200009b0 200009b8 200009b8     ... ... ... ... 
200009c8:	200009c0 200009c0 200009c8 200009c8     ... ... ... ... 
200009d8:	200009d0 200009d0 200009d8 200009d8     ... ... ... ... 
200009e8:	200009e0 200009e0 200009e8 200009e8     ... ... ... ... 
200009f8:	200009f0 200009f0 200009f8 200009f8     ... ... ... ... 
20000a08:	20000a00 20000a00 20000a08 20000a08     ... ... ... ... 
20000a18:	20000a10 20000a10 20000a18 20000a18     ... ... ... ... 
20000a28:	20000a20 20000a20 20000a28 20000a28      ..  .. (.. (.. 
20000a38:	20000a30 20000a30 20000a38 20000a38     0.. 0.. 8.. 8.. 

20000a48 <__malloc_sbrk_base>:
20000a48:	ffffffff                                ....

20000a4c <__malloc_trim_threshold>:
20000a4c:	00020000                                ....

20000a50 <print_mutex>:
	...

20000a58 <__mutex_array_end>:
20000a58:	10001a41 	.word	0x10001a41
20000a5c:	10001809 	.word	0x10001809
20000a60:	100018c9 	.word	0x100018c9
20000a64:	100019a1 	.word	0x100019a1

20000a68 <__frame_dummy_init_array_entry>:
20000a68:	10000301                                ....
