
hello_48MHz.elf:     file format elf32-littlearm

Sections:
Idx Name          Size      VMA       LMA       File off  Algn
  0 .boot2        00000100  10000000  10000000  00010000  2**0
                  CONTENTS, ALLOC, LOAD, READONLY, DATA
  1 .text         00004ad0  10000100  10000100  00010100  2**3
                  CONTENTS, ALLOC, LOAD, READONLY, CODE
  2 .rodata       0000042c  10004bd0  10004bd0  00014bd0  2**3
                  CONTENTS, ALLOC, LOAD, READONLY, DATA
  3 .binary_info  00000024  10004ffc  10004ffc  00014ffc  2**2
                  CONTENTS, ALLOC, LOAD, DATA
  4 .ram_vector_table 000000c0  20000000  20000000  00020a6c  2**2
                  CONTENTS
  5 .data         000009ac  200000c0  10005020  000200c0  2**4
                  CONTENTS, ALLOC, LOAD, CODE
  6 .uninitialized_data 00000000  20000a6c  20000a6c  00020b2c  2**0
                  CONTENTS
  7 .scratch_x    00000000  20040000  20040000  00020b2c  2**0
                  CONTENTS
  8 .scratch_y    00000000  20041000  20041000  00020b2c  2**0
                  CONTENTS
  9 .bss          000002f0  20000a6c  20000a6c  00020a6c  2**2
                  ALLOC
 10 .heap         00000800  20000d5c  20000d5c  00020b2c  2**2
                  CONTENTS, READONLY
 11 .stack_dummy  00000800  20041000  20041000  00021340  2**5
                  CONTENTS, READONLY
 12 .ARM.attributes 00000028  00000000  00000000  00021b40  2**0
                  CONTENTS, READONLY
 13 .comment      00000079  00000000  00000000  00021b68  2**0
                  CONTENTS, READONLY
 14 .debug_frame  000002ac  00000000  00000000  00021be4  2**2
                  CONTENTS, READONLY, DEBUGGING

hello_48MHz.elf:     file format elf32-littlearm


Disassembly of section .text:

10000100 <__reset_start>:
10000100:	4827      	ldr	r0, [pc, #156]	; (100001a0 <__get_current_exception+0xa>)
10000102:	e000      	b.n	10000106 <__vector_entry>

10000104 <_entry_point>:
10000104:	2000      	movs	r0, #0

10000106 <__vector_entry>:
10000106:	4927      	ldr	r1, [pc, #156]	; (100001a4 <__get_current_exception+0xe>)
10000108:	6088      	str	r0, [r1, #8]
1000010a:	c806      	ldmia	r0!, {r1, r2}
1000010c:	f381 8808 	msr	MSP, r1
10000110:	4710      	bx	r2

10000112 <_reset_handler>:
10000112:	4825      	ldr	r0, [pc, #148]	; (100001a8 <__get_current_exception+0x12>)
10000114:	6800      	ldr	r0, [r0, #0]
10000116:	2800      	cmp	r0, #0
10000118:	d139      	bne.n	1000018e <wait_for_vector>
1000011a:	a412      	add	r4, pc, #72	; (adr r4, 10000164 <data_cpy_table>)
1000011c:	cc0e      	ldmia	r4!, {r1, r2, r3}
1000011e:	2900      	cmp	r1, #0
10000120:	d002      	beq.n	10000128 <_reset_handler+0x16>
10000122:	f000 f812 	bl	1000014a <data_cpy>
10000126:	e7f9      	b.n	1000011c <_reset_handler+0xa>
10000128:	4920      	ldr	r1, [pc, #128]	; (100001ac <__get_current_exception+0x16>)
1000012a:	4a21      	ldr	r2, [pc, #132]	; (100001b0 <__get_current_exception+0x1a>)
1000012c:	2000      	movs	r0, #0
1000012e:	e000      	b.n	10000132 <bss_fill_test>

10000130 <bss_fill_loop>:
10000130:	c101      	stmia	r1!, {r0}

10000132 <bss_fill_test>:
10000132:	4291      	cmp	r1, r2
10000134:	d1fc      	bne.n	10000130 <bss_fill_loop>

10000136 <platform_entry>:
10000136:	491f      	ldr	r1, [pc, #124]	; (100001b4 <__get_current_exception+0x1e>)
10000138:	4788      	blx	r1
1000013a:	491f      	ldr	r1, [pc, #124]	; (100001b8 <__get_current_exception+0x22>)
1000013c:	4788      	blx	r1
1000013e:	491f      	ldr	r1, [pc, #124]	; (100001bc <__get_current_exception+0x26>)
10000140:	4788      	blx	r1
10000142:	be00      	bkpt	0x0000
10000144:	e7fd      	b.n	10000142 <platform_entry+0xc>

10000146 <data_cpy_loop>:
10000146:	c901      	ldmia	r1!, {r0}
10000148:	c201      	stmia	r2!, {r0}

1000014a <data_cpy>:
1000014a:	429a      	cmp	r2, r3
1000014c:	d3fb      	bcc.n	10000146 <data_cpy_loop>
1000014e:	4770      	bx	lr

10000150 <binary_info_header>:
10000150:	7188ebf2 	.word	0x7188ebf2
10000154:	10004ffc 	.word	0x10004ffc
10000158:	10005020 	.word	0x10005020
1000015c:	10000164 	.word	0x10000164
10000160:	e71aa390 	.word	0xe71aa390

10000164 <data_cpy_table>:
10000164:	10005020 	.word	0x10005020
10000168:	200000c0 	.word	0x200000c0
1000016c:	20000a6c 	.word	0x20000a6c
10000170:	100059cc 	.word	0x100059cc
10000174:	20040000 	.word	0x20040000
10000178:	20040000 	.word	0x20040000
1000017c:	100059cc 	.word	0x100059cc
10000180:	20041000 	.word	0x20041000
10000184:	20041000 	.word	0x20041000
10000188:	00000000 	.word	0x00000000
1000018c:	4770      	bx	lr

1000018e <wait_for_vector>:
1000018e:	480c      	ldr	r0, [pc, #48]	; (100001c0 <__get_current_exception+0x2a>)
10000190:	f002 ff2e 	bl	10002ff0 <rom_func_lookup>
10000194:	4700      	bx	r0

10000196 <__get_current_exception>:
10000196:	f3ef 8005 	mrs	r0, IPSR
1000019a:	b2c0      	uxtb	r0, r0
1000019c:	4770      	bx	lr
1000019e:	0000      	.short	0x0000
100001a0:	10000200 	.word	0x10000200
100001a4:	e000ed00 	.word	0xe000ed00
100001a8:	d0000000 	.word	0xd0000000
100001ac:	20000a6c 	.word	0x20000a6c
100001b0:	20000d5c 	.word	0x20000d5c
100001b4:	10001041 	.word	0x10001041
100001b8:	100003d9 	.word	0x100003d9
100001bc:	10001161 	.word	0x10001161
100001c0:	00005657 	.word	0x00005657

100001c4 <__bi_46>:
100001c4:	50520006 5360b3ab 10004f6c              ..RP..`SlO..

100001d0 <__bi_34>:
100001d0:	50520006 02031c86 10004f7c              ..RP....|O..

100001dc <__bi_26>:
100001dc:	50520006 9da22254 10004f88              ..RPT"...O..

100001e8 <__bi_18>:
100001e8:	50520005 68f465de 100059cc 00000000     ..RP.e.h.Y......
	...

10000200 <__reset_end>:
10000200:	20042000 	.word	0x20042000
10000204:	10000113 	.word	0x10000113
10000208:	100002c3 	.word	0x100002c3
1000020c:	100002c5 	.word	0x100002c5
10000210:	100002c1 	.word	0x100002c1
10000214:	100002c1 	.word	0x100002c1
10000218:	100002c1 	.word	0x100002c1
1000021c:	100002c1 	.word	0x100002c1
10000220:	100002c1 	.word	0x100002c1
10000224:	100002c1 	.word	0x100002c1
10000228:	100002c1 	.word	0x100002c1
1000022c:	100002c7 	.word	0x100002c7
10000230:	100002c1 	.word	0x100002c1
10000234:	100002c1 	.word	0x100002c1
10000238:	100002c9 	.word	0x100002c9
1000023c:	100002cb 	.word	0x100002cb
10000240:	100002cd 	.word	0x100002cd
10000244:	100002cd 	.word	0x100002cd
10000248:	100002cd 	.word	0x100002cd
1000024c:	100002cd 	.word	0x100002cd
10000250:	100002cd 	.word	0x100002cd
10000254:	100002cd 	.word	0x100002cd
10000258:	100002cd 	.word	0x100002cd
1000025c:	100002cd 	.word	0x100002cd
10000260:	100002cd 	.word	0x100002cd
10000264:	100002cd 	.word	0x100002cd
10000268:	100002cd 	.word	0x100002cd
1000026c:	100002cd 	.word	0x100002cd
10000270:	100002cd 	.word	0x100002cd
10000274:	100002cd 	.word	0x100002cd
10000278:	100002cd 	.word	0x100002cd
1000027c:	100002cd 	.word	0x100002cd
10000280:	100002cd 	.word	0x100002cd
10000284:	100002cd 	.word	0x100002cd
10000288:	100002cd 	.word	0x100002cd
1000028c:	100002cd 	.word	0x100002cd
10000290:	100002cd 	.word	0x100002cd
10000294:	100002cd 	.word	0x100002cd
10000298:	100002cd 	.word	0x100002cd
1000029c:	100002cd 	.word	0x100002cd
100002a0:	100002cd 	.word	0x100002cd
100002a4:	100002cd 	.word	0x100002cd
100002a8:	100002cd 	.word	0x100002cd
100002ac:	100002cd 	.word	0x100002cd
100002b0:	100002cd 	.word	0x100002cd
100002b4:	100002cd 	.word	0x100002cd
100002b8:	100002cd 	.word	0x100002cd
100002bc:	100002cd 	.word	0x100002cd

100002c0 <isr_invalid>:
100002c0:	be00      	bkpt	0x0000

100002c2 <isr_nmi>:
100002c2:	be00      	bkpt	0x0000

100002c4 <isr_hardfault>:
100002c4:	be00      	bkpt	0x0000

100002c6 <isr_svcall>:
100002c6:	be00      	bkpt	0x0000

100002c8 <isr_pendsv>:
100002c8:	be00      	bkpt	0x0000

100002ca <isr_systick>:
100002ca:	be00      	bkpt	0x0000

100002cc <__unhandled_user_irq>:
100002cc:	f7ff ff63 	bl	10000196 <__get_current_exception>
100002d0:	3810      	subs	r0, #16

100002d2 <unhandled_user_irq_num_in_r0>:
100002d2:	be00      	bkpt	0x0000

100002d4 <_init>:
100002d4:	b5f8      	push	{r3, r4, r5, r6, r7, lr}
100002d6:	46c0      	nop			; (mov r8, r8)

100002d8 <__do_global_dtors_aux>:
100002d8:	b510      	push	{r4, lr}
100002da:	4c06      	ldr	r4, [pc, #24]	; (100002f4 <__do_global_dtors_aux+0x1c>)
100002dc:	7823      	ldrb	r3, [r4, #0]
100002de:	2b00      	cmp	r3, #0
100002e0:	d107      	bne.n	100002f2 <__do_global_dtors_aux+0x1a>
100002e2:	4b05      	ldr	r3, [pc, #20]	; (100002f8 <__do_global_dtors_aux+0x20>)
100002e4:	2b00      	cmp	r3, #0
100002e6:	d002      	beq.n	100002ee <__do_global_dtors_aux+0x16>
100002e8:	4804      	ldr	r0, [pc, #16]	; (100002fc <__do_global_dtors_aux+0x24>)
100002ea:	e000      	b.n	100002ee <__do_global_dtors_aux+0x16>
100002ec:	bf00      	nop
100002ee:	2301      	movs	r3, #1
100002f0:	7023      	strb	r3, [r4, #0]
100002f2:	bd10      	pop	{r4, pc}
100002f4:	20000a6c 	.word	0x20000a6c
100002f8:	00000000 	.word	0x00000000
100002fc:	10004bd0 	.word	0x10004bd0

10000300 <frame_dummy>:
10000300:	4b04      	ldr	r3, [pc, #16]	; (10000314 <frame_dummy+0x14>)
10000302:	b510      	push	{r4, lr}
10000304:	2b00      	cmp	r3, #0
10000306:	d003      	beq.n	10000310 <frame_dummy+0x10>
10000308:	4903      	ldr	r1, [pc, #12]	; (10000318 <frame_dummy+0x18>)
1000030a:	4804      	ldr	r0, [pc, #16]	; (1000031c <frame_dummy+0x1c>)
1000030c:	e000      	b.n	10000310 <frame_dummy+0x10>
1000030e:	bf00      	nop
10000310:	bd10      	pop	{r4, pc}
10000312:	46c0      	nop			; (mov r8, r8)
10000314:	00000000 	.word	0x00000000
10000318:	20000a70 	.word	0x20000a70
1000031c:	10004bd0 	.word	0x10004bd0

10000320 <measure_freqs>:
10000320:	b5f8      	push	{r3, r4, r5, r6, r7, lr}
10000322:	46de      	mov	lr, fp
10000324:	4657      	mov	r7, sl
10000326:	464e      	mov	r6, r9
10000328:	4645      	mov	r5, r8
1000032a:	2001      	movs	r0, #1
1000032c:	b5e0      	push	{r5, r6, r7, lr}
1000032e:	f001 f925 	bl	1000157c <frequency_count_khz>
10000332:	4683      	mov	fp, r0
10000334:	2002      	movs	r0, #2
10000336:	f001 f921 	bl	1000157c <frequency_count_khz>
1000033a:	4682      	mov	sl, r0
1000033c:	2003      	movs	r0, #3
1000033e:	f001 f91d 	bl	1000157c <frequency_count_khz>
10000342:	4681      	mov	r9, r0
10000344:	2009      	movs	r0, #9
10000346:	f001 f919 	bl	1000157c <frequency_count_khz>
1000034a:	4680      	mov	r8, r0
1000034c:	200a      	movs	r0, #10
1000034e:	f001 f915 	bl	1000157c <frequency_count_khz>
10000352:	0007      	movs	r7, r0
10000354:	200b      	movs	r0, #11
10000356:	f001 f911 	bl	1000157c <frequency_count_khz>
1000035a:	0006      	movs	r6, r0
1000035c:	200c      	movs	r0, #12
1000035e:	f001 f90d 	bl	1000157c <frequency_count_khz>
10000362:	0005      	movs	r5, r0
10000364:	200d      	movs	r0, #13
10000366:	f001 f909 	bl	1000157c <frequency_count_khz>
1000036a:	0004      	movs	r4, r0
1000036c:	4659      	mov	r1, fp
1000036e:	4812      	ldr	r0, [pc, #72]	; (100003b8 <measure_freqs+0x98>)
10000370:	f003 ff12 	bl	10004198 <__wrap_printf>
10000374:	4651      	mov	r1, sl
10000376:	4811      	ldr	r0, [pc, #68]	; (100003bc <measure_freqs+0x9c>)
10000378:	f003 ff0e 	bl	10004198 <__wrap_printf>
1000037c:	4649      	mov	r1, r9
1000037e:	4810      	ldr	r0, [pc, #64]	; (100003c0 <measure_freqs+0xa0>)
10000380:	f003 ff0a 	bl	10004198 <__wrap_printf>
10000384:	4641      	mov	r1, r8
10000386:	480f      	ldr	r0, [pc, #60]	; (100003c4 <measure_freqs+0xa4>)
10000388:	f003 ff06 	bl	10004198 <__wrap_printf>
1000038c:	0039      	movs	r1, r7
1000038e:	480e      	ldr	r0, [pc, #56]	; (100003c8 <measure_freqs+0xa8>)
10000390:	f003 ff02 	bl	10004198 <__wrap_printf>
10000394:	0031      	movs	r1, r6
10000396:	480d      	ldr	r0, [pc, #52]	; (100003cc <measure_freqs+0xac>)
10000398:	f003 fefe 	bl	10004198 <__wrap_printf>
1000039c:	0029      	movs	r1, r5
1000039e:	480c      	ldr	r0, [pc, #48]	; (100003d0 <measure_freqs+0xb0>)
100003a0:	f003 fefa 	bl	10004198 <__wrap_printf>
100003a4:	0021      	movs	r1, r4
100003a6:	480b      	ldr	r0, [pc, #44]	; (100003d4 <measure_freqs+0xb4>)
100003a8:	f003 fef6 	bl	10004198 <__wrap_printf>
100003ac:	bc3c      	pop	{r2, r3, r4, r5}
100003ae:	4690      	mov	r8, r2
100003b0:	4699      	mov	r9, r3
100003b2:	46a2      	mov	sl, r4
100003b4:	46ab      	mov	fp, r5
100003b6:	bdf8      	pop	{r3, r4, r5, r6, r7, pc}
100003b8:	10004bd0 	.word	0x10004bd0
100003bc:	10004be4 	.word	0x10004be4
100003c0:	10004bf8 	.word	0x10004bf8
100003c4:	10004c0c 	.word	0x10004c0c
100003c8:	10004c20 	.word	0x10004c20
100003cc:	10004c34 	.word	0x10004c34
100003d0:	10004c48 	.word	0x10004c48
100003d4:	10004c5c 	.word	0x10004c5c

100003d8 <main>:
100003d8:	b510      	push	{r4, lr}
100003da:	4c12      	ldr	r4, [pc, #72]	; (10000424 <main+0x4c>)
100003dc:	b082      	sub	sp, #8
100003de:	f003 fee7 	bl	100041b0 <stdio_init_all>
100003e2:	4811      	ldr	r0, [pc, #68]	; (10000428 <main+0x50>)
100003e4:	f003 fe28 	bl	10004038 <__wrap_puts>
100003e8:	f7ff ff9a 	bl	10000320 <measure_freqs>
100003ec:	0023      	movs	r3, r4
100003ee:	2201      	movs	r2, #1
100003f0:	2101      	movs	r1, #1
100003f2:	9400      	str	r4, [sp, #0]
100003f4:	2005      	movs	r0, #5
100003f6:	f000 fed3 	bl	100011a0 <clock_configure>
100003fa:	480c      	ldr	r0, [pc, #48]	; (1000042c <main+0x54>)
100003fc:	f001 f928 	bl	10001650 <pll_deinit>
10000400:	0023      	movs	r3, r4
10000402:	2200      	movs	r2, #0
10000404:	2100      	movs	r1, #0
10000406:	9400      	str	r4, [sp, #0]
10000408:	2006      	movs	r0, #6
1000040a:	f000 fec9 	bl	100011a0 <clock_configure>
1000040e:	f003 fecf 	bl	100041b0 <stdio_init_all>
10000412:	f7ff ff85 	bl	10000320 <measure_freqs>
10000416:	4806      	ldr	r0, [pc, #24]	; (10000430 <main+0x58>)
10000418:	f003 febe 	bl	10004198 <__wrap_printf>
1000041c:	2000      	movs	r0, #0
1000041e:	b002      	add	sp, #8
10000420:	bd10      	pop	{r4, pc}
10000422:	46c0      	nop			; (mov r8, r8)
10000424:	02dc6c00 	.word	0x02dc6c00
10000428:	10004c70 	.word	0x10004c70
1000042c:	40028000 	.word	0x40028000
10000430:	10004c80 	.word	0x10004c80

10000434 <gpio_set_function>:
10000434:	4a09      	ldr	r2, [pc, #36]	; (1000045c <gpio_set_function+0x28>)
10000436:	0083      	lsls	r3, r0, #2
10000438:	4694      	mov	ip, r2
1000043a:	2240      	movs	r2, #64	; 0x40
1000043c:	4463      	add	r3, ip
1000043e:	b510      	push	{r4, lr}
10000440:	681c      	ldr	r4, [r3, #0]
10000442:	00c0      	lsls	r0, r0, #3
10000444:	4062      	eors	r2, r4
10000446:	24c0      	movs	r4, #192	; 0xc0
10000448:	4014      	ands	r4, r2
1000044a:	2280      	movs	r2, #128	; 0x80
1000044c:	0152      	lsls	r2, r2, #5
1000044e:	4313      	orrs	r3, r2
10000450:	601c      	str	r4, [r3, #0]
10000452:	4b03      	ldr	r3, [pc, #12]	; (10000460 <gpio_set_function+0x2c>)
10000454:	469c      	mov	ip, r3
10000456:	4460      	add	r0, ip
10000458:	6041      	str	r1, [r0, #4]
1000045a:	bd10      	pop	{r4, pc}
1000045c:	4001c004 	.word	0x4001c004
10000460:	40014000 	.word	0x40014000

10000464 <hw_claim_or_assert>:
10000464:	b5f8      	push	{r3, r4, r5, r6, r7, lr}
10000466:	46ce      	mov	lr, r9
10000468:	4647      	mov	r7, r8
1000046a:	4691      	mov	r9, r2
1000046c:	b580      	push	{r7, lr}
1000046e:	f3ef 8710 	mrs	r7, PRIMASK
10000472:	b672      	cpsid	i
10000474:	4e12      	ldr	r6, [pc, #72]	; (100004c0 <hw_claim_or_assert+0x5c>)
10000476:	6833      	ldr	r3, [r6, #0]
10000478:	2b00      	cmp	r3, #0
1000047a:	d0fc      	beq.n	10000476 <hw_claim_or_assert+0x12>
1000047c:	f3bf 8f5f 	dmb	sy
10000480:	08cb      	lsrs	r3, r1, #3
10000482:	5cc5      	ldrb	r5, [r0, r3]
10000484:	2407      	movs	r4, #7
10000486:	18c2      	adds	r2, r0, r3
10000488:	0028      	movs	r0, r5
1000048a:	2301      	movs	r3, #1
1000048c:	400c      	ands	r4, r1
1000048e:	4694      	mov	ip, r2
10000490:	40e0      	lsrs	r0, r4
10000492:	001a      	movs	r2, r3
10000494:	4002      	ands	r2, r0
10000496:	4690      	mov	r8, r2
10000498:	4203      	tst	r3, r0
1000049a:	d10d      	bne.n	100004b8 <hw_claim_or_assert+0x54>
1000049c:	40a3      	lsls	r3, r4
1000049e:	4662      	mov	r2, ip
100004a0:	432b      	orrs	r3, r5
100004a2:	7013      	strb	r3, [r2, #0]
100004a4:	f3bf 8f5f 	dmb	sy
100004a8:	4643      	mov	r3, r8
100004aa:	6033      	str	r3, [r6, #0]
100004ac:	f387 8810 	msr	PRIMASK, r7
100004b0:	bc0c      	pop	{r2, r3}
100004b2:	4690      	mov	r8, r2
100004b4:	4699      	mov	r9, r3
100004b6:	bdf8      	pop	{r3, r4, r5, r6, r7, pc}
100004b8:	4648      	mov	r0, r9
100004ba:	f000 fe53 	bl	10001164 <panic>
100004be:	46c0      	nop			; (mov r8, r8)
100004c0:	d000012c 	.word	0xd000012c

100004c4 <spin_locks_reset>:
100004c4:	2100      	movs	r1, #0
100004c6:	4b04      	ldr	r3, [pc, #16]	; (100004d8 <spin_locks_reset+0x14>)
100004c8:	4a04      	ldr	r2, [pc, #16]	; (100004dc <spin_locks_reset+0x18>)
100004ca:	f3bf 8f5f 	dmb	sy
100004ce:	c302      	stmia	r3!, {r1}
100004d0:	4293      	cmp	r3, r2
100004d2:	d1fa      	bne.n	100004ca <spin_locks_reset+0x6>
100004d4:	4770      	bx	lr
100004d6:	46c0      	nop			; (mov r8, r8)
100004d8:	d0000100 	.word	0xd0000100
100004dc:	d0000180 	.word	0xd0000180

100004e0 <next_striped_spin_lock_num>:
100004e0:	4a04      	ldr	r2, [pc, #16]	; (100004f4 <next_striped_spin_lock_num+0x14>)
100004e2:	7810      	ldrb	r0, [r2, #0]
100004e4:	1c43      	adds	r3, r0, #1
100004e6:	b2db      	uxtb	r3, r3
100004e8:	2b17      	cmp	r3, #23
100004ea:	d900      	bls.n	100004ee <next_striped_spin_lock_num+0xe>
100004ec:	2310      	movs	r3, #16
100004ee:	7013      	strb	r3, [r2, #0]
100004f0:	4770      	bx	lr
100004f2:	46c0      	nop			; (mov r8, r8)
100004f4:	20000188 	.word	0x20000188

100004f8 <running_on_fpga>:
100004f8:	4b02      	ldr	r3, [pc, #8]	; (10000504 <running_on_fpga+0xc>)
100004fa:	6818      	ldr	r0, [r3, #0]
100004fc:	0780      	lsls	r0, r0, #30
100004fe:	0fc0      	lsrs	r0, r0, #31
10000500:	4770      	bx	lr
10000502:	46c0      	nop			; (mov r8, r8)
10000504:	4006c000 	.word	0x4006c000

10000508 <uart_init>:
10000508:	b5f0      	push	{r4, r5, r6, r7, lr}
1000050a:	46c6      	mov	lr, r8
1000050c:	0005      	movs	r5, r0
1000050e:	b500      	push	{lr}
10000510:	2006      	movs	r0, #6
10000512:	000e      	movs	r6, r1
10000514:	f001 f82c 	bl	10001570 <clock_get_hz>
10000518:	2800      	cmp	r0, #0
1000051a:	d04d      	beq.n	100005b8 <uart_init+0xb0>
1000051c:	4b29      	ldr	r3, [pc, #164]	; (100005c4 <uart_init+0xbc>)
1000051e:	492a      	ldr	r1, [pc, #168]	; (100005c8 <uart_init+0xc0>)
10000520:	18eb      	adds	r3, r5, r3
10000522:	425a      	negs	r2, r3
10000524:	4153      	adcs	r3, r2
10000526:	2280      	movs	r2, #128	; 0x80
10000528:	03d2      	lsls	r2, r2, #15
1000052a:	4694      	mov	ip, r2
1000052c:	425b      	negs	r3, r3
1000052e:	4013      	ands	r3, r2
10000530:	4a26      	ldr	r2, [pc, #152]	; (100005cc <uart_init+0xc4>)
10000532:	4463      	add	r3, ip
10000534:	6013      	str	r3, [r2, #0]
10000536:	4a26      	ldr	r2, [pc, #152]	; (100005d0 <uart_init+0xc8>)
10000538:	6013      	str	r3, [r2, #0]
1000053a:	001c      	movs	r4, r3
1000053c:	688a      	ldr	r2, [r1, #8]
1000053e:	4394      	bics	r4, r2
10000540:	d1fb      	bne.n	1000053a <uart_init+0x32>
10000542:	4b20      	ldr	r3, [pc, #128]	; (100005c4 <uart_init+0xbc>)
10000544:	2180      	movs	r1, #128	; 0x80
10000546:	18eb      	adds	r3, r5, r3
10000548:	425a      	negs	r2, r3
1000054a:	4153      	adcs	r3, r2
1000054c:	4a21      	ldr	r2, [pc, #132]	; (100005d4 <uart_init+0xcc>)
1000054e:	005b      	lsls	r3, r3, #1
10000550:	0049      	lsls	r1, r1, #1
10000552:	2006      	movs	r0, #6
10000554:	5299      	strh	r1, [r3, r2]
10000556:	f001 f80b 	bl	10001570 <clock_get_hz>
1000055a:	0031      	movs	r1, r6
1000055c:	00c0      	lsls	r0, r0, #3
1000055e:	f002 fda1 	bl	100030a4 <__wrap___aeabi_uidiv>
10000562:	267f      	movs	r6, #127	; 0x7f
10000564:	4b1c      	ldr	r3, [pc, #112]	; (100005d8 <uart_init+0xd0>)
10000566:	4006      	ands	r6, r0
10000568:	09c7      	lsrs	r7, r0, #7
1000056a:	3601      	adds	r6, #1
1000056c:	0876      	lsrs	r6, r6, #1
1000056e:	626f      	str	r7, [r5, #36]	; 0x24
10000570:	429f      	cmp	r7, r3
10000572:	d024      	beq.n	100005be <uart_init+0xb6>
10000574:	62ae      	str	r6, [r5, #40]	; 0x28
10000576:	232c      	movs	r3, #44	; 0x2c
10000578:	4698      	mov	r8, r3
1000057a:	2480      	movs	r4, #128	; 0x80
1000057c:	44a8      	add	r8, r5
1000057e:	4643      	mov	r3, r8
10000580:	01a4      	lsls	r4, r4, #6
10000582:	431c      	orrs	r4, r3
10000584:	2300      	movs	r3, #0
10000586:	2006      	movs	r0, #6
10000588:	6023      	str	r3, [r4, #0]
1000058a:	f000 fff1 	bl	10001570 <clock_get_hz>
1000058e:	01b9      	lsls	r1, r7, #6
10000590:	1989      	adds	r1, r1, r6
10000592:	0080      	lsls	r0, r0, #2
10000594:	f002 fd86 	bl	100030a4 <__wrap___aeabi_uidiv>
10000598:	2360      	movs	r3, #96	; 0x60
1000059a:	6aea      	ldr	r2, [r5, #44]	; 0x2c
1000059c:	4641      	mov	r1, r8
1000059e:	4053      	eors	r3, r2
100005a0:	226e      	movs	r2, #110	; 0x6e
100005a2:	401a      	ands	r2, r3
100005a4:	2380      	movs	r3, #128	; 0x80
100005a6:	015b      	lsls	r3, r3, #5
100005a8:	430b      	orrs	r3, r1
100005aa:	601a      	str	r2, [r3, #0]
100005ac:	4b0b      	ldr	r3, [pc, #44]	; (100005dc <uart_init+0xd4>)
100005ae:	632b      	str	r3, [r5, #48]	; 0x30
100005b0:	2310      	movs	r3, #16
100005b2:	6023      	str	r3, [r4, #0]
100005b4:	3b0d      	subs	r3, #13
100005b6:	64ab      	str	r3, [r5, #72]	; 0x48
100005b8:	bc04      	pop	{r2}
100005ba:	4690      	mov	r8, r2
100005bc:	bdf0      	pop	{r4, r5, r6, r7, pc}
100005be:	62ac      	str	r4, [r5, #40]	; 0x28
100005c0:	e7d9      	b.n	10000576 <uart_init+0x6e>
100005c2:	46c0      	nop			; (mov r8, r8)
100005c4:	bffc8000 	.word	0xbffc8000
100005c8:	4000c000 	.word	0x4000c000
100005cc:	4000e000 	.word	0x4000e000
100005d0:	4000f000 	.word	0x4000f000
100005d4:	20000b2c 	.word	0x20000b2c
100005d8:	0000ffff 	.word	0x0000ffff
100005dc:	00000301 	.word	0x00000301

100005e0 <timer_pool_entry_comparator>:
100005e0:	6883      	ldr	r3, [r0, #8]
100005e2:	480b      	ldr	r0, [pc, #44]	; (10000610 <timer_pool_entry_comparator+0x30>)
100005e4:	b510      	push	{r4, lr}
100005e6:	4684      	mov	ip, r0
100005e8:	4461      	add	r1, ip
100005ea:	4462      	add	r2, ip
100005ec:	0109      	lsls	r1, r1, #4
100005ee:	0112      	lsls	r2, r2, #4
100005f0:	189a      	adds	r2, r3, r2
100005f2:	1859      	adds	r1, r3, r1
100005f4:	6854      	ldr	r4, [r2, #4]
100005f6:	684b      	ldr	r3, [r1, #4]
100005f8:	2001      	movs	r0, #1
100005fa:	429c      	cmp	r4, r3
100005fc:	d801      	bhi.n	10000602 <timer_pool_entry_comparator+0x22>
100005fe:	d002      	beq.n	10000606 <timer_pool_entry_comparator+0x26>
10000600:	2000      	movs	r0, #0
10000602:	b2c0      	uxtb	r0, r0
10000604:	bd10      	pop	{r4, pc}
10000606:	6812      	ldr	r2, [r2, #0]
10000608:	680b      	ldr	r3, [r1, #0]
1000060a:	429a      	cmp	r2, r3
1000060c:	d8f9      	bhi.n	10000602 <timer_pool_entry_comparator+0x22>
1000060e:	e7f7      	b.n	10000600 <timer_pool_entry_comparator+0x20>
10000610:	0fffffff 	.word	0x0fffffff

10000614 <add_alarm_under_lock>:
10000614:	b5f0      	push	{r4, r5, r6, r7, lr}
10000616:	4657      	mov	r7, sl
10000618:	4645      	mov	r5, r8
1000061a:	46de      	mov	lr, fp
1000061c:	464e      	mov	r6, r9
1000061e:	b5e0      	push	{r5, r6, r7, lr}
10000620:	b083      	sub	sp, #12
10000622:	001f      	movs	r7, r3
10000624:	ab0f      	add	r3, sp, #60	; 0x3c
10000626:	781b      	ldrb	r3, [r3, #0]
10000628:	9c0e      	ldr	r4, [sp, #56]	; 0x38
1000062a:	0005      	movs	r5, r0
1000062c:	4692      	mov	sl, r2
1000062e:	9301      	str	r3, [sp, #4]
10000630:	2c00      	cmp	r4, #0
10000632:	d10d      	bne.n	10000650 <add_alarm_under_lock+0x3c>
10000634:	6802      	ldr	r2, [r0, #0]
10000636:	7b94      	ldrb	r4, [r2, #14]
10000638:	2c00      	cmp	r4, #0
1000063a:	d056      	beq.n	100006ea <add_alarm_under_lock+0xd6>
1000063c:	6811      	ldr	r1, [r2, #0]
1000063e:	0063      	lsls	r3, r4, #1
10000640:	468c      	mov	ip, r1
10000642:	191b      	adds	r3, r3, r4
10000644:	4463      	add	r3, ip
10000646:	3b03      	subs	r3, #3
10000648:	785b      	ldrb	r3, [r3, #1]
1000064a:	7393      	strb	r3, [r2, #14]
1000064c:	2b00      	cmp	r3, #0
1000064e:	d054      	beq.n	100006fa <add_alarm_under_lock+0xe6>
10000650:	68aa      	ldr	r2, [r5, #8]
10000652:	b2e3      	uxtb	r3, r4
10000654:	4694      	mov	ip, r2
10000656:	4652      	mov	r2, sl
10000658:	469b      	mov	fp, r3
1000065a:	4b38      	ldr	r3, [pc, #224]	; (1000073c <add_alarm_under_lock+0x128>)
1000065c:	682e      	ldr	r6, [r5, #0]
1000065e:	18e3      	adds	r3, r4, r3
10000660:	011b      	lsls	r3, r3, #4
10000662:	4463      	add	r3, ip
10000664:	601a      	str	r2, [r3, #0]
10000666:	9a0c      	ldr	r2, [sp, #48]	; 0x30
10000668:	605f      	str	r7, [r3, #4]
1000066a:	609a      	str	r2, [r3, #8]
1000066c:	9a0d      	ldr	r2, [sp, #52]	; 0x34
1000066e:	60da      	str	r2, [r3, #12]
10000670:	23d0      	movs	r3, #208	; 0xd0
10000672:	2280      	movs	r2, #128	; 0x80
10000674:	061b      	lsls	r3, r3, #24
10000676:	0312      	lsls	r2, r2, #12
10000678:	615a      	str	r2, [r3, #20]
1000067a:	0063      	lsls	r3, r4, #1
1000067c:	191b      	adds	r3, r3, r4
1000067e:	3b03      	subs	r3, #3
10000680:	4698      	mov	r8, r3
10000682:	2200      	movs	r2, #0
10000684:	6833      	ldr	r3, [r6, #0]
10000686:	4443      	add	r3, r8
10000688:	709a      	strb	r2, [r3, #2]
1000068a:	705a      	strb	r2, [r3, #1]
1000068c:	701a      	strb	r2, [r3, #0]
1000068e:	7b73      	ldrb	r3, [r6, #13]
10000690:	4699      	mov	r9, r3
10000692:	2b00      	cmp	r3, #0
10000694:	d017      	beq.n	100006c6 <add_alarm_under_lock+0xb2>
10000696:	465a      	mov	r2, fp
10000698:	0019      	movs	r1, r3
1000069a:	68b0      	ldr	r0, [r6, #8]
1000069c:	6873      	ldr	r3, [r6, #4]
1000069e:	4798      	blx	r3
100006a0:	6832      	ldr	r2, [r6, #0]
100006a2:	2800      	cmp	r0, #0
100006a4:	d12b      	bne.n	100006fe <add_alarm_under_lock+0xea>
100006a6:	4643      	mov	r3, r8
100006a8:	18d1      	adds	r1, r2, r3
100006aa:	464b      	mov	r3, r9
100006ac:	4658      	mov	r0, fp
100006ae:	005b      	lsls	r3, r3, #1
100006b0:	444b      	add	r3, r9
100006b2:	3b03      	subs	r3, #3
100006b4:	18d3      	adds	r3, r2, r3
100006b6:	7098      	strb	r0, [r3, #2]
100006b8:	4640      	mov	r0, r8
100006ba:	5c12      	ldrb	r2, [r2, r0]
100006bc:	2a00      	cmp	r2, #0
100006be:	d000      	beq.n	100006c2 <add_alarm_under_lock+0xae>
100006c0:	705a      	strb	r2, [r3, #1]
100006c2:	464b      	mov	r3, r9
100006c4:	700b      	strb	r3, [r1, #0]
100006c6:	465b      	mov	r3, fp
100006c8:	7373      	strb	r3, [r6, #13]
100006ca:	4652      	mov	r2, sl
100006cc:	003b      	movs	r3, r7
100006ce:	7d28      	ldrb	r0, [r5, #20]
100006d0:	f000 fa1a 	bl	10000b08 <hardware_alarm_set_target>
100006d4:	1e06      	subs	r6, r0, #0
100006d6:	d002      	beq.n	100006de <add_alarm_under_lock+0xca>
100006d8:	9b01      	ldr	r3, [sp, #4]
100006da:	2b00      	cmp	r3, #0
100006dc:	d026      	beq.n	1000072c <add_alarm_under_lock+0x118>
100006de:	9b10      	ldr	r3, [sp, #64]	; 0x40
100006e0:	2b00      	cmp	r3, #0
100006e2:	d028      	beq.n	10000736 <add_alarm_under_lock+0x122>
100006e4:	0020      	movs	r0, r4
100006e6:	701e      	strb	r6, [r3, #0]
100006e8:	e000      	b.n	100006ec <add_alarm_under_lock+0xd8>
100006ea:	2000      	movs	r0, #0
100006ec:	b003      	add	sp, #12
100006ee:	bc3c      	pop	{r2, r3, r4, r5}
100006f0:	4690      	mov	r8, r2
100006f2:	4699      	mov	r9, r3
100006f4:	46a2      	mov	sl, r4
100006f6:	46ab      	mov	fp, r5
100006f8:	bdf0      	pop	{r4, r5, r6, r7, pc}
100006fa:	73d3      	strb	r3, [r2, #15]
100006fc:	e7a8      	b.n	10000650 <add_alarm_under_lock+0x3c>
100006fe:	464b      	mov	r3, r9
10000700:	005b      	lsls	r3, r3, #1
10000702:	444b      	add	r3, r9
10000704:	3b03      	subs	r3, #3
10000706:	18d1      	adds	r1, r2, r3
10000708:	468c      	mov	ip, r1
1000070a:	4641      	mov	r1, r8
1000070c:	4648      	mov	r0, r9
1000070e:	1851      	adds	r1, r2, r1
10000710:	7088      	strb	r0, [r1, #2]
10000712:	5cd3      	ldrb	r3, [r2, r3]
10000714:	2b00      	cmp	r3, #0
10000716:	d000      	beq.n	1000071a <add_alarm_under_lock+0x106>
10000718:	704b      	strb	r3, [r1, #1]
1000071a:	465b      	mov	r3, fp
1000071c:	4662      	mov	r2, ip
1000071e:	7013      	strb	r3, [r2, #0]
10000720:	464b      	mov	r3, r9
10000722:	0020      	movs	r0, r4
10000724:	7373      	strb	r3, [r6, #13]
10000726:	45a1      	cmp	r9, r4
10000728:	d1e0      	bne.n	100006ec <add_alarm_under_lock+0xd8>
1000072a:	e7ce      	b.n	100006ca <add_alarm_under_lock+0xb6>
1000072c:	4659      	mov	r1, fp
1000072e:	6828      	ldr	r0, [r5, #0]
10000730:	f000 fc48 	bl	10000fc4 <ph_delete>
10000734:	e7d3      	b.n	100006de <add_alarm_under_lock+0xca>
10000736:	0020      	movs	r0, r4
10000738:	e7d8      	b.n	100006ec <add_alarm_under_lock+0xd8>
1000073a:	46c0      	nop			; (mov r8, r8)
1000073c:	0fffffff 	.word	0x0fffffff

10000740 <alarm_pool_alarm_callback>:
10000740:	b5f0      	push	{r4, r5, r6, r7, lr}
10000742:	46de      	mov	lr, fp
10000744:	464e      	mov	r6, r9
10000746:	4657      	mov	r7, sl
10000748:	4645      	mov	r5, r8
1000074a:	2300      	movs	r3, #0
1000074c:	b5e0      	push	{r5, r6, r7, lr}
1000074e:	b08d      	sub	sp, #52	; 0x34
10000750:	930a      	str	r3, [sp, #40]	; 0x28
10000752:	4b71      	ldr	r3, [pc, #452]	; (10000918 <alarm_pool_alarm_callback+0x1d8>)
10000754:	0082      	lsls	r2, r0, #2
10000756:	58d3      	ldr	r3, [r2, r3]
10000758:	900b      	str	r0, [sp, #44]	; 0x2c
1000075a:	4699      	mov	r9, r3
1000075c:	2300      	movs	r3, #0
1000075e:	469b      	mov	fp, r3
10000760:	464b      	mov	r3, r9
10000762:	9307      	str	r3, [sp, #28]
10000764:	f000 f980 	bl	10000a68 <time_us_64>
10000768:	9c07      	ldr	r4, [sp, #28]
1000076a:	0006      	movs	r6, r0
1000076c:	000f      	movs	r7, r1
1000076e:	6862      	ldr	r2, [r4, #4]
10000770:	f3ef 8510 	mrs	r5, PRIMASK
10000774:	b672      	cpsid	i
10000776:	6813      	ldr	r3, [r2, #0]
10000778:	2b00      	cmp	r3, #0
1000077a:	d0fc      	beq.n	10000776 <alarm_pool_alarm_callback+0x36>
1000077c:	0022      	movs	r2, r4
1000077e:	9407      	str	r4, [sp, #28]
10000780:	f3bf 8f5f 	dmb	sy
10000784:	6824      	ldr	r4, [r4, #0]
10000786:	7b63      	ldrb	r3, [r4, #13]
10000788:	4699      	mov	r9, r3
1000078a:	2b00      	cmp	r3, #0
1000078c:	d100      	bne.n	10000790 <alarm_pool_alarm_callback+0x50>
1000078e:	e070      	b.n	10000872 <alarm_pool_alarm_callback+0x132>
10000790:	6892      	ldr	r2, [r2, #8]
10000792:	4b62      	ldr	r3, [pc, #392]	; (1000091c <alarm_pool_alarm_callback+0x1dc>)
10000794:	4690      	mov	r8, r2
10000796:	444b      	add	r3, r9
10000798:	011b      	lsls	r3, r3, #4
1000079a:	4498      	add	r8, r3
1000079c:	4643      	mov	r3, r8
1000079e:	681a      	ldr	r2, [r3, #0]
100007a0:	685b      	ldr	r3, [r3, #4]
100007a2:	0010      	movs	r0, r2
100007a4:	0019      	movs	r1, r3
100007a6:	1b80      	subs	r0, r0, r6
100007a8:	41b9      	sbcs	r1, r7
100007aa:	2900      	cmp	r1, #0
100007ac:	dd68      	ble.n	10000880 <alarm_pool_alarm_callback+0x140>
100007ae:	980b      	ldr	r0, [sp, #44]	; 0x2c
100007b0:	f000 f9aa 	bl	10000b08 <hardware_alarm_set_target>
100007b4:	2300      	movs	r3, #0
100007b6:	2600      	movs	r6, #0
100007b8:	4698      	mov	r8, r3
100007ba:	2700      	movs	r7, #0
100007bc:	469a      	mov	sl, r3
100007be:	9c07      	ldr	r4, [sp, #28]
100007c0:	6863      	ldr	r3, [r4, #4]
100007c2:	f3bf 8f5f 	dmb	sy
100007c6:	465a      	mov	r2, fp
100007c8:	601a      	str	r2, [r3, #0]
100007ca:	f385 8810 	msr	PRIMASK, r5
100007ce:	4653      	mov	r3, sl
100007d0:	2b00      	cmp	r3, #0
100007d2:	d108      	bne.n	100007e6 <alarm_pool_alarm_callback+0xa6>
100007d4:	2800      	cmp	r0, #0
100007d6:	d1c5      	bne.n	10000764 <alarm_pool_alarm_callback+0x24>
100007d8:	b00d      	add	sp, #52	; 0x34
100007da:	bc3c      	pop	{r2, r3, r4, r5}
100007dc:	4690      	mov	r8, r2
100007de:	4699      	mov	r9, r3
100007e0:	46a2      	mov	sl, r4
100007e2:	46ab      	mov	fp, r5
100007e4:	bdf0      	pop	{r4, r5, r6, r7, pc}
100007e6:	23d0      	movs	r3, #208	; 0xd0
100007e8:	2280      	movs	r2, #128	; 0x80
100007ea:	2180      	movs	r1, #128	; 0x80
100007ec:	061b      	lsls	r3, r3, #24
100007ee:	0392      	lsls	r2, r2, #14
100007f0:	0309      	lsls	r1, r1, #12
100007f2:	615a      	str	r2, [r3, #20]
100007f4:	6199      	str	r1, [r3, #24]
100007f6:	619a      	str	r2, [r3, #24]
100007f8:	9b0a      	ldr	r3, [sp, #40]	; 0x28
100007fa:	4641      	mov	r1, r8
100007fc:	0218      	lsls	r0, r3, #8
100007fe:	464b      	mov	r3, r9
10000800:	4318      	orrs	r0, r3
10000802:	47d0      	blx	sl
10000804:	9008      	str	r0, [sp, #32]
10000806:	9109      	str	r1, [sp, #36]	; 0x24
10000808:	6862      	ldr	r2, [r4, #4]
1000080a:	f3ef 8510 	mrs	r5, PRIMASK
1000080e:	b672      	cpsid	i
10000810:	6813      	ldr	r3, [r2, #0]
10000812:	2b00      	cmp	r3, #0
10000814:	d0fc      	beq.n	10000810 <alarm_pool_alarm_callback+0xd0>
10000816:	9407      	str	r4, [sp, #28]
10000818:	f3bf 8f5f 	dmb	sy
1000081c:	9908      	ldr	r1, [sp, #32]
1000081e:	9a09      	ldr	r2, [sp, #36]	; 0x24
10000820:	2a00      	cmp	r2, #0
10000822:	db49      	blt.n	100008b8 <alarm_pool_alarm_callback+0x178>
10000824:	4311      	orrs	r1, r2
10000826:	d003      	beq.n	10000830 <alarm_pool_alarm_callback+0xf0>
10000828:	9b07      	ldr	r3, [sp, #28]
1000082a:	691b      	ldr	r3, [r3, #16]
1000082c:	2b00      	cmp	r3, #0
1000082e:	d15e      	bne.n	100008ee <alarm_pool_alarm_callback+0x1ae>
10000830:	9b07      	ldr	r3, [sp, #28]
10000832:	681b      	ldr	r3, [r3, #0]
10000834:	7bda      	ldrb	r2, [r3, #15]
10000836:	2a00      	cmp	r2, #0
10000838:	d007      	beq.n	1000084a <alarm_pool_alarm_callback+0x10a>
1000083a:	0051      	lsls	r1, r2, #1
1000083c:	188a      	adds	r2, r1, r2
1000083e:	6819      	ldr	r1, [r3, #0]
10000840:	468c      	mov	ip, r1
10000842:	4649      	mov	r1, r9
10000844:	4462      	add	r2, ip
10000846:	3a03      	subs	r2, #3
10000848:	7051      	strb	r1, [r2, #1]
1000084a:	464a      	mov	r2, r9
1000084c:	73da      	strb	r2, [r3, #15]
1000084e:	464b      	mov	r3, r9
10000850:	9a07      	ldr	r2, [sp, #28]
10000852:	3b01      	subs	r3, #1
10000854:	68d1      	ldr	r1, [r2, #12]
10000856:	5cca      	ldrb	r2, [r1, r3]
10000858:	3201      	adds	r2, #1
1000085a:	54ca      	strb	r2, [r1, r3]
1000085c:	465b      	mov	r3, fp
1000085e:	9a07      	ldr	r2, [sp, #28]
10000860:	6113      	str	r3, [r2, #16]
10000862:	6853      	ldr	r3, [r2, #4]
10000864:	f3bf 8f5f 	dmb	sy
10000868:	465a      	mov	r2, fp
1000086a:	601a      	str	r2, [r3, #0]
1000086c:	f385 8810 	msr	PRIMASK, r5
10000870:	e778      	b.n	10000764 <alarm_pool_alarm_callback+0x24>
10000872:	2300      	movs	r3, #0
10000874:	2600      	movs	r6, #0
10000876:	4698      	mov	r8, r3
10000878:	2700      	movs	r7, #0
1000087a:	469a      	mov	sl, r3
1000087c:	2000      	movs	r0, #0
1000087e:	e79e      	b.n	100007be <alarm_pool_alarm_callback+0x7e>
10000880:	2900      	cmp	r1, #0
10000882:	d102      	bne.n	1000088a <alarm_pool_alarm_callback+0x14a>
10000884:	2800      	cmp	r0, #0
10000886:	d000      	beq.n	1000088a <alarm_pool_alarm_callback+0x14a>
10000888:	e791      	b.n	100007ae <alarm_pool_alarm_callback+0x6e>
1000088a:	2101      	movs	r1, #1
1000088c:	0020      	movs	r0, r4
1000088e:	f000 fafb 	bl	10000e88 <ph_remove_head_reserve>
10000892:	4643      	mov	r3, r8
10000894:	681e      	ldr	r6, [r3, #0]
10000896:	685f      	ldr	r7, [r3, #4]
10000898:	689b      	ldr	r3, [r3, #8]
1000089a:	9a07      	ldr	r2, [sp, #28]
1000089c:	469a      	mov	sl, r3
1000089e:	4643      	mov	r3, r8
100008a0:	68db      	ldr	r3, [r3, #12]
100008a2:	4698      	mov	r8, r3
100008a4:	68d3      	ldr	r3, [r2, #12]
100008a6:	444b      	add	r3, r9
100008a8:	3b01      	subs	r3, #1
100008aa:	781b      	ldrb	r3, [r3, #0]
100008ac:	930a      	str	r3, [sp, #40]	; 0x28
100008ae:	021b      	lsls	r3, r3, #8
100008b0:	4303      	orrs	r3, r0
100008b2:	6113      	str	r3, [r2, #16]
100008b4:	2000      	movs	r0, #0
100008b6:	e782      	b.n	100007be <alarm_pool_alarm_callback+0x7e>
100008b8:	6923      	ldr	r3, [r4, #16]
100008ba:	2b00      	cmp	r3, #0
100008bc:	d0b8      	beq.n	10000830 <alarm_pool_alarm_callback+0xf0>
100008be:	0033      	movs	r3, r6
100008c0:	003c      	movs	r4, r7
100008c2:	1a5b      	subs	r3, r3, r1
100008c4:	4194      	sbcs	r4, r2
100008c6:	001a      	movs	r2, r3
100008c8:	0023      	movs	r3, r4
100008ca:	42a7      	cmp	r7, r4
100008cc:	d819      	bhi.n	10000902 <alarm_pool_alarm_callback+0x1c2>
100008ce:	429f      	cmp	r7, r3
100008d0:	d01b      	beq.n	1000090a <alarm_pool_alarm_callback+0x1ca>
100008d2:	4659      	mov	r1, fp
100008d4:	9104      	str	r1, [sp, #16]
100008d6:	2101      	movs	r1, #1
100008d8:	9103      	str	r1, [sp, #12]
100008da:	4649      	mov	r1, r9
100008dc:	9102      	str	r1, [sp, #8]
100008de:	4641      	mov	r1, r8
100008e0:	9101      	str	r1, [sp, #4]
100008e2:	4651      	mov	r1, sl
100008e4:	9807      	ldr	r0, [sp, #28]
100008e6:	9100      	str	r1, [sp, #0]
100008e8:	f7ff fe94 	bl	10000614 <add_alarm_under_lock>
100008ec:	e7b6      	b.n	1000085c <alarm_pool_alarm_callback+0x11c>
100008ee:	f000 f8bb 	bl	10000a68 <time_us_64>
100008f2:	9a08      	ldr	r2, [sp, #32]
100008f4:	9b09      	ldr	r3, [sp, #36]	; 0x24
100008f6:	0006      	movs	r6, r0
100008f8:	000f      	movs	r7, r1
100008fa:	1992      	adds	r2, r2, r6
100008fc:	417b      	adcs	r3, r7
100008fe:	4299      	cmp	r1, r3
10000900:	d9e5      	bls.n	100008ce <alarm_pool_alarm_callback+0x18e>
10000902:	2201      	movs	r2, #1
10000904:	4252      	negs	r2, r2
10000906:	17d3      	asrs	r3, r2, #31
10000908:	e7e3      	b.n	100008d2 <alarm_pool_alarm_callback+0x192>
1000090a:	4296      	cmp	r6, r2
1000090c:	d9e1      	bls.n	100008d2 <alarm_pool_alarm_callback+0x192>
1000090e:	2201      	movs	r2, #1
10000910:	4252      	negs	r2, r2
10000912:	17d3      	asrs	r3, r2, #31
10000914:	e7dd      	b.n	100008d2 <alarm_pool_alarm_callback+0x192>
10000916:	46c0      	nop			; (mov r8, r8)
10000918:	20000b08 	.word	0x20000b08
1000091c:	0fffffff 	.word	0x0fffffff

10000920 <alarm_pool_init_default>:
10000920:	b570      	push	{r4, r5, r6, lr}
10000922:	4c18      	ldr	r4, [pc, #96]	; (10000984 <alarm_pool_init_default+0x64>)
10000924:	6823      	ldr	r3, [r4, #0]
10000926:	2b00      	cmp	r3, #0
10000928:	d000      	beq.n	1000092c <alarm_pool_init_default+0xc>
1000092a:	bd70      	pop	{r4, r5, r6, pc}
1000092c:	2003      	movs	r0, #3
1000092e:	f000 f88f 	bl	10000a50 <hardware_alarm_claim>
10000932:	2003      	movs	r0, #3
10000934:	f000 f94a 	bl	10000bcc <hardware_alarm_cancel>
10000938:	4913      	ldr	r1, [pc, #76]	; (10000988 <alarm_pool_init_default+0x68>)
1000093a:	2003      	movs	r0, #3
1000093c:	f000 f89e 	bl	10000a7c <hardware_alarm_set_callback>
10000940:	2018      	movs	r0, #24
10000942:	f003 fa51 	bl	10003de8 <__wrap_malloc>
10000946:	0005      	movs	r5, r0
10000948:	f7ff fdca 	bl	100004e0 <next_striped_spin_lock_num>
1000094c:	4b0f      	ldr	r3, [pc, #60]	; (1000098c <alarm_pool_init_default+0x6c>)
1000094e:	002a      	movs	r2, r5
10000950:	469c      	mov	ip, r3
10000952:	4460      	add	r0, ip
10000954:	0080      	lsls	r0, r0, #2
10000956:	490e      	ldr	r1, [pc, #56]	; (10000990 <alarm_pool_init_default+0x70>)
10000958:	6068      	str	r0, [r5, #4]
1000095a:	2010      	movs	r0, #16
1000095c:	f000 f99e 	bl	10000c9c <ph_create>
10000960:	2110      	movs	r1, #16
10000962:	6028      	str	r0, [r5, #0]
10000964:	2010      	movs	r0, #16
10000966:	f003 fa43 	bl	10003df0 <__wrap_calloc>
1000096a:	2101      	movs	r1, #1
1000096c:	60a8      	str	r0, [r5, #8]
1000096e:	2010      	movs	r0, #16
10000970:	f003 fa3e 	bl	10003df0 <__wrap_calloc>
10000974:	2303      	movs	r3, #3
10000976:	752b      	strb	r3, [r5, #20]
10000978:	4b06      	ldr	r3, [pc, #24]	; (10000994 <alarm_pool_init_default+0x74>)
1000097a:	60e8      	str	r0, [r5, #12]
1000097c:	60dd      	str	r5, [r3, #12]
1000097e:	6025      	str	r5, [r4, #0]
10000980:	e7d3      	b.n	1000092a <alarm_pool_init_default+0xa>
10000982:	46c0      	nop			; (mov r8, r8)
10000984:	20000af4 	.word	0x20000af4
10000988:	10000741 	.word	0x10000741
1000098c:	34000040 	.word	0x34000040
10000990:	100005e1 	.word	0x100005e1
10000994:	20000b08 	.word	0x20000b08

10000998 <hardware_alarm_irq_handler>:
10000998:	b5f0      	push	{r4, r5, r6, r7, lr}
1000099a:	46d6      	mov	lr, sl
1000099c:	464f      	mov	r7, r9
1000099e:	4646      	mov	r6, r8
100009a0:	b5c0      	push	{r6, r7, lr}
100009a2:	f3ef 8305 	mrs	r3, IPSR
100009a6:	223f      	movs	r2, #63	; 0x3f
100009a8:	4013      	ands	r3, r2
100009aa:	0018      	movs	r0, r3
100009ac:	3810      	subs	r0, #16
100009ae:	f3ef 8c10 	mrs	ip, PRIMASK
100009b2:	b672      	cpsid	i
100009b4:	4d20      	ldr	r5, [pc, #128]	; (10000a38 <hardware_alarm_irq_handler+0xa0>)
100009b6:	682a      	ldr	r2, [r5, #0]
100009b8:	2a00      	cmp	r2, #0
100009ba:	d0fc      	beq.n	100009b6 <hardware_alarm_irq_handler+0x1e>
100009bc:	f3bf 8f5f 	dmb	sy
100009c0:	2201      	movs	r2, #1
100009c2:	0011      	movs	r1, r2
100009c4:	4081      	lsls	r1, r0
100009c6:	4c1d      	ldr	r4, [pc, #116]	; (10000a3c <hardware_alarm_irq_handler+0xa4>)
100009c8:	4688      	mov	r8, r1
100009ca:	6361      	str	r1, [r4, #52]	; 0x34
100009cc:	491c      	ldr	r1, [pc, #112]	; (10000a40 <hardware_alarm_irq_handler+0xa8>)
100009ce:	0017      	movs	r7, r2
100009d0:	780e      	ldrb	r6, [r1, #0]
100009d2:	468a      	mov	sl, r1
100009d4:	0031      	movs	r1, r6
100009d6:	40c1      	lsrs	r1, r0
100009d8:	400f      	ands	r7, r1
100009da:	420a      	tst	r2, r1
100009dc:	d015      	beq.n	10000a0a <hardware_alarm_irq_handler+0x72>
100009de:	4919      	ldr	r1, [pc, #100]	; (10000a44 <hardware_alarm_irq_handler+0xac>)
100009e0:	0082      	lsls	r2, r0, #2
100009e2:	6a64      	ldr	r4, [r4, #36]	; 0x24
100009e4:	5851      	ldr	r1, [r2, r1]
100009e6:	428c      	cmp	r4, r1
100009e8:	d319      	bcc.n	10000a1e <hardware_alarm_irq_handler+0x86>
100009ea:	4b17      	ldr	r3, [pc, #92]	; (10000a48 <hardware_alarm_irq_handler+0xb0>)
100009ec:	58d2      	ldr	r2, [r2, r3]
100009ee:	4643      	mov	r3, r8
100009f0:	439e      	bics	r6, r3
100009f2:	4653      	mov	r3, sl
100009f4:	701e      	strb	r6, [r3, #0]
100009f6:	f3bf 8f5f 	dmb	sy
100009fa:	2300      	movs	r3, #0
100009fc:	602b      	str	r3, [r5, #0]
100009fe:	f38c 8810 	msr	PRIMASK, ip
10000a02:	2a00      	cmp	r2, #0
10000a04:	d006      	beq.n	10000a14 <hardware_alarm_irq_handler+0x7c>
10000a06:	4790      	blx	r2
10000a08:	e004      	b.n	10000a14 <hardware_alarm_irq_handler+0x7c>
10000a0a:	f3bf 8f5f 	dmb	sy
10000a0e:	602f      	str	r7, [r5, #0]
10000a10:	f38c 8810 	msr	PRIMASK, ip
10000a14:	bc1c      	pop	{r2, r3, r4}
10000a16:	4690      	mov	r8, r2
10000a18:	4699      	mov	r9, r3
10000a1a:	46a2      	mov	sl, r4
10000a1c:	bdf0      	pop	{r4, r5, r6, r7, pc}
10000a1e:	4a0b      	ldr	r2, [pc, #44]	; (10000a4c <hardware_alarm_irq_handler+0xb4>)
10000a20:	009b      	lsls	r3, r3, #2
10000a22:	4690      	mov	r8, r2
10000a24:	4443      	add	r3, r8
10000a26:	681a      	ldr	r2, [r3, #0]
10000a28:	601a      	str	r2, [r3, #0]
10000a2a:	f3bf 8f5f 	dmb	sy
10000a2e:	2300      	movs	r3, #0
10000a30:	602b      	str	r3, [r5, #0]
10000a32:	f38c 8810 	msr	PRIMASK, ip
10000a36:	e7ed      	b.n	10000a14 <hardware_alarm_irq_handler+0x7c>
10000a38:	d0000128 	.word	0xd0000128
10000a3c:	40054000 	.word	0x40054000
10000a40:	20000b2a 	.word	0x20000b2a
10000a44:	20000b18 	.word	0x20000b18
10000a48:	20000abc 	.word	0x20000abc
10000a4c:	40053fd0 	.word	0x40053fd0

10000a50 <hardware_alarm_claim>:
10000a50:	b510      	push	{r4, lr}
10000a52:	0001      	movs	r1, r0
10000a54:	4a02      	ldr	r2, [pc, #8]	; (10000a60 <hardware_alarm_claim+0x10>)
10000a56:	4803      	ldr	r0, [pc, #12]	; (10000a64 <hardware_alarm_claim+0x14>)
10000a58:	f7ff fd04 	bl	10000464 <hw_claim_or_assert>
10000a5c:	bd10      	pop	{r4, pc}
10000a5e:	46c0      	nop			; (mov r8, r8)
10000a60:	10004c90 	.word	0x10004c90
10000a64:	20000b28 	.word	0x20000b28

10000a68 <time_us_64>:
10000a68:	4b03      	ldr	r3, [pc, #12]	; (10000a78 <time_us_64+0x10>)
10000a6a:	6a59      	ldr	r1, [r3, #36]	; 0x24
10000a6c:	000a      	movs	r2, r1
10000a6e:	6a98      	ldr	r0, [r3, #40]	; 0x28
10000a70:	6a59      	ldr	r1, [r3, #36]	; 0x24
10000a72:	428a      	cmp	r2, r1
10000a74:	d1fa      	bne.n	10000a6c <time_us_64+0x4>
10000a76:	4770      	bx	lr
10000a78:	40054000 	.word	0x40054000

10000a7c <hardware_alarm_set_callback>:
10000a7c:	b570      	push	{r4, r5, r6, lr}
10000a7e:	0004      	movs	r4, r0
10000a80:	000d      	movs	r5, r1
10000a82:	f3ef 8610 	mrs	r6, PRIMASK
10000a86:	b672      	cpsid	i
10000a88:	4a1a      	ldr	r2, [pc, #104]	; (10000af4 <hardware_alarm_set_callback+0x78>)
10000a8a:	6813      	ldr	r3, [r2, #0]
10000a8c:	2b00      	cmp	r3, #0
10000a8e:	d0fc      	beq.n	10000a8a <hardware_alarm_set_callback+0xe>
10000a90:	f3bf 8f5f 	dmb	sy
10000a94:	2d00      	cmp	r5, #0
10000a96:	d01b      	beq.n	10000ad0 <hardware_alarm_set_callback+0x54>
10000a98:	0020      	movs	r0, r4
10000a9a:	f000 fdef 	bl	1000167c <irq_get_vtable_handler>
10000a9e:	4916      	ldr	r1, [pc, #88]	; (10000af8 <hardware_alarm_set_callback+0x7c>)
10000aa0:	4281      	cmp	r1, r0
10000aa2:	d00a      	beq.n	10000aba <hardware_alarm_set_callback+0x3e>
10000aa4:	0020      	movs	r0, r4
10000aa6:	f000 fdf1 	bl	1000168c <irq_set_exclusive_handler>
10000aaa:	2101      	movs	r1, #1
10000aac:	0020      	movs	r0, r4
10000aae:	f000 fdd3 	bl	10001658 <irq_set_enabled>
10000ab2:	2301      	movs	r3, #1
10000ab4:	40a3      	lsls	r3, r4
10000ab6:	4a11      	ldr	r2, [pc, #68]	; (10000afc <hardware_alarm_set_callback+0x80>)
10000ab8:	6013      	str	r3, [r2, #0]
10000aba:	4b11      	ldr	r3, [pc, #68]	; (10000b00 <hardware_alarm_set_callback+0x84>)
10000abc:	00a4      	lsls	r4, r4, #2
10000abe:	50e5      	str	r5, [r4, r3]
10000ac0:	f3bf 8f5f 	dmb	sy
10000ac4:	2200      	movs	r2, #0
10000ac6:	4b0b      	ldr	r3, [pc, #44]	; (10000af4 <hardware_alarm_set_callback+0x78>)
10000ac8:	601a      	str	r2, [r3, #0]
10000aca:	f386 8810 	msr	PRIMASK, r6
10000ace:	bd70      	pop	{r4, r5, r6, pc}
10000ad0:	4b0b      	ldr	r3, [pc, #44]	; (10000b00 <hardware_alarm_set_callback+0x84>)
10000ad2:	00a2      	lsls	r2, r4, #2
10000ad4:	50d5      	str	r5, [r2, r3]
10000ad6:	2201      	movs	r2, #1
10000ad8:	40a2      	lsls	r2, r4
10000ada:	490a      	ldr	r1, [pc, #40]	; (10000b04 <hardware_alarm_set_callback+0x88>)
10000adc:	0020      	movs	r0, r4
10000ade:	780b      	ldrb	r3, [r1, #0]
10000ae0:	4393      	bics	r3, r2
10000ae2:	700b      	strb	r3, [r1, #0]
10000ae4:	4904      	ldr	r1, [pc, #16]	; (10000af8 <hardware_alarm_set_callback+0x7c>)
10000ae6:	f000 fdfb 	bl	100016e0 <irq_remove_handler>
10000aea:	2100      	movs	r1, #0
10000aec:	0020      	movs	r0, r4
10000aee:	f000 fdb3 	bl	10001658 <irq_set_enabled>
10000af2:	e7e5      	b.n	10000ac0 <hardware_alarm_set_callback+0x44>
10000af4:	d0000128 	.word	0xd0000128
10000af8:	10000999 	.word	0x10000999
10000afc:	40056038 	.word	0x40056038
10000b00:	20000abc 	.word	0x20000abc
10000b04:	20000b2a 	.word	0x20000b2a

10000b08 <hardware_alarm_set_target>:
10000b08:	b5f0      	push	{r4, r5, r6, r7, lr}
10000b0a:	46ce      	mov	lr, r9
10000b0c:	4647      	mov	r7, r8
10000b0e:	b580      	push	{r7, lr}
10000b10:	4c2a      	ldr	r4, [pc, #168]	; (10000bbc <hardware_alarm_set_target+0xb4>)
10000b12:	6a61      	ldr	r1, [r4, #36]	; 0x24
10000b14:	000d      	movs	r5, r1
10000b16:	6aa6      	ldr	r6, [r4, #40]	; 0x28
10000b18:	6a61      	ldr	r1, [r4, #36]	; 0x24
10000b1a:	42a9      	cmp	r1, r5
10000b1c:	d1fa      	bne.n	10000b14 <hardware_alarm_set_target+0xc>
10000b1e:	428b      	cmp	r3, r1
10000b20:	d807      	bhi.n	10000b32 <hardware_alarm_set_target+0x2a>
10000b22:	d004      	beq.n	10000b2e <hardware_alarm_set_target+0x26>
10000b24:	2001      	movs	r0, #1
10000b26:	bc0c      	pop	{r2, r3}
10000b28:	4690      	mov	r8, r2
10000b2a:	4699      	mov	r9, r3
10000b2c:	bdf0      	pop	{r4, r5, r6, r7, pc}
10000b2e:	42b2      	cmp	r2, r6
10000b30:	d9f8      	bls.n	10000b24 <hardware_alarm_set_target+0x1c>
10000b32:	f3ef 8810 	mrs	r8, PRIMASK
10000b36:	b672      	cpsid	i
10000b38:	4c21      	ldr	r4, [pc, #132]	; (10000bc0 <hardware_alarm_set_target+0xb8>)
10000b3a:	6821      	ldr	r1, [r4, #0]
10000b3c:	2900      	cmp	r1, #0
10000b3e:	d0fc      	beq.n	10000b3a <hardware_alarm_set_target+0x32>
10000b40:	f3bf 8f5f 	dmb	sy
10000b44:	2501      	movs	r5, #1
10000b46:	4085      	lsls	r5, r0
10000b48:	4c1c      	ldr	r4, [pc, #112]	; (10000bbc <hardware_alarm_set_target+0xb4>)
10000b4a:	4e1e      	ldr	r6, [pc, #120]	; (10000bc4 <hardware_alarm_set_target+0xbc>)
10000b4c:	6365      	str	r5, [r4, #52]	; 0x34
10000b4e:	b2e9      	uxtb	r1, r5
10000b50:	468c      	mov	ip, r1
10000b52:	7831      	ldrb	r1, [r6, #0]
10000b54:	4689      	mov	r9, r1
10000b56:	4661      	mov	r1, ip
10000b58:	464f      	mov	r7, r9
10000b5a:	4339      	orrs	r1, r7
10000b5c:	7031      	strb	r1, [r6, #0]
10000b5e:	1d01      	adds	r1, r0, #4
10000b60:	0089      	lsls	r1, r1, #2
10000b62:	510a      	str	r2, [r1, r4]
10000b64:	4918      	ldr	r1, [pc, #96]	; (10000bc8 <hardware_alarm_set_target+0xc0>)
10000b66:	0080      	lsls	r0, r0, #2
10000b68:	5043      	str	r3, [r0, r1]
10000b6a:	6a21      	ldr	r1, [r4, #32]
10000b6c:	2000      	movs	r0, #0
10000b6e:	4229      	tst	r1, r5
10000b70:	d00c      	beq.n	10000b8c <hardware_alarm_set_target+0x84>
10000b72:	0020      	movs	r0, r4
10000b74:	6a61      	ldr	r1, [r4, #36]	; 0x24
10000b76:	000c      	movs	r4, r1
10000b78:	6a87      	ldr	r7, [r0, #40]	; 0x28
10000b7a:	6a41      	ldr	r1, [r0, #36]	; 0x24
10000b7c:	42a1      	cmp	r1, r4
10000b7e:	d1fa      	bne.n	10000b76 <hardware_alarm_set_target+0x6e>
10000b80:	428b      	cmp	r3, r1
10000b82:	d802      	bhi.n	10000b8a <hardware_alarm_set_target+0x82>
10000b84:	d10a      	bne.n	10000b9c <hardware_alarm_set_target+0x94>
10000b86:	42ba      	cmp	r2, r7
10000b88:	d908      	bls.n	10000b9c <hardware_alarm_set_target+0x94>
10000b8a:	2000      	movs	r0, #0
10000b8c:	f3bf 8f5f 	dmb	sy
10000b90:	2200      	movs	r2, #0
10000b92:	4b0b      	ldr	r3, [pc, #44]	; (10000bc0 <hardware_alarm_set_target+0xb8>)
10000b94:	601a      	str	r2, [r3, #0]
10000b96:	f388 8810 	msr	PRIMASK, r8
10000b9a:	e7c4      	b.n	10000b26 <hardware_alarm_set_target+0x1e>
10000b9c:	4b07      	ldr	r3, [pc, #28]	; (10000bbc <hardware_alarm_set_target+0xb4>)
10000b9e:	464f      	mov	r7, r9
10000ba0:	621d      	str	r5, [r3, #32]
10000ba2:	635d      	str	r5, [r3, #52]	; 0x34
10000ba4:	4663      	mov	r3, ip
10000ba6:	439f      	bics	r7, r3
10000ba8:	2001      	movs	r0, #1
10000baa:	7037      	strb	r7, [r6, #0]
10000bac:	f3bf 8f5f 	dmb	sy
10000bb0:	2200      	movs	r2, #0
10000bb2:	4b03      	ldr	r3, [pc, #12]	; (10000bc0 <hardware_alarm_set_target+0xb8>)
10000bb4:	601a      	str	r2, [r3, #0]
10000bb6:	f388 8810 	msr	PRIMASK, r8
10000bba:	e7b4      	b.n	10000b26 <hardware_alarm_set_target+0x1e>
10000bbc:	40054000 	.word	0x40054000
10000bc0:	d0000128 	.word	0xd0000128
10000bc4:	20000b2a 	.word	0x20000b2a
10000bc8:	20000b18 	.word	0x20000b18

10000bcc <hardware_alarm_cancel>:
10000bcc:	b510      	push	{r4, lr}
10000bce:	f3ef 8410 	mrs	r4, PRIMASK
10000bd2:	b672      	cpsid	i
10000bd4:	490a      	ldr	r1, [pc, #40]	; (10000c00 <hardware_alarm_cancel+0x34>)
10000bd6:	680b      	ldr	r3, [r1, #0]
10000bd8:	2b00      	cmp	r3, #0
10000bda:	d0fc      	beq.n	10000bd6 <hardware_alarm_cancel+0xa>
10000bdc:	f3bf 8f5f 	dmb	sy
10000be0:	2301      	movs	r3, #1
10000be2:	4083      	lsls	r3, r0
10000be4:	4a07      	ldr	r2, [pc, #28]	; (10000c04 <hardware_alarm_cancel+0x38>)
10000be6:	4808      	ldr	r0, [pc, #32]	; (10000c08 <hardware_alarm_cancel+0x3c>)
10000be8:	6213      	str	r3, [r2, #32]
10000bea:	7802      	ldrb	r2, [r0, #0]
10000bec:	439a      	bics	r2, r3
10000bee:	7002      	strb	r2, [r0, #0]
10000bf0:	f3bf 8f5f 	dmb	sy
10000bf4:	2300      	movs	r3, #0
10000bf6:	600b      	str	r3, [r1, #0]
10000bf8:	f384 8810 	msr	PRIMASK, r4
10000bfc:	bd10      	pop	{r4, pc}
10000bfe:	46c0      	nop			; (mov r8, r8)
10000c00:	d0000128 	.word	0xd0000128
10000c04:	40054000 	.word	0x40054000
10000c08:	20000b2a 	.word	0x20000b2a

10000c0c <lock_init>:
10000c0c:	4b02      	ldr	r3, [pc, #8]	; (10000c18 <lock_init+0xc>)
10000c0e:	469c      	mov	ip, r3
10000c10:	4461      	add	r1, ip
10000c12:	0089      	lsls	r1, r1, #2
10000c14:	6001      	str	r1, [r0, #0]
10000c16:	4770      	bx	lr
10000c18:	34000040 	.word	0x34000040

10000c1c <mutex_init>:
10000c1c:	b510      	push	{r4, lr}
10000c1e:	0004      	movs	r4, r0
10000c20:	f7ff fc5e 	bl	100004e0 <next_striped_spin_lock_num>
10000c24:	0001      	movs	r1, r0
10000c26:	0020      	movs	r0, r4
10000c28:	f7ff fff0 	bl	10000c0c <lock_init>
10000c2c:	f3bf 8f5f 	dmb	sy
10000c30:	bd10      	pop	{r4, pc}
10000c32:	46c0      	nop			; (mov r8, r8)

10000c34 <ph_merge_nodes>:
10000c34:	b570      	push	{r4, r5, r6, lr}
10000c36:	0005      	movs	r5, r0
10000c38:	000e      	movs	r6, r1
10000c3a:	0014      	movs	r4, r2
10000c3c:	2900      	cmp	r1, #0
10000c3e:	d024      	beq.n	10000c8a <ph_merge_nodes+0x56>
10000c40:	2a00      	cmp	r2, #0
10000c42:	d024      	beq.n	10000c8e <ph_merge_nodes+0x5a>
10000c44:	6880      	ldr	r0, [r0, #8]
10000c46:	686b      	ldr	r3, [r5, #4]
10000c48:	4798      	blx	r3
10000c4a:	6829      	ldr	r1, [r5, #0]
10000c4c:	2800      	cmp	r0, #0
10000c4e:	d00e      	beq.n	10000c6e <ph_merge_nodes+0x3a>
10000c50:	0063      	lsls	r3, r4, #1
10000c52:	191b      	adds	r3, r3, r4
10000c54:	0072      	lsls	r2, r6, #1
10000c56:	3b03      	subs	r3, #3
10000c58:	1992      	adds	r2, r2, r6
10000c5a:	18cb      	adds	r3, r1, r3
10000c5c:	3a03      	subs	r2, #3
10000c5e:	709e      	strb	r6, [r3, #2]
10000c60:	1888      	adds	r0, r1, r2
10000c62:	5c8a      	ldrb	r2, [r1, r2]
10000c64:	2a00      	cmp	r2, #0
10000c66:	d114      	bne.n	10000c92 <ph_merge_nodes+0x5e>
10000c68:	7004      	strb	r4, [r0, #0]
10000c6a:	0030      	movs	r0, r6
10000c6c:	e00e      	b.n	10000c8c <ph_merge_nodes+0x58>
10000c6e:	0073      	lsls	r3, r6, #1
10000c70:	199b      	adds	r3, r3, r6
10000c72:	0062      	lsls	r2, r4, #1
10000c74:	3b03      	subs	r3, #3
10000c76:	1912      	adds	r2, r2, r4
10000c78:	18cb      	adds	r3, r1, r3
10000c7a:	3a03      	subs	r2, #3
10000c7c:	709c      	strb	r4, [r3, #2]
10000c7e:	1888      	adds	r0, r1, r2
10000c80:	5c8a      	ldrb	r2, [r1, r2]
10000c82:	2a00      	cmp	r2, #0
10000c84:	d000      	beq.n	10000c88 <ph_merge_nodes+0x54>
10000c86:	705a      	strb	r2, [r3, #1]
10000c88:	7006      	strb	r6, [r0, #0]
10000c8a:	0020      	movs	r0, r4
10000c8c:	bd70      	pop	{r4, r5, r6, pc}
10000c8e:	0008      	movs	r0, r1
10000c90:	e7fc      	b.n	10000c8c <ph_merge_nodes+0x58>
10000c92:	705a      	strb	r2, [r3, #1]
10000c94:	7004      	strb	r4, [r0, #0]
10000c96:	0030      	movs	r0, r6
10000c98:	e7f8      	b.n	10000c8c <ph_merge_nodes+0x58>
10000c9a:	46c0      	nop			; (mov r8, r8)

10000c9c <ph_create>:
10000c9c:	b5f0      	push	{r4, r5, r6, r7, lr}
10000c9e:	46c6      	mov	lr, r8
10000ca0:	0005      	movs	r5, r0
10000ca2:	000f      	movs	r7, r1
10000ca4:	b500      	push	{lr}
10000ca6:	2110      	movs	r1, #16
10000ca8:	2001      	movs	r0, #1
10000caa:	0016      	movs	r6, r2
10000cac:	f003 f8a0 	bl	10003df0 <__wrap_calloc>
10000cb0:	b2eb      	uxtb	r3, r5
10000cb2:	0004      	movs	r4, r0
10000cb4:	7303      	strb	r3, [r0, #12]
10000cb6:	2103      	movs	r1, #3
10000cb8:	6047      	str	r7, [r0, #4]
10000cba:	0028      	movs	r0, r5
10000cbc:	4698      	mov	r8, r3
10000cbe:	f003 f897 	bl	10003df0 <__wrap_calloc>
10000cc2:	2300      	movs	r3, #0
10000cc4:	7363      	strb	r3, [r4, #13]
10000cc6:	3301      	adds	r3, #1
10000cc8:	73a3      	strb	r3, [r4, #14]
10000cca:	4643      	mov	r3, r8
10000ccc:	21ff      	movs	r1, #255	; 0xff
10000cce:	73e3      	strb	r3, [r4, #15]
10000cd0:	23fe      	movs	r3, #254	; 0xfe
10000cd2:	6020      	str	r0, [r4, #0]
10000cd4:	60a6      	str	r6, [r4, #8]
10000cd6:	4029      	ands	r1, r5
10000cd8:	422b      	tst	r3, r5
10000cda:	d006      	beq.n	10000cea <ph_create+0x4e>
10000cdc:	1c42      	adds	r2, r0, #1
10000cde:	3bfd      	subs	r3, #253	; 0xfd
10000ce0:	3301      	adds	r3, #1
10000ce2:	7013      	strb	r3, [r2, #0]
10000ce4:	3203      	adds	r2, #3
10000ce6:	428b      	cmp	r3, r1
10000ce8:	d3fa      	bcc.n	10000ce0 <ph_create+0x44>
10000cea:	004b      	lsls	r3, r1, #1
10000cec:	1859      	adds	r1, r3, r1
10000cee:	2300      	movs	r3, #0
10000cf0:	1840      	adds	r0, r0, r1
10000cf2:	3803      	subs	r0, #3
10000cf4:	7043      	strb	r3, [r0, #1]
10000cf6:	0020      	movs	r0, r4
10000cf8:	bc04      	pop	{r2}
10000cfa:	4690      	mov	r8, r2
10000cfc:	bdf0      	pop	{r4, r5, r6, r7, pc}
10000cfe:	46c0      	nop			; (mov r8, r8)

10000d00 <ph_merge_two_pass>:
10000d00:	b5f8      	push	{r3, r4, r5, r6, r7, lr}
10000d02:	46ce      	mov	lr, r9
10000d04:	4647      	mov	r7, r8
10000d06:	0006      	movs	r6, r0
10000d08:	000c      	movs	r4, r1
10000d0a:	b580      	push	{r7, lr}
10000d0c:	2900      	cmp	r1, #0
10000d0e:	d007      	beq.n	10000d20 <ph_merge_two_pass+0x20>
10000d10:	004d      	lsls	r5, r1, #1
10000d12:	6803      	ldr	r3, [r0, #0]
10000d14:	186d      	adds	r5, r5, r1
10000d16:	3d03      	subs	r5, #3
10000d18:	195a      	adds	r2, r3, r5
10000d1a:	7857      	ldrb	r7, [r2, #1]
10000d1c:	2f00      	cmp	r7, #0
10000d1e:	d104      	bne.n	10000d2a <ph_merge_two_pass+0x2a>
10000d20:	0020      	movs	r0, r4
10000d22:	bc0c      	pop	{r2, r3}
10000d24:	4690      	mov	r8, r2
10000d26:	4699      	mov	r9, r3
10000d28:	bdf8      	pop	{r3, r4, r5, r6, r7, pc}
10000d2a:	0079      	lsls	r1, r7, #1
10000d2c:	19c9      	adds	r1, r1, r7
10000d2e:	3903      	subs	r1, #3
10000d30:	4688      	mov	r8, r1
10000d32:	4443      	add	r3, r8
10000d34:	7859      	ldrb	r1, [r3, #1]
10000d36:	4689      	mov	r9, r1
10000d38:	2100      	movs	r1, #0
10000d3a:	7059      	strb	r1, [r3, #1]
10000d3c:	7051      	strb	r1, [r2, #1]
10000d3e:	6873      	ldr	r3, [r6, #4]
10000d40:	003a      	movs	r2, r7
10000d42:	0021      	movs	r1, r4
10000d44:	6880      	ldr	r0, [r0, #8]
10000d46:	4798      	blx	r3
10000d48:	6833      	ldr	r3, [r6, #0]
10000d4a:	2800      	cmp	r0, #0
10000d4c:	d014      	beq.n	10000d78 <ph_merge_two_pass+0x78>
10000d4e:	4642      	mov	r2, r8
10000d50:	189a      	adds	r2, r3, r2
10000d52:	7094      	strb	r4, [r2, #2]
10000d54:	1959      	adds	r1, r3, r5
10000d56:	5d5b      	ldrb	r3, [r3, r5]
10000d58:	2b00      	cmp	r3, #0
10000d5a:	d000      	beq.n	10000d5e <ph_merge_two_pass+0x5e>
10000d5c:	7053      	strb	r3, [r2, #1]
10000d5e:	700f      	strb	r7, [r1, #0]
10000d60:	0027      	movs	r7, r4
10000d62:	4649      	mov	r1, r9
10000d64:	0030      	movs	r0, r6
10000d66:	f7ff ffcb 	bl	10000d00 <ph_merge_two_pass>
10000d6a:	0039      	movs	r1, r7
10000d6c:	0002      	movs	r2, r0
10000d6e:	0030      	movs	r0, r6
10000d70:	f7ff ff60 	bl	10000c34 <ph_merge_nodes>
10000d74:	0004      	movs	r4, r0
10000d76:	e7d3      	b.n	10000d20 <ph_merge_two_pass+0x20>
10000d78:	4642      	mov	r2, r8
10000d7a:	4641      	mov	r1, r8
10000d7c:	195d      	adds	r5, r3, r5
10000d7e:	70af      	strb	r7, [r5, #2]
10000d80:	189a      	adds	r2, r3, r2
10000d82:	5c5b      	ldrb	r3, [r3, r1]
10000d84:	2b00      	cmp	r3, #0
10000d86:	d000      	beq.n	10000d8a <ph_merge_two_pass+0x8a>
10000d88:	706b      	strb	r3, [r5, #1]
10000d8a:	7014      	strb	r4, [r2, #0]
10000d8c:	e7e9      	b.n	10000d62 <ph_merge_two_pass+0x62>
10000d8e:	46c0      	nop			; (mov r8, r8)

10000d90 <ph_remove_any_head>:
10000d90:	b5f0      	push	{r4, r5, r6, r7, lr}
10000d92:	4657      	mov	r7, sl
10000d94:	4645      	mov	r5, r8
10000d96:	46de      	mov	lr, fp
10000d98:	464e      	mov	r6, r9
10000d9a:	b5e0      	push	{r5, r6, r7, lr}
10000d9c:	000d      	movs	r5, r1
10000d9e:	006b      	lsls	r3, r5, #1
10000da0:	6801      	ldr	r1, [r0, #0]
10000da2:	195b      	adds	r3, r3, r5
10000da4:	1edf      	subs	r7, r3, #3
10000da6:	0004      	movs	r4, r0
10000da8:	5dc8      	ldrb	r0, [r1, r7]
10000daa:	b083      	sub	sp, #12
10000dac:	9201      	str	r2, [sp, #4]
10000dae:	19ca      	adds	r2, r1, r7
10000db0:	2800      	cmp	r0, #0
10000db2:	d04c      	beq.n	10000e4e <ph_remove_any_head+0xbe>
10000db4:	0043      	lsls	r3, r0, #1
10000db6:	181b      	adds	r3, r3, r0
10000db8:	3b03      	subs	r3, #3
10000dba:	18cb      	adds	r3, r1, r3
10000dbc:	785e      	ldrb	r6, [r3, #1]
10000dbe:	46b4      	mov	ip, r6
10000dc0:	2e00      	cmp	r6, #0
10000dc2:	d116      	bne.n	10000df2 <ph_remove_any_head+0x62>
10000dc4:	9e01      	ldr	r6, [sp, #4]
10000dc6:	2e00      	cmp	r6, #0
10000dc8:	d13e      	bne.n	10000e48 <ph_remove_any_head+0xb8>
10000dca:	7be6      	ldrb	r6, [r4, #15]
10000dcc:	2e00      	cmp	r6, #0
10000dce:	d004      	beq.n	10000dda <ph_remove_any_head+0x4a>
10000dd0:	0073      	lsls	r3, r6, #1
10000dd2:	199b      	adds	r3, r3, r6
10000dd4:	18cb      	adds	r3, r1, r3
10000dd6:	3b03      	subs	r3, #3
10000dd8:	705d      	strb	r5, [r3, #1]
10000dda:	73e5      	strb	r5, [r4, #15]
10000ddc:	2800      	cmp	r0, #0
10000dde:	d12f      	bne.n	10000e40 <ph_remove_any_head+0xb0>
10000de0:	2300      	movs	r3, #0
10000de2:	7053      	strb	r3, [r2, #1]
10000de4:	b003      	add	sp, #12
10000de6:	bc3c      	pop	{r2, r3, r4, r5}
10000de8:	4690      	mov	r8, r2
10000dea:	4699      	mov	r9, r3
10000dec:	46a2      	mov	sl, r4
10000dee:	46ab      	mov	fp, r5
10000df0:	bdf0      	pop	{r4, r5, r6, r7, pc}
10000df2:	0072      	lsls	r2, r6, #1
10000df4:	4462      	add	r2, ip
10000df6:	3a03      	subs	r2, #3
10000df8:	1889      	adds	r1, r1, r2
10000dfa:	784a      	ldrb	r2, [r1, #1]
10000dfc:	4690      	mov	r8, r2
10000dfe:	2200      	movs	r2, #0
10000e00:	704a      	strb	r2, [r1, #1]
10000e02:	4691      	mov	r9, r2
10000e04:	705a      	strb	r2, [r3, #1]
10000e06:	0001      	movs	r1, r0
10000e08:	0032      	movs	r2, r6
10000e0a:	0020      	movs	r0, r4
10000e0c:	f7ff ff12 	bl	10000c34 <ph_merge_nodes>
10000e10:	4643      	mov	r3, r8
10000e12:	4682      	mov	sl, r0
10000e14:	2b00      	cmp	r3, #0
10000e16:	d007      	beq.n	10000e28 <ph_remove_any_head+0x98>
10000e18:	005b      	lsls	r3, r3, #1
10000e1a:	6821      	ldr	r1, [r4, #0]
10000e1c:	4443      	add	r3, r8
10000e1e:	3b03      	subs	r3, #3
10000e20:	18cb      	adds	r3, r1, r3
10000e22:	785a      	ldrb	r2, [r3, #1]
10000e24:	2a00      	cmp	r2, #0
10000e26:	d116      	bne.n	10000e56 <ph_remove_any_head+0xc6>
10000e28:	4642      	mov	r2, r8
10000e2a:	4651      	mov	r1, sl
10000e2c:	0020      	movs	r0, r4
10000e2e:	f7ff ff01 	bl	10000c34 <ph_merge_nodes>
10000e32:	6821      	ldr	r1, [r4, #0]
10000e34:	9b01      	ldr	r3, [sp, #4]
10000e36:	19ca      	adds	r2, r1, r7
10000e38:	2b00      	cmp	r3, #0
10000e3a:	d0c6      	beq.n	10000dca <ph_remove_any_head+0x3a>
10000e3c:	2800      	cmp	r0, #0
10000e3e:	d0cf      	beq.n	10000de0 <ph_remove_any_head+0x50>
10000e40:	0043      	lsls	r3, r0, #1
10000e42:	181b      	adds	r3, r3, r0
10000e44:	3b03      	subs	r3, #3
10000e46:	18cb      	adds	r3, r1, r3
10000e48:	2100      	movs	r1, #0
10000e4a:	7099      	strb	r1, [r3, #2]
10000e4c:	e7c8      	b.n	10000de0 <ph_remove_any_head+0x50>
10000e4e:	9b01      	ldr	r3, [sp, #4]
10000e50:	2b00      	cmp	r3, #0
10000e52:	d1c5      	bne.n	10000de0 <ph_remove_any_head+0x50>
10000e54:	e7b9      	b.n	10000dca <ph_remove_any_head+0x3a>
10000e56:	0050      	lsls	r0, r2, #1
10000e58:	1880      	adds	r0, r0, r2
10000e5a:	3803      	subs	r0, #3
10000e5c:	1809      	adds	r1, r1, r0
10000e5e:	7848      	ldrb	r0, [r1, #1]
10000e60:	4683      	mov	fp, r0
10000e62:	4648      	mov	r0, r9
10000e64:	7048      	strb	r0, [r1, #1]
10000e66:	7058      	strb	r0, [r3, #1]
10000e68:	4641      	mov	r1, r8
10000e6a:	0020      	movs	r0, r4
10000e6c:	f7ff fee2 	bl	10000c34 <ph_merge_nodes>
10000e70:	4659      	mov	r1, fp
10000e72:	4680      	mov	r8, r0
10000e74:	0020      	movs	r0, r4
10000e76:	f7ff ff43 	bl	10000d00 <ph_merge_two_pass>
10000e7a:	4641      	mov	r1, r8
10000e7c:	0002      	movs	r2, r0
10000e7e:	0020      	movs	r0, r4
10000e80:	f7ff fed8 	bl	10000c34 <ph_merge_nodes>
10000e84:	4680      	mov	r8, r0
10000e86:	e7cf      	b.n	10000e28 <ph_remove_any_head+0x98>

10000e88 <ph_remove_head_reserve>:
10000e88:	b5f0      	push	{r4, r5, r6, r7, lr}
10000e8a:	464e      	mov	r6, r9
10000e8c:	4645      	mov	r5, r8
10000e8e:	46de      	mov	lr, fp
10000e90:	4657      	mov	r7, sl
10000e92:	b5e0      	push	{r5, r6, r7, lr}
10000e94:	7b46      	ldrb	r6, [r0, #13]
10000e96:	0004      	movs	r4, r0
10000e98:	0075      	lsls	r5, r6, #1
10000e9a:	6800      	ldr	r0, [r0, #0]
10000e9c:	19ad      	adds	r5, r5, r6
10000e9e:	3d03      	subs	r5, #3
10000ea0:	b083      	sub	sp, #12
10000ea2:	9101      	str	r1, [sp, #4]
10000ea4:	5d41      	ldrb	r1, [r0, r5]
10000ea6:	1942      	adds	r2, r0, r5
10000ea8:	2900      	cmp	r1, #0
10000eaa:	d04e      	beq.n	10000f4a <ph_remove_head_reserve+0xc2>
10000eac:	004b      	lsls	r3, r1, #1
10000eae:	185b      	adds	r3, r3, r1
10000eb0:	3b03      	subs	r3, #3
10000eb2:	18c3      	adds	r3, r0, r3
10000eb4:	785f      	ldrb	r7, [r3, #1]
10000eb6:	46bc      	mov	ip, r7
10000eb8:	2f00      	cmp	r7, #0
10000eba:	d118      	bne.n	10000eee <ph_remove_head_reserve+0x66>
10000ebc:	9d01      	ldr	r5, [sp, #4]
10000ebe:	2d00      	cmp	r5, #0
10000ec0:	d140      	bne.n	10000f44 <ph_remove_head_reserve+0xbc>
10000ec2:	7be5      	ldrb	r5, [r4, #15]
10000ec4:	2d00      	cmp	r5, #0
10000ec6:	d004      	beq.n	10000ed2 <ph_remove_head_reserve+0x4a>
10000ec8:	006b      	lsls	r3, r5, #1
10000eca:	195b      	adds	r3, r3, r5
10000ecc:	18c3      	adds	r3, r0, r3
10000ece:	3b03      	subs	r3, #3
10000ed0:	705e      	strb	r6, [r3, #1]
10000ed2:	73e6      	strb	r6, [r4, #15]
10000ed4:	2900      	cmp	r1, #0
10000ed6:	d131      	bne.n	10000f3c <ph_remove_head_reserve+0xb4>
10000ed8:	2300      	movs	r3, #0
10000eda:	0030      	movs	r0, r6
10000edc:	7053      	strb	r3, [r2, #1]
10000ede:	7361      	strb	r1, [r4, #13]
10000ee0:	b003      	add	sp, #12
10000ee2:	bc3c      	pop	{r2, r3, r4, r5}
10000ee4:	4690      	mov	r8, r2
10000ee6:	4699      	mov	r9, r3
10000ee8:	46a2      	mov	sl, r4
10000eea:	46ab      	mov	fp, r5
10000eec:	bdf0      	pop	{r4, r5, r6, r7, pc}
10000eee:	007a      	lsls	r2, r7, #1
10000ef0:	4462      	add	r2, ip
10000ef2:	3a03      	subs	r2, #3
10000ef4:	1880      	adds	r0, r0, r2
10000ef6:	7842      	ldrb	r2, [r0, #1]
10000ef8:	4693      	mov	fp, r2
10000efa:	2200      	movs	r2, #0
10000efc:	7042      	strb	r2, [r0, #1]
10000efe:	4691      	mov	r9, r2
10000f00:	705a      	strb	r2, [r3, #1]
10000f02:	0020      	movs	r0, r4
10000f04:	003a      	movs	r2, r7
10000f06:	f7ff fe95 	bl	10000c34 <ph_merge_nodes>
10000f0a:	465b      	mov	r3, fp
10000f0c:	4680      	mov	r8, r0
10000f0e:	2b00      	cmp	r3, #0
10000f10:	d007      	beq.n	10000f22 <ph_remove_head_reserve+0x9a>
10000f12:	005b      	lsls	r3, r3, #1
10000f14:	6821      	ldr	r1, [r4, #0]
10000f16:	445b      	add	r3, fp
10000f18:	3b03      	subs	r3, #3
10000f1a:	18cb      	adds	r3, r1, r3
10000f1c:	785a      	ldrb	r2, [r3, #1]
10000f1e:	2a00      	cmp	r2, #0
10000f20:	d117      	bne.n	10000f52 <ph_remove_head_reserve+0xca>
10000f22:	465a      	mov	r2, fp
10000f24:	4641      	mov	r1, r8
10000f26:	0020      	movs	r0, r4
10000f28:	f7ff fe84 	bl	10000c34 <ph_merge_nodes>
10000f2c:	9b01      	ldr	r3, [sp, #4]
10000f2e:	0001      	movs	r1, r0
10000f30:	6820      	ldr	r0, [r4, #0]
10000f32:	1942      	adds	r2, r0, r5
10000f34:	2b00      	cmp	r3, #0
10000f36:	d0c4      	beq.n	10000ec2 <ph_remove_head_reserve+0x3a>
10000f38:	2900      	cmp	r1, #0
10000f3a:	d0cd      	beq.n	10000ed8 <ph_remove_head_reserve+0x50>
10000f3c:	004b      	lsls	r3, r1, #1
10000f3e:	185b      	adds	r3, r3, r1
10000f40:	3b03      	subs	r3, #3
10000f42:	18c3      	adds	r3, r0, r3
10000f44:	2000      	movs	r0, #0
10000f46:	7098      	strb	r0, [r3, #2]
10000f48:	e7c6      	b.n	10000ed8 <ph_remove_head_reserve+0x50>
10000f4a:	9b01      	ldr	r3, [sp, #4]
10000f4c:	2b00      	cmp	r3, #0
10000f4e:	d1c3      	bne.n	10000ed8 <ph_remove_head_reserve+0x50>
10000f50:	e7b7      	b.n	10000ec2 <ph_remove_head_reserve+0x3a>
10000f52:	0050      	lsls	r0, r2, #1
10000f54:	1880      	adds	r0, r0, r2
10000f56:	3803      	subs	r0, #3
10000f58:	1809      	adds	r1, r1, r0
10000f5a:	7848      	ldrb	r0, [r1, #1]
10000f5c:	4682      	mov	sl, r0
10000f5e:	4648      	mov	r0, r9
10000f60:	7048      	strb	r0, [r1, #1]
10000f62:	7058      	strb	r0, [r3, #1]
10000f64:	4659      	mov	r1, fp
10000f66:	0020      	movs	r0, r4
10000f68:	f7ff fe64 	bl	10000c34 <ph_merge_nodes>
10000f6c:	4653      	mov	r3, sl
10000f6e:	4683      	mov	fp, r0
10000f70:	2b00      	cmp	r3, #0
10000f72:	d007      	beq.n	10000f84 <ph_remove_head_reserve+0xfc>
10000f74:	005b      	lsls	r3, r3, #1
10000f76:	6821      	ldr	r1, [r4, #0]
10000f78:	4453      	add	r3, sl
10000f7a:	3b03      	subs	r3, #3
10000f7c:	18cb      	adds	r3, r1, r3
10000f7e:	785a      	ldrb	r2, [r3, #1]
10000f80:	2a00      	cmp	r2, #0
10000f82:	d106      	bne.n	10000f92 <ph_remove_head_reserve+0x10a>
10000f84:	4659      	mov	r1, fp
10000f86:	4652      	mov	r2, sl
10000f88:	0020      	movs	r0, r4
10000f8a:	f7ff fe53 	bl	10000c34 <ph_merge_nodes>
10000f8e:	4683      	mov	fp, r0
10000f90:	e7c7      	b.n	10000f22 <ph_remove_head_reserve+0x9a>
10000f92:	0050      	lsls	r0, r2, #1
10000f94:	1880      	adds	r0, r0, r2
10000f96:	3803      	subs	r0, #3
10000f98:	1809      	adds	r1, r1, r0
10000f9a:	4648      	mov	r0, r9
10000f9c:	784f      	ldrb	r7, [r1, #1]
10000f9e:	7048      	strb	r0, [r1, #1]
10000fa0:	7058      	strb	r0, [r3, #1]
10000fa2:	4651      	mov	r1, sl
10000fa4:	0020      	movs	r0, r4
10000fa6:	f7ff fe45 	bl	10000c34 <ph_merge_nodes>
10000faa:	0039      	movs	r1, r7
10000fac:	4681      	mov	r9, r0
10000fae:	0020      	movs	r0, r4
10000fb0:	f7ff fea6 	bl	10000d00 <ph_merge_two_pass>
10000fb4:	4649      	mov	r1, r9
10000fb6:	0002      	movs	r2, r0
10000fb8:	0020      	movs	r0, r4
10000fba:	f7ff fe3b 	bl	10000c34 <ph_merge_nodes>
10000fbe:	4682      	mov	sl, r0
10000fc0:	e7e0      	b.n	10000f84 <ph_remove_head_reserve+0xfc>
10000fc2:	46c0      	nop			; (mov r8, r8)

10000fc4 <ph_delete>:
10000fc4:	b570      	push	{r4, r5, r6, lr}
10000fc6:	0004      	movs	r4, r0
10000fc8:	2900      	cmp	r1, #0
10000fca:	d02c      	beq.n	10001026 <ph_delete+0x62>
10000fcc:	7b43      	ldrb	r3, [r0, #13]
10000fce:	428b      	cmp	r3, r1
10000fd0:	d02e      	beq.n	10001030 <ph_delete+0x6c>
10000fd2:	6805      	ldr	r5, [r0, #0]
10000fd4:	0048      	lsls	r0, r1, #1
10000fd6:	1840      	adds	r0, r0, r1
10000fd8:	3803      	subs	r0, #3
10000fda:	1828      	adds	r0, r5, r0
10000fdc:	7882      	ldrb	r2, [r0, #2]
10000fde:	2a00      	cmp	r2, #0
10000fe0:	d021      	beq.n	10001026 <ph_delete+0x62>
10000fe2:	0053      	lsls	r3, r2, #1
10000fe4:	189b      	adds	r3, r3, r2
10000fe6:	3b03      	subs	r3, #3
10000fe8:	5cea      	ldrb	r2, [r5, r3]
10000fea:	18ee      	adds	r6, r5, r3
10000fec:	428a      	cmp	r2, r1
10000fee:	d102      	bne.n	10000ff6 <ph_delete+0x32>
10000ff0:	e01b      	b.n	1000102a <ph_delete+0x66>
10000ff2:	2a00      	cmp	r2, #0
10000ff4:	d008      	beq.n	10001008 <ph_delete+0x44>
10000ff6:	0053      	lsls	r3, r2, #1
10000ff8:	189b      	adds	r3, r3, r2
10000ffa:	3b03      	subs	r3, #3
10000ffc:	18eb      	adds	r3, r5, r3
10000ffe:	785a      	ldrb	r2, [r3, #1]
10001000:	428a      	cmp	r2, r1
10001002:	d1f6      	bne.n	10000ff2 <ph_delete+0x2e>
10001004:	7842      	ldrb	r2, [r0, #1]
10001006:	705a      	strb	r2, [r3, #1]
10001008:	2300      	movs	r3, #0
1000100a:	2200      	movs	r2, #0
1000100c:	7083      	strb	r3, [r0, #2]
1000100e:	7043      	strb	r3, [r0, #1]
10001010:	0020      	movs	r0, r4
10001012:	f7ff febd 	bl	10000d90 <ph_remove_any_head>
10001016:	7b61      	ldrb	r1, [r4, #13]
10001018:	0002      	movs	r2, r0
1000101a:	0020      	movs	r0, r4
1000101c:	f7ff fe0a 	bl	10000c34 <ph_merge_nodes>
10001020:	7360      	strb	r0, [r4, #13]
10001022:	2001      	movs	r0, #1
10001024:	e000      	b.n	10001028 <ph_delete+0x64>
10001026:	2000      	movs	r0, #0
10001028:	bd70      	pop	{r4, r5, r6, pc}
1000102a:	7843      	ldrb	r3, [r0, #1]
1000102c:	7033      	strb	r3, [r6, #0]
1000102e:	e7eb      	b.n	10001008 <ph_delete+0x44>
10001030:	2200      	movs	r2, #0
10001032:	0019      	movs	r1, r3
10001034:	f7ff feac 	bl	10000d90 <ph_remove_any_head>
10001038:	7360      	strb	r0, [r4, #13]
1000103a:	2001      	movs	r0, #1
1000103c:	e7f4      	b.n	10001028 <ph_delete+0x64>
1000103e:	46c0      	nop			; (mov r8, r8)

10001040 <runtime_init>:
10001040:	4b2b      	ldr	r3, [pc, #172]	; (100010f0 <runtime_init+0xb0>)
10001042:	4a2c      	ldr	r2, [pc, #176]	; (100010f4 <runtime_init+0xb4>)
10001044:	b570      	push	{r4, r5, r6, lr}
10001046:	601a      	str	r2, [r3, #0]
10001048:	4a2b      	ldr	r2, [pc, #172]	; (100010f8 <runtime_init+0xb8>)
1000104a:	4b2c      	ldr	r3, [pc, #176]	; (100010fc <runtime_init+0xbc>)
1000104c:	492c      	ldr	r1, [pc, #176]	; (10001100 <runtime_init+0xc0>)
1000104e:	601a      	str	r2, [r3, #0]
10001050:	0010      	movs	r0, r2
10001052:	688b      	ldr	r3, [r1, #8]
10001054:	4398      	bics	r0, r3
10001056:	d1fb      	bne.n	10001050 <runtime_init+0x10>
10001058:	4c2a      	ldr	r4, [pc, #168]	; (10001104 <runtime_init+0xc4>)
1000105a:	4b2b      	ldr	r3, [pc, #172]	; (10001108 <runtime_init+0xc8>)
1000105c:	429c      	cmp	r4, r3
1000105e:	d209      	bcs.n	10001074 <runtime_init+0x34>
10001060:	3b01      	subs	r3, #1
10001062:	1b1d      	subs	r5, r3, r4
10001064:	08ad      	lsrs	r5, r5, #2
10001066:	3501      	adds	r5, #1
10001068:	00ad      	lsls	r5, r5, #2
1000106a:	192d      	adds	r5, r5, r4
1000106c:	cc08      	ldmia	r4!, {r3}
1000106e:	4798      	blx	r3
10001070:	42ac      	cmp	r4, r5
10001072:	d1fb      	bne.n	1000106c <runtime_init+0x2c>
10001074:	f000 f90c 	bl	10001290 <clocks_init>
10001078:	4a24      	ldr	r2, [pc, #144]	; (1000110c <runtime_init+0xcc>)
1000107a:	4b20      	ldr	r3, [pc, #128]	; (100010fc <runtime_init+0xbc>)
1000107c:	601a      	str	r2, [r3, #0]
1000107e:	4a20      	ldr	r2, [pc, #128]	; (10001100 <runtime_init+0xc0>)
10001080:	6893      	ldr	r3, [r2, #8]
10001082:	01db      	lsls	r3, r3, #7
10001084:	3380      	adds	r3, #128	; 0x80
10001086:	d1fb      	bne.n	10001080 <runtime_init+0x40>
10001088:	2240      	movs	r2, #64	; 0x40
1000108a:	4b21      	ldr	r3, [pc, #132]	; (10001110 <runtime_init+0xd0>)
1000108c:	4c21      	ldr	r4, [pc, #132]	; (10001114 <runtime_init+0xd4>)
1000108e:	679a      	str	r2, [r3, #120]	; 0x78
10001090:	675a      	str	r2, [r3, #116]	; 0x74
10001092:	671a      	str	r2, [r3, #112]	; 0x70
10001094:	66da      	str	r2, [r3, #108]	; 0x6c
10001096:	4b20      	ldr	r3, [pc, #128]	; (10001118 <runtime_init+0xd8>)
10001098:	429c      	cmp	r4, r3
1000109a:	d20b      	bcs.n	100010b4 <runtime_init+0x74>
1000109c:	3b01      	subs	r3, #1
1000109e:	1b1d      	subs	r5, r3, r4
100010a0:	08ed      	lsrs	r5, r5, #3
100010a2:	3501      	adds	r5, #1
100010a4:	00ed      	lsls	r5, r5, #3
100010a6:	192d      	adds	r5, r5, r4
100010a8:	0020      	movs	r0, r4
100010aa:	3408      	adds	r4, #8
100010ac:	f7ff fdb6 	bl	10000c1c <mutex_init>
100010b0:	42ac      	cmp	r4, r5
100010b2:	d1f9      	bne.n	100010a8 <runtime_init+0x68>
100010b4:	4c19      	ldr	r4, [pc, #100]	; (1000111c <runtime_init+0xdc>)
100010b6:	4d1a      	ldr	r5, [pc, #104]	; (10001120 <runtime_init+0xe0>)
100010b8:	68a1      	ldr	r1, [r4, #8]
100010ba:	22c0      	movs	r2, #192	; 0xc0
100010bc:	0028      	movs	r0, r5
100010be:	f002 fea9 	bl	10003e14 <__wrap___aeabi_memcpy>
100010c2:	60a5      	str	r5, [r4, #8]
100010c4:	f7ff f9fe 	bl	100004c4 <spin_locks_reset>
100010c8:	f000 fc4a 	bl	10001960 <irq_init_priorities>
100010cc:	f7ff fc28 	bl	10000920 <alarm_pool_init_default>
100010d0:	4c14      	ldr	r4, [pc, #80]	; (10001124 <runtime_init+0xe4>)
100010d2:	4b15      	ldr	r3, [pc, #84]	; (10001128 <runtime_init+0xe8>)
100010d4:	429c      	cmp	r4, r3
100010d6:	d209      	bcs.n	100010ec <runtime_init+0xac>
100010d8:	3b01      	subs	r3, #1
100010da:	1b1d      	subs	r5, r3, r4
100010dc:	08ad      	lsrs	r5, r5, #2
100010de:	3501      	adds	r5, #1
100010e0:	00ad      	lsls	r5, r5, #2
100010e2:	192d      	adds	r5, r5, r4
100010e4:	cc08      	ldmia	r4!, {r3}
100010e6:	4798      	blx	r3
100010e8:	42a5      	cmp	r5, r4
100010ea:	d1fb      	bne.n	100010e4 <runtime_init+0xa4>
100010ec:	bd70      	pop	{r4, r5, r6, pc}
100010ee:	46c0      	nop			; (mov r8, r8)
100010f0:	4000e000 	.word	0x4000e000
100010f4:	ffffcdbf 	.word	0xffffcdbf
100010f8:	003c7ffe 	.word	0x003c7ffe
100010fc:	4000f000 	.word	0x4000f000
10001100:	4000c000 	.word	0x4000c000
10001104:	20000a58 	.word	0x20000a58
10001108:	20000a68 	.word	0x20000a68
1000110c:	01ffffff 	.word	0x01ffffff
10001110:	4001f000 	.word	0x4001f000
10001114:	20000a50 	.word	0x20000a50
10001118:	20000a58 	.word	0x20000a58
1000111c:	e000ed00 	.word	0xe000ed00
10001120:	20000000 	.word	0x20000000
10001124:	20000a68 	.word	0x20000a68
10001128:	20000a6c 	.word	0x20000a6c

1000112c <_sbrk>:
1000112c:	4a09      	ldr	r2, [pc, #36]	; (10001154 <_sbrk+0x28>)
1000112e:	0003      	movs	r3, r0
10001130:	6810      	ldr	r0, [r2, #0]
10001132:	2800      	cmp	r0, #0
10001134:	d005      	beq.n	10001142 <_sbrk+0x16>
10001136:	4908      	ldr	r1, [pc, #32]	; (10001158 <_sbrk+0x2c>)
10001138:	18c3      	adds	r3, r0, r3
1000113a:	428b      	cmp	r3, r1
1000113c:	d207      	bcs.n	1000114e <_sbrk+0x22>
1000113e:	6013      	str	r3, [r2, #0]
10001140:	4770      	bx	lr
10001142:	4806      	ldr	r0, [pc, #24]	; (1000115c <_sbrk+0x30>)
10001144:	4904      	ldr	r1, [pc, #16]	; (10001158 <_sbrk+0x2c>)
10001146:	18c3      	adds	r3, r0, r3
10001148:	6010      	str	r0, [r2, #0]
1000114a:	428b      	cmp	r3, r1
1000114c:	d3f7      	bcc.n	1000113e <_sbrk+0x12>
1000114e:	2001      	movs	r0, #1
10001150:	4240      	negs	r0, r0
10001152:	e7f5      	b.n	10001140 <_sbrk+0x14>
10001154:	20000b00 	.word	0x20000b00
10001158:	20040000 	.word	0x20040000
1000115c:	20000d5c 	.word	0x20000d5c

10001160 <exit>:
10001160:	be00      	bkpt	0x0000
10001162:	e7fd      	b.n	10001160 <exit>

10001164 <panic>:
10001164:	b40f      	push	{r0, r1, r2, r3}
10001166:	b500      	push	{lr}
10001168:	4808      	ldr	r0, [pc, #32]	; (1000118c <panic+0x28>)
1000116a:	b083      	sub	sp, #12
1000116c:	f002 ff64 	bl	10004038 <__wrap_puts>
10001170:	9b04      	ldr	r3, [sp, #16]
10001172:	2b00      	cmp	r3, #0
10001174:	d007      	beq.n	10001186 <panic+0x22>
10001176:	a905      	add	r1, sp, #20
10001178:	0018      	movs	r0, r3
1000117a:	9101      	str	r1, [sp, #4]
1000117c:	f001 ff18 	bl	10002fb0 <weak_raw_vprintf>
10001180:	4803      	ldr	r0, [pc, #12]	; (10001190 <panic+0x2c>)
10001182:	f002 ff59 	bl	10004038 <__wrap_puts>
10001186:	be00      	bkpt	0x0000
10001188:	e7fd      	b.n	10001186 <panic+0x22>
1000118a:	46c0      	nop			; (mov r8, r8)
1000118c:	10004cb4 	.word	0x10004cb4
10001190:	10004c08 	.word	0x10004c08

10001194 <hard_assertion_failure>:
10001194:	b510      	push	{r4, lr}
10001196:	4801      	ldr	r0, [pc, #4]	; (1000119c <hard_assertion_failure+0x8>)
10001198:	f7ff ffe4 	bl	10001164 <panic>
1000119c:	10004cc4 	.word	0x10004cc4

100011a0 <clock_configure>:
100011a0:	b5f0      	push	{r4, r5, r6, r7, lr}
100011a2:	464f      	mov	r7, r9
100011a4:	4646      	mov	r6, r8
100011a6:	46d6      	mov	lr, sl
100011a8:	b5c0      	push	{r6, r7, lr}
100011aa:	0017      	movs	r7, r2
100011ac:	9a08      	ldr	r2, [sp, #32]
100011ae:	0005      	movs	r5, r0
100011b0:	4688      	mov	r8, r1
100011b2:	429a      	cmp	r2, r3
100011b4:	d865      	bhi.n	10001282 <clock_configure+0xe2>
100011b6:	0e19      	lsrs	r1, r3, #24
100011b8:	0218      	lsls	r0, r3, #8
100011ba:	2300      	movs	r3, #0
100011bc:	f001 ffb8 	bl	10003130 <__wrap___aeabi_uldivmod>
100011c0:	4b31      	ldr	r3, [pc, #196]	; (10001288 <clock_configure+0xe8>)
100011c2:	006c      	lsls	r4, r5, #1
100011c4:	469c      	mov	ip, r3
100011c6:	1964      	adds	r4, r4, r5
100011c8:	00a4      	lsls	r4, r4, #2
100011ca:	4464      	add	r4, ip
100011cc:	6863      	ldr	r3, [r4, #4]
100011ce:	4681      	mov	r9, r0
100011d0:	4298      	cmp	r0, r3
100011d2:	d900      	bls.n	100011d6 <clock_configure+0x36>
100011d4:	6060      	str	r0, [r4, #4]
100011d6:	1f2b      	subs	r3, r5, #4
100011d8:	b2db      	uxtb	r3, r3
100011da:	469a      	mov	sl, r3
100011dc:	2b01      	cmp	r3, #1
100011de:	d92c      	bls.n	1000123a <clock_configure+0x9a>
100011e0:	23c0      	movs	r3, #192	; 0xc0
100011e2:	2280      	movs	r2, #128	; 0x80
100011e4:	4e29      	ldr	r6, [pc, #164]	; (1000128c <clock_configure+0xec>)
100011e6:	00ad      	lsls	r5, r5, #2
100011e8:	019b      	lsls	r3, r3, #6
100011ea:	5971      	ldr	r1, [r6, r5]
100011ec:	4323      	orrs	r3, r4
100011ee:	0112      	lsls	r2, r2, #4
100011f0:	601a      	str	r2, [r3, #0]
100011f2:	2900      	cmp	r1, #0
100011f4:	d005      	beq.n	10001202 <clock_configure+0x62>
100011f6:	6970      	ldr	r0, [r6, #20]
100011f8:	f001 ff54 	bl	100030a4 <__wrap___aeabi_uidiv>
100011fc:	3001      	adds	r0, #1
100011fe:	3801      	subs	r0, #1
10001200:	d1fd      	bne.n	100011fe <clock_configure+0x5e>
10001202:	6822      	ldr	r2, [r4, #0]
10001204:	017f      	lsls	r7, r7, #5
10001206:	407a      	eors	r2, r7
10001208:	27e0      	movs	r7, #224	; 0xe0
1000120a:	2380      	movs	r3, #128	; 0x80
1000120c:	4017      	ands	r7, r2
1000120e:	4652      	mov	r2, sl
10001210:	015b      	lsls	r3, r3, #5
10001212:	4323      	orrs	r3, r4
10001214:	601f      	str	r7, [r3, #0]
10001216:	2a01      	cmp	r2, #1
10001218:	d926      	bls.n	10001268 <clock_configure+0xc8>
1000121a:	2380      	movs	r3, #128	; 0x80
1000121c:	2280      	movs	r2, #128	; 0x80
1000121e:	019b      	lsls	r3, r3, #6
10001220:	4323      	orrs	r3, r4
10001222:	0112      	lsls	r2, r2, #4
10001224:	601a      	str	r2, [r3, #0]
10001226:	464b      	mov	r3, r9
10001228:	2001      	movs	r0, #1
1000122a:	6063      	str	r3, [r4, #4]
1000122c:	9b08      	ldr	r3, [sp, #32]
1000122e:	5173      	str	r3, [r6, r5]
10001230:	bc1c      	pop	{r2, r3, r4}
10001232:	4690      	mov	r8, r2
10001234:	4699      	mov	r9, r3
10001236:	46a2      	mov	sl, r4
10001238:	bdf0      	pop	{r4, r5, r6, r7, pc}
1000123a:	4643      	mov	r3, r8
1000123c:	2b01      	cmp	r3, #1
1000123e:	d1cf      	bne.n	100011e0 <clock_configure+0x40>
10001240:	23c0      	movs	r3, #192	; 0xc0
10001242:	2203      	movs	r2, #3
10001244:	019b      	lsls	r3, r3, #6
10001246:	4323      	orrs	r3, r4
10001248:	601a      	str	r2, [r3, #0]
1000124a:	3a02      	subs	r2, #2
1000124c:	68a3      	ldr	r3, [r4, #8]
1000124e:	421a      	tst	r2, r3
10001250:	d0fc      	beq.n	1000124c <clock_configure+0xac>
10001252:	23e0      	movs	r3, #224	; 0xe0
10001254:	6822      	ldr	r2, [r4, #0]
10001256:	017f      	lsls	r7, r7, #5
10001258:	4057      	eors	r7, r2
1000125a:	401f      	ands	r7, r3
1000125c:	2380      	movs	r3, #128	; 0x80
1000125e:	015b      	lsls	r3, r3, #5
10001260:	4323      	orrs	r3, r4
10001262:	4e0a      	ldr	r6, [pc, #40]	; (1000128c <clock_configure+0xec>)
10001264:	601f      	str	r7, [r3, #0]
10001266:	00ad      	lsls	r5, r5, #2
10001268:	4642      	mov	r2, r8
1000126a:	6821      	ldr	r1, [r4, #0]
1000126c:	4051      	eors	r1, r2
1000126e:	2203      	movs	r2, #3
10001270:	400a      	ands	r2, r1
10001272:	601a      	str	r2, [r3, #0]
10001274:	2201      	movs	r2, #1
10001276:	4643      	mov	r3, r8
10001278:	409a      	lsls	r2, r3
1000127a:	68a3      	ldr	r3, [r4, #8]
1000127c:	421a      	tst	r2, r3
1000127e:	d0fc      	beq.n	1000127a <clock_configure+0xda>
10001280:	e7cb      	b.n	1000121a <clock_configure+0x7a>
10001282:	2000      	movs	r0, #0
10001284:	e7d4      	b.n	10001230 <clock_configure+0x90>
10001286:	46c0      	nop			; (mov r8, r8)
10001288:	40008000 	.word	0x40008000
1000128c:	20000acc 	.word	0x20000acc

10001290 <clocks_init>:
10001290:	b530      	push	{r4, r5, lr}
10001292:	200c      	movs	r0, #12
10001294:	b083      	sub	sp, #12
10001296:	f000 f995 	bl	100015c4 <watchdog_start_tick>
1000129a:	f7ff f92d 	bl	100004f8 <running_on_fpga>
1000129e:	2800      	cmp	r0, #0
100012a0:	d00e      	beq.n	100012c0 <clocks_init+0x30>
100012a2:	4b9a      	ldr	r3, [pc, #616]	; (1000150c <clocks_init+0x27c>)
100012a4:	4a9a      	ldr	r2, [pc, #616]	; (10001510 <clocks_init+0x280>)
100012a6:	601a      	str	r2, [r3, #0]
100012a8:	605a      	str	r2, [r3, #4]
100012aa:	609a      	str	r2, [r3, #8]
100012ac:	60da      	str	r2, [r3, #12]
100012ae:	611a      	str	r2, [r3, #16]
100012b0:	615a      	str	r2, [r3, #20]
100012b2:	619a      	str	r2, [r3, #24]
100012b4:	61da      	str	r2, [r3, #28]
100012b6:	621a      	str	r2, [r3, #32]
100012b8:	4a96      	ldr	r2, [pc, #600]	; (10001514 <clocks_init+0x284>)
100012ba:	625a      	str	r2, [r3, #36]	; 0x24
100012bc:	b003      	add	sp, #12
100012be:	bd30      	pop	{r4, r5, pc}
100012c0:	4c95      	ldr	r4, [pc, #596]	; (10001518 <clocks_init+0x288>)
100012c2:	67a0      	str	r0, [r4, #120]	; 0x78
100012c4:	f000 f986 	bl	100015d4 <xosc_init>
100012c8:	2201      	movs	r2, #1
100012ca:	4b94      	ldr	r3, [pc, #592]	; (1000151c <clocks_init+0x28c>)
100012cc:	601a      	str	r2, [r3, #0]
100012ce:	6c63      	ldr	r3, [r4, #68]	; 0x44
100012d0:	2b01      	cmp	r3, #1
100012d2:	d1fc      	bne.n	100012ce <clocks_init+0x3e>
100012d4:	2203      	movs	r2, #3
100012d6:	4b92      	ldr	r3, [pc, #584]	; (10001520 <clocks_init+0x290>)
100012d8:	601a      	str	r2, [r3, #0]
100012da:	4a8f      	ldr	r2, [pc, #572]	; (10001518 <clocks_init+0x288>)
100012dc:	6b93      	ldr	r3, [r2, #56]	; 0x38
100012de:	2b01      	cmp	r3, #1
100012e0:	d1fc      	bne.n	100012dc <clocks_init+0x4c>
100012e2:	22c0      	movs	r2, #192	; 0xc0
100012e4:	4b8f      	ldr	r3, [pc, #572]	; (10001524 <clocks_init+0x294>)
100012e6:	0192      	lsls	r2, r2, #6
100012e8:	601a      	str	r2, [r3, #0]
100012ea:	4b8f      	ldr	r3, [pc, #572]	; (10001528 <clocks_init+0x298>)
100012ec:	498f      	ldr	r1, [pc, #572]	; (1000152c <clocks_init+0x29c>)
100012ee:	601a      	str	r2, [r3, #0]
100012f0:	0010      	movs	r0, r2
100012f2:	688b      	ldr	r3, [r1, #8]
100012f4:	4398      	bics	r0, r3
100012f6:	1e03      	subs	r3, r0, #0
100012f8:	d1fa      	bne.n	100012f0 <clocks_init+0x60>
100012fa:	2402      	movs	r4, #2
100012fc:	2101      	movs	r1, #1
100012fe:	4a8c      	ldr	r2, [pc, #560]	; (10001530 <clocks_init+0x2a0>)
10001300:	488c      	ldr	r0, [pc, #560]	; (10001534 <clocks_init+0x2a4>)
10001302:	3306      	adds	r3, #6
10001304:	9400      	str	r4, [sp, #0]
10001306:	f000 f979 	bl	100015fc <pll_init>
1000130a:	2305      	movs	r3, #5
1000130c:	4a8a      	ldr	r2, [pc, #552]	; (10001538 <clocks_init+0x2a8>)
1000130e:	2101      	movs	r1, #1
10001310:	488a      	ldr	r0, [pc, #552]	; (1000153c <clocks_init+0x2ac>)
10001312:	9400      	str	r4, [sp, #0]
10001314:	f000 f972 	bl	100015fc <pll_init>
10001318:	4b89      	ldr	r3, [pc, #548]	; (10001540 <clocks_init+0x2b0>)
1000131a:	685a      	ldr	r2, [r3, #4]
1000131c:	2aff      	cmp	r2, #255	; 0xff
1000131e:	d802      	bhi.n	10001326 <clocks_init+0x96>
10001320:	2280      	movs	r2, #128	; 0x80
10001322:	0052      	lsls	r2, r2, #1
10001324:	605a      	str	r2, [r3, #4]
10001326:	2280      	movs	r2, #128	; 0x80
10001328:	4c78      	ldr	r4, [pc, #480]	; (1000150c <clocks_init+0x27c>)
1000132a:	4b7d      	ldr	r3, [pc, #500]	; (10001520 <clocks_init+0x290>)
1000132c:	6921      	ldr	r1, [r4, #16]
1000132e:	0112      	lsls	r2, r2, #4
10001330:	4d83      	ldr	r5, [pc, #524]	; (10001540 <clocks_init+0x2b0>)
10001332:	601a      	str	r2, [r3, #0]
10001334:	2900      	cmp	r1, #0
10001336:	d005      	beq.n	10001344 <clocks_init+0xb4>
10001338:	6960      	ldr	r0, [r4, #20]
1000133a:	f001 feb3 	bl	100030a4 <__wrap___aeabi_uidiv>
1000133e:	3001      	adds	r0, #1
10001340:	3801      	subs	r0, #1
10001342:	d1fd      	bne.n	10001340 <clocks_init+0xb0>
10001344:	21e0      	movs	r1, #224	; 0xe0
10001346:	4b7e      	ldr	r3, [pc, #504]	; (10001540 <clocks_init+0x2b0>)
10001348:	2002      	movs	r0, #2
1000134a:	681a      	ldr	r2, [r3, #0]
1000134c:	4011      	ands	r1, r2
1000134e:	2280      	movs	r2, #128	; 0x80
10001350:	0152      	lsls	r2, r2, #5
10001352:	432a      	orrs	r2, r5
10001354:	6011      	str	r1, [r2, #0]
10001356:	6819      	ldr	r1, [r3, #0]
10001358:	4048      	eors	r0, r1
1000135a:	2103      	movs	r1, #3
1000135c:	4001      	ands	r1, r0
1000135e:	6011      	str	r1, [r2, #0]
10001360:	2104      	movs	r1, #4
10001362:	689a      	ldr	r2, [r3, #8]
10001364:	4211      	tst	r1, r2
10001366:	d0fc      	beq.n	10001362 <clocks_init+0xd2>
10001368:	2280      	movs	r2, #128	; 0x80
1000136a:	2180      	movs	r1, #128	; 0x80
1000136c:	0192      	lsls	r2, r2, #6
1000136e:	432a      	orrs	r2, r5
10001370:	0109      	lsls	r1, r1, #4
10001372:	6011      	str	r1, [r2, #0]
10001374:	2280      	movs	r2, #128	; 0x80
10001376:	0052      	lsls	r2, r2, #1
10001378:	605a      	str	r2, [r3, #4]
1000137a:	4b72      	ldr	r3, [pc, #456]	; (10001544 <clocks_init+0x2b4>)
1000137c:	6123      	str	r3, [r4, #16]
1000137e:	4b72      	ldr	r3, [pc, #456]	; (10001548 <clocks_init+0x2b8>)
10001380:	6859      	ldr	r1, [r3, #4]
10001382:	29ff      	cmp	r1, #255	; 0xff
10001384:	d800      	bhi.n	10001388 <clocks_init+0xf8>
10001386:	605a      	str	r2, [r3, #4]
10001388:	2203      	movs	r2, #3
1000138a:	486f      	ldr	r0, [pc, #444]	; (10001548 <clocks_init+0x2b8>)
1000138c:	4b63      	ldr	r3, [pc, #396]	; (1000151c <clocks_init+0x28c>)
1000138e:	2101      	movs	r1, #1
10001390:	601a      	str	r2, [r3, #0]
10001392:	0002      	movs	r2, r0
10001394:	6893      	ldr	r3, [r2, #8]
10001396:	4219      	tst	r1, r3
10001398:	d0fc      	beq.n	10001394 <clocks_init+0x104>
1000139a:	25e0      	movs	r5, #224	; 0xe0
1000139c:	6813      	ldr	r3, [r2, #0]
1000139e:	401d      	ands	r5, r3
100013a0:	2380      	movs	r3, #128	; 0x80
100013a2:	015b      	lsls	r3, r3, #5
100013a4:	4303      	orrs	r3, r0
100013a6:	601d      	str	r5, [r3, #0]
100013a8:	6812      	ldr	r2, [r2, #0]
100013aa:	404a      	eors	r2, r1
100013ac:	2103      	movs	r1, #3
100013ae:	4011      	ands	r1, r2
100013b0:	6019      	str	r1, [r3, #0]
100013b2:	2102      	movs	r1, #2
100013b4:	4a64      	ldr	r2, [pc, #400]	; (10001548 <clocks_init+0x2b8>)
100013b6:	6893      	ldr	r3, [r2, #8]
100013b8:	4219      	tst	r1, r3
100013ba:	d0fc      	beq.n	100013b6 <clocks_init+0x126>
100013bc:	2380      	movs	r3, #128	; 0x80
100013be:	2180      	movs	r1, #128	; 0x80
100013c0:	019b      	lsls	r3, r3, #6
100013c2:	4303      	orrs	r3, r0
100013c4:	0109      	lsls	r1, r1, #4
100013c6:	6019      	str	r1, [r3, #0]
100013c8:	2180      	movs	r1, #128	; 0x80
100013ca:	4b60      	ldr	r3, [pc, #384]	; (1000154c <clocks_init+0x2bc>)
100013cc:	0049      	lsls	r1, r1, #1
100013ce:	6051      	str	r1, [r2, #4]
100013d0:	6163      	str	r3, [r4, #20]
100013d2:	4b5f      	ldr	r3, [pc, #380]	; (10001550 <clocks_init+0x2c0>)
100013d4:	685a      	ldr	r2, [r3, #4]
100013d6:	2aff      	cmp	r2, #255	; 0xff
100013d8:	d800      	bhi.n	100013dc <clocks_init+0x14c>
100013da:	6059      	str	r1, [r3, #4]
100013dc:	2280      	movs	r2, #128	; 0x80
100013de:	4b5d      	ldr	r3, [pc, #372]	; (10001554 <clocks_init+0x2c4>)
100013e0:	69e1      	ldr	r1, [r4, #28]
100013e2:	0112      	lsls	r2, r2, #4
100013e4:	4d5a      	ldr	r5, [pc, #360]	; (10001550 <clocks_init+0x2c0>)
100013e6:	601a      	str	r2, [r3, #0]
100013e8:	2900      	cmp	r1, #0
100013ea:	d005      	beq.n	100013f8 <clocks_init+0x168>
100013ec:	6960      	ldr	r0, [r4, #20]
100013ee:	f001 fe59 	bl	100030a4 <__wrap___aeabi_uidiv>
100013f2:	3001      	adds	r0, #1
100013f4:	3801      	subs	r0, #1
100013f6:	d1fd      	bne.n	100013f4 <clocks_init+0x164>
100013f8:	22e0      	movs	r2, #224	; 0xe0
100013fa:	4955      	ldr	r1, [pc, #340]	; (10001550 <clocks_init+0x2c0>)
100013fc:	680b      	ldr	r3, [r1, #0]
100013fe:	401a      	ands	r2, r3
10001400:	2380      	movs	r3, #128	; 0x80
10001402:	015b      	lsls	r3, r3, #5
10001404:	432b      	orrs	r3, r5
10001406:	601a      	str	r2, [r3, #0]
10001408:	2380      	movs	r3, #128	; 0x80
1000140a:	2280      	movs	r2, #128	; 0x80
1000140c:	019b      	lsls	r3, r3, #6
1000140e:	432b      	orrs	r3, r5
10001410:	0112      	lsls	r2, r2, #4
10001412:	601a      	str	r2, [r3, #0]
10001414:	2280      	movs	r2, #128	; 0x80
10001416:	4b3e      	ldr	r3, [pc, #248]	; (10001510 <clocks_init+0x280>)
10001418:	0052      	lsls	r2, r2, #1
1000141a:	604a      	str	r2, [r1, #4]
1000141c:	61e3      	str	r3, [r4, #28]
1000141e:	4b4e      	ldr	r3, [pc, #312]	; (10001558 <clocks_init+0x2c8>)
10001420:	6859      	ldr	r1, [r3, #4]
10001422:	29ff      	cmp	r1, #255	; 0xff
10001424:	d800      	bhi.n	10001428 <clocks_init+0x198>
10001426:	605a      	str	r2, [r3, #4]
10001428:	2280      	movs	r2, #128	; 0x80
1000142a:	4b4c      	ldr	r3, [pc, #304]	; (1000155c <clocks_init+0x2cc>)
1000142c:	6a21      	ldr	r1, [r4, #32]
1000142e:	0112      	lsls	r2, r2, #4
10001430:	4d49      	ldr	r5, [pc, #292]	; (10001558 <clocks_init+0x2c8>)
10001432:	601a      	str	r2, [r3, #0]
10001434:	2900      	cmp	r1, #0
10001436:	d005      	beq.n	10001444 <clocks_init+0x1b4>
10001438:	6960      	ldr	r0, [r4, #20]
1000143a:	f001 fe33 	bl	100030a4 <__wrap___aeabi_uidiv>
1000143e:	3001      	adds	r0, #1
10001440:	3801      	subs	r0, #1
10001442:	d1fd      	bne.n	10001440 <clocks_init+0x1b0>
10001444:	22e0      	movs	r2, #224	; 0xe0
10001446:	4944      	ldr	r1, [pc, #272]	; (10001558 <clocks_init+0x2c8>)
10001448:	680b      	ldr	r3, [r1, #0]
1000144a:	401a      	ands	r2, r3
1000144c:	2380      	movs	r3, #128	; 0x80
1000144e:	015b      	lsls	r3, r3, #5
10001450:	432b      	orrs	r3, r5
10001452:	601a      	str	r2, [r3, #0]
10001454:	2380      	movs	r3, #128	; 0x80
10001456:	2280      	movs	r2, #128	; 0x80
10001458:	019b      	lsls	r3, r3, #6
1000145a:	432b      	orrs	r3, r5
1000145c:	0112      	lsls	r2, r2, #4
1000145e:	601a      	str	r2, [r3, #0]
10001460:	2380      	movs	r3, #128	; 0x80
10001462:	2280      	movs	r2, #128	; 0x80
10001464:	005b      	lsls	r3, r3, #1
10001466:	604b      	str	r3, [r1, #4]
10001468:	4b29      	ldr	r3, [pc, #164]	; (10001510 <clocks_init+0x280>)
1000146a:	02d2      	lsls	r2, r2, #11
1000146c:	6223      	str	r3, [r4, #32]
1000146e:	4b3c      	ldr	r3, [pc, #240]	; (10001560 <clocks_init+0x2d0>)
10001470:	6859      	ldr	r1, [r3, #4]
10001472:	4291      	cmp	r1, r2
10001474:	d200      	bcs.n	10001478 <clocks_init+0x1e8>
10001476:	605a      	str	r2, [r3, #4]
10001478:	2280      	movs	r2, #128	; 0x80
1000147a:	4b3a      	ldr	r3, [pc, #232]	; (10001564 <clocks_init+0x2d4>)
1000147c:	6a61      	ldr	r1, [r4, #36]	; 0x24
1000147e:	0112      	lsls	r2, r2, #4
10001480:	4d37      	ldr	r5, [pc, #220]	; (10001560 <clocks_init+0x2d0>)
10001482:	601a      	str	r2, [r3, #0]
10001484:	2900      	cmp	r1, #0
10001486:	d005      	beq.n	10001494 <clocks_init+0x204>
10001488:	6960      	ldr	r0, [r4, #20]
1000148a:	f001 fe0b 	bl	100030a4 <__wrap___aeabi_uidiv>
1000148e:	3001      	adds	r0, #1
10001490:	3801      	subs	r0, #1
10001492:	d1fd      	bne.n	10001490 <clocks_init+0x200>
10001494:	22e0      	movs	r2, #224	; 0xe0
10001496:	4932      	ldr	r1, [pc, #200]	; (10001560 <clocks_init+0x2d0>)
10001498:	680b      	ldr	r3, [r1, #0]
1000149a:	401a      	ands	r2, r3
1000149c:	2380      	movs	r3, #128	; 0x80
1000149e:	015b      	lsls	r3, r3, #5
100014a0:	432b      	orrs	r3, r5
100014a2:	601a      	str	r2, [r3, #0]
100014a4:	2380      	movs	r3, #128	; 0x80
100014a6:	2280      	movs	r2, #128	; 0x80
100014a8:	019b      	lsls	r3, r3, #6
100014aa:	432b      	orrs	r3, r5
100014ac:	0112      	lsls	r2, r2, #4
100014ae:	601a      	str	r2, [r3, #0]
100014b0:	2380      	movs	r3, #128	; 0x80
100014b2:	02db      	lsls	r3, r3, #11
100014b4:	604b      	str	r3, [r1, #4]
100014b6:	4b17      	ldr	r3, [pc, #92]	; (10001514 <clocks_init+0x284>)
100014b8:	6263      	str	r3, [r4, #36]	; 0x24
100014ba:	4b2b      	ldr	r3, [pc, #172]	; (10001568 <clocks_init+0x2d8>)
100014bc:	685a      	ldr	r2, [r3, #4]
100014be:	2aff      	cmp	r2, #255	; 0xff
100014c0:	d802      	bhi.n	100014c8 <clocks_init+0x238>
100014c2:	2280      	movs	r2, #128	; 0x80
100014c4:	0052      	lsls	r2, r2, #1
100014c6:	605a      	str	r2, [r3, #4]
100014c8:	2280      	movs	r2, #128	; 0x80
100014ca:	4b28      	ldr	r3, [pc, #160]	; (1000156c <clocks_init+0x2dc>)
100014cc:	69a1      	ldr	r1, [r4, #24]
100014ce:	0112      	lsls	r2, r2, #4
100014d0:	4d25      	ldr	r5, [pc, #148]	; (10001568 <clocks_init+0x2d8>)
100014d2:	601a      	str	r2, [r3, #0]
100014d4:	2900      	cmp	r1, #0
100014d6:	d005      	beq.n	100014e4 <clocks_init+0x254>
100014d8:	6960      	ldr	r0, [r4, #20]
100014da:	f001 fde3 	bl	100030a4 <__wrap___aeabi_uidiv>
100014de:	3001      	adds	r0, #1
100014e0:	3801      	subs	r0, #1
100014e2:	d1fd      	bne.n	100014e0 <clocks_init+0x250>
100014e4:	22e0      	movs	r2, #224	; 0xe0
100014e6:	4920      	ldr	r1, [pc, #128]	; (10001568 <clocks_init+0x2d8>)
100014e8:	680b      	ldr	r3, [r1, #0]
100014ea:	401a      	ands	r2, r3
100014ec:	2380      	movs	r3, #128	; 0x80
100014ee:	015b      	lsls	r3, r3, #5
100014f0:	432b      	orrs	r3, r5
100014f2:	601a      	str	r2, [r3, #0]
100014f4:	2380      	movs	r3, #128	; 0x80
100014f6:	2280      	movs	r2, #128	; 0x80
100014f8:	019b      	lsls	r3, r3, #6
100014fa:	432b      	orrs	r3, r5
100014fc:	0112      	lsls	r2, r2, #4
100014fe:	601a      	str	r2, [r3, #0]
10001500:	2380      	movs	r3, #128	; 0x80
10001502:	005b      	lsls	r3, r3, #1
10001504:	604b      	str	r3, [r1, #4]
10001506:	4b11      	ldr	r3, [pc, #68]	; (1000154c <clocks_init+0x2bc>)
10001508:	61a3      	str	r3, [r4, #24]
1000150a:	e6d7      	b.n	100012bc <clocks_init+0x2c>
1000150c:	20000acc 	.word	0x20000acc
10001510:	02dc6c00 	.word	0x02dc6c00
10001514:	0000b71b 	.word	0x0000b71b
10001518:	40008000 	.word	0x40008000
1000151c:	4000b03c 	.word	0x4000b03c
10001520:	4000b030 	.word	0x4000b030
10001524:	4000e000 	.word	0x4000e000
10001528:	4000f000 	.word	0x4000f000
1000152c:	4000c000 	.word	0x4000c000
10001530:	59682f00 	.word	0x59682f00
10001534:	40028000 	.word	0x40028000
10001538:	1c9c3800 	.word	0x1c9c3800
1000153c:	4002c000 	.word	0x4002c000
10001540:	40008030 	.word	0x40008030
10001544:	00b71b00 	.word	0x00b71b00
10001548:	4000803c 	.word	0x4000803c
1000154c:	07735940 	.word	0x07735940
10001550:	40008054 	.word	0x40008054
10001554:	4000b054 	.word	0x4000b054
10001558:	40008060 	.word	0x40008060
1000155c:	4000b060 	.word	0x4000b060
10001560:	4000806c 	.word	0x4000806c
10001564:	4000b06c 	.word	0x4000b06c
10001568:	40008048 	.word	0x40008048
1000156c:	4000b048 	.word	0x4000b048

10001570 <clock_get_hz>:
10001570:	4b01      	ldr	r3, [pc, #4]	; (10001578 <clock_get_hz+0x8>)
10001572:	0080      	lsls	r0, r0, #2
10001574:	58c0      	ldr	r0, [r0, r3]
10001576:	4770      	bx	lr
10001578:	20000acc 	.word	0x20000acc

1000157c <frequency_count_khz>:
1000157c:	2280      	movs	r2, #128	; 0x80
1000157e:	b570      	push	{r4, r5, r6, lr}
10001580:	0006      	movs	r6, r0
10001582:	4c0e      	ldr	r4, [pc, #56]	; (100015bc <frequency_count_khz+0x40>)
10001584:	0052      	lsls	r2, r2, #1
10001586:	69a3      	ldr	r3, [r4, #24]
10001588:	001d      	movs	r5, r3
1000158a:	4015      	ands	r5, r2
1000158c:	4213      	tst	r3, r2
1000158e:	d1fa      	bne.n	10001586 <frequency_count_khz+0xa>
10001590:	21fa      	movs	r1, #250	; 0xfa
10001592:	4b0b      	ldr	r3, [pc, #44]	; (100015c0 <frequency_count_khz+0x44>)
10001594:	0089      	lsls	r1, r1, #2
10001596:	6918      	ldr	r0, [r3, #16]
10001598:	f001 fd84 	bl	100030a4 <__wrap___aeabi_uidiv>
1000159c:	230a      	movs	r3, #10
1000159e:	2110      	movs	r1, #16
100015a0:	6020      	str	r0, [r4, #0]
100015a2:	4a06      	ldr	r2, [pc, #24]	; (100015bc <frequency_count_khz+0x40>)
100015a4:	6123      	str	r3, [r4, #16]
100015a6:	3b0b      	subs	r3, #11
100015a8:	6065      	str	r5, [r4, #4]
100015aa:	60a3      	str	r3, [r4, #8]
100015ac:	6166      	str	r6, [r4, #20]
100015ae:	6993      	ldr	r3, [r2, #24]
100015b0:	4219      	tst	r1, r3
100015b2:	d0fc      	beq.n	100015ae <frequency_count_khz+0x32>
100015b4:	69d0      	ldr	r0, [r2, #28]
100015b6:	0940      	lsrs	r0, r0, #5
100015b8:	bd70      	pop	{r4, r5, r6, pc}
100015ba:	46c0      	nop			; (mov r8, r8)
100015bc:	40008080 	.word	0x40008080
100015c0:	20000acc 	.word	0x20000acc

100015c4 <watchdog_start_tick>:
100015c4:	2380      	movs	r3, #128	; 0x80
100015c6:	4a02      	ldr	r2, [pc, #8]	; (100015d0 <watchdog_start_tick+0xc>)
100015c8:	009b      	lsls	r3, r3, #2
100015ca:	4303      	orrs	r3, r0
100015cc:	62d3      	str	r3, [r2, #44]	; 0x2c
100015ce:	4770      	bx	lr
100015d0:	40058000 	.word	0x40058000

100015d4 <xosc_init>:
100015d4:	23aa      	movs	r3, #170	; 0xaa
100015d6:	4a06      	ldr	r2, [pc, #24]	; (100015f0 <xosc_init+0x1c>)
100015d8:	011b      	lsls	r3, r3, #4
100015da:	6013      	str	r3, [r2, #0]
100015dc:	232f      	movs	r3, #47	; 0x2f
100015de:	4905      	ldr	r1, [pc, #20]	; (100015f4 <xosc_init+0x20>)
100015e0:	60d3      	str	r3, [r2, #12]
100015e2:	4b05      	ldr	r3, [pc, #20]	; (100015f8 <xosc_init+0x24>)
100015e4:	6019      	str	r1, [r3, #0]
100015e6:	6853      	ldr	r3, [r2, #4]
100015e8:	2b00      	cmp	r3, #0
100015ea:	dafc      	bge.n	100015e6 <xosc_init+0x12>
100015ec:	4770      	bx	lr
100015ee:	46c0      	nop			; (mov r8, r8)
100015f0:	40024000 	.word	0x40024000
100015f4:	00fab000 	.word	0x00fab000
100015f8:	40026000 	.word	0x40026000

100015fc <pll_init>:
100015fc:	b5f8      	push	{r3, r4, r5, r6, r7, lr}
100015fe:	001d      	movs	r5, r3
10001600:	ab06      	add	r3, sp, #24
10001602:	781e      	ldrb	r6, [r3, #0]
10001604:	2301      	movs	r3, #1
10001606:	425b      	negs	r3, r3
10001608:	6043      	str	r3, [r0, #4]
1000160a:	2300      	movs	r3, #0
1000160c:	0004      	movs	r4, r0
1000160e:	6083      	str	r3, [r0, #8]
10001610:	6001      	str	r1, [r0, #0]
10001612:	200c      	movs	r0, #12
10001614:	0017      	movs	r7, r2
10001616:	f001 fd45 	bl	100030a4 <__wrap___aeabi_uidiv>
1000161a:	0141      	lsls	r1, r0, #5
1000161c:	1a09      	subs	r1, r1, r0
1000161e:	018b      	lsls	r3, r1, #6
10001620:	1a59      	subs	r1, r3, r1
10001622:	00c9      	lsls	r1, r1, #3
10001624:	1809      	adds	r1, r1, r0
10001626:	0189      	lsls	r1, r1, #6
10001628:	0038      	movs	r0, r7
1000162a:	f001 fd3b 	bl	100030a4 <__wrap___aeabi_uidiv>
1000162e:	21c0      	movs	r1, #192	; 0xc0
10001630:	1d23      	adds	r3, r4, #4
10001632:	0189      	lsls	r1, r1, #6
10001634:	4319      	orrs	r1, r3
10001636:	2321      	movs	r3, #33	; 0x21
10001638:	60a0      	str	r0, [r4, #8]
1000163a:	600b      	str	r3, [r1, #0]
1000163c:	6822      	ldr	r2, [r4, #0]
1000163e:	2a00      	cmp	r2, #0
10001640:	dafc      	bge.n	1000163c <pll_init+0x40>
10001642:	2308      	movs	r3, #8
10001644:	042d      	lsls	r5, r5, #16
10001646:	0336      	lsls	r6, r6, #12
10001648:	432e      	orrs	r6, r5
1000164a:	60e6      	str	r6, [r4, #12]
1000164c:	600b      	str	r3, [r1, #0]
1000164e:	bdf8      	pop	{r3, r4, r5, r6, r7, pc}

10001650 <pll_deinit>:
10001650:	232d      	movs	r3, #45	; 0x2d
10001652:	6043      	str	r3, [r0, #4]
10001654:	4770      	bx	lr
10001656:	46c0      	nop			; (mov r8, r8)

10001658 <irq_set_enabled>:
10001658:	2301      	movs	r3, #1
1000165a:	4083      	lsls	r3, r0
1000165c:	2900      	cmp	r1, #0
1000165e:	d004      	beq.n	1000166a <irq_set_enabled+0x12>
10001660:	4a03      	ldr	r2, [pc, #12]	; (10001670 <irq_set_enabled+0x18>)
10001662:	6013      	str	r3, [r2, #0]
10001664:	4a03      	ldr	r2, [pc, #12]	; (10001674 <irq_set_enabled+0x1c>)
10001666:	6013      	str	r3, [r2, #0]
10001668:	4770      	bx	lr
1000166a:	4a03      	ldr	r2, [pc, #12]	; (10001678 <irq_set_enabled+0x20>)
1000166c:	6013      	str	r3, [r2, #0]
1000166e:	e7fb      	b.n	10001668 <irq_set_enabled+0x10>
10001670:	e000e280 	.word	0xe000e280
10001674:	e000e100 	.word	0xe000e100
10001678:	e000e180 	.word	0xe000e180

1000167c <irq_get_vtable_handler>:
1000167c:	4b02      	ldr	r3, [pc, #8]	; (10001688 <irq_get_vtable_handler+0xc>)
1000167e:	3010      	adds	r0, #16
10001680:	689b      	ldr	r3, [r3, #8]
10001682:	0080      	lsls	r0, r0, #2
10001684:	58c0      	ldr	r0, [r0, r3]
10001686:	4770      	bx	lr
10001688:	e000ed00 	.word	0xe000ed00

1000168c <irq_set_exclusive_handler>:
1000168c:	b570      	push	{r4, r5, r6, lr}
1000168e:	000d      	movs	r5, r1
10001690:	f3ef 8610 	mrs	r6, PRIMASK
10001694:	b672      	cpsid	i
10001696:	4a0f      	ldr	r2, [pc, #60]	; (100016d4 <irq_set_exclusive_handler+0x48>)
10001698:	6813      	ldr	r3, [r2, #0]
1000169a:	2b00      	cmp	r3, #0
1000169c:	d0fc      	beq.n	10001698 <irq_set_exclusive_handler+0xc>
1000169e:	f3bf 8f5f 	dmb	sy
100016a2:	4b0d      	ldr	r3, [pc, #52]	; (100016d8 <irq_set_exclusive_handler+0x4c>)
100016a4:	3010      	adds	r0, #16
100016a6:	689b      	ldr	r3, [r3, #8]
100016a8:	0084      	lsls	r4, r0, #2
100016aa:	591b      	ldr	r3, [r3, r4]
100016ac:	4a0b      	ldr	r2, [pc, #44]	; (100016dc <irq_set_exclusive_handler+0x50>)
100016ae:	4293      	cmp	r3, r2
100016b0:	d003      	beq.n	100016ba <irq_set_exclusive_handler+0x2e>
100016b2:	429d      	cmp	r5, r3
100016b4:	d001      	beq.n	100016ba <irq_set_exclusive_handler+0x2e>
100016b6:	f7ff fd6d 	bl	10001194 <hard_assertion_failure>
100016ba:	4b07      	ldr	r3, [pc, #28]	; (100016d8 <irq_set_exclusive_handler+0x4c>)
100016bc:	689b      	ldr	r3, [r3, #8]
100016be:	511d      	str	r5, [r3, r4]
100016c0:	f3bf 8f5f 	dmb	sy
100016c4:	f3bf 8f5f 	dmb	sy
100016c8:	2200      	movs	r2, #0
100016ca:	4b02      	ldr	r3, [pc, #8]	; (100016d4 <irq_set_exclusive_handler+0x48>)
100016cc:	601a      	str	r2, [r3, #0]
100016ce:	f386 8810 	msr	PRIMASK, r6
100016d2:	bd70      	pop	{r4, r5, r6, pc}
100016d4:	d0000124 	.word	0xd0000124
100016d8:	e000ed00 	.word	0xe000ed00
100016dc:	100002cd 	.word	0x100002cd

100016e0 <irq_remove_handler>:
100016e0:	b5f0      	push	{r4, r5, r6, r7, lr}
100016e2:	46de      	mov	lr, fp
100016e4:	4657      	mov	r7, sl
100016e6:	464e      	mov	r6, r9
100016e8:	4645      	mov	r5, r8
100016ea:	b5e0      	push	{r5, r6, r7, lr}
100016ec:	000c      	movs	r4, r1
100016ee:	b083      	sub	sp, #12
100016f0:	f3ef 8a10 	mrs	sl, PRIMASK
100016f4:	b672      	cpsid	i
100016f6:	4a5f      	ldr	r2, [pc, #380]	; (10001874 <irq_remove_handler+0x194>)
100016f8:	6813      	ldr	r3, [r2, #0]
100016fa:	2b00      	cmp	r3, #0
100016fc:	d0fc      	beq.n	100016f8 <irq_remove_handler+0x18>
100016fe:	f3bf 8f5f 	dmb	sy
10001702:	2210      	movs	r2, #16
10001704:	4691      	mov	r9, r2
10001706:	4481      	add	r9, r0
10001708:	464a      	mov	r2, r9
1000170a:	4b5b      	ldr	r3, [pc, #364]	; (10001878 <irq_remove_handler+0x198>)
1000170c:	0096      	lsls	r6, r2, #2
1000170e:	689b      	ldr	r3, [r3, #8]
10001710:	599d      	ldr	r5, [r3, r6]
10001712:	4b5a      	ldr	r3, [pc, #360]	; (1000187c <irq_remove_handler+0x19c>)
10001714:	4698      	mov	r8, r3
10001716:	429d      	cmp	r5, r3
10001718:	d005      	beq.n	10001726 <irq_remove_handler+0x46>
1000171a:	42a5      	cmp	r5, r4
1000171c:	d016      	beq.n	1000174c <irq_remove_handler+0x6c>
1000171e:	4f58      	ldr	r7, [pc, #352]	; (10001880 <irq_remove_handler+0x1a0>)
10001720:	1beb      	subs	r3, r5, r7
10001722:	2b2f      	cmp	r3, #47	; 0x2f
10001724:	d914      	bls.n	10001750 <irq_remove_handler+0x70>
10001726:	4b54      	ldr	r3, [pc, #336]	; (10001878 <irq_remove_handler+0x198>)
10001728:	689b      	ldr	r3, [r3, #8]
1000172a:	519d      	str	r5, [r3, r6]
1000172c:	f3bf 8f5f 	dmb	sy
10001730:	f3bf 8f5f 	dmb	sy
10001734:	2200      	movs	r2, #0
10001736:	4b4f      	ldr	r3, [pc, #316]	; (10001874 <irq_remove_handler+0x194>)
10001738:	601a      	str	r2, [r3, #0]
1000173a:	f38a 8810 	msr	PRIMASK, sl
1000173e:	b003      	add	sp, #12
10001740:	bc3c      	pop	{r2, r3, r4, r5}
10001742:	4690      	mov	r8, r2
10001744:	4699      	mov	r9, r3
10001746:	46a2      	mov	sl, r4
10001748:	46ab      	mov	fp, r5
1000174a:	bdf0      	pop	{r4, r5, r6, r7, pc}
1000174c:	001d      	movs	r5, r3
1000174e:	e7ea      	b.n	10001726 <irq_remove_handler+0x46>
10001750:	2301      	movs	r3, #1
10001752:	4083      	lsls	r3, r0
10001754:	469b      	mov	fp, r3
10001756:	465a      	mov	r2, fp
10001758:	4b4a      	ldr	r3, [pc, #296]	; (10001884 <irq_remove_handler+0x1a4>)
1000175a:	681b      	ldr	r3, [r3, #0]
1000175c:	401a      	ands	r2, r3
1000175e:	9200      	str	r2, [sp, #0]
10001760:	465a      	mov	r2, fp
10001762:	4b49      	ldr	r3, [pc, #292]	; (10001888 <irq_remove_handler+0x1a8>)
10001764:	601a      	str	r2, [r3, #0]
10001766:	f3bf 8f5f 	dmb	sy
1000176a:	f7fe fd14 	bl	10000196 <__get_current_exception>
1000176e:	9001      	str	r0, [sp, #4]
10001770:	2800      	cmp	r0, #0
10001772:	d003      	beq.n	1000177c <irq_remove_handler+0x9c>
10001774:	4581      	cmp	r9, r0
10001776:	d001      	beq.n	1000177c <irq_remove_handler+0x9c>
10001778:	f7ff fd0c 	bl	10001194 <hard_assertion_failure>
1000177c:	2301      	movs	r3, #1
1000177e:	0029      	movs	r1, r5
10001780:	4399      	bics	r1, r3
10001782:	688b      	ldr	r3, [r1, #8]
10001784:	42a3      	cmp	r3, r4
10001786:	d069      	beq.n	1000185c <irq_remove_handler+0x17c>
10001788:	000a      	movs	r2, r1
1000178a:	e007      	b.n	1000179c <irq_remove_handler+0xbc>
1000178c:	0043      	lsls	r3, r0, #1
1000178e:	181b      	adds	r3, r3, r0
10001790:	009b      	lsls	r3, r3, #2
10001792:	18fb      	adds	r3, r7, r3
10001794:	6898      	ldr	r0, [r3, #8]
10001796:	42a0      	cmp	r0, r4
10001798:	d011      	beq.n	100017be <irq_remove_handler+0xde>
1000179a:	001a      	movs	r2, r3
1000179c:	2006      	movs	r0, #6
1000179e:	5610      	ldrsb	r0, [r2, r0]
100017a0:	2800      	cmp	r0, #0
100017a2:	daf3      	bge.n	1000178c <irq_remove_handler+0xac>
100017a4:	9b00      	ldr	r3, [sp, #0]
100017a6:	2b00      	cmp	r3, #0
100017a8:	d005      	beq.n	100017b6 <irq_remove_handler+0xd6>
100017aa:	465a      	mov	r2, fp
100017ac:	4b37      	ldr	r3, [pc, #220]	; (1000188c <irq_remove_handler+0x1ac>)
100017ae:	601a      	str	r2, [r3, #0]
100017b0:	4b34      	ldr	r3, [pc, #208]	; (10001884 <irq_remove_handler+0x1a4>)
100017b2:	601a      	str	r2, [r3, #0]
100017b4:	e7b7      	b.n	10001726 <irq_remove_handler+0x46>
100017b6:	465a      	mov	r2, fp
100017b8:	4b33      	ldr	r3, [pc, #204]	; (10001888 <irq_remove_handler+0x1a8>)
100017ba:	601a      	str	r2, [r3, #0]
100017bc:	e7b3      	b.n	10001726 <irq_remove_handler+0x46>
100017be:	2006      	movs	r0, #6
100017c0:	5618      	ldrsb	r0, [r3, r0]
100017c2:	2800      	cmp	r0, #0
100017c4:	db22      	blt.n	1000180c <irq_remove_handler+0x12c>
100017c6:	0042      	lsls	r2, r0, #1
100017c8:	1811      	adds	r1, r2, r0
100017ca:	0089      	lsls	r1, r1, #2
100017cc:	187c      	adds	r4, r7, r1
100017ce:	4688      	mov	r8, r1
100017d0:	68a1      	ldr	r1, [r4, #8]
100017d2:	6099      	str	r1, [r3, #8]
100017d4:	79e1      	ldrb	r1, [r4, #7]
100017d6:	71d9      	strb	r1, [r3, #7]
100017d8:	2106      	movs	r1, #6
100017da:	5661      	ldrsb	r1, [r4, r1]
100017dc:	7199      	strb	r1, [r3, #6]
100017de:	79a1      	ldrb	r1, [r4, #6]
100017e0:	297f      	cmp	r1, #127	; 0x7f
100017e2:	d82b      	bhi.n	1000183c <irq_remove_handler+0x15c>
100017e4:	88a4      	ldrh	r4, [r4, #4]
100017e6:	1af9      	subs	r1, r7, r3
100017e8:	0564      	lsls	r4, r4, #21
100017ea:	1524      	asrs	r4, r4, #20
100017ec:	4444      	add	r4, r8
100017ee:	1909      	adds	r1, r1, r4
100017f0:	24e0      	movs	r4, #224	; 0xe0
100017f2:	0509      	lsls	r1, r1, #20
100017f4:	0d49      	lsrs	r1, r1, #21
100017f6:	0224      	lsls	r4, r4, #8
100017f8:	4321      	orrs	r1, r4
100017fa:	8099      	strh	r1, [r3, #4]
100017fc:	1812      	adds	r2, r2, r0
100017fe:	4b24      	ldr	r3, [pc, #144]	; (10001890 <irq_remove_handler+0x1b0>)
10001800:	0092      	lsls	r2, r2, #2
10001802:	18bf      	adds	r7, r7, r2
10001804:	781a      	ldrb	r2, [r3, #0]
10001806:	7018      	strb	r0, [r3, #0]
10001808:	71ba      	strb	r2, [r7, #6]
1000180a:	e7cb      	b.n	100017a4 <irq_remove_handler+0xc4>
1000180c:	9801      	ldr	r0, [sp, #4]
1000180e:	2800      	cmp	r0, #0
10001810:	d117      	bne.n	10001842 <irq_remove_handler+0x162>
10001812:	30ff      	adds	r0, #255	; 0xff
10001814:	7190      	strb	r0, [r2, #6]
10001816:	481f      	ldr	r0, [pc, #124]	; (10001894 <irq_remove_handler+0x1b4>)
10001818:	8090      	strh	r0, [r2, #4]
1000181a:	4a1d      	ldr	r2, [pc, #116]	; (10001890 <irq_remove_handler+0x1b0>)
1000181c:	1bcf      	subs	r7, r1, r7
1000181e:	7810      	ldrb	r0, [r2, #0]
10001820:	10bf      	asrs	r7, r7, #2
10001822:	7198      	strb	r0, [r3, #6]
10001824:	00bb      	lsls	r3, r7, #2
10001826:	19db      	adds	r3, r3, r7
10001828:	0119      	lsls	r1, r3, #4
1000182a:	185b      	adds	r3, r3, r1
1000182c:	0219      	lsls	r1, r3, #8
1000182e:	185b      	adds	r3, r3, r1
10001830:	0419      	lsls	r1, r3, #16
10001832:	185b      	adds	r3, r3, r1
10001834:	005b      	lsls	r3, r3, #1
10001836:	19db      	adds	r3, r3, r7
10001838:	7013      	strb	r3, [r2, #0]
1000183a:	e7b3      	b.n	100017a4 <irq_remove_handler+0xc4>
1000183c:	21bd      	movs	r1, #189	; 0xbd
1000183e:	0209      	lsls	r1, r1, #8
10001840:	e7db      	b.n	100017fa <irq_remove_handler+0x11a>
10001842:	4a15      	ldr	r2, [pc, #84]	; (10001898 <irq_remove_handler+0x1b8>)
10001844:	4915      	ldr	r1, [pc, #84]	; (1000189c <irq_remove_handler+0x1bc>)
10001846:	1ad2      	subs	r2, r2, r3
10001848:	3a08      	subs	r2, #8
1000184a:	0250      	lsls	r0, r2, #9
1000184c:	0d40      	lsrs	r0, r0, #21
1000184e:	4301      	orrs	r1, r0
10001850:	8099      	strh	r1, [r3, #4]
10001852:	4913      	ldr	r1, [pc, #76]	; (100018a0 <irq_remove_handler+0x1c0>)
10001854:	0852      	lsrs	r2, r2, #1
10001856:	430a      	orrs	r2, r1
10001858:	80da      	strh	r2, [r3, #6]
1000185a:	e7a3      	b.n	100017a4 <irq_remove_handler+0xc4>
1000185c:	2006      	movs	r0, #6
1000185e:	5608      	ldrsb	r0, [r1, r0]
10001860:	000b      	movs	r3, r1
10001862:	2800      	cmp	r0, #0
10001864:	daaf      	bge.n	100017c6 <irq_remove_handler+0xe6>
10001866:	9a01      	ldr	r2, [sp, #4]
10001868:	2a00      	cmp	r2, #0
1000186a:	d1ea      	bne.n	10001842 <irq_remove_handler+0x162>
1000186c:	000b      	movs	r3, r1
1000186e:	4645      	mov	r5, r8
10001870:	e7d3      	b.n	1000181a <irq_remove_handler+0x13a>
10001872:	46c0      	nop			; (mov r8, r8)
10001874:	d0000124 	.word	0xd0000124
10001878:	e000ed00 	.word	0xe000ed00
1000187c:	100002cd 	.word	0x100002cd
10001880:	2000018c 	.word	0x2000018c
10001884:	e000e100 	.word	0xe000e100
10001888:	e000e180 	.word	0xe000e180
1000188c:	e000e280 	.word	0xe000e280
10001890:	20000b29 	.word	0x20000b29
10001894:	ffffbd00 	.word	0xffffbd00
10001898:	200001c6 	.word	0x200001c6
1000189c:	fffff000 	.word	0xfffff000
100018a0:	fffff800 	.word	0xfffff800

100018a4 <irq_add_tail_to_free_list>:
100018a4:	b5f8      	push	{r3, r4, r5, r6, r7, lr}
100018a6:	2501      	movs	r5, #1
100018a8:	0004      	movs	r4, r0
100018aa:	4305      	orrs	r5, r0
100018ac:	f7fe fc73 	bl	10000196 <__get_current_exception>
100018b0:	f3ef 8610 	mrs	r6, PRIMASK
100018b4:	b672      	cpsid	i
100018b6:	4a24      	ldr	r2, [pc, #144]	; (10001948 <irq_add_tail_to_free_list+0xa4>)
100018b8:	6813      	ldr	r3, [r2, #0]
100018ba:	2b00      	cmp	r3, #0
100018bc:	d0fc      	beq.n	100018b8 <irq_add_tail_to_free_list+0x14>
100018be:	f3bf 8f5f 	dmb	sy
100018c2:	4f22      	ldr	r7, [pc, #136]	; (1000194c <irq_add_tail_to_free_list+0xa8>)
100018c4:	0080      	lsls	r0, r0, #2
100018c6:	1be1      	subs	r1, r4, r7
100018c8:	1089      	asrs	r1, r1, #2
100018ca:	008a      	lsls	r2, r1, #2
100018cc:	1852      	adds	r2, r2, r1
100018ce:	0113      	lsls	r3, r2, #4
100018d0:	18d2      	adds	r2, r2, r3
100018d2:	0213      	lsls	r3, r2, #8
100018d4:	18d2      	adds	r2, r2, r3
100018d6:	0413      	lsls	r3, r2, #16
100018d8:	18d3      	adds	r3, r2, r3
100018da:	4a1d      	ldr	r2, [pc, #116]	; (10001950 <irq_add_tail_to_free_list+0xac>)
100018dc:	005b      	lsls	r3, r3, #1
100018de:	185b      	adds	r3, r3, r1
100018e0:	6891      	ldr	r1, [r2, #8]
100018e2:	5809      	ldr	r1, [r1, r0]
100018e4:	42a9      	cmp	r1, r5
100018e6:	d01c      	beq.n	10001922 <irq_add_tail_to_free_list+0x7e>
100018e8:	2206      	movs	r2, #6
100018ea:	56ba      	ldrsb	r2, [r7, r2]
100018ec:	4293      	cmp	r3, r2
100018ee:	d01c      	beq.n	1000192a <irq_add_tail_to_free_list+0x86>
100018f0:	2212      	movs	r2, #18
100018f2:	56ba      	ldrsb	r2, [r7, r2]
100018f4:	4293      	cmp	r3, r2
100018f6:	d022      	beq.n	1000193e <irq_add_tail_to_free_list+0x9a>
100018f8:	221e      	movs	r2, #30
100018fa:	56ba      	ldrsb	r2, [r7, r2]
100018fc:	4293      	cmp	r3, r2
100018fe:	d020      	beq.n	10001942 <irq_add_tail_to_free_list+0x9e>
10001900:	222a      	movs	r2, #42	; 0x2a
10001902:	56ba      	ldrsb	r2, [r7, r2]
10001904:	2103      	movs	r1, #3
10001906:	429a      	cmp	r2, r3
10001908:	d010      	beq.n	1000192c <irq_add_tail_to_free_list+0x88>
1000190a:	4a12      	ldr	r2, [pc, #72]	; (10001954 <irq_add_tail_to_free_list+0xb0>)
1000190c:	7811      	ldrb	r1, [r2, #0]
1000190e:	7013      	strb	r3, [r2, #0]
10001910:	71a1      	strb	r1, [r4, #6]
10001912:	f3bf 8f5f 	dmb	sy
10001916:	2200      	movs	r2, #0
10001918:	4b0b      	ldr	r3, [pc, #44]	; (10001948 <irq_add_tail_to_free_list+0xa4>)
1000191a:	601a      	str	r2, [r3, #0]
1000191c:	f386 8810 	msr	PRIMASK, r6
10001920:	bdf8      	pop	{r3, r4, r5, r6, r7, pc}
10001922:	6892      	ldr	r2, [r2, #8]
10001924:	490c      	ldr	r1, [pc, #48]	; (10001958 <irq_add_tail_to_free_list+0xb4>)
10001926:	5011      	str	r1, [r2, r0]
10001928:	e7ef      	b.n	1000190a <irq_add_tail_to_free_list+0x66>
1000192a:	2100      	movs	r1, #0
1000192c:	004a      	lsls	r2, r1, #1
1000192e:	1852      	adds	r2, r2, r1
10001930:	21ff      	movs	r1, #255	; 0xff
10001932:	0092      	lsls	r2, r2, #2
10001934:	18ba      	adds	r2, r7, r2
10001936:	7191      	strb	r1, [r2, #6]
10001938:	4908      	ldr	r1, [pc, #32]	; (1000195c <irq_add_tail_to_free_list+0xb8>)
1000193a:	8091      	strh	r1, [r2, #4]
1000193c:	e7e5      	b.n	1000190a <irq_add_tail_to_free_list+0x66>
1000193e:	2101      	movs	r1, #1
10001940:	e7f4      	b.n	1000192c <irq_add_tail_to_free_list+0x88>
10001942:	2102      	movs	r1, #2
10001944:	e7f2      	b.n	1000192c <irq_add_tail_to_free_list+0x88>
10001946:	46c0      	nop			; (mov r8, r8)
10001948:	d0000124 	.word	0xd0000124
1000194c:	2000018c 	.word	0x2000018c
10001950:	e000ed00 	.word	0xe000ed00
10001954:	20000b29 	.word	0x20000b29
10001958:	100002cd 	.word	0x100002cd
1000195c:	ffffbd00 	.word	0xffffbd00

10001960 <irq_init_priorities>:
10001960:	b5f0      	push	{r4, r5, r6, r7, lr}
10001962:	2200      	movs	r2, #0
10001964:	2403      	movs	r4, #3
10001966:	27ff      	movs	r7, #255	; 0xff
10001968:	2680      	movs	r6, #128	; 0x80
1000196a:	0020      	movs	r0, r4
1000196c:	003d      	movs	r5, r7
1000196e:	4b09      	ldr	r3, [pc, #36]	; (10001994 <irq_init_priorities+0x34>)
10001970:	0011      	movs	r1, r2
10001972:	469c      	mov	ip, r3
10001974:	4010      	ands	r0, r2
10001976:	00c0      	lsls	r0, r0, #3
10001978:	4085      	lsls	r5, r0
1000197a:	43a1      	bics	r1, r4
1000197c:	4461      	add	r1, ip
1000197e:	680b      	ldr	r3, [r1, #0]
10001980:	3201      	adds	r2, #1
10001982:	43ab      	bics	r3, r5
10001984:	0035      	movs	r5, r6
10001986:	4085      	lsls	r5, r0
10001988:	432b      	orrs	r3, r5
1000198a:	600b      	str	r3, [r1, #0]
1000198c:	2a20      	cmp	r2, #32
1000198e:	d1ec      	bne.n	1000196a <irq_init_priorities+0xa>
10001990:	bdf0      	pop	{r4, r5, r6, r7, pc}
10001992:	46c0      	nop			; (mov r8, r8)
10001994:	e000e400 	.word	0xe000e400

10001998 <_out_null>:
10001998:	4770      	bx	lr
1000199a:	46c0      	nop			; (mov r8, r8)

1000199c <_out_rev>:
1000199c:	b5f8      	push	{r3, r4, r5, r6, r7, lr}
1000199e:	4657      	mov	r7, sl
100019a0:	464e      	mov	r6, r9
100019a2:	46de      	mov	lr, fp
100019a4:	4645      	mov	r5, r8
100019a6:	b5e0      	push	{r5, r6, r7, lr}
100019a8:	001f      	movs	r7, r3
100019aa:	9b0a      	ldr	r3, [sp, #40]	; 0x28
100019ac:	0005      	movs	r5, r0
100019ae:	469b      	mov	fp, r3
100019b0:	9b0d      	ldr	r3, [sp, #52]	; 0x34
100019b2:	000e      	movs	r6, r1
100019b4:	4691      	mov	r9, r2
100019b6:	4692      	mov	sl, r2
100019b8:	079b      	lsls	r3, r3, #30
100019ba:	d118      	bne.n	100019ee <_out_rev+0x52>
100019bc:	9b0b      	ldr	r3, [sp, #44]	; 0x2c
100019be:	9a0c      	ldr	r2, [sp, #48]	; 0x30
100019c0:	4293      	cmp	r3, r2
100019c2:	d214      	bcs.n	100019ee <_out_rev+0x52>
100019c4:	0013      	movs	r3, r2
100019c6:	9a0b      	ldr	r2, [sp, #44]	; 0x2c
100019c8:	46b8      	mov	r8, r7
100019ca:	1a9b      	subs	r3, r3, r2
100019cc:	444b      	add	r3, r9
100019ce:	464c      	mov	r4, r9
100019d0:	000f      	movs	r7, r1
100019d2:	0006      	movs	r6, r0
100019d4:	001d      	movs	r5, r3
100019d6:	0022      	movs	r2, r4
100019d8:	4643      	mov	r3, r8
100019da:	3401      	adds	r4, #1
100019dc:	0039      	movs	r1, r7
100019de:	2020      	movs	r0, #32
100019e0:	47b0      	blx	r6
100019e2:	42ac      	cmp	r4, r5
100019e4:	d1f7      	bne.n	100019d6 <_out_rev+0x3a>
100019e6:	46aa      	mov	sl, r5
100019e8:	0035      	movs	r5, r6
100019ea:	003e      	movs	r6, r7
100019ec:	4647      	mov	r7, r8
100019ee:	9b0b      	ldr	r3, [sp, #44]	; 0x2c
100019f0:	2b00      	cmp	r3, #0
100019f2:	d038      	beq.n	10001a66 <_out_rev+0xca>
100019f4:	449a      	add	sl, r3
100019f6:	001c      	movs	r4, r3
100019f8:	46d0      	mov	r8, sl
100019fa:	4653      	mov	r3, sl
100019fc:	1b1a      	subs	r2, r3, r4
100019fe:	465b      	mov	r3, fp
10001a00:	3c01      	subs	r4, #1
10001a02:	5d18      	ldrb	r0, [r3, r4]
10001a04:	0031      	movs	r1, r6
10001a06:	003b      	movs	r3, r7
10001a08:	47a8      	blx	r5
10001a0a:	2c00      	cmp	r4, #0
10001a0c:	d1f5      	bne.n	100019fa <_out_rev+0x5e>
10001a0e:	9b0d      	ldr	r3, [sp, #52]	; 0x34
10001a10:	079b      	lsls	r3, r3, #30
10001a12:	d521      	bpl.n	10001a58 <_out_rev+0xbc>
10001a14:	4643      	mov	r3, r8
10001a16:	464a      	mov	r2, r9
10001a18:	1a9c      	subs	r4, r3, r2
10001a1a:	9b0c      	ldr	r3, [sp, #48]	; 0x30
10001a1c:	42a3      	cmp	r3, r4
10001a1e:	d91b      	bls.n	10001a58 <_out_rev+0xbc>
10001a20:	003a      	movs	r2, r7
10001a22:	469a      	mov	sl, r3
10001a24:	464f      	mov	r7, r9
10001a26:	4691      	mov	r9, r2
10001a28:	19e2      	adds	r2, r4, r7
10001a2a:	464b      	mov	r3, r9
10001a2c:	0031      	movs	r1, r6
10001a2e:	2020      	movs	r0, #32
10001a30:	3401      	adds	r4, #1
10001a32:	47a8      	blx	r5
10001a34:	4554      	cmp	r4, sl
10001a36:	d3f7      	bcc.n	10001a28 <_out_rev+0x8c>
10001a38:	4643      	mov	r3, r8
10001a3a:	990c      	ldr	r1, [sp, #48]	; 0x30
10001a3c:	1bdb      	subs	r3, r3, r7
10001a3e:	3301      	adds	r3, #1
10001a40:	46b9      	mov	r9, r7
10001a42:	2200      	movs	r2, #0
10001a44:	4299      	cmp	r1, r3
10001a46:	d303      	bcc.n	10001a50 <_out_rev+0xb4>
10001a48:	4643      	mov	r3, r8
10001a4a:	1e4a      	subs	r2, r1, #1
10001a4c:	444a      	add	r2, r9
10001a4e:	1ad2      	subs	r2, r2, r3
10001a50:	4643      	mov	r3, r8
10001a52:	4690      	mov	r8, r2
10001a54:	3301      	adds	r3, #1
10001a56:	4498      	add	r8, r3
10001a58:	4640      	mov	r0, r8
10001a5a:	bc3c      	pop	{r2, r3, r4, r5}
10001a5c:	4690      	mov	r8, r2
10001a5e:	4699      	mov	r9, r3
10001a60:	46a2      	mov	sl, r4
10001a62:	46ab      	mov	fp, r5
10001a64:	bdf8      	pop	{r3, r4, r5, r6, r7, pc}
10001a66:	46d0      	mov	r8, sl
10001a68:	e7d1      	b.n	10001a0e <_out_rev+0x72>
10001a6a:	46c0      	nop			; (mov r8, r8)

10001a6c <_ntoa_format>:
10001a6c:	b5f0      	push	{r4, r5, r6, r7, lr}
10001a6e:	464f      	mov	r7, r9
10001a70:	4646      	mov	r6, r8
10001a72:	46d6      	mov	lr, sl
10001a74:	b5c0      	push	{r6, r7, lr}
10001a76:	b084      	sub	sp, #16
10001a78:	4698      	mov	r8, r3
10001a7a:	ab0e      	add	r3, sp, #56	; 0x38
10001a7c:	781b      	ldrb	r3, [r3, #0]
10001a7e:	9f12      	ldr	r7, [sp, #72]	; 0x48
10001a80:	4699      	mov	r9, r3
10001a82:	4694      	mov	ip, r2
10001a84:	9c0d      	ldr	r4, [sp, #52]	; 0x34
10001a86:	9b10      	ldr	r3, [sp, #64]	; 0x40
10001a88:	9e11      	ldr	r6, [sp, #68]	; 0x44
10001a8a:	07ba      	lsls	r2, r7, #30
10001a8c:	d425      	bmi.n	10001ada <_ntoa_format+0x6e>
10001a8e:	2e00      	cmp	r6, #0
10001a90:	d169      	bne.n	10001b66 <_ntoa_format+0xfa>
10001a92:	429c      	cmp	r4, r3
10001a94:	d300      	bcc.n	10001a98 <_ntoa_format+0x2c>
10001a96:	e0c2      	b.n	10001c1e <_ntoa_format+0x1b2>
10001a98:	2201      	movs	r2, #1
10001a9a:	403a      	ands	r2, r7
10001a9c:	4692      	mov	sl, r2
10001a9e:	2c1f      	cmp	r4, #31
10001aa0:	d900      	bls.n	10001aa4 <_ntoa_format+0x38>
10001aa2:	e0bb      	b.n	10001c1c <_ntoa_format+0x1b0>
10001aa4:	9a0c      	ldr	r2, [sp, #48]	; 0x30
10001aa6:	1e55      	subs	r5, r2, #1
10001aa8:	2230      	movs	r2, #48	; 0x30
10001aaa:	e001      	b.n	10001ab0 <_ntoa_format+0x44>
10001aac:	2c20      	cmp	r4, #32
10001aae:	d003      	beq.n	10001ab8 <_ntoa_format+0x4c>
10001ab0:	3401      	adds	r4, #1
10001ab2:	552a      	strb	r2, [r5, r4]
10001ab4:	42a3      	cmp	r3, r4
10001ab6:	d8f9      	bhi.n	10001aac <_ntoa_format+0x40>
10001ab8:	4652      	mov	r2, sl
10001aba:	2a00      	cmp	r2, #0
10001abc:	d00d      	beq.n	10001ada <_ntoa_format+0x6e>
10001abe:	42b4      	cmp	r4, r6
10001ac0:	d20b      	bcs.n	10001ada <_ntoa_format+0x6e>
10001ac2:	2c1f      	cmp	r4, #31
10001ac4:	d862      	bhi.n	10001b8c <_ntoa_format+0x120>
10001ac6:	9a0c      	ldr	r2, [sp, #48]	; 0x30
10001ac8:	1e55      	subs	r5, r2, #1
10001aca:	2230      	movs	r2, #48	; 0x30
10001acc:	e001      	b.n	10001ad2 <_ntoa_format+0x66>
10001ace:	2c20      	cmp	r4, #32
10001ad0:	d05c      	beq.n	10001b8c <_ntoa_format+0x120>
10001ad2:	3401      	adds	r4, #1
10001ad4:	552a      	strb	r2, [r5, r4]
10001ad6:	42b4      	cmp	r4, r6
10001ad8:	d1f9      	bne.n	10001ace <_ntoa_format+0x62>
10001ada:	06fa      	lsls	r2, r7, #27
10001adc:	d535      	bpl.n	10001b4a <_ntoa_format+0xde>
10001ade:	057a      	lsls	r2, r7, #21
10001ae0:	d45d      	bmi.n	10001b9e <_ntoa_format+0x132>
10001ae2:	2c00      	cmp	r4, #0
10001ae4:	d157      	bne.n	10001b96 <_ntoa_format+0x12a>
10001ae6:	9b0f      	ldr	r3, [sp, #60]	; 0x3c
10001ae8:	2b10      	cmp	r3, #16
10001aea:	d100      	bne.n	10001aee <_ntoa_format+0x82>
10001aec:	e07c      	b.n	10001be8 <_ntoa_format+0x17c>
10001aee:	9b0f      	ldr	r3, [sp, #60]	; 0x3c
10001af0:	2b02      	cmp	r3, #2
10001af2:	d100      	bne.n	10001af6 <_ntoa_format+0x8a>
10001af4:	e08d      	b.n	10001c12 <_ntoa_format+0x1a6>
10001af6:	2330      	movs	r3, #48	; 0x30
10001af8:	9a0c      	ldr	r2, [sp, #48]	; 0x30
10001afa:	2401      	movs	r4, #1
10001afc:	7013      	strb	r3, [r2, #0]
10001afe:	464b      	mov	r3, r9
10001b00:	2b00      	cmp	r3, #0
10001b02:	d027      	beq.n	10001b54 <_ntoa_format+0xe8>
10001b04:	232d      	movs	r3, #45	; 0x2d
10001b06:	9a0c      	ldr	r2, [sp, #48]	; 0x30
10001b08:	5513      	strb	r3, [r2, r4]
10001b0a:	3401      	adds	r4, #1
10001b0c:	9b0c      	ldr	r3, [sp, #48]	; 0x30
10001b0e:	4662      	mov	r2, ip
10001b10:	9300      	str	r3, [sp, #0]
10001b12:	9703      	str	r7, [sp, #12]
10001b14:	4643      	mov	r3, r8
10001b16:	9602      	str	r6, [sp, #8]
10001b18:	9401      	str	r4, [sp, #4]
10001b1a:	f7ff ff3f 	bl	1000199c <_out_rev>
10001b1e:	b004      	add	sp, #16
10001b20:	bc1c      	pop	{r2, r3, r4}
10001b22:	4690      	mov	r8, r2
10001b24:	4699      	mov	r9, r3
10001b26:	46a2      	mov	sl, r4
10001b28:	bdf0      	pop	{r4, r5, r6, r7, pc}
10001b2a:	06bb      	lsls	r3, r7, #26
10001b2c:	d463      	bmi.n	10001bf6 <_ntoa_format+0x18a>
10001b2e:	2c20      	cmp	r4, #32
10001b30:	d0ec      	beq.n	10001b0c <_ntoa_format+0xa0>
10001b32:	9b0c      	ldr	r3, [sp, #48]	; 0x30
10001b34:	191a      	adds	r2, r3, r4
10001b36:	3401      	adds	r4, #1
10001b38:	2378      	movs	r3, #120	; 0x78
10001b3a:	7013      	strb	r3, [r2, #0]
10001b3c:	2c20      	cmp	r4, #32
10001b3e:	d0e5      	beq.n	10001b0c <_ntoa_format+0xa0>
10001b40:	2230      	movs	r2, #48	; 0x30
10001b42:	9b0c      	ldr	r3, [sp, #48]	; 0x30
10001b44:	191b      	adds	r3, r3, r4
10001b46:	701a      	strb	r2, [r3, #0]
10001b48:	3401      	adds	r4, #1
10001b4a:	2c20      	cmp	r4, #32
10001b4c:	d0de      	beq.n	10001b0c <_ntoa_format+0xa0>
10001b4e:	464b      	mov	r3, r9
10001b50:	2b00      	cmp	r3, #0
10001b52:	d1d7      	bne.n	10001b04 <_ntoa_format+0x98>
10001b54:	077b      	lsls	r3, r7, #29
10001b56:	d435      	bmi.n	10001bc4 <_ntoa_format+0x158>
10001b58:	073b      	lsls	r3, r7, #28
10001b5a:	d5d7      	bpl.n	10001b0c <_ntoa_format+0xa0>
10001b5c:	2320      	movs	r3, #32
10001b5e:	9a0c      	ldr	r2, [sp, #48]	; 0x30
10001b60:	5513      	strb	r3, [r2, r4]
10001b62:	3401      	adds	r4, #1
10001b64:	e7d2      	b.n	10001b0c <_ntoa_format+0xa0>
10001b66:	2201      	movs	r2, #1
10001b68:	0015      	movs	r5, r2
10001b6a:	403d      	ands	r5, r7
10001b6c:	46aa      	mov	sl, r5
10001b6e:	423a      	tst	r2, r7
10001b70:	d020      	beq.n	10001bb4 <_ntoa_format+0x148>
10001b72:	464a      	mov	r2, r9
10001b74:	2a00      	cmp	r2, #0
10001b76:	d12a      	bne.n	10001bce <_ntoa_format+0x162>
10001b78:	320c      	adds	r2, #12
10001b7a:	423a      	tst	r2, r7
10001b7c:	d127      	bne.n	10001bce <_ntoa_format+0x162>
10001b7e:	429c      	cmp	r4, r3
10001b80:	d29d      	bcs.n	10001abe <_ntoa_format+0x52>
10001b82:	2c1f      	cmp	r4, #31
10001b84:	d800      	bhi.n	10001b88 <_ntoa_format+0x11c>
10001b86:	e78d      	b.n	10001aa4 <_ntoa_format+0x38>
10001b88:	2e20      	cmp	r6, #32
10001b8a:	d919      	bls.n	10001bc0 <_ntoa_format+0x154>
10001b8c:	2420      	movs	r4, #32
10001b8e:	06fa      	lsls	r2, r7, #27
10001b90:	d5bc      	bpl.n	10001b0c <_ntoa_format+0xa0>
10001b92:	057a      	lsls	r2, r7, #21
10001b94:	d403      	bmi.n	10001b9e <_ntoa_format+0x132>
10001b96:	42a3      	cmp	r3, r4
10001b98:	d01b      	beq.n	10001bd2 <_ntoa_format+0x166>
10001b9a:	42a6      	cmp	r6, r4
10001b9c:	d019      	beq.n	10001bd2 <_ntoa_format+0x166>
10001b9e:	9b0f      	ldr	r3, [sp, #60]	; 0x3c
10001ba0:	2b10      	cmp	r3, #16
10001ba2:	d0c2      	beq.n	10001b2a <_ntoa_format+0xbe>
10001ba4:	2b02      	cmp	r3, #2
10001ba6:	d1c9      	bne.n	10001b3c <_ntoa_format+0xd0>
10001ba8:	2c20      	cmp	r4, #32
10001baa:	d0af      	beq.n	10001b0c <_ntoa_format+0xa0>
10001bac:	9b0c      	ldr	r3, [sp, #48]	; 0x30
10001bae:	191b      	adds	r3, r3, r4
10001bb0:	3401      	adds	r4, #1
10001bb2:	e040      	b.n	10001c36 <_ntoa_format+0x1ca>
10001bb4:	429c      	cmp	r4, r3
10001bb6:	d300      	bcc.n	10001bba <_ntoa_format+0x14e>
10001bb8:	e78f      	b.n	10001ada <_ntoa_format+0x6e>
10001bba:	2c1f      	cmp	r4, #31
10001bbc:	d800      	bhi.n	10001bc0 <_ntoa_format+0x154>
10001bbe:	e771      	b.n	10001aa4 <_ntoa_format+0x38>
10001bc0:	2420      	movs	r4, #32
10001bc2:	e78a      	b.n	10001ada <_ntoa_format+0x6e>
10001bc4:	232b      	movs	r3, #43	; 0x2b
10001bc6:	9a0c      	ldr	r2, [sp, #48]	; 0x30
10001bc8:	5513      	strb	r3, [r2, r4]
10001bca:	3401      	adds	r4, #1
10001bcc:	e79e      	b.n	10001b0c <_ntoa_format+0xa0>
10001bce:	3e01      	subs	r6, #1
10001bd0:	e7d5      	b.n	10001b7e <_ntoa_format+0x112>
10001bd2:	1e63      	subs	r3, r4, #1
10001bd4:	2c01      	cmp	r4, #1
10001bd6:	d100      	bne.n	10001bda <_ntoa_format+0x16e>
10001bd8:	e785      	b.n	10001ae6 <_ntoa_format+0x7a>
10001bda:	9a0f      	ldr	r2, [sp, #60]	; 0x3c
10001bdc:	2a10      	cmp	r2, #16
10001bde:	d020      	beq.n	10001c22 <_ntoa_format+0x1b6>
10001be0:	2a02      	cmp	r2, #2
10001be2:	d025      	beq.n	10001c30 <_ntoa_format+0x1c4>
10001be4:	001c      	movs	r4, r3
10001be6:	e7ab      	b.n	10001b40 <_ntoa_format+0xd4>
10001be8:	06bb      	lsls	r3, r7, #26
10001bea:	d40d      	bmi.n	10001c08 <_ntoa_format+0x19c>
10001bec:	2378      	movs	r3, #120	; 0x78
10001bee:	9a0c      	ldr	r2, [sp, #48]	; 0x30
10001bf0:	2401      	movs	r4, #1
10001bf2:	7013      	strb	r3, [r2, #0]
10001bf4:	e7a4      	b.n	10001b40 <_ntoa_format+0xd4>
10001bf6:	2c20      	cmp	r4, #32
10001bf8:	d100      	bne.n	10001bfc <_ntoa_format+0x190>
10001bfa:	e787      	b.n	10001b0c <_ntoa_format+0xa0>
10001bfc:	2258      	movs	r2, #88	; 0x58
10001bfe:	9b0c      	ldr	r3, [sp, #48]	; 0x30
10001c00:	191b      	adds	r3, r3, r4
10001c02:	701a      	strb	r2, [r3, #0]
10001c04:	3401      	adds	r4, #1
10001c06:	e799      	b.n	10001b3c <_ntoa_format+0xd0>
10001c08:	2358      	movs	r3, #88	; 0x58
10001c0a:	9a0c      	ldr	r2, [sp, #48]	; 0x30
10001c0c:	2401      	movs	r4, #1
10001c0e:	7013      	strb	r3, [r2, #0]
10001c10:	e796      	b.n	10001b40 <_ntoa_format+0xd4>
10001c12:	9a0c      	ldr	r2, [sp, #48]	; 0x30
10001c14:	3360      	adds	r3, #96	; 0x60
10001c16:	2401      	movs	r4, #1
10001c18:	7013      	strb	r3, [r2, #0]
10001c1a:	e791      	b.n	10001b40 <_ntoa_format+0xd4>
10001c1c:	2420      	movs	r4, #32
10001c1e:	2600      	movs	r6, #0
10001c20:	e75b      	b.n	10001ada <_ntoa_format+0x6e>
10001c22:	3c02      	subs	r4, #2
10001c24:	06ba      	lsls	r2, r7, #26
10001c26:	d4e9      	bmi.n	10001bfc <_ntoa_format+0x190>
10001c28:	9a0c      	ldr	r2, [sp, #48]	; 0x30
10001c2a:	1912      	adds	r2, r2, r4
10001c2c:	001c      	movs	r4, r3
10001c2e:	e783      	b.n	10001b38 <_ntoa_format+0xcc>
10001c30:	9a0c      	ldr	r2, [sp, #48]	; 0x30
10001c32:	4692      	mov	sl, r2
10001c34:	4453      	add	r3, sl
10001c36:	2262      	movs	r2, #98	; 0x62
10001c38:	701a      	strb	r2, [r3, #0]
10001c3a:	e77f      	b.n	10001b3c <_ntoa_format+0xd0>

10001c3c <_out_char>:
10001c3c:	b510      	push	{r4, lr}
10001c3e:	2800      	cmp	r0, #0
10001c40:	d100      	bne.n	10001c44 <_out_char+0x8>
10001c42:	bd10      	pop	{r4, pc}
10001c44:	f002 f9ea 	bl	1000401c <__wrap_putchar>
10001c48:	e7fb      	b.n	10001c42 <_out_char+0x6>
10001c4a:	46c0      	nop			; (mov r8, r8)

10001c4c <_out_fct>:
10001c4c:	000b      	movs	r3, r1
10001c4e:	b510      	push	{r4, lr}
10001c50:	2800      	cmp	r0, #0
10001c52:	d002      	beq.n	10001c5a <_out_fct+0xe>
10001c54:	6849      	ldr	r1, [r1, #4]
10001c56:	681b      	ldr	r3, [r3, #0]
10001c58:	4798      	blx	r3
10001c5a:	bd10      	pop	{r4, pc}

10001c5c <_etoa>:
10001c5c:	b5f0      	push	{r4, r5, r6, r7, lr}
10001c5e:	46de      	mov	lr, fp
10001c60:	4657      	mov	r7, sl
10001c62:	464e      	mov	r6, r9
10001c64:	4645      	mov	r5, r8
10001c66:	b5e0      	push	{r5, r6, r7, lr}
10001c68:	b09b      	sub	sp, #108	; 0x6c
10001c6a:	469a      	mov	sl, r3
10001c6c:	9b24      	ldr	r3, [sp, #144]	; 0x90
10001c6e:	468b      	mov	fp, r1
10001c70:	4699      	mov	r9, r3
10001c72:	9b25      	ldr	r3, [sp, #148]	; 0x94
10001c74:	900b      	str	r0, [sp, #44]	; 0x2c
10001c76:	4698      	mov	r8, r3
10001c78:	920c      	str	r2, [sp, #48]	; 0x30
10001c7a:	4643      	mov	r3, r8
10001c7c:	464a      	mov	r2, r9
10001c7e:	4648      	mov	r0, r9
10001c80:	4641      	mov	r1, r8
10001c82:	f001 fccc 	bl	1000361e <__wrap___aeabi_dcmpun>
10001c86:	2800      	cmp	r0, #0
10001c88:	d000      	beq.n	10001c8c <_etoa+0x30>
10001c8a:	e1a3      	b.n	10001fd4 <_etoa+0x378>
10001c8c:	2201      	movs	r2, #1
10001c8e:	4648      	mov	r0, r9
10001c90:	4641      	mov	r1, r8
10001c92:	4be2      	ldr	r3, [pc, #904]	; (1000201c <_etoa+0x3c0>)
10001c94:	4252      	negs	r2, r2
10001c96:	f001 fcbd 	bl	10003614 <__wrap___aeabi_dcmpgt>
10001c9a:	2800      	cmp	r0, #0
10001c9c:	d000      	beq.n	10001ca0 <_etoa+0x44>
10001c9e:	e199      	b.n	10001fd4 <_etoa+0x378>
10001ca0:	2201      	movs	r2, #1
10001ca2:	4648      	mov	r0, r9
10001ca4:	4641      	mov	r1, r8
10001ca6:	4bde      	ldr	r3, [pc, #888]	; (10002020 <_etoa+0x3c4>)
10001ca8:	4252      	negs	r2, r2
10001caa:	f001 fc9d 	bl	100035e8 <__wrap___aeabi_dcmplt>
10001cae:	2800      	cmp	r0, #0
10001cb0:	d000      	beq.n	10001cb4 <_etoa+0x58>
10001cb2:	e18f      	b.n	10001fd4 <_etoa+0x378>
10001cb4:	2200      	movs	r2, #0
10001cb6:	2300      	movs	r3, #0
10001cb8:	4648      	mov	r0, r9
10001cba:	4641      	mov	r1, r8
10001cbc:	f001 fc94 	bl	100035e8 <__wrap___aeabi_dcmplt>
10001cc0:	2800      	cmp	r0, #0
10001cc2:	d000      	beq.n	10001cc6 <_etoa+0x6a>
10001cc4:	e1de      	b.n	10002084 <_etoa+0x428>
10001cc6:	464a      	mov	r2, r9
10001cc8:	4643      	mov	r3, r8
10001cca:	920a      	str	r2, [sp, #40]	; 0x28
10001ccc:	9309      	str	r3, [sp, #36]	; 0x24
10001cce:	2380      	movs	r3, #128	; 0x80
10001cd0:	9a28      	ldr	r2, [sp, #160]	; 0xa0
10001cd2:	00db      	lsls	r3, r3, #3
10001cd4:	401a      	ands	r2, r3
10001cd6:	9211      	str	r2, [sp, #68]	; 0x44
10001cd8:	9a28      	ldr	r2, [sp, #160]	; 0xa0
10001cda:	421a      	tst	r2, r3
10001cdc:	d101      	bne.n	10001ce2 <_etoa+0x86>
10001cde:	2306      	movs	r3, #6
10001ce0:	9326      	str	r3, [sp, #152]	; 0x98
10001ce2:	4bd0      	ldr	r3, [pc, #832]	; (10002024 <_etoa+0x3c8>)
10001ce4:	9f09      	ldr	r7, [sp, #36]	; 0x24
10001ce6:	469c      	mov	ip, r3
10001ce8:	0078      	lsls	r0, r7, #1
10001cea:	0d40      	lsrs	r0, r0, #21
10001cec:	4460      	add	r0, ip
10001cee:	f001 fca9 	bl	10003644 <__wrap___aeabi_i2d>
10001cf2:	4acd      	ldr	r2, [pc, #820]	; (10002028 <_etoa+0x3cc>)
10001cf4:	4bcd      	ldr	r3, [pc, #820]	; (1000202c <_etoa+0x3d0>)
10001cf6:	f001 fc35 	bl	10003564 <__wrap___aeabi_dmul>
10001cfa:	4acd      	ldr	r2, [pc, #820]	; (10002030 <_etoa+0x3d4>)
10001cfc:	4bcd      	ldr	r3, [pc, #820]	; (10002034 <_etoa+0x3d8>)
10001cfe:	f001 fc1f 	bl	10003540 <__wrap___aeabi_dadd>
10001d02:	033b      	lsls	r3, r7, #12
10001d04:	4acc      	ldr	r2, [pc, #816]	; (10002038 <_etoa+0x3dc>)
10001d06:	9e0a      	ldr	r6, [sp, #40]	; 0x28
10001d08:	0b1b      	lsrs	r3, r3, #12
10001d0a:	431a      	orrs	r2, r3
10001d0c:	0004      	movs	r4, r0
10001d0e:	000d      	movs	r5, r1
10001d10:	0030      	movs	r0, r6
10001d12:	0011      	movs	r1, r2
10001d14:	4bc9      	ldr	r3, [pc, #804]	; (1000203c <_etoa+0x3e0>)
10001d16:	2200      	movs	r2, #0
10001d18:	9709      	str	r7, [sp, #36]	; 0x24
10001d1a:	f001 fc08 	bl	1000352e <__wrap___aeabi_dsub>
10001d1e:	4ac8      	ldr	r2, [pc, #800]	; (10002040 <_etoa+0x3e4>)
10001d20:	4bc8      	ldr	r3, [pc, #800]	; (10002044 <_etoa+0x3e8>)
10001d22:	f001 fc1f 	bl	10003564 <__wrap___aeabi_dmul>
10001d26:	0002      	movs	r2, r0
10001d28:	000b      	movs	r3, r1
10001d2a:	0020      	movs	r0, r4
10001d2c:	0029      	movs	r1, r5
10001d2e:	f001 fc07 	bl	10003540 <__wrap___aeabi_dadd>
10001d32:	f001 fc9f 	bl	10003674 <__wrap___aeabi_d2iz>
10001d36:	900d      	str	r0, [sp, #52]	; 0x34
10001d38:	f001 fc84 	bl	10003644 <__wrap___aeabi_i2d>
10001d3c:	4ac2      	ldr	r2, [pc, #776]	; (10002048 <_etoa+0x3ec>)
10001d3e:	4bc3      	ldr	r3, [pc, #780]	; (1000204c <_etoa+0x3f0>)
10001d40:	0004      	movs	r4, r0
10001d42:	000d      	movs	r5, r1
10001d44:	f001 fc0e 	bl	10003564 <__wrap___aeabi_dmul>
10001d48:	2200      	movs	r2, #0
10001d4a:	4bc1      	ldr	r3, [pc, #772]	; (10002050 <_etoa+0x3f4>)
10001d4c:	f001 fbf8 	bl	10003540 <__wrap___aeabi_dadd>
10001d50:	f001 fc90 	bl	10003674 <__wrap___aeabi_d2iz>
10001d54:	4abf      	ldr	r2, [pc, #764]	; (10002054 <_etoa+0x3f8>)
10001d56:	0006      	movs	r6, r0
10001d58:	4bbf      	ldr	r3, [pc, #764]	; (10002058 <_etoa+0x3fc>)
10001d5a:	0020      	movs	r0, r4
10001d5c:	0029      	movs	r1, r5
10001d5e:	f001 fc01 	bl	10003564 <__wrap___aeabi_dmul>
10001d62:	0004      	movs	r4, r0
10001d64:	0030      	movs	r0, r6
10001d66:	000d      	movs	r5, r1
10001d68:	9610      	str	r6, [sp, #64]	; 0x40
10001d6a:	f001 fc6b 	bl	10003644 <__wrap___aeabi_i2d>
10001d6e:	4abb      	ldr	r2, [pc, #748]	; (1000205c <_etoa+0x400>)
10001d70:	4bbb      	ldr	r3, [pc, #748]	; (10002060 <_etoa+0x404>)
10001d72:	f001 fbf7 	bl	10003564 <__wrap___aeabi_dmul>
10001d76:	0002      	movs	r2, r0
10001d78:	000b      	movs	r3, r1
10001d7a:	0020      	movs	r0, r4
10001d7c:	0029      	movs	r1, r5
10001d7e:	f001 fbd6 	bl	1000352e <__wrap___aeabi_dsub>
10001d82:	0002      	movs	r2, r0
10001d84:	000b      	movs	r3, r1
10001d86:	0006      	movs	r6, r0
10001d88:	000f      	movs	r7, r1
10001d8a:	f001 fbeb 	bl	10003564 <__wrap___aeabi_dmul>
10001d8e:	0032      	movs	r2, r6
10001d90:	0004      	movs	r4, r0
10001d92:	000d      	movs	r5, r1
10001d94:	003b      	movs	r3, r7
10001d96:	0030      	movs	r0, r6
10001d98:	0039      	movs	r1, r7
10001d9a:	f001 fbd1 	bl	10003540 <__wrap___aeabi_dadd>
10001d9e:	2200      	movs	r2, #0
10001da0:	900e      	str	r0, [sp, #56]	; 0x38
10001da2:	910f      	str	r1, [sp, #60]	; 0x3c
10001da4:	4baf      	ldr	r3, [pc, #700]	; (10002064 <_etoa+0x408>)
10001da6:	0020      	movs	r0, r4
10001da8:	0029      	movs	r1, r5
10001daa:	f001 fbd2 	bl	10003552 <__wrap___aeabi_ddiv>
10001dae:	2200      	movs	r2, #0
10001db0:	4bad      	ldr	r3, [pc, #692]	; (10002068 <_etoa+0x40c>)
10001db2:	f001 fbc5 	bl	10003540 <__wrap___aeabi_dadd>
10001db6:	0002      	movs	r2, r0
10001db8:	000b      	movs	r3, r1
10001dba:	0020      	movs	r0, r4
10001dbc:	0029      	movs	r1, r5
10001dbe:	f001 fbc8 	bl	10003552 <__wrap___aeabi_ddiv>
10001dc2:	2200      	movs	r2, #0
10001dc4:	4ba9      	ldr	r3, [pc, #676]	; (1000206c <_etoa+0x410>)
10001dc6:	f001 fbbb 	bl	10003540 <__wrap___aeabi_dadd>
10001dca:	0002      	movs	r2, r0
10001dcc:	000b      	movs	r3, r1
10001dce:	0020      	movs	r0, r4
10001dd0:	0029      	movs	r1, r5
10001dd2:	f001 fbbe 	bl	10003552 <__wrap___aeabi_ddiv>
10001dd6:	000d      	movs	r5, r1
10001dd8:	2180      	movs	r1, #128	; 0x80
10001dda:	0004      	movs	r4, r0
10001ddc:	0032      	movs	r2, r6
10001dde:	003b      	movs	r3, r7
10001de0:	2000      	movs	r0, #0
10001de2:	05c9      	lsls	r1, r1, #23
10001de4:	f001 fba3 	bl	1000352e <__wrap___aeabi_dsub>
10001de8:	0002      	movs	r2, r0
10001dea:	000b      	movs	r3, r1
10001dec:	0020      	movs	r0, r4
10001dee:	0029      	movs	r1, r5
10001df0:	f001 fba6 	bl	10003540 <__wrap___aeabi_dadd>
10001df4:	0002      	movs	r2, r0
10001df6:	000b      	movs	r3, r1
10001df8:	980e      	ldr	r0, [sp, #56]	; 0x38
10001dfa:	990f      	ldr	r1, [sp, #60]	; 0x3c
10001dfc:	f001 fba9 	bl	10003552 <__wrap___aeabi_ddiv>
10001e00:	2200      	movs	r2, #0
10001e02:	4b8d      	ldr	r3, [pc, #564]	; (10002038 <_etoa+0x3dc>)
10001e04:	f001 fb9c 	bl	10003540 <__wrap___aeabi_dadd>
10001e08:	9b10      	ldr	r3, [sp, #64]	; 0x40
10001e0a:	4a99      	ldr	r2, [pc, #612]	; (10002070 <_etoa+0x414>)
10001e0c:	001c      	movs	r4, r3
10001e0e:	4694      	mov	ip, r2
10001e10:	4464      	add	r4, ip
10001e12:	2200      	movs	r2, #0
10001e14:	0523      	lsls	r3, r4, #20
10001e16:	f001 fba5 	bl	10003564 <__wrap___aeabi_dmul>
10001e1a:	0006      	movs	r6, r0
10001e1c:	000f      	movs	r7, r1
10001e1e:	0002      	movs	r2, r0
10001e20:	000b      	movs	r3, r1
10001e22:	980a      	ldr	r0, [sp, #40]	; 0x28
10001e24:	9909      	ldr	r1, [sp, #36]	; 0x24
10001e26:	f001 fbdf 	bl	100035e8 <__wrap___aeabi_dcmplt>
10001e2a:	2800      	cmp	r0, #0
10001e2c:	d00a      	beq.n	10001e44 <_etoa+0x1e8>
10001e2e:	9b0d      	ldr	r3, [sp, #52]	; 0x34
10001e30:	0030      	movs	r0, r6
10001e32:	3b01      	subs	r3, #1
10001e34:	0039      	movs	r1, r7
10001e36:	930d      	str	r3, [sp, #52]	; 0x34
10001e38:	2200      	movs	r2, #0
10001e3a:	4b8b      	ldr	r3, [pc, #556]	; (10002068 <_etoa+0x40c>)
10001e3c:	f001 fb89 	bl	10003552 <__wrap___aeabi_ddiv>
10001e40:	0006      	movs	r6, r0
10001e42:	000f      	movs	r7, r1
10001e44:	9d0d      	ldr	r5, [sp, #52]	; 0x34
10001e46:	24c6      	movs	r4, #198	; 0xc6
10001e48:	002b      	movs	r3, r5
10001e4a:	3363      	adds	r3, #99	; 0x63
10001e4c:	429c      	cmp	r4, r3
10001e4e:	41a4      	sbcs	r4, r4
10001e50:	9b28      	ldr	r3, [sp, #160]	; 0xa0
10001e52:	4264      	negs	r4, r4
10001e54:	3404      	adds	r4, #4
10001e56:	051b      	lsls	r3, r3, #20
10001e58:	d51f      	bpl.n	10001e9a <_etoa+0x23e>
10001e5a:	4a86      	ldr	r2, [pc, #536]	; (10002074 <_etoa+0x418>)
10001e5c:	4b86      	ldr	r3, [pc, #536]	; (10002078 <_etoa+0x41c>)
10001e5e:	980a      	ldr	r0, [sp, #40]	; 0x28
10001e60:	9909      	ldr	r1, [sp, #36]	; 0x24
10001e62:	f001 fbcf 	bl	10003604 <__wrap___aeabi_dcmpge>
10001e66:	2800      	cmp	r0, #0
10001e68:	d100      	bne.n	10001e6c <_etoa+0x210>
10001e6a:	e0cc      	b.n	10002006 <_etoa+0x3aa>
10001e6c:	2200      	movs	r2, #0
10001e6e:	4b83      	ldr	r3, [pc, #524]	; (1000207c <_etoa+0x420>)
10001e70:	980a      	ldr	r0, [sp, #40]	; 0x28
10001e72:	9909      	ldr	r1, [sp, #36]	; 0x24
10001e74:	f001 fbb8 	bl	100035e8 <__wrap___aeabi_dcmplt>
10001e78:	2800      	cmp	r0, #0
10001e7a:	d100      	bne.n	10001e7e <_etoa+0x222>
10001e7c:	e0c3      	b.n	10002006 <_etoa+0x3aa>
10001e7e:	9a26      	ldr	r2, [sp, #152]	; 0x98
10001e80:	4295      	cmp	r5, r2
10001e82:	da00      	bge.n	10001e86 <_etoa+0x22a>
10001e84:	e10b      	b.n	1000209e <_etoa+0x442>
10001e86:	2300      	movs	r3, #0
10001e88:	9326      	str	r3, [sp, #152]	; 0x98
10001e8a:	2380      	movs	r3, #128	; 0x80
10001e8c:	9a28      	ldr	r2, [sp, #160]	; 0xa0
10001e8e:	00db      	lsls	r3, r3, #3
10001e90:	431a      	orrs	r2, r3
10001e92:	2300      	movs	r3, #0
10001e94:	2400      	movs	r4, #0
10001e96:	9228      	str	r2, [sp, #160]	; 0xa0
10001e98:	930d      	str	r3, [sp, #52]	; 0x34
10001e9a:	9b27      	ldr	r3, [sp, #156]	; 0x9c
10001e9c:	2500      	movs	r5, #0
10001e9e:	42a3      	cmp	r3, r4
10001ea0:	d900      	bls.n	10001ea4 <_etoa+0x248>
10001ea2:	1b1d      	subs	r5, r3, r4
10001ea4:	2302      	movs	r3, #2
10001ea6:	9a28      	ldr	r2, [sp, #160]	; 0xa0
10001ea8:	401a      	ands	r2, r3
10001eaa:	9210      	str	r2, [sp, #64]	; 0x40
10001eac:	9a28      	ldr	r2, [sp, #160]	; 0xa0
10001eae:	4213      	tst	r3, r2
10001eb0:	d003      	beq.n	10001eba <_etoa+0x25e>
10001eb2:	4263      	negs	r3, r4
10001eb4:	4163      	adcs	r3, r4
10001eb6:	425b      	negs	r3, r3
10001eb8:	401d      	ands	r5, r3
10001eba:	9b0d      	ldr	r3, [sp, #52]	; 0x34
10001ebc:	2b00      	cmp	r3, #0
10001ebe:	d007      	beq.n	10001ed0 <_etoa+0x274>
10001ec0:	980a      	ldr	r0, [sp, #40]	; 0x28
10001ec2:	9909      	ldr	r1, [sp, #36]	; 0x24
10001ec4:	0032      	movs	r2, r6
10001ec6:	003b      	movs	r3, r7
10001ec8:	f001 fb43 	bl	10003552 <__wrap___aeabi_ddiv>
10001ecc:	900a      	str	r0, [sp, #40]	; 0x28
10001ece:	9109      	str	r1, [sp, #36]	; 0x24
10001ed0:	2200      	movs	r2, #0
10001ed2:	2300      	movs	r3, #0
10001ed4:	4648      	mov	r0, r9
10001ed6:	4641      	mov	r1, r8
10001ed8:	f001 fb86 	bl	100035e8 <__wrap___aeabi_dcmplt>
10001edc:	2800      	cmp	r0, #0
10001ede:	d005      	beq.n	10001eec <_etoa+0x290>
10001ee0:	2080      	movs	r0, #128	; 0x80
10001ee2:	0600      	lsls	r0, r0, #24
10001ee4:	4684      	mov	ip, r0
10001ee6:	9909      	ldr	r1, [sp, #36]	; 0x24
10001ee8:	4461      	add	r1, ip
10001eea:	9109      	str	r1, [sp, #36]	; 0x24
10001eec:	9a28      	ldr	r2, [sp, #160]	; 0xa0
10001eee:	4b64      	ldr	r3, [pc, #400]	; (10002080 <_etoa+0x424>)
10001ef0:	9e0b      	ldr	r6, [sp, #44]	; 0x2c
10001ef2:	4013      	ands	r3, r2
10001ef4:	9304      	str	r3, [sp, #16]
10001ef6:	9b26      	ldr	r3, [sp, #152]	; 0x98
10001ef8:	9a0a      	ldr	r2, [sp, #40]	; 0x28
10001efa:	9302      	str	r3, [sp, #8]
10001efc:	9b09      	ldr	r3, [sp, #36]	; 0x24
10001efe:	9503      	str	r5, [sp, #12]
10001f00:	9200      	str	r2, [sp, #0]
10001f02:	9301      	str	r3, [sp, #4]
10001f04:	4659      	mov	r1, fp
10001f06:	4653      	mov	r3, sl
10001f08:	0030      	movs	r0, r6
10001f0a:	9a0c      	ldr	r2, [sp, #48]	; 0x30
10001f0c:	f000 f8cc 	bl	100020a8 <_ftoa>
10001f10:	0005      	movs	r5, r0
10001f12:	2c00      	cmp	r4, #0
10001f14:	d06f      	beq.n	10001ff6 <_etoa+0x39a>
10001f16:	9b28      	ldr	r3, [sp, #160]	; 0xa0
10001f18:	002a      	movs	r2, r5
10001f1a:	0698      	lsls	r0, r3, #26
10001f1c:	231f      	movs	r3, #31
10001f1e:	17c0      	asrs	r0, r0, #31
10001f20:	4398      	bics	r0, r3
10001f22:	1c6b      	adds	r3, r5, #1
10001f24:	4698      	mov	r8, r3
10001f26:	4659      	mov	r1, fp
10001f28:	4653      	mov	r3, sl
10001f2a:	3065      	adds	r0, #101	; 0x65
10001f2c:	47b0      	blx	r6
10001f2e:	9b0d      	ldr	r3, [sp, #52]	; 0x34
10001f30:	2600      	movs	r6, #0
10001f32:	17da      	asrs	r2, r3, #31
10001f34:	189d      	adds	r5, r3, r2
10001f36:	0fdb      	lsrs	r3, r3, #31
10001f38:	4699      	mov	r9, r3
10001f3a:	4055      	eors	r5, r2
10001f3c:	3c01      	subs	r4, #1
10001f3e:	e001      	b.n	10001f44 <_etoa+0x2e8>
10001f40:	2e20      	cmp	r6, #32
10001f42:	d013      	beq.n	10001f6c <_etoa+0x310>
10001f44:	aa0a      	add	r2, sp, #40	; 0x28
10001f46:	4694      	mov	ip, r2
10001f48:	231f      	movs	r3, #31
10001f4a:	0028      	movs	r0, r5
10001f4c:	4463      	add	r3, ip
10001f4e:	210a      	movs	r1, #10
10001f50:	3601      	adds	r6, #1
10001f52:	199f      	adds	r7, r3, r6
10001f54:	f001 f8a6 	bl	100030a4 <__wrap___aeabi_uidiv>
10001f58:	3130      	adds	r1, #48	; 0x30
10001f5a:	7039      	strb	r1, [r7, #0]
10001f5c:	0028      	movs	r0, r5
10001f5e:	210a      	movs	r1, #10
10001f60:	f001 f8a0 	bl	100030a4 <__wrap___aeabi_uidiv>
10001f64:	002f      	movs	r7, r5
10001f66:	0005      	movs	r5, r0
10001f68:	2f09      	cmp	r7, #9
10001f6a:	d8e9      	bhi.n	10001f40 <_etoa+0x2e4>
10001f6c:	2305      	movs	r3, #5
10001f6e:	9306      	str	r3, [sp, #24]
10001f70:	2300      	movs	r3, #0
10001f72:	9304      	str	r3, [sp, #16]
10001f74:	330a      	adds	r3, #10
10001f76:	9303      	str	r3, [sp, #12]
10001f78:	464b      	mov	r3, r9
10001f7a:	9601      	str	r6, [sp, #4]
10001f7c:	9e0b      	ldr	r6, [sp, #44]	; 0x2c
10001f7e:	9302      	str	r3, [sp, #8]
10001f80:	ab12      	add	r3, sp, #72	; 0x48
10001f82:	9300      	str	r3, [sp, #0]
10001f84:	4642      	mov	r2, r8
10001f86:	4653      	mov	r3, sl
10001f88:	4659      	mov	r1, fp
10001f8a:	0030      	movs	r0, r6
10001f8c:	9405      	str	r4, [sp, #20]
10001f8e:	f7ff fd6d 	bl	10001a6c <_ntoa_format>
10001f92:	9b10      	ldr	r3, [sp, #64]	; 0x40
10001f94:	0005      	movs	r5, r0
10001f96:	2b00      	cmp	r3, #0
10001f98:	d02d      	beq.n	10001ff6 <_etoa+0x39a>
10001f9a:	9b0c      	ldr	r3, [sp, #48]	; 0x30
10001f9c:	9a27      	ldr	r2, [sp, #156]	; 0x9c
10001f9e:	1ac4      	subs	r4, r0, r3
10001fa0:	42a2      	cmp	r2, r4
10001fa2:	d928      	bls.n	10001ff6 <_etoa+0x39a>
10001fa4:	4681      	mov	r9, r0
10001fa6:	465d      	mov	r5, fp
10001fa8:	4698      	mov	r8, r3
10001faa:	0017      	movs	r7, r2
10001fac:	4643      	mov	r3, r8
10001fae:	0029      	movs	r1, r5
10001fb0:	191a      	adds	r2, r3, r4
10001fb2:	2020      	movs	r0, #32
10001fb4:	4653      	mov	r3, sl
10001fb6:	3401      	adds	r4, #1
10001fb8:	47b0      	blx	r6
10001fba:	42a7      	cmp	r7, r4
10001fbc:	d8f6      	bhi.n	10001fac <_etoa+0x350>
10001fbe:	464d      	mov	r5, r9
10001fc0:	990c      	ldr	r1, [sp, #48]	; 0x30
10001fc2:	9827      	ldr	r0, [sp, #156]	; 0x9c
10001fc4:	1a6b      	subs	r3, r5, r1
10001fc6:	3301      	adds	r3, #1
10001fc8:	2200      	movs	r2, #0
10001fca:	4298      	cmp	r0, r3
10001fcc:	d261      	bcs.n	10002092 <_etoa+0x436>
10001fce:	3501      	adds	r5, #1
10001fd0:	1955      	adds	r5, r2, r5
10001fd2:	e010      	b.n	10001ff6 <_etoa+0x39a>
10001fd4:	9b28      	ldr	r3, [sp, #160]	; 0xa0
10001fd6:	464a      	mov	r2, r9
10001fd8:	9304      	str	r3, [sp, #16]
10001fda:	9b27      	ldr	r3, [sp, #156]	; 0x9c
10001fdc:	4659      	mov	r1, fp
10001fde:	9303      	str	r3, [sp, #12]
10001fe0:	9b26      	ldr	r3, [sp, #152]	; 0x98
10001fe2:	980b      	ldr	r0, [sp, #44]	; 0x2c
10001fe4:	9302      	str	r3, [sp, #8]
10001fe6:	4643      	mov	r3, r8
10001fe8:	9200      	str	r2, [sp, #0]
10001fea:	9301      	str	r3, [sp, #4]
10001fec:	4653      	mov	r3, sl
10001fee:	9a0c      	ldr	r2, [sp, #48]	; 0x30
10001ff0:	f000 f85a 	bl	100020a8 <_ftoa>
10001ff4:	0005      	movs	r5, r0
10001ff6:	0028      	movs	r0, r5
10001ff8:	b01b      	add	sp, #108	; 0x6c
10001ffa:	bc3c      	pop	{r2, r3, r4, r5}
10001ffc:	4690      	mov	r8, r2
10001ffe:	4699      	mov	r9, r3
10002000:	46a2      	mov	sl, r4
10002002:	46ab      	mov	fp, r5
10002004:	bdf0      	pop	{r4, r5, r6, r7, pc}
10002006:	9b26      	ldr	r3, [sp, #152]	; 0x98
10002008:	2b00      	cmp	r3, #0
1000200a:	d100      	bne.n	1000200e <_etoa+0x3b2>
1000200c:	e745      	b.n	10001e9a <_etoa+0x23e>
1000200e:	9b11      	ldr	r3, [sp, #68]	; 0x44
10002010:	1e5a      	subs	r2, r3, #1
10002012:	4193      	sbcs	r3, r2
10002014:	9a26      	ldr	r2, [sp, #152]	; 0x98
10002016:	1ad3      	subs	r3, r2, r3
10002018:	9326      	str	r3, [sp, #152]	; 0x98
1000201a:	e73e      	b.n	10001e9a <_etoa+0x23e>
1000201c:	7fefffff 	.word	0x7fefffff
10002020:	ffefffff 	.word	0xffefffff
10002024:	fffffc01 	.word	0xfffffc01
10002028:	509f79fb 	.word	0x509f79fb
1000202c:	3fd34413 	.word	0x3fd34413
10002030:	8b60c8b3 	.word	0x8b60c8b3
10002034:	3fc68a28 	.word	0x3fc68a28
10002038:	3ff00000 	.word	0x3ff00000
1000203c:	3ff80000 	.word	0x3ff80000
10002040:	636f4361 	.word	0x636f4361
10002044:	3fd287a7 	.word	0x3fd287a7
10002048:	0979a371 	.word	0x0979a371
1000204c:	400a934f 	.word	0x400a934f
10002050:	3fe00000 	.word	0x3fe00000
10002054:	bbb55516 	.word	0xbbb55516
10002058:	40026bb1 	.word	0x40026bb1
1000205c:	fefa39ef 	.word	0xfefa39ef
10002060:	3fe62e42 	.word	0x3fe62e42
10002064:	402c0000 	.word	0x402c0000
10002068:	40240000 	.word	0x40240000
1000206c:	40180000 	.word	0x40180000
10002070:	000003ff 	.word	0x000003ff
10002074:	eb1c432d 	.word	0xeb1c432d
10002078:	3f1a36e2 	.word	0x3f1a36e2
1000207c:	412e8480 	.word	0x412e8480
10002080:	fffff7ff 	.word	0xfffff7ff
10002084:	464b      	mov	r3, r9
10002086:	930a      	str	r3, [sp, #40]	; 0x28
10002088:	2380      	movs	r3, #128	; 0x80
1000208a:	061b      	lsls	r3, r3, #24
1000208c:	4443      	add	r3, r8
1000208e:	9309      	str	r3, [sp, #36]	; 0x24
10002090:	e61d      	b.n	10001cce <_etoa+0x72>
10002092:	000a      	movs	r2, r1
10002094:	4684      	mov	ip, r0
10002096:	3a01      	subs	r2, #1
10002098:	4462      	add	r2, ip
1000209a:	1b52      	subs	r2, r2, r5
1000209c:	e797      	b.n	10001fce <_etoa+0x372>
1000209e:	1b50      	subs	r0, r2, r5
100020a0:	1e43      	subs	r3, r0, #1
100020a2:	9326      	str	r3, [sp, #152]	; 0x98
100020a4:	e6f1      	b.n	10001e8a <_etoa+0x22e>
100020a6:	46c0      	nop			; (mov r8, r8)

100020a8 <_ftoa>:
100020a8:	b5f0      	push	{r4, r5, r6, r7, lr}
100020aa:	464e      	mov	r6, r9
100020ac:	46de      	mov	lr, fp
100020ae:	4657      	mov	r7, sl
100020b0:	4645      	mov	r5, r8
100020b2:	b5e0      	push	{r5, r6, r7, lr}
100020b4:	b097      	sub	sp, #92	; 0x5c
100020b6:	4699      	mov	r9, r3
100020b8:	9e20      	ldr	r6, [sp, #128]	; 0x80
100020ba:	9f21      	ldr	r7, [sp, #132]	; 0x84
100020bc:	9b22      	ldr	r3, [sp, #136]	; 0x88
100020be:	4683      	mov	fp, r0
100020c0:	4698      	mov	r8, r3
100020c2:	9107      	str	r1, [sp, #28]
100020c4:	920c      	str	r2, [sp, #48]	; 0x30
100020c6:	003b      	movs	r3, r7
100020c8:	0032      	movs	r2, r6
100020ca:	0030      	movs	r0, r6
100020cc:	0039      	movs	r1, r7
100020ce:	f001 faa6 	bl	1000361e <__wrap___aeabi_dcmpun>
100020d2:	2800      	cmp	r0, #0
100020d4:	d000      	beq.n	100020d8 <_ftoa+0x30>
100020d6:	e1c1      	b.n	1000245c <_ftoa+0x3b4>
100020d8:	2201      	movs	r2, #1
100020da:	0030      	movs	r0, r6
100020dc:	0039      	movs	r1, r7
100020de:	4bca      	ldr	r3, [pc, #808]	; (10002408 <_ftoa+0x360>)
100020e0:	4252      	negs	r2, r2
100020e2:	f001 fa81 	bl	100035e8 <__wrap___aeabi_dcmplt>
100020e6:	2800      	cmp	r0, #0
100020e8:	d000      	beq.n	100020ec <_ftoa+0x44>
100020ea:	e0e0      	b.n	100022ae <_ftoa+0x206>
100020ec:	2201      	movs	r2, #1
100020ee:	0030      	movs	r0, r6
100020f0:	0039      	movs	r1, r7
100020f2:	4bc6      	ldr	r3, [pc, #792]	; (1000240c <_ftoa+0x364>)
100020f4:	4252      	negs	r2, r2
100020f6:	f001 fa8d 	bl	10003614 <__wrap___aeabi_dcmpgt>
100020fa:	2800      	cmp	r0, #0
100020fc:	d000      	beq.n	10002100 <_ftoa+0x58>
100020fe:	e0b6      	b.n	1000226e <_ftoa+0x1c6>
10002100:	2200      	movs	r2, #0
10002102:	0030      	movs	r0, r6
10002104:	0039      	movs	r1, r7
10002106:	4bc2      	ldr	r3, [pc, #776]	; (10002410 <_ftoa+0x368>)
10002108:	f001 fa84 	bl	10003614 <__wrap___aeabi_dcmpgt>
1000210c:	2800      	cmp	r0, #0
1000210e:	d000      	beq.n	10002112 <_ftoa+0x6a>
10002110:	e098      	b.n	10002244 <_ftoa+0x19c>
10002112:	2200      	movs	r2, #0
10002114:	0030      	movs	r0, r6
10002116:	0039      	movs	r1, r7
10002118:	4bbe      	ldr	r3, [pc, #760]	; (10002414 <_ftoa+0x36c>)
1000211a:	f001 fa65 	bl	100035e8 <__wrap___aeabi_dcmplt>
1000211e:	2800      	cmp	r0, #0
10002120:	d000      	beq.n	10002124 <_ftoa+0x7c>
10002122:	e08f      	b.n	10002244 <_ftoa+0x19c>
10002124:	2200      	movs	r2, #0
10002126:	2300      	movs	r3, #0
10002128:	0030      	movs	r0, r6
1000212a:	0039      	movs	r1, r7
1000212c:	f001 fa5c 	bl	100035e8 <__wrap___aeabi_dcmplt>
10002130:	2800      	cmp	r0, #0
10002132:	d000      	beq.n	10002136 <_ftoa+0x8e>
10002134:	e0b0      	b.n	10002298 <_ftoa+0x1f0>
10002136:	2300      	movs	r3, #0
10002138:	930d      	str	r3, [sp, #52]	; 0x34
1000213a:	9b24      	ldr	r3, [sp, #144]	; 0x90
1000213c:	055b      	lsls	r3, r3, #21
1000213e:	d401      	bmi.n	10002144 <_ftoa+0x9c>
10002140:	2306      	movs	r3, #6
10002142:	4698      	mov	r8, r3
10002144:	ab08      	add	r3, sp, #32
10002146:	469c      	mov	ip, r3
10002148:	2217      	movs	r2, #23
1000214a:	2400      	movs	r4, #0
1000214c:	2330      	movs	r3, #48	; 0x30
1000214e:	4641      	mov	r1, r8
10002150:	4462      	add	r2, ip
10002152:	e004      	b.n	1000215e <_ftoa+0xb6>
10002154:	3401      	adds	r4, #1
10002156:	5513      	strb	r3, [r2, r4]
10002158:	3901      	subs	r1, #1
1000215a:	2c20      	cmp	r4, #32
1000215c:	d001      	beq.n	10002162 <_ftoa+0xba>
1000215e:	2909      	cmp	r1, #9
10002160:	d8f8      	bhi.n	10002154 <_ftoa+0xac>
10002162:	4688      	mov	r8, r1
10002164:	0030      	movs	r0, r6
10002166:	0039      	movs	r1, r7
10002168:	f001 fa84 	bl	10003674 <__wrap___aeabi_d2iz>
1000216c:	4643      	mov	r3, r8
1000216e:	00da      	lsls	r2, r3, #3
10002170:	4ba9      	ldr	r3, [pc, #676]	; (10002418 <_ftoa+0x370>)
10002172:	0005      	movs	r5, r0
10002174:	189b      	adds	r3, r3, r2
10002176:	681a      	ldr	r2, [r3, #0]
10002178:	685b      	ldr	r3, [r3, #4]
1000217a:	9208      	str	r2, [sp, #32]
1000217c:	9309      	str	r3, [sp, #36]	; 0x24
1000217e:	f001 fa61 	bl	10003644 <__wrap___aeabi_i2d>
10002182:	0002      	movs	r2, r0
10002184:	000b      	movs	r3, r1
10002186:	0030      	movs	r0, r6
10002188:	0039      	movs	r1, r7
1000218a:	f001 f9d0 	bl	1000352e <__wrap___aeabi_dsub>
1000218e:	9a08      	ldr	r2, [sp, #32]
10002190:	9b09      	ldr	r3, [sp, #36]	; 0x24
10002192:	f001 f9e7 	bl	10003564 <__wrap___aeabi_dmul>
10002196:	900a      	str	r0, [sp, #40]	; 0x28
10002198:	910b      	str	r1, [sp, #44]	; 0x2c
1000219a:	f001 fa8f 	bl	100036bc <__wrap___aeabi_d2uiz>
1000219e:	4682      	mov	sl, r0
100021a0:	f001 fa4c 	bl	1000363c <__wrap___aeabi_ui2d>
100021a4:	0002      	movs	r2, r0
100021a6:	000b      	movs	r3, r1
100021a8:	980a      	ldr	r0, [sp, #40]	; 0x28
100021aa:	990b      	ldr	r1, [sp, #44]	; 0x2c
100021ac:	f001 f9bf 	bl	1000352e <__wrap___aeabi_dsub>
100021b0:	2200      	movs	r2, #0
100021b2:	4b9a      	ldr	r3, [pc, #616]	; (1000241c <_ftoa+0x374>)
100021b4:	900a      	str	r0, [sp, #40]	; 0x28
100021b6:	910b      	str	r1, [sp, #44]	; 0x2c
100021b8:	f001 fa2c 	bl	10003614 <__wrap___aeabi_dcmpgt>
100021bc:	2800      	cmp	r0, #0
100021be:	d100      	bne.n	100021c2 <_ftoa+0x11a>
100021c0:	e0c0      	b.n	10002344 <_ftoa+0x29c>
100021c2:	2301      	movs	r3, #1
100021c4:	469c      	mov	ip, r3
100021c6:	44e2      	add	sl, ip
100021c8:	4650      	mov	r0, sl
100021ca:	f001 fa37 	bl	1000363c <__wrap___aeabi_ui2d>
100021ce:	0002      	movs	r2, r0
100021d0:	000b      	movs	r3, r1
100021d2:	9808      	ldr	r0, [sp, #32]
100021d4:	9909      	ldr	r1, [sp, #36]	; 0x24
100021d6:	f001 fa0d 	bl	100035f4 <__wrap___aeabi_dcmple>
100021da:	2800      	cmp	r0, #0
100021dc:	d002      	beq.n	100021e4 <_ftoa+0x13c>
100021de:	2300      	movs	r3, #0
100021e0:	469a      	mov	sl, r3
100021e2:	3501      	adds	r5, #1
100021e4:	4643      	mov	r3, r8
100021e6:	2b00      	cmp	r3, #0
100021e8:	d069      	beq.n	100022be <_ftoa+0x216>
100021ea:	ab08      	add	r3, sp, #32
100021ec:	2617      	movs	r6, #23
100021ee:	469c      	mov	ip, r3
100021f0:	9508      	str	r5, [sp, #32]
100021f2:	4466      	add	r6, ip
100021f4:	4655      	mov	r5, sl
100021f6:	e014      	b.n	10002222 <_ftoa+0x17a>
100021f8:	2301      	movs	r3, #1
100021fa:	425b      	negs	r3, r3
100021fc:	4443      	add	r3, r8
100021fe:	210a      	movs	r1, #10
10002200:	0028      	movs	r0, r5
10002202:	469a      	mov	sl, r3
10002204:	f000 ff4e 	bl	100030a4 <__wrap___aeabi_uidiv>
10002208:	3401      	adds	r4, #1
1000220a:	3130      	adds	r1, #48	; 0x30
1000220c:	1937      	adds	r7, r6, r4
1000220e:	7039      	strb	r1, [r7, #0]
10002210:	0028      	movs	r0, r5
10002212:	210a      	movs	r1, #10
10002214:	f000 ff46 	bl	100030a4 <__wrap___aeabi_uidiv>
10002218:	2d09      	cmp	r5, #9
1000221a:	d800      	bhi.n	1000221e <_ftoa+0x176>
1000221c:	e0d5      	b.n	100023ca <_ftoa+0x322>
1000221e:	46d0      	mov	r8, sl
10002220:	0005      	movs	r5, r0
10002222:	2c20      	cmp	r4, #32
10002224:	d1e8      	bne.n	100021f8 <_ftoa+0x150>
10002226:	2303      	movs	r3, #3
10002228:	9a24      	ldr	r2, [sp, #144]	; 0x90
1000222a:	4013      	ands	r3, r2
1000222c:	2b01      	cmp	r3, #1
1000222e:	d100      	bne.n	10002232 <_ftoa+0x18a>
10002230:	e100      	b.n	10002434 <_ftoa+0x38c>
10002232:	ab0e      	add	r3, sp, #56	; 0x38
10002234:	4698      	mov	r8, r3
10002236:	9b24      	ldr	r3, [sp, #144]	; 0x90
10002238:	9401      	str	r4, [sp, #4]
1000223a:	9303      	str	r3, [sp, #12]
1000223c:	9b23      	ldr	r3, [sp, #140]	; 0x8c
1000223e:	9302      	str	r3, [sp, #8]
10002240:	4643      	mov	r3, r8
10002242:	e01e      	b.n	10002282 <_ftoa+0x1da>
10002244:	9b24      	ldr	r3, [sp, #144]	; 0x90
10002246:	4658      	mov	r0, fp
10002248:	9304      	str	r3, [sp, #16]
1000224a:	9b23      	ldr	r3, [sp, #140]	; 0x8c
1000224c:	9600      	str	r6, [sp, #0]
1000224e:	9701      	str	r7, [sp, #4]
10002250:	9303      	str	r3, [sp, #12]
10002252:	4643      	mov	r3, r8
10002254:	9a0c      	ldr	r2, [sp, #48]	; 0x30
10002256:	9302      	str	r3, [sp, #8]
10002258:	9907      	ldr	r1, [sp, #28]
1000225a:	464b      	mov	r3, r9
1000225c:	f7ff fcfe 	bl	10001c5c <_etoa>
10002260:	b017      	add	sp, #92	; 0x5c
10002262:	bc3c      	pop	{r2, r3, r4, r5}
10002264:	4690      	mov	r8, r2
10002266:	4699      	mov	r9, r3
10002268:	46a2      	mov	sl, r4
1000226a:	46ab      	mov	fp, r5
1000226c:	bdf0      	pop	{r4, r5, r6, r7, pc}
1000226e:	9b24      	ldr	r3, [sp, #144]	; 0x90
10002270:	075b      	lsls	r3, r3, #29
10002272:	d40e      	bmi.n	10002292 <_ftoa+0x1ea>
10002274:	2203      	movs	r2, #3
10002276:	4b6a      	ldr	r3, [pc, #424]	; (10002420 <_ftoa+0x378>)
10002278:	9924      	ldr	r1, [sp, #144]	; 0x90
1000227a:	9201      	str	r2, [sp, #4]
1000227c:	9103      	str	r1, [sp, #12]
1000227e:	9923      	ldr	r1, [sp, #140]	; 0x8c
10002280:	9102      	str	r1, [sp, #8]
10002282:	9300      	str	r3, [sp, #0]
10002284:	4658      	mov	r0, fp
10002286:	464b      	mov	r3, r9
10002288:	9a0c      	ldr	r2, [sp, #48]	; 0x30
1000228a:	9907      	ldr	r1, [sp, #28]
1000228c:	f7ff fb86 	bl	1000199c <_out_rev>
10002290:	e7e6      	b.n	10002260 <_ftoa+0x1b8>
10002292:	2204      	movs	r2, #4
10002294:	4b63      	ldr	r3, [pc, #396]	; (10002424 <_ftoa+0x37c>)
10002296:	e7ef      	b.n	10002278 <_ftoa+0x1d0>
10002298:	003b      	movs	r3, r7
1000229a:	0032      	movs	r2, r6
1000229c:	2000      	movs	r0, #0
1000229e:	2100      	movs	r1, #0
100022a0:	f001 f945 	bl	1000352e <__wrap___aeabi_dsub>
100022a4:	2301      	movs	r3, #1
100022a6:	0006      	movs	r6, r0
100022a8:	000f      	movs	r7, r1
100022aa:	930d      	str	r3, [sp, #52]	; 0x34
100022ac:	e745      	b.n	1000213a <_ftoa+0x92>
100022ae:	9b24      	ldr	r3, [sp, #144]	; 0x90
100022b0:	9303      	str	r3, [sp, #12]
100022b2:	9b23      	ldr	r3, [sp, #140]	; 0x8c
100022b4:	9302      	str	r3, [sp, #8]
100022b6:	2304      	movs	r3, #4
100022b8:	9301      	str	r3, [sp, #4]
100022ba:	4b5b      	ldr	r3, [pc, #364]	; (10002428 <_ftoa+0x380>)
100022bc:	e7e1      	b.n	10002282 <_ftoa+0x1da>
100022be:	0028      	movs	r0, r5
100022c0:	f001 f9c0 	bl	10003644 <__wrap___aeabi_i2d>
100022c4:	0002      	movs	r2, r0
100022c6:	000b      	movs	r3, r1
100022c8:	0030      	movs	r0, r6
100022ca:	0039      	movs	r1, r7
100022cc:	f001 f92f 	bl	1000352e <__wrap___aeabi_dsub>
100022d0:	4b52      	ldr	r3, [pc, #328]	; (1000241c <_ftoa+0x374>)
100022d2:	2200      	movs	r2, #0
100022d4:	0006      	movs	r6, r0
100022d6:	000f      	movs	r7, r1
100022d8:	f001 f986 	bl	100035e8 <__wrap___aeabi_dcmplt>
100022dc:	ab0e      	add	r3, sp, #56	; 0x38
100022de:	4698      	mov	r8, r3
100022e0:	2800      	cmp	r0, #0
100022e2:	d10a      	bne.n	100022fa <_ftoa+0x252>
100022e4:	2200      	movs	r2, #0
100022e6:	0030      	movs	r0, r6
100022e8:	0039      	movs	r1, r7
100022ea:	4b4c      	ldr	r3, [pc, #304]	; (1000241c <_ftoa+0x374>)
100022ec:	f001 f992 	bl	10003614 <__wrap___aeabi_dcmpgt>
100022f0:	2800      	cmp	r0, #0
100022f2:	d102      	bne.n	100022fa <_ftoa+0x252>
100022f4:	07eb      	lsls	r3, r5, #31
100022f6:	d500      	bpl.n	100022fa <_ftoa+0x252>
100022f8:	3501      	adds	r5, #1
100022fa:	2c20      	cmp	r4, #32
100022fc:	d032      	beq.n	10002364 <_ftoa+0x2bc>
100022fe:	aa08      	add	r2, sp, #32
10002300:	4694      	mov	ip, r2
10002302:	2317      	movs	r3, #23
10002304:	0028      	movs	r0, r5
10002306:	4463      	add	r3, ip
10002308:	210a      	movs	r1, #10
1000230a:	3401      	adds	r4, #1
1000230c:	191e      	adds	r6, r3, r4
1000230e:	f000 fe9d 	bl	1000304c <__wrap___aeabi_idiv>
10002312:	3130      	adds	r1, #48	; 0x30
10002314:	0028      	movs	r0, r5
10002316:	7031      	strb	r1, [r6, #0]
10002318:	210a      	movs	r1, #10
1000231a:	f000 fe97 	bl	1000304c <__wrap___aeabi_idiv>
1000231e:	1e05      	subs	r5, r0, #0
10002320:	d1eb      	bne.n	100022fa <_ftoa+0x252>
10002322:	2303      	movs	r3, #3
10002324:	9a24      	ldr	r2, [sp, #144]	; 0x90
10002326:	4013      	ands	r3, r2
10002328:	2b01      	cmp	r3, #1
1000232a:	d100      	bne.n	1000232e <_ftoa+0x286>
1000232c:	e091      	b.n	10002452 <_ftoa+0x3aa>
1000232e:	2c1f      	cmp	r4, #31
10002330:	d900      	bls.n	10002334 <_ftoa+0x28c>
10002332:	e780      	b.n	10002236 <_ftoa+0x18e>
10002334:	9b0d      	ldr	r3, [sp, #52]	; 0x34
10002336:	2b00      	cmp	r3, #0
10002338:	d03b      	beq.n	100023b2 <_ftoa+0x30a>
1000233a:	232d      	movs	r3, #45	; 0x2d
1000233c:	4642      	mov	r2, r8
1000233e:	5513      	strb	r3, [r2, r4]
10002340:	3401      	adds	r4, #1
10002342:	e778      	b.n	10002236 <_ftoa+0x18e>
10002344:	2200      	movs	r2, #0
10002346:	980a      	ldr	r0, [sp, #40]	; 0x28
10002348:	990b      	ldr	r1, [sp, #44]	; 0x2c
1000234a:	4b34      	ldr	r3, [pc, #208]	; (1000241c <_ftoa+0x374>)
1000234c:	f001 f94c 	bl	100035e8 <__wrap___aeabi_dcmplt>
10002350:	2800      	cmp	r0, #0
10002352:	d000      	beq.n	10002356 <_ftoa+0x2ae>
10002354:	e746      	b.n	100021e4 <_ftoa+0x13c>
10002356:	4653      	mov	r3, sl
10002358:	2b00      	cmp	r3, #0
1000235a:	d167      	bne.n	1000242c <_ftoa+0x384>
1000235c:	2301      	movs	r3, #1
1000235e:	469c      	mov	ip, r3
10002360:	44e2      	add	sl, ip
10002362:	e73f      	b.n	100021e4 <_ftoa+0x13c>
10002364:	2303      	movs	r3, #3
10002366:	9a24      	ldr	r2, [sp, #144]	; 0x90
10002368:	4013      	ands	r3, r2
1000236a:	2b01      	cmp	r3, #1
1000236c:	d000      	beq.n	10002370 <_ftoa+0x2c8>
1000236e:	e762      	b.n	10002236 <_ftoa+0x18e>
10002370:	9b23      	ldr	r3, [sp, #140]	; 0x8c
10002372:	2b00      	cmp	r3, #0
10002374:	d100      	bne.n	10002378 <_ftoa+0x2d0>
10002376:	e75e      	b.n	10002236 <_ftoa+0x18e>
10002378:	9b0d      	ldr	r3, [sp, #52]	; 0x34
1000237a:	2b00      	cmp	r3, #0
1000237c:	d103      	bne.n	10002386 <_ftoa+0x2de>
1000237e:	9a24      	ldr	r2, [sp, #144]	; 0x90
10002380:	330c      	adds	r3, #12
10002382:	4213      	tst	r3, r2
10002384:	d002      	beq.n	1000238c <_ftoa+0x2e4>
10002386:	9b23      	ldr	r3, [sp, #140]	; 0x8c
10002388:	3b01      	subs	r3, #1
1000238a:	9323      	str	r3, [sp, #140]	; 0x8c
1000238c:	9b23      	ldr	r3, [sp, #140]	; 0x8c
1000238e:	429c      	cmp	r4, r3
10002390:	d2cd      	bcs.n	1000232e <_ftoa+0x286>
10002392:	ab08      	add	r3, sp, #32
10002394:	469c      	mov	ip, r3
10002396:	2217      	movs	r2, #23
10002398:	2330      	movs	r3, #48	; 0x30
1000239a:	4462      	add	r2, ip
1000239c:	2c1f      	cmp	r4, #31
1000239e:	d806      	bhi.n	100023ae <_ftoa+0x306>
100023a0:	9923      	ldr	r1, [sp, #140]	; 0x8c
100023a2:	3401      	adds	r4, #1
100023a4:	5513      	strb	r3, [r2, r4]
100023a6:	428c      	cmp	r4, r1
100023a8:	d0c1      	beq.n	1000232e <_ftoa+0x286>
100023aa:	2c20      	cmp	r4, #32
100023ac:	d1f8      	bne.n	100023a0 <_ftoa+0x2f8>
100023ae:	2420      	movs	r4, #32
100023b0:	e741      	b.n	10002236 <_ftoa+0x18e>
100023b2:	9b24      	ldr	r3, [sp, #144]	; 0x90
100023b4:	075b      	lsls	r3, r3, #29
100023b6:	d421      	bmi.n	100023fc <_ftoa+0x354>
100023b8:	9b24      	ldr	r3, [sp, #144]	; 0x90
100023ba:	071b      	lsls	r3, r3, #28
100023bc:	d400      	bmi.n	100023c0 <_ftoa+0x318>
100023be:	e73a      	b.n	10002236 <_ftoa+0x18e>
100023c0:	2320      	movs	r3, #32
100023c2:	4642      	mov	r2, r8
100023c4:	5513      	strb	r3, [r2, r4]
100023c6:	3401      	adds	r4, #1
100023c8:	e735      	b.n	10002236 <_ftoa+0x18e>
100023ca:	4657      	mov	r7, sl
100023cc:	9d08      	ldr	r5, [sp, #32]
100023ce:	2c20      	cmp	r4, #32
100023d0:	d037      	beq.n	10002442 <_ftoa+0x39a>
100023d2:	0022      	movs	r2, r4
100023d4:	2130      	movs	r1, #48	; 0x30
100023d6:	4640      	mov	r0, r8
100023d8:	2f00      	cmp	r7, #0
100023da:	d008      	beq.n	100023ee <_ftoa+0x346>
100023dc:	3201      	adds	r2, #1
100023de:	54b1      	strb	r1, [r6, r2]
100023e0:	2a20      	cmp	r2, #32
100023e2:	d043      	beq.n	1000246c <_ftoa+0x3c4>
100023e4:	43d3      	mvns	r3, r2
100023e6:	191b      	adds	r3, r3, r4
100023e8:	181b      	adds	r3, r3, r0
100023ea:	2b00      	cmp	r3, #0
100023ec:	d1f6      	bne.n	100023dc <_ftoa+0x334>
100023ee:	ab0e      	add	r3, sp, #56	; 0x38
100023f0:	4698      	mov	r8, r3
100023f2:	232e      	movs	r3, #46	; 0x2e
100023f4:	4641      	mov	r1, r8
100023f6:	1c54      	adds	r4, r2, #1
100023f8:	548b      	strb	r3, [r1, r2]
100023fa:	e77e      	b.n	100022fa <_ftoa+0x252>
100023fc:	232b      	movs	r3, #43	; 0x2b
100023fe:	4642      	mov	r2, r8
10002400:	5513      	strb	r3, [r2, r4]
10002402:	3401      	adds	r4, #1
10002404:	e717      	b.n	10002236 <_ftoa+0x18e>
10002406:	46c0      	nop			; (mov r8, r8)
10002408:	ffefffff 	.word	0xffefffff
1000240c:	7fefffff 	.word	0x7fefffff
10002410:	41cdcd65 	.word	0x41cdcd65
10002414:	c1cdcd65 	.word	0xc1cdcd65
10002418:	10004ec8 	.word	0x10004ec8
1000241c:	3fe00000 	.word	0x3fe00000
10002420:	10004cd0 	.word	0x10004cd0
10002424:	10004cd4 	.word	0x10004cd4
10002428:	10004ce0 	.word	0x10004ce0
1000242c:	07db      	lsls	r3, r3, #31
1000242e:	d400      	bmi.n	10002432 <_ftoa+0x38a>
10002430:	e6d8      	b.n	100021e4 <_ftoa+0x13c>
10002432:	e793      	b.n	1000235c <_ftoa+0x2b4>
10002434:	9b23      	ldr	r3, [sp, #140]	; 0x8c
10002436:	2b00      	cmp	r3, #0
10002438:	d100      	bne.n	1000243c <_ftoa+0x394>
1000243a:	e6fa      	b.n	10002232 <_ftoa+0x18a>
1000243c:	ab0e      	add	r3, sp, #56	; 0x38
1000243e:	4698      	mov	r8, r3
10002440:	e79a      	b.n	10002378 <_ftoa+0x2d0>
10002442:	2303      	movs	r3, #3
10002444:	9a24      	ldr	r2, [sp, #144]	; 0x90
10002446:	4013      	ands	r3, r2
10002448:	2b01      	cmp	r3, #1
1000244a:	d000      	beq.n	1000244e <_ftoa+0x3a6>
1000244c:	e6f1      	b.n	10002232 <_ftoa+0x18a>
1000244e:	ab0e      	add	r3, sp, #56	; 0x38
10002450:	4698      	mov	r8, r3
10002452:	9b23      	ldr	r3, [sp, #140]	; 0x8c
10002454:	2b00      	cmp	r3, #0
10002456:	d100      	bne.n	1000245a <_ftoa+0x3b2>
10002458:	e769      	b.n	1000232e <_ftoa+0x286>
1000245a:	e78d      	b.n	10002378 <_ftoa+0x2d0>
1000245c:	9b24      	ldr	r3, [sp, #144]	; 0x90
1000245e:	9303      	str	r3, [sp, #12]
10002460:	9b23      	ldr	r3, [sp, #140]	; 0x8c
10002462:	9302      	str	r3, [sp, #8]
10002464:	2303      	movs	r3, #3
10002466:	9301      	str	r3, [sp, #4]
10002468:	4b06      	ldr	r3, [pc, #24]	; (10002484 <_ftoa+0x3dc>)
1000246a:	e70a      	b.n	10002282 <_ftoa+0x1da>
1000246c:	2303      	movs	r3, #3
1000246e:	9a24      	ldr	r2, [sp, #144]	; 0x90
10002470:	2420      	movs	r4, #32
10002472:	4013      	ands	r3, r2
10002474:	2b01      	cmp	r3, #1
10002476:	d000      	beq.n	1000247a <_ftoa+0x3d2>
10002478:	e6db      	b.n	10002232 <_ftoa+0x18a>
1000247a:	9b23      	ldr	r3, [sp, #140]	; 0x8c
1000247c:	2420      	movs	r4, #32
1000247e:	2b00      	cmp	r3, #0
10002480:	d1dc      	bne.n	1000243c <_ftoa+0x394>
10002482:	e6d6      	b.n	10002232 <_ftoa+0x18a>
10002484:	10004cdc 	.word	0x10004cdc

10002488 <_vsnprintf>:
10002488:	b5f0      	push	{r4, r5, r6, r7, lr}
1000248a:	46de      	mov	lr, fp
1000248c:	464e      	mov	r6, r9
1000248e:	4657      	mov	r7, sl
10002490:	4645      	mov	r5, r8
10002492:	b5e0      	push	{r5, r6, r7, lr}
10002494:	b09f      	sub	sp, #124	; 0x7c
10002496:	001c      	movs	r4, r3
10002498:	9b28      	ldr	r3, [sp, #160]	; 0xa0
1000249a:	4693      	mov	fp, r2
1000249c:	9309      	str	r3, [sp, #36]	; 0x24
1000249e:	4acf      	ldr	r2, [pc, #828]	; (100027dc <_vsnprintf+0x354>)
100024a0:	4bcf      	ldr	r3, [pc, #828]	; (100027e0 <_vsnprintf+0x358>)
100024a2:	4689      	mov	r9, r1
100024a4:	9008      	str	r0, [sp, #32]
100024a6:	601a      	str	r2, [r3, #0]
100024a8:	2900      	cmp	r1, #0
100024aa:	d100      	bne.n	100024ae <_vsnprintf+0x26>
100024ac:	e216      	b.n	100028dc <_vsnprintf+0x454>
100024ae:	2300      	movs	r3, #0
100024b0:	7820      	ldrb	r0, [r4, #0]
100024b2:	469a      	mov	sl, r3
100024b4:	2800      	cmp	r0, #0
100024b6:	d100      	bne.n	100024ba <_vsnprintf+0x32>
100024b8:	e218      	b.n	100028ec <_vsnprintf+0x464>
100024ba:	0026      	movs	r6, r4
100024bc:	001d      	movs	r5, r3
100024be:	464c      	mov	r4, r9
100024c0:	e00a      	b.n	100024d8 <_vsnprintf+0x50>
100024c2:	002a      	movs	r2, r5
100024c4:	1c6f      	adds	r7, r5, #1
100024c6:	465b      	mov	r3, fp
100024c8:	9d08      	ldr	r5, [sp, #32]
100024ca:	0021      	movs	r1, r4
100024cc:	47a8      	blx	r5
100024ce:	003d      	movs	r5, r7
100024d0:	3601      	adds	r6, #1
100024d2:	7830      	ldrb	r0, [r6, #0]
100024d4:	2800      	cmp	r0, #0
100024d6:	d07a      	beq.n	100025ce <_vsnprintf+0x146>
100024d8:	2825      	cmp	r0, #37	; 0x25
100024da:	d1f2      	bne.n	100024c2 <_vsnprintf+0x3a>
100024dc:	2310      	movs	r3, #16
100024de:	469a      	mov	sl, r3
100024e0:	3b08      	subs	r3, #8
100024e2:	4699      	mov	r9, r3
100024e4:	3b04      	subs	r3, #4
100024e6:	4698      	mov	r8, r3
100024e8:	3b02      	subs	r3, #2
100024ea:	2100      	movs	r1, #0
100024ec:	469c      	mov	ip, r3
100024ee:	1c72      	adds	r2, r6, #1
100024f0:	7810      	ldrb	r0, [r2, #0]
100024f2:	0016      	movs	r6, r2
100024f4:	0003      	movs	r3, r0
100024f6:	3b20      	subs	r3, #32
100024f8:	b2db      	uxtb	r3, r3
100024fa:	2b10      	cmp	r3, #16
100024fc:	d803      	bhi.n	10002506 <_vsnprintf+0x7e>
100024fe:	4fb9      	ldr	r7, [pc, #740]	; (100027e4 <_vsnprintf+0x35c>)
10002500:	009b      	lsls	r3, r3, #2
10002502:	58fb      	ldr	r3, [r7, r3]
10002504:	469f      	mov	pc, r3
10002506:	0003      	movs	r3, r0
10002508:	3b30      	subs	r3, #48	; 0x30
1000250a:	2b09      	cmp	r3, #9
1000250c:	d93c      	bls.n	10002588 <_vsnprintf+0x100>
1000250e:	2300      	movs	r3, #0
10002510:	930a      	str	r3, [sp, #40]	; 0x28
10002512:	282a      	cmp	r0, #42	; 0x2a
10002514:	d100      	bne.n	10002518 <_vsnprintf+0x90>
10002516:	e071      	b.n	100025fc <_vsnprintf+0x174>
10002518:	2300      	movs	r3, #0
1000251a:	4698      	mov	r8, r3
1000251c:	282e      	cmp	r0, #46	; 0x2e
1000251e:	d047      	beq.n	100025b0 <_vsnprintf+0x128>
10002520:	0003      	movs	r3, r0
10002522:	3b68      	subs	r3, #104	; 0x68
10002524:	b2db      	uxtb	r3, r3
10002526:	2b12      	cmp	r3, #18
10002528:	d81f      	bhi.n	1000256a <_vsnprintf+0xe2>
1000252a:	4aaf      	ldr	r2, [pc, #700]	; (100027e8 <_vsnprintf+0x360>)
1000252c:	009b      	lsls	r3, r3, #2
1000252e:	58d3      	ldr	r3, [r2, r3]
10002530:	469f      	mov	pc, r3
10002532:	2301      	movs	r3, #1
10002534:	3201      	adds	r2, #1
10002536:	4319      	orrs	r1, r3
10002538:	e7da      	b.n	100024f0 <_vsnprintf+0x68>
1000253a:	4663      	mov	r3, ip
1000253c:	3201      	adds	r2, #1
1000253e:	4319      	orrs	r1, r3
10002540:	e7d6      	b.n	100024f0 <_vsnprintf+0x68>
10002542:	4643      	mov	r3, r8
10002544:	3201      	adds	r2, #1
10002546:	4319      	orrs	r1, r3
10002548:	e7d2      	b.n	100024f0 <_vsnprintf+0x68>
1000254a:	4653      	mov	r3, sl
1000254c:	3201      	adds	r2, #1
1000254e:	4319      	orrs	r1, r3
10002550:	e7ce      	b.n	100024f0 <_vsnprintf+0x68>
10002552:	464b      	mov	r3, r9
10002554:	3201      	adds	r2, #1
10002556:	4319      	orrs	r1, r3
10002558:	e7ca      	b.n	100024f0 <_vsnprintf+0x68>
1000255a:	7870      	ldrb	r0, [r6, #1]
1000255c:	286c      	cmp	r0, #108	; 0x6c
1000255e:	d100      	bne.n	10002562 <_vsnprintf+0xda>
10002560:	e2bf      	b.n	10002ae2 <_vsnprintf+0x65a>
10002562:	2380      	movs	r3, #128	; 0x80
10002564:	005b      	lsls	r3, r3, #1
10002566:	4319      	orrs	r1, r3
10002568:	3601      	adds	r6, #1
1000256a:	0003      	movs	r3, r0
1000256c:	3b25      	subs	r3, #37	; 0x25
1000256e:	b2db      	uxtb	r3, r3
10002570:	2b53      	cmp	r3, #83	; 0x53
10002572:	d8a6      	bhi.n	100024c2 <_vsnprintf+0x3a>
10002574:	4a9d      	ldr	r2, [pc, #628]	; (100027ec <_vsnprintf+0x364>)
10002576:	009b      	lsls	r3, r3, #2
10002578:	58d3      	ldr	r3, [r2, r3]
1000257a:	469f      	mov	pc, r3
1000257c:	2380      	movs	r3, #128	; 0x80
1000257e:	005b      	lsls	r3, r3, #1
10002580:	7870      	ldrb	r0, [r6, #1]
10002582:	4319      	orrs	r1, r3
10002584:	3601      	adds	r6, #1
10002586:	e7f0      	b.n	1000256a <_vsnprintf+0xe2>
10002588:	2700      	movs	r7, #0
1000258a:	0003      	movs	r3, r0
1000258c:	00b8      	lsls	r0, r7, #2
1000258e:	19c0      	adds	r0, r0, r7
10002590:	3601      	adds	r6, #1
10002592:	0040      	lsls	r0, r0, #1
10002594:	18c0      	adds	r0, r0, r3
10002596:	7833      	ldrb	r3, [r6, #0]
10002598:	3830      	subs	r0, #48	; 0x30
1000259a:	001a      	movs	r2, r3
1000259c:	3a30      	subs	r2, #48	; 0x30
1000259e:	0007      	movs	r7, r0
100025a0:	2a09      	cmp	r2, #9
100025a2:	d9f3      	bls.n	1000258c <_vsnprintf+0x104>
100025a4:	900a      	str	r0, [sp, #40]	; 0x28
100025a6:	0018      	movs	r0, r3
100025a8:	2300      	movs	r3, #0
100025aa:	4698      	mov	r8, r3
100025ac:	282e      	cmp	r0, #46	; 0x2e
100025ae:	d1b7      	bne.n	10002520 <_vsnprintf+0x98>
100025b0:	2380      	movs	r3, #128	; 0x80
100025b2:	7870      	ldrb	r0, [r6, #1]
100025b4:	00db      	lsls	r3, r3, #3
100025b6:	4319      	orrs	r1, r3
100025b8:	0003      	movs	r3, r0
100025ba:	3b30      	subs	r3, #48	; 0x30
100025bc:	1c72      	adds	r2, r6, #1
100025be:	2b09      	cmp	r3, #9
100025c0:	d800      	bhi.n	100025c4 <_vsnprintf+0x13c>
100025c2:	e195      	b.n	100028f0 <_vsnprintf+0x468>
100025c4:	282a      	cmp	r0, #42	; 0x2a
100025c6:	d100      	bne.n	100025ca <_vsnprintf+0x142>
100025c8:	e1a6      	b.n	10002918 <_vsnprintf+0x490>
100025ca:	0016      	movs	r6, r2
100025cc:	e7a8      	b.n	10002520 <_vsnprintf+0x98>
100025ce:	46a1      	mov	r9, r4
100025d0:	46aa      	mov	sl, r5
100025d2:	002c      	movs	r4, r5
100025d4:	45d3      	cmp	fp, sl
100025d6:	d803      	bhi.n	100025e0 <_vsnprintf+0x158>
100025d8:	2301      	movs	r3, #1
100025da:	425b      	negs	r3, r3
100025dc:	445b      	add	r3, fp
100025de:	469a      	mov	sl, r3
100025e0:	465b      	mov	r3, fp
100025e2:	4652      	mov	r2, sl
100025e4:	4649      	mov	r1, r9
100025e6:	2000      	movs	r0, #0
100025e8:	9d08      	ldr	r5, [sp, #32]
100025ea:	47a8      	blx	r5
100025ec:	0020      	movs	r0, r4
100025ee:	b01f      	add	sp, #124	; 0x7c
100025f0:	bc3c      	pop	{r2, r3, r4, r5}
100025f2:	4690      	mov	r8, r2
100025f4:	4699      	mov	r9, r3
100025f6:	46a2      	mov	sl, r4
100025f8:	46ab      	mov	fp, r5
100025fa:	bdf0      	pop	{r4, r5, r6, r7, pc}
100025fc:	9b09      	ldr	r3, [sp, #36]	; 0x24
100025fe:	cb40      	ldmia	r3!, {r6}
10002600:	960a      	str	r6, [sp, #40]	; 0x28
10002602:	2e00      	cmp	r6, #0
10002604:	db03      	blt.n	1000260e <_vsnprintf+0x186>
10002606:	7850      	ldrb	r0, [r2, #1]
10002608:	9309      	str	r3, [sp, #36]	; 0x24
1000260a:	1c56      	adds	r6, r2, #1
1000260c:	e784      	b.n	10002518 <_vsnprintf+0x90>
1000260e:	3828      	subs	r0, #40	; 0x28
10002610:	4301      	orrs	r1, r0
10002612:	4270      	negs	r0, r6
10002614:	900a      	str	r0, [sp, #40]	; 0x28
10002616:	9309      	str	r3, [sp, #36]	; 0x24
10002618:	7850      	ldrb	r0, [r2, #1]
1000261a:	1c56      	adds	r6, r2, #1
1000261c:	e77c      	b.n	10002518 <_vsnprintf+0x90>
1000261e:	2878      	cmp	r0, #120	; 0x78
10002620:	d100      	bne.n	10002624 <_vsnprintf+0x19c>
10002622:	e1d4      	b.n	100029ce <_vsnprintf+0x546>
10002624:	2858      	cmp	r0, #88	; 0x58
10002626:	d100      	bne.n	1000262a <_vsnprintf+0x1a2>
10002628:	e268      	b.n	10002afc <_vsnprintf+0x674>
1000262a:	286f      	cmp	r0, #111	; 0x6f
1000262c:	d100      	bne.n	10002630 <_vsnprintf+0x1a8>
1000262e:	e352      	b.n	10002cd6 <_vsnprintf+0x84e>
10002630:	2862      	cmp	r0, #98	; 0x62
10002632:	d100      	bne.n	10002636 <_vsnprintf+0x1ae>
10002634:	e1d8      	b.n	100029e8 <_vsnprintf+0x560>
10002636:	2310      	movs	r3, #16
10002638:	000a      	movs	r2, r1
1000263a:	439a      	bics	r2, r3
1000263c:	920b      	str	r2, [sp, #44]	; 0x2c
1000263e:	2869      	cmp	r0, #105	; 0x69
10002640:	d001      	beq.n	10002646 <_vsnprintf+0x1be>
10002642:	f000 fca2 	bl	10002f8a <_vsnprintf+0xb02>
10002646:	230a      	movs	r3, #10
10002648:	930c      	str	r3, [sp, #48]	; 0x30
1000264a:	054b      	lsls	r3, r1, #21
1000264c:	d400      	bmi.n	10002650 <_vsnprintf+0x1c8>
1000264e:	e1d5      	b.n	100029fc <_vsnprintf+0x574>
10002650:	2301      	movs	r3, #1
10002652:	9a0b      	ldr	r2, [sp, #44]	; 0x2c
10002654:	439a      	bics	r2, r3
10002656:	920b      	str	r2, [sp, #44]	; 0x2c
10002658:	2869      	cmp	r0, #105	; 0x69
1000265a:	d100      	bne.n	1000265e <_vsnprintf+0x1d6>
1000265c:	e1ce      	b.n	100029fc <_vsnprintf+0x574>
1000265e:	2864      	cmp	r0, #100	; 0x64
10002660:	d100      	bne.n	10002664 <_vsnprintf+0x1dc>
10002662:	e1cb      	b.n	100029fc <_vsnprintf+0x574>
10002664:	9a0b      	ldr	r2, [sp, #44]	; 0x2c
10002666:	2380      	movs	r3, #128	; 0x80
10002668:	0011      	movs	r1, r2
1000266a:	009b      	lsls	r3, r3, #2
1000266c:	4019      	ands	r1, r3
1000266e:	468a      	mov	sl, r1
10002670:	421a      	tst	r2, r3
10002672:	d000      	beq.n	10002676 <_vsnprintf+0x1ee>
10002674:	e332      	b.n	10002cdc <_vsnprintf+0x854>
10002676:	2380      	movs	r3, #128	; 0x80
10002678:	0011      	movs	r1, r2
1000267a:	005b      	lsls	r3, r3, #1
1000267c:	4019      	ands	r1, r3
1000267e:	4689      	mov	r9, r1
10002680:	421a      	tst	r2, r3
10002682:	d001      	beq.n	10002688 <_vsnprintf+0x200>
10002684:	f000 fc02 	bl	10002e8c <_vsnprintf+0xa04>
10002688:	0013      	movs	r3, r2
1000268a:	065b      	lsls	r3, r3, #25
1000268c:	d500      	bpl.n	10002690 <_vsnprintf+0x208>
1000268e:	e310      	b.n	10002cb2 <_vsnprintf+0x82a>
10002690:	9b0b      	ldr	r3, [sp, #44]	; 0x2c
10002692:	061b      	lsls	r3, r3, #24
10002694:	d401      	bmi.n	1000269a <_vsnprintf+0x212>
10002696:	f000 fc6e 	bl	10002f76 <_vsnprintf+0xaee>
1000269a:	9b09      	ldr	r3, [sp, #36]	; 0x24
1000269c:	cb04      	ldmia	r3!, {r2}
1000269e:	0412      	lsls	r2, r2, #16
100026a0:	0c12      	lsrs	r2, r2, #16
100026a2:	4692      	mov	sl, r2
100026a4:	9309      	str	r3, [sp, #36]	; 0x24
100026a6:	4653      	mov	r3, sl
100026a8:	2b00      	cmp	r3, #0
100026aa:	d000      	beq.n	100026ae <_vsnprintf+0x226>
100026ac:	e364      	b.n	10002d78 <_vsnprintf+0x8f0>
100026ae:	9a0b      	ldr	r2, [sp, #44]	; 0x2c
100026b0:	3310      	adds	r3, #16
100026b2:	0011      	movs	r1, r2
100026b4:	4399      	bics	r1, r3
100026b6:	910b      	str	r1, [sp, #44]	; 0x2c
100026b8:	0552      	lsls	r2, r2, #21
100026ba:	d400      	bmi.n	100026be <_vsnprintf+0x236>
100026bc:	e35c      	b.n	10002d78 <_vsnprintf+0x8f0>
100026be:	2300      	movs	r3, #0
100026c0:	4699      	mov	r9, r3
100026c2:	9b0b      	ldr	r3, [sp, #44]	; 0x2c
100026c4:	9306      	str	r3, [sp, #24]
100026c6:	9b0a      	ldr	r3, [sp, #40]	; 0x28
100026c8:	9305      	str	r3, [sp, #20]
100026ca:	4643      	mov	r3, r8
100026cc:	9304      	str	r3, [sp, #16]
100026ce:	9b0c      	ldr	r3, [sp, #48]	; 0x30
100026d0:	9303      	str	r3, [sp, #12]
100026d2:	2300      	movs	r3, #0
100026d4:	e2de      	b.n	10002c94 <_vsnprintf+0x80c>
100026d6:	7870      	ldrb	r0, [r6, #1]
100026d8:	2868      	cmp	r0, #104	; 0x68
100026da:	d100      	bne.n	100026de <_vsnprintf+0x256>
100026dc:	e207      	b.n	10002aee <_vsnprintf+0x666>
100026de:	2380      	movs	r3, #128	; 0x80
100026e0:	3601      	adds	r6, #1
100026e2:	4319      	orrs	r1, r3
100026e4:	e741      	b.n	1000256a <_vsnprintf+0xe2>
100026e6:	2380      	movs	r3, #128	; 0x80
100026e8:	009b      	lsls	r3, r3, #2
100026ea:	7870      	ldrb	r0, [r6, #1]
100026ec:	4319      	orrs	r1, r3
100026ee:	3601      	adds	r6, #1
100026f0:	e73b      	b.n	1000256a <_vsnprintf+0xe2>
100026f2:	2846      	cmp	r0, #70	; 0x46
100026f4:	d100      	bne.n	100026f8 <_vsnprintf+0x270>
100026f6:	e174      	b.n	100029e2 <_vsnprintf+0x55a>
100026f8:	2207      	movs	r2, #7
100026fa:	9b09      	ldr	r3, [sp, #36]	; 0x24
100026fc:	9104      	str	r1, [sp, #16]
100026fe:	3307      	adds	r3, #7
10002700:	4393      	bics	r3, r2
10002702:	9a0a      	ldr	r2, [sp, #40]	; 0x28
10002704:	0019      	movs	r1, r3
10002706:	9203      	str	r2, [sp, #12]
10002708:	4642      	mov	r2, r8
1000270a:	9202      	str	r2, [sp, #8]
1000270c:	c90c      	ldmia	r1!, {r2, r3}
1000270e:	9808      	ldr	r0, [sp, #32]
10002710:	9200      	str	r2, [sp, #0]
10002712:	9301      	str	r3, [sp, #4]
10002714:	9109      	str	r1, [sp, #36]	; 0x24
10002716:	002a      	movs	r2, r5
10002718:	465b      	mov	r3, fp
1000271a:	0021      	movs	r1, r4
1000271c:	f7ff fcc4 	bl	100020a8 <_ftoa>
10002720:	3601      	adds	r6, #1
10002722:	0005      	movs	r5, r0
10002724:	e6d5      	b.n	100024d2 <_vsnprintf+0x4a>
10002726:	9b09      	ldr	r3, [sp, #36]	; 0x24
10002728:	001a      	movs	r2, r3
1000272a:	ca08      	ldmia	r2!, {r3}
1000272c:	4691      	mov	r9, r2
1000272e:	2b00      	cmp	r3, #0
10002730:	d100      	bne.n	10002734 <_vsnprintf+0x2ac>
10002732:	e105      	b.n	10002940 <_vsnprintf+0x4b8>
10002734:	2221      	movs	r2, #33	; 0x21
10002736:	4311      	orrs	r1, r2
10002738:	468a      	mov	sl, r1
1000273a:	a80e      	add	r0, sp, #56	; 0x38
1000273c:	4684      	mov	ip, r0
1000273e:	211f      	movs	r1, #31
10002740:	4461      	add	r1, ip
10002742:	9509      	str	r5, [sp, #36]	; 0x24
10002744:	2200      	movs	r2, #0
10002746:	270f      	movs	r7, #15
10002748:	46a4      	mov	ip, r4
1000274a:	000d      	movs	r5, r1
1000274c:	e002      	b.n	10002754 <_vsnprintf+0x2cc>
1000274e:	2a20      	cmp	r2, #32
10002750:	d00c      	beq.n	1000276c <_vsnprintf+0x2e4>
10002752:	000b      	movs	r3, r1
10002754:	003c      	movs	r4, r7
10002756:	401c      	ands	r4, r3
10002758:	0020      	movs	r0, r4
1000275a:	3037      	adds	r0, #55	; 0x37
1000275c:	2c09      	cmp	r4, #9
1000275e:	d800      	bhi.n	10002762 <_vsnprintf+0x2da>
10002760:	3807      	subs	r0, #7
10002762:	3201      	adds	r2, #1
10002764:	54a8      	strb	r0, [r5, r2]
10002766:	0919      	lsrs	r1, r3, #4
10002768:	2b0f      	cmp	r3, #15
1000276a:	d8f0      	bhi.n	1000274e <_vsnprintf+0x2c6>
1000276c:	4664      	mov	r4, ip
1000276e:	9d09      	ldr	r5, [sp, #36]	; 0x24
10002770:	e0f0      	b.n	10002954 <_vsnprintf+0x4cc>
10002772:	078b      	lsls	r3, r1, #30
10002774:	d400      	bmi.n	10002778 <_vsnprintf+0x2f0>
10002776:	e1d1      	b.n	10002b1c <_vsnprintf+0x694>
10002778:	9b09      	ldr	r3, [sp, #36]	; 0x24
1000277a:	002a      	movs	r2, r5
1000277c:	4699      	mov	r9, r3
1000277e:	1c6b      	adds	r3, r5, #1
10002780:	4698      	mov	r8, r3
10002782:	464b      	mov	r3, r9
10002784:	cb01      	ldmia	r3!, {r0}
10002786:	0021      	movs	r1, r4
10002788:	4699      	mov	r9, r3
1000278a:	9f08      	ldr	r7, [sp, #32]
1000278c:	465b      	mov	r3, fp
1000278e:	b2c0      	uxtb	r0, r0
10002790:	47b8      	blx	r7
10002792:	9b0a      	ldr	r3, [sp, #40]	; 0x28
10002794:	469c      	mov	ip, r3
10002796:	4465      	add	r5, ip
10002798:	2b01      	cmp	r3, #1
1000279a:	d800      	bhi.n	1000279e <_vsnprintf+0x316>
1000279c:	e290      	b.n	10002cc0 <_vsnprintf+0x838>
1000279e:	46b2      	mov	sl, r6
100027a0:	465e      	mov	r6, fp
100027a2:	4647      	mov	r7, r8
100027a4:	46a8      	mov	r8, r5
100027a6:	9d08      	ldr	r5, [sp, #32]
100027a8:	003a      	movs	r2, r7
100027aa:	0033      	movs	r3, r6
100027ac:	3701      	adds	r7, #1
100027ae:	0021      	movs	r1, r4
100027b0:	2020      	movs	r0, #32
100027b2:	47a8      	blx	r5
100027b4:	4547      	cmp	r7, r8
100027b6:	d1f7      	bne.n	100027a8 <_vsnprintf+0x320>
100027b8:	46b3      	mov	fp, r6
100027ba:	464b      	mov	r3, r9
100027bc:	4656      	mov	r6, sl
100027be:	003d      	movs	r5, r7
100027c0:	9309      	str	r3, [sp, #36]	; 0x24
100027c2:	3601      	adds	r6, #1
100027c4:	e685      	b.n	100024d2 <_vsnprintf+0x4a>
100027c6:	002a      	movs	r2, r5
100027c8:	1c6f      	adds	r7, r5, #1
100027ca:	465b      	mov	r3, fp
100027cc:	9d08      	ldr	r5, [sp, #32]
100027ce:	0021      	movs	r1, r4
100027d0:	2025      	movs	r0, #37	; 0x25
100027d2:	47a8      	blx	r5
100027d4:	3601      	adds	r6, #1
100027d6:	003d      	movs	r5, r7
100027d8:	e67b      	b.n	100024d2 <_vsnprintf+0x4a>
100027da:	46c0      	nop			; (mov r8, r8)
100027dc:	10002489 	.word	0x10002489
100027e0:	20000b04 	.word	0x20000b04
100027e4:	10004ce8 	.word	0x10004ce8
100027e8:	10004d2c 	.word	0x10004d2c
100027ec:	10004d78 	.word	0x10004d78
100027f0:	9b09      	ldr	r3, [sp, #36]	; 0x24
100027f2:	cb04      	ldmia	r3!, {r2}
100027f4:	4699      	mov	r9, r3
100027f6:	4643      	mov	r3, r8
100027f8:	9209      	str	r2, [sp, #36]	; 0x24
100027fa:	2b00      	cmp	r3, #0
100027fc:	d000      	beq.n	10002800 <_vsnprintf+0x378>
100027fe:	e097      	b.n	10002930 <_vsnprintf+0x4a8>
10002800:	7813      	ldrb	r3, [r2, #0]
10002802:	469c      	mov	ip, r3
10002804:	2b00      	cmp	r3, #0
10002806:	d100      	bne.n	1000280a <_vsnprintf+0x382>
10002808:	e3b3      	b.n	10002f72 <_vsnprintf+0xaea>
1000280a:	2302      	movs	r3, #2
1000280c:	425b      	negs	r3, r3
1000280e:	1c5a      	adds	r2, r3, #1
10002810:	9b09      	ldr	r3, [sp, #36]	; 0x24
10002812:	4692      	mov	sl, r2
10002814:	0018      	movs	r0, r3
10002816:	9f0a      	ldr	r7, [sp, #40]	; 0x28
10002818:	920b      	str	r2, [sp, #44]	; 0x2c
1000281a:	4450      	add	r0, sl
1000281c:	e002      	b.n	10002824 <_vsnprintf+0x39c>
1000281e:	4283      	cmp	r3, r0
10002820:	d100      	bne.n	10002824 <_vsnprintf+0x39c>
10002822:	e169      	b.n	10002af8 <_vsnprintf+0x670>
10002824:	785a      	ldrb	r2, [r3, #1]
10002826:	3301      	adds	r3, #1
10002828:	2a00      	cmp	r2, #0
1000282a:	d1f8      	bne.n	1000281e <_vsnprintf+0x396>
1000282c:	9a09      	ldr	r2, [sp, #36]	; 0x24
1000282e:	970a      	str	r7, [sp, #40]	; 0x28
10002830:	1a9b      	subs	r3, r3, r2
10002832:	930b      	str	r3, [sp, #44]	; 0x2c
10002834:	2380      	movs	r3, #128	; 0x80
10002836:	000a      	movs	r2, r1
10002838:	00db      	lsls	r3, r3, #3
1000283a:	401a      	ands	r2, r3
1000283c:	920c      	str	r2, [sp, #48]	; 0x30
1000283e:	4219      	tst	r1, r3
10002840:	d004      	beq.n	1000284c <_vsnprintf+0x3c4>
10002842:	9b0b      	ldr	r3, [sp, #44]	; 0x2c
10002844:	4543      	cmp	r3, r8
10002846:	d901      	bls.n	1000284c <_vsnprintf+0x3c4>
10002848:	4643      	mov	r3, r8
1000284a:	930b      	str	r3, [sp, #44]	; 0x2c
1000284c:	2302      	movs	r3, #2
1000284e:	001a      	movs	r2, r3
10002850:	400a      	ands	r2, r1
10002852:	920d      	str	r2, [sp, #52]	; 0x34
10002854:	420b      	tst	r3, r1
10002856:	d100      	bne.n	1000285a <_vsnprintf+0x3d2>
10002858:	e184      	b.n	10002b64 <_vsnprintf+0x6dc>
1000285a:	4660      	mov	r0, ip
1000285c:	2800      	cmp	r0, #0
1000285e:	d023      	beq.n	100028a8 <_vsnprintf+0x420>
10002860:	9b0c      	ldr	r3, [sp, #48]	; 0x30
10002862:	2b00      	cmp	r3, #0
10002864:	d100      	bne.n	10002868 <_vsnprintf+0x3e0>
10002866:	e124      	b.n	10002ab2 <_vsnprintf+0x62a>
10002868:	44a8      	add	r8, r5
1000286a:	46c2      	mov	sl, r8
1000286c:	9b09      	ldr	r3, [sp, #36]	; 0x24
1000286e:	4657      	mov	r7, sl
10002870:	1b5b      	subs	r3, r3, r5
10002872:	4698      	mov	r8, r3
10002874:	9b08      	ldr	r3, [sp, #32]
10002876:	46b2      	mov	sl, r6
10002878:	002a      	movs	r2, r5
1000287a:	0026      	movs	r6, r4
1000287c:	465c      	mov	r4, fp
1000287e:	469b      	mov	fp, r3
10002880:	e009      	b.n	10002896 <_vsnprintf+0x40e>
10002882:	0023      	movs	r3, r4
10002884:	0031      	movs	r1, r6
10002886:	1c55      	adds	r5, r2, #1
10002888:	47d8      	blx	fp
1000288a:	4643      	mov	r3, r8
1000288c:	5d58      	ldrb	r0, [r3, r5]
1000288e:	2800      	cmp	r0, #0
10002890:	d100      	bne.n	10002894 <_vsnprintf+0x40c>
10002892:	e13f      	b.n	10002b14 <_vsnprintf+0x68c>
10002894:	002a      	movs	r2, r5
10002896:	4297      	cmp	r7, r2
10002898:	d1f3      	bne.n	10002882 <_vsnprintf+0x3fa>
1000289a:	46a3      	mov	fp, r4
1000289c:	003d      	movs	r5, r7
1000289e:	0034      	movs	r4, r6
100028a0:	4656      	mov	r6, sl
100028a2:	9b0d      	ldr	r3, [sp, #52]	; 0x34
100028a4:	2b00      	cmp	r3, #0
100028a6:	d069      	beq.n	1000297c <_vsnprintf+0x4f4>
100028a8:	9b0b      	ldr	r3, [sp, #44]	; 0x2c
100028aa:	990a      	ldr	r1, [sp, #40]	; 0x28
100028ac:	46a8      	mov	r8, r5
100028ae:	4299      	cmp	r1, r3
100028b0:	d964      	bls.n	1000297c <_vsnprintf+0x4f4>
100028b2:	468c      	mov	ip, r1
100028b4:	4465      	add	r5, ip
100028b6:	1aed      	subs	r5, r5, r3
100028b8:	9b08      	ldr	r3, [sp, #32]
100028ba:	4647      	mov	r7, r8
100028bc:	469a      	mov	sl, r3
100028be:	46b0      	mov	r8, r6
100028c0:	0026      	movs	r6, r4
100028c2:	465c      	mov	r4, fp
100028c4:	003a      	movs	r2, r7
100028c6:	0023      	movs	r3, r4
100028c8:	3701      	adds	r7, #1
100028ca:	0031      	movs	r1, r6
100028cc:	2020      	movs	r0, #32
100028ce:	47d0      	blx	sl
100028d0:	42af      	cmp	r7, r5
100028d2:	d1f7      	bne.n	100028c4 <_vsnprintf+0x43c>
100028d4:	46a3      	mov	fp, r4
100028d6:	0034      	movs	r4, r6
100028d8:	4646      	mov	r6, r8
100028da:	e04f      	b.n	1000297c <_vsnprintf+0x4f4>
100028dc:	4bd2      	ldr	r3, [pc, #840]	; (10002c28 <_vsnprintf+0x7a0>)
100028de:	7820      	ldrb	r0, [r4, #0]
100028e0:	9308      	str	r3, [sp, #32]
100028e2:	2300      	movs	r3, #0
100028e4:	469a      	mov	sl, r3
100028e6:	2800      	cmp	r0, #0
100028e8:	d000      	beq.n	100028ec <_vsnprintf+0x464>
100028ea:	e5e6      	b.n	100024ba <_vsnprintf+0x32>
100028ec:	2400      	movs	r4, #0
100028ee:	e671      	b.n	100025d4 <_vsnprintf+0x14c>
100028f0:	4643      	mov	r3, r8
100028f2:	0006      	movs	r6, r0
100028f4:	9f0a      	ldr	r7, [sp, #40]	; 0x28
100028f6:	0098      	lsls	r0, r3, #2
100028f8:	18c0      	adds	r0, r0, r3
100028fa:	3201      	adds	r2, #1
100028fc:	0040      	lsls	r0, r0, #1
100028fe:	1980      	adds	r0, r0, r6
10002900:	7816      	ldrb	r6, [r2, #0]
10002902:	0003      	movs	r3, r0
10002904:	0030      	movs	r0, r6
10002906:	3830      	subs	r0, #48	; 0x30
10002908:	3b30      	subs	r3, #48	; 0x30
1000290a:	2809      	cmp	r0, #9
1000290c:	d9f3      	bls.n	100028f6 <_vsnprintf+0x46e>
1000290e:	0030      	movs	r0, r6
10002910:	4698      	mov	r8, r3
10002912:	0016      	movs	r6, r2
10002914:	970a      	str	r7, [sp, #40]	; 0x28
10002916:	e603      	b.n	10002520 <_vsnprintf+0x98>
10002918:	9b09      	ldr	r3, [sp, #36]	; 0x24
1000291a:	3602      	adds	r6, #2
1000291c:	cb04      	ldmia	r3!, {r2}
1000291e:	4690      	mov	r8, r2
10002920:	43d2      	mvns	r2, r2
10002922:	4640      	mov	r0, r8
10002924:	17d2      	asrs	r2, r2, #31
10002926:	4010      	ands	r0, r2
10002928:	4680      	mov	r8, r0
1000292a:	9309      	str	r3, [sp, #36]	; 0x24
1000292c:	7830      	ldrb	r0, [r6, #0]
1000292e:	e5f7      	b.n	10002520 <_vsnprintf+0x98>
10002930:	7813      	ldrb	r3, [r2, #0]
10002932:	469c      	mov	ip, r3
10002934:	2b00      	cmp	r3, #0
10002936:	d100      	bne.n	1000293a <_vsnprintf+0x4b2>
10002938:	e31a      	b.n	10002f70 <_vsnprintf+0xae8>
1000293a:	4643      	mov	r3, r8
1000293c:	3b01      	subs	r3, #1
1000293e:	e766      	b.n	1000280e <_vsnprintf+0x386>
10002940:	2210      	movs	r2, #16
10002942:	0008      	movs	r0, r1
10002944:	4390      	bics	r0, r2
10002946:	3211      	adds	r2, #17
10002948:	4310      	orrs	r0, r2
1000294a:	4682      	mov	sl, r0
1000294c:	2200      	movs	r2, #0
1000294e:	0549      	lsls	r1, r1, #21
10002950:	d400      	bmi.n	10002954 <_vsnprintf+0x4cc>
10002952:	e6f2      	b.n	1000273a <_vsnprintf+0x2b2>
10002954:	4653      	mov	r3, sl
10002956:	9306      	str	r3, [sp, #24]
10002958:	2308      	movs	r3, #8
1000295a:	9305      	str	r3, [sp, #20]
1000295c:	4643      	mov	r3, r8
1000295e:	9304      	str	r3, [sp, #16]
10002960:	2310      	movs	r3, #16
10002962:	9303      	str	r3, [sp, #12]
10002964:	2300      	movs	r3, #0
10002966:	9302      	str	r3, [sp, #8]
10002968:	ab16      	add	r3, sp, #88	; 0x58
1000296a:	9201      	str	r2, [sp, #4]
1000296c:	9300      	str	r3, [sp, #0]
1000296e:	002a      	movs	r2, r5
10002970:	465b      	mov	r3, fp
10002972:	0021      	movs	r1, r4
10002974:	9808      	ldr	r0, [sp, #32]
10002976:	f7ff f879 	bl	10001a6c <_ntoa_format>
1000297a:	0005      	movs	r5, r0
1000297c:	464b      	mov	r3, r9
1000297e:	3601      	adds	r6, #1
10002980:	9309      	str	r3, [sp, #36]	; 0x24
10002982:	e5a6      	b.n	100024d2 <_vsnprintf+0x4a>
10002984:	2320      	movs	r3, #32
10002986:	0002      	movs	r2, r0
10002988:	439a      	bics	r2, r3
1000298a:	2a47      	cmp	r2, #71	; 0x47
1000298c:	d104      	bne.n	10002998 <_vsnprintf+0x510>
1000298e:	2380      	movs	r3, #128	; 0x80
10002990:	011b      	lsls	r3, r3, #4
10002992:	4319      	orrs	r1, r3
10002994:	2302      	movs	r3, #2
10002996:	4398      	bics	r0, r3
10002998:	2845      	cmp	r0, #69	; 0x45
1000299a:	d101      	bne.n	100029a0 <_vsnprintf+0x518>
1000299c:	2320      	movs	r3, #32
1000299e:	4319      	orrs	r1, r3
100029a0:	2207      	movs	r2, #7
100029a2:	9b09      	ldr	r3, [sp, #36]	; 0x24
100029a4:	9104      	str	r1, [sp, #16]
100029a6:	3307      	adds	r3, #7
100029a8:	4393      	bics	r3, r2
100029aa:	9a0a      	ldr	r2, [sp, #40]	; 0x28
100029ac:	0019      	movs	r1, r3
100029ae:	9203      	str	r2, [sp, #12]
100029b0:	4642      	mov	r2, r8
100029b2:	9202      	str	r2, [sp, #8]
100029b4:	c90c      	ldmia	r1!, {r2, r3}
100029b6:	9808      	ldr	r0, [sp, #32]
100029b8:	9200      	str	r2, [sp, #0]
100029ba:	9301      	str	r3, [sp, #4]
100029bc:	9109      	str	r1, [sp, #36]	; 0x24
100029be:	002a      	movs	r2, r5
100029c0:	465b      	mov	r3, fp
100029c2:	0021      	movs	r1, r4
100029c4:	f7ff f94a 	bl	10001c5c <_etoa>
100029c8:	3601      	adds	r6, #1
100029ca:	0005      	movs	r5, r0
100029cc:	e581      	b.n	100024d2 <_vsnprintf+0x4a>
100029ce:	2310      	movs	r3, #16
100029d0:	930c      	str	r3, [sp, #48]	; 0x30
100029d2:	230c      	movs	r3, #12
100029d4:	000a      	movs	r2, r1
100029d6:	439a      	bics	r2, r3
100029d8:	920b      	str	r2, [sp, #44]	; 0x2c
100029da:	054b      	lsls	r3, r1, #21
100029dc:	d400      	bmi.n	100029e0 <_vsnprintf+0x558>
100029de:	e63b      	b.n	10002658 <_vsnprintf+0x1d0>
100029e0:	e636      	b.n	10002650 <_vsnprintf+0x1c8>
100029e2:	2320      	movs	r3, #32
100029e4:	4319      	orrs	r1, r3
100029e6:	e687      	b.n	100026f8 <_vsnprintf+0x270>
100029e8:	2302      	movs	r3, #2
100029ea:	930c      	str	r3, [sp, #48]	; 0x30
100029ec:	910b      	str	r1, [sp, #44]	; 0x2c
100029ee:	990b      	ldr	r1, [sp, #44]	; 0x2c
100029f0:	2864      	cmp	r0, #100	; 0x64
100029f2:	d1ee      	bne.n	100029d2 <_vsnprintf+0x54a>
100029f4:	9b0b      	ldr	r3, [sp, #44]	; 0x2c
100029f6:	055b      	lsls	r3, r3, #21
100029f8:	d500      	bpl.n	100029fc <_vsnprintf+0x574>
100029fa:	e629      	b.n	10002650 <_vsnprintf+0x1c8>
100029fc:	9a0b      	ldr	r2, [sp, #44]	; 0x2c
100029fe:	2380      	movs	r3, #128	; 0x80
10002a00:	0011      	movs	r1, r2
10002a02:	009b      	lsls	r3, r3, #2
10002a04:	4019      	ands	r1, r3
10002a06:	468a      	mov	sl, r1
10002a08:	421a      	tst	r2, r3
10002a0a:	d000      	beq.n	10002a0e <_vsnprintf+0x586>
10002a0c:	e0ce      	b.n	10002bac <_vsnprintf+0x724>
10002a0e:	2380      	movs	r3, #128	; 0x80
10002a10:	0011      	movs	r1, r2
10002a12:	005b      	lsls	r3, r3, #1
10002a14:	4019      	ands	r1, r3
10002a16:	4689      	mov	r9, r1
10002a18:	421a      	tst	r2, r3
10002a1a:	d000      	beq.n	10002a1e <_vsnprintf+0x596>
10002a1c:	e1db      	b.n	10002dd6 <_vsnprintf+0x94e>
10002a1e:	0013      	movs	r3, r2
10002a20:	065b      	lsls	r3, r3, #25
10002a22:	d500      	bpl.n	10002a26 <_vsnprintf+0x59e>
10002a24:	e11d      	b.n	10002c62 <_vsnprintf+0x7da>
10002a26:	9b0b      	ldr	r3, [sp, #44]	; 0x2c
10002a28:	9909      	ldr	r1, [sp, #36]	; 0x24
10002a2a:	061b      	lsls	r3, r3, #24
10002a2c:	d400      	bmi.n	10002a30 <_vsnprintf+0x5a8>
10002a2e:	e299      	b.n	10002f64 <_vsnprintf+0xadc>
10002a30:	c908      	ldmia	r1!, {r3}
10002a32:	b21b      	sxth	r3, r3
10002a34:	17d8      	asrs	r0, r3, #31
10002a36:	181a      	adds	r2, r3, r0
10002a38:	4042      	eors	r2, r0
10002a3a:	b292      	uxth	r2, r2
10002a3c:	9109      	str	r1, [sp, #36]	; 0x24
10002a3e:	4692      	mov	sl, r2
10002a40:	0fda      	lsrs	r2, r3, #31
10002a42:	9212      	str	r2, [sp, #72]	; 0x48
10002a44:	2b00      	cmp	r3, #0
10002a46:	d109      	bne.n	10002a5c <_vsnprintf+0x5d4>
10002a48:	2380      	movs	r3, #128	; 0x80
10002a4a:	2210      	movs	r2, #16
10002a4c:	990b      	ldr	r1, [sp, #44]	; 0x2c
10002a4e:	00db      	lsls	r3, r3, #3
10002a50:	400b      	ands	r3, r1
10002a52:	4391      	bics	r1, r2
10002a54:	910b      	str	r1, [sp, #44]	; 0x2c
10002a56:	2b00      	cmp	r3, #0
10002a58:	d000      	beq.n	10002a5c <_vsnprintf+0x5d4>
10002a5a:	e112      	b.n	10002c82 <_vsnprintf+0x7fa>
10002a5c:	9a0b      	ldr	r2, [sp, #44]	; 0x2c
10002a5e:	2361      	movs	r3, #97	; 0x61
10002a60:	0692      	lsls	r2, r2, #26
10002a62:	d500      	bpl.n	10002a66 <_vsnprintf+0x5de>
10002a64:	2341      	movs	r3, #65	; 0x41
10002a66:	a90e      	add	r1, sp, #56	; 0x38
10002a68:	221f      	movs	r2, #31
10002a6a:	468c      	mov	ip, r1
10002a6c:	b2db      	uxtb	r3, r3
10002a6e:	4462      	add	r2, ip
10002a70:	3b0a      	subs	r3, #10
10002a72:	4657      	mov	r7, sl
10002a74:	9513      	str	r5, [sp, #76]	; 0x4c
10002a76:	46a2      	mov	sl, r4
10002a78:	464d      	mov	r5, r9
10002a7a:	9c0c      	ldr	r4, [sp, #48]	; 0x30
10002a7c:	46b1      	mov	r9, r6
10002a7e:	930d      	str	r3, [sp, #52]	; 0x34
10002a80:	0016      	movs	r6, r2
10002a82:	e00a      	b.n	10002a9a <_vsnprintf+0x612>
10002a84:	3330      	adds	r3, #48	; 0x30
10002a86:	b2db      	uxtb	r3, r3
10002a88:	3501      	adds	r5, #1
10002a8a:	5573      	strb	r3, [r6, r5]
10002a8c:	42a7      	cmp	r7, r4
10002a8e:	d200      	bcs.n	10002a92 <_vsnprintf+0x60a>
10002a90:	e11c      	b.n	10002ccc <_vsnprintf+0x844>
10002a92:	2d20      	cmp	r5, #32
10002a94:	d100      	bne.n	10002a98 <_vsnprintf+0x610>
10002a96:	e119      	b.n	10002ccc <_vsnprintf+0x844>
10002a98:	0007      	movs	r7, r0
10002a9a:	0021      	movs	r1, r4
10002a9c:	0038      	movs	r0, r7
10002a9e:	f000 fb01 	bl	100030a4 <__wrap___aeabi_uidiv>
10002aa2:	b2cb      	uxtb	r3, r1
10002aa4:	2909      	cmp	r1, #9
10002aa6:	d9ed      	bls.n	10002a84 <_vsnprintf+0x5fc>
10002aa8:	9a0d      	ldr	r2, [sp, #52]	; 0x34
10002aaa:	4694      	mov	ip, r2
10002aac:	4463      	add	r3, ip
10002aae:	b2db      	uxtb	r3, r3
10002ab0:	e7ea      	b.n	10002a88 <_vsnprintf+0x600>
10002ab2:	9b09      	ldr	r3, [sp, #36]	; 0x24
10002ab4:	465f      	mov	r7, fp
10002ab6:	1b5b      	subs	r3, r3, r5
10002ab8:	4698      	mov	r8, r3
10002aba:	9b0a      	ldr	r3, [sp, #40]	; 0x28
10002abc:	46b3      	mov	fp, r6
10002abe:	469a      	mov	sl, r3
10002ac0:	0026      	movs	r6, r4
10002ac2:	9c08      	ldr	r4, [sp, #32]
10002ac4:	002a      	movs	r2, r5
10002ac6:	003b      	movs	r3, r7
10002ac8:	0031      	movs	r1, r6
10002aca:	47a0      	blx	r4
10002acc:	4643      	mov	r3, r8
10002ace:	3501      	adds	r5, #1
10002ad0:	5d58      	ldrb	r0, [r3, r5]
10002ad2:	2800      	cmp	r0, #0
10002ad4:	d1f6      	bne.n	10002ac4 <_vsnprintf+0x63c>
10002ad6:	4653      	mov	r3, sl
10002ad8:	0034      	movs	r4, r6
10002ada:	930a      	str	r3, [sp, #40]	; 0x28
10002adc:	465e      	mov	r6, fp
10002ade:	46bb      	mov	fp, r7
10002ae0:	e6df      	b.n	100028a2 <_vsnprintf+0x41a>
10002ae2:	23c0      	movs	r3, #192	; 0xc0
10002ae4:	009b      	lsls	r3, r3, #2
10002ae6:	78b0      	ldrb	r0, [r6, #2]
10002ae8:	4319      	orrs	r1, r3
10002aea:	3602      	adds	r6, #2
10002aec:	e53d      	b.n	1000256a <_vsnprintf+0xe2>
10002aee:	23c0      	movs	r3, #192	; 0xc0
10002af0:	78b0      	ldrb	r0, [r6, #2]
10002af2:	4319      	orrs	r1, r3
10002af4:	3602      	adds	r6, #2
10002af6:	e538      	b.n	1000256a <_vsnprintf+0xe2>
10002af8:	970a      	str	r7, [sp, #40]	; 0x28
10002afa:	e69b      	b.n	10002834 <_vsnprintf+0x3ac>
10002afc:	230c      	movs	r3, #12
10002afe:	000a      	movs	r2, r1
10002b00:	439a      	bics	r2, r3
10002b02:	3314      	adds	r3, #20
10002b04:	431a      	orrs	r2, r3
10002b06:	2310      	movs	r3, #16
10002b08:	920b      	str	r2, [sp, #44]	; 0x2c
10002b0a:	930c      	str	r3, [sp, #48]	; 0x30
10002b0c:	054b      	lsls	r3, r1, #21
10002b0e:	d400      	bmi.n	10002b12 <_vsnprintf+0x68a>
10002b10:	e5a8      	b.n	10002664 <_vsnprintf+0x1dc>
10002b12:	e59d      	b.n	10002650 <_vsnprintf+0x1c8>
10002b14:	46a3      	mov	fp, r4
10002b16:	0034      	movs	r4, r6
10002b18:	4656      	mov	r6, sl
10002b1a:	e6c2      	b.n	100028a2 <_vsnprintf+0x41a>
10002b1c:	9a0a      	ldr	r2, [sp, #40]	; 0x28
10002b1e:	2a01      	cmp	r2, #1
10002b20:	d800      	bhi.n	10002b24 <_vsnprintf+0x69c>
10002b22:	e22e      	b.n	10002f82 <_vsnprintf+0xafa>
10002b24:	1e6b      	subs	r3, r5, #1
10002b26:	189f      	adds	r7, r3, r2
10002b28:	9b08      	ldr	r3, [sp, #32]
10002b2a:	46b0      	mov	r8, r6
10002b2c:	4699      	mov	r9, r3
10002b2e:	0026      	movs	r6, r4
10002b30:	465c      	mov	r4, fp
10002b32:	002a      	movs	r2, r5
10002b34:	0023      	movs	r3, r4
10002b36:	3501      	adds	r5, #1
10002b38:	0031      	movs	r1, r6
10002b3a:	2020      	movs	r0, #32
10002b3c:	47c8      	blx	r9
10002b3e:	42bd      	cmp	r5, r7
10002b40:	d1f7      	bne.n	10002b32 <_vsnprintf+0x6aa>
10002b42:	46a3      	mov	fp, r4
10002b44:	0034      	movs	r4, r6
10002b46:	4646      	mov	r6, r8
10002b48:	9b09      	ldr	r3, [sp, #36]	; 0x24
10002b4a:	003a      	movs	r2, r7
10002b4c:	cb01      	ldmia	r3!, {r0}
10002b4e:	0021      	movs	r1, r4
10002b50:	4698      	mov	r8, r3
10002b52:	1c7d      	adds	r5, r7, #1
10002b54:	465b      	mov	r3, fp
10002b56:	9f08      	ldr	r7, [sp, #32]
10002b58:	b2c0      	uxtb	r0, r0
10002b5a:	47b8      	blx	r7
10002b5c:	4643      	mov	r3, r8
10002b5e:	3601      	adds	r6, #1
10002b60:	9309      	str	r3, [sp, #36]	; 0x24
10002b62:	e4b6      	b.n	100024d2 <_vsnprintf+0x4a>
10002b64:	9a0b      	ldr	r2, [sp, #44]	; 0x2c
10002b66:	980a      	ldr	r0, [sp, #40]	; 0x28
10002b68:	1c53      	adds	r3, r2, #1
10002b6a:	4290      	cmp	r0, r2
10002b6c:	d800      	bhi.n	10002b70 <_vsnprintf+0x6e8>
10002b6e:	e20a      	b.n	10002f86 <_vsnprintf+0xafe>
10002b70:	1943      	adds	r3, r0, r5
10002b72:	1a9b      	subs	r3, r3, r2
10002b74:	001f      	movs	r7, r3
10002b76:	9b08      	ldr	r3, [sp, #32]
10002b78:	46b2      	mov	sl, r6
10002b7a:	0026      	movs	r6, r4
10002b7c:	465c      	mov	r4, fp
10002b7e:	469b      	mov	fp, r3
10002b80:	002a      	movs	r2, r5
10002b82:	0023      	movs	r3, r4
10002b84:	3501      	adds	r5, #1
10002b86:	0031      	movs	r1, r6
10002b88:	2020      	movs	r0, #32
10002b8a:	47d8      	blx	fp
10002b8c:	42bd      	cmp	r5, r7
10002b8e:	d1f7      	bne.n	10002b80 <_vsnprintf+0x6f8>
10002b90:	9b0a      	ldr	r3, [sp, #40]	; 0x28
10002b92:	46a3      	mov	fp, r4
10002b94:	3301      	adds	r3, #1
10002b96:	930b      	str	r3, [sp, #44]	; 0x2c
10002b98:	9b09      	ldr	r3, [sp, #36]	; 0x24
10002b9a:	0034      	movs	r4, r6
10002b9c:	781b      	ldrb	r3, [r3, #0]
10002b9e:	4656      	mov	r6, sl
10002ba0:	469c      	mov	ip, r3
10002ba2:	4660      	mov	r0, ip
10002ba4:	2800      	cmp	r0, #0
10002ba6:	d000      	beq.n	10002baa <_vsnprintf+0x722>
10002ba8:	e65a      	b.n	10002860 <_vsnprintf+0x3d8>
10002baa:	e6e7      	b.n	1000297c <_vsnprintf+0x4f4>
10002bac:	2207      	movs	r2, #7
10002bae:	9b09      	ldr	r3, [sp, #36]	; 0x24
10002bb0:	3307      	adds	r3, #7
10002bb2:	4393      	bics	r3, r2
10002bb4:	3201      	adds	r2, #1
10002bb6:	4694      	mov	ip, r2
10002bb8:	449c      	add	ip, r3
10002bba:	4662      	mov	r2, ip
10002bbc:	685f      	ldr	r7, [r3, #4]
10002bbe:	9209      	str	r2, [sp, #36]	; 0x24
10002bc0:	681a      	ldr	r2, [r3, #0]
10002bc2:	17fb      	asrs	r3, r7, #31
10002bc4:	9310      	str	r3, [sp, #64]	; 0x40
10002bc6:	9311      	str	r3, [sp, #68]	; 0x44
10002bc8:	9810      	ldr	r0, [sp, #64]	; 0x40
10002bca:	9911      	ldr	r1, [sp, #68]	; 0x44
10002bcc:	0003      	movs	r3, r0
10002bce:	4053      	eors	r3, r2
10002bd0:	930e      	str	r3, [sp, #56]	; 0x38
10002bd2:	000b      	movs	r3, r1
10002bd4:	407b      	eors	r3, r7
10002bd6:	930f      	str	r3, [sp, #60]	; 0x3c
10002bd8:	4694      	mov	ip, r2
10002bda:	9a0e      	ldr	r2, [sp, #56]	; 0x38
10002bdc:	9b0f      	ldr	r3, [sp, #60]	; 0x3c
10002bde:	1a12      	subs	r2, r2, r0
10002be0:	418b      	sbcs	r3, r1
10002be2:	920e      	str	r2, [sp, #56]	; 0x38
10002be4:	930f      	str	r3, [sp, #60]	; 0x3c
10002be6:	0ffb      	lsrs	r3, r7, #31
10002be8:	4662      	mov	r2, ip
10002bea:	9312      	str	r3, [sp, #72]	; 0x48
10002bec:	2300      	movs	r3, #0
10002bee:	433a      	orrs	r2, r7
10002bf0:	469a      	mov	sl, r3
10002bf2:	d03d      	beq.n	10002c70 <_vsnprintf+0x7e8>
10002bf4:	9a0b      	ldr	r2, [sp, #44]	; 0x2c
10002bf6:	2361      	movs	r3, #97	; 0x61
10002bf8:	0692      	lsls	r2, r2, #26
10002bfa:	d500      	bpl.n	10002bfe <_vsnprintf+0x776>
10002bfc:	2341      	movs	r3, #65	; 0x41
10002bfe:	2200      	movs	r2, #0
10002c00:	b2db      	uxtb	r3, r3
10002c02:	a90e      	add	r1, sp, #56	; 0x38
10002c04:	3b0a      	subs	r3, #10
10002c06:	468c      	mov	ip, r1
10002c08:	4691      	mov	r9, r2
10002c0a:	930d      	str	r3, [sp, #52]	; 0x34
10002c0c:	4643      	mov	r3, r8
10002c0e:	321f      	adds	r2, #31
10002c10:	4462      	add	r2, ip
10002c12:	9513      	str	r5, [sp, #76]	; 0x4c
10002c14:	9615      	str	r6, [sp, #84]	; 0x54
10002c16:	464d      	mov	r5, r9
10002c18:	9e0e      	ldr	r6, [sp, #56]	; 0x38
10002c1a:	9f0f      	ldr	r7, [sp, #60]	; 0x3c
10002c1c:	46a1      	mov	r9, r4
10002c1e:	4690      	mov	r8, r2
10002c20:	9c0c      	ldr	r4, [sp, #48]	; 0x30
10002c22:	9314      	str	r3, [sp, #80]	; 0x50
10002c24:	e00f      	b.n	10002c46 <_vsnprintf+0x7be>
10002c26:	46c0      	nop			; (mov r8, r8)
10002c28:	10001999 	.word	0x10001999
10002c2c:	3230      	adds	r2, #48	; 0x30
10002c2e:	b2d2      	uxtb	r2, r2
10002c30:	4643      	mov	r3, r8
10002c32:	3501      	adds	r5, #1
10002c34:	555a      	strb	r2, [r3, r5]
10002c36:	45ba      	cmp	sl, r7
10002c38:	d100      	bne.n	10002c3c <_vsnprintf+0x7b4>
10002c3a:	e17c      	b.n	10002f36 <_vsnprintf+0xaae>
10002c3c:	2d20      	cmp	r5, #32
10002c3e:	d100      	bne.n	10002c42 <_vsnprintf+0x7ba>
10002c40:	e17c      	b.n	10002f3c <_vsnprintf+0xab4>
10002c42:	0006      	movs	r6, r0
10002c44:	000f      	movs	r7, r1
10002c46:	0022      	movs	r2, r4
10002c48:	2300      	movs	r3, #0
10002c4a:	0030      	movs	r0, r6
10002c4c:	0039      	movs	r1, r7
10002c4e:	f000 fa6f 	bl	10003130 <__wrap___aeabi_uldivmod>
10002c52:	b2d2      	uxtb	r2, r2
10002c54:	2a09      	cmp	r2, #9
10002c56:	d9e9      	bls.n	10002c2c <_vsnprintf+0x7a4>
10002c58:	9b0d      	ldr	r3, [sp, #52]	; 0x34
10002c5a:	469c      	mov	ip, r3
10002c5c:	4462      	add	r2, ip
10002c5e:	b2d2      	uxtb	r2, r2
10002c60:	e7e6      	b.n	10002c30 <_vsnprintf+0x7a8>
10002c62:	23ff      	movs	r3, #255	; 0xff
10002c64:	9909      	ldr	r1, [sp, #36]	; 0x24
10002c66:	c904      	ldmia	r1!, {r2}
10002c68:	4013      	ands	r3, r2
10002c6a:	001a      	movs	r2, r3
10002c6c:	9109      	str	r1, [sp, #36]	; 0x24
10002c6e:	e6e6      	b.n	10002a3e <_vsnprintf+0x5b6>
10002c70:	9a0b      	ldr	r2, [sp, #44]	; 0x2c
10002c72:	3310      	adds	r3, #16
10002c74:	0011      	movs	r1, r2
10002c76:	4399      	bics	r1, r3
10002c78:	910b      	str	r1, [sp, #44]	; 0x2c
10002c7a:	0552      	lsls	r2, r2, #21
10002c7c:	d5ba      	bpl.n	10002bf4 <_vsnprintf+0x76c>
10002c7e:	2300      	movs	r3, #0
10002c80:	4699      	mov	r9, r3
10002c82:	9b0b      	ldr	r3, [sp, #44]	; 0x2c
10002c84:	9306      	str	r3, [sp, #24]
10002c86:	9b0a      	ldr	r3, [sp, #40]	; 0x28
10002c88:	9305      	str	r3, [sp, #20]
10002c8a:	4643      	mov	r3, r8
10002c8c:	9304      	str	r3, [sp, #16]
10002c8e:	9b0c      	ldr	r3, [sp, #48]	; 0x30
10002c90:	9303      	str	r3, [sp, #12]
10002c92:	9b12      	ldr	r3, [sp, #72]	; 0x48
10002c94:	9302      	str	r3, [sp, #8]
10002c96:	464b      	mov	r3, r9
10002c98:	9301      	str	r3, [sp, #4]
10002c9a:	ab16      	add	r3, sp, #88	; 0x58
10002c9c:	002a      	movs	r2, r5
10002c9e:	9300      	str	r3, [sp, #0]
10002ca0:	0021      	movs	r1, r4
10002ca2:	465b      	mov	r3, fp
10002ca4:	9808      	ldr	r0, [sp, #32]
10002ca6:	f7fe fee1 	bl	10001a6c <_ntoa_format>
10002caa:	3601      	adds	r6, #1
10002cac:	0005      	movs	r5, r0
10002cae:	f7ff fc10 	bl	100024d2 <_vsnprintf+0x4a>
10002cb2:	22ff      	movs	r2, #255	; 0xff
10002cb4:	9b09      	ldr	r3, [sp, #36]	; 0x24
10002cb6:	cb02      	ldmia	r3!, {r1}
10002cb8:	4011      	ands	r1, r2
10002cba:	468a      	mov	sl, r1
10002cbc:	9309      	str	r3, [sp, #36]	; 0x24
10002cbe:	e4f2      	b.n	100026a6 <_vsnprintf+0x21e>
10002cc0:	464b      	mov	r3, r9
10002cc2:	4645      	mov	r5, r8
10002cc4:	9309      	str	r3, [sp, #36]	; 0x24
10002cc6:	3601      	adds	r6, #1
10002cc8:	f7ff fc03 	bl	100024d2 <_vsnprintf+0x4a>
10002ccc:	464e      	mov	r6, r9
10002cce:	4654      	mov	r4, sl
10002cd0:	46a9      	mov	r9, r5
10002cd2:	9d13      	ldr	r5, [sp, #76]	; 0x4c
10002cd4:	e7d5      	b.n	10002c82 <_vsnprintf+0x7fa>
10002cd6:	2308      	movs	r3, #8
10002cd8:	930c      	str	r3, [sp, #48]	; 0x30
10002cda:	e687      	b.n	100029ec <_vsnprintf+0x564>
10002cdc:	2207      	movs	r2, #7
10002cde:	9b09      	ldr	r3, [sp, #36]	; 0x24
10002ce0:	3307      	adds	r3, #7
10002ce2:	4393      	bics	r3, r2
10002ce4:	3201      	adds	r2, #1
10002ce6:	4694      	mov	ip, r2
10002ce8:	449c      	add	ip, r3
10002cea:	4662      	mov	r2, ip
10002cec:	9209      	str	r2, [sp, #36]	; 0x24
10002cee:	681a      	ldr	r2, [r3, #0]
10002cf0:	685b      	ldr	r3, [r3, #4]
10002cf2:	0010      	movs	r0, r2
10002cf4:	469a      	mov	sl, r3
10002cf6:	0013      	movs	r3, r2
10002cf8:	4652      	mov	r2, sl
10002cfa:	4313      	orrs	r3, r2
10002cfc:	d107      	bne.n	10002d0e <_vsnprintf+0x886>
10002cfe:	9a0b      	ldr	r2, [sp, #44]	; 0x2c
10002d00:	3310      	adds	r3, #16
10002d02:	0011      	movs	r1, r2
10002d04:	4399      	bics	r1, r3
10002d06:	910b      	str	r1, [sp, #44]	; 0x2c
10002d08:	0552      	lsls	r2, r2, #21
10002d0a:	d500      	bpl.n	10002d0e <_vsnprintf+0x886>
10002d0c:	e4d7      	b.n	100026be <_vsnprintf+0x236>
10002d0e:	9a0b      	ldr	r2, [sp, #44]	; 0x2c
10002d10:	2361      	movs	r3, #97	; 0x61
10002d12:	0692      	lsls	r2, r2, #26
10002d14:	d500      	bpl.n	10002d18 <_vsnprintf+0x890>
10002d16:	2341      	movs	r3, #65	; 0x41
10002d18:	2200      	movs	r2, #0
10002d1a:	b2db      	uxtb	r3, r3
10002d1c:	a90e      	add	r1, sp, #56	; 0x38
10002d1e:	3b0a      	subs	r3, #10
10002d20:	468c      	mov	ip, r1
10002d22:	4691      	mov	r9, r2
10002d24:	930d      	str	r3, [sp, #52]	; 0x34
10002d26:	4643      	mov	r3, r8
10002d28:	321f      	adds	r2, #31
10002d2a:	4462      	add	r2, ip
10002d2c:	4657      	mov	r7, sl
10002d2e:	9512      	str	r5, [sp, #72]	; 0x48
10002d30:	46a2      	mov	sl, r4
10002d32:	464d      	mov	r5, r9
10002d34:	0004      	movs	r4, r0
10002d36:	46b1      	mov	r9, r6
10002d38:	4690      	mov	r8, r2
10002d3a:	9e0c      	ldr	r6, [sp, #48]	; 0x30
10002d3c:	9313      	str	r3, [sp, #76]	; 0x4c
10002d3e:	e00d      	b.n	10002d5c <_vsnprintf+0x8d4>
10002d40:	3230      	adds	r2, #48	; 0x30
10002d42:	b2d2      	uxtb	r2, r2
10002d44:	4643      	mov	r3, r8
10002d46:	3501      	adds	r5, #1
10002d48:	555a      	strb	r2, [r3, r5]
10002d4a:	2300      	movs	r3, #0
10002d4c:	42bb      	cmp	r3, r7
10002d4e:	d100      	bne.n	10002d52 <_vsnprintf+0x8ca>
10002d50:	e0fd      	b.n	10002f4e <_vsnprintf+0xac6>
10002d52:	2d20      	cmp	r5, #32
10002d54:	d100      	bne.n	10002d58 <_vsnprintf+0x8d0>
10002d56:	e0fd      	b.n	10002f54 <_vsnprintf+0xacc>
10002d58:	0004      	movs	r4, r0
10002d5a:	000f      	movs	r7, r1
10002d5c:	0032      	movs	r2, r6
10002d5e:	2300      	movs	r3, #0
10002d60:	0020      	movs	r0, r4
10002d62:	0039      	movs	r1, r7
10002d64:	f000 f9e4 	bl	10003130 <__wrap___aeabi_uldivmod>
10002d68:	b2d2      	uxtb	r2, r2
10002d6a:	2a09      	cmp	r2, #9
10002d6c:	d9e8      	bls.n	10002d40 <_vsnprintf+0x8b8>
10002d6e:	9b0d      	ldr	r3, [sp, #52]	; 0x34
10002d70:	469c      	mov	ip, r3
10002d72:	4462      	add	r2, ip
10002d74:	b2d2      	uxtb	r2, r2
10002d76:	e7e5      	b.n	10002d44 <_vsnprintf+0x8bc>
10002d78:	9a0b      	ldr	r2, [sp, #44]	; 0x2c
10002d7a:	2361      	movs	r3, #97	; 0x61
10002d7c:	0692      	lsls	r2, r2, #26
10002d7e:	d500      	bpl.n	10002d82 <_vsnprintf+0x8fa>
10002d80:	2341      	movs	r3, #65	; 0x41
10002d82:	b2db      	uxtb	r3, r3
10002d84:	a90e      	add	r1, sp, #56	; 0x38
10002d86:	3b0a      	subs	r3, #10
10002d88:	221f      	movs	r2, #31
10002d8a:	468c      	mov	ip, r1
10002d8c:	930d      	str	r3, [sp, #52]	; 0x34
10002d8e:	0023      	movs	r3, r4
10002d90:	4462      	add	r2, ip
10002d92:	4654      	mov	r4, sl
10002d94:	9512      	str	r5, [sp, #72]	; 0x48
10002d96:	0017      	movs	r7, r2
10002d98:	464d      	mov	r5, r9
10002d9a:	469a      	mov	sl, r3
10002d9c:	46b1      	mov	r9, r6
10002d9e:	9e0c      	ldr	r6, [sp, #48]	; 0x30
10002da0:	e008      	b.n	10002db4 <_vsnprintf+0x92c>
10002da2:	3330      	adds	r3, #48	; 0x30
10002da4:	b2db      	uxtb	r3, r3
10002da6:	3501      	adds	r5, #1
10002da8:	557b      	strb	r3, [r7, r5]
10002daa:	42b4      	cmp	r4, r6
10002dac:	d30e      	bcc.n	10002dcc <_vsnprintf+0x944>
10002dae:	2d20      	cmp	r5, #32
10002db0:	d00c      	beq.n	10002dcc <_vsnprintf+0x944>
10002db2:	0004      	movs	r4, r0
10002db4:	0031      	movs	r1, r6
10002db6:	0020      	movs	r0, r4
10002db8:	f000 f974 	bl	100030a4 <__wrap___aeabi_uidiv>
10002dbc:	b2cb      	uxtb	r3, r1
10002dbe:	2909      	cmp	r1, #9
10002dc0:	d9ef      	bls.n	10002da2 <_vsnprintf+0x91a>
10002dc2:	9a0d      	ldr	r2, [sp, #52]	; 0x34
10002dc4:	4694      	mov	ip, r2
10002dc6:	4463      	add	r3, ip
10002dc8:	b2db      	uxtb	r3, r3
10002dca:	e7ec      	b.n	10002da6 <_vsnprintf+0x91e>
10002dcc:	464e      	mov	r6, r9
10002dce:	4654      	mov	r4, sl
10002dd0:	46a9      	mov	r9, r5
10002dd2:	9d12      	ldr	r5, [sp, #72]	; 0x48
10002dd4:	e475      	b.n	100026c2 <_vsnprintf+0x23a>
10002dd6:	9b09      	ldr	r3, [sp, #36]	; 0x24
10002dd8:	001a      	movs	r2, r3
10002dda:	ca08      	ldmia	r2!, {r3}
10002ddc:	17d9      	asrs	r1, r3, #31
10002dde:	9213      	str	r2, [sp, #76]	; 0x4c
10002de0:	185a      	adds	r2, r3, r1
10002de2:	404a      	eors	r2, r1
10002de4:	4691      	mov	r9, r2
10002de6:	0fda      	lsrs	r2, r3, #31
10002de8:	9212      	str	r2, [sp, #72]	; 0x48
10002dea:	2b00      	cmp	r3, #0
10002dec:	d108      	bne.n	10002e00 <_vsnprintf+0x978>
10002dee:	2380      	movs	r3, #128	; 0x80
10002df0:	2210      	movs	r2, #16
10002df2:	990b      	ldr	r1, [sp, #44]	; 0x2c
10002df4:	00db      	lsls	r3, r3, #3
10002df6:	400b      	ands	r3, r1
10002df8:	4391      	bics	r1, r2
10002dfa:	910b      	str	r1, [sp, #44]	; 0x2c
10002dfc:	2b00      	cmp	r3, #0
10002dfe:	d12b      	bne.n	10002e58 <_vsnprintf+0x9d0>
10002e00:	9a0b      	ldr	r2, [sp, #44]	; 0x2c
10002e02:	2361      	movs	r3, #97	; 0x61
10002e04:	0692      	lsls	r2, r2, #26
10002e06:	d500      	bpl.n	10002e0a <_vsnprintf+0x982>
10002e08:	2341      	movs	r3, #65	; 0x41
10002e0a:	aa0e      	add	r2, sp, #56	; 0x38
10002e0c:	271f      	movs	r7, #31
10002e0e:	4694      	mov	ip, r2
10002e10:	b2db      	uxtb	r3, r3
10002e12:	3b0a      	subs	r3, #10
10002e14:	950d      	str	r5, [sp, #52]	; 0x34
10002e16:	4467      	add	r7, ip
10002e18:	4655      	mov	r5, sl
10002e1a:	9309      	str	r3, [sp, #36]	; 0x24
10002e1c:	46a2      	mov	sl, r4
10002e1e:	464c      	mov	r4, r9
10002e20:	46b1      	mov	r9, r6
10002e22:	9e0c      	ldr	r6, [sp, #48]	; 0x30
10002e24:	e008      	b.n	10002e38 <_vsnprintf+0x9b0>
10002e26:	3330      	adds	r3, #48	; 0x30
10002e28:	b2db      	uxtb	r3, r3
10002e2a:	3501      	adds	r5, #1
10002e2c:	557b      	strb	r3, [r7, r5]
10002e2e:	42b4      	cmp	r4, r6
10002e30:	d30e      	bcc.n	10002e50 <_vsnprintf+0x9c8>
10002e32:	2d20      	cmp	r5, #32
10002e34:	d00c      	beq.n	10002e50 <_vsnprintf+0x9c8>
10002e36:	0004      	movs	r4, r0
10002e38:	0031      	movs	r1, r6
10002e3a:	0020      	movs	r0, r4
10002e3c:	f000 f932 	bl	100030a4 <__wrap___aeabi_uidiv>
10002e40:	b2cb      	uxtb	r3, r1
10002e42:	2909      	cmp	r1, #9
10002e44:	d9ef      	bls.n	10002e26 <_vsnprintf+0x99e>
10002e46:	9a09      	ldr	r2, [sp, #36]	; 0x24
10002e48:	4694      	mov	ip, r2
10002e4a:	4463      	add	r3, ip
10002e4c:	b2db      	uxtb	r3, r3
10002e4e:	e7ec      	b.n	10002e2a <_vsnprintf+0x9a2>
10002e50:	464e      	mov	r6, r9
10002e52:	4654      	mov	r4, sl
10002e54:	46aa      	mov	sl, r5
10002e56:	9d0d      	ldr	r5, [sp, #52]	; 0x34
10002e58:	9b0b      	ldr	r3, [sp, #44]	; 0x2c
10002e5a:	002a      	movs	r2, r5
10002e5c:	9306      	str	r3, [sp, #24]
10002e5e:	9b0a      	ldr	r3, [sp, #40]	; 0x28
10002e60:	0021      	movs	r1, r4
10002e62:	9305      	str	r3, [sp, #20]
10002e64:	4643      	mov	r3, r8
10002e66:	9304      	str	r3, [sp, #16]
10002e68:	9b0c      	ldr	r3, [sp, #48]	; 0x30
10002e6a:	9808      	ldr	r0, [sp, #32]
10002e6c:	9303      	str	r3, [sp, #12]
10002e6e:	9b12      	ldr	r3, [sp, #72]	; 0x48
10002e70:	3601      	adds	r6, #1
10002e72:	9302      	str	r3, [sp, #8]
10002e74:	4653      	mov	r3, sl
10002e76:	9301      	str	r3, [sp, #4]
10002e78:	ab16      	add	r3, sp, #88	; 0x58
10002e7a:	9300      	str	r3, [sp, #0]
10002e7c:	465b      	mov	r3, fp
10002e7e:	f7fe fdf5 	bl	10001a6c <_ntoa_format>
10002e82:	9b13      	ldr	r3, [sp, #76]	; 0x4c
10002e84:	0005      	movs	r5, r0
10002e86:	9309      	str	r3, [sp, #36]	; 0x24
10002e88:	f7ff fb23 	bl	100024d2 <_vsnprintf+0x4a>
10002e8c:	9b09      	ldr	r3, [sp, #36]	; 0x24
10002e8e:	cb04      	ldmia	r3!, {r2}
10002e90:	4691      	mov	r9, r2
10002e92:	9312      	str	r3, [sp, #72]	; 0x48
10002e94:	2a00      	cmp	r2, #0
10002e96:	d108      	bne.n	10002eaa <_vsnprintf+0xa22>
10002e98:	2380      	movs	r3, #128	; 0x80
10002e9a:	2210      	movs	r2, #16
10002e9c:	990b      	ldr	r1, [sp, #44]	; 0x2c
10002e9e:	00db      	lsls	r3, r3, #3
10002ea0:	400b      	ands	r3, r1
10002ea2:	4391      	bics	r1, r2
10002ea4:	910b      	str	r1, [sp, #44]	; 0x2c
10002ea6:	2b00      	cmp	r3, #0
10002ea8:	d12b      	bne.n	10002f02 <_vsnprintf+0xa7a>
10002eaa:	9a0b      	ldr	r2, [sp, #44]	; 0x2c
10002eac:	2361      	movs	r3, #97	; 0x61
10002eae:	0692      	lsls	r2, r2, #26
10002eb0:	d500      	bpl.n	10002eb4 <_vsnprintf+0xa2c>
10002eb2:	2341      	movs	r3, #65	; 0x41
10002eb4:	aa0e      	add	r2, sp, #56	; 0x38
10002eb6:	271f      	movs	r7, #31
10002eb8:	4694      	mov	ip, r2
10002eba:	b2db      	uxtb	r3, r3
10002ebc:	3b0a      	subs	r3, #10
10002ebe:	950d      	str	r5, [sp, #52]	; 0x34
10002ec0:	4467      	add	r7, ip
10002ec2:	4655      	mov	r5, sl
10002ec4:	9309      	str	r3, [sp, #36]	; 0x24
10002ec6:	46a2      	mov	sl, r4
10002ec8:	464c      	mov	r4, r9
10002eca:	46b1      	mov	r9, r6
10002ecc:	9e0c      	ldr	r6, [sp, #48]	; 0x30
10002ece:	e008      	b.n	10002ee2 <_vsnprintf+0xa5a>
10002ed0:	3330      	adds	r3, #48	; 0x30
10002ed2:	b2db      	uxtb	r3, r3
10002ed4:	3501      	adds	r5, #1
10002ed6:	557b      	strb	r3, [r7, r5]
10002ed8:	42b4      	cmp	r4, r6
10002eda:	d30e      	bcc.n	10002efa <_vsnprintf+0xa72>
10002edc:	2d20      	cmp	r5, #32
10002ede:	d00c      	beq.n	10002efa <_vsnprintf+0xa72>
10002ee0:	0004      	movs	r4, r0
10002ee2:	0031      	movs	r1, r6
10002ee4:	0020      	movs	r0, r4
10002ee6:	f000 f8dd 	bl	100030a4 <__wrap___aeabi_uidiv>
10002eea:	b2cb      	uxtb	r3, r1
10002eec:	2909      	cmp	r1, #9
10002eee:	d9ef      	bls.n	10002ed0 <_vsnprintf+0xa48>
10002ef0:	9a09      	ldr	r2, [sp, #36]	; 0x24
10002ef2:	4694      	mov	ip, r2
10002ef4:	4463      	add	r3, ip
10002ef6:	b2db      	uxtb	r3, r3
10002ef8:	e7ec      	b.n	10002ed4 <_vsnprintf+0xa4c>
10002efa:	464e      	mov	r6, r9
10002efc:	4654      	mov	r4, sl
10002efe:	46aa      	mov	sl, r5
10002f00:	9d0d      	ldr	r5, [sp, #52]	; 0x34
10002f02:	9b0b      	ldr	r3, [sp, #44]	; 0x2c
10002f04:	002a      	movs	r2, r5
10002f06:	9306      	str	r3, [sp, #24]
10002f08:	9b0a      	ldr	r3, [sp, #40]	; 0x28
10002f0a:	0021      	movs	r1, r4
10002f0c:	9305      	str	r3, [sp, #20]
10002f0e:	4643      	mov	r3, r8
10002f10:	9304      	str	r3, [sp, #16]
10002f12:	9b0c      	ldr	r3, [sp, #48]	; 0x30
10002f14:	9808      	ldr	r0, [sp, #32]
10002f16:	9303      	str	r3, [sp, #12]
10002f18:	2300      	movs	r3, #0
10002f1a:	9302      	str	r3, [sp, #8]
10002f1c:	4653      	mov	r3, sl
10002f1e:	9301      	str	r3, [sp, #4]
10002f20:	ab16      	add	r3, sp, #88	; 0x58
10002f22:	9300      	str	r3, [sp, #0]
10002f24:	465b      	mov	r3, fp
10002f26:	f7fe fda1 	bl	10001a6c <_ntoa_format>
10002f2a:	9b12      	ldr	r3, [sp, #72]	; 0x48
10002f2c:	0005      	movs	r5, r0
10002f2e:	9309      	str	r3, [sp, #36]	; 0x24
10002f30:	3601      	adds	r6, #1
10002f32:	f7ff face 	bl	100024d2 <_vsnprintf+0x4a>
10002f36:	42b4      	cmp	r4, r6
10002f38:	d800      	bhi.n	10002f3c <_vsnprintf+0xab4>
10002f3a:	e67f      	b.n	10002c3c <_vsnprintf+0x7b4>
10002f3c:	9b14      	ldr	r3, [sp, #80]	; 0x50
10002f3e:	464c      	mov	r4, r9
10002f40:	960e      	str	r6, [sp, #56]	; 0x38
10002f42:	970f      	str	r7, [sp, #60]	; 0x3c
10002f44:	46a9      	mov	r9, r5
10002f46:	4698      	mov	r8, r3
10002f48:	9e15      	ldr	r6, [sp, #84]	; 0x54
10002f4a:	9d13      	ldr	r5, [sp, #76]	; 0x4c
10002f4c:	e699      	b.n	10002c82 <_vsnprintf+0x7fa>
10002f4e:	42a6      	cmp	r6, r4
10002f50:	d800      	bhi.n	10002f54 <_vsnprintf+0xacc>
10002f52:	e6fe      	b.n	10002d52 <_vsnprintf+0x8ca>
10002f54:	9b13      	ldr	r3, [sp, #76]	; 0x4c
10002f56:	464e      	mov	r6, r9
10002f58:	4698      	mov	r8, r3
10002f5a:	46a9      	mov	r9, r5
10002f5c:	4654      	mov	r4, sl
10002f5e:	9d12      	ldr	r5, [sp, #72]	; 0x48
10002f60:	f7ff fbaf 	bl	100026c2 <_vsnprintf+0x23a>
10002f64:	c908      	ldmia	r1!, {r3}
10002f66:	17d8      	asrs	r0, r3, #31
10002f68:	181a      	adds	r2, r3, r0
10002f6a:	4042      	eors	r2, r0
10002f6c:	9109      	str	r1, [sp, #36]	; 0x24
10002f6e:	e566      	b.n	10002a3e <_vsnprintf+0x5b6>
10002f70:	2300      	movs	r3, #0
10002f72:	930b      	str	r3, [sp, #44]	; 0x2c
10002f74:	e45e      	b.n	10002834 <_vsnprintf+0x3ac>
10002f76:	9b09      	ldr	r3, [sp, #36]	; 0x24
10002f78:	cb04      	ldmia	r3!, {r2}
10002f7a:	4692      	mov	sl, r2
10002f7c:	9309      	str	r3, [sp, #36]	; 0x24
10002f7e:	f7ff fb92 	bl	100026a6 <_vsnprintf+0x21e>
10002f82:	002f      	movs	r7, r5
10002f84:	e5e0      	b.n	10002b48 <_vsnprintf+0x6c0>
10002f86:	930b      	str	r3, [sp, #44]	; 0x2c
10002f88:	e60b      	b.n	10002ba2 <_vsnprintf+0x71a>
10002f8a:	3b06      	subs	r3, #6
10002f8c:	930c      	str	r3, [sp, #48]	; 0x30
10002f8e:	e52e      	b.n	100029ee <_vsnprintf+0x566>

10002f90 <vfctprintf>:
10002f90:	b500      	push	{lr}
10002f92:	b085      	sub	sp, #20
10002f94:	9103      	str	r1, [sp, #12]
10002f96:	2101      	movs	r1, #1
10002f98:	9002      	str	r0, [sp, #8]
10002f9a:	9300      	str	r3, [sp, #0]
10002f9c:	4803      	ldr	r0, [pc, #12]	; (10002fac <vfctprintf+0x1c>)
10002f9e:	0013      	movs	r3, r2
10002fa0:	424a      	negs	r2, r1
10002fa2:	a902      	add	r1, sp, #8
10002fa4:	f7ff fa70 	bl	10002488 <_vsnprintf>
10002fa8:	b005      	add	sp, #20
10002faa:	bd00      	pop	{pc}
10002fac:	10001c4d 	.word	0x10001c4d

10002fb0 <weak_raw_vprintf>:
10002fb0:	b510      	push	{r4, lr}
10002fb2:	4a09      	ldr	r2, [pc, #36]	; (10002fd8 <weak_raw_vprintf+0x28>)
10002fb4:	0003      	movs	r3, r0
10002fb6:	6814      	ldr	r4, [r2, #0]
10002fb8:	b084      	sub	sp, #16
10002fba:	2c00      	cmp	r4, #0
10002fbc:	d008      	beq.n	10002fd0 <weak_raw_vprintf+0x20>
10002fbe:	2201      	movs	r2, #1
10002fc0:	9100      	str	r1, [sp, #0]
10002fc2:	4806      	ldr	r0, [pc, #24]	; (10002fdc <weak_raw_vprintf+0x2c>)
10002fc4:	4252      	negs	r2, r2
10002fc6:	a903      	add	r1, sp, #12
10002fc8:	47a0      	blx	r4
10002fca:	2001      	movs	r0, #1
10002fcc:	b004      	add	sp, #16
10002fce:	bd10      	pop	{r4, pc}
10002fd0:	f001 f832 	bl	10004038 <__wrap_puts>
10002fd4:	2000      	movs	r0, #0
10002fd6:	e7f9      	b.n	10002fcc <weak_raw_vprintf+0x1c>
10002fd8:	20000b04 	.word	0x20000b04
10002fdc:	10001c3d 	.word	0x10001c3d

10002fe0 <__aeabi_bits_init>:
10002fe0:	4801      	ldr	r0, [pc, #4]	; (10002fe8 <__aeabi_bits_init+0x8>)
10002fe2:	2104      	movs	r1, #4
10002fe4:	4b01      	ldr	r3, [pc, #4]	; (10002fec <__aeabi_bits_init+0xc>)
10002fe6:	4718      	bx	r3
10002fe8:	200001e0 	.word	0x200001e0
10002fec:	10003011 	.word	0x10003011

10002ff0 <rom_func_lookup>:
10002ff0:	2314      	movs	r3, #20
10002ff2:	b510      	push	{r4, lr}
10002ff4:	0001      	movs	r1, r0
10002ff6:	8818      	ldrh	r0, [r3, #0]
10002ff8:	3304      	adds	r3, #4
10002ffa:	881b      	ldrh	r3, [r3, #0]
10002ffc:	4798      	blx	r3
10002ffe:	bd10      	pop	{r4, pc}

10003000 <rom_data_lookup>:
10003000:	2316      	movs	r3, #22
10003002:	b510      	push	{r4, lr}
10003004:	0001      	movs	r1, r0
10003006:	8818      	ldrh	r0, [r3, #0]
10003008:	3302      	adds	r3, #2
1000300a:	881b      	ldrh	r3, [r3, #0]
1000300c:	4798      	blx	r3
1000300e:	bd10      	pop	{r4, pc}

10003010 <rom_funcs_lookup>:
10003010:	b5f0      	push	{r4, r5, r6, r7, lr}
10003012:	46c6      	mov	lr, r8
10003014:	b500      	push	{lr}
10003016:	2900      	cmp	r1, #0
10003018:	d016      	beq.n	10003048 <rom_funcs_lookup+0x38>
1000301a:	2314      	movs	r3, #20
1000301c:	0004      	movs	r4, r0
1000301e:	2501      	movs	r5, #1
10003020:	4698      	mov	r8, r3
10003022:	2718      	movs	r7, #24
10003024:	0089      	lsls	r1, r1, #2
10003026:	1846      	adds	r6, r0, r1
10003028:	4643      	mov	r3, r8
1000302a:	6821      	ldr	r1, [r4, #0]
1000302c:	8818      	ldrh	r0, [r3, #0]
1000302e:	883b      	ldrh	r3, [r7, #0]
10003030:	4798      	blx	r3
10003032:	c401      	stmia	r4!, {r0}
10003034:	1e43      	subs	r3, r0, #1
10003036:	4198      	sbcs	r0, r3
10003038:	4240      	negs	r0, r0
1000303a:	4005      	ands	r5, r0
1000303c:	42a6      	cmp	r6, r4
1000303e:	d1f3      	bne.n	10003028 <rom_funcs_lookup+0x18>
10003040:	0028      	movs	r0, r5
10003042:	bc04      	pop	{r2}
10003044:	4690      	mov	r8, r2
10003046:	bdf0      	pop	{r4, r5, r6, r7, pc}
10003048:	2501      	movs	r5, #1
1000304a:	e7f9      	b.n	10003040 <rom_funcs_lookup+0x30>

1000304c <__wrap___aeabi_idiv>:
1000304c:	4a14      	ldr	r2, [pc, #80]	; (100030a0 <divmod_s32s32_savestate+0x20>)
1000304e:	6f93      	ldr	r3, [r2, #120]	; 0x78
10003050:	089b      	lsrs	r3, r3, #2
10003052:	d215      	bcs.n	10003080 <divmod_s32s32_savestate>

10003054 <divmod_s32s32_unsafe>:
10003054:	6690      	str	r0, [r2, #104]	; 0x68
10003056:	66d1      	str	r1, [r2, #108]	; 0x6c
10003058:	2900      	cmp	r1, #0
1000305a:	d005      	beq.n	10003068 <divmod_s32s32_unsafe+0x14>
1000305c:	e7ff      	b.n	1000305e <divmod_s32s32_unsafe+0xa>
1000305e:	e7ff      	b.n	10003060 <divmod_s32s32_unsafe+0xc>
10003060:	e7ff      	b.n	10003062 <divmod_s32s32_unsafe+0xe>
10003062:	6f51      	ldr	r1, [r2, #116]	; 0x74
10003064:	6f10      	ldr	r0, [r2, #112]	; 0x70
10003066:	4770      	bx	lr
10003068:	b504      	push	{r2, lr}
1000306a:	2180      	movs	r1, #128	; 0x80
1000306c:	0609      	lsls	r1, r1, #24
1000306e:	17c2      	asrs	r2, r0, #31
10003070:	4051      	eors	r1, r2
10003072:	2800      	cmp	r0, #0
10003074:	d000      	beq.n	10003078 <divmod_s32s32_unsafe+0x24>
10003076:	43c8      	mvns	r0, r1
10003078:	f001 fd92 	bl	10004ba0 <____aeabi_idiv0_veneer>
1000307c:	2100      	movs	r1, #0
1000307e:	bd04      	pop	{r2, pc}

10003080 <divmod_s32s32_savestate>:
10003080:	6f93      	ldr	r3, [r2, #120]	; 0x78
10003082:	085b      	lsrs	r3, r3, #1
10003084:	d3fd      	bcc.n	10003082 <divmod_s32s32_savestate+0x2>
10003086:	b5f0      	push	{r4, r5, r6, r7, lr}
10003088:	6e94      	ldr	r4, [r2, #104]	; 0x68
1000308a:	6ed5      	ldr	r5, [r2, #108]	; 0x6c
1000308c:	6f57      	ldr	r7, [r2, #116]	; 0x74
1000308e:	6f16      	ldr	r6, [r2, #112]	; 0x70
10003090:	f7ff ffe0 	bl	10003054 <divmod_s32s32_unsafe>
10003094:	6694      	str	r4, [r2, #104]	; 0x68
10003096:	66d5      	str	r5, [r2, #108]	; 0x6c
10003098:	6757      	str	r7, [r2, #116]	; 0x74
1000309a:	6716      	str	r6, [r2, #112]	; 0x70
1000309c:	bdf0      	pop	{r4, r5, r6, r7, pc}
1000309e:	0000      	.short	0x0000
100030a0:	d0000000 	.word	0xd0000000

100030a4 <__wrap___aeabi_uidiv>:
100030a4:	4a13      	ldr	r2, [pc, #76]	; (100030f4 <divmod_u32u32_savestate+0x20>)
100030a6:	6f93      	ldr	r3, [r2, #120]	; 0x78
100030a8:	089b      	lsrs	r3, r3, #2
100030aa:	d213      	bcs.n	100030d4 <divmod_u32u32_savestate>

100030ac <divmod_u32u32_unsafe>:
100030ac:	6610      	str	r0, [r2, #96]	; 0x60
100030ae:	6651      	str	r1, [r2, #100]	; 0x64
100030b0:	2900      	cmp	r1, #0
100030b2:	d005      	beq.n	100030c0 <divmod_u32u32_unsafe+0x14>
100030b4:	e7ff      	b.n	100030b6 <divmod_u32u32_unsafe+0xa>
100030b6:	e7ff      	b.n	100030b8 <divmod_u32u32_unsafe+0xc>
100030b8:	e7ff      	b.n	100030ba <divmod_u32u32_unsafe+0xe>
100030ba:	6f51      	ldr	r1, [r2, #116]	; 0x74
100030bc:	6f10      	ldr	r0, [r2, #112]	; 0x70
100030be:	4770      	bx	lr
100030c0:	b504      	push	{r2, lr}
100030c2:	2800      	cmp	r0, #0
100030c4:	d001      	beq.n	100030ca <divmod_u32u32_unsafe+0x1e>
100030c6:	2000      	movs	r0, #0
100030c8:	43c0      	mvns	r0, r0
100030ca:	f001 fd69 	bl	10004ba0 <____aeabi_idiv0_veneer>
100030ce:	2100      	movs	r1, #0
100030d0:	bd04      	pop	{r2, pc}
100030d2:	46c0      	nop			; (mov r8, r8)

100030d4 <divmod_u32u32_savestate>:
100030d4:	6f93      	ldr	r3, [r2, #120]	; 0x78
100030d6:	085b      	lsrs	r3, r3, #1
100030d8:	d3fd      	bcc.n	100030d6 <divmod_u32u32_savestate+0x2>
100030da:	b5f0      	push	{r4, r5, r6, r7, lr}
100030dc:	6e94      	ldr	r4, [r2, #104]	; 0x68
100030de:	6ed5      	ldr	r5, [r2, #108]	; 0x6c
100030e0:	6f57      	ldr	r7, [r2, #116]	; 0x74
100030e2:	6f16      	ldr	r6, [r2, #112]	; 0x70
100030e4:	f7ff ffe2 	bl	100030ac <divmod_u32u32_unsafe>
100030e8:	6694      	str	r4, [r2, #104]	; 0x68
100030ea:	66d5      	str	r5, [r2, #108]	; 0x6c
100030ec:	6757      	str	r7, [r2, #116]	; 0x74
100030ee:	6716      	str	r6, [r2, #112]	; 0x70
100030f0:	bdf0      	pop	{r4, r5, r6, r7, pc}
100030f2:	0000      	.short	0x0000
100030f4:	d0000000 	.word	0xd0000000

100030f8 <__wrap___aeabi_ldivmod>:
100030f8:	4694      	mov	ip, r2
100030fa:	4a4e      	ldr	r2, [pc, #312]	; (10003234 <udiv0+0x1a>)
100030fc:	6f92      	ldr	r2, [r2, #120]	; 0x78
100030fe:	0892      	lsrs	r2, r2, #2
10003100:	4662      	mov	r2, ip
10003102:	d201      	bcs.n	10003108 <divmod_s64s64_savestate>
10003104:	e030      	b.n	10003168 <divmod_s64s64_unsafe>
10003106:	46c0      	nop			; (mov r8, r8)

10003108 <divmod_s64s64_savestate>:
10003108:	b5f0      	push	{r4, r5, r6, r7, lr}
1000310a:	4e4a      	ldr	r6, [pc, #296]	; (10003234 <udiv0+0x1a>)
1000310c:	6fb5      	ldr	r5, [r6, #120]	; 0x78
1000310e:	086d      	lsrs	r5, r5, #1
10003110:	d3fc      	bcc.n	1000310c <divmod_s64s64_savestate+0x4>
10003112:	6e34      	ldr	r4, [r6, #96]	; 0x60
10003114:	6e75      	ldr	r5, [r6, #100]	; 0x64
10003116:	6f77      	ldr	r7, [r6, #116]	; 0x74
10003118:	6f36      	ldr	r6, [r6, #112]	; 0x70
1000311a:	f000 f825 	bl	10003168 <divmod_s64s64_unsafe>
1000311e:	4694      	mov	ip, r2
10003120:	4a44      	ldr	r2, [pc, #272]	; (10003234 <udiv0+0x1a>)
10003122:	6614      	str	r4, [r2, #96]	; 0x60
10003124:	6655      	str	r5, [r2, #100]	; 0x64
10003126:	6757      	str	r7, [r2, #116]	; 0x74
10003128:	6716      	str	r6, [r2, #112]	; 0x70
1000312a:	4662      	mov	r2, ip
1000312c:	bdf0      	pop	{r4, r5, r6, r7, pc}
1000312e:	46c0      	nop			; (mov r8, r8)

10003130 <__wrap___aeabi_uldivmod>:
10003130:	4694      	mov	ip, r2
10003132:	4a40      	ldr	r2, [pc, #256]	; (10003234 <udiv0+0x1a>)
10003134:	6f92      	ldr	r2, [r2, #120]	; 0x78
10003136:	0892      	lsrs	r2, r2, #2
10003138:	4662      	mov	r2, ip
1000313a:	d201      	bcs.n	10003140 <divmod_u64u64_savestate>
1000313c:	e058      	b.n	100031f0 <divmod_u64u64_unsafe>
1000313e:	46c0      	nop			; (mov r8, r8)

10003140 <divmod_u64u64_savestate>:
10003140:	b5f0      	push	{r4, r5, r6, r7, lr}
10003142:	4e3c      	ldr	r6, [pc, #240]	; (10003234 <udiv0+0x1a>)
10003144:	6fb5      	ldr	r5, [r6, #120]	; 0x78
10003146:	086d      	lsrs	r5, r5, #1
10003148:	d3fc      	bcc.n	10003144 <divmod_u64u64_savestate+0x4>
1000314a:	6e34      	ldr	r4, [r6, #96]	; 0x60
1000314c:	6e75      	ldr	r5, [r6, #100]	; 0x64
1000314e:	6f77      	ldr	r7, [r6, #116]	; 0x74
10003150:	6f36      	ldr	r6, [r6, #112]	; 0x70
10003152:	f000 f84d 	bl	100031f0 <divmod_u64u64_unsafe>
10003156:	4694      	mov	ip, r2
10003158:	4a36      	ldr	r2, [pc, #216]	; (10003234 <udiv0+0x1a>)
1000315a:	6614      	str	r4, [r2, #96]	; 0x60
1000315c:	6655      	str	r5, [r2, #100]	; 0x64
1000315e:	6757      	str	r7, [r2, #116]	; 0x74
10003160:	6716      	str	r6, [r2, #112]	; 0x70
10003162:	4662      	mov	r2, ip
10003164:	bdf0      	pop	{r4, r5, r6, r7, pc}
10003166:	46c0      	nop			; (mov r8, r8)

10003168 <divmod_s64s64_unsafe>:
10003168:	2b00      	cmp	r3, #0
1000316a:	db24      	blt.n	100031b6 <l41_1+0x26>
1000316c:	d011      	beq.n	10003192 <l41_1+0x2>
1000316e:	2900      	cmp	r1, #0
10003170:	da3e      	bge.n	100031f0 <divmod_u64u64_unsafe>
10003172:	b500      	push	{lr}
10003174:	43c9      	mvns	r1, r1
10003176:	4240      	negs	r0, r0
10003178:	d100      	bne.n	1000317c <l39_1>
1000317a:	3101      	adds	r1, #1

1000317c <l39_1>:
1000317c:	f000 f838 	bl	100031f0 <divmod_u64u64_unsafe>
10003180:	43c9      	mvns	r1, r1
10003182:	4240      	negs	r0, r0
10003184:	d100      	bne.n	10003188 <l40_1>
10003186:	3101      	adds	r1, #1

10003188 <l40_1>:
10003188:	43db      	mvns	r3, r3
1000318a:	4252      	negs	r2, r2
1000318c:	d100      	bne.n	10003190 <l41_1>
1000318e:	3301      	adds	r3, #1

10003190 <l41_1>:
10003190:	bd00      	pop	{pc}
10003192:	2a00      	cmp	r2, #0
10003194:	d1eb      	bne.n	1000316e <divmod_s64s64_unsafe+0x6>
10003196:	2800      	cmp	r0, #0
10003198:	d101      	bne.n	1000319e <l41_1+0xe>
1000319a:	2900      	cmp	r1, #0
1000319c:	d005      	beq.n	100031aa <l41_1+0x1a>
1000319e:	2000      	movs	r0, #0
100031a0:	0fc9      	lsrs	r1, r1, #31
100031a2:	07c9      	lsls	r1, r1, #31
100031a4:	d101      	bne.n	100031aa <l41_1+0x1a>
100031a6:	43c0      	mvns	r0, r0
100031a8:	0841      	lsrs	r1, r0, #1
100031aa:	b500      	push	{lr}
100031ac:	f001 fcf0 	bl	10004b90 <____aeabi_ldiv0_veneer>
100031b0:	2200      	movs	r2, #0
100031b2:	2300      	movs	r3, #0
100031b4:	bd00      	pop	{pc}
100031b6:	b500      	push	{lr}
100031b8:	2900      	cmp	r1, #0
100031ba:	db0a      	blt.n	100031d2 <l43_1+0x2>
100031bc:	43db      	mvns	r3, r3
100031be:	4252      	negs	r2, r2
100031c0:	d100      	bne.n	100031c4 <l42_1>
100031c2:	3301      	adds	r3, #1

100031c4 <l42_1>:
100031c4:	f000 f814 	bl	100031f0 <divmod_u64u64_unsafe>
100031c8:	43c9      	mvns	r1, r1
100031ca:	4240      	negs	r0, r0
100031cc:	d100      	bne.n	100031d0 <l43_1>
100031ce:	3101      	adds	r1, #1

100031d0 <l43_1>:
100031d0:	bd00      	pop	{pc}
100031d2:	43c9      	mvns	r1, r1
100031d4:	4240      	negs	r0, r0
100031d6:	d100      	bne.n	100031da <l44_1>
100031d8:	3101      	adds	r1, #1

100031da <l44_1>:
100031da:	43db      	mvns	r3, r3
100031dc:	4252      	negs	r2, r2
100031de:	d100      	bne.n	100031e2 <l45_1>
100031e0:	3301      	adds	r3, #1

100031e2 <l45_1>:
100031e2:	f000 f805 	bl	100031f0 <divmod_u64u64_unsafe>
100031e6:	43db      	mvns	r3, r3
100031e8:	4252      	negs	r2, r2
100031ea:	d100      	bne.n	100031ee <l46_1>
100031ec:	3301      	adds	r3, #1

100031ee <l46_1>:
100031ee:	bd00      	pop	{pc}

100031f0 <divmod_u64u64_unsafe>:
100031f0:	2900      	cmp	r1, #0
100031f2:	d123      	bne.n	1000323c <y64>
100031f4:	2b00      	cmp	r3, #0
100031f6:	d118      	bne.n	1000322a <udiv0+0x10>
100031f8:	2a00      	cmp	r2, #0
100031fa:	d00c      	beq.n	10003216 <divmod_u64u64_unsafe+0x26>
100031fc:	46bc      	mov	ip, r7
100031fe:	4f0d      	ldr	r7, [pc, #52]	; (10003234 <udiv0+0x1a>)
10003200:	6638      	str	r0, [r7, #96]	; 0x60
10003202:	667a      	str	r2, [r7, #100]	; 0x64
10003204:	2100      	movs	r1, #0
10003206:	2300      	movs	r3, #0
10003208:	e7ff      	b.n	1000320a <divmod_u64u64_unsafe+0x1a>
1000320a:	e7ff      	b.n	1000320c <divmod_u64u64_unsafe+0x1c>
1000320c:	e7ff      	b.n	1000320e <divmod_u64u64_unsafe+0x1e>
1000320e:	6f7a      	ldr	r2, [r7, #116]	; 0x74
10003210:	6f38      	ldr	r0, [r7, #112]	; 0x70
10003212:	4667      	mov	r7, ip
10003214:	4770      	bx	lr
10003216:	2800      	cmp	r0, #0
10003218:	d001      	beq.n	1000321e <udiv0+0x4>

1000321a <udiv0>:
1000321a:	4807      	ldr	r0, [pc, #28]	; (10003238 <udiv0+0x1e>)
1000321c:	0001      	movs	r1, r0
1000321e:	b500      	push	{lr}
10003220:	f001 fcb6 	bl	10004b90 <____aeabi_ldiv0_veneer>
10003224:	2200      	movs	r2, #0
10003226:	2300      	movs	r3, #0
10003228:	bd00      	pop	{pc}
1000322a:	0002      	movs	r2, r0
1000322c:	000b      	movs	r3, r1
1000322e:	2000      	movs	r0, #0
10003230:	2100      	movs	r1, #0
10003232:	4770      	bx	lr
10003234:	d0000000 	.word	0xd0000000
10003238:	ffffffff 	.word	0xffffffff

1000323c <y64>:
1000323c:	2b00      	cmp	r3, #0
1000323e:	d000      	beq.n	10003242 <y64+0x6>
10003240:	e0bd      	b.n	100033be <y64_x48>
10003242:	0c13      	lsrs	r3, r2, #16
10003244:	d126      	bne.n	10003294 <y64_x32>
10003246:	2a00      	cmp	r2, #0
10003248:	d0e7      	beq.n	1000321a <udiv0>
1000324a:	b480      	push	{r7}
1000324c:	4f10      	ldr	r7, [pc, #64]	; (10003290 <y64+0x54>)
1000324e:	6639      	str	r1, [r7, #96]	; 0x60
10003250:	667a      	str	r2, [r7, #100]	; 0x64
10003252:	e7ff      	b.n	10003254 <y64+0x18>
10003254:	e7ff      	b.n	10003256 <y64+0x1a>
10003256:	b430      	push	{r4, r5}
10003258:	0c04      	lsrs	r4, r0, #16
1000325a:	6f7b      	ldr	r3, [r7, #116]	; 0x74
1000325c:	6f39      	ldr	r1, [r7, #112]	; 0x70
1000325e:	041b      	lsls	r3, r3, #16
10003260:	4323      	orrs	r3, r4
10003262:	663b      	str	r3, [r7, #96]	; 0x60
10003264:	e7ff      	b.n	10003266 <y64+0x2a>
10003266:	e7ff      	b.n	10003268 <y64+0x2c>
10003268:	e7ff      	b.n	1000326a <y64+0x2e>
1000326a:	46c0      	nop			; (mov r8, r8)
1000326c:	b284      	uxth	r4, r0
1000326e:	6f7b      	ldr	r3, [r7, #116]	; 0x74
10003270:	6f3d      	ldr	r5, [r7, #112]	; 0x70
10003272:	041b      	lsls	r3, r3, #16
10003274:	4323      	orrs	r3, r4
10003276:	663b      	str	r3, [r7, #96]	; 0x60
10003278:	e7ff      	b.n	1000327a <y64+0x3e>
1000327a:	e7ff      	b.n	1000327c <y64+0x40>
1000327c:	46c0      	nop			; (mov r8, r8)
1000327e:	2300      	movs	r3, #0
10003280:	042c      	lsls	r4, r5, #16
10003282:	0c2d      	lsrs	r5, r5, #16
10003284:	6f7a      	ldr	r2, [r7, #116]	; 0x74
10003286:	6f38      	ldr	r0, [r7, #112]	; 0x70
10003288:	1900      	adds	r0, r0, r4
1000328a:	4169      	adcs	r1, r5
1000328c:	bcb0      	pop	{r4, r5, r7}
1000328e:	4770      	bx	lr
10003290:	d0000000 	.word	0xd0000000

10003294 <y64_x32>:
10003294:	b5f0      	push	{r4, r5, r6, r7, lr}
10003296:	4694      	mov	ip, r2
10003298:	2500      	movs	r5, #0
1000329a:	0e14      	lsrs	r4, r2, #24
1000329c:	d101      	bne.n	100032a2 <y64_x32+0xe>
1000329e:	0212      	lsls	r2, r2, #8
100032a0:	3508      	adds	r5, #8
100032a2:	0f14      	lsrs	r4, r2, #28
100032a4:	d101      	bne.n	100032aa <y64_x32+0x16>
100032a6:	0112      	lsls	r2, r2, #4
100032a8:	3504      	adds	r5, #4
100032aa:	0f94      	lsrs	r4, r2, #30
100032ac:	d101      	bne.n	100032b2 <y64_x32+0x1e>
100032ae:	0092      	lsls	r2, r2, #2
100032b0:	3502      	adds	r5, #2
100032b2:	0fd4      	lsrs	r4, r2, #31
100032b4:	d101      	bne.n	100032ba <y64_x32+0x26>
100032b6:	0052      	lsls	r2, r2, #1
100032b8:	3501      	adds	r5, #1
100032ba:	0bd4      	lsrs	r4, r2, #15
100032bc:	3401      	adds	r4, #1
100032be:	4f25      	ldr	r7, [pc, #148]	; (10003354 <y64_x32+0xc0>)
100032c0:	667c      	str	r4, [r7, #100]	; 0x64
100032c2:	4c25      	ldr	r4, [pc, #148]	; (10003358 <y64_x32+0xc4>)
100032c4:	663c      	str	r4, [r7, #96]	; 0x60
100032c6:	0c0e      	lsrs	r6, r1, #16
100032c8:	b293      	uxth	r3, r2
100032ca:	e7ff      	b.n	100032cc <y64_x32+0x38>
100032cc:	e7ff      	b.n	100032ce <y64_x32+0x3a>
100032ce:	e7ff      	b.n	100032d0 <y64_x32+0x3c>
100032d0:	6f3c      	ldr	r4, [r7, #112]	; 0x70
100032d2:	4366      	muls	r6, r4
100032d4:	0c36      	lsrs	r6, r6, #16
100032d6:	0377      	lsls	r7, r6, #13
100032d8:	46be      	mov	lr, r7
100032da:	4373      	muls	r3, r6
100032dc:	0bdf      	lsrs	r7, r3, #15
100032de:	045b      	lsls	r3, r3, #17
100032e0:	1ac0      	subs	r0, r0, r3
100032e2:	41b9      	sbcs	r1, r7
100032e4:	0c13      	lsrs	r3, r2, #16
100032e6:	4373      	muls	r3, r6
100032e8:	18db      	adds	r3, r3, r3
100032ea:	1ac9      	subs	r1, r1, r3
100032ec:	08ce      	lsrs	r6, r1, #3
100032ee:	4366      	muls	r6, r4
100032f0:	0c36      	lsrs	r6, r6, #16
100032f2:	44b6      	add	lr, r6
100032f4:	b293      	uxth	r3, r2
100032f6:	4373      	muls	r3, r6
100032f8:	0f1f      	lsrs	r7, r3, #28
100032fa:	011b      	lsls	r3, r3, #4
100032fc:	1ac0      	subs	r0, r0, r3
100032fe:	41b9      	sbcs	r1, r7
10003300:	0c13      	lsrs	r3, r2, #16
10003302:	4373      	muls	r3, r6
10003304:	0b1f      	lsrs	r7, r3, #12
10003306:	051b      	lsls	r3, r3, #20
10003308:	1ac0      	subs	r0, r0, r3
1000330a:	41b9      	sbcs	r1, r7
1000330c:	0d86      	lsrs	r6, r0, #22
1000330e:	028f      	lsls	r7, r1, #10
10003310:	433e      	orrs	r6, r7
10003312:	4366      	muls	r6, r4
10003314:	0c36      	lsrs	r6, r6, #16
10003316:	2d09      	cmp	r5, #9
10003318:	db24      	blt.n	10003364 <last0>
1000331a:	0a52      	lsrs	r2, r2, #9
1000331c:	4372      	muls	r2, r6
1000331e:	1a80      	subs	r0, r0, r2
10003320:	0377      	lsls	r7, r6, #13
10003322:	0a46      	lsrs	r6, r0, #9
10003324:	4366      	muls	r6, r4
10003326:	0c36      	lsrs	r6, r6, #16
10003328:	2316      	movs	r3, #22
1000332a:	1b5b      	subs	r3, r3, r5
1000332c:	40de      	lsrs	r6, r3
1000332e:	40df      	lsrs	r7, r3
10003330:	19bf      	adds	r7, r7, r6
10003332:	4664      	mov	r4, ip
10003334:	4366      	muls	r6, r4
10003336:	1b82      	subs	r2, r0, r6
10003338:	4670      	mov	r0, lr
1000333a:	3504      	adds	r5, #4
1000333c:	3306      	adds	r3, #6
1000333e:	0001      	movs	r1, r0
10003340:	40d9      	lsrs	r1, r3
10003342:	40a8      	lsls	r0, r5
10003344:	19c0      	adds	r0, r0, r7
10003346:	d300      	bcc.n	1000334a <y64_x32+0xb6>
10003348:	3101      	adds	r1, #1
1000334a:	42a2      	cmp	r2, r4
1000334c:	d206      	bcs.n	1000335c <y64_x32+0xc8>
1000334e:	2300      	movs	r3, #0
10003350:	bdf0      	pop	{r4, r5, r6, r7, pc}
10003352:	0000      	.short	0x0000
10003354:	d0000000 	.word	0xd0000000
10003358:	ffffffff 	.word	0xffffffff
1000335c:	1b12      	subs	r2, r2, r4
1000335e:	3001      	adds	r0, #1
10003360:	d3f3      	bcc.n	1000334a <y64_x32+0xb6>
10003362:	e7f1      	b.n	10003348 <y64_x32+0xb4>

10003364 <last0>:
10003364:	2709      	movs	r7, #9
10003366:	1b7f      	subs	r7, r7, r5
10003368:	40fe      	lsrs	r6, r7
1000336a:	4664      	mov	r4, ip
1000336c:	b2a2      	uxth	r2, r4
1000336e:	4372      	muls	r2, r6
10003370:	1a80      	subs	r0, r0, r2
10003372:	d200      	bcs.n	10003376 <last0+0x12>
10003374:	3901      	subs	r1, #1
10003376:	0c22      	lsrs	r2, r4, #16
10003378:	4372      	muls	r2, r6
1000337a:	0c13      	lsrs	r3, r2, #16
1000337c:	0412      	lsls	r2, r2, #16
1000337e:	1a82      	subs	r2, r0, r2
10003380:	4199      	sbcs	r1, r3
10003382:	000b      	movs	r3, r1
10003384:	4670      	mov	r0, lr
10003386:	3504      	adds	r5, #4
10003388:	3713      	adds	r7, #19
1000338a:	0001      	movs	r1, r0
1000338c:	40f9      	lsrs	r1, r7
1000338e:	40a8      	lsls	r0, r5
10003390:	1980      	adds	r0, r0, r6
10003392:	d300      	bcc.n	10003396 <last0+0x32>
10003394:	3101      	adds	r1, #1
10003396:	2b00      	cmp	r3, #0
10003398:	d102      	bne.n	100033a0 <last0+0x3c>
1000339a:	42a2      	cmp	r2, r4
1000339c:	d20a      	bcs.n	100033b4 <last0+0x50>
1000339e:	bdf0      	pop	{r4, r5, r6, r7, pc}
100033a0:	3001      	adds	r0, #1
100033a2:	d300      	bcc.n	100033a6 <last0+0x42>
100033a4:	3101      	adds	r1, #1
100033a6:	1b12      	subs	r2, r2, r4
100033a8:	d2fa      	bcs.n	100033a0 <last0+0x3c>
100033aa:	3b01      	subs	r3, #1
100033ac:	d1f8      	bne.n	100033a0 <last0+0x3c>
100033ae:	42a2      	cmp	r2, r4
100033b0:	d200      	bcs.n	100033b4 <last0+0x50>
100033b2:	bdf0      	pop	{r4, r5, r6, r7, pc}
100033b4:	3001      	adds	r0, #1
100033b6:	d300      	bcc.n	100033ba <last0+0x56>
100033b8:	3101      	adds	r1, #1
100033ba:	1b12      	subs	r2, r2, r4
100033bc:	e7f7      	b.n	100033ae <last0+0x4a>

100033be <y64_x48>:
100033be:	b5f0      	push	{r4, r5, r6, r7, lr}
100033c0:	0c1c      	lsrs	r4, r3, #16
100033c2:	d000      	beq.n	100033c6 <y64_x48+0x8>
100033c4:	e080      	b.n	100034c8 <y64_x64>
100033c6:	b40c      	push	{r2, r3}
100033c8:	2500      	movs	r5, #0
100033ca:	0a1c      	lsrs	r4, r3, #8
100033cc:	d104      	bne.n	100033d8 <y64_x48+0x1a>
100033ce:	021b      	lsls	r3, r3, #8
100033d0:	0e16      	lsrs	r6, r2, #24
100033d2:	4333      	orrs	r3, r6
100033d4:	0212      	lsls	r2, r2, #8
100033d6:	3508      	adds	r5, #8
100033d8:	0b1c      	lsrs	r4, r3, #12
100033da:	d104      	bne.n	100033e6 <y64_x48+0x28>
100033dc:	011b      	lsls	r3, r3, #4
100033de:	0f16      	lsrs	r6, r2, #28
100033e0:	4333      	orrs	r3, r6
100033e2:	0112      	lsls	r2, r2, #4
100033e4:	3504      	adds	r5, #4
100033e6:	0b9c      	lsrs	r4, r3, #14
100033e8:	d104      	bne.n	100033f4 <y64_x48+0x36>
100033ea:	009b      	lsls	r3, r3, #2
100033ec:	0f96      	lsrs	r6, r2, #30
100033ee:	4333      	orrs	r3, r6
100033f0:	0092      	lsls	r2, r2, #2
100033f2:	3502      	adds	r5, #2
100033f4:	0bdc      	lsrs	r4, r3, #15
100033f6:	d102      	bne.n	100033fe <y64_x48+0x40>
100033f8:	1892      	adds	r2, r2, r2
100033fa:	415b      	adcs	r3, r3
100033fc:	3501      	adds	r5, #1
100033fe:	001c      	movs	r4, r3
10003400:	1897      	adds	r7, r2, r2
10003402:	4164      	adcs	r4, r4
10003404:	3401      	adds	r4, #1
10003406:	4f46      	ldr	r7, [pc, #280]	; (10003520 <y64_x64+0x58>)
10003408:	667c      	str	r4, [r7, #100]	; 0x64
1000340a:	4c46      	ldr	r4, [pc, #280]	; (10003524 <y64_x64+0x5c>)
1000340c:	663c      	str	r4, [r7, #96]	; 0x60
1000340e:	0c0e      	lsrs	r6, r1, #16
10003410:	e7ff      	b.n	10003412 <y64_x48+0x54>
10003412:	e7ff      	b.n	10003414 <y64_x48+0x56>
10003414:	e7ff      	b.n	10003416 <y64_x48+0x58>
10003416:	46c0      	nop			; (mov r8, r8)
10003418:	6f3c      	ldr	r4, [r7, #112]	; 0x70
1000341a:	4366      	muls	r6, r4
1000341c:	0c36      	lsrs	r6, r6, #16
1000341e:	0377      	lsls	r7, r6, #13
10003420:	46be      	mov	lr, r7
10003422:	b297      	uxth	r7, r2
10003424:	4377      	muls	r7, r6
10003426:	1bc0      	subs	r0, r0, r7
10003428:	d200      	bcs.n	1000342c <y64_x48+0x6e>
1000342a:	3901      	subs	r1, #1
1000342c:	1bc0      	subs	r0, r0, r7
1000342e:	d200      	bcs.n	10003432 <y64_x48+0x74>
10003430:	3901      	subs	r1, #1
10003432:	b29f      	uxth	r7, r3
10003434:	4377      	muls	r7, r6
10003436:	1bc9      	subs	r1, r1, r7
10003438:	1bc9      	subs	r1, r1, r7
1000343a:	0c17      	lsrs	r7, r2, #16
1000343c:	4377      	muls	r7, r6
1000343e:	047e      	lsls	r6, r7, #17
10003440:	0bff      	lsrs	r7, r7, #15
10003442:	1b80      	subs	r0, r0, r6
10003444:	41b9      	sbcs	r1, r7
10003446:	08ce      	lsrs	r6, r1, #3
10003448:	4366      	muls	r6, r4
1000344a:	0c36      	lsrs	r6, r6, #16
1000344c:	2d0c      	cmp	r5, #12
1000344e:	db33      	blt.n	100034b8 <last1>
10003450:	44b6      	add	lr, r6
10003452:	0b12      	lsrs	r2, r2, #12
10003454:	051f      	lsls	r7, r3, #20
10003456:	433a      	orrs	r2, r7
10003458:	0b1b      	lsrs	r3, r3, #12
1000345a:	b297      	uxth	r7, r2
1000345c:	4377      	muls	r7, r6
1000345e:	1bc0      	subs	r0, r0, r7
10003460:	d200      	bcs.n	10003464 <y64_x48+0xa6>
10003462:	3901      	subs	r1, #1
10003464:	b29f      	uxth	r7, r3
10003466:	4377      	muls	r7, r6
10003468:	1bc9      	subs	r1, r1, r7
1000346a:	0c17      	lsrs	r7, r2, #16
1000346c:	4377      	muls	r7, r6
1000346e:	043e      	lsls	r6, r7, #16
10003470:	0c3f      	lsrs	r7, r7, #16
10003472:	1b80      	subs	r0, r0, r6
10003474:	41b9      	sbcs	r1, r7
10003476:	0d86      	lsrs	r6, r0, #22
10003478:	028f      	lsls	r7, r1, #10
1000347a:	433e      	orrs	r6, r7
1000347c:	4366      	muls	r6, r4
1000347e:	2729      	movs	r7, #41	; 0x29
10003480:	1b7f      	subs	r7, r7, r5
10003482:	40fe      	lsrs	r6, r7
10003484:	3d0c      	subs	r5, #12
10003486:	4677      	mov	r7, lr
10003488:	40af      	lsls	r7, r5
1000348a:	19bf      	adds	r7, r7, r6
1000348c:	bc30      	pop	{r4, r5}
1000348e:	b2a2      	uxth	r2, r4
10003490:	b2ab      	uxth	r3, r5
10003492:	4372      	muls	r2, r6
10003494:	4373      	muls	r3, r6
10003496:	1a80      	subs	r0, r0, r2
10003498:	4199      	sbcs	r1, r3
1000349a:	0c22      	lsrs	r2, r4, #16
1000349c:	4372      	muls	r2, r6
1000349e:	0c13      	lsrs	r3, r2, #16
100034a0:	0412      	lsls	r2, r2, #16
100034a2:	1a80      	subs	r0, r0, r2
100034a4:	4199      	sbcs	r1, r3
100034a6:	0002      	movs	r2, r0
100034a8:	000b      	movs	r3, r1
100034aa:	3701      	adds	r7, #1
100034ac:	1b00      	subs	r0, r0, r4
100034ae:	41a9      	sbcs	r1, r5
100034b0:	d2f9      	bcs.n	100034a6 <y64_x48+0xe8>
100034b2:	1e78      	subs	r0, r7, #1
100034b4:	2100      	movs	r1, #0
100034b6:	bdf0      	pop	{r4, r5, r6, r7, pc}

100034b8 <last1>:
100034b8:	270c      	movs	r7, #12
100034ba:	1b7f      	subs	r7, r7, r5
100034bc:	40fe      	lsrs	r6, r7
100034be:	4677      	mov	r7, lr
100034c0:	0b7f      	lsrs	r7, r7, #13
100034c2:	40af      	lsls	r7, r5
100034c4:	19ff      	adds	r7, r7, r7
100034c6:	e7e0      	b.n	1000348a <y64_x48+0xcc>

100034c8 <y64_x64>:
100034c8:	2400      	movs	r4, #0
100034ca:	1c5d      	adds	r5, r3, #1
100034cc:	d007      	beq.n	100034de <y64_x64+0x16>
100034ce:	4f14      	ldr	r7, [pc, #80]	; (10003520 <y64_x64+0x58>)
100034d0:	667d      	str	r5, [r7, #100]	; 0x64
100034d2:	6639      	str	r1, [r7, #96]	; 0x60
100034d4:	e7ff      	b.n	100034d6 <y64_x64+0xe>
100034d6:	e7ff      	b.n	100034d8 <y64_x64+0x10>
100034d8:	e7ff      	b.n	100034da <y64_x64+0x12>
100034da:	e7ff      	b.n	100034dc <y64_x64+0x14>
100034dc:	6f3c      	ldr	r4, [r7, #112]	; 0x70
100034de:	b295      	uxth	r5, r2
100034e0:	b29e      	uxth	r6, r3
100034e2:	4365      	muls	r5, r4
100034e4:	4366      	muls	r6, r4
100034e6:	1b40      	subs	r0, r0, r5
100034e8:	41b1      	sbcs	r1, r6
100034ea:	0c15      	lsrs	r5, r2, #16
100034ec:	0c1e      	lsrs	r6, r3, #16
100034ee:	4365      	muls	r5, r4
100034f0:	4366      	muls	r6, r4
100034f2:	0436      	lsls	r6, r6, #16
100034f4:	0c2f      	lsrs	r7, r5, #16
100034f6:	433e      	orrs	r6, r7
100034f8:	042d      	lsls	r5, r5, #16
100034fa:	1b40      	subs	r0, r0, r5
100034fc:	41b1      	sbcs	r1, r6
100034fe:	4299      	cmp	r1, r3
10003500:	d204      	bcs.n	1000350c <y64_x64+0x44>
10003502:	0002      	movs	r2, r0
10003504:	000b      	movs	r3, r1
10003506:	0020      	movs	r0, r4
10003508:	2100      	movs	r1, #0
1000350a:	bdf0      	pop	{r4, r5, r6, r7, pc}
1000350c:	d101      	bne.n	10003512 <y64_x64+0x4a>
1000350e:	4290      	cmp	r0, r2
10003510:	d3f7      	bcc.n	10003502 <y64_x64+0x3a>
10003512:	1a80      	subs	r0, r0, r2
10003514:	4199      	sbcs	r1, r3
10003516:	3401      	adds	r4, #1
10003518:	4299      	cmp	r1, r3
1000351a:	d3f2      	bcc.n	10003502 <y64_x64+0x3a>
1000351c:	e7f6      	b.n	1000350c <y64_x64+0x44>
1000351e:	0000      	.short	0x0000
10003520:	d0000000 	.word	0xd0000000
10003524:	ffffffff 	.word	0xffffffff

10003528 <__wrap___aeabi_drsub>:
10003528:	4048      	eors	r0, r1
1000352a:	4041      	eors	r1, r0
1000352c:	4048      	eors	r0, r1

1000352e <__wrap___aeabi_dsub>:
1000352e:	b418      	push	{r3, r4}
10003530:	4b11      	ldr	r3, [pc, #68]	; (10003578 <__wrap___aeabi_dmul+0x14>)
10003532:	685b      	ldr	r3, [r3, #4]
10003534:	46fc      	mov	ip, pc
10003536:	9301      	str	r3, [sp, #4]
10003538:	bd08      	pop	{r3, pc}
1000353a:	df04      	.short	0xdf04
1000353c:	100037b3 	.word	0x100037b3

10003540 <__wrap___aeabi_dadd>:
10003540:	b418      	push	{r3, r4}
10003542:	4b0d      	ldr	r3, [pc, #52]	; (10003578 <__wrap___aeabi_dmul+0x14>)
10003544:	681b      	ldr	r3, [r3, #0]
10003546:	46fc      	mov	ip, pc
10003548:	9301      	str	r3, [sp, #4]
1000354a:	bd08      	pop	{r3, pc}
1000354c:	37bddf00 	.word	0x37bddf00
10003550:	1000      	.short	0x1000

10003552 <__wrap___aeabi_ddiv>:
10003552:	b418      	push	{r3, r4}
10003554:	4b08      	ldr	r3, [pc, #32]	; (10003578 <__wrap___aeabi_dmul+0x14>)
10003556:	68db      	ldr	r3, [r3, #12]
10003558:	46fc      	mov	ip, pc
1000355a:	9301      	str	r3, [sp, #4]
1000355c:	bd08      	pop	{r3, pc}
1000355e:	df0c      	.short	0xdf0c
10003560:	10003a75 	.word	0x10003a75

10003564 <__wrap___aeabi_dmul>:
10003564:	b418      	push	{r3, r4}
10003566:	4b04      	ldr	r3, [pc, #16]	; (10003578 <__wrap___aeabi_dmul+0x14>)
10003568:	689b      	ldr	r3, [r3, #8]
1000356a:	46fc      	mov	ip, pc
1000356c:	9301      	str	r3, [sp, #4]
1000356e:	bd08      	pop	{r3, pc}
10003570:	3919df08 	.word	0x3919df08
10003574:	00001000 	.word	0x00001000
10003578:	20000b30 	.word	0x20000b30

1000357c <__wrap___aeabi_cdrcmple>:
1000357c:	b5ff      	push	{r0, r1, r2, r3, r4, r5, r6, r7, lr}
1000357e:	4050      	eors	r0, r2
10003580:	4042      	eors	r2, r0
10003582:	4050      	eors	r0, r2
10003584:	4059      	eors	r1, r3
10003586:	404b      	eors	r3, r1
10003588:	4059      	eors	r1, r3
1000358a:	e000      	b.n	1000358e <__aeabi_dfcmple_guts>

1000358c <__wrap___aeabi_cdcmpeq>:
1000358c:	b5ff      	push	{r0, r1, r2, r3, r4, r5, r6, r7, lr}

1000358e <__aeabi_dfcmple_guts>:
1000358e:	4f15      	ldr	r7, [pc, #84]	; (100035e4 <__aeabi_dfcmple_guts+0x56>)
10003590:	004c      	lsls	r4, r1, #1
10003592:	0d64      	lsrs	r4, r4, #21
10003594:	d003      	beq.n	1000359e <__aeabi_dfcmple_guts+0x10>
10003596:	42bc      	cmp	r4, r7
10003598:	d104      	bne.n	100035a4 <__aeabi_dfcmple_guts+0x16>
1000359a:	030c      	lsls	r4, r1, #12
1000359c:	d814      	bhi.n	100035c8 <__aeabi_dfcmple_guts+0x3a>
1000359e:	2000      	movs	r0, #0
100035a0:	0d09      	lsrs	r1, r1, #20
100035a2:	0509      	lsls	r1, r1, #20
100035a4:	005c      	lsls	r4, r3, #1
100035a6:	0d64      	lsrs	r4, r4, #21
100035a8:	d003      	beq.n	100035b2 <__aeabi_dfcmple_guts+0x24>
100035aa:	42bc      	cmp	r4, r7
100035ac:	d104      	bne.n	100035b8 <__aeabi_dfcmple_guts+0x2a>
100035ae:	031c      	lsls	r4, r3, #12
100035b0:	d80a      	bhi.n	100035c8 <__aeabi_dfcmple_guts+0x3a>
100035b2:	2200      	movs	r2, #0
100035b4:	0d1b      	lsrs	r3, r3, #20
100035b6:	051b      	lsls	r3, r3, #20
100035b8:	2601      	movs	r6, #1
100035ba:	404b      	eors	r3, r1
100035bc:	d409      	bmi.n	100035d2 <__aeabi_dfcmple_guts+0x44>
100035be:	404b      	eors	r3, r1
100035c0:	d503      	bpl.n	100035ca <__aeabi_dfcmple_guts+0x3c>
100035c2:	428b      	cmp	r3, r1
100035c4:	d100      	bne.n	100035c8 <__aeabi_dfcmple_guts+0x3a>
100035c6:	4282      	cmp	r2, r0
100035c8:	bdff      	pop	{r0, r1, r2, r3, r4, r5, r6, r7, pc}
100035ca:	4299      	cmp	r1, r3
100035cc:	d1fc      	bne.n	100035c8 <__aeabi_dfcmple_guts+0x3a>
100035ce:	4290      	cmp	r0, r2
100035d0:	bdff      	pop	{r0, r1, r2, r3, r4, r5, r6, r7, pc}
100035d2:	430b      	orrs	r3, r1
100035d4:	18db      	adds	r3, r3, r3
100035d6:	4303      	orrs	r3, r0
100035d8:	4313      	orrs	r3, r2
100035da:	d0f5      	beq.n	100035c8 <__aeabi_dfcmple_guts+0x3a>
100035dc:	43c9      	mvns	r1, r1
100035de:	1849      	adds	r1, r1, r1
100035e0:	bdff      	pop	{r0, r1, r2, r3, r4, r5, r6, r7, pc}
100035e2:	0000      	.short	0x0000
100035e4:	000007ff 	.word	0x000007ff

100035e8 <__wrap___aeabi_dcmplt>:
100035e8:	b500      	push	{lr}
100035ea:	f7ff ffcf 	bl	1000358c <__wrap___aeabi_cdcmpeq>
100035ee:	4180      	sbcs	r0, r0
100035f0:	bd00      	pop	{pc}
100035f2:	46c0      	nop			; (mov r8, r8)

100035f4 <__wrap___aeabi_dcmple>:
100035f4:	b500      	push	{lr}
100035f6:	f7ff ffc9 	bl	1000358c <__wrap___aeabi_cdcmpeq>
100035fa:	d901      	bls.n	10003600 <__wrap___aeabi_dcmple+0xc>
100035fc:	2000      	movs	r0, #0
100035fe:	bd00      	pop	{pc}
10003600:	2001      	movs	r0, #1
10003602:	bd00      	pop	{pc}

10003604 <__wrap___aeabi_dcmpge>:
10003604:	b500      	push	{lr}
10003606:	f7ff ffb9 	bl	1000357c <__wrap___aeabi_cdrcmple>
1000360a:	d901      	bls.n	10003610 <__wrap___aeabi_dcmpge+0xc>
1000360c:	2000      	movs	r0, #0
1000360e:	bd00      	pop	{pc}
10003610:	2001      	movs	r0, #1
10003612:	bd00      	pop	{pc}

10003614 <__wrap___aeabi_dcmpgt>:
10003614:	b500      	push	{lr}
10003616:	f7ff ffb1 	bl	1000357c <__wrap___aeabi_cdrcmple>
1000361a:	4180      	sbcs	r0, r0
1000361c:	bd00      	pop	{pc}

1000361e <__wrap___aeabi_dcmpun>:
1000361e:	2001      	movs	r0, #1
10003620:	0540      	lsls	r0, r0, #21
10003622:	004a      	lsls	r2, r1, #1
10003624:	1812      	adds	r2, r2, r0
10003626:	d804      	bhi.n	10003632 <__wrap___aeabi_dcmpun+0x14>
10003628:	005a      	lsls	r2, r3, #1
1000362a:	1812      	adds	r2, r2, r0
1000362c:	d801      	bhi.n	10003632 <__wrap___aeabi_dcmpun+0x14>
1000362e:	2000      	movs	r0, #0
10003630:	4770      	bx	lr
10003632:	2001      	movs	r0, #1
10003634:	4770      	bx	lr
10003636:	2000      	movs	r0, #0
10003638:	4770      	bx	lr
	...

1000363c <__wrap___aeabi_ui2d>:
1000363c:	2100      	movs	r1, #0
1000363e:	2800      	cmp	r0, #0
10003640:	d105      	bne.n	1000364e <__wrap___aeabi_i2d+0xa>
10003642:	4770      	bx	lr

10003644 <__wrap___aeabi_i2d>:
10003644:	17c1      	asrs	r1, r0, #31
10003646:	4048      	eors	r0, r1
10003648:	1a40      	subs	r0, r0, r1
1000364a:	d0fa      	beq.n	10003642 <__wrap___aeabi_ui2d+0x6>
1000364c:	07c9      	lsls	r1, r1, #31
1000364e:	b513      	push	{r0, r1, r4, lr}
10003650:	4b06      	ldr	r3, [pc, #24]	; (1000366c <__wrap___aeabi_i2d+0x28>)
10003652:	681b      	ldr	r3, [r3, #0]
10003654:	4798      	blx	r3
10003656:	bc0c      	pop	{r2, r3}
10003658:	1c44      	adds	r4, r0, #1
1000365a:	40a2      	lsls	r2, r4
1000365c:	0510      	lsls	r0, r2, #20
1000365e:	0b12      	lsrs	r2, r2, #12
10003660:	4903      	ldr	r1, [pc, #12]	; (10003670 <__wrap___aeabi_i2d+0x2c>)
10003662:	1b09      	subs	r1, r1, r4
10003664:	0509      	lsls	r1, r1, #20
10003666:	4319      	orrs	r1, r3
10003668:	4311      	orrs	r1, r2
1000366a:	bd10      	pop	{r4, pc}
1000366c:	20000d30 	.word	0x20000d30
10003670:	0000041f 	.word	0x0000041f

10003674 <__wrap___aeabi_d2iz>:
10003674:	b510      	push	{r4, lr}
10003676:	004c      	lsls	r4, r1, #1
10003678:	0d62      	lsrs	r2, r4, #21
1000367a:	2380      	movs	r3, #128	; 0x80
1000367c:	18d2      	adds	r2, r2, r3
1000367e:	00db      	lsls	r3, r3, #3
10003680:	1ad2      	subs	r2, r2, r3
10003682:	055b      	lsls	r3, r3, #21
10003684:	2a7e      	cmp	r2, #126	; 0x7e
10003686:	dd10      	ble.n	100036aa <__wrap___aeabi_d2iz+0x36>
10003688:	3a9e      	subs	r2, #158	; 0x9e
1000368a:	da13      	bge.n	100036b4 <__wrap___aeabi_d2iz+0x40>
1000368c:	17cc      	asrs	r4, r1, #31
1000368e:	0309      	lsls	r1, r1, #12
10003690:	0849      	lsrs	r1, r1, #1
10003692:	4319      	orrs	r1, r3
10003694:	4252      	negs	r2, r2
10003696:	40d1      	lsrs	r1, r2
10003698:	0064      	lsls	r4, r4, #1
1000369a:	3401      	adds	r4, #1
1000369c:	3215      	adds	r2, #21
1000369e:	2a20      	cmp	r2, #32
100036a0:	da05      	bge.n	100036ae <__wrap___aeabi_d2iz+0x3a>
100036a2:	40d0      	lsrs	r0, r2
100036a4:	4308      	orrs	r0, r1
100036a6:	4360      	muls	r0, r4
100036a8:	bd10      	pop	{r4, pc}
100036aa:	2000      	movs	r0, #0
100036ac:	bd10      	pop	{r4, pc}
100036ae:	4608      	mov	r0, r1
100036b0:	4360      	muls	r0, r4
100036b2:	bd10      	pop	{r4, pc}
100036b4:	0fc8      	lsrs	r0, r1, #31
100036b6:	18c0      	adds	r0, r0, r3
100036b8:	3801      	subs	r0, #1
100036ba:	bd10      	pop	{r4, pc}

100036bc <__wrap___aeabi_d2uiz>:
100036bc:	b418      	push	{r3, r4}
100036be:	4b04      	ldr	r3, [pc, #16]	; (100036d0 <__wrap___aeabi_d2uiz+0x14>)
100036c0:	6a5b      	ldr	r3, [r3, #36]	; 0x24
100036c2:	46fc      	mov	ip, pc
100036c4:	9301      	str	r3, [sp, #4]
100036c6:	bd08      	pop	{r3, pc}
100036c8:	3ca1df24 	.word	0x3ca1df24
100036cc:	00001000 	.word	0x00001000
100036d0:	20000b30 	.word	0x20000b30

100036d4 <__aeabi_double_init>:
100036d4:	2313      	movs	r3, #19
100036d6:	b570      	push	{r4, r5, r6, lr}
100036d8:	781d      	ldrb	r5, [r3, #0]
100036da:	2d01      	cmp	r5, #1
100036dc:	d010      	beq.n	10003700 <__aeabi_double_init+0x2c>
100036de:	dd0b      	ble.n	100036f8 <__aeabi_double_init+0x24>
100036e0:	4824      	ldr	r0, [pc, #144]	; (10003774 <__aeabi_double_init+0xa0>)
100036e2:	f7ff fc8d 	bl	10003000 <rom_data_lookup>
100036e6:	4c24      	ldr	r4, [pc, #144]	; (10003778 <__aeabi_double_init+0xa4>)
100036e8:	0001      	movs	r1, r0
100036ea:	2280      	movs	r2, #128	; 0x80
100036ec:	0020      	movs	r0, r4
100036ee:	f000 fb91 	bl	10003e14 <__wrap___aeabi_memcpy>
100036f2:	2d02      	cmp	r5, #2
100036f4:	d001      	beq.n	100036fa <__aeabi_double_init+0x26>
100036f6:	bd70      	pop	{r4, r5, r6, pc}
100036f8:	4c1f      	ldr	r4, [pc, #124]	; (10003778 <__aeabi_double_init+0xa4>)
100036fa:	4a20      	ldr	r2, [pc, #128]	; (1000377c <__aeabi_double_init+0xa8>)
100036fc:	64a2      	str	r2, [r4, #72]	; 0x48
100036fe:	e7fa      	b.n	100036f6 <__aeabi_double_init+0x22>
10003700:	002e      	movs	r6, r5
10003702:	4c1d      	ldr	r4, [pc, #116]	; (10003778 <__aeabi_double_init+0xa4>)
10003704:	4a1d      	ldr	r2, [pc, #116]	; (1000377c <__aeabi_double_init+0xa8>)
10003706:	08a3      	lsrs	r3, r4, #2
10003708:	425b      	negs	r3, r3
1000370a:	401e      	ands	r6, r3
1000370c:	421d      	tst	r5, r3
1000370e:	d02f      	beq.n	10003770 <__aeabi_double_init+0x9c>
10003710:	0033      	movs	r3, r6
10003712:	6022      	str	r2, [r4, #0]
10003714:	2020      	movs	r0, #32
10003716:	00b1      	lsls	r1, r6, #2
10003718:	1861      	adds	r1, r4, r1
1000371a:	1b80      	subs	r0, r0, r6
1000371c:	600a      	str	r2, [r1, #0]
1000371e:	604a      	str	r2, [r1, #4]
10003720:	608a      	str	r2, [r1, #8]
10003722:	60ca      	str	r2, [r1, #12]
10003724:	610a      	str	r2, [r1, #16]
10003726:	614a      	str	r2, [r1, #20]
10003728:	618a      	str	r2, [r1, #24]
1000372a:	61ca      	str	r2, [r1, #28]
1000372c:	620a      	str	r2, [r1, #32]
1000372e:	624a      	str	r2, [r1, #36]	; 0x24
10003730:	628a      	str	r2, [r1, #40]	; 0x28
10003732:	62ca      	str	r2, [r1, #44]	; 0x2c
10003734:	630a      	str	r2, [r1, #48]	; 0x30
10003736:	634a      	str	r2, [r1, #52]	; 0x34
10003738:	638a      	str	r2, [r1, #56]	; 0x38
1000373a:	63ca      	str	r2, [r1, #60]	; 0x3c
1000373c:	640a      	str	r2, [r1, #64]	; 0x40
1000373e:	644a      	str	r2, [r1, #68]	; 0x44
10003740:	648a      	str	r2, [r1, #72]	; 0x48
10003742:	64ca      	str	r2, [r1, #76]	; 0x4c
10003744:	650a      	str	r2, [r1, #80]	; 0x50
10003746:	654a      	str	r2, [r1, #84]	; 0x54
10003748:	658a      	str	r2, [r1, #88]	; 0x58
1000374a:	65ca      	str	r2, [r1, #92]	; 0x5c
1000374c:	660a      	str	r2, [r1, #96]	; 0x60
1000374e:	664a      	str	r2, [r1, #100]	; 0x64
10003750:	668a      	str	r2, [r1, #104]	; 0x68
10003752:	66ca      	str	r2, [r1, #108]	; 0x6c
10003754:	670a      	str	r2, [r1, #112]	; 0x70
10003756:	674a      	str	r2, [r1, #116]	; 0x74
10003758:	0840      	lsrs	r0, r0, #1
1000375a:	2810      	cmp	r0, #16
1000375c:	d103      	bne.n	10003766 <__aeabi_double_init+0x92>
1000375e:	678a      	str	r2, [r1, #120]	; 0x78
10003760:	67ca      	str	r2, [r1, #124]	; 0x7c
10003762:	64a2      	str	r2, [r4, #72]	; 0x48
10003764:	e7c7      	b.n	100036f6 <__aeabi_double_init+0x22>
10003766:	331e      	adds	r3, #30
10003768:	009b      	lsls	r3, r3, #2
1000376a:	50e2      	str	r2, [r4, r3]
1000376c:	64a2      	str	r2, [r4, #72]	; 0x48
1000376e:	e7c2      	b.n	100036f6 <__aeabi_double_init+0x22>
10003770:	2300      	movs	r3, #0
10003772:	e7cf      	b.n	10003714 <__aeabi_double_init+0x40>
10003774:	00004453 	.word	0x00004453
10003778:	20000b30 	.word	0x20000b30
1000377c:	10003781 	.word	0x10003781

10003780 <double_table_shim_on_use_helper>:
10003780:	b507      	push	{r0, r1, r2, lr}
10003782:	4660      	mov	r0, ip
10003784:	8801      	ldrh	r1, [r0, #0]
10003786:	0a0a      	lsrs	r2, r1, #8
10003788:	3002      	adds	r0, #2
1000378a:	2adf      	cmp	r2, #223	; 0xdf
1000378c:	d1fa      	bne.n	10003784 <double_table_shim_on_use_helper+0x4>
1000378e:	b2c9      	uxtb	r1, r1
10003790:	0882      	lsrs	r2, r0, #2
10003792:	d304      	bcc.n	1000379e <double_table_shim_on_use_helper+0x1e>
10003794:	8802      	ldrh	r2, [r0, #0]
10003796:	8840      	ldrh	r0, [r0, #2]
10003798:	0400      	lsls	r0, r0, #16
1000379a:	4310      	orrs	r0, r2
1000379c:	e000      	b.n	100037a0 <double_table_shim_on_use_helper+0x20>
1000379e:	6800      	ldr	r0, [r0, #0]
100037a0:	4a01      	ldr	r2, [pc, #4]	; (100037a8 <double_table_shim_on_use_helper+0x28>)
100037a2:	5050      	str	r0, [r2, r1]
100037a4:	9003      	str	r0, [sp, #12]
100037a6:	bd07      	pop	{r0, r1, r2, pc}
100037a8:	20000b30 	.word	0x20000b30

100037ac <drsub_shim>:
100037ac:	b40f      	push	{r0, r1, r2, r3}
100037ae:	bc03      	pop	{r0, r1}
100037b0:	bc0c      	pop	{r2, r3}

100037b2 <dsub_shim>:
100037b2:	b5f0      	push	{r4, r5, r6, r7, lr}
100037b4:	2401      	movs	r4, #1
100037b6:	07e4      	lsls	r4, r4, #31
100037b8:	4063      	eors	r3, r4
100037ba:	e000      	b.n	100037be <da_entry>

100037bc <dadd_shim>:
100037bc:	b5f0      	push	{r4, r5, r6, r7, lr}

100037be <da_entry>:
100037be:	0d0c      	lsrs	r4, r1, #20
100037c0:	0fcf      	lsrs	r7, r1, #31
100037c2:	1e66      	subs	r6, r4, #1
100037c4:	0536      	lsls	r6, r6, #20
100037c6:	1b89      	subs	r1, r1, r6
100037c8:	0564      	lsls	r4, r4, #21
100037ca:	d303      	bcc.n	100037d4 <l7_1>
100037cc:	43c9      	mvns	r1, r1
100037ce:	4240      	negs	r0, r0
100037d0:	d300      	bcc.n	100037d4 <l7_1>
100037d2:	3101      	adds	r1, #1

100037d4 <l7_1>:
100037d4:	0d64      	lsrs	r4, r4, #21
100037d6:	d003      	beq.n	100037e0 <l7_2>
100037d8:	1c66      	adds	r6, r4, #1
100037da:	0af6      	lsrs	r6, r6, #11
100037dc:	d007      	beq.n	100037ee <l7_3>
100037de:	1be4      	subs	r4, r4, r7

100037e0 <l7_2>:
100037e0:	2000      	movs	r0, #0
100037e2:	007f      	lsls	r7, r7, #1
100037e4:	1c79      	adds	r1, r7, #1
100037e6:	0789      	lsls	r1, r1, #30
100037e8:	1289      	asrs	r1, r1, #10
100037ea:	3c80      	subs	r4, #128	; 0x80
100037ec:	0324      	lsls	r4, r4, #12

100037ee <l7_3>:
100037ee:	0d1d      	lsrs	r5, r3, #20
100037f0:	0fdf      	lsrs	r7, r3, #31
100037f2:	1e6e      	subs	r6, r5, #1
100037f4:	0536      	lsls	r6, r6, #20
100037f6:	1b9b      	subs	r3, r3, r6
100037f8:	056d      	lsls	r5, r5, #21
100037fa:	d303      	bcc.n	10003804 <l8_1>
100037fc:	43db      	mvns	r3, r3
100037fe:	4252      	negs	r2, r2
10003800:	d300      	bcc.n	10003804 <l8_1>
10003802:	3301      	adds	r3, #1

10003804 <l8_1>:
10003804:	0d6d      	lsrs	r5, r5, #21
10003806:	d003      	beq.n	10003810 <l8_2>
10003808:	1c6e      	adds	r6, r5, #1
1000380a:	0af6      	lsrs	r6, r6, #11
1000380c:	d007      	beq.n	1000381e <l8_3>
1000380e:	1bed      	subs	r5, r5, r7

10003810 <l8_2>:
10003810:	2200      	movs	r2, #0
10003812:	007f      	lsls	r7, r7, #1
10003814:	1c7b      	adds	r3, r7, #1
10003816:	079b      	lsls	r3, r3, #30
10003818:	129b      	asrs	r3, r3, #10
1000381a:	3d80      	subs	r5, #128	; 0x80
1000381c:	032d      	lsls	r5, r5, #12

1000381e <l8_3>:
1000381e:	1b2f      	subs	r7, r5, r4
10003820:	1b66      	subs	r6, r4, r5
10003822:	d458      	bmi.n	100038d6 <da_ygtx>
10003824:	46a4      	mov	ip, r4
10003826:	2e20      	cmp	r6, #32
10003828:	da46      	bge.n	100038b8 <da_xrgty>
1000382a:	3720      	adds	r7, #32
1000382c:	0014      	movs	r4, r2
1000382e:	40bc      	lsls	r4, r7

10003830 <da_xgty0>:
10003830:	001d      	movs	r5, r3
10003832:	40bd      	lsls	r5, r7
10003834:	40f2      	lsrs	r2, r6
10003836:	4133      	asrs	r3, r6
10003838:	432a      	orrs	r2, r5

1000383a <da_add>:
1000383a:	1880      	adds	r0, r0, r2
1000383c:	4159      	adcs	r1, r3

1000383e <da_pack>:
1000383e:	0fcb      	lsrs	r3, r1, #31
10003840:	d005      	beq.n	1000384e <da_pack+0x10>
10003842:	43c9      	mvns	r1, r1
10003844:	43c0      	mvns	r0, r0
10003846:	2200      	movs	r2, #0
10003848:	4264      	negs	r4, r4
1000384a:	4150      	adcs	r0, r2
1000384c:	4151      	adcs	r1, r2
1000384e:	4662      	mov	r2, ip
10003850:	0d4d      	lsrs	r5, r1, #21
10003852:	d128      	bne.n	100038a6 <da_0>
10003854:	0d0d      	lsrs	r5, r1, #20
10003856:	d107      	bne.n	10003868 <da_1>
10003858:	2800      	cmp	r0, #0
1000385a:	d01f      	beq.n	1000389c <da_5>

1000385c <da_2>:
1000385c:	1924      	adds	r4, r4, r4
1000385e:	4140      	adcs	r0, r0
10003860:	4149      	adcs	r1, r1
10003862:	3a01      	subs	r2, #1
10003864:	0d0d      	lsrs	r5, r1, #20
10003866:	d0f9      	beq.n	1000385c <da_2>

10003868 <da_1>:
10003868:	0064      	lsls	r4, r4, #1
1000386a:	d306      	bcc.n	1000387a <da_3>

1000386c <da_4>:
1000386c:	3001      	adds	r0, #1
1000386e:	d300      	bcc.n	10003872 <da_4+0x6>
10003870:	3101      	adds	r1, #1
10003872:	2c00      	cmp	r4, #0
10003874:	d101      	bne.n	1000387a <da_3>
10003876:	0840      	lsrs	r0, r0, #1
10003878:	0040      	lsls	r0, r0, #1

1000387a <da_3>:
1000387a:	3a01      	subs	r2, #1
1000387c:	d40b      	bmi.n	10003896 <da_6>
1000387e:	1c94      	adds	r4, r2, #2
10003880:	0ae4      	lsrs	r4, r4, #11
10003882:	d104      	bne.n	1000388e <da_7>
10003884:	0512      	lsls	r2, r2, #20
10003886:	4411      	add	r1, r2
10003888:	07db      	lsls	r3, r3, #31
1000388a:	4419      	add	r1, r3
1000388c:	bdf0      	pop	{r4, r5, r6, r7, pc}

1000388e <da_7>:
1000388e:	07d9      	lsls	r1, r3, #31
10003890:	4b20      	ldr	r3, [pc, #128]	; (10003914 <da_xmgty+0x4>)
10003892:	4319      	orrs	r1, r3
10003894:	e000      	b.n	10003898 <da_6+0x2>

10003896 <da_6>:
10003896:	07d9      	lsls	r1, r3, #31
10003898:	2000      	movs	r0, #0
1000389a:	bdf0      	pop	{r4, r5, r6, r7, pc}

1000389c <da_5>:
1000389c:	2900      	cmp	r1, #0
1000389e:	d1dd      	bne.n	1000385c <da_2>
100038a0:	2c00      	cmp	r4, #0
100038a2:	d1db      	bne.n	1000385c <da_2>
100038a4:	bdf0      	pop	{r4, r5, r6, r7, pc}

100038a6 <da_0>:
100038a6:	3201      	adds	r2, #1
100038a8:	07c6      	lsls	r6, r0, #31
100038aa:	0840      	lsrs	r0, r0, #1
100038ac:	07cd      	lsls	r5, r1, #31
100038ae:	4328      	orrs	r0, r5
100038b0:	0849      	lsrs	r1, r1, #1
100038b2:	2e00      	cmp	r6, #0
100038b4:	d0e1      	beq.n	1000387a <da_3>
100038b6:	e7d9      	b.n	1000386c <da_4>

100038b8 <da_xrgty>:
100038b8:	2e3c      	cmp	r6, #60	; 0x3c
100038ba:	da29      	bge.n	10003910 <da_xmgty>
100038bc:	3e20      	subs	r6, #32
100038be:	3740      	adds	r7, #64	; 0x40
100038c0:	0014      	movs	r4, r2
100038c2:	40bc      	lsls	r4, r7
100038c4:	d000      	beq.n	100038c8 <da_xrgty+0x10>
100038c6:	2401      	movs	r4, #1
100038c8:	40f2      	lsrs	r2, r6
100038ca:	4314      	orrs	r4, r2
100038cc:	001a      	movs	r2, r3
100038ce:	40bb      	lsls	r3, r7
100038d0:	431c      	orrs	r4, r3
100038d2:	17d3      	asrs	r3, r2, #31
100038d4:	e7ac      	b.n	10003830 <da_xgty0>

100038d6 <da_ygtx>:
100038d6:	46ac      	mov	ip, r5
100038d8:	2f20      	cmp	r7, #32
100038da:	da08      	bge.n	100038ee <da_yrgtx>
100038dc:	3620      	adds	r6, #32
100038de:	0004      	movs	r4, r0
100038e0:	40b4      	lsls	r4, r6

100038e2 <da_ygtx0>:
100038e2:	000d      	movs	r5, r1
100038e4:	40b5      	lsls	r5, r6
100038e6:	40f8      	lsrs	r0, r7
100038e8:	4139      	asrs	r1, r7
100038ea:	4328      	orrs	r0, r5
100038ec:	e7a5      	b.n	1000383a <da_add>

100038ee <da_yrgtx>:
100038ee:	2f3c      	cmp	r7, #60	; 0x3c
100038f0:	da0c      	bge.n	1000390c <da_ymgtx>
100038f2:	3f20      	subs	r7, #32
100038f4:	3640      	adds	r6, #64	; 0x40
100038f6:	0004      	movs	r4, r0
100038f8:	40b4      	lsls	r4, r6
100038fa:	d000      	beq.n	100038fe <da_yrgtx+0x10>
100038fc:	2401      	movs	r4, #1
100038fe:	40f8      	lsrs	r0, r7
10003900:	4304      	orrs	r4, r0
10003902:	0008      	movs	r0, r1
10003904:	40b1      	lsls	r1, r6
10003906:	430c      	orrs	r4, r1
10003908:	17c1      	asrs	r1, r0, #31
1000390a:	e7ea      	b.n	100038e2 <da_ygtx0>

1000390c <da_ymgtx>:
1000390c:	0010      	movs	r0, r2
1000390e:	0019      	movs	r1, r3

10003910 <da_xmgty>:
10003910:	2400      	movs	r4, #0
10003912:	e794      	b.n	1000383e <da_pack>
10003914:	7ff00000 	.word	0x7ff00000

10003918 <dmul_shim>:
10003918:	b5f0      	push	{r4, r5, r6, r7, lr}
1000391a:	0d0c      	lsrs	r4, r1, #20
1000391c:	1e66      	subs	r6, r4, #1
1000391e:	0536      	lsls	r6, r6, #20
10003920:	1b89      	subs	r1, r1, r6
10003922:	0ae6      	lsrs	r6, r4, #11
10003924:	0564      	lsls	r4, r4, #21
10003926:	0d64      	lsrs	r4, r4, #21
10003928:	d002      	beq.n	10003930 <l11_1>
1000392a:	1c65      	adds	r5, r4, #1
1000392c:	0aed      	lsrs	r5, r5, #11
1000392e:	d004      	beq.n	1000393a <l11_2>

10003930 <l11_1>:
10003930:	2000      	movs	r0, #0
10003932:	2101      	movs	r1, #1
10003934:	0509      	lsls	r1, r1, #20
10003936:	3c80      	subs	r4, #128	; 0x80
10003938:	0324      	lsls	r4, r4, #12

1000393a <l11_2>:
1000393a:	46a4      	mov	ip, r4
1000393c:	0d1c      	lsrs	r4, r3, #20
1000393e:	1e67      	subs	r7, r4, #1
10003940:	053f      	lsls	r7, r7, #20
10003942:	1bdb      	subs	r3, r3, r7
10003944:	0ae7      	lsrs	r7, r4, #11
10003946:	0564      	lsls	r4, r4, #21
10003948:	0d64      	lsrs	r4, r4, #21
1000394a:	d002      	beq.n	10003952 <l12_1>
1000394c:	1c65      	adds	r5, r4, #1
1000394e:	0aed      	lsrs	r5, r5, #11
10003950:	d004      	beq.n	1000395c <l12_2>

10003952 <l12_1>:
10003952:	2200      	movs	r2, #0
10003954:	2301      	movs	r3, #1
10003956:	051b      	lsls	r3, r3, #20
10003958:	3c80      	subs	r4, #128	; 0x80
1000395a:	0324      	lsls	r4, r4, #12

1000395c <l12_2>:
1000395c:	4077      	eors	r7, r6
1000395e:	4464      	add	r4, ip
10003960:	b497      	push	{r0, r1, r2, r4, r7}
10003962:	b284      	uxth	r4, r0
10003964:	b296      	uxth	r6, r2
10003966:	4374      	muls	r4, r6
10003968:	0c07      	lsrs	r7, r0, #16
1000396a:	437e      	muls	r6, r7
1000396c:	0c15      	lsrs	r5, r2, #16
1000396e:	436f      	muls	r7, r5
10003970:	b280      	uxth	r0, r0
10003972:	4368      	muls	r0, r5
10003974:	1836      	adds	r6, r6, r0
10003976:	d302      	bcc.n	1000397e <l13_1>
10003978:	2001      	movs	r0, #1
1000397a:	0400      	lsls	r0, r0, #16
1000397c:	183f      	adds	r7, r7, r0

1000397e <l13_1>:
1000397e:	0430      	lsls	r0, r6, #16
10003980:	0c35      	lsrs	r5, r6, #16
10003982:	1900      	adds	r0, r0, r4
10003984:	417d      	adcs	r5, r7
10003986:	4684      	mov	ip, r0
10003988:	b288      	uxth	r0, r1
1000398a:	b29a      	uxth	r2, r3
1000398c:	4350      	muls	r0, r2
1000398e:	0c0c      	lsrs	r4, r1, #16
10003990:	4362      	muls	r2, r4
10003992:	0c1f      	lsrs	r7, r3, #16
10003994:	437c      	muls	r4, r7
10003996:	b28e      	uxth	r6, r1
10003998:	437e      	muls	r6, r7
1000399a:	1992      	adds	r2, r2, r6
1000399c:	d302      	bcc.n	100039a4 <l14_1>
1000399e:	2601      	movs	r6, #1
100039a0:	0436      	lsls	r6, r6, #16
100039a2:	19a4      	adds	r4, r4, r6

100039a4 <l14_1>:
100039a4:	0416      	lsls	r6, r2, #16
100039a6:	0c17      	lsrs	r7, r2, #16
100039a8:	1836      	adds	r6, r6, r0
100039aa:	4167      	adcs	r7, r4
100039ac:	bc01      	pop	{r0}
100039ae:	b281      	uxth	r1, r0
100039b0:	b29a      	uxth	r2, r3
100039b2:	4351      	muls	r1, r2
100039b4:	0c04      	lsrs	r4, r0, #16
100039b6:	4362      	muls	r2, r4
100039b8:	0c1b      	lsrs	r3, r3, #16
100039ba:	435c      	muls	r4, r3
100039bc:	b280      	uxth	r0, r0
100039be:	4358      	muls	r0, r3
100039c0:	1812      	adds	r2, r2, r0
100039c2:	d302      	bcc.n	100039ca <l15_1>
100039c4:	2001      	movs	r0, #1
100039c6:	0400      	lsls	r0, r0, #16
100039c8:	1824      	adds	r4, r4, r0

100039ca <l15_1>:
100039ca:	0410      	lsls	r0, r2, #16
100039cc:	0c13      	lsrs	r3, r2, #16
100039ce:	1840      	adds	r0, r0, r1
100039d0:	4163      	adcs	r3, r4
100039d2:	182d      	adds	r5, r5, r0
100039d4:	415e      	adcs	r6, r3
100039d6:	2000      	movs	r0, #0
100039d8:	4147      	adcs	r7, r0
100039da:	bc06      	pop	{r1, r2}
100039dc:	b288      	uxth	r0, r1
100039de:	b293      	uxth	r3, r2
100039e0:	4358      	muls	r0, r3
100039e2:	0c0c      	lsrs	r4, r1, #16
100039e4:	4363      	muls	r3, r4
100039e6:	0c12      	lsrs	r2, r2, #16
100039e8:	4354      	muls	r4, r2
100039ea:	b289      	uxth	r1, r1
100039ec:	4351      	muls	r1, r2
100039ee:	185b      	adds	r3, r3, r1
100039f0:	d302      	bcc.n	100039f8 <l16_1>
100039f2:	2101      	movs	r1, #1
100039f4:	0409      	lsls	r1, r1, #16
100039f6:	1864      	adds	r4, r4, r1

100039f8 <l16_1>:
100039f8:	0419      	lsls	r1, r3, #16
100039fa:	0c1a      	lsrs	r2, r3, #16
100039fc:	1809      	adds	r1, r1, r0
100039fe:	4162      	adcs	r2, r4
10003a00:	186d      	adds	r5, r5, r1
10003a02:	4156      	adcs	r6, r2
10003a04:	2000      	movs	r0, #0
10003a06:	4147      	adcs	r7, r0
10003a08:	bc18      	pop	{r3, r4}
10003a0a:	02f9      	lsls	r1, r7, #11
10003a0c:	0d72      	lsrs	r2, r6, #21
10003a0e:	4311      	orrs	r1, r2
10003a10:	02f0      	lsls	r0, r6, #11
10003a12:	0d6a      	lsrs	r2, r5, #21
10003a14:	4310      	orrs	r0, r2
10003a16:	02ed      	lsls	r5, r5, #11
10003a18:	0d0a      	lsrs	r2, r1, #20
10003a1a:	d103      	bne.n	10003a24 <l16_1+0x2c>
10003a1c:	196d      	adds	r5, r5, r5
10003a1e:	4140      	adcs	r0, r0
10003a20:	4149      	adcs	r1, r1
10003a22:	3b01      	subs	r3, #1
10003a24:	4e12      	ldr	r6, [pc, #72]	; (10003a70 <dm_1+0xa>)
10003a26:	1b9b      	subs	r3, r3, r6
10003a28:	0076      	lsls	r6, r6, #1
10003a2a:	42b3      	cmp	r3, r6
10003a2c:	d20e      	bcs.n	10003a4c <dm_0>
10003a2e:	006d      	lsls	r5, r5, #1
10003a30:	d307      	bcc.n	10003a42 <l16_1+0x4a>
10003a32:	3001      	adds	r0, #1
10003a34:	2600      	movs	r6, #0
10003a36:	4171      	adcs	r1, r6
10003a38:	4666      	mov	r6, ip
10003a3a:	4335      	orrs	r5, r6
10003a3c:	d101      	bne.n	10003a42 <l16_1+0x4a>
10003a3e:	0840      	lsrs	r0, r0, #1
10003a40:	0040      	lsls	r0, r0, #1
10003a42:	051b      	lsls	r3, r3, #20
10003a44:	18c9      	adds	r1, r1, r3

10003a46 <dm_2>:
10003a46:	07e4      	lsls	r4, r4, #31
10003a48:	4421      	add	r1, r4
10003a4a:	bdf0      	pop	{r4, r5, r6, r7, pc}

10003a4c <dm_0>:
10003a4c:	da0b      	bge.n	10003a66 <dm_1>
10003a4e:	3301      	adds	r3, #1
10003a50:	d106      	bne.n	10003a60 <dm_0+0x14>
10003a52:	3001      	adds	r0, #1
10003a54:	d104      	bne.n	10003a60 <dm_0+0x14>
10003a56:	3101      	adds	r1, #1
10003a58:	0d4f      	lsrs	r7, r1, #21
10003a5a:	d001      	beq.n	10003a60 <dm_0+0x14>
10003a5c:	0849      	lsrs	r1, r1, #1
10003a5e:	e7f2      	b.n	10003a46 <dm_2>
10003a60:	07e1      	lsls	r1, r4, #31
10003a62:	2000      	movs	r0, #0
10003a64:	bdf0      	pop	{r4, r5, r6, r7, pc}

10003a66 <dm_1>:
10003a66:	3601      	adds	r6, #1
10003a68:	0531      	lsls	r1, r6, #20
10003a6a:	2000      	movs	r0, #0
10003a6c:	e7eb      	b.n	10003a46 <dm_2>
10003a6e:	0000      	.short	0x0000
10003a70:	000003ff 	.word	0x000003ff

10003a74 <ddiv_shim>:
10003a74:	b5f0      	push	{r4, r5, r6, r7, lr}

10003a76 <ddiv0>:
10003a76:	0d1c      	lsrs	r4, r3, #20
10003a78:	1e67      	subs	r7, r4, #1
10003a7a:	053f      	lsls	r7, r7, #20
10003a7c:	1bdb      	subs	r3, r3, r7
10003a7e:	0ae7      	lsrs	r7, r4, #11
10003a80:	0564      	lsls	r4, r4, #21
10003a82:	0d64      	lsrs	r4, r4, #21
10003a84:	d002      	beq.n	10003a8c <l19_1>
10003a86:	1c66      	adds	r6, r4, #1
10003a88:	0af6      	lsrs	r6, r6, #11
10003a8a:	d004      	beq.n	10003a96 <l19_2>

10003a8c <l19_1>:
10003a8c:	2200      	movs	r2, #0
10003a8e:	2301      	movs	r3, #1
10003a90:	051b      	lsls	r3, r3, #20
10003a92:	3c80      	subs	r4, #128	; 0x80
10003a94:	0324      	lsls	r4, r4, #12

10003a96 <l19_2>:
10003a96:	25d0      	movs	r5, #208	; 0xd0
10003a98:	062d      	lsls	r5, r5, #24
10003a9a:	2600      	movs	r6, #0
10003a9c:	43f6      	mvns	r6, r6
10003a9e:	662e      	str	r6, [r5, #96]	; 0x60
10003aa0:	091e      	lsrs	r6, r3, #4
10003aa2:	666e      	str	r6, [r5, #100]	; 0x64
10003aa4:	0fce      	lsrs	r6, r1, #31
10003aa6:	19f6      	adds	r6, r6, r7
10003aa8:	46b4      	mov	ip, r6
10003aaa:	0049      	lsls	r1, r1, #1
10003aac:	0d4f      	lsrs	r7, r1, #21
10003aae:	d002      	beq.n	10003ab6 <l19_2+0x20>
10003ab0:	1c7e      	adds	r6, r7, #1
10003ab2:	0af6      	lsrs	r6, r6, #11
10003ab4:	d003      	beq.n	10003abe <l19_2+0x28>
10003ab6:	2000      	movs	r0, #0
10003ab8:	2100      	movs	r1, #0
10003aba:	3f40      	subs	r7, #64	; 0x40
10003abc:	033f      	lsls	r7, r7, #12
10003abe:	1b3e      	subs	r6, r7, r4
10003ac0:	00b6      	lsls	r6, r6, #2
10003ac2:	44b4      	add	ip, r6
10003ac4:	3f01      	subs	r7, #1
10003ac6:	057f      	lsls	r7, r7, #21
10003ac8:	1bc9      	subs	r1, r1, r7
10003aca:	0849      	lsrs	r1, r1, #1
10003acc:	6f2e      	ldr	r6, [r5, #112]	; 0x70
10003ace:	3601      	adds	r6, #1
10003ad0:	0876      	lsrs	r6, r6, #1
10003ad2:	029c      	lsls	r4, r3, #10
10003ad4:	0d95      	lsrs	r5, r2, #22
10003ad6:	4325      	orrs	r5, r4
10003ad8:	4375      	muls	r5, r6
10003ada:	13ed      	asrs	r5, r5, #15
10003adc:	4375      	muls	r5, r6
10003ade:	13ad      	asrs	r5, r5, #14
10003ae0:	3501      	adds	r5, #1
10003ae2:	106d      	asrs	r5, r5, #1
10003ae4:	03f6      	lsls	r6, r6, #15
10003ae6:	1b76      	subs	r6, r6, r5
10003ae8:	b40c      	push	{r2, r3}
10003aea:	02cc      	lsls	r4, r1, #11
10003aec:	0d45      	lsrs	r5, r0, #21
10003aee:	432c      	orrs	r4, r5
10003af0:	b2a2      	uxth	r2, r4
10003af2:	b2b3      	uxth	r3, r6
10003af4:	435a      	muls	r2, r3
10003af6:	0c27      	lsrs	r7, r4, #16
10003af8:	437b      	muls	r3, r7
10003afa:	0c35      	lsrs	r5, r6, #16
10003afc:	436f      	muls	r7, r5
10003afe:	b2a4      	uxth	r4, r4
10003b00:	436c      	muls	r4, r5
10003b02:	191b      	adds	r3, r3, r4
10003b04:	d302      	bcc.n	10003b0c <l20_1>
10003b06:	2401      	movs	r4, #1
10003b08:	0424      	lsls	r4, r4, #16
10003b0a:	193f      	adds	r7, r7, r4

10003b0c <l20_1>:
10003b0c:	041c      	lsls	r4, r3, #16
10003b0e:	0c1d      	lsrs	r5, r3, #16
10003b10:	18a4      	adds	r4, r4, r2
10003b12:	417d      	adcs	r5, r7
10003b14:	1924      	adds	r4, r4, r4
10003b16:	416d      	adcs	r5, r5
10003b18:	9a00      	ldr	r2, [sp, #0]
10003b1a:	b291      	uxth	r1, r2
10003b1c:	b2ac      	uxth	r4, r5
10003b1e:	4361      	muls	r1, r4
10003b20:	0c17      	lsrs	r7, r2, #16
10003b22:	437c      	muls	r4, r7
10003b24:	0c2b      	lsrs	r3, r5, #16
10003b26:	435f      	muls	r7, r3
10003b28:	b292      	uxth	r2, r2
10003b2a:	435a      	muls	r2, r3
10003b2c:	18a4      	adds	r4, r4, r2
10003b2e:	d302      	bcc.n	10003b36 <l21_1>
10003b30:	2201      	movs	r2, #1
10003b32:	0412      	lsls	r2, r2, #16
10003b34:	18bf      	adds	r7, r7, r2

10003b36 <l21_1>:
10003b36:	0422      	lsls	r2, r4, #16
10003b38:	0c23      	lsrs	r3, r4, #16
10003b3a:	1852      	adds	r2, r2, r1
10003b3c:	417b      	adcs	r3, r7
10003b3e:	9c01      	ldr	r4, [sp, #4]
10003b40:	436c      	muls	r4, r5
10003b42:	191b      	adds	r3, r3, r4
10003b44:	0e52      	lsrs	r2, r2, #25
10003b46:	01d9      	lsls	r1, r3, #7
10003b48:	430a      	orrs	r2, r1
10003b4a:	0144      	lsls	r4, r0, #5
10003b4c:	1aa0      	subs	r0, r4, r2
10003b4e:	b281      	uxth	r1, r0
10003b50:	b2b2      	uxth	r2, r6
10003b52:	4351      	muls	r1, r2
10003b54:	1403      	asrs	r3, r0, #16
10003b56:	435a      	muls	r2, r3
10003b58:	0c36      	lsrs	r6, r6, #16
10003b5a:	4373      	muls	r3, r6
10003b5c:	b287      	uxth	r7, r0
10003b5e:	4377      	muls	r7, r6
10003b60:	17d6      	asrs	r6, r2, #31
10003b62:	19d2      	adds	r2, r2, r7
10003b64:	2700      	movs	r7, #0
10003b66:	417e      	adcs	r6, r7
10003b68:	0436      	lsls	r6, r6, #16
10003b6a:	199b      	adds	r3, r3, r6
10003b6c:	0417      	lsls	r7, r2, #16
10003b6e:	0c16      	lsrs	r6, r2, #16
10003b70:	187f      	adds	r7, r7, r1
10003b72:	415e      	adcs	r6, r3
10003b74:	1673      	asrs	r3, r6, #25
10003b76:	18ed      	adds	r5, r5, r3
10003b78:	01f3      	lsls	r3, r6, #7
10003b7a:	2600      	movs	r6, #0
10003b7c:	3380      	adds	r3, #128	; 0x80
10003b7e:	4175      	adcs	r5, r6
10003b80:	0fa9      	lsrs	r1, r5, #30
10003b82:	d106      	bne.n	10003b92 <dd_0>
10003b84:	0064      	lsls	r4, r4, #1
10003b86:	0a69      	lsrs	r1, r5, #9
10003b88:	05e8      	lsls	r0, r5, #23
10003b8a:	0a5b      	lsrs	r3, r3, #9
10003b8c:	4318      	orrs	r0, r3
10003b8e:	d209      	bcs.n	10003ba4 <dd_1>
10003b90:	e02f      	b.n	10003bf2 <dd_2>

10003b92 <dd_0>:
10003b92:	2204      	movs	r2, #4
10003b94:	4494      	add	ip, r2
10003b96:	3380      	adds	r3, #128	; 0x80
10003b98:	4175      	adcs	r5, r6
10003b9a:	0aa9      	lsrs	r1, r5, #10
10003b9c:	05a8      	lsls	r0, r5, #22
10003b9e:	0a9b      	lsrs	r3, r3, #10
10003ba0:	4318      	orrs	r0, r3
10003ba2:	d326      	bcc.n	10003bf2 <dd_2>

10003ba4 <dd_1>:
10003ba4:	4140      	adcs	r0, r0
10003ba6:	4149      	adcs	r1, r1
10003ba8:	0424      	lsls	r4, r4, #16
10003baa:	9a00      	ldr	r2, [sp, #0]
10003bac:	9b01      	ldr	r3, [sp, #4]
10003bae:	000d      	movs	r5, r1
10003bb0:	4355      	muls	r5, r2
10003bb2:	1b64      	subs	r4, r4, r5
10003bb4:	4343      	muls	r3, r0
10003bb6:	1ae4      	subs	r4, r4, r3
10003bb8:	b295      	uxth	r5, r2
10003bba:	b286      	uxth	r6, r0
10003bbc:	4375      	muls	r5, r6
10003bbe:	0c17      	lsrs	r7, r2, #16
10003bc0:	437e      	muls	r6, r7
10003bc2:	0c03      	lsrs	r3, r0, #16
10003bc4:	435f      	muls	r7, r3
10003bc6:	b292      	uxth	r2, r2
10003bc8:	435a      	muls	r2, r3
10003bca:	18b6      	adds	r6, r6, r2
10003bcc:	d302      	bcc.n	10003bd4 <l23_1>
10003bce:	2201      	movs	r2, #1
10003bd0:	0412      	lsls	r2, r2, #16
10003bd2:	18bf      	adds	r7, r7, r2

10003bd4 <l23_1>:
10003bd4:	0432      	lsls	r2, r6, #16
10003bd6:	0c33      	lsrs	r3, r6, #16
10003bd8:	1952      	adds	r2, r2, r5
10003bda:	417b      	adcs	r3, r7
10003bdc:	4252      	negs	r2, r2
10003bde:	419c      	sbcs	r4, r3
10003be0:	2c00      	cmp	r4, #0
10003be2:	d402      	bmi.n	10003bea <l23_1+0x16>
10003be4:	2200      	movs	r2, #0
10003be6:	3001      	adds	r0, #1
10003be8:	4151      	adcs	r1, r2
10003bea:	0840      	lsrs	r0, r0, #1
10003bec:	07ca      	lsls	r2, r1, #31
10003bee:	4310      	orrs	r0, r2
10003bf0:	0849      	lsrs	r1, r1, #1

10003bf2 <dd_2>:
10003bf2:	b002      	add	sp, #8
10003bf4:	4662      	mov	r2, ip
10003bf6:	07d7      	lsls	r7, r2, #31
10003bf8:	1092      	asrs	r2, r2, #2
10003bfa:	4b08      	ldr	r3, [pc, #32]	; (10003c1c <dd_4+0x6>)
10003bfc:	18d2      	adds	r2, r2, r3
10003bfe:	4b08      	ldr	r3, [pc, #32]	; (10003c20 <dd_4+0xa>)
10003c00:	429a      	cmp	r2, r3
10003c02:	d203      	bcs.n	10003c0c <dd_3>
10003c04:	0512      	lsls	r2, r2, #20
10003c06:	1889      	adds	r1, r1, r2

10003c08 <dd_5>:
10003c08:	19c9      	adds	r1, r1, r7
10003c0a:	bdf0      	pop	{r4, r5, r6, r7, pc}

10003c0c <dd_3>:
10003c0c:	2000      	movs	r0, #0
10003c0e:	2a00      	cmp	r2, #0
10003c10:	dc01      	bgt.n	10003c16 <dd_4>
10003c12:	0039      	movs	r1, r7
10003c14:	bdf0      	pop	{r4, r5, r6, r7, pc}

10003c16 <dd_4>:
10003c16:	3301      	adds	r3, #1
10003c18:	0519      	lsls	r1, r3, #20
10003c1a:	e7f5      	b.n	10003c08 <dd_5>
10003c1c:	000003fd 	.word	0x000003fd
10003c20:	000007fe 	.word	0x000007fe

10003c24 <dcordic_rot_step>:
10003c24:	4662      	mov	r2, ip
10003c26:	ca18      	ldmia	r2!, {r3, r4}
10003c28:	4694      	mov	ip, r2
10003c2a:	2900      	cmp	r1, #0
10003c2c:	da1a      	bge.n	10003c64 <dcordic_rot_step+0x40>
10003c2e:	18c0      	adds	r0, r0, r3
10003c30:	4161      	adcs	r1, r4
10003c32:	465b      	mov	r3, fp
10003c34:	413b      	asrs	r3, r7
10003c36:	465c      	mov	r4, fp
10003c38:	40b4      	lsls	r4, r6
10003c3a:	4652      	mov	r2, sl
10003c3c:	40fa      	lsrs	r2, r7
10003c3e:	4322      	orrs	r2, r4
10003c40:	4644      	mov	r4, r8
10003c42:	464d      	mov	r5, r9
10003c44:	4162      	adcs	r2, r4
10003c46:	416b      	adcs	r3, r5
10003c48:	4690      	mov	r8, r2
10003c4a:	4699      	mov	r9, r3
10003c4c:	462b      	mov	r3, r5
10003c4e:	40b3      	lsls	r3, r6
10003c50:	413d      	asrs	r5, r7
10003c52:	40fc      	lsrs	r4, r7
10003c54:	431c      	orrs	r4, r3
10003c56:	4652      	mov	r2, sl
10003c58:	465b      	mov	r3, fp
10003c5a:	41a2      	sbcs	r2, r4
10003c5c:	41ab      	sbcs	r3, r5
10003c5e:	4692      	mov	sl, r2
10003c60:	469b      	mov	fp, r3
10003c62:	4770      	bx	lr
10003c64:	1ac0      	subs	r0, r0, r3
10003c66:	41a1      	sbcs	r1, r4
10003c68:	464b      	mov	r3, r9
10003c6a:	413b      	asrs	r3, r7
10003c6c:	464c      	mov	r4, r9
10003c6e:	40b4      	lsls	r4, r6
10003c70:	4642      	mov	r2, r8
10003c72:	40fa      	lsrs	r2, r7
10003c74:	4322      	orrs	r2, r4
10003c76:	4654      	mov	r4, sl
10003c78:	465d      	mov	r5, fp
10003c7a:	4162      	adcs	r2, r4
10003c7c:	416b      	adcs	r3, r5
10003c7e:	4692      	mov	sl, r2
10003c80:	469b      	mov	fp, r3
10003c82:	462b      	mov	r3, r5
10003c84:	40b3      	lsls	r3, r6
10003c86:	413d      	asrs	r5, r7
10003c88:	40fc      	lsrs	r4, r7
10003c8a:	431c      	orrs	r4, r3
10003c8c:	4642      	mov	r2, r8
10003c8e:	464b      	mov	r3, r9
10003c90:	41a2      	sbcs	r2, r4
10003c92:	41ab      	sbcs	r3, r5
10003c94:	4690      	mov	r8, r2
10003c96:	4699      	mov	r9, r3
10003c98:	4770      	bx	lr

10003c9a <ret_dzero>:
10003c9a:	2000      	movs	r0, #0
10003c9c:	2100      	movs	r1, #0
10003c9e:	4770      	bx	lr

10003ca0 <double2uint_shim>:
10003ca0:	2200      	movs	r2, #0

10003ca2 <double2ufix_shim>:
10003ca2:	b500      	push	{lr}
10003ca4:	3220      	adds	r2, #32
10003ca6:	f000 f804 	bl	10003cb2 <double2ufix64_shim>
10003caa:	0008      	movs	r0, r1
10003cac:	bd00      	pop	{pc}
	...

10003cb0 <double2uint64_shim>:
10003cb0:	2200      	movs	r2, #0

10003cb2 <double2ufix64_shim>:
10003cb2:	150b      	asrs	r3, r1, #20
10003cb4:	d4f1      	bmi.n	10003c9a <ret_dzero>

10003cb6 <d2fix>:
10003cb6:	b510      	push	{r4, lr}
10003cb8:	4694      	mov	ip, r2
10003cba:	f000 f82f 	bl	10003d1c <dunpacks>
10003cbe:	1414      	asrs	r4, r2, #16
10003cc0:	3401      	adds	r4, #1
10003cc2:	da00      	bge.n	10003cc6 <d2fix+0x10>
10003cc4:	2100      	movs	r1, #0
10003cc6:	17cb      	asrs	r3, r1, #31
10003cc8:	4c13      	ldr	r4, [pc, #76]	; (10003d18 <d2fix_a+0x4c>)
10003cca:	4720      	bx	r4

10003ccc <d2fix_a>:
10003ccc:	4462      	add	r2, ip
10003cce:	3a34      	subs	r2, #52	; 0x34
10003cd0:	d40c      	bmi.n	10003cec <d2fix_a+0x20>
10003cd2:	2a0c      	cmp	r2, #12
10003cd4:	da07      	bge.n	10003ce6 <d2fix_a+0x1a>
10003cd6:	0004      	movs	r4, r0
10003cd8:	4091      	lsls	r1, r2
10003cda:	4090      	lsls	r0, r2
10003cdc:	4252      	negs	r2, r2
10003cde:	3220      	adds	r2, #32
10003ce0:	40d4      	lsrs	r4, r2
10003ce2:	4321      	orrs	r1, r4
10003ce4:	bd10      	pop	{r4, pc}
10003ce6:	43d8      	mvns	r0, r3
10003ce8:	43d9      	mvns	r1, r3
10003cea:	bd10      	pop	{r4, pc}
10003cec:	3220      	adds	r2, #32
10003cee:	d407      	bmi.n	10003d00 <d2fix_a+0x34>
10003cf0:	460c      	mov	r4, r1
10003cf2:	4094      	lsls	r4, r2
10003cf4:	4252      	negs	r2, r2
10003cf6:	3220      	adds	r2, #32
10003cf8:	4111      	asrs	r1, r2
10003cfa:	40d0      	lsrs	r0, r2
10003cfc:	4320      	orrs	r0, r4
10003cfe:	bd10      	pop	{r4, pc}
10003d00:	0008      	movs	r0, r1
10003d02:	17c9      	asrs	r1, r1, #31
10003d04:	3220      	adds	r2, #32
10003d06:	d403      	bmi.n	10003d10 <d2fix_a+0x44>
10003d08:	4252      	negs	r2, r2
10003d0a:	3220      	adds	r2, #32
10003d0c:	4110      	asrs	r0, r2
10003d0e:	bd10      	pop	{r4, pc}
10003d10:	0018      	movs	r0, r3
10003d12:	0019      	movs	r1, r3
10003d14:	bd10      	pop	{r4, pc}
10003d16:	0000      	.short	0x0000
10003d18:	10003ccd 	.word	0x10003ccd

10003d1c <dunpacks>:
10003d1c:	0d0a      	lsrs	r2, r1, #20
10003d1e:	0fcc      	lsrs	r4, r1, #31
10003d20:	1e53      	subs	r3, r2, #1
10003d22:	051b      	lsls	r3, r3, #20
10003d24:	1ac9      	subs	r1, r1, r3
10003d26:	0552      	lsls	r2, r2, #21
10003d28:	d303      	bcc.n	10003d32 <l60_1>
10003d2a:	43c9      	mvns	r1, r1
10003d2c:	4240      	negs	r0, r0
10003d2e:	d300      	bcc.n	10003d32 <l60_1>
10003d30:	3101      	adds	r1, #1

10003d32 <l60_1>:
10003d32:	0d52      	lsrs	r2, r2, #21
10003d34:	d003      	beq.n	10003d3e <l60_2>
10003d36:	1c53      	adds	r3, r2, #1
10003d38:	0adb      	lsrs	r3, r3, #11
10003d3a:	d007      	beq.n	10003d4c <l60_3>
10003d3c:	1b12      	subs	r2, r2, r4

10003d3e <l60_2>:
10003d3e:	2000      	movs	r0, #0
10003d40:	0064      	lsls	r4, r4, #1
10003d42:	1c61      	adds	r1, r4, #1
10003d44:	0789      	lsls	r1, r1, #30
10003d46:	1289      	asrs	r1, r1, #10
10003d48:	3a80      	subs	r2, #128	; 0x80
10003d4a:	0312      	lsls	r2, r2, #12

10003d4c <l60_3>:
10003d4c:	4b01      	ldr	r3, [pc, #4]	; (10003d54 <l60_3+0x8>)
10003d4e:	1ad2      	subs	r2, r2, r3
10003d50:	4770      	bx	lr
10003d52:	0000      	.short	0x0000
10003d54:	000003ff 	.word	0x000003ff

10003d58 <__aeabi_float_init>:
10003d58:	2313      	movs	r3, #19
10003d5a:	b510      	push	{r4, lr}
10003d5c:	4812      	ldr	r0, [pc, #72]	; (10003da8 <__aeabi_float_init+0x50>)
10003d5e:	781c      	ldrb	r4, [r3, #0]
10003d60:	f7ff f94e 	bl	10003000 <rom_data_lookup>
10003d64:	0001      	movs	r1, r0
10003d66:	2c01      	cmp	r4, #1
10003d68:	d00a      	beq.n	10003d80 <__aeabi_float_init+0x28>
10003d6a:	dd03      	ble.n	10003d74 <__aeabi_float_init+0x1c>
10003d6c:	2280      	movs	r2, #128	; 0x80
10003d6e:	480f      	ldr	r0, [pc, #60]	; (10003dac <__aeabi_float_init+0x54>)
10003d70:	f000 f850 	bl	10003e14 <__wrap___aeabi_memcpy>
10003d74:	480e      	ldr	r0, [pc, #56]	; (10003db0 <__aeabi_float_init+0x58>)
10003d76:	f7ff f93b 	bl	10002ff0 <rom_func_lookup>
10003d7a:	4b0e      	ldr	r3, [pc, #56]	; (10003db4 <__aeabi_float_init+0x5c>)
10003d7c:	6018      	str	r0, [r3, #0]
10003d7e:	bd10      	pop	{r4, pc}
10003d80:	4c0a      	ldr	r4, [pc, #40]	; (10003dac <__aeabi_float_init+0x54>)
10003d82:	2254      	movs	r2, #84	; 0x54
10003d84:	0020      	movs	r0, r4
10003d86:	f000 f845 	bl	10003e14 <__wrap___aeabi_memcpy>
10003d8a:	4b0b      	ldr	r3, [pc, #44]	; (10003db8 <__aeabi_float_init+0x60>)
10003d8c:	6563      	str	r3, [r4, #84]	; 0x54
10003d8e:	65a3      	str	r3, [r4, #88]	; 0x58
10003d90:	65e3      	str	r3, [r4, #92]	; 0x5c
10003d92:	6623      	str	r3, [r4, #96]	; 0x60
10003d94:	6663      	str	r3, [r4, #100]	; 0x64
10003d96:	66a3      	str	r3, [r4, #104]	; 0x68
10003d98:	66e3      	str	r3, [r4, #108]	; 0x6c
10003d9a:	6723      	str	r3, [r4, #112]	; 0x70
10003d9c:	6763      	str	r3, [r4, #116]	; 0x74
10003d9e:	67a3      	str	r3, [r4, #120]	; 0x78
10003da0:	67e3      	str	r3, [r4, #124]	; 0x7c
10003da2:	6223      	str	r3, [r4, #32]
10003da4:	61e3      	str	r3, [r4, #28]
10003da6:	e7e5      	b.n	10003d74 <__aeabi_float_init+0x1c>
10003da8:	00004653 	.word	0x00004653
10003dac:	20000c30 	.word	0x20000c30
10003db0:	0000334c 	.word	0x0000334c
10003db4:	20000d30 	.word	0x20000d30
10003db8:	10003dbd 	.word	0x10003dbd

10003dbc <float_table_shim_on_use_helper>:
10003dbc:	b507      	push	{r0, r1, r2, lr}
10003dbe:	4660      	mov	r0, ip
10003dc0:	8801      	ldrh	r1, [r0, #0]
10003dc2:	0a0a      	lsrs	r2, r1, #8
10003dc4:	3002      	adds	r0, #2
10003dc6:	2adf      	cmp	r2, #223	; 0xdf
10003dc8:	d1fa      	bne.n	10003dc0 <float_table_shim_on_use_helper+0x4>
10003dca:	b2c9      	uxtb	r1, r1
10003dcc:	0882      	lsrs	r2, r0, #2
10003dce:	d304      	bcc.n	10003dda <float_table_shim_on_use_helper+0x1e>
10003dd0:	8802      	ldrh	r2, [r0, #0]
10003dd2:	8840      	ldrh	r0, [r0, #2]
10003dd4:	0400      	lsls	r0, r0, #16
10003dd6:	4310      	orrs	r0, r2
10003dd8:	e000      	b.n	10003ddc <float_table_shim_on_use_helper+0x20>
10003dda:	6800      	ldr	r0, [r0, #0]
10003ddc:	4a01      	ldr	r2, [pc, #4]	; (10003de4 <float_table_shim_on_use_helper+0x28>)
10003dde:	5050      	str	r0, [r2, r1]
10003de0:	9003      	str	r0, [sp, #12]
10003de2:	bd07      	pop	{r0, r1, r2, pc}
10003de4:	20000c30 	.word	0x20000c30

10003de8 <__wrap_malloc>:
10003de8:	b510      	push	{r4, lr}
10003dea:	f000 fa79 	bl	100042e0 <malloc>
10003dee:	bd10      	pop	{r4, pc}

10003df0 <__wrap_calloc>:
10003df0:	b510      	push	{r4, lr}
10003df2:	f000 fa3b 	bl	1000426c <calloc>
10003df6:	bd10      	pop	{r4, pc}

10003df8 <__aeabi_mem_init>:
10003df8:	4801      	ldr	r0, [pc, #4]	; (10003e00 <__aeabi_mem_init+0x8>)
10003dfa:	2104      	movs	r1, #4
10003dfc:	4b01      	ldr	r3, [pc, #4]	; (10003e04 <__aeabi_mem_init+0xc>)
10003dfe:	4718      	bx	r3
10003e00:	200001f0 	.word	0x200001f0
10003e04:	10003011 	.word	0x10003011

10003e08 <__wrap_memset>:
10003e08:	4b01      	ldr	r3, [pc, #4]	; (10003e10 <__wrap_memset+0x8>)
10003e0a:	681b      	ldr	r3, [r3, #0]
10003e0c:	4718      	bx	r3
10003e0e:	0000      	.short	0x0000
10003e10:	200001f0 	.word	0x200001f0

10003e14 <__wrap___aeabi_memcpy>:
10003e14:	4b01      	ldr	r3, [pc, #4]	; (10003e1c <__wrap___aeabi_memcpy+0x8>)
10003e16:	685b      	ldr	r3, [r3, #4]
10003e18:	4718      	bx	r3
10003e1a:	0000      	.short	0x0000
10003e1c:	200001f0 	.word	0x200001f0

10003e20 <stdio_out_chars_crlf.part.0>:
10003e20:	b5f8      	push	{r3, r4, r5, r6, r7, lr}
10003e22:	4647      	mov	r7, r8
10003e24:	46ce      	mov	lr, r9
10003e26:	000d      	movs	r5, r1
10003e28:	b580      	push	{r7, lr}
10003e2a:	0016      	movs	r6, r2
10003e2c:	0007      	movs	r7, r0
10003e2e:	2a00      	cmp	r2, #0
10003e30:	dd20      	ble.n	10003e74 <stdio_out_chars_crlf.part.0+0x54>
10003e32:	1e4b      	subs	r3, r1, #1
10003e34:	4698      	mov	r8, r3
10003e36:	4b1a      	ldr	r3, [pc, #104]	; (10003ea0 <stdio_out_chars_crlf.part.0+0x80>)
10003e38:	2400      	movs	r4, #0
10003e3a:	2000      	movs	r0, #0
10003e3c:	4699      	mov	r9, r3
10003e3e:	2c00      	cmp	r4, #0
10003e40:	d02b      	beq.n	10003e9a <stdio_out_chars_crlf.part.0+0x7a>
10003e42:	4643      	mov	r3, r8
10003e44:	5d1b      	ldrb	r3, [r3, r4]
10003e46:	3b0d      	subs	r3, #13
10003e48:	425a      	negs	r2, r3
10003e4a:	4153      	adcs	r3, r2
10003e4c:	b2db      	uxtb	r3, r3
10003e4e:	5d2a      	ldrb	r2, [r5, r4]
10003e50:	2a0a      	cmp	r2, #10
10003e52:	d013      	beq.n	10003e7c <stdio_out_chars_crlf.part.0+0x5c>
10003e54:	3401      	adds	r4, #1
10003e56:	42a6      	cmp	r6, r4
10003e58:	dcf1      	bgt.n	10003e3e <stdio_out_chars_crlf.part.0+0x1e>
10003e5a:	4286      	cmp	r6, r0
10003e5c:	dd03      	ble.n	10003e66 <stdio_out_chars_crlf.part.0+0x46>
10003e5e:	1a31      	subs	r1, r6, r0
10003e60:	683b      	ldr	r3, [r7, #0]
10003e62:	1828      	adds	r0, r5, r0
10003e64:	4798      	blx	r3
10003e66:	19ad      	adds	r5, r5, r6
10003e68:	3d01      	subs	r5, #1
10003e6a:	782b      	ldrb	r3, [r5, #0]
10003e6c:	3b0d      	subs	r3, #13
10003e6e:	425a      	negs	r2, r3
10003e70:	4153      	adcs	r3, r2
10003e72:	743b      	strb	r3, [r7, #16]
10003e74:	bc0c      	pop	{r2, r3}
10003e76:	4690      	mov	r8, r2
10003e78:	4699      	mov	r9, r3
10003e7a:	bdf8      	pop	{r3, r4, r5, r6, r7, pc}
10003e7c:	2b00      	cmp	r3, #0
10003e7e:	d1e9      	bne.n	10003e54 <stdio_out_chars_crlf.part.0+0x34>
10003e80:	42a0      	cmp	r0, r4
10003e82:	da03      	bge.n	10003e8c <stdio_out_chars_crlf.part.0+0x6c>
10003e84:	1a21      	subs	r1, r4, r0
10003e86:	683b      	ldr	r3, [r7, #0]
10003e88:	1828      	adds	r0, r5, r0
10003e8a:	4798      	blx	r3
10003e8c:	4648      	mov	r0, r9
10003e8e:	2102      	movs	r1, #2
10003e90:	683b      	ldr	r3, [r7, #0]
10003e92:	3401      	adds	r4, #1
10003e94:	4798      	blx	r3
10003e96:	0020      	movs	r0, r4
10003e98:	e7dd      	b.n	10003e56 <stdio_out_chars_crlf.part.0+0x36>
10003e9a:	7c3b      	ldrb	r3, [r7, #16]
10003e9c:	e7d7      	b.n	10003e4e <stdio_out_chars_crlf.part.0+0x2e>
10003e9e:	46c0      	nop			; (mov r8, r8)
10003ea0:	10004fb8 	.word	0x10004fb8

10003ea4 <stdio_buffered_printer>:
10003ea4:	b5f8      	push	{r3, r4, r5, r6, r7, lr}
10003ea6:	4647      	mov	r7, r8
10003ea8:	46ce      	mov	lr, r9
10003eaa:	000c      	movs	r4, r1
10003eac:	6809      	ldr	r1, [r1, #0]
10003eae:	b580      	push	{r7, lr}
10003eb0:	0007      	movs	r7, r0
10003eb2:	2980      	cmp	r1, #128	; 0x80
10003eb4:	d007      	beq.n	10003ec6 <stdio_buffered_printer+0x22>
10003eb6:	1c4b      	adds	r3, r1, #1
10003eb8:	6023      	str	r3, [r4, #0]
10003eba:	1864      	adds	r4, r4, r1
10003ebc:	7127      	strb	r7, [r4, #4]
10003ebe:	bc0c      	pop	{r2, r3}
10003ec0:	4690      	mov	r8, r2
10003ec2:	4699      	mov	r9, r3
10003ec4:	bdf8      	pop	{r3, r4, r5, r6, r7, pc}
10003ec6:	4b13      	ldr	r3, [pc, #76]	; (10003f14 <stdio_buffered_printer+0x70>)
10003ec8:	681d      	ldr	r5, [r3, #0]
10003eca:	2d00      	cmp	r5, #0
10003ecc:	d01b      	beq.n	10003f06 <stdio_buffered_printer+0x62>
10003ece:	4b12      	ldr	r3, [pc, #72]	; (10003f18 <stdio_buffered_printer+0x74>)
10003ed0:	4698      	mov	r8, r3
10003ed2:	1d23      	adds	r3, r4, #4
10003ed4:	4699      	mov	r9, r3
10003ed6:	e002      	b.n	10003ede <stdio_buffered_printer+0x3a>
10003ed8:	68ed      	ldr	r5, [r5, #12]
10003eda:	2d00      	cmp	r5, #0
10003edc:	d013      	beq.n	10003f06 <stdio_buffered_printer+0x62>
10003ede:	682e      	ldr	r6, [r5, #0]
10003ee0:	2e00      	cmp	r6, #0
10003ee2:	d0f9      	beq.n	10003ed8 <stdio_buffered_printer+0x34>
10003ee4:	4643      	mov	r3, r8
10003ee6:	681b      	ldr	r3, [r3, #0]
10003ee8:	2b00      	cmp	r3, #0
10003eea:	d001      	beq.n	10003ef0 <stdio_buffered_printer+0x4c>
10003eec:	429d      	cmp	r5, r3
10003eee:	d1f3      	bne.n	10003ed8 <stdio_buffered_printer+0x34>
10003ef0:	7c6b      	ldrb	r3, [r5, #17]
10003ef2:	6822      	ldr	r2, [r4, #0]
10003ef4:	2b00      	cmp	r3, #0
10003ef6:	d009      	beq.n	10003f0c <stdio_buffered_printer+0x68>
10003ef8:	0028      	movs	r0, r5
10003efa:	4649      	mov	r1, r9
10003efc:	f7ff ff90 	bl	10003e20 <stdio_out_chars_crlf.part.0>
10003f00:	68ed      	ldr	r5, [r5, #12]
10003f02:	2d00      	cmp	r5, #0
10003f04:	d1eb      	bne.n	10003ede <stdio_buffered_printer+0x3a>
10003f06:	2301      	movs	r3, #1
10003f08:	2100      	movs	r1, #0
10003f0a:	e7d5      	b.n	10003eb8 <stdio_buffered_printer+0x14>
10003f0c:	0011      	movs	r1, r2
10003f0e:	4648      	mov	r0, r9
10003f10:	47b0      	blx	r6
10003f12:	e7e1      	b.n	10003ed8 <stdio_buffered_printer+0x34>
10003f14:	20000af8 	.word	0x20000af8
10003f18:	20000afc 	.word	0x20000afc

10003f1c <stdio_put_string>:
10003f1c:	b5f0      	push	{r4, r5, r6, r7, lr}
10003f1e:	4657      	mov	r7, sl
10003f20:	4645      	mov	r5, r8
10003f22:	46de      	mov	lr, fp
10003f24:	464e      	mov	r6, r9
10003f26:	23d0      	movs	r3, #208	; 0xd0
10003f28:	b5e0      	push	{r5, r6, r7, lr}
10003f2a:	061b      	lsls	r3, r3, #24
10003f2c:	681c      	ldr	r4, [r3, #0]
10003f2e:	4b37      	ldr	r3, [pc, #220]	; (1000400c <stdio_put_string+0xf0>)
10003f30:	b083      	sub	sp, #12
10003f32:	0007      	movs	r7, r0
10003f34:	000d      	movs	r5, r1
10003f36:	0018      	movs	r0, r3
10003f38:	a901      	add	r1, sp, #4
10003f3a:	4690      	mov	r8, r2
10003f3c:	469a      	mov	sl, r3
10003f3e:	f000 fe37 	bl	10004bb0 <__mutex_try_enter_veneer>
10003f42:	4681      	mov	r9, r0
10003f44:	2800      	cmp	r0, #0
10003f46:	d107      	bne.n	10003f58 <stdio_put_string+0x3c>
10003f48:	9b01      	ldr	r3, [sp, #4]
10003f4a:	429c      	cmp	r4, r3
10003f4c:	d004      	beq.n	10003f58 <stdio_put_string+0x3c>
10003f4e:	4650      	mov	r0, sl
10003f50:	f000 fe36 	bl	10004bc0 <__mutex_enter_blocking_veneer>
10003f54:	2301      	movs	r3, #1
10003f56:	4699      	mov	r9, r3
10003f58:	1c6b      	adds	r3, r5, #1
10003f5a:	d103      	bne.n	10003f64 <stdio_put_string+0x48>
10003f5c:	0038      	movs	r0, r7
10003f5e:	f000 fcab 	bl	100048b8 <strlen>
10003f62:	0005      	movs	r5, r0
10003f64:	4b2a      	ldr	r3, [pc, #168]	; (10004010 <stdio_put_string+0xf4>)
10003f66:	681c      	ldr	r4, [r3, #0]
10003f68:	2c00      	cmp	r4, #0
10003f6a:	d02f      	beq.n	10003fcc <stdio_put_string+0xb0>
10003f6c:	230a      	movs	r3, #10
10003f6e:	4e29      	ldr	r6, [pc, #164]	; (10004014 <stdio_put_string+0xf8>)
10003f70:	469b      	mov	fp, r3
10003f72:	e002      	b.n	10003f7a <stdio_put_string+0x5e>
10003f74:	68e4      	ldr	r4, [r4, #12]
10003f76:	2c00      	cmp	r4, #0
10003f78:	d028      	beq.n	10003fcc <stdio_put_string+0xb0>
10003f7a:	6822      	ldr	r2, [r4, #0]
10003f7c:	2a00      	cmp	r2, #0
10003f7e:	d0f9      	beq.n	10003f74 <stdio_put_string+0x58>
10003f80:	6833      	ldr	r3, [r6, #0]
10003f82:	2b00      	cmp	r3, #0
10003f84:	d001      	beq.n	10003f8a <stdio_put_string+0x6e>
10003f86:	42a3      	cmp	r3, r4
10003f88:	d1f4      	bne.n	10003f74 <stdio_put_string+0x58>
10003f8a:	7c63      	ldrb	r3, [r4, #17]
10003f8c:	2b00      	cmp	r3, #0
10003f8e:	d02a      	beq.n	10003fe6 <stdio_put_string+0xca>
10003f90:	002a      	movs	r2, r5
10003f92:	0039      	movs	r1, r7
10003f94:	0020      	movs	r0, r4
10003f96:	f7ff ff43 	bl	10003e20 <stdio_out_chars_crlf.part.0>
10003f9a:	4643      	mov	r3, r8
10003f9c:	2b00      	cmp	r3, #0
10003f9e:	d0e9      	beq.n	10003f74 <stdio_put_string+0x58>
10003fa0:	466b      	mov	r3, sp
10003fa2:	465a      	mov	r2, fp
10003fa4:	711a      	strb	r2, [r3, #4]
10003fa6:	7c63      	ldrb	r3, [r4, #17]
10003fa8:	2b00      	cmp	r3, #0
10003faa:	d020      	beq.n	10003fee <stdio_put_string+0xd2>
10003fac:	7c23      	ldrb	r3, [r4, #16]
10003fae:	2b00      	cmp	r3, #0
10003fb0:	d026      	beq.n	10004000 <stdio_put_string+0xe4>
10003fb2:	2101      	movs	r1, #1
10003fb4:	6823      	ldr	r3, [r4, #0]
10003fb6:	a801      	add	r0, sp, #4
10003fb8:	4798      	blx	r3
10003fba:	466b      	mov	r3, sp
10003fbc:	791b      	ldrb	r3, [r3, #4]
10003fbe:	3b0d      	subs	r3, #13
10003fc0:	425a      	negs	r2, r3
10003fc2:	4153      	adcs	r3, r2
10003fc4:	7423      	strb	r3, [r4, #16]
10003fc6:	68e4      	ldr	r4, [r4, #12]
10003fc8:	2c00      	cmp	r4, #0
10003fca:	d1d6      	bne.n	10003f7a <stdio_put_string+0x5e>
10003fcc:	464b      	mov	r3, r9
10003fce:	2b00      	cmp	r3, #0
10003fd0:	d112      	bne.n	10003ff8 <stdio_put_string+0xdc>
10003fd2:	1e68      	subs	r0, r5, #1
10003fd4:	4185      	sbcs	r5, r0
10003fd6:	b2e8      	uxtb	r0, r5
10003fd8:	b003      	add	sp, #12
10003fda:	bc3c      	pop	{r2, r3, r4, r5}
10003fdc:	4690      	mov	r8, r2
10003fde:	4699      	mov	r9, r3
10003fe0:	46a2      	mov	sl, r4
10003fe2:	46ab      	mov	fp, r5
10003fe4:	bdf0      	pop	{r4, r5, r6, r7, pc}
10003fe6:	0029      	movs	r1, r5
10003fe8:	0038      	movs	r0, r7
10003fea:	4790      	blx	r2
10003fec:	e7d5      	b.n	10003f9a <stdio_put_string+0x7e>
10003fee:	2101      	movs	r1, #1
10003ff0:	6823      	ldr	r3, [r4, #0]
10003ff2:	a801      	add	r0, sp, #4
10003ff4:	4798      	blx	r3
10003ff6:	e7bd      	b.n	10003f74 <stdio_put_string+0x58>
10003ff8:	4650      	mov	r0, sl
10003ffa:	f000 fdc1 	bl	10004b80 <__mutex_exit_veneer>
10003ffe:	e7e8      	b.n	10003fd2 <stdio_put_string+0xb6>
10004000:	2102      	movs	r1, #2
10004002:	4805      	ldr	r0, [pc, #20]	; (10004018 <stdio_put_string+0xfc>)
10004004:	6823      	ldr	r3, [r4, #0]
10004006:	4798      	blx	r3
10004008:	e7d7      	b.n	10003fba <stdio_put_string+0x9e>
1000400a:	46c0      	nop			; (mov r8, r8)
1000400c:	20000a50 	.word	0x20000a50
10004010:	20000af8 	.word	0x20000af8
10004014:	20000afc 	.word	0x20000afc
10004018:	10004fb8 	.word	0x10004fb8

1000401c <__wrap_putchar>:
1000401c:	b510      	push	{r4, lr}
1000401e:	b082      	sub	sp, #8
10004020:	466b      	mov	r3, sp
10004022:	0004      	movs	r4, r0
10004024:	2200      	movs	r2, #0
10004026:	1dd8      	adds	r0, r3, #7
10004028:	2101      	movs	r1, #1
1000402a:	7004      	strb	r4, [r0, #0]
1000402c:	f7ff ff76 	bl	10003f1c <stdio_put_string>
10004030:	0020      	movs	r0, r4
10004032:	b002      	add	sp, #8
10004034:	bd10      	pop	{r4, pc}
10004036:	46c0      	nop			; (mov r8, r8)

10004038 <__wrap_puts>:
10004038:	b570      	push	{r4, r5, r6, lr}
1000403a:	0004      	movs	r4, r0
1000403c:	f000 fc3c 	bl	100048b8 <strlen>
10004040:	2201      	movs	r2, #1
10004042:	0001      	movs	r1, r0
10004044:	0005      	movs	r5, r0
10004046:	0020      	movs	r0, r4
10004048:	f7ff ff68 	bl	10003f1c <stdio_put_string>
1000404c:	4b08      	ldr	r3, [pc, #32]	; (10004070 <__wrap_puts+0x38>)
1000404e:	681c      	ldr	r4, [r3, #0]
10004050:	2c00      	cmp	r4, #0
10004052:	d006      	beq.n	10004062 <__wrap_puts+0x2a>
10004054:	6863      	ldr	r3, [r4, #4]
10004056:	2b00      	cmp	r3, #0
10004058:	d005      	beq.n	10004066 <__wrap_puts+0x2e>
1000405a:	4798      	blx	r3
1000405c:	68e4      	ldr	r4, [r4, #12]
1000405e:	2c00      	cmp	r4, #0
10004060:	d1f8      	bne.n	10004054 <__wrap_puts+0x1c>
10004062:	0028      	movs	r0, r5
10004064:	bd70      	pop	{r4, r5, r6, pc}
10004066:	68e4      	ldr	r4, [r4, #12]
10004068:	2c00      	cmp	r4, #0
1000406a:	d1f3      	bne.n	10004054 <__wrap_puts+0x1c>
1000406c:	e7f9      	b.n	10004062 <__wrap_puts+0x2a>
1000406e:	46c0      	nop			; (mov r8, r8)
10004070:	20000af8 	.word	0x20000af8

10004074 <stdio_set_driver_enabled>:
10004074:	4a0d      	ldr	r2, [pc, #52]	; (100040ac <stdio_set_driver_enabled+0x38>)
10004076:	6813      	ldr	r3, [r2, #0]
10004078:	2b00      	cmp	r3, #0
1000407a:	d013      	beq.n	100040a4 <stdio_set_driver_enabled+0x30>
1000407c:	4283      	cmp	r3, r0
1000407e:	d102      	bne.n	10004086 <stdio_set_driver_enabled+0x12>
10004080:	e009      	b.n	10004096 <stdio_set_driver_enabled+0x22>
10004082:	4298      	cmp	r0, r3
10004084:	d008      	beq.n	10004098 <stdio_set_driver_enabled+0x24>
10004086:	001a      	movs	r2, r3
10004088:	68db      	ldr	r3, [r3, #12]
1000408a:	2b00      	cmp	r3, #0
1000408c:	d1f9      	bne.n	10004082 <stdio_set_driver_enabled+0xe>
1000408e:	2900      	cmp	r1, #0
10004090:	d000      	beq.n	10004094 <stdio_set_driver_enabled+0x20>
10004092:	60d0      	str	r0, [r2, #12]
10004094:	4770      	bx	lr
10004096:	001a      	movs	r2, r3
10004098:	2900      	cmp	r1, #0
1000409a:	d1fb      	bne.n	10004094 <stdio_set_driver_enabled+0x20>
1000409c:	68db      	ldr	r3, [r3, #12]
1000409e:	60d3      	str	r3, [r2, #12]
100040a0:	60c1      	str	r1, [r0, #12]
100040a2:	e7f7      	b.n	10004094 <stdio_set_driver_enabled+0x20>
100040a4:	2900      	cmp	r1, #0
100040a6:	d0f5      	beq.n	10004094 <stdio_set_driver_enabled+0x20>
100040a8:	6010      	str	r0, [r2, #0]
100040aa:	e7f3      	b.n	10004094 <stdio_set_driver_enabled+0x20>
100040ac:	20000af8 	.word	0x20000af8

100040b0 <__wrap_vprintf>:
100040b0:	b5f0      	push	{r4, r5, r6, r7, lr}
100040b2:	4646      	mov	r6, r8
100040b4:	46d6      	mov	lr, sl
100040b6:	464f      	mov	r7, r9
100040b8:	23d0      	movs	r3, #208	; 0xd0
100040ba:	b5c0      	push	{r6, r7, lr}
100040bc:	061b      	lsls	r3, r3, #24
100040be:	681f      	ldr	r7, [r3, #0]
100040c0:	4b31      	ldr	r3, [pc, #196]	; (10004188 <__wrap_vprintf+0xd8>)
100040c2:	b0a2      	sub	sp, #136	; 0x88
100040c4:	0004      	movs	r4, r0
100040c6:	000d      	movs	r5, r1
100040c8:	0018      	movs	r0, r3
100040ca:	a901      	add	r1, sp, #4
100040cc:	4698      	mov	r8, r3
100040ce:	f000 fd6f 	bl	10004bb0 <__mutex_try_enter_veneer>
100040d2:	1e06      	subs	r6, r0, #0
100040d4:	d106      	bne.n	100040e4 <__wrap_vprintf+0x34>
100040d6:	9b01      	ldr	r3, [sp, #4]
100040d8:	429f      	cmp	r7, r3
100040da:	d003      	beq.n	100040e4 <__wrap_vprintf+0x34>
100040dc:	4640      	mov	r0, r8
100040de:	f000 fd6f 	bl	10004bc0 <__mutex_enter_blocking_veneer>
100040e2:	3601      	adds	r6, #1
100040e4:	2284      	movs	r2, #132	; 0x84
100040e6:	2100      	movs	r1, #0
100040e8:	a801      	add	r0, sp, #4
100040ea:	f7ff fe8d 	bl	10003e08 <__wrap_memset>
100040ee:	002b      	movs	r3, r5
100040f0:	0022      	movs	r2, r4
100040f2:	4826      	ldr	r0, [pc, #152]	; (1000418c <__wrap_vprintf+0xdc>)
100040f4:	a901      	add	r1, sp, #4
100040f6:	f7fe ff4b 	bl	10002f90 <vfctprintf>
100040fa:	9b01      	ldr	r3, [sp, #4]
100040fc:	0007      	movs	r7, r0
100040fe:	2b00      	cmp	r3, #0
10004100:	d115      	bne.n	1000412e <__wrap_vprintf+0x7e>
10004102:	4b23      	ldr	r3, [pc, #140]	; (10004190 <__wrap_vprintf+0xe0>)
10004104:	681c      	ldr	r4, [r3, #0]
10004106:	2c00      	cmp	r4, #0
10004108:	d006      	beq.n	10004118 <__wrap_vprintf+0x68>
1000410a:	6863      	ldr	r3, [r4, #4]
1000410c:	2b00      	cmp	r3, #0
1000410e:	d00c      	beq.n	1000412a <__wrap_vprintf+0x7a>
10004110:	4798      	blx	r3
10004112:	68e4      	ldr	r4, [r4, #12]
10004114:	2c00      	cmp	r4, #0
10004116:	d1f8      	bne.n	1000410a <__wrap_vprintf+0x5a>
10004118:	2e00      	cmp	r6, #0
1000411a:	d12f      	bne.n	1000417c <__wrap_vprintf+0xcc>
1000411c:	0038      	movs	r0, r7
1000411e:	b022      	add	sp, #136	; 0x88
10004120:	bc1c      	pop	{r2, r3, r4}
10004122:	4690      	mov	r8, r2
10004124:	4699      	mov	r9, r3
10004126:	46a2      	mov	sl, r4
10004128:	bdf0      	pop	{r4, r5, r6, r7, pc}
1000412a:	68e4      	ldr	r4, [r4, #12]
1000412c:	e7eb      	b.n	10004106 <__wrap_vprintf+0x56>
1000412e:	4b18      	ldr	r3, [pc, #96]	; (10004190 <__wrap_vprintf+0xe0>)
10004130:	681d      	ldr	r5, [r3, #0]
10004132:	469a      	mov	sl, r3
10004134:	2d00      	cmp	r5, #0
10004136:	d025      	beq.n	10004184 <__wrap_vprintf+0xd4>
10004138:	4b16      	ldr	r3, [pc, #88]	; (10004194 <__wrap_vprintf+0xe4>)
1000413a:	4699      	mov	r9, r3
1000413c:	e002      	b.n	10004144 <__wrap_vprintf+0x94>
1000413e:	68ed      	ldr	r5, [r5, #12]
10004140:	2d00      	cmp	r5, #0
10004142:	d013      	beq.n	1000416c <__wrap_vprintf+0xbc>
10004144:	682c      	ldr	r4, [r5, #0]
10004146:	2c00      	cmp	r4, #0
10004148:	d0f9      	beq.n	1000413e <__wrap_vprintf+0x8e>
1000414a:	464b      	mov	r3, r9
1000414c:	681b      	ldr	r3, [r3, #0]
1000414e:	2b00      	cmp	r3, #0
10004150:	d001      	beq.n	10004156 <__wrap_vprintf+0xa6>
10004152:	429d      	cmp	r5, r3
10004154:	d1f3      	bne.n	1000413e <__wrap_vprintf+0x8e>
10004156:	7c6b      	ldrb	r3, [r5, #17]
10004158:	9a01      	ldr	r2, [sp, #4]
1000415a:	2b00      	cmp	r3, #0
1000415c:	d00a      	beq.n	10004174 <__wrap_vprintf+0xc4>
1000415e:	0028      	movs	r0, r5
10004160:	a902      	add	r1, sp, #8
10004162:	f7ff fe5d 	bl	10003e20 <stdio_out_chars_crlf.part.0>
10004166:	68ed      	ldr	r5, [r5, #12]
10004168:	2d00      	cmp	r5, #0
1000416a:	d1eb      	bne.n	10004144 <__wrap_vprintf+0x94>
1000416c:	4653      	mov	r3, sl
1000416e:	9501      	str	r5, [sp, #4]
10004170:	681c      	ldr	r4, [r3, #0]
10004172:	e7c8      	b.n	10004106 <__wrap_vprintf+0x56>
10004174:	0011      	movs	r1, r2
10004176:	a802      	add	r0, sp, #8
10004178:	47a0      	blx	r4
1000417a:	e7e0      	b.n	1000413e <__wrap_vprintf+0x8e>
1000417c:	4640      	mov	r0, r8
1000417e:	f000 fcff 	bl	10004b80 <__mutex_exit_veneer>
10004182:	e7cb      	b.n	1000411c <__wrap_vprintf+0x6c>
10004184:	9501      	str	r5, [sp, #4]
10004186:	e7c7      	b.n	10004118 <__wrap_vprintf+0x68>
10004188:	20000a50 	.word	0x20000a50
1000418c:	10003ea5 	.word	0x10003ea5
10004190:	20000af8 	.word	0x20000af8
10004194:	20000afc 	.word	0x20000afc

10004198 <__wrap_printf>:
10004198:	b40f      	push	{r0, r1, r2, r3}
1000419a:	b500      	push	{lr}
1000419c:	b083      	sub	sp, #12
1000419e:	a904      	add	r1, sp, #16
100041a0:	c901      	ldmia	r1!, {r0}
100041a2:	9101      	str	r1, [sp, #4]
100041a4:	f7ff ff84 	bl	100040b0 <__wrap_vprintf>
100041a8:	b003      	add	sp, #12
100041aa:	bc08      	pop	{r3}
100041ac:	b004      	add	sp, #16
100041ae:	4718      	bx	r3

100041b0 <stdio_init_all>:
100041b0:	b510      	push	{r4, lr}
100041b2:	f000 f83b 	bl	1000422c <stdio_uart_init>
100041b6:	bd10      	pop	{r4, pc}

100041b8 <stdio_uart_out_chars>:
100041b8:	b5f0      	push	{r4, r5, r6, r7, lr}
100041ba:	2900      	cmp	r1, #0
100041bc:	d010      	beq.n	100041e0 <stdio_uart_out_chars+0x28>
100041be:	1845      	adds	r5, r0, r1
100041c0:	270d      	movs	r7, #13
100041c2:	2120      	movs	r1, #32
100041c4:	4b09      	ldr	r3, [pc, #36]	; (100041ec <stdio_uart_out_chars+0x34>)
100041c6:	4a0a      	ldr	r2, [pc, #40]	; (100041f0 <stdio_uart_out_chars+0x38>)
100041c8:	2600      	movs	r6, #0
100041ca:	5f9e      	ldrsh	r6, [r3, r6]
100041cc:	7804      	ldrb	r4, [r0, #0]
100041ce:	42a6      	cmp	r6, r4
100041d0:	d007      	beq.n	100041e2 <stdio_uart_out_chars+0x2a>
100041d2:	6993      	ldr	r3, [r2, #24]
100041d4:	4219      	tst	r1, r3
100041d6:	d1fc      	bne.n	100041d2 <stdio_uart_out_chars+0x1a>
100041d8:	3001      	adds	r0, #1
100041da:	6014      	str	r4, [r2, #0]
100041dc:	42a8      	cmp	r0, r5
100041de:	d1f5      	bne.n	100041cc <stdio_uart_out_chars+0x14>
100041e0:	bdf0      	pop	{r4, r5, r6, r7, pc}
100041e2:	6993      	ldr	r3, [r2, #24]
100041e4:	4219      	tst	r1, r3
100041e6:	d1fc      	bne.n	100041e2 <stdio_uart_out_chars+0x2a>
100041e8:	6017      	str	r7, [r2, #0]
100041ea:	e7f2      	b.n	100041d2 <stdio_uart_out_chars+0x1a>
100041ec:	20000b2c 	.word	0x20000b2c
100041f0:	40034000 	.word	0x40034000

100041f4 <stdio_uart_in_chars>:
100041f4:	b530      	push	{r4, r5, lr}
100041f6:	0005      	movs	r5, r0
100041f8:	2000      	movs	r0, #0
100041fa:	2900      	cmp	r1, #0
100041fc:	dd10      	ble.n	10004220 <stdio_uart_in_chars+0x2c>
100041fe:	2410      	movs	r4, #16
10004200:	4a09      	ldr	r2, [pc, #36]	; (10004228 <stdio_uart_in_chars+0x34>)
10004202:	3d01      	subs	r5, #1
10004204:	6993      	ldr	r3, [r2, #24]
10004206:	421c      	tst	r4, r3
10004208:	d108      	bne.n	1000421c <stdio_uart_in_chars+0x28>
1000420a:	3001      	adds	r0, #1
1000420c:	6993      	ldr	r3, [r2, #24]
1000420e:	421c      	tst	r4, r3
10004210:	d1fc      	bne.n	1000420c <stdio_uart_in_chars+0x18>
10004212:	6813      	ldr	r3, [r2, #0]
10004214:	542b      	strb	r3, [r5, r0]
10004216:	4281      	cmp	r1, r0
10004218:	d1f4      	bne.n	10004204 <stdio_uart_in_chars+0x10>
1000421a:	bd30      	pop	{r4, r5, pc}
1000421c:	2800      	cmp	r0, #0
1000421e:	d1fc      	bne.n	1000421a <stdio_uart_in_chars+0x26>
10004220:	2003      	movs	r0, #3
10004222:	4240      	negs	r0, r0
10004224:	e7f9      	b.n	1000421a <stdio_uart_in_chars+0x26>
10004226:	46c0      	nop			; (mov r8, r8)
10004228:	40034000 	.word	0x40034000

1000422c <stdio_uart_init>:
1000422c:	21e1      	movs	r1, #225	; 0xe1
1000422e:	b510      	push	{r4, lr}
10004230:	4b0a      	ldr	r3, [pc, #40]	; (1000425c <stdio_uart_init+0x30>)
10004232:	0249      	lsls	r1, r1, #9
10004234:	781b      	ldrb	r3, [r3, #0]
10004236:	4b0a      	ldr	r3, [pc, #40]	; (10004260 <stdio_uart_init+0x34>)
10004238:	480a      	ldr	r0, [pc, #40]	; (10004264 <stdio_uart_init+0x38>)
1000423a:	781b      	ldrb	r3, [r3, #0]
1000423c:	f7fc f964 	bl	10000508 <uart_init>
10004240:	2102      	movs	r1, #2
10004242:	2000      	movs	r0, #0
10004244:	f7fc f8f6 	bl	10000434 <gpio_set_function>
10004248:	2102      	movs	r1, #2
1000424a:	2001      	movs	r0, #1
1000424c:	f7fc f8f2 	bl	10000434 <gpio_set_function>
10004250:	2101      	movs	r1, #1
10004252:	4805      	ldr	r0, [pc, #20]	; (10004268 <stdio_uart_init+0x3c>)
10004254:	f7ff ff0e 	bl	10004074 <stdio_set_driver_enabled>
10004258:	bd10      	pop	{r4, pc}
1000425a:	46c0      	nop			; (mov r8, r8)
1000425c:	10005018 	.word	0x10005018
10004260:	1000501c 	.word	0x1000501c
10004264:	40034000 	.word	0x40034000
10004268:	20000200 	.word	0x20000200

1000426c <calloc>:
1000426c:	0003      	movs	r3, r0
1000426e:	b510      	push	{r4, lr}
10004270:	000a      	movs	r2, r1
10004272:	4903      	ldr	r1, [pc, #12]	; (10004280 <calloc+0x14>)
10004274:	6808      	ldr	r0, [r1, #0]
10004276:	0019      	movs	r1, r3
10004278:	f000 f804 	bl	10004284 <_calloc_r>
1000427c:	bd10      	pop	{r4, pc}
1000427e:	46c0      	nop			; (mov r8, r8)
10004280:	20000214 	.word	0x20000214

10004284 <_calloc_r>:
10004284:	b510      	push	{r4, lr}
10004286:	4351      	muls	r1, r2
10004288:	f000 f834 	bl	100042f4 <_malloc_r>
1000428c:	1e04      	subs	r4, r0, #0
1000428e:	d00e      	beq.n	100042ae <_calloc_r+0x2a>
10004290:	0003      	movs	r3, r0
10004292:	3b08      	subs	r3, #8
10004294:	685a      	ldr	r2, [r3, #4]
10004296:	2303      	movs	r3, #3
10004298:	439a      	bics	r2, r3
1000429a:	3a04      	subs	r2, #4
1000429c:	2a24      	cmp	r2, #36	; 0x24
1000429e:	d815      	bhi.n	100042cc <_calloc_r+0x48>
100042a0:	0003      	movs	r3, r0
100042a2:	2a13      	cmp	r2, #19
100042a4:	d805      	bhi.n	100042b2 <_calloc_r+0x2e>
100042a6:	2200      	movs	r2, #0
100042a8:	601a      	str	r2, [r3, #0]
100042aa:	605a      	str	r2, [r3, #4]
100042ac:	609a      	str	r2, [r3, #8]
100042ae:	0020      	movs	r0, r4
100042b0:	bd10      	pop	{r4, pc}
100042b2:	2100      	movs	r1, #0
100042b4:	3308      	adds	r3, #8
100042b6:	6001      	str	r1, [r0, #0]
100042b8:	6041      	str	r1, [r0, #4]
100042ba:	2a1b      	cmp	r2, #27
100042bc:	d9f3      	bls.n	100042a6 <_calloc_r+0x22>
100042be:	6081      	str	r1, [r0, #8]
100042c0:	60c1      	str	r1, [r0, #12]
100042c2:	2a24      	cmp	r2, #36	; 0x24
100042c4:	d006      	beq.n	100042d4 <_calloc_r+0x50>
100042c6:	0003      	movs	r3, r0
100042c8:	3310      	adds	r3, #16
100042ca:	e7ec      	b.n	100042a6 <_calloc_r+0x22>
100042cc:	2100      	movs	r1, #0
100042ce:	f7ff fd9b 	bl	10003e08 <__wrap_memset>
100042d2:	e7ec      	b.n	100042ae <_calloc_r+0x2a>
100042d4:	0003      	movs	r3, r0
100042d6:	6101      	str	r1, [r0, #16]
100042d8:	3318      	adds	r3, #24
100042da:	6141      	str	r1, [r0, #20]
100042dc:	e7e3      	b.n	100042a6 <_calloc_r+0x22>
100042de:	46c0      	nop			; (mov r8, r8)

100042e0 <malloc>:
100042e0:	b510      	push	{r4, lr}
100042e2:	4b03      	ldr	r3, [pc, #12]	; (100042f0 <malloc+0x10>)
100042e4:	0001      	movs	r1, r0
100042e6:	6818      	ldr	r0, [r3, #0]
100042e8:	f000 f804 	bl	100042f4 <_malloc_r>
100042ec:	bd10      	pop	{r4, pc}
100042ee:	46c0      	nop			; (mov r8, r8)
100042f0:	20000214 	.word	0x20000214

100042f4 <_malloc_r>:
100042f4:	b5f0      	push	{r4, r5, r6, r7, lr}
100042f6:	464e      	mov	r6, r9
100042f8:	4645      	mov	r5, r8
100042fa:	46de      	mov	lr, fp
100042fc:	4657      	mov	r7, sl
100042fe:	b5e0      	push	{r5, r6, r7, lr}
10004300:	000d      	movs	r5, r1
10004302:	350b      	adds	r5, #11
10004304:	0006      	movs	r6, r0
10004306:	b083      	sub	sp, #12
10004308:	2d16      	cmp	r5, #22
1000430a:	d822      	bhi.n	10004352 <_malloc_r+0x5e>
1000430c:	2910      	cmp	r1, #16
1000430e:	d900      	bls.n	10004312 <_malloc_r+0x1e>
10004310:	e0b2      	b.n	10004478 <_malloc_r+0x184>
10004312:	f000 faaf 	bl	10004874 <__malloc_lock>
10004316:	2510      	movs	r5, #16
10004318:	2002      	movs	r0, #2
1000431a:	2318      	movs	r3, #24
1000431c:	4fcb      	ldr	r7, [pc, #812]	; (1000464c <_malloc_r+0x358>)
1000431e:	18fb      	adds	r3, r7, r3
10004320:	001a      	movs	r2, r3
10004322:	685c      	ldr	r4, [r3, #4]
10004324:	3a08      	subs	r2, #8
10004326:	4294      	cmp	r4, r2
10004328:	d100      	bne.n	1000432c <_malloc_r+0x38>
1000432a:	e0b5      	b.n	10004498 <_malloc_r+0x1a4>
1000432c:	2303      	movs	r3, #3
1000432e:	6862      	ldr	r2, [r4, #4]
10004330:	439a      	bics	r2, r3
10004332:	0013      	movs	r3, r2
10004334:	68e2      	ldr	r2, [r4, #12]
10004336:	68a1      	ldr	r1, [r4, #8]
10004338:	60ca      	str	r2, [r1, #12]
1000433a:	6091      	str	r1, [r2, #8]
1000433c:	2201      	movs	r2, #1
1000433e:	18e3      	adds	r3, r4, r3
10004340:	6859      	ldr	r1, [r3, #4]
10004342:	0030      	movs	r0, r6
10004344:	430a      	orrs	r2, r1
10004346:	605a      	str	r2, [r3, #4]
10004348:	f000 fa9c 	bl	10004884 <__malloc_unlock>
1000434c:	0020      	movs	r0, r4
1000434e:	3008      	adds	r0, #8
10004350:	e095      	b.n	1000447e <_malloc_r+0x18a>
10004352:	2307      	movs	r3, #7
10004354:	439d      	bics	r5, r3
10004356:	d500      	bpl.n	1000435a <_malloc_r+0x66>
10004358:	e08e      	b.n	10004478 <_malloc_r+0x184>
1000435a:	42a9      	cmp	r1, r5
1000435c:	d900      	bls.n	10004360 <_malloc_r+0x6c>
1000435e:	e08b      	b.n	10004478 <_malloc_r+0x184>
10004360:	f000 fa88 	bl	10004874 <__malloc_lock>
10004364:	23fc      	movs	r3, #252	; 0xfc
10004366:	005b      	lsls	r3, r3, #1
10004368:	429d      	cmp	r5, r3
1000436a:	d200      	bcs.n	1000436e <_malloc_r+0x7a>
1000436c:	e1a5      	b.n	100046ba <_malloc_r+0x3c6>
1000436e:	0a68      	lsrs	r0, r5, #9
10004370:	d100      	bne.n	10004374 <_malloc_r+0x80>
10004372:	e08b      	b.n	1000448c <_malloc_r+0x198>
10004374:	2804      	cmp	r0, #4
10004376:	d900      	bls.n	1000437a <_malloc_r+0x86>
10004378:	e178      	b.n	1000466c <_malloc_r+0x378>
1000437a:	2338      	movs	r3, #56	; 0x38
1000437c:	4698      	mov	r8, r3
1000437e:	09a8      	lsrs	r0, r5, #6
10004380:	4480      	add	r8, r0
10004382:	3039      	adds	r0, #57	; 0x39
10004384:	00c1      	lsls	r1, r0, #3
10004386:	4fb1      	ldr	r7, [pc, #708]	; (1000464c <_malloc_r+0x358>)
10004388:	1879      	adds	r1, r7, r1
1000438a:	684c      	ldr	r4, [r1, #4]
1000438c:	3908      	subs	r1, #8
1000438e:	42a1      	cmp	r1, r4
10004390:	d00e      	beq.n	100043b0 <_malloc_r+0xbc>
10004392:	2303      	movs	r3, #3
10004394:	469c      	mov	ip, r3
10004396:	e004      	b.n	100043a2 <_malloc_r+0xae>
10004398:	2a00      	cmp	r2, #0
1000439a:	dacb      	bge.n	10004334 <_malloc_r+0x40>
1000439c:	68e4      	ldr	r4, [r4, #12]
1000439e:	42a1      	cmp	r1, r4
100043a0:	d006      	beq.n	100043b0 <_malloc_r+0xbc>
100043a2:	4662      	mov	r2, ip
100043a4:	6863      	ldr	r3, [r4, #4]
100043a6:	4393      	bics	r3, r2
100043a8:	1b5a      	subs	r2, r3, r5
100043aa:	2a0f      	cmp	r2, #15
100043ac:	ddf4      	ble.n	10004398 <_malloc_r+0xa4>
100043ae:	4640      	mov	r0, r8
100043b0:	003a      	movs	r2, r7
100043b2:	693c      	ldr	r4, [r7, #16]
100043b4:	3208      	adds	r2, #8
100043b6:	4294      	cmp	r4, r2
100043b8:	d100      	bne.n	100043bc <_malloc_r+0xc8>
100043ba:	e078      	b.n	100044ae <_malloc_r+0x1ba>
100043bc:	2303      	movs	r3, #3
100043be:	6861      	ldr	r1, [r4, #4]
100043c0:	4399      	bics	r1, r3
100043c2:	4689      	mov	r9, r1
100043c4:	000b      	movs	r3, r1
100043c6:	1b49      	subs	r1, r1, r5
100043c8:	290f      	cmp	r1, #15
100043ca:	dd00      	ble.n	100043ce <_malloc_r+0xda>
100043cc:	e179      	b.n	100046c2 <_malloc_r+0x3ce>
100043ce:	617a      	str	r2, [r7, #20]
100043d0:	613a      	str	r2, [r7, #16]
100043d2:	2900      	cmp	r1, #0
100043d4:	dab2      	bge.n	1000433c <_malloc_r+0x48>
100043d6:	2280      	movs	r2, #128	; 0x80
100043d8:	0092      	lsls	r2, r2, #2
100043da:	4591      	cmp	r9, r2
100043dc:	d300      	bcc.n	100043e0 <_malloc_r+0xec>
100043de:	e10e      	b.n	100045fe <_malloc_r+0x30a>
100043e0:	0959      	lsrs	r1, r3, #5
100043e2:	08da      	lsrs	r2, r3, #3
100043e4:	2301      	movs	r3, #1
100043e6:	408b      	lsls	r3, r1
100043e8:	00d2      	lsls	r2, r2, #3
100043ea:	6879      	ldr	r1, [r7, #4]
100043ec:	19d2      	adds	r2, r2, r7
100043ee:	430b      	orrs	r3, r1
100043f0:	6891      	ldr	r1, [r2, #8]
100043f2:	607b      	str	r3, [r7, #4]
100043f4:	60e2      	str	r2, [r4, #12]
100043f6:	60a1      	str	r1, [r4, #8]
100043f8:	6094      	str	r4, [r2, #8]
100043fa:	60cc      	str	r4, [r1, #12]
100043fc:	2101      	movs	r1, #1
100043fe:	1082      	asrs	r2, r0, #2
10004400:	4091      	lsls	r1, r2
10004402:	4299      	cmp	r1, r3
10004404:	d859      	bhi.n	100044ba <_malloc_r+0x1c6>
10004406:	420b      	tst	r3, r1
10004408:	d105      	bne.n	10004416 <_malloc_r+0x122>
1000440a:	2203      	movs	r2, #3
1000440c:	4390      	bics	r0, r2
1000440e:	0049      	lsls	r1, r1, #1
10004410:	3004      	adds	r0, #4
10004412:	420b      	tst	r3, r1
10004414:	d0fb      	beq.n	1000440e <_malloc_r+0x11a>
10004416:	2303      	movs	r3, #3
10004418:	4698      	mov	r8, r3
1000441a:	00c3      	lsls	r3, r0, #3
1000441c:	4699      	mov	r9, r3
1000441e:	44b9      	add	r9, r7
10004420:	46cc      	mov	ip, r9
10004422:	4682      	mov	sl, r0
10004424:	4663      	mov	r3, ip
10004426:	68dc      	ldr	r4, [r3, #12]
10004428:	45a4      	cmp	ip, r4
1000442a:	d107      	bne.n	1000443c <_malloc_r+0x148>
1000442c:	e12a      	b.n	10004684 <_malloc_r+0x390>
1000442e:	2a00      	cmp	r2, #0
10004430:	db00      	blt.n	10004434 <_malloc_r+0x140>
10004432:	e133      	b.n	1000469c <_malloc_r+0x3a8>
10004434:	68e4      	ldr	r4, [r4, #12]
10004436:	45a4      	cmp	ip, r4
10004438:	d100      	bne.n	1000443c <_malloc_r+0x148>
1000443a:	e123      	b.n	10004684 <_malloc_r+0x390>
1000443c:	4642      	mov	r2, r8
1000443e:	6863      	ldr	r3, [r4, #4]
10004440:	4393      	bics	r3, r2
10004442:	1b5a      	subs	r2, r3, r5
10004444:	2a0f      	cmp	r2, #15
10004446:	ddf2      	ble.n	1000442e <_malloc_r+0x13a>
10004448:	2001      	movs	r0, #1
1000444a:	4680      	mov	r8, r0
1000444c:	1961      	adds	r1, r4, r5
1000444e:	4305      	orrs	r5, r0
10004450:	6065      	str	r5, [r4, #4]
10004452:	68a0      	ldr	r0, [r4, #8]
10004454:	68e5      	ldr	r5, [r4, #12]
10004456:	3708      	adds	r7, #8
10004458:	60c5      	str	r5, [r0, #12]
1000445a:	60a8      	str	r0, [r5, #8]
1000445c:	4640      	mov	r0, r8
1000445e:	4310      	orrs	r0, r2
10004460:	60f9      	str	r1, [r7, #12]
10004462:	60b9      	str	r1, [r7, #8]
10004464:	6048      	str	r0, [r1, #4]
10004466:	60cf      	str	r7, [r1, #12]
10004468:	0030      	movs	r0, r6
1000446a:	608f      	str	r7, [r1, #8]
1000446c:	50e2      	str	r2, [r4, r3]
1000446e:	f000 fa09 	bl	10004884 <__malloc_unlock>
10004472:	0020      	movs	r0, r4
10004474:	3008      	adds	r0, #8
10004476:	e002      	b.n	1000447e <_malloc_r+0x18a>
10004478:	230c      	movs	r3, #12
1000447a:	2000      	movs	r0, #0
1000447c:	6033      	str	r3, [r6, #0]
1000447e:	b003      	add	sp, #12
10004480:	bc3c      	pop	{r2, r3, r4, r5}
10004482:	4690      	mov	r8, r2
10004484:	4699      	mov	r9, r3
10004486:	46a2      	mov	sl, r4
10004488:	46ab      	mov	fp, r5
1000448a:	bdf0      	pop	{r4, r5, r6, r7, pc}
1000448c:	2180      	movs	r1, #128	; 0x80
1000448e:	233f      	movs	r3, #63	; 0x3f
10004490:	2040      	movs	r0, #64	; 0x40
10004492:	4698      	mov	r8, r3
10004494:	0089      	lsls	r1, r1, #2
10004496:	e776      	b.n	10004386 <_malloc_r+0x92>
10004498:	68dc      	ldr	r4, [r3, #12]
1000449a:	3002      	adds	r0, #2
1000449c:	42a3      	cmp	r3, r4
1000449e:	d000      	beq.n	100044a2 <_malloc_r+0x1ae>
100044a0:	e744      	b.n	1000432c <_malloc_r+0x38>
100044a2:	003a      	movs	r2, r7
100044a4:	693c      	ldr	r4, [r7, #16]
100044a6:	3208      	adds	r2, #8
100044a8:	4294      	cmp	r4, r2
100044aa:	d000      	beq.n	100044ae <_malloc_r+0x1ba>
100044ac:	e786      	b.n	100043bc <_malloc_r+0xc8>
100044ae:	2101      	movs	r1, #1
100044b0:	687b      	ldr	r3, [r7, #4]
100044b2:	1082      	asrs	r2, r0, #2
100044b4:	4091      	lsls	r1, r2
100044b6:	4299      	cmp	r1, r3
100044b8:	d9a5      	bls.n	10004406 <_malloc_r+0x112>
100044ba:	2303      	movs	r3, #3
100044bc:	68bc      	ldr	r4, [r7, #8]
100044be:	6862      	ldr	r2, [r4, #4]
100044c0:	439a      	bics	r2, r3
100044c2:	4691      	mov	r9, r2
100044c4:	4295      	cmp	r5, r2
100044c6:	d803      	bhi.n	100044d0 <_malloc_r+0x1dc>
100044c8:	1b53      	subs	r3, r2, r5
100044ca:	2b0f      	cmp	r3, #15
100044cc:	dd00      	ble.n	100044d0 <_malloc_r+0x1dc>
100044ce:	e088      	b.n	100045e2 <_malloc_r+0x2ee>
100044d0:	0023      	movs	r3, r4
100044d2:	444b      	add	r3, r9
100044d4:	4a5e      	ldr	r2, [pc, #376]	; (10004650 <_malloc_r+0x35c>)
100044d6:	9301      	str	r3, [sp, #4]
100044d8:	4b5e      	ldr	r3, [pc, #376]	; (10004654 <_malloc_r+0x360>)
100044da:	4693      	mov	fp, r2
100044dc:	681b      	ldr	r3, [r3, #0]
100044de:	6812      	ldr	r2, [r2, #0]
100044e0:	18eb      	adds	r3, r5, r3
100044e2:	3201      	adds	r2, #1
100044e4:	d100      	bne.n	100044e8 <_malloc_r+0x1f4>
100044e6:	e13b      	b.n	10004760 <_malloc_r+0x46c>
100044e8:	4a5b      	ldr	r2, [pc, #364]	; (10004658 <_malloc_r+0x364>)
100044ea:	4694      	mov	ip, r2
100044ec:	4463      	add	r3, ip
100044ee:	0b1b      	lsrs	r3, r3, #12
100044f0:	031b      	lsls	r3, r3, #12
100044f2:	9300      	str	r3, [sp, #0]
100044f4:	0030      	movs	r0, r6
100044f6:	9900      	ldr	r1, [sp, #0]
100044f8:	f000 f9cc 	bl	10004894 <_sbrk_r>
100044fc:	0003      	movs	r3, r0
100044fe:	4680      	mov	r8, r0
10004500:	3301      	adds	r3, #1
10004502:	d100      	bne.n	10004506 <_malloc_r+0x212>
10004504:	e0f8      	b.n	100046f8 <_malloc_r+0x404>
10004506:	9b01      	ldr	r3, [sp, #4]
10004508:	4283      	cmp	r3, r0
1000450a:	d900      	bls.n	1000450e <_malloc_r+0x21a>
1000450c:	e0f2      	b.n	100046f4 <_malloc_r+0x400>
1000450e:	4b53      	ldr	r3, [pc, #332]	; (1000465c <_malloc_r+0x368>)
10004510:	0019      	movs	r1, r3
10004512:	469a      	mov	sl, r3
10004514:	6809      	ldr	r1, [r1, #0]
10004516:	9b00      	ldr	r3, [sp, #0]
10004518:	468c      	mov	ip, r1
1000451a:	4651      	mov	r1, sl
1000451c:	4463      	add	r3, ip
1000451e:	600b      	str	r3, [r1, #0]
10004520:	9901      	ldr	r1, [sp, #4]
10004522:	001a      	movs	r2, r3
10004524:	4281      	cmp	r1, r0
10004526:	d100      	bne.n	1000452a <_malloc_r+0x236>
10004528:	e150      	b.n	100047cc <_malloc_r+0x4d8>
1000452a:	465b      	mov	r3, fp
1000452c:	681b      	ldr	r3, [r3, #0]
1000452e:	3301      	adds	r3, #1
10004530:	d100      	bne.n	10004534 <_malloc_r+0x240>
10004532:	e155      	b.n	100047e0 <_malloc_r+0x4ec>
10004534:	4643      	mov	r3, r8
10004536:	9901      	ldr	r1, [sp, #4]
10004538:	1a5b      	subs	r3, r3, r1
1000453a:	189a      	adds	r2, r3, r2
1000453c:	4653      	mov	r3, sl
1000453e:	601a      	str	r2, [r3, #0]
10004540:	2307      	movs	r3, #7
10004542:	4642      	mov	r2, r8
10004544:	4641      	mov	r1, r8
10004546:	401a      	ands	r2, r3
10004548:	9201      	str	r2, [sp, #4]
1000454a:	4219      	tst	r1, r3
1000454c:	d100      	bne.n	10004550 <_malloc_r+0x25c>
1000454e:	e111      	b.n	10004774 <_malloc_r+0x480>
10004550:	2308      	movs	r3, #8
10004552:	4698      	mov	r8, r3
10004554:	1a88      	subs	r0, r1, r2
10004556:	4b42      	ldr	r3, [pc, #264]	; (10004660 <_malloc_r+0x36c>)
10004558:	9900      	ldr	r1, [sp, #0]
1000455a:	4480      	add	r8, r0
1000455c:	4441      	add	r1, r8
1000455e:	1a9b      	subs	r3, r3, r2
10004560:	1a5b      	subs	r3, r3, r1
10004562:	051b      	lsls	r3, r3, #20
10004564:	0d1b      	lsrs	r3, r3, #20
10004566:	9100      	str	r1, [sp, #0]
10004568:	0030      	movs	r0, r6
1000456a:	0019      	movs	r1, r3
1000456c:	469b      	mov	fp, r3
1000456e:	f000 f991 	bl	10004894 <_sbrk_r>
10004572:	1c43      	adds	r3, r0, #1
10004574:	d100      	bne.n	10004578 <_malloc_r+0x284>
10004576:	e14f      	b.n	10004818 <_malloc_r+0x524>
10004578:	4643      	mov	r3, r8
1000457a:	1ac0      	subs	r0, r0, r3
1000457c:	0003      	movs	r3, r0
1000457e:	445b      	add	r3, fp
10004580:	9300      	str	r3, [sp, #0]
10004582:	4653      	mov	r3, sl
10004584:	4652      	mov	r2, sl
10004586:	681b      	ldr	r3, [r3, #0]
10004588:	2101      	movs	r1, #1
1000458a:	445b      	add	r3, fp
1000458c:	6013      	str	r3, [r2, #0]
1000458e:	4642      	mov	r2, r8
10004590:	4640      	mov	r0, r8
10004592:	60ba      	str	r2, [r7, #8]
10004594:	9a00      	ldr	r2, [sp, #0]
10004596:	430a      	orrs	r2, r1
10004598:	6042      	str	r2, [r0, #4]
1000459a:	42bc      	cmp	r4, r7
1000459c:	d100      	bne.n	100045a0 <_malloc_r+0x2ac>
1000459e:	e123      	b.n	100047e8 <_malloc_r+0x4f4>
100045a0:	464a      	mov	r2, r9
100045a2:	2a0f      	cmp	r2, #15
100045a4:	d800      	bhi.n	100045a8 <_malloc_r+0x2b4>
100045a6:	e121      	b.n	100047ec <_malloc_r+0x4f8>
100045a8:	2007      	movs	r0, #7
100045aa:	3a0c      	subs	r2, #12
100045ac:	4382      	bics	r2, r0
100045ae:	6860      	ldr	r0, [r4, #4]
100045b0:	4001      	ands	r1, r0
100045b2:	2005      	movs	r0, #5
100045b4:	4311      	orrs	r1, r2
100045b6:	6061      	str	r1, [r4, #4]
100045b8:	18a1      	adds	r1, r4, r2
100045ba:	6048      	str	r0, [r1, #4]
100045bc:	6088      	str	r0, [r1, #8]
100045be:	2a0f      	cmp	r2, #15
100045c0:	d900      	bls.n	100045c4 <_malloc_r+0x2d0>
100045c2:	e134      	b.n	1000482e <_malloc_r+0x53a>
100045c4:	4642      	mov	r2, r8
100045c6:	4644      	mov	r4, r8
100045c8:	6852      	ldr	r2, [r2, #4]
100045ca:	4926      	ldr	r1, [pc, #152]	; (10004664 <_malloc_r+0x370>)
100045cc:	6808      	ldr	r0, [r1, #0]
100045ce:	4298      	cmp	r0, r3
100045d0:	d200      	bcs.n	100045d4 <_malloc_r+0x2e0>
100045d2:	600b      	str	r3, [r1, #0]
100045d4:	4924      	ldr	r1, [pc, #144]	; (10004668 <_malloc_r+0x374>)
100045d6:	6808      	ldr	r0, [r1, #0]
100045d8:	4298      	cmp	r0, r3
100045da:	d300      	bcc.n	100045de <_malloc_r+0x2ea>
100045dc:	e08e      	b.n	100046fc <_malloc_r+0x408>
100045de:	600b      	str	r3, [r1, #0]
100045e0:	e08c      	b.n	100046fc <_malloc_r+0x408>
100045e2:	2201      	movs	r2, #1
100045e4:	0029      	movs	r1, r5
100045e6:	4313      	orrs	r3, r2
100045e8:	4311      	orrs	r1, r2
100045ea:	1965      	adds	r5, r4, r5
100045ec:	6061      	str	r1, [r4, #4]
100045ee:	0030      	movs	r0, r6
100045f0:	60bd      	str	r5, [r7, #8]
100045f2:	606b      	str	r3, [r5, #4]
100045f4:	f000 f946 	bl	10004884 <__malloc_unlock>
100045f8:	0020      	movs	r0, r4
100045fa:	3008      	adds	r0, #8
100045fc:	e73f      	b.n	1000447e <_malloc_r+0x18a>
100045fe:	0a5a      	lsrs	r2, r3, #9
10004600:	2a04      	cmp	r2, #4
10004602:	d971      	bls.n	100046e8 <_malloc_r+0x3f4>
10004604:	2a14      	cmp	r2, #20
10004606:	d900      	bls.n	1000460a <_malloc_r+0x316>
10004608:	e0c4      	b.n	10004794 <_malloc_r+0x4a0>
1000460a:	0011      	movs	r1, r2
1000460c:	325c      	adds	r2, #92	; 0x5c
1000460e:	315b      	adds	r1, #91	; 0x5b
10004610:	00d2      	lsls	r2, r2, #3
10004612:	2308      	movs	r3, #8
10004614:	425b      	negs	r3, r3
10004616:	469c      	mov	ip, r3
10004618:	18ba      	adds	r2, r7, r2
1000461a:	4494      	add	ip, r2
1000461c:	4663      	mov	r3, ip
1000461e:	689a      	ldr	r2, [r3, #8]
10004620:	2303      	movs	r3, #3
10004622:	4698      	mov	r8, r3
10004624:	4594      	cmp	ip, r2
10004626:	d100      	bne.n	1000462a <_malloc_r+0x336>
10004628:	e09d      	b.n	10004766 <_malloc_r+0x472>
1000462a:	4643      	mov	r3, r8
1000462c:	6851      	ldr	r1, [r2, #4]
1000462e:	4399      	bics	r1, r3
10004630:	4549      	cmp	r1, r9
10004632:	d902      	bls.n	1000463a <_malloc_r+0x346>
10004634:	6892      	ldr	r2, [r2, #8]
10004636:	4594      	cmp	ip, r2
10004638:	d1f7      	bne.n	1000462a <_malloc_r+0x336>
1000463a:	68d3      	ldr	r3, [r2, #12]
1000463c:	469c      	mov	ip, r3
1000463e:	687b      	ldr	r3, [r7, #4]
10004640:	4661      	mov	r1, ip
10004642:	60a2      	str	r2, [r4, #8]
10004644:	60e1      	str	r1, [r4, #12]
10004646:	608c      	str	r4, [r1, #8]
10004648:	60d4      	str	r4, [r2, #12]
1000464a:	e6d7      	b.n	100043fc <_malloc_r+0x108>
1000464c:	20000640 	.word	0x20000640
10004650:	20000a48 	.word	0x20000a48
10004654:	20000ab8 	.word	0x20000ab8
10004658:	0000100f 	.word	0x0000100f
1000465c:	20000a88 	.word	0x20000a88
10004660:	00001008 	.word	0x00001008
10004664:	20000ab0 	.word	0x20000ab0
10004668:	20000ab4 	.word	0x20000ab4
1000466c:	2814      	cmp	r0, #20
1000466e:	d952      	bls.n	10004716 <_malloc_r+0x422>
10004670:	2854      	cmp	r0, #84	; 0x54
10004672:	d900      	bls.n	10004676 <_malloc_r+0x382>
10004674:	e096      	b.n	100047a4 <_malloc_r+0x4b0>
10004676:	236e      	movs	r3, #110	; 0x6e
10004678:	4698      	mov	r8, r3
1000467a:	0b28      	lsrs	r0, r5, #12
1000467c:	4480      	add	r8, r0
1000467e:	306f      	adds	r0, #111	; 0x6f
10004680:	00c1      	lsls	r1, r0, #3
10004682:	e680      	b.n	10004386 <_malloc_r+0x92>
10004684:	2308      	movs	r3, #8
10004686:	469b      	mov	fp, r3
10004688:	3b07      	subs	r3, #7
1000468a:	44dc      	add	ip, fp
1000468c:	469b      	mov	fp, r3
1000468e:	44da      	add	sl, fp
10004690:	4643      	mov	r3, r8
10004692:	4652      	mov	r2, sl
10004694:	4213      	tst	r3, r2
10004696:	d000      	beq.n	1000469a <_malloc_r+0x3a6>
10004698:	e6c4      	b.n	10004424 <_malloc_r+0x130>
1000469a:	e04c      	b.n	10004736 <_malloc_r+0x442>
1000469c:	2201      	movs	r2, #1
1000469e:	18e3      	adds	r3, r4, r3
100046a0:	6859      	ldr	r1, [r3, #4]
100046a2:	0030      	movs	r0, r6
100046a4:	430a      	orrs	r2, r1
100046a6:	605a      	str	r2, [r3, #4]
100046a8:	68e3      	ldr	r3, [r4, #12]
100046aa:	68a2      	ldr	r2, [r4, #8]
100046ac:	60d3      	str	r3, [r2, #12]
100046ae:	609a      	str	r2, [r3, #8]
100046b0:	f000 f8e8 	bl	10004884 <__malloc_unlock>
100046b4:	0020      	movs	r0, r4
100046b6:	3008      	adds	r0, #8
100046b8:	e6e1      	b.n	1000447e <_malloc_r+0x18a>
100046ba:	002b      	movs	r3, r5
100046bc:	08e8      	lsrs	r0, r5, #3
100046be:	3308      	adds	r3, #8
100046c0:	e62c      	b.n	1000431c <_malloc_r+0x28>
100046c2:	2301      	movs	r3, #1
100046c4:	1960      	adds	r0, r4, r5
100046c6:	431d      	orrs	r5, r3
100046c8:	6065      	str	r5, [r4, #4]
100046ca:	6178      	str	r0, [r7, #20]
100046cc:	6138      	str	r0, [r7, #16]
100046ce:	60c2      	str	r2, [r0, #12]
100046d0:	6082      	str	r2, [r0, #8]
100046d2:	001a      	movs	r2, r3
100046d4:	464b      	mov	r3, r9
100046d6:	430a      	orrs	r2, r1
100046d8:	6042      	str	r2, [r0, #4]
100046da:	0030      	movs	r0, r6
100046dc:	50e1      	str	r1, [r4, r3]
100046de:	f000 f8d1 	bl	10004884 <__malloc_unlock>
100046e2:	0020      	movs	r0, r4
100046e4:	3008      	adds	r0, #8
100046e6:	e6ca      	b.n	1000447e <_malloc_r+0x18a>
100046e8:	099a      	lsrs	r2, r3, #6
100046ea:	0011      	movs	r1, r2
100046ec:	3239      	adds	r2, #57	; 0x39
100046ee:	3138      	adds	r1, #56	; 0x38
100046f0:	00d2      	lsls	r2, r2, #3
100046f2:	e78e      	b.n	10004612 <_malloc_r+0x31e>
100046f4:	42bc      	cmp	r4, r7
100046f6:	d060      	beq.n	100047ba <_malloc_r+0x4c6>
100046f8:	68bc      	ldr	r4, [r7, #8]
100046fa:	6862      	ldr	r2, [r4, #4]
100046fc:	2303      	movs	r3, #3
100046fe:	439a      	bics	r2, r3
10004700:	1b53      	subs	r3, r2, r5
10004702:	4295      	cmp	r5, r2
10004704:	d802      	bhi.n	1000470c <_malloc_r+0x418>
10004706:	2b0f      	cmp	r3, #15
10004708:	dd00      	ble.n	1000470c <_malloc_r+0x418>
1000470a:	e76a      	b.n	100045e2 <_malloc_r+0x2ee>
1000470c:	0030      	movs	r0, r6
1000470e:	f000 f8b9 	bl	10004884 <__malloc_unlock>
10004712:	2000      	movs	r0, #0
10004714:	e6b3      	b.n	1000447e <_malloc_r+0x18a>
10004716:	235b      	movs	r3, #91	; 0x5b
10004718:	4698      	mov	r8, r3
1000471a:	4480      	add	r8, r0
1000471c:	305c      	adds	r0, #92	; 0x5c
1000471e:	00c1      	lsls	r1, r0, #3
10004720:	e631      	b.n	10004386 <_malloc_r+0x92>
10004722:	2308      	movs	r3, #8
10004724:	425b      	negs	r3, r3
10004726:	469c      	mov	ip, r3
10004728:	44e1      	add	r9, ip
1000472a:	464b      	mov	r3, r9
1000472c:	689b      	ldr	r3, [r3, #8]
1000472e:	3801      	subs	r0, #1
10004730:	454b      	cmp	r3, r9
10004732:	d000      	beq.n	10004736 <_malloc_r+0x442>
10004734:	e098      	b.n	10004868 <_malloc_r+0x574>
10004736:	4643      	mov	r3, r8
10004738:	4203      	tst	r3, r0
1000473a:	d1f2      	bne.n	10004722 <_malloc_r+0x42e>
1000473c:	687b      	ldr	r3, [r7, #4]
1000473e:	438b      	bics	r3, r1
10004740:	607b      	str	r3, [r7, #4]
10004742:	0049      	lsls	r1, r1, #1
10004744:	4299      	cmp	r1, r3
10004746:	d900      	bls.n	1000474a <_malloc_r+0x456>
10004748:	e6b7      	b.n	100044ba <_malloc_r+0x1c6>
1000474a:	2900      	cmp	r1, #0
1000474c:	d104      	bne.n	10004758 <_malloc_r+0x464>
1000474e:	e6b4      	b.n	100044ba <_malloc_r+0x1c6>
10004750:	2204      	movs	r2, #4
10004752:	4694      	mov	ip, r2
10004754:	0049      	lsls	r1, r1, #1
10004756:	44e2      	add	sl, ip
10004758:	420b      	tst	r3, r1
1000475a:	d0f9      	beq.n	10004750 <_malloc_r+0x45c>
1000475c:	4650      	mov	r0, sl
1000475e:	e65c      	b.n	1000441a <_malloc_r+0x126>
10004760:	3310      	adds	r3, #16
10004762:	9300      	str	r3, [sp, #0]
10004764:	e6c6      	b.n	100044f4 <_malloc_r+0x200>
10004766:	1089      	asrs	r1, r1, #2
10004768:	3b02      	subs	r3, #2
1000476a:	408b      	lsls	r3, r1
1000476c:	6879      	ldr	r1, [r7, #4]
1000476e:	430b      	orrs	r3, r1
10004770:	607b      	str	r3, [r7, #4]
10004772:	e765      	b.n	10004640 <_malloc_r+0x34c>
10004774:	9b00      	ldr	r3, [sp, #0]
10004776:	0030      	movs	r0, r6
10004778:	4443      	add	r3, r8
1000477a:	425b      	negs	r3, r3
1000477c:	051b      	lsls	r3, r3, #20
1000477e:	0d1b      	lsrs	r3, r3, #20
10004780:	0019      	movs	r1, r3
10004782:	469b      	mov	fp, r3
10004784:	f000 f886 	bl	10004894 <_sbrk_r>
10004788:	1c43      	adds	r3, r0, #1
1000478a:	d000      	beq.n	1000478e <_malloc_r+0x49a>
1000478c:	e6f4      	b.n	10004578 <_malloc_r+0x284>
1000478e:	2300      	movs	r3, #0
10004790:	469b      	mov	fp, r3
10004792:	e6f6      	b.n	10004582 <_malloc_r+0x28e>
10004794:	2a54      	cmp	r2, #84	; 0x54
10004796:	d82b      	bhi.n	100047f0 <_malloc_r+0x4fc>
10004798:	0b1a      	lsrs	r2, r3, #12
1000479a:	0011      	movs	r1, r2
1000479c:	326f      	adds	r2, #111	; 0x6f
1000479e:	316e      	adds	r1, #110	; 0x6e
100047a0:	00d2      	lsls	r2, r2, #3
100047a2:	e736      	b.n	10004612 <_malloc_r+0x31e>
100047a4:	23aa      	movs	r3, #170	; 0xaa
100047a6:	005b      	lsls	r3, r3, #1
100047a8:	4298      	cmp	r0, r3
100047aa:	d82b      	bhi.n	10004804 <_malloc_r+0x510>
100047ac:	3bdd      	subs	r3, #221	; 0xdd
100047ae:	4698      	mov	r8, r3
100047b0:	0be8      	lsrs	r0, r5, #15
100047b2:	4480      	add	r8, r0
100047b4:	3078      	adds	r0, #120	; 0x78
100047b6:	00c1      	lsls	r1, r0, #3
100047b8:	e5e5      	b.n	10004386 <_malloc_r+0x92>
100047ba:	4b2c      	ldr	r3, [pc, #176]	; (1000486c <_malloc_r+0x578>)
100047bc:	9a00      	ldr	r2, [sp, #0]
100047be:	469a      	mov	sl, r3
100047c0:	681b      	ldr	r3, [r3, #0]
100047c2:	469c      	mov	ip, r3
100047c4:	4653      	mov	r3, sl
100047c6:	4462      	add	r2, ip
100047c8:	601a      	str	r2, [r3, #0]
100047ca:	e6ae      	b.n	1000452a <_malloc_r+0x236>
100047cc:	0509      	lsls	r1, r1, #20
100047ce:	d000      	beq.n	100047d2 <_malloc_r+0x4de>
100047d0:	e6ab      	b.n	1000452a <_malloc_r+0x236>
100047d2:	9a00      	ldr	r2, [sp, #0]
100047d4:	68bc      	ldr	r4, [r7, #8]
100047d6:	444a      	add	r2, r9
100047d8:	3101      	adds	r1, #1
100047da:	430a      	orrs	r2, r1
100047dc:	6062      	str	r2, [r4, #4]
100047de:	e6f4      	b.n	100045ca <_malloc_r+0x2d6>
100047e0:	465b      	mov	r3, fp
100047e2:	4642      	mov	r2, r8
100047e4:	601a      	str	r2, [r3, #0]
100047e6:	e6ab      	b.n	10004540 <_malloc_r+0x24c>
100047e8:	4644      	mov	r4, r8
100047ea:	e6ee      	b.n	100045ca <_malloc_r+0x2d6>
100047ec:	6041      	str	r1, [r0, #4]
100047ee:	e78d      	b.n	1000470c <_malloc_r+0x418>
100047f0:	21aa      	movs	r1, #170	; 0xaa
100047f2:	0049      	lsls	r1, r1, #1
100047f4:	428a      	cmp	r2, r1
100047f6:	d824      	bhi.n	10004842 <_malloc_r+0x54e>
100047f8:	0bda      	lsrs	r2, r3, #15
100047fa:	0011      	movs	r1, r2
100047fc:	3278      	adds	r2, #120	; 0x78
100047fe:	3177      	adds	r1, #119	; 0x77
10004800:	00d2      	lsls	r2, r2, #3
10004802:	e706      	b.n	10004612 <_malloc_r+0x31e>
10004804:	4b1a      	ldr	r3, [pc, #104]	; (10004870 <_malloc_r+0x57c>)
10004806:	4298      	cmp	r0, r3
10004808:	d824      	bhi.n	10004854 <_malloc_r+0x560>
1000480a:	237c      	movs	r3, #124	; 0x7c
1000480c:	4698      	mov	r8, r3
1000480e:	0ca8      	lsrs	r0, r5, #18
10004810:	4480      	add	r8, r0
10004812:	307d      	adds	r0, #125	; 0x7d
10004814:	00c1      	lsls	r1, r0, #3
10004816:	e5b6      	b.n	10004386 <_malloc_r+0x92>
10004818:	9a00      	ldr	r2, [sp, #0]
1000481a:	9b01      	ldr	r3, [sp, #4]
1000481c:	4694      	mov	ip, r2
1000481e:	4642      	mov	r2, r8
10004820:	3b08      	subs	r3, #8
10004822:	4463      	add	r3, ip
10004824:	1a9b      	subs	r3, r3, r2
10004826:	9300      	str	r3, [sp, #0]
10004828:	2300      	movs	r3, #0
1000482a:	469b      	mov	fp, r3
1000482c:	e6a9      	b.n	10004582 <_malloc_r+0x28e>
1000482e:	0021      	movs	r1, r4
10004830:	0030      	movs	r0, r6
10004832:	3108      	adds	r1, #8
10004834:	f000 f8bc 	bl	100049b0 <_free_r>
10004838:	4653      	mov	r3, sl
1000483a:	68bc      	ldr	r4, [r7, #8]
1000483c:	681b      	ldr	r3, [r3, #0]
1000483e:	6862      	ldr	r2, [r4, #4]
10004840:	e6c3      	b.n	100045ca <_malloc_r+0x2d6>
10004842:	490b      	ldr	r1, [pc, #44]	; (10004870 <_malloc_r+0x57c>)
10004844:	428a      	cmp	r2, r1
10004846:	d80b      	bhi.n	10004860 <_malloc_r+0x56c>
10004848:	0c9a      	lsrs	r2, r3, #18
1000484a:	0011      	movs	r1, r2
1000484c:	327d      	adds	r2, #125	; 0x7d
1000484e:	317c      	adds	r1, #124	; 0x7c
10004850:	00d2      	lsls	r2, r2, #3
10004852:	e6de      	b.n	10004612 <_malloc_r+0x31e>
10004854:	21fe      	movs	r1, #254	; 0xfe
10004856:	237e      	movs	r3, #126	; 0x7e
10004858:	207f      	movs	r0, #127	; 0x7f
1000485a:	4698      	mov	r8, r3
1000485c:	0089      	lsls	r1, r1, #2
1000485e:	e592      	b.n	10004386 <_malloc_r+0x92>
10004860:	22fe      	movs	r2, #254	; 0xfe
10004862:	217e      	movs	r1, #126	; 0x7e
10004864:	0092      	lsls	r2, r2, #2
10004866:	e6d4      	b.n	10004612 <_malloc_r+0x31e>
10004868:	687b      	ldr	r3, [r7, #4]
1000486a:	e76a      	b.n	10004742 <_malloc_r+0x44e>
1000486c:	20000a88 	.word	0x20000a88
10004870:	00000554 	.word	0x00000554

10004874 <__malloc_lock>:
10004874:	b510      	push	{r4, lr}
10004876:	4802      	ldr	r0, [pc, #8]	; (10004880 <__malloc_lock+0xc>)
10004878:	f000 f97c 	bl	10004b74 <__retarget_lock_acquire_recursive>
1000487c:	bd10      	pop	{r4, pc}
1000487e:	46c0      	nop			; (mov r8, r8)
10004880:	20000d44 	.word	0x20000d44

10004884 <__malloc_unlock>:
10004884:	b510      	push	{r4, lr}
10004886:	4802      	ldr	r0, [pc, #8]	; (10004890 <__malloc_unlock+0xc>)
10004888:	f000 f976 	bl	10004b78 <__retarget_lock_release_recursive>
1000488c:	bd10      	pop	{r4, pc}
1000488e:	46c0      	nop			; (mov r8, r8)
10004890:	20000d44 	.word	0x20000d44

10004894 <_sbrk_r>:
10004894:	2300      	movs	r3, #0
10004896:	b570      	push	{r4, r5, r6, lr}
10004898:	4d06      	ldr	r5, [pc, #24]	; (100048b4 <_sbrk_r+0x20>)
1000489a:	0004      	movs	r4, r0
1000489c:	0008      	movs	r0, r1
1000489e:	602b      	str	r3, [r5, #0]
100048a0:	f7fc fc44 	bl	1000112c <_sbrk>
100048a4:	1c43      	adds	r3, r0, #1
100048a6:	d000      	beq.n	100048aa <_sbrk_r+0x16>
100048a8:	bd70      	pop	{r4, r5, r6, pc}
100048aa:	682b      	ldr	r3, [r5, #0]
100048ac:	2b00      	cmp	r3, #0
100048ae:	d0fb      	beq.n	100048a8 <_sbrk_r+0x14>
100048b0:	6023      	str	r3, [r4, #0]
100048b2:	e7f9      	b.n	100048a8 <_sbrk_r+0x14>
100048b4:	20000d58 	.word	0x20000d58

100048b8 <strlen>:
100048b8:	b510      	push	{r4, lr}
100048ba:	0783      	lsls	r3, r0, #30
100048bc:	d00a      	beq.n	100048d4 <strlen+0x1c>
100048be:	0003      	movs	r3, r0
100048c0:	2103      	movs	r1, #3
100048c2:	e002      	b.n	100048ca <strlen+0x12>
100048c4:	3301      	adds	r3, #1
100048c6:	420b      	tst	r3, r1
100048c8:	d005      	beq.n	100048d6 <strlen+0x1e>
100048ca:	781a      	ldrb	r2, [r3, #0]
100048cc:	2a00      	cmp	r2, #0
100048ce:	d1f9      	bne.n	100048c4 <strlen+0xc>
100048d0:	1a18      	subs	r0, r3, r0
100048d2:	bd10      	pop	{r4, pc}
100048d4:	0003      	movs	r3, r0
100048d6:	6819      	ldr	r1, [r3, #0]
100048d8:	4a0c      	ldr	r2, [pc, #48]	; (1000490c <strlen+0x54>)
100048da:	4c0d      	ldr	r4, [pc, #52]	; (10004910 <strlen+0x58>)
100048dc:	188a      	adds	r2, r1, r2
100048de:	438a      	bics	r2, r1
100048e0:	4222      	tst	r2, r4
100048e2:	d10f      	bne.n	10004904 <strlen+0x4c>
100048e4:	6859      	ldr	r1, [r3, #4]
100048e6:	4a09      	ldr	r2, [pc, #36]	; (1000490c <strlen+0x54>)
100048e8:	3304      	adds	r3, #4
100048ea:	188a      	adds	r2, r1, r2
100048ec:	438a      	bics	r2, r1
100048ee:	4222      	tst	r2, r4
100048f0:	d108      	bne.n	10004904 <strlen+0x4c>
100048f2:	6859      	ldr	r1, [r3, #4]
100048f4:	4a05      	ldr	r2, [pc, #20]	; (1000490c <strlen+0x54>)
100048f6:	3304      	adds	r3, #4
100048f8:	188a      	adds	r2, r1, r2
100048fa:	438a      	bics	r2, r1
100048fc:	4222      	tst	r2, r4
100048fe:	d0f1      	beq.n	100048e4 <strlen+0x2c>
10004900:	e000      	b.n	10004904 <strlen+0x4c>
10004902:	3301      	adds	r3, #1
10004904:	781a      	ldrb	r2, [r3, #0]
10004906:	2a00      	cmp	r2, #0
10004908:	d1fb      	bne.n	10004902 <strlen+0x4a>
1000490a:	e7e1      	b.n	100048d0 <strlen+0x18>
1000490c:	fefefeff 	.word	0xfefefeff
10004910:	80808080 	.word	0x80808080

10004914 <_malloc_trim_r>:
10004914:	b5f8      	push	{r3, r4, r5, r6, r7, lr}
10004916:	000c      	movs	r4, r1
10004918:	0005      	movs	r5, r0
1000491a:	f7ff ffab 	bl	10004874 <__malloc_lock>
1000491e:	4f20      	ldr	r7, [pc, #128]	; (100049a0 <_malloc_trim_r+0x8c>)
10004920:	68bb      	ldr	r3, [r7, #8]
10004922:	685e      	ldr	r6, [r3, #4]
10004924:	2303      	movs	r3, #3
10004926:	439e      	bics	r6, r3
10004928:	4b1e      	ldr	r3, [pc, #120]	; (100049a4 <_malloc_trim_r+0x90>)
1000492a:	1b34      	subs	r4, r6, r4
1000492c:	469c      	mov	ip, r3
1000492e:	4464      	add	r4, ip
10004930:	0b24      	lsrs	r4, r4, #12
10004932:	3c01      	subs	r4, #1
10004934:	3311      	adds	r3, #17
10004936:	0324      	lsls	r4, r4, #12
10004938:	429c      	cmp	r4, r3
1000493a:	db07      	blt.n	1000494c <_malloc_trim_r+0x38>
1000493c:	2100      	movs	r1, #0
1000493e:	0028      	movs	r0, r5
10004940:	f7ff ffa8 	bl	10004894 <_sbrk_r>
10004944:	68bb      	ldr	r3, [r7, #8]
10004946:	199b      	adds	r3, r3, r6
10004948:	4298      	cmp	r0, r3
1000494a:	d004      	beq.n	10004956 <_malloc_trim_r+0x42>
1000494c:	0028      	movs	r0, r5
1000494e:	f7ff ff99 	bl	10004884 <__malloc_unlock>
10004952:	2000      	movs	r0, #0
10004954:	bdf8      	pop	{r3, r4, r5, r6, r7, pc}
10004956:	0028      	movs	r0, r5
10004958:	4261      	negs	r1, r4
1000495a:	f7ff ff9b 	bl	10004894 <_sbrk_r>
1000495e:	1c43      	adds	r3, r0, #1
10004960:	d00d      	beq.n	1000497e <_malloc_trim_r+0x6a>
10004962:	2201      	movs	r2, #1
10004964:	68bb      	ldr	r3, [r7, #8]
10004966:	1b36      	subs	r6, r6, r4
10004968:	4316      	orrs	r6, r2
1000496a:	605e      	str	r6, [r3, #4]
1000496c:	4b0e      	ldr	r3, [pc, #56]	; (100049a8 <_malloc_trim_r+0x94>)
1000496e:	0028      	movs	r0, r5
10004970:	681a      	ldr	r2, [r3, #0]
10004972:	1b14      	subs	r4, r2, r4
10004974:	601c      	str	r4, [r3, #0]
10004976:	f7ff ff85 	bl	10004884 <__malloc_unlock>
1000497a:	2001      	movs	r0, #1
1000497c:	e7ea      	b.n	10004954 <_malloc_trim_r+0x40>
1000497e:	2100      	movs	r1, #0
10004980:	0028      	movs	r0, r5
10004982:	f7ff ff87 	bl	10004894 <_sbrk_r>
10004986:	68ba      	ldr	r2, [r7, #8]
10004988:	1a83      	subs	r3, r0, r2
1000498a:	2b0f      	cmp	r3, #15
1000498c:	ddde      	ble.n	1000494c <_malloc_trim_r+0x38>
1000498e:	4907      	ldr	r1, [pc, #28]	; (100049ac <_malloc_trim_r+0x98>)
10004990:	6809      	ldr	r1, [r1, #0]
10004992:	1a40      	subs	r0, r0, r1
10004994:	4904      	ldr	r1, [pc, #16]	; (100049a8 <_malloc_trim_r+0x94>)
10004996:	6008      	str	r0, [r1, #0]
10004998:	2101      	movs	r1, #1
1000499a:	430b      	orrs	r3, r1
1000499c:	6053      	str	r3, [r2, #4]
1000499e:	e7d5      	b.n	1000494c <_malloc_trim_r+0x38>
100049a0:	20000640 	.word	0x20000640
100049a4:	00000fef 	.word	0x00000fef
100049a8:	20000a88 	.word	0x20000a88
100049ac:	20000a48 	.word	0x20000a48

100049b0 <_free_r>:
100049b0:	b5f0      	push	{r4, r5, r6, r7, lr}
100049b2:	46c6      	mov	lr, r8
100049b4:	0005      	movs	r5, r0
100049b6:	000c      	movs	r4, r1
100049b8:	b500      	push	{lr}
100049ba:	2900      	cmp	r1, #0
100049bc:	d04f      	beq.n	10004a5e <_free_r+0xae>
100049be:	f7ff ff59 	bl	10004874 <__malloc_lock>
100049c2:	0021      	movs	r1, r4
100049c4:	3908      	subs	r1, #8
100049c6:	684c      	ldr	r4, [r1, #4]
100049c8:	2601      	movs	r6, #1
100049ca:	0022      	movs	r2, r4
100049cc:	2003      	movs	r0, #3
100049ce:	43b2      	bics	r2, r6
100049d0:	188f      	adds	r7, r1, r2
100049d2:	687b      	ldr	r3, [r7, #4]
100049d4:	4383      	bics	r3, r0
100049d6:	4862      	ldr	r0, [pc, #392]	; (10004b60 <_free_r+0x1b0>)
100049d8:	4698      	mov	r8, r3
100049da:	6883      	ldr	r3, [r0, #8]
100049dc:	42bb      	cmp	r3, r7
100049de:	d06b      	beq.n	10004ab8 <_free_r+0x108>
100049e0:	4643      	mov	r3, r8
100049e2:	607b      	str	r3, [r7, #4]
100049e4:	4226      	tst	r6, r4
100049e6:	d11e      	bne.n	10004a26 <_free_r+0x76>
100049e8:	2308      	movs	r3, #8
100049ea:	469c      	mov	ip, r3
100049ec:	680c      	ldr	r4, [r1, #0]
100049ee:	4484      	add	ip, r0
100049f0:	1b09      	subs	r1, r1, r4
100049f2:	1912      	adds	r2, r2, r4
100049f4:	688c      	ldr	r4, [r1, #8]
100049f6:	4564      	cmp	r4, ip
100049f8:	d04f      	beq.n	10004a9a <_free_r+0xea>
100049fa:	68cb      	ldr	r3, [r1, #12]
100049fc:	60e3      	str	r3, [r4, #12]
100049fe:	609c      	str	r4, [r3, #8]
10004a00:	4643      	mov	r3, r8
10004a02:	18fc      	adds	r4, r7, r3
10004a04:	6864      	ldr	r4, [r4, #4]
10004a06:	4234      	tst	r4, r6
10004a08:	d111      	bne.n	10004a2e <_free_r+0x7e>
10004a0a:	68bb      	ldr	r3, [r7, #8]
10004a0c:	4c55      	ldr	r4, [pc, #340]	; (10004b64 <_free_r+0x1b4>)
10004a0e:	4442      	add	r2, r8
10004a10:	42a3      	cmp	r3, r4
10004a12:	d100      	bne.n	10004a16 <_free_r+0x66>
10004a14:	e07f      	b.n	10004b16 <_free_r+0x166>
10004a16:	68fc      	ldr	r4, [r7, #12]
10004a18:	60dc      	str	r4, [r3, #12]
10004a1a:	60a3      	str	r3, [r4, #8]
10004a1c:	2301      	movs	r3, #1
10004a1e:	4313      	orrs	r3, r2
10004a20:	604b      	str	r3, [r1, #4]
10004a22:	508a      	str	r2, [r1, r2]
10004a24:	e006      	b.n	10004a34 <_free_r+0x84>
10004a26:	18fc      	adds	r4, r7, r3
10004a28:	6864      	ldr	r4, [r4, #4]
10004a2a:	4234      	tst	r4, r6
10004a2c:	d0ed      	beq.n	10004a0a <_free_r+0x5a>
10004a2e:	4316      	orrs	r6, r2
10004a30:	604e      	str	r6, [r1, #4]
10004a32:	603a      	str	r2, [r7, #0]
10004a34:	2380      	movs	r3, #128	; 0x80
10004a36:	009b      	lsls	r3, r3, #2
10004a38:	429a      	cmp	r2, r3
10004a3a:	d213      	bcs.n	10004a64 <_free_r+0xb4>
10004a3c:	0954      	lsrs	r4, r2, #5
10004a3e:	08d3      	lsrs	r3, r2, #3
10004a40:	2201      	movs	r2, #1
10004a42:	40a2      	lsls	r2, r4
10004a44:	6844      	ldr	r4, [r0, #4]
10004a46:	00db      	lsls	r3, r3, #3
10004a48:	4322      	orrs	r2, r4
10004a4a:	6042      	str	r2, [r0, #4]
10004a4c:	1818      	adds	r0, r3, r0
10004a4e:	6883      	ldr	r3, [r0, #8]
10004a50:	60c8      	str	r0, [r1, #12]
10004a52:	608b      	str	r3, [r1, #8]
10004a54:	6081      	str	r1, [r0, #8]
10004a56:	60d9      	str	r1, [r3, #12]
10004a58:	0028      	movs	r0, r5
10004a5a:	f7ff ff13 	bl	10004884 <__malloc_unlock>
10004a5e:	bc04      	pop	{r2}
10004a60:	4690      	mov	r8, r2
10004a62:	bdf0      	pop	{r4, r5, r6, r7, pc}
10004a64:	0a53      	lsrs	r3, r2, #9
10004a66:	2b04      	cmp	r3, #4
10004a68:	d83f      	bhi.n	10004aea <_free_r+0x13a>
10004a6a:	0994      	lsrs	r4, r2, #6
10004a6c:	0026      	movs	r6, r4
10004a6e:	3439      	adds	r4, #57	; 0x39
10004a70:	3638      	adds	r6, #56	; 0x38
10004a72:	00e4      	lsls	r4, r4, #3
10004a74:	1904      	adds	r4, r0, r4
10004a76:	6823      	ldr	r3, [r4, #0]
10004a78:	3c08      	subs	r4, #8
10004a7a:	2703      	movs	r7, #3
10004a7c:	429c      	cmp	r4, r3
10004a7e:	d043      	beq.n	10004b08 <_free_r+0x158>
10004a80:	6858      	ldr	r0, [r3, #4]
10004a82:	43b8      	bics	r0, r7
10004a84:	4290      	cmp	r0, r2
10004a86:	d902      	bls.n	10004a8e <_free_r+0xde>
10004a88:	689b      	ldr	r3, [r3, #8]
10004a8a:	429c      	cmp	r4, r3
10004a8c:	d1f8      	bne.n	10004a80 <_free_r+0xd0>
10004a8e:	68dc      	ldr	r4, [r3, #12]
10004a90:	60cc      	str	r4, [r1, #12]
10004a92:	608b      	str	r3, [r1, #8]
10004a94:	60a1      	str	r1, [r4, #8]
10004a96:	60d9      	str	r1, [r3, #12]
10004a98:	e7de      	b.n	10004a58 <_free_r+0xa8>
10004a9a:	4643      	mov	r3, r8
10004a9c:	18f8      	adds	r0, r7, r3
10004a9e:	6840      	ldr	r0, [r0, #4]
10004aa0:	4230      	tst	r0, r6
10004aa2:	d158      	bne.n	10004b56 <_free_r+0x1a6>
10004aa4:	0013      	movs	r3, r2
10004aa6:	68b8      	ldr	r0, [r7, #8]
10004aa8:	68fa      	ldr	r2, [r7, #12]
10004aaa:	4443      	add	r3, r8
10004aac:	431e      	orrs	r6, r3
10004aae:	60c2      	str	r2, [r0, #12]
10004ab0:	6090      	str	r0, [r2, #8]
10004ab2:	604e      	str	r6, [r1, #4]
10004ab4:	50cb      	str	r3, [r1, r3]
10004ab6:	e7cf      	b.n	10004a58 <_free_r+0xa8>
10004ab8:	0013      	movs	r3, r2
10004aba:	4443      	add	r3, r8
10004abc:	4226      	tst	r6, r4
10004abe:	d106      	bne.n	10004ace <_free_r+0x11e>
10004ac0:	680a      	ldr	r2, [r1, #0]
10004ac2:	1a89      	subs	r1, r1, r2
10004ac4:	688c      	ldr	r4, [r1, #8]
10004ac6:	189b      	adds	r3, r3, r2
10004ac8:	68ca      	ldr	r2, [r1, #12]
10004aca:	60e2      	str	r2, [r4, #12]
10004acc:	6094      	str	r4, [r2, #8]
10004ace:	2201      	movs	r2, #1
10004ad0:	431a      	orrs	r2, r3
10004ad2:	604a      	str	r2, [r1, #4]
10004ad4:	4a24      	ldr	r2, [pc, #144]	; (10004b68 <_free_r+0x1b8>)
10004ad6:	6081      	str	r1, [r0, #8]
10004ad8:	6812      	ldr	r2, [r2, #0]
10004ada:	429a      	cmp	r2, r3
10004adc:	d8bc      	bhi.n	10004a58 <_free_r+0xa8>
10004ade:	4b23      	ldr	r3, [pc, #140]	; (10004b6c <_free_r+0x1bc>)
10004ae0:	0028      	movs	r0, r5
10004ae2:	6819      	ldr	r1, [r3, #0]
10004ae4:	f7ff ff16 	bl	10004914 <_malloc_trim_r>
10004ae8:	e7b6      	b.n	10004a58 <_free_r+0xa8>
10004aea:	2b14      	cmp	r3, #20
10004aec:	d907      	bls.n	10004afe <_free_r+0x14e>
10004aee:	2b54      	cmp	r3, #84	; 0x54
10004af0:	d81a      	bhi.n	10004b28 <_free_r+0x178>
10004af2:	0b14      	lsrs	r4, r2, #12
10004af4:	0026      	movs	r6, r4
10004af6:	346f      	adds	r4, #111	; 0x6f
10004af8:	366e      	adds	r6, #110	; 0x6e
10004afa:	00e4      	lsls	r4, r4, #3
10004afc:	e7ba      	b.n	10004a74 <_free_r+0xc4>
10004afe:	001e      	movs	r6, r3
10004b00:	335c      	adds	r3, #92	; 0x5c
10004b02:	365b      	adds	r6, #91	; 0x5b
10004b04:	00dc      	lsls	r4, r3, #3
10004b06:	e7b5      	b.n	10004a74 <_free_r+0xc4>
10004b08:	2201      	movs	r2, #1
10004b0a:	10b6      	asrs	r6, r6, #2
10004b0c:	40b2      	lsls	r2, r6
10004b0e:	6846      	ldr	r6, [r0, #4]
10004b10:	4332      	orrs	r2, r6
10004b12:	6042      	str	r2, [r0, #4]
10004b14:	e7bc      	b.n	10004a90 <_free_r+0xe0>
10004b16:	60d9      	str	r1, [r3, #12]
10004b18:	6099      	str	r1, [r3, #8]
10004b1a:	60cb      	str	r3, [r1, #12]
10004b1c:	608b      	str	r3, [r1, #8]
10004b1e:	2301      	movs	r3, #1
10004b20:	4313      	orrs	r3, r2
10004b22:	604b      	str	r3, [r1, #4]
10004b24:	508a      	str	r2, [r1, r2]
10004b26:	e797      	b.n	10004a58 <_free_r+0xa8>
10004b28:	24aa      	movs	r4, #170	; 0xaa
10004b2a:	0064      	lsls	r4, r4, #1
10004b2c:	42a3      	cmp	r3, r4
10004b2e:	d805      	bhi.n	10004b3c <_free_r+0x18c>
10004b30:	0bd4      	lsrs	r4, r2, #15
10004b32:	0026      	movs	r6, r4
10004b34:	3478      	adds	r4, #120	; 0x78
10004b36:	3677      	adds	r6, #119	; 0x77
10004b38:	00e4      	lsls	r4, r4, #3
10004b3a:	e79b      	b.n	10004a74 <_free_r+0xc4>
10004b3c:	4c0c      	ldr	r4, [pc, #48]	; (10004b70 <_free_r+0x1c0>)
10004b3e:	42a3      	cmp	r3, r4
10004b40:	d805      	bhi.n	10004b4e <_free_r+0x19e>
10004b42:	0c94      	lsrs	r4, r2, #18
10004b44:	0026      	movs	r6, r4
10004b46:	347d      	adds	r4, #125	; 0x7d
10004b48:	367c      	adds	r6, #124	; 0x7c
10004b4a:	00e4      	lsls	r4, r4, #3
10004b4c:	e792      	b.n	10004a74 <_free_r+0xc4>
10004b4e:	24fe      	movs	r4, #254	; 0xfe
10004b50:	267e      	movs	r6, #126	; 0x7e
10004b52:	00a4      	lsls	r4, r4, #2
10004b54:	e78e      	b.n	10004a74 <_free_r+0xc4>
10004b56:	0033      	movs	r3, r6
10004b58:	4313      	orrs	r3, r2
10004b5a:	604b      	str	r3, [r1, #4]
10004b5c:	603a      	str	r2, [r7, #0]
10004b5e:	e77b      	b.n	10004a58 <_free_r+0xa8>
10004b60:	20000640 	.word	0x20000640
10004b64:	20000648 	.word	0x20000648
10004b68:	20000a4c 	.word	0x20000a4c
10004b6c:	20000ab8 	.word	0x20000ab8
10004b70:	00000554 	.word	0x00000554

10004b74 <__retarget_lock_acquire_recursive>:
10004b74:	4770      	bx	lr
10004b76:	46c0      	nop			; (mov r8, r8)

10004b78 <__retarget_lock_release_recursive>:
10004b78:	4770      	bx	lr
10004b7a:	46c0      	nop			; (mov r8, r8)

10004b7c <_fini>:
10004b7c:	b5f8      	push	{r3, r4, r5, r6, r7, lr}
10004b7e:	46c0      	nop			; (mov r8, r8)

10004b80 <__mutex_exit_veneer>:
10004b80:	b401      	push	{r0}
10004b82:	4802      	ldr	r0, [pc, #8]	; (10004b8c <__mutex_exit_veneer+0xc>)
10004b84:	4684      	mov	ip, r0
10004b86:	bc01      	pop	{r0}
10004b88:	4760      	bx	ip
10004b8a:	bf00      	nop
10004b8c:	2000015d 	.word	0x2000015d

10004b90 <____aeabi_ldiv0_veneer>:
10004b90:	b401      	push	{r0}
10004b92:	4802      	ldr	r0, [pc, #8]	; (10004b9c <____aeabi_ldiv0_veneer+0xc>)
10004b94:	4684      	mov	ip, r0
10004b96:	bc01      	pop	{r0}
10004b98:	4760      	bx	ip
10004b9a:	bf00      	nop
10004b9c:	20000185 	.word	0x20000185

10004ba0 <____aeabi_idiv0_veneer>:
10004ba0:	b401      	push	{r0}
10004ba2:	4802      	ldr	r0, [pc, #8]	; (10004bac <____aeabi_idiv0_veneer+0xc>)
10004ba4:	4684      	mov	ip, r0
10004ba6:	bc01      	pop	{r0}
10004ba8:	4760      	bx	ip
10004baa:	bf00      	nop
10004bac:	20000185 	.word	0x20000185

10004bb0 <__mutex_try_enter_veneer>:
10004bb0:	b401      	push	{r0}
10004bb2:	4802      	ldr	r0, [pc, #8]	; (10004bbc <__mutex_try_enter_veneer+0xc>)
10004bb4:	4684      	mov	ip, r0
10004bb6:	bc01      	pop	{r0}
10004bb8:	4760      	bx	ip
10004bba:	bf00      	nop
10004bbc:	20000111 	.word	0x20000111

10004bc0 <__mutex_enter_blocking_veneer>:
10004bc0:	b401      	push	{r0}
10004bc2:	4802      	ldr	r0, [pc, #8]	; (10004bcc <__mutex_enter_blocking_veneer+0xc>)
10004bc4:	4684      	mov	ip, r0
10004bc6:	bc01      	pop	{r0}
10004bc8:	4760      	bx	ip
10004bca:	bf00      	nop
10004bcc:	200000c1 	.word	0x200000c1

Disassembly of section .data:

200000c0 <mutex_enter_blocking>:
200000c0:	b510      	push	{r4, lr}
200000c2:	6802      	ldr	r2, [r0, #0]
200000c4:	2400      	movs	r4, #0
200000c6:	f3ef 8110 	mrs	r1, PRIMASK
200000ca:	b672      	cpsid	i
200000cc:	6813      	ldr	r3, [r2, #0]
200000ce:	2b00      	cmp	r3, #0
200000d0:	d0fc      	beq.n	200000cc <mutex_enter_blocking+0xc>
200000d2:	f3bf 8f5f 	dmb	sy
200000d6:	7903      	ldrb	r3, [r0, #4]
200000d8:	2b00      	cmp	r3, #0
200000da:	d00b      	beq.n	200000f4 <mutex_enter_blocking+0x34>
200000dc:	6803      	ldr	r3, [r0, #0]
200000de:	f3bf 8f5f 	dmb	sy
200000e2:	601c      	str	r4, [r3, #0]
200000e4:	f381 8810 	msr	PRIMASK, r1
200000e8:	bf20      	wfe
200000ea:	6802      	ldr	r2, [r0, #0]
200000ec:	f3ef 8110 	mrs	r1, PRIMASK
200000f0:	b672      	cpsid	i
200000f2:	e7eb      	b.n	200000cc <mutex_enter_blocking+0xc>
200000f4:	2201      	movs	r2, #1
200000f6:	7102      	strb	r2, [r0, #4]
200000f8:	22d0      	movs	r2, #208	; 0xd0
200000fa:	0612      	lsls	r2, r2, #24
200000fc:	6812      	ldr	r2, [r2, #0]
200000fe:	7142      	strb	r2, [r0, #5]
20000100:	6802      	ldr	r2, [r0, #0]
20000102:	f3bf 8f5f 	dmb	sy
20000106:	6013      	str	r3, [r2, #0]
20000108:	f381 8810 	msr	PRIMASK, r1
2000010c:	bd10      	pop	{r4, pc}
2000010e:	46c0      	nop			; (mov r8, r8)

20000110 <mutex_try_enter>:
20000110:	0003      	movs	r3, r0
20000112:	b510      	push	{r4, lr}
20000114:	6800      	ldr	r0, [r0, #0]
20000116:	f3ef 8410 	mrs	r4, PRIMASK
2000011a:	b672      	cpsid	i
2000011c:	6802      	ldr	r2, [r0, #0]
2000011e:	2a00      	cmp	r2, #0
20000120:	d0fc      	beq.n	2000011c <mutex_try_enter+0xc>
20000122:	f3bf 8f5f 	dmb	sy
20000126:	791a      	ldrb	r2, [r3, #4]
20000128:	2a00      	cmp	r2, #0
2000012a:	d00d      	beq.n	20000148 <mutex_try_enter+0x38>
2000012c:	2900      	cmp	r1, #0
2000012e:	d013      	beq.n	20000158 <mutex_try_enter+0x48>
20000130:	2205      	movs	r2, #5
20000132:	2000      	movs	r0, #0
20000134:	569a      	ldrsb	r2, [r3, r2]
20000136:	600a      	str	r2, [r1, #0]
20000138:	681b      	ldr	r3, [r3, #0]
2000013a:	f3bf 8f5f 	dmb	sy
2000013e:	2200      	movs	r2, #0
20000140:	601a      	str	r2, [r3, #0]
20000142:	f384 8810 	msr	PRIMASK, r4
20000146:	bd10      	pop	{r4, pc}
20000148:	3201      	adds	r2, #1
2000014a:	711a      	strb	r2, [r3, #4]
2000014c:	22d0      	movs	r2, #208	; 0xd0
2000014e:	0612      	lsls	r2, r2, #24
20000150:	6812      	ldr	r2, [r2, #0]
20000152:	2001      	movs	r0, #1
20000154:	715a      	strb	r2, [r3, #5]
20000156:	e7ef      	b.n	20000138 <mutex_try_enter+0x28>
20000158:	2000      	movs	r0, #0
2000015a:	e7ed      	b.n	20000138 <mutex_try_enter+0x28>

2000015c <mutex_exit>:
2000015c:	6802      	ldr	r2, [r0, #0]
2000015e:	f3ef 8110 	mrs	r1, PRIMASK
20000162:	b672      	cpsid	i
20000164:	6813      	ldr	r3, [r2, #0]
20000166:	2b00      	cmp	r3, #0
20000168:	d0fc      	beq.n	20000164 <mutex_exit+0x8>
2000016a:	f3bf 8f5f 	dmb	sy
2000016e:	2300      	movs	r3, #0
20000170:	7103      	strb	r3, [r0, #4]
20000172:	bf40      	sev
20000174:	6802      	ldr	r2, [r0, #0]
20000176:	f3bf 8f5f 	dmb	sy
2000017a:	6013      	str	r3, [r2, #0]
2000017c:	f381 8810 	msr	PRIMASK, r1
20000180:	4770      	bx	lr
20000182:	46c0      	nop			; (mov r8, r8)

20000184 <__aeabi_idiv0>:
20000184:	4770      	bx	lr
20000186:	46c0      	nop			; (mov r8, r8)

20000188 <striped_spin_lock_num>:
20000188:	0010 0000                                   ....

2000018c <irq_handler_chain_slots>:
2000018c:	00000000 	.word	0x00000000
20000190:	00010000 	.word	0x00010000
	...
2000019c:	00020000 	.word	0x00020000
	...
200001a8:	00030000 	.word	0x00030000
	...
200001b4:	00ff0000 	.word	0x00ff0000
200001b8:	00000000 	.word	0x00000000

200001bc <irq_handler_chain_first_slot>:
200001bc:	b500      	push	{lr}
200001be:	6848      	ldr	r0, [r1, #4]
200001c0:	3101      	adds	r1, #1
200001c2:	468e      	mov	lr, r1
200001c4:	4700      	bx	r0

200001c6 <irq_handler_chain_remove_tail>:
200001c6:	4670      	mov	r0, lr
200001c8:	3809      	subs	r0, #9
200001ca:	4901      	ldr	r1, [pc, #4]	; (200001d0 <irq_handler_chain_remove_tail+0xa>)
200001cc:	4788      	blx	r1
200001ce:	bd00      	pop	{pc}
200001d0:	100018a5 	.word	0x100018a5
	...

200001e0 <aeabi_bits_funcs>:
200001e0:	00003350 	.word	0x00003350
200001e4:	0000334c 	.word	0x0000334c
200001e8:	00003354 	.word	0x00003354
200001ec:	00003352 	.word	0x00003352

200001f0 <aeabi_bits_funcs_end>:
200001f0:	0000534d 	.word	0x0000534d
200001f4:	0000434d 	.word	0x0000434d
200001f8:	00003453 	.word	0x00003453
200001fc:	00003443 	.word	0x00003443

20000200 <stdio_uart>:
20000200:	100041b9 00000000 100041f5 00000000     .A.......A......
20000210:	00000100                                ....

20000214 <_impure_ptr>:
20000214:	20000218                                ... 

20000218 <impure_data>:
20000218:	00000000 20000504 2000056c 200005d4     ....... l.. ... 
	...
200002c0:	00000001 00000000 abcd330e e66d1234     .........3..4.m.
200002d0:	0005deec 0000000b 00000000 00000000     ................
	...

20000640 <__malloc_av_>:
	...
20000648:	20000640 20000640 20000648 20000648     @.. @.. H.. H.. 
20000658:	20000650 20000650 20000658 20000658     P.. P.. X.. X.. 
20000668:	20000660 20000660 20000668 20000668     `.. `.. h.. h.. 
20000678:	20000670 20000670 20000678 20000678     p.. p.. x.. x.. 
20000688:	20000680 20000680 20000688 20000688     ... ... ... ... 
20000698:	20000690 20000690 20000698 20000698     ... ... ... ... 
200006a8:	200006a0 200006a0 200006a8 200006a8     ... ... ... ... 
200006b8:	200006b0 200006b0 200006b8 200006b8     ... ... ... ... 
200006c8:	200006c0 200006c0 200006c8 200006c8     ... ... ... ... 
200006d8:	200006d0 200006d0 200006d8 200006d8     ... ... ... ... 
200006e8:	200006e0 200006e0 200006e8 200006e8     ... ... ... ... 
200006f8:	200006f0 200006f0 200006f8 200006f8     ... ... ... ... 
20000708:	20000700 20000700 20000708 20000708     ... ... ... ... 
20000718:	20000710 20000710 20000718 20000718     ... ... ... ... 
20000728:	20000720 20000720 20000728 20000728      ..  .. (.. (.. 
20000738:	20000730 20000730 20000738 20000738     0.. 0.. 8.. 8.. 
20000748:	20000740 20000740 20000748 20000748     @.. @.. H.. H.. 
20000758:	20000750 20000750 20000758 20000758     P.. P.. X.. X.. 
20000768:	20000760 20000760 20000768 20000768     `.. `.. h.. h.. 
20000778:	20000770 20000770 20000778 20000778     p.. p.. x.. x.. 
20000788:	20000780 20000780 20000788 20000788     ... ... ... ... 
20000798:	20000790 20000790 20000798 20000798     ... ... ... ... 
200007a8:	200007a0 200007a0 200007a8 200007a8     ... ... ... ... 
200007b8:	200007b0 200007b0 200007b8 200007b8     ... ... ... ... 
200007c8:	200007c0 200007c0 200007c8 200007c8     ... ... ... ... 
200007d8:	200007d0 200007d0 200007d8 200007d8     ... ... ... ... 
200007e8:	200007e0 200007e0 200007e8 200007e8     ... ... ... ... 
200007f8:	200007f0 200007f0 200007f8 200007f8     ... ... ... ... 
20000808:	20000800 20000800 20000808 20000808     ... ... ... ... 
20000818:	20000810 20000810 20000818 20000818     ... ... ... ... 
20000828:	20000820 20000820 20000828 20000828      ..  .. (.. (.. 
20000838:	20000830 20000830 20000838 20000838     0.. 0.. 8.. 8.. 
20000848:	20000840 20000840 20000848 20000848     @.. @.. H.. H.. 
20000858:	20000850 20000850 20000858 20000858     P.. P.. X.. X.. 
20000868:	20000860 20000860 20000868 20000868     `.. `.. h.. h.. 
20000878:	20000870 20000870 20000878 20000878     p.. p.. x.. x.. 
20000888:	20000880 20000880 20000888 20000888     ... ... ... ... 
20000898:	20000890 20000890 20000898 20000898     ... ... ... ... 
200008a8:	200008a0 200008a0 200008a8 200008a8     ... ... ... ... 
200008b8:	200008b0 200008b0 200008b8 200008b8     ... ... ... ... 
200008c8:	200008c0 200008c0 200008c8 200008c8     ... ... ... ... 
200008d8:	200008d0 200008d0 200008d8 200008d8     ... ... ... ... 
200008e8:	200008e0 200008e0 200008e8 200008e8     ... ... ... ... 
200008f8:	200008f0 200008f0 200008f8 200008f8     ... ... ... ... 
20000908:	20000900 20000900 20000908 20000908     ... ... ... ... 
20000918:	20000910 20000910 20000918 20000918     ... ... ... ... 
20000928:	20000920 20000920 20000928 20000928      ..  .. (.. (.. 
20000938:	20000930 20000930 20000938 20000938     0.. 0.. 8.. 8.. 
20000948:	20000940 20000940 20000948 20000948     @.. @.. H.. H.. 
20000958:	20000950 20000950 20000958 20000958     P.. P.. X.. X.. 
20000968:	20000960 20000960 20000968 20000968     `.. `.. h.. h.. 
20000978:	20000970 20000970 20000978 20000978     p.. p.. x.. x.. 
20000988:	20000980 20000980 20000988 20000988     ... ... ... ... 
20000998:	20000990 20000990 20000998 20000998     ... ... ... ... 
200009a8:	200009a0 200009a0 200009a8 200009a8     ... ... ... ... 
200009b8:	200009b0 200009b0 200009b8 200009b8     ... ... ... ... 
200009c8:	200009c0 200009c0 200009c8 200009c8     ... ... ... ... 
200009d8:	200009d0 200009d0 200009d8 200009d8     ... ... ... ... 
200009e8:	200009e0 200009e0 200009e8 200009e8     ... ... ... ... 
200009f8:	200009f0 200009f0 200009f8 200009f8     ... ... ... ... 
20000a08:	20000a00 20000a00 20000a08 20000a08     ... ... ... ... 
20000a18:	20000a10 20000a10 20000a18 20000a18     ... ... ... ... 
20000a28:	20000a20 20000a20 20000a28 20000a28      ..  .. (.. (.. 
20000a38:	20000a30 20000a30 20000a38 20000a38     0.. 0.. 8.. 8.. 

20000a48 <__malloc_sbrk_base>:
20000a48:	ffffffff                                ....

20000a4c <__malloc_trim_threshold>:
20000a4c:	00020000                                ....

20000a50 <print_mutex>:
	...

20000a58 <__mutex_array_end>:
20000a58:	10003df9 	.word	0x10003df9
20000a5c:	10002fe1 	.word	0x10002fe1
20000a60:	100036d5 	.word	0x100036d5
20000a64:	10003d59 	.word	0x10003d59

20000a68 <__frame_dummy_init_array_entry>:
20000a68:	10000301                                ....
