
mpu9250_spi.elf:     file format elf32-littlearm

Sections:
Idx Name          Size      VMA       LMA       File off  Algn
  0 .boot2        00000100  10000000  10000000  00010000  2**0
                  CONTENTS, ALLOC, LOAD, READONLY, DATA
  1 .text         00004e40  10000100  10000100  00010100  2**3
                  CONTENTS, ALLOC, LOAD, READONLY, CODE
  2 .rodata       00000408  10004f40  10004f40  00014f40  2**3
                  CONTENTS, ALLOC, LOAD, READONLY, DATA
  3 .binary_info  00000024  10005348  10005348  00015348  2**2
                  CONTENTS, ALLOC, LOAD, DATA
  4 .ram_vector_table 000000c0  20000000  20000000  00020b1c  2**2
                  CONTENTS
  5 .data         00000a5c  200000c0  1000536c  000200c0  2**4
                  CONTENTS, ALLOC, LOAD, CODE
  6 .uninitialized_data 00000000  20000b1c  20000b1c  00020bdc  2**0
                  CONTENTS
  7 .scratch_x    00000000  20040000  20040000  00020bdc  2**0
                  CONTENTS
  8 .scratch_y    00000000  20041000  20041000  00020bdc  2**0
                  CONTENTS
  9 .bss          000002f0  20000b1c  20000b1c  00020b1c  2**2
                  ALLOC
 10 .heap         00000800  20000e0c  20000e0c  00020bdc  2**2
                  CONTENTS, READONLY
 11 .stack_dummy  00000800  20041000  20041000  000213e0  2**5
                  CONTENTS, READONLY
 12 .ARM.attributes 00000028  00000000  00000000  00021be0  2**0
                  CONTENTS, READONLY
 13 .comment      00000079  00000000  00000000  00021c08  2**0
                  CONTENTS, READONLY
 14 .debug_frame  000002ac  00000000  00000000  00021c84  2**2
                  CONTENTS, READONLY, DEBUGGING

mpu9250_spi.elf:     file format elf32-littlearm


Disassembly of section .text:

10000100 <__reset_start>:
10000100:	4827      	ldr	r0, [pc, #156]	; (100001a0 <__get_current_exception+0xa>)
10000102:	e000      	b.n	10000106 <__vector_entry>

10000104 <_entry_point>:
10000104:	2000      	movs	r0, #0

10000106 <__vector_entry>:
10000106:	4927      	ldr	r1, [pc, #156]	; (100001a4 <__get_current_exception+0xe>)
10000108:	6088      	str	r0, [r1, #8]
1000010a:	c806      	ldmia	r0!, {r1, r2}
1000010c:	f381 8808 	msr	MSP, r1
10000110:	4710      	bx	r2

10000112 <_reset_handler>:
10000112:	4825      	ldr	r0, [pc, #148]	; (100001a8 <__get_current_exception+0x12>)
10000114:	6800      	ldr	r0, [r0, #0]
10000116:	2800      	cmp	r0, #0
10000118:	d139      	bne.n	1000018e <wait_for_vector>
1000011a:	a412      	add	r4, pc, #72	; (adr r4, 10000164 <data_cpy_table>)
1000011c:	cc0e      	ldmia	r4!, {r1, r2, r3}
1000011e:	2900      	cmp	r1, #0
10000120:	d002      	beq.n	10000128 <_reset_handler+0x16>
10000122:	f000 f812 	bl	1000014a <data_cpy>
10000126:	e7f9      	b.n	1000011c <_reset_handler+0xa>
10000128:	4920      	ldr	r1, [pc, #128]	; (100001ac <__get_current_exception+0x16>)
1000012a:	4a21      	ldr	r2, [pc, #132]	; (100001b0 <__get_current_exception+0x1a>)
1000012c:	2000      	movs	r0, #0
1000012e:	e000      	b.n	10000132 <bss_fill_test>

10000130 <bss_fill_loop>:
10000130:	c101      	stmia	r1!, {r0}

10000132 <bss_fill_test>:
10000132:	4291      	cmp	r1, r2
10000134:	d1fc      	bne.n	10000130 <bss_fill_loop>

10000136 <platform_entry>:
10000136:	491f      	ldr	r1, [pc, #124]	; (100001b4 <__get_current_exception+0x1e>)
10000138:	4788      	blx	r1
1000013a:	491f      	ldr	r1, [pc, #124]	; (100001b8 <__get_current_exception+0x22>)
1000013c:	4788      	blx	r1
1000013e:	491f      	ldr	r1, [pc, #124]	; (100001bc <__get_current_exception+0x26>)
10000140:	4788      	blx	r1
10000142:	be00      	bkpt	0x0000
10000144:	e7fd      	b.n	10000142 <platform_entry+0xc>

10000146 <data_cpy_loop>:
10000146:	c901      	ldmia	r1!, {r0}
10000148:	c201      	stmia	r2!, {r0}

1000014a <data_cpy>:
1000014a:	429a      	cmp	r2, r3
1000014c:	d3fb      	bcc.n	10000146 <data_cpy_loop>
1000014e:	4770      	bx	lr

10000150 <binary_info_header>:
10000150:	7188ebf2 	.word	0x7188ebf2
10000154:	10005348 	.word	0x10005348
10000158:	1000536c 	.word	0x1000536c
1000015c:	10000164 	.word	0x10000164
10000160:	e71aa390 	.word	0xe71aa390

10000164 <data_cpy_table>:
10000164:	1000536c 	.word	0x1000536c
10000168:	200000c0 	.word	0x200000c0
1000016c:	20000b1c 	.word	0x20000b1c
10000170:	10005dc8 	.word	0x10005dc8
10000174:	20040000 	.word	0x20040000
10000178:	20040000 	.word	0x20040000
1000017c:	10005dc8 	.word	0x10005dc8
10000180:	20041000 	.word	0x20041000
10000184:	20041000 	.word	0x20041000
10000188:	00000000 	.word	0x00000000
1000018c:	4770      	bx	lr

1000018e <wait_for_vector>:
1000018e:	480c      	ldr	r0, [pc, #48]	; (100001c0 <__get_current_exception+0x2a>)
10000190:	f003 f848 	bl	10003224 <rom_func_lookup>
10000194:	4700      	bx	r0

10000196 <__get_current_exception>:
10000196:	f3ef 8005 	mrs	r0, IPSR
1000019a:	b2c0      	uxtb	r0, r0
1000019c:	4770      	bx	lr
1000019e:	0000      	.short	0x0000
100001a0:	10000200 	.word	0x10000200
100001a4:	e000ed00 	.word	0xe000ed00
100001a8:	d0000000 	.word	0xd0000000
100001ac:	20000b1c 	.word	0x20000b1c
100001b0:	20000e0c 	.word	0x20000e0c
100001b4:	100013b5 	.word	0x100013b5
100001b8:	10000321 	.word	0x10000321
100001bc:	100014d5 	.word	0x100014d5
100001c0:	00005657 	.word	0x00005657

100001c4 <__bi_46>:
100001c4:	50520006 5360b3ab 100052b8              ..RP..`S.R..

100001d0 <__bi_34>:
100001d0:	50520006 02031c86 100052c8              ..RP.....R..

100001dc <__bi_26>:
100001dc:	50520006 9da22254 100052d4              ..RPT"...R..

100001e8 <__bi_18>:
100001e8:	50520005 68f465de 10005dc8 00000000     ..RP.e.h.]......
	...

10000200 <__reset_end>:
10000200:	20042000 	.word	0x20042000
10000204:	10000113 	.word	0x10000113
10000208:	100002c3 	.word	0x100002c3
1000020c:	100002c5 	.word	0x100002c5
10000210:	100002c1 	.word	0x100002c1
10000214:	100002c1 	.word	0x100002c1
10000218:	100002c1 	.word	0x100002c1
1000021c:	100002c1 	.word	0x100002c1
10000220:	100002c1 	.word	0x100002c1
10000224:	100002c1 	.word	0x100002c1
10000228:	100002c1 	.word	0x100002c1
1000022c:	100002c7 	.word	0x100002c7
10000230:	100002c1 	.word	0x100002c1
10000234:	100002c1 	.word	0x100002c1
10000238:	100002c9 	.word	0x100002c9
1000023c:	100002cb 	.word	0x100002cb
10000240:	100002cd 	.word	0x100002cd
10000244:	100002cd 	.word	0x100002cd
10000248:	100002cd 	.word	0x100002cd
1000024c:	100002cd 	.word	0x100002cd
10000250:	100002cd 	.word	0x100002cd
10000254:	100002cd 	.word	0x100002cd
10000258:	100002cd 	.word	0x100002cd
1000025c:	100002cd 	.word	0x100002cd
10000260:	100002cd 	.word	0x100002cd
10000264:	100002cd 	.word	0x100002cd
10000268:	100002cd 	.word	0x100002cd
1000026c:	100002cd 	.word	0x100002cd
10000270:	100002cd 	.word	0x100002cd
10000274:	100002cd 	.word	0x100002cd
10000278:	100002cd 	.word	0x100002cd
1000027c:	100002cd 	.word	0x100002cd
10000280:	100002cd 	.word	0x100002cd
10000284:	100002cd 	.word	0x100002cd
10000288:	100002cd 	.word	0x100002cd
1000028c:	100002cd 	.word	0x100002cd
10000290:	100002cd 	.word	0x100002cd
10000294:	100002cd 	.word	0x100002cd
10000298:	100002cd 	.word	0x100002cd
1000029c:	100002cd 	.word	0x100002cd
100002a0:	100002cd 	.word	0x100002cd
100002a4:	100002cd 	.word	0x100002cd
100002a8:	100002cd 	.word	0x100002cd
100002ac:	100002cd 	.word	0x100002cd
100002b0:	100002cd 	.word	0x100002cd
100002b4:	100002cd 	.word	0x100002cd
100002b8:	100002cd 	.word	0x100002cd
100002bc:	100002cd 	.word	0x100002cd

100002c0 <isr_invalid>:
100002c0:	be00      	bkpt	0x0000

100002c2 <isr_nmi>:
100002c2:	be00      	bkpt	0x0000

100002c4 <isr_hardfault>:
100002c4:	be00      	bkpt	0x0000

100002c6 <isr_svcall>:
100002c6:	be00      	bkpt	0x0000

100002c8 <isr_pendsv>:
100002c8:	be00      	bkpt	0x0000

100002ca <isr_systick>:
100002ca:	be00      	bkpt	0x0000

100002cc <__unhandled_user_irq>:
100002cc:	f7ff ff63 	bl	10000196 <__get_current_exception>
100002d0:	3810      	subs	r0, #16

100002d2 <unhandled_user_irq_num_in_r0>:
100002d2:	be00      	bkpt	0x0000

100002d4 <_init>:
100002d4:	b5f8      	push	{r3, r4, r5, r6, r7, lr}
100002d6:	46c0      	nop			; (mov r8, r8)

100002d8 <__do_global_dtors_aux>:
100002d8:	b510      	push	{r4, lr}
100002da:	4c06      	ldr	r4, [pc, #24]	; (100002f4 <__do_global_dtors_aux+0x1c>)
100002dc:	7823      	ldrb	r3, [r4, #0]
100002de:	2b00      	cmp	r3, #0
100002e0:	d107      	bne.n	100002f2 <__do_global_dtors_aux+0x1a>
100002e2:	4b05      	ldr	r3, [pc, #20]	; (100002f8 <__do_global_dtors_aux+0x20>)
100002e4:	2b00      	cmp	r3, #0
100002e6:	d002      	beq.n	100002ee <__do_global_dtors_aux+0x16>
100002e8:	4804      	ldr	r0, [pc, #16]	; (100002fc <__do_global_dtors_aux+0x24>)
100002ea:	e000      	b.n	100002ee <__do_global_dtors_aux+0x16>
100002ec:	bf00      	nop
100002ee:	2301      	movs	r3, #1
100002f0:	7023      	strb	r3, [r4, #0]
100002f2:	bd10      	pop	{r4, pc}
100002f4:	20000b1c 	.word	0x20000b1c
100002f8:	00000000 	.word	0x00000000
100002fc:	10004f40 	.word	0x10004f40

10000300 <frame_dummy>:
10000300:	4b04      	ldr	r3, [pc, #16]	; (10000314 <frame_dummy+0x14>)
10000302:	b510      	push	{r4, lr}
10000304:	2b00      	cmp	r3, #0
10000306:	d003      	beq.n	10000310 <frame_dummy+0x10>
10000308:	4903      	ldr	r1, [pc, #12]	; (10000318 <frame_dummy+0x18>)
1000030a:	4804      	ldr	r0, [pc, #16]	; (1000031c <frame_dummy+0x1c>)
1000030c:	e000      	b.n	10000310 <frame_dummy+0x10>
1000030e:	bf00      	nop
10000310:	bd10      	pop	{r4, pc}
10000312:	46c0      	nop			; (mov r8, r8)
10000314:	00000000 	.word	0x00000000
10000318:	20000b20 	.word	0x20000b20
1000031c:	10004f40 	.word	0x10004f40

10000320 <main>:
10000320:	b5f0      	push	{r4, r5, r6, r7, lr}
10000322:	46de      	mov	lr, fp
10000324:	4657      	mov	r7, sl
10000326:	4645      	mov	r5, r8
10000328:	464e      	mov	r6, r9
1000032a:	b5e0      	push	{r5, r6, r7, lr}
1000032c:	b087      	sub	sp, #28
1000032e:	f004 f873 	bl	10004418 <stdio_init_all>
10000332:	4886      	ldr	r0, [pc, #536]	; (1000054c <main+0x22c>)
10000334:	f003 ffb4 	bl	100042a0 <__wrap_puts>
10000338:	4985      	ldr	r1, [pc, #532]	; (10000550 <main+0x230>)
1000033a:	4886      	ldr	r0, [pc, #536]	; (10000554 <main+0x234>)
1000033c:	f004 f8ca 	bl	100044d4 <spi_init>
10000340:	2101      	movs	r1, #1
10000342:	2004      	movs	r0, #4
10000344:	f000 f916 	bl	10000574 <gpio_set_function>
10000348:	2101      	movs	r1, #1
1000034a:	2006      	movs	r0, #6
1000034c:	f000 f912 	bl	10000574 <gpio_set_function>
10000350:	2101      	movs	r1, #1
10000352:	2007      	movs	r0, #7
10000354:	f000 f90e 	bl	10000574 <gpio_set_function>
10000358:	24d0      	movs	r4, #208	; 0xd0
1000035a:	2005      	movs	r0, #5
1000035c:	f000 f922 	bl	100005a4 <gpio_init>
10000360:	2720      	movs	r7, #32
10000362:	236b      	movs	r3, #107	; 0x6b
10000364:	0624      	lsls	r4, r4, #24
10000366:	ad04      	add	r5, sp, #16
10000368:	6267      	str	r7, [r4, #36]	; 0x24
1000036a:	6167      	str	r7, [r4, #20]
1000036c:	802b      	strh	r3, [r5, #0]
1000036e:	46c0      	nop			; (mov r8, r8)
10000370:	46c0      	nop			; (mov r8, r8)
10000372:	46c0      	nop			; (mov r8, r8)
10000374:	61a7      	str	r7, [r4, #24]
10000376:	46c0      	nop			; (mov r8, r8)
10000378:	46c0      	nop			; (mov r8, r8)
1000037a:	46c0      	nop			; (mov r8, r8)
1000037c:	2202      	movs	r2, #2
1000037e:	0029      	movs	r1, r5
10000380:	4874      	ldr	r0, [pc, #464]	; (10000554 <main+0x234>)
10000382:	f004 fdcd 	bl	10004f20 <__spi_write_blocking_veneer>
10000386:	46c0      	nop			; (mov r8, r8)
10000388:	46c0      	nop			; (mov r8, r8)
1000038a:	46c0      	nop			; (mov r8, r8)
1000038c:	6167      	str	r7, [r4, #20]
1000038e:	46c0      	nop			; (mov r8, r8)
10000390:	46c0      	nop			; (mov r8, r8)
10000392:	46c0      	nop			; (mov r8, r8)
10000394:	23f5      	movs	r3, #245	; 0xf5
10000396:	702b      	strb	r3, [r5, #0]
10000398:	46c0      	nop			; (mov r8, r8)
1000039a:	46c0      	nop			; (mov r8, r8)
1000039c:	46c0      	nop			; (mov r8, r8)
1000039e:	61a7      	str	r7, [r4, #24]
100003a0:	46c0      	nop			; (mov r8, r8)
100003a2:	46c0      	nop			; (mov r8, r8)
100003a4:	46c0      	nop			; (mov r8, r8)
100003a6:	2201      	movs	r2, #1
100003a8:	0029      	movs	r1, r5
100003aa:	486a      	ldr	r0, [pc, #424]	; (10000554 <main+0x234>)
100003ac:	f004 fdb8 	bl	10004f20 <__spi_write_blocking_veneer>
100003b0:	200a      	movs	r0, #10
100003b2:	f000 fc47 	bl	10000c44 <sleep_ms>
100003b6:	ab02      	add	r3, sp, #8
100003b8:	1d9e      	adds	r6, r3, #6
100003ba:	0032      	movs	r2, r6
100003bc:	2301      	movs	r3, #1
100003be:	2100      	movs	r1, #0
100003c0:	4864      	ldr	r0, [pc, #400]	; (10000554 <main+0x234>)
100003c2:	f004 fd85 	bl	10004ed0 <__spi_read_blocking_veneer>
100003c6:	46c0      	nop			; (mov r8, r8)
100003c8:	46c0      	nop			; (mov r8, r8)
100003ca:	46c0      	nop			; (mov r8, r8)
100003cc:	6167      	str	r7, [r4, #20]
100003ce:	46c0      	nop			; (mov r8, r8)
100003d0:	46c0      	nop			; (mov r8, r8)
100003d2:	46c0      	nop			; (mov r8, r8)
100003d4:	200a      	movs	r0, #10
100003d6:	f000 fc35 	bl	10000c44 <sleep_ms>
100003da:	7831      	ldrb	r1, [r6, #0]
100003dc:	485e      	ldr	r0, [pc, #376]	; (10000558 <main+0x238>)
100003de:	f004 f80f 	bl	10004400 <__wrap_printf>
100003e2:	23bb      	movs	r3, #187	; 0xbb
100003e4:	aa02      	add	r2, sp, #8
100003e6:	71d3      	strb	r3, [r2, #7]
100003e8:	46c0      	nop			; (mov r8, r8)
100003ea:	46c0      	nop			; (mov r8, r8)
100003ec:	46c0      	nop			; (mov r8, r8)
100003ee:	24d0      	movs	r4, #208	; 0xd0
100003f0:	2620      	movs	r6, #32
100003f2:	0624      	lsls	r4, r4, #24
100003f4:	61a6      	str	r6, [r4, #24]
100003f6:	46c0      	nop			; (mov r8, r8)
100003f8:	46c0      	nop			; (mov r8, r8)
100003fa:	46c0      	nop			; (mov r8, r8)
100003fc:	ab02      	add	r3, sp, #8
100003fe:	1dd9      	adds	r1, r3, #7
10000400:	2201      	movs	r2, #1
10000402:	4854      	ldr	r0, [pc, #336]	; (10000554 <main+0x234>)
10000404:	f004 fd8c 	bl	10004f20 <__spi_write_blocking_veneer>
10000408:	200a      	movs	r0, #10
1000040a:	f000 fc1b 	bl	10000c44 <sleep_ms>
1000040e:	2306      	movs	r3, #6
10000410:	002a      	movs	r2, r5
10000412:	2100      	movs	r1, #0
10000414:	484f      	ldr	r0, [pc, #316]	; (10000554 <main+0x234>)
10000416:	f004 fd5b 	bl	10004ed0 <__spi_read_blocking_veneer>
1000041a:	46c0      	nop			; (mov r8, r8)
1000041c:	46c0      	nop			; (mov r8, r8)
1000041e:	46c0      	nop			; (mov r8, r8)
10000420:	6166      	str	r6, [r4, #20]
10000422:	46c0      	nop			; (mov r8, r8)
10000424:	46c0      	nop			; (mov r8, r8)
10000426:	46c0      	nop			; (mov r8, r8)
10000428:	200a      	movs	r0, #10
1000042a:	f000 fc0b 	bl	10000c44 <sleep_ms>
1000042e:	782a      	ldrb	r2, [r5, #0]
10000430:	786b      	ldrb	r3, [r5, #1]
10000432:	0212      	lsls	r2, r2, #8
10000434:	4313      	orrs	r3, r2
10000436:	b21b      	sxth	r3, r3
10000438:	9301      	str	r3, [sp, #4]
1000043a:	78aa      	ldrb	r2, [r5, #2]
1000043c:	78eb      	ldrb	r3, [r5, #3]
1000043e:	0212      	lsls	r2, r2, #8
10000440:	4313      	orrs	r3, r2
10000442:	b21a      	sxth	r2, r3
10000444:	4692      	mov	sl, r2
10000446:	792a      	ldrb	r2, [r5, #4]
10000448:	796b      	ldrb	r3, [r5, #5]
1000044a:	0212      	lsls	r2, r2, #8
1000044c:	4313      	orrs	r3, r2
1000044e:	b21a      	sxth	r2, r3
10000450:	23c3      	movs	r3, #195	; 0xc3
10000452:	4693      	mov	fp, r2
10000454:	aa02      	add	r2, sp, #8
10000456:	71d3      	strb	r3, [r2, #7]
10000458:	46c0      	nop			; (mov r8, r8)
1000045a:	46c0      	nop			; (mov r8, r8)
1000045c:	46c0      	nop			; (mov r8, r8)
1000045e:	61a6      	str	r6, [r4, #24]
10000460:	46c0      	nop			; (mov r8, r8)
10000462:	46c0      	nop			; (mov r8, r8)
10000464:	46c0      	nop			; (mov r8, r8)
10000466:	a802      	add	r0, sp, #8
10000468:	1dc1      	adds	r1, r0, #7
1000046a:	2201      	movs	r2, #1
1000046c:	4839      	ldr	r0, [pc, #228]	; (10000554 <main+0x234>)
1000046e:	f004 fd57 	bl	10004f20 <__spi_write_blocking_veneer>
10000472:	200a      	movs	r0, #10
10000474:	f000 fbe6 	bl	10000c44 <sleep_ms>
10000478:	2306      	movs	r3, #6
1000047a:	002a      	movs	r2, r5
1000047c:	2100      	movs	r1, #0
1000047e:	4835      	ldr	r0, [pc, #212]	; (10000554 <main+0x234>)
10000480:	f004 fd26 	bl	10004ed0 <__spi_read_blocking_veneer>
10000484:	46c0      	nop			; (mov r8, r8)
10000486:	46c0      	nop			; (mov r8, r8)
10000488:	46c0      	nop			; (mov r8, r8)
1000048a:	6166      	str	r6, [r4, #20]
1000048c:	46c0      	nop			; (mov r8, r8)
1000048e:	46c0      	nop			; (mov r8, r8)
10000490:	46c0      	nop			; (mov r8, r8)
10000492:	200a      	movs	r0, #10
10000494:	f000 fbd6 	bl	10000c44 <sleep_ms>
10000498:	782b      	ldrb	r3, [r5, #0]
1000049a:	786f      	ldrb	r7, [r5, #1]
1000049c:	78aa      	ldrb	r2, [r5, #2]
1000049e:	021b      	lsls	r3, r3, #8
100004a0:	431f      	orrs	r7, r3
100004a2:	78eb      	ldrb	r3, [r5, #3]
100004a4:	0212      	lsls	r2, r2, #8
100004a6:	4313      	orrs	r3, r2
100004a8:	b21a      	sxth	r2, r3
100004aa:	4690      	mov	r8, r2
100004ac:	792a      	ldrb	r2, [r5, #4]
100004ae:	796b      	ldrb	r3, [r5, #5]
100004b0:	0212      	lsls	r2, r2, #8
100004b2:	4313      	orrs	r3, r2
100004b4:	b21a      	sxth	r2, r3
100004b6:	23c1      	movs	r3, #193	; 0xc1
100004b8:	4691      	mov	r9, r2
100004ba:	aa02      	add	r2, sp, #8
100004bc:	b23f      	sxth	r7, r7
100004be:	71d3      	strb	r3, [r2, #7]
100004c0:	46c0      	nop			; (mov r8, r8)
100004c2:	46c0      	nop			; (mov r8, r8)
100004c4:	46c0      	nop			; (mov r8, r8)
100004c6:	61a6      	str	r6, [r4, #24]
100004c8:	46c0      	nop			; (mov r8, r8)
100004ca:	46c0      	nop			; (mov r8, r8)
100004cc:	46c0      	nop			; (mov r8, r8)
100004ce:	a802      	add	r0, sp, #8
100004d0:	1dc1      	adds	r1, r0, #7
100004d2:	2201      	movs	r2, #1
100004d4:	481f      	ldr	r0, [pc, #124]	; (10000554 <main+0x234>)
100004d6:	f004 fd23 	bl	10004f20 <__spi_write_blocking_veneer>
100004da:	200a      	movs	r0, #10
100004dc:	f000 fbb2 	bl	10000c44 <sleep_ms>
100004e0:	2302      	movs	r3, #2
100004e2:	002a      	movs	r2, r5
100004e4:	2100      	movs	r1, #0
100004e6:	481b      	ldr	r0, [pc, #108]	; (10000554 <main+0x234>)
100004e8:	f004 fcf2 	bl	10004ed0 <__spi_read_blocking_veneer>
100004ec:	46c0      	nop			; (mov r8, r8)
100004ee:	46c0      	nop			; (mov r8, r8)
100004f0:	46c0      	nop			; (mov r8, r8)
100004f2:	6166      	str	r6, [r4, #20]
100004f4:	46c0      	nop			; (mov r8, r8)
100004f6:	46c0      	nop			; (mov r8, r8)
100004f8:	46c0      	nop			; (mov r8, r8)
100004fa:	200a      	movs	r0, #10
100004fc:	f000 fba2 	bl	10000c44 <sleep_ms>
10000500:	782b      	ldrb	r3, [r5, #0]
10000502:	786c      	ldrb	r4, [r5, #1]
10000504:	021b      	lsls	r3, r3, #8
10000506:	4652      	mov	r2, sl
10000508:	9901      	ldr	r1, [sp, #4]
1000050a:	431c      	orrs	r4, r3
1000050c:	4813      	ldr	r0, [pc, #76]	; (1000055c <main+0x23c>)
1000050e:	465b      	mov	r3, fp
10000510:	f003 ff76 	bl	10004400 <__wrap_printf>
10000514:	b224      	sxth	r4, r4
10000516:	464b      	mov	r3, r9
10000518:	4642      	mov	r2, r8
1000051a:	0039      	movs	r1, r7
1000051c:	4810      	ldr	r0, [pc, #64]	; (10000560 <main+0x240>)
1000051e:	f003 ff6f 	bl	10004400 <__wrap_printf>
10000522:	0020      	movs	r0, r4
10000524:	f003 f9a8 	bl	10003878 <__wrap___aeabi_i2d>
10000528:	2200      	movs	r2, #0
1000052a:	4b0e      	ldr	r3, [pc, #56]	; (10000564 <main+0x244>)
1000052c:	f003 f92b 	bl	10003786 <__wrap___aeabi_ddiv>
10000530:	4a0d      	ldr	r2, [pc, #52]	; (10000568 <main+0x248>)
10000532:	4b0e      	ldr	r3, [pc, #56]	; (1000056c <main+0x24c>)
10000534:	f003 f91e 	bl	10003774 <__wrap___aeabi_dadd>
10000538:	0002      	movs	r2, r0
1000053a:	000b      	movs	r3, r1
1000053c:	480c      	ldr	r0, [pc, #48]	; (10000570 <main+0x250>)
1000053e:	f003 ff5f 	bl	10004400 <__wrap_printf>
10000542:	2064      	movs	r0, #100	; 0x64
10000544:	f000 fb7e 	bl	10000c44 <sleep_ms>
10000548:	e74b      	b.n	100003e2 <main+0xc2>
1000054a:	46c0      	nop			; (mov r8, r8)
1000054c:	10004f40 	.word	0x10004f40
10000550:	0007a120 	.word	0x0007a120
10000554:	4003c000 	.word	0x4003c000
10000558:	10004f7c 	.word	0x10004f7c
1000055c:	10004f94 	.word	0x10004f94
10000560:	10004fb4 	.word	0x10004fb4
10000564:	40754000 	.word	0x40754000
10000568:	0a3d70a4 	.word	0x0a3d70a4
1000056c:	404243d7 	.word	0x404243d7
10000570:	10004fd4 	.word	0x10004fd4

10000574 <gpio_set_function>:
10000574:	4a09      	ldr	r2, [pc, #36]	; (1000059c <gpio_set_function+0x28>)
10000576:	0083      	lsls	r3, r0, #2
10000578:	4694      	mov	ip, r2
1000057a:	2240      	movs	r2, #64	; 0x40
1000057c:	4463      	add	r3, ip
1000057e:	b510      	push	{r4, lr}
10000580:	681c      	ldr	r4, [r3, #0]
10000582:	00c0      	lsls	r0, r0, #3
10000584:	4062      	eors	r2, r4
10000586:	24c0      	movs	r4, #192	; 0xc0
10000588:	4014      	ands	r4, r2
1000058a:	2280      	movs	r2, #128	; 0x80
1000058c:	0152      	lsls	r2, r2, #5
1000058e:	4313      	orrs	r3, r2
10000590:	601c      	str	r4, [r3, #0]
10000592:	4b03      	ldr	r3, [pc, #12]	; (100005a0 <gpio_set_function+0x2c>)
10000594:	469c      	mov	ip, r3
10000596:	4460      	add	r0, ip
10000598:	6041      	str	r1, [r0, #4]
1000059a:	bd10      	pop	{r4, pc}
1000059c:	4001c004 	.word	0x4001c004
100005a0:	40014000 	.word	0x40014000

100005a4 <gpio_init>:
100005a4:	2301      	movs	r3, #1
100005a6:	22d0      	movs	r2, #208	; 0xd0
100005a8:	4083      	lsls	r3, r0
100005aa:	0612      	lsls	r2, r2, #24
100005ac:	6293      	str	r3, [r2, #40]	; 0x28
100005ae:	6193      	str	r3, [r2, #24]
100005b0:	4a09      	ldr	r2, [pc, #36]	; (100005d8 <gpio_init+0x34>)
100005b2:	0083      	lsls	r3, r0, #2
100005b4:	4694      	mov	ip, r2
100005b6:	2240      	movs	r2, #64	; 0x40
100005b8:	4463      	add	r3, ip
100005ba:	6819      	ldr	r1, [r3, #0]
100005bc:	00c0      	lsls	r0, r0, #3
100005be:	404a      	eors	r2, r1
100005c0:	21c0      	movs	r1, #192	; 0xc0
100005c2:	4011      	ands	r1, r2
100005c4:	2280      	movs	r2, #128	; 0x80
100005c6:	0152      	lsls	r2, r2, #5
100005c8:	4313      	orrs	r3, r2
100005ca:	6019      	str	r1, [r3, #0]
100005cc:	4b03      	ldr	r3, [pc, #12]	; (100005dc <gpio_init+0x38>)
100005ce:	469c      	mov	ip, r3
100005d0:	2305      	movs	r3, #5
100005d2:	4460      	add	r0, ip
100005d4:	6043      	str	r3, [r0, #4]
100005d6:	4770      	bx	lr
100005d8:	4001c004 	.word	0x4001c004
100005dc:	40014000 	.word	0x40014000

100005e0 <hw_claim_or_assert>:
100005e0:	b5f8      	push	{r3, r4, r5, r6, r7, lr}
100005e2:	46ce      	mov	lr, r9
100005e4:	4647      	mov	r7, r8
100005e6:	4691      	mov	r9, r2
100005e8:	b580      	push	{r7, lr}
100005ea:	f3ef 8710 	mrs	r7, PRIMASK
100005ee:	b672      	cpsid	i
100005f0:	4e12      	ldr	r6, [pc, #72]	; (1000063c <hw_claim_or_assert+0x5c>)
100005f2:	6833      	ldr	r3, [r6, #0]
100005f4:	2b00      	cmp	r3, #0
100005f6:	d0fc      	beq.n	100005f2 <hw_claim_or_assert+0x12>
100005f8:	f3bf 8f5f 	dmb	sy
100005fc:	08cb      	lsrs	r3, r1, #3
100005fe:	5cc5      	ldrb	r5, [r0, r3]
10000600:	2407      	movs	r4, #7
10000602:	18c2      	adds	r2, r0, r3
10000604:	0028      	movs	r0, r5
10000606:	2301      	movs	r3, #1
10000608:	400c      	ands	r4, r1
1000060a:	4694      	mov	ip, r2
1000060c:	40e0      	lsrs	r0, r4
1000060e:	001a      	movs	r2, r3
10000610:	4002      	ands	r2, r0
10000612:	4690      	mov	r8, r2
10000614:	4203      	tst	r3, r0
10000616:	d10d      	bne.n	10000634 <hw_claim_or_assert+0x54>
10000618:	40a3      	lsls	r3, r4
1000061a:	4662      	mov	r2, ip
1000061c:	432b      	orrs	r3, r5
1000061e:	7013      	strb	r3, [r2, #0]
10000620:	f3bf 8f5f 	dmb	sy
10000624:	4643      	mov	r3, r8
10000626:	6033      	str	r3, [r6, #0]
10000628:	f387 8810 	msr	PRIMASK, r7
1000062c:	bc0c      	pop	{r2, r3}
1000062e:	4690      	mov	r8, r2
10000630:	4699      	mov	r9, r3
10000632:	bdf8      	pop	{r3, r4, r5, r6, r7, pc}
10000634:	4648      	mov	r0, r9
10000636:	f000 ff4f 	bl	100014d8 <panic>
1000063a:	46c0      	nop			; (mov r8, r8)
1000063c:	d000012c 	.word	0xd000012c

10000640 <spin_locks_reset>:
10000640:	2100      	movs	r1, #0
10000642:	4b04      	ldr	r3, [pc, #16]	; (10000654 <spin_locks_reset+0x14>)
10000644:	4a04      	ldr	r2, [pc, #16]	; (10000658 <spin_locks_reset+0x18>)
10000646:	f3bf 8f5f 	dmb	sy
1000064a:	c302      	stmia	r3!, {r1}
1000064c:	4293      	cmp	r3, r2
1000064e:	d1fa      	bne.n	10000646 <spin_locks_reset+0x6>
10000650:	4770      	bx	lr
10000652:	46c0      	nop			; (mov r8, r8)
10000654:	d0000100 	.word	0xd0000100
10000658:	d0000180 	.word	0xd0000180

1000065c <next_striped_spin_lock_num>:
1000065c:	4a04      	ldr	r2, [pc, #16]	; (10000670 <next_striped_spin_lock_num+0x14>)
1000065e:	7810      	ldrb	r0, [r2, #0]
10000660:	1c43      	adds	r3, r0, #1
10000662:	b2db      	uxtb	r3, r3
10000664:	2b17      	cmp	r3, #23
10000666:	d900      	bls.n	1000066a <next_striped_spin_lock_num+0xe>
10000668:	2310      	movs	r3, #16
1000066a:	7013      	strb	r3, [r2, #0]
1000066c:	4770      	bx	lr
1000066e:	46c0      	nop			; (mov r8, r8)
10000670:	20000244 	.word	0x20000244

10000674 <running_on_fpga>:
10000674:	4b02      	ldr	r3, [pc, #8]	; (10000680 <running_on_fpga+0xc>)
10000676:	6818      	ldr	r0, [r3, #0]
10000678:	0780      	lsls	r0, r0, #30
1000067a:	0fc0      	lsrs	r0, r0, #31
1000067c:	4770      	bx	lr
1000067e:	46c0      	nop			; (mov r8, r8)
10000680:	4006c000 	.word	0x4006c000

10000684 <uart_init>:
10000684:	b5f0      	push	{r4, r5, r6, r7, lr}
10000686:	46c6      	mov	lr, r8
10000688:	0005      	movs	r5, r0
1000068a:	b500      	push	{lr}
1000068c:	2006      	movs	r0, #6
1000068e:	000e      	movs	r6, r1
10000690:	f001 f8b0 	bl	100017f4 <clock_get_hz>
10000694:	2800      	cmp	r0, #0
10000696:	d04d      	beq.n	10000734 <uart_init+0xb0>
10000698:	4b29      	ldr	r3, [pc, #164]	; (10000740 <uart_init+0xbc>)
1000069a:	492a      	ldr	r1, [pc, #168]	; (10000744 <uart_init+0xc0>)
1000069c:	18eb      	adds	r3, r5, r3
1000069e:	425a      	negs	r2, r3
100006a0:	4153      	adcs	r3, r2
100006a2:	2280      	movs	r2, #128	; 0x80
100006a4:	03d2      	lsls	r2, r2, #15
100006a6:	4694      	mov	ip, r2
100006a8:	425b      	negs	r3, r3
100006aa:	4013      	ands	r3, r2
100006ac:	4a26      	ldr	r2, [pc, #152]	; (10000748 <uart_init+0xc4>)
100006ae:	4463      	add	r3, ip
100006b0:	6013      	str	r3, [r2, #0]
100006b2:	4a26      	ldr	r2, [pc, #152]	; (1000074c <uart_init+0xc8>)
100006b4:	6013      	str	r3, [r2, #0]
100006b6:	001c      	movs	r4, r3
100006b8:	688a      	ldr	r2, [r1, #8]
100006ba:	4394      	bics	r4, r2
100006bc:	d1fb      	bne.n	100006b6 <uart_init+0x32>
100006be:	4b20      	ldr	r3, [pc, #128]	; (10000740 <uart_init+0xbc>)
100006c0:	2180      	movs	r1, #128	; 0x80
100006c2:	18eb      	adds	r3, r5, r3
100006c4:	425a      	negs	r2, r3
100006c6:	4153      	adcs	r3, r2
100006c8:	4a21      	ldr	r2, [pc, #132]	; (10000750 <uart_init+0xcc>)
100006ca:	005b      	lsls	r3, r3, #1
100006cc:	0049      	lsls	r1, r1, #1
100006ce:	2006      	movs	r0, #6
100006d0:	5299      	strh	r1, [r3, r2]
100006d2:	f001 f88f 	bl	100017f4 <clock_get_hz>
100006d6:	0031      	movs	r1, r6
100006d8:	00c0      	lsls	r0, r0, #3
100006da:	f002 fdfd 	bl	100032d8 <__wrap___aeabi_uidiv>
100006de:	267f      	movs	r6, #127	; 0x7f
100006e0:	4b1c      	ldr	r3, [pc, #112]	; (10000754 <uart_init+0xd0>)
100006e2:	4006      	ands	r6, r0
100006e4:	09c7      	lsrs	r7, r0, #7
100006e6:	3601      	adds	r6, #1
100006e8:	0876      	lsrs	r6, r6, #1
100006ea:	626f      	str	r7, [r5, #36]	; 0x24
100006ec:	429f      	cmp	r7, r3
100006ee:	d024      	beq.n	1000073a <uart_init+0xb6>
100006f0:	62ae      	str	r6, [r5, #40]	; 0x28
100006f2:	232c      	movs	r3, #44	; 0x2c
100006f4:	4698      	mov	r8, r3
100006f6:	2480      	movs	r4, #128	; 0x80
100006f8:	44a8      	add	r8, r5
100006fa:	4643      	mov	r3, r8
100006fc:	01a4      	lsls	r4, r4, #6
100006fe:	431c      	orrs	r4, r3
10000700:	2300      	movs	r3, #0
10000702:	2006      	movs	r0, #6
10000704:	6023      	str	r3, [r4, #0]
10000706:	f001 f875 	bl	100017f4 <clock_get_hz>
1000070a:	01b9      	lsls	r1, r7, #6
1000070c:	1989      	adds	r1, r1, r6
1000070e:	0080      	lsls	r0, r0, #2
10000710:	f002 fde2 	bl	100032d8 <__wrap___aeabi_uidiv>
10000714:	2360      	movs	r3, #96	; 0x60
10000716:	6aea      	ldr	r2, [r5, #44]	; 0x2c
10000718:	4641      	mov	r1, r8
1000071a:	4053      	eors	r3, r2
1000071c:	226e      	movs	r2, #110	; 0x6e
1000071e:	401a      	ands	r2, r3
10000720:	2380      	movs	r3, #128	; 0x80
10000722:	015b      	lsls	r3, r3, #5
10000724:	430b      	orrs	r3, r1
10000726:	601a      	str	r2, [r3, #0]
10000728:	4b0b      	ldr	r3, [pc, #44]	; (10000758 <uart_init+0xd4>)
1000072a:	632b      	str	r3, [r5, #48]	; 0x30
1000072c:	2310      	movs	r3, #16
1000072e:	6023      	str	r3, [r4, #0]
10000730:	3b0d      	subs	r3, #13
10000732:	64ab      	str	r3, [r5, #72]	; 0x48
10000734:	bc04      	pop	{r2}
10000736:	4690      	mov	r8, r2
10000738:	bdf0      	pop	{r4, r5, r6, r7, pc}
1000073a:	62ac      	str	r4, [r5, #40]	; 0x28
1000073c:	e7d9      	b.n	100006f2 <uart_init+0x6e>
1000073e:	46c0      	nop			; (mov r8, r8)
10000740:	bffc8000 	.word	0xbffc8000
10000744:	4000c000 	.word	0x4000c000
10000748:	4000e000 	.word	0x4000e000
1000074c:	4000f000 	.word	0x4000f000
10000750:	20000bdc 	.word	0x20000bdc
10000754:	0000ffff 	.word	0x0000ffff
10000758:	00000301 	.word	0x00000301

1000075c <timer_pool_entry_comparator>:
1000075c:	6883      	ldr	r3, [r0, #8]
1000075e:	480b      	ldr	r0, [pc, #44]	; (1000078c <timer_pool_entry_comparator+0x30>)
10000760:	b510      	push	{r4, lr}
10000762:	4684      	mov	ip, r0
10000764:	4461      	add	r1, ip
10000766:	4462      	add	r2, ip
10000768:	0109      	lsls	r1, r1, #4
1000076a:	0112      	lsls	r2, r2, #4
1000076c:	189a      	adds	r2, r3, r2
1000076e:	1859      	adds	r1, r3, r1
10000770:	6854      	ldr	r4, [r2, #4]
10000772:	684b      	ldr	r3, [r1, #4]
10000774:	2001      	movs	r0, #1
10000776:	429c      	cmp	r4, r3
10000778:	d801      	bhi.n	1000077e <timer_pool_entry_comparator+0x22>
1000077a:	d002      	beq.n	10000782 <timer_pool_entry_comparator+0x26>
1000077c:	2000      	movs	r0, #0
1000077e:	b2c0      	uxtb	r0, r0
10000780:	bd10      	pop	{r4, pc}
10000782:	6812      	ldr	r2, [r2, #0]
10000784:	680b      	ldr	r3, [r1, #0]
10000786:	429a      	cmp	r2, r3
10000788:	d8f9      	bhi.n	1000077e <timer_pool_entry_comparator+0x22>
1000078a:	e7f7      	b.n	1000077c <timer_pool_entry_comparator+0x20>
1000078c:	0fffffff 	.word	0x0fffffff

10000790 <sev_callback>:
10000790:	bf40      	sev
10000792:	2000      	movs	r0, #0
10000794:	2100      	movs	r1, #0
10000796:	4770      	bx	lr

10000798 <add_alarm_under_lock>:
10000798:	b5f0      	push	{r4, r5, r6, r7, lr}
1000079a:	4657      	mov	r7, sl
1000079c:	4645      	mov	r5, r8
1000079e:	46de      	mov	lr, fp
100007a0:	464e      	mov	r6, r9
100007a2:	b5e0      	push	{r5, r6, r7, lr}
100007a4:	b083      	sub	sp, #12
100007a6:	001f      	movs	r7, r3
100007a8:	ab0f      	add	r3, sp, #60	; 0x3c
100007aa:	781b      	ldrb	r3, [r3, #0]
100007ac:	9c0e      	ldr	r4, [sp, #56]	; 0x38
100007ae:	0005      	movs	r5, r0
100007b0:	4692      	mov	sl, r2
100007b2:	9301      	str	r3, [sp, #4]
100007b4:	2c00      	cmp	r4, #0
100007b6:	d10d      	bne.n	100007d4 <add_alarm_under_lock+0x3c>
100007b8:	6802      	ldr	r2, [r0, #0]
100007ba:	7b94      	ldrb	r4, [r2, #14]
100007bc:	2c00      	cmp	r4, #0
100007be:	d056      	beq.n	1000086e <add_alarm_under_lock+0xd6>
100007c0:	6811      	ldr	r1, [r2, #0]
100007c2:	0063      	lsls	r3, r4, #1
100007c4:	468c      	mov	ip, r1
100007c6:	191b      	adds	r3, r3, r4
100007c8:	4463      	add	r3, ip
100007ca:	3b03      	subs	r3, #3
100007cc:	785b      	ldrb	r3, [r3, #1]
100007ce:	7393      	strb	r3, [r2, #14]
100007d0:	2b00      	cmp	r3, #0
100007d2:	d054      	beq.n	1000087e <add_alarm_under_lock+0xe6>
100007d4:	68aa      	ldr	r2, [r5, #8]
100007d6:	b2e3      	uxtb	r3, r4
100007d8:	4694      	mov	ip, r2
100007da:	4652      	mov	r2, sl
100007dc:	469b      	mov	fp, r3
100007de:	4b38      	ldr	r3, [pc, #224]	; (100008c0 <add_alarm_under_lock+0x128>)
100007e0:	682e      	ldr	r6, [r5, #0]
100007e2:	18e3      	adds	r3, r4, r3
100007e4:	011b      	lsls	r3, r3, #4
100007e6:	4463      	add	r3, ip
100007e8:	601a      	str	r2, [r3, #0]
100007ea:	9a0c      	ldr	r2, [sp, #48]	; 0x30
100007ec:	605f      	str	r7, [r3, #4]
100007ee:	609a      	str	r2, [r3, #8]
100007f0:	9a0d      	ldr	r2, [sp, #52]	; 0x34
100007f2:	60da      	str	r2, [r3, #12]
100007f4:	23d0      	movs	r3, #208	; 0xd0
100007f6:	2280      	movs	r2, #128	; 0x80
100007f8:	061b      	lsls	r3, r3, #24
100007fa:	0312      	lsls	r2, r2, #12
100007fc:	615a      	str	r2, [r3, #20]
100007fe:	0063      	lsls	r3, r4, #1
10000800:	191b      	adds	r3, r3, r4
10000802:	3b03      	subs	r3, #3
10000804:	4698      	mov	r8, r3
10000806:	2200      	movs	r2, #0
10000808:	6833      	ldr	r3, [r6, #0]
1000080a:	4443      	add	r3, r8
1000080c:	709a      	strb	r2, [r3, #2]
1000080e:	705a      	strb	r2, [r3, #1]
10000810:	701a      	strb	r2, [r3, #0]
10000812:	7b73      	ldrb	r3, [r6, #13]
10000814:	4699      	mov	r9, r3
10000816:	2b00      	cmp	r3, #0
10000818:	d017      	beq.n	1000084a <add_alarm_under_lock+0xb2>
1000081a:	465a      	mov	r2, fp
1000081c:	0019      	movs	r1, r3
1000081e:	68b0      	ldr	r0, [r6, #8]
10000820:	6873      	ldr	r3, [r6, #4]
10000822:	4798      	blx	r3
10000824:	6832      	ldr	r2, [r6, #0]
10000826:	2800      	cmp	r0, #0
10000828:	d12b      	bne.n	10000882 <add_alarm_under_lock+0xea>
1000082a:	4643      	mov	r3, r8
1000082c:	18d1      	adds	r1, r2, r3
1000082e:	464b      	mov	r3, r9
10000830:	4658      	mov	r0, fp
10000832:	005b      	lsls	r3, r3, #1
10000834:	444b      	add	r3, r9
10000836:	3b03      	subs	r3, #3
10000838:	18d3      	adds	r3, r2, r3
1000083a:	7098      	strb	r0, [r3, #2]
1000083c:	4640      	mov	r0, r8
1000083e:	5c12      	ldrb	r2, [r2, r0]
10000840:	2a00      	cmp	r2, #0
10000842:	d000      	beq.n	10000846 <add_alarm_under_lock+0xae>
10000844:	705a      	strb	r2, [r3, #1]
10000846:	464b      	mov	r3, r9
10000848:	700b      	strb	r3, [r1, #0]
1000084a:	465b      	mov	r3, fp
1000084c:	7373      	strb	r3, [r6, #13]
1000084e:	4652      	mov	r2, sl
10000850:	003b      	movs	r3, r7
10000852:	7d28      	ldrb	r0, [r5, #20]
10000854:	f000 fb12 	bl	10000e7c <hardware_alarm_set_target>
10000858:	1e06      	subs	r6, r0, #0
1000085a:	d002      	beq.n	10000862 <add_alarm_under_lock+0xca>
1000085c:	9b01      	ldr	r3, [sp, #4]
1000085e:	2b00      	cmp	r3, #0
10000860:	d026      	beq.n	100008b0 <add_alarm_under_lock+0x118>
10000862:	9b10      	ldr	r3, [sp, #64]	; 0x40
10000864:	2b00      	cmp	r3, #0
10000866:	d028      	beq.n	100008ba <add_alarm_under_lock+0x122>
10000868:	0020      	movs	r0, r4
1000086a:	701e      	strb	r6, [r3, #0]
1000086c:	e000      	b.n	10000870 <add_alarm_under_lock+0xd8>
1000086e:	2000      	movs	r0, #0
10000870:	b003      	add	sp, #12
10000872:	bc3c      	pop	{r2, r3, r4, r5}
10000874:	4690      	mov	r8, r2
10000876:	4699      	mov	r9, r3
10000878:	46a2      	mov	sl, r4
1000087a:	46ab      	mov	fp, r5
1000087c:	bdf0      	pop	{r4, r5, r6, r7, pc}
1000087e:	73d3      	strb	r3, [r2, #15]
10000880:	e7a8      	b.n	100007d4 <add_alarm_under_lock+0x3c>
10000882:	464b      	mov	r3, r9
10000884:	005b      	lsls	r3, r3, #1
10000886:	444b      	add	r3, r9
10000888:	3b03      	subs	r3, #3
1000088a:	18d1      	adds	r1, r2, r3
1000088c:	468c      	mov	ip, r1
1000088e:	4641      	mov	r1, r8
10000890:	4648      	mov	r0, r9
10000892:	1851      	adds	r1, r2, r1
10000894:	7088      	strb	r0, [r1, #2]
10000896:	5cd3      	ldrb	r3, [r2, r3]
10000898:	2b00      	cmp	r3, #0
1000089a:	d000      	beq.n	1000089e <add_alarm_under_lock+0x106>
1000089c:	704b      	strb	r3, [r1, #1]
1000089e:	465b      	mov	r3, fp
100008a0:	4662      	mov	r2, ip
100008a2:	7013      	strb	r3, [r2, #0]
100008a4:	464b      	mov	r3, r9
100008a6:	0020      	movs	r0, r4
100008a8:	7373      	strb	r3, [r6, #13]
100008aa:	45a1      	cmp	r9, r4
100008ac:	d1e0      	bne.n	10000870 <add_alarm_under_lock+0xd8>
100008ae:	e7ce      	b.n	1000084e <add_alarm_under_lock+0xb6>
100008b0:	4659      	mov	r1, fp
100008b2:	6828      	ldr	r0, [r5, #0]
100008b4:	f000 fd40 	bl	10001338 <ph_delete>
100008b8:	e7d3      	b.n	10000862 <add_alarm_under_lock+0xca>
100008ba:	0020      	movs	r0, r4
100008bc:	e7d8      	b.n	10000870 <add_alarm_under_lock+0xd8>
100008be:	46c0      	nop			; (mov r8, r8)
100008c0:	0fffffff 	.word	0x0fffffff

100008c4 <alarm_pool_alarm_callback>:
100008c4:	b5f0      	push	{r4, r5, r6, r7, lr}
100008c6:	46de      	mov	lr, fp
100008c8:	464e      	mov	r6, r9
100008ca:	4657      	mov	r7, sl
100008cc:	4645      	mov	r5, r8
100008ce:	2300      	movs	r3, #0
100008d0:	b5e0      	push	{r5, r6, r7, lr}
100008d2:	b08d      	sub	sp, #52	; 0x34
100008d4:	930a      	str	r3, [sp, #40]	; 0x28
100008d6:	4b71      	ldr	r3, [pc, #452]	; (10000a9c <alarm_pool_alarm_callback+0x1d8>)
100008d8:	0082      	lsls	r2, r0, #2
100008da:	58d3      	ldr	r3, [r2, r3]
100008dc:	900b      	str	r0, [sp, #44]	; 0x2c
100008de:	4699      	mov	r9, r3
100008e0:	2300      	movs	r3, #0
100008e2:	469b      	mov	fp, r3
100008e4:	464b      	mov	r3, r9
100008e6:	9307      	str	r3, [sp, #28]
100008e8:	f000 fa68 	bl	10000dbc <time_us_64>
100008ec:	9c07      	ldr	r4, [sp, #28]
100008ee:	0006      	movs	r6, r0
100008f0:	000f      	movs	r7, r1
100008f2:	6862      	ldr	r2, [r4, #4]
100008f4:	f3ef 8510 	mrs	r5, PRIMASK
100008f8:	b672      	cpsid	i
100008fa:	6813      	ldr	r3, [r2, #0]
100008fc:	2b00      	cmp	r3, #0
100008fe:	d0fc      	beq.n	100008fa <alarm_pool_alarm_callback+0x36>
10000900:	0022      	movs	r2, r4
10000902:	9407      	str	r4, [sp, #28]
10000904:	f3bf 8f5f 	dmb	sy
10000908:	6824      	ldr	r4, [r4, #0]
1000090a:	7b63      	ldrb	r3, [r4, #13]
1000090c:	4699      	mov	r9, r3
1000090e:	2b00      	cmp	r3, #0
10000910:	d100      	bne.n	10000914 <alarm_pool_alarm_callback+0x50>
10000912:	e070      	b.n	100009f6 <alarm_pool_alarm_callback+0x132>
10000914:	6892      	ldr	r2, [r2, #8]
10000916:	4b62      	ldr	r3, [pc, #392]	; (10000aa0 <alarm_pool_alarm_callback+0x1dc>)
10000918:	4690      	mov	r8, r2
1000091a:	444b      	add	r3, r9
1000091c:	011b      	lsls	r3, r3, #4
1000091e:	4498      	add	r8, r3
10000920:	4643      	mov	r3, r8
10000922:	681a      	ldr	r2, [r3, #0]
10000924:	685b      	ldr	r3, [r3, #4]
10000926:	0010      	movs	r0, r2
10000928:	0019      	movs	r1, r3
1000092a:	1b80      	subs	r0, r0, r6
1000092c:	41b9      	sbcs	r1, r7
1000092e:	2900      	cmp	r1, #0
10000930:	dd68      	ble.n	10000a04 <alarm_pool_alarm_callback+0x140>
10000932:	980b      	ldr	r0, [sp, #44]	; 0x2c
10000934:	f000 faa2 	bl	10000e7c <hardware_alarm_set_target>
10000938:	2300      	movs	r3, #0
1000093a:	2600      	movs	r6, #0
1000093c:	4698      	mov	r8, r3
1000093e:	2700      	movs	r7, #0
10000940:	469a      	mov	sl, r3
10000942:	9c07      	ldr	r4, [sp, #28]
10000944:	6863      	ldr	r3, [r4, #4]
10000946:	f3bf 8f5f 	dmb	sy
1000094a:	465a      	mov	r2, fp
1000094c:	601a      	str	r2, [r3, #0]
1000094e:	f385 8810 	msr	PRIMASK, r5
10000952:	4653      	mov	r3, sl
10000954:	2b00      	cmp	r3, #0
10000956:	d108      	bne.n	1000096a <alarm_pool_alarm_callback+0xa6>
10000958:	2800      	cmp	r0, #0
1000095a:	d1c5      	bne.n	100008e8 <alarm_pool_alarm_callback+0x24>
1000095c:	b00d      	add	sp, #52	; 0x34
1000095e:	bc3c      	pop	{r2, r3, r4, r5}
10000960:	4690      	mov	r8, r2
10000962:	4699      	mov	r9, r3
10000964:	46a2      	mov	sl, r4
10000966:	46ab      	mov	fp, r5
10000968:	bdf0      	pop	{r4, r5, r6, r7, pc}
1000096a:	23d0      	movs	r3, #208	; 0xd0
1000096c:	2280      	movs	r2, #128	; 0x80
1000096e:	2180      	movs	r1, #128	; 0x80
10000970:	061b      	lsls	r3, r3, #24
10000972:	0392      	lsls	r2, r2, #14
10000974:	0309      	lsls	r1, r1, #12
10000976:	615a      	str	r2, [r3, #20]
10000978:	6199      	str	r1, [r3, #24]
1000097a:	619a      	str	r2, [r3, #24]
1000097c:	9b0a      	ldr	r3, [sp, #40]	; 0x28
1000097e:	4641      	mov	r1, r8
10000980:	0218      	lsls	r0, r3, #8
10000982:	464b      	mov	r3, r9
10000984:	4318      	orrs	r0, r3
10000986:	47d0      	blx	sl
10000988:	9008      	str	r0, [sp, #32]
1000098a:	9109      	str	r1, [sp, #36]	; 0x24
1000098c:	6862      	ldr	r2, [r4, #4]
1000098e:	f3ef 8510 	mrs	r5, PRIMASK
10000992:	b672      	cpsid	i
10000994:	6813      	ldr	r3, [r2, #0]
10000996:	2b00      	cmp	r3, #0
10000998:	d0fc      	beq.n	10000994 <alarm_pool_alarm_callback+0xd0>
1000099a:	9407      	str	r4, [sp, #28]
1000099c:	f3bf 8f5f 	dmb	sy
100009a0:	9908      	ldr	r1, [sp, #32]
100009a2:	9a09      	ldr	r2, [sp, #36]	; 0x24
100009a4:	2a00      	cmp	r2, #0
100009a6:	db49      	blt.n	10000a3c <alarm_pool_alarm_callback+0x178>
100009a8:	4311      	orrs	r1, r2
100009aa:	d003      	beq.n	100009b4 <alarm_pool_alarm_callback+0xf0>
100009ac:	9b07      	ldr	r3, [sp, #28]
100009ae:	691b      	ldr	r3, [r3, #16]
100009b0:	2b00      	cmp	r3, #0
100009b2:	d15e      	bne.n	10000a72 <alarm_pool_alarm_callback+0x1ae>
100009b4:	9b07      	ldr	r3, [sp, #28]
100009b6:	681b      	ldr	r3, [r3, #0]
100009b8:	7bda      	ldrb	r2, [r3, #15]
100009ba:	2a00      	cmp	r2, #0
100009bc:	d007      	beq.n	100009ce <alarm_pool_alarm_callback+0x10a>
100009be:	0051      	lsls	r1, r2, #1
100009c0:	188a      	adds	r2, r1, r2
100009c2:	6819      	ldr	r1, [r3, #0]
100009c4:	468c      	mov	ip, r1
100009c6:	4649      	mov	r1, r9
100009c8:	4462      	add	r2, ip
100009ca:	3a03      	subs	r2, #3
100009cc:	7051      	strb	r1, [r2, #1]
100009ce:	464a      	mov	r2, r9
100009d0:	73da      	strb	r2, [r3, #15]
100009d2:	464b      	mov	r3, r9
100009d4:	9a07      	ldr	r2, [sp, #28]
100009d6:	3b01      	subs	r3, #1
100009d8:	68d1      	ldr	r1, [r2, #12]
100009da:	5cca      	ldrb	r2, [r1, r3]
100009dc:	3201      	adds	r2, #1
100009de:	54ca      	strb	r2, [r1, r3]
100009e0:	465b      	mov	r3, fp
100009e2:	9a07      	ldr	r2, [sp, #28]
100009e4:	6113      	str	r3, [r2, #16]
100009e6:	6853      	ldr	r3, [r2, #4]
100009e8:	f3bf 8f5f 	dmb	sy
100009ec:	465a      	mov	r2, fp
100009ee:	601a      	str	r2, [r3, #0]
100009f0:	f385 8810 	msr	PRIMASK, r5
100009f4:	e778      	b.n	100008e8 <alarm_pool_alarm_callback+0x24>
100009f6:	2300      	movs	r3, #0
100009f8:	2600      	movs	r6, #0
100009fa:	4698      	mov	r8, r3
100009fc:	2700      	movs	r7, #0
100009fe:	469a      	mov	sl, r3
10000a00:	2000      	movs	r0, #0
10000a02:	e79e      	b.n	10000942 <alarm_pool_alarm_callback+0x7e>
10000a04:	2900      	cmp	r1, #0
10000a06:	d102      	bne.n	10000a0e <alarm_pool_alarm_callback+0x14a>
10000a08:	2800      	cmp	r0, #0
10000a0a:	d000      	beq.n	10000a0e <alarm_pool_alarm_callback+0x14a>
10000a0c:	e791      	b.n	10000932 <alarm_pool_alarm_callback+0x6e>
10000a0e:	2101      	movs	r1, #1
10000a10:	0020      	movs	r0, r4
10000a12:	f000 fbf3 	bl	100011fc <ph_remove_head_reserve>
10000a16:	4643      	mov	r3, r8
10000a18:	681e      	ldr	r6, [r3, #0]
10000a1a:	685f      	ldr	r7, [r3, #4]
10000a1c:	689b      	ldr	r3, [r3, #8]
10000a1e:	9a07      	ldr	r2, [sp, #28]
10000a20:	469a      	mov	sl, r3
10000a22:	4643      	mov	r3, r8
10000a24:	68db      	ldr	r3, [r3, #12]
10000a26:	4698      	mov	r8, r3
10000a28:	68d3      	ldr	r3, [r2, #12]
10000a2a:	444b      	add	r3, r9
10000a2c:	3b01      	subs	r3, #1
10000a2e:	781b      	ldrb	r3, [r3, #0]
10000a30:	930a      	str	r3, [sp, #40]	; 0x28
10000a32:	021b      	lsls	r3, r3, #8
10000a34:	4303      	orrs	r3, r0
10000a36:	6113      	str	r3, [r2, #16]
10000a38:	2000      	movs	r0, #0
10000a3a:	e782      	b.n	10000942 <alarm_pool_alarm_callback+0x7e>
10000a3c:	6923      	ldr	r3, [r4, #16]
10000a3e:	2b00      	cmp	r3, #0
10000a40:	d0b8      	beq.n	100009b4 <alarm_pool_alarm_callback+0xf0>
10000a42:	0033      	movs	r3, r6
10000a44:	003c      	movs	r4, r7
10000a46:	1a5b      	subs	r3, r3, r1
10000a48:	4194      	sbcs	r4, r2
10000a4a:	001a      	movs	r2, r3
10000a4c:	0023      	movs	r3, r4
10000a4e:	42a7      	cmp	r7, r4
10000a50:	d819      	bhi.n	10000a86 <alarm_pool_alarm_callback+0x1c2>
10000a52:	429f      	cmp	r7, r3
10000a54:	d01b      	beq.n	10000a8e <alarm_pool_alarm_callback+0x1ca>
10000a56:	4659      	mov	r1, fp
10000a58:	9104      	str	r1, [sp, #16]
10000a5a:	2101      	movs	r1, #1
10000a5c:	9103      	str	r1, [sp, #12]
10000a5e:	4649      	mov	r1, r9
10000a60:	9102      	str	r1, [sp, #8]
10000a62:	4641      	mov	r1, r8
10000a64:	9101      	str	r1, [sp, #4]
10000a66:	4651      	mov	r1, sl
10000a68:	9807      	ldr	r0, [sp, #28]
10000a6a:	9100      	str	r1, [sp, #0]
10000a6c:	f7ff fe94 	bl	10000798 <add_alarm_under_lock>
10000a70:	e7b6      	b.n	100009e0 <alarm_pool_alarm_callback+0x11c>
10000a72:	f000 f9a3 	bl	10000dbc <time_us_64>
10000a76:	9a08      	ldr	r2, [sp, #32]
10000a78:	9b09      	ldr	r3, [sp, #36]	; 0x24
10000a7a:	0006      	movs	r6, r0
10000a7c:	000f      	movs	r7, r1
10000a7e:	1992      	adds	r2, r2, r6
10000a80:	417b      	adcs	r3, r7
10000a82:	4299      	cmp	r1, r3
10000a84:	d9e5      	bls.n	10000a52 <alarm_pool_alarm_callback+0x18e>
10000a86:	2201      	movs	r2, #1
10000a88:	4252      	negs	r2, r2
10000a8a:	17d3      	asrs	r3, r2, #31
10000a8c:	e7e3      	b.n	10000a56 <alarm_pool_alarm_callback+0x192>
10000a8e:	4296      	cmp	r6, r2
10000a90:	d9e1      	bls.n	10000a56 <alarm_pool_alarm_callback+0x192>
10000a92:	2201      	movs	r2, #1
10000a94:	4252      	negs	r2, r2
10000a96:	17d3      	asrs	r3, r2, #31
10000a98:	e7dd      	b.n	10000a56 <alarm_pool_alarm_callback+0x192>
10000a9a:	46c0      	nop			; (mov r8, r8)
10000a9c:	20000bb8 	.word	0x20000bb8
10000aa0:	0fffffff 	.word	0x0fffffff

10000aa4 <alarm_pool_add_alarm_at.constprop.0>:
10000aa4:	b5f8      	push	{r3, r4, r5, r6, r7, lr}
10000aa6:	4657      	mov	r7, sl
10000aa8:	464e      	mov	r6, r9
10000aaa:	46de      	mov	lr, fp
10000aac:	4645      	mov	r5, r8
10000aae:	4691      	mov	r9, r2
10000ab0:	b5e0      	push	{r5, r6, r7, lr}
10000ab2:	0004      	movs	r4, r0
10000ab4:	469a      	mov	sl, r3
10000ab6:	6842      	ldr	r2, [r0, #4]
10000ab8:	f3ef 8810 	mrs	r8, PRIMASK
10000abc:	b672      	cpsid	i
10000abe:	6813      	ldr	r3, [r2, #0]
10000ac0:	2b00      	cmp	r3, #0
10000ac2:	d0fc      	beq.n	10000abe <alarm_pool_add_alarm_at.constprop.0+0x1a>
10000ac4:	f3bf 8f5f 	dmb	sy
10000ac8:	6826      	ldr	r6, [r4, #0]
10000aca:	7bb5      	ldrb	r5, [r6, #14]
10000acc:	2d00      	cmp	r5, #0
10000ace:	d040      	beq.n	10000b52 <alarm_pool_add_alarm_at.constprop.0+0xae>
10000ad0:	006f      	lsls	r7, r5, #1
10000ad2:	6833      	ldr	r3, [r6, #0]
10000ad4:	197f      	adds	r7, r7, r5
10000ad6:	3f03      	subs	r7, #3
10000ad8:	19db      	adds	r3, r3, r7
10000ada:	785b      	ldrb	r3, [r3, #1]
10000adc:	73b3      	strb	r3, [r6, #14]
10000ade:	2b00      	cmp	r3, #0
10000ae0:	d100      	bne.n	10000ae4 <alarm_pool_add_alarm_at.constprop.0+0x40>
10000ae2:	73f3      	strb	r3, [r6, #15]
10000ae4:	4b37      	ldr	r3, [pc, #220]	; (10000bc4 <alarm_pool_add_alarm_at.constprop.0+0x120>)
10000ae6:	2200      	movs	r2, #0
10000ae8:	18e9      	adds	r1, r5, r3
10000aea:	68a3      	ldr	r3, [r4, #8]
10000aec:	0109      	lsls	r1, r1, #4
10000aee:	469c      	mov	ip, r3
10000af0:	464b      	mov	r3, r9
10000af2:	4461      	add	r1, ip
10000af4:	600b      	str	r3, [r1, #0]
10000af6:	4653      	mov	r3, sl
10000af8:	604b      	str	r3, [r1, #4]
10000afa:	4b33      	ldr	r3, [pc, #204]	; (10000bc8 <alarm_pool_add_alarm_at.constprop.0+0x124>)
10000afc:	60ca      	str	r2, [r1, #12]
10000afe:	608b      	str	r3, [r1, #8]
10000b00:	23d0      	movs	r3, #208	; 0xd0
10000b02:	2180      	movs	r1, #128	; 0x80
10000b04:	061b      	lsls	r3, r3, #24
10000b06:	0309      	lsls	r1, r1, #12
10000b08:	6159      	str	r1, [r3, #20]
10000b0a:	6833      	ldr	r3, [r6, #0]
10000b0c:	19db      	adds	r3, r3, r7
10000b0e:	709a      	strb	r2, [r3, #2]
10000b10:	705a      	strb	r2, [r3, #1]
10000b12:	701a      	strb	r2, [r3, #0]
10000b14:	7b73      	ldrb	r3, [r6, #13]
10000b16:	469b      	mov	fp, r3
10000b18:	2b00      	cmp	r3, #0
10000b1a:	d035      	beq.n	10000b88 <alarm_pool_add_alarm_at.constprop.0+0xe4>
10000b1c:	002a      	movs	r2, r5
10000b1e:	0019      	movs	r1, r3
10000b20:	68b0      	ldr	r0, [r6, #8]
10000b22:	6873      	ldr	r3, [r6, #4]
10000b24:	4798      	blx	r3
10000b26:	6832      	ldr	r2, [r6, #0]
10000b28:	2800      	cmp	r0, #0
10000b2a:	d020      	beq.n	10000b6e <alarm_pool_add_alarm_at.constprop.0+0xca>
10000b2c:	465b      	mov	r3, fp
10000b2e:	4658      	mov	r0, fp
10000b30:	005b      	lsls	r3, r3, #1
10000b32:	445b      	add	r3, fp
10000b34:	19d7      	adds	r7, r2, r7
10000b36:	3b03      	subs	r3, #3
10000b38:	70b8      	strb	r0, [r7, #2]
10000b3a:	18d1      	adds	r1, r2, r3
10000b3c:	5cd3      	ldrb	r3, [r2, r3]
10000b3e:	2b00      	cmp	r3, #0
10000b40:	d000      	beq.n	10000b44 <alarm_pool_add_alarm_at.constprop.0+0xa0>
10000b42:	707b      	strb	r3, [r7, #1]
10000b44:	465b      	mov	r3, fp
10000b46:	700d      	strb	r5, [r1, #0]
10000b48:	7373      	strb	r3, [r6, #13]
10000b4a:	455d      	cmp	r5, fp
10000b4c:	d01d      	beq.n	10000b8a <alarm_pool_add_alarm_at.constprop.0+0xe6>
10000b4e:	2600      	movs	r6, #0
10000b50:	e026      	b.n	10000ba0 <alarm_pool_add_alarm_at.constprop.0+0xfc>
10000b52:	6863      	ldr	r3, [r4, #4]
10000b54:	f3bf 8f5f 	dmb	sy
10000b58:	601d      	str	r5, [r3, #0]
10000b5a:	f388 8810 	msr	PRIMASK, r8
10000b5e:	2001      	movs	r0, #1
10000b60:	4240      	negs	r0, r0
10000b62:	bc3c      	pop	{r2, r3, r4, r5}
10000b64:	4690      	mov	r8, r2
10000b66:	4699      	mov	r9, r3
10000b68:	46a2      	mov	sl, r4
10000b6a:	46ab      	mov	fp, r5
10000b6c:	bdf8      	pop	{r3, r4, r5, r6, r7, pc}
10000b6e:	465b      	mov	r3, fp
10000b70:	005b      	lsls	r3, r3, #1
10000b72:	445b      	add	r3, fp
10000b74:	3b03      	subs	r3, #3
10000b76:	18d3      	adds	r3, r2, r3
10000b78:	709d      	strb	r5, [r3, #2]
10000b7a:	19d1      	adds	r1, r2, r7
10000b7c:	5dd2      	ldrb	r2, [r2, r7]
10000b7e:	2a00      	cmp	r2, #0
10000b80:	d000      	beq.n	10000b84 <alarm_pool_add_alarm_at.constprop.0+0xe0>
10000b82:	705a      	strb	r2, [r3, #1]
10000b84:	465b      	mov	r3, fp
10000b86:	700b      	strb	r3, [r1, #0]
10000b88:	7375      	strb	r5, [r6, #13]
10000b8a:	464a      	mov	r2, r9
10000b8c:	4653      	mov	r3, sl
10000b8e:	7d20      	ldrb	r0, [r4, #20]
10000b90:	f000 f974 	bl	10000e7c <hardware_alarm_set_target>
10000b94:	1e06      	subs	r6, r0, #0
10000b96:	d0da      	beq.n	10000b4e <alarm_pool_add_alarm_at.constprop.0+0xaa>
10000b98:	0029      	movs	r1, r5
10000b9a:	6820      	ldr	r0, [r4, #0]
10000b9c:	f000 fbcc 	bl	10001338 <ph_delete>
10000ba0:	68e3      	ldr	r3, [r4, #12]
10000ba2:	6862      	ldr	r2, [r4, #4]
10000ba4:	195b      	adds	r3, r3, r5
10000ba6:	3b01      	subs	r3, #1
10000ba8:	781b      	ldrb	r3, [r3, #0]
10000baa:	f3bf 8f5f 	dmb	sy
10000bae:	2100      	movs	r1, #0
10000bb0:	6011      	str	r1, [r2, #0]
10000bb2:	f388 8810 	msr	PRIMASK, r8
10000bb6:	2000      	movs	r0, #0
10000bb8:	2e00      	cmp	r6, #0
10000bba:	d1d2      	bne.n	10000b62 <alarm_pool_add_alarm_at.constprop.0+0xbe>
10000bbc:	0218      	lsls	r0, r3, #8
10000bbe:	4328      	orrs	r0, r5
10000bc0:	e7cf      	b.n	10000b62 <alarm_pool_add_alarm_at.constprop.0+0xbe>
10000bc2:	46c0      	nop			; (mov r8, r8)
10000bc4:	0fffffff 	.word	0x0fffffff
10000bc8:	10000791 	.word	0x10000791

10000bcc <alarm_pool_init_default>:
10000bcc:	b570      	push	{r4, r5, r6, lr}
10000bce:	4c18      	ldr	r4, [pc, #96]	; (10000c30 <alarm_pool_init_default+0x64>)
10000bd0:	6823      	ldr	r3, [r4, #0]
10000bd2:	2b00      	cmp	r3, #0
10000bd4:	d000      	beq.n	10000bd8 <alarm_pool_init_default+0xc>
10000bd6:	bd70      	pop	{r4, r5, r6, pc}
10000bd8:	2003      	movs	r0, #3
10000bda:	f000 f8e3 	bl	10000da4 <hardware_alarm_claim>
10000bde:	2003      	movs	r0, #3
10000be0:	f000 f9ae 	bl	10000f40 <hardware_alarm_cancel>
10000be4:	4913      	ldr	r1, [pc, #76]	; (10000c34 <alarm_pool_init_default+0x68>)
10000be6:	2003      	movs	r0, #3
10000be8:	f000 f902 	bl	10000df0 <hardware_alarm_set_callback>
10000bec:	2018      	movs	r0, #24
10000bee:	f003 fa2f 	bl	10004050 <__wrap_malloc>
10000bf2:	0005      	movs	r5, r0
10000bf4:	f7ff fd32 	bl	1000065c <next_striped_spin_lock_num>
10000bf8:	4b0f      	ldr	r3, [pc, #60]	; (10000c38 <alarm_pool_init_default+0x6c>)
10000bfa:	002a      	movs	r2, r5
10000bfc:	469c      	mov	ip, r3
10000bfe:	4460      	add	r0, ip
10000c00:	0080      	lsls	r0, r0, #2
10000c02:	490e      	ldr	r1, [pc, #56]	; (10000c3c <alarm_pool_init_default+0x70>)
10000c04:	6068      	str	r0, [r5, #4]
10000c06:	2010      	movs	r0, #16
10000c08:	f000 fa02 	bl	10001010 <ph_create>
10000c0c:	2110      	movs	r1, #16
10000c0e:	6028      	str	r0, [r5, #0]
10000c10:	2010      	movs	r0, #16
10000c12:	f003 fa21 	bl	10004058 <__wrap_calloc>
10000c16:	2101      	movs	r1, #1
10000c18:	60a8      	str	r0, [r5, #8]
10000c1a:	2010      	movs	r0, #16
10000c1c:	f003 fa1c 	bl	10004058 <__wrap_calloc>
10000c20:	2303      	movs	r3, #3
10000c22:	752b      	strb	r3, [r5, #20]
10000c24:	4b06      	ldr	r3, [pc, #24]	; (10000c40 <alarm_pool_init_default+0x74>)
10000c26:	60e8      	str	r0, [r5, #12]
10000c28:	60dd      	str	r5, [r3, #12]
10000c2a:	6025      	str	r5, [r4, #0]
10000c2c:	e7d3      	b.n	10000bd6 <alarm_pool_init_default+0xa>
10000c2e:	46c0      	nop			; (mov r8, r8)
10000c30:	20000ba4 	.word	0x20000ba4
10000c34:	100008c5 	.word	0x100008c5
10000c38:	34000040 	.word	0x34000040
10000c3c:	1000075d 	.word	0x1000075d
10000c40:	20000bb8 	.word	0x20000bb8

10000c44 <sleep_ms>:
10000c44:	b5f8      	push	{r3, r4, r5, r6, r7, lr}
10000c46:	0004      	movs	r4, r0
10000c48:	f000 f8b8 	bl	10000dbc <time_us_64>
10000c4c:	22fa      	movs	r2, #250	; 0xfa
10000c4e:	0006      	movs	r6, r0
10000c50:	000f      	movs	r7, r1
10000c52:	0020      	movs	r0, r4
10000c54:	2300      	movs	r3, #0
10000c56:	2100      	movs	r1, #0
10000c58:	0092      	lsls	r2, r2, #2
10000c5a:	f003 f997 	bl	10003f8c <__wrap___aeabi_lmul>
10000c5e:	1980      	adds	r0, r0, r6
10000c60:	4179      	adcs	r1, r7
10000c62:	0004      	movs	r4, r0
10000c64:	000d      	movs	r5, r1
10000c66:	428f      	cmp	r7, r1
10000c68:	d82f      	bhi.n	10000cca <sleep_ms+0x86>
10000c6a:	d02c      	beq.n	10000cc6 <sleep_ms+0x82>
10000c6c:	2606      	movs	r6, #6
10000c6e:	4276      	negs	r6, r6
10000c70:	17f7      	asrs	r7, r6, #31
10000c72:	1936      	adds	r6, r6, r4
10000c74:	416f      	adcs	r7, r5
10000c76:	42af      	cmp	r7, r5
10000c78:	d92e      	bls.n	10000cd8 <sleep_ms+0x94>
10000c7a:	2600      	movs	r6, #0
10000c7c:	2700      	movs	r7, #0
10000c7e:	f000 f89d 	bl	10000dbc <time_us_64>
10000c82:	0032      	movs	r2, r6
10000c84:	003b      	movs	r3, r7
10000c86:	1a12      	subs	r2, r2, r0
10000c88:	418b      	sbcs	r3, r1
10000c8a:	2b00      	cmp	r3, #0
10000c8c:	dc07      	bgt.n	10000c9e <sleep_ms+0x5a>
10000c8e:	d004      	beq.n	10000c9a <sleep_ms+0x56>
10000c90:	0029      	movs	r1, r5
10000c92:	0020      	movs	r0, r4
10000c94:	f000 f89c 	bl	10000dd0 <busy_wait_until>
10000c98:	bdf8      	pop	{r3, r4, r5, r6, r7, pc}
10000c9a:	2a00      	cmp	r2, #0
10000c9c:	d0f8      	beq.n	10000c90 <sleep_ms+0x4c>
10000c9e:	4b11      	ldr	r3, [pc, #68]	; (10000ce4 <sleep_ms+0xa0>)
10000ca0:	0032      	movs	r2, r6
10000ca2:	6818      	ldr	r0, [r3, #0]
10000ca4:	003b      	movs	r3, r7
10000ca6:	f7ff fefd 	bl	10000aa4 <alarm_pool_add_alarm_at.constprop.0>
10000caa:	2800      	cmp	r0, #0
10000cac:	dbf0      	blt.n	10000c90 <sleep_ms+0x4c>
10000cae:	0038      	movs	r0, r7
10000cb0:	4a0d      	ldr	r2, [pc, #52]	; (10000ce8 <sleep_ms+0xa4>)
10000cb2:	6a53      	ldr	r3, [r2, #36]	; 0x24
10000cb4:	4298      	cmp	r0, r3
10000cb6:	d804      	bhi.n	10000cc2 <sleep_ms+0x7e>
10000cb8:	6a91      	ldr	r1, [r2, #40]	; 0x28
10000cba:	428e      	cmp	r6, r1
10000cbc:	d9e8      	bls.n	10000c90 <sleep_ms+0x4c>
10000cbe:	4298      	cmp	r0, r3
10000cc0:	d1e6      	bne.n	10000c90 <sleep_ms+0x4c>
10000cc2:	bf20      	wfe
10000cc4:	e7f5      	b.n	10000cb2 <sleep_ms+0x6e>
10000cc6:	4286      	cmp	r6, r0
10000cc8:	d9d0      	bls.n	10000c6c <sleep_ms+0x28>
10000cca:	2401      	movs	r4, #1
10000ccc:	4264      	negs	r4, r4
10000cce:	17e5      	asrs	r5, r4, #31
10000cd0:	2607      	movs	r6, #7
10000cd2:	4276      	negs	r6, r6
10000cd4:	17f7      	asrs	r7, r6, #31
10000cd6:	e7d2      	b.n	10000c7e <sleep_ms+0x3a>
10000cd8:	42af      	cmp	r7, r5
10000cda:	d1d0      	bne.n	10000c7e <sleep_ms+0x3a>
10000cdc:	42a6      	cmp	r6, r4
10000cde:	d8cc      	bhi.n	10000c7a <sleep_ms+0x36>
10000ce0:	e7cd      	b.n	10000c7e <sleep_ms+0x3a>
10000ce2:	46c0      	nop			; (mov r8, r8)
10000ce4:	20000ba4 	.word	0x20000ba4
10000ce8:	40054000 	.word	0x40054000

10000cec <hardware_alarm_irq_handler>:
10000cec:	b5f0      	push	{r4, r5, r6, r7, lr}
10000cee:	46d6      	mov	lr, sl
10000cf0:	464f      	mov	r7, r9
10000cf2:	4646      	mov	r6, r8
10000cf4:	b5c0      	push	{r6, r7, lr}
10000cf6:	f3ef 8305 	mrs	r3, IPSR
10000cfa:	223f      	movs	r2, #63	; 0x3f
10000cfc:	4013      	ands	r3, r2
10000cfe:	0018      	movs	r0, r3
10000d00:	3810      	subs	r0, #16
10000d02:	f3ef 8c10 	mrs	ip, PRIMASK
10000d06:	b672      	cpsid	i
10000d08:	4d20      	ldr	r5, [pc, #128]	; (10000d8c <hardware_alarm_irq_handler+0xa0>)
10000d0a:	682a      	ldr	r2, [r5, #0]
10000d0c:	2a00      	cmp	r2, #0
10000d0e:	d0fc      	beq.n	10000d0a <hardware_alarm_irq_handler+0x1e>
10000d10:	f3bf 8f5f 	dmb	sy
10000d14:	2201      	movs	r2, #1
10000d16:	0011      	movs	r1, r2
10000d18:	4081      	lsls	r1, r0
10000d1a:	4c1d      	ldr	r4, [pc, #116]	; (10000d90 <hardware_alarm_irq_handler+0xa4>)
10000d1c:	4688      	mov	r8, r1
10000d1e:	6361      	str	r1, [r4, #52]	; 0x34
10000d20:	491c      	ldr	r1, [pc, #112]	; (10000d94 <hardware_alarm_irq_handler+0xa8>)
10000d22:	0017      	movs	r7, r2
10000d24:	780e      	ldrb	r6, [r1, #0]
10000d26:	468a      	mov	sl, r1
10000d28:	0031      	movs	r1, r6
10000d2a:	40c1      	lsrs	r1, r0
10000d2c:	400f      	ands	r7, r1
10000d2e:	420a      	tst	r2, r1
10000d30:	d015      	beq.n	10000d5e <hardware_alarm_irq_handler+0x72>
10000d32:	4919      	ldr	r1, [pc, #100]	; (10000d98 <hardware_alarm_irq_handler+0xac>)
10000d34:	0082      	lsls	r2, r0, #2
10000d36:	6a64      	ldr	r4, [r4, #36]	; 0x24
10000d38:	5851      	ldr	r1, [r2, r1]
10000d3a:	428c      	cmp	r4, r1
10000d3c:	d319      	bcc.n	10000d72 <hardware_alarm_irq_handler+0x86>
10000d3e:	4b17      	ldr	r3, [pc, #92]	; (10000d9c <hardware_alarm_irq_handler+0xb0>)
10000d40:	58d2      	ldr	r2, [r2, r3]
10000d42:	4643      	mov	r3, r8
10000d44:	439e      	bics	r6, r3
10000d46:	4653      	mov	r3, sl
10000d48:	701e      	strb	r6, [r3, #0]
10000d4a:	f3bf 8f5f 	dmb	sy
10000d4e:	2300      	movs	r3, #0
10000d50:	602b      	str	r3, [r5, #0]
10000d52:	f38c 8810 	msr	PRIMASK, ip
10000d56:	2a00      	cmp	r2, #0
10000d58:	d006      	beq.n	10000d68 <hardware_alarm_irq_handler+0x7c>
10000d5a:	4790      	blx	r2
10000d5c:	e004      	b.n	10000d68 <hardware_alarm_irq_handler+0x7c>
10000d5e:	f3bf 8f5f 	dmb	sy
10000d62:	602f      	str	r7, [r5, #0]
10000d64:	f38c 8810 	msr	PRIMASK, ip
10000d68:	bc1c      	pop	{r2, r3, r4}
10000d6a:	4690      	mov	r8, r2
10000d6c:	4699      	mov	r9, r3
10000d6e:	46a2      	mov	sl, r4
10000d70:	bdf0      	pop	{r4, r5, r6, r7, pc}
10000d72:	4a0b      	ldr	r2, [pc, #44]	; (10000da0 <hardware_alarm_irq_handler+0xb4>)
10000d74:	009b      	lsls	r3, r3, #2
10000d76:	4690      	mov	r8, r2
10000d78:	4443      	add	r3, r8
10000d7a:	681a      	ldr	r2, [r3, #0]
10000d7c:	601a      	str	r2, [r3, #0]
10000d7e:	f3bf 8f5f 	dmb	sy
10000d82:	2300      	movs	r3, #0
10000d84:	602b      	str	r3, [r5, #0]
10000d86:	f38c 8810 	msr	PRIMASK, ip
10000d8a:	e7ed      	b.n	10000d68 <hardware_alarm_irq_handler+0x7c>
10000d8c:	d0000128 	.word	0xd0000128
10000d90:	40054000 	.word	0x40054000
10000d94:	20000bda 	.word	0x20000bda
10000d98:	20000bc8 	.word	0x20000bc8
10000d9c:	20000b6c 	.word	0x20000b6c
10000da0:	40053fd0 	.word	0x40053fd0

10000da4 <hardware_alarm_claim>:
10000da4:	b510      	push	{r4, lr}
10000da6:	0001      	movs	r1, r0
10000da8:	4a02      	ldr	r2, [pc, #8]	; (10000db4 <hardware_alarm_claim+0x10>)
10000daa:	4803      	ldr	r0, [pc, #12]	; (10000db8 <hardware_alarm_claim+0x14>)
10000dac:	f7ff fc18 	bl	100005e0 <hw_claim_or_assert>
10000db0:	bd10      	pop	{r4, pc}
10000db2:	46c0      	nop			; (mov r8, r8)
10000db4:	10004fe0 	.word	0x10004fe0
10000db8:	20000bd8 	.word	0x20000bd8

10000dbc <time_us_64>:
10000dbc:	4b03      	ldr	r3, [pc, #12]	; (10000dcc <time_us_64+0x10>)
10000dbe:	6a59      	ldr	r1, [r3, #36]	; 0x24
10000dc0:	000a      	movs	r2, r1
10000dc2:	6a98      	ldr	r0, [r3, #40]	; 0x28
10000dc4:	6a59      	ldr	r1, [r3, #36]	; 0x24
10000dc6:	428a      	cmp	r2, r1
10000dc8:	d1fa      	bne.n	10000dc0 <time_us_64+0x4>
10000dca:	4770      	bx	lr
10000dcc:	40054000 	.word	0x40054000

10000dd0 <busy_wait_until>:
10000dd0:	4a06      	ldr	r2, [pc, #24]	; (10000dec <busy_wait_until+0x1c>)
10000dd2:	6a53      	ldr	r3, [r2, #36]	; 0x24
10000dd4:	4299      	cmp	r1, r3
10000dd6:	d8fc      	bhi.n	10000dd2 <busy_wait_until+0x2>
10000dd8:	d107      	bne.n	10000dea <busy_wait_until+0x1a>
10000dda:	4b04      	ldr	r3, [pc, #16]	; (10000dec <busy_wait_until+0x1c>)
10000ddc:	e002      	b.n	10000de4 <busy_wait_until+0x14>
10000dde:	6a5a      	ldr	r2, [r3, #36]	; 0x24
10000de0:	4291      	cmp	r1, r2
10000de2:	d102      	bne.n	10000dea <busy_wait_until+0x1a>
10000de4:	6a9a      	ldr	r2, [r3, #40]	; 0x28
10000de6:	4282      	cmp	r2, r0
10000de8:	d3f9      	bcc.n	10000dde <busy_wait_until+0xe>
10000dea:	4770      	bx	lr
10000dec:	40054000 	.word	0x40054000

10000df0 <hardware_alarm_set_callback>:
10000df0:	b570      	push	{r4, r5, r6, lr}
10000df2:	0004      	movs	r4, r0
10000df4:	000d      	movs	r5, r1
10000df6:	f3ef 8610 	mrs	r6, PRIMASK
10000dfa:	b672      	cpsid	i
10000dfc:	4a1a      	ldr	r2, [pc, #104]	; (10000e68 <hardware_alarm_set_callback+0x78>)
10000dfe:	6813      	ldr	r3, [r2, #0]
10000e00:	2b00      	cmp	r3, #0
10000e02:	d0fc      	beq.n	10000dfe <hardware_alarm_set_callback+0xe>
10000e04:	f3bf 8f5f 	dmb	sy
10000e08:	2d00      	cmp	r5, #0
10000e0a:	d01b      	beq.n	10000e44 <hardware_alarm_set_callback+0x54>
10000e0c:	0020      	movs	r0, r4
10000e0e:	f000 fd4f 	bl	100018b0 <irq_get_vtable_handler>
10000e12:	4916      	ldr	r1, [pc, #88]	; (10000e6c <hardware_alarm_set_callback+0x7c>)
10000e14:	4281      	cmp	r1, r0
10000e16:	d00a      	beq.n	10000e2e <hardware_alarm_set_callback+0x3e>
10000e18:	0020      	movs	r0, r4
10000e1a:	f000 fd51 	bl	100018c0 <irq_set_exclusive_handler>
10000e1e:	2101      	movs	r1, #1
10000e20:	0020      	movs	r0, r4
10000e22:	f000 fd33 	bl	1000188c <irq_set_enabled>
10000e26:	2301      	movs	r3, #1
10000e28:	40a3      	lsls	r3, r4
10000e2a:	4a11      	ldr	r2, [pc, #68]	; (10000e70 <hardware_alarm_set_callback+0x80>)
10000e2c:	6013      	str	r3, [r2, #0]
10000e2e:	4b11      	ldr	r3, [pc, #68]	; (10000e74 <hardware_alarm_set_callback+0x84>)
10000e30:	00a4      	lsls	r4, r4, #2
10000e32:	50e5      	str	r5, [r4, r3]
10000e34:	f3bf 8f5f 	dmb	sy
10000e38:	2200      	movs	r2, #0
10000e3a:	4b0b      	ldr	r3, [pc, #44]	; (10000e68 <hardware_alarm_set_callback+0x78>)
10000e3c:	601a      	str	r2, [r3, #0]
10000e3e:	f386 8810 	msr	PRIMASK, r6
10000e42:	bd70      	pop	{r4, r5, r6, pc}
10000e44:	4b0b      	ldr	r3, [pc, #44]	; (10000e74 <hardware_alarm_set_callback+0x84>)
10000e46:	00a2      	lsls	r2, r4, #2
10000e48:	50d5      	str	r5, [r2, r3]
10000e4a:	2201      	movs	r2, #1
10000e4c:	40a2      	lsls	r2, r4
10000e4e:	490a      	ldr	r1, [pc, #40]	; (10000e78 <hardware_alarm_set_callback+0x88>)
10000e50:	0020      	movs	r0, r4
10000e52:	780b      	ldrb	r3, [r1, #0]
10000e54:	4393      	bics	r3, r2
10000e56:	700b      	strb	r3, [r1, #0]
10000e58:	4904      	ldr	r1, [pc, #16]	; (10000e6c <hardware_alarm_set_callback+0x7c>)
10000e5a:	f000 fd5b 	bl	10001914 <irq_remove_handler>
10000e5e:	2100      	movs	r1, #0
10000e60:	0020      	movs	r0, r4
10000e62:	f000 fd13 	bl	1000188c <irq_set_enabled>
10000e66:	e7e5      	b.n	10000e34 <hardware_alarm_set_callback+0x44>
10000e68:	d0000128 	.word	0xd0000128
10000e6c:	10000ced 	.word	0x10000ced
10000e70:	40056038 	.word	0x40056038
10000e74:	20000b6c 	.word	0x20000b6c
10000e78:	20000bda 	.word	0x20000bda

10000e7c <hardware_alarm_set_target>:
10000e7c:	b5f0      	push	{r4, r5, r6, r7, lr}
10000e7e:	46ce      	mov	lr, r9
10000e80:	4647      	mov	r7, r8
10000e82:	b580      	push	{r7, lr}
10000e84:	4c2a      	ldr	r4, [pc, #168]	; (10000f30 <hardware_alarm_set_target+0xb4>)
10000e86:	6a61      	ldr	r1, [r4, #36]	; 0x24
10000e88:	000d      	movs	r5, r1
10000e8a:	6aa6      	ldr	r6, [r4, #40]	; 0x28
10000e8c:	6a61      	ldr	r1, [r4, #36]	; 0x24
10000e8e:	42a9      	cmp	r1, r5
10000e90:	d1fa      	bne.n	10000e88 <hardware_alarm_set_target+0xc>
10000e92:	428b      	cmp	r3, r1
10000e94:	d807      	bhi.n	10000ea6 <hardware_alarm_set_target+0x2a>
10000e96:	d004      	beq.n	10000ea2 <hardware_alarm_set_target+0x26>
10000e98:	2001      	movs	r0, #1
10000e9a:	bc0c      	pop	{r2, r3}
10000e9c:	4690      	mov	r8, r2
10000e9e:	4699      	mov	r9, r3
10000ea0:	bdf0      	pop	{r4, r5, r6, r7, pc}
10000ea2:	42b2      	cmp	r2, r6
10000ea4:	d9f8      	bls.n	10000e98 <hardware_alarm_set_target+0x1c>
10000ea6:	f3ef 8810 	mrs	r8, PRIMASK
10000eaa:	b672      	cpsid	i
10000eac:	4c21      	ldr	r4, [pc, #132]	; (10000f34 <hardware_alarm_set_target+0xb8>)
10000eae:	6821      	ldr	r1, [r4, #0]
10000eb0:	2900      	cmp	r1, #0
10000eb2:	d0fc      	beq.n	10000eae <hardware_alarm_set_target+0x32>
10000eb4:	f3bf 8f5f 	dmb	sy
10000eb8:	2501      	movs	r5, #1
10000eba:	4085      	lsls	r5, r0
10000ebc:	4c1c      	ldr	r4, [pc, #112]	; (10000f30 <hardware_alarm_set_target+0xb4>)
10000ebe:	4e1e      	ldr	r6, [pc, #120]	; (10000f38 <hardware_alarm_set_target+0xbc>)
10000ec0:	6365      	str	r5, [r4, #52]	; 0x34
10000ec2:	b2e9      	uxtb	r1, r5
10000ec4:	468c      	mov	ip, r1
10000ec6:	7831      	ldrb	r1, [r6, #0]
10000ec8:	4689      	mov	r9, r1
10000eca:	4661      	mov	r1, ip
10000ecc:	464f      	mov	r7, r9
10000ece:	4339      	orrs	r1, r7
10000ed0:	7031      	strb	r1, [r6, #0]
10000ed2:	1d01      	adds	r1, r0, #4
10000ed4:	0089      	lsls	r1, r1, #2
10000ed6:	510a      	str	r2, [r1, r4]
10000ed8:	4918      	ldr	r1, [pc, #96]	; (10000f3c <hardware_alarm_set_target+0xc0>)
10000eda:	0080      	lsls	r0, r0, #2
10000edc:	5043      	str	r3, [r0, r1]
10000ede:	6a21      	ldr	r1, [r4, #32]
10000ee0:	2000      	movs	r0, #0
10000ee2:	4229      	tst	r1, r5
10000ee4:	d00c      	beq.n	10000f00 <hardware_alarm_set_target+0x84>
10000ee6:	0020      	movs	r0, r4
10000ee8:	6a61      	ldr	r1, [r4, #36]	; 0x24
10000eea:	000c      	movs	r4, r1
10000eec:	6a87      	ldr	r7, [r0, #40]	; 0x28
10000eee:	6a41      	ldr	r1, [r0, #36]	; 0x24
10000ef0:	42a1      	cmp	r1, r4
10000ef2:	d1fa      	bne.n	10000eea <hardware_alarm_set_target+0x6e>
10000ef4:	428b      	cmp	r3, r1
10000ef6:	d802      	bhi.n	10000efe <hardware_alarm_set_target+0x82>
10000ef8:	d10a      	bne.n	10000f10 <hardware_alarm_set_target+0x94>
10000efa:	42ba      	cmp	r2, r7
10000efc:	d908      	bls.n	10000f10 <hardware_alarm_set_target+0x94>
10000efe:	2000      	movs	r0, #0
10000f00:	f3bf 8f5f 	dmb	sy
10000f04:	2200      	movs	r2, #0
10000f06:	4b0b      	ldr	r3, [pc, #44]	; (10000f34 <hardware_alarm_set_target+0xb8>)
10000f08:	601a      	str	r2, [r3, #0]
10000f0a:	f388 8810 	msr	PRIMASK, r8
10000f0e:	e7c4      	b.n	10000e9a <hardware_alarm_set_target+0x1e>
10000f10:	4b07      	ldr	r3, [pc, #28]	; (10000f30 <hardware_alarm_set_target+0xb4>)
10000f12:	464f      	mov	r7, r9
10000f14:	621d      	str	r5, [r3, #32]
10000f16:	635d      	str	r5, [r3, #52]	; 0x34
10000f18:	4663      	mov	r3, ip
10000f1a:	439f      	bics	r7, r3
10000f1c:	2001      	movs	r0, #1
10000f1e:	7037      	strb	r7, [r6, #0]
10000f20:	f3bf 8f5f 	dmb	sy
10000f24:	2200      	movs	r2, #0
10000f26:	4b03      	ldr	r3, [pc, #12]	; (10000f34 <hardware_alarm_set_target+0xb8>)
10000f28:	601a      	str	r2, [r3, #0]
10000f2a:	f388 8810 	msr	PRIMASK, r8
10000f2e:	e7b4      	b.n	10000e9a <hardware_alarm_set_target+0x1e>
10000f30:	40054000 	.word	0x40054000
10000f34:	d0000128 	.word	0xd0000128
10000f38:	20000bda 	.word	0x20000bda
10000f3c:	20000bc8 	.word	0x20000bc8

10000f40 <hardware_alarm_cancel>:
10000f40:	b510      	push	{r4, lr}
10000f42:	f3ef 8410 	mrs	r4, PRIMASK
10000f46:	b672      	cpsid	i
10000f48:	490a      	ldr	r1, [pc, #40]	; (10000f74 <hardware_alarm_cancel+0x34>)
10000f4a:	680b      	ldr	r3, [r1, #0]
10000f4c:	2b00      	cmp	r3, #0
10000f4e:	d0fc      	beq.n	10000f4a <hardware_alarm_cancel+0xa>
10000f50:	f3bf 8f5f 	dmb	sy
10000f54:	2301      	movs	r3, #1
10000f56:	4083      	lsls	r3, r0
10000f58:	4a07      	ldr	r2, [pc, #28]	; (10000f78 <hardware_alarm_cancel+0x38>)
10000f5a:	4808      	ldr	r0, [pc, #32]	; (10000f7c <hardware_alarm_cancel+0x3c>)
10000f5c:	6213      	str	r3, [r2, #32]
10000f5e:	7802      	ldrb	r2, [r0, #0]
10000f60:	439a      	bics	r2, r3
10000f62:	7002      	strb	r2, [r0, #0]
10000f64:	f3bf 8f5f 	dmb	sy
10000f68:	2300      	movs	r3, #0
10000f6a:	600b      	str	r3, [r1, #0]
10000f6c:	f384 8810 	msr	PRIMASK, r4
10000f70:	bd10      	pop	{r4, pc}
10000f72:	46c0      	nop			; (mov r8, r8)
10000f74:	d0000128 	.word	0xd0000128
10000f78:	40054000 	.word	0x40054000
10000f7c:	20000bda 	.word	0x20000bda

10000f80 <lock_init>:
10000f80:	4b02      	ldr	r3, [pc, #8]	; (10000f8c <lock_init+0xc>)
10000f82:	469c      	mov	ip, r3
10000f84:	4461      	add	r1, ip
10000f86:	0089      	lsls	r1, r1, #2
10000f88:	6001      	str	r1, [r0, #0]
10000f8a:	4770      	bx	lr
10000f8c:	34000040 	.word	0x34000040

10000f90 <mutex_init>:
10000f90:	b510      	push	{r4, lr}
10000f92:	0004      	movs	r4, r0
10000f94:	f7ff fb62 	bl	1000065c <next_striped_spin_lock_num>
10000f98:	0001      	movs	r1, r0
10000f9a:	0020      	movs	r0, r4
10000f9c:	f7ff fff0 	bl	10000f80 <lock_init>
10000fa0:	f3bf 8f5f 	dmb	sy
10000fa4:	bd10      	pop	{r4, pc}
10000fa6:	46c0      	nop			; (mov r8, r8)

10000fa8 <ph_merge_nodes>:
10000fa8:	b570      	push	{r4, r5, r6, lr}
10000faa:	0005      	movs	r5, r0
10000fac:	000e      	movs	r6, r1
10000fae:	0014      	movs	r4, r2
10000fb0:	2900      	cmp	r1, #0
10000fb2:	d024      	beq.n	10000ffe <ph_merge_nodes+0x56>
10000fb4:	2a00      	cmp	r2, #0
10000fb6:	d024      	beq.n	10001002 <ph_merge_nodes+0x5a>
10000fb8:	6880      	ldr	r0, [r0, #8]
10000fba:	686b      	ldr	r3, [r5, #4]
10000fbc:	4798      	blx	r3
10000fbe:	6829      	ldr	r1, [r5, #0]
10000fc0:	2800      	cmp	r0, #0
10000fc2:	d00e      	beq.n	10000fe2 <ph_merge_nodes+0x3a>
10000fc4:	0063      	lsls	r3, r4, #1
10000fc6:	191b      	adds	r3, r3, r4
10000fc8:	0072      	lsls	r2, r6, #1
10000fca:	3b03      	subs	r3, #3
10000fcc:	1992      	adds	r2, r2, r6
10000fce:	18cb      	adds	r3, r1, r3
10000fd0:	3a03      	subs	r2, #3
10000fd2:	709e      	strb	r6, [r3, #2]
10000fd4:	1888      	adds	r0, r1, r2
10000fd6:	5c8a      	ldrb	r2, [r1, r2]
10000fd8:	2a00      	cmp	r2, #0
10000fda:	d114      	bne.n	10001006 <ph_merge_nodes+0x5e>
10000fdc:	7004      	strb	r4, [r0, #0]
10000fde:	0030      	movs	r0, r6
10000fe0:	e00e      	b.n	10001000 <ph_merge_nodes+0x58>
10000fe2:	0073      	lsls	r3, r6, #1
10000fe4:	199b      	adds	r3, r3, r6
10000fe6:	0062      	lsls	r2, r4, #1
10000fe8:	3b03      	subs	r3, #3
10000fea:	1912      	adds	r2, r2, r4
10000fec:	18cb      	adds	r3, r1, r3
10000fee:	3a03      	subs	r2, #3
10000ff0:	709c      	strb	r4, [r3, #2]
10000ff2:	1888      	adds	r0, r1, r2
10000ff4:	5c8a      	ldrb	r2, [r1, r2]
10000ff6:	2a00      	cmp	r2, #0
10000ff8:	d000      	beq.n	10000ffc <ph_merge_nodes+0x54>
10000ffa:	705a      	strb	r2, [r3, #1]
10000ffc:	7006      	strb	r6, [r0, #0]
10000ffe:	0020      	movs	r0, r4
10001000:	bd70      	pop	{r4, r5, r6, pc}
10001002:	0008      	movs	r0, r1
10001004:	e7fc      	b.n	10001000 <ph_merge_nodes+0x58>
10001006:	705a      	strb	r2, [r3, #1]
10001008:	7004      	strb	r4, [r0, #0]
1000100a:	0030      	movs	r0, r6
1000100c:	e7f8      	b.n	10001000 <ph_merge_nodes+0x58>
1000100e:	46c0      	nop			; (mov r8, r8)

10001010 <ph_create>:
10001010:	b5f0      	push	{r4, r5, r6, r7, lr}
10001012:	46c6      	mov	lr, r8
10001014:	0005      	movs	r5, r0
10001016:	000f      	movs	r7, r1
10001018:	b500      	push	{lr}
1000101a:	2110      	movs	r1, #16
1000101c:	2001      	movs	r0, #1
1000101e:	0016      	movs	r6, r2
10001020:	f003 f81a 	bl	10004058 <__wrap_calloc>
10001024:	b2eb      	uxtb	r3, r5
10001026:	0004      	movs	r4, r0
10001028:	7303      	strb	r3, [r0, #12]
1000102a:	2103      	movs	r1, #3
1000102c:	6047      	str	r7, [r0, #4]
1000102e:	0028      	movs	r0, r5
10001030:	4698      	mov	r8, r3
10001032:	f003 f811 	bl	10004058 <__wrap_calloc>
10001036:	2300      	movs	r3, #0
10001038:	7363      	strb	r3, [r4, #13]
1000103a:	3301      	adds	r3, #1
1000103c:	73a3      	strb	r3, [r4, #14]
1000103e:	4643      	mov	r3, r8
10001040:	21ff      	movs	r1, #255	; 0xff
10001042:	73e3      	strb	r3, [r4, #15]
10001044:	23fe      	movs	r3, #254	; 0xfe
10001046:	6020      	str	r0, [r4, #0]
10001048:	60a6      	str	r6, [r4, #8]
1000104a:	4029      	ands	r1, r5
1000104c:	422b      	tst	r3, r5
1000104e:	d006      	beq.n	1000105e <ph_create+0x4e>
10001050:	1c42      	adds	r2, r0, #1
10001052:	3bfd      	subs	r3, #253	; 0xfd
10001054:	3301      	adds	r3, #1
10001056:	7013      	strb	r3, [r2, #0]
10001058:	3203      	adds	r2, #3
1000105a:	428b      	cmp	r3, r1
1000105c:	d3fa      	bcc.n	10001054 <ph_create+0x44>
1000105e:	004b      	lsls	r3, r1, #1
10001060:	1859      	adds	r1, r3, r1
10001062:	2300      	movs	r3, #0
10001064:	1840      	adds	r0, r0, r1
10001066:	3803      	subs	r0, #3
10001068:	7043      	strb	r3, [r0, #1]
1000106a:	0020      	movs	r0, r4
1000106c:	bc04      	pop	{r2}
1000106e:	4690      	mov	r8, r2
10001070:	bdf0      	pop	{r4, r5, r6, r7, pc}
10001072:	46c0      	nop			; (mov r8, r8)

10001074 <ph_merge_two_pass>:
10001074:	b5f8      	push	{r3, r4, r5, r6, r7, lr}
10001076:	46ce      	mov	lr, r9
10001078:	4647      	mov	r7, r8
1000107a:	0006      	movs	r6, r0
1000107c:	000c      	movs	r4, r1
1000107e:	b580      	push	{r7, lr}
10001080:	2900      	cmp	r1, #0
10001082:	d007      	beq.n	10001094 <ph_merge_two_pass+0x20>
10001084:	004d      	lsls	r5, r1, #1
10001086:	6803      	ldr	r3, [r0, #0]
10001088:	186d      	adds	r5, r5, r1
1000108a:	3d03      	subs	r5, #3
1000108c:	195a      	adds	r2, r3, r5
1000108e:	7857      	ldrb	r7, [r2, #1]
10001090:	2f00      	cmp	r7, #0
10001092:	d104      	bne.n	1000109e <ph_merge_two_pass+0x2a>
10001094:	0020      	movs	r0, r4
10001096:	bc0c      	pop	{r2, r3}
10001098:	4690      	mov	r8, r2
1000109a:	4699      	mov	r9, r3
1000109c:	bdf8      	pop	{r3, r4, r5, r6, r7, pc}
1000109e:	0079      	lsls	r1, r7, #1
100010a0:	19c9      	adds	r1, r1, r7
100010a2:	3903      	subs	r1, #3
100010a4:	4688      	mov	r8, r1
100010a6:	4443      	add	r3, r8
100010a8:	7859      	ldrb	r1, [r3, #1]
100010aa:	4689      	mov	r9, r1
100010ac:	2100      	movs	r1, #0
100010ae:	7059      	strb	r1, [r3, #1]
100010b0:	7051      	strb	r1, [r2, #1]
100010b2:	6873      	ldr	r3, [r6, #4]
100010b4:	003a      	movs	r2, r7
100010b6:	0021      	movs	r1, r4
100010b8:	6880      	ldr	r0, [r0, #8]
100010ba:	4798      	blx	r3
100010bc:	6833      	ldr	r3, [r6, #0]
100010be:	2800      	cmp	r0, #0
100010c0:	d014      	beq.n	100010ec <ph_merge_two_pass+0x78>
100010c2:	4642      	mov	r2, r8
100010c4:	189a      	adds	r2, r3, r2
100010c6:	7094      	strb	r4, [r2, #2]
100010c8:	1959      	adds	r1, r3, r5
100010ca:	5d5b      	ldrb	r3, [r3, r5]
100010cc:	2b00      	cmp	r3, #0
100010ce:	d000      	beq.n	100010d2 <ph_merge_two_pass+0x5e>
100010d0:	7053      	strb	r3, [r2, #1]
100010d2:	700f      	strb	r7, [r1, #0]
100010d4:	0027      	movs	r7, r4
100010d6:	4649      	mov	r1, r9
100010d8:	0030      	movs	r0, r6
100010da:	f7ff ffcb 	bl	10001074 <ph_merge_two_pass>
100010de:	0039      	movs	r1, r7
100010e0:	0002      	movs	r2, r0
100010e2:	0030      	movs	r0, r6
100010e4:	f7ff ff60 	bl	10000fa8 <ph_merge_nodes>
100010e8:	0004      	movs	r4, r0
100010ea:	e7d3      	b.n	10001094 <ph_merge_two_pass+0x20>
100010ec:	4642      	mov	r2, r8
100010ee:	4641      	mov	r1, r8
100010f0:	195d      	adds	r5, r3, r5
100010f2:	70af      	strb	r7, [r5, #2]
100010f4:	189a      	adds	r2, r3, r2
100010f6:	5c5b      	ldrb	r3, [r3, r1]
100010f8:	2b00      	cmp	r3, #0
100010fa:	d000      	beq.n	100010fe <ph_merge_two_pass+0x8a>
100010fc:	706b      	strb	r3, [r5, #1]
100010fe:	7014      	strb	r4, [r2, #0]
10001100:	e7e9      	b.n	100010d6 <ph_merge_two_pass+0x62>
10001102:	46c0      	nop			; (mov r8, r8)

10001104 <ph_remove_any_head>:
10001104:	b5f0      	push	{r4, r5, r6, r7, lr}
10001106:	4657      	mov	r7, sl
10001108:	4645      	mov	r5, r8
1000110a:	46de      	mov	lr, fp
1000110c:	464e      	mov	r6, r9
1000110e:	b5e0      	push	{r5, r6, r7, lr}
10001110:	000d      	movs	r5, r1
10001112:	006b      	lsls	r3, r5, #1
10001114:	6801      	ldr	r1, [r0, #0]
10001116:	195b      	adds	r3, r3, r5
10001118:	1edf      	subs	r7, r3, #3
1000111a:	0004      	movs	r4, r0
1000111c:	5dc8      	ldrb	r0, [r1, r7]
1000111e:	b083      	sub	sp, #12
10001120:	9201      	str	r2, [sp, #4]
10001122:	19ca      	adds	r2, r1, r7
10001124:	2800      	cmp	r0, #0
10001126:	d04c      	beq.n	100011c2 <ph_remove_any_head+0xbe>
10001128:	0043      	lsls	r3, r0, #1
1000112a:	181b      	adds	r3, r3, r0
1000112c:	3b03      	subs	r3, #3
1000112e:	18cb      	adds	r3, r1, r3
10001130:	785e      	ldrb	r6, [r3, #1]
10001132:	46b4      	mov	ip, r6
10001134:	2e00      	cmp	r6, #0
10001136:	d116      	bne.n	10001166 <ph_remove_any_head+0x62>
10001138:	9e01      	ldr	r6, [sp, #4]
1000113a:	2e00      	cmp	r6, #0
1000113c:	d13e      	bne.n	100011bc <ph_remove_any_head+0xb8>
1000113e:	7be6      	ldrb	r6, [r4, #15]
10001140:	2e00      	cmp	r6, #0
10001142:	d004      	beq.n	1000114e <ph_remove_any_head+0x4a>
10001144:	0073      	lsls	r3, r6, #1
10001146:	199b      	adds	r3, r3, r6
10001148:	18cb      	adds	r3, r1, r3
1000114a:	3b03      	subs	r3, #3
1000114c:	705d      	strb	r5, [r3, #1]
1000114e:	73e5      	strb	r5, [r4, #15]
10001150:	2800      	cmp	r0, #0
10001152:	d12f      	bne.n	100011b4 <ph_remove_any_head+0xb0>
10001154:	2300      	movs	r3, #0
10001156:	7053      	strb	r3, [r2, #1]
10001158:	b003      	add	sp, #12
1000115a:	bc3c      	pop	{r2, r3, r4, r5}
1000115c:	4690      	mov	r8, r2
1000115e:	4699      	mov	r9, r3
10001160:	46a2      	mov	sl, r4
10001162:	46ab      	mov	fp, r5
10001164:	bdf0      	pop	{r4, r5, r6, r7, pc}
10001166:	0072      	lsls	r2, r6, #1
10001168:	4462      	add	r2, ip
1000116a:	3a03      	subs	r2, #3
1000116c:	1889      	adds	r1, r1, r2
1000116e:	784a      	ldrb	r2, [r1, #1]
10001170:	4690      	mov	r8, r2
10001172:	2200      	movs	r2, #0
10001174:	704a      	strb	r2, [r1, #1]
10001176:	4691      	mov	r9, r2
10001178:	705a      	strb	r2, [r3, #1]
1000117a:	0001      	movs	r1, r0
1000117c:	0032      	movs	r2, r6
1000117e:	0020      	movs	r0, r4
10001180:	f7ff ff12 	bl	10000fa8 <ph_merge_nodes>
10001184:	4643      	mov	r3, r8
10001186:	4682      	mov	sl, r0
10001188:	2b00      	cmp	r3, #0
1000118a:	d007      	beq.n	1000119c <ph_remove_any_head+0x98>
1000118c:	005b      	lsls	r3, r3, #1
1000118e:	6821      	ldr	r1, [r4, #0]
10001190:	4443      	add	r3, r8
10001192:	3b03      	subs	r3, #3
10001194:	18cb      	adds	r3, r1, r3
10001196:	785a      	ldrb	r2, [r3, #1]
10001198:	2a00      	cmp	r2, #0
1000119a:	d116      	bne.n	100011ca <ph_remove_any_head+0xc6>
1000119c:	4642      	mov	r2, r8
1000119e:	4651      	mov	r1, sl
100011a0:	0020      	movs	r0, r4
100011a2:	f7ff ff01 	bl	10000fa8 <ph_merge_nodes>
100011a6:	6821      	ldr	r1, [r4, #0]
100011a8:	9b01      	ldr	r3, [sp, #4]
100011aa:	19ca      	adds	r2, r1, r7
100011ac:	2b00      	cmp	r3, #0
100011ae:	d0c6      	beq.n	1000113e <ph_remove_any_head+0x3a>
100011b0:	2800      	cmp	r0, #0
100011b2:	d0cf      	beq.n	10001154 <ph_remove_any_head+0x50>
100011b4:	0043      	lsls	r3, r0, #1
100011b6:	181b      	adds	r3, r3, r0
100011b8:	3b03      	subs	r3, #3
100011ba:	18cb      	adds	r3, r1, r3
100011bc:	2100      	movs	r1, #0
100011be:	7099      	strb	r1, [r3, #2]
100011c0:	e7c8      	b.n	10001154 <ph_remove_any_head+0x50>
100011c2:	9b01      	ldr	r3, [sp, #4]
100011c4:	2b00      	cmp	r3, #0
100011c6:	d1c5      	bne.n	10001154 <ph_remove_any_head+0x50>
100011c8:	e7b9      	b.n	1000113e <ph_remove_any_head+0x3a>
100011ca:	0050      	lsls	r0, r2, #1
100011cc:	1880      	adds	r0, r0, r2
100011ce:	3803      	subs	r0, #3
100011d0:	1809      	adds	r1, r1, r0
100011d2:	7848      	ldrb	r0, [r1, #1]
100011d4:	4683      	mov	fp, r0
100011d6:	4648      	mov	r0, r9
100011d8:	7048      	strb	r0, [r1, #1]
100011da:	7058      	strb	r0, [r3, #1]
100011dc:	4641      	mov	r1, r8
100011de:	0020      	movs	r0, r4
100011e0:	f7ff fee2 	bl	10000fa8 <ph_merge_nodes>
100011e4:	4659      	mov	r1, fp
100011e6:	4680      	mov	r8, r0
100011e8:	0020      	movs	r0, r4
100011ea:	f7ff ff43 	bl	10001074 <ph_merge_two_pass>
100011ee:	4641      	mov	r1, r8
100011f0:	0002      	movs	r2, r0
100011f2:	0020      	movs	r0, r4
100011f4:	f7ff fed8 	bl	10000fa8 <ph_merge_nodes>
100011f8:	4680      	mov	r8, r0
100011fa:	e7cf      	b.n	1000119c <ph_remove_any_head+0x98>

100011fc <ph_remove_head_reserve>:
100011fc:	b5f0      	push	{r4, r5, r6, r7, lr}
100011fe:	464e      	mov	r6, r9
10001200:	4645      	mov	r5, r8
10001202:	46de      	mov	lr, fp
10001204:	4657      	mov	r7, sl
10001206:	b5e0      	push	{r5, r6, r7, lr}
10001208:	7b46      	ldrb	r6, [r0, #13]
1000120a:	0004      	movs	r4, r0
1000120c:	0075      	lsls	r5, r6, #1
1000120e:	6800      	ldr	r0, [r0, #0]
10001210:	19ad      	adds	r5, r5, r6
10001212:	3d03      	subs	r5, #3
10001214:	b083      	sub	sp, #12
10001216:	9101      	str	r1, [sp, #4]
10001218:	5d41      	ldrb	r1, [r0, r5]
1000121a:	1942      	adds	r2, r0, r5
1000121c:	2900      	cmp	r1, #0
1000121e:	d04e      	beq.n	100012be <ph_remove_head_reserve+0xc2>
10001220:	004b      	lsls	r3, r1, #1
10001222:	185b      	adds	r3, r3, r1
10001224:	3b03      	subs	r3, #3
10001226:	18c3      	adds	r3, r0, r3
10001228:	785f      	ldrb	r7, [r3, #1]
1000122a:	46bc      	mov	ip, r7
1000122c:	2f00      	cmp	r7, #0
1000122e:	d118      	bne.n	10001262 <ph_remove_head_reserve+0x66>
10001230:	9d01      	ldr	r5, [sp, #4]
10001232:	2d00      	cmp	r5, #0
10001234:	d140      	bne.n	100012b8 <ph_remove_head_reserve+0xbc>
10001236:	7be5      	ldrb	r5, [r4, #15]
10001238:	2d00      	cmp	r5, #0
1000123a:	d004      	beq.n	10001246 <ph_remove_head_reserve+0x4a>
1000123c:	006b      	lsls	r3, r5, #1
1000123e:	195b      	adds	r3, r3, r5
10001240:	18c3      	adds	r3, r0, r3
10001242:	3b03      	subs	r3, #3
10001244:	705e      	strb	r6, [r3, #1]
10001246:	73e6      	strb	r6, [r4, #15]
10001248:	2900      	cmp	r1, #0
1000124a:	d131      	bne.n	100012b0 <ph_remove_head_reserve+0xb4>
1000124c:	2300      	movs	r3, #0
1000124e:	0030      	movs	r0, r6
10001250:	7053      	strb	r3, [r2, #1]
10001252:	7361      	strb	r1, [r4, #13]
10001254:	b003      	add	sp, #12
10001256:	bc3c      	pop	{r2, r3, r4, r5}
10001258:	4690      	mov	r8, r2
1000125a:	4699      	mov	r9, r3
1000125c:	46a2      	mov	sl, r4
1000125e:	46ab      	mov	fp, r5
10001260:	bdf0      	pop	{r4, r5, r6, r7, pc}
10001262:	007a      	lsls	r2, r7, #1
10001264:	4462      	add	r2, ip
10001266:	3a03      	subs	r2, #3
10001268:	1880      	adds	r0, r0, r2
1000126a:	7842      	ldrb	r2, [r0, #1]
1000126c:	4693      	mov	fp, r2
1000126e:	2200      	movs	r2, #0
10001270:	7042      	strb	r2, [r0, #1]
10001272:	4691      	mov	r9, r2
10001274:	705a      	strb	r2, [r3, #1]
10001276:	0020      	movs	r0, r4
10001278:	003a      	movs	r2, r7
1000127a:	f7ff fe95 	bl	10000fa8 <ph_merge_nodes>
1000127e:	465b      	mov	r3, fp
10001280:	4680      	mov	r8, r0
10001282:	2b00      	cmp	r3, #0
10001284:	d007      	beq.n	10001296 <ph_remove_head_reserve+0x9a>
10001286:	005b      	lsls	r3, r3, #1
10001288:	6821      	ldr	r1, [r4, #0]
1000128a:	445b      	add	r3, fp
1000128c:	3b03      	subs	r3, #3
1000128e:	18cb      	adds	r3, r1, r3
10001290:	785a      	ldrb	r2, [r3, #1]
10001292:	2a00      	cmp	r2, #0
10001294:	d117      	bne.n	100012c6 <ph_remove_head_reserve+0xca>
10001296:	465a      	mov	r2, fp
10001298:	4641      	mov	r1, r8
1000129a:	0020      	movs	r0, r4
1000129c:	f7ff fe84 	bl	10000fa8 <ph_merge_nodes>
100012a0:	9b01      	ldr	r3, [sp, #4]
100012a2:	0001      	movs	r1, r0
100012a4:	6820      	ldr	r0, [r4, #0]
100012a6:	1942      	adds	r2, r0, r5
100012a8:	2b00      	cmp	r3, #0
100012aa:	d0c4      	beq.n	10001236 <ph_remove_head_reserve+0x3a>
100012ac:	2900      	cmp	r1, #0
100012ae:	d0cd      	beq.n	1000124c <ph_remove_head_reserve+0x50>
100012b0:	004b      	lsls	r3, r1, #1
100012b2:	185b      	adds	r3, r3, r1
100012b4:	3b03      	subs	r3, #3
100012b6:	18c3      	adds	r3, r0, r3
100012b8:	2000      	movs	r0, #0
100012ba:	7098      	strb	r0, [r3, #2]
100012bc:	e7c6      	b.n	1000124c <ph_remove_head_reserve+0x50>
100012be:	9b01      	ldr	r3, [sp, #4]
100012c0:	2b00      	cmp	r3, #0
100012c2:	d1c3      	bne.n	1000124c <ph_remove_head_reserve+0x50>
100012c4:	e7b7      	b.n	10001236 <ph_remove_head_reserve+0x3a>
100012c6:	0050      	lsls	r0, r2, #1
100012c8:	1880      	adds	r0, r0, r2
100012ca:	3803      	subs	r0, #3
100012cc:	1809      	adds	r1, r1, r0
100012ce:	7848      	ldrb	r0, [r1, #1]
100012d0:	4682      	mov	sl, r0
100012d2:	4648      	mov	r0, r9
100012d4:	7048      	strb	r0, [r1, #1]
100012d6:	7058      	strb	r0, [r3, #1]
100012d8:	4659      	mov	r1, fp
100012da:	0020      	movs	r0, r4
100012dc:	f7ff fe64 	bl	10000fa8 <ph_merge_nodes>
100012e0:	4653      	mov	r3, sl
100012e2:	4683      	mov	fp, r0
100012e4:	2b00      	cmp	r3, #0
100012e6:	d007      	beq.n	100012f8 <ph_remove_head_reserve+0xfc>
100012e8:	005b      	lsls	r3, r3, #1
100012ea:	6821      	ldr	r1, [r4, #0]
100012ec:	4453      	add	r3, sl
100012ee:	3b03      	subs	r3, #3
100012f0:	18cb      	adds	r3, r1, r3
100012f2:	785a      	ldrb	r2, [r3, #1]
100012f4:	2a00      	cmp	r2, #0
100012f6:	d106      	bne.n	10001306 <ph_remove_head_reserve+0x10a>
100012f8:	4659      	mov	r1, fp
100012fa:	4652      	mov	r2, sl
100012fc:	0020      	movs	r0, r4
100012fe:	f7ff fe53 	bl	10000fa8 <ph_merge_nodes>
10001302:	4683      	mov	fp, r0
10001304:	e7c7      	b.n	10001296 <ph_remove_head_reserve+0x9a>
10001306:	0050      	lsls	r0, r2, #1
10001308:	1880      	adds	r0, r0, r2
1000130a:	3803      	subs	r0, #3
1000130c:	1809      	adds	r1, r1, r0
1000130e:	4648      	mov	r0, r9
10001310:	784f      	ldrb	r7, [r1, #1]
10001312:	7048      	strb	r0, [r1, #1]
10001314:	7058      	strb	r0, [r3, #1]
10001316:	4651      	mov	r1, sl
10001318:	0020      	movs	r0, r4
1000131a:	f7ff fe45 	bl	10000fa8 <ph_merge_nodes>
1000131e:	0039      	movs	r1, r7
10001320:	4681      	mov	r9, r0
10001322:	0020      	movs	r0, r4
10001324:	f7ff fea6 	bl	10001074 <ph_merge_two_pass>
10001328:	4649      	mov	r1, r9
1000132a:	0002      	movs	r2, r0
1000132c:	0020      	movs	r0, r4
1000132e:	f7ff fe3b 	bl	10000fa8 <ph_merge_nodes>
10001332:	4682      	mov	sl, r0
10001334:	e7e0      	b.n	100012f8 <ph_remove_head_reserve+0xfc>
10001336:	46c0      	nop			; (mov r8, r8)

10001338 <ph_delete>:
10001338:	b570      	push	{r4, r5, r6, lr}
1000133a:	0004      	movs	r4, r0
1000133c:	2900      	cmp	r1, #0
1000133e:	d02c      	beq.n	1000139a <ph_delete+0x62>
10001340:	7b43      	ldrb	r3, [r0, #13]
10001342:	428b      	cmp	r3, r1
10001344:	d02e      	beq.n	100013a4 <ph_delete+0x6c>
10001346:	6805      	ldr	r5, [r0, #0]
10001348:	0048      	lsls	r0, r1, #1
1000134a:	1840      	adds	r0, r0, r1
1000134c:	3803      	subs	r0, #3
1000134e:	1828      	adds	r0, r5, r0
10001350:	7882      	ldrb	r2, [r0, #2]
10001352:	2a00      	cmp	r2, #0
10001354:	d021      	beq.n	1000139a <ph_delete+0x62>
10001356:	0053      	lsls	r3, r2, #1
10001358:	189b      	adds	r3, r3, r2
1000135a:	3b03      	subs	r3, #3
1000135c:	5cea      	ldrb	r2, [r5, r3]
1000135e:	18ee      	adds	r6, r5, r3
10001360:	428a      	cmp	r2, r1
10001362:	d102      	bne.n	1000136a <ph_delete+0x32>
10001364:	e01b      	b.n	1000139e <ph_delete+0x66>
10001366:	2a00      	cmp	r2, #0
10001368:	d008      	beq.n	1000137c <ph_delete+0x44>
1000136a:	0053      	lsls	r3, r2, #1
1000136c:	189b      	adds	r3, r3, r2
1000136e:	3b03      	subs	r3, #3
10001370:	18eb      	adds	r3, r5, r3
10001372:	785a      	ldrb	r2, [r3, #1]
10001374:	428a      	cmp	r2, r1
10001376:	d1f6      	bne.n	10001366 <ph_delete+0x2e>
10001378:	7842      	ldrb	r2, [r0, #1]
1000137a:	705a      	strb	r2, [r3, #1]
1000137c:	2300      	movs	r3, #0
1000137e:	2200      	movs	r2, #0
10001380:	7083      	strb	r3, [r0, #2]
10001382:	7043      	strb	r3, [r0, #1]
10001384:	0020      	movs	r0, r4
10001386:	f7ff febd 	bl	10001104 <ph_remove_any_head>
1000138a:	7b61      	ldrb	r1, [r4, #13]
1000138c:	0002      	movs	r2, r0
1000138e:	0020      	movs	r0, r4
10001390:	f7ff fe0a 	bl	10000fa8 <ph_merge_nodes>
10001394:	7360      	strb	r0, [r4, #13]
10001396:	2001      	movs	r0, #1
10001398:	e000      	b.n	1000139c <ph_delete+0x64>
1000139a:	2000      	movs	r0, #0
1000139c:	bd70      	pop	{r4, r5, r6, pc}
1000139e:	7843      	ldrb	r3, [r0, #1]
100013a0:	7033      	strb	r3, [r6, #0]
100013a2:	e7eb      	b.n	1000137c <ph_delete+0x44>
100013a4:	2200      	movs	r2, #0
100013a6:	0019      	movs	r1, r3
100013a8:	f7ff feac 	bl	10001104 <ph_remove_any_head>
100013ac:	7360      	strb	r0, [r4, #13]
100013ae:	2001      	movs	r0, #1
100013b0:	e7f4      	b.n	1000139c <ph_delete+0x64>
100013b2:	46c0      	nop			; (mov r8, r8)

100013b4 <runtime_init>:
100013b4:	4b2b      	ldr	r3, [pc, #172]	; (10001464 <runtime_init+0xb0>)
100013b6:	4a2c      	ldr	r2, [pc, #176]	; (10001468 <runtime_init+0xb4>)
100013b8:	b570      	push	{r4, r5, r6, lr}
100013ba:	601a      	str	r2, [r3, #0]
100013bc:	4a2b      	ldr	r2, [pc, #172]	; (1000146c <runtime_init+0xb8>)
100013be:	4b2c      	ldr	r3, [pc, #176]	; (10001470 <runtime_init+0xbc>)
100013c0:	492c      	ldr	r1, [pc, #176]	; (10001474 <runtime_init+0xc0>)
100013c2:	601a      	str	r2, [r3, #0]
100013c4:	0010      	movs	r0, r2
100013c6:	688b      	ldr	r3, [r1, #8]
100013c8:	4398      	bics	r0, r3
100013ca:	d1fb      	bne.n	100013c4 <runtime_init+0x10>
100013cc:	4c2a      	ldr	r4, [pc, #168]	; (10001478 <runtime_init+0xc4>)
100013ce:	4b2b      	ldr	r3, [pc, #172]	; (1000147c <runtime_init+0xc8>)
100013d0:	429c      	cmp	r4, r3
100013d2:	d209      	bcs.n	100013e8 <runtime_init+0x34>
100013d4:	3b01      	subs	r3, #1
100013d6:	1b1d      	subs	r5, r3, r4
100013d8:	08ad      	lsrs	r5, r5, #2
100013da:	3501      	adds	r5, #1
100013dc:	00ad      	lsls	r5, r5, #2
100013de:	192d      	adds	r5, r5, r4
100013e0:	cc08      	ldmia	r4!, {r3}
100013e2:	4798      	blx	r3
100013e4:	42ac      	cmp	r4, r5
100013e6:	d1fb      	bne.n	100013e0 <runtime_init+0x2c>
100013e8:	f000 f894 	bl	10001514 <clocks_init>
100013ec:	4a24      	ldr	r2, [pc, #144]	; (10001480 <runtime_init+0xcc>)
100013ee:	4b20      	ldr	r3, [pc, #128]	; (10001470 <runtime_init+0xbc>)
100013f0:	601a      	str	r2, [r3, #0]
100013f2:	4a20      	ldr	r2, [pc, #128]	; (10001474 <runtime_init+0xc0>)
100013f4:	6893      	ldr	r3, [r2, #8]
100013f6:	01db      	lsls	r3, r3, #7
100013f8:	3380      	adds	r3, #128	; 0x80
100013fa:	d1fb      	bne.n	100013f4 <runtime_init+0x40>
100013fc:	2240      	movs	r2, #64	; 0x40
100013fe:	4b21      	ldr	r3, [pc, #132]	; (10001484 <runtime_init+0xd0>)
10001400:	4c21      	ldr	r4, [pc, #132]	; (10001488 <runtime_init+0xd4>)
10001402:	679a      	str	r2, [r3, #120]	; 0x78
10001404:	675a      	str	r2, [r3, #116]	; 0x74
10001406:	671a      	str	r2, [r3, #112]	; 0x70
10001408:	66da      	str	r2, [r3, #108]	; 0x6c
1000140a:	4b20      	ldr	r3, [pc, #128]	; (1000148c <runtime_init+0xd8>)
1000140c:	429c      	cmp	r4, r3
1000140e:	d20b      	bcs.n	10001428 <runtime_init+0x74>
10001410:	3b01      	subs	r3, #1
10001412:	1b1d      	subs	r5, r3, r4
10001414:	08ed      	lsrs	r5, r5, #3
10001416:	3501      	adds	r5, #1
10001418:	00ed      	lsls	r5, r5, #3
1000141a:	192d      	adds	r5, r5, r4
1000141c:	0020      	movs	r0, r4
1000141e:	3408      	adds	r4, #8
10001420:	f7ff fdb6 	bl	10000f90 <mutex_init>
10001424:	42ac      	cmp	r4, r5
10001426:	d1f9      	bne.n	1000141c <runtime_init+0x68>
10001428:	4c19      	ldr	r4, [pc, #100]	; (10001490 <runtime_init+0xdc>)
1000142a:	4d1a      	ldr	r5, [pc, #104]	; (10001494 <runtime_init+0xe0>)
1000142c:	68a1      	ldr	r1, [r4, #8]
1000142e:	22c0      	movs	r2, #192	; 0xc0
10001430:	0028      	movs	r0, r5
10001432:	f002 fe23 	bl	1000407c <__wrap___aeabi_memcpy>
10001436:	60a5      	str	r5, [r4, #8]
10001438:	f7ff f902 	bl	10000640 <spin_locks_reset>
1000143c:	f000 fbaa 	bl	10001b94 <irq_init_priorities>
10001440:	f7ff fbc4 	bl	10000bcc <alarm_pool_init_default>
10001444:	4c14      	ldr	r4, [pc, #80]	; (10001498 <runtime_init+0xe4>)
10001446:	4b15      	ldr	r3, [pc, #84]	; (1000149c <runtime_init+0xe8>)
10001448:	429c      	cmp	r4, r3
1000144a:	d209      	bcs.n	10001460 <runtime_init+0xac>
1000144c:	3b01      	subs	r3, #1
1000144e:	1b1d      	subs	r5, r3, r4
10001450:	08ad      	lsrs	r5, r5, #2
10001452:	3501      	adds	r5, #1
10001454:	00ad      	lsls	r5, r5, #2
10001456:	192d      	adds	r5, r5, r4
10001458:	cc08      	ldmia	r4!, {r3}
1000145a:	4798      	blx	r3
1000145c:	42a5      	cmp	r5, r4
1000145e:	d1fb      	bne.n	10001458 <runtime_init+0xa4>
10001460:	bd70      	pop	{r4, r5, r6, pc}
10001462:	46c0      	nop			; (mov r8, r8)
10001464:	4000e000 	.word	0x4000e000
10001468:	ffffcdbf 	.word	0xffffcdbf
1000146c:	003c7ffe 	.word	0x003c7ffe
10001470:	4000f000 	.word	0x4000f000
10001474:	4000c000 	.word	0x4000c000
10001478:	20000b08 	.word	0x20000b08
1000147c:	20000b18 	.word	0x20000b18
10001480:	01ffffff 	.word	0x01ffffff
10001484:	4001f000 	.word	0x4001f000
10001488:	20000b00 	.word	0x20000b00
1000148c:	20000b08 	.word	0x20000b08
10001490:	e000ed00 	.word	0xe000ed00
10001494:	20000000 	.word	0x20000000
10001498:	20000b18 	.word	0x20000b18
1000149c:	20000b1c 	.word	0x20000b1c

100014a0 <_sbrk>:
100014a0:	4a09      	ldr	r2, [pc, #36]	; (100014c8 <_sbrk+0x28>)
100014a2:	0003      	movs	r3, r0
100014a4:	6810      	ldr	r0, [r2, #0]
100014a6:	2800      	cmp	r0, #0
100014a8:	d005      	beq.n	100014b6 <_sbrk+0x16>
100014aa:	4908      	ldr	r1, [pc, #32]	; (100014cc <_sbrk+0x2c>)
100014ac:	18c3      	adds	r3, r0, r3
100014ae:	428b      	cmp	r3, r1
100014b0:	d207      	bcs.n	100014c2 <_sbrk+0x22>
100014b2:	6013      	str	r3, [r2, #0]
100014b4:	4770      	bx	lr
100014b6:	4806      	ldr	r0, [pc, #24]	; (100014d0 <_sbrk+0x30>)
100014b8:	4904      	ldr	r1, [pc, #16]	; (100014cc <_sbrk+0x2c>)
100014ba:	18c3      	adds	r3, r0, r3
100014bc:	6010      	str	r0, [r2, #0]
100014be:	428b      	cmp	r3, r1
100014c0:	d3f7      	bcc.n	100014b2 <_sbrk+0x12>
100014c2:	2001      	movs	r0, #1
100014c4:	4240      	negs	r0, r0
100014c6:	e7f5      	b.n	100014b4 <_sbrk+0x14>
100014c8:	20000bb0 	.word	0x20000bb0
100014cc:	20040000 	.word	0x20040000
100014d0:	20000e0c 	.word	0x20000e0c

100014d4 <exit>:
100014d4:	be00      	bkpt	0x0000
100014d6:	e7fd      	b.n	100014d4 <exit>

100014d8 <panic>:
100014d8:	b40f      	push	{r0, r1, r2, r3}
100014da:	b500      	push	{lr}
100014dc:	4808      	ldr	r0, [pc, #32]	; (10001500 <panic+0x28>)
100014de:	b083      	sub	sp, #12
100014e0:	f002 fede 	bl	100042a0 <__wrap_puts>
100014e4:	9b04      	ldr	r3, [sp, #16]
100014e6:	2b00      	cmp	r3, #0
100014e8:	d007      	beq.n	100014fa <panic+0x22>
100014ea:	a905      	add	r1, sp, #20
100014ec:	0018      	movs	r0, r3
100014ee:	9101      	str	r1, [sp, #4]
100014f0:	f001 fe78 	bl	100031e4 <weak_raw_vprintf>
100014f4:	4803      	ldr	r0, [pc, #12]	; (10001504 <panic+0x2c>)
100014f6:	f002 fed3 	bl	100042a0 <__wrap_puts>
100014fa:	be00      	bkpt	0x0000
100014fc:	e7fd      	b.n	100014fa <panic+0x22>
100014fe:	46c0      	nop			; (mov r8, r8)
10001500:	10005004 	.word	0x10005004
10001504:	10004fd0 	.word	0x10004fd0

10001508 <hard_assertion_failure>:
10001508:	b510      	push	{r4, lr}
1000150a:	4801      	ldr	r0, [pc, #4]	; (10001510 <hard_assertion_failure+0x8>)
1000150c:	f7ff ffe4 	bl	100014d8 <panic>
10001510:	10005014 	.word	0x10005014

10001514 <clocks_init>:
10001514:	b530      	push	{r4, r5, lr}
10001516:	200c      	movs	r0, #12
10001518:	b083      	sub	sp, #12
1000151a:	f000 f971 	bl	10001800 <watchdog_start_tick>
1000151e:	f7ff f8a9 	bl	10000674 <running_on_fpga>
10001522:	2800      	cmp	r0, #0
10001524:	d00e      	beq.n	10001544 <clocks_init+0x30>
10001526:	4b9a      	ldr	r3, [pc, #616]	; (10001790 <clocks_init+0x27c>)
10001528:	4a9a      	ldr	r2, [pc, #616]	; (10001794 <clocks_init+0x280>)
1000152a:	601a      	str	r2, [r3, #0]
1000152c:	605a      	str	r2, [r3, #4]
1000152e:	609a      	str	r2, [r3, #8]
10001530:	60da      	str	r2, [r3, #12]
10001532:	611a      	str	r2, [r3, #16]
10001534:	615a      	str	r2, [r3, #20]
10001536:	619a      	str	r2, [r3, #24]
10001538:	61da      	str	r2, [r3, #28]
1000153a:	621a      	str	r2, [r3, #32]
1000153c:	4a96      	ldr	r2, [pc, #600]	; (10001798 <clocks_init+0x284>)
1000153e:	625a      	str	r2, [r3, #36]	; 0x24
10001540:	b003      	add	sp, #12
10001542:	bd30      	pop	{r4, r5, pc}
10001544:	4c95      	ldr	r4, [pc, #596]	; (1000179c <clocks_init+0x288>)
10001546:	67a0      	str	r0, [r4, #120]	; 0x78
10001548:	f000 f962 	bl	10001810 <xosc_init>
1000154c:	2201      	movs	r2, #1
1000154e:	4b94      	ldr	r3, [pc, #592]	; (100017a0 <clocks_init+0x28c>)
10001550:	601a      	str	r2, [r3, #0]
10001552:	6c63      	ldr	r3, [r4, #68]	; 0x44
10001554:	2b01      	cmp	r3, #1
10001556:	d1fc      	bne.n	10001552 <clocks_init+0x3e>
10001558:	2203      	movs	r2, #3
1000155a:	4b92      	ldr	r3, [pc, #584]	; (100017a4 <clocks_init+0x290>)
1000155c:	601a      	str	r2, [r3, #0]
1000155e:	4a8f      	ldr	r2, [pc, #572]	; (1000179c <clocks_init+0x288>)
10001560:	6b93      	ldr	r3, [r2, #56]	; 0x38
10001562:	2b01      	cmp	r3, #1
10001564:	d1fc      	bne.n	10001560 <clocks_init+0x4c>
10001566:	22c0      	movs	r2, #192	; 0xc0
10001568:	4b8f      	ldr	r3, [pc, #572]	; (100017a8 <clocks_init+0x294>)
1000156a:	0192      	lsls	r2, r2, #6
1000156c:	601a      	str	r2, [r3, #0]
1000156e:	4b8f      	ldr	r3, [pc, #572]	; (100017ac <clocks_init+0x298>)
10001570:	498f      	ldr	r1, [pc, #572]	; (100017b0 <clocks_init+0x29c>)
10001572:	601a      	str	r2, [r3, #0]
10001574:	0010      	movs	r0, r2
10001576:	688b      	ldr	r3, [r1, #8]
10001578:	4398      	bics	r0, r3
1000157a:	1e03      	subs	r3, r0, #0
1000157c:	d1fa      	bne.n	10001574 <clocks_init+0x60>
1000157e:	2402      	movs	r4, #2
10001580:	2101      	movs	r1, #1
10001582:	4a8c      	ldr	r2, [pc, #560]	; (100017b4 <clocks_init+0x2a0>)
10001584:	488c      	ldr	r0, [pc, #560]	; (100017b8 <clocks_init+0x2a4>)
10001586:	3306      	adds	r3, #6
10001588:	9400      	str	r4, [sp, #0]
1000158a:	f000 f955 	bl	10001838 <pll_init>
1000158e:	2305      	movs	r3, #5
10001590:	4a8a      	ldr	r2, [pc, #552]	; (100017bc <clocks_init+0x2a8>)
10001592:	2101      	movs	r1, #1
10001594:	488a      	ldr	r0, [pc, #552]	; (100017c0 <clocks_init+0x2ac>)
10001596:	9400      	str	r4, [sp, #0]
10001598:	f000 f94e 	bl	10001838 <pll_init>
1000159c:	4b89      	ldr	r3, [pc, #548]	; (100017c4 <clocks_init+0x2b0>)
1000159e:	685a      	ldr	r2, [r3, #4]
100015a0:	2aff      	cmp	r2, #255	; 0xff
100015a2:	d802      	bhi.n	100015aa <clocks_init+0x96>
100015a4:	2280      	movs	r2, #128	; 0x80
100015a6:	0052      	lsls	r2, r2, #1
100015a8:	605a      	str	r2, [r3, #4]
100015aa:	2280      	movs	r2, #128	; 0x80
100015ac:	4c78      	ldr	r4, [pc, #480]	; (10001790 <clocks_init+0x27c>)
100015ae:	4b7d      	ldr	r3, [pc, #500]	; (100017a4 <clocks_init+0x290>)
100015b0:	6921      	ldr	r1, [r4, #16]
100015b2:	0112      	lsls	r2, r2, #4
100015b4:	4d83      	ldr	r5, [pc, #524]	; (100017c4 <clocks_init+0x2b0>)
100015b6:	601a      	str	r2, [r3, #0]
100015b8:	2900      	cmp	r1, #0
100015ba:	d005      	beq.n	100015c8 <clocks_init+0xb4>
100015bc:	6960      	ldr	r0, [r4, #20]
100015be:	f001 fe8b 	bl	100032d8 <__wrap___aeabi_uidiv>
100015c2:	3001      	adds	r0, #1
100015c4:	3801      	subs	r0, #1
100015c6:	d1fd      	bne.n	100015c4 <clocks_init+0xb0>
100015c8:	21e0      	movs	r1, #224	; 0xe0
100015ca:	4b7e      	ldr	r3, [pc, #504]	; (100017c4 <clocks_init+0x2b0>)
100015cc:	2002      	movs	r0, #2
100015ce:	681a      	ldr	r2, [r3, #0]
100015d0:	4011      	ands	r1, r2
100015d2:	2280      	movs	r2, #128	; 0x80
100015d4:	0152      	lsls	r2, r2, #5
100015d6:	432a      	orrs	r2, r5
100015d8:	6011      	str	r1, [r2, #0]
100015da:	6819      	ldr	r1, [r3, #0]
100015dc:	4048      	eors	r0, r1
100015de:	2103      	movs	r1, #3
100015e0:	4001      	ands	r1, r0
100015e2:	6011      	str	r1, [r2, #0]
100015e4:	2104      	movs	r1, #4
100015e6:	689a      	ldr	r2, [r3, #8]
100015e8:	4211      	tst	r1, r2
100015ea:	d0fc      	beq.n	100015e6 <clocks_init+0xd2>
100015ec:	2280      	movs	r2, #128	; 0x80
100015ee:	2180      	movs	r1, #128	; 0x80
100015f0:	0192      	lsls	r2, r2, #6
100015f2:	432a      	orrs	r2, r5
100015f4:	0109      	lsls	r1, r1, #4
100015f6:	6011      	str	r1, [r2, #0]
100015f8:	2280      	movs	r2, #128	; 0x80
100015fa:	0052      	lsls	r2, r2, #1
100015fc:	605a      	str	r2, [r3, #4]
100015fe:	4b72      	ldr	r3, [pc, #456]	; (100017c8 <clocks_init+0x2b4>)
10001600:	6123      	str	r3, [r4, #16]
10001602:	4b72      	ldr	r3, [pc, #456]	; (100017cc <clocks_init+0x2b8>)
10001604:	6859      	ldr	r1, [r3, #4]
10001606:	29ff      	cmp	r1, #255	; 0xff
10001608:	d800      	bhi.n	1000160c <clocks_init+0xf8>
1000160a:	605a      	str	r2, [r3, #4]
1000160c:	2203      	movs	r2, #3
1000160e:	486f      	ldr	r0, [pc, #444]	; (100017cc <clocks_init+0x2b8>)
10001610:	4b63      	ldr	r3, [pc, #396]	; (100017a0 <clocks_init+0x28c>)
10001612:	2101      	movs	r1, #1
10001614:	601a      	str	r2, [r3, #0]
10001616:	0002      	movs	r2, r0
10001618:	6893      	ldr	r3, [r2, #8]
1000161a:	4219      	tst	r1, r3
1000161c:	d0fc      	beq.n	10001618 <clocks_init+0x104>
1000161e:	25e0      	movs	r5, #224	; 0xe0
10001620:	6813      	ldr	r3, [r2, #0]
10001622:	401d      	ands	r5, r3
10001624:	2380      	movs	r3, #128	; 0x80
10001626:	015b      	lsls	r3, r3, #5
10001628:	4303      	orrs	r3, r0
1000162a:	601d      	str	r5, [r3, #0]
1000162c:	6812      	ldr	r2, [r2, #0]
1000162e:	404a      	eors	r2, r1
10001630:	2103      	movs	r1, #3
10001632:	4011      	ands	r1, r2
10001634:	6019      	str	r1, [r3, #0]
10001636:	2102      	movs	r1, #2
10001638:	4a64      	ldr	r2, [pc, #400]	; (100017cc <clocks_init+0x2b8>)
1000163a:	6893      	ldr	r3, [r2, #8]
1000163c:	4219      	tst	r1, r3
1000163e:	d0fc      	beq.n	1000163a <clocks_init+0x126>
10001640:	2380      	movs	r3, #128	; 0x80
10001642:	2180      	movs	r1, #128	; 0x80
10001644:	019b      	lsls	r3, r3, #6
10001646:	4303      	orrs	r3, r0
10001648:	0109      	lsls	r1, r1, #4
1000164a:	6019      	str	r1, [r3, #0]
1000164c:	2180      	movs	r1, #128	; 0x80
1000164e:	4b60      	ldr	r3, [pc, #384]	; (100017d0 <clocks_init+0x2bc>)
10001650:	0049      	lsls	r1, r1, #1
10001652:	6051      	str	r1, [r2, #4]
10001654:	6163      	str	r3, [r4, #20]
10001656:	4b5f      	ldr	r3, [pc, #380]	; (100017d4 <clocks_init+0x2c0>)
10001658:	685a      	ldr	r2, [r3, #4]
1000165a:	2aff      	cmp	r2, #255	; 0xff
1000165c:	d800      	bhi.n	10001660 <clocks_init+0x14c>
1000165e:	6059      	str	r1, [r3, #4]
10001660:	2280      	movs	r2, #128	; 0x80
10001662:	4b5d      	ldr	r3, [pc, #372]	; (100017d8 <clocks_init+0x2c4>)
10001664:	69e1      	ldr	r1, [r4, #28]
10001666:	0112      	lsls	r2, r2, #4
10001668:	4d5a      	ldr	r5, [pc, #360]	; (100017d4 <clocks_init+0x2c0>)
1000166a:	601a      	str	r2, [r3, #0]
1000166c:	2900      	cmp	r1, #0
1000166e:	d005      	beq.n	1000167c <clocks_init+0x168>
10001670:	6960      	ldr	r0, [r4, #20]
10001672:	f001 fe31 	bl	100032d8 <__wrap___aeabi_uidiv>
10001676:	3001      	adds	r0, #1
10001678:	3801      	subs	r0, #1
1000167a:	d1fd      	bne.n	10001678 <clocks_init+0x164>
1000167c:	22e0      	movs	r2, #224	; 0xe0
1000167e:	4955      	ldr	r1, [pc, #340]	; (100017d4 <clocks_init+0x2c0>)
10001680:	680b      	ldr	r3, [r1, #0]
10001682:	401a      	ands	r2, r3
10001684:	2380      	movs	r3, #128	; 0x80
10001686:	015b      	lsls	r3, r3, #5
10001688:	432b      	orrs	r3, r5
1000168a:	601a      	str	r2, [r3, #0]
1000168c:	2380      	movs	r3, #128	; 0x80
1000168e:	2280      	movs	r2, #128	; 0x80
10001690:	019b      	lsls	r3, r3, #6
10001692:	432b      	orrs	r3, r5
10001694:	0112      	lsls	r2, r2, #4
10001696:	601a      	str	r2, [r3, #0]
10001698:	2280      	movs	r2, #128	; 0x80
1000169a:	4b3e      	ldr	r3, [pc, #248]	; (10001794 <clocks_init+0x280>)
1000169c:	0052      	lsls	r2, r2, #1
1000169e:	604a      	str	r2, [r1, #4]
100016a0:	61e3      	str	r3, [r4, #28]
100016a2:	4b4e      	ldr	r3, [pc, #312]	; (100017dc <clocks_init+0x2c8>)
100016a4:	6859      	ldr	r1, [r3, #4]
100016a6:	29ff      	cmp	r1, #255	; 0xff
100016a8:	d800      	bhi.n	100016ac <clocks_init+0x198>
100016aa:	605a      	str	r2, [r3, #4]
100016ac:	2280      	movs	r2, #128	; 0x80
100016ae:	4b4c      	ldr	r3, [pc, #304]	; (100017e0 <clocks_init+0x2cc>)
100016b0:	6a21      	ldr	r1, [r4, #32]
100016b2:	0112      	lsls	r2, r2, #4
100016b4:	4d49      	ldr	r5, [pc, #292]	; (100017dc <clocks_init+0x2c8>)
100016b6:	601a      	str	r2, [r3, #0]
100016b8:	2900      	cmp	r1, #0
100016ba:	d005      	beq.n	100016c8 <clocks_init+0x1b4>
100016bc:	6960      	ldr	r0, [r4, #20]
100016be:	f001 fe0b 	bl	100032d8 <__wrap___aeabi_uidiv>
100016c2:	3001      	adds	r0, #1
100016c4:	3801      	subs	r0, #1
100016c6:	d1fd      	bne.n	100016c4 <clocks_init+0x1b0>
100016c8:	22e0      	movs	r2, #224	; 0xe0
100016ca:	4944      	ldr	r1, [pc, #272]	; (100017dc <clocks_init+0x2c8>)
100016cc:	680b      	ldr	r3, [r1, #0]
100016ce:	401a      	ands	r2, r3
100016d0:	2380      	movs	r3, #128	; 0x80
100016d2:	015b      	lsls	r3, r3, #5
100016d4:	432b      	orrs	r3, r5
100016d6:	601a      	str	r2, [r3, #0]
100016d8:	2380      	movs	r3, #128	; 0x80
100016da:	2280      	movs	r2, #128	; 0x80
100016dc:	019b      	lsls	r3, r3, #6
100016de:	432b      	orrs	r3, r5
100016e0:	0112      	lsls	r2, r2, #4
100016e2:	601a      	str	r2, [r3, #0]
100016e4:	2380      	movs	r3, #128	; 0x80
100016e6:	2280      	movs	r2, #128	; 0x80
100016e8:	005b      	lsls	r3, r3, #1
100016ea:	604b      	str	r3, [r1, #4]
100016ec:	4b29      	ldr	r3, [pc, #164]	; (10001794 <clocks_init+0x280>)
100016ee:	02d2      	lsls	r2, r2, #11
100016f0:	6223      	str	r3, [r4, #32]
100016f2:	4b3c      	ldr	r3, [pc, #240]	; (100017e4 <clocks_init+0x2d0>)
100016f4:	6859      	ldr	r1, [r3, #4]
100016f6:	4291      	cmp	r1, r2
100016f8:	d200      	bcs.n	100016fc <clocks_init+0x1e8>
100016fa:	605a      	str	r2, [r3, #4]
100016fc:	2280      	movs	r2, #128	; 0x80
100016fe:	4b3a      	ldr	r3, [pc, #232]	; (100017e8 <clocks_init+0x2d4>)
10001700:	6a61      	ldr	r1, [r4, #36]	; 0x24
10001702:	0112      	lsls	r2, r2, #4
10001704:	4d37      	ldr	r5, [pc, #220]	; (100017e4 <clocks_init+0x2d0>)
10001706:	601a      	str	r2, [r3, #0]
10001708:	2900      	cmp	r1, #0
1000170a:	d005      	beq.n	10001718 <clocks_init+0x204>
1000170c:	6960      	ldr	r0, [r4, #20]
1000170e:	f001 fde3 	bl	100032d8 <__wrap___aeabi_uidiv>
10001712:	3001      	adds	r0, #1
10001714:	3801      	subs	r0, #1
10001716:	d1fd      	bne.n	10001714 <clocks_init+0x200>
10001718:	22e0      	movs	r2, #224	; 0xe0
1000171a:	4932      	ldr	r1, [pc, #200]	; (100017e4 <clocks_init+0x2d0>)
1000171c:	680b      	ldr	r3, [r1, #0]
1000171e:	401a      	ands	r2, r3
10001720:	2380      	movs	r3, #128	; 0x80
10001722:	015b      	lsls	r3, r3, #5
10001724:	432b      	orrs	r3, r5
10001726:	601a      	str	r2, [r3, #0]
10001728:	2380      	movs	r3, #128	; 0x80
1000172a:	2280      	movs	r2, #128	; 0x80
1000172c:	019b      	lsls	r3, r3, #6
1000172e:	432b      	orrs	r3, r5
10001730:	0112      	lsls	r2, r2, #4
10001732:	601a      	str	r2, [r3, #0]
10001734:	2380      	movs	r3, #128	; 0x80
10001736:	02db      	lsls	r3, r3, #11
10001738:	604b      	str	r3, [r1, #4]
1000173a:	4b17      	ldr	r3, [pc, #92]	; (10001798 <clocks_init+0x284>)
1000173c:	6263      	str	r3, [r4, #36]	; 0x24
1000173e:	4b2b      	ldr	r3, [pc, #172]	; (100017ec <clocks_init+0x2d8>)
10001740:	685a      	ldr	r2, [r3, #4]
10001742:	2aff      	cmp	r2, #255	; 0xff
10001744:	d802      	bhi.n	1000174c <clocks_init+0x238>
10001746:	2280      	movs	r2, #128	; 0x80
10001748:	0052      	lsls	r2, r2, #1
1000174a:	605a      	str	r2, [r3, #4]
1000174c:	2280      	movs	r2, #128	; 0x80
1000174e:	4b28      	ldr	r3, [pc, #160]	; (100017f0 <clocks_init+0x2dc>)
10001750:	69a1      	ldr	r1, [r4, #24]
10001752:	0112      	lsls	r2, r2, #4
10001754:	4d25      	ldr	r5, [pc, #148]	; (100017ec <clocks_init+0x2d8>)
10001756:	601a      	str	r2, [r3, #0]
10001758:	2900      	cmp	r1, #0
1000175a:	d005      	beq.n	10001768 <clocks_init+0x254>
1000175c:	6960      	ldr	r0, [r4, #20]
1000175e:	f001 fdbb 	bl	100032d8 <__wrap___aeabi_uidiv>
10001762:	3001      	adds	r0, #1
10001764:	3801      	subs	r0, #1
10001766:	d1fd      	bne.n	10001764 <clocks_init+0x250>
10001768:	22e0      	movs	r2, #224	; 0xe0
1000176a:	4920      	ldr	r1, [pc, #128]	; (100017ec <clocks_init+0x2d8>)
1000176c:	680b      	ldr	r3, [r1, #0]
1000176e:	401a      	ands	r2, r3
10001770:	2380      	movs	r3, #128	; 0x80
10001772:	015b      	lsls	r3, r3, #5
10001774:	432b      	orrs	r3, r5
10001776:	601a      	str	r2, [r3, #0]
10001778:	2380      	movs	r3, #128	; 0x80
1000177a:	2280      	movs	r2, #128	; 0x80
1000177c:	019b      	lsls	r3, r3, #6
1000177e:	432b      	orrs	r3, r5
10001780:	0112      	lsls	r2, r2, #4
10001782:	601a      	str	r2, [r3, #0]
10001784:	2380      	movs	r3, #128	; 0x80
10001786:	005b      	lsls	r3, r3, #1
10001788:	604b      	str	r3, [r1, #4]
1000178a:	4b11      	ldr	r3, [pc, #68]	; (100017d0 <clocks_init+0x2bc>)
1000178c:	61a3      	str	r3, [r4, #24]
1000178e:	e6d7      	b.n	10001540 <clocks_init+0x2c>
10001790:	20000b7c 	.word	0x20000b7c
10001794:	02dc6c00 	.word	0x02dc6c00
10001798:	0000b71b 	.word	0x0000b71b
1000179c:	40008000 	.word	0x40008000
100017a0:	4000b03c 	.word	0x4000b03c
100017a4:	4000b030 	.word	0x4000b030
100017a8:	4000e000 	.word	0x4000e000
100017ac:	4000f000 	.word	0x4000f000
100017b0:	4000c000 	.word	0x4000c000
100017b4:	59682f00 	.word	0x59682f00
100017b8:	40028000 	.word	0x40028000
100017bc:	1c9c3800 	.word	0x1c9c3800
100017c0:	4002c000 	.word	0x4002c000
100017c4:	40008030 	.word	0x40008030
100017c8:	00b71b00 	.word	0x00b71b00
100017cc:	4000803c 	.word	0x4000803c
100017d0:	07735940 	.word	0x07735940
100017d4:	40008054 	.word	0x40008054
100017d8:	4000b054 	.word	0x4000b054
100017dc:	40008060 	.word	0x40008060
100017e0:	4000b060 	.word	0x4000b060
100017e4:	4000806c 	.word	0x4000806c
100017e8:	4000b06c 	.word	0x4000b06c
100017ec:	40008048 	.word	0x40008048
100017f0:	4000b048 	.word	0x4000b048

100017f4 <clock_get_hz>:
100017f4:	4b01      	ldr	r3, [pc, #4]	; (100017fc <clock_get_hz+0x8>)
100017f6:	0080      	lsls	r0, r0, #2
100017f8:	58c0      	ldr	r0, [r0, r3]
100017fa:	4770      	bx	lr
100017fc:	20000b7c 	.word	0x20000b7c

10001800 <watchdog_start_tick>:
10001800:	2380      	movs	r3, #128	; 0x80
10001802:	4a02      	ldr	r2, [pc, #8]	; (1000180c <watchdog_start_tick+0xc>)
10001804:	009b      	lsls	r3, r3, #2
10001806:	4303      	orrs	r3, r0
10001808:	62d3      	str	r3, [r2, #44]	; 0x2c
1000180a:	4770      	bx	lr
1000180c:	40058000 	.word	0x40058000

10001810 <xosc_init>:
10001810:	23aa      	movs	r3, #170	; 0xaa
10001812:	4a06      	ldr	r2, [pc, #24]	; (1000182c <xosc_init+0x1c>)
10001814:	011b      	lsls	r3, r3, #4
10001816:	6013      	str	r3, [r2, #0]
10001818:	232f      	movs	r3, #47	; 0x2f
1000181a:	4905      	ldr	r1, [pc, #20]	; (10001830 <xosc_init+0x20>)
1000181c:	60d3      	str	r3, [r2, #12]
1000181e:	4b05      	ldr	r3, [pc, #20]	; (10001834 <xosc_init+0x24>)
10001820:	6019      	str	r1, [r3, #0]
10001822:	6853      	ldr	r3, [r2, #4]
10001824:	2b00      	cmp	r3, #0
10001826:	dafc      	bge.n	10001822 <xosc_init+0x12>
10001828:	4770      	bx	lr
1000182a:	46c0      	nop			; (mov r8, r8)
1000182c:	40024000 	.word	0x40024000
10001830:	00fab000 	.word	0x00fab000
10001834:	40026000 	.word	0x40026000

10001838 <pll_init>:
10001838:	b5f8      	push	{r3, r4, r5, r6, r7, lr}
1000183a:	001d      	movs	r5, r3
1000183c:	ab06      	add	r3, sp, #24
1000183e:	781e      	ldrb	r6, [r3, #0]
10001840:	2301      	movs	r3, #1
10001842:	425b      	negs	r3, r3
10001844:	6043      	str	r3, [r0, #4]
10001846:	2300      	movs	r3, #0
10001848:	0004      	movs	r4, r0
1000184a:	6083      	str	r3, [r0, #8]
1000184c:	6001      	str	r1, [r0, #0]
1000184e:	200c      	movs	r0, #12
10001850:	0017      	movs	r7, r2
10001852:	f001 fd41 	bl	100032d8 <__wrap___aeabi_uidiv>
10001856:	0141      	lsls	r1, r0, #5
10001858:	1a09      	subs	r1, r1, r0
1000185a:	018b      	lsls	r3, r1, #6
1000185c:	1a59      	subs	r1, r3, r1
1000185e:	00c9      	lsls	r1, r1, #3
10001860:	1809      	adds	r1, r1, r0
10001862:	0189      	lsls	r1, r1, #6
10001864:	0038      	movs	r0, r7
10001866:	f001 fd37 	bl	100032d8 <__wrap___aeabi_uidiv>
1000186a:	21c0      	movs	r1, #192	; 0xc0
1000186c:	1d23      	adds	r3, r4, #4
1000186e:	0189      	lsls	r1, r1, #6
10001870:	4319      	orrs	r1, r3
10001872:	2321      	movs	r3, #33	; 0x21
10001874:	60a0      	str	r0, [r4, #8]
10001876:	600b      	str	r3, [r1, #0]
10001878:	6822      	ldr	r2, [r4, #0]
1000187a:	2a00      	cmp	r2, #0
1000187c:	dafc      	bge.n	10001878 <pll_init+0x40>
1000187e:	2308      	movs	r3, #8
10001880:	042d      	lsls	r5, r5, #16
10001882:	0336      	lsls	r6, r6, #12
10001884:	432e      	orrs	r6, r5
10001886:	60e6      	str	r6, [r4, #12]
10001888:	600b      	str	r3, [r1, #0]
1000188a:	bdf8      	pop	{r3, r4, r5, r6, r7, pc}

1000188c <irq_set_enabled>:
1000188c:	2301      	movs	r3, #1
1000188e:	4083      	lsls	r3, r0
10001890:	2900      	cmp	r1, #0
10001892:	d004      	beq.n	1000189e <irq_set_enabled+0x12>
10001894:	4a03      	ldr	r2, [pc, #12]	; (100018a4 <irq_set_enabled+0x18>)
10001896:	6013      	str	r3, [r2, #0]
10001898:	4a03      	ldr	r2, [pc, #12]	; (100018a8 <irq_set_enabled+0x1c>)
1000189a:	6013      	str	r3, [r2, #0]
1000189c:	4770      	bx	lr
1000189e:	4a03      	ldr	r2, [pc, #12]	; (100018ac <irq_set_enabled+0x20>)
100018a0:	6013      	str	r3, [r2, #0]
100018a2:	e7fb      	b.n	1000189c <irq_set_enabled+0x10>
100018a4:	e000e280 	.word	0xe000e280
100018a8:	e000e100 	.word	0xe000e100
100018ac:	e000e180 	.word	0xe000e180

100018b0 <irq_get_vtable_handler>:
100018b0:	4b02      	ldr	r3, [pc, #8]	; (100018bc <irq_get_vtable_handler+0xc>)
100018b2:	3010      	adds	r0, #16
100018b4:	689b      	ldr	r3, [r3, #8]
100018b6:	0080      	lsls	r0, r0, #2
100018b8:	58c0      	ldr	r0, [r0, r3]
100018ba:	4770      	bx	lr
100018bc:	e000ed00 	.word	0xe000ed00

100018c0 <irq_set_exclusive_handler>:
100018c0:	b570      	push	{r4, r5, r6, lr}
100018c2:	000d      	movs	r5, r1
100018c4:	f3ef 8610 	mrs	r6, PRIMASK
100018c8:	b672      	cpsid	i
100018ca:	4a0f      	ldr	r2, [pc, #60]	; (10001908 <irq_set_exclusive_handler+0x48>)
100018cc:	6813      	ldr	r3, [r2, #0]
100018ce:	2b00      	cmp	r3, #0
100018d0:	d0fc      	beq.n	100018cc <irq_set_exclusive_handler+0xc>
100018d2:	f3bf 8f5f 	dmb	sy
100018d6:	4b0d      	ldr	r3, [pc, #52]	; (1000190c <irq_set_exclusive_handler+0x4c>)
100018d8:	3010      	adds	r0, #16
100018da:	689b      	ldr	r3, [r3, #8]
100018dc:	0084      	lsls	r4, r0, #2
100018de:	591b      	ldr	r3, [r3, r4]
100018e0:	4a0b      	ldr	r2, [pc, #44]	; (10001910 <irq_set_exclusive_handler+0x50>)
100018e2:	4293      	cmp	r3, r2
100018e4:	d003      	beq.n	100018ee <irq_set_exclusive_handler+0x2e>
100018e6:	429d      	cmp	r5, r3
100018e8:	d001      	beq.n	100018ee <irq_set_exclusive_handler+0x2e>
100018ea:	f7ff fe0d 	bl	10001508 <hard_assertion_failure>
100018ee:	4b07      	ldr	r3, [pc, #28]	; (1000190c <irq_set_exclusive_handler+0x4c>)
100018f0:	689b      	ldr	r3, [r3, #8]
100018f2:	511d      	str	r5, [r3, r4]
100018f4:	f3bf 8f5f 	dmb	sy
100018f8:	f3bf 8f5f 	dmb	sy
100018fc:	2200      	movs	r2, #0
100018fe:	4b02      	ldr	r3, [pc, #8]	; (10001908 <irq_set_exclusive_handler+0x48>)
10001900:	601a      	str	r2, [r3, #0]
10001902:	f386 8810 	msr	PRIMASK, r6
10001906:	bd70      	pop	{r4, r5, r6, pc}
10001908:	d0000124 	.word	0xd0000124
1000190c:	e000ed00 	.word	0xe000ed00
10001910:	100002cd 	.word	0x100002cd

10001914 <irq_remove_handler>:
10001914:	b5f0      	push	{r4, r5, r6, r7, lr}
10001916:	46de      	mov	lr, fp
10001918:	4657      	mov	r7, sl
1000191a:	464e      	mov	r6, r9
1000191c:	4645      	mov	r5, r8
1000191e:	b5e0      	push	{r5, r6, r7, lr}
10001920:	000c      	movs	r4, r1
10001922:	b083      	sub	sp, #12
10001924:	f3ef 8a10 	mrs	sl, PRIMASK
10001928:	b672      	cpsid	i
1000192a:	4a5f      	ldr	r2, [pc, #380]	; (10001aa8 <irq_remove_handler+0x194>)
1000192c:	6813      	ldr	r3, [r2, #0]
1000192e:	2b00      	cmp	r3, #0
10001930:	d0fc      	beq.n	1000192c <irq_remove_handler+0x18>
10001932:	f3bf 8f5f 	dmb	sy
10001936:	2210      	movs	r2, #16
10001938:	4691      	mov	r9, r2
1000193a:	4481      	add	r9, r0
1000193c:	464a      	mov	r2, r9
1000193e:	4b5b      	ldr	r3, [pc, #364]	; (10001aac <irq_remove_handler+0x198>)
10001940:	0096      	lsls	r6, r2, #2
10001942:	689b      	ldr	r3, [r3, #8]
10001944:	599d      	ldr	r5, [r3, r6]
10001946:	4b5a      	ldr	r3, [pc, #360]	; (10001ab0 <irq_remove_handler+0x19c>)
10001948:	4698      	mov	r8, r3
1000194a:	429d      	cmp	r5, r3
1000194c:	d005      	beq.n	1000195a <irq_remove_handler+0x46>
1000194e:	42a5      	cmp	r5, r4
10001950:	d016      	beq.n	10001980 <irq_remove_handler+0x6c>
10001952:	4f58      	ldr	r7, [pc, #352]	; (10001ab4 <irq_remove_handler+0x1a0>)
10001954:	1beb      	subs	r3, r5, r7
10001956:	2b2f      	cmp	r3, #47	; 0x2f
10001958:	d914      	bls.n	10001984 <irq_remove_handler+0x70>
1000195a:	4b54      	ldr	r3, [pc, #336]	; (10001aac <irq_remove_handler+0x198>)
1000195c:	689b      	ldr	r3, [r3, #8]
1000195e:	519d      	str	r5, [r3, r6]
10001960:	f3bf 8f5f 	dmb	sy
10001964:	f3bf 8f5f 	dmb	sy
10001968:	2200      	movs	r2, #0
1000196a:	4b4f      	ldr	r3, [pc, #316]	; (10001aa8 <irq_remove_handler+0x194>)
1000196c:	601a      	str	r2, [r3, #0]
1000196e:	f38a 8810 	msr	PRIMASK, sl
10001972:	b003      	add	sp, #12
10001974:	bc3c      	pop	{r2, r3, r4, r5}
10001976:	4690      	mov	r8, r2
10001978:	4699      	mov	r9, r3
1000197a:	46a2      	mov	sl, r4
1000197c:	46ab      	mov	fp, r5
1000197e:	bdf0      	pop	{r4, r5, r6, r7, pc}
10001980:	001d      	movs	r5, r3
10001982:	e7ea      	b.n	1000195a <irq_remove_handler+0x46>
10001984:	2301      	movs	r3, #1
10001986:	4083      	lsls	r3, r0
10001988:	469b      	mov	fp, r3
1000198a:	465a      	mov	r2, fp
1000198c:	4b4a      	ldr	r3, [pc, #296]	; (10001ab8 <irq_remove_handler+0x1a4>)
1000198e:	681b      	ldr	r3, [r3, #0]
10001990:	401a      	ands	r2, r3
10001992:	9200      	str	r2, [sp, #0]
10001994:	465a      	mov	r2, fp
10001996:	4b49      	ldr	r3, [pc, #292]	; (10001abc <irq_remove_handler+0x1a8>)
10001998:	601a      	str	r2, [r3, #0]
1000199a:	f3bf 8f5f 	dmb	sy
1000199e:	f7fe fbfa 	bl	10000196 <__get_current_exception>
100019a2:	9001      	str	r0, [sp, #4]
100019a4:	2800      	cmp	r0, #0
100019a6:	d003      	beq.n	100019b0 <irq_remove_handler+0x9c>
100019a8:	4581      	cmp	r9, r0
100019aa:	d001      	beq.n	100019b0 <irq_remove_handler+0x9c>
100019ac:	f7ff fdac 	bl	10001508 <hard_assertion_failure>
100019b0:	2301      	movs	r3, #1
100019b2:	0029      	movs	r1, r5
100019b4:	4399      	bics	r1, r3
100019b6:	688b      	ldr	r3, [r1, #8]
100019b8:	42a3      	cmp	r3, r4
100019ba:	d069      	beq.n	10001a90 <irq_remove_handler+0x17c>
100019bc:	000a      	movs	r2, r1
100019be:	e007      	b.n	100019d0 <irq_remove_handler+0xbc>
100019c0:	0043      	lsls	r3, r0, #1
100019c2:	181b      	adds	r3, r3, r0
100019c4:	009b      	lsls	r3, r3, #2
100019c6:	18fb      	adds	r3, r7, r3
100019c8:	6898      	ldr	r0, [r3, #8]
100019ca:	42a0      	cmp	r0, r4
100019cc:	d011      	beq.n	100019f2 <irq_remove_handler+0xde>
100019ce:	001a      	movs	r2, r3
100019d0:	2006      	movs	r0, #6
100019d2:	5610      	ldrsb	r0, [r2, r0]
100019d4:	2800      	cmp	r0, #0
100019d6:	daf3      	bge.n	100019c0 <irq_remove_handler+0xac>
100019d8:	9b00      	ldr	r3, [sp, #0]
100019da:	2b00      	cmp	r3, #0
100019dc:	d005      	beq.n	100019ea <irq_remove_handler+0xd6>
100019de:	465a      	mov	r2, fp
100019e0:	4b37      	ldr	r3, [pc, #220]	; (10001ac0 <irq_remove_handler+0x1ac>)
100019e2:	601a      	str	r2, [r3, #0]
100019e4:	4b34      	ldr	r3, [pc, #208]	; (10001ab8 <irq_remove_handler+0x1a4>)
100019e6:	601a      	str	r2, [r3, #0]
100019e8:	e7b7      	b.n	1000195a <irq_remove_handler+0x46>
100019ea:	465a      	mov	r2, fp
100019ec:	4b33      	ldr	r3, [pc, #204]	; (10001abc <irq_remove_handler+0x1a8>)
100019ee:	601a      	str	r2, [r3, #0]
100019f0:	e7b3      	b.n	1000195a <irq_remove_handler+0x46>
100019f2:	2006      	movs	r0, #6
100019f4:	5618      	ldrsb	r0, [r3, r0]
100019f6:	2800      	cmp	r0, #0
100019f8:	db22      	blt.n	10001a40 <irq_remove_handler+0x12c>
100019fa:	0042      	lsls	r2, r0, #1
100019fc:	1811      	adds	r1, r2, r0
100019fe:	0089      	lsls	r1, r1, #2
10001a00:	187c      	adds	r4, r7, r1
10001a02:	4688      	mov	r8, r1
10001a04:	68a1      	ldr	r1, [r4, #8]
10001a06:	6099      	str	r1, [r3, #8]
10001a08:	79e1      	ldrb	r1, [r4, #7]
10001a0a:	71d9      	strb	r1, [r3, #7]
10001a0c:	2106      	movs	r1, #6
10001a0e:	5661      	ldrsb	r1, [r4, r1]
10001a10:	7199      	strb	r1, [r3, #6]
10001a12:	79a1      	ldrb	r1, [r4, #6]
10001a14:	297f      	cmp	r1, #127	; 0x7f
10001a16:	d82b      	bhi.n	10001a70 <irq_remove_handler+0x15c>
10001a18:	88a4      	ldrh	r4, [r4, #4]
10001a1a:	1af9      	subs	r1, r7, r3
10001a1c:	0564      	lsls	r4, r4, #21
10001a1e:	1524      	asrs	r4, r4, #20
10001a20:	4444      	add	r4, r8
10001a22:	1909      	adds	r1, r1, r4
10001a24:	24e0      	movs	r4, #224	; 0xe0
10001a26:	0509      	lsls	r1, r1, #20
10001a28:	0d49      	lsrs	r1, r1, #21
10001a2a:	0224      	lsls	r4, r4, #8
10001a2c:	4321      	orrs	r1, r4
10001a2e:	8099      	strh	r1, [r3, #4]
10001a30:	1812      	adds	r2, r2, r0
10001a32:	4b24      	ldr	r3, [pc, #144]	; (10001ac4 <irq_remove_handler+0x1b0>)
10001a34:	0092      	lsls	r2, r2, #2
10001a36:	18bf      	adds	r7, r7, r2
10001a38:	781a      	ldrb	r2, [r3, #0]
10001a3a:	7018      	strb	r0, [r3, #0]
10001a3c:	71ba      	strb	r2, [r7, #6]
10001a3e:	e7cb      	b.n	100019d8 <irq_remove_handler+0xc4>
10001a40:	9801      	ldr	r0, [sp, #4]
10001a42:	2800      	cmp	r0, #0
10001a44:	d117      	bne.n	10001a76 <irq_remove_handler+0x162>
10001a46:	30ff      	adds	r0, #255	; 0xff
10001a48:	7190      	strb	r0, [r2, #6]
10001a4a:	481f      	ldr	r0, [pc, #124]	; (10001ac8 <irq_remove_handler+0x1b4>)
10001a4c:	8090      	strh	r0, [r2, #4]
10001a4e:	4a1d      	ldr	r2, [pc, #116]	; (10001ac4 <irq_remove_handler+0x1b0>)
10001a50:	1bcf      	subs	r7, r1, r7
10001a52:	7810      	ldrb	r0, [r2, #0]
10001a54:	10bf      	asrs	r7, r7, #2
10001a56:	7198      	strb	r0, [r3, #6]
10001a58:	00bb      	lsls	r3, r7, #2
10001a5a:	19db      	adds	r3, r3, r7
10001a5c:	0119      	lsls	r1, r3, #4
10001a5e:	185b      	adds	r3, r3, r1
10001a60:	0219      	lsls	r1, r3, #8
10001a62:	185b      	adds	r3, r3, r1
10001a64:	0419      	lsls	r1, r3, #16
10001a66:	185b      	adds	r3, r3, r1
10001a68:	005b      	lsls	r3, r3, #1
10001a6a:	19db      	adds	r3, r3, r7
10001a6c:	7013      	strb	r3, [r2, #0]
10001a6e:	e7b3      	b.n	100019d8 <irq_remove_handler+0xc4>
10001a70:	21bd      	movs	r1, #189	; 0xbd
10001a72:	0209      	lsls	r1, r1, #8
10001a74:	e7db      	b.n	10001a2e <irq_remove_handler+0x11a>
10001a76:	4a15      	ldr	r2, [pc, #84]	; (10001acc <irq_remove_handler+0x1b8>)
10001a78:	4915      	ldr	r1, [pc, #84]	; (10001ad0 <irq_remove_handler+0x1bc>)
10001a7a:	1ad2      	subs	r2, r2, r3
10001a7c:	3a08      	subs	r2, #8
10001a7e:	0250      	lsls	r0, r2, #9
10001a80:	0d40      	lsrs	r0, r0, #21
10001a82:	4301      	orrs	r1, r0
10001a84:	8099      	strh	r1, [r3, #4]
10001a86:	4913      	ldr	r1, [pc, #76]	; (10001ad4 <irq_remove_handler+0x1c0>)
10001a88:	0852      	lsrs	r2, r2, #1
10001a8a:	430a      	orrs	r2, r1
10001a8c:	80da      	strh	r2, [r3, #6]
10001a8e:	e7a3      	b.n	100019d8 <irq_remove_handler+0xc4>
10001a90:	2006      	movs	r0, #6
10001a92:	5608      	ldrsb	r0, [r1, r0]
10001a94:	000b      	movs	r3, r1
10001a96:	2800      	cmp	r0, #0
10001a98:	daaf      	bge.n	100019fa <irq_remove_handler+0xe6>
10001a9a:	9a01      	ldr	r2, [sp, #4]
10001a9c:	2a00      	cmp	r2, #0
10001a9e:	d1ea      	bne.n	10001a76 <irq_remove_handler+0x162>
10001aa0:	000b      	movs	r3, r1
10001aa2:	4645      	mov	r5, r8
10001aa4:	e7d3      	b.n	10001a4e <irq_remove_handler+0x13a>
10001aa6:	46c0      	nop			; (mov r8, r8)
10001aa8:	d0000124 	.word	0xd0000124
10001aac:	e000ed00 	.word	0xe000ed00
10001ab0:	100002cd 	.word	0x100002cd
10001ab4:	20000248 	.word	0x20000248
10001ab8:	e000e100 	.word	0xe000e100
10001abc:	e000e180 	.word	0xe000e180
10001ac0:	e000e280 	.word	0xe000e280
10001ac4:	20000bd9 	.word	0x20000bd9
10001ac8:	ffffbd00 	.word	0xffffbd00
10001acc:	20000282 	.word	0x20000282
10001ad0:	fffff000 	.word	0xfffff000
10001ad4:	fffff800 	.word	0xfffff800

10001ad8 <irq_add_tail_to_free_list>:
10001ad8:	b5f8      	push	{r3, r4, r5, r6, r7, lr}
10001ada:	2501      	movs	r5, #1
10001adc:	0004      	movs	r4, r0
10001ade:	4305      	orrs	r5, r0
10001ae0:	f7fe fb59 	bl	10000196 <__get_current_exception>
10001ae4:	f3ef 8610 	mrs	r6, PRIMASK
10001ae8:	b672      	cpsid	i
10001aea:	4a24      	ldr	r2, [pc, #144]	; (10001b7c <irq_add_tail_to_free_list+0xa4>)
10001aec:	6813      	ldr	r3, [r2, #0]
10001aee:	2b00      	cmp	r3, #0
10001af0:	d0fc      	beq.n	10001aec <irq_add_tail_to_free_list+0x14>
10001af2:	f3bf 8f5f 	dmb	sy
10001af6:	4f22      	ldr	r7, [pc, #136]	; (10001b80 <irq_add_tail_to_free_list+0xa8>)
10001af8:	0080      	lsls	r0, r0, #2
10001afa:	1be1      	subs	r1, r4, r7
10001afc:	1089      	asrs	r1, r1, #2
10001afe:	008a      	lsls	r2, r1, #2
10001b00:	1852      	adds	r2, r2, r1
10001b02:	0113      	lsls	r3, r2, #4
10001b04:	18d2      	adds	r2, r2, r3
10001b06:	0213      	lsls	r3, r2, #8
10001b08:	18d2      	adds	r2, r2, r3
10001b0a:	0413      	lsls	r3, r2, #16
10001b0c:	18d3      	adds	r3, r2, r3
10001b0e:	4a1d      	ldr	r2, [pc, #116]	; (10001b84 <irq_add_tail_to_free_list+0xac>)
10001b10:	005b      	lsls	r3, r3, #1
10001b12:	185b      	adds	r3, r3, r1
10001b14:	6891      	ldr	r1, [r2, #8]
10001b16:	5809      	ldr	r1, [r1, r0]
10001b18:	42a9      	cmp	r1, r5
10001b1a:	d01c      	beq.n	10001b56 <irq_add_tail_to_free_list+0x7e>
10001b1c:	2206      	movs	r2, #6
10001b1e:	56ba      	ldrsb	r2, [r7, r2]
10001b20:	4293      	cmp	r3, r2
10001b22:	d01c      	beq.n	10001b5e <irq_add_tail_to_free_list+0x86>
10001b24:	2212      	movs	r2, #18
10001b26:	56ba      	ldrsb	r2, [r7, r2]
10001b28:	4293      	cmp	r3, r2
10001b2a:	d022      	beq.n	10001b72 <irq_add_tail_to_free_list+0x9a>
10001b2c:	221e      	movs	r2, #30
10001b2e:	56ba      	ldrsb	r2, [r7, r2]
10001b30:	4293      	cmp	r3, r2
10001b32:	d020      	beq.n	10001b76 <irq_add_tail_to_free_list+0x9e>
10001b34:	222a      	movs	r2, #42	; 0x2a
10001b36:	56ba      	ldrsb	r2, [r7, r2]
10001b38:	2103      	movs	r1, #3
10001b3a:	429a      	cmp	r2, r3
10001b3c:	d010      	beq.n	10001b60 <irq_add_tail_to_free_list+0x88>
10001b3e:	4a12      	ldr	r2, [pc, #72]	; (10001b88 <irq_add_tail_to_free_list+0xb0>)
10001b40:	7811      	ldrb	r1, [r2, #0]
10001b42:	7013      	strb	r3, [r2, #0]
10001b44:	71a1      	strb	r1, [r4, #6]
10001b46:	f3bf 8f5f 	dmb	sy
10001b4a:	2200      	movs	r2, #0
10001b4c:	4b0b      	ldr	r3, [pc, #44]	; (10001b7c <irq_add_tail_to_free_list+0xa4>)
10001b4e:	601a      	str	r2, [r3, #0]
10001b50:	f386 8810 	msr	PRIMASK, r6
10001b54:	bdf8      	pop	{r3, r4, r5, r6, r7, pc}
10001b56:	6892      	ldr	r2, [r2, #8]
10001b58:	490c      	ldr	r1, [pc, #48]	; (10001b8c <irq_add_tail_to_free_list+0xb4>)
10001b5a:	5011      	str	r1, [r2, r0]
10001b5c:	e7ef      	b.n	10001b3e <irq_add_tail_to_free_list+0x66>
10001b5e:	2100      	movs	r1, #0
10001b60:	004a      	lsls	r2, r1, #1
10001b62:	1852      	adds	r2, r2, r1
10001b64:	21ff      	movs	r1, #255	; 0xff
10001b66:	0092      	lsls	r2, r2, #2
10001b68:	18ba      	adds	r2, r7, r2
10001b6a:	7191      	strb	r1, [r2, #6]
10001b6c:	4908      	ldr	r1, [pc, #32]	; (10001b90 <irq_add_tail_to_free_list+0xb8>)
10001b6e:	8091      	strh	r1, [r2, #4]
10001b70:	e7e5      	b.n	10001b3e <irq_add_tail_to_free_list+0x66>
10001b72:	2101      	movs	r1, #1
10001b74:	e7f4      	b.n	10001b60 <irq_add_tail_to_free_list+0x88>
10001b76:	2102      	movs	r1, #2
10001b78:	e7f2      	b.n	10001b60 <irq_add_tail_to_free_list+0x88>
10001b7a:	46c0      	nop			; (mov r8, r8)
10001b7c:	d0000124 	.word	0xd0000124
10001b80:	20000248 	.word	0x20000248
10001b84:	e000ed00 	.word	0xe000ed00
10001b88:	20000bd9 	.word	0x20000bd9
10001b8c:	100002cd 	.word	0x100002cd
10001b90:	ffffbd00 	.word	0xffffbd00

10001b94 <irq_init_priorities>:
10001b94:	b5f0      	push	{r4, r5, r6, r7, lr}
10001b96:	2200      	movs	r2, #0
10001b98:	2403      	movs	r4, #3
10001b9a:	27ff      	movs	r7, #255	; 0xff
10001b9c:	2680      	movs	r6, #128	; 0x80
10001b9e:	0020      	movs	r0, r4
10001ba0:	003d      	movs	r5, r7
10001ba2:	4b09      	ldr	r3, [pc, #36]	; (10001bc8 <irq_init_priorities+0x34>)
10001ba4:	0011      	movs	r1, r2
10001ba6:	469c      	mov	ip, r3
10001ba8:	4010      	ands	r0, r2
10001baa:	00c0      	lsls	r0, r0, #3
10001bac:	4085      	lsls	r5, r0
10001bae:	43a1      	bics	r1, r4
10001bb0:	4461      	add	r1, ip
10001bb2:	680b      	ldr	r3, [r1, #0]
10001bb4:	3201      	adds	r2, #1
10001bb6:	43ab      	bics	r3, r5
10001bb8:	0035      	movs	r5, r6
10001bba:	4085      	lsls	r5, r0
10001bbc:	432b      	orrs	r3, r5
10001bbe:	600b      	str	r3, [r1, #0]
10001bc0:	2a20      	cmp	r2, #32
10001bc2:	d1ec      	bne.n	10001b9e <irq_init_priorities+0xa>
10001bc4:	bdf0      	pop	{r4, r5, r6, r7, pc}
10001bc6:	46c0      	nop			; (mov r8, r8)
10001bc8:	e000e400 	.word	0xe000e400

10001bcc <_out_null>:
10001bcc:	4770      	bx	lr
10001bce:	46c0      	nop			; (mov r8, r8)

10001bd0 <_out_rev>:
10001bd0:	b5f8      	push	{r3, r4, r5, r6, r7, lr}
10001bd2:	4657      	mov	r7, sl
10001bd4:	464e      	mov	r6, r9
10001bd6:	46de      	mov	lr, fp
10001bd8:	4645      	mov	r5, r8
10001bda:	b5e0      	push	{r5, r6, r7, lr}
10001bdc:	001f      	movs	r7, r3
10001bde:	9b0a      	ldr	r3, [sp, #40]	; 0x28
10001be0:	0005      	movs	r5, r0
10001be2:	469b      	mov	fp, r3
10001be4:	9b0d      	ldr	r3, [sp, #52]	; 0x34
10001be6:	000e      	movs	r6, r1
10001be8:	4691      	mov	r9, r2
10001bea:	4692      	mov	sl, r2
10001bec:	079b      	lsls	r3, r3, #30
10001bee:	d118      	bne.n	10001c22 <_out_rev+0x52>
10001bf0:	9b0b      	ldr	r3, [sp, #44]	; 0x2c
10001bf2:	9a0c      	ldr	r2, [sp, #48]	; 0x30
10001bf4:	4293      	cmp	r3, r2
10001bf6:	d214      	bcs.n	10001c22 <_out_rev+0x52>
10001bf8:	0013      	movs	r3, r2
10001bfa:	9a0b      	ldr	r2, [sp, #44]	; 0x2c
10001bfc:	46b8      	mov	r8, r7
10001bfe:	1a9b      	subs	r3, r3, r2
10001c00:	444b      	add	r3, r9
10001c02:	464c      	mov	r4, r9
10001c04:	000f      	movs	r7, r1
10001c06:	0006      	movs	r6, r0
10001c08:	001d      	movs	r5, r3
10001c0a:	0022      	movs	r2, r4
10001c0c:	4643      	mov	r3, r8
10001c0e:	3401      	adds	r4, #1
10001c10:	0039      	movs	r1, r7
10001c12:	2020      	movs	r0, #32
10001c14:	47b0      	blx	r6
10001c16:	42ac      	cmp	r4, r5
10001c18:	d1f7      	bne.n	10001c0a <_out_rev+0x3a>
10001c1a:	46aa      	mov	sl, r5
10001c1c:	0035      	movs	r5, r6
10001c1e:	003e      	movs	r6, r7
10001c20:	4647      	mov	r7, r8
10001c22:	9b0b      	ldr	r3, [sp, #44]	; 0x2c
10001c24:	2b00      	cmp	r3, #0
10001c26:	d038      	beq.n	10001c9a <_out_rev+0xca>
10001c28:	449a      	add	sl, r3
10001c2a:	001c      	movs	r4, r3
10001c2c:	46d0      	mov	r8, sl
10001c2e:	4653      	mov	r3, sl
10001c30:	1b1a      	subs	r2, r3, r4
10001c32:	465b      	mov	r3, fp
10001c34:	3c01      	subs	r4, #1
10001c36:	5d18      	ldrb	r0, [r3, r4]
10001c38:	0031      	movs	r1, r6
10001c3a:	003b      	movs	r3, r7
10001c3c:	47a8      	blx	r5
10001c3e:	2c00      	cmp	r4, #0
10001c40:	d1f5      	bne.n	10001c2e <_out_rev+0x5e>
10001c42:	9b0d      	ldr	r3, [sp, #52]	; 0x34
10001c44:	079b      	lsls	r3, r3, #30
10001c46:	d521      	bpl.n	10001c8c <_out_rev+0xbc>
10001c48:	4643      	mov	r3, r8
10001c4a:	464a      	mov	r2, r9
10001c4c:	1a9c      	subs	r4, r3, r2
10001c4e:	9b0c      	ldr	r3, [sp, #48]	; 0x30
10001c50:	42a3      	cmp	r3, r4
10001c52:	d91b      	bls.n	10001c8c <_out_rev+0xbc>
10001c54:	003a      	movs	r2, r7
10001c56:	469a      	mov	sl, r3
10001c58:	464f      	mov	r7, r9
10001c5a:	4691      	mov	r9, r2
10001c5c:	19e2      	adds	r2, r4, r7
10001c5e:	464b      	mov	r3, r9
10001c60:	0031      	movs	r1, r6
10001c62:	2020      	movs	r0, #32
10001c64:	3401      	adds	r4, #1
10001c66:	47a8      	blx	r5
10001c68:	4554      	cmp	r4, sl
10001c6a:	d3f7      	bcc.n	10001c5c <_out_rev+0x8c>
10001c6c:	4643      	mov	r3, r8
10001c6e:	990c      	ldr	r1, [sp, #48]	; 0x30
10001c70:	1bdb      	subs	r3, r3, r7
10001c72:	3301      	adds	r3, #1
10001c74:	46b9      	mov	r9, r7
10001c76:	2200      	movs	r2, #0
10001c78:	4299      	cmp	r1, r3
10001c7a:	d303      	bcc.n	10001c84 <_out_rev+0xb4>
10001c7c:	4643      	mov	r3, r8
10001c7e:	1e4a      	subs	r2, r1, #1
10001c80:	444a      	add	r2, r9
10001c82:	1ad2      	subs	r2, r2, r3
10001c84:	4643      	mov	r3, r8
10001c86:	4690      	mov	r8, r2
10001c88:	3301      	adds	r3, #1
10001c8a:	4498      	add	r8, r3
10001c8c:	4640      	mov	r0, r8
10001c8e:	bc3c      	pop	{r2, r3, r4, r5}
10001c90:	4690      	mov	r8, r2
10001c92:	4699      	mov	r9, r3
10001c94:	46a2      	mov	sl, r4
10001c96:	46ab      	mov	fp, r5
10001c98:	bdf8      	pop	{r3, r4, r5, r6, r7, pc}
10001c9a:	46d0      	mov	r8, sl
10001c9c:	e7d1      	b.n	10001c42 <_out_rev+0x72>
10001c9e:	46c0      	nop			; (mov r8, r8)

10001ca0 <_ntoa_format>:
10001ca0:	b5f0      	push	{r4, r5, r6, r7, lr}
10001ca2:	464f      	mov	r7, r9
10001ca4:	4646      	mov	r6, r8
10001ca6:	46d6      	mov	lr, sl
10001ca8:	b5c0      	push	{r6, r7, lr}
10001caa:	b084      	sub	sp, #16
10001cac:	4698      	mov	r8, r3
10001cae:	ab0e      	add	r3, sp, #56	; 0x38
10001cb0:	781b      	ldrb	r3, [r3, #0]
10001cb2:	9f12      	ldr	r7, [sp, #72]	; 0x48
10001cb4:	4699      	mov	r9, r3
10001cb6:	4694      	mov	ip, r2
10001cb8:	9c0d      	ldr	r4, [sp, #52]	; 0x34
10001cba:	9b10      	ldr	r3, [sp, #64]	; 0x40
10001cbc:	9e11      	ldr	r6, [sp, #68]	; 0x44
10001cbe:	07ba      	lsls	r2, r7, #30
10001cc0:	d425      	bmi.n	10001d0e <_ntoa_format+0x6e>
10001cc2:	2e00      	cmp	r6, #0
10001cc4:	d169      	bne.n	10001d9a <_ntoa_format+0xfa>
10001cc6:	429c      	cmp	r4, r3
10001cc8:	d300      	bcc.n	10001ccc <_ntoa_format+0x2c>
10001cca:	e0c2      	b.n	10001e52 <_ntoa_format+0x1b2>
10001ccc:	2201      	movs	r2, #1
10001cce:	403a      	ands	r2, r7
10001cd0:	4692      	mov	sl, r2
10001cd2:	2c1f      	cmp	r4, #31
10001cd4:	d900      	bls.n	10001cd8 <_ntoa_format+0x38>
10001cd6:	e0bb      	b.n	10001e50 <_ntoa_format+0x1b0>
10001cd8:	9a0c      	ldr	r2, [sp, #48]	; 0x30
10001cda:	1e55      	subs	r5, r2, #1
10001cdc:	2230      	movs	r2, #48	; 0x30
10001cde:	e001      	b.n	10001ce4 <_ntoa_format+0x44>
10001ce0:	2c20      	cmp	r4, #32
10001ce2:	d003      	beq.n	10001cec <_ntoa_format+0x4c>
10001ce4:	3401      	adds	r4, #1
10001ce6:	552a      	strb	r2, [r5, r4]
10001ce8:	42a3      	cmp	r3, r4
10001cea:	d8f9      	bhi.n	10001ce0 <_ntoa_format+0x40>
10001cec:	4652      	mov	r2, sl
10001cee:	2a00      	cmp	r2, #0
10001cf0:	d00d      	beq.n	10001d0e <_ntoa_format+0x6e>
10001cf2:	42b4      	cmp	r4, r6
10001cf4:	d20b      	bcs.n	10001d0e <_ntoa_format+0x6e>
10001cf6:	2c1f      	cmp	r4, #31
10001cf8:	d862      	bhi.n	10001dc0 <_ntoa_format+0x120>
10001cfa:	9a0c      	ldr	r2, [sp, #48]	; 0x30
10001cfc:	1e55      	subs	r5, r2, #1
10001cfe:	2230      	movs	r2, #48	; 0x30
10001d00:	e001      	b.n	10001d06 <_ntoa_format+0x66>
10001d02:	2c20      	cmp	r4, #32
10001d04:	d05c      	beq.n	10001dc0 <_ntoa_format+0x120>
10001d06:	3401      	adds	r4, #1
10001d08:	552a      	strb	r2, [r5, r4]
10001d0a:	42b4      	cmp	r4, r6
10001d0c:	d1f9      	bne.n	10001d02 <_ntoa_format+0x62>
10001d0e:	06fa      	lsls	r2, r7, #27
10001d10:	d535      	bpl.n	10001d7e <_ntoa_format+0xde>
10001d12:	057a      	lsls	r2, r7, #21
10001d14:	d45d      	bmi.n	10001dd2 <_ntoa_format+0x132>
10001d16:	2c00      	cmp	r4, #0
10001d18:	d157      	bne.n	10001dca <_ntoa_format+0x12a>
10001d1a:	9b0f      	ldr	r3, [sp, #60]	; 0x3c
10001d1c:	2b10      	cmp	r3, #16
10001d1e:	d100      	bne.n	10001d22 <_ntoa_format+0x82>
10001d20:	e07c      	b.n	10001e1c <_ntoa_format+0x17c>
10001d22:	9b0f      	ldr	r3, [sp, #60]	; 0x3c
10001d24:	2b02      	cmp	r3, #2
10001d26:	d100      	bne.n	10001d2a <_ntoa_format+0x8a>
10001d28:	e08d      	b.n	10001e46 <_ntoa_format+0x1a6>
10001d2a:	2330      	movs	r3, #48	; 0x30
10001d2c:	9a0c      	ldr	r2, [sp, #48]	; 0x30
10001d2e:	2401      	movs	r4, #1
10001d30:	7013      	strb	r3, [r2, #0]
10001d32:	464b      	mov	r3, r9
10001d34:	2b00      	cmp	r3, #0
10001d36:	d027      	beq.n	10001d88 <_ntoa_format+0xe8>
10001d38:	232d      	movs	r3, #45	; 0x2d
10001d3a:	9a0c      	ldr	r2, [sp, #48]	; 0x30
10001d3c:	5513      	strb	r3, [r2, r4]
10001d3e:	3401      	adds	r4, #1
10001d40:	9b0c      	ldr	r3, [sp, #48]	; 0x30
10001d42:	4662      	mov	r2, ip
10001d44:	9300      	str	r3, [sp, #0]
10001d46:	9703      	str	r7, [sp, #12]
10001d48:	4643      	mov	r3, r8
10001d4a:	9602      	str	r6, [sp, #8]
10001d4c:	9401      	str	r4, [sp, #4]
10001d4e:	f7ff ff3f 	bl	10001bd0 <_out_rev>
10001d52:	b004      	add	sp, #16
10001d54:	bc1c      	pop	{r2, r3, r4}
10001d56:	4690      	mov	r8, r2
10001d58:	4699      	mov	r9, r3
10001d5a:	46a2      	mov	sl, r4
10001d5c:	bdf0      	pop	{r4, r5, r6, r7, pc}
10001d5e:	06bb      	lsls	r3, r7, #26
10001d60:	d463      	bmi.n	10001e2a <_ntoa_format+0x18a>
10001d62:	2c20      	cmp	r4, #32
10001d64:	d0ec      	beq.n	10001d40 <_ntoa_format+0xa0>
10001d66:	9b0c      	ldr	r3, [sp, #48]	; 0x30
10001d68:	191a      	adds	r2, r3, r4
10001d6a:	3401      	adds	r4, #1
10001d6c:	2378      	movs	r3, #120	; 0x78
10001d6e:	7013      	strb	r3, [r2, #0]
10001d70:	2c20      	cmp	r4, #32
10001d72:	d0e5      	beq.n	10001d40 <_ntoa_format+0xa0>
10001d74:	2230      	movs	r2, #48	; 0x30
10001d76:	9b0c      	ldr	r3, [sp, #48]	; 0x30
10001d78:	191b      	adds	r3, r3, r4
10001d7a:	701a      	strb	r2, [r3, #0]
10001d7c:	3401      	adds	r4, #1
10001d7e:	2c20      	cmp	r4, #32
10001d80:	d0de      	beq.n	10001d40 <_ntoa_format+0xa0>
10001d82:	464b      	mov	r3, r9
10001d84:	2b00      	cmp	r3, #0
10001d86:	d1d7      	bne.n	10001d38 <_ntoa_format+0x98>
10001d88:	077b      	lsls	r3, r7, #29
10001d8a:	d435      	bmi.n	10001df8 <_ntoa_format+0x158>
10001d8c:	073b      	lsls	r3, r7, #28
10001d8e:	d5d7      	bpl.n	10001d40 <_ntoa_format+0xa0>
10001d90:	2320      	movs	r3, #32
10001d92:	9a0c      	ldr	r2, [sp, #48]	; 0x30
10001d94:	5513      	strb	r3, [r2, r4]
10001d96:	3401      	adds	r4, #1
10001d98:	e7d2      	b.n	10001d40 <_ntoa_format+0xa0>
10001d9a:	2201      	movs	r2, #1
10001d9c:	0015      	movs	r5, r2
10001d9e:	403d      	ands	r5, r7
10001da0:	46aa      	mov	sl, r5
10001da2:	423a      	tst	r2, r7
10001da4:	d020      	beq.n	10001de8 <_ntoa_format+0x148>
10001da6:	464a      	mov	r2, r9
10001da8:	2a00      	cmp	r2, #0
10001daa:	d12a      	bne.n	10001e02 <_ntoa_format+0x162>
10001dac:	320c      	adds	r2, #12
10001dae:	423a      	tst	r2, r7
10001db0:	d127      	bne.n	10001e02 <_ntoa_format+0x162>
10001db2:	429c      	cmp	r4, r3
10001db4:	d29d      	bcs.n	10001cf2 <_ntoa_format+0x52>
10001db6:	2c1f      	cmp	r4, #31
10001db8:	d800      	bhi.n	10001dbc <_ntoa_format+0x11c>
10001dba:	e78d      	b.n	10001cd8 <_ntoa_format+0x38>
10001dbc:	2e20      	cmp	r6, #32
10001dbe:	d919      	bls.n	10001df4 <_ntoa_format+0x154>
10001dc0:	2420      	movs	r4, #32
10001dc2:	06fa      	lsls	r2, r7, #27
10001dc4:	d5bc      	bpl.n	10001d40 <_ntoa_format+0xa0>
10001dc6:	057a      	lsls	r2, r7, #21
10001dc8:	d403      	bmi.n	10001dd2 <_ntoa_format+0x132>
10001dca:	42a3      	cmp	r3, r4
10001dcc:	d01b      	beq.n	10001e06 <_ntoa_format+0x166>
10001dce:	42a6      	cmp	r6, r4
10001dd0:	d019      	beq.n	10001e06 <_ntoa_format+0x166>
10001dd2:	9b0f      	ldr	r3, [sp, #60]	; 0x3c
10001dd4:	2b10      	cmp	r3, #16
10001dd6:	d0c2      	beq.n	10001d5e <_ntoa_format+0xbe>
10001dd8:	2b02      	cmp	r3, #2
10001dda:	d1c9      	bne.n	10001d70 <_ntoa_format+0xd0>
10001ddc:	2c20      	cmp	r4, #32
10001dde:	d0af      	beq.n	10001d40 <_ntoa_format+0xa0>
10001de0:	9b0c      	ldr	r3, [sp, #48]	; 0x30
10001de2:	191b      	adds	r3, r3, r4
10001de4:	3401      	adds	r4, #1
10001de6:	e040      	b.n	10001e6a <_ntoa_format+0x1ca>
10001de8:	429c      	cmp	r4, r3
10001dea:	d300      	bcc.n	10001dee <_ntoa_format+0x14e>
10001dec:	e78f      	b.n	10001d0e <_ntoa_format+0x6e>
10001dee:	2c1f      	cmp	r4, #31
10001df0:	d800      	bhi.n	10001df4 <_ntoa_format+0x154>
10001df2:	e771      	b.n	10001cd8 <_ntoa_format+0x38>
10001df4:	2420      	movs	r4, #32
10001df6:	e78a      	b.n	10001d0e <_ntoa_format+0x6e>
10001df8:	232b      	movs	r3, #43	; 0x2b
10001dfa:	9a0c      	ldr	r2, [sp, #48]	; 0x30
10001dfc:	5513      	strb	r3, [r2, r4]
10001dfe:	3401      	adds	r4, #1
10001e00:	e79e      	b.n	10001d40 <_ntoa_format+0xa0>
10001e02:	3e01      	subs	r6, #1
10001e04:	e7d5      	b.n	10001db2 <_ntoa_format+0x112>
10001e06:	1e63      	subs	r3, r4, #1
10001e08:	2c01      	cmp	r4, #1
10001e0a:	d100      	bne.n	10001e0e <_ntoa_format+0x16e>
10001e0c:	e785      	b.n	10001d1a <_ntoa_format+0x7a>
10001e0e:	9a0f      	ldr	r2, [sp, #60]	; 0x3c
10001e10:	2a10      	cmp	r2, #16
10001e12:	d020      	beq.n	10001e56 <_ntoa_format+0x1b6>
10001e14:	2a02      	cmp	r2, #2
10001e16:	d025      	beq.n	10001e64 <_ntoa_format+0x1c4>
10001e18:	001c      	movs	r4, r3
10001e1a:	e7ab      	b.n	10001d74 <_ntoa_format+0xd4>
10001e1c:	06bb      	lsls	r3, r7, #26
10001e1e:	d40d      	bmi.n	10001e3c <_ntoa_format+0x19c>
10001e20:	2378      	movs	r3, #120	; 0x78
10001e22:	9a0c      	ldr	r2, [sp, #48]	; 0x30
10001e24:	2401      	movs	r4, #1
10001e26:	7013      	strb	r3, [r2, #0]
10001e28:	e7a4      	b.n	10001d74 <_ntoa_format+0xd4>
10001e2a:	2c20      	cmp	r4, #32
10001e2c:	d100      	bne.n	10001e30 <_ntoa_format+0x190>
10001e2e:	e787      	b.n	10001d40 <_ntoa_format+0xa0>
10001e30:	2258      	movs	r2, #88	; 0x58
10001e32:	9b0c      	ldr	r3, [sp, #48]	; 0x30
10001e34:	191b      	adds	r3, r3, r4
10001e36:	701a      	strb	r2, [r3, #0]
10001e38:	3401      	adds	r4, #1
10001e3a:	e799      	b.n	10001d70 <_ntoa_format+0xd0>
10001e3c:	2358      	movs	r3, #88	; 0x58
10001e3e:	9a0c      	ldr	r2, [sp, #48]	; 0x30
10001e40:	2401      	movs	r4, #1
10001e42:	7013      	strb	r3, [r2, #0]
10001e44:	e796      	b.n	10001d74 <_ntoa_format+0xd4>
10001e46:	9a0c      	ldr	r2, [sp, #48]	; 0x30
10001e48:	3360      	adds	r3, #96	; 0x60
10001e4a:	2401      	movs	r4, #1
10001e4c:	7013      	strb	r3, [r2, #0]
10001e4e:	e791      	b.n	10001d74 <_ntoa_format+0xd4>
10001e50:	2420      	movs	r4, #32
10001e52:	2600      	movs	r6, #0
10001e54:	e75b      	b.n	10001d0e <_ntoa_format+0x6e>
10001e56:	3c02      	subs	r4, #2
10001e58:	06ba      	lsls	r2, r7, #26
10001e5a:	d4e9      	bmi.n	10001e30 <_ntoa_format+0x190>
10001e5c:	9a0c      	ldr	r2, [sp, #48]	; 0x30
10001e5e:	1912      	adds	r2, r2, r4
10001e60:	001c      	movs	r4, r3
10001e62:	e783      	b.n	10001d6c <_ntoa_format+0xcc>
10001e64:	9a0c      	ldr	r2, [sp, #48]	; 0x30
10001e66:	4692      	mov	sl, r2
10001e68:	4453      	add	r3, sl
10001e6a:	2262      	movs	r2, #98	; 0x62
10001e6c:	701a      	strb	r2, [r3, #0]
10001e6e:	e77f      	b.n	10001d70 <_ntoa_format+0xd0>

10001e70 <_out_char>:
10001e70:	b510      	push	{r4, lr}
10001e72:	2800      	cmp	r0, #0
10001e74:	d100      	bne.n	10001e78 <_out_char+0x8>
10001e76:	bd10      	pop	{r4, pc}
10001e78:	f002 fa04 	bl	10004284 <__wrap_putchar>
10001e7c:	e7fb      	b.n	10001e76 <_out_char+0x6>
10001e7e:	46c0      	nop			; (mov r8, r8)

10001e80 <_out_fct>:
10001e80:	000b      	movs	r3, r1
10001e82:	b510      	push	{r4, lr}
10001e84:	2800      	cmp	r0, #0
10001e86:	d002      	beq.n	10001e8e <_out_fct+0xe>
10001e88:	6849      	ldr	r1, [r1, #4]
10001e8a:	681b      	ldr	r3, [r3, #0]
10001e8c:	4798      	blx	r3
10001e8e:	bd10      	pop	{r4, pc}

10001e90 <_etoa>:
10001e90:	b5f0      	push	{r4, r5, r6, r7, lr}
10001e92:	46de      	mov	lr, fp
10001e94:	4657      	mov	r7, sl
10001e96:	464e      	mov	r6, r9
10001e98:	4645      	mov	r5, r8
10001e9a:	b5e0      	push	{r5, r6, r7, lr}
10001e9c:	b09b      	sub	sp, #108	; 0x6c
10001e9e:	469a      	mov	sl, r3
10001ea0:	9b24      	ldr	r3, [sp, #144]	; 0x90
10001ea2:	468b      	mov	fp, r1
10001ea4:	4699      	mov	r9, r3
10001ea6:	9b25      	ldr	r3, [sp, #148]	; 0x94
10001ea8:	900b      	str	r0, [sp, #44]	; 0x2c
10001eaa:	4698      	mov	r8, r3
10001eac:	920c      	str	r2, [sp, #48]	; 0x30
10001eae:	4643      	mov	r3, r8
10001eb0:	464a      	mov	r2, r9
10001eb2:	4648      	mov	r0, r9
10001eb4:	4641      	mov	r1, r8
10001eb6:	f001 fccc 	bl	10003852 <__wrap___aeabi_dcmpun>
10001eba:	2800      	cmp	r0, #0
10001ebc:	d000      	beq.n	10001ec0 <_etoa+0x30>
10001ebe:	e1a3      	b.n	10002208 <_etoa+0x378>
10001ec0:	2201      	movs	r2, #1
10001ec2:	4648      	mov	r0, r9
10001ec4:	4641      	mov	r1, r8
10001ec6:	4be2      	ldr	r3, [pc, #904]	; (10002250 <_etoa+0x3c0>)
10001ec8:	4252      	negs	r2, r2
10001eca:	f001 fcbd 	bl	10003848 <__wrap___aeabi_dcmpgt>
10001ece:	2800      	cmp	r0, #0
10001ed0:	d000      	beq.n	10001ed4 <_etoa+0x44>
10001ed2:	e199      	b.n	10002208 <_etoa+0x378>
10001ed4:	2201      	movs	r2, #1
10001ed6:	4648      	mov	r0, r9
10001ed8:	4641      	mov	r1, r8
10001eda:	4bde      	ldr	r3, [pc, #888]	; (10002254 <_etoa+0x3c4>)
10001edc:	4252      	negs	r2, r2
10001ede:	f001 fc9d 	bl	1000381c <__wrap___aeabi_dcmplt>
10001ee2:	2800      	cmp	r0, #0
10001ee4:	d000      	beq.n	10001ee8 <_etoa+0x58>
10001ee6:	e18f      	b.n	10002208 <_etoa+0x378>
10001ee8:	2200      	movs	r2, #0
10001eea:	2300      	movs	r3, #0
10001eec:	4648      	mov	r0, r9
10001eee:	4641      	mov	r1, r8
10001ef0:	f001 fc94 	bl	1000381c <__wrap___aeabi_dcmplt>
10001ef4:	2800      	cmp	r0, #0
10001ef6:	d000      	beq.n	10001efa <_etoa+0x6a>
10001ef8:	e1de      	b.n	100022b8 <_etoa+0x428>
10001efa:	464a      	mov	r2, r9
10001efc:	4643      	mov	r3, r8
10001efe:	920a      	str	r2, [sp, #40]	; 0x28
10001f00:	9309      	str	r3, [sp, #36]	; 0x24
10001f02:	2380      	movs	r3, #128	; 0x80
10001f04:	9a28      	ldr	r2, [sp, #160]	; 0xa0
10001f06:	00db      	lsls	r3, r3, #3
10001f08:	401a      	ands	r2, r3
10001f0a:	9211      	str	r2, [sp, #68]	; 0x44
10001f0c:	9a28      	ldr	r2, [sp, #160]	; 0xa0
10001f0e:	421a      	tst	r2, r3
10001f10:	d101      	bne.n	10001f16 <_etoa+0x86>
10001f12:	2306      	movs	r3, #6
10001f14:	9326      	str	r3, [sp, #152]	; 0x98
10001f16:	4bd0      	ldr	r3, [pc, #832]	; (10002258 <_etoa+0x3c8>)
10001f18:	9f09      	ldr	r7, [sp, #36]	; 0x24
10001f1a:	469c      	mov	ip, r3
10001f1c:	0078      	lsls	r0, r7, #1
10001f1e:	0d40      	lsrs	r0, r0, #21
10001f20:	4460      	add	r0, ip
10001f22:	f001 fca9 	bl	10003878 <__wrap___aeabi_i2d>
10001f26:	4acd      	ldr	r2, [pc, #820]	; (1000225c <_etoa+0x3cc>)
10001f28:	4bcd      	ldr	r3, [pc, #820]	; (10002260 <_etoa+0x3d0>)
10001f2a:	f001 fc35 	bl	10003798 <__wrap___aeabi_dmul>
10001f2e:	4acd      	ldr	r2, [pc, #820]	; (10002264 <_etoa+0x3d4>)
10001f30:	4bcd      	ldr	r3, [pc, #820]	; (10002268 <_etoa+0x3d8>)
10001f32:	f001 fc1f 	bl	10003774 <__wrap___aeabi_dadd>
10001f36:	033b      	lsls	r3, r7, #12
10001f38:	4acc      	ldr	r2, [pc, #816]	; (1000226c <_etoa+0x3dc>)
10001f3a:	9e0a      	ldr	r6, [sp, #40]	; 0x28
10001f3c:	0b1b      	lsrs	r3, r3, #12
10001f3e:	431a      	orrs	r2, r3
10001f40:	0004      	movs	r4, r0
10001f42:	000d      	movs	r5, r1
10001f44:	0030      	movs	r0, r6
10001f46:	0011      	movs	r1, r2
10001f48:	4bc9      	ldr	r3, [pc, #804]	; (10002270 <_etoa+0x3e0>)
10001f4a:	2200      	movs	r2, #0
10001f4c:	9709      	str	r7, [sp, #36]	; 0x24
10001f4e:	f001 fc08 	bl	10003762 <__wrap___aeabi_dsub>
10001f52:	4ac8      	ldr	r2, [pc, #800]	; (10002274 <_etoa+0x3e4>)
10001f54:	4bc8      	ldr	r3, [pc, #800]	; (10002278 <_etoa+0x3e8>)
10001f56:	f001 fc1f 	bl	10003798 <__wrap___aeabi_dmul>
10001f5a:	0002      	movs	r2, r0
10001f5c:	000b      	movs	r3, r1
10001f5e:	0020      	movs	r0, r4
10001f60:	0029      	movs	r1, r5
10001f62:	f001 fc07 	bl	10003774 <__wrap___aeabi_dadd>
10001f66:	f001 fc9f 	bl	100038a8 <__wrap___aeabi_d2iz>
10001f6a:	900d      	str	r0, [sp, #52]	; 0x34
10001f6c:	f001 fc84 	bl	10003878 <__wrap___aeabi_i2d>
10001f70:	4ac2      	ldr	r2, [pc, #776]	; (1000227c <_etoa+0x3ec>)
10001f72:	4bc3      	ldr	r3, [pc, #780]	; (10002280 <_etoa+0x3f0>)
10001f74:	0004      	movs	r4, r0
10001f76:	000d      	movs	r5, r1
10001f78:	f001 fc0e 	bl	10003798 <__wrap___aeabi_dmul>
10001f7c:	2200      	movs	r2, #0
10001f7e:	4bc1      	ldr	r3, [pc, #772]	; (10002284 <_etoa+0x3f4>)
10001f80:	f001 fbf8 	bl	10003774 <__wrap___aeabi_dadd>
10001f84:	f001 fc90 	bl	100038a8 <__wrap___aeabi_d2iz>
10001f88:	4abf      	ldr	r2, [pc, #764]	; (10002288 <_etoa+0x3f8>)
10001f8a:	0006      	movs	r6, r0
10001f8c:	4bbf      	ldr	r3, [pc, #764]	; (1000228c <_etoa+0x3fc>)
10001f8e:	0020      	movs	r0, r4
10001f90:	0029      	movs	r1, r5
10001f92:	f001 fc01 	bl	10003798 <__wrap___aeabi_dmul>
10001f96:	0004      	movs	r4, r0
10001f98:	0030      	movs	r0, r6
10001f9a:	000d      	movs	r5, r1
10001f9c:	9610      	str	r6, [sp, #64]	; 0x40
10001f9e:	f001 fc6b 	bl	10003878 <__wrap___aeabi_i2d>
10001fa2:	4abb      	ldr	r2, [pc, #748]	; (10002290 <_etoa+0x400>)
10001fa4:	4bbb      	ldr	r3, [pc, #748]	; (10002294 <_etoa+0x404>)
10001fa6:	f001 fbf7 	bl	10003798 <__wrap___aeabi_dmul>
10001faa:	0002      	movs	r2, r0
10001fac:	000b      	movs	r3, r1
10001fae:	0020      	movs	r0, r4
10001fb0:	0029      	movs	r1, r5
10001fb2:	f001 fbd6 	bl	10003762 <__wrap___aeabi_dsub>
10001fb6:	0002      	movs	r2, r0
10001fb8:	000b      	movs	r3, r1
10001fba:	0006      	movs	r6, r0
10001fbc:	000f      	movs	r7, r1
10001fbe:	f001 fbeb 	bl	10003798 <__wrap___aeabi_dmul>
10001fc2:	0032      	movs	r2, r6
10001fc4:	0004      	movs	r4, r0
10001fc6:	000d      	movs	r5, r1
10001fc8:	003b      	movs	r3, r7
10001fca:	0030      	movs	r0, r6
10001fcc:	0039      	movs	r1, r7
10001fce:	f001 fbd1 	bl	10003774 <__wrap___aeabi_dadd>
10001fd2:	2200      	movs	r2, #0
10001fd4:	900e      	str	r0, [sp, #56]	; 0x38
10001fd6:	910f      	str	r1, [sp, #60]	; 0x3c
10001fd8:	4baf      	ldr	r3, [pc, #700]	; (10002298 <_etoa+0x408>)
10001fda:	0020      	movs	r0, r4
10001fdc:	0029      	movs	r1, r5
10001fde:	f001 fbd2 	bl	10003786 <__wrap___aeabi_ddiv>
10001fe2:	2200      	movs	r2, #0
10001fe4:	4bad      	ldr	r3, [pc, #692]	; (1000229c <_etoa+0x40c>)
10001fe6:	f001 fbc5 	bl	10003774 <__wrap___aeabi_dadd>
10001fea:	0002      	movs	r2, r0
10001fec:	000b      	movs	r3, r1
10001fee:	0020      	movs	r0, r4
10001ff0:	0029      	movs	r1, r5
10001ff2:	f001 fbc8 	bl	10003786 <__wrap___aeabi_ddiv>
10001ff6:	2200      	movs	r2, #0
10001ff8:	4ba9      	ldr	r3, [pc, #676]	; (100022a0 <_etoa+0x410>)
10001ffa:	f001 fbbb 	bl	10003774 <__wrap___aeabi_dadd>
10001ffe:	0002      	movs	r2, r0
10002000:	000b      	movs	r3, r1
10002002:	0020      	movs	r0, r4
10002004:	0029      	movs	r1, r5
10002006:	f001 fbbe 	bl	10003786 <__wrap___aeabi_ddiv>
1000200a:	000d      	movs	r5, r1
1000200c:	2180      	movs	r1, #128	; 0x80
1000200e:	0004      	movs	r4, r0
10002010:	0032      	movs	r2, r6
10002012:	003b      	movs	r3, r7
10002014:	2000      	movs	r0, #0
10002016:	05c9      	lsls	r1, r1, #23
10002018:	f001 fba3 	bl	10003762 <__wrap___aeabi_dsub>
1000201c:	0002      	movs	r2, r0
1000201e:	000b      	movs	r3, r1
10002020:	0020      	movs	r0, r4
10002022:	0029      	movs	r1, r5
10002024:	f001 fba6 	bl	10003774 <__wrap___aeabi_dadd>
10002028:	0002      	movs	r2, r0
1000202a:	000b      	movs	r3, r1
1000202c:	980e      	ldr	r0, [sp, #56]	; 0x38
1000202e:	990f      	ldr	r1, [sp, #60]	; 0x3c
10002030:	f001 fba9 	bl	10003786 <__wrap___aeabi_ddiv>
10002034:	2200      	movs	r2, #0
10002036:	4b8d      	ldr	r3, [pc, #564]	; (1000226c <_etoa+0x3dc>)
10002038:	f001 fb9c 	bl	10003774 <__wrap___aeabi_dadd>
1000203c:	9b10      	ldr	r3, [sp, #64]	; 0x40
1000203e:	4a99      	ldr	r2, [pc, #612]	; (100022a4 <_etoa+0x414>)
10002040:	001c      	movs	r4, r3
10002042:	4694      	mov	ip, r2
10002044:	4464      	add	r4, ip
10002046:	2200      	movs	r2, #0
10002048:	0523      	lsls	r3, r4, #20
1000204a:	f001 fba5 	bl	10003798 <__wrap___aeabi_dmul>
1000204e:	0006      	movs	r6, r0
10002050:	000f      	movs	r7, r1
10002052:	0002      	movs	r2, r0
10002054:	000b      	movs	r3, r1
10002056:	980a      	ldr	r0, [sp, #40]	; 0x28
10002058:	9909      	ldr	r1, [sp, #36]	; 0x24
1000205a:	f001 fbdf 	bl	1000381c <__wrap___aeabi_dcmplt>
1000205e:	2800      	cmp	r0, #0
10002060:	d00a      	beq.n	10002078 <_etoa+0x1e8>
10002062:	9b0d      	ldr	r3, [sp, #52]	; 0x34
10002064:	0030      	movs	r0, r6
10002066:	3b01      	subs	r3, #1
10002068:	0039      	movs	r1, r7
1000206a:	930d      	str	r3, [sp, #52]	; 0x34
1000206c:	2200      	movs	r2, #0
1000206e:	4b8b      	ldr	r3, [pc, #556]	; (1000229c <_etoa+0x40c>)
10002070:	f001 fb89 	bl	10003786 <__wrap___aeabi_ddiv>
10002074:	0006      	movs	r6, r0
10002076:	000f      	movs	r7, r1
10002078:	9d0d      	ldr	r5, [sp, #52]	; 0x34
1000207a:	24c6      	movs	r4, #198	; 0xc6
1000207c:	002b      	movs	r3, r5
1000207e:	3363      	adds	r3, #99	; 0x63
10002080:	429c      	cmp	r4, r3
10002082:	41a4      	sbcs	r4, r4
10002084:	9b28      	ldr	r3, [sp, #160]	; 0xa0
10002086:	4264      	negs	r4, r4
10002088:	3404      	adds	r4, #4
1000208a:	051b      	lsls	r3, r3, #20
1000208c:	d51f      	bpl.n	100020ce <_etoa+0x23e>
1000208e:	4a86      	ldr	r2, [pc, #536]	; (100022a8 <_etoa+0x418>)
10002090:	4b86      	ldr	r3, [pc, #536]	; (100022ac <_etoa+0x41c>)
10002092:	980a      	ldr	r0, [sp, #40]	; 0x28
10002094:	9909      	ldr	r1, [sp, #36]	; 0x24
10002096:	f001 fbcf 	bl	10003838 <__wrap___aeabi_dcmpge>
1000209a:	2800      	cmp	r0, #0
1000209c:	d100      	bne.n	100020a0 <_etoa+0x210>
1000209e:	e0cc      	b.n	1000223a <_etoa+0x3aa>
100020a0:	2200      	movs	r2, #0
100020a2:	4b83      	ldr	r3, [pc, #524]	; (100022b0 <_etoa+0x420>)
100020a4:	980a      	ldr	r0, [sp, #40]	; 0x28
100020a6:	9909      	ldr	r1, [sp, #36]	; 0x24
100020a8:	f001 fbb8 	bl	1000381c <__wrap___aeabi_dcmplt>
100020ac:	2800      	cmp	r0, #0
100020ae:	d100      	bne.n	100020b2 <_etoa+0x222>
100020b0:	e0c3      	b.n	1000223a <_etoa+0x3aa>
100020b2:	9a26      	ldr	r2, [sp, #152]	; 0x98
100020b4:	4295      	cmp	r5, r2
100020b6:	da00      	bge.n	100020ba <_etoa+0x22a>
100020b8:	e10b      	b.n	100022d2 <_etoa+0x442>
100020ba:	2300      	movs	r3, #0
100020bc:	9326      	str	r3, [sp, #152]	; 0x98
100020be:	2380      	movs	r3, #128	; 0x80
100020c0:	9a28      	ldr	r2, [sp, #160]	; 0xa0
100020c2:	00db      	lsls	r3, r3, #3
100020c4:	431a      	orrs	r2, r3
100020c6:	2300      	movs	r3, #0
100020c8:	2400      	movs	r4, #0
100020ca:	9228      	str	r2, [sp, #160]	; 0xa0
100020cc:	930d      	str	r3, [sp, #52]	; 0x34
100020ce:	9b27      	ldr	r3, [sp, #156]	; 0x9c
100020d0:	2500      	movs	r5, #0
100020d2:	42a3      	cmp	r3, r4
100020d4:	d900      	bls.n	100020d8 <_etoa+0x248>
100020d6:	1b1d      	subs	r5, r3, r4
100020d8:	2302      	movs	r3, #2
100020da:	9a28      	ldr	r2, [sp, #160]	; 0xa0
100020dc:	401a      	ands	r2, r3
100020de:	9210      	str	r2, [sp, #64]	; 0x40
100020e0:	9a28      	ldr	r2, [sp, #160]	; 0xa0
100020e2:	4213      	tst	r3, r2
100020e4:	d003      	beq.n	100020ee <_etoa+0x25e>
100020e6:	4263      	negs	r3, r4
100020e8:	4163      	adcs	r3, r4
100020ea:	425b      	negs	r3, r3
100020ec:	401d      	ands	r5, r3
100020ee:	9b0d      	ldr	r3, [sp, #52]	; 0x34
100020f0:	2b00      	cmp	r3, #0
100020f2:	d007      	beq.n	10002104 <_etoa+0x274>
100020f4:	980a      	ldr	r0, [sp, #40]	; 0x28
100020f6:	9909      	ldr	r1, [sp, #36]	; 0x24
100020f8:	0032      	movs	r2, r6
100020fa:	003b      	movs	r3, r7
100020fc:	f001 fb43 	bl	10003786 <__wrap___aeabi_ddiv>
10002100:	900a      	str	r0, [sp, #40]	; 0x28
10002102:	9109      	str	r1, [sp, #36]	; 0x24
10002104:	2200      	movs	r2, #0
10002106:	2300      	movs	r3, #0
10002108:	4648      	mov	r0, r9
1000210a:	4641      	mov	r1, r8
1000210c:	f001 fb86 	bl	1000381c <__wrap___aeabi_dcmplt>
10002110:	2800      	cmp	r0, #0
10002112:	d005      	beq.n	10002120 <_etoa+0x290>
10002114:	2080      	movs	r0, #128	; 0x80
10002116:	0600      	lsls	r0, r0, #24
10002118:	4684      	mov	ip, r0
1000211a:	9909      	ldr	r1, [sp, #36]	; 0x24
1000211c:	4461      	add	r1, ip
1000211e:	9109      	str	r1, [sp, #36]	; 0x24
10002120:	9a28      	ldr	r2, [sp, #160]	; 0xa0
10002122:	4b64      	ldr	r3, [pc, #400]	; (100022b4 <_etoa+0x424>)
10002124:	9e0b      	ldr	r6, [sp, #44]	; 0x2c
10002126:	4013      	ands	r3, r2
10002128:	9304      	str	r3, [sp, #16]
1000212a:	9b26      	ldr	r3, [sp, #152]	; 0x98
1000212c:	9a0a      	ldr	r2, [sp, #40]	; 0x28
1000212e:	9302      	str	r3, [sp, #8]
10002130:	9b09      	ldr	r3, [sp, #36]	; 0x24
10002132:	9503      	str	r5, [sp, #12]
10002134:	9200      	str	r2, [sp, #0]
10002136:	9301      	str	r3, [sp, #4]
10002138:	4659      	mov	r1, fp
1000213a:	4653      	mov	r3, sl
1000213c:	0030      	movs	r0, r6
1000213e:	9a0c      	ldr	r2, [sp, #48]	; 0x30
10002140:	f000 f8cc 	bl	100022dc <_ftoa>
10002144:	0005      	movs	r5, r0
10002146:	2c00      	cmp	r4, #0
10002148:	d06f      	beq.n	1000222a <_etoa+0x39a>
1000214a:	9b28      	ldr	r3, [sp, #160]	; 0xa0
1000214c:	002a      	movs	r2, r5
1000214e:	0698      	lsls	r0, r3, #26
10002150:	231f      	movs	r3, #31
10002152:	17c0      	asrs	r0, r0, #31
10002154:	4398      	bics	r0, r3
10002156:	1c6b      	adds	r3, r5, #1
10002158:	4698      	mov	r8, r3
1000215a:	4659      	mov	r1, fp
1000215c:	4653      	mov	r3, sl
1000215e:	3065      	adds	r0, #101	; 0x65
10002160:	47b0      	blx	r6
10002162:	9b0d      	ldr	r3, [sp, #52]	; 0x34
10002164:	2600      	movs	r6, #0
10002166:	17da      	asrs	r2, r3, #31
10002168:	189d      	adds	r5, r3, r2
1000216a:	0fdb      	lsrs	r3, r3, #31
1000216c:	4699      	mov	r9, r3
1000216e:	4055      	eors	r5, r2
10002170:	3c01      	subs	r4, #1
10002172:	e001      	b.n	10002178 <_etoa+0x2e8>
10002174:	2e20      	cmp	r6, #32
10002176:	d013      	beq.n	100021a0 <_etoa+0x310>
10002178:	aa0a      	add	r2, sp, #40	; 0x28
1000217a:	4694      	mov	ip, r2
1000217c:	231f      	movs	r3, #31
1000217e:	0028      	movs	r0, r5
10002180:	4463      	add	r3, ip
10002182:	210a      	movs	r1, #10
10002184:	3601      	adds	r6, #1
10002186:	199f      	adds	r7, r3, r6
10002188:	f001 f8a6 	bl	100032d8 <__wrap___aeabi_uidiv>
1000218c:	3130      	adds	r1, #48	; 0x30
1000218e:	7039      	strb	r1, [r7, #0]
10002190:	0028      	movs	r0, r5
10002192:	210a      	movs	r1, #10
10002194:	f001 f8a0 	bl	100032d8 <__wrap___aeabi_uidiv>
10002198:	002f      	movs	r7, r5
1000219a:	0005      	movs	r5, r0
1000219c:	2f09      	cmp	r7, #9
1000219e:	d8e9      	bhi.n	10002174 <_etoa+0x2e4>
100021a0:	2305      	movs	r3, #5
100021a2:	9306      	str	r3, [sp, #24]
100021a4:	2300      	movs	r3, #0
100021a6:	9304      	str	r3, [sp, #16]
100021a8:	330a      	adds	r3, #10
100021aa:	9303      	str	r3, [sp, #12]
100021ac:	464b      	mov	r3, r9
100021ae:	9601      	str	r6, [sp, #4]
100021b0:	9e0b      	ldr	r6, [sp, #44]	; 0x2c
100021b2:	9302      	str	r3, [sp, #8]
100021b4:	ab12      	add	r3, sp, #72	; 0x48
100021b6:	9300      	str	r3, [sp, #0]
100021b8:	4642      	mov	r2, r8
100021ba:	4653      	mov	r3, sl
100021bc:	4659      	mov	r1, fp
100021be:	0030      	movs	r0, r6
100021c0:	9405      	str	r4, [sp, #20]
100021c2:	f7ff fd6d 	bl	10001ca0 <_ntoa_format>
100021c6:	9b10      	ldr	r3, [sp, #64]	; 0x40
100021c8:	0005      	movs	r5, r0
100021ca:	2b00      	cmp	r3, #0
100021cc:	d02d      	beq.n	1000222a <_etoa+0x39a>
100021ce:	9b0c      	ldr	r3, [sp, #48]	; 0x30
100021d0:	9a27      	ldr	r2, [sp, #156]	; 0x9c
100021d2:	1ac4      	subs	r4, r0, r3
100021d4:	42a2      	cmp	r2, r4
100021d6:	d928      	bls.n	1000222a <_etoa+0x39a>
100021d8:	4681      	mov	r9, r0
100021da:	465d      	mov	r5, fp
100021dc:	4698      	mov	r8, r3
100021de:	0017      	movs	r7, r2
100021e0:	4643      	mov	r3, r8
100021e2:	0029      	movs	r1, r5
100021e4:	191a      	adds	r2, r3, r4
100021e6:	2020      	movs	r0, #32
100021e8:	4653      	mov	r3, sl
100021ea:	3401      	adds	r4, #1
100021ec:	47b0      	blx	r6
100021ee:	42a7      	cmp	r7, r4
100021f0:	d8f6      	bhi.n	100021e0 <_etoa+0x350>
100021f2:	464d      	mov	r5, r9
100021f4:	990c      	ldr	r1, [sp, #48]	; 0x30
100021f6:	9827      	ldr	r0, [sp, #156]	; 0x9c
100021f8:	1a6b      	subs	r3, r5, r1
100021fa:	3301      	adds	r3, #1
100021fc:	2200      	movs	r2, #0
100021fe:	4298      	cmp	r0, r3
10002200:	d261      	bcs.n	100022c6 <_etoa+0x436>
10002202:	3501      	adds	r5, #1
10002204:	1955      	adds	r5, r2, r5
10002206:	e010      	b.n	1000222a <_etoa+0x39a>
10002208:	9b28      	ldr	r3, [sp, #160]	; 0xa0
1000220a:	464a      	mov	r2, r9
1000220c:	9304      	str	r3, [sp, #16]
1000220e:	9b27      	ldr	r3, [sp, #156]	; 0x9c
10002210:	4659      	mov	r1, fp
10002212:	9303      	str	r3, [sp, #12]
10002214:	9b26      	ldr	r3, [sp, #152]	; 0x98
10002216:	980b      	ldr	r0, [sp, #44]	; 0x2c
10002218:	9302      	str	r3, [sp, #8]
1000221a:	4643      	mov	r3, r8
1000221c:	9200      	str	r2, [sp, #0]
1000221e:	9301      	str	r3, [sp, #4]
10002220:	4653      	mov	r3, sl
10002222:	9a0c      	ldr	r2, [sp, #48]	; 0x30
10002224:	f000 f85a 	bl	100022dc <_ftoa>
10002228:	0005      	movs	r5, r0
1000222a:	0028      	movs	r0, r5
1000222c:	b01b      	add	sp, #108	; 0x6c
1000222e:	bc3c      	pop	{r2, r3, r4, r5}
10002230:	4690      	mov	r8, r2
10002232:	4699      	mov	r9, r3
10002234:	46a2      	mov	sl, r4
10002236:	46ab      	mov	fp, r5
10002238:	bdf0      	pop	{r4, r5, r6, r7, pc}
1000223a:	9b26      	ldr	r3, [sp, #152]	; 0x98
1000223c:	2b00      	cmp	r3, #0
1000223e:	d100      	bne.n	10002242 <_etoa+0x3b2>
10002240:	e745      	b.n	100020ce <_etoa+0x23e>
10002242:	9b11      	ldr	r3, [sp, #68]	; 0x44
10002244:	1e5a      	subs	r2, r3, #1
10002246:	4193      	sbcs	r3, r2
10002248:	9a26      	ldr	r2, [sp, #152]	; 0x98
1000224a:	1ad3      	subs	r3, r2, r3
1000224c:	9326      	str	r3, [sp, #152]	; 0x98
1000224e:	e73e      	b.n	100020ce <_etoa+0x23e>
10002250:	7fefffff 	.word	0x7fefffff
10002254:	ffefffff 	.word	0xffefffff
10002258:	fffffc01 	.word	0xfffffc01
1000225c:	509f79fb 	.word	0x509f79fb
10002260:	3fd34413 	.word	0x3fd34413
10002264:	8b60c8b3 	.word	0x8b60c8b3
10002268:	3fc68a28 	.word	0x3fc68a28
1000226c:	3ff00000 	.word	0x3ff00000
10002270:	3ff80000 	.word	0x3ff80000
10002274:	636f4361 	.word	0x636f4361
10002278:	3fd287a7 	.word	0x3fd287a7
1000227c:	0979a371 	.word	0x0979a371
10002280:	400a934f 	.word	0x400a934f
10002284:	3fe00000 	.word	0x3fe00000
10002288:	bbb55516 	.word	0xbbb55516
1000228c:	40026bb1 	.word	0x40026bb1
10002290:	fefa39ef 	.word	0xfefa39ef
10002294:	3fe62e42 	.word	0x3fe62e42
10002298:	402c0000 	.word	0x402c0000
1000229c:	40240000 	.word	0x40240000
100022a0:	40180000 	.word	0x40180000
100022a4:	000003ff 	.word	0x000003ff
100022a8:	eb1c432d 	.word	0xeb1c432d
100022ac:	3f1a36e2 	.word	0x3f1a36e2
100022b0:	412e8480 	.word	0x412e8480
100022b4:	fffff7ff 	.word	0xfffff7ff
100022b8:	464b      	mov	r3, r9
100022ba:	930a      	str	r3, [sp, #40]	; 0x28
100022bc:	2380      	movs	r3, #128	; 0x80
100022be:	061b      	lsls	r3, r3, #24
100022c0:	4443      	add	r3, r8
100022c2:	9309      	str	r3, [sp, #36]	; 0x24
100022c4:	e61d      	b.n	10001f02 <_etoa+0x72>
100022c6:	000a      	movs	r2, r1
100022c8:	4684      	mov	ip, r0
100022ca:	3a01      	subs	r2, #1
100022cc:	4462      	add	r2, ip
100022ce:	1b52      	subs	r2, r2, r5
100022d0:	e797      	b.n	10002202 <_etoa+0x372>
100022d2:	1b50      	subs	r0, r2, r5
100022d4:	1e43      	subs	r3, r0, #1
100022d6:	9326      	str	r3, [sp, #152]	; 0x98
100022d8:	e6f1      	b.n	100020be <_etoa+0x22e>
100022da:	46c0      	nop			; (mov r8, r8)

100022dc <_ftoa>:
100022dc:	b5f0      	push	{r4, r5, r6, r7, lr}
100022de:	464e      	mov	r6, r9
100022e0:	46de      	mov	lr, fp
100022e2:	4657      	mov	r7, sl
100022e4:	4645      	mov	r5, r8
100022e6:	b5e0      	push	{r5, r6, r7, lr}
100022e8:	b097      	sub	sp, #92	; 0x5c
100022ea:	4699      	mov	r9, r3
100022ec:	9e20      	ldr	r6, [sp, #128]	; 0x80
100022ee:	9f21      	ldr	r7, [sp, #132]	; 0x84
100022f0:	9b22      	ldr	r3, [sp, #136]	; 0x88
100022f2:	4683      	mov	fp, r0
100022f4:	4698      	mov	r8, r3
100022f6:	9107      	str	r1, [sp, #28]
100022f8:	920c      	str	r2, [sp, #48]	; 0x30
100022fa:	003b      	movs	r3, r7
100022fc:	0032      	movs	r2, r6
100022fe:	0030      	movs	r0, r6
10002300:	0039      	movs	r1, r7
10002302:	f001 faa6 	bl	10003852 <__wrap___aeabi_dcmpun>
10002306:	2800      	cmp	r0, #0
10002308:	d000      	beq.n	1000230c <_ftoa+0x30>
1000230a:	e1c1      	b.n	10002690 <_ftoa+0x3b4>
1000230c:	2201      	movs	r2, #1
1000230e:	0030      	movs	r0, r6
10002310:	0039      	movs	r1, r7
10002312:	4bca      	ldr	r3, [pc, #808]	; (1000263c <_ftoa+0x360>)
10002314:	4252      	negs	r2, r2
10002316:	f001 fa81 	bl	1000381c <__wrap___aeabi_dcmplt>
1000231a:	2800      	cmp	r0, #0
1000231c:	d000      	beq.n	10002320 <_ftoa+0x44>
1000231e:	e0e0      	b.n	100024e2 <_ftoa+0x206>
10002320:	2201      	movs	r2, #1
10002322:	0030      	movs	r0, r6
10002324:	0039      	movs	r1, r7
10002326:	4bc6      	ldr	r3, [pc, #792]	; (10002640 <_ftoa+0x364>)
10002328:	4252      	negs	r2, r2
1000232a:	f001 fa8d 	bl	10003848 <__wrap___aeabi_dcmpgt>
1000232e:	2800      	cmp	r0, #0
10002330:	d000      	beq.n	10002334 <_ftoa+0x58>
10002332:	e0b6      	b.n	100024a2 <_ftoa+0x1c6>
10002334:	2200      	movs	r2, #0
10002336:	0030      	movs	r0, r6
10002338:	0039      	movs	r1, r7
1000233a:	4bc2      	ldr	r3, [pc, #776]	; (10002644 <_ftoa+0x368>)
1000233c:	f001 fa84 	bl	10003848 <__wrap___aeabi_dcmpgt>
10002340:	2800      	cmp	r0, #0
10002342:	d000      	beq.n	10002346 <_ftoa+0x6a>
10002344:	e098      	b.n	10002478 <_ftoa+0x19c>
10002346:	2200      	movs	r2, #0
10002348:	0030      	movs	r0, r6
1000234a:	0039      	movs	r1, r7
1000234c:	4bbe      	ldr	r3, [pc, #760]	; (10002648 <_ftoa+0x36c>)
1000234e:	f001 fa65 	bl	1000381c <__wrap___aeabi_dcmplt>
10002352:	2800      	cmp	r0, #0
10002354:	d000      	beq.n	10002358 <_ftoa+0x7c>
10002356:	e08f      	b.n	10002478 <_ftoa+0x19c>
10002358:	2200      	movs	r2, #0
1000235a:	2300      	movs	r3, #0
1000235c:	0030      	movs	r0, r6
1000235e:	0039      	movs	r1, r7
10002360:	f001 fa5c 	bl	1000381c <__wrap___aeabi_dcmplt>
10002364:	2800      	cmp	r0, #0
10002366:	d000      	beq.n	1000236a <_ftoa+0x8e>
10002368:	e0b0      	b.n	100024cc <_ftoa+0x1f0>
1000236a:	2300      	movs	r3, #0
1000236c:	930d      	str	r3, [sp, #52]	; 0x34
1000236e:	9b24      	ldr	r3, [sp, #144]	; 0x90
10002370:	055b      	lsls	r3, r3, #21
10002372:	d401      	bmi.n	10002378 <_ftoa+0x9c>
10002374:	2306      	movs	r3, #6
10002376:	4698      	mov	r8, r3
10002378:	ab08      	add	r3, sp, #32
1000237a:	469c      	mov	ip, r3
1000237c:	2217      	movs	r2, #23
1000237e:	2400      	movs	r4, #0
10002380:	2330      	movs	r3, #48	; 0x30
10002382:	4641      	mov	r1, r8
10002384:	4462      	add	r2, ip
10002386:	e004      	b.n	10002392 <_ftoa+0xb6>
10002388:	3401      	adds	r4, #1
1000238a:	5513      	strb	r3, [r2, r4]
1000238c:	3901      	subs	r1, #1
1000238e:	2c20      	cmp	r4, #32
10002390:	d001      	beq.n	10002396 <_ftoa+0xba>
10002392:	2909      	cmp	r1, #9
10002394:	d8f8      	bhi.n	10002388 <_ftoa+0xac>
10002396:	4688      	mov	r8, r1
10002398:	0030      	movs	r0, r6
1000239a:	0039      	movs	r1, r7
1000239c:	f001 fa84 	bl	100038a8 <__wrap___aeabi_d2iz>
100023a0:	4643      	mov	r3, r8
100023a2:	00da      	lsls	r2, r3, #3
100023a4:	4ba9      	ldr	r3, [pc, #676]	; (1000264c <_ftoa+0x370>)
100023a6:	0005      	movs	r5, r0
100023a8:	189b      	adds	r3, r3, r2
100023aa:	681a      	ldr	r2, [r3, #0]
100023ac:	685b      	ldr	r3, [r3, #4]
100023ae:	9208      	str	r2, [sp, #32]
100023b0:	9309      	str	r3, [sp, #36]	; 0x24
100023b2:	f001 fa61 	bl	10003878 <__wrap___aeabi_i2d>
100023b6:	0002      	movs	r2, r0
100023b8:	000b      	movs	r3, r1
100023ba:	0030      	movs	r0, r6
100023bc:	0039      	movs	r1, r7
100023be:	f001 f9d0 	bl	10003762 <__wrap___aeabi_dsub>
100023c2:	9a08      	ldr	r2, [sp, #32]
100023c4:	9b09      	ldr	r3, [sp, #36]	; 0x24
100023c6:	f001 f9e7 	bl	10003798 <__wrap___aeabi_dmul>
100023ca:	900a      	str	r0, [sp, #40]	; 0x28
100023cc:	910b      	str	r1, [sp, #44]	; 0x2c
100023ce:	f001 fa8f 	bl	100038f0 <__wrap___aeabi_d2uiz>
100023d2:	4682      	mov	sl, r0
100023d4:	f001 fa4c 	bl	10003870 <__wrap___aeabi_ui2d>
100023d8:	0002      	movs	r2, r0
100023da:	000b      	movs	r3, r1
100023dc:	980a      	ldr	r0, [sp, #40]	; 0x28
100023de:	990b      	ldr	r1, [sp, #44]	; 0x2c
100023e0:	f001 f9bf 	bl	10003762 <__wrap___aeabi_dsub>
100023e4:	2200      	movs	r2, #0
100023e6:	4b9a      	ldr	r3, [pc, #616]	; (10002650 <_ftoa+0x374>)
100023e8:	900a      	str	r0, [sp, #40]	; 0x28
100023ea:	910b      	str	r1, [sp, #44]	; 0x2c
100023ec:	f001 fa2c 	bl	10003848 <__wrap___aeabi_dcmpgt>
100023f0:	2800      	cmp	r0, #0
100023f2:	d100      	bne.n	100023f6 <_ftoa+0x11a>
100023f4:	e0c0      	b.n	10002578 <_ftoa+0x29c>
100023f6:	2301      	movs	r3, #1
100023f8:	469c      	mov	ip, r3
100023fa:	44e2      	add	sl, ip
100023fc:	4650      	mov	r0, sl
100023fe:	f001 fa37 	bl	10003870 <__wrap___aeabi_ui2d>
10002402:	0002      	movs	r2, r0
10002404:	000b      	movs	r3, r1
10002406:	9808      	ldr	r0, [sp, #32]
10002408:	9909      	ldr	r1, [sp, #36]	; 0x24
1000240a:	f001 fa0d 	bl	10003828 <__wrap___aeabi_dcmple>
1000240e:	2800      	cmp	r0, #0
10002410:	d002      	beq.n	10002418 <_ftoa+0x13c>
10002412:	2300      	movs	r3, #0
10002414:	469a      	mov	sl, r3
10002416:	3501      	adds	r5, #1
10002418:	4643      	mov	r3, r8
1000241a:	2b00      	cmp	r3, #0
1000241c:	d069      	beq.n	100024f2 <_ftoa+0x216>
1000241e:	ab08      	add	r3, sp, #32
10002420:	2617      	movs	r6, #23
10002422:	469c      	mov	ip, r3
10002424:	9508      	str	r5, [sp, #32]
10002426:	4466      	add	r6, ip
10002428:	4655      	mov	r5, sl
1000242a:	e014      	b.n	10002456 <_ftoa+0x17a>
1000242c:	2301      	movs	r3, #1
1000242e:	425b      	negs	r3, r3
10002430:	4443      	add	r3, r8
10002432:	210a      	movs	r1, #10
10002434:	0028      	movs	r0, r5
10002436:	469a      	mov	sl, r3
10002438:	f000 ff4e 	bl	100032d8 <__wrap___aeabi_uidiv>
1000243c:	3401      	adds	r4, #1
1000243e:	3130      	adds	r1, #48	; 0x30
10002440:	1937      	adds	r7, r6, r4
10002442:	7039      	strb	r1, [r7, #0]
10002444:	0028      	movs	r0, r5
10002446:	210a      	movs	r1, #10
10002448:	f000 ff46 	bl	100032d8 <__wrap___aeabi_uidiv>
1000244c:	2d09      	cmp	r5, #9
1000244e:	d800      	bhi.n	10002452 <_ftoa+0x176>
10002450:	e0d5      	b.n	100025fe <_ftoa+0x322>
10002452:	46d0      	mov	r8, sl
10002454:	0005      	movs	r5, r0
10002456:	2c20      	cmp	r4, #32
10002458:	d1e8      	bne.n	1000242c <_ftoa+0x150>
1000245a:	2303      	movs	r3, #3
1000245c:	9a24      	ldr	r2, [sp, #144]	; 0x90
1000245e:	4013      	ands	r3, r2
10002460:	2b01      	cmp	r3, #1
10002462:	d100      	bne.n	10002466 <_ftoa+0x18a>
10002464:	e100      	b.n	10002668 <_ftoa+0x38c>
10002466:	ab0e      	add	r3, sp, #56	; 0x38
10002468:	4698      	mov	r8, r3
1000246a:	9b24      	ldr	r3, [sp, #144]	; 0x90
1000246c:	9401      	str	r4, [sp, #4]
1000246e:	9303      	str	r3, [sp, #12]
10002470:	9b23      	ldr	r3, [sp, #140]	; 0x8c
10002472:	9302      	str	r3, [sp, #8]
10002474:	4643      	mov	r3, r8
10002476:	e01e      	b.n	100024b6 <_ftoa+0x1da>
10002478:	9b24      	ldr	r3, [sp, #144]	; 0x90
1000247a:	4658      	mov	r0, fp
1000247c:	9304      	str	r3, [sp, #16]
1000247e:	9b23      	ldr	r3, [sp, #140]	; 0x8c
10002480:	9600      	str	r6, [sp, #0]
10002482:	9701      	str	r7, [sp, #4]
10002484:	9303      	str	r3, [sp, #12]
10002486:	4643      	mov	r3, r8
10002488:	9a0c      	ldr	r2, [sp, #48]	; 0x30
1000248a:	9302      	str	r3, [sp, #8]
1000248c:	9907      	ldr	r1, [sp, #28]
1000248e:	464b      	mov	r3, r9
10002490:	f7ff fcfe 	bl	10001e90 <_etoa>
10002494:	b017      	add	sp, #92	; 0x5c
10002496:	bc3c      	pop	{r2, r3, r4, r5}
10002498:	4690      	mov	r8, r2
1000249a:	4699      	mov	r9, r3
1000249c:	46a2      	mov	sl, r4
1000249e:	46ab      	mov	fp, r5
100024a0:	bdf0      	pop	{r4, r5, r6, r7, pc}
100024a2:	9b24      	ldr	r3, [sp, #144]	; 0x90
100024a4:	075b      	lsls	r3, r3, #29
100024a6:	d40e      	bmi.n	100024c6 <_ftoa+0x1ea>
100024a8:	2203      	movs	r2, #3
100024aa:	4b6a      	ldr	r3, [pc, #424]	; (10002654 <_ftoa+0x378>)
100024ac:	9924      	ldr	r1, [sp, #144]	; 0x90
100024ae:	9201      	str	r2, [sp, #4]
100024b0:	9103      	str	r1, [sp, #12]
100024b2:	9923      	ldr	r1, [sp, #140]	; 0x8c
100024b4:	9102      	str	r1, [sp, #8]
100024b6:	9300      	str	r3, [sp, #0]
100024b8:	4658      	mov	r0, fp
100024ba:	464b      	mov	r3, r9
100024bc:	9a0c      	ldr	r2, [sp, #48]	; 0x30
100024be:	9907      	ldr	r1, [sp, #28]
100024c0:	f7ff fb86 	bl	10001bd0 <_out_rev>
100024c4:	e7e6      	b.n	10002494 <_ftoa+0x1b8>
100024c6:	2204      	movs	r2, #4
100024c8:	4b63      	ldr	r3, [pc, #396]	; (10002658 <_ftoa+0x37c>)
100024ca:	e7ef      	b.n	100024ac <_ftoa+0x1d0>
100024cc:	003b      	movs	r3, r7
100024ce:	0032      	movs	r2, r6
100024d0:	2000      	movs	r0, #0
100024d2:	2100      	movs	r1, #0
100024d4:	f001 f945 	bl	10003762 <__wrap___aeabi_dsub>
100024d8:	2301      	movs	r3, #1
100024da:	0006      	movs	r6, r0
100024dc:	000f      	movs	r7, r1
100024de:	930d      	str	r3, [sp, #52]	; 0x34
100024e0:	e745      	b.n	1000236e <_ftoa+0x92>
100024e2:	9b24      	ldr	r3, [sp, #144]	; 0x90
100024e4:	9303      	str	r3, [sp, #12]
100024e6:	9b23      	ldr	r3, [sp, #140]	; 0x8c
100024e8:	9302      	str	r3, [sp, #8]
100024ea:	2304      	movs	r3, #4
100024ec:	9301      	str	r3, [sp, #4]
100024ee:	4b5b      	ldr	r3, [pc, #364]	; (1000265c <_ftoa+0x380>)
100024f0:	e7e1      	b.n	100024b6 <_ftoa+0x1da>
100024f2:	0028      	movs	r0, r5
100024f4:	f001 f9c0 	bl	10003878 <__wrap___aeabi_i2d>
100024f8:	0002      	movs	r2, r0
100024fa:	000b      	movs	r3, r1
100024fc:	0030      	movs	r0, r6
100024fe:	0039      	movs	r1, r7
10002500:	f001 f92f 	bl	10003762 <__wrap___aeabi_dsub>
10002504:	4b52      	ldr	r3, [pc, #328]	; (10002650 <_ftoa+0x374>)
10002506:	2200      	movs	r2, #0
10002508:	0006      	movs	r6, r0
1000250a:	000f      	movs	r7, r1
1000250c:	f001 f986 	bl	1000381c <__wrap___aeabi_dcmplt>
10002510:	ab0e      	add	r3, sp, #56	; 0x38
10002512:	4698      	mov	r8, r3
10002514:	2800      	cmp	r0, #0
10002516:	d10a      	bne.n	1000252e <_ftoa+0x252>
10002518:	2200      	movs	r2, #0
1000251a:	0030      	movs	r0, r6
1000251c:	0039      	movs	r1, r7
1000251e:	4b4c      	ldr	r3, [pc, #304]	; (10002650 <_ftoa+0x374>)
10002520:	f001 f992 	bl	10003848 <__wrap___aeabi_dcmpgt>
10002524:	2800      	cmp	r0, #0
10002526:	d102      	bne.n	1000252e <_ftoa+0x252>
10002528:	07eb      	lsls	r3, r5, #31
1000252a:	d500      	bpl.n	1000252e <_ftoa+0x252>
1000252c:	3501      	adds	r5, #1
1000252e:	2c20      	cmp	r4, #32
10002530:	d032      	beq.n	10002598 <_ftoa+0x2bc>
10002532:	aa08      	add	r2, sp, #32
10002534:	4694      	mov	ip, r2
10002536:	2317      	movs	r3, #23
10002538:	0028      	movs	r0, r5
1000253a:	4463      	add	r3, ip
1000253c:	210a      	movs	r1, #10
1000253e:	3401      	adds	r4, #1
10002540:	191e      	adds	r6, r3, r4
10002542:	f000 fe9d 	bl	10003280 <__wrap___aeabi_idiv>
10002546:	3130      	adds	r1, #48	; 0x30
10002548:	0028      	movs	r0, r5
1000254a:	7031      	strb	r1, [r6, #0]
1000254c:	210a      	movs	r1, #10
1000254e:	f000 fe97 	bl	10003280 <__wrap___aeabi_idiv>
10002552:	1e05      	subs	r5, r0, #0
10002554:	d1eb      	bne.n	1000252e <_ftoa+0x252>
10002556:	2303      	movs	r3, #3
10002558:	9a24      	ldr	r2, [sp, #144]	; 0x90
1000255a:	4013      	ands	r3, r2
1000255c:	2b01      	cmp	r3, #1
1000255e:	d100      	bne.n	10002562 <_ftoa+0x286>
10002560:	e091      	b.n	10002686 <_ftoa+0x3aa>
10002562:	2c1f      	cmp	r4, #31
10002564:	d900      	bls.n	10002568 <_ftoa+0x28c>
10002566:	e780      	b.n	1000246a <_ftoa+0x18e>
10002568:	9b0d      	ldr	r3, [sp, #52]	; 0x34
1000256a:	2b00      	cmp	r3, #0
1000256c:	d03b      	beq.n	100025e6 <_ftoa+0x30a>
1000256e:	232d      	movs	r3, #45	; 0x2d
10002570:	4642      	mov	r2, r8
10002572:	5513      	strb	r3, [r2, r4]
10002574:	3401      	adds	r4, #1
10002576:	e778      	b.n	1000246a <_ftoa+0x18e>
10002578:	2200      	movs	r2, #0
1000257a:	980a      	ldr	r0, [sp, #40]	; 0x28
1000257c:	990b      	ldr	r1, [sp, #44]	; 0x2c
1000257e:	4b34      	ldr	r3, [pc, #208]	; (10002650 <_ftoa+0x374>)
10002580:	f001 f94c 	bl	1000381c <__wrap___aeabi_dcmplt>
10002584:	2800      	cmp	r0, #0
10002586:	d000      	beq.n	1000258a <_ftoa+0x2ae>
10002588:	e746      	b.n	10002418 <_ftoa+0x13c>
1000258a:	4653      	mov	r3, sl
1000258c:	2b00      	cmp	r3, #0
1000258e:	d167      	bne.n	10002660 <_ftoa+0x384>
10002590:	2301      	movs	r3, #1
10002592:	469c      	mov	ip, r3
10002594:	44e2      	add	sl, ip
10002596:	e73f      	b.n	10002418 <_ftoa+0x13c>
10002598:	2303      	movs	r3, #3
1000259a:	9a24      	ldr	r2, [sp, #144]	; 0x90
1000259c:	4013      	ands	r3, r2
1000259e:	2b01      	cmp	r3, #1
100025a0:	d000      	beq.n	100025a4 <_ftoa+0x2c8>
100025a2:	e762      	b.n	1000246a <_ftoa+0x18e>
100025a4:	9b23      	ldr	r3, [sp, #140]	; 0x8c
100025a6:	2b00      	cmp	r3, #0
100025a8:	d100      	bne.n	100025ac <_ftoa+0x2d0>
100025aa:	e75e      	b.n	1000246a <_ftoa+0x18e>
100025ac:	9b0d      	ldr	r3, [sp, #52]	; 0x34
100025ae:	2b00      	cmp	r3, #0
100025b0:	d103      	bne.n	100025ba <_ftoa+0x2de>
100025b2:	9a24      	ldr	r2, [sp, #144]	; 0x90
100025b4:	330c      	adds	r3, #12
100025b6:	4213      	tst	r3, r2
100025b8:	d002      	beq.n	100025c0 <_ftoa+0x2e4>
100025ba:	9b23      	ldr	r3, [sp, #140]	; 0x8c
100025bc:	3b01      	subs	r3, #1
100025be:	9323      	str	r3, [sp, #140]	; 0x8c
100025c0:	9b23      	ldr	r3, [sp, #140]	; 0x8c
100025c2:	429c      	cmp	r4, r3
100025c4:	d2cd      	bcs.n	10002562 <_ftoa+0x286>
100025c6:	ab08      	add	r3, sp, #32
100025c8:	469c      	mov	ip, r3
100025ca:	2217      	movs	r2, #23
100025cc:	2330      	movs	r3, #48	; 0x30
100025ce:	4462      	add	r2, ip
100025d0:	2c1f      	cmp	r4, #31
100025d2:	d806      	bhi.n	100025e2 <_ftoa+0x306>
100025d4:	9923      	ldr	r1, [sp, #140]	; 0x8c
100025d6:	3401      	adds	r4, #1
100025d8:	5513      	strb	r3, [r2, r4]
100025da:	428c      	cmp	r4, r1
100025dc:	d0c1      	beq.n	10002562 <_ftoa+0x286>
100025de:	2c20      	cmp	r4, #32
100025e0:	d1f8      	bne.n	100025d4 <_ftoa+0x2f8>
100025e2:	2420      	movs	r4, #32
100025e4:	e741      	b.n	1000246a <_ftoa+0x18e>
100025e6:	9b24      	ldr	r3, [sp, #144]	; 0x90
100025e8:	075b      	lsls	r3, r3, #29
100025ea:	d421      	bmi.n	10002630 <_ftoa+0x354>
100025ec:	9b24      	ldr	r3, [sp, #144]	; 0x90
100025ee:	071b      	lsls	r3, r3, #28
100025f0:	d400      	bmi.n	100025f4 <_ftoa+0x318>
100025f2:	e73a      	b.n	1000246a <_ftoa+0x18e>
100025f4:	2320      	movs	r3, #32
100025f6:	4642      	mov	r2, r8
100025f8:	5513      	strb	r3, [r2, r4]
100025fa:	3401      	adds	r4, #1
100025fc:	e735      	b.n	1000246a <_ftoa+0x18e>
100025fe:	4657      	mov	r7, sl
10002600:	9d08      	ldr	r5, [sp, #32]
10002602:	2c20      	cmp	r4, #32
10002604:	d037      	beq.n	10002676 <_ftoa+0x39a>
10002606:	0022      	movs	r2, r4
10002608:	2130      	movs	r1, #48	; 0x30
1000260a:	4640      	mov	r0, r8
1000260c:	2f00      	cmp	r7, #0
1000260e:	d008      	beq.n	10002622 <_ftoa+0x346>
10002610:	3201      	adds	r2, #1
10002612:	54b1      	strb	r1, [r6, r2]
10002614:	2a20      	cmp	r2, #32
10002616:	d043      	beq.n	100026a0 <_ftoa+0x3c4>
10002618:	43d3      	mvns	r3, r2
1000261a:	191b      	adds	r3, r3, r4
1000261c:	181b      	adds	r3, r3, r0
1000261e:	2b00      	cmp	r3, #0
10002620:	d1f6      	bne.n	10002610 <_ftoa+0x334>
10002622:	ab0e      	add	r3, sp, #56	; 0x38
10002624:	4698      	mov	r8, r3
10002626:	232e      	movs	r3, #46	; 0x2e
10002628:	4641      	mov	r1, r8
1000262a:	1c54      	adds	r4, r2, #1
1000262c:	548b      	strb	r3, [r1, r2]
1000262e:	e77e      	b.n	1000252e <_ftoa+0x252>
10002630:	232b      	movs	r3, #43	; 0x2b
10002632:	4642      	mov	r2, r8
10002634:	5513      	strb	r3, [r2, r4]
10002636:	3401      	adds	r4, #1
10002638:	e717      	b.n	1000246a <_ftoa+0x18e>
1000263a:	46c0      	nop			; (mov r8, r8)
1000263c:	ffefffff 	.word	0xffefffff
10002640:	7fefffff 	.word	0x7fefffff
10002644:	41cdcd65 	.word	0x41cdcd65
10002648:	c1cdcd65 	.word	0xc1cdcd65
1000264c:	10005218 	.word	0x10005218
10002650:	3fe00000 	.word	0x3fe00000
10002654:	10005020 	.word	0x10005020
10002658:	10005024 	.word	0x10005024
1000265c:	10005030 	.word	0x10005030
10002660:	07db      	lsls	r3, r3, #31
10002662:	d400      	bmi.n	10002666 <_ftoa+0x38a>
10002664:	e6d8      	b.n	10002418 <_ftoa+0x13c>
10002666:	e793      	b.n	10002590 <_ftoa+0x2b4>
10002668:	9b23      	ldr	r3, [sp, #140]	; 0x8c
1000266a:	2b00      	cmp	r3, #0
1000266c:	d100      	bne.n	10002670 <_ftoa+0x394>
1000266e:	e6fa      	b.n	10002466 <_ftoa+0x18a>
10002670:	ab0e      	add	r3, sp, #56	; 0x38
10002672:	4698      	mov	r8, r3
10002674:	e79a      	b.n	100025ac <_ftoa+0x2d0>
10002676:	2303      	movs	r3, #3
10002678:	9a24      	ldr	r2, [sp, #144]	; 0x90
1000267a:	4013      	ands	r3, r2
1000267c:	2b01      	cmp	r3, #1
1000267e:	d000      	beq.n	10002682 <_ftoa+0x3a6>
10002680:	e6f1      	b.n	10002466 <_ftoa+0x18a>
10002682:	ab0e      	add	r3, sp, #56	; 0x38
10002684:	4698      	mov	r8, r3
10002686:	9b23      	ldr	r3, [sp, #140]	; 0x8c
10002688:	2b00      	cmp	r3, #0
1000268a:	d100      	bne.n	1000268e <_ftoa+0x3b2>
1000268c:	e769      	b.n	10002562 <_ftoa+0x286>
1000268e:	e78d      	b.n	100025ac <_ftoa+0x2d0>
10002690:	9b24      	ldr	r3, [sp, #144]	; 0x90
10002692:	9303      	str	r3, [sp, #12]
10002694:	9b23      	ldr	r3, [sp, #140]	; 0x8c
10002696:	9302      	str	r3, [sp, #8]
10002698:	2303      	movs	r3, #3
1000269a:	9301      	str	r3, [sp, #4]
1000269c:	4b06      	ldr	r3, [pc, #24]	; (100026b8 <_ftoa+0x3dc>)
1000269e:	e70a      	b.n	100024b6 <_ftoa+0x1da>
100026a0:	2303      	movs	r3, #3
100026a2:	9a24      	ldr	r2, [sp, #144]	; 0x90
100026a4:	2420      	movs	r4, #32
100026a6:	4013      	ands	r3, r2
100026a8:	2b01      	cmp	r3, #1
100026aa:	d000      	beq.n	100026ae <_ftoa+0x3d2>
100026ac:	e6db      	b.n	10002466 <_ftoa+0x18a>
100026ae:	9b23      	ldr	r3, [sp, #140]	; 0x8c
100026b0:	2420      	movs	r4, #32
100026b2:	2b00      	cmp	r3, #0
100026b4:	d1dc      	bne.n	10002670 <_ftoa+0x394>
100026b6:	e6d6      	b.n	10002466 <_ftoa+0x18a>
100026b8:	1000502c 	.word	0x1000502c

100026bc <_vsnprintf>:
100026bc:	b5f0      	push	{r4, r5, r6, r7, lr}
100026be:	46de      	mov	lr, fp
100026c0:	464e      	mov	r6, r9
100026c2:	4657      	mov	r7, sl
100026c4:	4645      	mov	r5, r8
100026c6:	b5e0      	push	{r5, r6, r7, lr}
100026c8:	b09f      	sub	sp, #124	; 0x7c
100026ca:	001c      	movs	r4, r3
100026cc:	9b28      	ldr	r3, [sp, #160]	; 0xa0
100026ce:	4693      	mov	fp, r2
100026d0:	9309      	str	r3, [sp, #36]	; 0x24
100026d2:	4acf      	ldr	r2, [pc, #828]	; (10002a10 <_vsnprintf+0x354>)
100026d4:	4bcf      	ldr	r3, [pc, #828]	; (10002a14 <_vsnprintf+0x358>)
100026d6:	4689      	mov	r9, r1
100026d8:	9008      	str	r0, [sp, #32]
100026da:	601a      	str	r2, [r3, #0]
100026dc:	2900      	cmp	r1, #0
100026de:	d100      	bne.n	100026e2 <_vsnprintf+0x26>
100026e0:	e216      	b.n	10002b10 <_vsnprintf+0x454>
100026e2:	2300      	movs	r3, #0
100026e4:	7820      	ldrb	r0, [r4, #0]
100026e6:	469a      	mov	sl, r3
100026e8:	2800      	cmp	r0, #0
100026ea:	d100      	bne.n	100026ee <_vsnprintf+0x32>
100026ec:	e218      	b.n	10002b20 <_vsnprintf+0x464>
100026ee:	0026      	movs	r6, r4
100026f0:	001d      	movs	r5, r3
100026f2:	464c      	mov	r4, r9
100026f4:	e00a      	b.n	1000270c <_vsnprintf+0x50>
100026f6:	002a      	movs	r2, r5
100026f8:	1c6f      	adds	r7, r5, #1
100026fa:	465b      	mov	r3, fp
100026fc:	9d08      	ldr	r5, [sp, #32]
100026fe:	0021      	movs	r1, r4
10002700:	47a8      	blx	r5
10002702:	003d      	movs	r5, r7
10002704:	3601      	adds	r6, #1
10002706:	7830      	ldrb	r0, [r6, #0]
10002708:	2800      	cmp	r0, #0
1000270a:	d07a      	beq.n	10002802 <_vsnprintf+0x146>
1000270c:	2825      	cmp	r0, #37	; 0x25
1000270e:	d1f2      	bne.n	100026f6 <_vsnprintf+0x3a>
10002710:	2310      	movs	r3, #16
10002712:	469a      	mov	sl, r3
10002714:	3b08      	subs	r3, #8
10002716:	4699      	mov	r9, r3
10002718:	3b04      	subs	r3, #4
1000271a:	4698      	mov	r8, r3
1000271c:	3b02      	subs	r3, #2
1000271e:	2100      	movs	r1, #0
10002720:	469c      	mov	ip, r3
10002722:	1c72      	adds	r2, r6, #1
10002724:	7810      	ldrb	r0, [r2, #0]
10002726:	0016      	movs	r6, r2
10002728:	0003      	movs	r3, r0
1000272a:	3b20      	subs	r3, #32
1000272c:	b2db      	uxtb	r3, r3
1000272e:	2b10      	cmp	r3, #16
10002730:	d803      	bhi.n	1000273a <_vsnprintf+0x7e>
10002732:	4fb9      	ldr	r7, [pc, #740]	; (10002a18 <_vsnprintf+0x35c>)
10002734:	009b      	lsls	r3, r3, #2
10002736:	58fb      	ldr	r3, [r7, r3]
10002738:	469f      	mov	pc, r3
1000273a:	0003      	movs	r3, r0
1000273c:	3b30      	subs	r3, #48	; 0x30
1000273e:	2b09      	cmp	r3, #9
10002740:	d93c      	bls.n	100027bc <_vsnprintf+0x100>
10002742:	2300      	movs	r3, #0
10002744:	930a      	str	r3, [sp, #40]	; 0x28
10002746:	282a      	cmp	r0, #42	; 0x2a
10002748:	d100      	bne.n	1000274c <_vsnprintf+0x90>
1000274a:	e071      	b.n	10002830 <_vsnprintf+0x174>
1000274c:	2300      	movs	r3, #0
1000274e:	4698      	mov	r8, r3
10002750:	282e      	cmp	r0, #46	; 0x2e
10002752:	d047      	beq.n	100027e4 <_vsnprintf+0x128>
10002754:	0003      	movs	r3, r0
10002756:	3b68      	subs	r3, #104	; 0x68
10002758:	b2db      	uxtb	r3, r3
1000275a:	2b12      	cmp	r3, #18
1000275c:	d81f      	bhi.n	1000279e <_vsnprintf+0xe2>
1000275e:	4aaf      	ldr	r2, [pc, #700]	; (10002a1c <_vsnprintf+0x360>)
10002760:	009b      	lsls	r3, r3, #2
10002762:	58d3      	ldr	r3, [r2, r3]
10002764:	469f      	mov	pc, r3
10002766:	2301      	movs	r3, #1
10002768:	3201      	adds	r2, #1
1000276a:	4319      	orrs	r1, r3
1000276c:	e7da      	b.n	10002724 <_vsnprintf+0x68>
1000276e:	4663      	mov	r3, ip
10002770:	3201      	adds	r2, #1
10002772:	4319      	orrs	r1, r3
10002774:	e7d6      	b.n	10002724 <_vsnprintf+0x68>
10002776:	4643      	mov	r3, r8
10002778:	3201      	adds	r2, #1
1000277a:	4319      	orrs	r1, r3
1000277c:	e7d2      	b.n	10002724 <_vsnprintf+0x68>
1000277e:	4653      	mov	r3, sl
10002780:	3201      	adds	r2, #1
10002782:	4319      	orrs	r1, r3
10002784:	e7ce      	b.n	10002724 <_vsnprintf+0x68>
10002786:	464b      	mov	r3, r9
10002788:	3201      	adds	r2, #1
1000278a:	4319      	orrs	r1, r3
1000278c:	e7ca      	b.n	10002724 <_vsnprintf+0x68>
1000278e:	7870      	ldrb	r0, [r6, #1]
10002790:	286c      	cmp	r0, #108	; 0x6c
10002792:	d100      	bne.n	10002796 <_vsnprintf+0xda>
10002794:	e2bf      	b.n	10002d16 <_vsnprintf+0x65a>
10002796:	2380      	movs	r3, #128	; 0x80
10002798:	005b      	lsls	r3, r3, #1
1000279a:	4319      	orrs	r1, r3
1000279c:	3601      	adds	r6, #1
1000279e:	0003      	movs	r3, r0
100027a0:	3b25      	subs	r3, #37	; 0x25
100027a2:	b2db      	uxtb	r3, r3
100027a4:	2b53      	cmp	r3, #83	; 0x53
100027a6:	d8a6      	bhi.n	100026f6 <_vsnprintf+0x3a>
100027a8:	4a9d      	ldr	r2, [pc, #628]	; (10002a20 <_vsnprintf+0x364>)
100027aa:	009b      	lsls	r3, r3, #2
100027ac:	58d3      	ldr	r3, [r2, r3]
100027ae:	469f      	mov	pc, r3
100027b0:	2380      	movs	r3, #128	; 0x80
100027b2:	005b      	lsls	r3, r3, #1
100027b4:	7870      	ldrb	r0, [r6, #1]
100027b6:	4319      	orrs	r1, r3
100027b8:	3601      	adds	r6, #1
100027ba:	e7f0      	b.n	1000279e <_vsnprintf+0xe2>
100027bc:	2700      	movs	r7, #0
100027be:	0003      	movs	r3, r0
100027c0:	00b8      	lsls	r0, r7, #2
100027c2:	19c0      	adds	r0, r0, r7
100027c4:	3601      	adds	r6, #1
100027c6:	0040      	lsls	r0, r0, #1
100027c8:	18c0      	adds	r0, r0, r3
100027ca:	7833      	ldrb	r3, [r6, #0]
100027cc:	3830      	subs	r0, #48	; 0x30
100027ce:	001a      	movs	r2, r3
100027d0:	3a30      	subs	r2, #48	; 0x30
100027d2:	0007      	movs	r7, r0
100027d4:	2a09      	cmp	r2, #9
100027d6:	d9f3      	bls.n	100027c0 <_vsnprintf+0x104>
100027d8:	900a      	str	r0, [sp, #40]	; 0x28
100027da:	0018      	movs	r0, r3
100027dc:	2300      	movs	r3, #0
100027de:	4698      	mov	r8, r3
100027e0:	282e      	cmp	r0, #46	; 0x2e
100027e2:	d1b7      	bne.n	10002754 <_vsnprintf+0x98>
100027e4:	2380      	movs	r3, #128	; 0x80
100027e6:	7870      	ldrb	r0, [r6, #1]
100027e8:	00db      	lsls	r3, r3, #3
100027ea:	4319      	orrs	r1, r3
100027ec:	0003      	movs	r3, r0
100027ee:	3b30      	subs	r3, #48	; 0x30
100027f0:	1c72      	adds	r2, r6, #1
100027f2:	2b09      	cmp	r3, #9
100027f4:	d800      	bhi.n	100027f8 <_vsnprintf+0x13c>
100027f6:	e195      	b.n	10002b24 <_vsnprintf+0x468>
100027f8:	282a      	cmp	r0, #42	; 0x2a
100027fa:	d100      	bne.n	100027fe <_vsnprintf+0x142>
100027fc:	e1a6      	b.n	10002b4c <_vsnprintf+0x490>
100027fe:	0016      	movs	r6, r2
10002800:	e7a8      	b.n	10002754 <_vsnprintf+0x98>
10002802:	46a1      	mov	r9, r4
10002804:	46aa      	mov	sl, r5
10002806:	002c      	movs	r4, r5
10002808:	45d3      	cmp	fp, sl
1000280a:	d803      	bhi.n	10002814 <_vsnprintf+0x158>
1000280c:	2301      	movs	r3, #1
1000280e:	425b      	negs	r3, r3
10002810:	445b      	add	r3, fp
10002812:	469a      	mov	sl, r3
10002814:	465b      	mov	r3, fp
10002816:	4652      	mov	r2, sl
10002818:	4649      	mov	r1, r9
1000281a:	2000      	movs	r0, #0
1000281c:	9d08      	ldr	r5, [sp, #32]
1000281e:	47a8      	blx	r5
10002820:	0020      	movs	r0, r4
10002822:	b01f      	add	sp, #124	; 0x7c
10002824:	bc3c      	pop	{r2, r3, r4, r5}
10002826:	4690      	mov	r8, r2
10002828:	4699      	mov	r9, r3
1000282a:	46a2      	mov	sl, r4
1000282c:	46ab      	mov	fp, r5
1000282e:	bdf0      	pop	{r4, r5, r6, r7, pc}
10002830:	9b09      	ldr	r3, [sp, #36]	; 0x24
10002832:	cb40      	ldmia	r3!, {r6}
10002834:	960a      	str	r6, [sp, #40]	; 0x28
10002836:	2e00      	cmp	r6, #0
10002838:	db03      	blt.n	10002842 <_vsnprintf+0x186>
1000283a:	7850      	ldrb	r0, [r2, #1]
1000283c:	9309      	str	r3, [sp, #36]	; 0x24
1000283e:	1c56      	adds	r6, r2, #1
10002840:	e784      	b.n	1000274c <_vsnprintf+0x90>
10002842:	3828      	subs	r0, #40	; 0x28
10002844:	4301      	orrs	r1, r0
10002846:	4270      	negs	r0, r6
10002848:	900a      	str	r0, [sp, #40]	; 0x28
1000284a:	9309      	str	r3, [sp, #36]	; 0x24
1000284c:	7850      	ldrb	r0, [r2, #1]
1000284e:	1c56      	adds	r6, r2, #1
10002850:	e77c      	b.n	1000274c <_vsnprintf+0x90>
10002852:	2878      	cmp	r0, #120	; 0x78
10002854:	d100      	bne.n	10002858 <_vsnprintf+0x19c>
10002856:	e1d4      	b.n	10002c02 <_vsnprintf+0x546>
10002858:	2858      	cmp	r0, #88	; 0x58
1000285a:	d100      	bne.n	1000285e <_vsnprintf+0x1a2>
1000285c:	e268      	b.n	10002d30 <_vsnprintf+0x674>
1000285e:	286f      	cmp	r0, #111	; 0x6f
10002860:	d100      	bne.n	10002864 <_vsnprintf+0x1a8>
10002862:	e352      	b.n	10002f0a <_vsnprintf+0x84e>
10002864:	2862      	cmp	r0, #98	; 0x62
10002866:	d100      	bne.n	1000286a <_vsnprintf+0x1ae>
10002868:	e1d8      	b.n	10002c1c <_vsnprintf+0x560>
1000286a:	2310      	movs	r3, #16
1000286c:	000a      	movs	r2, r1
1000286e:	439a      	bics	r2, r3
10002870:	920b      	str	r2, [sp, #44]	; 0x2c
10002872:	2869      	cmp	r0, #105	; 0x69
10002874:	d001      	beq.n	1000287a <_vsnprintf+0x1be>
10002876:	f000 fca2 	bl	100031be <_vsnprintf+0xb02>
1000287a:	230a      	movs	r3, #10
1000287c:	930c      	str	r3, [sp, #48]	; 0x30
1000287e:	054b      	lsls	r3, r1, #21
10002880:	d400      	bmi.n	10002884 <_vsnprintf+0x1c8>
10002882:	e1d5      	b.n	10002c30 <_vsnprintf+0x574>
10002884:	2301      	movs	r3, #1
10002886:	9a0b      	ldr	r2, [sp, #44]	; 0x2c
10002888:	439a      	bics	r2, r3
1000288a:	920b      	str	r2, [sp, #44]	; 0x2c
1000288c:	2869      	cmp	r0, #105	; 0x69
1000288e:	d100      	bne.n	10002892 <_vsnprintf+0x1d6>
10002890:	e1ce      	b.n	10002c30 <_vsnprintf+0x574>
10002892:	2864      	cmp	r0, #100	; 0x64
10002894:	d100      	bne.n	10002898 <_vsnprintf+0x1dc>
10002896:	e1cb      	b.n	10002c30 <_vsnprintf+0x574>
10002898:	9a0b      	ldr	r2, [sp, #44]	; 0x2c
1000289a:	2380      	movs	r3, #128	; 0x80
1000289c:	0011      	movs	r1, r2
1000289e:	009b      	lsls	r3, r3, #2
100028a0:	4019      	ands	r1, r3
100028a2:	468a      	mov	sl, r1
100028a4:	421a      	tst	r2, r3
100028a6:	d000      	beq.n	100028aa <_vsnprintf+0x1ee>
100028a8:	e332      	b.n	10002f10 <_vsnprintf+0x854>
100028aa:	2380      	movs	r3, #128	; 0x80
100028ac:	0011      	movs	r1, r2
100028ae:	005b      	lsls	r3, r3, #1
100028b0:	4019      	ands	r1, r3
100028b2:	4689      	mov	r9, r1
100028b4:	421a      	tst	r2, r3
100028b6:	d001      	beq.n	100028bc <_vsnprintf+0x200>
100028b8:	f000 fc02 	bl	100030c0 <_vsnprintf+0xa04>
100028bc:	0013      	movs	r3, r2
100028be:	065b      	lsls	r3, r3, #25
100028c0:	d500      	bpl.n	100028c4 <_vsnprintf+0x208>
100028c2:	e310      	b.n	10002ee6 <_vsnprintf+0x82a>
100028c4:	9b0b      	ldr	r3, [sp, #44]	; 0x2c
100028c6:	061b      	lsls	r3, r3, #24
100028c8:	d401      	bmi.n	100028ce <_vsnprintf+0x212>
100028ca:	f000 fc6e 	bl	100031aa <_vsnprintf+0xaee>
100028ce:	9b09      	ldr	r3, [sp, #36]	; 0x24
100028d0:	cb04      	ldmia	r3!, {r2}
100028d2:	0412      	lsls	r2, r2, #16
100028d4:	0c12      	lsrs	r2, r2, #16
100028d6:	4692      	mov	sl, r2
100028d8:	9309      	str	r3, [sp, #36]	; 0x24
100028da:	4653      	mov	r3, sl
100028dc:	2b00      	cmp	r3, #0
100028de:	d000      	beq.n	100028e2 <_vsnprintf+0x226>
100028e0:	e364      	b.n	10002fac <_vsnprintf+0x8f0>
100028e2:	9a0b      	ldr	r2, [sp, #44]	; 0x2c
100028e4:	3310      	adds	r3, #16
100028e6:	0011      	movs	r1, r2
100028e8:	4399      	bics	r1, r3
100028ea:	910b      	str	r1, [sp, #44]	; 0x2c
100028ec:	0552      	lsls	r2, r2, #21
100028ee:	d400      	bmi.n	100028f2 <_vsnprintf+0x236>
100028f0:	e35c      	b.n	10002fac <_vsnprintf+0x8f0>
100028f2:	2300      	movs	r3, #0
100028f4:	4699      	mov	r9, r3
100028f6:	9b0b      	ldr	r3, [sp, #44]	; 0x2c
100028f8:	9306      	str	r3, [sp, #24]
100028fa:	9b0a      	ldr	r3, [sp, #40]	; 0x28
100028fc:	9305      	str	r3, [sp, #20]
100028fe:	4643      	mov	r3, r8
10002900:	9304      	str	r3, [sp, #16]
10002902:	9b0c      	ldr	r3, [sp, #48]	; 0x30
10002904:	9303      	str	r3, [sp, #12]
10002906:	2300      	movs	r3, #0
10002908:	e2de      	b.n	10002ec8 <_vsnprintf+0x80c>
1000290a:	7870      	ldrb	r0, [r6, #1]
1000290c:	2868      	cmp	r0, #104	; 0x68
1000290e:	d100      	bne.n	10002912 <_vsnprintf+0x256>
10002910:	e207      	b.n	10002d22 <_vsnprintf+0x666>
10002912:	2380      	movs	r3, #128	; 0x80
10002914:	3601      	adds	r6, #1
10002916:	4319      	orrs	r1, r3
10002918:	e741      	b.n	1000279e <_vsnprintf+0xe2>
1000291a:	2380      	movs	r3, #128	; 0x80
1000291c:	009b      	lsls	r3, r3, #2
1000291e:	7870      	ldrb	r0, [r6, #1]
10002920:	4319      	orrs	r1, r3
10002922:	3601      	adds	r6, #1
10002924:	e73b      	b.n	1000279e <_vsnprintf+0xe2>
10002926:	2846      	cmp	r0, #70	; 0x46
10002928:	d100      	bne.n	1000292c <_vsnprintf+0x270>
1000292a:	e174      	b.n	10002c16 <_vsnprintf+0x55a>
1000292c:	2207      	movs	r2, #7
1000292e:	9b09      	ldr	r3, [sp, #36]	; 0x24
10002930:	9104      	str	r1, [sp, #16]
10002932:	3307      	adds	r3, #7
10002934:	4393      	bics	r3, r2
10002936:	9a0a      	ldr	r2, [sp, #40]	; 0x28
10002938:	0019      	movs	r1, r3
1000293a:	9203      	str	r2, [sp, #12]
1000293c:	4642      	mov	r2, r8
1000293e:	9202      	str	r2, [sp, #8]
10002940:	c90c      	ldmia	r1!, {r2, r3}
10002942:	9808      	ldr	r0, [sp, #32]
10002944:	9200      	str	r2, [sp, #0]
10002946:	9301      	str	r3, [sp, #4]
10002948:	9109      	str	r1, [sp, #36]	; 0x24
1000294a:	002a      	movs	r2, r5
1000294c:	465b      	mov	r3, fp
1000294e:	0021      	movs	r1, r4
10002950:	f7ff fcc4 	bl	100022dc <_ftoa>
10002954:	3601      	adds	r6, #1
10002956:	0005      	movs	r5, r0
10002958:	e6d5      	b.n	10002706 <_vsnprintf+0x4a>
1000295a:	9b09      	ldr	r3, [sp, #36]	; 0x24
1000295c:	001a      	movs	r2, r3
1000295e:	ca08      	ldmia	r2!, {r3}
10002960:	4691      	mov	r9, r2
10002962:	2b00      	cmp	r3, #0
10002964:	d100      	bne.n	10002968 <_vsnprintf+0x2ac>
10002966:	e105      	b.n	10002b74 <_vsnprintf+0x4b8>
10002968:	2221      	movs	r2, #33	; 0x21
1000296a:	4311      	orrs	r1, r2
1000296c:	468a      	mov	sl, r1
1000296e:	a80e      	add	r0, sp, #56	; 0x38
10002970:	4684      	mov	ip, r0
10002972:	211f      	movs	r1, #31
10002974:	4461      	add	r1, ip
10002976:	9509      	str	r5, [sp, #36]	; 0x24
10002978:	2200      	movs	r2, #0
1000297a:	270f      	movs	r7, #15
1000297c:	46a4      	mov	ip, r4
1000297e:	000d      	movs	r5, r1
10002980:	e002      	b.n	10002988 <_vsnprintf+0x2cc>
10002982:	2a20      	cmp	r2, #32
10002984:	d00c      	beq.n	100029a0 <_vsnprintf+0x2e4>
10002986:	000b      	movs	r3, r1
10002988:	003c      	movs	r4, r7
1000298a:	401c      	ands	r4, r3
1000298c:	0020      	movs	r0, r4
1000298e:	3037      	adds	r0, #55	; 0x37
10002990:	2c09      	cmp	r4, #9
10002992:	d800      	bhi.n	10002996 <_vsnprintf+0x2da>
10002994:	3807      	subs	r0, #7
10002996:	3201      	adds	r2, #1
10002998:	54a8      	strb	r0, [r5, r2]
1000299a:	0919      	lsrs	r1, r3, #4
1000299c:	2b0f      	cmp	r3, #15
1000299e:	d8f0      	bhi.n	10002982 <_vsnprintf+0x2c6>
100029a0:	4664      	mov	r4, ip
100029a2:	9d09      	ldr	r5, [sp, #36]	; 0x24
100029a4:	e0f0      	b.n	10002b88 <_vsnprintf+0x4cc>
100029a6:	078b      	lsls	r3, r1, #30
100029a8:	d400      	bmi.n	100029ac <_vsnprintf+0x2f0>
100029aa:	e1d1      	b.n	10002d50 <_vsnprintf+0x694>
100029ac:	9b09      	ldr	r3, [sp, #36]	; 0x24
100029ae:	002a      	movs	r2, r5
100029b0:	4699      	mov	r9, r3
100029b2:	1c6b      	adds	r3, r5, #1
100029b4:	4698      	mov	r8, r3
100029b6:	464b      	mov	r3, r9
100029b8:	cb01      	ldmia	r3!, {r0}
100029ba:	0021      	movs	r1, r4
100029bc:	4699      	mov	r9, r3
100029be:	9f08      	ldr	r7, [sp, #32]
100029c0:	465b      	mov	r3, fp
100029c2:	b2c0      	uxtb	r0, r0
100029c4:	47b8      	blx	r7
100029c6:	9b0a      	ldr	r3, [sp, #40]	; 0x28
100029c8:	469c      	mov	ip, r3
100029ca:	4465      	add	r5, ip
100029cc:	2b01      	cmp	r3, #1
100029ce:	d800      	bhi.n	100029d2 <_vsnprintf+0x316>
100029d0:	e290      	b.n	10002ef4 <_vsnprintf+0x838>
100029d2:	46b2      	mov	sl, r6
100029d4:	465e      	mov	r6, fp
100029d6:	4647      	mov	r7, r8
100029d8:	46a8      	mov	r8, r5
100029da:	9d08      	ldr	r5, [sp, #32]
100029dc:	003a      	movs	r2, r7
100029de:	0033      	movs	r3, r6
100029e0:	3701      	adds	r7, #1
100029e2:	0021      	movs	r1, r4
100029e4:	2020      	movs	r0, #32
100029e6:	47a8      	blx	r5
100029e8:	4547      	cmp	r7, r8
100029ea:	d1f7      	bne.n	100029dc <_vsnprintf+0x320>
100029ec:	46b3      	mov	fp, r6
100029ee:	464b      	mov	r3, r9
100029f0:	4656      	mov	r6, sl
100029f2:	003d      	movs	r5, r7
100029f4:	9309      	str	r3, [sp, #36]	; 0x24
100029f6:	3601      	adds	r6, #1
100029f8:	e685      	b.n	10002706 <_vsnprintf+0x4a>
100029fa:	002a      	movs	r2, r5
100029fc:	1c6f      	adds	r7, r5, #1
100029fe:	465b      	mov	r3, fp
10002a00:	9d08      	ldr	r5, [sp, #32]
10002a02:	0021      	movs	r1, r4
10002a04:	2025      	movs	r0, #37	; 0x25
10002a06:	47a8      	blx	r5
10002a08:	3601      	adds	r6, #1
10002a0a:	003d      	movs	r5, r7
10002a0c:	e67b      	b.n	10002706 <_vsnprintf+0x4a>
10002a0e:	46c0      	nop			; (mov r8, r8)
10002a10:	100026bd 	.word	0x100026bd
10002a14:	20000bb4 	.word	0x20000bb4
10002a18:	10005038 	.word	0x10005038
10002a1c:	1000507c 	.word	0x1000507c
10002a20:	100050c8 	.word	0x100050c8
10002a24:	9b09      	ldr	r3, [sp, #36]	; 0x24
10002a26:	cb04      	ldmia	r3!, {r2}
10002a28:	4699      	mov	r9, r3
10002a2a:	4643      	mov	r3, r8
10002a2c:	9209      	str	r2, [sp, #36]	; 0x24
10002a2e:	2b00      	cmp	r3, #0
10002a30:	d000      	beq.n	10002a34 <_vsnprintf+0x378>
10002a32:	e097      	b.n	10002b64 <_vsnprintf+0x4a8>
10002a34:	7813      	ldrb	r3, [r2, #0]
10002a36:	469c      	mov	ip, r3
10002a38:	2b00      	cmp	r3, #0
10002a3a:	d100      	bne.n	10002a3e <_vsnprintf+0x382>
10002a3c:	e3b3      	b.n	100031a6 <_vsnprintf+0xaea>
10002a3e:	2302      	movs	r3, #2
10002a40:	425b      	negs	r3, r3
10002a42:	1c5a      	adds	r2, r3, #1
10002a44:	9b09      	ldr	r3, [sp, #36]	; 0x24
10002a46:	4692      	mov	sl, r2
10002a48:	0018      	movs	r0, r3
10002a4a:	9f0a      	ldr	r7, [sp, #40]	; 0x28
10002a4c:	920b      	str	r2, [sp, #44]	; 0x2c
10002a4e:	4450      	add	r0, sl
10002a50:	e002      	b.n	10002a58 <_vsnprintf+0x39c>
10002a52:	4283      	cmp	r3, r0
10002a54:	d100      	bne.n	10002a58 <_vsnprintf+0x39c>
10002a56:	e169      	b.n	10002d2c <_vsnprintf+0x670>
10002a58:	785a      	ldrb	r2, [r3, #1]
10002a5a:	3301      	adds	r3, #1
10002a5c:	2a00      	cmp	r2, #0
10002a5e:	d1f8      	bne.n	10002a52 <_vsnprintf+0x396>
10002a60:	9a09      	ldr	r2, [sp, #36]	; 0x24
10002a62:	970a      	str	r7, [sp, #40]	; 0x28
10002a64:	1a9b      	subs	r3, r3, r2
10002a66:	930b      	str	r3, [sp, #44]	; 0x2c
10002a68:	2380      	movs	r3, #128	; 0x80
10002a6a:	000a      	movs	r2, r1
10002a6c:	00db      	lsls	r3, r3, #3
10002a6e:	401a      	ands	r2, r3
10002a70:	920c      	str	r2, [sp, #48]	; 0x30
10002a72:	4219      	tst	r1, r3
10002a74:	d004      	beq.n	10002a80 <_vsnprintf+0x3c4>
10002a76:	9b0b      	ldr	r3, [sp, #44]	; 0x2c
10002a78:	4543      	cmp	r3, r8
10002a7a:	d901      	bls.n	10002a80 <_vsnprintf+0x3c4>
10002a7c:	4643      	mov	r3, r8
10002a7e:	930b      	str	r3, [sp, #44]	; 0x2c
10002a80:	2302      	movs	r3, #2
10002a82:	001a      	movs	r2, r3
10002a84:	400a      	ands	r2, r1
10002a86:	920d      	str	r2, [sp, #52]	; 0x34
10002a88:	420b      	tst	r3, r1
10002a8a:	d100      	bne.n	10002a8e <_vsnprintf+0x3d2>
10002a8c:	e184      	b.n	10002d98 <_vsnprintf+0x6dc>
10002a8e:	4660      	mov	r0, ip
10002a90:	2800      	cmp	r0, #0
10002a92:	d023      	beq.n	10002adc <_vsnprintf+0x420>
10002a94:	9b0c      	ldr	r3, [sp, #48]	; 0x30
10002a96:	2b00      	cmp	r3, #0
10002a98:	d100      	bne.n	10002a9c <_vsnprintf+0x3e0>
10002a9a:	e124      	b.n	10002ce6 <_vsnprintf+0x62a>
10002a9c:	44a8      	add	r8, r5
10002a9e:	46c2      	mov	sl, r8
10002aa0:	9b09      	ldr	r3, [sp, #36]	; 0x24
10002aa2:	4657      	mov	r7, sl
10002aa4:	1b5b      	subs	r3, r3, r5
10002aa6:	4698      	mov	r8, r3
10002aa8:	9b08      	ldr	r3, [sp, #32]
10002aaa:	46b2      	mov	sl, r6
10002aac:	002a      	movs	r2, r5
10002aae:	0026      	movs	r6, r4
10002ab0:	465c      	mov	r4, fp
10002ab2:	469b      	mov	fp, r3
10002ab4:	e009      	b.n	10002aca <_vsnprintf+0x40e>
10002ab6:	0023      	movs	r3, r4
10002ab8:	0031      	movs	r1, r6
10002aba:	1c55      	adds	r5, r2, #1
10002abc:	47d8      	blx	fp
10002abe:	4643      	mov	r3, r8
10002ac0:	5d58      	ldrb	r0, [r3, r5]
10002ac2:	2800      	cmp	r0, #0
10002ac4:	d100      	bne.n	10002ac8 <_vsnprintf+0x40c>
10002ac6:	e13f      	b.n	10002d48 <_vsnprintf+0x68c>
10002ac8:	002a      	movs	r2, r5
10002aca:	4297      	cmp	r7, r2
10002acc:	d1f3      	bne.n	10002ab6 <_vsnprintf+0x3fa>
10002ace:	46a3      	mov	fp, r4
10002ad0:	003d      	movs	r5, r7
10002ad2:	0034      	movs	r4, r6
10002ad4:	4656      	mov	r6, sl
10002ad6:	9b0d      	ldr	r3, [sp, #52]	; 0x34
10002ad8:	2b00      	cmp	r3, #0
10002ada:	d069      	beq.n	10002bb0 <_vsnprintf+0x4f4>
10002adc:	9b0b      	ldr	r3, [sp, #44]	; 0x2c
10002ade:	990a      	ldr	r1, [sp, #40]	; 0x28
10002ae0:	46a8      	mov	r8, r5
10002ae2:	4299      	cmp	r1, r3
10002ae4:	d964      	bls.n	10002bb0 <_vsnprintf+0x4f4>
10002ae6:	468c      	mov	ip, r1
10002ae8:	4465      	add	r5, ip
10002aea:	1aed      	subs	r5, r5, r3
10002aec:	9b08      	ldr	r3, [sp, #32]
10002aee:	4647      	mov	r7, r8
10002af0:	469a      	mov	sl, r3
10002af2:	46b0      	mov	r8, r6
10002af4:	0026      	movs	r6, r4
10002af6:	465c      	mov	r4, fp
10002af8:	003a      	movs	r2, r7
10002afa:	0023      	movs	r3, r4
10002afc:	3701      	adds	r7, #1
10002afe:	0031      	movs	r1, r6
10002b00:	2020      	movs	r0, #32
10002b02:	47d0      	blx	sl
10002b04:	42af      	cmp	r7, r5
10002b06:	d1f7      	bne.n	10002af8 <_vsnprintf+0x43c>
10002b08:	46a3      	mov	fp, r4
10002b0a:	0034      	movs	r4, r6
10002b0c:	4646      	mov	r6, r8
10002b0e:	e04f      	b.n	10002bb0 <_vsnprintf+0x4f4>
10002b10:	4bd2      	ldr	r3, [pc, #840]	; (10002e5c <_vsnprintf+0x7a0>)
10002b12:	7820      	ldrb	r0, [r4, #0]
10002b14:	9308      	str	r3, [sp, #32]
10002b16:	2300      	movs	r3, #0
10002b18:	469a      	mov	sl, r3
10002b1a:	2800      	cmp	r0, #0
10002b1c:	d000      	beq.n	10002b20 <_vsnprintf+0x464>
10002b1e:	e5e6      	b.n	100026ee <_vsnprintf+0x32>
10002b20:	2400      	movs	r4, #0
10002b22:	e671      	b.n	10002808 <_vsnprintf+0x14c>
10002b24:	4643      	mov	r3, r8
10002b26:	0006      	movs	r6, r0
10002b28:	9f0a      	ldr	r7, [sp, #40]	; 0x28
10002b2a:	0098      	lsls	r0, r3, #2
10002b2c:	18c0      	adds	r0, r0, r3
10002b2e:	3201      	adds	r2, #1
10002b30:	0040      	lsls	r0, r0, #1
10002b32:	1980      	adds	r0, r0, r6
10002b34:	7816      	ldrb	r6, [r2, #0]
10002b36:	0003      	movs	r3, r0
10002b38:	0030      	movs	r0, r6
10002b3a:	3830      	subs	r0, #48	; 0x30
10002b3c:	3b30      	subs	r3, #48	; 0x30
10002b3e:	2809      	cmp	r0, #9
10002b40:	d9f3      	bls.n	10002b2a <_vsnprintf+0x46e>
10002b42:	0030      	movs	r0, r6
10002b44:	4698      	mov	r8, r3
10002b46:	0016      	movs	r6, r2
10002b48:	970a      	str	r7, [sp, #40]	; 0x28
10002b4a:	e603      	b.n	10002754 <_vsnprintf+0x98>
10002b4c:	9b09      	ldr	r3, [sp, #36]	; 0x24
10002b4e:	3602      	adds	r6, #2
10002b50:	cb04      	ldmia	r3!, {r2}
10002b52:	4690      	mov	r8, r2
10002b54:	43d2      	mvns	r2, r2
10002b56:	4640      	mov	r0, r8
10002b58:	17d2      	asrs	r2, r2, #31
10002b5a:	4010      	ands	r0, r2
10002b5c:	4680      	mov	r8, r0
10002b5e:	9309      	str	r3, [sp, #36]	; 0x24
10002b60:	7830      	ldrb	r0, [r6, #0]
10002b62:	e5f7      	b.n	10002754 <_vsnprintf+0x98>
10002b64:	7813      	ldrb	r3, [r2, #0]
10002b66:	469c      	mov	ip, r3
10002b68:	2b00      	cmp	r3, #0
10002b6a:	d100      	bne.n	10002b6e <_vsnprintf+0x4b2>
10002b6c:	e31a      	b.n	100031a4 <_vsnprintf+0xae8>
10002b6e:	4643      	mov	r3, r8
10002b70:	3b01      	subs	r3, #1
10002b72:	e766      	b.n	10002a42 <_vsnprintf+0x386>
10002b74:	2210      	movs	r2, #16
10002b76:	0008      	movs	r0, r1
10002b78:	4390      	bics	r0, r2
10002b7a:	3211      	adds	r2, #17
10002b7c:	4310      	orrs	r0, r2
10002b7e:	4682      	mov	sl, r0
10002b80:	2200      	movs	r2, #0
10002b82:	0549      	lsls	r1, r1, #21
10002b84:	d400      	bmi.n	10002b88 <_vsnprintf+0x4cc>
10002b86:	e6f2      	b.n	1000296e <_vsnprintf+0x2b2>
10002b88:	4653      	mov	r3, sl
10002b8a:	9306      	str	r3, [sp, #24]
10002b8c:	2308      	movs	r3, #8
10002b8e:	9305      	str	r3, [sp, #20]
10002b90:	4643      	mov	r3, r8
10002b92:	9304      	str	r3, [sp, #16]
10002b94:	2310      	movs	r3, #16
10002b96:	9303      	str	r3, [sp, #12]
10002b98:	2300      	movs	r3, #0
10002b9a:	9302      	str	r3, [sp, #8]
10002b9c:	ab16      	add	r3, sp, #88	; 0x58
10002b9e:	9201      	str	r2, [sp, #4]
10002ba0:	9300      	str	r3, [sp, #0]
10002ba2:	002a      	movs	r2, r5
10002ba4:	465b      	mov	r3, fp
10002ba6:	0021      	movs	r1, r4
10002ba8:	9808      	ldr	r0, [sp, #32]
10002baa:	f7ff f879 	bl	10001ca0 <_ntoa_format>
10002bae:	0005      	movs	r5, r0
10002bb0:	464b      	mov	r3, r9
10002bb2:	3601      	adds	r6, #1
10002bb4:	9309      	str	r3, [sp, #36]	; 0x24
10002bb6:	e5a6      	b.n	10002706 <_vsnprintf+0x4a>
10002bb8:	2320      	movs	r3, #32
10002bba:	0002      	movs	r2, r0
10002bbc:	439a      	bics	r2, r3
10002bbe:	2a47      	cmp	r2, #71	; 0x47
10002bc0:	d104      	bne.n	10002bcc <_vsnprintf+0x510>
10002bc2:	2380      	movs	r3, #128	; 0x80
10002bc4:	011b      	lsls	r3, r3, #4
10002bc6:	4319      	orrs	r1, r3
10002bc8:	2302      	movs	r3, #2
10002bca:	4398      	bics	r0, r3
10002bcc:	2845      	cmp	r0, #69	; 0x45
10002bce:	d101      	bne.n	10002bd4 <_vsnprintf+0x518>
10002bd0:	2320      	movs	r3, #32
10002bd2:	4319      	orrs	r1, r3
10002bd4:	2207      	movs	r2, #7
10002bd6:	9b09      	ldr	r3, [sp, #36]	; 0x24
10002bd8:	9104      	str	r1, [sp, #16]
10002bda:	3307      	adds	r3, #7
10002bdc:	4393      	bics	r3, r2
10002bde:	9a0a      	ldr	r2, [sp, #40]	; 0x28
10002be0:	0019      	movs	r1, r3
10002be2:	9203      	str	r2, [sp, #12]
10002be4:	4642      	mov	r2, r8
10002be6:	9202      	str	r2, [sp, #8]
10002be8:	c90c      	ldmia	r1!, {r2, r3}
10002bea:	9808      	ldr	r0, [sp, #32]
10002bec:	9200      	str	r2, [sp, #0]
10002bee:	9301      	str	r3, [sp, #4]
10002bf0:	9109      	str	r1, [sp, #36]	; 0x24
10002bf2:	002a      	movs	r2, r5
10002bf4:	465b      	mov	r3, fp
10002bf6:	0021      	movs	r1, r4
10002bf8:	f7ff f94a 	bl	10001e90 <_etoa>
10002bfc:	3601      	adds	r6, #1
10002bfe:	0005      	movs	r5, r0
10002c00:	e581      	b.n	10002706 <_vsnprintf+0x4a>
10002c02:	2310      	movs	r3, #16
10002c04:	930c      	str	r3, [sp, #48]	; 0x30
10002c06:	230c      	movs	r3, #12
10002c08:	000a      	movs	r2, r1
10002c0a:	439a      	bics	r2, r3
10002c0c:	920b      	str	r2, [sp, #44]	; 0x2c
10002c0e:	054b      	lsls	r3, r1, #21
10002c10:	d400      	bmi.n	10002c14 <_vsnprintf+0x558>
10002c12:	e63b      	b.n	1000288c <_vsnprintf+0x1d0>
10002c14:	e636      	b.n	10002884 <_vsnprintf+0x1c8>
10002c16:	2320      	movs	r3, #32
10002c18:	4319      	orrs	r1, r3
10002c1a:	e687      	b.n	1000292c <_vsnprintf+0x270>
10002c1c:	2302      	movs	r3, #2
10002c1e:	930c      	str	r3, [sp, #48]	; 0x30
10002c20:	910b      	str	r1, [sp, #44]	; 0x2c
10002c22:	990b      	ldr	r1, [sp, #44]	; 0x2c
10002c24:	2864      	cmp	r0, #100	; 0x64
10002c26:	d1ee      	bne.n	10002c06 <_vsnprintf+0x54a>
10002c28:	9b0b      	ldr	r3, [sp, #44]	; 0x2c
10002c2a:	055b      	lsls	r3, r3, #21
10002c2c:	d500      	bpl.n	10002c30 <_vsnprintf+0x574>
10002c2e:	e629      	b.n	10002884 <_vsnprintf+0x1c8>
10002c30:	9a0b      	ldr	r2, [sp, #44]	; 0x2c
10002c32:	2380      	movs	r3, #128	; 0x80
10002c34:	0011      	movs	r1, r2
10002c36:	009b      	lsls	r3, r3, #2
10002c38:	4019      	ands	r1, r3
10002c3a:	468a      	mov	sl, r1
10002c3c:	421a      	tst	r2, r3
10002c3e:	d000      	beq.n	10002c42 <_vsnprintf+0x586>
10002c40:	e0ce      	b.n	10002de0 <_vsnprintf+0x724>
10002c42:	2380      	movs	r3, #128	; 0x80
10002c44:	0011      	movs	r1, r2
10002c46:	005b      	lsls	r3, r3, #1
10002c48:	4019      	ands	r1, r3
10002c4a:	4689      	mov	r9, r1
10002c4c:	421a      	tst	r2, r3
10002c4e:	d000      	beq.n	10002c52 <_vsnprintf+0x596>
10002c50:	e1db      	b.n	1000300a <_vsnprintf+0x94e>
10002c52:	0013      	movs	r3, r2
10002c54:	065b      	lsls	r3, r3, #25
10002c56:	d500      	bpl.n	10002c5a <_vsnprintf+0x59e>
10002c58:	e11d      	b.n	10002e96 <_vsnprintf+0x7da>
10002c5a:	9b0b      	ldr	r3, [sp, #44]	; 0x2c
10002c5c:	9909      	ldr	r1, [sp, #36]	; 0x24
10002c5e:	061b      	lsls	r3, r3, #24
10002c60:	d400      	bmi.n	10002c64 <_vsnprintf+0x5a8>
10002c62:	e299      	b.n	10003198 <_vsnprintf+0xadc>
10002c64:	c908      	ldmia	r1!, {r3}
10002c66:	b21b      	sxth	r3, r3
10002c68:	17d8      	asrs	r0, r3, #31
10002c6a:	181a      	adds	r2, r3, r0
10002c6c:	4042      	eors	r2, r0
10002c6e:	b292      	uxth	r2, r2
10002c70:	9109      	str	r1, [sp, #36]	; 0x24
10002c72:	4692      	mov	sl, r2
10002c74:	0fda      	lsrs	r2, r3, #31
10002c76:	9212      	str	r2, [sp, #72]	; 0x48
10002c78:	2b00      	cmp	r3, #0
10002c7a:	d109      	bne.n	10002c90 <_vsnprintf+0x5d4>
10002c7c:	2380      	movs	r3, #128	; 0x80
10002c7e:	2210      	movs	r2, #16
10002c80:	990b      	ldr	r1, [sp, #44]	; 0x2c
10002c82:	00db      	lsls	r3, r3, #3
10002c84:	400b      	ands	r3, r1
10002c86:	4391      	bics	r1, r2
10002c88:	910b      	str	r1, [sp, #44]	; 0x2c
10002c8a:	2b00      	cmp	r3, #0
10002c8c:	d000      	beq.n	10002c90 <_vsnprintf+0x5d4>
10002c8e:	e112      	b.n	10002eb6 <_vsnprintf+0x7fa>
10002c90:	9a0b      	ldr	r2, [sp, #44]	; 0x2c
10002c92:	2361      	movs	r3, #97	; 0x61
10002c94:	0692      	lsls	r2, r2, #26
10002c96:	d500      	bpl.n	10002c9a <_vsnprintf+0x5de>
10002c98:	2341      	movs	r3, #65	; 0x41
10002c9a:	a90e      	add	r1, sp, #56	; 0x38
10002c9c:	221f      	movs	r2, #31
10002c9e:	468c      	mov	ip, r1
10002ca0:	b2db      	uxtb	r3, r3
10002ca2:	4462      	add	r2, ip
10002ca4:	3b0a      	subs	r3, #10
10002ca6:	4657      	mov	r7, sl
10002ca8:	9513      	str	r5, [sp, #76]	; 0x4c
10002caa:	46a2      	mov	sl, r4
10002cac:	464d      	mov	r5, r9
10002cae:	9c0c      	ldr	r4, [sp, #48]	; 0x30
10002cb0:	46b1      	mov	r9, r6
10002cb2:	930d      	str	r3, [sp, #52]	; 0x34
10002cb4:	0016      	movs	r6, r2
10002cb6:	e00a      	b.n	10002cce <_vsnprintf+0x612>
10002cb8:	3330      	adds	r3, #48	; 0x30
10002cba:	b2db      	uxtb	r3, r3
10002cbc:	3501      	adds	r5, #1
10002cbe:	5573      	strb	r3, [r6, r5]
10002cc0:	42a7      	cmp	r7, r4
10002cc2:	d200      	bcs.n	10002cc6 <_vsnprintf+0x60a>
10002cc4:	e11c      	b.n	10002f00 <_vsnprintf+0x844>
10002cc6:	2d20      	cmp	r5, #32
10002cc8:	d100      	bne.n	10002ccc <_vsnprintf+0x610>
10002cca:	e119      	b.n	10002f00 <_vsnprintf+0x844>
10002ccc:	0007      	movs	r7, r0
10002cce:	0021      	movs	r1, r4
10002cd0:	0038      	movs	r0, r7
10002cd2:	f000 fb01 	bl	100032d8 <__wrap___aeabi_uidiv>
10002cd6:	b2cb      	uxtb	r3, r1
10002cd8:	2909      	cmp	r1, #9
10002cda:	d9ed      	bls.n	10002cb8 <_vsnprintf+0x5fc>
10002cdc:	9a0d      	ldr	r2, [sp, #52]	; 0x34
10002cde:	4694      	mov	ip, r2
10002ce0:	4463      	add	r3, ip
10002ce2:	b2db      	uxtb	r3, r3
10002ce4:	e7ea      	b.n	10002cbc <_vsnprintf+0x600>
10002ce6:	9b09      	ldr	r3, [sp, #36]	; 0x24
10002ce8:	465f      	mov	r7, fp
10002cea:	1b5b      	subs	r3, r3, r5
10002cec:	4698      	mov	r8, r3
10002cee:	9b0a      	ldr	r3, [sp, #40]	; 0x28
10002cf0:	46b3      	mov	fp, r6
10002cf2:	469a      	mov	sl, r3
10002cf4:	0026      	movs	r6, r4
10002cf6:	9c08      	ldr	r4, [sp, #32]
10002cf8:	002a      	movs	r2, r5
10002cfa:	003b      	movs	r3, r7
10002cfc:	0031      	movs	r1, r6
10002cfe:	47a0      	blx	r4
10002d00:	4643      	mov	r3, r8
10002d02:	3501      	adds	r5, #1
10002d04:	5d58      	ldrb	r0, [r3, r5]
10002d06:	2800      	cmp	r0, #0
10002d08:	d1f6      	bne.n	10002cf8 <_vsnprintf+0x63c>
10002d0a:	4653      	mov	r3, sl
10002d0c:	0034      	movs	r4, r6
10002d0e:	930a      	str	r3, [sp, #40]	; 0x28
10002d10:	465e      	mov	r6, fp
10002d12:	46bb      	mov	fp, r7
10002d14:	e6df      	b.n	10002ad6 <_vsnprintf+0x41a>
10002d16:	23c0      	movs	r3, #192	; 0xc0
10002d18:	009b      	lsls	r3, r3, #2
10002d1a:	78b0      	ldrb	r0, [r6, #2]
10002d1c:	4319      	orrs	r1, r3
10002d1e:	3602      	adds	r6, #2
10002d20:	e53d      	b.n	1000279e <_vsnprintf+0xe2>
10002d22:	23c0      	movs	r3, #192	; 0xc0
10002d24:	78b0      	ldrb	r0, [r6, #2]
10002d26:	4319      	orrs	r1, r3
10002d28:	3602      	adds	r6, #2
10002d2a:	e538      	b.n	1000279e <_vsnprintf+0xe2>
10002d2c:	970a      	str	r7, [sp, #40]	; 0x28
10002d2e:	e69b      	b.n	10002a68 <_vsnprintf+0x3ac>
10002d30:	230c      	movs	r3, #12
10002d32:	000a      	movs	r2, r1
10002d34:	439a      	bics	r2, r3
10002d36:	3314      	adds	r3, #20
10002d38:	431a      	orrs	r2, r3
10002d3a:	2310      	movs	r3, #16
10002d3c:	920b      	str	r2, [sp, #44]	; 0x2c
10002d3e:	930c      	str	r3, [sp, #48]	; 0x30
10002d40:	054b      	lsls	r3, r1, #21
10002d42:	d400      	bmi.n	10002d46 <_vsnprintf+0x68a>
10002d44:	e5a8      	b.n	10002898 <_vsnprintf+0x1dc>
10002d46:	e59d      	b.n	10002884 <_vsnprintf+0x1c8>
10002d48:	46a3      	mov	fp, r4
10002d4a:	0034      	movs	r4, r6
10002d4c:	4656      	mov	r6, sl
10002d4e:	e6c2      	b.n	10002ad6 <_vsnprintf+0x41a>
10002d50:	9a0a      	ldr	r2, [sp, #40]	; 0x28
10002d52:	2a01      	cmp	r2, #1
10002d54:	d800      	bhi.n	10002d58 <_vsnprintf+0x69c>
10002d56:	e22e      	b.n	100031b6 <_vsnprintf+0xafa>
10002d58:	1e6b      	subs	r3, r5, #1
10002d5a:	189f      	adds	r7, r3, r2
10002d5c:	9b08      	ldr	r3, [sp, #32]
10002d5e:	46b0      	mov	r8, r6
10002d60:	4699      	mov	r9, r3
10002d62:	0026      	movs	r6, r4
10002d64:	465c      	mov	r4, fp
10002d66:	002a      	movs	r2, r5
10002d68:	0023      	movs	r3, r4
10002d6a:	3501      	adds	r5, #1
10002d6c:	0031      	movs	r1, r6
10002d6e:	2020      	movs	r0, #32
10002d70:	47c8      	blx	r9
10002d72:	42bd      	cmp	r5, r7
10002d74:	d1f7      	bne.n	10002d66 <_vsnprintf+0x6aa>
10002d76:	46a3      	mov	fp, r4
10002d78:	0034      	movs	r4, r6
10002d7a:	4646      	mov	r6, r8
10002d7c:	9b09      	ldr	r3, [sp, #36]	; 0x24
10002d7e:	003a      	movs	r2, r7
10002d80:	cb01      	ldmia	r3!, {r0}
10002d82:	0021      	movs	r1, r4
10002d84:	4698      	mov	r8, r3
10002d86:	1c7d      	adds	r5, r7, #1
10002d88:	465b      	mov	r3, fp
10002d8a:	9f08      	ldr	r7, [sp, #32]
10002d8c:	b2c0      	uxtb	r0, r0
10002d8e:	47b8      	blx	r7
10002d90:	4643      	mov	r3, r8
10002d92:	3601      	adds	r6, #1
10002d94:	9309      	str	r3, [sp, #36]	; 0x24
10002d96:	e4b6      	b.n	10002706 <_vsnprintf+0x4a>
10002d98:	9a0b      	ldr	r2, [sp, #44]	; 0x2c
10002d9a:	980a      	ldr	r0, [sp, #40]	; 0x28
10002d9c:	1c53      	adds	r3, r2, #1
10002d9e:	4290      	cmp	r0, r2
10002da0:	d800      	bhi.n	10002da4 <_vsnprintf+0x6e8>
10002da2:	e20a      	b.n	100031ba <_vsnprintf+0xafe>
10002da4:	1943      	adds	r3, r0, r5
10002da6:	1a9b      	subs	r3, r3, r2
10002da8:	001f      	movs	r7, r3
10002daa:	9b08      	ldr	r3, [sp, #32]
10002dac:	46b2      	mov	sl, r6
10002dae:	0026      	movs	r6, r4
10002db0:	465c      	mov	r4, fp
10002db2:	469b      	mov	fp, r3
10002db4:	002a      	movs	r2, r5
10002db6:	0023      	movs	r3, r4
10002db8:	3501      	adds	r5, #1
10002dba:	0031      	movs	r1, r6
10002dbc:	2020      	movs	r0, #32
10002dbe:	47d8      	blx	fp
10002dc0:	42bd      	cmp	r5, r7
10002dc2:	d1f7      	bne.n	10002db4 <_vsnprintf+0x6f8>
10002dc4:	9b0a      	ldr	r3, [sp, #40]	; 0x28
10002dc6:	46a3      	mov	fp, r4
10002dc8:	3301      	adds	r3, #1
10002dca:	930b      	str	r3, [sp, #44]	; 0x2c
10002dcc:	9b09      	ldr	r3, [sp, #36]	; 0x24
10002dce:	0034      	movs	r4, r6
10002dd0:	781b      	ldrb	r3, [r3, #0]
10002dd2:	4656      	mov	r6, sl
10002dd4:	469c      	mov	ip, r3
10002dd6:	4660      	mov	r0, ip
10002dd8:	2800      	cmp	r0, #0
10002dda:	d000      	beq.n	10002dde <_vsnprintf+0x722>
10002ddc:	e65a      	b.n	10002a94 <_vsnprintf+0x3d8>
10002dde:	e6e7      	b.n	10002bb0 <_vsnprintf+0x4f4>
10002de0:	2207      	movs	r2, #7
10002de2:	9b09      	ldr	r3, [sp, #36]	; 0x24
10002de4:	3307      	adds	r3, #7
10002de6:	4393      	bics	r3, r2
10002de8:	3201      	adds	r2, #1
10002dea:	4694      	mov	ip, r2
10002dec:	449c      	add	ip, r3
10002dee:	4662      	mov	r2, ip
10002df0:	685f      	ldr	r7, [r3, #4]
10002df2:	9209      	str	r2, [sp, #36]	; 0x24
10002df4:	681a      	ldr	r2, [r3, #0]
10002df6:	17fb      	asrs	r3, r7, #31
10002df8:	9310      	str	r3, [sp, #64]	; 0x40
10002dfa:	9311      	str	r3, [sp, #68]	; 0x44
10002dfc:	9810      	ldr	r0, [sp, #64]	; 0x40
10002dfe:	9911      	ldr	r1, [sp, #68]	; 0x44
10002e00:	0003      	movs	r3, r0
10002e02:	4053      	eors	r3, r2
10002e04:	930e      	str	r3, [sp, #56]	; 0x38
10002e06:	000b      	movs	r3, r1
10002e08:	407b      	eors	r3, r7
10002e0a:	930f      	str	r3, [sp, #60]	; 0x3c
10002e0c:	4694      	mov	ip, r2
10002e0e:	9a0e      	ldr	r2, [sp, #56]	; 0x38
10002e10:	9b0f      	ldr	r3, [sp, #60]	; 0x3c
10002e12:	1a12      	subs	r2, r2, r0
10002e14:	418b      	sbcs	r3, r1
10002e16:	920e      	str	r2, [sp, #56]	; 0x38
10002e18:	930f      	str	r3, [sp, #60]	; 0x3c
10002e1a:	0ffb      	lsrs	r3, r7, #31
10002e1c:	4662      	mov	r2, ip
10002e1e:	9312      	str	r3, [sp, #72]	; 0x48
10002e20:	2300      	movs	r3, #0
10002e22:	433a      	orrs	r2, r7
10002e24:	469a      	mov	sl, r3
10002e26:	d03d      	beq.n	10002ea4 <_vsnprintf+0x7e8>
10002e28:	9a0b      	ldr	r2, [sp, #44]	; 0x2c
10002e2a:	2361      	movs	r3, #97	; 0x61
10002e2c:	0692      	lsls	r2, r2, #26
10002e2e:	d500      	bpl.n	10002e32 <_vsnprintf+0x776>
10002e30:	2341      	movs	r3, #65	; 0x41
10002e32:	2200      	movs	r2, #0
10002e34:	b2db      	uxtb	r3, r3
10002e36:	a90e      	add	r1, sp, #56	; 0x38
10002e38:	3b0a      	subs	r3, #10
10002e3a:	468c      	mov	ip, r1
10002e3c:	4691      	mov	r9, r2
10002e3e:	930d      	str	r3, [sp, #52]	; 0x34
10002e40:	4643      	mov	r3, r8
10002e42:	321f      	adds	r2, #31
10002e44:	4462      	add	r2, ip
10002e46:	9513      	str	r5, [sp, #76]	; 0x4c
10002e48:	9615      	str	r6, [sp, #84]	; 0x54
10002e4a:	464d      	mov	r5, r9
10002e4c:	9e0e      	ldr	r6, [sp, #56]	; 0x38
10002e4e:	9f0f      	ldr	r7, [sp, #60]	; 0x3c
10002e50:	46a1      	mov	r9, r4
10002e52:	4690      	mov	r8, r2
10002e54:	9c0c      	ldr	r4, [sp, #48]	; 0x30
10002e56:	9314      	str	r3, [sp, #80]	; 0x50
10002e58:	e00f      	b.n	10002e7a <_vsnprintf+0x7be>
10002e5a:	46c0      	nop			; (mov r8, r8)
10002e5c:	10001bcd 	.word	0x10001bcd
10002e60:	3230      	adds	r2, #48	; 0x30
10002e62:	b2d2      	uxtb	r2, r2
10002e64:	4643      	mov	r3, r8
10002e66:	3501      	adds	r5, #1
10002e68:	555a      	strb	r2, [r3, r5]
10002e6a:	45ba      	cmp	sl, r7
10002e6c:	d100      	bne.n	10002e70 <_vsnprintf+0x7b4>
10002e6e:	e17c      	b.n	1000316a <_vsnprintf+0xaae>
10002e70:	2d20      	cmp	r5, #32
10002e72:	d100      	bne.n	10002e76 <_vsnprintf+0x7ba>
10002e74:	e17c      	b.n	10003170 <_vsnprintf+0xab4>
10002e76:	0006      	movs	r6, r0
10002e78:	000f      	movs	r7, r1
10002e7a:	0022      	movs	r2, r4
10002e7c:	2300      	movs	r3, #0
10002e7e:	0030      	movs	r0, r6
10002e80:	0039      	movs	r1, r7
10002e82:	f000 fa6f 	bl	10003364 <__wrap___aeabi_uldivmod>
10002e86:	b2d2      	uxtb	r2, r2
10002e88:	2a09      	cmp	r2, #9
10002e8a:	d9e9      	bls.n	10002e60 <_vsnprintf+0x7a4>
10002e8c:	9b0d      	ldr	r3, [sp, #52]	; 0x34
10002e8e:	469c      	mov	ip, r3
10002e90:	4462      	add	r2, ip
10002e92:	b2d2      	uxtb	r2, r2
10002e94:	e7e6      	b.n	10002e64 <_vsnprintf+0x7a8>
10002e96:	23ff      	movs	r3, #255	; 0xff
10002e98:	9909      	ldr	r1, [sp, #36]	; 0x24
10002e9a:	c904      	ldmia	r1!, {r2}
10002e9c:	4013      	ands	r3, r2
10002e9e:	001a      	movs	r2, r3
10002ea0:	9109      	str	r1, [sp, #36]	; 0x24
10002ea2:	e6e6      	b.n	10002c72 <_vsnprintf+0x5b6>
10002ea4:	9a0b      	ldr	r2, [sp, #44]	; 0x2c
10002ea6:	3310      	adds	r3, #16
10002ea8:	0011      	movs	r1, r2
10002eaa:	4399      	bics	r1, r3
10002eac:	910b      	str	r1, [sp, #44]	; 0x2c
10002eae:	0552      	lsls	r2, r2, #21
10002eb0:	d5ba      	bpl.n	10002e28 <_vsnprintf+0x76c>
10002eb2:	2300      	movs	r3, #0
10002eb4:	4699      	mov	r9, r3
10002eb6:	9b0b      	ldr	r3, [sp, #44]	; 0x2c
10002eb8:	9306      	str	r3, [sp, #24]
10002eba:	9b0a      	ldr	r3, [sp, #40]	; 0x28
10002ebc:	9305      	str	r3, [sp, #20]
10002ebe:	4643      	mov	r3, r8
10002ec0:	9304      	str	r3, [sp, #16]
10002ec2:	9b0c      	ldr	r3, [sp, #48]	; 0x30
10002ec4:	9303      	str	r3, [sp, #12]
10002ec6:	9b12      	ldr	r3, [sp, #72]	; 0x48
10002ec8:	9302      	str	r3, [sp, #8]
10002eca:	464b      	mov	r3, r9
10002ecc:	9301      	str	r3, [sp, #4]
10002ece:	ab16      	add	r3, sp, #88	; 0x58
10002ed0:	002a      	movs	r2, r5
10002ed2:	9300      	str	r3, [sp, #0]
10002ed4:	0021      	movs	r1, r4
10002ed6:	465b      	mov	r3, fp
10002ed8:	9808      	ldr	r0, [sp, #32]
10002eda:	f7fe fee1 	bl	10001ca0 <_ntoa_format>
10002ede:	3601      	adds	r6, #1
10002ee0:	0005      	movs	r5, r0
10002ee2:	f7ff fc10 	bl	10002706 <_vsnprintf+0x4a>
10002ee6:	22ff      	movs	r2, #255	; 0xff
10002ee8:	9b09      	ldr	r3, [sp, #36]	; 0x24
10002eea:	cb02      	ldmia	r3!, {r1}
10002eec:	4011      	ands	r1, r2
10002eee:	468a      	mov	sl, r1
10002ef0:	9309      	str	r3, [sp, #36]	; 0x24
10002ef2:	e4f2      	b.n	100028da <_vsnprintf+0x21e>
10002ef4:	464b      	mov	r3, r9
10002ef6:	4645      	mov	r5, r8
10002ef8:	9309      	str	r3, [sp, #36]	; 0x24
10002efa:	3601      	adds	r6, #1
10002efc:	f7ff fc03 	bl	10002706 <_vsnprintf+0x4a>
10002f00:	464e      	mov	r6, r9
10002f02:	4654      	mov	r4, sl
10002f04:	46a9      	mov	r9, r5
10002f06:	9d13      	ldr	r5, [sp, #76]	; 0x4c
10002f08:	e7d5      	b.n	10002eb6 <_vsnprintf+0x7fa>
10002f0a:	2308      	movs	r3, #8
10002f0c:	930c      	str	r3, [sp, #48]	; 0x30
10002f0e:	e687      	b.n	10002c20 <_vsnprintf+0x564>
10002f10:	2207      	movs	r2, #7
10002f12:	9b09      	ldr	r3, [sp, #36]	; 0x24
10002f14:	3307      	adds	r3, #7
10002f16:	4393      	bics	r3, r2
10002f18:	3201      	adds	r2, #1
10002f1a:	4694      	mov	ip, r2
10002f1c:	449c      	add	ip, r3
10002f1e:	4662      	mov	r2, ip
10002f20:	9209      	str	r2, [sp, #36]	; 0x24
10002f22:	681a      	ldr	r2, [r3, #0]
10002f24:	685b      	ldr	r3, [r3, #4]
10002f26:	0010      	movs	r0, r2
10002f28:	469a      	mov	sl, r3
10002f2a:	0013      	movs	r3, r2
10002f2c:	4652      	mov	r2, sl
10002f2e:	4313      	orrs	r3, r2
10002f30:	d107      	bne.n	10002f42 <_vsnprintf+0x886>
10002f32:	9a0b      	ldr	r2, [sp, #44]	; 0x2c
10002f34:	3310      	adds	r3, #16
10002f36:	0011      	movs	r1, r2
10002f38:	4399      	bics	r1, r3
10002f3a:	910b      	str	r1, [sp, #44]	; 0x2c
10002f3c:	0552      	lsls	r2, r2, #21
10002f3e:	d500      	bpl.n	10002f42 <_vsnprintf+0x886>
10002f40:	e4d7      	b.n	100028f2 <_vsnprintf+0x236>
10002f42:	9a0b      	ldr	r2, [sp, #44]	; 0x2c
10002f44:	2361      	movs	r3, #97	; 0x61
10002f46:	0692      	lsls	r2, r2, #26
10002f48:	d500      	bpl.n	10002f4c <_vsnprintf+0x890>
10002f4a:	2341      	movs	r3, #65	; 0x41
10002f4c:	2200      	movs	r2, #0
10002f4e:	b2db      	uxtb	r3, r3
10002f50:	a90e      	add	r1, sp, #56	; 0x38
10002f52:	3b0a      	subs	r3, #10
10002f54:	468c      	mov	ip, r1
10002f56:	4691      	mov	r9, r2
10002f58:	930d      	str	r3, [sp, #52]	; 0x34
10002f5a:	4643      	mov	r3, r8
10002f5c:	321f      	adds	r2, #31
10002f5e:	4462      	add	r2, ip
10002f60:	4657      	mov	r7, sl
10002f62:	9512      	str	r5, [sp, #72]	; 0x48
10002f64:	46a2      	mov	sl, r4
10002f66:	464d      	mov	r5, r9
10002f68:	0004      	movs	r4, r0
10002f6a:	46b1      	mov	r9, r6
10002f6c:	4690      	mov	r8, r2
10002f6e:	9e0c      	ldr	r6, [sp, #48]	; 0x30
10002f70:	9313      	str	r3, [sp, #76]	; 0x4c
10002f72:	e00d      	b.n	10002f90 <_vsnprintf+0x8d4>
10002f74:	3230      	adds	r2, #48	; 0x30
10002f76:	b2d2      	uxtb	r2, r2
10002f78:	4643      	mov	r3, r8
10002f7a:	3501      	adds	r5, #1
10002f7c:	555a      	strb	r2, [r3, r5]
10002f7e:	2300      	movs	r3, #0
10002f80:	42bb      	cmp	r3, r7
10002f82:	d100      	bne.n	10002f86 <_vsnprintf+0x8ca>
10002f84:	e0fd      	b.n	10003182 <_vsnprintf+0xac6>
10002f86:	2d20      	cmp	r5, #32
10002f88:	d100      	bne.n	10002f8c <_vsnprintf+0x8d0>
10002f8a:	e0fd      	b.n	10003188 <_vsnprintf+0xacc>
10002f8c:	0004      	movs	r4, r0
10002f8e:	000f      	movs	r7, r1
10002f90:	0032      	movs	r2, r6
10002f92:	2300      	movs	r3, #0
10002f94:	0020      	movs	r0, r4
10002f96:	0039      	movs	r1, r7
10002f98:	f000 f9e4 	bl	10003364 <__wrap___aeabi_uldivmod>
10002f9c:	b2d2      	uxtb	r2, r2
10002f9e:	2a09      	cmp	r2, #9
10002fa0:	d9e8      	bls.n	10002f74 <_vsnprintf+0x8b8>
10002fa2:	9b0d      	ldr	r3, [sp, #52]	; 0x34
10002fa4:	469c      	mov	ip, r3
10002fa6:	4462      	add	r2, ip
10002fa8:	b2d2      	uxtb	r2, r2
10002faa:	e7e5      	b.n	10002f78 <_vsnprintf+0x8bc>
10002fac:	9a0b      	ldr	r2, [sp, #44]	; 0x2c
10002fae:	2361      	movs	r3, #97	; 0x61
10002fb0:	0692      	lsls	r2, r2, #26
10002fb2:	d500      	bpl.n	10002fb6 <_vsnprintf+0x8fa>
10002fb4:	2341      	movs	r3, #65	; 0x41
10002fb6:	b2db      	uxtb	r3, r3
10002fb8:	a90e      	add	r1, sp, #56	; 0x38
10002fba:	3b0a      	subs	r3, #10
10002fbc:	221f      	movs	r2, #31
10002fbe:	468c      	mov	ip, r1
10002fc0:	930d      	str	r3, [sp, #52]	; 0x34
10002fc2:	0023      	movs	r3, r4
10002fc4:	4462      	add	r2, ip
10002fc6:	4654      	mov	r4, sl
10002fc8:	9512      	str	r5, [sp, #72]	; 0x48
10002fca:	0017      	movs	r7, r2
10002fcc:	464d      	mov	r5, r9
10002fce:	469a      	mov	sl, r3
10002fd0:	46b1      	mov	r9, r6
10002fd2:	9e0c      	ldr	r6, [sp, #48]	; 0x30
10002fd4:	e008      	b.n	10002fe8 <_vsnprintf+0x92c>
10002fd6:	3330      	adds	r3, #48	; 0x30
10002fd8:	b2db      	uxtb	r3, r3
10002fda:	3501      	adds	r5, #1
10002fdc:	557b      	strb	r3, [r7, r5]
10002fde:	42b4      	cmp	r4, r6
10002fe0:	d30e      	bcc.n	10003000 <_vsnprintf+0x944>
10002fe2:	2d20      	cmp	r5, #32
10002fe4:	d00c      	beq.n	10003000 <_vsnprintf+0x944>
10002fe6:	0004      	movs	r4, r0
10002fe8:	0031      	movs	r1, r6
10002fea:	0020      	movs	r0, r4
10002fec:	f000 f974 	bl	100032d8 <__wrap___aeabi_uidiv>
10002ff0:	b2cb      	uxtb	r3, r1
10002ff2:	2909      	cmp	r1, #9
10002ff4:	d9ef      	bls.n	10002fd6 <_vsnprintf+0x91a>
10002ff6:	9a0d      	ldr	r2, [sp, #52]	; 0x34
10002ff8:	4694      	mov	ip, r2
10002ffa:	4463      	add	r3, ip
10002ffc:	b2db      	uxtb	r3, r3
10002ffe:	e7ec      	b.n	10002fda <_vsnprintf+0x91e>
10003000:	464e      	mov	r6, r9
10003002:	4654      	mov	r4, sl
10003004:	46a9      	mov	r9, r5
10003006:	9d12      	ldr	r5, [sp, #72]	; 0x48
10003008:	e475      	b.n	100028f6 <_vsnprintf+0x23a>
1000300a:	9b09      	ldr	r3, [sp, #36]	; 0x24
1000300c:	001a      	movs	r2, r3
1000300e:	ca08      	ldmia	r2!, {r3}
10003010:	17d9      	asrs	r1, r3, #31
10003012:	9213      	str	r2, [sp, #76]	; 0x4c
10003014:	185a      	adds	r2, r3, r1
10003016:	404a      	eors	r2, r1
10003018:	4691      	mov	r9, r2
1000301a:	0fda      	lsrs	r2, r3, #31
1000301c:	9212      	str	r2, [sp, #72]	; 0x48
1000301e:	2b00      	cmp	r3, #0
10003020:	d108      	bne.n	10003034 <_vsnprintf+0x978>
10003022:	2380      	movs	r3, #128	; 0x80
10003024:	2210      	movs	r2, #16
10003026:	990b      	ldr	r1, [sp, #44]	; 0x2c
10003028:	00db      	lsls	r3, r3, #3
1000302a:	400b      	ands	r3, r1
1000302c:	4391      	bics	r1, r2
1000302e:	910b      	str	r1, [sp, #44]	; 0x2c
10003030:	2b00      	cmp	r3, #0
10003032:	d12b      	bne.n	1000308c <_vsnprintf+0x9d0>
10003034:	9a0b      	ldr	r2, [sp, #44]	; 0x2c
10003036:	2361      	movs	r3, #97	; 0x61
10003038:	0692      	lsls	r2, r2, #26
1000303a:	d500      	bpl.n	1000303e <_vsnprintf+0x982>
1000303c:	2341      	movs	r3, #65	; 0x41
1000303e:	aa0e      	add	r2, sp, #56	; 0x38
10003040:	271f      	movs	r7, #31
10003042:	4694      	mov	ip, r2
10003044:	b2db      	uxtb	r3, r3
10003046:	3b0a      	subs	r3, #10
10003048:	950d      	str	r5, [sp, #52]	; 0x34
1000304a:	4467      	add	r7, ip
1000304c:	4655      	mov	r5, sl
1000304e:	9309      	str	r3, [sp, #36]	; 0x24
10003050:	46a2      	mov	sl, r4
10003052:	464c      	mov	r4, r9
10003054:	46b1      	mov	r9, r6
10003056:	9e0c      	ldr	r6, [sp, #48]	; 0x30
10003058:	e008      	b.n	1000306c <_vsnprintf+0x9b0>
1000305a:	3330      	adds	r3, #48	; 0x30
1000305c:	b2db      	uxtb	r3, r3
1000305e:	3501      	adds	r5, #1
10003060:	557b      	strb	r3, [r7, r5]
10003062:	42b4      	cmp	r4, r6
10003064:	d30e      	bcc.n	10003084 <_vsnprintf+0x9c8>
10003066:	2d20      	cmp	r5, #32
10003068:	d00c      	beq.n	10003084 <_vsnprintf+0x9c8>
1000306a:	0004      	movs	r4, r0
1000306c:	0031      	movs	r1, r6
1000306e:	0020      	movs	r0, r4
10003070:	f000 f932 	bl	100032d8 <__wrap___aeabi_uidiv>
10003074:	b2cb      	uxtb	r3, r1
10003076:	2909      	cmp	r1, #9
10003078:	d9ef      	bls.n	1000305a <_vsnprintf+0x99e>
1000307a:	9a09      	ldr	r2, [sp, #36]	; 0x24
1000307c:	4694      	mov	ip, r2
1000307e:	4463      	add	r3, ip
10003080:	b2db      	uxtb	r3, r3
10003082:	e7ec      	b.n	1000305e <_vsnprintf+0x9a2>
10003084:	464e      	mov	r6, r9
10003086:	4654      	mov	r4, sl
10003088:	46aa      	mov	sl, r5
1000308a:	9d0d      	ldr	r5, [sp, #52]	; 0x34
1000308c:	9b0b      	ldr	r3, [sp, #44]	; 0x2c
1000308e:	002a      	movs	r2, r5
10003090:	9306      	str	r3, [sp, #24]
10003092:	9b0a      	ldr	r3, [sp, #40]	; 0x28
10003094:	0021      	movs	r1, r4
10003096:	9305      	str	r3, [sp, #20]
10003098:	4643      	mov	r3, r8
1000309a:	9304      	str	r3, [sp, #16]
1000309c:	9b0c      	ldr	r3, [sp, #48]	; 0x30
1000309e:	9808      	ldr	r0, [sp, #32]
100030a0:	9303      	str	r3, [sp, #12]
100030a2:	9b12      	ldr	r3, [sp, #72]	; 0x48
100030a4:	3601      	adds	r6, #1
100030a6:	9302      	str	r3, [sp, #8]
100030a8:	4653      	mov	r3, sl
100030aa:	9301      	str	r3, [sp, #4]
100030ac:	ab16      	add	r3, sp, #88	; 0x58
100030ae:	9300      	str	r3, [sp, #0]
100030b0:	465b      	mov	r3, fp
100030b2:	f7fe fdf5 	bl	10001ca0 <_ntoa_format>
100030b6:	9b13      	ldr	r3, [sp, #76]	; 0x4c
100030b8:	0005      	movs	r5, r0
100030ba:	9309      	str	r3, [sp, #36]	; 0x24
100030bc:	f7ff fb23 	bl	10002706 <_vsnprintf+0x4a>
100030c0:	9b09      	ldr	r3, [sp, #36]	; 0x24
100030c2:	cb04      	ldmia	r3!, {r2}
100030c4:	4691      	mov	r9, r2
100030c6:	9312      	str	r3, [sp, #72]	; 0x48
100030c8:	2a00      	cmp	r2, #0
100030ca:	d108      	bne.n	100030de <_vsnprintf+0xa22>
100030cc:	2380      	movs	r3, #128	; 0x80
100030ce:	2210      	movs	r2, #16
100030d0:	990b      	ldr	r1, [sp, #44]	; 0x2c
100030d2:	00db      	lsls	r3, r3, #3
100030d4:	400b      	ands	r3, r1
100030d6:	4391      	bics	r1, r2
100030d8:	910b      	str	r1, [sp, #44]	; 0x2c
100030da:	2b00      	cmp	r3, #0
100030dc:	d12b      	bne.n	10003136 <_vsnprintf+0xa7a>
100030de:	9a0b      	ldr	r2, [sp, #44]	; 0x2c
100030e0:	2361      	movs	r3, #97	; 0x61
100030e2:	0692      	lsls	r2, r2, #26
100030e4:	d500      	bpl.n	100030e8 <_vsnprintf+0xa2c>
100030e6:	2341      	movs	r3, #65	; 0x41
100030e8:	aa0e      	add	r2, sp, #56	; 0x38
100030ea:	271f      	movs	r7, #31
100030ec:	4694      	mov	ip, r2
100030ee:	b2db      	uxtb	r3, r3
100030f0:	3b0a      	subs	r3, #10
100030f2:	950d      	str	r5, [sp, #52]	; 0x34
100030f4:	4467      	add	r7, ip
100030f6:	4655      	mov	r5, sl
100030f8:	9309      	str	r3, [sp, #36]	; 0x24
100030fa:	46a2      	mov	sl, r4
100030fc:	464c      	mov	r4, r9
100030fe:	46b1      	mov	r9, r6
10003100:	9e0c      	ldr	r6, [sp, #48]	; 0x30
10003102:	e008      	b.n	10003116 <_vsnprintf+0xa5a>
10003104:	3330      	adds	r3, #48	; 0x30
10003106:	b2db      	uxtb	r3, r3
10003108:	3501      	adds	r5, #1
1000310a:	557b      	strb	r3, [r7, r5]
1000310c:	42b4      	cmp	r4, r6
1000310e:	d30e      	bcc.n	1000312e <_vsnprintf+0xa72>
10003110:	2d20      	cmp	r5, #32
10003112:	d00c      	beq.n	1000312e <_vsnprintf+0xa72>
10003114:	0004      	movs	r4, r0
10003116:	0031      	movs	r1, r6
10003118:	0020      	movs	r0, r4
1000311a:	f000 f8dd 	bl	100032d8 <__wrap___aeabi_uidiv>
1000311e:	b2cb      	uxtb	r3, r1
10003120:	2909      	cmp	r1, #9
10003122:	d9ef      	bls.n	10003104 <_vsnprintf+0xa48>
10003124:	9a09      	ldr	r2, [sp, #36]	; 0x24
10003126:	4694      	mov	ip, r2
10003128:	4463      	add	r3, ip
1000312a:	b2db      	uxtb	r3, r3
1000312c:	e7ec      	b.n	10003108 <_vsnprintf+0xa4c>
1000312e:	464e      	mov	r6, r9
10003130:	4654      	mov	r4, sl
10003132:	46aa      	mov	sl, r5
10003134:	9d0d      	ldr	r5, [sp, #52]	; 0x34
10003136:	9b0b      	ldr	r3, [sp, #44]	; 0x2c
10003138:	002a      	movs	r2, r5
1000313a:	9306      	str	r3, [sp, #24]
1000313c:	9b0a      	ldr	r3, [sp, #40]	; 0x28
1000313e:	0021      	movs	r1, r4
10003140:	9305      	str	r3, [sp, #20]
10003142:	4643      	mov	r3, r8
10003144:	9304      	str	r3, [sp, #16]
10003146:	9b0c      	ldr	r3, [sp, #48]	; 0x30
10003148:	9808      	ldr	r0, [sp, #32]
1000314a:	9303      	str	r3, [sp, #12]
1000314c:	2300      	movs	r3, #0
1000314e:	9302      	str	r3, [sp, #8]
10003150:	4653      	mov	r3, sl
10003152:	9301      	str	r3, [sp, #4]
10003154:	ab16      	add	r3, sp, #88	; 0x58
10003156:	9300      	str	r3, [sp, #0]
10003158:	465b      	mov	r3, fp
1000315a:	f7fe fda1 	bl	10001ca0 <_ntoa_format>
1000315e:	9b12      	ldr	r3, [sp, #72]	; 0x48
10003160:	0005      	movs	r5, r0
10003162:	9309      	str	r3, [sp, #36]	; 0x24
10003164:	3601      	adds	r6, #1
10003166:	f7ff face 	bl	10002706 <_vsnprintf+0x4a>
1000316a:	42b4      	cmp	r4, r6
1000316c:	d800      	bhi.n	10003170 <_vsnprintf+0xab4>
1000316e:	e67f      	b.n	10002e70 <_vsnprintf+0x7b4>
10003170:	9b14      	ldr	r3, [sp, #80]	; 0x50
10003172:	464c      	mov	r4, r9
10003174:	960e      	str	r6, [sp, #56]	; 0x38
10003176:	970f      	str	r7, [sp, #60]	; 0x3c
10003178:	46a9      	mov	r9, r5
1000317a:	4698      	mov	r8, r3
1000317c:	9e15      	ldr	r6, [sp, #84]	; 0x54
1000317e:	9d13      	ldr	r5, [sp, #76]	; 0x4c
10003180:	e699      	b.n	10002eb6 <_vsnprintf+0x7fa>
10003182:	42a6      	cmp	r6, r4
10003184:	d800      	bhi.n	10003188 <_vsnprintf+0xacc>
10003186:	e6fe      	b.n	10002f86 <_vsnprintf+0x8ca>
10003188:	9b13      	ldr	r3, [sp, #76]	; 0x4c
1000318a:	464e      	mov	r6, r9
1000318c:	4698      	mov	r8, r3
1000318e:	46a9      	mov	r9, r5
10003190:	4654      	mov	r4, sl
10003192:	9d12      	ldr	r5, [sp, #72]	; 0x48
10003194:	f7ff fbaf 	bl	100028f6 <_vsnprintf+0x23a>
10003198:	c908      	ldmia	r1!, {r3}
1000319a:	17d8      	asrs	r0, r3, #31
1000319c:	181a      	adds	r2, r3, r0
1000319e:	4042      	eors	r2, r0
100031a0:	9109      	str	r1, [sp, #36]	; 0x24
100031a2:	e566      	b.n	10002c72 <_vsnprintf+0x5b6>
100031a4:	2300      	movs	r3, #0
100031a6:	930b      	str	r3, [sp, #44]	; 0x2c
100031a8:	e45e      	b.n	10002a68 <_vsnprintf+0x3ac>
100031aa:	9b09      	ldr	r3, [sp, #36]	; 0x24
100031ac:	cb04      	ldmia	r3!, {r2}
100031ae:	4692      	mov	sl, r2
100031b0:	9309      	str	r3, [sp, #36]	; 0x24
100031b2:	f7ff fb92 	bl	100028da <_vsnprintf+0x21e>
100031b6:	002f      	movs	r7, r5
100031b8:	e5e0      	b.n	10002d7c <_vsnprintf+0x6c0>
100031ba:	930b      	str	r3, [sp, #44]	; 0x2c
100031bc:	e60b      	b.n	10002dd6 <_vsnprintf+0x71a>
100031be:	3b06      	subs	r3, #6
100031c0:	930c      	str	r3, [sp, #48]	; 0x30
100031c2:	e52e      	b.n	10002c22 <_vsnprintf+0x566>

100031c4 <vfctprintf>:
100031c4:	b500      	push	{lr}
100031c6:	b085      	sub	sp, #20
100031c8:	9103      	str	r1, [sp, #12]
100031ca:	2101      	movs	r1, #1
100031cc:	9002      	str	r0, [sp, #8]
100031ce:	9300      	str	r3, [sp, #0]
100031d0:	4803      	ldr	r0, [pc, #12]	; (100031e0 <vfctprintf+0x1c>)
100031d2:	0013      	movs	r3, r2
100031d4:	424a      	negs	r2, r1
100031d6:	a902      	add	r1, sp, #8
100031d8:	f7ff fa70 	bl	100026bc <_vsnprintf>
100031dc:	b005      	add	sp, #20
100031de:	bd00      	pop	{pc}
100031e0:	10001e81 	.word	0x10001e81

100031e4 <weak_raw_vprintf>:
100031e4:	b510      	push	{r4, lr}
100031e6:	4a09      	ldr	r2, [pc, #36]	; (1000320c <weak_raw_vprintf+0x28>)
100031e8:	0003      	movs	r3, r0
100031ea:	6814      	ldr	r4, [r2, #0]
100031ec:	b084      	sub	sp, #16
100031ee:	2c00      	cmp	r4, #0
100031f0:	d008      	beq.n	10003204 <weak_raw_vprintf+0x20>
100031f2:	2201      	movs	r2, #1
100031f4:	9100      	str	r1, [sp, #0]
100031f6:	4806      	ldr	r0, [pc, #24]	; (10003210 <weak_raw_vprintf+0x2c>)
100031f8:	4252      	negs	r2, r2
100031fa:	a903      	add	r1, sp, #12
100031fc:	47a0      	blx	r4
100031fe:	2001      	movs	r0, #1
10003200:	b004      	add	sp, #16
10003202:	bd10      	pop	{r4, pc}
10003204:	f001 f84c 	bl	100042a0 <__wrap_puts>
10003208:	2000      	movs	r0, #0
1000320a:	e7f9      	b.n	10003200 <weak_raw_vprintf+0x1c>
1000320c:	20000bb4 	.word	0x20000bb4
10003210:	10001e71 	.word	0x10001e71

10003214 <__aeabi_bits_init>:
10003214:	4801      	ldr	r0, [pc, #4]	; (1000321c <__aeabi_bits_init+0x8>)
10003216:	2104      	movs	r1, #4
10003218:	4b01      	ldr	r3, [pc, #4]	; (10003220 <__aeabi_bits_init+0xc>)
1000321a:	4718      	bx	r3
1000321c:	20000290 	.word	0x20000290
10003220:	10003245 	.word	0x10003245

10003224 <rom_func_lookup>:
10003224:	2314      	movs	r3, #20
10003226:	b510      	push	{r4, lr}
10003228:	0001      	movs	r1, r0
1000322a:	8818      	ldrh	r0, [r3, #0]
1000322c:	3304      	adds	r3, #4
1000322e:	881b      	ldrh	r3, [r3, #0]
10003230:	4798      	blx	r3
10003232:	bd10      	pop	{r4, pc}

10003234 <rom_data_lookup>:
10003234:	2316      	movs	r3, #22
10003236:	b510      	push	{r4, lr}
10003238:	0001      	movs	r1, r0
1000323a:	8818      	ldrh	r0, [r3, #0]
1000323c:	3302      	adds	r3, #2
1000323e:	881b      	ldrh	r3, [r3, #0]
10003240:	4798      	blx	r3
10003242:	bd10      	pop	{r4, pc}

10003244 <rom_funcs_lookup>:
10003244:	b5f0      	push	{r4, r5, r6, r7, lr}
10003246:	46c6      	mov	lr, r8
10003248:	b500      	push	{lr}
1000324a:	2900      	cmp	r1, #0
1000324c:	d016      	beq.n	1000327c <rom_funcs_lookup+0x38>
1000324e:	2314      	movs	r3, #20
10003250:	0004      	movs	r4, r0
10003252:	2501      	movs	r5, #1
10003254:	4698      	mov	r8, r3
10003256:	2718      	movs	r7, #24
10003258:	0089      	lsls	r1, r1, #2
1000325a:	1846      	adds	r6, r0, r1
1000325c:	4643      	mov	r3, r8
1000325e:	6821      	ldr	r1, [r4, #0]
10003260:	8818      	ldrh	r0, [r3, #0]
10003262:	883b      	ldrh	r3, [r7, #0]
10003264:	4798      	blx	r3
10003266:	c401      	stmia	r4!, {r0}
10003268:	1e43      	subs	r3, r0, #1
1000326a:	4198      	sbcs	r0, r3
1000326c:	4240      	negs	r0, r0
1000326e:	4005      	ands	r5, r0
10003270:	42a6      	cmp	r6, r4
10003272:	d1f3      	bne.n	1000325c <rom_funcs_lookup+0x18>
10003274:	0028      	movs	r0, r5
10003276:	bc04      	pop	{r2}
10003278:	4690      	mov	r8, r2
1000327a:	bdf0      	pop	{r4, r5, r6, r7, pc}
1000327c:	2501      	movs	r5, #1
1000327e:	e7f9      	b.n	10003274 <rom_funcs_lookup+0x30>

10003280 <__wrap___aeabi_idiv>:
10003280:	4a14      	ldr	r2, [pc, #80]	; (100032d4 <divmod_s32s32_savestate+0x20>)
10003282:	6f93      	ldr	r3, [r2, #120]	; 0x78
10003284:	089b      	lsrs	r3, r3, #2
10003286:	d215      	bcs.n	100032b4 <divmod_s32s32_savestate>

10003288 <divmod_s32s32_unsafe>:
10003288:	6690      	str	r0, [r2, #104]	; 0x68
1000328a:	66d1      	str	r1, [r2, #108]	; 0x6c
1000328c:	2900      	cmp	r1, #0
1000328e:	d005      	beq.n	1000329c <divmod_s32s32_unsafe+0x14>
10003290:	e7ff      	b.n	10003292 <divmod_s32s32_unsafe+0xa>
10003292:	e7ff      	b.n	10003294 <divmod_s32s32_unsafe+0xc>
10003294:	e7ff      	b.n	10003296 <divmod_s32s32_unsafe+0xe>
10003296:	6f51      	ldr	r1, [r2, #116]	; 0x74
10003298:	6f10      	ldr	r0, [r2, #112]	; 0x70
1000329a:	4770      	bx	lr
1000329c:	b504      	push	{r2, lr}
1000329e:	2180      	movs	r1, #128	; 0x80
100032a0:	0609      	lsls	r1, r1, #24
100032a2:	17c2      	asrs	r2, r0, #31
100032a4:	4051      	eors	r1, r2
100032a6:	2800      	cmp	r0, #0
100032a8:	d000      	beq.n	100032ac <divmod_s32s32_unsafe+0x24>
100032aa:	43c8      	mvns	r0, r1
100032ac:	f001 fe28 	bl	10004f00 <____aeabi_idiv0_veneer>
100032b0:	2100      	movs	r1, #0
100032b2:	bd04      	pop	{r2, pc}

100032b4 <divmod_s32s32_savestate>:
100032b4:	6f93      	ldr	r3, [r2, #120]	; 0x78
100032b6:	085b      	lsrs	r3, r3, #1
100032b8:	d3fd      	bcc.n	100032b6 <divmod_s32s32_savestate+0x2>
100032ba:	b5f0      	push	{r4, r5, r6, r7, lr}
100032bc:	6e94      	ldr	r4, [r2, #104]	; 0x68
100032be:	6ed5      	ldr	r5, [r2, #108]	; 0x6c
100032c0:	6f57      	ldr	r7, [r2, #116]	; 0x74
100032c2:	6f16      	ldr	r6, [r2, #112]	; 0x70
100032c4:	f7ff ffe0 	bl	10003288 <divmod_s32s32_unsafe>
100032c8:	6694      	str	r4, [r2, #104]	; 0x68
100032ca:	66d5      	str	r5, [r2, #108]	; 0x6c
100032cc:	6757      	str	r7, [r2, #116]	; 0x74
100032ce:	6716      	str	r6, [r2, #112]	; 0x70
100032d0:	bdf0      	pop	{r4, r5, r6, r7, pc}
100032d2:	0000      	.short	0x0000
100032d4:	d0000000 	.word	0xd0000000

100032d8 <__wrap___aeabi_uidiv>:
100032d8:	4a13      	ldr	r2, [pc, #76]	; (10003328 <divmod_u32u32_savestate+0x20>)
100032da:	6f93      	ldr	r3, [r2, #120]	; 0x78
100032dc:	089b      	lsrs	r3, r3, #2
100032de:	d213      	bcs.n	10003308 <divmod_u32u32_savestate>

100032e0 <divmod_u32u32_unsafe>:
100032e0:	6610      	str	r0, [r2, #96]	; 0x60
100032e2:	6651      	str	r1, [r2, #100]	; 0x64
100032e4:	2900      	cmp	r1, #0
100032e6:	d005      	beq.n	100032f4 <divmod_u32u32_unsafe+0x14>
100032e8:	e7ff      	b.n	100032ea <divmod_u32u32_unsafe+0xa>
100032ea:	e7ff      	b.n	100032ec <divmod_u32u32_unsafe+0xc>
100032ec:	e7ff      	b.n	100032ee <divmod_u32u32_unsafe+0xe>
100032ee:	6f51      	ldr	r1, [r2, #116]	; 0x74
100032f0:	6f10      	ldr	r0, [r2, #112]	; 0x70
100032f2:	4770      	bx	lr
100032f4:	b504      	push	{r2, lr}
100032f6:	2800      	cmp	r0, #0
100032f8:	d001      	beq.n	100032fe <divmod_u32u32_unsafe+0x1e>
100032fa:	2000      	movs	r0, #0
100032fc:	43c0      	mvns	r0, r0
100032fe:	f001 fdff 	bl	10004f00 <____aeabi_idiv0_veneer>
10003302:	2100      	movs	r1, #0
10003304:	bd04      	pop	{r2, pc}
10003306:	46c0      	nop			; (mov r8, r8)

10003308 <divmod_u32u32_savestate>:
10003308:	6f93      	ldr	r3, [r2, #120]	; 0x78
1000330a:	085b      	lsrs	r3, r3, #1
1000330c:	d3fd      	bcc.n	1000330a <divmod_u32u32_savestate+0x2>
1000330e:	b5f0      	push	{r4, r5, r6, r7, lr}
10003310:	6e94      	ldr	r4, [r2, #104]	; 0x68
10003312:	6ed5      	ldr	r5, [r2, #108]	; 0x6c
10003314:	6f57      	ldr	r7, [r2, #116]	; 0x74
10003316:	6f16      	ldr	r6, [r2, #112]	; 0x70
10003318:	f7ff ffe2 	bl	100032e0 <divmod_u32u32_unsafe>
1000331c:	6694      	str	r4, [r2, #104]	; 0x68
1000331e:	66d5      	str	r5, [r2, #108]	; 0x6c
10003320:	6757      	str	r7, [r2, #116]	; 0x74
10003322:	6716      	str	r6, [r2, #112]	; 0x70
10003324:	bdf0      	pop	{r4, r5, r6, r7, pc}
10003326:	0000      	.short	0x0000
10003328:	d0000000 	.word	0xd0000000

1000332c <__wrap___aeabi_ldivmod>:
1000332c:	4694      	mov	ip, r2
1000332e:	4a4e      	ldr	r2, [pc, #312]	; (10003468 <udiv0+0x1a>)
10003330:	6f92      	ldr	r2, [r2, #120]	; 0x78
10003332:	0892      	lsrs	r2, r2, #2
10003334:	4662      	mov	r2, ip
10003336:	d201      	bcs.n	1000333c <divmod_s64s64_savestate>
10003338:	e030      	b.n	1000339c <divmod_s64s64_unsafe>
1000333a:	46c0      	nop			; (mov r8, r8)

1000333c <divmod_s64s64_savestate>:
1000333c:	b5f0      	push	{r4, r5, r6, r7, lr}
1000333e:	4e4a      	ldr	r6, [pc, #296]	; (10003468 <udiv0+0x1a>)
10003340:	6fb5      	ldr	r5, [r6, #120]	; 0x78
10003342:	086d      	lsrs	r5, r5, #1
10003344:	d3fc      	bcc.n	10003340 <divmod_s64s64_savestate+0x4>
10003346:	6e34      	ldr	r4, [r6, #96]	; 0x60
10003348:	6e75      	ldr	r5, [r6, #100]	; 0x64
1000334a:	6f77      	ldr	r7, [r6, #116]	; 0x74
1000334c:	6f36      	ldr	r6, [r6, #112]	; 0x70
1000334e:	f000 f825 	bl	1000339c <divmod_s64s64_unsafe>
10003352:	4694      	mov	ip, r2
10003354:	4a44      	ldr	r2, [pc, #272]	; (10003468 <udiv0+0x1a>)
10003356:	6614      	str	r4, [r2, #96]	; 0x60
10003358:	6655      	str	r5, [r2, #100]	; 0x64
1000335a:	6757      	str	r7, [r2, #116]	; 0x74
1000335c:	6716      	str	r6, [r2, #112]	; 0x70
1000335e:	4662      	mov	r2, ip
10003360:	bdf0      	pop	{r4, r5, r6, r7, pc}
10003362:	46c0      	nop			; (mov r8, r8)

10003364 <__wrap___aeabi_uldivmod>:
10003364:	4694      	mov	ip, r2
10003366:	4a40      	ldr	r2, [pc, #256]	; (10003468 <udiv0+0x1a>)
10003368:	6f92      	ldr	r2, [r2, #120]	; 0x78
1000336a:	0892      	lsrs	r2, r2, #2
1000336c:	4662      	mov	r2, ip
1000336e:	d201      	bcs.n	10003374 <divmod_u64u64_savestate>
10003370:	e058      	b.n	10003424 <divmod_u64u64_unsafe>
10003372:	46c0      	nop			; (mov r8, r8)

10003374 <divmod_u64u64_savestate>:
10003374:	b5f0      	push	{r4, r5, r6, r7, lr}
10003376:	4e3c      	ldr	r6, [pc, #240]	; (10003468 <udiv0+0x1a>)
10003378:	6fb5      	ldr	r5, [r6, #120]	; 0x78
1000337a:	086d      	lsrs	r5, r5, #1
1000337c:	d3fc      	bcc.n	10003378 <divmod_u64u64_savestate+0x4>
1000337e:	6e34      	ldr	r4, [r6, #96]	; 0x60
10003380:	6e75      	ldr	r5, [r6, #100]	; 0x64
10003382:	6f77      	ldr	r7, [r6, #116]	; 0x74
10003384:	6f36      	ldr	r6, [r6, #112]	; 0x70
10003386:	f000 f84d 	bl	10003424 <divmod_u64u64_unsafe>
1000338a:	4694      	mov	ip, r2
1000338c:	4a36      	ldr	r2, [pc, #216]	; (10003468 <udiv0+0x1a>)
1000338e:	6614      	str	r4, [r2, #96]	; 0x60
10003390:	6655      	str	r5, [r2, #100]	; 0x64
10003392:	6757      	str	r7, [r2, #116]	; 0x74
10003394:	6716      	str	r6, [r2, #112]	; 0x70
10003396:	4662      	mov	r2, ip
10003398:	bdf0      	pop	{r4, r5, r6, r7, pc}
1000339a:	46c0      	nop			; (mov r8, r8)

1000339c <divmod_s64s64_unsafe>:
1000339c:	2b00      	cmp	r3, #0
1000339e:	db24      	blt.n	100033ea <l41_1+0x26>
100033a0:	d011      	beq.n	100033c6 <l41_1+0x2>
100033a2:	2900      	cmp	r1, #0
100033a4:	da3e      	bge.n	10003424 <divmod_u64u64_unsafe>
100033a6:	b500      	push	{lr}
100033a8:	43c9      	mvns	r1, r1
100033aa:	4240      	negs	r0, r0
100033ac:	d100      	bne.n	100033b0 <l39_1>
100033ae:	3101      	adds	r1, #1

100033b0 <l39_1>:
100033b0:	f000 f838 	bl	10003424 <divmod_u64u64_unsafe>
100033b4:	43c9      	mvns	r1, r1
100033b6:	4240      	negs	r0, r0
100033b8:	d100      	bne.n	100033bc <l40_1>
100033ba:	3101      	adds	r1, #1

100033bc <l40_1>:
100033bc:	43db      	mvns	r3, r3
100033be:	4252      	negs	r2, r2
100033c0:	d100      	bne.n	100033c4 <l41_1>
100033c2:	3301      	adds	r3, #1

100033c4 <l41_1>:
100033c4:	bd00      	pop	{pc}
100033c6:	2a00      	cmp	r2, #0
100033c8:	d1eb      	bne.n	100033a2 <divmod_s64s64_unsafe+0x6>
100033ca:	2800      	cmp	r0, #0
100033cc:	d101      	bne.n	100033d2 <l41_1+0xe>
100033ce:	2900      	cmp	r1, #0
100033d0:	d005      	beq.n	100033de <l41_1+0x1a>
100033d2:	2000      	movs	r0, #0
100033d4:	0fc9      	lsrs	r1, r1, #31
100033d6:	07c9      	lsls	r1, r1, #31
100033d8:	d101      	bne.n	100033de <l41_1+0x1a>
100033da:	43c0      	mvns	r0, r0
100033dc:	0841      	lsrs	r1, r0, #1
100033de:	b500      	push	{lr}
100033e0:	f001 fd86 	bl	10004ef0 <____aeabi_ldiv0_veneer>
100033e4:	2200      	movs	r2, #0
100033e6:	2300      	movs	r3, #0
100033e8:	bd00      	pop	{pc}
100033ea:	b500      	push	{lr}
100033ec:	2900      	cmp	r1, #0
100033ee:	db0a      	blt.n	10003406 <l43_1+0x2>
100033f0:	43db      	mvns	r3, r3
100033f2:	4252      	negs	r2, r2
100033f4:	d100      	bne.n	100033f8 <l42_1>
100033f6:	3301      	adds	r3, #1

100033f8 <l42_1>:
100033f8:	f000 f814 	bl	10003424 <divmod_u64u64_unsafe>
100033fc:	43c9      	mvns	r1, r1
100033fe:	4240      	negs	r0, r0
10003400:	d100      	bne.n	10003404 <l43_1>
10003402:	3101      	adds	r1, #1

10003404 <l43_1>:
10003404:	bd00      	pop	{pc}
10003406:	43c9      	mvns	r1, r1
10003408:	4240      	negs	r0, r0
1000340a:	d100      	bne.n	1000340e <l44_1>
1000340c:	3101      	adds	r1, #1

1000340e <l44_1>:
1000340e:	43db      	mvns	r3, r3
10003410:	4252      	negs	r2, r2
10003412:	d100      	bne.n	10003416 <l45_1>
10003414:	3301      	adds	r3, #1

10003416 <l45_1>:
10003416:	f000 f805 	bl	10003424 <divmod_u64u64_unsafe>
1000341a:	43db      	mvns	r3, r3
1000341c:	4252      	negs	r2, r2
1000341e:	d100      	bne.n	10003422 <l46_1>
10003420:	3301      	adds	r3, #1

10003422 <l46_1>:
10003422:	bd00      	pop	{pc}

10003424 <divmod_u64u64_unsafe>:
10003424:	2900      	cmp	r1, #0
10003426:	d123      	bne.n	10003470 <y64>
10003428:	2b00      	cmp	r3, #0
1000342a:	d118      	bne.n	1000345e <udiv0+0x10>
1000342c:	2a00      	cmp	r2, #0
1000342e:	d00c      	beq.n	1000344a <divmod_u64u64_unsafe+0x26>
10003430:	46bc      	mov	ip, r7
10003432:	4f0d      	ldr	r7, [pc, #52]	; (10003468 <udiv0+0x1a>)
10003434:	6638      	str	r0, [r7, #96]	; 0x60
10003436:	667a      	str	r2, [r7, #100]	; 0x64
10003438:	2100      	movs	r1, #0
1000343a:	2300      	movs	r3, #0
1000343c:	e7ff      	b.n	1000343e <divmod_u64u64_unsafe+0x1a>
1000343e:	e7ff      	b.n	10003440 <divmod_u64u64_unsafe+0x1c>
10003440:	e7ff      	b.n	10003442 <divmod_u64u64_unsafe+0x1e>
10003442:	6f7a      	ldr	r2, [r7, #116]	; 0x74
10003444:	6f38      	ldr	r0, [r7, #112]	; 0x70
10003446:	4667      	mov	r7, ip
10003448:	4770      	bx	lr
1000344a:	2800      	cmp	r0, #0
1000344c:	d001      	beq.n	10003452 <udiv0+0x4>

1000344e <udiv0>:
1000344e:	4807      	ldr	r0, [pc, #28]	; (1000346c <udiv0+0x1e>)
10003450:	0001      	movs	r1, r0
10003452:	b500      	push	{lr}
10003454:	f001 fd4c 	bl	10004ef0 <____aeabi_ldiv0_veneer>
10003458:	2200      	movs	r2, #0
1000345a:	2300      	movs	r3, #0
1000345c:	bd00      	pop	{pc}
1000345e:	0002      	movs	r2, r0
10003460:	000b      	movs	r3, r1
10003462:	2000      	movs	r0, #0
10003464:	2100      	movs	r1, #0
10003466:	4770      	bx	lr
10003468:	d0000000 	.word	0xd0000000
1000346c:	ffffffff 	.word	0xffffffff

10003470 <y64>:
10003470:	2b00      	cmp	r3, #0
10003472:	d000      	beq.n	10003476 <y64+0x6>
10003474:	e0bd      	b.n	100035f2 <y64_x48>
10003476:	0c13      	lsrs	r3, r2, #16
10003478:	d126      	bne.n	100034c8 <y64_x32>
1000347a:	2a00      	cmp	r2, #0
1000347c:	d0e7      	beq.n	1000344e <udiv0>
1000347e:	b480      	push	{r7}
10003480:	4f10      	ldr	r7, [pc, #64]	; (100034c4 <y64+0x54>)
10003482:	6639      	str	r1, [r7, #96]	; 0x60
10003484:	667a      	str	r2, [r7, #100]	; 0x64
10003486:	e7ff      	b.n	10003488 <y64+0x18>
10003488:	e7ff      	b.n	1000348a <y64+0x1a>
1000348a:	b430      	push	{r4, r5}
1000348c:	0c04      	lsrs	r4, r0, #16
1000348e:	6f7b      	ldr	r3, [r7, #116]	; 0x74
10003490:	6f39      	ldr	r1, [r7, #112]	; 0x70
10003492:	041b      	lsls	r3, r3, #16
10003494:	4323      	orrs	r3, r4
10003496:	663b      	str	r3, [r7, #96]	; 0x60
10003498:	e7ff      	b.n	1000349a <y64+0x2a>
1000349a:	e7ff      	b.n	1000349c <y64+0x2c>
1000349c:	e7ff      	b.n	1000349e <y64+0x2e>
1000349e:	46c0      	nop			; (mov r8, r8)
100034a0:	b284      	uxth	r4, r0
100034a2:	6f7b      	ldr	r3, [r7, #116]	; 0x74
100034a4:	6f3d      	ldr	r5, [r7, #112]	; 0x70
100034a6:	041b      	lsls	r3, r3, #16
100034a8:	4323      	orrs	r3, r4
100034aa:	663b      	str	r3, [r7, #96]	; 0x60
100034ac:	e7ff      	b.n	100034ae <y64+0x3e>
100034ae:	e7ff      	b.n	100034b0 <y64+0x40>
100034b0:	46c0      	nop			; (mov r8, r8)
100034b2:	2300      	movs	r3, #0
100034b4:	042c      	lsls	r4, r5, #16
100034b6:	0c2d      	lsrs	r5, r5, #16
100034b8:	6f7a      	ldr	r2, [r7, #116]	; 0x74
100034ba:	6f38      	ldr	r0, [r7, #112]	; 0x70
100034bc:	1900      	adds	r0, r0, r4
100034be:	4169      	adcs	r1, r5
100034c0:	bcb0      	pop	{r4, r5, r7}
100034c2:	4770      	bx	lr
100034c4:	d0000000 	.word	0xd0000000

100034c8 <y64_x32>:
100034c8:	b5f0      	push	{r4, r5, r6, r7, lr}
100034ca:	4694      	mov	ip, r2
100034cc:	2500      	movs	r5, #0
100034ce:	0e14      	lsrs	r4, r2, #24
100034d0:	d101      	bne.n	100034d6 <y64_x32+0xe>
100034d2:	0212      	lsls	r2, r2, #8
100034d4:	3508      	adds	r5, #8
100034d6:	0f14      	lsrs	r4, r2, #28
100034d8:	d101      	bne.n	100034de <y64_x32+0x16>
100034da:	0112      	lsls	r2, r2, #4
100034dc:	3504      	adds	r5, #4
100034de:	0f94      	lsrs	r4, r2, #30
100034e0:	d101      	bne.n	100034e6 <y64_x32+0x1e>
100034e2:	0092      	lsls	r2, r2, #2
100034e4:	3502      	adds	r5, #2
100034e6:	0fd4      	lsrs	r4, r2, #31
100034e8:	d101      	bne.n	100034ee <y64_x32+0x26>
100034ea:	0052      	lsls	r2, r2, #1
100034ec:	3501      	adds	r5, #1
100034ee:	0bd4      	lsrs	r4, r2, #15
100034f0:	3401      	adds	r4, #1
100034f2:	4f25      	ldr	r7, [pc, #148]	; (10003588 <y64_x32+0xc0>)
100034f4:	667c      	str	r4, [r7, #100]	; 0x64
100034f6:	4c25      	ldr	r4, [pc, #148]	; (1000358c <y64_x32+0xc4>)
100034f8:	663c      	str	r4, [r7, #96]	; 0x60
100034fa:	0c0e      	lsrs	r6, r1, #16
100034fc:	b293      	uxth	r3, r2
100034fe:	e7ff      	b.n	10003500 <y64_x32+0x38>
10003500:	e7ff      	b.n	10003502 <y64_x32+0x3a>
10003502:	e7ff      	b.n	10003504 <y64_x32+0x3c>
10003504:	6f3c      	ldr	r4, [r7, #112]	; 0x70
10003506:	4366      	muls	r6, r4
10003508:	0c36      	lsrs	r6, r6, #16
1000350a:	0377      	lsls	r7, r6, #13
1000350c:	46be      	mov	lr, r7
1000350e:	4373      	muls	r3, r6
10003510:	0bdf      	lsrs	r7, r3, #15
10003512:	045b      	lsls	r3, r3, #17
10003514:	1ac0      	subs	r0, r0, r3
10003516:	41b9      	sbcs	r1, r7
10003518:	0c13      	lsrs	r3, r2, #16
1000351a:	4373      	muls	r3, r6
1000351c:	18db      	adds	r3, r3, r3
1000351e:	1ac9      	subs	r1, r1, r3
10003520:	08ce      	lsrs	r6, r1, #3
10003522:	4366      	muls	r6, r4
10003524:	0c36      	lsrs	r6, r6, #16
10003526:	44b6      	add	lr, r6
10003528:	b293      	uxth	r3, r2
1000352a:	4373      	muls	r3, r6
1000352c:	0f1f      	lsrs	r7, r3, #28
1000352e:	011b      	lsls	r3, r3, #4
10003530:	1ac0      	subs	r0, r0, r3
10003532:	41b9      	sbcs	r1, r7
10003534:	0c13      	lsrs	r3, r2, #16
10003536:	4373      	muls	r3, r6
10003538:	0b1f      	lsrs	r7, r3, #12
1000353a:	051b      	lsls	r3, r3, #20
1000353c:	1ac0      	subs	r0, r0, r3
1000353e:	41b9      	sbcs	r1, r7
10003540:	0d86      	lsrs	r6, r0, #22
10003542:	028f      	lsls	r7, r1, #10
10003544:	433e      	orrs	r6, r7
10003546:	4366      	muls	r6, r4
10003548:	0c36      	lsrs	r6, r6, #16
1000354a:	2d09      	cmp	r5, #9
1000354c:	db24      	blt.n	10003598 <last0>
1000354e:	0a52      	lsrs	r2, r2, #9
10003550:	4372      	muls	r2, r6
10003552:	1a80      	subs	r0, r0, r2
10003554:	0377      	lsls	r7, r6, #13
10003556:	0a46      	lsrs	r6, r0, #9
10003558:	4366      	muls	r6, r4
1000355a:	0c36      	lsrs	r6, r6, #16
1000355c:	2316      	movs	r3, #22
1000355e:	1b5b      	subs	r3, r3, r5
10003560:	40de      	lsrs	r6, r3
10003562:	40df      	lsrs	r7, r3
10003564:	19bf      	adds	r7, r7, r6
10003566:	4664      	mov	r4, ip
10003568:	4366      	muls	r6, r4
1000356a:	1b82      	subs	r2, r0, r6
1000356c:	4670      	mov	r0, lr
1000356e:	3504      	adds	r5, #4
10003570:	3306      	adds	r3, #6
10003572:	0001      	movs	r1, r0
10003574:	40d9      	lsrs	r1, r3
10003576:	40a8      	lsls	r0, r5
10003578:	19c0      	adds	r0, r0, r7
1000357a:	d300      	bcc.n	1000357e <y64_x32+0xb6>
1000357c:	3101      	adds	r1, #1
1000357e:	42a2      	cmp	r2, r4
10003580:	d206      	bcs.n	10003590 <y64_x32+0xc8>
10003582:	2300      	movs	r3, #0
10003584:	bdf0      	pop	{r4, r5, r6, r7, pc}
10003586:	0000      	.short	0x0000
10003588:	d0000000 	.word	0xd0000000
1000358c:	ffffffff 	.word	0xffffffff
10003590:	1b12      	subs	r2, r2, r4
10003592:	3001      	adds	r0, #1
10003594:	d3f3      	bcc.n	1000357e <y64_x32+0xb6>
10003596:	e7f1      	b.n	1000357c <y64_x32+0xb4>

10003598 <last0>:
10003598:	2709      	movs	r7, #9
1000359a:	1b7f      	subs	r7, r7, r5
1000359c:	40fe      	lsrs	r6, r7
1000359e:	4664      	mov	r4, ip
100035a0:	b2a2      	uxth	r2, r4
100035a2:	4372      	muls	r2, r6
100035a4:	1a80      	subs	r0, r0, r2
100035a6:	d200      	bcs.n	100035aa <last0+0x12>
100035a8:	3901      	subs	r1, #1
100035aa:	0c22      	lsrs	r2, r4, #16
100035ac:	4372      	muls	r2, r6
100035ae:	0c13      	lsrs	r3, r2, #16
100035b0:	0412      	lsls	r2, r2, #16
100035b2:	1a82      	subs	r2, r0, r2
100035b4:	4199      	sbcs	r1, r3
100035b6:	000b      	movs	r3, r1
100035b8:	4670      	mov	r0, lr
100035ba:	3504      	adds	r5, #4
100035bc:	3713      	adds	r7, #19
100035be:	0001      	movs	r1, r0
100035c0:	40f9      	lsrs	r1, r7
100035c2:	40a8      	lsls	r0, r5
100035c4:	1980      	adds	r0, r0, r6
100035c6:	d300      	bcc.n	100035ca <last0+0x32>
100035c8:	3101      	adds	r1, #1
100035ca:	2b00      	cmp	r3, #0
100035cc:	d102      	bne.n	100035d4 <last0+0x3c>
100035ce:	42a2      	cmp	r2, r4
100035d0:	d20a      	bcs.n	100035e8 <last0+0x50>
100035d2:	bdf0      	pop	{r4, r5, r6, r7, pc}
100035d4:	3001      	adds	r0, #1
100035d6:	d300      	bcc.n	100035da <last0+0x42>
100035d8:	3101      	adds	r1, #1
100035da:	1b12      	subs	r2, r2, r4
100035dc:	d2fa      	bcs.n	100035d4 <last0+0x3c>
100035de:	3b01      	subs	r3, #1
100035e0:	d1f8      	bne.n	100035d4 <last0+0x3c>
100035e2:	42a2      	cmp	r2, r4
100035e4:	d200      	bcs.n	100035e8 <last0+0x50>
100035e6:	bdf0      	pop	{r4, r5, r6, r7, pc}
100035e8:	3001      	adds	r0, #1
100035ea:	d300      	bcc.n	100035ee <last0+0x56>
100035ec:	3101      	adds	r1, #1
100035ee:	1b12      	subs	r2, r2, r4
100035f0:	e7f7      	b.n	100035e2 <last0+0x4a>

100035f2 <y64_x48>:
100035f2:	b5f0      	push	{r4, r5, r6, r7, lr}
100035f4:	0c1c      	lsrs	r4, r3, #16
100035f6:	d000      	beq.n	100035fa <y64_x48+0x8>
100035f8:	e080      	b.n	100036fc <y64_x64>
100035fa:	b40c      	push	{r2, r3}
100035fc:	2500      	movs	r5, #0
100035fe:	0a1c      	lsrs	r4, r3, #8
10003600:	d104      	bne.n	1000360c <y64_x48+0x1a>
10003602:	021b      	lsls	r3, r3, #8
10003604:	0e16      	lsrs	r6, r2, #24
10003606:	4333      	orrs	r3, r6
10003608:	0212      	lsls	r2, r2, #8
1000360a:	3508      	adds	r5, #8
1000360c:	0b1c      	lsrs	r4, r3, #12
1000360e:	d104      	bne.n	1000361a <y64_x48+0x28>
10003610:	011b      	lsls	r3, r3, #4
10003612:	0f16      	lsrs	r6, r2, #28
10003614:	4333      	orrs	r3, r6
10003616:	0112      	lsls	r2, r2, #4
10003618:	3504      	adds	r5, #4
1000361a:	0b9c      	lsrs	r4, r3, #14
1000361c:	d104      	bne.n	10003628 <y64_x48+0x36>
1000361e:	009b      	lsls	r3, r3, #2
10003620:	0f96      	lsrs	r6, r2, #30
10003622:	4333      	orrs	r3, r6
10003624:	0092      	lsls	r2, r2, #2
10003626:	3502      	adds	r5, #2
10003628:	0bdc      	lsrs	r4, r3, #15
1000362a:	d102      	bne.n	10003632 <y64_x48+0x40>
1000362c:	1892      	adds	r2, r2, r2
1000362e:	415b      	adcs	r3, r3
10003630:	3501      	adds	r5, #1
10003632:	001c      	movs	r4, r3
10003634:	1897      	adds	r7, r2, r2
10003636:	4164      	adcs	r4, r4
10003638:	3401      	adds	r4, #1
1000363a:	4f46      	ldr	r7, [pc, #280]	; (10003754 <y64_x64+0x58>)
1000363c:	667c      	str	r4, [r7, #100]	; 0x64
1000363e:	4c46      	ldr	r4, [pc, #280]	; (10003758 <y64_x64+0x5c>)
10003640:	663c      	str	r4, [r7, #96]	; 0x60
10003642:	0c0e      	lsrs	r6, r1, #16
10003644:	e7ff      	b.n	10003646 <y64_x48+0x54>
10003646:	e7ff      	b.n	10003648 <y64_x48+0x56>
10003648:	e7ff      	b.n	1000364a <y64_x48+0x58>
1000364a:	46c0      	nop			; (mov r8, r8)
1000364c:	6f3c      	ldr	r4, [r7, #112]	; 0x70
1000364e:	4366      	muls	r6, r4
10003650:	0c36      	lsrs	r6, r6, #16
10003652:	0377      	lsls	r7, r6, #13
10003654:	46be      	mov	lr, r7
10003656:	b297      	uxth	r7, r2
10003658:	4377      	muls	r7, r6
1000365a:	1bc0      	subs	r0, r0, r7
1000365c:	d200      	bcs.n	10003660 <y64_x48+0x6e>
1000365e:	3901      	subs	r1, #1
10003660:	1bc0      	subs	r0, r0, r7
10003662:	d200      	bcs.n	10003666 <y64_x48+0x74>
10003664:	3901      	subs	r1, #1
10003666:	b29f      	uxth	r7, r3
10003668:	4377      	muls	r7, r6
1000366a:	1bc9      	subs	r1, r1, r7
1000366c:	1bc9      	subs	r1, r1, r7
1000366e:	0c17      	lsrs	r7, r2, #16
10003670:	4377      	muls	r7, r6
10003672:	047e      	lsls	r6, r7, #17
10003674:	0bff      	lsrs	r7, r7, #15
10003676:	1b80      	subs	r0, r0, r6
10003678:	41b9      	sbcs	r1, r7
1000367a:	08ce      	lsrs	r6, r1, #3
1000367c:	4366      	muls	r6, r4
1000367e:	0c36      	lsrs	r6, r6, #16
10003680:	2d0c      	cmp	r5, #12
10003682:	db33      	blt.n	100036ec <last1>
10003684:	44b6      	add	lr, r6
10003686:	0b12      	lsrs	r2, r2, #12
10003688:	051f      	lsls	r7, r3, #20
1000368a:	433a      	orrs	r2, r7
1000368c:	0b1b      	lsrs	r3, r3, #12
1000368e:	b297      	uxth	r7, r2
10003690:	4377      	muls	r7, r6
10003692:	1bc0      	subs	r0, r0, r7
10003694:	d200      	bcs.n	10003698 <y64_x48+0xa6>
10003696:	3901      	subs	r1, #1
10003698:	b29f      	uxth	r7, r3
1000369a:	4377      	muls	r7, r6
1000369c:	1bc9      	subs	r1, r1, r7
1000369e:	0c17      	lsrs	r7, r2, #16
100036a0:	4377      	muls	r7, r6
100036a2:	043e      	lsls	r6, r7, #16
100036a4:	0c3f      	lsrs	r7, r7, #16
100036a6:	1b80      	subs	r0, r0, r6
100036a8:	41b9      	sbcs	r1, r7
100036aa:	0d86      	lsrs	r6, r0, #22
100036ac:	028f      	lsls	r7, r1, #10
100036ae:	433e      	orrs	r6, r7
100036b0:	4366      	muls	r6, r4
100036b2:	2729      	movs	r7, #41	; 0x29
100036b4:	1b7f      	subs	r7, r7, r5
100036b6:	40fe      	lsrs	r6, r7
100036b8:	3d0c      	subs	r5, #12
100036ba:	4677      	mov	r7, lr
100036bc:	40af      	lsls	r7, r5
100036be:	19bf      	adds	r7, r7, r6
100036c0:	bc30      	pop	{r4, r5}
100036c2:	b2a2      	uxth	r2, r4
100036c4:	b2ab      	uxth	r3, r5
100036c6:	4372      	muls	r2, r6
100036c8:	4373      	muls	r3, r6
100036ca:	1a80      	subs	r0, r0, r2
100036cc:	4199      	sbcs	r1, r3
100036ce:	0c22      	lsrs	r2, r4, #16
100036d0:	4372      	muls	r2, r6
100036d2:	0c13      	lsrs	r3, r2, #16
100036d4:	0412      	lsls	r2, r2, #16
100036d6:	1a80      	subs	r0, r0, r2
100036d8:	4199      	sbcs	r1, r3
100036da:	0002      	movs	r2, r0
100036dc:	000b      	movs	r3, r1
100036de:	3701      	adds	r7, #1
100036e0:	1b00      	subs	r0, r0, r4
100036e2:	41a9      	sbcs	r1, r5
100036e4:	d2f9      	bcs.n	100036da <y64_x48+0xe8>
100036e6:	1e78      	subs	r0, r7, #1
100036e8:	2100      	movs	r1, #0
100036ea:	bdf0      	pop	{r4, r5, r6, r7, pc}

100036ec <last1>:
100036ec:	270c      	movs	r7, #12
100036ee:	1b7f      	subs	r7, r7, r5
100036f0:	40fe      	lsrs	r6, r7
100036f2:	4677      	mov	r7, lr
100036f4:	0b7f      	lsrs	r7, r7, #13
100036f6:	40af      	lsls	r7, r5
100036f8:	19ff      	adds	r7, r7, r7
100036fa:	e7e0      	b.n	100036be <y64_x48+0xcc>

100036fc <y64_x64>:
100036fc:	2400      	movs	r4, #0
100036fe:	1c5d      	adds	r5, r3, #1
10003700:	d007      	beq.n	10003712 <y64_x64+0x16>
10003702:	4f14      	ldr	r7, [pc, #80]	; (10003754 <y64_x64+0x58>)
10003704:	667d      	str	r5, [r7, #100]	; 0x64
10003706:	6639      	str	r1, [r7, #96]	; 0x60
10003708:	e7ff      	b.n	1000370a <y64_x64+0xe>
1000370a:	e7ff      	b.n	1000370c <y64_x64+0x10>
1000370c:	e7ff      	b.n	1000370e <y64_x64+0x12>
1000370e:	e7ff      	b.n	10003710 <y64_x64+0x14>
10003710:	6f3c      	ldr	r4, [r7, #112]	; 0x70
10003712:	b295      	uxth	r5, r2
10003714:	b29e      	uxth	r6, r3
10003716:	4365      	muls	r5, r4
10003718:	4366      	muls	r6, r4
1000371a:	1b40      	subs	r0, r0, r5
1000371c:	41b1      	sbcs	r1, r6
1000371e:	0c15      	lsrs	r5, r2, #16
10003720:	0c1e      	lsrs	r6, r3, #16
10003722:	4365      	muls	r5, r4
10003724:	4366      	muls	r6, r4
10003726:	0436      	lsls	r6, r6, #16
10003728:	0c2f      	lsrs	r7, r5, #16
1000372a:	433e      	orrs	r6, r7
1000372c:	042d      	lsls	r5, r5, #16
1000372e:	1b40      	subs	r0, r0, r5
10003730:	41b1      	sbcs	r1, r6
10003732:	4299      	cmp	r1, r3
10003734:	d204      	bcs.n	10003740 <y64_x64+0x44>
10003736:	0002      	movs	r2, r0
10003738:	000b      	movs	r3, r1
1000373a:	0020      	movs	r0, r4
1000373c:	2100      	movs	r1, #0
1000373e:	bdf0      	pop	{r4, r5, r6, r7, pc}
10003740:	d101      	bne.n	10003746 <y64_x64+0x4a>
10003742:	4290      	cmp	r0, r2
10003744:	d3f7      	bcc.n	10003736 <y64_x64+0x3a>
10003746:	1a80      	subs	r0, r0, r2
10003748:	4199      	sbcs	r1, r3
1000374a:	3401      	adds	r4, #1
1000374c:	4299      	cmp	r1, r3
1000374e:	d3f2      	bcc.n	10003736 <y64_x64+0x3a>
10003750:	e7f6      	b.n	10003740 <y64_x64+0x44>
10003752:	0000      	.short	0x0000
10003754:	d0000000 	.word	0xd0000000
10003758:	ffffffff 	.word	0xffffffff

1000375c <__wrap___aeabi_drsub>:
1000375c:	4048      	eors	r0, r1
1000375e:	4041      	eors	r1, r0
10003760:	4048      	eors	r0, r1

10003762 <__wrap___aeabi_dsub>:
10003762:	b418      	push	{r3, r4}
10003764:	4b11      	ldr	r3, [pc, #68]	; (100037ac <__wrap___aeabi_dmul+0x14>)
10003766:	685b      	ldr	r3, [r3, #4]
10003768:	46fc      	mov	ip, pc
1000376a:	9301      	str	r3, [sp, #4]
1000376c:	bd08      	pop	{r3, pc}
1000376e:	df04      	.short	0xdf04
10003770:	100039e7 	.word	0x100039e7

10003774 <__wrap___aeabi_dadd>:
10003774:	b418      	push	{r3, r4}
10003776:	4b0d      	ldr	r3, [pc, #52]	; (100037ac <__wrap___aeabi_dmul+0x14>)
10003778:	681b      	ldr	r3, [r3, #0]
1000377a:	46fc      	mov	ip, pc
1000377c:	9301      	str	r3, [sp, #4]
1000377e:	bd08      	pop	{r3, pc}
10003780:	39f1df00 	.word	0x39f1df00
10003784:	1000      	.short	0x1000

10003786 <__wrap___aeabi_ddiv>:
10003786:	b418      	push	{r3, r4}
10003788:	4b08      	ldr	r3, [pc, #32]	; (100037ac <__wrap___aeabi_dmul+0x14>)
1000378a:	68db      	ldr	r3, [r3, #12]
1000378c:	46fc      	mov	ip, pc
1000378e:	9301      	str	r3, [sp, #4]
10003790:	bd08      	pop	{r3, pc}
10003792:	df0c      	.short	0xdf0c
10003794:	10003ca9 	.word	0x10003ca9

10003798 <__wrap___aeabi_dmul>:
10003798:	b418      	push	{r3, r4}
1000379a:	4b04      	ldr	r3, [pc, #16]	; (100037ac <__wrap___aeabi_dmul+0x14>)
1000379c:	689b      	ldr	r3, [r3, #8]
1000379e:	46fc      	mov	ip, pc
100037a0:	9301      	str	r3, [sp, #4]
100037a2:	bd08      	pop	{r3, pc}
100037a4:	3b4ddf08 	.word	0x3b4ddf08
100037a8:	00001000 	.word	0x00001000
100037ac:	20000be0 	.word	0x20000be0

100037b0 <__wrap___aeabi_cdrcmple>:
100037b0:	b5ff      	push	{r0, r1, r2, r3, r4, r5, r6, r7, lr}
100037b2:	4050      	eors	r0, r2
100037b4:	4042      	eors	r2, r0
100037b6:	4050      	eors	r0, r2
100037b8:	4059      	eors	r1, r3
100037ba:	404b      	eors	r3, r1
100037bc:	4059      	eors	r1, r3
100037be:	e000      	b.n	100037c2 <__aeabi_dfcmple_guts>

100037c0 <__wrap___aeabi_cdcmpeq>:
100037c0:	b5ff      	push	{r0, r1, r2, r3, r4, r5, r6, r7, lr}

100037c2 <__aeabi_dfcmple_guts>:
100037c2:	4f15      	ldr	r7, [pc, #84]	; (10003818 <__aeabi_dfcmple_guts+0x56>)
100037c4:	004c      	lsls	r4, r1, #1
100037c6:	0d64      	lsrs	r4, r4, #21
100037c8:	d003      	beq.n	100037d2 <__aeabi_dfcmple_guts+0x10>
100037ca:	42bc      	cmp	r4, r7
100037cc:	d104      	bne.n	100037d8 <__aeabi_dfcmple_guts+0x16>
100037ce:	030c      	lsls	r4, r1, #12
100037d0:	d814      	bhi.n	100037fc <__aeabi_dfcmple_guts+0x3a>
100037d2:	2000      	movs	r0, #0
100037d4:	0d09      	lsrs	r1, r1, #20
100037d6:	0509      	lsls	r1, r1, #20
100037d8:	005c      	lsls	r4, r3, #1
100037da:	0d64      	lsrs	r4, r4, #21
100037dc:	d003      	beq.n	100037e6 <__aeabi_dfcmple_guts+0x24>
100037de:	42bc      	cmp	r4, r7
100037e0:	d104      	bne.n	100037ec <__aeabi_dfcmple_guts+0x2a>
100037e2:	031c      	lsls	r4, r3, #12
100037e4:	d80a      	bhi.n	100037fc <__aeabi_dfcmple_guts+0x3a>
100037e6:	2200      	movs	r2, #0
100037e8:	0d1b      	lsrs	r3, r3, #20
100037ea:	051b      	lsls	r3, r3, #20
100037ec:	2601      	movs	r6, #1
100037ee:	404b      	eors	r3, r1
100037f0:	d409      	bmi.n	10003806 <__aeabi_dfcmple_guts+0x44>
100037f2:	404b      	eors	r3, r1
100037f4:	d503      	bpl.n	100037fe <__aeabi_dfcmple_guts+0x3c>
100037f6:	428b      	cmp	r3, r1
100037f8:	d100      	bne.n	100037fc <__aeabi_dfcmple_guts+0x3a>
100037fa:	4282      	cmp	r2, r0
100037fc:	bdff      	pop	{r0, r1, r2, r3, r4, r5, r6, r7, pc}
100037fe:	4299      	cmp	r1, r3
10003800:	d1fc      	bne.n	100037fc <__aeabi_dfcmple_guts+0x3a>
10003802:	4290      	cmp	r0, r2
10003804:	bdff      	pop	{r0, r1, r2, r3, r4, r5, r6, r7, pc}
10003806:	430b      	orrs	r3, r1
10003808:	18db      	adds	r3, r3, r3
1000380a:	4303      	orrs	r3, r0
1000380c:	4313      	orrs	r3, r2
1000380e:	d0f5      	beq.n	100037fc <__aeabi_dfcmple_guts+0x3a>
10003810:	43c9      	mvns	r1, r1
10003812:	1849      	adds	r1, r1, r1
10003814:	bdff      	pop	{r0, r1, r2, r3, r4, r5, r6, r7, pc}
10003816:	0000      	.short	0x0000
10003818:	000007ff 	.word	0x000007ff

1000381c <__wrap___aeabi_dcmplt>:
1000381c:	b500      	push	{lr}
1000381e:	f7ff ffcf 	bl	100037c0 <__wrap___aeabi_cdcmpeq>
10003822:	4180      	sbcs	r0, r0
10003824:	bd00      	pop	{pc}
10003826:	46c0      	nop			; (mov r8, r8)

10003828 <__wrap___aeabi_dcmple>:
10003828:	b500      	push	{lr}
1000382a:	f7ff ffc9 	bl	100037c0 <__wrap___aeabi_cdcmpeq>
1000382e:	d901      	bls.n	10003834 <__wrap___aeabi_dcmple+0xc>
10003830:	2000      	movs	r0, #0
10003832:	bd00      	pop	{pc}
10003834:	2001      	movs	r0, #1
10003836:	bd00      	pop	{pc}

10003838 <__wrap___aeabi_dcmpge>:
10003838:	b500      	push	{lr}
1000383a:	f7ff ffb9 	bl	100037b0 <__wrap___aeabi_cdrcmple>
1000383e:	d901      	bls.n	10003844 <__wrap___aeabi_dcmpge+0xc>
10003840:	2000      	movs	r0, #0
10003842:	bd00      	pop	{pc}
10003844:	2001      	movs	r0, #1
10003846:	bd00      	pop	{pc}

10003848 <__wrap___aeabi_dcmpgt>:
10003848:	b500      	push	{lr}
1000384a:	f7ff ffb1 	bl	100037b0 <__wrap___aeabi_cdrcmple>
1000384e:	4180      	sbcs	r0, r0
10003850:	bd00      	pop	{pc}

10003852 <__wrap___aeabi_dcmpun>:
10003852:	2001      	movs	r0, #1
10003854:	0540      	lsls	r0, r0, #21
10003856:	004a      	lsls	r2, r1, #1
10003858:	1812      	adds	r2, r2, r0
1000385a:	d804      	bhi.n	10003866 <__wrap___aeabi_dcmpun+0x14>
1000385c:	005a      	lsls	r2, r3, #1
1000385e:	1812      	adds	r2, r2, r0
10003860:	d801      	bhi.n	10003866 <__wrap___aeabi_dcmpun+0x14>
10003862:	2000      	movs	r0, #0
10003864:	4770      	bx	lr
10003866:	2001      	movs	r0, #1
10003868:	4770      	bx	lr
1000386a:	2000      	movs	r0, #0
1000386c:	4770      	bx	lr
	...

10003870 <__wrap___aeabi_ui2d>:
10003870:	2100      	movs	r1, #0
10003872:	2800      	cmp	r0, #0
10003874:	d105      	bne.n	10003882 <__wrap___aeabi_i2d+0xa>
10003876:	4770      	bx	lr

10003878 <__wrap___aeabi_i2d>:
10003878:	17c1      	asrs	r1, r0, #31
1000387a:	4048      	eors	r0, r1
1000387c:	1a40      	subs	r0, r0, r1
1000387e:	d0fa      	beq.n	10003876 <__wrap___aeabi_ui2d+0x6>
10003880:	07c9      	lsls	r1, r1, #31
10003882:	b513      	push	{r0, r1, r4, lr}
10003884:	4b06      	ldr	r3, [pc, #24]	; (100038a0 <__wrap___aeabi_i2d+0x28>)
10003886:	681b      	ldr	r3, [r3, #0]
10003888:	4798      	blx	r3
1000388a:	bc0c      	pop	{r2, r3}
1000388c:	1c44      	adds	r4, r0, #1
1000388e:	40a2      	lsls	r2, r4
10003890:	0510      	lsls	r0, r2, #20
10003892:	0b12      	lsrs	r2, r2, #12
10003894:	4903      	ldr	r1, [pc, #12]	; (100038a4 <__wrap___aeabi_i2d+0x2c>)
10003896:	1b09      	subs	r1, r1, r4
10003898:	0509      	lsls	r1, r1, #20
1000389a:	4319      	orrs	r1, r3
1000389c:	4311      	orrs	r1, r2
1000389e:	bd10      	pop	{r4, pc}
100038a0:	20000de0 	.word	0x20000de0
100038a4:	0000041f 	.word	0x0000041f

100038a8 <__wrap___aeabi_d2iz>:
100038a8:	b510      	push	{r4, lr}
100038aa:	004c      	lsls	r4, r1, #1
100038ac:	0d62      	lsrs	r2, r4, #21
100038ae:	2380      	movs	r3, #128	; 0x80
100038b0:	18d2      	adds	r2, r2, r3
100038b2:	00db      	lsls	r3, r3, #3
100038b4:	1ad2      	subs	r2, r2, r3
100038b6:	055b      	lsls	r3, r3, #21
100038b8:	2a7e      	cmp	r2, #126	; 0x7e
100038ba:	dd10      	ble.n	100038de <__wrap___aeabi_d2iz+0x36>
100038bc:	3a9e      	subs	r2, #158	; 0x9e
100038be:	da13      	bge.n	100038e8 <__wrap___aeabi_d2iz+0x40>
100038c0:	17cc      	asrs	r4, r1, #31
100038c2:	0309      	lsls	r1, r1, #12
100038c4:	0849      	lsrs	r1, r1, #1
100038c6:	4319      	orrs	r1, r3
100038c8:	4252      	negs	r2, r2
100038ca:	40d1      	lsrs	r1, r2
100038cc:	0064      	lsls	r4, r4, #1
100038ce:	3401      	adds	r4, #1
100038d0:	3215      	adds	r2, #21
100038d2:	2a20      	cmp	r2, #32
100038d4:	da05      	bge.n	100038e2 <__wrap___aeabi_d2iz+0x3a>
100038d6:	40d0      	lsrs	r0, r2
100038d8:	4308      	orrs	r0, r1
100038da:	4360      	muls	r0, r4
100038dc:	bd10      	pop	{r4, pc}
100038de:	2000      	movs	r0, #0
100038e0:	bd10      	pop	{r4, pc}
100038e2:	4608      	mov	r0, r1
100038e4:	4360      	muls	r0, r4
100038e6:	bd10      	pop	{r4, pc}
100038e8:	0fc8      	lsrs	r0, r1, #31
100038ea:	18c0      	adds	r0, r0, r3
100038ec:	3801      	subs	r0, #1
100038ee:	bd10      	pop	{r4, pc}

100038f0 <__wrap___aeabi_d2uiz>:
100038f0:	b418      	push	{r3, r4}
100038f2:	4b04      	ldr	r3, [pc, #16]	; (10003904 <__wrap___aeabi_d2uiz+0x14>)
100038f4:	6a5b      	ldr	r3, [r3, #36]	; 0x24
100038f6:	46fc      	mov	ip, pc
100038f8:	9301      	str	r3, [sp, #4]
100038fa:	bd08      	pop	{r3, pc}
100038fc:	3ed5df24 	.word	0x3ed5df24
10003900:	00001000 	.word	0x00001000
10003904:	20000be0 	.word	0x20000be0

10003908 <__aeabi_double_init>:
10003908:	2313      	movs	r3, #19
1000390a:	b570      	push	{r4, r5, r6, lr}
1000390c:	781d      	ldrb	r5, [r3, #0]
1000390e:	2d01      	cmp	r5, #1
10003910:	d010      	beq.n	10003934 <__aeabi_double_init+0x2c>
10003912:	dd0b      	ble.n	1000392c <__aeabi_double_init+0x24>
10003914:	4824      	ldr	r0, [pc, #144]	; (100039a8 <__aeabi_double_init+0xa0>)
10003916:	f7ff fc8d 	bl	10003234 <rom_data_lookup>
1000391a:	4c24      	ldr	r4, [pc, #144]	; (100039ac <__aeabi_double_init+0xa4>)
1000391c:	0001      	movs	r1, r0
1000391e:	2280      	movs	r2, #128	; 0x80
10003920:	0020      	movs	r0, r4
10003922:	f000 fbab 	bl	1000407c <__wrap___aeabi_memcpy>
10003926:	2d02      	cmp	r5, #2
10003928:	d001      	beq.n	1000392e <__aeabi_double_init+0x26>
1000392a:	bd70      	pop	{r4, r5, r6, pc}
1000392c:	4c1f      	ldr	r4, [pc, #124]	; (100039ac <__aeabi_double_init+0xa4>)
1000392e:	4a20      	ldr	r2, [pc, #128]	; (100039b0 <__aeabi_double_init+0xa8>)
10003930:	64a2      	str	r2, [r4, #72]	; 0x48
10003932:	e7fa      	b.n	1000392a <__aeabi_double_init+0x22>
10003934:	002e      	movs	r6, r5
10003936:	4c1d      	ldr	r4, [pc, #116]	; (100039ac <__aeabi_double_init+0xa4>)
10003938:	4a1d      	ldr	r2, [pc, #116]	; (100039b0 <__aeabi_double_init+0xa8>)
1000393a:	08a3      	lsrs	r3, r4, #2
1000393c:	425b      	negs	r3, r3
1000393e:	401e      	ands	r6, r3
10003940:	421d      	tst	r5, r3
10003942:	d02f      	beq.n	100039a4 <__aeabi_double_init+0x9c>
10003944:	0033      	movs	r3, r6
10003946:	6022      	str	r2, [r4, #0]
10003948:	2020      	movs	r0, #32
1000394a:	00b1      	lsls	r1, r6, #2
1000394c:	1861      	adds	r1, r4, r1
1000394e:	1b80      	subs	r0, r0, r6
10003950:	600a      	str	r2, [r1, #0]
10003952:	604a      	str	r2, [r1, #4]
10003954:	608a      	str	r2, [r1, #8]
10003956:	60ca      	str	r2, [r1, #12]
10003958:	610a      	str	r2, [r1, #16]
1000395a:	614a      	str	r2, [r1, #20]
1000395c:	618a      	str	r2, [r1, #24]
1000395e:	61ca      	str	r2, [r1, #28]
10003960:	620a      	str	r2, [r1, #32]
10003962:	624a      	str	r2, [r1, #36]	; 0x24
10003964:	628a      	str	r2, [r1, #40]	; 0x28
10003966:	62ca      	str	r2, [r1, #44]	; 0x2c
10003968:	630a      	str	r2, [r1, #48]	; 0x30
1000396a:	634a      	str	r2, [r1, #52]	; 0x34
1000396c:	638a      	str	r2, [r1, #56]	; 0x38
1000396e:	63ca      	str	r2, [r1, #60]	; 0x3c
10003970:	640a      	str	r2, [r1, #64]	; 0x40
10003972:	644a      	str	r2, [r1, #68]	; 0x44
10003974:	648a      	str	r2, [r1, #72]	; 0x48
10003976:	64ca      	str	r2, [r1, #76]	; 0x4c
10003978:	650a      	str	r2, [r1, #80]	; 0x50
1000397a:	654a      	str	r2, [r1, #84]	; 0x54
1000397c:	658a      	str	r2, [r1, #88]	; 0x58
1000397e:	65ca      	str	r2, [r1, #92]	; 0x5c
10003980:	660a      	str	r2, [r1, #96]	; 0x60
10003982:	664a      	str	r2, [r1, #100]	; 0x64
10003984:	668a      	str	r2, [r1, #104]	; 0x68
10003986:	66ca      	str	r2, [r1, #108]	; 0x6c
10003988:	670a      	str	r2, [r1, #112]	; 0x70
1000398a:	674a      	str	r2, [r1, #116]	; 0x74
1000398c:	0840      	lsrs	r0, r0, #1
1000398e:	2810      	cmp	r0, #16
10003990:	d103      	bne.n	1000399a <__aeabi_double_init+0x92>
10003992:	678a      	str	r2, [r1, #120]	; 0x78
10003994:	67ca      	str	r2, [r1, #124]	; 0x7c
10003996:	64a2      	str	r2, [r4, #72]	; 0x48
10003998:	e7c7      	b.n	1000392a <__aeabi_double_init+0x22>
1000399a:	331e      	adds	r3, #30
1000399c:	009b      	lsls	r3, r3, #2
1000399e:	50e2      	str	r2, [r4, r3]
100039a0:	64a2      	str	r2, [r4, #72]	; 0x48
100039a2:	e7c2      	b.n	1000392a <__aeabi_double_init+0x22>
100039a4:	2300      	movs	r3, #0
100039a6:	e7cf      	b.n	10003948 <__aeabi_double_init+0x40>
100039a8:	00004453 	.word	0x00004453
100039ac:	20000be0 	.word	0x20000be0
100039b0:	100039b5 	.word	0x100039b5

100039b4 <double_table_shim_on_use_helper>:
100039b4:	b507      	push	{r0, r1, r2, lr}
100039b6:	4660      	mov	r0, ip
100039b8:	8801      	ldrh	r1, [r0, #0]
100039ba:	0a0a      	lsrs	r2, r1, #8
100039bc:	3002      	adds	r0, #2
100039be:	2adf      	cmp	r2, #223	; 0xdf
100039c0:	d1fa      	bne.n	100039b8 <double_table_shim_on_use_helper+0x4>
100039c2:	b2c9      	uxtb	r1, r1
100039c4:	0882      	lsrs	r2, r0, #2
100039c6:	d304      	bcc.n	100039d2 <double_table_shim_on_use_helper+0x1e>
100039c8:	8802      	ldrh	r2, [r0, #0]
100039ca:	8840      	ldrh	r0, [r0, #2]
100039cc:	0400      	lsls	r0, r0, #16
100039ce:	4310      	orrs	r0, r2
100039d0:	e000      	b.n	100039d4 <double_table_shim_on_use_helper+0x20>
100039d2:	6800      	ldr	r0, [r0, #0]
100039d4:	4a01      	ldr	r2, [pc, #4]	; (100039dc <double_table_shim_on_use_helper+0x28>)
100039d6:	5050      	str	r0, [r2, r1]
100039d8:	9003      	str	r0, [sp, #12]
100039da:	bd07      	pop	{r0, r1, r2, pc}
100039dc:	20000be0 	.word	0x20000be0

100039e0 <drsub_shim>:
100039e0:	b40f      	push	{r0, r1, r2, r3}
100039e2:	bc03      	pop	{r0, r1}
100039e4:	bc0c      	pop	{r2, r3}

100039e6 <dsub_shim>:
100039e6:	b5f0      	push	{r4, r5, r6, r7, lr}
100039e8:	2401      	movs	r4, #1
100039ea:	07e4      	lsls	r4, r4, #31
100039ec:	4063      	eors	r3, r4
100039ee:	e000      	b.n	100039f2 <da_entry>

100039f0 <dadd_shim>:
100039f0:	b5f0      	push	{r4, r5, r6, r7, lr}

100039f2 <da_entry>:
100039f2:	0d0c      	lsrs	r4, r1, #20
100039f4:	0fcf      	lsrs	r7, r1, #31
100039f6:	1e66      	subs	r6, r4, #1
100039f8:	0536      	lsls	r6, r6, #20
100039fa:	1b89      	subs	r1, r1, r6
100039fc:	0564      	lsls	r4, r4, #21
100039fe:	d303      	bcc.n	10003a08 <l7_1>
10003a00:	43c9      	mvns	r1, r1
10003a02:	4240      	negs	r0, r0
10003a04:	d300      	bcc.n	10003a08 <l7_1>
10003a06:	3101      	adds	r1, #1

10003a08 <l7_1>:
10003a08:	0d64      	lsrs	r4, r4, #21
10003a0a:	d003      	beq.n	10003a14 <l7_2>
10003a0c:	1c66      	adds	r6, r4, #1
10003a0e:	0af6      	lsrs	r6, r6, #11
10003a10:	d007      	beq.n	10003a22 <l7_3>
10003a12:	1be4      	subs	r4, r4, r7

10003a14 <l7_2>:
10003a14:	2000      	movs	r0, #0
10003a16:	007f      	lsls	r7, r7, #1
10003a18:	1c79      	adds	r1, r7, #1
10003a1a:	0789      	lsls	r1, r1, #30
10003a1c:	1289      	asrs	r1, r1, #10
10003a1e:	3c80      	subs	r4, #128	; 0x80
10003a20:	0324      	lsls	r4, r4, #12

10003a22 <l7_3>:
10003a22:	0d1d      	lsrs	r5, r3, #20
10003a24:	0fdf      	lsrs	r7, r3, #31
10003a26:	1e6e      	subs	r6, r5, #1
10003a28:	0536      	lsls	r6, r6, #20
10003a2a:	1b9b      	subs	r3, r3, r6
10003a2c:	056d      	lsls	r5, r5, #21
10003a2e:	d303      	bcc.n	10003a38 <l8_1>
10003a30:	43db      	mvns	r3, r3
10003a32:	4252      	negs	r2, r2
10003a34:	d300      	bcc.n	10003a38 <l8_1>
10003a36:	3301      	adds	r3, #1

10003a38 <l8_1>:
10003a38:	0d6d      	lsrs	r5, r5, #21
10003a3a:	d003      	beq.n	10003a44 <l8_2>
10003a3c:	1c6e      	adds	r6, r5, #1
10003a3e:	0af6      	lsrs	r6, r6, #11
10003a40:	d007      	beq.n	10003a52 <l8_3>
10003a42:	1bed      	subs	r5, r5, r7

10003a44 <l8_2>:
10003a44:	2200      	movs	r2, #0
10003a46:	007f      	lsls	r7, r7, #1
10003a48:	1c7b      	adds	r3, r7, #1
10003a4a:	079b      	lsls	r3, r3, #30
10003a4c:	129b      	asrs	r3, r3, #10
10003a4e:	3d80      	subs	r5, #128	; 0x80
10003a50:	032d      	lsls	r5, r5, #12

10003a52 <l8_3>:
10003a52:	1b2f      	subs	r7, r5, r4
10003a54:	1b66      	subs	r6, r4, r5
10003a56:	d458      	bmi.n	10003b0a <da_ygtx>
10003a58:	46a4      	mov	ip, r4
10003a5a:	2e20      	cmp	r6, #32
10003a5c:	da46      	bge.n	10003aec <da_xrgty>
10003a5e:	3720      	adds	r7, #32
10003a60:	0014      	movs	r4, r2
10003a62:	40bc      	lsls	r4, r7

10003a64 <da_xgty0>:
10003a64:	001d      	movs	r5, r3
10003a66:	40bd      	lsls	r5, r7
10003a68:	40f2      	lsrs	r2, r6
10003a6a:	4133      	asrs	r3, r6
10003a6c:	432a      	orrs	r2, r5

10003a6e <da_add>:
10003a6e:	1880      	adds	r0, r0, r2
10003a70:	4159      	adcs	r1, r3

10003a72 <da_pack>:
10003a72:	0fcb      	lsrs	r3, r1, #31
10003a74:	d005      	beq.n	10003a82 <da_pack+0x10>
10003a76:	43c9      	mvns	r1, r1
10003a78:	43c0      	mvns	r0, r0
10003a7a:	2200      	movs	r2, #0
10003a7c:	4264      	negs	r4, r4
10003a7e:	4150      	adcs	r0, r2
10003a80:	4151      	adcs	r1, r2
10003a82:	4662      	mov	r2, ip
10003a84:	0d4d      	lsrs	r5, r1, #21
10003a86:	d128      	bne.n	10003ada <da_0>
10003a88:	0d0d      	lsrs	r5, r1, #20
10003a8a:	d107      	bne.n	10003a9c <da_1>
10003a8c:	2800      	cmp	r0, #0
10003a8e:	d01f      	beq.n	10003ad0 <da_5>

10003a90 <da_2>:
10003a90:	1924      	adds	r4, r4, r4
10003a92:	4140      	adcs	r0, r0
10003a94:	4149      	adcs	r1, r1
10003a96:	3a01      	subs	r2, #1
10003a98:	0d0d      	lsrs	r5, r1, #20
10003a9a:	d0f9      	beq.n	10003a90 <da_2>

10003a9c <da_1>:
10003a9c:	0064      	lsls	r4, r4, #1
10003a9e:	d306      	bcc.n	10003aae <da_3>

10003aa0 <da_4>:
10003aa0:	3001      	adds	r0, #1
10003aa2:	d300      	bcc.n	10003aa6 <da_4+0x6>
10003aa4:	3101      	adds	r1, #1
10003aa6:	2c00      	cmp	r4, #0
10003aa8:	d101      	bne.n	10003aae <da_3>
10003aaa:	0840      	lsrs	r0, r0, #1
10003aac:	0040      	lsls	r0, r0, #1

10003aae <da_3>:
10003aae:	3a01      	subs	r2, #1
10003ab0:	d40b      	bmi.n	10003aca <da_6>
10003ab2:	1c94      	adds	r4, r2, #2
10003ab4:	0ae4      	lsrs	r4, r4, #11
10003ab6:	d104      	bne.n	10003ac2 <da_7>
10003ab8:	0512      	lsls	r2, r2, #20
10003aba:	4411      	add	r1, r2
10003abc:	07db      	lsls	r3, r3, #31
10003abe:	4419      	add	r1, r3
10003ac0:	bdf0      	pop	{r4, r5, r6, r7, pc}

10003ac2 <da_7>:
10003ac2:	07d9      	lsls	r1, r3, #31
10003ac4:	4b20      	ldr	r3, [pc, #128]	; (10003b48 <da_xmgty+0x4>)
10003ac6:	4319      	orrs	r1, r3
10003ac8:	e000      	b.n	10003acc <da_6+0x2>

10003aca <da_6>:
10003aca:	07d9      	lsls	r1, r3, #31
10003acc:	2000      	movs	r0, #0
10003ace:	bdf0      	pop	{r4, r5, r6, r7, pc}

10003ad0 <da_5>:
10003ad0:	2900      	cmp	r1, #0
10003ad2:	d1dd      	bne.n	10003a90 <da_2>
10003ad4:	2c00      	cmp	r4, #0
10003ad6:	d1db      	bne.n	10003a90 <da_2>
10003ad8:	bdf0      	pop	{r4, r5, r6, r7, pc}

10003ada <da_0>:
10003ada:	3201      	adds	r2, #1
10003adc:	07c6      	lsls	r6, r0, #31
10003ade:	0840      	lsrs	r0, r0, #1
10003ae0:	07cd      	lsls	r5, r1, #31
10003ae2:	4328      	orrs	r0, r5
10003ae4:	0849      	lsrs	r1, r1, #1
10003ae6:	2e00      	cmp	r6, #0
10003ae8:	d0e1      	beq.n	10003aae <da_3>
10003aea:	e7d9      	b.n	10003aa0 <da_4>

10003aec <da_xrgty>:
10003aec:	2e3c      	cmp	r6, #60	; 0x3c
10003aee:	da29      	bge.n	10003b44 <da_xmgty>
10003af0:	3e20      	subs	r6, #32
10003af2:	3740      	adds	r7, #64	; 0x40
10003af4:	0014      	movs	r4, r2
10003af6:	40bc      	lsls	r4, r7
10003af8:	d000      	beq.n	10003afc <da_xrgty+0x10>
10003afa:	2401      	movs	r4, #1
10003afc:	40f2      	lsrs	r2, r6
10003afe:	4314      	orrs	r4, r2
10003b00:	001a      	movs	r2, r3
10003b02:	40bb      	lsls	r3, r7
10003b04:	431c      	orrs	r4, r3
10003b06:	17d3      	asrs	r3, r2, #31
10003b08:	e7ac      	b.n	10003a64 <da_xgty0>

10003b0a <da_ygtx>:
10003b0a:	46ac      	mov	ip, r5
10003b0c:	2f20      	cmp	r7, #32
10003b0e:	da08      	bge.n	10003b22 <da_yrgtx>
10003b10:	3620      	adds	r6, #32
10003b12:	0004      	movs	r4, r0
10003b14:	40b4      	lsls	r4, r6

10003b16 <da_ygtx0>:
10003b16:	000d      	movs	r5, r1
10003b18:	40b5      	lsls	r5, r6
10003b1a:	40f8      	lsrs	r0, r7
10003b1c:	4139      	asrs	r1, r7
10003b1e:	4328      	orrs	r0, r5
10003b20:	e7a5      	b.n	10003a6e <da_add>

10003b22 <da_yrgtx>:
10003b22:	2f3c      	cmp	r7, #60	; 0x3c
10003b24:	da0c      	bge.n	10003b40 <da_ymgtx>
10003b26:	3f20      	subs	r7, #32
10003b28:	3640      	adds	r6, #64	; 0x40
10003b2a:	0004      	movs	r4, r0
10003b2c:	40b4      	lsls	r4, r6
10003b2e:	d000      	beq.n	10003b32 <da_yrgtx+0x10>
10003b30:	2401      	movs	r4, #1
10003b32:	40f8      	lsrs	r0, r7
10003b34:	4304      	orrs	r4, r0
10003b36:	0008      	movs	r0, r1
10003b38:	40b1      	lsls	r1, r6
10003b3a:	430c      	orrs	r4, r1
10003b3c:	17c1      	asrs	r1, r0, #31
10003b3e:	e7ea      	b.n	10003b16 <da_ygtx0>

10003b40 <da_ymgtx>:
10003b40:	0010      	movs	r0, r2
10003b42:	0019      	movs	r1, r3

10003b44 <da_xmgty>:
10003b44:	2400      	movs	r4, #0
10003b46:	e794      	b.n	10003a72 <da_pack>
10003b48:	7ff00000 	.word	0x7ff00000

10003b4c <dmul_shim>:
10003b4c:	b5f0      	push	{r4, r5, r6, r7, lr}
10003b4e:	0d0c      	lsrs	r4, r1, #20
10003b50:	1e66      	subs	r6, r4, #1
10003b52:	0536      	lsls	r6, r6, #20
10003b54:	1b89      	subs	r1, r1, r6
10003b56:	0ae6      	lsrs	r6, r4, #11
10003b58:	0564      	lsls	r4, r4, #21
10003b5a:	0d64      	lsrs	r4, r4, #21
10003b5c:	d002      	beq.n	10003b64 <l11_1>
10003b5e:	1c65      	adds	r5, r4, #1
10003b60:	0aed      	lsrs	r5, r5, #11
10003b62:	d004      	beq.n	10003b6e <l11_2>

10003b64 <l11_1>:
10003b64:	2000      	movs	r0, #0
10003b66:	2101      	movs	r1, #1
10003b68:	0509      	lsls	r1, r1, #20
10003b6a:	3c80      	subs	r4, #128	; 0x80
10003b6c:	0324      	lsls	r4, r4, #12

10003b6e <l11_2>:
10003b6e:	46a4      	mov	ip, r4
10003b70:	0d1c      	lsrs	r4, r3, #20
10003b72:	1e67      	subs	r7, r4, #1
10003b74:	053f      	lsls	r7, r7, #20
10003b76:	1bdb      	subs	r3, r3, r7
10003b78:	0ae7      	lsrs	r7, r4, #11
10003b7a:	0564      	lsls	r4, r4, #21
10003b7c:	0d64      	lsrs	r4, r4, #21
10003b7e:	d002      	beq.n	10003b86 <l12_1>
10003b80:	1c65      	adds	r5, r4, #1
10003b82:	0aed      	lsrs	r5, r5, #11
10003b84:	d004      	beq.n	10003b90 <l12_2>

10003b86 <l12_1>:
10003b86:	2200      	movs	r2, #0
10003b88:	2301      	movs	r3, #1
10003b8a:	051b      	lsls	r3, r3, #20
10003b8c:	3c80      	subs	r4, #128	; 0x80
10003b8e:	0324      	lsls	r4, r4, #12

10003b90 <l12_2>:
10003b90:	4077      	eors	r7, r6
10003b92:	4464      	add	r4, ip
10003b94:	b497      	push	{r0, r1, r2, r4, r7}
10003b96:	b284      	uxth	r4, r0
10003b98:	b296      	uxth	r6, r2
10003b9a:	4374      	muls	r4, r6
10003b9c:	0c07      	lsrs	r7, r0, #16
10003b9e:	437e      	muls	r6, r7
10003ba0:	0c15      	lsrs	r5, r2, #16
10003ba2:	436f      	muls	r7, r5
10003ba4:	b280      	uxth	r0, r0
10003ba6:	4368      	muls	r0, r5
10003ba8:	1836      	adds	r6, r6, r0
10003baa:	d302      	bcc.n	10003bb2 <l13_1>
10003bac:	2001      	movs	r0, #1
10003bae:	0400      	lsls	r0, r0, #16
10003bb0:	183f      	adds	r7, r7, r0

10003bb2 <l13_1>:
10003bb2:	0430      	lsls	r0, r6, #16
10003bb4:	0c35      	lsrs	r5, r6, #16
10003bb6:	1900      	adds	r0, r0, r4
10003bb8:	417d      	adcs	r5, r7
10003bba:	4684      	mov	ip, r0
10003bbc:	b288      	uxth	r0, r1
10003bbe:	b29a      	uxth	r2, r3
10003bc0:	4350      	muls	r0, r2
10003bc2:	0c0c      	lsrs	r4, r1, #16
10003bc4:	4362      	muls	r2, r4
10003bc6:	0c1f      	lsrs	r7, r3, #16
10003bc8:	437c      	muls	r4, r7
10003bca:	b28e      	uxth	r6, r1
10003bcc:	437e      	muls	r6, r7
10003bce:	1992      	adds	r2, r2, r6
10003bd0:	d302      	bcc.n	10003bd8 <l14_1>
10003bd2:	2601      	movs	r6, #1
10003bd4:	0436      	lsls	r6, r6, #16
10003bd6:	19a4      	adds	r4, r4, r6

10003bd8 <l14_1>:
10003bd8:	0416      	lsls	r6, r2, #16
10003bda:	0c17      	lsrs	r7, r2, #16
10003bdc:	1836      	adds	r6, r6, r0
10003bde:	4167      	adcs	r7, r4
10003be0:	bc01      	pop	{r0}
10003be2:	b281      	uxth	r1, r0
10003be4:	b29a      	uxth	r2, r3
10003be6:	4351      	muls	r1, r2
10003be8:	0c04      	lsrs	r4, r0, #16
10003bea:	4362      	muls	r2, r4
10003bec:	0c1b      	lsrs	r3, r3, #16
10003bee:	435c      	muls	r4, r3
10003bf0:	b280      	uxth	r0, r0
10003bf2:	4358      	muls	r0, r3
10003bf4:	1812      	adds	r2, r2, r0
10003bf6:	d302      	bcc.n	10003bfe <l15_1>
10003bf8:	2001      	movs	r0, #1
10003bfa:	0400      	lsls	r0, r0, #16
10003bfc:	1824      	adds	r4, r4, r0

10003bfe <l15_1>:
10003bfe:	0410      	lsls	r0, r2, #16
10003c00:	0c13      	lsrs	r3, r2, #16
10003c02:	1840      	adds	r0, r0, r1
10003c04:	4163      	adcs	r3, r4
10003c06:	182d      	adds	r5, r5, r0
10003c08:	415e      	adcs	r6, r3
10003c0a:	2000      	movs	r0, #0
10003c0c:	4147      	adcs	r7, r0
10003c0e:	bc06      	pop	{r1, r2}
10003c10:	b288      	uxth	r0, r1
10003c12:	b293      	uxth	r3, r2
10003c14:	4358      	muls	r0, r3
10003c16:	0c0c      	lsrs	r4, r1, #16
10003c18:	4363      	muls	r3, r4
10003c1a:	0c12      	lsrs	r2, r2, #16
10003c1c:	4354      	muls	r4, r2
10003c1e:	b289      	uxth	r1, r1
10003c20:	4351      	muls	r1, r2
10003c22:	185b      	adds	r3, r3, r1
10003c24:	d302      	bcc.n	10003c2c <l16_1>
10003c26:	2101      	movs	r1, #1
10003c28:	0409      	lsls	r1, r1, #16
10003c2a:	1864      	adds	r4, r4, r1

10003c2c <l16_1>:
10003c2c:	0419      	lsls	r1, r3, #16
10003c2e:	0c1a      	lsrs	r2, r3, #16
10003c30:	1809      	adds	r1, r1, r0
10003c32:	4162      	adcs	r2, r4
10003c34:	186d      	adds	r5, r5, r1
10003c36:	4156      	adcs	r6, r2
10003c38:	2000      	movs	r0, #0
10003c3a:	4147      	adcs	r7, r0
10003c3c:	bc18      	pop	{r3, r4}
10003c3e:	02f9      	lsls	r1, r7, #11
10003c40:	0d72      	lsrs	r2, r6, #21
10003c42:	4311      	orrs	r1, r2
10003c44:	02f0      	lsls	r0, r6, #11
10003c46:	0d6a      	lsrs	r2, r5, #21
10003c48:	4310      	orrs	r0, r2
10003c4a:	02ed      	lsls	r5, r5, #11
10003c4c:	0d0a      	lsrs	r2, r1, #20
10003c4e:	d103      	bne.n	10003c58 <l16_1+0x2c>
10003c50:	196d      	adds	r5, r5, r5
10003c52:	4140      	adcs	r0, r0
10003c54:	4149      	adcs	r1, r1
10003c56:	3b01      	subs	r3, #1
10003c58:	4e12      	ldr	r6, [pc, #72]	; (10003ca4 <dm_1+0xa>)
10003c5a:	1b9b      	subs	r3, r3, r6
10003c5c:	0076      	lsls	r6, r6, #1
10003c5e:	42b3      	cmp	r3, r6
10003c60:	d20e      	bcs.n	10003c80 <dm_0>
10003c62:	006d      	lsls	r5, r5, #1
10003c64:	d307      	bcc.n	10003c76 <l16_1+0x4a>
10003c66:	3001      	adds	r0, #1
10003c68:	2600      	movs	r6, #0
10003c6a:	4171      	adcs	r1, r6
10003c6c:	4666      	mov	r6, ip
10003c6e:	4335      	orrs	r5, r6
10003c70:	d101      	bne.n	10003c76 <l16_1+0x4a>
10003c72:	0840      	lsrs	r0, r0, #1
10003c74:	0040      	lsls	r0, r0, #1
10003c76:	051b      	lsls	r3, r3, #20
10003c78:	18c9      	adds	r1, r1, r3

10003c7a <dm_2>:
10003c7a:	07e4      	lsls	r4, r4, #31
10003c7c:	4421      	add	r1, r4
10003c7e:	bdf0      	pop	{r4, r5, r6, r7, pc}

10003c80 <dm_0>:
10003c80:	da0b      	bge.n	10003c9a <dm_1>
10003c82:	3301      	adds	r3, #1
10003c84:	d106      	bne.n	10003c94 <dm_0+0x14>
10003c86:	3001      	adds	r0, #1
10003c88:	d104      	bne.n	10003c94 <dm_0+0x14>
10003c8a:	3101      	adds	r1, #1
10003c8c:	0d4f      	lsrs	r7, r1, #21
10003c8e:	d001      	beq.n	10003c94 <dm_0+0x14>
10003c90:	0849      	lsrs	r1, r1, #1
10003c92:	e7f2      	b.n	10003c7a <dm_2>
10003c94:	07e1      	lsls	r1, r4, #31
10003c96:	2000      	movs	r0, #0
10003c98:	bdf0      	pop	{r4, r5, r6, r7, pc}

10003c9a <dm_1>:
10003c9a:	3601      	adds	r6, #1
10003c9c:	0531      	lsls	r1, r6, #20
10003c9e:	2000      	movs	r0, #0
10003ca0:	e7eb      	b.n	10003c7a <dm_2>
10003ca2:	0000      	.short	0x0000
10003ca4:	000003ff 	.word	0x000003ff

10003ca8 <ddiv_shim>:
10003ca8:	b5f0      	push	{r4, r5, r6, r7, lr}

10003caa <ddiv0>:
10003caa:	0d1c      	lsrs	r4, r3, #20
10003cac:	1e67      	subs	r7, r4, #1
10003cae:	053f      	lsls	r7, r7, #20
10003cb0:	1bdb      	subs	r3, r3, r7
10003cb2:	0ae7      	lsrs	r7, r4, #11
10003cb4:	0564      	lsls	r4, r4, #21
10003cb6:	0d64      	lsrs	r4, r4, #21
10003cb8:	d002      	beq.n	10003cc0 <l19_1>
10003cba:	1c66      	adds	r6, r4, #1
10003cbc:	0af6      	lsrs	r6, r6, #11
10003cbe:	d004      	beq.n	10003cca <l19_2>

10003cc0 <l19_1>:
10003cc0:	2200      	movs	r2, #0
10003cc2:	2301      	movs	r3, #1
10003cc4:	051b      	lsls	r3, r3, #20
10003cc6:	3c80      	subs	r4, #128	; 0x80
10003cc8:	0324      	lsls	r4, r4, #12

10003cca <l19_2>:
10003cca:	25d0      	movs	r5, #208	; 0xd0
10003ccc:	062d      	lsls	r5, r5, #24
10003cce:	2600      	movs	r6, #0
10003cd0:	43f6      	mvns	r6, r6
10003cd2:	662e      	str	r6, [r5, #96]	; 0x60
10003cd4:	091e      	lsrs	r6, r3, #4
10003cd6:	666e      	str	r6, [r5, #100]	; 0x64
10003cd8:	0fce      	lsrs	r6, r1, #31
10003cda:	19f6      	adds	r6, r6, r7
10003cdc:	46b4      	mov	ip, r6
10003cde:	0049      	lsls	r1, r1, #1
10003ce0:	0d4f      	lsrs	r7, r1, #21
10003ce2:	d002      	beq.n	10003cea <l19_2+0x20>
10003ce4:	1c7e      	adds	r6, r7, #1
10003ce6:	0af6      	lsrs	r6, r6, #11
10003ce8:	d003      	beq.n	10003cf2 <l19_2+0x28>
10003cea:	2000      	movs	r0, #0
10003cec:	2100      	movs	r1, #0
10003cee:	3f40      	subs	r7, #64	; 0x40
10003cf0:	033f      	lsls	r7, r7, #12
10003cf2:	1b3e      	subs	r6, r7, r4
10003cf4:	00b6      	lsls	r6, r6, #2
10003cf6:	44b4      	add	ip, r6
10003cf8:	3f01      	subs	r7, #1
10003cfa:	057f      	lsls	r7, r7, #21
10003cfc:	1bc9      	subs	r1, r1, r7
10003cfe:	0849      	lsrs	r1, r1, #1
10003d00:	6f2e      	ldr	r6, [r5, #112]	; 0x70
10003d02:	3601      	adds	r6, #1
10003d04:	0876      	lsrs	r6, r6, #1
10003d06:	029c      	lsls	r4, r3, #10
10003d08:	0d95      	lsrs	r5, r2, #22
10003d0a:	4325      	orrs	r5, r4
10003d0c:	4375      	muls	r5, r6
10003d0e:	13ed      	asrs	r5, r5, #15
10003d10:	4375      	muls	r5, r6
10003d12:	13ad      	asrs	r5, r5, #14
10003d14:	3501      	adds	r5, #1
10003d16:	106d      	asrs	r5, r5, #1
10003d18:	03f6      	lsls	r6, r6, #15
10003d1a:	1b76      	subs	r6, r6, r5
10003d1c:	b40c      	push	{r2, r3}
10003d1e:	02cc      	lsls	r4, r1, #11
10003d20:	0d45      	lsrs	r5, r0, #21
10003d22:	432c      	orrs	r4, r5
10003d24:	b2a2      	uxth	r2, r4
10003d26:	b2b3      	uxth	r3, r6
10003d28:	435a      	muls	r2, r3
10003d2a:	0c27      	lsrs	r7, r4, #16
10003d2c:	437b      	muls	r3, r7
10003d2e:	0c35      	lsrs	r5, r6, #16
10003d30:	436f      	muls	r7, r5
10003d32:	b2a4      	uxth	r4, r4
10003d34:	436c      	muls	r4, r5
10003d36:	191b      	adds	r3, r3, r4
10003d38:	d302      	bcc.n	10003d40 <l20_1>
10003d3a:	2401      	movs	r4, #1
10003d3c:	0424      	lsls	r4, r4, #16
10003d3e:	193f      	adds	r7, r7, r4

10003d40 <l20_1>:
10003d40:	041c      	lsls	r4, r3, #16
10003d42:	0c1d      	lsrs	r5, r3, #16
10003d44:	18a4      	adds	r4, r4, r2
10003d46:	417d      	adcs	r5, r7
10003d48:	1924      	adds	r4, r4, r4
10003d4a:	416d      	adcs	r5, r5
10003d4c:	9a00      	ldr	r2, [sp, #0]
10003d4e:	b291      	uxth	r1, r2
10003d50:	b2ac      	uxth	r4, r5
10003d52:	4361      	muls	r1, r4
10003d54:	0c17      	lsrs	r7, r2, #16
10003d56:	437c      	muls	r4, r7
10003d58:	0c2b      	lsrs	r3, r5, #16
10003d5a:	435f      	muls	r7, r3
10003d5c:	b292      	uxth	r2, r2
10003d5e:	435a      	muls	r2, r3
10003d60:	18a4      	adds	r4, r4, r2
10003d62:	d302      	bcc.n	10003d6a <l21_1>
10003d64:	2201      	movs	r2, #1
10003d66:	0412      	lsls	r2, r2, #16
10003d68:	18bf      	adds	r7, r7, r2

10003d6a <l21_1>:
10003d6a:	0422      	lsls	r2, r4, #16
10003d6c:	0c23      	lsrs	r3, r4, #16
10003d6e:	1852      	adds	r2, r2, r1
10003d70:	417b      	adcs	r3, r7
10003d72:	9c01      	ldr	r4, [sp, #4]
10003d74:	436c      	muls	r4, r5
10003d76:	191b      	adds	r3, r3, r4
10003d78:	0e52      	lsrs	r2, r2, #25
10003d7a:	01d9      	lsls	r1, r3, #7
10003d7c:	430a      	orrs	r2, r1
10003d7e:	0144      	lsls	r4, r0, #5
10003d80:	1aa0      	subs	r0, r4, r2
10003d82:	b281      	uxth	r1, r0
10003d84:	b2b2      	uxth	r2, r6
10003d86:	4351      	muls	r1, r2
10003d88:	1403      	asrs	r3, r0, #16
10003d8a:	435a      	muls	r2, r3
10003d8c:	0c36      	lsrs	r6, r6, #16
10003d8e:	4373      	muls	r3, r6
10003d90:	b287      	uxth	r7, r0
10003d92:	4377      	muls	r7, r6
10003d94:	17d6      	asrs	r6, r2, #31
10003d96:	19d2      	adds	r2, r2, r7
10003d98:	2700      	movs	r7, #0
10003d9a:	417e      	adcs	r6, r7
10003d9c:	0436      	lsls	r6, r6, #16
10003d9e:	199b      	adds	r3, r3, r6
10003da0:	0417      	lsls	r7, r2, #16
10003da2:	0c16      	lsrs	r6, r2, #16
10003da4:	187f      	adds	r7, r7, r1
10003da6:	415e      	adcs	r6, r3
10003da8:	1673      	asrs	r3, r6, #25
10003daa:	18ed      	adds	r5, r5, r3
10003dac:	01f3      	lsls	r3, r6, #7
10003dae:	2600      	movs	r6, #0
10003db0:	3380      	adds	r3, #128	; 0x80
10003db2:	4175      	adcs	r5, r6
10003db4:	0fa9      	lsrs	r1, r5, #30
10003db6:	d106      	bne.n	10003dc6 <dd_0>
10003db8:	0064      	lsls	r4, r4, #1
10003dba:	0a69      	lsrs	r1, r5, #9
10003dbc:	05e8      	lsls	r0, r5, #23
10003dbe:	0a5b      	lsrs	r3, r3, #9
10003dc0:	4318      	orrs	r0, r3
10003dc2:	d209      	bcs.n	10003dd8 <dd_1>
10003dc4:	e02f      	b.n	10003e26 <dd_2>

10003dc6 <dd_0>:
10003dc6:	2204      	movs	r2, #4
10003dc8:	4494      	add	ip, r2
10003dca:	3380      	adds	r3, #128	; 0x80
10003dcc:	4175      	adcs	r5, r6
10003dce:	0aa9      	lsrs	r1, r5, #10
10003dd0:	05a8      	lsls	r0, r5, #22
10003dd2:	0a9b      	lsrs	r3, r3, #10
10003dd4:	4318      	orrs	r0, r3
10003dd6:	d326      	bcc.n	10003e26 <dd_2>

10003dd8 <dd_1>:
10003dd8:	4140      	adcs	r0, r0
10003dda:	4149      	adcs	r1, r1
10003ddc:	0424      	lsls	r4, r4, #16
10003dde:	9a00      	ldr	r2, [sp, #0]
10003de0:	9b01      	ldr	r3, [sp, #4]
10003de2:	000d      	movs	r5, r1
10003de4:	4355      	muls	r5, r2
10003de6:	1b64      	subs	r4, r4, r5
10003de8:	4343      	muls	r3, r0
10003dea:	1ae4      	subs	r4, r4, r3
10003dec:	b295      	uxth	r5, r2
10003dee:	b286      	uxth	r6, r0
10003df0:	4375      	muls	r5, r6
10003df2:	0c17      	lsrs	r7, r2, #16
10003df4:	437e      	muls	r6, r7
10003df6:	0c03      	lsrs	r3, r0, #16
10003df8:	435f      	muls	r7, r3
10003dfa:	b292      	uxth	r2, r2
10003dfc:	435a      	muls	r2, r3
10003dfe:	18b6      	adds	r6, r6, r2
10003e00:	d302      	bcc.n	10003e08 <l23_1>
10003e02:	2201      	movs	r2, #1
10003e04:	0412      	lsls	r2, r2, #16
10003e06:	18bf      	adds	r7, r7, r2

10003e08 <l23_1>:
10003e08:	0432      	lsls	r2, r6, #16
10003e0a:	0c33      	lsrs	r3, r6, #16
10003e0c:	1952      	adds	r2, r2, r5
10003e0e:	417b      	adcs	r3, r7
10003e10:	4252      	negs	r2, r2
10003e12:	419c      	sbcs	r4, r3
10003e14:	2c00      	cmp	r4, #0
10003e16:	d402      	bmi.n	10003e1e <l23_1+0x16>
10003e18:	2200      	movs	r2, #0
10003e1a:	3001      	adds	r0, #1
10003e1c:	4151      	adcs	r1, r2
10003e1e:	0840      	lsrs	r0, r0, #1
10003e20:	07ca      	lsls	r2, r1, #31
10003e22:	4310      	orrs	r0, r2
10003e24:	0849      	lsrs	r1, r1, #1

10003e26 <dd_2>:
10003e26:	b002      	add	sp, #8
10003e28:	4662      	mov	r2, ip
10003e2a:	07d7      	lsls	r7, r2, #31
10003e2c:	1092      	asrs	r2, r2, #2
10003e2e:	4b08      	ldr	r3, [pc, #32]	; (10003e50 <dd_4+0x6>)
10003e30:	18d2      	adds	r2, r2, r3
10003e32:	4b08      	ldr	r3, [pc, #32]	; (10003e54 <dd_4+0xa>)
10003e34:	429a      	cmp	r2, r3
10003e36:	d203      	bcs.n	10003e40 <dd_3>
10003e38:	0512      	lsls	r2, r2, #20
10003e3a:	1889      	adds	r1, r1, r2

10003e3c <dd_5>:
10003e3c:	19c9      	adds	r1, r1, r7
10003e3e:	bdf0      	pop	{r4, r5, r6, r7, pc}

10003e40 <dd_3>:
10003e40:	2000      	movs	r0, #0
10003e42:	2a00      	cmp	r2, #0
10003e44:	dc01      	bgt.n	10003e4a <dd_4>
10003e46:	0039      	movs	r1, r7
10003e48:	bdf0      	pop	{r4, r5, r6, r7, pc}

10003e4a <dd_4>:
10003e4a:	3301      	adds	r3, #1
10003e4c:	0519      	lsls	r1, r3, #20
10003e4e:	e7f5      	b.n	10003e3c <dd_5>
10003e50:	000003fd 	.word	0x000003fd
10003e54:	000007fe 	.word	0x000007fe

10003e58 <dcordic_rot_step>:
10003e58:	4662      	mov	r2, ip
10003e5a:	ca18      	ldmia	r2!, {r3, r4}
10003e5c:	4694      	mov	ip, r2
10003e5e:	2900      	cmp	r1, #0
10003e60:	da1a      	bge.n	10003e98 <dcordic_rot_step+0x40>
10003e62:	18c0      	adds	r0, r0, r3
10003e64:	4161      	adcs	r1, r4
10003e66:	465b      	mov	r3, fp
10003e68:	413b      	asrs	r3, r7
10003e6a:	465c      	mov	r4, fp
10003e6c:	40b4      	lsls	r4, r6
10003e6e:	4652      	mov	r2, sl
10003e70:	40fa      	lsrs	r2, r7
10003e72:	4322      	orrs	r2, r4
10003e74:	4644      	mov	r4, r8
10003e76:	464d      	mov	r5, r9
10003e78:	4162      	adcs	r2, r4
10003e7a:	416b      	adcs	r3, r5
10003e7c:	4690      	mov	r8, r2
10003e7e:	4699      	mov	r9, r3
10003e80:	462b      	mov	r3, r5
10003e82:	40b3      	lsls	r3, r6
10003e84:	413d      	asrs	r5, r7
10003e86:	40fc      	lsrs	r4, r7
10003e88:	431c      	orrs	r4, r3
10003e8a:	4652      	mov	r2, sl
10003e8c:	465b      	mov	r3, fp
10003e8e:	41a2      	sbcs	r2, r4
10003e90:	41ab      	sbcs	r3, r5
10003e92:	4692      	mov	sl, r2
10003e94:	469b      	mov	fp, r3
10003e96:	4770      	bx	lr
10003e98:	1ac0      	subs	r0, r0, r3
10003e9a:	41a1      	sbcs	r1, r4
10003e9c:	464b      	mov	r3, r9
10003e9e:	413b      	asrs	r3, r7
10003ea0:	464c      	mov	r4, r9
10003ea2:	40b4      	lsls	r4, r6
10003ea4:	4642      	mov	r2, r8
10003ea6:	40fa      	lsrs	r2, r7
10003ea8:	4322      	orrs	r2, r4
10003eaa:	4654      	mov	r4, sl
10003eac:	465d      	mov	r5, fp
10003eae:	4162      	adcs	r2, r4
10003eb0:	416b      	adcs	r3, r5
10003eb2:	4692      	mov	sl, r2
10003eb4:	469b      	mov	fp, r3
10003eb6:	462b      	mov	r3, r5
10003eb8:	40b3      	lsls	r3, r6
10003eba:	413d      	asrs	r5, r7
10003ebc:	40fc      	lsrs	r4, r7
10003ebe:	431c      	orrs	r4, r3
10003ec0:	4642      	mov	r2, r8
10003ec2:	464b      	mov	r3, r9
10003ec4:	41a2      	sbcs	r2, r4
10003ec6:	41ab      	sbcs	r3, r5
10003ec8:	4690      	mov	r8, r2
10003eca:	4699      	mov	r9, r3
10003ecc:	4770      	bx	lr

10003ece <ret_dzero>:
10003ece:	2000      	movs	r0, #0
10003ed0:	2100      	movs	r1, #0
10003ed2:	4770      	bx	lr

10003ed4 <double2uint_shim>:
10003ed4:	2200      	movs	r2, #0

10003ed6 <double2ufix_shim>:
10003ed6:	b500      	push	{lr}
10003ed8:	3220      	adds	r2, #32
10003eda:	f000 f804 	bl	10003ee6 <double2ufix64_shim>
10003ede:	0008      	movs	r0, r1
10003ee0:	bd00      	pop	{pc}
	...

10003ee4 <double2uint64_shim>:
10003ee4:	2200      	movs	r2, #0

10003ee6 <double2ufix64_shim>:
10003ee6:	150b      	asrs	r3, r1, #20
10003ee8:	d4f1      	bmi.n	10003ece <ret_dzero>

10003eea <d2fix>:
10003eea:	b510      	push	{r4, lr}
10003eec:	4694      	mov	ip, r2
10003eee:	f000 f82f 	bl	10003f50 <dunpacks>
10003ef2:	1414      	asrs	r4, r2, #16
10003ef4:	3401      	adds	r4, #1
10003ef6:	da00      	bge.n	10003efa <d2fix+0x10>
10003ef8:	2100      	movs	r1, #0
10003efa:	17cb      	asrs	r3, r1, #31
10003efc:	4c13      	ldr	r4, [pc, #76]	; (10003f4c <d2fix_a+0x4c>)
10003efe:	4720      	bx	r4

10003f00 <d2fix_a>:
10003f00:	4462      	add	r2, ip
10003f02:	3a34      	subs	r2, #52	; 0x34
10003f04:	d40c      	bmi.n	10003f20 <d2fix_a+0x20>
10003f06:	2a0c      	cmp	r2, #12
10003f08:	da07      	bge.n	10003f1a <d2fix_a+0x1a>
10003f0a:	0004      	movs	r4, r0
10003f0c:	4091      	lsls	r1, r2
10003f0e:	4090      	lsls	r0, r2
10003f10:	4252      	negs	r2, r2
10003f12:	3220      	adds	r2, #32
10003f14:	40d4      	lsrs	r4, r2
10003f16:	4321      	orrs	r1, r4
10003f18:	bd10      	pop	{r4, pc}
10003f1a:	43d8      	mvns	r0, r3
10003f1c:	43d9      	mvns	r1, r3
10003f1e:	bd10      	pop	{r4, pc}
10003f20:	3220      	adds	r2, #32
10003f22:	d407      	bmi.n	10003f34 <d2fix_a+0x34>
10003f24:	460c      	mov	r4, r1
10003f26:	4094      	lsls	r4, r2
10003f28:	4252      	negs	r2, r2
10003f2a:	3220      	adds	r2, #32
10003f2c:	4111      	asrs	r1, r2
10003f2e:	40d0      	lsrs	r0, r2
10003f30:	4320      	orrs	r0, r4
10003f32:	bd10      	pop	{r4, pc}
10003f34:	0008      	movs	r0, r1
10003f36:	17c9      	asrs	r1, r1, #31
10003f38:	3220      	adds	r2, #32
10003f3a:	d403      	bmi.n	10003f44 <d2fix_a+0x44>
10003f3c:	4252      	negs	r2, r2
10003f3e:	3220      	adds	r2, #32
10003f40:	4110      	asrs	r0, r2
10003f42:	bd10      	pop	{r4, pc}
10003f44:	0018      	movs	r0, r3
10003f46:	0019      	movs	r1, r3
10003f48:	bd10      	pop	{r4, pc}
10003f4a:	0000      	.short	0x0000
10003f4c:	10003f01 	.word	0x10003f01

10003f50 <dunpacks>:
10003f50:	0d0a      	lsrs	r2, r1, #20
10003f52:	0fcc      	lsrs	r4, r1, #31
10003f54:	1e53      	subs	r3, r2, #1
10003f56:	051b      	lsls	r3, r3, #20
10003f58:	1ac9      	subs	r1, r1, r3
10003f5a:	0552      	lsls	r2, r2, #21
10003f5c:	d303      	bcc.n	10003f66 <l60_1>
10003f5e:	43c9      	mvns	r1, r1
10003f60:	4240      	negs	r0, r0
10003f62:	d300      	bcc.n	10003f66 <l60_1>
10003f64:	3101      	adds	r1, #1

10003f66 <l60_1>:
10003f66:	0d52      	lsrs	r2, r2, #21
10003f68:	d003      	beq.n	10003f72 <l60_2>
10003f6a:	1c53      	adds	r3, r2, #1
10003f6c:	0adb      	lsrs	r3, r3, #11
10003f6e:	d007      	beq.n	10003f80 <l60_3>
10003f70:	1b12      	subs	r2, r2, r4

10003f72 <l60_2>:
10003f72:	2000      	movs	r0, #0
10003f74:	0064      	lsls	r4, r4, #1
10003f76:	1c61      	adds	r1, r4, #1
10003f78:	0789      	lsls	r1, r1, #30
10003f7a:	1289      	asrs	r1, r1, #10
10003f7c:	3a80      	subs	r2, #128	; 0x80
10003f7e:	0312      	lsls	r2, r2, #12

10003f80 <l60_3>:
10003f80:	4b01      	ldr	r3, [pc, #4]	; (10003f88 <l60_3+0x8>)
10003f82:	1ad2      	subs	r2, r2, r3
10003f84:	4770      	bx	lr
10003f86:	0000      	.short	0x0000
10003f88:	000003ff 	.word	0x000003ff

10003f8c <__wrap___aeabi_lmul>:
10003f8c:	4351      	muls	r1, r2
10003f8e:	4343      	muls	r3, r0
10003f90:	18c9      	adds	r1, r1, r3
10003f92:	468c      	mov	ip, r1
10003f94:	0c11      	lsrs	r1, r2, #16
10003f96:	b283      	uxth	r3, r0
10003f98:	434b      	muls	r3, r1
10003f9a:	b410      	push	{r4}
10003f9c:	0c04      	lsrs	r4, r0, #16
10003f9e:	4361      	muls	r1, r4
10003fa0:	b292      	uxth	r2, r2
10003fa2:	b280      	uxth	r0, r0
10003fa4:	4350      	muls	r0, r2
10003fa6:	4362      	muls	r2, r4
10003fa8:	041c      	lsls	r4, r3, #16
10003faa:	0c1b      	lsrs	r3, r3, #16
10003fac:	1900      	adds	r0, r0, r4
10003fae:	bc10      	pop	{r4}
10003fb0:	4159      	adcs	r1, r3
10003fb2:	0413      	lsls	r3, r2, #16
10003fb4:	0c12      	lsrs	r2, r2, #16
10003fb6:	18c0      	adds	r0, r0, r3
10003fb8:	4151      	adcs	r1, r2
10003fba:	4461      	add	r1, ip
10003fbc:	4770      	bx	lr
	...

10003fc0 <__aeabi_float_init>:
10003fc0:	2313      	movs	r3, #19
10003fc2:	b510      	push	{r4, lr}
10003fc4:	4812      	ldr	r0, [pc, #72]	; (10004010 <__aeabi_float_init+0x50>)
10003fc6:	781c      	ldrb	r4, [r3, #0]
10003fc8:	f7ff f934 	bl	10003234 <rom_data_lookup>
10003fcc:	0001      	movs	r1, r0
10003fce:	2c01      	cmp	r4, #1
10003fd0:	d00a      	beq.n	10003fe8 <__aeabi_float_init+0x28>
10003fd2:	dd03      	ble.n	10003fdc <__aeabi_float_init+0x1c>
10003fd4:	2280      	movs	r2, #128	; 0x80
10003fd6:	480f      	ldr	r0, [pc, #60]	; (10004014 <__aeabi_float_init+0x54>)
10003fd8:	f000 f850 	bl	1000407c <__wrap___aeabi_memcpy>
10003fdc:	480e      	ldr	r0, [pc, #56]	; (10004018 <__aeabi_float_init+0x58>)
10003fde:	f7ff f921 	bl	10003224 <rom_func_lookup>
10003fe2:	4b0e      	ldr	r3, [pc, #56]	; (1000401c <__aeabi_float_init+0x5c>)
10003fe4:	6018      	str	r0, [r3, #0]
10003fe6:	bd10      	pop	{r4, pc}
10003fe8:	4c0a      	ldr	r4, [pc, #40]	; (10004014 <__aeabi_float_init+0x54>)
10003fea:	2254      	movs	r2, #84	; 0x54
10003fec:	0020      	movs	r0, r4
10003fee:	f000 f845 	bl	1000407c <__wrap___aeabi_memcpy>
10003ff2:	4b0b      	ldr	r3, [pc, #44]	; (10004020 <__aeabi_float_init+0x60>)
10003ff4:	6563      	str	r3, [r4, #84]	; 0x54
10003ff6:	65a3      	str	r3, [r4, #88]	; 0x58
10003ff8:	65e3      	str	r3, [r4, #92]	; 0x5c
10003ffa:	6623      	str	r3, [r4, #96]	; 0x60
10003ffc:	6663      	str	r3, [r4, #100]	; 0x64
10003ffe:	66a3      	str	r3, [r4, #104]	; 0x68
10004000:	66e3      	str	r3, [r4, #108]	; 0x6c
10004002:	6723      	str	r3, [r4, #112]	; 0x70
10004004:	6763      	str	r3, [r4, #116]	; 0x74
10004006:	67a3      	str	r3, [r4, #120]	; 0x78
10004008:	67e3      	str	r3, [r4, #124]	; 0x7c
1000400a:	6223      	str	r3, [r4, #32]
1000400c:	61e3      	str	r3, [r4, #28]
1000400e:	e7e5      	b.n	10003fdc <__aeabi_float_init+0x1c>
10004010:	00004653 	.word	0x00004653
10004014:	20000ce0 	.word	0x20000ce0
10004018:	0000334c 	.word	0x0000334c
1000401c:	20000de0 	.word	0x20000de0
10004020:	10004025 	.word	0x10004025

10004024 <float_table_shim_on_use_helper>:
10004024:	b507      	push	{r0, r1, r2, lr}
10004026:	4660      	mov	r0, ip
10004028:	8801      	ldrh	r1, [r0, #0]
1000402a:	0a0a      	lsrs	r2, r1, #8
1000402c:	3002      	adds	r0, #2
1000402e:	2adf      	cmp	r2, #223	; 0xdf
10004030:	d1fa      	bne.n	10004028 <float_table_shim_on_use_helper+0x4>
10004032:	b2c9      	uxtb	r1, r1
10004034:	0882      	lsrs	r2, r0, #2
10004036:	d304      	bcc.n	10004042 <float_table_shim_on_use_helper+0x1e>
10004038:	8802      	ldrh	r2, [r0, #0]
1000403a:	8840      	ldrh	r0, [r0, #2]
1000403c:	0400      	lsls	r0, r0, #16
1000403e:	4310      	orrs	r0, r2
10004040:	e000      	b.n	10004044 <float_table_shim_on_use_helper+0x20>
10004042:	6800      	ldr	r0, [r0, #0]
10004044:	4a01      	ldr	r2, [pc, #4]	; (1000404c <float_table_shim_on_use_helper+0x28>)
10004046:	5050      	str	r0, [r2, r1]
10004048:	9003      	str	r0, [sp, #12]
1000404a:	bd07      	pop	{r0, r1, r2, pc}
1000404c:	20000ce0 	.word	0x20000ce0

10004050 <__wrap_malloc>:
10004050:	b510      	push	{r4, lr}
10004052:	f000 faeb 	bl	1000462c <malloc>
10004056:	bd10      	pop	{r4, pc}

10004058 <__wrap_calloc>:
10004058:	b510      	push	{r4, lr}
1000405a:	f000 faad 	bl	100045b8 <calloc>
1000405e:	bd10      	pop	{r4, pc}

10004060 <__aeabi_mem_init>:
10004060:	4801      	ldr	r0, [pc, #4]	; (10004068 <__aeabi_mem_init+0x8>)
10004062:	2104      	movs	r1, #4
10004064:	4b01      	ldr	r3, [pc, #4]	; (1000406c <__aeabi_mem_init+0xc>)
10004066:	4718      	bx	r3
10004068:	200002a0 	.word	0x200002a0
1000406c:	10003245 	.word	0x10003245

10004070 <__wrap_memset>:
10004070:	4b01      	ldr	r3, [pc, #4]	; (10004078 <__wrap_memset+0x8>)
10004072:	681b      	ldr	r3, [r3, #0]
10004074:	4718      	bx	r3
10004076:	0000      	.short	0x0000
10004078:	200002a0 	.word	0x200002a0

1000407c <__wrap___aeabi_memcpy>:
1000407c:	4b01      	ldr	r3, [pc, #4]	; (10004084 <__wrap___aeabi_memcpy+0x8>)
1000407e:	685b      	ldr	r3, [r3, #4]
10004080:	4718      	bx	r3
10004082:	0000      	.short	0x0000
10004084:	200002a0 	.word	0x200002a0

10004088 <stdio_out_chars_crlf.part.0>:
10004088:	b5f8      	push	{r3, r4, r5, r6, r7, lr}
1000408a:	4647      	mov	r7, r8
1000408c:	46ce      	mov	lr, r9
1000408e:	000d      	movs	r5, r1
10004090:	b580      	push	{r7, lr}
10004092:	0016      	movs	r6, r2
10004094:	0007      	movs	r7, r0
10004096:	2a00      	cmp	r2, #0
10004098:	dd20      	ble.n	100040dc <stdio_out_chars_crlf.part.0+0x54>
1000409a:	1e4b      	subs	r3, r1, #1
1000409c:	4698      	mov	r8, r3
1000409e:	4b1a      	ldr	r3, [pc, #104]	; (10004108 <stdio_out_chars_crlf.part.0+0x80>)
100040a0:	2400      	movs	r4, #0
100040a2:	2000      	movs	r0, #0
100040a4:	4699      	mov	r9, r3
100040a6:	2c00      	cmp	r4, #0
100040a8:	d02b      	beq.n	10004102 <stdio_out_chars_crlf.part.0+0x7a>
100040aa:	4643      	mov	r3, r8
100040ac:	5d1b      	ldrb	r3, [r3, r4]
100040ae:	3b0d      	subs	r3, #13
100040b0:	425a      	negs	r2, r3
100040b2:	4153      	adcs	r3, r2
100040b4:	b2db      	uxtb	r3, r3
100040b6:	5d2a      	ldrb	r2, [r5, r4]
100040b8:	2a0a      	cmp	r2, #10
100040ba:	d013      	beq.n	100040e4 <stdio_out_chars_crlf.part.0+0x5c>
100040bc:	3401      	adds	r4, #1
100040be:	42a6      	cmp	r6, r4
100040c0:	dcf1      	bgt.n	100040a6 <stdio_out_chars_crlf.part.0+0x1e>
100040c2:	4286      	cmp	r6, r0
100040c4:	dd03      	ble.n	100040ce <stdio_out_chars_crlf.part.0+0x46>
100040c6:	1a31      	subs	r1, r6, r0
100040c8:	683b      	ldr	r3, [r7, #0]
100040ca:	1828      	adds	r0, r5, r0
100040cc:	4798      	blx	r3
100040ce:	19ad      	adds	r5, r5, r6
100040d0:	3d01      	subs	r5, #1
100040d2:	782b      	ldrb	r3, [r5, #0]
100040d4:	3b0d      	subs	r3, #13
100040d6:	425a      	negs	r2, r3
100040d8:	4153      	adcs	r3, r2
100040da:	743b      	strb	r3, [r7, #16]
100040dc:	bc0c      	pop	{r2, r3}
100040de:	4690      	mov	r8, r2
100040e0:	4699      	mov	r9, r3
100040e2:	bdf8      	pop	{r3, r4, r5, r6, r7, pc}
100040e4:	2b00      	cmp	r3, #0
100040e6:	d1e9      	bne.n	100040bc <stdio_out_chars_crlf.part.0+0x34>
100040e8:	42a0      	cmp	r0, r4
100040ea:	da03      	bge.n	100040f4 <stdio_out_chars_crlf.part.0+0x6c>
100040ec:	1a21      	subs	r1, r4, r0
100040ee:	683b      	ldr	r3, [r7, #0]
100040f0:	1828      	adds	r0, r5, r0
100040f2:	4798      	blx	r3
100040f4:	4648      	mov	r0, r9
100040f6:	2102      	movs	r1, #2
100040f8:	683b      	ldr	r3, [r7, #0]
100040fa:	3401      	adds	r4, #1
100040fc:	4798      	blx	r3
100040fe:	0020      	movs	r0, r4
10004100:	e7dd      	b.n	100040be <stdio_out_chars_crlf.part.0+0x36>
10004102:	7c3b      	ldrb	r3, [r7, #16]
10004104:	e7d7      	b.n	100040b6 <stdio_out_chars_crlf.part.0+0x2e>
10004106:	46c0      	nop			; (mov r8, r8)
10004108:	10005304 	.word	0x10005304

1000410c <stdio_buffered_printer>:
1000410c:	b5f8      	push	{r3, r4, r5, r6, r7, lr}
1000410e:	4647      	mov	r7, r8
10004110:	46ce      	mov	lr, r9
10004112:	000c      	movs	r4, r1
10004114:	6809      	ldr	r1, [r1, #0]
10004116:	b580      	push	{r7, lr}
10004118:	0007      	movs	r7, r0
1000411a:	2980      	cmp	r1, #128	; 0x80
1000411c:	d007      	beq.n	1000412e <stdio_buffered_printer+0x22>
1000411e:	1c4b      	adds	r3, r1, #1
10004120:	6023      	str	r3, [r4, #0]
10004122:	1864      	adds	r4, r4, r1
10004124:	7127      	strb	r7, [r4, #4]
10004126:	bc0c      	pop	{r2, r3}
10004128:	4690      	mov	r8, r2
1000412a:	4699      	mov	r9, r3
1000412c:	bdf8      	pop	{r3, r4, r5, r6, r7, pc}
1000412e:	4b13      	ldr	r3, [pc, #76]	; (1000417c <stdio_buffered_printer+0x70>)
10004130:	681d      	ldr	r5, [r3, #0]
10004132:	2d00      	cmp	r5, #0
10004134:	d01b      	beq.n	1000416e <stdio_buffered_printer+0x62>
10004136:	4b12      	ldr	r3, [pc, #72]	; (10004180 <stdio_buffered_printer+0x74>)
10004138:	4698      	mov	r8, r3
1000413a:	1d23      	adds	r3, r4, #4
1000413c:	4699      	mov	r9, r3
1000413e:	e002      	b.n	10004146 <stdio_buffered_printer+0x3a>
10004140:	68ed      	ldr	r5, [r5, #12]
10004142:	2d00      	cmp	r5, #0
10004144:	d013      	beq.n	1000416e <stdio_buffered_printer+0x62>
10004146:	682e      	ldr	r6, [r5, #0]
10004148:	2e00      	cmp	r6, #0
1000414a:	d0f9      	beq.n	10004140 <stdio_buffered_printer+0x34>
1000414c:	4643      	mov	r3, r8
1000414e:	681b      	ldr	r3, [r3, #0]
10004150:	2b00      	cmp	r3, #0
10004152:	d001      	beq.n	10004158 <stdio_buffered_printer+0x4c>
10004154:	429d      	cmp	r5, r3
10004156:	d1f3      	bne.n	10004140 <stdio_buffered_printer+0x34>
10004158:	7c6b      	ldrb	r3, [r5, #17]
1000415a:	6822      	ldr	r2, [r4, #0]
1000415c:	2b00      	cmp	r3, #0
1000415e:	d009      	beq.n	10004174 <stdio_buffered_printer+0x68>
10004160:	0028      	movs	r0, r5
10004162:	4649      	mov	r1, r9
10004164:	f7ff ff90 	bl	10004088 <stdio_out_chars_crlf.part.0>
10004168:	68ed      	ldr	r5, [r5, #12]
1000416a:	2d00      	cmp	r5, #0
1000416c:	d1eb      	bne.n	10004146 <stdio_buffered_printer+0x3a>
1000416e:	2301      	movs	r3, #1
10004170:	2100      	movs	r1, #0
10004172:	e7d5      	b.n	10004120 <stdio_buffered_printer+0x14>
10004174:	0011      	movs	r1, r2
10004176:	4648      	mov	r0, r9
10004178:	47b0      	blx	r6
1000417a:	e7e1      	b.n	10004140 <stdio_buffered_printer+0x34>
1000417c:	20000ba8 	.word	0x20000ba8
10004180:	20000bac 	.word	0x20000bac

10004184 <stdio_put_string>:
10004184:	b5f0      	push	{r4, r5, r6, r7, lr}
10004186:	4657      	mov	r7, sl
10004188:	4645      	mov	r5, r8
1000418a:	46de      	mov	lr, fp
1000418c:	464e      	mov	r6, r9
1000418e:	23d0      	movs	r3, #208	; 0xd0
10004190:	b5e0      	push	{r5, r6, r7, lr}
10004192:	061b      	lsls	r3, r3, #24
10004194:	681c      	ldr	r4, [r3, #0]
10004196:	4b37      	ldr	r3, [pc, #220]	; (10004274 <stdio_put_string+0xf0>)
10004198:	b083      	sub	sp, #12
1000419a:	0007      	movs	r7, r0
1000419c:	000d      	movs	r5, r1
1000419e:	0018      	movs	r0, r3
100041a0:	a901      	add	r1, sp, #4
100041a2:	4690      	mov	r8, r2
100041a4:	469a      	mov	sl, r3
100041a6:	f000 feb3 	bl	10004f10 <__mutex_try_enter_veneer>
100041aa:	4681      	mov	r9, r0
100041ac:	2800      	cmp	r0, #0
100041ae:	d107      	bne.n	100041c0 <stdio_put_string+0x3c>
100041b0:	9b01      	ldr	r3, [sp, #4]
100041b2:	429c      	cmp	r4, r3
100041b4:	d004      	beq.n	100041c0 <stdio_put_string+0x3c>
100041b6:	4650      	mov	r0, sl
100041b8:	f000 feba 	bl	10004f30 <__mutex_enter_blocking_veneer>
100041bc:	2301      	movs	r3, #1
100041be:	4699      	mov	r9, r3
100041c0:	1c6b      	adds	r3, r5, #1
100041c2:	d103      	bne.n	100041cc <stdio_put_string+0x48>
100041c4:	0038      	movs	r0, r7
100041c6:	f000 fd1d 	bl	10004c04 <strlen>
100041ca:	0005      	movs	r5, r0
100041cc:	4b2a      	ldr	r3, [pc, #168]	; (10004278 <stdio_put_string+0xf4>)
100041ce:	681c      	ldr	r4, [r3, #0]
100041d0:	2c00      	cmp	r4, #0
100041d2:	d02f      	beq.n	10004234 <stdio_put_string+0xb0>
100041d4:	230a      	movs	r3, #10
100041d6:	4e29      	ldr	r6, [pc, #164]	; (1000427c <stdio_put_string+0xf8>)
100041d8:	469b      	mov	fp, r3
100041da:	e002      	b.n	100041e2 <stdio_put_string+0x5e>
100041dc:	68e4      	ldr	r4, [r4, #12]
100041de:	2c00      	cmp	r4, #0
100041e0:	d028      	beq.n	10004234 <stdio_put_string+0xb0>
100041e2:	6822      	ldr	r2, [r4, #0]
100041e4:	2a00      	cmp	r2, #0
100041e6:	d0f9      	beq.n	100041dc <stdio_put_string+0x58>
100041e8:	6833      	ldr	r3, [r6, #0]
100041ea:	2b00      	cmp	r3, #0
100041ec:	d001      	beq.n	100041f2 <stdio_put_string+0x6e>
100041ee:	42a3      	cmp	r3, r4
100041f0:	d1f4      	bne.n	100041dc <stdio_put_string+0x58>
100041f2:	7c63      	ldrb	r3, [r4, #17]
100041f4:	2b00      	cmp	r3, #0
100041f6:	d02a      	beq.n	1000424e <stdio_put_string+0xca>
100041f8:	002a      	movs	r2, r5
100041fa:	0039      	movs	r1, r7
100041fc:	0020      	movs	r0, r4
100041fe:	f7ff ff43 	bl	10004088 <stdio_out_chars_crlf.part.0>
10004202:	4643      	mov	r3, r8
10004204:	2b00      	cmp	r3, #0
10004206:	d0e9      	beq.n	100041dc <stdio_put_string+0x58>
10004208:	466b      	mov	r3, sp
1000420a:	465a      	mov	r2, fp
1000420c:	711a      	strb	r2, [r3, #4]
1000420e:	7c63      	ldrb	r3, [r4, #17]
10004210:	2b00      	cmp	r3, #0
10004212:	d020      	beq.n	10004256 <stdio_put_string+0xd2>
10004214:	7c23      	ldrb	r3, [r4, #16]
10004216:	2b00      	cmp	r3, #0
10004218:	d026      	beq.n	10004268 <stdio_put_string+0xe4>
1000421a:	2101      	movs	r1, #1
1000421c:	6823      	ldr	r3, [r4, #0]
1000421e:	a801      	add	r0, sp, #4
10004220:	4798      	blx	r3
10004222:	466b      	mov	r3, sp
10004224:	791b      	ldrb	r3, [r3, #4]
10004226:	3b0d      	subs	r3, #13
10004228:	425a      	negs	r2, r3
1000422a:	4153      	adcs	r3, r2
1000422c:	7423      	strb	r3, [r4, #16]
1000422e:	68e4      	ldr	r4, [r4, #12]
10004230:	2c00      	cmp	r4, #0
10004232:	d1d6      	bne.n	100041e2 <stdio_put_string+0x5e>
10004234:	464b      	mov	r3, r9
10004236:	2b00      	cmp	r3, #0
10004238:	d112      	bne.n	10004260 <stdio_put_string+0xdc>
1000423a:	1e68      	subs	r0, r5, #1
1000423c:	4185      	sbcs	r5, r0
1000423e:	b2e8      	uxtb	r0, r5
10004240:	b003      	add	sp, #12
10004242:	bc3c      	pop	{r2, r3, r4, r5}
10004244:	4690      	mov	r8, r2
10004246:	4699      	mov	r9, r3
10004248:	46a2      	mov	sl, r4
1000424a:	46ab      	mov	fp, r5
1000424c:	bdf0      	pop	{r4, r5, r6, r7, pc}
1000424e:	0029      	movs	r1, r5
10004250:	0038      	movs	r0, r7
10004252:	4790      	blx	r2
10004254:	e7d5      	b.n	10004202 <stdio_put_string+0x7e>
10004256:	2101      	movs	r1, #1
10004258:	6823      	ldr	r3, [r4, #0]
1000425a:	a801      	add	r0, sp, #4
1000425c:	4798      	blx	r3
1000425e:	e7bd      	b.n	100041dc <stdio_put_string+0x58>
10004260:	4650      	mov	r0, sl
10004262:	f000 fe3d 	bl	10004ee0 <__mutex_exit_veneer>
10004266:	e7e8      	b.n	1000423a <stdio_put_string+0xb6>
10004268:	2102      	movs	r1, #2
1000426a:	4805      	ldr	r0, [pc, #20]	; (10004280 <stdio_put_string+0xfc>)
1000426c:	6823      	ldr	r3, [r4, #0]
1000426e:	4798      	blx	r3
10004270:	e7d7      	b.n	10004222 <stdio_put_string+0x9e>
10004272:	46c0      	nop			; (mov r8, r8)
10004274:	20000b00 	.word	0x20000b00
10004278:	20000ba8 	.word	0x20000ba8
1000427c:	20000bac 	.word	0x20000bac
10004280:	10005304 	.word	0x10005304

10004284 <__wrap_putchar>:
10004284:	b510      	push	{r4, lr}
10004286:	b082      	sub	sp, #8
10004288:	466b      	mov	r3, sp
1000428a:	0004      	movs	r4, r0
1000428c:	2200      	movs	r2, #0
1000428e:	1dd8      	adds	r0, r3, #7
10004290:	2101      	movs	r1, #1
10004292:	7004      	strb	r4, [r0, #0]
10004294:	f7ff ff76 	bl	10004184 <stdio_put_string>
10004298:	0020      	movs	r0, r4
1000429a:	b002      	add	sp, #8
1000429c:	bd10      	pop	{r4, pc}
1000429e:	46c0      	nop			; (mov r8, r8)

100042a0 <__wrap_puts>:
100042a0:	b570      	push	{r4, r5, r6, lr}
100042a2:	0004      	movs	r4, r0
100042a4:	f000 fcae 	bl	10004c04 <strlen>
100042a8:	2201      	movs	r2, #1
100042aa:	0001      	movs	r1, r0
100042ac:	0005      	movs	r5, r0
100042ae:	0020      	movs	r0, r4
100042b0:	f7ff ff68 	bl	10004184 <stdio_put_string>
100042b4:	4b08      	ldr	r3, [pc, #32]	; (100042d8 <__wrap_puts+0x38>)
100042b6:	681c      	ldr	r4, [r3, #0]
100042b8:	2c00      	cmp	r4, #0
100042ba:	d006      	beq.n	100042ca <__wrap_puts+0x2a>
100042bc:	6863      	ldr	r3, [r4, #4]
100042be:	2b00      	cmp	r3, #0
100042c0:	d005      	beq.n	100042ce <__wrap_puts+0x2e>
100042c2:	4798      	blx	r3
100042c4:	68e4      	ldr	r4, [r4, #12]
100042c6:	2c00      	cmp	r4, #0
100042c8:	d1f8      	bne.n	100042bc <__wrap_puts+0x1c>
100042ca:	0028      	movs	r0, r5
100042cc:	bd70      	pop	{r4, r5, r6, pc}
100042ce:	68e4      	ldr	r4, [r4, #12]
100042d0:	2c00      	cmp	r4, #0
100042d2:	d1f3      	bne.n	100042bc <__wrap_puts+0x1c>
100042d4:	e7f9      	b.n	100042ca <__wrap_puts+0x2a>
100042d6:	46c0      	nop			; (mov r8, r8)
100042d8:	20000ba8 	.word	0x20000ba8

100042dc <stdio_set_driver_enabled>:
100042dc:	4a0d      	ldr	r2, [pc, #52]	; (10004314 <stdio_set_driver_enabled+0x38>)
100042de:	6813      	ldr	r3, [r2, #0]
100042e0:	2b00      	cmp	r3, #0
100042e2:	d013      	beq.n	1000430c <stdio_set_driver_enabled+0x30>
100042e4:	4283      	cmp	r3, r0
100042e6:	d102      	bne.n	100042ee <stdio_set_driver_enabled+0x12>
100042e8:	e009      	b.n	100042fe <stdio_set_driver_enabled+0x22>
100042ea:	4298      	cmp	r0, r3
100042ec:	d008      	beq.n	10004300 <stdio_set_driver_enabled+0x24>
100042ee:	001a      	movs	r2, r3
100042f0:	68db      	ldr	r3, [r3, #12]
100042f2:	2b00      	cmp	r3, #0
100042f4:	d1f9      	bne.n	100042ea <stdio_set_driver_enabled+0xe>
100042f6:	2900      	cmp	r1, #0
100042f8:	d000      	beq.n	100042fc <stdio_set_driver_enabled+0x20>
100042fa:	60d0      	str	r0, [r2, #12]
100042fc:	4770      	bx	lr
100042fe:	001a      	movs	r2, r3
10004300:	2900      	cmp	r1, #0
10004302:	d1fb      	bne.n	100042fc <stdio_set_driver_enabled+0x20>
10004304:	68db      	ldr	r3, [r3, #12]
10004306:	60d3      	str	r3, [r2, #12]
10004308:	60c1      	str	r1, [r0, #12]
1000430a:	e7f7      	b.n	100042fc <stdio_set_driver_enabled+0x20>
1000430c:	2900      	cmp	r1, #0
1000430e:	d0f5      	beq.n	100042fc <stdio_set_driver_enabled+0x20>
10004310:	6010      	str	r0, [r2, #0]
10004312:	e7f3      	b.n	100042fc <stdio_set_driver_enabled+0x20>
10004314:	20000ba8 	.word	0x20000ba8

10004318 <__wrap_vprintf>:
10004318:	b5f0      	push	{r4, r5, r6, r7, lr}
1000431a:	4646      	mov	r6, r8
1000431c:	46d6      	mov	lr, sl
1000431e:	464f      	mov	r7, r9
10004320:	23d0      	movs	r3, #208	; 0xd0
10004322:	b5c0      	push	{r6, r7, lr}
10004324:	061b      	lsls	r3, r3, #24
10004326:	681f      	ldr	r7, [r3, #0]
10004328:	4b31      	ldr	r3, [pc, #196]	; (100043f0 <__wrap_vprintf+0xd8>)
1000432a:	b0a2      	sub	sp, #136	; 0x88
1000432c:	0004      	movs	r4, r0
1000432e:	000d      	movs	r5, r1
10004330:	0018      	movs	r0, r3
10004332:	a901      	add	r1, sp, #4
10004334:	4698      	mov	r8, r3
10004336:	f000 fdeb 	bl	10004f10 <__mutex_try_enter_veneer>
1000433a:	1e06      	subs	r6, r0, #0
1000433c:	d106      	bne.n	1000434c <__wrap_vprintf+0x34>
1000433e:	9b01      	ldr	r3, [sp, #4]
10004340:	429f      	cmp	r7, r3
10004342:	d003      	beq.n	1000434c <__wrap_vprintf+0x34>
10004344:	4640      	mov	r0, r8
10004346:	f000 fdf3 	bl	10004f30 <__mutex_enter_blocking_veneer>
1000434a:	3601      	adds	r6, #1
1000434c:	2284      	movs	r2, #132	; 0x84
1000434e:	2100      	movs	r1, #0
10004350:	a801      	add	r0, sp, #4
10004352:	f7ff fe8d 	bl	10004070 <__wrap_memset>
10004356:	002b      	movs	r3, r5
10004358:	0022      	movs	r2, r4
1000435a:	4826      	ldr	r0, [pc, #152]	; (100043f4 <__wrap_vprintf+0xdc>)
1000435c:	a901      	add	r1, sp, #4
1000435e:	f7fe ff31 	bl	100031c4 <vfctprintf>
10004362:	9b01      	ldr	r3, [sp, #4]
10004364:	0007      	movs	r7, r0
10004366:	2b00      	cmp	r3, #0
10004368:	d115      	bne.n	10004396 <__wrap_vprintf+0x7e>
1000436a:	4b23      	ldr	r3, [pc, #140]	; (100043f8 <__wrap_vprintf+0xe0>)
1000436c:	681c      	ldr	r4, [r3, #0]
1000436e:	2c00      	cmp	r4, #0
10004370:	d006      	beq.n	10004380 <__wrap_vprintf+0x68>
10004372:	6863      	ldr	r3, [r4, #4]
10004374:	2b00      	cmp	r3, #0
10004376:	d00c      	beq.n	10004392 <__wrap_vprintf+0x7a>
10004378:	4798      	blx	r3
1000437a:	68e4      	ldr	r4, [r4, #12]
1000437c:	2c00      	cmp	r4, #0
1000437e:	d1f8      	bne.n	10004372 <__wrap_vprintf+0x5a>
10004380:	2e00      	cmp	r6, #0
10004382:	d12f      	bne.n	100043e4 <__wrap_vprintf+0xcc>
10004384:	0038      	movs	r0, r7
10004386:	b022      	add	sp, #136	; 0x88
10004388:	bc1c      	pop	{r2, r3, r4}
1000438a:	4690      	mov	r8, r2
1000438c:	4699      	mov	r9, r3
1000438e:	46a2      	mov	sl, r4
10004390:	bdf0      	pop	{r4, r5, r6, r7, pc}
10004392:	68e4      	ldr	r4, [r4, #12]
10004394:	e7eb      	b.n	1000436e <__wrap_vprintf+0x56>
10004396:	4b18      	ldr	r3, [pc, #96]	; (100043f8 <__wrap_vprintf+0xe0>)
10004398:	681d      	ldr	r5, [r3, #0]
1000439a:	469a      	mov	sl, r3
1000439c:	2d00      	cmp	r5, #0
1000439e:	d025      	beq.n	100043ec <__wrap_vprintf+0xd4>
100043a0:	4b16      	ldr	r3, [pc, #88]	; (100043fc <__wrap_vprintf+0xe4>)
100043a2:	4699      	mov	r9, r3
100043a4:	e002      	b.n	100043ac <__wrap_vprintf+0x94>
100043a6:	68ed      	ldr	r5, [r5, #12]
100043a8:	2d00      	cmp	r5, #0
100043aa:	d013      	beq.n	100043d4 <__wrap_vprintf+0xbc>
100043ac:	682c      	ldr	r4, [r5, #0]
100043ae:	2c00      	cmp	r4, #0
100043b0:	d0f9      	beq.n	100043a6 <__wrap_vprintf+0x8e>
100043b2:	464b      	mov	r3, r9
100043b4:	681b      	ldr	r3, [r3, #0]
100043b6:	2b00      	cmp	r3, #0
100043b8:	d001      	beq.n	100043be <__wrap_vprintf+0xa6>
100043ba:	429d      	cmp	r5, r3
100043bc:	d1f3      	bne.n	100043a6 <__wrap_vprintf+0x8e>
100043be:	7c6b      	ldrb	r3, [r5, #17]
100043c0:	9a01      	ldr	r2, [sp, #4]
100043c2:	2b00      	cmp	r3, #0
100043c4:	d00a      	beq.n	100043dc <__wrap_vprintf+0xc4>
100043c6:	0028      	movs	r0, r5
100043c8:	a902      	add	r1, sp, #8
100043ca:	f7ff fe5d 	bl	10004088 <stdio_out_chars_crlf.part.0>
100043ce:	68ed      	ldr	r5, [r5, #12]
100043d0:	2d00      	cmp	r5, #0
100043d2:	d1eb      	bne.n	100043ac <__wrap_vprintf+0x94>
100043d4:	4653      	mov	r3, sl
100043d6:	9501      	str	r5, [sp, #4]
100043d8:	681c      	ldr	r4, [r3, #0]
100043da:	e7c8      	b.n	1000436e <__wrap_vprintf+0x56>
100043dc:	0011      	movs	r1, r2
100043de:	a802      	add	r0, sp, #8
100043e0:	47a0      	blx	r4
100043e2:	e7e0      	b.n	100043a6 <__wrap_vprintf+0x8e>
100043e4:	4640      	mov	r0, r8
100043e6:	f000 fd7b 	bl	10004ee0 <__mutex_exit_veneer>
100043ea:	e7cb      	b.n	10004384 <__wrap_vprintf+0x6c>
100043ec:	9501      	str	r5, [sp, #4]
100043ee:	e7c7      	b.n	10004380 <__wrap_vprintf+0x68>
100043f0:	20000b00 	.word	0x20000b00
100043f4:	1000410d 	.word	0x1000410d
100043f8:	20000ba8 	.word	0x20000ba8
100043fc:	20000bac 	.word	0x20000bac

10004400 <__wrap_printf>:
10004400:	b40f      	push	{r0, r1, r2, r3}
10004402:	b500      	push	{lr}
10004404:	b083      	sub	sp, #12
10004406:	a904      	add	r1, sp, #16
10004408:	c901      	ldmia	r1!, {r0}
1000440a:	9101      	str	r1, [sp, #4]
1000440c:	f7ff ff84 	bl	10004318 <__wrap_vprintf>
10004410:	b003      	add	sp, #12
10004412:	bc08      	pop	{r3}
10004414:	b004      	add	sp, #16
10004416:	4718      	bx	r3

10004418 <stdio_init_all>:
10004418:	b510      	push	{r4, lr}
1000441a:	f000 f83b 	bl	10004494 <stdio_uart_init>
1000441e:	bd10      	pop	{r4, pc}

10004420 <stdio_uart_out_chars>:
10004420:	b5f0      	push	{r4, r5, r6, r7, lr}
10004422:	2900      	cmp	r1, #0
10004424:	d010      	beq.n	10004448 <stdio_uart_out_chars+0x28>
10004426:	1845      	adds	r5, r0, r1
10004428:	270d      	movs	r7, #13
1000442a:	2120      	movs	r1, #32
1000442c:	4b09      	ldr	r3, [pc, #36]	; (10004454 <stdio_uart_out_chars+0x34>)
1000442e:	4a0a      	ldr	r2, [pc, #40]	; (10004458 <stdio_uart_out_chars+0x38>)
10004430:	2600      	movs	r6, #0
10004432:	5f9e      	ldrsh	r6, [r3, r6]
10004434:	7804      	ldrb	r4, [r0, #0]
10004436:	42a6      	cmp	r6, r4
10004438:	d007      	beq.n	1000444a <stdio_uart_out_chars+0x2a>
1000443a:	6993      	ldr	r3, [r2, #24]
1000443c:	4219      	tst	r1, r3
1000443e:	d1fc      	bne.n	1000443a <stdio_uart_out_chars+0x1a>
10004440:	3001      	adds	r0, #1
10004442:	6014      	str	r4, [r2, #0]
10004444:	42a8      	cmp	r0, r5
10004446:	d1f5      	bne.n	10004434 <stdio_uart_out_chars+0x14>
10004448:	bdf0      	pop	{r4, r5, r6, r7, pc}
1000444a:	6993      	ldr	r3, [r2, #24]
1000444c:	4219      	tst	r1, r3
1000444e:	d1fc      	bne.n	1000444a <stdio_uart_out_chars+0x2a>
10004450:	6017      	str	r7, [r2, #0]
10004452:	e7f2      	b.n	1000443a <stdio_uart_out_chars+0x1a>
10004454:	20000bdc 	.word	0x20000bdc
10004458:	40034000 	.word	0x40034000

1000445c <stdio_uart_in_chars>:
1000445c:	b530      	push	{r4, r5, lr}
1000445e:	0005      	movs	r5, r0
10004460:	2000      	movs	r0, #0
10004462:	2900      	cmp	r1, #0
10004464:	dd10      	ble.n	10004488 <stdio_uart_in_chars+0x2c>
10004466:	2410      	movs	r4, #16
10004468:	4a09      	ldr	r2, [pc, #36]	; (10004490 <stdio_uart_in_chars+0x34>)
1000446a:	3d01      	subs	r5, #1
1000446c:	6993      	ldr	r3, [r2, #24]
1000446e:	421c      	tst	r4, r3
10004470:	d108      	bne.n	10004484 <stdio_uart_in_chars+0x28>
10004472:	3001      	adds	r0, #1
10004474:	6993      	ldr	r3, [r2, #24]
10004476:	421c      	tst	r4, r3
10004478:	d1fc      	bne.n	10004474 <stdio_uart_in_chars+0x18>
1000447a:	6813      	ldr	r3, [r2, #0]
1000447c:	542b      	strb	r3, [r5, r0]
1000447e:	4281      	cmp	r1, r0
10004480:	d1f4      	bne.n	1000446c <stdio_uart_in_chars+0x10>
10004482:	bd30      	pop	{r4, r5, pc}
10004484:	2800      	cmp	r0, #0
10004486:	d1fc      	bne.n	10004482 <stdio_uart_in_chars+0x26>
10004488:	2003      	movs	r0, #3
1000448a:	4240      	negs	r0, r0
1000448c:	e7f9      	b.n	10004482 <stdio_uart_in_chars+0x26>
1000448e:	46c0      	nop			; (mov r8, r8)
10004490:	40034000 	.word	0x40034000

10004494 <stdio_uart_init>:
10004494:	21e1      	movs	r1, #225	; 0xe1
10004496:	b510      	push	{r4, lr}
10004498:	4b0a      	ldr	r3, [pc, #40]	; (100044c4 <stdio_uart_init+0x30>)
1000449a:	0249      	lsls	r1, r1, #9
1000449c:	781b      	ldrb	r3, [r3, #0]
1000449e:	4b0a      	ldr	r3, [pc, #40]	; (100044c8 <stdio_uart_init+0x34>)
100044a0:	480a      	ldr	r0, [pc, #40]	; (100044cc <stdio_uart_init+0x38>)
100044a2:	781b      	ldrb	r3, [r3, #0]
100044a4:	f7fc f8ee 	bl	10000684 <uart_init>
100044a8:	2102      	movs	r1, #2
100044aa:	2000      	movs	r0, #0
100044ac:	f7fc f862 	bl	10000574 <gpio_set_function>
100044b0:	2102      	movs	r1, #2
100044b2:	2001      	movs	r0, #1
100044b4:	f7fc f85e 	bl	10000574 <gpio_set_function>
100044b8:	2101      	movs	r1, #1
100044ba:	4805      	ldr	r0, [pc, #20]	; (100044d0 <stdio_uart_init+0x3c>)
100044bc:	f7ff ff0e 	bl	100042dc <stdio_set_driver_enabled>
100044c0:	bd10      	pop	{r4, pc}
100044c2:	46c0      	nop			; (mov r8, r8)
100044c4:	10005364 	.word	0x10005364
100044c8:	10005368 	.word	0x10005368
100044cc:	40034000 	.word	0x40034000
100044d0:	200002b0 	.word	0x200002b0

100044d4 <spi_init>:
100044d4:	b5f0      	push	{r4, r5, r6, r7, lr}
100044d6:	46d6      	mov	lr, sl
100044d8:	4682      	mov	sl, r0
100044da:	4b33      	ldr	r3, [pc, #204]	; (100045a8 <spi_init+0xd4>)
100044dc:	4646      	mov	r6, r8
100044de:	4453      	add	r3, sl
100044e0:	425a      	negs	r2, r3
100044e2:	4153      	adcs	r3, r2
100044e4:	2280      	movs	r2, #128	; 0x80
100044e6:	0292      	lsls	r2, r2, #10
100044e8:	4694      	mov	ip, r2
100044ea:	464f      	mov	r7, r9
100044ec:	425b      	negs	r3, r3
100044ee:	4a2f      	ldr	r2, [pc, #188]	; (100045ac <spi_init+0xd8>)
100044f0:	041b      	lsls	r3, r3, #16
100044f2:	4463      	add	r3, ip
100044f4:	b5c0      	push	{r6, r7, lr}
100044f6:	6013      	str	r3, [r2, #0]
100044f8:	4a2d      	ldr	r2, [pc, #180]	; (100045b0 <spi_init+0xdc>)
100044fa:	4688      	mov	r8, r1
100044fc:	492d      	ldr	r1, [pc, #180]	; (100045b4 <spi_init+0xe0>)
100044fe:	6013      	str	r3, [r2, #0]
10004500:	001d      	movs	r5, r3
10004502:	688a      	ldr	r2, [r1, #8]
10004504:	4395      	bics	r5, r2
10004506:	d1fb      	bne.n	10004500 <spi_init+0x2c>
10004508:	2006      	movs	r0, #6
1000450a:	f7fd f973 	bl	100017f4 <clock_get_hz>
1000450e:	4643      	mov	r3, r8
10004510:	4641      	mov	r1, r8
10004512:	4681      	mov	r9, r0
10004514:	2080      	movs	r0, #128	; 0x80
10004516:	0ddf      	lsrs	r7, r3, #23
10004518:	025e      	lsls	r6, r3, #9
1000451a:	028a      	lsls	r2, r1, #10
1000451c:	0d9b      	lsrs	r3, r3, #22
1000451e:	2102      	movs	r1, #2
10004520:	0040      	lsls	r0, r0, #1
10004522:	e005      	b.n	10004530 <spi_init+0x5c>
10004524:	4591      	cmp	r9, r2
10004526:	d307      	bcc.n	10004538 <spi_init+0x64>
10004528:	1992      	adds	r2, r2, r6
1000452a:	417b      	adcs	r3, r7
1000452c:	4281      	cmp	r1, r0
1000452e:	d039      	beq.n	100045a4 <spi_init+0xd0>
10004530:	000c      	movs	r4, r1
10004532:	3102      	adds	r1, #2
10004534:	2b00      	cmp	r3, #0
10004536:	d0f5      	beq.n	10004524 <spi_init+0x50>
10004538:	2780      	movs	r7, #128	; 0x80
1000453a:	0226      	lsls	r6, r4, #8
1000453c:	1b36      	subs	r6, r6, r4
1000453e:	007f      	lsls	r7, r7, #1
10004540:	e002      	b.n	10004548 <spi_init+0x74>
10004542:	1b36      	subs	r6, r6, r4
10004544:	2f01      	cmp	r7, #1
10004546:	d007      	beq.n	10004558 <spi_init+0x84>
10004548:	0031      	movs	r1, r6
1000454a:	4648      	mov	r0, r9
1000454c:	3f01      	subs	r7, #1
1000454e:	f7fe fec3 	bl	100032d8 <__wrap___aeabi_uidiv>
10004552:	4580      	cmp	r8, r0
10004554:	d2f5      	bcs.n	10004542 <spi_init+0x6e>
10004556:	023d      	lsls	r5, r7, #8
10004558:	4653      	mov	r3, sl
1000455a:	611c      	str	r4, [r3, #16]
1000455c:	681b      	ldr	r3, [r3, #0]
1000455e:	4652      	mov	r2, sl
10004560:	405d      	eors	r5, r3
10004562:	23ff      	movs	r3, #255	; 0xff
10004564:	021b      	lsls	r3, r3, #8
10004566:	401d      	ands	r5, r3
10004568:	2380      	movs	r3, #128	; 0x80
1000456a:	015b      	lsls	r3, r3, #5
1000456c:	4313      	orrs	r3, r2
1000456e:	601d      	str	r5, [r3, #0]
10004570:	2507      	movs	r5, #7
10004572:	21cf      	movs	r1, #207	; 0xcf
10004574:	6812      	ldr	r2, [r2, #0]
10004576:	4650      	mov	r0, sl
10004578:	406a      	eors	r2, r5
1000457a:	400a      	ands	r2, r1
1000457c:	601a      	str	r2, [r3, #0]
1000457e:	2280      	movs	r2, #128	; 0x80
10004580:	2403      	movs	r4, #3
10004582:	0192      	lsls	r2, r2, #6
10004584:	3024      	adds	r0, #36	; 0x24
10004586:	4310      	orrs	r0, r2
10004588:	6004      	str	r4, [r0, #0]
1000458a:	4650      	mov	r0, sl
1000458c:	c810      	ldmia	r0!, {r4}
1000458e:	406c      	eors	r4, r5
10004590:	4021      	ands	r1, r4
10004592:	6019      	str	r1, [r3, #0]
10004594:	2302      	movs	r3, #2
10004596:	4310      	orrs	r0, r2
10004598:	6003      	str	r3, [r0, #0]
1000459a:	bc1c      	pop	{r2, r3, r4}
1000459c:	4690      	mov	r8, r2
1000459e:	4699      	mov	r9, r3
100045a0:	46a2      	mov	sl, r4
100045a2:	bdf0      	pop	{r4, r5, r6, r7, pc}
100045a4:	000c      	movs	r4, r1
100045a6:	e7c7      	b.n	10004538 <spi_init+0x64>
100045a8:	bffc4000 	.word	0xbffc4000
100045ac:	4000e000 	.word	0x4000e000
100045b0:	4000f000 	.word	0x4000f000
100045b4:	4000c000 	.word	0x4000c000

100045b8 <calloc>:
100045b8:	0003      	movs	r3, r0
100045ba:	b510      	push	{r4, lr}
100045bc:	000a      	movs	r2, r1
100045be:	4903      	ldr	r1, [pc, #12]	; (100045cc <calloc+0x14>)
100045c0:	6808      	ldr	r0, [r1, #0]
100045c2:	0019      	movs	r1, r3
100045c4:	f000 f804 	bl	100045d0 <_calloc_r>
100045c8:	bd10      	pop	{r4, pc}
100045ca:	46c0      	nop			; (mov r8, r8)
100045cc:	200002c4 	.word	0x200002c4

100045d0 <_calloc_r>:
100045d0:	b510      	push	{r4, lr}
100045d2:	4351      	muls	r1, r2
100045d4:	f000 f834 	bl	10004640 <_malloc_r>
100045d8:	1e04      	subs	r4, r0, #0
100045da:	d00e      	beq.n	100045fa <_calloc_r+0x2a>
100045dc:	0003      	movs	r3, r0
100045de:	3b08      	subs	r3, #8
100045e0:	685a      	ldr	r2, [r3, #4]
100045e2:	2303      	movs	r3, #3
100045e4:	439a      	bics	r2, r3
100045e6:	3a04      	subs	r2, #4
100045e8:	2a24      	cmp	r2, #36	; 0x24
100045ea:	d815      	bhi.n	10004618 <_calloc_r+0x48>
100045ec:	0003      	movs	r3, r0
100045ee:	2a13      	cmp	r2, #19
100045f0:	d805      	bhi.n	100045fe <_calloc_r+0x2e>
100045f2:	2200      	movs	r2, #0
100045f4:	601a      	str	r2, [r3, #0]
100045f6:	605a      	str	r2, [r3, #4]
100045f8:	609a      	str	r2, [r3, #8]
100045fa:	0020      	movs	r0, r4
100045fc:	bd10      	pop	{r4, pc}
100045fe:	2100      	movs	r1, #0
10004600:	3308      	adds	r3, #8
10004602:	6001      	str	r1, [r0, #0]
10004604:	6041      	str	r1, [r0, #4]
10004606:	2a1b      	cmp	r2, #27
10004608:	d9f3      	bls.n	100045f2 <_calloc_r+0x22>
1000460a:	6081      	str	r1, [r0, #8]
1000460c:	60c1      	str	r1, [r0, #12]
1000460e:	2a24      	cmp	r2, #36	; 0x24
10004610:	d006      	beq.n	10004620 <_calloc_r+0x50>
10004612:	0003      	movs	r3, r0
10004614:	3310      	adds	r3, #16
10004616:	e7ec      	b.n	100045f2 <_calloc_r+0x22>
10004618:	2100      	movs	r1, #0
1000461a:	f7ff fd29 	bl	10004070 <__wrap_memset>
1000461e:	e7ec      	b.n	100045fa <_calloc_r+0x2a>
10004620:	0003      	movs	r3, r0
10004622:	6101      	str	r1, [r0, #16]
10004624:	3318      	adds	r3, #24
10004626:	6141      	str	r1, [r0, #20]
10004628:	e7e3      	b.n	100045f2 <_calloc_r+0x22>
1000462a:	46c0      	nop			; (mov r8, r8)

1000462c <malloc>:
1000462c:	b510      	push	{r4, lr}
1000462e:	4b03      	ldr	r3, [pc, #12]	; (1000463c <malloc+0x10>)
10004630:	0001      	movs	r1, r0
10004632:	6818      	ldr	r0, [r3, #0]
10004634:	f000 f804 	bl	10004640 <_malloc_r>
10004638:	bd10      	pop	{r4, pc}
1000463a:	46c0      	nop			; (mov r8, r8)
1000463c:	200002c4 	.word	0x200002c4

10004640 <_malloc_r>:
10004640:	b5f0      	push	{r4, r5, r6, r7, lr}
10004642:	464e      	mov	r6, r9
10004644:	4645      	mov	r5, r8
10004646:	46de      	mov	lr, fp
10004648:	4657      	mov	r7, sl
1000464a:	b5e0      	push	{r5, r6, r7, lr}
1000464c:	000d      	movs	r5, r1
1000464e:	350b      	adds	r5, #11
10004650:	0006      	movs	r6, r0
10004652:	b083      	sub	sp, #12
10004654:	2d16      	cmp	r5, #22
10004656:	d822      	bhi.n	1000469e <_malloc_r+0x5e>
10004658:	2910      	cmp	r1, #16
1000465a:	d900      	bls.n	1000465e <_malloc_r+0x1e>
1000465c:	e0b2      	b.n	100047c4 <_malloc_r+0x184>
1000465e:	f000 faaf 	bl	10004bc0 <__malloc_lock>
10004662:	2510      	movs	r5, #16
10004664:	2002      	movs	r0, #2
10004666:	2318      	movs	r3, #24
10004668:	4fcb      	ldr	r7, [pc, #812]	; (10004998 <_malloc_r+0x358>)
1000466a:	18fb      	adds	r3, r7, r3
1000466c:	001a      	movs	r2, r3
1000466e:	685c      	ldr	r4, [r3, #4]
10004670:	3a08      	subs	r2, #8
10004672:	4294      	cmp	r4, r2
10004674:	d100      	bne.n	10004678 <_malloc_r+0x38>
10004676:	e0b5      	b.n	100047e4 <_malloc_r+0x1a4>
10004678:	2303      	movs	r3, #3
1000467a:	6862      	ldr	r2, [r4, #4]
1000467c:	439a      	bics	r2, r3
1000467e:	0013      	movs	r3, r2
10004680:	68e2      	ldr	r2, [r4, #12]
10004682:	68a1      	ldr	r1, [r4, #8]
10004684:	60ca      	str	r2, [r1, #12]
10004686:	6091      	str	r1, [r2, #8]
10004688:	2201      	movs	r2, #1
1000468a:	18e3      	adds	r3, r4, r3
1000468c:	6859      	ldr	r1, [r3, #4]
1000468e:	0030      	movs	r0, r6
10004690:	430a      	orrs	r2, r1
10004692:	605a      	str	r2, [r3, #4]
10004694:	f000 fa9c 	bl	10004bd0 <__malloc_unlock>
10004698:	0020      	movs	r0, r4
1000469a:	3008      	adds	r0, #8
1000469c:	e095      	b.n	100047ca <_malloc_r+0x18a>
1000469e:	2307      	movs	r3, #7
100046a0:	439d      	bics	r5, r3
100046a2:	d500      	bpl.n	100046a6 <_malloc_r+0x66>
100046a4:	e08e      	b.n	100047c4 <_malloc_r+0x184>
100046a6:	42a9      	cmp	r1, r5
100046a8:	d900      	bls.n	100046ac <_malloc_r+0x6c>
100046aa:	e08b      	b.n	100047c4 <_malloc_r+0x184>
100046ac:	f000 fa88 	bl	10004bc0 <__malloc_lock>
100046b0:	23fc      	movs	r3, #252	; 0xfc
100046b2:	005b      	lsls	r3, r3, #1
100046b4:	429d      	cmp	r5, r3
100046b6:	d200      	bcs.n	100046ba <_malloc_r+0x7a>
100046b8:	e1a5      	b.n	10004a06 <_malloc_r+0x3c6>
100046ba:	0a68      	lsrs	r0, r5, #9
100046bc:	d100      	bne.n	100046c0 <_malloc_r+0x80>
100046be:	e08b      	b.n	100047d8 <_malloc_r+0x198>
100046c0:	2804      	cmp	r0, #4
100046c2:	d900      	bls.n	100046c6 <_malloc_r+0x86>
100046c4:	e178      	b.n	100049b8 <_malloc_r+0x378>
100046c6:	2338      	movs	r3, #56	; 0x38
100046c8:	4698      	mov	r8, r3
100046ca:	09a8      	lsrs	r0, r5, #6
100046cc:	4480      	add	r8, r0
100046ce:	3039      	adds	r0, #57	; 0x39
100046d0:	00c1      	lsls	r1, r0, #3
100046d2:	4fb1      	ldr	r7, [pc, #708]	; (10004998 <_malloc_r+0x358>)
100046d4:	1879      	adds	r1, r7, r1
100046d6:	684c      	ldr	r4, [r1, #4]
100046d8:	3908      	subs	r1, #8
100046da:	42a1      	cmp	r1, r4
100046dc:	d00e      	beq.n	100046fc <_malloc_r+0xbc>
100046de:	2303      	movs	r3, #3
100046e0:	469c      	mov	ip, r3
100046e2:	e004      	b.n	100046ee <_malloc_r+0xae>
100046e4:	2a00      	cmp	r2, #0
100046e6:	dacb      	bge.n	10004680 <_malloc_r+0x40>
100046e8:	68e4      	ldr	r4, [r4, #12]
100046ea:	42a1      	cmp	r1, r4
100046ec:	d006      	beq.n	100046fc <_malloc_r+0xbc>
100046ee:	4662      	mov	r2, ip
100046f0:	6863      	ldr	r3, [r4, #4]
100046f2:	4393      	bics	r3, r2
100046f4:	1b5a      	subs	r2, r3, r5
100046f6:	2a0f      	cmp	r2, #15
100046f8:	ddf4      	ble.n	100046e4 <_malloc_r+0xa4>
100046fa:	4640      	mov	r0, r8
100046fc:	003a      	movs	r2, r7
100046fe:	693c      	ldr	r4, [r7, #16]
10004700:	3208      	adds	r2, #8
10004702:	4294      	cmp	r4, r2
10004704:	d100      	bne.n	10004708 <_malloc_r+0xc8>
10004706:	e078      	b.n	100047fa <_malloc_r+0x1ba>
10004708:	2303      	movs	r3, #3
1000470a:	6861      	ldr	r1, [r4, #4]
1000470c:	4399      	bics	r1, r3
1000470e:	4689      	mov	r9, r1
10004710:	000b      	movs	r3, r1
10004712:	1b49      	subs	r1, r1, r5
10004714:	290f      	cmp	r1, #15
10004716:	dd00      	ble.n	1000471a <_malloc_r+0xda>
10004718:	e179      	b.n	10004a0e <_malloc_r+0x3ce>
1000471a:	617a      	str	r2, [r7, #20]
1000471c:	613a      	str	r2, [r7, #16]
1000471e:	2900      	cmp	r1, #0
10004720:	dab2      	bge.n	10004688 <_malloc_r+0x48>
10004722:	2280      	movs	r2, #128	; 0x80
10004724:	0092      	lsls	r2, r2, #2
10004726:	4591      	cmp	r9, r2
10004728:	d300      	bcc.n	1000472c <_malloc_r+0xec>
1000472a:	e10e      	b.n	1000494a <_malloc_r+0x30a>
1000472c:	0959      	lsrs	r1, r3, #5
1000472e:	08da      	lsrs	r2, r3, #3
10004730:	2301      	movs	r3, #1
10004732:	408b      	lsls	r3, r1
10004734:	00d2      	lsls	r2, r2, #3
10004736:	6879      	ldr	r1, [r7, #4]
10004738:	19d2      	adds	r2, r2, r7
1000473a:	430b      	orrs	r3, r1
1000473c:	6891      	ldr	r1, [r2, #8]
1000473e:	607b      	str	r3, [r7, #4]
10004740:	60e2      	str	r2, [r4, #12]
10004742:	60a1      	str	r1, [r4, #8]
10004744:	6094      	str	r4, [r2, #8]
10004746:	60cc      	str	r4, [r1, #12]
10004748:	2101      	movs	r1, #1
1000474a:	1082      	asrs	r2, r0, #2
1000474c:	4091      	lsls	r1, r2
1000474e:	4299      	cmp	r1, r3
10004750:	d859      	bhi.n	10004806 <_malloc_r+0x1c6>
10004752:	420b      	tst	r3, r1
10004754:	d105      	bne.n	10004762 <_malloc_r+0x122>
10004756:	2203      	movs	r2, #3
10004758:	4390      	bics	r0, r2
1000475a:	0049      	lsls	r1, r1, #1
1000475c:	3004      	adds	r0, #4
1000475e:	420b      	tst	r3, r1
10004760:	d0fb      	beq.n	1000475a <_malloc_r+0x11a>
10004762:	2303      	movs	r3, #3
10004764:	4698      	mov	r8, r3
10004766:	00c3      	lsls	r3, r0, #3
10004768:	4699      	mov	r9, r3
1000476a:	44b9      	add	r9, r7
1000476c:	46cc      	mov	ip, r9
1000476e:	4682      	mov	sl, r0
10004770:	4663      	mov	r3, ip
10004772:	68dc      	ldr	r4, [r3, #12]
10004774:	45a4      	cmp	ip, r4
10004776:	d107      	bne.n	10004788 <_malloc_r+0x148>
10004778:	e12a      	b.n	100049d0 <_malloc_r+0x390>
1000477a:	2a00      	cmp	r2, #0
1000477c:	db00      	blt.n	10004780 <_malloc_r+0x140>
1000477e:	e133      	b.n	100049e8 <_malloc_r+0x3a8>
10004780:	68e4      	ldr	r4, [r4, #12]
10004782:	45a4      	cmp	ip, r4
10004784:	d100      	bne.n	10004788 <_malloc_r+0x148>
10004786:	e123      	b.n	100049d0 <_malloc_r+0x390>
10004788:	4642      	mov	r2, r8
1000478a:	6863      	ldr	r3, [r4, #4]
1000478c:	4393      	bics	r3, r2
1000478e:	1b5a      	subs	r2, r3, r5
10004790:	2a0f      	cmp	r2, #15
10004792:	ddf2      	ble.n	1000477a <_malloc_r+0x13a>
10004794:	2001      	movs	r0, #1
10004796:	4680      	mov	r8, r0
10004798:	1961      	adds	r1, r4, r5
1000479a:	4305      	orrs	r5, r0
1000479c:	6065      	str	r5, [r4, #4]
1000479e:	68a0      	ldr	r0, [r4, #8]
100047a0:	68e5      	ldr	r5, [r4, #12]
100047a2:	3708      	adds	r7, #8
100047a4:	60c5      	str	r5, [r0, #12]
100047a6:	60a8      	str	r0, [r5, #8]
100047a8:	4640      	mov	r0, r8
100047aa:	4310      	orrs	r0, r2
100047ac:	60f9      	str	r1, [r7, #12]
100047ae:	60b9      	str	r1, [r7, #8]
100047b0:	6048      	str	r0, [r1, #4]
100047b2:	60cf      	str	r7, [r1, #12]
100047b4:	0030      	movs	r0, r6
100047b6:	608f      	str	r7, [r1, #8]
100047b8:	50e2      	str	r2, [r4, r3]
100047ba:	f000 fa09 	bl	10004bd0 <__malloc_unlock>
100047be:	0020      	movs	r0, r4
100047c0:	3008      	adds	r0, #8
100047c2:	e002      	b.n	100047ca <_malloc_r+0x18a>
100047c4:	230c      	movs	r3, #12
100047c6:	2000      	movs	r0, #0
100047c8:	6033      	str	r3, [r6, #0]
100047ca:	b003      	add	sp, #12
100047cc:	bc3c      	pop	{r2, r3, r4, r5}
100047ce:	4690      	mov	r8, r2
100047d0:	4699      	mov	r9, r3
100047d2:	46a2      	mov	sl, r4
100047d4:	46ab      	mov	fp, r5
100047d6:	bdf0      	pop	{r4, r5, r6, r7, pc}
100047d8:	2180      	movs	r1, #128	; 0x80
100047da:	233f      	movs	r3, #63	; 0x3f
100047dc:	2040      	movs	r0, #64	; 0x40
100047de:	4698      	mov	r8, r3
100047e0:	0089      	lsls	r1, r1, #2
100047e2:	e776      	b.n	100046d2 <_malloc_r+0x92>
100047e4:	68dc      	ldr	r4, [r3, #12]
100047e6:	3002      	adds	r0, #2
100047e8:	42a3      	cmp	r3, r4
100047ea:	d000      	beq.n	100047ee <_malloc_r+0x1ae>
100047ec:	e744      	b.n	10004678 <_malloc_r+0x38>
100047ee:	003a      	movs	r2, r7
100047f0:	693c      	ldr	r4, [r7, #16]
100047f2:	3208      	adds	r2, #8
100047f4:	4294      	cmp	r4, r2
100047f6:	d000      	beq.n	100047fa <_malloc_r+0x1ba>
100047f8:	e786      	b.n	10004708 <_malloc_r+0xc8>
100047fa:	2101      	movs	r1, #1
100047fc:	687b      	ldr	r3, [r7, #4]
100047fe:	1082      	asrs	r2, r0, #2
10004800:	4091      	lsls	r1, r2
10004802:	4299      	cmp	r1, r3
10004804:	d9a5      	bls.n	10004752 <_malloc_r+0x112>
10004806:	2303      	movs	r3, #3
10004808:	68bc      	ldr	r4, [r7, #8]
1000480a:	6862      	ldr	r2, [r4, #4]
1000480c:	439a      	bics	r2, r3
1000480e:	4691      	mov	r9, r2
10004810:	4295      	cmp	r5, r2
10004812:	d803      	bhi.n	1000481c <_malloc_r+0x1dc>
10004814:	1b53      	subs	r3, r2, r5
10004816:	2b0f      	cmp	r3, #15
10004818:	dd00      	ble.n	1000481c <_malloc_r+0x1dc>
1000481a:	e088      	b.n	1000492e <_malloc_r+0x2ee>
1000481c:	0023      	movs	r3, r4
1000481e:	444b      	add	r3, r9
10004820:	4a5e      	ldr	r2, [pc, #376]	; (1000499c <_malloc_r+0x35c>)
10004822:	9301      	str	r3, [sp, #4]
10004824:	4b5e      	ldr	r3, [pc, #376]	; (100049a0 <_malloc_r+0x360>)
10004826:	4693      	mov	fp, r2
10004828:	681b      	ldr	r3, [r3, #0]
1000482a:	6812      	ldr	r2, [r2, #0]
1000482c:	18eb      	adds	r3, r5, r3
1000482e:	3201      	adds	r2, #1
10004830:	d100      	bne.n	10004834 <_malloc_r+0x1f4>
10004832:	e13b      	b.n	10004aac <_malloc_r+0x46c>
10004834:	4a5b      	ldr	r2, [pc, #364]	; (100049a4 <_malloc_r+0x364>)
10004836:	4694      	mov	ip, r2
10004838:	4463      	add	r3, ip
1000483a:	0b1b      	lsrs	r3, r3, #12
1000483c:	031b      	lsls	r3, r3, #12
1000483e:	9300      	str	r3, [sp, #0]
10004840:	0030      	movs	r0, r6
10004842:	9900      	ldr	r1, [sp, #0]
10004844:	f000 f9cc 	bl	10004be0 <_sbrk_r>
10004848:	0003      	movs	r3, r0
1000484a:	4680      	mov	r8, r0
1000484c:	3301      	adds	r3, #1
1000484e:	d100      	bne.n	10004852 <_malloc_r+0x212>
10004850:	e0f8      	b.n	10004a44 <_malloc_r+0x404>
10004852:	9b01      	ldr	r3, [sp, #4]
10004854:	4283      	cmp	r3, r0
10004856:	d900      	bls.n	1000485a <_malloc_r+0x21a>
10004858:	e0f2      	b.n	10004a40 <_malloc_r+0x400>
1000485a:	4b53      	ldr	r3, [pc, #332]	; (100049a8 <_malloc_r+0x368>)
1000485c:	0019      	movs	r1, r3
1000485e:	469a      	mov	sl, r3
10004860:	6809      	ldr	r1, [r1, #0]
10004862:	9b00      	ldr	r3, [sp, #0]
10004864:	468c      	mov	ip, r1
10004866:	4651      	mov	r1, sl
10004868:	4463      	add	r3, ip
1000486a:	600b      	str	r3, [r1, #0]
1000486c:	9901      	ldr	r1, [sp, #4]
1000486e:	001a      	movs	r2, r3
10004870:	4281      	cmp	r1, r0
10004872:	d100      	bne.n	10004876 <_malloc_r+0x236>
10004874:	e150      	b.n	10004b18 <_malloc_r+0x4d8>
10004876:	465b      	mov	r3, fp
10004878:	681b      	ldr	r3, [r3, #0]
1000487a:	3301      	adds	r3, #1
1000487c:	d100      	bne.n	10004880 <_malloc_r+0x240>
1000487e:	e155      	b.n	10004b2c <_malloc_r+0x4ec>
10004880:	4643      	mov	r3, r8
10004882:	9901      	ldr	r1, [sp, #4]
10004884:	1a5b      	subs	r3, r3, r1
10004886:	189a      	adds	r2, r3, r2
10004888:	4653      	mov	r3, sl
1000488a:	601a      	str	r2, [r3, #0]
1000488c:	2307      	movs	r3, #7
1000488e:	4642      	mov	r2, r8
10004890:	4641      	mov	r1, r8
10004892:	401a      	ands	r2, r3
10004894:	9201      	str	r2, [sp, #4]
10004896:	4219      	tst	r1, r3
10004898:	d100      	bne.n	1000489c <_malloc_r+0x25c>
1000489a:	e111      	b.n	10004ac0 <_malloc_r+0x480>
1000489c:	2308      	movs	r3, #8
1000489e:	4698      	mov	r8, r3
100048a0:	1a88      	subs	r0, r1, r2
100048a2:	4b42      	ldr	r3, [pc, #264]	; (100049ac <_malloc_r+0x36c>)
100048a4:	9900      	ldr	r1, [sp, #0]
100048a6:	4480      	add	r8, r0
100048a8:	4441      	add	r1, r8
100048aa:	1a9b      	subs	r3, r3, r2
100048ac:	1a5b      	subs	r3, r3, r1
100048ae:	051b      	lsls	r3, r3, #20
100048b0:	0d1b      	lsrs	r3, r3, #20
100048b2:	9100      	str	r1, [sp, #0]
100048b4:	0030      	movs	r0, r6
100048b6:	0019      	movs	r1, r3
100048b8:	469b      	mov	fp, r3
100048ba:	f000 f991 	bl	10004be0 <_sbrk_r>
100048be:	1c43      	adds	r3, r0, #1
100048c0:	d100      	bne.n	100048c4 <_malloc_r+0x284>
100048c2:	e14f      	b.n	10004b64 <_malloc_r+0x524>
100048c4:	4643      	mov	r3, r8
100048c6:	1ac0      	subs	r0, r0, r3
100048c8:	0003      	movs	r3, r0
100048ca:	445b      	add	r3, fp
100048cc:	9300      	str	r3, [sp, #0]
100048ce:	4653      	mov	r3, sl
100048d0:	4652      	mov	r2, sl
100048d2:	681b      	ldr	r3, [r3, #0]
100048d4:	2101      	movs	r1, #1
100048d6:	445b      	add	r3, fp
100048d8:	6013      	str	r3, [r2, #0]
100048da:	4642      	mov	r2, r8
100048dc:	4640      	mov	r0, r8
100048de:	60ba      	str	r2, [r7, #8]
100048e0:	9a00      	ldr	r2, [sp, #0]
100048e2:	430a      	orrs	r2, r1
100048e4:	6042      	str	r2, [r0, #4]
100048e6:	42bc      	cmp	r4, r7
100048e8:	d100      	bne.n	100048ec <_malloc_r+0x2ac>
100048ea:	e123      	b.n	10004b34 <_malloc_r+0x4f4>
100048ec:	464a      	mov	r2, r9
100048ee:	2a0f      	cmp	r2, #15
100048f0:	d800      	bhi.n	100048f4 <_malloc_r+0x2b4>
100048f2:	e121      	b.n	10004b38 <_malloc_r+0x4f8>
100048f4:	2007      	movs	r0, #7
100048f6:	3a0c      	subs	r2, #12
100048f8:	4382      	bics	r2, r0
100048fa:	6860      	ldr	r0, [r4, #4]
100048fc:	4001      	ands	r1, r0
100048fe:	2005      	movs	r0, #5
10004900:	4311      	orrs	r1, r2
10004902:	6061      	str	r1, [r4, #4]
10004904:	18a1      	adds	r1, r4, r2
10004906:	6048      	str	r0, [r1, #4]
10004908:	6088      	str	r0, [r1, #8]
1000490a:	2a0f      	cmp	r2, #15
1000490c:	d900      	bls.n	10004910 <_malloc_r+0x2d0>
1000490e:	e134      	b.n	10004b7a <_malloc_r+0x53a>
10004910:	4642      	mov	r2, r8
10004912:	4644      	mov	r4, r8
10004914:	6852      	ldr	r2, [r2, #4]
10004916:	4926      	ldr	r1, [pc, #152]	; (100049b0 <_malloc_r+0x370>)
10004918:	6808      	ldr	r0, [r1, #0]
1000491a:	4298      	cmp	r0, r3
1000491c:	d200      	bcs.n	10004920 <_malloc_r+0x2e0>
1000491e:	600b      	str	r3, [r1, #0]
10004920:	4924      	ldr	r1, [pc, #144]	; (100049b4 <_malloc_r+0x374>)
10004922:	6808      	ldr	r0, [r1, #0]
10004924:	4298      	cmp	r0, r3
10004926:	d300      	bcc.n	1000492a <_malloc_r+0x2ea>
10004928:	e08e      	b.n	10004a48 <_malloc_r+0x408>
1000492a:	600b      	str	r3, [r1, #0]
1000492c:	e08c      	b.n	10004a48 <_malloc_r+0x408>
1000492e:	2201      	movs	r2, #1
10004930:	0029      	movs	r1, r5
10004932:	4313      	orrs	r3, r2
10004934:	4311      	orrs	r1, r2
10004936:	1965      	adds	r5, r4, r5
10004938:	6061      	str	r1, [r4, #4]
1000493a:	0030      	movs	r0, r6
1000493c:	60bd      	str	r5, [r7, #8]
1000493e:	606b      	str	r3, [r5, #4]
10004940:	f000 f946 	bl	10004bd0 <__malloc_unlock>
10004944:	0020      	movs	r0, r4
10004946:	3008      	adds	r0, #8
10004948:	e73f      	b.n	100047ca <_malloc_r+0x18a>
1000494a:	0a5a      	lsrs	r2, r3, #9
1000494c:	2a04      	cmp	r2, #4
1000494e:	d971      	bls.n	10004a34 <_malloc_r+0x3f4>
10004950:	2a14      	cmp	r2, #20
10004952:	d900      	bls.n	10004956 <_malloc_r+0x316>
10004954:	e0c4      	b.n	10004ae0 <_malloc_r+0x4a0>
10004956:	0011      	movs	r1, r2
10004958:	325c      	adds	r2, #92	; 0x5c
1000495a:	315b      	adds	r1, #91	; 0x5b
1000495c:	00d2      	lsls	r2, r2, #3
1000495e:	2308      	movs	r3, #8
10004960:	425b      	negs	r3, r3
10004962:	469c      	mov	ip, r3
10004964:	18ba      	adds	r2, r7, r2
10004966:	4494      	add	ip, r2
10004968:	4663      	mov	r3, ip
1000496a:	689a      	ldr	r2, [r3, #8]
1000496c:	2303      	movs	r3, #3
1000496e:	4698      	mov	r8, r3
10004970:	4594      	cmp	ip, r2
10004972:	d100      	bne.n	10004976 <_malloc_r+0x336>
10004974:	e09d      	b.n	10004ab2 <_malloc_r+0x472>
10004976:	4643      	mov	r3, r8
10004978:	6851      	ldr	r1, [r2, #4]
1000497a:	4399      	bics	r1, r3
1000497c:	4549      	cmp	r1, r9
1000497e:	d902      	bls.n	10004986 <_malloc_r+0x346>
10004980:	6892      	ldr	r2, [r2, #8]
10004982:	4594      	cmp	ip, r2
10004984:	d1f7      	bne.n	10004976 <_malloc_r+0x336>
10004986:	68d3      	ldr	r3, [r2, #12]
10004988:	469c      	mov	ip, r3
1000498a:	687b      	ldr	r3, [r7, #4]
1000498c:	4661      	mov	r1, ip
1000498e:	60a2      	str	r2, [r4, #8]
10004990:	60e1      	str	r1, [r4, #12]
10004992:	608c      	str	r4, [r1, #8]
10004994:	60d4      	str	r4, [r2, #12]
10004996:	e6d7      	b.n	10004748 <_malloc_r+0x108>
10004998:	200006f0 	.word	0x200006f0
1000499c:	20000af8 	.word	0x20000af8
100049a0:	20000b68 	.word	0x20000b68
100049a4:	0000100f 	.word	0x0000100f
100049a8:	20000b38 	.word	0x20000b38
100049ac:	00001008 	.word	0x00001008
100049b0:	20000b60 	.word	0x20000b60
100049b4:	20000b64 	.word	0x20000b64
100049b8:	2814      	cmp	r0, #20
100049ba:	d952      	bls.n	10004a62 <_malloc_r+0x422>
100049bc:	2854      	cmp	r0, #84	; 0x54
100049be:	d900      	bls.n	100049c2 <_malloc_r+0x382>
100049c0:	e096      	b.n	10004af0 <_malloc_r+0x4b0>
100049c2:	236e      	movs	r3, #110	; 0x6e
100049c4:	4698      	mov	r8, r3
100049c6:	0b28      	lsrs	r0, r5, #12
100049c8:	4480      	add	r8, r0
100049ca:	306f      	adds	r0, #111	; 0x6f
100049cc:	00c1      	lsls	r1, r0, #3
100049ce:	e680      	b.n	100046d2 <_malloc_r+0x92>
100049d0:	2308      	movs	r3, #8
100049d2:	469b      	mov	fp, r3
100049d4:	3b07      	subs	r3, #7
100049d6:	44dc      	add	ip, fp
100049d8:	469b      	mov	fp, r3
100049da:	44da      	add	sl, fp
100049dc:	4643      	mov	r3, r8
100049de:	4652      	mov	r2, sl
100049e0:	4213      	tst	r3, r2
100049e2:	d000      	beq.n	100049e6 <_malloc_r+0x3a6>
100049e4:	e6c4      	b.n	10004770 <_malloc_r+0x130>
100049e6:	e04c      	b.n	10004a82 <_malloc_r+0x442>
100049e8:	2201      	movs	r2, #1
100049ea:	18e3      	adds	r3, r4, r3
100049ec:	6859      	ldr	r1, [r3, #4]
100049ee:	0030      	movs	r0, r6
100049f0:	430a      	orrs	r2, r1
100049f2:	605a      	str	r2, [r3, #4]
100049f4:	68e3      	ldr	r3, [r4, #12]
100049f6:	68a2      	ldr	r2, [r4, #8]
100049f8:	60d3      	str	r3, [r2, #12]
100049fa:	609a      	str	r2, [r3, #8]
100049fc:	f000 f8e8 	bl	10004bd0 <__malloc_unlock>
10004a00:	0020      	movs	r0, r4
10004a02:	3008      	adds	r0, #8
10004a04:	e6e1      	b.n	100047ca <_malloc_r+0x18a>
10004a06:	002b      	movs	r3, r5
10004a08:	08e8      	lsrs	r0, r5, #3
10004a0a:	3308      	adds	r3, #8
10004a0c:	e62c      	b.n	10004668 <_malloc_r+0x28>
10004a0e:	2301      	movs	r3, #1
10004a10:	1960      	adds	r0, r4, r5
10004a12:	431d      	orrs	r5, r3
10004a14:	6065      	str	r5, [r4, #4]
10004a16:	6178      	str	r0, [r7, #20]
10004a18:	6138      	str	r0, [r7, #16]
10004a1a:	60c2      	str	r2, [r0, #12]
10004a1c:	6082      	str	r2, [r0, #8]
10004a1e:	001a      	movs	r2, r3
10004a20:	464b      	mov	r3, r9
10004a22:	430a      	orrs	r2, r1
10004a24:	6042      	str	r2, [r0, #4]
10004a26:	0030      	movs	r0, r6
10004a28:	50e1      	str	r1, [r4, r3]
10004a2a:	f000 f8d1 	bl	10004bd0 <__malloc_unlock>
10004a2e:	0020      	movs	r0, r4
10004a30:	3008      	adds	r0, #8
10004a32:	e6ca      	b.n	100047ca <_malloc_r+0x18a>
10004a34:	099a      	lsrs	r2, r3, #6
10004a36:	0011      	movs	r1, r2
10004a38:	3239      	adds	r2, #57	; 0x39
10004a3a:	3138      	adds	r1, #56	; 0x38
10004a3c:	00d2      	lsls	r2, r2, #3
10004a3e:	e78e      	b.n	1000495e <_malloc_r+0x31e>
10004a40:	42bc      	cmp	r4, r7
10004a42:	d060      	beq.n	10004b06 <_malloc_r+0x4c6>
10004a44:	68bc      	ldr	r4, [r7, #8]
10004a46:	6862      	ldr	r2, [r4, #4]
10004a48:	2303      	movs	r3, #3
10004a4a:	439a      	bics	r2, r3
10004a4c:	1b53      	subs	r3, r2, r5
10004a4e:	4295      	cmp	r5, r2
10004a50:	d802      	bhi.n	10004a58 <_malloc_r+0x418>
10004a52:	2b0f      	cmp	r3, #15
10004a54:	dd00      	ble.n	10004a58 <_malloc_r+0x418>
10004a56:	e76a      	b.n	1000492e <_malloc_r+0x2ee>
10004a58:	0030      	movs	r0, r6
10004a5a:	f000 f8b9 	bl	10004bd0 <__malloc_unlock>
10004a5e:	2000      	movs	r0, #0
10004a60:	e6b3      	b.n	100047ca <_malloc_r+0x18a>
10004a62:	235b      	movs	r3, #91	; 0x5b
10004a64:	4698      	mov	r8, r3
10004a66:	4480      	add	r8, r0
10004a68:	305c      	adds	r0, #92	; 0x5c
10004a6a:	00c1      	lsls	r1, r0, #3
10004a6c:	e631      	b.n	100046d2 <_malloc_r+0x92>
10004a6e:	2308      	movs	r3, #8
10004a70:	425b      	negs	r3, r3
10004a72:	469c      	mov	ip, r3
10004a74:	44e1      	add	r9, ip
10004a76:	464b      	mov	r3, r9
10004a78:	689b      	ldr	r3, [r3, #8]
10004a7a:	3801      	subs	r0, #1
10004a7c:	454b      	cmp	r3, r9
10004a7e:	d000      	beq.n	10004a82 <_malloc_r+0x442>
10004a80:	e098      	b.n	10004bb4 <_malloc_r+0x574>
10004a82:	4643      	mov	r3, r8
10004a84:	4203      	tst	r3, r0
10004a86:	d1f2      	bne.n	10004a6e <_malloc_r+0x42e>
10004a88:	687b      	ldr	r3, [r7, #4]
10004a8a:	438b      	bics	r3, r1
10004a8c:	607b      	str	r3, [r7, #4]
10004a8e:	0049      	lsls	r1, r1, #1
10004a90:	4299      	cmp	r1, r3
10004a92:	d900      	bls.n	10004a96 <_malloc_r+0x456>
10004a94:	e6b7      	b.n	10004806 <_malloc_r+0x1c6>
10004a96:	2900      	cmp	r1, #0
10004a98:	d104      	bne.n	10004aa4 <_malloc_r+0x464>
10004a9a:	e6b4      	b.n	10004806 <_malloc_r+0x1c6>
10004a9c:	2204      	movs	r2, #4
10004a9e:	4694      	mov	ip, r2
10004aa0:	0049      	lsls	r1, r1, #1
10004aa2:	44e2      	add	sl, ip
10004aa4:	420b      	tst	r3, r1
10004aa6:	d0f9      	beq.n	10004a9c <_malloc_r+0x45c>
10004aa8:	4650      	mov	r0, sl
10004aaa:	e65c      	b.n	10004766 <_malloc_r+0x126>
10004aac:	3310      	adds	r3, #16
10004aae:	9300      	str	r3, [sp, #0]
10004ab0:	e6c6      	b.n	10004840 <_malloc_r+0x200>
10004ab2:	1089      	asrs	r1, r1, #2
10004ab4:	3b02      	subs	r3, #2
10004ab6:	408b      	lsls	r3, r1
10004ab8:	6879      	ldr	r1, [r7, #4]
10004aba:	430b      	orrs	r3, r1
10004abc:	607b      	str	r3, [r7, #4]
10004abe:	e765      	b.n	1000498c <_malloc_r+0x34c>
10004ac0:	9b00      	ldr	r3, [sp, #0]
10004ac2:	0030      	movs	r0, r6
10004ac4:	4443      	add	r3, r8
10004ac6:	425b      	negs	r3, r3
10004ac8:	051b      	lsls	r3, r3, #20
10004aca:	0d1b      	lsrs	r3, r3, #20
10004acc:	0019      	movs	r1, r3
10004ace:	469b      	mov	fp, r3
10004ad0:	f000 f886 	bl	10004be0 <_sbrk_r>
10004ad4:	1c43      	adds	r3, r0, #1
10004ad6:	d000      	beq.n	10004ada <_malloc_r+0x49a>
10004ad8:	e6f4      	b.n	100048c4 <_malloc_r+0x284>
10004ada:	2300      	movs	r3, #0
10004adc:	469b      	mov	fp, r3
10004ade:	e6f6      	b.n	100048ce <_malloc_r+0x28e>
10004ae0:	2a54      	cmp	r2, #84	; 0x54
10004ae2:	d82b      	bhi.n	10004b3c <_malloc_r+0x4fc>
10004ae4:	0b1a      	lsrs	r2, r3, #12
10004ae6:	0011      	movs	r1, r2
10004ae8:	326f      	adds	r2, #111	; 0x6f
10004aea:	316e      	adds	r1, #110	; 0x6e
10004aec:	00d2      	lsls	r2, r2, #3
10004aee:	e736      	b.n	1000495e <_malloc_r+0x31e>
10004af0:	23aa      	movs	r3, #170	; 0xaa
10004af2:	005b      	lsls	r3, r3, #1
10004af4:	4298      	cmp	r0, r3
10004af6:	d82b      	bhi.n	10004b50 <_malloc_r+0x510>
10004af8:	3bdd      	subs	r3, #221	; 0xdd
10004afa:	4698      	mov	r8, r3
10004afc:	0be8      	lsrs	r0, r5, #15
10004afe:	4480      	add	r8, r0
10004b00:	3078      	adds	r0, #120	; 0x78
10004b02:	00c1      	lsls	r1, r0, #3
10004b04:	e5e5      	b.n	100046d2 <_malloc_r+0x92>
10004b06:	4b2c      	ldr	r3, [pc, #176]	; (10004bb8 <_malloc_r+0x578>)
10004b08:	9a00      	ldr	r2, [sp, #0]
10004b0a:	469a      	mov	sl, r3
10004b0c:	681b      	ldr	r3, [r3, #0]
10004b0e:	469c      	mov	ip, r3
10004b10:	4653      	mov	r3, sl
10004b12:	4462      	add	r2, ip
10004b14:	601a      	str	r2, [r3, #0]
10004b16:	e6ae      	b.n	10004876 <_malloc_r+0x236>
10004b18:	0509      	lsls	r1, r1, #20
10004b1a:	d000      	beq.n	10004b1e <_malloc_r+0x4de>
10004b1c:	e6ab      	b.n	10004876 <_malloc_r+0x236>
10004b1e:	9a00      	ldr	r2, [sp, #0]
10004b20:	68bc      	ldr	r4, [r7, #8]
10004b22:	444a      	add	r2, r9
10004b24:	3101      	adds	r1, #1
10004b26:	430a      	orrs	r2, r1
10004b28:	6062      	str	r2, [r4, #4]
10004b2a:	e6f4      	b.n	10004916 <_malloc_r+0x2d6>
10004b2c:	465b      	mov	r3, fp
10004b2e:	4642      	mov	r2, r8
10004b30:	601a      	str	r2, [r3, #0]
10004b32:	e6ab      	b.n	1000488c <_malloc_r+0x24c>
10004b34:	4644      	mov	r4, r8
10004b36:	e6ee      	b.n	10004916 <_malloc_r+0x2d6>
10004b38:	6041      	str	r1, [r0, #4]
10004b3a:	e78d      	b.n	10004a58 <_malloc_r+0x418>
10004b3c:	21aa      	movs	r1, #170	; 0xaa
10004b3e:	0049      	lsls	r1, r1, #1
10004b40:	428a      	cmp	r2, r1
10004b42:	d824      	bhi.n	10004b8e <_malloc_r+0x54e>
10004b44:	0bda      	lsrs	r2, r3, #15
10004b46:	0011      	movs	r1, r2
10004b48:	3278      	adds	r2, #120	; 0x78
10004b4a:	3177      	adds	r1, #119	; 0x77
10004b4c:	00d2      	lsls	r2, r2, #3
10004b4e:	e706      	b.n	1000495e <_malloc_r+0x31e>
10004b50:	4b1a      	ldr	r3, [pc, #104]	; (10004bbc <_malloc_r+0x57c>)
10004b52:	4298      	cmp	r0, r3
10004b54:	d824      	bhi.n	10004ba0 <_malloc_r+0x560>
10004b56:	237c      	movs	r3, #124	; 0x7c
10004b58:	4698      	mov	r8, r3
10004b5a:	0ca8      	lsrs	r0, r5, #18
10004b5c:	4480      	add	r8, r0
10004b5e:	307d      	adds	r0, #125	; 0x7d
10004b60:	00c1      	lsls	r1, r0, #3
10004b62:	e5b6      	b.n	100046d2 <_malloc_r+0x92>
10004b64:	9a00      	ldr	r2, [sp, #0]
10004b66:	9b01      	ldr	r3, [sp, #4]
10004b68:	4694      	mov	ip, r2
10004b6a:	4642      	mov	r2, r8
10004b6c:	3b08      	subs	r3, #8
10004b6e:	4463      	add	r3, ip
10004b70:	1a9b      	subs	r3, r3, r2
10004b72:	9300      	str	r3, [sp, #0]
10004b74:	2300      	movs	r3, #0
10004b76:	469b      	mov	fp, r3
10004b78:	e6a9      	b.n	100048ce <_malloc_r+0x28e>
10004b7a:	0021      	movs	r1, r4
10004b7c:	0030      	movs	r0, r6
10004b7e:	3108      	adds	r1, #8
10004b80:	f000 f8bc 	bl	10004cfc <_free_r>
10004b84:	4653      	mov	r3, sl
10004b86:	68bc      	ldr	r4, [r7, #8]
10004b88:	681b      	ldr	r3, [r3, #0]
10004b8a:	6862      	ldr	r2, [r4, #4]
10004b8c:	e6c3      	b.n	10004916 <_malloc_r+0x2d6>
10004b8e:	490b      	ldr	r1, [pc, #44]	; (10004bbc <_malloc_r+0x57c>)
10004b90:	428a      	cmp	r2, r1
10004b92:	d80b      	bhi.n	10004bac <_malloc_r+0x56c>
10004b94:	0c9a      	lsrs	r2, r3, #18
10004b96:	0011      	movs	r1, r2
10004b98:	327d      	adds	r2, #125	; 0x7d
10004b9a:	317c      	adds	r1, #124	; 0x7c
10004b9c:	00d2      	lsls	r2, r2, #3
10004b9e:	e6de      	b.n	1000495e <_malloc_r+0x31e>
10004ba0:	21fe      	movs	r1, #254	; 0xfe
10004ba2:	237e      	movs	r3, #126	; 0x7e
10004ba4:	207f      	movs	r0, #127	; 0x7f
10004ba6:	4698      	mov	r8, r3
10004ba8:	0089      	lsls	r1, r1, #2
10004baa:	e592      	b.n	100046d2 <_malloc_r+0x92>
10004bac:	22fe      	movs	r2, #254	; 0xfe
10004bae:	217e      	movs	r1, #126	; 0x7e
10004bb0:	0092      	lsls	r2, r2, #2
10004bb2:	e6d4      	b.n	1000495e <_malloc_r+0x31e>
10004bb4:	687b      	ldr	r3, [r7, #4]
10004bb6:	e76a      	b.n	10004a8e <_malloc_r+0x44e>
10004bb8:	20000b38 	.word	0x20000b38
10004bbc:	00000554 	.word	0x00000554

10004bc0 <__malloc_lock>:
10004bc0:	b510      	push	{r4, lr}
10004bc2:	4802      	ldr	r0, [pc, #8]	; (10004bcc <__malloc_lock+0xc>)
10004bc4:	f000 f97c 	bl	10004ec0 <__retarget_lock_acquire_recursive>
10004bc8:	bd10      	pop	{r4, pc}
10004bca:	46c0      	nop			; (mov r8, r8)
10004bcc:	20000df4 	.word	0x20000df4

10004bd0 <__malloc_unlock>:
10004bd0:	b510      	push	{r4, lr}
10004bd2:	4802      	ldr	r0, [pc, #8]	; (10004bdc <__malloc_unlock+0xc>)
10004bd4:	f000 f976 	bl	10004ec4 <__retarget_lock_release_recursive>
10004bd8:	bd10      	pop	{r4, pc}
10004bda:	46c0      	nop			; (mov r8, r8)
10004bdc:	20000df4 	.word	0x20000df4

10004be0 <_sbrk_r>:
10004be0:	2300      	movs	r3, #0
10004be2:	b570      	push	{r4, r5, r6, lr}
10004be4:	4d06      	ldr	r5, [pc, #24]	; (10004c00 <_sbrk_r+0x20>)
10004be6:	0004      	movs	r4, r0
10004be8:	0008      	movs	r0, r1
10004bea:	602b      	str	r3, [r5, #0]
10004bec:	f7fc fc58 	bl	100014a0 <_sbrk>
10004bf0:	1c43      	adds	r3, r0, #1
10004bf2:	d000      	beq.n	10004bf6 <_sbrk_r+0x16>
10004bf4:	bd70      	pop	{r4, r5, r6, pc}
10004bf6:	682b      	ldr	r3, [r5, #0]
10004bf8:	2b00      	cmp	r3, #0
10004bfa:	d0fb      	beq.n	10004bf4 <_sbrk_r+0x14>
10004bfc:	6023      	str	r3, [r4, #0]
10004bfe:	e7f9      	b.n	10004bf4 <_sbrk_r+0x14>
10004c00:	20000e08 	.word	0x20000e08

10004c04 <strlen>:
10004c04:	b510      	push	{r4, lr}
10004c06:	0783      	lsls	r3, r0, #30
10004c08:	d00a      	beq.n	10004c20 <strlen+0x1c>
10004c0a:	0003      	movs	r3, r0
10004c0c:	2103      	movs	r1, #3
10004c0e:	e002      	b.n	10004c16 <strlen+0x12>
10004c10:	3301      	adds	r3, #1
10004c12:	420b      	tst	r3, r1
10004c14:	d005      	beq.n	10004c22 <strlen+0x1e>
10004c16:	781a      	ldrb	r2, [r3, #0]
10004c18:	2a00      	cmp	r2, #0
10004c1a:	d1f9      	bne.n	10004c10 <strlen+0xc>
10004c1c:	1a18      	subs	r0, r3, r0
10004c1e:	bd10      	pop	{r4, pc}
10004c20:	0003      	movs	r3, r0
10004c22:	6819      	ldr	r1, [r3, #0]
10004c24:	4a0c      	ldr	r2, [pc, #48]	; (10004c58 <strlen+0x54>)
10004c26:	4c0d      	ldr	r4, [pc, #52]	; (10004c5c <strlen+0x58>)
10004c28:	188a      	adds	r2, r1, r2
10004c2a:	438a      	bics	r2, r1
10004c2c:	4222      	tst	r2, r4
10004c2e:	d10f      	bne.n	10004c50 <strlen+0x4c>
10004c30:	6859      	ldr	r1, [r3, #4]
10004c32:	4a09      	ldr	r2, [pc, #36]	; (10004c58 <strlen+0x54>)
10004c34:	3304      	adds	r3, #4
10004c36:	188a      	adds	r2, r1, r2
10004c38:	438a      	bics	r2, r1
10004c3a:	4222      	tst	r2, r4
10004c3c:	d108      	bne.n	10004c50 <strlen+0x4c>
10004c3e:	6859      	ldr	r1, [r3, #4]
10004c40:	4a05      	ldr	r2, [pc, #20]	; (10004c58 <strlen+0x54>)
10004c42:	3304      	adds	r3, #4
10004c44:	188a      	adds	r2, r1, r2
10004c46:	438a      	bics	r2, r1
10004c48:	4222      	tst	r2, r4
10004c4a:	d0f1      	beq.n	10004c30 <strlen+0x2c>
10004c4c:	e000      	b.n	10004c50 <strlen+0x4c>
10004c4e:	3301      	adds	r3, #1
10004c50:	781a      	ldrb	r2, [r3, #0]
10004c52:	2a00      	cmp	r2, #0
10004c54:	d1fb      	bne.n	10004c4e <strlen+0x4a>
10004c56:	e7e1      	b.n	10004c1c <strlen+0x18>
10004c58:	fefefeff 	.word	0xfefefeff
10004c5c:	80808080 	.word	0x80808080

10004c60 <_malloc_trim_r>:
10004c60:	b5f8      	push	{r3, r4, r5, r6, r7, lr}
10004c62:	000c      	movs	r4, r1
10004c64:	0005      	movs	r5, r0
10004c66:	f7ff ffab 	bl	10004bc0 <__malloc_lock>
10004c6a:	4f20      	ldr	r7, [pc, #128]	; (10004cec <_malloc_trim_r+0x8c>)
10004c6c:	68bb      	ldr	r3, [r7, #8]
10004c6e:	685e      	ldr	r6, [r3, #4]
10004c70:	2303      	movs	r3, #3
10004c72:	439e      	bics	r6, r3
10004c74:	4b1e      	ldr	r3, [pc, #120]	; (10004cf0 <_malloc_trim_r+0x90>)
10004c76:	1b34      	subs	r4, r6, r4
10004c78:	469c      	mov	ip, r3
10004c7a:	4464      	add	r4, ip
10004c7c:	0b24      	lsrs	r4, r4, #12
10004c7e:	3c01      	subs	r4, #1
10004c80:	3311      	adds	r3, #17
10004c82:	0324      	lsls	r4, r4, #12
10004c84:	429c      	cmp	r4, r3
10004c86:	db07      	blt.n	10004c98 <_malloc_trim_r+0x38>
10004c88:	2100      	movs	r1, #0
10004c8a:	0028      	movs	r0, r5
10004c8c:	f7ff ffa8 	bl	10004be0 <_sbrk_r>
10004c90:	68bb      	ldr	r3, [r7, #8]
10004c92:	199b      	adds	r3, r3, r6
10004c94:	4298      	cmp	r0, r3
10004c96:	d004      	beq.n	10004ca2 <_malloc_trim_r+0x42>
10004c98:	0028      	movs	r0, r5
10004c9a:	f7ff ff99 	bl	10004bd0 <__malloc_unlock>
10004c9e:	2000      	movs	r0, #0
10004ca0:	bdf8      	pop	{r3, r4, r5, r6, r7, pc}
10004ca2:	0028      	movs	r0, r5
10004ca4:	4261      	negs	r1, r4
10004ca6:	f7ff ff9b 	bl	10004be0 <_sbrk_r>
10004caa:	1c43      	adds	r3, r0, #1
10004cac:	d00d      	beq.n	10004cca <_malloc_trim_r+0x6a>
10004cae:	2201      	movs	r2, #1
10004cb0:	68bb      	ldr	r3, [r7, #8]
10004cb2:	1b36      	subs	r6, r6, r4
10004cb4:	4316      	orrs	r6, r2
10004cb6:	605e      	str	r6, [r3, #4]
10004cb8:	4b0e      	ldr	r3, [pc, #56]	; (10004cf4 <_malloc_trim_r+0x94>)
10004cba:	0028      	movs	r0, r5
10004cbc:	681a      	ldr	r2, [r3, #0]
10004cbe:	1b14      	subs	r4, r2, r4
10004cc0:	601c      	str	r4, [r3, #0]
10004cc2:	f7ff ff85 	bl	10004bd0 <__malloc_unlock>
10004cc6:	2001      	movs	r0, #1
10004cc8:	e7ea      	b.n	10004ca0 <_malloc_trim_r+0x40>
10004cca:	2100      	movs	r1, #0
10004ccc:	0028      	movs	r0, r5
10004cce:	f7ff ff87 	bl	10004be0 <_sbrk_r>
10004cd2:	68ba      	ldr	r2, [r7, #8]
10004cd4:	1a83      	subs	r3, r0, r2
10004cd6:	2b0f      	cmp	r3, #15
10004cd8:	ddde      	ble.n	10004c98 <_malloc_trim_r+0x38>
10004cda:	4907      	ldr	r1, [pc, #28]	; (10004cf8 <_malloc_trim_r+0x98>)
10004cdc:	6809      	ldr	r1, [r1, #0]
10004cde:	1a40      	subs	r0, r0, r1
10004ce0:	4904      	ldr	r1, [pc, #16]	; (10004cf4 <_malloc_trim_r+0x94>)
10004ce2:	6008      	str	r0, [r1, #0]
10004ce4:	2101      	movs	r1, #1
10004ce6:	430b      	orrs	r3, r1
10004ce8:	6053      	str	r3, [r2, #4]
10004cea:	e7d5      	b.n	10004c98 <_malloc_trim_r+0x38>
10004cec:	200006f0 	.word	0x200006f0
10004cf0:	00000fef 	.word	0x00000fef
10004cf4:	20000b38 	.word	0x20000b38
10004cf8:	20000af8 	.word	0x20000af8

10004cfc <_free_r>:
10004cfc:	b5f0      	push	{r4, r5, r6, r7, lr}
10004cfe:	46c6      	mov	lr, r8
10004d00:	0005      	movs	r5, r0
10004d02:	000c      	movs	r4, r1
10004d04:	b500      	push	{lr}
10004d06:	2900      	cmp	r1, #0
10004d08:	d04f      	beq.n	10004daa <_free_r+0xae>
10004d0a:	f7ff ff59 	bl	10004bc0 <__malloc_lock>
10004d0e:	0021      	movs	r1, r4
10004d10:	3908      	subs	r1, #8
10004d12:	684c      	ldr	r4, [r1, #4]
10004d14:	2601      	movs	r6, #1
10004d16:	0022      	movs	r2, r4
10004d18:	2003      	movs	r0, #3
10004d1a:	43b2      	bics	r2, r6
10004d1c:	188f      	adds	r7, r1, r2
10004d1e:	687b      	ldr	r3, [r7, #4]
10004d20:	4383      	bics	r3, r0
10004d22:	4862      	ldr	r0, [pc, #392]	; (10004eac <_free_r+0x1b0>)
10004d24:	4698      	mov	r8, r3
10004d26:	6883      	ldr	r3, [r0, #8]
10004d28:	42bb      	cmp	r3, r7
10004d2a:	d06b      	beq.n	10004e04 <_free_r+0x108>
10004d2c:	4643      	mov	r3, r8
10004d2e:	607b      	str	r3, [r7, #4]
10004d30:	4226      	tst	r6, r4
10004d32:	d11e      	bne.n	10004d72 <_free_r+0x76>
10004d34:	2308      	movs	r3, #8
10004d36:	469c      	mov	ip, r3
10004d38:	680c      	ldr	r4, [r1, #0]
10004d3a:	4484      	add	ip, r0
10004d3c:	1b09      	subs	r1, r1, r4
10004d3e:	1912      	adds	r2, r2, r4
10004d40:	688c      	ldr	r4, [r1, #8]
10004d42:	4564      	cmp	r4, ip
10004d44:	d04f      	beq.n	10004de6 <_free_r+0xea>
10004d46:	68cb      	ldr	r3, [r1, #12]
10004d48:	60e3      	str	r3, [r4, #12]
10004d4a:	609c      	str	r4, [r3, #8]
10004d4c:	4643      	mov	r3, r8
10004d4e:	18fc      	adds	r4, r7, r3
10004d50:	6864      	ldr	r4, [r4, #4]
10004d52:	4234      	tst	r4, r6
10004d54:	d111      	bne.n	10004d7a <_free_r+0x7e>
10004d56:	68bb      	ldr	r3, [r7, #8]
10004d58:	4c55      	ldr	r4, [pc, #340]	; (10004eb0 <_free_r+0x1b4>)
10004d5a:	4442      	add	r2, r8
10004d5c:	42a3      	cmp	r3, r4
10004d5e:	d100      	bne.n	10004d62 <_free_r+0x66>
10004d60:	e07f      	b.n	10004e62 <_free_r+0x166>
10004d62:	68fc      	ldr	r4, [r7, #12]
10004d64:	60dc      	str	r4, [r3, #12]
10004d66:	60a3      	str	r3, [r4, #8]
10004d68:	2301      	movs	r3, #1
10004d6a:	4313      	orrs	r3, r2
10004d6c:	604b      	str	r3, [r1, #4]
10004d6e:	508a      	str	r2, [r1, r2]
10004d70:	e006      	b.n	10004d80 <_free_r+0x84>
10004d72:	18fc      	adds	r4, r7, r3
10004d74:	6864      	ldr	r4, [r4, #4]
10004d76:	4234      	tst	r4, r6
10004d78:	d0ed      	beq.n	10004d56 <_free_r+0x5a>
10004d7a:	4316      	orrs	r6, r2
10004d7c:	604e      	str	r6, [r1, #4]
10004d7e:	603a      	str	r2, [r7, #0]
10004d80:	2380      	movs	r3, #128	; 0x80
10004d82:	009b      	lsls	r3, r3, #2
10004d84:	429a      	cmp	r2, r3
10004d86:	d213      	bcs.n	10004db0 <_free_r+0xb4>
10004d88:	0954      	lsrs	r4, r2, #5
10004d8a:	08d3      	lsrs	r3, r2, #3
10004d8c:	2201      	movs	r2, #1
10004d8e:	40a2      	lsls	r2, r4
10004d90:	6844      	ldr	r4, [r0, #4]
10004d92:	00db      	lsls	r3, r3, #3
10004d94:	4322      	orrs	r2, r4
10004d96:	6042      	str	r2, [r0, #4]
10004d98:	1818      	adds	r0, r3, r0
10004d9a:	6883      	ldr	r3, [r0, #8]
10004d9c:	60c8      	str	r0, [r1, #12]
10004d9e:	608b      	str	r3, [r1, #8]
10004da0:	6081      	str	r1, [r0, #8]
10004da2:	60d9      	str	r1, [r3, #12]
10004da4:	0028      	movs	r0, r5
10004da6:	f7ff ff13 	bl	10004bd0 <__malloc_unlock>
10004daa:	bc04      	pop	{r2}
10004dac:	4690      	mov	r8, r2
10004dae:	bdf0      	pop	{r4, r5, r6, r7, pc}
10004db0:	0a53      	lsrs	r3, r2, #9
10004db2:	2b04      	cmp	r3, #4
10004db4:	d83f      	bhi.n	10004e36 <_free_r+0x13a>
10004db6:	0994      	lsrs	r4, r2, #6
10004db8:	0026      	movs	r6, r4
10004dba:	3439      	adds	r4, #57	; 0x39
10004dbc:	3638      	adds	r6, #56	; 0x38
10004dbe:	00e4      	lsls	r4, r4, #3
10004dc0:	1904      	adds	r4, r0, r4
10004dc2:	6823      	ldr	r3, [r4, #0]
10004dc4:	3c08      	subs	r4, #8
10004dc6:	2703      	movs	r7, #3
10004dc8:	429c      	cmp	r4, r3
10004dca:	d043      	beq.n	10004e54 <_free_r+0x158>
10004dcc:	6858      	ldr	r0, [r3, #4]
10004dce:	43b8      	bics	r0, r7
10004dd0:	4290      	cmp	r0, r2
10004dd2:	d902      	bls.n	10004dda <_free_r+0xde>
10004dd4:	689b      	ldr	r3, [r3, #8]
10004dd6:	429c      	cmp	r4, r3
10004dd8:	d1f8      	bne.n	10004dcc <_free_r+0xd0>
10004dda:	68dc      	ldr	r4, [r3, #12]
10004ddc:	60cc      	str	r4, [r1, #12]
10004dde:	608b      	str	r3, [r1, #8]
10004de0:	60a1      	str	r1, [r4, #8]
10004de2:	60d9      	str	r1, [r3, #12]
10004de4:	e7de      	b.n	10004da4 <_free_r+0xa8>
10004de6:	4643      	mov	r3, r8
10004de8:	18f8      	adds	r0, r7, r3
10004dea:	6840      	ldr	r0, [r0, #4]
10004dec:	4230      	tst	r0, r6
10004dee:	d158      	bne.n	10004ea2 <_free_r+0x1a6>
10004df0:	0013      	movs	r3, r2
10004df2:	68b8      	ldr	r0, [r7, #8]
10004df4:	68fa      	ldr	r2, [r7, #12]
10004df6:	4443      	add	r3, r8
10004df8:	431e      	orrs	r6, r3
10004dfa:	60c2      	str	r2, [r0, #12]
10004dfc:	6090      	str	r0, [r2, #8]
10004dfe:	604e      	str	r6, [r1, #4]
10004e00:	50cb      	str	r3, [r1, r3]
10004e02:	e7cf      	b.n	10004da4 <_free_r+0xa8>
10004e04:	0013      	movs	r3, r2
10004e06:	4443      	add	r3, r8
10004e08:	4226      	tst	r6, r4
10004e0a:	d106      	bne.n	10004e1a <_free_r+0x11e>
10004e0c:	680a      	ldr	r2, [r1, #0]
10004e0e:	1a89      	subs	r1, r1, r2
10004e10:	688c      	ldr	r4, [r1, #8]
10004e12:	189b      	adds	r3, r3, r2
10004e14:	68ca      	ldr	r2, [r1, #12]
10004e16:	60e2      	str	r2, [r4, #12]
10004e18:	6094      	str	r4, [r2, #8]
10004e1a:	2201      	movs	r2, #1
10004e1c:	431a      	orrs	r2, r3
10004e1e:	604a      	str	r2, [r1, #4]
10004e20:	4a24      	ldr	r2, [pc, #144]	; (10004eb4 <_free_r+0x1b8>)
10004e22:	6081      	str	r1, [r0, #8]
10004e24:	6812      	ldr	r2, [r2, #0]
10004e26:	429a      	cmp	r2, r3
10004e28:	d8bc      	bhi.n	10004da4 <_free_r+0xa8>
10004e2a:	4b23      	ldr	r3, [pc, #140]	; (10004eb8 <_free_r+0x1bc>)
10004e2c:	0028      	movs	r0, r5
10004e2e:	6819      	ldr	r1, [r3, #0]
10004e30:	f7ff ff16 	bl	10004c60 <_malloc_trim_r>
10004e34:	e7b6      	b.n	10004da4 <_free_r+0xa8>
10004e36:	2b14      	cmp	r3, #20
10004e38:	d907      	bls.n	10004e4a <_free_r+0x14e>
10004e3a:	2b54      	cmp	r3, #84	; 0x54
10004e3c:	d81a      	bhi.n	10004e74 <_free_r+0x178>
10004e3e:	0b14      	lsrs	r4, r2, #12
10004e40:	0026      	movs	r6, r4
10004e42:	346f      	adds	r4, #111	; 0x6f
10004e44:	366e      	adds	r6, #110	; 0x6e
10004e46:	00e4      	lsls	r4, r4, #3
10004e48:	e7ba      	b.n	10004dc0 <_free_r+0xc4>
10004e4a:	001e      	movs	r6, r3
10004e4c:	335c      	adds	r3, #92	; 0x5c
10004e4e:	365b      	adds	r6, #91	; 0x5b
10004e50:	00dc      	lsls	r4, r3, #3
10004e52:	e7b5      	b.n	10004dc0 <_free_r+0xc4>
10004e54:	2201      	movs	r2, #1
10004e56:	10b6      	asrs	r6, r6, #2
10004e58:	40b2      	lsls	r2, r6
10004e5a:	6846      	ldr	r6, [r0, #4]
10004e5c:	4332      	orrs	r2, r6
10004e5e:	6042      	str	r2, [r0, #4]
10004e60:	e7bc      	b.n	10004ddc <_free_r+0xe0>
10004e62:	60d9      	str	r1, [r3, #12]
10004e64:	6099      	str	r1, [r3, #8]
10004e66:	60cb      	str	r3, [r1, #12]
10004e68:	608b      	str	r3, [r1, #8]
10004e6a:	2301      	movs	r3, #1
10004e6c:	4313      	orrs	r3, r2
10004e6e:	604b      	str	r3, [r1, #4]
10004e70:	508a      	str	r2, [r1, r2]
10004e72:	e797      	b.n	10004da4 <_free_r+0xa8>
10004e74:	24aa      	movs	r4, #170	; 0xaa
10004e76:	0064      	lsls	r4, r4, #1
10004e78:	42a3      	cmp	r3, r4
10004e7a:	d805      	bhi.n	10004e88 <_free_r+0x18c>
10004e7c:	0bd4      	lsrs	r4, r2, #15
10004e7e:	0026      	movs	r6, r4
10004e80:	3478      	adds	r4, #120	; 0x78
10004e82:	3677      	adds	r6, #119	; 0x77
10004e84:	00e4      	lsls	r4, r4, #3
10004e86:	e79b      	b.n	10004dc0 <_free_r+0xc4>
10004e88:	4c0c      	ldr	r4, [pc, #48]	; (10004ebc <_free_r+0x1c0>)
10004e8a:	42a3      	cmp	r3, r4
10004e8c:	d805      	bhi.n	10004e9a <_free_r+0x19e>
10004e8e:	0c94      	lsrs	r4, r2, #18
10004e90:	0026      	movs	r6, r4
10004e92:	347d      	adds	r4, #125	; 0x7d
10004e94:	367c      	adds	r6, #124	; 0x7c
10004e96:	00e4      	lsls	r4, r4, #3
10004e98:	e792      	b.n	10004dc0 <_free_r+0xc4>
10004e9a:	24fe      	movs	r4, #254	; 0xfe
10004e9c:	267e      	movs	r6, #126	; 0x7e
10004e9e:	00a4      	lsls	r4, r4, #2
10004ea0:	e78e      	b.n	10004dc0 <_free_r+0xc4>
10004ea2:	0033      	movs	r3, r6
10004ea4:	4313      	orrs	r3, r2
10004ea6:	604b      	str	r3, [r1, #4]
10004ea8:	603a      	str	r2, [r7, #0]
10004eaa:	e77b      	b.n	10004da4 <_free_r+0xa8>
10004eac:	200006f0 	.word	0x200006f0
10004eb0:	200006f8 	.word	0x200006f8
10004eb4:	20000afc 	.word	0x20000afc
10004eb8:	20000b68 	.word	0x20000b68
10004ebc:	00000554 	.word	0x00000554

10004ec0 <__retarget_lock_acquire_recursive>:
10004ec0:	4770      	bx	lr
10004ec2:	46c0      	nop			; (mov r8, r8)

10004ec4 <__retarget_lock_release_recursive>:
10004ec4:	4770      	bx	lr
10004ec6:	46c0      	nop			; (mov r8, r8)

10004ec8 <_fini>:
10004ec8:	b5f8      	push	{r3, r4, r5, r6, r7, lr}
10004eca:	46c0      	nop			; (mov r8, r8)
10004ecc:	0000      	movs	r0, r0
	...

10004ed0 <__spi_read_blocking_veneer>:
10004ed0:	b401      	push	{r0}
10004ed2:	4802      	ldr	r0, [pc, #8]	; (10004edc <__spi_read_blocking_veneer+0xc>)
10004ed4:	4684      	mov	ip, r0
10004ed6:	bc01      	pop	{r0}
10004ed8:	4760      	bx	ip
10004eda:	bf00      	nop
10004edc:	200001d1 	.word	0x200001d1

10004ee0 <__mutex_exit_veneer>:
10004ee0:	b401      	push	{r0}
10004ee2:	4802      	ldr	r0, [pc, #8]	; (10004eec <__mutex_exit_veneer+0xc>)
10004ee4:	4684      	mov	ip, r0
10004ee6:	bc01      	pop	{r0}
10004ee8:	4760      	bx	ip
10004eea:	bf00      	nop
10004eec:	2000015d 	.word	0x2000015d

10004ef0 <____aeabi_ldiv0_veneer>:
10004ef0:	b401      	push	{r0}
10004ef2:	4802      	ldr	r0, [pc, #8]	; (10004efc <____aeabi_ldiv0_veneer+0xc>)
10004ef4:	4684      	mov	ip, r0
10004ef6:	bc01      	pop	{r0}
10004ef8:	4760      	bx	ip
10004efa:	bf00      	nop
10004efc:	20000241 	.word	0x20000241

10004f00 <____aeabi_idiv0_veneer>:
10004f00:	b401      	push	{r0}
10004f02:	4802      	ldr	r0, [pc, #8]	; (10004f0c <____aeabi_idiv0_veneer+0xc>)
10004f04:	4684      	mov	ip, r0
10004f06:	bc01      	pop	{r0}
10004f08:	4760      	bx	ip
10004f0a:	bf00      	nop
10004f0c:	20000241 	.word	0x20000241

10004f10 <__mutex_try_enter_veneer>:
10004f10:	b401      	push	{r0}
10004f12:	4802      	ldr	r0, [pc, #8]	; (10004f1c <__mutex_try_enter_veneer+0xc>)
10004f14:	4684      	mov	ip, r0
10004f16:	bc01      	pop	{r0}
10004f18:	4760      	bx	ip
10004f1a:	bf00      	nop
10004f1c:	20000111 	.word	0x20000111

10004f20 <__spi_write_blocking_veneer>:
10004f20:	b401      	push	{r0}
10004f22:	4802      	ldr	r0, [pc, #8]	; (10004f2c <__spi_write_blocking_veneer+0xc>)
10004f24:	4684      	mov	ip, r0
10004f26:	bc01      	pop	{r0}
10004f28:	4760      	bx	ip
10004f2a:	bf00      	nop
10004f2c:	20000185 	.word	0x20000185

10004f30 <__mutex_enter_blocking_veneer>:
10004f30:	b401      	push	{r0}
10004f32:	4802      	ldr	r0, [pc, #8]	; (10004f3c <__mutex_enter_blocking_veneer+0xc>)
10004f34:	4684      	mov	ip, r0
10004f36:	bc01      	pop	{r0}
10004f38:	4760      	bx	ip
10004f3a:	bf00      	nop
10004f3c:	200000c1 	.word	0x200000c1

Disassembly of section .data:

200000c0 <mutex_enter_blocking>:
200000c0:	b510      	push	{r4, lr}
200000c2:	6802      	ldr	r2, [r0, #0]
200000c4:	2400      	movs	r4, #0
200000c6:	f3ef 8110 	mrs	r1, PRIMASK
200000ca:	b672      	cpsid	i
200000cc:	6813      	ldr	r3, [r2, #0]
200000ce:	2b00      	cmp	r3, #0
200000d0:	d0fc      	beq.n	200000cc <mutex_enter_blocking+0xc>
200000d2:	f3bf 8f5f 	dmb	sy
200000d6:	7903      	ldrb	r3, [r0, #4]
200000d8:	2b00      	cmp	r3, #0
200000da:	d00b      	beq.n	200000f4 <mutex_enter_blocking+0x34>
200000dc:	6803      	ldr	r3, [r0, #0]
200000de:	f3bf 8f5f 	dmb	sy
200000e2:	601c      	str	r4, [r3, #0]
200000e4:	f381 8810 	msr	PRIMASK, r1
200000e8:	bf20      	wfe
200000ea:	6802      	ldr	r2, [r0, #0]
200000ec:	f3ef 8110 	mrs	r1, PRIMASK
200000f0:	b672      	cpsid	i
200000f2:	e7eb      	b.n	200000cc <mutex_enter_blocking+0xc>
200000f4:	2201      	movs	r2, #1
200000f6:	7102      	strb	r2, [r0, #4]
200000f8:	22d0      	movs	r2, #208	; 0xd0
200000fa:	0612      	lsls	r2, r2, #24
200000fc:	6812      	ldr	r2, [r2, #0]
200000fe:	7142      	strb	r2, [r0, #5]
20000100:	6802      	ldr	r2, [r0, #0]
20000102:	f3bf 8f5f 	dmb	sy
20000106:	6013      	str	r3, [r2, #0]
20000108:	f381 8810 	msr	PRIMASK, r1
2000010c:	bd10      	pop	{r4, pc}
2000010e:	46c0      	nop			; (mov r8, r8)

20000110 <mutex_try_enter>:
20000110:	0003      	movs	r3, r0
20000112:	b510      	push	{r4, lr}
20000114:	6800      	ldr	r0, [r0, #0]
20000116:	f3ef 8410 	mrs	r4, PRIMASK
2000011a:	b672      	cpsid	i
2000011c:	6802      	ldr	r2, [r0, #0]
2000011e:	2a00      	cmp	r2, #0
20000120:	d0fc      	beq.n	2000011c <mutex_try_enter+0xc>
20000122:	f3bf 8f5f 	dmb	sy
20000126:	791a      	ldrb	r2, [r3, #4]
20000128:	2a00      	cmp	r2, #0
2000012a:	d00d      	beq.n	20000148 <mutex_try_enter+0x38>
2000012c:	2900      	cmp	r1, #0
2000012e:	d013      	beq.n	20000158 <mutex_try_enter+0x48>
20000130:	2205      	movs	r2, #5
20000132:	2000      	movs	r0, #0
20000134:	569a      	ldrsb	r2, [r3, r2]
20000136:	600a      	str	r2, [r1, #0]
20000138:	681b      	ldr	r3, [r3, #0]
2000013a:	f3bf 8f5f 	dmb	sy
2000013e:	2200      	movs	r2, #0
20000140:	601a      	str	r2, [r3, #0]
20000142:	f384 8810 	msr	PRIMASK, r4
20000146:	bd10      	pop	{r4, pc}
20000148:	3201      	adds	r2, #1
2000014a:	711a      	strb	r2, [r3, #4]
2000014c:	22d0      	movs	r2, #208	; 0xd0
2000014e:	0612      	lsls	r2, r2, #24
20000150:	6812      	ldr	r2, [r2, #0]
20000152:	2001      	movs	r0, #1
20000154:	715a      	strb	r2, [r3, #5]
20000156:	e7ef      	b.n	20000138 <mutex_try_enter+0x28>
20000158:	2000      	movs	r0, #0
2000015a:	e7ed      	b.n	20000138 <mutex_try_enter+0x28>

2000015c <mutex_exit>:
2000015c:	6802      	ldr	r2, [r0, #0]
2000015e:	f3ef 8110 	mrs	r1, PRIMASK
20000162:	b672      	cpsid	i
20000164:	6813      	ldr	r3, [r2, #0]
20000166:	2b00      	cmp	r3, #0
20000168:	d0fc      	beq.n	20000164 <mutex_exit+0x8>
2000016a:	f3bf 8f5f 	dmb	sy
2000016e:	2300      	movs	r3, #0
20000170:	7103      	strb	r3, [r0, #4]
20000172:	bf40      	sev
20000174:	6802      	ldr	r2, [r0, #0]
20000176:	f3bf 8f5f 	dmb	sy
2000017a:	6013      	str	r3, [r2, #0]
2000017c:	f381 8810 	msr	PRIMASK, r1
20000180:	4770      	bx	lr
20000182:	46c0      	nop			; (mov r8, r8)

20000184 <spi_write_blocking>:
20000184:	b570      	push	{r4, r5, r6, lr}
20000186:	0004      	movs	r4, r0
20000188:	2502      	movs	r5, #2
2000018a:	0010      	movs	r0, r2
2000018c:	188e      	adds	r6, r1, r2
2000018e:	2a00      	cmp	r2, #0
20000190:	d007      	beq.n	200001a2 <spi_write_blocking+0x1e>
20000192:	68e3      	ldr	r3, [r4, #12]
20000194:	421d      	tst	r5, r3
20000196:	d0fc      	beq.n	20000192 <spi_write_blocking+0xe>
20000198:	780b      	ldrb	r3, [r1, #0]
2000019a:	3101      	adds	r1, #1
2000019c:	60a3      	str	r3, [r4, #8]
2000019e:	42b1      	cmp	r1, r6
200001a0:	d1f7      	bne.n	20000192 <spi_write_blocking+0xe>
200001a2:	68e3      	ldr	r3, [r4, #12]
200001a4:	2104      	movs	r1, #4
200001a6:	075b      	lsls	r3, r3, #29
200001a8:	d503      	bpl.n	200001b2 <spi_write_blocking+0x2e>
200001aa:	68a3      	ldr	r3, [r4, #8]
200001ac:	68e3      	ldr	r3, [r4, #12]
200001ae:	4219      	tst	r1, r3
200001b0:	d1fb      	bne.n	200001aa <spi_write_blocking+0x26>
200001b2:	2110      	movs	r1, #16
200001b4:	68e3      	ldr	r3, [r4, #12]
200001b6:	4219      	tst	r1, r3
200001b8:	d1fc      	bne.n	200001b4 <spi_write_blocking+0x30>
200001ba:	68e3      	ldr	r3, [r4, #12]
200001bc:	075b      	lsls	r3, r3, #29
200001be:	d504      	bpl.n	200001ca <spi_write_blocking+0x46>
200001c0:	2204      	movs	r2, #4
200001c2:	68a3      	ldr	r3, [r4, #8]
200001c4:	68e3      	ldr	r3, [r4, #12]
200001c6:	421a      	tst	r2, r3
200001c8:	d1fb      	bne.n	200001c2 <spi_write_blocking+0x3e>
200001ca:	2301      	movs	r3, #1
200001cc:	6223      	str	r3, [r4, #32]
200001ce:	bd70      	pop	{r4, r5, r6, pc}

200001d0 <spi_read_blocking>:
200001d0:	b5f0      	push	{r4, r5, r6, r7, lr}
200001d2:	4647      	mov	r7, r8
200001d4:	46ce      	mov	lr, r9
200001d6:	0005      	movs	r5, r0
200001d8:	4688      	mov	r8, r1
200001da:	0018      	movs	r0, r3
200001dc:	b580      	push	{r7, lr}
200001de:	2b00      	cmp	r3, #0
200001e0:	d016      	beq.n	20000210 <spi_read_blocking+0x40>
200001e2:	001e      	movs	r6, r3
200001e4:	001c      	movs	r4, r3
200001e6:	2302      	movs	r3, #2
200001e8:	469c      	mov	ip, r3
200001ea:	3302      	adds	r3, #2
200001ec:	4699      	mov	r9, r3
200001ee:	2e00      	cmp	r6, #0
200001f0:	d012      	beq.n	20000218 <spi_read_blocking+0x48>
200001f2:	1ba3      	subs	r3, r4, r6
200001f4:	4661      	mov	r1, ip
200001f6:	68ef      	ldr	r7, [r5, #12]
200001f8:	4239      	tst	r1, r7
200001fa:	d01a      	beq.n	20000232 <spi_read_blocking+0x62>
200001fc:	2b07      	cmp	r3, #7
200001fe:	d818      	bhi.n	20000232 <spi_read_blocking+0x62>
20000200:	4643      	mov	r3, r8
20000202:	3e01      	subs	r6, #1
20000204:	60ab      	str	r3, [r5, #8]
20000206:	0033      	movs	r3, r6
20000208:	2c00      	cmp	r4, #0
2000020a:	d114      	bne.n	20000236 <spi_read_blocking+0x66>
2000020c:	2b00      	cmp	r3, #0
2000020e:	d1ee      	bne.n	200001ee <spi_read_blocking+0x1e>
20000210:	bc0c      	pop	{r2, r3}
20000212:	4690      	mov	r8, r2
20000214:	4699      	mov	r9, r3
20000216:	bdf0      	pop	{r4, r5, r6, r7, pc}
20000218:	2c00      	cmp	r4, #0
2000021a:	d0f9      	beq.n	20000210 <spi_read_blocking+0x40>
2000021c:	4649      	mov	r1, r9
2000021e:	68eb      	ldr	r3, [r5, #12]
20000220:	4219      	tst	r1, r3
20000222:	d0f9      	beq.n	20000218 <spi_read_blocking+0x48>
20000224:	68ab      	ldr	r3, [r5, #8]
20000226:	3c01      	subs	r4, #1
20000228:	7013      	strb	r3, [r2, #0]
2000022a:	0023      	movs	r3, r4
2000022c:	3201      	adds	r2, #1
2000022e:	4333      	orrs	r3, r6
20000230:	e7ec      	b.n	2000020c <spi_read_blocking+0x3c>
20000232:	2c00      	cmp	r4, #0
20000234:	d0de      	beq.n	200001f4 <spi_read_blocking+0x24>
20000236:	4649      	mov	r1, r9
20000238:	68eb      	ldr	r3, [r5, #12]
2000023a:	4219      	tst	r1, r3
2000023c:	d0d7      	beq.n	200001ee <spi_read_blocking+0x1e>
2000023e:	e7f1      	b.n	20000224 <spi_read_blocking+0x54>

20000240 <__aeabi_idiv0>:
20000240:	4770      	bx	lr
20000242:	46c0      	nop			; (mov r8, r8)

20000244 <striped_spin_lock_num>:
20000244:	0010 0000                                   ....

20000248 <irq_handler_chain_slots>:
20000248:	00000000 	.word	0x00000000
2000024c:	00010000 	.word	0x00010000
	...
20000258:	00020000 	.word	0x00020000
	...
20000264:	00030000 	.word	0x00030000
	...
20000270:	00ff0000 	.word	0x00ff0000
20000274:	00000000 	.word	0x00000000

20000278 <irq_handler_chain_first_slot>:
20000278:	b500      	push	{lr}
2000027a:	6848      	ldr	r0, [r1, #4]
2000027c:	3101      	adds	r1, #1
2000027e:	468e      	mov	lr, r1
20000280:	4700      	bx	r0

20000282 <irq_handler_chain_remove_tail>:
20000282:	4670      	mov	r0, lr
20000284:	3809      	subs	r0, #9
20000286:	4901      	ldr	r1, [pc, #4]	; (2000028c <irq_handler_chain_remove_tail+0xa>)
20000288:	4788      	blx	r1
2000028a:	bd00      	pop	{pc}
2000028c:	10001ad9 	.word	0x10001ad9

20000290 <aeabi_bits_funcs>:
20000290:	00003350 	.word	0x00003350
20000294:	0000334c 	.word	0x0000334c
20000298:	00003354 	.word	0x00003354
2000029c:	00003352 	.word	0x00003352

200002a0 <aeabi_bits_funcs_end>:
200002a0:	0000534d 	.word	0x0000534d
200002a4:	0000434d 	.word	0x0000434d
200002a8:	00003453 	.word	0x00003453
200002ac:	00003443 	.word	0x00003443

200002b0 <stdio_uart>:
200002b0:	10004421 00000000 1000445d 00000000     !D......]D......
200002c0:	00000100                                ....

200002c4 <_impure_ptr>:
200002c4:	200002c8                                ... 

200002c8 <impure_data>:
200002c8:	00000000 200005b4 2000061c 20000684     ....... ... ... 
	...
20000370:	00000001 00000000 abcd330e e66d1234     .........3..4.m.
20000380:	0005deec 0000000b 00000000 00000000     ................
	...

200006f0 <__malloc_av_>:
	...
200006f8:	200006f0 200006f0 200006f8 200006f8     ... ... ... ... 
20000708:	20000700 20000700 20000708 20000708     ... ... ... ... 
20000718:	20000710 20000710 20000718 20000718     ... ... ... ... 
20000728:	20000720 20000720 20000728 20000728      ..  .. (.. (.. 
20000738:	20000730 20000730 20000738 20000738     0.. 0.. 8.. 8.. 
20000748:	20000740 20000740 20000748 20000748     @.. @.. H.. H.. 
20000758:	20000750 20000750 20000758 20000758     P.. P.. X.. X.. 
20000768:	20000760 20000760 20000768 20000768     `.. `.. h.. h.. 
20000778:	20000770 20000770 20000778 20000778     p.. p.. x.. x.. 
20000788:	20000780 20000780 20000788 20000788     ... ... ... ... 
20000798:	20000790 20000790 20000798 20000798     ... ... ... ... 
200007a8:	200007a0 200007a0 200007a8 200007a8     ... ... ... ... 
200007b8:	200007b0 200007b0 200007b8 200007b8     ... ... ... ... 
200007c8:	200007c0 200007c0 200007c8 200007c8     ... ... ... ... 
200007d8:	200007d0 200007d0 200007d8 200007d8     ... ... ... ... 
200007e8:	200007e0 200007e0 200007e8 200007e8     ... ... ... ... 
200007f8:	200007f0 200007f0 200007f8 200007f8     ... ... ... ... 
20000808:	20000800 20000800 20000808 20000808     ... ... ... ... 
20000818:	20000810 20000810 20000818 20000818     ... ... ... ... 
20000828:	20000820 20000820 20000828 20000828      ..  .. (.. (.. 
20000838:	20000830 20000830 20000838 20000838     0.. 0.. 8.. 8.. 
20000848:	20000840 20000840 20000848 20000848     @.. @.. H.. H.. 
20000858:	20000850 20000850 20000858 20000858     P.. P.. X.. X.. 
20000868:	20000860 20000860 20000868 20000868     `.. `.. h.. h.. 
20000878:	20000870 20000870 20000878 20000878     p.. p.. x.. x.. 
20000888:	20000880 20000880 20000888 20000888     ... ... ... ... 
20000898:	20000890 20000890 20000898 20000898     ... ... ... ... 
200008a8:	200008a0 200008a0 200008a8 200008a8     ... ... ... ... 
200008b8:	200008b0 200008b0 200008b8 200008b8     ... ... ... ... 
200008c8:	200008c0 200008c0 200008c8 200008c8     ... ... ... ... 
200008d8:	200008d0 200008d0 200008d8 200008d8     ... ... ... ... 
200008e8:	200008e0 200008e0 200008e8 200008e8     ... ... ... ... 
200008f8:	200008f0 200008f0 200008f8 200008f8     ... ... ... ... 
20000908:	20000900 20000900 20000908 20000908     ... ... ... ... 
20000918:	20000910 20000910 20000918 20000918     ... ... ... ... 
20000928:	20000920 20000920 20000928 20000928      ..  .. (.. (.. 
20000938:	20000930 20000930 20000938 20000938     0.. 0.. 8.. 8.. 
20000948:	20000940 20000940 20000948 20000948     @.. @.. H.. H.. 
20000958:	20000950 20000950 20000958 20000958     P.. P.. X.. X.. 
20000968:	20000960 20000960 20000968 20000968     `.. `.. h.. h.. 
20000978:	20000970 20000970 20000978 20000978     p.. p.. x.. x.. 
20000988:	20000980 20000980 20000988 20000988     ... ... ... ... 
20000998:	20000990 20000990 20000998 20000998     ... ... ... ... 
200009a8:	200009a0 200009a0 200009a8 200009a8     ... ... ... ... 
200009b8:	200009b0 200009b0 200009b8 200009b8     ... ... ... ... 
200009c8:	200009c0 200009c0 200009c8 200009c8     ... ... ... ... 
200009d8:	200009d0 200009d0 200009d8 200009d8     ... ... ... ... 
200009e8:	200009e0 200009e0 200009e8 200009e8     ... ... ... ... 
200009f8:	200009f0 200009f0 200009f8 200009f8     ... ... ... ... 
20000a08:	20000a00 20000a00 20000a08 20000a08     ... ... ... ... 
20000a18:	20000a10 20000a10 20000a18 20000a18     ... ... ... ... 
20000a28:	20000a20 20000a20 20000a28 20000a28      ..  .. (.. (.. 
20000a38:	20000a30 20000a30 20000a38 20000a38     0.. 0.. 8.. 8.. 
20000a48:	20000a40 20000a40 20000a48 20000a48     @.. @.. H.. H.. 
20000a58:	20000a50 20000a50 20000a58 20000a58     P.. P.. X.. X.. 
20000a68:	20000a60 20000a60 20000a68 20000a68     `.. `.. h.. h.. 
20000a78:	20000a70 20000a70 20000a78 20000a78     p.. p.. x.. x.. 
20000a88:	20000a80 20000a80 20000a88 20000a88     ... ... ... ... 
20000a98:	20000a90 20000a90 20000a98 20000a98     ... ... ... ... 
20000aa8:	20000aa0 20000aa0 20000aa8 20000aa8     ... ... ... ... 
20000ab8:	20000ab0 20000ab0 20000ab8 20000ab8     ... ... ... ... 
20000ac8:	20000ac0 20000ac0 20000ac8 20000ac8     ... ... ... ... 
20000ad8:	20000ad0 20000ad0 20000ad8 20000ad8     ... ... ... ... 
20000ae8:	20000ae0 20000ae0 20000ae8 20000ae8     ... ... ... ... 

20000af8 <__malloc_sbrk_base>:
20000af8:	ffffffff                                ....

20000afc <__malloc_trim_threshold>:
20000afc:	00020000                                ....

20000b00 <print_mutex>:
	...

20000b08 <__mutex_array_end>:
20000b08:	10004061 	.word	0x10004061
20000b0c:	10003215 	.word	0x10003215
20000b10:	10003909 	.word	0x10003909
20000b14:	10003fc1 	.word	0x10003fc1

20000b18 <__frame_dummy_init_array_entry>:
20000b18:	10000301                                ....
