
joystick_display.elf:     file format elf32-littlearm

Sections:
Idx Name          Size      VMA       LMA       File off  Algn
  0 .boot2        00000100  10000000  10000000  00010000  2**0
                  CONTENTS, ALLOC, LOAD, READONLY, DATA
  1 .text         00004c70  10000100  10000100  00010100  2**3
                  CONTENTS, ALLOC, LOAD, READONLY, CODE
  2 .rodata       0000038c  10004d70  10004d70  00014d70  2**3
                  CONTENTS, ALLOC, LOAD, READONLY, DATA
  3 .binary_info  00000024  100050fc  100050fc  000150fc  2**2
                  CONTENTS, ALLOC, LOAD, DATA
  4 .ram_vector_table 000000c0  20000000  20000000  00020a6c  2**2
                  CONTENTS
  5 .data         000009ac  200000c0  10005120  000200c0  2**4
                  CONTENTS, ALLOC, LOAD, CODE
  6 .uninitialized_data 00000000  20000a6c  20000a6c  00020b2c  2**0
                  CONTENTS
  7 .scratch_x    00000000  20040000  20040000  00020b2c  2**0
                  CONTENTS
  8 .scratch_y    00000000  20041000  20041000  00020b2c  2**0
                  CONTENTS
  9 .bss          000002f0  20000a6c  20000a6c  00020a6c  2**2
                  ALLOC
 10 .heap         00000800  20000d5c  20000d5c  00020b2c  2**2
                  CONTENTS, READONLY
 11 .stack_dummy  00000800  20041000  20041000  00021340  2**5
                  CONTENTS, READONLY
 12 .ARM.attributes 00000028  00000000  00000000  00021b40  2**0
                  CONTENTS, READONLY
 13 .comment      00000079  00000000  00000000  00021b68  2**0
                  CONTENTS, READONLY
 14 .debug_frame  000002ac  00000000  00000000  00021be4  2**2
                  CONTENTS, READONLY, DEBUGGING

joystick_display.elf:     file format elf32-littlearm


Disassembly of section .text:

10000100 <__reset_start>:
10000100:	4827      	ldr	r0, [pc, #156]	; (100001a0 <__get_current_exception+0xa>)
10000102:	e000      	b.n	10000106 <__vector_entry>

10000104 <_entry_point>:
10000104:	2000      	movs	r0, #0

10000106 <__vector_entry>:
10000106:	4927      	ldr	r1, [pc, #156]	; (100001a4 <__get_current_exception+0xe>)
10000108:	6088      	str	r0, [r1, #8]
1000010a:	c806      	ldmia	r0!, {r1, r2}
1000010c:	f381 8808 	msr	MSP, r1
10000110:	4710      	bx	r2

10000112 <_reset_handler>:
10000112:	4825      	ldr	r0, [pc, #148]	; (100001a8 <__get_current_exception+0x12>)
10000114:	6800      	ldr	r0, [r0, #0]
10000116:	2800      	cmp	r0, #0
10000118:	d139      	bne.n	1000018e <wait_for_vector>
1000011a:	a412      	add	r4, pc, #72	; (adr r4, 10000164 <data_cpy_table>)
1000011c:	cc0e      	ldmia	r4!, {r1, r2, r3}
1000011e:	2900      	cmp	r1, #0
10000120:	d002      	beq.n	10000128 <_reset_handler+0x16>
10000122:	f000 f812 	bl	1000014a <data_cpy>
10000126:	e7f9      	b.n	1000011c <_reset_handler+0xa>
10000128:	4920      	ldr	r1, [pc, #128]	; (100001ac <__get_current_exception+0x16>)
1000012a:	4a21      	ldr	r2, [pc, #132]	; (100001b0 <__get_current_exception+0x1a>)
1000012c:	2000      	movs	r0, #0
1000012e:	e000      	b.n	10000132 <bss_fill_test>

10000130 <bss_fill_loop>:
10000130:	c101      	stmia	r1!, {r0}

10000132 <bss_fill_test>:
10000132:	4291      	cmp	r1, r2
10000134:	d1fc      	bne.n	10000130 <bss_fill_loop>

10000136 <platform_entry>:
10000136:	491f      	ldr	r1, [pc, #124]	; (100001b4 <__get_current_exception+0x1e>)
10000138:	4788      	blx	r1
1000013a:	491f      	ldr	r1, [pc, #124]	; (100001b8 <__get_current_exception+0x22>)
1000013c:	4788      	blx	r1
1000013e:	491f      	ldr	r1, [pc, #124]	; (100001bc <__get_current_exception+0x26>)
10000140:	4788      	blx	r1
10000142:	be00      	bkpt	0x0000
10000144:	e7fd      	b.n	10000142 <platform_entry+0xc>

10000146 <data_cpy_loop>:
10000146:	c901      	ldmia	r1!, {r0}
10000148:	c201      	stmia	r2!, {r0}

1000014a <data_cpy>:
1000014a:	429a      	cmp	r2, r3
1000014c:	d3fb      	bcc.n	10000146 <data_cpy_loop>
1000014e:	4770      	bx	lr

10000150 <binary_info_header>:
10000150:	7188ebf2 	.word	0x7188ebf2
10000154:	100050fc 	.word	0x100050fc
10000158:	10005120 	.word	0x10005120
1000015c:	10000164 	.word	0x10000164
10000160:	e71aa390 	.word	0xe71aa390

10000164 <data_cpy_table>:
10000164:	10005120 	.word	0x10005120
10000168:	200000c0 	.word	0x200000c0
1000016c:	20000a6c 	.word	0x20000a6c
10000170:	10005acc 	.word	0x10005acc
10000174:	20040000 	.word	0x20040000
10000178:	20040000 	.word	0x20040000
1000017c:	10005acc 	.word	0x10005acc
10000180:	20041000 	.word	0x20041000
10000184:	20041000 	.word	0x20041000
10000188:	00000000 	.word	0x00000000
1000018c:	4770      	bx	lr

1000018e <wait_for_vector>:
1000018e:	480c      	ldr	r0, [pc, #48]	; (100001c0 <__get_current_exception+0x2a>)
10000190:	f002 ffc6 	bl	10003120 <rom_func_lookup>
10000194:	4700      	bx	r0

10000196 <__get_current_exception>:
10000196:	f3ef 8005 	mrs	r0, IPSR
1000019a:	b2c0      	uxtb	r0, r0
1000019c:	4770      	bx	lr
1000019e:	0000      	.short	0x0000
100001a0:	10000200 	.word	0x10000200
100001a4:	e000ed00 	.word	0xe000ed00
100001a8:	d0000000 	.word	0xd0000000
100001ac:	20000a6c 	.word	0x20000a6c
100001b0:	20000d5c 	.word	0x20000d5c
100001b4:	100012b1 	.word	0x100012b1
100001b8:	10000341 	.word	0x10000341
100001bc:	100013d1 	.word	0x100013d1
100001c0:	00005657 	.word	0x00005657

100001c4 <__bi_46>:
100001c4:	50520006 5360b3ab 10005064              ..RP..`SdP..

100001d0 <__bi_34>:
100001d0:	50520006 02031c86 10005074              ..RP....tP..

100001dc <__bi_26>:
100001dc:	50520006 9da22254 10005088              ..RPT"...P..

100001e8 <__bi_18>:
100001e8:	50520005 68f465de 10005acc 00000000     ..RP.e.h.Z......
	...

10000200 <__reset_end>:
10000200:	20042000 	.word	0x20042000
10000204:	10000113 	.word	0x10000113
10000208:	100002c3 	.word	0x100002c3
1000020c:	100002c5 	.word	0x100002c5
10000210:	100002c1 	.word	0x100002c1
10000214:	100002c1 	.word	0x100002c1
10000218:	100002c1 	.word	0x100002c1
1000021c:	100002c1 	.word	0x100002c1
10000220:	100002c1 	.word	0x100002c1
10000224:	100002c1 	.word	0x100002c1
10000228:	100002c1 	.word	0x100002c1
1000022c:	100002c7 	.word	0x100002c7
10000230:	100002c1 	.word	0x100002c1
10000234:	100002c1 	.word	0x100002c1
10000238:	100002c9 	.word	0x100002c9
1000023c:	100002cb 	.word	0x100002cb
10000240:	100002cd 	.word	0x100002cd
10000244:	100002cd 	.word	0x100002cd
10000248:	100002cd 	.word	0x100002cd
1000024c:	100002cd 	.word	0x100002cd
10000250:	100002cd 	.word	0x100002cd
10000254:	100002cd 	.word	0x100002cd
10000258:	100002cd 	.word	0x100002cd
1000025c:	100002cd 	.word	0x100002cd
10000260:	100002cd 	.word	0x100002cd
10000264:	100002cd 	.word	0x100002cd
10000268:	100002cd 	.word	0x100002cd
1000026c:	100002cd 	.word	0x100002cd
10000270:	100002cd 	.word	0x100002cd
10000274:	100002cd 	.word	0x100002cd
10000278:	100002cd 	.word	0x100002cd
1000027c:	100002cd 	.word	0x100002cd
10000280:	100002cd 	.word	0x100002cd
10000284:	100002cd 	.word	0x100002cd
10000288:	100002cd 	.word	0x100002cd
1000028c:	100002cd 	.word	0x100002cd
10000290:	100002cd 	.word	0x100002cd
10000294:	100002cd 	.word	0x100002cd
10000298:	100002cd 	.word	0x100002cd
1000029c:	100002cd 	.word	0x100002cd
100002a0:	100002cd 	.word	0x100002cd
100002a4:	100002cd 	.word	0x100002cd
100002a8:	100002cd 	.word	0x100002cd
100002ac:	100002cd 	.word	0x100002cd
100002b0:	100002cd 	.word	0x100002cd
100002b4:	100002cd 	.word	0x100002cd
100002b8:	100002cd 	.word	0x100002cd
100002bc:	100002cd 	.word	0x100002cd

100002c0 <isr_invalid>:
100002c0:	be00      	bkpt	0x0000

100002c2 <isr_nmi>:
100002c2:	be00      	bkpt	0x0000

100002c4 <isr_hardfault>:
100002c4:	be00      	bkpt	0x0000

100002c6 <isr_svcall>:
100002c6:	be00      	bkpt	0x0000

100002c8 <isr_pendsv>:
100002c8:	be00      	bkpt	0x0000

100002ca <isr_systick>:
100002ca:	be00      	bkpt	0x0000

100002cc <__unhandled_user_irq>:
100002cc:	f7ff ff63 	bl	10000196 <__get_current_exception>
100002d0:	3810      	subs	r0, #16

100002d2 <unhandled_user_irq_num_in_r0>:
100002d2:	be00      	bkpt	0x0000

100002d4 <_init>:
100002d4:	b5f8      	push	{r3, r4, r5, r6, r7, lr}
100002d6:	46c0      	nop			; (mov r8, r8)

100002d8 <__do_global_dtors_aux>:
100002d8:	b510      	push	{r4, lr}
100002da:	4c06      	ldr	r4, [pc, #24]	; (100002f4 <__do_global_dtors_aux+0x1c>)
100002dc:	7823      	ldrb	r3, [r4, #0]
100002de:	2b00      	cmp	r3, #0
100002e0:	d107      	bne.n	100002f2 <__do_global_dtors_aux+0x1a>
100002e2:	4b05      	ldr	r3, [pc, #20]	; (100002f8 <__do_global_dtors_aux+0x20>)
100002e4:	2b00      	cmp	r3, #0
100002e6:	d002      	beq.n	100002ee <__do_global_dtors_aux+0x16>
100002e8:	4804      	ldr	r0, [pc, #16]	; (100002fc <__do_global_dtors_aux+0x24>)
100002ea:	e000      	b.n	100002ee <__do_global_dtors_aux+0x16>
100002ec:	bf00      	nop
100002ee:	2301      	movs	r3, #1
100002f0:	7023      	strb	r3, [r4, #0]
100002f2:	bd10      	pop	{r4, pc}
100002f4:	20000a6c 	.word	0x20000a6c
100002f8:	00000000 	.word	0x00000000
100002fc:	10004d70 	.word	0x10004d70

10000300 <frame_dummy>:
10000300:	4b04      	ldr	r3, [pc, #16]	; (10000314 <frame_dummy+0x14>)
10000302:	b510      	push	{r4, lr}
10000304:	2b00      	cmp	r3, #0
10000306:	d003      	beq.n	10000310 <frame_dummy+0x10>
10000308:	4903      	ldr	r1, [pc, #12]	; (10000318 <frame_dummy+0x18>)
1000030a:	4804      	ldr	r0, [pc, #16]	; (1000031c <frame_dummy+0x1c>)
1000030c:	e000      	b.n	10000310 <frame_dummy+0x10>
1000030e:	bf00      	nop
10000310:	bd10      	pop	{r4, pc}
10000312:	46c0      	nop			; (mov r8, r8)
10000314:	00000000 	.word	0x00000000
10000318:	20000a70 	.word	0x20000a70
1000031c:	10004d70 	.word	0x10004d70

10000320 <adc_gpio_init>:
10000320:	b510      	push	{r4, lr}
10000322:	0004      	movs	r4, r0
10000324:	210f      	movs	r1, #15
10000326:	f000 f895 	bl	10000454 <gpio_set_function>
1000032a:	2200      	movs	r2, #0
1000032c:	0020      	movs	r0, r4
1000032e:	2100      	movs	r1, #0
10000330:	f000 f8a8 	bl	10000484 <gpio_set_pulls>
10000334:	2100      	movs	r1, #0
10000336:	0020      	movs	r0, r4
10000338:	f000 f8bc 	bl	100004b4 <gpio_set_input_enabled>
1000033c:	bd10      	pop	{r4, pc}
1000033e:	46c0      	nop			; (mov r8, r8)

10000340 <main>:
10000340:	b5f8      	push	{r3, r4, r5, r6, r7, lr}
10000342:	46de      	mov	lr, fp
10000344:	4657      	mov	r7, sl
10000346:	464e      	mov	r6, r9
10000348:	4645      	mov	r5, r8
1000034a:	b5e0      	push	{r5, r6, r7, lr}
1000034c:	f003 ffe2 	bl	10004314 <stdio_init_all>
10000350:	f004 f83e 	bl	100043d0 <adc_init>
10000354:	201a      	movs	r0, #26
10000356:	f7ff ffe3 	bl	10000320 <adc_gpio_init>
1000035a:	201b      	movs	r0, #27
1000035c:	f7ff ffe0 	bl	10000320 <adc_gpio_init>
10000360:	4b36      	ldr	r3, [pc, #216]	; (1000043c <main+0xfc>)
10000362:	4f37      	ldr	r7, [pc, #220]	; (10000440 <main+0x100>)
10000364:	469b      	mov	fp, r3
10000366:	4b37      	ldr	r3, [pc, #220]	; (10000444 <main+0x104>)
10000368:	469a      	mov	sl, r3
1000036a:	4b37      	ldr	r3, [pc, #220]	; (10000448 <main+0x108>)
1000036c:	4698      	mov	r8, r3
1000036e:	2304      	movs	r3, #4
10000370:	4699      	mov	r9, r3
10000372:	22e0      	movs	r2, #224	; 0xe0
10000374:	683b      	ldr	r3, [r7, #0]
10000376:	01d2      	lsls	r2, r2, #7
10000378:	4013      	ands	r3, r2
1000037a:	4a34      	ldr	r2, [pc, #208]	; (1000044c <main+0x10c>)
1000037c:	6013      	str	r3, [r2, #0]
1000037e:	2204      	movs	r2, #4
10000380:	4643      	mov	r3, r8
10000382:	601a      	str	r2, [r3, #0]
10000384:	32fc      	adds	r2, #252	; 0xfc
10000386:	683b      	ldr	r3, [r7, #0]
10000388:	4213      	tst	r3, r2
1000038a:	d0fc      	beq.n	10000386 <main+0x46>
1000038c:	2380      	movs	r3, #128	; 0x80
1000038e:	6878      	ldr	r0, [r7, #4]
10000390:	683a      	ldr	r2, [r7, #0]
10000392:	015b      	lsls	r3, r3, #5
10000394:	4053      	eors	r3, r2
10000396:	22e0      	movs	r2, #224	; 0xe0
10000398:	01d2      	lsls	r2, r2, #7
1000039a:	4013      	ands	r3, r2
1000039c:	4a2b      	ldr	r2, [pc, #172]	; (1000044c <main+0x10c>)
1000039e:	0400      	lsls	r0, r0, #16
100003a0:	6013      	str	r3, [r2, #0]
100003a2:	464a      	mov	r2, r9
100003a4:	4643      	mov	r3, r8
100003a6:	601a      	str	r2, [r3, #0]
100003a8:	2280      	movs	r2, #128	; 0x80
100003aa:	0c00      	lsrs	r0, r0, #16
100003ac:	0052      	lsls	r2, r2, #1
100003ae:	683b      	ldr	r3, [r7, #0]
100003b0:	4213      	tst	r3, r2
100003b2:	d0fc      	beq.n	100003ae <main+0x6e>
100003b4:	0083      	lsls	r3, r0, #2
100003b6:	1818      	adds	r0, r3, r0
100003b8:	4925      	ldr	r1, [pc, #148]	; (10000450 <main+0x110>)
100003ba:	00c0      	lsls	r0, r0, #3
100003bc:	f002 ff0a 	bl	100031d4 <__wrap___aeabi_uidiv>
100003c0:	687c      	ldr	r4, [r7, #4]
100003c2:	0006      	movs	r6, r0
100003c4:	0420      	lsls	r0, r4, #16
100003c6:	0c02      	lsrs	r2, r0, #16
100003c8:	0b80      	lsrs	r0, r0, #14
100003ca:	1880      	adds	r0, r0, r2
100003cc:	4920      	ldr	r1, [pc, #128]	; (10000450 <main+0x110>)
100003ce:	00c0      	lsls	r0, r0, #3
100003d0:	f002 ff00 	bl	100031d4 <__wrap___aeabi_uidiv>
100003d4:	0005      	movs	r5, r0
100003d6:	4658      	mov	r0, fp
100003d8:	f003 ff90 	bl	100042fc <__wrap_printf>
100003dc:	2400      	movs	r4, #0
100003de:	42b4      	cmp	r4, r6
100003e0:	d025      	beq.n	1000042e <main+0xee>
100003e2:	2020      	movs	r0, #32
100003e4:	3401      	adds	r4, #1
100003e6:	f003 fecb 	bl	10004180 <__wrap_putchar>
100003ea:	2c28      	cmp	r4, #40	; 0x28
100003ec:	d1f7      	bne.n	100003de <main+0x9e>
100003ee:	4650      	mov	r0, sl
100003f0:	f003 ff84 	bl	100042fc <__wrap_printf>
100003f4:	2400      	movs	r4, #0
100003f6:	42ac      	cmp	r4, r5
100003f8:	d00c      	beq.n	10000414 <main+0xd4>
100003fa:	2020      	movs	r0, #32
100003fc:	3401      	adds	r4, #1
100003fe:	f003 febf 	bl	10004180 <__wrap_putchar>
10000402:	2c28      	cmp	r4, #40	; 0x28
10000404:	d1f7      	bne.n	100003f6 <main+0xb6>
10000406:	205d      	movs	r0, #93	; 0x5d
10000408:	f003 feba 	bl	10004180 <__wrap_putchar>
1000040c:	2032      	movs	r0, #50	; 0x32
1000040e:	f000 fb97 	bl	10000b40 <sleep_ms>
10000412:	e7ae      	b.n	10000372 <main+0x32>
10000414:	206f      	movs	r0, #111	; 0x6f
10000416:	3401      	adds	r4, #1
10000418:	f003 feb2 	bl	10004180 <__wrap_putchar>
1000041c:	2c28      	cmp	r4, #40	; 0x28
1000041e:	d1ea      	bne.n	100003f6 <main+0xb6>
10000420:	205d      	movs	r0, #93	; 0x5d
10000422:	f003 fead 	bl	10004180 <__wrap_putchar>
10000426:	2032      	movs	r0, #50	; 0x32
10000428:	f000 fb8a 	bl	10000b40 <sleep_ms>
1000042c:	e7a1      	b.n	10000372 <main+0x32>
1000042e:	206f      	movs	r0, #111	; 0x6f
10000430:	3401      	adds	r4, #1
10000432:	f003 fea5 	bl	10004180 <__wrap_putchar>
10000436:	2c28      	cmp	r4, #40	; 0x28
10000438:	d1d1      	bne.n	100003de <main+0x9e>
1000043a:	e7d8      	b.n	100003ee <main+0xae>
1000043c:	10004d70 	.word	0x10004d70
10000440:	4004c000 	.word	0x4004c000
10000444:	10004d78 	.word	0x10004d78
10000448:	4004e000 	.word	0x4004e000
1000044c:	4004d000 	.word	0x4004d000
10000450:	00000fff 	.word	0x00000fff

10000454 <gpio_set_function>:
10000454:	4a09      	ldr	r2, [pc, #36]	; (1000047c <gpio_set_function+0x28>)
10000456:	0083      	lsls	r3, r0, #2
10000458:	4694      	mov	ip, r2
1000045a:	2240      	movs	r2, #64	; 0x40
1000045c:	4463      	add	r3, ip
1000045e:	b510      	push	{r4, lr}
10000460:	681c      	ldr	r4, [r3, #0]
10000462:	00c0      	lsls	r0, r0, #3
10000464:	4062      	eors	r2, r4
10000466:	24c0      	movs	r4, #192	; 0xc0
10000468:	4014      	ands	r4, r2
1000046a:	2280      	movs	r2, #128	; 0x80
1000046c:	0152      	lsls	r2, r2, #5
1000046e:	4313      	orrs	r3, r2
10000470:	601c      	str	r4, [r3, #0]
10000472:	4b03      	ldr	r3, [pc, #12]	; (10000480 <gpio_set_function+0x2c>)
10000474:	469c      	mov	ip, r3
10000476:	4460      	add	r0, ip
10000478:	6041      	str	r1, [r0, #4]
1000047a:	bd10      	pop	{r4, pc}
1000047c:	4001c004 	.word	0x4001c004
10000480:	40014000 	.word	0x40014000

10000484 <gpio_set_pulls>:
10000484:	4b0a      	ldr	r3, [pc, #40]	; (100004b0 <gpio_set_pulls+0x2c>)
10000486:	0080      	lsls	r0, r0, #2
10000488:	469c      	mov	ip, r3
1000048a:	2304      	movs	r3, #4
1000048c:	4460      	add	r0, ip
1000048e:	2900      	cmp	r1, #0
10000490:	d001      	beq.n	10000496 <gpio_set_pulls+0x12>
10000492:	2108      	movs	r1, #8
10000494:	230c      	movs	r3, #12
10000496:	2a00      	cmp	r2, #0
10000498:	d100      	bne.n	1000049c <gpio_set_pulls+0x18>
1000049a:	000b      	movs	r3, r1
1000049c:	6802      	ldr	r2, [r0, #0]
1000049e:	4053      	eors	r3, r2
100004a0:	220c      	movs	r2, #12
100004a2:	401a      	ands	r2, r3
100004a4:	2380      	movs	r3, #128	; 0x80
100004a6:	015b      	lsls	r3, r3, #5
100004a8:	4318      	orrs	r0, r3
100004aa:	6002      	str	r2, [r0, #0]
100004ac:	4770      	bx	lr
100004ae:	46c0      	nop			; (mov r8, r8)
100004b0:	4001c004 	.word	0x4001c004

100004b4 <gpio_set_input_enabled>:
100004b4:	4b08      	ldr	r3, [pc, #32]	; (100004d8 <gpio_set_input_enabled+0x24>)
100004b6:	0080      	lsls	r0, r0, #2
100004b8:	469c      	mov	ip, r3
100004ba:	4460      	add	r0, ip
100004bc:	2900      	cmp	r1, #0
100004be:	d005      	beq.n	100004cc <gpio_set_input_enabled+0x18>
100004c0:	2380      	movs	r3, #128	; 0x80
100004c2:	019b      	lsls	r3, r3, #6
100004c4:	4318      	orrs	r0, r3
100004c6:	2340      	movs	r3, #64	; 0x40
100004c8:	6003      	str	r3, [r0, #0]
100004ca:	4770      	bx	lr
100004cc:	23c0      	movs	r3, #192	; 0xc0
100004ce:	019b      	lsls	r3, r3, #6
100004d0:	4318      	orrs	r0, r3
100004d2:	2340      	movs	r3, #64	; 0x40
100004d4:	6003      	str	r3, [r0, #0]
100004d6:	e7f8      	b.n	100004ca <gpio_set_input_enabled+0x16>
100004d8:	4001c004 	.word	0x4001c004

100004dc <hw_claim_or_assert>:
100004dc:	b5f8      	push	{r3, r4, r5, r6, r7, lr}
100004de:	46ce      	mov	lr, r9
100004e0:	4647      	mov	r7, r8
100004e2:	4691      	mov	r9, r2
100004e4:	b580      	push	{r7, lr}
100004e6:	f3ef 8710 	mrs	r7, PRIMASK
100004ea:	b672      	cpsid	i
100004ec:	4e12      	ldr	r6, [pc, #72]	; (10000538 <hw_claim_or_assert+0x5c>)
100004ee:	6833      	ldr	r3, [r6, #0]
100004f0:	2b00      	cmp	r3, #0
100004f2:	d0fc      	beq.n	100004ee <hw_claim_or_assert+0x12>
100004f4:	f3bf 8f5f 	dmb	sy
100004f8:	08cb      	lsrs	r3, r1, #3
100004fa:	5cc5      	ldrb	r5, [r0, r3]
100004fc:	2407      	movs	r4, #7
100004fe:	18c2      	adds	r2, r0, r3
10000500:	0028      	movs	r0, r5
10000502:	2301      	movs	r3, #1
10000504:	400c      	ands	r4, r1
10000506:	4694      	mov	ip, r2
10000508:	40e0      	lsrs	r0, r4
1000050a:	001a      	movs	r2, r3
1000050c:	4002      	ands	r2, r0
1000050e:	4690      	mov	r8, r2
10000510:	4203      	tst	r3, r0
10000512:	d10d      	bne.n	10000530 <hw_claim_or_assert+0x54>
10000514:	40a3      	lsls	r3, r4
10000516:	4662      	mov	r2, ip
10000518:	432b      	orrs	r3, r5
1000051a:	7013      	strb	r3, [r2, #0]
1000051c:	f3bf 8f5f 	dmb	sy
10000520:	4643      	mov	r3, r8
10000522:	6033      	str	r3, [r6, #0]
10000524:	f387 8810 	msr	PRIMASK, r7
10000528:	bc0c      	pop	{r2, r3}
1000052a:	4690      	mov	r8, r2
1000052c:	4699      	mov	r9, r3
1000052e:	bdf8      	pop	{r3, r4, r5, r6, r7, pc}
10000530:	4648      	mov	r0, r9
10000532:	f000 ff4f 	bl	100013d4 <panic>
10000536:	46c0      	nop			; (mov r8, r8)
10000538:	d000012c 	.word	0xd000012c

1000053c <spin_locks_reset>:
1000053c:	2100      	movs	r1, #0
1000053e:	4b04      	ldr	r3, [pc, #16]	; (10000550 <spin_locks_reset+0x14>)
10000540:	4a04      	ldr	r2, [pc, #16]	; (10000554 <spin_locks_reset+0x18>)
10000542:	f3bf 8f5f 	dmb	sy
10000546:	c302      	stmia	r3!, {r1}
10000548:	4293      	cmp	r3, r2
1000054a:	d1fa      	bne.n	10000542 <spin_locks_reset+0x6>
1000054c:	4770      	bx	lr
1000054e:	46c0      	nop			; (mov r8, r8)
10000550:	d0000100 	.word	0xd0000100
10000554:	d0000180 	.word	0xd0000180

10000558 <next_striped_spin_lock_num>:
10000558:	4a04      	ldr	r2, [pc, #16]	; (1000056c <next_striped_spin_lock_num+0x14>)
1000055a:	7810      	ldrb	r0, [r2, #0]
1000055c:	1c43      	adds	r3, r0, #1
1000055e:	b2db      	uxtb	r3, r3
10000560:	2b17      	cmp	r3, #23
10000562:	d900      	bls.n	10000566 <next_striped_spin_lock_num+0xe>
10000564:	2310      	movs	r3, #16
10000566:	7013      	strb	r3, [r2, #0]
10000568:	4770      	bx	lr
1000056a:	46c0      	nop			; (mov r8, r8)
1000056c:	20000188 	.word	0x20000188

10000570 <running_on_fpga>:
10000570:	4b02      	ldr	r3, [pc, #8]	; (1000057c <running_on_fpga+0xc>)
10000572:	6818      	ldr	r0, [r3, #0]
10000574:	0780      	lsls	r0, r0, #30
10000576:	0fc0      	lsrs	r0, r0, #31
10000578:	4770      	bx	lr
1000057a:	46c0      	nop			; (mov r8, r8)
1000057c:	4006c000 	.word	0x4006c000

10000580 <uart_init>:
10000580:	b5f0      	push	{r4, r5, r6, r7, lr}
10000582:	46c6      	mov	lr, r8
10000584:	0005      	movs	r5, r0
10000586:	b500      	push	{lr}
10000588:	2006      	movs	r0, #6
1000058a:	000e      	movs	r6, r1
1000058c:	f001 f8b0 	bl	100016f0 <clock_get_hz>
10000590:	2800      	cmp	r0, #0
10000592:	d04d      	beq.n	10000630 <uart_init+0xb0>
10000594:	4b29      	ldr	r3, [pc, #164]	; (1000063c <uart_init+0xbc>)
10000596:	492a      	ldr	r1, [pc, #168]	; (10000640 <uart_init+0xc0>)
10000598:	18eb      	adds	r3, r5, r3
1000059a:	425a      	negs	r2, r3
1000059c:	4153      	adcs	r3, r2
1000059e:	2280      	movs	r2, #128	; 0x80
100005a0:	03d2      	lsls	r2, r2, #15
100005a2:	4694      	mov	ip, r2
100005a4:	425b      	negs	r3, r3
100005a6:	4013      	ands	r3, r2
100005a8:	4a26      	ldr	r2, [pc, #152]	; (10000644 <uart_init+0xc4>)
100005aa:	4463      	add	r3, ip
100005ac:	6013      	str	r3, [r2, #0]
100005ae:	4a26      	ldr	r2, [pc, #152]	; (10000648 <uart_init+0xc8>)
100005b0:	6013      	str	r3, [r2, #0]
100005b2:	001c      	movs	r4, r3
100005b4:	688a      	ldr	r2, [r1, #8]
100005b6:	4394      	bics	r4, r2
100005b8:	d1fb      	bne.n	100005b2 <uart_init+0x32>
100005ba:	4b20      	ldr	r3, [pc, #128]	; (1000063c <uart_init+0xbc>)
100005bc:	2180      	movs	r1, #128	; 0x80
100005be:	18eb      	adds	r3, r5, r3
100005c0:	425a      	negs	r2, r3
100005c2:	4153      	adcs	r3, r2
100005c4:	4a21      	ldr	r2, [pc, #132]	; (1000064c <uart_init+0xcc>)
100005c6:	005b      	lsls	r3, r3, #1
100005c8:	0049      	lsls	r1, r1, #1
100005ca:	2006      	movs	r0, #6
100005cc:	5299      	strh	r1, [r3, r2]
100005ce:	f001 f88f 	bl	100016f0 <clock_get_hz>
100005d2:	0031      	movs	r1, r6
100005d4:	00c0      	lsls	r0, r0, #3
100005d6:	f002 fdfd 	bl	100031d4 <__wrap___aeabi_uidiv>
100005da:	267f      	movs	r6, #127	; 0x7f
100005dc:	4b1c      	ldr	r3, [pc, #112]	; (10000650 <uart_init+0xd0>)
100005de:	4006      	ands	r6, r0
100005e0:	09c7      	lsrs	r7, r0, #7
100005e2:	3601      	adds	r6, #1
100005e4:	0876      	lsrs	r6, r6, #1
100005e6:	626f      	str	r7, [r5, #36]	; 0x24
100005e8:	429f      	cmp	r7, r3
100005ea:	d024      	beq.n	10000636 <uart_init+0xb6>
100005ec:	62ae      	str	r6, [r5, #40]	; 0x28
100005ee:	232c      	movs	r3, #44	; 0x2c
100005f0:	4698      	mov	r8, r3
100005f2:	2480      	movs	r4, #128	; 0x80
100005f4:	44a8      	add	r8, r5
100005f6:	4643      	mov	r3, r8
100005f8:	01a4      	lsls	r4, r4, #6
100005fa:	431c      	orrs	r4, r3
100005fc:	2300      	movs	r3, #0
100005fe:	2006      	movs	r0, #6
10000600:	6023      	str	r3, [r4, #0]
10000602:	f001 f875 	bl	100016f0 <clock_get_hz>
10000606:	01b9      	lsls	r1, r7, #6
10000608:	1989      	adds	r1, r1, r6
1000060a:	0080      	lsls	r0, r0, #2
1000060c:	f002 fde2 	bl	100031d4 <__wrap___aeabi_uidiv>
10000610:	2360      	movs	r3, #96	; 0x60
10000612:	6aea      	ldr	r2, [r5, #44]	; 0x2c
10000614:	4641      	mov	r1, r8
10000616:	4053      	eors	r3, r2
10000618:	226e      	movs	r2, #110	; 0x6e
1000061a:	401a      	ands	r2, r3
1000061c:	2380      	movs	r3, #128	; 0x80
1000061e:	015b      	lsls	r3, r3, #5
10000620:	430b      	orrs	r3, r1
10000622:	601a      	str	r2, [r3, #0]
10000624:	4b0b      	ldr	r3, [pc, #44]	; (10000654 <uart_init+0xd4>)
10000626:	632b      	str	r3, [r5, #48]	; 0x30
10000628:	2310      	movs	r3, #16
1000062a:	6023      	str	r3, [r4, #0]
1000062c:	3b0d      	subs	r3, #13
1000062e:	64ab      	str	r3, [r5, #72]	; 0x48
10000630:	bc04      	pop	{r2}
10000632:	4690      	mov	r8, r2
10000634:	bdf0      	pop	{r4, r5, r6, r7, pc}
10000636:	62ac      	str	r4, [r5, #40]	; 0x28
10000638:	e7d9      	b.n	100005ee <uart_init+0x6e>
1000063a:	46c0      	nop			; (mov r8, r8)
1000063c:	bffc8000 	.word	0xbffc8000
10000640:	4000c000 	.word	0x4000c000
10000644:	4000e000 	.word	0x4000e000
10000648:	4000f000 	.word	0x4000f000
1000064c:	20000b2c 	.word	0x20000b2c
10000650:	0000ffff 	.word	0x0000ffff
10000654:	00000301 	.word	0x00000301

10000658 <timer_pool_entry_comparator>:
10000658:	6883      	ldr	r3, [r0, #8]
1000065a:	480b      	ldr	r0, [pc, #44]	; (10000688 <timer_pool_entry_comparator+0x30>)
1000065c:	b510      	push	{r4, lr}
1000065e:	4684      	mov	ip, r0
10000660:	4461      	add	r1, ip
10000662:	4462      	add	r2, ip
10000664:	0109      	lsls	r1, r1, #4
10000666:	0112      	lsls	r2, r2, #4
10000668:	189a      	adds	r2, r3, r2
1000066a:	1859      	adds	r1, r3, r1
1000066c:	6854      	ldr	r4, [r2, #4]
1000066e:	684b      	ldr	r3, [r1, #4]
10000670:	2001      	movs	r0, #1
10000672:	429c      	cmp	r4, r3
10000674:	d801      	bhi.n	1000067a <timer_pool_entry_comparator+0x22>
10000676:	d002      	beq.n	1000067e <timer_pool_entry_comparator+0x26>
10000678:	2000      	movs	r0, #0
1000067a:	b2c0      	uxtb	r0, r0
1000067c:	bd10      	pop	{r4, pc}
1000067e:	6812      	ldr	r2, [r2, #0]
10000680:	680b      	ldr	r3, [r1, #0]
10000682:	429a      	cmp	r2, r3
10000684:	d8f9      	bhi.n	1000067a <timer_pool_entry_comparator+0x22>
10000686:	e7f7      	b.n	10000678 <timer_pool_entry_comparator+0x20>
10000688:	0fffffff 	.word	0x0fffffff

1000068c <sev_callback>:
1000068c:	bf40      	sev
1000068e:	2000      	movs	r0, #0
10000690:	2100      	movs	r1, #0
10000692:	4770      	bx	lr

10000694 <add_alarm_under_lock>:
10000694:	b5f0      	push	{r4, r5, r6, r7, lr}
10000696:	4657      	mov	r7, sl
10000698:	4645      	mov	r5, r8
1000069a:	46de      	mov	lr, fp
1000069c:	464e      	mov	r6, r9
1000069e:	b5e0      	push	{r5, r6, r7, lr}
100006a0:	b083      	sub	sp, #12
100006a2:	001f      	movs	r7, r3
100006a4:	ab0f      	add	r3, sp, #60	; 0x3c
100006a6:	781b      	ldrb	r3, [r3, #0]
100006a8:	9c0e      	ldr	r4, [sp, #56]	; 0x38
100006aa:	0005      	movs	r5, r0
100006ac:	4692      	mov	sl, r2
100006ae:	9301      	str	r3, [sp, #4]
100006b0:	2c00      	cmp	r4, #0
100006b2:	d10d      	bne.n	100006d0 <add_alarm_under_lock+0x3c>
100006b4:	6802      	ldr	r2, [r0, #0]
100006b6:	7b94      	ldrb	r4, [r2, #14]
100006b8:	2c00      	cmp	r4, #0
100006ba:	d056      	beq.n	1000076a <add_alarm_under_lock+0xd6>
100006bc:	6811      	ldr	r1, [r2, #0]
100006be:	0063      	lsls	r3, r4, #1
100006c0:	468c      	mov	ip, r1
100006c2:	191b      	adds	r3, r3, r4
100006c4:	4463      	add	r3, ip
100006c6:	3b03      	subs	r3, #3
100006c8:	785b      	ldrb	r3, [r3, #1]
100006ca:	7393      	strb	r3, [r2, #14]
100006cc:	2b00      	cmp	r3, #0
100006ce:	d054      	beq.n	1000077a <add_alarm_under_lock+0xe6>
100006d0:	68aa      	ldr	r2, [r5, #8]
100006d2:	b2e3      	uxtb	r3, r4
100006d4:	4694      	mov	ip, r2
100006d6:	4652      	mov	r2, sl
100006d8:	469b      	mov	fp, r3
100006da:	4b38      	ldr	r3, [pc, #224]	; (100007bc <add_alarm_under_lock+0x128>)
100006dc:	682e      	ldr	r6, [r5, #0]
100006de:	18e3      	adds	r3, r4, r3
100006e0:	011b      	lsls	r3, r3, #4
100006e2:	4463      	add	r3, ip
100006e4:	601a      	str	r2, [r3, #0]
100006e6:	9a0c      	ldr	r2, [sp, #48]	; 0x30
100006e8:	605f      	str	r7, [r3, #4]
100006ea:	609a      	str	r2, [r3, #8]
100006ec:	9a0d      	ldr	r2, [sp, #52]	; 0x34
100006ee:	60da      	str	r2, [r3, #12]
100006f0:	23d0      	movs	r3, #208	; 0xd0
100006f2:	2280      	movs	r2, #128	; 0x80
100006f4:	061b      	lsls	r3, r3, #24
100006f6:	0312      	lsls	r2, r2, #12
100006f8:	615a      	str	r2, [r3, #20]
100006fa:	0063      	lsls	r3, r4, #1
100006fc:	191b      	adds	r3, r3, r4
100006fe:	3b03      	subs	r3, #3
10000700:	4698      	mov	r8, r3
10000702:	2200      	movs	r2, #0
10000704:	6833      	ldr	r3, [r6, #0]
10000706:	4443      	add	r3, r8
10000708:	709a      	strb	r2, [r3, #2]
1000070a:	705a      	strb	r2, [r3, #1]
1000070c:	701a      	strb	r2, [r3, #0]
1000070e:	7b73      	ldrb	r3, [r6, #13]
10000710:	4699      	mov	r9, r3
10000712:	2b00      	cmp	r3, #0
10000714:	d017      	beq.n	10000746 <add_alarm_under_lock+0xb2>
10000716:	465a      	mov	r2, fp
10000718:	0019      	movs	r1, r3
1000071a:	68b0      	ldr	r0, [r6, #8]
1000071c:	6873      	ldr	r3, [r6, #4]
1000071e:	4798      	blx	r3
10000720:	6832      	ldr	r2, [r6, #0]
10000722:	2800      	cmp	r0, #0
10000724:	d12b      	bne.n	1000077e <add_alarm_under_lock+0xea>
10000726:	4643      	mov	r3, r8
10000728:	18d1      	adds	r1, r2, r3
1000072a:	464b      	mov	r3, r9
1000072c:	4658      	mov	r0, fp
1000072e:	005b      	lsls	r3, r3, #1
10000730:	444b      	add	r3, r9
10000732:	3b03      	subs	r3, #3
10000734:	18d3      	adds	r3, r2, r3
10000736:	7098      	strb	r0, [r3, #2]
10000738:	4640      	mov	r0, r8
1000073a:	5c12      	ldrb	r2, [r2, r0]
1000073c:	2a00      	cmp	r2, #0
1000073e:	d000      	beq.n	10000742 <add_alarm_under_lock+0xae>
10000740:	705a      	strb	r2, [r3, #1]
10000742:	464b      	mov	r3, r9
10000744:	700b      	strb	r3, [r1, #0]
10000746:	465b      	mov	r3, fp
10000748:	7373      	strb	r3, [r6, #13]
1000074a:	4652      	mov	r2, sl
1000074c:	003b      	movs	r3, r7
1000074e:	7d28      	ldrb	r0, [r5, #20]
10000750:	f000 fb12 	bl	10000d78 <hardware_alarm_set_target>
10000754:	1e06      	subs	r6, r0, #0
10000756:	d002      	beq.n	1000075e <add_alarm_under_lock+0xca>
10000758:	9b01      	ldr	r3, [sp, #4]
1000075a:	2b00      	cmp	r3, #0
1000075c:	d026      	beq.n	100007ac <add_alarm_under_lock+0x118>
1000075e:	9b10      	ldr	r3, [sp, #64]	; 0x40
10000760:	2b00      	cmp	r3, #0
10000762:	d028      	beq.n	100007b6 <add_alarm_under_lock+0x122>
10000764:	0020      	movs	r0, r4
10000766:	701e      	strb	r6, [r3, #0]
10000768:	e000      	b.n	1000076c <add_alarm_under_lock+0xd8>
1000076a:	2000      	movs	r0, #0
1000076c:	b003      	add	sp, #12
1000076e:	bc3c      	pop	{r2, r3, r4, r5}
10000770:	4690      	mov	r8, r2
10000772:	4699      	mov	r9, r3
10000774:	46a2      	mov	sl, r4
10000776:	46ab      	mov	fp, r5
10000778:	bdf0      	pop	{r4, r5, r6, r7, pc}
1000077a:	73d3      	strb	r3, [r2, #15]
1000077c:	e7a8      	b.n	100006d0 <add_alarm_under_lock+0x3c>
1000077e:	464b      	mov	r3, r9
10000780:	005b      	lsls	r3, r3, #1
10000782:	444b      	add	r3, r9
10000784:	3b03      	subs	r3, #3
10000786:	18d1      	adds	r1, r2, r3
10000788:	468c      	mov	ip, r1
1000078a:	4641      	mov	r1, r8
1000078c:	4648      	mov	r0, r9
1000078e:	1851      	adds	r1, r2, r1
10000790:	7088      	strb	r0, [r1, #2]
10000792:	5cd3      	ldrb	r3, [r2, r3]
10000794:	2b00      	cmp	r3, #0
10000796:	d000      	beq.n	1000079a <add_alarm_under_lock+0x106>
10000798:	704b      	strb	r3, [r1, #1]
1000079a:	465b      	mov	r3, fp
1000079c:	4662      	mov	r2, ip
1000079e:	7013      	strb	r3, [r2, #0]
100007a0:	464b      	mov	r3, r9
100007a2:	0020      	movs	r0, r4
100007a4:	7373      	strb	r3, [r6, #13]
100007a6:	45a1      	cmp	r9, r4
100007a8:	d1e0      	bne.n	1000076c <add_alarm_under_lock+0xd8>
100007aa:	e7ce      	b.n	1000074a <add_alarm_under_lock+0xb6>
100007ac:	4659      	mov	r1, fp
100007ae:	6828      	ldr	r0, [r5, #0]
100007b0:	f000 fd40 	bl	10001234 <ph_delete>
100007b4:	e7d3      	b.n	1000075e <add_alarm_under_lock+0xca>
100007b6:	0020      	movs	r0, r4
100007b8:	e7d8      	b.n	1000076c <add_alarm_under_lock+0xd8>
100007ba:	46c0      	nop			; (mov r8, r8)
100007bc:	0fffffff 	.word	0x0fffffff

100007c0 <alarm_pool_alarm_callback>:
100007c0:	b5f0      	push	{r4, r5, r6, r7, lr}
100007c2:	46de      	mov	lr, fp
100007c4:	464e      	mov	r6, r9
100007c6:	4657      	mov	r7, sl
100007c8:	4645      	mov	r5, r8
100007ca:	2300      	movs	r3, #0
100007cc:	b5e0      	push	{r5, r6, r7, lr}
100007ce:	b08d      	sub	sp, #52	; 0x34
100007d0:	930a      	str	r3, [sp, #40]	; 0x28
100007d2:	4b71      	ldr	r3, [pc, #452]	; (10000998 <alarm_pool_alarm_callback+0x1d8>)
100007d4:	0082      	lsls	r2, r0, #2
100007d6:	58d3      	ldr	r3, [r2, r3]
100007d8:	900b      	str	r0, [sp, #44]	; 0x2c
100007da:	4699      	mov	r9, r3
100007dc:	2300      	movs	r3, #0
100007de:	469b      	mov	fp, r3
100007e0:	464b      	mov	r3, r9
100007e2:	9307      	str	r3, [sp, #28]
100007e4:	f000 fa68 	bl	10000cb8 <time_us_64>
100007e8:	9c07      	ldr	r4, [sp, #28]
100007ea:	0006      	movs	r6, r0
100007ec:	000f      	movs	r7, r1
100007ee:	6862      	ldr	r2, [r4, #4]
100007f0:	f3ef 8510 	mrs	r5, PRIMASK
100007f4:	b672      	cpsid	i
100007f6:	6813      	ldr	r3, [r2, #0]
100007f8:	2b00      	cmp	r3, #0
100007fa:	d0fc      	beq.n	100007f6 <alarm_pool_alarm_callback+0x36>
100007fc:	0022      	movs	r2, r4
100007fe:	9407      	str	r4, [sp, #28]
10000800:	f3bf 8f5f 	dmb	sy
10000804:	6824      	ldr	r4, [r4, #0]
10000806:	7b63      	ldrb	r3, [r4, #13]
10000808:	4699      	mov	r9, r3
1000080a:	2b00      	cmp	r3, #0
1000080c:	d100      	bne.n	10000810 <alarm_pool_alarm_callback+0x50>
1000080e:	e070      	b.n	100008f2 <alarm_pool_alarm_callback+0x132>
10000810:	6892      	ldr	r2, [r2, #8]
10000812:	4b62      	ldr	r3, [pc, #392]	; (1000099c <alarm_pool_alarm_callback+0x1dc>)
10000814:	4690      	mov	r8, r2
10000816:	444b      	add	r3, r9
10000818:	011b      	lsls	r3, r3, #4
1000081a:	4498      	add	r8, r3
1000081c:	4643      	mov	r3, r8
1000081e:	681a      	ldr	r2, [r3, #0]
10000820:	685b      	ldr	r3, [r3, #4]
10000822:	0010      	movs	r0, r2
10000824:	0019      	movs	r1, r3
10000826:	1b80      	subs	r0, r0, r6
10000828:	41b9      	sbcs	r1, r7
1000082a:	2900      	cmp	r1, #0
1000082c:	dd68      	ble.n	10000900 <alarm_pool_alarm_callback+0x140>
1000082e:	980b      	ldr	r0, [sp, #44]	; 0x2c
10000830:	f000 faa2 	bl	10000d78 <hardware_alarm_set_target>
10000834:	2300      	movs	r3, #0
10000836:	2600      	movs	r6, #0
10000838:	4698      	mov	r8, r3
1000083a:	2700      	movs	r7, #0
1000083c:	469a      	mov	sl, r3
1000083e:	9c07      	ldr	r4, [sp, #28]
10000840:	6863      	ldr	r3, [r4, #4]
10000842:	f3bf 8f5f 	dmb	sy
10000846:	465a      	mov	r2, fp
10000848:	601a      	str	r2, [r3, #0]
1000084a:	f385 8810 	msr	PRIMASK, r5
1000084e:	4653      	mov	r3, sl
10000850:	2b00      	cmp	r3, #0
10000852:	d108      	bne.n	10000866 <alarm_pool_alarm_callback+0xa6>
10000854:	2800      	cmp	r0, #0
10000856:	d1c5      	bne.n	100007e4 <alarm_pool_alarm_callback+0x24>
10000858:	b00d      	add	sp, #52	; 0x34
1000085a:	bc3c      	pop	{r2, r3, r4, r5}
1000085c:	4690      	mov	r8, r2
1000085e:	4699      	mov	r9, r3
10000860:	46a2      	mov	sl, r4
10000862:	46ab      	mov	fp, r5
10000864:	bdf0      	pop	{r4, r5, r6, r7, pc}
10000866:	23d0      	movs	r3, #208	; 0xd0
10000868:	2280      	movs	r2, #128	; 0x80
1000086a:	2180      	movs	r1, #128	; 0x80
1000086c:	061b      	lsls	r3, r3, #24
1000086e:	0392      	lsls	r2, r2, #14
10000870:	0309      	lsls	r1, r1, #12
10000872:	615a      	str	r2, [r3, #20]
10000874:	6199      	str	r1, [r3, #24]
10000876:	619a      	str	r2, [r3, #24]
10000878:	9b0a      	ldr	r3, [sp, #40]	; 0x28
1000087a:	4641      	mov	r1, r8
1000087c:	0218      	lsls	r0, r3, #8
1000087e:	464b      	mov	r3, r9
10000880:	4318      	orrs	r0, r3
10000882:	47d0      	blx	sl
10000884:	9008      	str	r0, [sp, #32]
10000886:	9109      	str	r1, [sp, #36]	; 0x24
10000888:	6862      	ldr	r2, [r4, #4]
1000088a:	f3ef 8510 	mrs	r5, PRIMASK
1000088e:	b672      	cpsid	i
10000890:	6813      	ldr	r3, [r2, #0]
10000892:	2b00      	cmp	r3, #0
10000894:	d0fc      	beq.n	10000890 <alarm_pool_alarm_callback+0xd0>
10000896:	9407      	str	r4, [sp, #28]
10000898:	f3bf 8f5f 	dmb	sy
1000089c:	9908      	ldr	r1, [sp, #32]
1000089e:	9a09      	ldr	r2, [sp, #36]	; 0x24
100008a0:	2a00      	cmp	r2, #0
100008a2:	db49      	blt.n	10000938 <alarm_pool_alarm_callback+0x178>
100008a4:	4311      	orrs	r1, r2
100008a6:	d003      	beq.n	100008b0 <alarm_pool_alarm_callback+0xf0>
100008a8:	9b07      	ldr	r3, [sp, #28]
100008aa:	691b      	ldr	r3, [r3, #16]
100008ac:	2b00      	cmp	r3, #0
100008ae:	d15e      	bne.n	1000096e <alarm_pool_alarm_callback+0x1ae>
100008b0:	9b07      	ldr	r3, [sp, #28]
100008b2:	681b      	ldr	r3, [r3, #0]
100008b4:	7bda      	ldrb	r2, [r3, #15]
100008b6:	2a00      	cmp	r2, #0
100008b8:	d007      	beq.n	100008ca <alarm_pool_alarm_callback+0x10a>
100008ba:	0051      	lsls	r1, r2, #1
100008bc:	188a      	adds	r2, r1, r2
100008be:	6819      	ldr	r1, [r3, #0]
100008c0:	468c      	mov	ip, r1
100008c2:	4649      	mov	r1, r9
100008c4:	4462      	add	r2, ip
100008c6:	3a03      	subs	r2, #3
100008c8:	7051      	strb	r1, [r2, #1]
100008ca:	464a      	mov	r2, r9
100008cc:	73da      	strb	r2, [r3, #15]
100008ce:	464b      	mov	r3, r9
100008d0:	9a07      	ldr	r2, [sp, #28]
100008d2:	3b01      	subs	r3, #1
100008d4:	68d1      	ldr	r1, [r2, #12]
100008d6:	5cca      	ldrb	r2, [r1, r3]
100008d8:	3201      	adds	r2, #1
100008da:	54ca      	strb	r2, [r1, r3]
100008dc:	465b      	mov	r3, fp
100008de:	9a07      	ldr	r2, [sp, #28]
100008e0:	6113      	str	r3, [r2, #16]
100008e2:	6853      	ldr	r3, [r2, #4]
100008e4:	f3bf 8f5f 	dmb	sy
100008e8:	465a      	mov	r2, fp
100008ea:	601a      	str	r2, [r3, #0]
100008ec:	f385 8810 	msr	PRIMASK, r5
100008f0:	e778      	b.n	100007e4 <alarm_pool_alarm_callback+0x24>
100008f2:	2300      	movs	r3, #0
100008f4:	2600      	movs	r6, #0
100008f6:	4698      	mov	r8, r3
100008f8:	2700      	movs	r7, #0
100008fa:	469a      	mov	sl, r3
100008fc:	2000      	movs	r0, #0
100008fe:	e79e      	b.n	1000083e <alarm_pool_alarm_callback+0x7e>
10000900:	2900      	cmp	r1, #0
10000902:	d102      	bne.n	1000090a <alarm_pool_alarm_callback+0x14a>
10000904:	2800      	cmp	r0, #0
10000906:	d000      	beq.n	1000090a <alarm_pool_alarm_callback+0x14a>
10000908:	e791      	b.n	1000082e <alarm_pool_alarm_callback+0x6e>
1000090a:	2101      	movs	r1, #1
1000090c:	0020      	movs	r0, r4
1000090e:	f000 fbf3 	bl	100010f8 <ph_remove_head_reserve>
10000912:	4643      	mov	r3, r8
10000914:	681e      	ldr	r6, [r3, #0]
10000916:	685f      	ldr	r7, [r3, #4]
10000918:	689b      	ldr	r3, [r3, #8]
1000091a:	9a07      	ldr	r2, [sp, #28]
1000091c:	469a      	mov	sl, r3
1000091e:	4643      	mov	r3, r8
10000920:	68db      	ldr	r3, [r3, #12]
10000922:	4698      	mov	r8, r3
10000924:	68d3      	ldr	r3, [r2, #12]
10000926:	444b      	add	r3, r9
10000928:	3b01      	subs	r3, #1
1000092a:	781b      	ldrb	r3, [r3, #0]
1000092c:	930a      	str	r3, [sp, #40]	; 0x28
1000092e:	021b      	lsls	r3, r3, #8
10000930:	4303      	orrs	r3, r0
10000932:	6113      	str	r3, [r2, #16]
10000934:	2000      	movs	r0, #0
10000936:	e782      	b.n	1000083e <alarm_pool_alarm_callback+0x7e>
10000938:	6923      	ldr	r3, [r4, #16]
1000093a:	2b00      	cmp	r3, #0
1000093c:	d0b8      	beq.n	100008b0 <alarm_pool_alarm_callback+0xf0>
1000093e:	0033      	movs	r3, r6
10000940:	003c      	movs	r4, r7
10000942:	1a5b      	subs	r3, r3, r1
10000944:	4194      	sbcs	r4, r2
10000946:	001a      	movs	r2, r3
10000948:	0023      	movs	r3, r4
1000094a:	42a7      	cmp	r7, r4
1000094c:	d819      	bhi.n	10000982 <alarm_pool_alarm_callback+0x1c2>
1000094e:	429f      	cmp	r7, r3
10000950:	d01b      	beq.n	1000098a <alarm_pool_alarm_callback+0x1ca>
10000952:	4659      	mov	r1, fp
10000954:	9104      	str	r1, [sp, #16]
10000956:	2101      	movs	r1, #1
10000958:	9103      	str	r1, [sp, #12]
1000095a:	4649      	mov	r1, r9
1000095c:	9102      	str	r1, [sp, #8]
1000095e:	4641      	mov	r1, r8
10000960:	9101      	str	r1, [sp, #4]
10000962:	4651      	mov	r1, sl
10000964:	9807      	ldr	r0, [sp, #28]
10000966:	9100      	str	r1, [sp, #0]
10000968:	f7ff fe94 	bl	10000694 <add_alarm_under_lock>
1000096c:	e7b6      	b.n	100008dc <alarm_pool_alarm_callback+0x11c>
1000096e:	f000 f9a3 	bl	10000cb8 <time_us_64>
10000972:	9a08      	ldr	r2, [sp, #32]
10000974:	9b09      	ldr	r3, [sp, #36]	; 0x24
10000976:	0006      	movs	r6, r0
10000978:	000f      	movs	r7, r1
1000097a:	1992      	adds	r2, r2, r6
1000097c:	417b      	adcs	r3, r7
1000097e:	4299      	cmp	r1, r3
10000980:	d9e5      	bls.n	1000094e <alarm_pool_alarm_callback+0x18e>
10000982:	2201      	movs	r2, #1
10000984:	4252      	negs	r2, r2
10000986:	17d3      	asrs	r3, r2, #31
10000988:	e7e3      	b.n	10000952 <alarm_pool_alarm_callback+0x192>
1000098a:	4296      	cmp	r6, r2
1000098c:	d9e1      	bls.n	10000952 <alarm_pool_alarm_callback+0x192>
1000098e:	2201      	movs	r2, #1
10000990:	4252      	negs	r2, r2
10000992:	17d3      	asrs	r3, r2, #31
10000994:	e7dd      	b.n	10000952 <alarm_pool_alarm_callback+0x192>
10000996:	46c0      	nop			; (mov r8, r8)
10000998:	20000b08 	.word	0x20000b08
1000099c:	0fffffff 	.word	0x0fffffff

100009a0 <alarm_pool_add_alarm_at.constprop.0>:
100009a0:	b5f8      	push	{r3, r4, r5, r6, r7, lr}
100009a2:	4657      	mov	r7, sl
100009a4:	464e      	mov	r6, r9
100009a6:	46de      	mov	lr, fp
100009a8:	4645      	mov	r5, r8
100009aa:	4691      	mov	r9, r2
100009ac:	b5e0      	push	{r5, r6, r7, lr}
100009ae:	0004      	movs	r4, r0
100009b0:	469a      	mov	sl, r3
100009b2:	6842      	ldr	r2, [r0, #4]
100009b4:	f3ef 8810 	mrs	r8, PRIMASK
100009b8:	b672      	cpsid	i
100009ba:	6813      	ldr	r3, [r2, #0]
100009bc:	2b00      	cmp	r3, #0
100009be:	d0fc      	beq.n	100009ba <alarm_pool_add_alarm_at.constprop.0+0x1a>
100009c0:	f3bf 8f5f 	dmb	sy
100009c4:	6826      	ldr	r6, [r4, #0]
100009c6:	7bb5      	ldrb	r5, [r6, #14]
100009c8:	2d00      	cmp	r5, #0
100009ca:	d040      	beq.n	10000a4e <alarm_pool_add_alarm_at.constprop.0+0xae>
100009cc:	006f      	lsls	r7, r5, #1
100009ce:	6833      	ldr	r3, [r6, #0]
100009d0:	197f      	adds	r7, r7, r5
100009d2:	3f03      	subs	r7, #3
100009d4:	19db      	adds	r3, r3, r7
100009d6:	785b      	ldrb	r3, [r3, #1]
100009d8:	73b3      	strb	r3, [r6, #14]
100009da:	2b00      	cmp	r3, #0
100009dc:	d100      	bne.n	100009e0 <alarm_pool_add_alarm_at.constprop.0+0x40>
100009de:	73f3      	strb	r3, [r6, #15]
100009e0:	4b37      	ldr	r3, [pc, #220]	; (10000ac0 <alarm_pool_add_alarm_at.constprop.0+0x120>)
100009e2:	2200      	movs	r2, #0
100009e4:	18e9      	adds	r1, r5, r3
100009e6:	68a3      	ldr	r3, [r4, #8]
100009e8:	0109      	lsls	r1, r1, #4
100009ea:	469c      	mov	ip, r3
100009ec:	464b      	mov	r3, r9
100009ee:	4461      	add	r1, ip
100009f0:	600b      	str	r3, [r1, #0]
100009f2:	4653      	mov	r3, sl
100009f4:	604b      	str	r3, [r1, #4]
100009f6:	4b33      	ldr	r3, [pc, #204]	; (10000ac4 <alarm_pool_add_alarm_at.constprop.0+0x124>)
100009f8:	60ca      	str	r2, [r1, #12]
100009fa:	608b      	str	r3, [r1, #8]
100009fc:	23d0      	movs	r3, #208	; 0xd0
100009fe:	2180      	movs	r1, #128	; 0x80
10000a00:	061b      	lsls	r3, r3, #24
10000a02:	0309      	lsls	r1, r1, #12
10000a04:	6159      	str	r1, [r3, #20]
10000a06:	6833      	ldr	r3, [r6, #0]
10000a08:	19db      	adds	r3, r3, r7
10000a0a:	709a      	strb	r2, [r3, #2]
10000a0c:	705a      	strb	r2, [r3, #1]
10000a0e:	701a      	strb	r2, [r3, #0]
10000a10:	7b73      	ldrb	r3, [r6, #13]
10000a12:	469b      	mov	fp, r3
10000a14:	2b00      	cmp	r3, #0
10000a16:	d035      	beq.n	10000a84 <alarm_pool_add_alarm_at.constprop.0+0xe4>
10000a18:	002a      	movs	r2, r5
10000a1a:	0019      	movs	r1, r3
10000a1c:	68b0      	ldr	r0, [r6, #8]
10000a1e:	6873      	ldr	r3, [r6, #4]
10000a20:	4798      	blx	r3
10000a22:	6832      	ldr	r2, [r6, #0]
10000a24:	2800      	cmp	r0, #0
10000a26:	d020      	beq.n	10000a6a <alarm_pool_add_alarm_at.constprop.0+0xca>
10000a28:	465b      	mov	r3, fp
10000a2a:	4658      	mov	r0, fp
10000a2c:	005b      	lsls	r3, r3, #1
10000a2e:	445b      	add	r3, fp
10000a30:	19d7      	adds	r7, r2, r7
10000a32:	3b03      	subs	r3, #3
10000a34:	70b8      	strb	r0, [r7, #2]
10000a36:	18d1      	adds	r1, r2, r3
10000a38:	5cd3      	ldrb	r3, [r2, r3]
10000a3a:	2b00      	cmp	r3, #0
10000a3c:	d000      	beq.n	10000a40 <alarm_pool_add_alarm_at.constprop.0+0xa0>
10000a3e:	707b      	strb	r3, [r7, #1]
10000a40:	465b      	mov	r3, fp
10000a42:	700d      	strb	r5, [r1, #0]
10000a44:	7373      	strb	r3, [r6, #13]
10000a46:	455d      	cmp	r5, fp
10000a48:	d01d      	beq.n	10000a86 <alarm_pool_add_alarm_at.constprop.0+0xe6>
10000a4a:	2600      	movs	r6, #0
10000a4c:	e026      	b.n	10000a9c <alarm_pool_add_alarm_at.constprop.0+0xfc>
10000a4e:	6863      	ldr	r3, [r4, #4]
10000a50:	f3bf 8f5f 	dmb	sy
10000a54:	601d      	str	r5, [r3, #0]
10000a56:	f388 8810 	msr	PRIMASK, r8
10000a5a:	2001      	movs	r0, #1
10000a5c:	4240      	negs	r0, r0
10000a5e:	bc3c      	pop	{r2, r3, r4, r5}
10000a60:	4690      	mov	r8, r2
10000a62:	4699      	mov	r9, r3
10000a64:	46a2      	mov	sl, r4
10000a66:	46ab      	mov	fp, r5
10000a68:	bdf8      	pop	{r3, r4, r5, r6, r7, pc}
10000a6a:	465b      	mov	r3, fp
10000a6c:	005b      	lsls	r3, r3, #1
10000a6e:	445b      	add	r3, fp
10000a70:	3b03      	subs	r3, #3
10000a72:	18d3      	adds	r3, r2, r3
10000a74:	709d      	strb	r5, [r3, #2]
10000a76:	19d1      	adds	r1, r2, r7
10000a78:	5dd2      	ldrb	r2, [r2, r7]
10000a7a:	2a00      	cmp	r2, #0
10000a7c:	d000      	beq.n	10000a80 <alarm_pool_add_alarm_at.constprop.0+0xe0>
10000a7e:	705a      	strb	r2, [r3, #1]
10000a80:	465b      	mov	r3, fp
10000a82:	700b      	strb	r3, [r1, #0]
10000a84:	7375      	strb	r5, [r6, #13]
10000a86:	464a      	mov	r2, r9
10000a88:	4653      	mov	r3, sl
10000a8a:	7d20      	ldrb	r0, [r4, #20]
10000a8c:	f000 f974 	bl	10000d78 <hardware_alarm_set_target>
10000a90:	1e06      	subs	r6, r0, #0
10000a92:	d0da      	beq.n	10000a4a <alarm_pool_add_alarm_at.constprop.0+0xaa>
10000a94:	0029      	movs	r1, r5
10000a96:	6820      	ldr	r0, [r4, #0]
10000a98:	f000 fbcc 	bl	10001234 <ph_delete>
10000a9c:	68e3      	ldr	r3, [r4, #12]
10000a9e:	6862      	ldr	r2, [r4, #4]
10000aa0:	195b      	adds	r3, r3, r5
10000aa2:	3b01      	subs	r3, #1
10000aa4:	781b      	ldrb	r3, [r3, #0]
10000aa6:	f3bf 8f5f 	dmb	sy
10000aaa:	2100      	movs	r1, #0
10000aac:	6011      	str	r1, [r2, #0]
10000aae:	f388 8810 	msr	PRIMASK, r8
10000ab2:	2000      	movs	r0, #0
10000ab4:	2e00      	cmp	r6, #0
10000ab6:	d1d2      	bne.n	10000a5e <alarm_pool_add_alarm_at.constprop.0+0xbe>
10000ab8:	0218      	lsls	r0, r3, #8
10000aba:	4328      	orrs	r0, r5
10000abc:	e7cf      	b.n	10000a5e <alarm_pool_add_alarm_at.constprop.0+0xbe>
10000abe:	46c0      	nop			; (mov r8, r8)
10000ac0:	0fffffff 	.word	0x0fffffff
10000ac4:	1000068d 	.word	0x1000068d

10000ac8 <alarm_pool_init_default>:
10000ac8:	b570      	push	{r4, r5, r6, lr}
10000aca:	4c18      	ldr	r4, [pc, #96]	; (10000b2c <alarm_pool_init_default+0x64>)
10000acc:	6823      	ldr	r3, [r4, #0]
10000ace:	2b00      	cmp	r3, #0
10000ad0:	d000      	beq.n	10000ad4 <alarm_pool_init_default+0xc>
10000ad2:	bd70      	pop	{r4, r5, r6, pc}
10000ad4:	2003      	movs	r0, #3
10000ad6:	f000 f8e3 	bl	10000ca0 <hardware_alarm_claim>
10000ada:	2003      	movs	r0, #3
10000adc:	f000 f9ae 	bl	10000e3c <hardware_alarm_cancel>
10000ae0:	4913      	ldr	r1, [pc, #76]	; (10000b30 <alarm_pool_init_default+0x68>)
10000ae2:	2003      	movs	r0, #3
10000ae4:	f000 f902 	bl	10000cec <hardware_alarm_set_callback>
10000ae8:	2018      	movs	r0, #24
10000aea:	f003 fa2f 	bl	10003f4c <__wrap_malloc>
10000aee:	0005      	movs	r5, r0
10000af0:	f7ff fd32 	bl	10000558 <next_striped_spin_lock_num>
10000af4:	4b0f      	ldr	r3, [pc, #60]	; (10000b34 <alarm_pool_init_default+0x6c>)
10000af6:	002a      	movs	r2, r5
10000af8:	469c      	mov	ip, r3
10000afa:	4460      	add	r0, ip
10000afc:	0080      	lsls	r0, r0, #2
10000afe:	490e      	ldr	r1, [pc, #56]	; (10000b38 <alarm_pool_init_default+0x70>)
10000b00:	6068      	str	r0, [r5, #4]
10000b02:	2010      	movs	r0, #16
10000b04:	f000 fa02 	bl	10000f0c <ph_create>
10000b08:	2110      	movs	r1, #16
10000b0a:	6028      	str	r0, [r5, #0]
10000b0c:	2010      	movs	r0, #16
10000b0e:	f003 fa21 	bl	10003f54 <__wrap_calloc>
10000b12:	2101      	movs	r1, #1
10000b14:	60a8      	str	r0, [r5, #8]
10000b16:	2010      	movs	r0, #16
10000b18:	f003 fa1c 	bl	10003f54 <__wrap_calloc>
10000b1c:	2303      	movs	r3, #3
10000b1e:	752b      	strb	r3, [r5, #20]
10000b20:	4b06      	ldr	r3, [pc, #24]	; (10000b3c <alarm_pool_init_default+0x74>)
10000b22:	60e8      	str	r0, [r5, #12]
10000b24:	60dd      	str	r5, [r3, #12]
10000b26:	6025      	str	r5, [r4, #0]
10000b28:	e7d3      	b.n	10000ad2 <alarm_pool_init_default+0xa>
10000b2a:	46c0      	nop			; (mov r8, r8)
10000b2c:	20000af4 	.word	0x20000af4
10000b30:	100007c1 	.word	0x100007c1
10000b34:	34000040 	.word	0x34000040
10000b38:	10000659 	.word	0x10000659
10000b3c:	20000b08 	.word	0x20000b08

10000b40 <sleep_ms>:
10000b40:	b5f8      	push	{r3, r4, r5, r6, r7, lr}
10000b42:	0004      	movs	r4, r0
10000b44:	f000 f8b8 	bl	10000cb8 <time_us_64>
10000b48:	22fa      	movs	r2, #250	; 0xfa
10000b4a:	0006      	movs	r6, r0
10000b4c:	000f      	movs	r7, r1
10000b4e:	0020      	movs	r0, r4
10000b50:	2300      	movs	r3, #0
10000b52:	2100      	movs	r1, #0
10000b54:	0092      	lsls	r2, r2, #2
10000b56:	f003 f997 	bl	10003e88 <__wrap___aeabi_lmul>
10000b5a:	1980      	adds	r0, r0, r6
10000b5c:	4179      	adcs	r1, r7
10000b5e:	0004      	movs	r4, r0
10000b60:	000d      	movs	r5, r1
10000b62:	428f      	cmp	r7, r1
10000b64:	d82f      	bhi.n	10000bc6 <sleep_ms+0x86>
10000b66:	d02c      	beq.n	10000bc2 <sleep_ms+0x82>
10000b68:	2606      	movs	r6, #6
10000b6a:	4276      	negs	r6, r6
10000b6c:	17f7      	asrs	r7, r6, #31
10000b6e:	1936      	adds	r6, r6, r4
10000b70:	416f      	adcs	r7, r5
10000b72:	42af      	cmp	r7, r5
10000b74:	d92e      	bls.n	10000bd4 <sleep_ms+0x94>
10000b76:	2600      	movs	r6, #0
10000b78:	2700      	movs	r7, #0
10000b7a:	f000 f89d 	bl	10000cb8 <time_us_64>
10000b7e:	0032      	movs	r2, r6
10000b80:	003b      	movs	r3, r7
10000b82:	1a12      	subs	r2, r2, r0
10000b84:	418b      	sbcs	r3, r1
10000b86:	2b00      	cmp	r3, #0
10000b88:	dc07      	bgt.n	10000b9a <sleep_ms+0x5a>
10000b8a:	d004      	beq.n	10000b96 <sleep_ms+0x56>
10000b8c:	0029      	movs	r1, r5
10000b8e:	0020      	movs	r0, r4
10000b90:	f000 f89c 	bl	10000ccc <busy_wait_until>
10000b94:	bdf8      	pop	{r3, r4, r5, r6, r7, pc}
10000b96:	2a00      	cmp	r2, #0
10000b98:	d0f8      	beq.n	10000b8c <sleep_ms+0x4c>
10000b9a:	4b11      	ldr	r3, [pc, #68]	; (10000be0 <sleep_ms+0xa0>)
10000b9c:	0032      	movs	r2, r6
10000b9e:	6818      	ldr	r0, [r3, #0]
10000ba0:	003b      	movs	r3, r7
10000ba2:	f7ff fefd 	bl	100009a0 <alarm_pool_add_alarm_at.constprop.0>
10000ba6:	2800      	cmp	r0, #0
10000ba8:	dbf0      	blt.n	10000b8c <sleep_ms+0x4c>
10000baa:	0038      	movs	r0, r7
10000bac:	4a0d      	ldr	r2, [pc, #52]	; (10000be4 <sleep_ms+0xa4>)
10000bae:	6a53      	ldr	r3, [r2, #36]	; 0x24
10000bb0:	4298      	cmp	r0, r3
10000bb2:	d804      	bhi.n	10000bbe <sleep_ms+0x7e>
10000bb4:	6a91      	ldr	r1, [r2, #40]	; 0x28
10000bb6:	428e      	cmp	r6, r1
10000bb8:	d9e8      	bls.n	10000b8c <sleep_ms+0x4c>
10000bba:	4298      	cmp	r0, r3
10000bbc:	d1e6      	bne.n	10000b8c <sleep_ms+0x4c>
10000bbe:	bf20      	wfe
10000bc0:	e7f5      	b.n	10000bae <sleep_ms+0x6e>
10000bc2:	4286      	cmp	r6, r0
10000bc4:	d9d0      	bls.n	10000b68 <sleep_ms+0x28>
10000bc6:	2401      	movs	r4, #1
10000bc8:	4264      	negs	r4, r4
10000bca:	17e5      	asrs	r5, r4, #31
10000bcc:	2607      	movs	r6, #7
10000bce:	4276      	negs	r6, r6
10000bd0:	17f7      	asrs	r7, r6, #31
10000bd2:	e7d2      	b.n	10000b7a <sleep_ms+0x3a>
10000bd4:	42af      	cmp	r7, r5
10000bd6:	d1d0      	bne.n	10000b7a <sleep_ms+0x3a>
10000bd8:	42a6      	cmp	r6, r4
10000bda:	d8cc      	bhi.n	10000b76 <sleep_ms+0x36>
10000bdc:	e7cd      	b.n	10000b7a <sleep_ms+0x3a>
10000bde:	46c0      	nop			; (mov r8, r8)
10000be0:	20000af4 	.word	0x20000af4
10000be4:	40054000 	.word	0x40054000

10000be8 <hardware_alarm_irq_handler>:
10000be8:	b5f0      	push	{r4, r5, r6, r7, lr}
10000bea:	46d6      	mov	lr, sl
10000bec:	464f      	mov	r7, r9
10000bee:	4646      	mov	r6, r8
10000bf0:	b5c0      	push	{r6, r7, lr}
10000bf2:	f3ef 8305 	mrs	r3, IPSR
10000bf6:	223f      	movs	r2, #63	; 0x3f
10000bf8:	4013      	ands	r3, r2
10000bfa:	0018      	movs	r0, r3
10000bfc:	3810      	subs	r0, #16
10000bfe:	f3ef 8c10 	mrs	ip, PRIMASK
10000c02:	b672      	cpsid	i
10000c04:	4d20      	ldr	r5, [pc, #128]	; (10000c88 <hardware_alarm_irq_handler+0xa0>)
10000c06:	682a      	ldr	r2, [r5, #0]
10000c08:	2a00      	cmp	r2, #0
10000c0a:	d0fc      	beq.n	10000c06 <hardware_alarm_irq_handler+0x1e>
10000c0c:	f3bf 8f5f 	dmb	sy
10000c10:	2201      	movs	r2, #1
10000c12:	0011      	movs	r1, r2
10000c14:	4081      	lsls	r1, r0
10000c16:	4c1d      	ldr	r4, [pc, #116]	; (10000c8c <hardware_alarm_irq_handler+0xa4>)
10000c18:	4688      	mov	r8, r1
10000c1a:	6361      	str	r1, [r4, #52]	; 0x34
10000c1c:	491c      	ldr	r1, [pc, #112]	; (10000c90 <hardware_alarm_irq_handler+0xa8>)
10000c1e:	0017      	movs	r7, r2
10000c20:	780e      	ldrb	r6, [r1, #0]
10000c22:	468a      	mov	sl, r1
10000c24:	0031      	movs	r1, r6
10000c26:	40c1      	lsrs	r1, r0
10000c28:	400f      	ands	r7, r1
10000c2a:	420a      	tst	r2, r1
10000c2c:	d015      	beq.n	10000c5a <hardware_alarm_irq_handler+0x72>
10000c2e:	4919      	ldr	r1, [pc, #100]	; (10000c94 <hardware_alarm_irq_handler+0xac>)
10000c30:	0082      	lsls	r2, r0, #2
10000c32:	6a64      	ldr	r4, [r4, #36]	; 0x24
10000c34:	5851      	ldr	r1, [r2, r1]
10000c36:	428c      	cmp	r4, r1
10000c38:	d319      	bcc.n	10000c6e <hardware_alarm_irq_handler+0x86>
10000c3a:	4b17      	ldr	r3, [pc, #92]	; (10000c98 <hardware_alarm_irq_handler+0xb0>)
10000c3c:	58d2      	ldr	r2, [r2, r3]
10000c3e:	4643      	mov	r3, r8
10000c40:	439e      	bics	r6, r3
10000c42:	4653      	mov	r3, sl
10000c44:	701e      	strb	r6, [r3, #0]
10000c46:	f3bf 8f5f 	dmb	sy
10000c4a:	2300      	movs	r3, #0
10000c4c:	602b      	str	r3, [r5, #0]
10000c4e:	f38c 8810 	msr	PRIMASK, ip
10000c52:	2a00      	cmp	r2, #0
10000c54:	d006      	beq.n	10000c64 <hardware_alarm_irq_handler+0x7c>
10000c56:	4790      	blx	r2
10000c58:	e004      	b.n	10000c64 <hardware_alarm_irq_handler+0x7c>
10000c5a:	f3bf 8f5f 	dmb	sy
10000c5e:	602f      	str	r7, [r5, #0]
10000c60:	f38c 8810 	msr	PRIMASK, ip
10000c64:	bc1c      	pop	{r2, r3, r4}
10000c66:	4690      	mov	r8, r2
10000c68:	4699      	mov	r9, r3
10000c6a:	46a2      	mov	sl, r4
10000c6c:	bdf0      	pop	{r4, r5, r6, r7, pc}
10000c6e:	4a0b      	ldr	r2, [pc, #44]	; (10000c9c <hardware_alarm_irq_handler+0xb4>)
10000c70:	009b      	lsls	r3, r3, #2
10000c72:	4690      	mov	r8, r2
10000c74:	4443      	add	r3, r8
10000c76:	681a      	ldr	r2, [r3, #0]
10000c78:	601a      	str	r2, [r3, #0]
10000c7a:	f3bf 8f5f 	dmb	sy
10000c7e:	2300      	movs	r3, #0
10000c80:	602b      	str	r3, [r5, #0]
10000c82:	f38c 8810 	msr	PRIMASK, ip
10000c86:	e7ed      	b.n	10000c64 <hardware_alarm_irq_handler+0x7c>
10000c88:	d0000128 	.word	0xd0000128
10000c8c:	40054000 	.word	0x40054000
10000c90:	20000b2a 	.word	0x20000b2a
10000c94:	20000b18 	.word	0x20000b18
10000c98:	20000abc 	.word	0x20000abc
10000c9c:	40053fd0 	.word	0x40053fd0

10000ca0 <hardware_alarm_claim>:
10000ca0:	b510      	push	{r4, lr}
10000ca2:	0001      	movs	r1, r0
10000ca4:	4a02      	ldr	r2, [pc, #8]	; (10000cb0 <hardware_alarm_claim+0x10>)
10000ca6:	4803      	ldr	r0, [pc, #12]	; (10000cb4 <hardware_alarm_claim+0x14>)
10000ca8:	f7ff fc18 	bl	100004dc <hw_claim_or_assert>
10000cac:	bd10      	pop	{r4, pc}
10000cae:	46c0      	nop			; (mov r8, r8)
10000cb0:	10004d80 	.word	0x10004d80
10000cb4:	20000b28 	.word	0x20000b28

10000cb8 <time_us_64>:
10000cb8:	4b03      	ldr	r3, [pc, #12]	; (10000cc8 <time_us_64+0x10>)
10000cba:	6a59      	ldr	r1, [r3, #36]	; 0x24
10000cbc:	000a      	movs	r2, r1
10000cbe:	6a98      	ldr	r0, [r3, #40]	; 0x28
10000cc0:	6a59      	ldr	r1, [r3, #36]	; 0x24
10000cc2:	428a      	cmp	r2, r1
10000cc4:	d1fa      	bne.n	10000cbc <time_us_64+0x4>
10000cc6:	4770      	bx	lr
10000cc8:	40054000 	.word	0x40054000

10000ccc <busy_wait_until>:
10000ccc:	4a06      	ldr	r2, [pc, #24]	; (10000ce8 <busy_wait_until+0x1c>)
10000cce:	6a53      	ldr	r3, [r2, #36]	; 0x24
10000cd0:	4299      	cmp	r1, r3
10000cd2:	d8fc      	bhi.n	10000cce <busy_wait_until+0x2>
10000cd4:	d107      	bne.n	10000ce6 <busy_wait_until+0x1a>
10000cd6:	4b04      	ldr	r3, [pc, #16]	; (10000ce8 <busy_wait_until+0x1c>)
10000cd8:	e002      	b.n	10000ce0 <busy_wait_until+0x14>
10000cda:	6a5a      	ldr	r2, [r3, #36]	; 0x24
10000cdc:	4291      	cmp	r1, r2
10000cde:	d102      	bne.n	10000ce6 <busy_wait_until+0x1a>
10000ce0:	6a9a      	ldr	r2, [r3, #40]	; 0x28
10000ce2:	4282      	cmp	r2, r0
10000ce4:	d3f9      	bcc.n	10000cda <busy_wait_until+0xe>
10000ce6:	4770      	bx	lr
10000ce8:	40054000 	.word	0x40054000

10000cec <hardware_alarm_set_callback>:
10000cec:	b570      	push	{r4, r5, r6, lr}
10000cee:	0004      	movs	r4, r0
10000cf0:	000d      	movs	r5, r1
10000cf2:	f3ef 8610 	mrs	r6, PRIMASK
10000cf6:	b672      	cpsid	i
10000cf8:	4a1a      	ldr	r2, [pc, #104]	; (10000d64 <hardware_alarm_set_callback+0x78>)
10000cfa:	6813      	ldr	r3, [r2, #0]
10000cfc:	2b00      	cmp	r3, #0
10000cfe:	d0fc      	beq.n	10000cfa <hardware_alarm_set_callback+0xe>
10000d00:	f3bf 8f5f 	dmb	sy
10000d04:	2d00      	cmp	r5, #0
10000d06:	d01b      	beq.n	10000d40 <hardware_alarm_set_callback+0x54>
10000d08:	0020      	movs	r0, r4
10000d0a:	f000 fd4f 	bl	100017ac <irq_get_vtable_handler>
10000d0e:	4916      	ldr	r1, [pc, #88]	; (10000d68 <hardware_alarm_set_callback+0x7c>)
10000d10:	4281      	cmp	r1, r0
10000d12:	d00a      	beq.n	10000d2a <hardware_alarm_set_callback+0x3e>
10000d14:	0020      	movs	r0, r4
10000d16:	f000 fd51 	bl	100017bc <irq_set_exclusive_handler>
10000d1a:	2101      	movs	r1, #1
10000d1c:	0020      	movs	r0, r4
10000d1e:	f000 fd33 	bl	10001788 <irq_set_enabled>
10000d22:	2301      	movs	r3, #1
10000d24:	40a3      	lsls	r3, r4
10000d26:	4a11      	ldr	r2, [pc, #68]	; (10000d6c <hardware_alarm_set_callback+0x80>)
10000d28:	6013      	str	r3, [r2, #0]
10000d2a:	4b11      	ldr	r3, [pc, #68]	; (10000d70 <hardware_alarm_set_callback+0x84>)
10000d2c:	00a4      	lsls	r4, r4, #2
10000d2e:	50e5      	str	r5, [r4, r3]
10000d30:	f3bf 8f5f 	dmb	sy
10000d34:	2200      	movs	r2, #0
10000d36:	4b0b      	ldr	r3, [pc, #44]	; (10000d64 <hardware_alarm_set_callback+0x78>)
10000d38:	601a      	str	r2, [r3, #0]
10000d3a:	f386 8810 	msr	PRIMASK, r6
10000d3e:	bd70      	pop	{r4, r5, r6, pc}
10000d40:	4b0b      	ldr	r3, [pc, #44]	; (10000d70 <hardware_alarm_set_callback+0x84>)
10000d42:	00a2      	lsls	r2, r4, #2
10000d44:	50d5      	str	r5, [r2, r3]
10000d46:	2201      	movs	r2, #1
10000d48:	40a2      	lsls	r2, r4
10000d4a:	490a      	ldr	r1, [pc, #40]	; (10000d74 <hardware_alarm_set_callback+0x88>)
10000d4c:	0020      	movs	r0, r4
10000d4e:	780b      	ldrb	r3, [r1, #0]
10000d50:	4393      	bics	r3, r2
10000d52:	700b      	strb	r3, [r1, #0]
10000d54:	4904      	ldr	r1, [pc, #16]	; (10000d68 <hardware_alarm_set_callback+0x7c>)
10000d56:	f000 fd5b 	bl	10001810 <irq_remove_handler>
10000d5a:	2100      	movs	r1, #0
10000d5c:	0020      	movs	r0, r4
10000d5e:	f000 fd13 	bl	10001788 <irq_set_enabled>
10000d62:	e7e5      	b.n	10000d30 <hardware_alarm_set_callback+0x44>
10000d64:	d0000128 	.word	0xd0000128
10000d68:	10000be9 	.word	0x10000be9
10000d6c:	40056038 	.word	0x40056038
10000d70:	20000abc 	.word	0x20000abc
10000d74:	20000b2a 	.word	0x20000b2a

10000d78 <hardware_alarm_set_target>:
10000d78:	b5f0      	push	{r4, r5, r6, r7, lr}
10000d7a:	46ce      	mov	lr, r9
10000d7c:	4647      	mov	r7, r8
10000d7e:	b580      	push	{r7, lr}
10000d80:	4c2a      	ldr	r4, [pc, #168]	; (10000e2c <hardware_alarm_set_target+0xb4>)
10000d82:	6a61      	ldr	r1, [r4, #36]	; 0x24
10000d84:	000d      	movs	r5, r1
10000d86:	6aa6      	ldr	r6, [r4, #40]	; 0x28
10000d88:	6a61      	ldr	r1, [r4, #36]	; 0x24
10000d8a:	42a9      	cmp	r1, r5
10000d8c:	d1fa      	bne.n	10000d84 <hardware_alarm_set_target+0xc>
10000d8e:	428b      	cmp	r3, r1
10000d90:	d807      	bhi.n	10000da2 <hardware_alarm_set_target+0x2a>
10000d92:	d004      	beq.n	10000d9e <hardware_alarm_set_target+0x26>
10000d94:	2001      	movs	r0, #1
10000d96:	bc0c      	pop	{r2, r3}
10000d98:	4690      	mov	r8, r2
10000d9a:	4699      	mov	r9, r3
10000d9c:	bdf0      	pop	{r4, r5, r6, r7, pc}
10000d9e:	42b2      	cmp	r2, r6
10000da0:	d9f8      	bls.n	10000d94 <hardware_alarm_set_target+0x1c>
10000da2:	f3ef 8810 	mrs	r8, PRIMASK
10000da6:	b672      	cpsid	i
10000da8:	4c21      	ldr	r4, [pc, #132]	; (10000e30 <hardware_alarm_set_target+0xb8>)
10000daa:	6821      	ldr	r1, [r4, #0]
10000dac:	2900      	cmp	r1, #0
10000dae:	d0fc      	beq.n	10000daa <hardware_alarm_set_target+0x32>
10000db0:	f3bf 8f5f 	dmb	sy
10000db4:	2501      	movs	r5, #1
10000db6:	4085      	lsls	r5, r0
10000db8:	4c1c      	ldr	r4, [pc, #112]	; (10000e2c <hardware_alarm_set_target+0xb4>)
10000dba:	4e1e      	ldr	r6, [pc, #120]	; (10000e34 <hardware_alarm_set_target+0xbc>)
10000dbc:	6365      	str	r5, [r4, #52]	; 0x34
10000dbe:	b2e9      	uxtb	r1, r5
10000dc0:	468c      	mov	ip, r1
10000dc2:	7831      	ldrb	r1, [r6, #0]
10000dc4:	4689      	mov	r9, r1
10000dc6:	4661      	mov	r1, ip
10000dc8:	464f      	mov	r7, r9
10000dca:	4339      	orrs	r1, r7
10000dcc:	7031      	strb	r1, [r6, #0]
10000dce:	1d01      	adds	r1, r0, #4
10000dd0:	0089      	lsls	r1, r1, #2
10000dd2:	510a      	str	r2, [r1, r4]
10000dd4:	4918      	ldr	r1, [pc, #96]	; (10000e38 <hardware_alarm_set_target+0xc0>)
10000dd6:	0080      	lsls	r0, r0, #2
10000dd8:	5043      	str	r3, [r0, r1]
10000dda:	6a21      	ldr	r1, [r4, #32]
10000ddc:	2000      	movs	r0, #0
10000dde:	4229      	tst	r1, r5
10000de0:	d00c      	beq.n	10000dfc <hardware_alarm_set_target+0x84>
10000de2:	0020      	movs	r0, r4
10000de4:	6a61      	ldr	r1, [r4, #36]	; 0x24
10000de6:	000c      	movs	r4, r1
10000de8:	6a87      	ldr	r7, [r0, #40]	; 0x28
10000dea:	6a41      	ldr	r1, [r0, #36]	; 0x24
10000dec:	42a1      	cmp	r1, r4
10000dee:	d1fa      	bne.n	10000de6 <hardware_alarm_set_target+0x6e>
10000df0:	428b      	cmp	r3, r1
10000df2:	d802      	bhi.n	10000dfa <hardware_alarm_set_target+0x82>
10000df4:	d10a      	bne.n	10000e0c <hardware_alarm_set_target+0x94>
10000df6:	42ba      	cmp	r2, r7
10000df8:	d908      	bls.n	10000e0c <hardware_alarm_set_target+0x94>
10000dfa:	2000      	movs	r0, #0
10000dfc:	f3bf 8f5f 	dmb	sy
10000e00:	2200      	movs	r2, #0
10000e02:	4b0b      	ldr	r3, [pc, #44]	; (10000e30 <hardware_alarm_set_target+0xb8>)
10000e04:	601a      	str	r2, [r3, #0]
10000e06:	f388 8810 	msr	PRIMASK, r8
10000e0a:	e7c4      	b.n	10000d96 <hardware_alarm_set_target+0x1e>
10000e0c:	4b07      	ldr	r3, [pc, #28]	; (10000e2c <hardware_alarm_set_target+0xb4>)
10000e0e:	464f      	mov	r7, r9
10000e10:	621d      	str	r5, [r3, #32]
10000e12:	635d      	str	r5, [r3, #52]	; 0x34
10000e14:	4663      	mov	r3, ip
10000e16:	439f      	bics	r7, r3
10000e18:	2001      	movs	r0, #1
10000e1a:	7037      	strb	r7, [r6, #0]
10000e1c:	f3bf 8f5f 	dmb	sy
10000e20:	2200      	movs	r2, #0
10000e22:	4b03      	ldr	r3, [pc, #12]	; (10000e30 <hardware_alarm_set_target+0xb8>)
10000e24:	601a      	str	r2, [r3, #0]
10000e26:	f388 8810 	msr	PRIMASK, r8
10000e2a:	e7b4      	b.n	10000d96 <hardware_alarm_set_target+0x1e>
10000e2c:	40054000 	.word	0x40054000
10000e30:	d0000128 	.word	0xd0000128
10000e34:	20000b2a 	.word	0x20000b2a
10000e38:	20000b18 	.word	0x20000b18

10000e3c <hardware_alarm_cancel>:
10000e3c:	b510      	push	{r4, lr}
10000e3e:	f3ef 8410 	mrs	r4, PRIMASK
10000e42:	b672      	cpsid	i
10000e44:	490a      	ldr	r1, [pc, #40]	; (10000e70 <hardware_alarm_cancel+0x34>)
10000e46:	680b      	ldr	r3, [r1, #0]
10000e48:	2b00      	cmp	r3, #0
10000e4a:	d0fc      	beq.n	10000e46 <hardware_alarm_cancel+0xa>
10000e4c:	f3bf 8f5f 	dmb	sy
10000e50:	2301      	movs	r3, #1
10000e52:	4083      	lsls	r3, r0
10000e54:	4a07      	ldr	r2, [pc, #28]	; (10000e74 <hardware_alarm_cancel+0x38>)
10000e56:	4808      	ldr	r0, [pc, #32]	; (10000e78 <hardware_alarm_cancel+0x3c>)
10000e58:	6213      	str	r3, [r2, #32]
10000e5a:	7802      	ldrb	r2, [r0, #0]
10000e5c:	439a      	bics	r2, r3
10000e5e:	7002      	strb	r2, [r0, #0]
10000e60:	f3bf 8f5f 	dmb	sy
10000e64:	2300      	movs	r3, #0
10000e66:	600b      	str	r3, [r1, #0]
10000e68:	f384 8810 	msr	PRIMASK, r4
10000e6c:	bd10      	pop	{r4, pc}
10000e6e:	46c0      	nop			; (mov r8, r8)
10000e70:	d0000128 	.word	0xd0000128
10000e74:	40054000 	.word	0x40054000
10000e78:	20000b2a 	.word	0x20000b2a

10000e7c <lock_init>:
10000e7c:	4b02      	ldr	r3, [pc, #8]	; (10000e88 <lock_init+0xc>)
10000e7e:	469c      	mov	ip, r3
10000e80:	4461      	add	r1, ip
10000e82:	0089      	lsls	r1, r1, #2
10000e84:	6001      	str	r1, [r0, #0]
10000e86:	4770      	bx	lr
10000e88:	34000040 	.word	0x34000040

10000e8c <mutex_init>:
10000e8c:	b510      	push	{r4, lr}
10000e8e:	0004      	movs	r4, r0
10000e90:	f7ff fb62 	bl	10000558 <next_striped_spin_lock_num>
10000e94:	0001      	movs	r1, r0
10000e96:	0020      	movs	r0, r4
10000e98:	f7ff fff0 	bl	10000e7c <lock_init>
10000e9c:	f3bf 8f5f 	dmb	sy
10000ea0:	bd10      	pop	{r4, pc}
10000ea2:	46c0      	nop			; (mov r8, r8)

10000ea4 <ph_merge_nodes>:
10000ea4:	b570      	push	{r4, r5, r6, lr}
10000ea6:	0005      	movs	r5, r0
10000ea8:	000e      	movs	r6, r1
10000eaa:	0014      	movs	r4, r2
10000eac:	2900      	cmp	r1, #0
10000eae:	d024      	beq.n	10000efa <ph_merge_nodes+0x56>
10000eb0:	2a00      	cmp	r2, #0
10000eb2:	d024      	beq.n	10000efe <ph_merge_nodes+0x5a>
10000eb4:	6880      	ldr	r0, [r0, #8]
10000eb6:	686b      	ldr	r3, [r5, #4]
10000eb8:	4798      	blx	r3
10000eba:	6829      	ldr	r1, [r5, #0]
10000ebc:	2800      	cmp	r0, #0
10000ebe:	d00e      	beq.n	10000ede <ph_merge_nodes+0x3a>
10000ec0:	0063      	lsls	r3, r4, #1
10000ec2:	191b      	adds	r3, r3, r4
10000ec4:	0072      	lsls	r2, r6, #1
10000ec6:	3b03      	subs	r3, #3
10000ec8:	1992      	adds	r2, r2, r6
10000eca:	18cb      	adds	r3, r1, r3
10000ecc:	3a03      	subs	r2, #3
10000ece:	709e      	strb	r6, [r3, #2]
10000ed0:	1888      	adds	r0, r1, r2
10000ed2:	5c8a      	ldrb	r2, [r1, r2]
10000ed4:	2a00      	cmp	r2, #0
10000ed6:	d114      	bne.n	10000f02 <ph_merge_nodes+0x5e>
10000ed8:	7004      	strb	r4, [r0, #0]
10000eda:	0030      	movs	r0, r6
10000edc:	e00e      	b.n	10000efc <ph_merge_nodes+0x58>
10000ede:	0073      	lsls	r3, r6, #1
10000ee0:	199b      	adds	r3, r3, r6
10000ee2:	0062      	lsls	r2, r4, #1
10000ee4:	3b03      	subs	r3, #3
10000ee6:	1912      	adds	r2, r2, r4
10000ee8:	18cb      	adds	r3, r1, r3
10000eea:	3a03      	subs	r2, #3
10000eec:	709c      	strb	r4, [r3, #2]
10000eee:	1888      	adds	r0, r1, r2
10000ef0:	5c8a      	ldrb	r2, [r1, r2]
10000ef2:	2a00      	cmp	r2, #0
10000ef4:	d000      	beq.n	10000ef8 <ph_merge_nodes+0x54>
10000ef6:	705a      	strb	r2, [r3, #1]
10000ef8:	7006      	strb	r6, [r0, #0]
10000efa:	0020      	movs	r0, r4
10000efc:	bd70      	pop	{r4, r5, r6, pc}
10000efe:	0008      	movs	r0, r1
10000f00:	e7fc      	b.n	10000efc <ph_merge_nodes+0x58>
10000f02:	705a      	strb	r2, [r3, #1]
10000f04:	7004      	strb	r4, [r0, #0]
10000f06:	0030      	movs	r0, r6
10000f08:	e7f8      	b.n	10000efc <ph_merge_nodes+0x58>
10000f0a:	46c0      	nop			; (mov r8, r8)

10000f0c <ph_create>:
10000f0c:	b5f0      	push	{r4, r5, r6, r7, lr}
10000f0e:	46c6      	mov	lr, r8
10000f10:	0005      	movs	r5, r0
10000f12:	000f      	movs	r7, r1
10000f14:	b500      	push	{lr}
10000f16:	2110      	movs	r1, #16
10000f18:	2001      	movs	r0, #1
10000f1a:	0016      	movs	r6, r2
10000f1c:	f003 f81a 	bl	10003f54 <__wrap_calloc>
10000f20:	b2eb      	uxtb	r3, r5
10000f22:	0004      	movs	r4, r0
10000f24:	7303      	strb	r3, [r0, #12]
10000f26:	2103      	movs	r1, #3
10000f28:	6047      	str	r7, [r0, #4]
10000f2a:	0028      	movs	r0, r5
10000f2c:	4698      	mov	r8, r3
10000f2e:	f003 f811 	bl	10003f54 <__wrap_calloc>
10000f32:	2300      	movs	r3, #0
10000f34:	7363      	strb	r3, [r4, #13]
10000f36:	3301      	adds	r3, #1
10000f38:	73a3      	strb	r3, [r4, #14]
10000f3a:	4643      	mov	r3, r8
10000f3c:	21ff      	movs	r1, #255	; 0xff
10000f3e:	73e3      	strb	r3, [r4, #15]
10000f40:	23fe      	movs	r3, #254	; 0xfe
10000f42:	6020      	str	r0, [r4, #0]
10000f44:	60a6      	str	r6, [r4, #8]
10000f46:	4029      	ands	r1, r5
10000f48:	422b      	tst	r3, r5
10000f4a:	d006      	beq.n	10000f5a <ph_create+0x4e>
10000f4c:	1c42      	adds	r2, r0, #1
10000f4e:	3bfd      	subs	r3, #253	; 0xfd
10000f50:	3301      	adds	r3, #1
10000f52:	7013      	strb	r3, [r2, #0]
10000f54:	3203      	adds	r2, #3
10000f56:	428b      	cmp	r3, r1
10000f58:	d3fa      	bcc.n	10000f50 <ph_create+0x44>
10000f5a:	004b      	lsls	r3, r1, #1
10000f5c:	1859      	adds	r1, r3, r1
10000f5e:	2300      	movs	r3, #0
10000f60:	1840      	adds	r0, r0, r1
10000f62:	3803      	subs	r0, #3
10000f64:	7043      	strb	r3, [r0, #1]
10000f66:	0020      	movs	r0, r4
10000f68:	bc04      	pop	{r2}
10000f6a:	4690      	mov	r8, r2
10000f6c:	bdf0      	pop	{r4, r5, r6, r7, pc}
10000f6e:	46c0      	nop			; (mov r8, r8)

10000f70 <ph_merge_two_pass>:
10000f70:	b5f8      	push	{r3, r4, r5, r6, r7, lr}
10000f72:	46ce      	mov	lr, r9
10000f74:	4647      	mov	r7, r8
10000f76:	0006      	movs	r6, r0
10000f78:	000c      	movs	r4, r1
10000f7a:	b580      	push	{r7, lr}
10000f7c:	2900      	cmp	r1, #0
10000f7e:	d007      	beq.n	10000f90 <ph_merge_two_pass+0x20>
10000f80:	004d      	lsls	r5, r1, #1
10000f82:	6803      	ldr	r3, [r0, #0]
10000f84:	186d      	adds	r5, r5, r1
10000f86:	3d03      	subs	r5, #3
10000f88:	195a      	adds	r2, r3, r5
10000f8a:	7857      	ldrb	r7, [r2, #1]
10000f8c:	2f00      	cmp	r7, #0
10000f8e:	d104      	bne.n	10000f9a <ph_merge_two_pass+0x2a>
10000f90:	0020      	movs	r0, r4
10000f92:	bc0c      	pop	{r2, r3}
10000f94:	4690      	mov	r8, r2
10000f96:	4699      	mov	r9, r3
10000f98:	bdf8      	pop	{r3, r4, r5, r6, r7, pc}
10000f9a:	0079      	lsls	r1, r7, #1
10000f9c:	19c9      	adds	r1, r1, r7
10000f9e:	3903      	subs	r1, #3
10000fa0:	4688      	mov	r8, r1
10000fa2:	4443      	add	r3, r8
10000fa4:	7859      	ldrb	r1, [r3, #1]
10000fa6:	4689      	mov	r9, r1
10000fa8:	2100      	movs	r1, #0
10000faa:	7059      	strb	r1, [r3, #1]
10000fac:	7051      	strb	r1, [r2, #1]
10000fae:	6873      	ldr	r3, [r6, #4]
10000fb0:	003a      	movs	r2, r7
10000fb2:	0021      	movs	r1, r4
10000fb4:	6880      	ldr	r0, [r0, #8]
10000fb6:	4798      	blx	r3
10000fb8:	6833      	ldr	r3, [r6, #0]
10000fba:	2800      	cmp	r0, #0
10000fbc:	d014      	beq.n	10000fe8 <ph_merge_two_pass+0x78>
10000fbe:	4642      	mov	r2, r8
10000fc0:	189a      	adds	r2, r3, r2
10000fc2:	7094      	strb	r4, [r2, #2]
10000fc4:	1959      	adds	r1, r3, r5
10000fc6:	5d5b      	ldrb	r3, [r3, r5]
10000fc8:	2b00      	cmp	r3, #0
10000fca:	d000      	beq.n	10000fce <ph_merge_two_pass+0x5e>
10000fcc:	7053      	strb	r3, [r2, #1]
10000fce:	700f      	strb	r7, [r1, #0]
10000fd0:	0027      	movs	r7, r4
10000fd2:	4649      	mov	r1, r9
10000fd4:	0030      	movs	r0, r6
10000fd6:	f7ff ffcb 	bl	10000f70 <ph_merge_two_pass>
10000fda:	0039      	movs	r1, r7
10000fdc:	0002      	movs	r2, r0
10000fde:	0030      	movs	r0, r6
10000fe0:	f7ff ff60 	bl	10000ea4 <ph_merge_nodes>
10000fe4:	0004      	movs	r4, r0
10000fe6:	e7d3      	b.n	10000f90 <ph_merge_two_pass+0x20>
10000fe8:	4642      	mov	r2, r8
10000fea:	4641      	mov	r1, r8
10000fec:	195d      	adds	r5, r3, r5
10000fee:	70af      	strb	r7, [r5, #2]
10000ff0:	189a      	adds	r2, r3, r2
10000ff2:	5c5b      	ldrb	r3, [r3, r1]
10000ff4:	2b00      	cmp	r3, #0
10000ff6:	d000      	beq.n	10000ffa <ph_merge_two_pass+0x8a>
10000ff8:	706b      	strb	r3, [r5, #1]
10000ffa:	7014      	strb	r4, [r2, #0]
10000ffc:	e7e9      	b.n	10000fd2 <ph_merge_two_pass+0x62>
10000ffe:	46c0      	nop			; (mov r8, r8)

10001000 <ph_remove_any_head>:
10001000:	b5f0      	push	{r4, r5, r6, r7, lr}
10001002:	4657      	mov	r7, sl
10001004:	4645      	mov	r5, r8
10001006:	46de      	mov	lr, fp
10001008:	464e      	mov	r6, r9
1000100a:	b5e0      	push	{r5, r6, r7, lr}
1000100c:	000d      	movs	r5, r1
1000100e:	006b      	lsls	r3, r5, #1
10001010:	6801      	ldr	r1, [r0, #0]
10001012:	195b      	adds	r3, r3, r5
10001014:	1edf      	subs	r7, r3, #3
10001016:	0004      	movs	r4, r0
10001018:	5dc8      	ldrb	r0, [r1, r7]
1000101a:	b083      	sub	sp, #12
1000101c:	9201      	str	r2, [sp, #4]
1000101e:	19ca      	adds	r2, r1, r7
10001020:	2800      	cmp	r0, #0
10001022:	d04c      	beq.n	100010be <ph_remove_any_head+0xbe>
10001024:	0043      	lsls	r3, r0, #1
10001026:	181b      	adds	r3, r3, r0
10001028:	3b03      	subs	r3, #3
1000102a:	18cb      	adds	r3, r1, r3
1000102c:	785e      	ldrb	r6, [r3, #1]
1000102e:	46b4      	mov	ip, r6
10001030:	2e00      	cmp	r6, #0
10001032:	d116      	bne.n	10001062 <ph_remove_any_head+0x62>
10001034:	9e01      	ldr	r6, [sp, #4]
10001036:	2e00      	cmp	r6, #0
10001038:	d13e      	bne.n	100010b8 <ph_remove_any_head+0xb8>
1000103a:	7be6      	ldrb	r6, [r4, #15]
1000103c:	2e00      	cmp	r6, #0
1000103e:	d004      	beq.n	1000104a <ph_remove_any_head+0x4a>
10001040:	0073      	lsls	r3, r6, #1
10001042:	199b      	adds	r3, r3, r6
10001044:	18cb      	adds	r3, r1, r3
10001046:	3b03      	subs	r3, #3
10001048:	705d      	strb	r5, [r3, #1]
1000104a:	73e5      	strb	r5, [r4, #15]
1000104c:	2800      	cmp	r0, #0
1000104e:	d12f      	bne.n	100010b0 <ph_remove_any_head+0xb0>
10001050:	2300      	movs	r3, #0
10001052:	7053      	strb	r3, [r2, #1]
10001054:	b003      	add	sp, #12
10001056:	bc3c      	pop	{r2, r3, r4, r5}
10001058:	4690      	mov	r8, r2
1000105a:	4699      	mov	r9, r3
1000105c:	46a2      	mov	sl, r4
1000105e:	46ab      	mov	fp, r5
10001060:	bdf0      	pop	{r4, r5, r6, r7, pc}
10001062:	0072      	lsls	r2, r6, #1
10001064:	4462      	add	r2, ip
10001066:	3a03      	subs	r2, #3
10001068:	1889      	adds	r1, r1, r2
1000106a:	784a      	ldrb	r2, [r1, #1]
1000106c:	4690      	mov	r8, r2
1000106e:	2200      	movs	r2, #0
10001070:	704a      	strb	r2, [r1, #1]
10001072:	4691      	mov	r9, r2
10001074:	705a      	strb	r2, [r3, #1]
10001076:	0001      	movs	r1, r0
10001078:	0032      	movs	r2, r6
1000107a:	0020      	movs	r0, r4
1000107c:	f7ff ff12 	bl	10000ea4 <ph_merge_nodes>
10001080:	4643      	mov	r3, r8
10001082:	4682      	mov	sl, r0
10001084:	2b00      	cmp	r3, #0
10001086:	d007      	beq.n	10001098 <ph_remove_any_head+0x98>
10001088:	005b      	lsls	r3, r3, #1
1000108a:	6821      	ldr	r1, [r4, #0]
1000108c:	4443      	add	r3, r8
1000108e:	3b03      	subs	r3, #3
10001090:	18cb      	adds	r3, r1, r3
10001092:	785a      	ldrb	r2, [r3, #1]
10001094:	2a00      	cmp	r2, #0
10001096:	d116      	bne.n	100010c6 <ph_remove_any_head+0xc6>
10001098:	4642      	mov	r2, r8
1000109a:	4651      	mov	r1, sl
1000109c:	0020      	movs	r0, r4
1000109e:	f7ff ff01 	bl	10000ea4 <ph_merge_nodes>
100010a2:	6821      	ldr	r1, [r4, #0]
100010a4:	9b01      	ldr	r3, [sp, #4]
100010a6:	19ca      	adds	r2, r1, r7
100010a8:	2b00      	cmp	r3, #0
100010aa:	d0c6      	beq.n	1000103a <ph_remove_any_head+0x3a>
100010ac:	2800      	cmp	r0, #0
100010ae:	d0cf      	beq.n	10001050 <ph_remove_any_head+0x50>
100010b0:	0043      	lsls	r3, r0, #1
100010b2:	181b      	adds	r3, r3, r0
100010b4:	3b03      	subs	r3, #3
100010b6:	18cb      	adds	r3, r1, r3
100010b8:	2100      	movs	r1, #0
100010ba:	7099      	strb	r1, [r3, #2]
100010bc:	e7c8      	b.n	10001050 <ph_remove_any_head+0x50>
100010be:	9b01      	ldr	r3, [sp, #4]
100010c0:	2b00      	cmp	r3, #0
100010c2:	d1c5      	bne.n	10001050 <ph_remove_any_head+0x50>
100010c4:	e7b9      	b.n	1000103a <ph_remove_any_head+0x3a>
100010c6:	0050      	lsls	r0, r2, #1
100010c8:	1880      	adds	r0, r0, r2
100010ca:	3803      	subs	r0, #3
100010cc:	1809      	adds	r1, r1, r0
100010ce:	7848      	ldrb	r0, [r1, #1]
100010d0:	4683      	mov	fp, r0
100010d2:	4648      	mov	r0, r9
100010d4:	7048      	strb	r0, [r1, #1]
100010d6:	7058      	strb	r0, [r3, #1]
100010d8:	4641      	mov	r1, r8
100010da:	0020      	movs	r0, r4
100010dc:	f7ff fee2 	bl	10000ea4 <ph_merge_nodes>
100010e0:	4659      	mov	r1, fp
100010e2:	4680      	mov	r8, r0
100010e4:	0020      	movs	r0, r4
100010e6:	f7ff ff43 	bl	10000f70 <ph_merge_two_pass>
100010ea:	4641      	mov	r1, r8
100010ec:	0002      	movs	r2, r0
100010ee:	0020      	movs	r0, r4
100010f0:	f7ff fed8 	bl	10000ea4 <ph_merge_nodes>
100010f4:	4680      	mov	r8, r0
100010f6:	e7cf      	b.n	10001098 <ph_remove_any_head+0x98>

100010f8 <ph_remove_head_reserve>:
100010f8:	b5f0      	push	{r4, r5, r6, r7, lr}
100010fa:	464e      	mov	r6, r9
100010fc:	4645      	mov	r5, r8
100010fe:	46de      	mov	lr, fp
10001100:	4657      	mov	r7, sl
10001102:	b5e0      	push	{r5, r6, r7, lr}
10001104:	7b46      	ldrb	r6, [r0, #13]
10001106:	0004      	movs	r4, r0
10001108:	0075      	lsls	r5, r6, #1
1000110a:	6800      	ldr	r0, [r0, #0]
1000110c:	19ad      	adds	r5, r5, r6
1000110e:	3d03      	subs	r5, #3
10001110:	b083      	sub	sp, #12
10001112:	9101      	str	r1, [sp, #4]
10001114:	5d41      	ldrb	r1, [r0, r5]
10001116:	1942      	adds	r2, r0, r5
10001118:	2900      	cmp	r1, #0
1000111a:	d04e      	beq.n	100011ba <ph_remove_head_reserve+0xc2>
1000111c:	004b      	lsls	r3, r1, #1
1000111e:	185b      	adds	r3, r3, r1
10001120:	3b03      	subs	r3, #3
10001122:	18c3      	adds	r3, r0, r3
10001124:	785f      	ldrb	r7, [r3, #1]
10001126:	46bc      	mov	ip, r7
10001128:	2f00      	cmp	r7, #0
1000112a:	d118      	bne.n	1000115e <ph_remove_head_reserve+0x66>
1000112c:	9d01      	ldr	r5, [sp, #4]
1000112e:	2d00      	cmp	r5, #0
10001130:	d140      	bne.n	100011b4 <ph_remove_head_reserve+0xbc>
10001132:	7be5      	ldrb	r5, [r4, #15]
10001134:	2d00      	cmp	r5, #0
10001136:	d004      	beq.n	10001142 <ph_remove_head_reserve+0x4a>
10001138:	006b      	lsls	r3, r5, #1
1000113a:	195b      	adds	r3, r3, r5
1000113c:	18c3      	adds	r3, r0, r3
1000113e:	3b03      	subs	r3, #3
10001140:	705e      	strb	r6, [r3, #1]
10001142:	73e6      	strb	r6, [r4, #15]
10001144:	2900      	cmp	r1, #0
10001146:	d131      	bne.n	100011ac <ph_remove_head_reserve+0xb4>
10001148:	2300      	movs	r3, #0
1000114a:	0030      	movs	r0, r6
1000114c:	7053      	strb	r3, [r2, #1]
1000114e:	7361      	strb	r1, [r4, #13]
10001150:	b003      	add	sp, #12
10001152:	bc3c      	pop	{r2, r3, r4, r5}
10001154:	4690      	mov	r8, r2
10001156:	4699      	mov	r9, r3
10001158:	46a2      	mov	sl, r4
1000115a:	46ab      	mov	fp, r5
1000115c:	bdf0      	pop	{r4, r5, r6, r7, pc}
1000115e:	007a      	lsls	r2, r7, #1
10001160:	4462      	add	r2, ip
10001162:	3a03      	subs	r2, #3
10001164:	1880      	adds	r0, r0, r2
10001166:	7842      	ldrb	r2, [r0, #1]
10001168:	4693      	mov	fp, r2
1000116a:	2200      	movs	r2, #0
1000116c:	7042      	strb	r2, [r0, #1]
1000116e:	4691      	mov	r9, r2
10001170:	705a      	strb	r2, [r3, #1]
10001172:	0020      	movs	r0, r4
10001174:	003a      	movs	r2, r7
10001176:	f7ff fe95 	bl	10000ea4 <ph_merge_nodes>
1000117a:	465b      	mov	r3, fp
1000117c:	4680      	mov	r8, r0
1000117e:	2b00      	cmp	r3, #0
10001180:	d007      	beq.n	10001192 <ph_remove_head_reserve+0x9a>
10001182:	005b      	lsls	r3, r3, #1
10001184:	6821      	ldr	r1, [r4, #0]
10001186:	445b      	add	r3, fp
10001188:	3b03      	subs	r3, #3
1000118a:	18cb      	adds	r3, r1, r3
1000118c:	785a      	ldrb	r2, [r3, #1]
1000118e:	2a00      	cmp	r2, #0
10001190:	d117      	bne.n	100011c2 <ph_remove_head_reserve+0xca>
10001192:	465a      	mov	r2, fp
10001194:	4641      	mov	r1, r8
10001196:	0020      	movs	r0, r4
10001198:	f7ff fe84 	bl	10000ea4 <ph_merge_nodes>
1000119c:	9b01      	ldr	r3, [sp, #4]
1000119e:	0001      	movs	r1, r0
100011a0:	6820      	ldr	r0, [r4, #0]
100011a2:	1942      	adds	r2, r0, r5
100011a4:	2b00      	cmp	r3, #0
100011a6:	d0c4      	beq.n	10001132 <ph_remove_head_reserve+0x3a>
100011a8:	2900      	cmp	r1, #0
100011aa:	d0cd      	beq.n	10001148 <ph_remove_head_reserve+0x50>
100011ac:	004b      	lsls	r3, r1, #1
100011ae:	185b      	adds	r3, r3, r1
100011b0:	3b03      	subs	r3, #3
100011b2:	18c3      	adds	r3, r0, r3
100011b4:	2000      	movs	r0, #0
100011b6:	7098      	strb	r0, [r3, #2]
100011b8:	e7c6      	b.n	10001148 <ph_remove_head_reserve+0x50>
100011ba:	9b01      	ldr	r3, [sp, #4]
100011bc:	2b00      	cmp	r3, #0
100011be:	d1c3      	bne.n	10001148 <ph_remove_head_reserve+0x50>
100011c0:	e7b7      	b.n	10001132 <ph_remove_head_reserve+0x3a>
100011c2:	0050      	lsls	r0, r2, #1
100011c4:	1880      	adds	r0, r0, r2
100011c6:	3803      	subs	r0, #3
100011c8:	1809      	adds	r1, r1, r0
100011ca:	7848      	ldrb	r0, [r1, #1]
100011cc:	4682      	mov	sl, r0
100011ce:	4648      	mov	r0, r9
100011d0:	7048      	strb	r0, [r1, #1]
100011d2:	7058      	strb	r0, [r3, #1]
100011d4:	4659      	mov	r1, fp
100011d6:	0020      	movs	r0, r4
100011d8:	f7ff fe64 	bl	10000ea4 <ph_merge_nodes>
100011dc:	4653      	mov	r3, sl
100011de:	4683      	mov	fp, r0
100011e0:	2b00      	cmp	r3, #0
100011e2:	d007      	beq.n	100011f4 <ph_remove_head_reserve+0xfc>
100011e4:	005b      	lsls	r3, r3, #1
100011e6:	6821      	ldr	r1, [r4, #0]
100011e8:	4453      	add	r3, sl
100011ea:	3b03      	subs	r3, #3
100011ec:	18cb      	adds	r3, r1, r3
100011ee:	785a      	ldrb	r2, [r3, #1]
100011f0:	2a00      	cmp	r2, #0
100011f2:	d106      	bne.n	10001202 <ph_remove_head_reserve+0x10a>
100011f4:	4659      	mov	r1, fp
100011f6:	4652      	mov	r2, sl
100011f8:	0020      	movs	r0, r4
100011fa:	f7ff fe53 	bl	10000ea4 <ph_merge_nodes>
100011fe:	4683      	mov	fp, r0
10001200:	e7c7      	b.n	10001192 <ph_remove_head_reserve+0x9a>
10001202:	0050      	lsls	r0, r2, #1
10001204:	1880      	adds	r0, r0, r2
10001206:	3803      	subs	r0, #3
10001208:	1809      	adds	r1, r1, r0
1000120a:	4648      	mov	r0, r9
1000120c:	784f      	ldrb	r7, [r1, #1]
1000120e:	7048      	strb	r0, [r1, #1]
10001210:	7058      	strb	r0, [r3, #1]
10001212:	4651      	mov	r1, sl
10001214:	0020      	movs	r0, r4
10001216:	f7ff fe45 	bl	10000ea4 <ph_merge_nodes>
1000121a:	0039      	movs	r1, r7
1000121c:	4681      	mov	r9, r0
1000121e:	0020      	movs	r0, r4
10001220:	f7ff fea6 	bl	10000f70 <ph_merge_two_pass>
10001224:	4649      	mov	r1, r9
10001226:	0002      	movs	r2, r0
10001228:	0020      	movs	r0, r4
1000122a:	f7ff fe3b 	bl	10000ea4 <ph_merge_nodes>
1000122e:	4682      	mov	sl, r0
10001230:	e7e0      	b.n	100011f4 <ph_remove_head_reserve+0xfc>
10001232:	46c0      	nop			; (mov r8, r8)

10001234 <ph_delete>:
10001234:	b570      	push	{r4, r5, r6, lr}
10001236:	0004      	movs	r4, r0
10001238:	2900      	cmp	r1, #0
1000123a:	d02c      	beq.n	10001296 <ph_delete+0x62>
1000123c:	7b43      	ldrb	r3, [r0, #13]
1000123e:	428b      	cmp	r3, r1
10001240:	d02e      	beq.n	100012a0 <ph_delete+0x6c>
10001242:	6805      	ldr	r5, [r0, #0]
10001244:	0048      	lsls	r0, r1, #1
10001246:	1840      	adds	r0, r0, r1
10001248:	3803      	subs	r0, #3
1000124a:	1828      	adds	r0, r5, r0
1000124c:	7882      	ldrb	r2, [r0, #2]
1000124e:	2a00      	cmp	r2, #0
10001250:	d021      	beq.n	10001296 <ph_delete+0x62>
10001252:	0053      	lsls	r3, r2, #1
10001254:	189b      	adds	r3, r3, r2
10001256:	3b03      	subs	r3, #3
10001258:	5cea      	ldrb	r2, [r5, r3]
1000125a:	18ee      	adds	r6, r5, r3
1000125c:	428a      	cmp	r2, r1
1000125e:	d102      	bne.n	10001266 <ph_delete+0x32>
10001260:	e01b      	b.n	1000129a <ph_delete+0x66>
10001262:	2a00      	cmp	r2, #0
10001264:	d008      	beq.n	10001278 <ph_delete+0x44>
10001266:	0053      	lsls	r3, r2, #1
10001268:	189b      	adds	r3, r3, r2
1000126a:	3b03      	subs	r3, #3
1000126c:	18eb      	adds	r3, r5, r3
1000126e:	785a      	ldrb	r2, [r3, #1]
10001270:	428a      	cmp	r2, r1
10001272:	d1f6      	bne.n	10001262 <ph_delete+0x2e>
10001274:	7842      	ldrb	r2, [r0, #1]
10001276:	705a      	strb	r2, [r3, #1]
10001278:	2300      	movs	r3, #0
1000127a:	2200      	movs	r2, #0
1000127c:	7083      	strb	r3, [r0, #2]
1000127e:	7043      	strb	r3, [r0, #1]
10001280:	0020      	movs	r0, r4
10001282:	f7ff febd 	bl	10001000 <ph_remove_any_head>
10001286:	7b61      	ldrb	r1, [r4, #13]
10001288:	0002      	movs	r2, r0
1000128a:	0020      	movs	r0, r4
1000128c:	f7ff fe0a 	bl	10000ea4 <ph_merge_nodes>
10001290:	7360      	strb	r0, [r4, #13]
10001292:	2001      	movs	r0, #1
10001294:	e000      	b.n	10001298 <ph_delete+0x64>
10001296:	2000      	movs	r0, #0
10001298:	bd70      	pop	{r4, r5, r6, pc}
1000129a:	7843      	ldrb	r3, [r0, #1]
1000129c:	7033      	strb	r3, [r6, #0]
1000129e:	e7eb      	b.n	10001278 <ph_delete+0x44>
100012a0:	2200      	movs	r2, #0
100012a2:	0019      	movs	r1, r3
100012a4:	f7ff feac 	bl	10001000 <ph_remove_any_head>
100012a8:	7360      	strb	r0, [r4, #13]
100012aa:	2001      	movs	r0, #1
100012ac:	e7f4      	b.n	10001298 <ph_delete+0x64>
100012ae:	46c0      	nop			; (mov r8, r8)

100012b0 <runtime_init>:
100012b0:	4b2b      	ldr	r3, [pc, #172]	; (10001360 <runtime_init+0xb0>)
100012b2:	4a2c      	ldr	r2, [pc, #176]	; (10001364 <runtime_init+0xb4>)
100012b4:	b570      	push	{r4, r5, r6, lr}
100012b6:	601a      	str	r2, [r3, #0]
100012b8:	4a2b      	ldr	r2, [pc, #172]	; (10001368 <runtime_init+0xb8>)
100012ba:	4b2c      	ldr	r3, [pc, #176]	; (1000136c <runtime_init+0xbc>)
100012bc:	492c      	ldr	r1, [pc, #176]	; (10001370 <runtime_init+0xc0>)
100012be:	601a      	str	r2, [r3, #0]
100012c0:	0010      	movs	r0, r2
100012c2:	688b      	ldr	r3, [r1, #8]
100012c4:	4398      	bics	r0, r3
100012c6:	d1fb      	bne.n	100012c0 <runtime_init+0x10>
100012c8:	4c2a      	ldr	r4, [pc, #168]	; (10001374 <runtime_init+0xc4>)
100012ca:	4b2b      	ldr	r3, [pc, #172]	; (10001378 <runtime_init+0xc8>)
100012cc:	429c      	cmp	r4, r3
100012ce:	d209      	bcs.n	100012e4 <runtime_init+0x34>
100012d0:	3b01      	subs	r3, #1
100012d2:	1b1d      	subs	r5, r3, r4
100012d4:	08ad      	lsrs	r5, r5, #2
100012d6:	3501      	adds	r5, #1
100012d8:	00ad      	lsls	r5, r5, #2
100012da:	192d      	adds	r5, r5, r4
100012dc:	cc08      	ldmia	r4!, {r3}
100012de:	4798      	blx	r3
100012e0:	42ac      	cmp	r4, r5
100012e2:	d1fb      	bne.n	100012dc <runtime_init+0x2c>
100012e4:	f000 f894 	bl	10001410 <clocks_init>
100012e8:	4a24      	ldr	r2, [pc, #144]	; (1000137c <runtime_init+0xcc>)
100012ea:	4b20      	ldr	r3, [pc, #128]	; (1000136c <runtime_init+0xbc>)
100012ec:	601a      	str	r2, [r3, #0]
100012ee:	4a20      	ldr	r2, [pc, #128]	; (10001370 <runtime_init+0xc0>)
100012f0:	6893      	ldr	r3, [r2, #8]
100012f2:	01db      	lsls	r3, r3, #7
100012f4:	3380      	adds	r3, #128	; 0x80
100012f6:	d1fb      	bne.n	100012f0 <runtime_init+0x40>
100012f8:	2240      	movs	r2, #64	; 0x40
100012fa:	4b21      	ldr	r3, [pc, #132]	; (10001380 <runtime_init+0xd0>)
100012fc:	4c21      	ldr	r4, [pc, #132]	; (10001384 <runtime_init+0xd4>)
100012fe:	679a      	str	r2, [r3, #120]	; 0x78
10001300:	675a      	str	r2, [r3, #116]	; 0x74
10001302:	671a      	str	r2, [r3, #112]	; 0x70
10001304:	66da      	str	r2, [r3, #108]	; 0x6c
10001306:	4b20      	ldr	r3, [pc, #128]	; (10001388 <runtime_init+0xd8>)
10001308:	429c      	cmp	r4, r3
1000130a:	d20b      	bcs.n	10001324 <runtime_init+0x74>
1000130c:	3b01      	subs	r3, #1
1000130e:	1b1d      	subs	r5, r3, r4
10001310:	08ed      	lsrs	r5, r5, #3
10001312:	3501      	adds	r5, #1
10001314:	00ed      	lsls	r5, r5, #3
10001316:	192d      	adds	r5, r5, r4
10001318:	0020      	movs	r0, r4
1000131a:	3408      	adds	r4, #8
1000131c:	f7ff fdb6 	bl	10000e8c <mutex_init>
10001320:	42ac      	cmp	r4, r5
10001322:	d1f9      	bne.n	10001318 <runtime_init+0x68>
10001324:	4c19      	ldr	r4, [pc, #100]	; (1000138c <runtime_init+0xdc>)
10001326:	4d1a      	ldr	r5, [pc, #104]	; (10001390 <runtime_init+0xe0>)
10001328:	68a1      	ldr	r1, [r4, #8]
1000132a:	22c0      	movs	r2, #192	; 0xc0
1000132c:	0028      	movs	r0, r5
1000132e:	f002 fe23 	bl	10003f78 <__wrap___aeabi_memcpy>
10001332:	60a5      	str	r5, [r4, #8]
10001334:	f7ff f902 	bl	1000053c <spin_locks_reset>
10001338:	f000 fbaa 	bl	10001a90 <irq_init_priorities>
1000133c:	f7ff fbc4 	bl	10000ac8 <alarm_pool_init_default>
10001340:	4c14      	ldr	r4, [pc, #80]	; (10001394 <runtime_init+0xe4>)
10001342:	4b15      	ldr	r3, [pc, #84]	; (10001398 <runtime_init+0xe8>)
10001344:	429c      	cmp	r4, r3
10001346:	d209      	bcs.n	1000135c <runtime_init+0xac>
10001348:	3b01      	subs	r3, #1
1000134a:	1b1d      	subs	r5, r3, r4
1000134c:	08ad      	lsrs	r5, r5, #2
1000134e:	3501      	adds	r5, #1
10001350:	00ad      	lsls	r5, r5, #2
10001352:	192d      	adds	r5, r5, r4
10001354:	cc08      	ldmia	r4!, {r3}
10001356:	4798      	blx	r3
10001358:	42a5      	cmp	r5, r4
1000135a:	d1fb      	bne.n	10001354 <runtime_init+0xa4>
1000135c:	bd70      	pop	{r4, r5, r6, pc}
1000135e:	46c0      	nop			; (mov r8, r8)
10001360:	4000e000 	.word	0x4000e000
10001364:	ffffcdbf 	.word	0xffffcdbf
10001368:	003c7ffe 	.word	0x003c7ffe
1000136c:	4000f000 	.word	0x4000f000
10001370:	4000c000 	.word	0x4000c000
10001374:	20000a58 	.word	0x20000a58
10001378:	20000a68 	.word	0x20000a68
1000137c:	01ffffff 	.word	0x01ffffff
10001380:	4001f000 	.word	0x4001f000
10001384:	20000a50 	.word	0x20000a50
10001388:	20000a58 	.word	0x20000a58
1000138c:	e000ed00 	.word	0xe000ed00
10001390:	20000000 	.word	0x20000000
10001394:	20000a68 	.word	0x20000a68
10001398:	20000a6c 	.word	0x20000a6c

1000139c <_sbrk>:
1000139c:	4a09      	ldr	r2, [pc, #36]	; (100013c4 <_sbrk+0x28>)
1000139e:	0003      	movs	r3, r0
100013a0:	6810      	ldr	r0, [r2, #0]
100013a2:	2800      	cmp	r0, #0
100013a4:	d005      	beq.n	100013b2 <_sbrk+0x16>
100013a6:	4908      	ldr	r1, [pc, #32]	; (100013c8 <_sbrk+0x2c>)
100013a8:	18c3      	adds	r3, r0, r3
100013aa:	428b      	cmp	r3, r1
100013ac:	d207      	bcs.n	100013be <_sbrk+0x22>
100013ae:	6013      	str	r3, [r2, #0]
100013b0:	4770      	bx	lr
100013b2:	4806      	ldr	r0, [pc, #24]	; (100013cc <_sbrk+0x30>)
100013b4:	4904      	ldr	r1, [pc, #16]	; (100013c8 <_sbrk+0x2c>)
100013b6:	18c3      	adds	r3, r0, r3
100013b8:	6010      	str	r0, [r2, #0]
100013ba:	428b      	cmp	r3, r1
100013bc:	d3f7      	bcc.n	100013ae <_sbrk+0x12>
100013be:	2001      	movs	r0, #1
100013c0:	4240      	negs	r0, r0
100013c2:	e7f5      	b.n	100013b0 <_sbrk+0x14>
100013c4:	20000b00 	.word	0x20000b00
100013c8:	20040000 	.word	0x20040000
100013cc:	20000d5c 	.word	0x20000d5c

100013d0 <exit>:
100013d0:	be00      	bkpt	0x0000
100013d2:	e7fd      	b.n	100013d0 <exit>

100013d4 <panic>:
100013d4:	b40f      	push	{r0, r1, r2, r3}
100013d6:	b500      	push	{lr}
100013d8:	4808      	ldr	r0, [pc, #32]	; (100013fc <panic+0x28>)
100013da:	b083      	sub	sp, #12
100013dc:	f002 fede 	bl	1000419c <__wrap_puts>
100013e0:	9b04      	ldr	r3, [sp, #16]
100013e2:	2b00      	cmp	r3, #0
100013e4:	d007      	beq.n	100013f6 <panic+0x22>
100013e6:	a905      	add	r1, sp, #20
100013e8:	0018      	movs	r0, r3
100013ea:	9101      	str	r1, [sp, #4]
100013ec:	f001 fe78 	bl	100030e0 <weak_raw_vprintf>
100013f0:	4803      	ldr	r0, [pc, #12]	; (10001400 <panic+0x2c>)
100013f2:	f002 fed3 	bl	1000419c <__wrap_puts>
100013f6:	be00      	bkpt	0x0000
100013f8:	e7fd      	b.n	100013f6 <panic+0x22>
100013fa:	46c0      	nop			; (mov r8, r8)
100013fc:	10004da4 	.word	0x10004da4
10001400:	10004db4 	.word	0x10004db4

10001404 <hard_assertion_failure>:
10001404:	b510      	push	{r4, lr}
10001406:	4801      	ldr	r0, [pc, #4]	; (1000140c <hard_assertion_failure+0x8>)
10001408:	f7ff ffe4 	bl	100013d4 <panic>
1000140c:	10004db8 	.word	0x10004db8

10001410 <clocks_init>:
10001410:	b530      	push	{r4, r5, lr}
10001412:	200c      	movs	r0, #12
10001414:	b083      	sub	sp, #12
10001416:	f000 f971 	bl	100016fc <watchdog_start_tick>
1000141a:	f7ff f8a9 	bl	10000570 <running_on_fpga>
1000141e:	2800      	cmp	r0, #0
10001420:	d00e      	beq.n	10001440 <clocks_init+0x30>
10001422:	4b9a      	ldr	r3, [pc, #616]	; (1000168c <clocks_init+0x27c>)
10001424:	4a9a      	ldr	r2, [pc, #616]	; (10001690 <clocks_init+0x280>)
10001426:	601a      	str	r2, [r3, #0]
10001428:	605a      	str	r2, [r3, #4]
1000142a:	609a      	str	r2, [r3, #8]
1000142c:	60da      	str	r2, [r3, #12]
1000142e:	611a      	str	r2, [r3, #16]
10001430:	615a      	str	r2, [r3, #20]
10001432:	619a      	str	r2, [r3, #24]
10001434:	61da      	str	r2, [r3, #28]
10001436:	621a      	str	r2, [r3, #32]
10001438:	4a96      	ldr	r2, [pc, #600]	; (10001694 <clocks_init+0x284>)
1000143a:	625a      	str	r2, [r3, #36]	; 0x24
1000143c:	b003      	add	sp, #12
1000143e:	bd30      	pop	{r4, r5, pc}
10001440:	4c95      	ldr	r4, [pc, #596]	; (10001698 <clocks_init+0x288>)
10001442:	67a0      	str	r0, [r4, #120]	; 0x78
10001444:	f000 f962 	bl	1000170c <xosc_init>
10001448:	2201      	movs	r2, #1
1000144a:	4b94      	ldr	r3, [pc, #592]	; (1000169c <clocks_init+0x28c>)
1000144c:	601a      	str	r2, [r3, #0]
1000144e:	6c63      	ldr	r3, [r4, #68]	; 0x44
10001450:	2b01      	cmp	r3, #1
10001452:	d1fc      	bne.n	1000144e <clocks_init+0x3e>
10001454:	2203      	movs	r2, #3
10001456:	4b92      	ldr	r3, [pc, #584]	; (100016a0 <clocks_init+0x290>)
10001458:	601a      	str	r2, [r3, #0]
1000145a:	4a8f      	ldr	r2, [pc, #572]	; (10001698 <clocks_init+0x288>)
1000145c:	6b93      	ldr	r3, [r2, #56]	; 0x38
1000145e:	2b01      	cmp	r3, #1
10001460:	d1fc      	bne.n	1000145c <clocks_init+0x4c>
10001462:	22c0      	movs	r2, #192	; 0xc0
10001464:	4b8f      	ldr	r3, [pc, #572]	; (100016a4 <clocks_init+0x294>)
10001466:	0192      	lsls	r2, r2, #6
10001468:	601a      	str	r2, [r3, #0]
1000146a:	4b8f      	ldr	r3, [pc, #572]	; (100016a8 <clocks_init+0x298>)
1000146c:	498f      	ldr	r1, [pc, #572]	; (100016ac <clocks_init+0x29c>)
1000146e:	601a      	str	r2, [r3, #0]
10001470:	0010      	movs	r0, r2
10001472:	688b      	ldr	r3, [r1, #8]
10001474:	4398      	bics	r0, r3
10001476:	1e03      	subs	r3, r0, #0
10001478:	d1fa      	bne.n	10001470 <clocks_init+0x60>
1000147a:	2402      	movs	r4, #2
1000147c:	2101      	movs	r1, #1
1000147e:	4a8c      	ldr	r2, [pc, #560]	; (100016b0 <clocks_init+0x2a0>)
10001480:	488c      	ldr	r0, [pc, #560]	; (100016b4 <clocks_init+0x2a4>)
10001482:	3306      	adds	r3, #6
10001484:	9400      	str	r4, [sp, #0]
10001486:	f000 f955 	bl	10001734 <pll_init>
1000148a:	2305      	movs	r3, #5
1000148c:	4a8a      	ldr	r2, [pc, #552]	; (100016b8 <clocks_init+0x2a8>)
1000148e:	2101      	movs	r1, #1
10001490:	488a      	ldr	r0, [pc, #552]	; (100016bc <clocks_init+0x2ac>)
10001492:	9400      	str	r4, [sp, #0]
10001494:	f000 f94e 	bl	10001734 <pll_init>
10001498:	4b89      	ldr	r3, [pc, #548]	; (100016c0 <clocks_init+0x2b0>)
1000149a:	685a      	ldr	r2, [r3, #4]
1000149c:	2aff      	cmp	r2, #255	; 0xff
1000149e:	d802      	bhi.n	100014a6 <clocks_init+0x96>
100014a0:	2280      	movs	r2, #128	; 0x80
100014a2:	0052      	lsls	r2, r2, #1
100014a4:	605a      	str	r2, [r3, #4]
100014a6:	2280      	movs	r2, #128	; 0x80
100014a8:	4c78      	ldr	r4, [pc, #480]	; (1000168c <clocks_init+0x27c>)
100014aa:	4b7d      	ldr	r3, [pc, #500]	; (100016a0 <clocks_init+0x290>)
100014ac:	6921      	ldr	r1, [r4, #16]
100014ae:	0112      	lsls	r2, r2, #4
100014b0:	4d83      	ldr	r5, [pc, #524]	; (100016c0 <clocks_init+0x2b0>)
100014b2:	601a      	str	r2, [r3, #0]
100014b4:	2900      	cmp	r1, #0
100014b6:	d005      	beq.n	100014c4 <clocks_init+0xb4>
100014b8:	6960      	ldr	r0, [r4, #20]
100014ba:	f001 fe8b 	bl	100031d4 <__wrap___aeabi_uidiv>
100014be:	3001      	adds	r0, #1
100014c0:	3801      	subs	r0, #1
100014c2:	d1fd      	bne.n	100014c0 <clocks_init+0xb0>
100014c4:	21e0      	movs	r1, #224	; 0xe0
100014c6:	4b7e      	ldr	r3, [pc, #504]	; (100016c0 <clocks_init+0x2b0>)
100014c8:	2002      	movs	r0, #2
100014ca:	681a      	ldr	r2, [r3, #0]
100014cc:	4011      	ands	r1, r2
100014ce:	2280      	movs	r2, #128	; 0x80
100014d0:	0152      	lsls	r2, r2, #5
100014d2:	432a      	orrs	r2, r5
100014d4:	6011      	str	r1, [r2, #0]
100014d6:	6819      	ldr	r1, [r3, #0]
100014d8:	4048      	eors	r0, r1
100014da:	2103      	movs	r1, #3
100014dc:	4001      	ands	r1, r0
100014de:	6011      	str	r1, [r2, #0]
100014e0:	2104      	movs	r1, #4
100014e2:	689a      	ldr	r2, [r3, #8]
100014e4:	4211      	tst	r1, r2
100014e6:	d0fc      	beq.n	100014e2 <clocks_init+0xd2>
100014e8:	2280      	movs	r2, #128	; 0x80
100014ea:	2180      	movs	r1, #128	; 0x80
100014ec:	0192      	lsls	r2, r2, #6
100014ee:	432a      	orrs	r2, r5
100014f0:	0109      	lsls	r1, r1, #4
100014f2:	6011      	str	r1, [r2, #0]
100014f4:	2280      	movs	r2, #128	; 0x80
100014f6:	0052      	lsls	r2, r2, #1
100014f8:	605a      	str	r2, [r3, #4]
100014fa:	4b72      	ldr	r3, [pc, #456]	; (100016c4 <clocks_init+0x2b4>)
100014fc:	6123      	str	r3, [r4, #16]
100014fe:	4b72      	ldr	r3, [pc, #456]	; (100016c8 <clocks_init+0x2b8>)
10001500:	6859      	ldr	r1, [r3, #4]
10001502:	29ff      	cmp	r1, #255	; 0xff
10001504:	d800      	bhi.n	10001508 <clocks_init+0xf8>
10001506:	605a      	str	r2, [r3, #4]
10001508:	2203      	movs	r2, #3
1000150a:	486f      	ldr	r0, [pc, #444]	; (100016c8 <clocks_init+0x2b8>)
1000150c:	4b63      	ldr	r3, [pc, #396]	; (1000169c <clocks_init+0x28c>)
1000150e:	2101      	movs	r1, #1
10001510:	601a      	str	r2, [r3, #0]
10001512:	0002      	movs	r2, r0
10001514:	6893      	ldr	r3, [r2, #8]
10001516:	4219      	tst	r1, r3
10001518:	d0fc      	beq.n	10001514 <clocks_init+0x104>
1000151a:	25e0      	movs	r5, #224	; 0xe0
1000151c:	6813      	ldr	r3, [r2, #0]
1000151e:	401d      	ands	r5, r3
10001520:	2380      	movs	r3, #128	; 0x80
10001522:	015b      	lsls	r3, r3, #5
10001524:	4303      	orrs	r3, r0
10001526:	601d      	str	r5, [r3, #0]
10001528:	6812      	ldr	r2, [r2, #0]
1000152a:	404a      	eors	r2, r1
1000152c:	2103      	movs	r1, #3
1000152e:	4011      	ands	r1, r2
10001530:	6019      	str	r1, [r3, #0]
10001532:	2102      	movs	r1, #2
10001534:	4a64      	ldr	r2, [pc, #400]	; (100016c8 <clocks_init+0x2b8>)
10001536:	6893      	ldr	r3, [r2, #8]
10001538:	4219      	tst	r1, r3
1000153a:	d0fc      	beq.n	10001536 <clocks_init+0x126>
1000153c:	2380      	movs	r3, #128	; 0x80
1000153e:	2180      	movs	r1, #128	; 0x80
10001540:	019b      	lsls	r3, r3, #6
10001542:	4303      	orrs	r3, r0
10001544:	0109      	lsls	r1, r1, #4
10001546:	6019      	str	r1, [r3, #0]
10001548:	2180      	movs	r1, #128	; 0x80
1000154a:	4b60      	ldr	r3, [pc, #384]	; (100016cc <clocks_init+0x2bc>)
1000154c:	0049      	lsls	r1, r1, #1
1000154e:	6051      	str	r1, [r2, #4]
10001550:	6163      	str	r3, [r4, #20]
10001552:	4b5f      	ldr	r3, [pc, #380]	; (100016d0 <clocks_init+0x2c0>)
10001554:	685a      	ldr	r2, [r3, #4]
10001556:	2aff      	cmp	r2, #255	; 0xff
10001558:	d800      	bhi.n	1000155c <clocks_init+0x14c>
1000155a:	6059      	str	r1, [r3, #4]
1000155c:	2280      	movs	r2, #128	; 0x80
1000155e:	4b5d      	ldr	r3, [pc, #372]	; (100016d4 <clocks_init+0x2c4>)
10001560:	69e1      	ldr	r1, [r4, #28]
10001562:	0112      	lsls	r2, r2, #4
10001564:	4d5a      	ldr	r5, [pc, #360]	; (100016d0 <clocks_init+0x2c0>)
10001566:	601a      	str	r2, [r3, #0]
10001568:	2900      	cmp	r1, #0
1000156a:	d005      	beq.n	10001578 <clocks_init+0x168>
1000156c:	6960      	ldr	r0, [r4, #20]
1000156e:	f001 fe31 	bl	100031d4 <__wrap___aeabi_uidiv>
10001572:	3001      	adds	r0, #1
10001574:	3801      	subs	r0, #1
10001576:	d1fd      	bne.n	10001574 <clocks_init+0x164>
10001578:	22e0      	movs	r2, #224	; 0xe0
1000157a:	4955      	ldr	r1, [pc, #340]	; (100016d0 <clocks_init+0x2c0>)
1000157c:	680b      	ldr	r3, [r1, #0]
1000157e:	401a      	ands	r2, r3
10001580:	2380      	movs	r3, #128	; 0x80
10001582:	015b      	lsls	r3, r3, #5
10001584:	432b      	orrs	r3, r5
10001586:	601a      	str	r2, [r3, #0]
10001588:	2380      	movs	r3, #128	; 0x80
1000158a:	2280      	movs	r2, #128	; 0x80
1000158c:	019b      	lsls	r3, r3, #6
1000158e:	432b      	orrs	r3, r5
10001590:	0112      	lsls	r2, r2, #4
10001592:	601a      	str	r2, [r3, #0]
10001594:	2280      	movs	r2, #128	; 0x80
10001596:	4b3e      	ldr	r3, [pc, #248]	; (10001690 <clocks_init+0x280>)
10001598:	0052      	lsls	r2, r2, #1
1000159a:	604a      	str	r2, [r1, #4]
1000159c:	61e3      	str	r3, [r4, #28]
1000159e:	4b4e      	ldr	r3, [pc, #312]	; (100016d8 <clocks_init+0x2c8>)
100015a0:	6859      	ldr	r1, [r3, #4]
100015a2:	29ff      	cmp	r1, #255	; 0xff
100015a4:	d800      	bhi.n	100015a8 <clocks_init+0x198>
100015a6:	605a      	str	r2, [r3, #4]
100015a8:	2280      	movs	r2, #128	; 0x80
100015aa:	4b4c      	ldr	r3, [pc, #304]	; (100016dc <clocks_init+0x2cc>)
100015ac:	6a21      	ldr	r1, [r4, #32]
100015ae:	0112      	lsls	r2, r2, #4
100015b0:	4d49      	ldr	r5, [pc, #292]	; (100016d8 <clocks_init+0x2c8>)
100015b2:	601a      	str	r2, [r3, #0]
100015b4:	2900      	cmp	r1, #0
100015b6:	d005      	beq.n	100015c4 <clocks_init+0x1b4>
100015b8:	6960      	ldr	r0, [r4, #20]
100015ba:	f001 fe0b 	bl	100031d4 <__wrap___aeabi_uidiv>
100015be:	3001      	adds	r0, #1
100015c0:	3801      	subs	r0, #1
100015c2:	d1fd      	bne.n	100015c0 <clocks_init+0x1b0>
100015c4:	22e0      	movs	r2, #224	; 0xe0
100015c6:	4944      	ldr	r1, [pc, #272]	; (100016d8 <clocks_init+0x2c8>)
100015c8:	680b      	ldr	r3, [r1, #0]
100015ca:	401a      	ands	r2, r3
100015cc:	2380      	movs	r3, #128	; 0x80
100015ce:	015b      	lsls	r3, r3, #5
100015d0:	432b      	orrs	r3, r5
100015d2:	601a      	str	r2, [r3, #0]
100015d4:	2380      	movs	r3, #128	; 0x80
100015d6:	2280      	movs	r2, #128	; 0x80
100015d8:	019b      	lsls	r3, r3, #6
100015da:	432b      	orrs	r3, r5
100015dc:	0112      	lsls	r2, r2, #4
100015de:	601a      	str	r2, [r3, #0]
100015e0:	2380      	movs	r3, #128	; 0x80
100015e2:	2280      	movs	r2, #128	; 0x80
100015e4:	005b      	lsls	r3, r3, #1
100015e6:	604b      	str	r3, [r1, #4]
100015e8:	4b29      	ldr	r3, [pc, #164]	; (10001690 <clocks_init+0x280>)
100015ea:	02d2      	lsls	r2, r2, #11
100015ec:	6223      	str	r3, [r4, #32]
100015ee:	4b3c      	ldr	r3, [pc, #240]	; (100016e0 <clocks_init+0x2d0>)
100015f0:	6859      	ldr	r1, [r3, #4]
100015f2:	4291      	cmp	r1, r2
100015f4:	d200      	bcs.n	100015f8 <clocks_init+0x1e8>
100015f6:	605a      	str	r2, [r3, #4]
100015f8:	2280      	movs	r2, #128	; 0x80
100015fa:	4b3a      	ldr	r3, [pc, #232]	; (100016e4 <clocks_init+0x2d4>)
100015fc:	6a61      	ldr	r1, [r4, #36]	; 0x24
100015fe:	0112      	lsls	r2, r2, #4
10001600:	4d37      	ldr	r5, [pc, #220]	; (100016e0 <clocks_init+0x2d0>)
10001602:	601a      	str	r2, [r3, #0]
10001604:	2900      	cmp	r1, #0
10001606:	d005      	beq.n	10001614 <clocks_init+0x204>
10001608:	6960      	ldr	r0, [r4, #20]
1000160a:	f001 fde3 	bl	100031d4 <__wrap___aeabi_uidiv>
1000160e:	3001      	adds	r0, #1
10001610:	3801      	subs	r0, #1
10001612:	d1fd      	bne.n	10001610 <clocks_init+0x200>
10001614:	22e0      	movs	r2, #224	; 0xe0
10001616:	4932      	ldr	r1, [pc, #200]	; (100016e0 <clocks_init+0x2d0>)
10001618:	680b      	ldr	r3, [r1, #0]
1000161a:	401a      	ands	r2, r3
1000161c:	2380      	movs	r3, #128	; 0x80
1000161e:	015b      	lsls	r3, r3, #5
10001620:	432b      	orrs	r3, r5
10001622:	601a      	str	r2, [r3, #0]
10001624:	2380      	movs	r3, #128	; 0x80
10001626:	2280      	movs	r2, #128	; 0x80
10001628:	019b      	lsls	r3, r3, #6
1000162a:	432b      	orrs	r3, r5
1000162c:	0112      	lsls	r2, r2, #4
1000162e:	601a      	str	r2, [r3, #0]
10001630:	2380      	movs	r3, #128	; 0x80
10001632:	02db      	lsls	r3, r3, #11
10001634:	604b      	str	r3, [r1, #4]
10001636:	4b17      	ldr	r3, [pc, #92]	; (10001694 <clocks_init+0x284>)
10001638:	6263      	str	r3, [r4, #36]	; 0x24
1000163a:	4b2b      	ldr	r3, [pc, #172]	; (100016e8 <clocks_init+0x2d8>)
1000163c:	685a      	ldr	r2, [r3, #4]
1000163e:	2aff      	cmp	r2, #255	; 0xff
10001640:	d802      	bhi.n	10001648 <clocks_init+0x238>
10001642:	2280      	movs	r2, #128	; 0x80
10001644:	0052      	lsls	r2, r2, #1
10001646:	605a      	str	r2, [r3, #4]
10001648:	2280      	movs	r2, #128	; 0x80
1000164a:	4b28      	ldr	r3, [pc, #160]	; (100016ec <clocks_init+0x2dc>)
1000164c:	69a1      	ldr	r1, [r4, #24]
1000164e:	0112      	lsls	r2, r2, #4
10001650:	4d25      	ldr	r5, [pc, #148]	; (100016e8 <clocks_init+0x2d8>)
10001652:	601a      	str	r2, [r3, #0]
10001654:	2900      	cmp	r1, #0
10001656:	d005      	beq.n	10001664 <clocks_init+0x254>
10001658:	6960      	ldr	r0, [r4, #20]
1000165a:	f001 fdbb 	bl	100031d4 <__wrap___aeabi_uidiv>
1000165e:	3001      	adds	r0, #1
10001660:	3801      	subs	r0, #1
10001662:	d1fd      	bne.n	10001660 <clocks_init+0x250>
10001664:	22e0      	movs	r2, #224	; 0xe0
10001666:	4920      	ldr	r1, [pc, #128]	; (100016e8 <clocks_init+0x2d8>)
10001668:	680b      	ldr	r3, [r1, #0]
1000166a:	401a      	ands	r2, r3
1000166c:	2380      	movs	r3, #128	; 0x80
1000166e:	015b      	lsls	r3, r3, #5
10001670:	432b      	orrs	r3, r5
10001672:	601a      	str	r2, [r3, #0]
10001674:	2380      	movs	r3, #128	; 0x80
10001676:	2280      	movs	r2, #128	; 0x80
10001678:	019b      	lsls	r3, r3, #6
1000167a:	432b      	orrs	r3, r5
1000167c:	0112      	lsls	r2, r2, #4
1000167e:	601a      	str	r2, [r3, #0]
10001680:	2380      	movs	r3, #128	; 0x80
10001682:	005b      	lsls	r3, r3, #1
10001684:	604b      	str	r3, [r1, #4]
10001686:	4b11      	ldr	r3, [pc, #68]	; (100016cc <clocks_init+0x2bc>)
10001688:	61a3      	str	r3, [r4, #24]
1000168a:	e6d7      	b.n	1000143c <clocks_init+0x2c>
1000168c:	20000acc 	.word	0x20000acc
10001690:	02dc6c00 	.word	0x02dc6c00
10001694:	0000b71b 	.word	0x0000b71b
10001698:	40008000 	.word	0x40008000
1000169c:	4000b03c 	.word	0x4000b03c
100016a0:	4000b030 	.word	0x4000b030
100016a4:	4000e000 	.word	0x4000e000
100016a8:	4000f000 	.word	0x4000f000
100016ac:	4000c000 	.word	0x4000c000
100016b0:	59682f00 	.word	0x59682f00
100016b4:	40028000 	.word	0x40028000
100016b8:	1c9c3800 	.word	0x1c9c3800
100016bc:	4002c000 	.word	0x4002c000
100016c0:	40008030 	.word	0x40008030
100016c4:	00b71b00 	.word	0x00b71b00
100016c8:	4000803c 	.word	0x4000803c
100016cc:	07735940 	.word	0x07735940
100016d0:	40008054 	.word	0x40008054
100016d4:	4000b054 	.word	0x4000b054
100016d8:	40008060 	.word	0x40008060
100016dc:	4000b060 	.word	0x4000b060
100016e0:	4000806c 	.word	0x4000806c
100016e4:	4000b06c 	.word	0x4000b06c
100016e8:	40008048 	.word	0x40008048
100016ec:	4000b048 	.word	0x4000b048

100016f0 <clock_get_hz>:
100016f0:	4b01      	ldr	r3, [pc, #4]	; (100016f8 <clock_get_hz+0x8>)
100016f2:	0080      	lsls	r0, r0, #2
100016f4:	58c0      	ldr	r0, [r0, r3]
100016f6:	4770      	bx	lr
100016f8:	20000acc 	.word	0x20000acc

100016fc <watchdog_start_tick>:
100016fc:	2380      	movs	r3, #128	; 0x80
100016fe:	4a02      	ldr	r2, [pc, #8]	; (10001708 <watchdog_start_tick+0xc>)
10001700:	009b      	lsls	r3, r3, #2
10001702:	4303      	orrs	r3, r0
10001704:	62d3      	str	r3, [r2, #44]	; 0x2c
10001706:	4770      	bx	lr
10001708:	40058000 	.word	0x40058000

1000170c <xosc_init>:
1000170c:	23aa      	movs	r3, #170	; 0xaa
1000170e:	4a06      	ldr	r2, [pc, #24]	; (10001728 <xosc_init+0x1c>)
10001710:	011b      	lsls	r3, r3, #4
10001712:	6013      	str	r3, [r2, #0]
10001714:	232f      	movs	r3, #47	; 0x2f
10001716:	4905      	ldr	r1, [pc, #20]	; (1000172c <xosc_init+0x20>)
10001718:	60d3      	str	r3, [r2, #12]
1000171a:	4b05      	ldr	r3, [pc, #20]	; (10001730 <xosc_init+0x24>)
1000171c:	6019      	str	r1, [r3, #0]
1000171e:	6853      	ldr	r3, [r2, #4]
10001720:	2b00      	cmp	r3, #0
10001722:	dafc      	bge.n	1000171e <xosc_init+0x12>
10001724:	4770      	bx	lr
10001726:	46c0      	nop			; (mov r8, r8)
10001728:	40024000 	.word	0x40024000
1000172c:	00fab000 	.word	0x00fab000
10001730:	40026000 	.word	0x40026000

10001734 <pll_init>:
10001734:	b5f8      	push	{r3, r4, r5, r6, r7, lr}
10001736:	001d      	movs	r5, r3
10001738:	ab06      	add	r3, sp, #24
1000173a:	781e      	ldrb	r6, [r3, #0]
1000173c:	2301      	movs	r3, #1
1000173e:	425b      	negs	r3, r3
10001740:	6043      	str	r3, [r0, #4]
10001742:	2300      	movs	r3, #0
10001744:	0004      	movs	r4, r0
10001746:	6083      	str	r3, [r0, #8]
10001748:	6001      	str	r1, [r0, #0]
1000174a:	200c      	movs	r0, #12
1000174c:	0017      	movs	r7, r2
1000174e:	f001 fd41 	bl	100031d4 <__wrap___aeabi_uidiv>
10001752:	0141      	lsls	r1, r0, #5
10001754:	1a09      	subs	r1, r1, r0
10001756:	018b      	lsls	r3, r1, #6
10001758:	1a59      	subs	r1, r3, r1
1000175a:	00c9      	lsls	r1, r1, #3
1000175c:	1809      	adds	r1, r1, r0
1000175e:	0189      	lsls	r1, r1, #6
10001760:	0038      	movs	r0, r7
10001762:	f001 fd37 	bl	100031d4 <__wrap___aeabi_uidiv>
10001766:	21c0      	movs	r1, #192	; 0xc0
10001768:	1d23      	adds	r3, r4, #4
1000176a:	0189      	lsls	r1, r1, #6
1000176c:	4319      	orrs	r1, r3
1000176e:	2321      	movs	r3, #33	; 0x21
10001770:	60a0      	str	r0, [r4, #8]
10001772:	600b      	str	r3, [r1, #0]
10001774:	6822      	ldr	r2, [r4, #0]
10001776:	2a00      	cmp	r2, #0
10001778:	dafc      	bge.n	10001774 <pll_init+0x40>
1000177a:	2308      	movs	r3, #8
1000177c:	042d      	lsls	r5, r5, #16
1000177e:	0336      	lsls	r6, r6, #12
10001780:	432e      	orrs	r6, r5
10001782:	60e6      	str	r6, [r4, #12]
10001784:	600b      	str	r3, [r1, #0]
10001786:	bdf8      	pop	{r3, r4, r5, r6, r7, pc}

10001788 <irq_set_enabled>:
10001788:	2301      	movs	r3, #1
1000178a:	4083      	lsls	r3, r0
1000178c:	2900      	cmp	r1, #0
1000178e:	d004      	beq.n	1000179a <irq_set_enabled+0x12>
10001790:	4a03      	ldr	r2, [pc, #12]	; (100017a0 <irq_set_enabled+0x18>)
10001792:	6013      	str	r3, [r2, #0]
10001794:	4a03      	ldr	r2, [pc, #12]	; (100017a4 <irq_set_enabled+0x1c>)
10001796:	6013      	str	r3, [r2, #0]
10001798:	4770      	bx	lr
1000179a:	4a03      	ldr	r2, [pc, #12]	; (100017a8 <irq_set_enabled+0x20>)
1000179c:	6013      	str	r3, [r2, #0]
1000179e:	e7fb      	b.n	10001798 <irq_set_enabled+0x10>
100017a0:	e000e280 	.word	0xe000e280
100017a4:	e000e100 	.word	0xe000e100
100017a8:	e000e180 	.word	0xe000e180

100017ac <irq_get_vtable_handler>:
100017ac:	4b02      	ldr	r3, [pc, #8]	; (100017b8 <irq_get_vtable_handler+0xc>)
100017ae:	3010      	adds	r0, #16
100017b0:	689b      	ldr	r3, [r3, #8]
100017b2:	0080      	lsls	r0, r0, #2
100017b4:	58c0      	ldr	r0, [r0, r3]
100017b6:	4770      	bx	lr
100017b8:	e000ed00 	.word	0xe000ed00

100017bc <irq_set_exclusive_handler>:
100017bc:	b570      	push	{r4, r5, r6, lr}
100017be:	000d      	movs	r5, r1
100017c0:	f3ef 8610 	mrs	r6, PRIMASK
100017c4:	b672      	cpsid	i
100017c6:	4a0f      	ldr	r2, [pc, #60]	; (10001804 <irq_set_exclusive_handler+0x48>)
100017c8:	6813      	ldr	r3, [r2, #0]
100017ca:	2b00      	cmp	r3, #0
100017cc:	d0fc      	beq.n	100017c8 <irq_set_exclusive_handler+0xc>
100017ce:	f3bf 8f5f 	dmb	sy
100017d2:	4b0d      	ldr	r3, [pc, #52]	; (10001808 <irq_set_exclusive_handler+0x4c>)
100017d4:	3010      	adds	r0, #16
100017d6:	689b      	ldr	r3, [r3, #8]
100017d8:	0084      	lsls	r4, r0, #2
100017da:	591b      	ldr	r3, [r3, r4]
100017dc:	4a0b      	ldr	r2, [pc, #44]	; (1000180c <irq_set_exclusive_handler+0x50>)
100017de:	4293      	cmp	r3, r2
100017e0:	d003      	beq.n	100017ea <irq_set_exclusive_handler+0x2e>
100017e2:	429d      	cmp	r5, r3
100017e4:	d001      	beq.n	100017ea <irq_set_exclusive_handler+0x2e>
100017e6:	f7ff fe0d 	bl	10001404 <hard_assertion_failure>
100017ea:	4b07      	ldr	r3, [pc, #28]	; (10001808 <irq_set_exclusive_handler+0x4c>)
100017ec:	689b      	ldr	r3, [r3, #8]
100017ee:	511d      	str	r5, [r3, r4]
100017f0:	f3bf 8f5f 	dmb	sy
100017f4:	f3bf 8f5f 	dmb	sy
100017f8:	2200      	movs	r2, #0
100017fa:	4b02      	ldr	r3, [pc, #8]	; (10001804 <irq_set_exclusive_handler+0x48>)
100017fc:	601a      	str	r2, [r3, #0]
100017fe:	f386 8810 	msr	PRIMASK, r6
10001802:	bd70      	pop	{r4, r5, r6, pc}
10001804:	d0000124 	.word	0xd0000124
10001808:	e000ed00 	.word	0xe000ed00
1000180c:	100002cd 	.word	0x100002cd

10001810 <irq_remove_handler>:
10001810:	b5f0      	push	{r4, r5, r6, r7, lr}
10001812:	46de      	mov	lr, fp
10001814:	4657      	mov	r7, sl
10001816:	464e      	mov	r6, r9
10001818:	4645      	mov	r5, r8
1000181a:	b5e0      	push	{r5, r6, r7, lr}
1000181c:	000c      	movs	r4, r1
1000181e:	b083      	sub	sp, #12
10001820:	f3ef 8a10 	mrs	sl, PRIMASK
10001824:	b672      	cpsid	i
10001826:	4a5f      	ldr	r2, [pc, #380]	; (100019a4 <irq_remove_handler+0x194>)
10001828:	6813      	ldr	r3, [r2, #0]
1000182a:	2b00      	cmp	r3, #0
1000182c:	d0fc      	beq.n	10001828 <irq_remove_handler+0x18>
1000182e:	f3bf 8f5f 	dmb	sy
10001832:	2210      	movs	r2, #16
10001834:	4691      	mov	r9, r2
10001836:	4481      	add	r9, r0
10001838:	464a      	mov	r2, r9
1000183a:	4b5b      	ldr	r3, [pc, #364]	; (100019a8 <irq_remove_handler+0x198>)
1000183c:	0096      	lsls	r6, r2, #2
1000183e:	689b      	ldr	r3, [r3, #8]
10001840:	599d      	ldr	r5, [r3, r6]
10001842:	4b5a      	ldr	r3, [pc, #360]	; (100019ac <irq_remove_handler+0x19c>)
10001844:	4698      	mov	r8, r3
10001846:	429d      	cmp	r5, r3
10001848:	d005      	beq.n	10001856 <irq_remove_handler+0x46>
1000184a:	42a5      	cmp	r5, r4
1000184c:	d016      	beq.n	1000187c <irq_remove_handler+0x6c>
1000184e:	4f58      	ldr	r7, [pc, #352]	; (100019b0 <irq_remove_handler+0x1a0>)
10001850:	1beb      	subs	r3, r5, r7
10001852:	2b2f      	cmp	r3, #47	; 0x2f
10001854:	d914      	bls.n	10001880 <irq_remove_handler+0x70>
10001856:	4b54      	ldr	r3, [pc, #336]	; (100019a8 <irq_remove_handler+0x198>)
10001858:	689b      	ldr	r3, [r3, #8]
1000185a:	519d      	str	r5, [r3, r6]
1000185c:	f3bf 8f5f 	dmb	sy
10001860:	f3bf 8f5f 	dmb	sy
10001864:	2200      	movs	r2, #0
10001866:	4b4f      	ldr	r3, [pc, #316]	; (100019a4 <irq_remove_handler+0x194>)
10001868:	601a      	str	r2, [r3, #0]
1000186a:	f38a 8810 	msr	PRIMASK, sl
1000186e:	b003      	add	sp, #12
10001870:	bc3c      	pop	{r2, r3, r4, r5}
10001872:	4690      	mov	r8, r2
10001874:	4699      	mov	r9, r3
10001876:	46a2      	mov	sl, r4
10001878:	46ab      	mov	fp, r5
1000187a:	bdf0      	pop	{r4, r5, r6, r7, pc}
1000187c:	001d      	movs	r5, r3
1000187e:	e7ea      	b.n	10001856 <irq_remove_handler+0x46>
10001880:	2301      	movs	r3, #1
10001882:	4083      	lsls	r3, r0
10001884:	469b      	mov	fp, r3
10001886:	465a      	mov	r2, fp
10001888:	4b4a      	ldr	r3, [pc, #296]	; (100019b4 <irq_remove_handler+0x1a4>)
1000188a:	681b      	ldr	r3, [r3, #0]
1000188c:	401a      	ands	r2, r3
1000188e:	9200      	str	r2, [sp, #0]
10001890:	465a      	mov	r2, fp
10001892:	4b49      	ldr	r3, [pc, #292]	; (100019b8 <irq_remove_handler+0x1a8>)
10001894:	601a      	str	r2, [r3, #0]
10001896:	f3bf 8f5f 	dmb	sy
1000189a:	f7fe fc7c 	bl	10000196 <__get_current_exception>
1000189e:	9001      	str	r0, [sp, #4]
100018a0:	2800      	cmp	r0, #0
100018a2:	d003      	beq.n	100018ac <irq_remove_handler+0x9c>
100018a4:	4581      	cmp	r9, r0
100018a6:	d001      	beq.n	100018ac <irq_remove_handler+0x9c>
100018a8:	f7ff fdac 	bl	10001404 <hard_assertion_failure>
100018ac:	2301      	movs	r3, #1
100018ae:	0029      	movs	r1, r5
100018b0:	4399      	bics	r1, r3
100018b2:	688b      	ldr	r3, [r1, #8]
100018b4:	42a3      	cmp	r3, r4
100018b6:	d069      	beq.n	1000198c <irq_remove_handler+0x17c>
100018b8:	000a      	movs	r2, r1
100018ba:	e007      	b.n	100018cc <irq_remove_handler+0xbc>
100018bc:	0043      	lsls	r3, r0, #1
100018be:	181b      	adds	r3, r3, r0
100018c0:	009b      	lsls	r3, r3, #2
100018c2:	18fb      	adds	r3, r7, r3
100018c4:	6898      	ldr	r0, [r3, #8]
100018c6:	42a0      	cmp	r0, r4
100018c8:	d011      	beq.n	100018ee <irq_remove_handler+0xde>
100018ca:	001a      	movs	r2, r3
100018cc:	2006      	movs	r0, #6
100018ce:	5610      	ldrsb	r0, [r2, r0]
100018d0:	2800      	cmp	r0, #0
100018d2:	daf3      	bge.n	100018bc <irq_remove_handler+0xac>
100018d4:	9b00      	ldr	r3, [sp, #0]
100018d6:	2b00      	cmp	r3, #0
100018d8:	d005      	beq.n	100018e6 <irq_remove_handler+0xd6>
100018da:	465a      	mov	r2, fp
100018dc:	4b37      	ldr	r3, [pc, #220]	; (100019bc <irq_remove_handler+0x1ac>)
100018de:	601a      	str	r2, [r3, #0]
100018e0:	4b34      	ldr	r3, [pc, #208]	; (100019b4 <irq_remove_handler+0x1a4>)
100018e2:	601a      	str	r2, [r3, #0]
100018e4:	e7b7      	b.n	10001856 <irq_remove_handler+0x46>
100018e6:	465a      	mov	r2, fp
100018e8:	4b33      	ldr	r3, [pc, #204]	; (100019b8 <irq_remove_handler+0x1a8>)
100018ea:	601a      	str	r2, [r3, #0]
100018ec:	e7b3      	b.n	10001856 <irq_remove_handler+0x46>
100018ee:	2006      	movs	r0, #6
100018f0:	5618      	ldrsb	r0, [r3, r0]
100018f2:	2800      	cmp	r0, #0
100018f4:	db22      	blt.n	1000193c <irq_remove_handler+0x12c>
100018f6:	0042      	lsls	r2, r0, #1
100018f8:	1811      	adds	r1, r2, r0
100018fa:	0089      	lsls	r1, r1, #2
100018fc:	187c      	adds	r4, r7, r1
100018fe:	4688      	mov	r8, r1
10001900:	68a1      	ldr	r1, [r4, #8]
10001902:	6099      	str	r1, [r3, #8]
10001904:	79e1      	ldrb	r1, [r4, #7]
10001906:	71d9      	strb	r1, [r3, #7]
10001908:	2106      	movs	r1, #6
1000190a:	5661      	ldrsb	r1, [r4, r1]
1000190c:	7199      	strb	r1, [r3, #6]
1000190e:	79a1      	ldrb	r1, [r4, #6]
10001910:	297f      	cmp	r1, #127	; 0x7f
10001912:	d82b      	bhi.n	1000196c <irq_remove_handler+0x15c>
10001914:	88a4      	ldrh	r4, [r4, #4]
10001916:	1af9      	subs	r1, r7, r3
10001918:	0564      	lsls	r4, r4, #21
1000191a:	1524      	asrs	r4, r4, #20
1000191c:	4444      	add	r4, r8
1000191e:	1909      	adds	r1, r1, r4
10001920:	24e0      	movs	r4, #224	; 0xe0
10001922:	0509      	lsls	r1, r1, #20
10001924:	0d49      	lsrs	r1, r1, #21
10001926:	0224      	lsls	r4, r4, #8
10001928:	4321      	orrs	r1, r4
1000192a:	8099      	strh	r1, [r3, #4]
1000192c:	1812      	adds	r2, r2, r0
1000192e:	4b24      	ldr	r3, [pc, #144]	; (100019c0 <irq_remove_handler+0x1b0>)
10001930:	0092      	lsls	r2, r2, #2
10001932:	18bf      	adds	r7, r7, r2
10001934:	781a      	ldrb	r2, [r3, #0]
10001936:	7018      	strb	r0, [r3, #0]
10001938:	71ba      	strb	r2, [r7, #6]
1000193a:	e7cb      	b.n	100018d4 <irq_remove_handler+0xc4>
1000193c:	9801      	ldr	r0, [sp, #4]
1000193e:	2800      	cmp	r0, #0
10001940:	d117      	bne.n	10001972 <irq_remove_handler+0x162>
10001942:	30ff      	adds	r0, #255	; 0xff
10001944:	7190      	strb	r0, [r2, #6]
10001946:	481f      	ldr	r0, [pc, #124]	; (100019c4 <irq_remove_handler+0x1b4>)
10001948:	8090      	strh	r0, [r2, #4]
1000194a:	4a1d      	ldr	r2, [pc, #116]	; (100019c0 <irq_remove_handler+0x1b0>)
1000194c:	1bcf      	subs	r7, r1, r7
1000194e:	7810      	ldrb	r0, [r2, #0]
10001950:	10bf      	asrs	r7, r7, #2
10001952:	7198      	strb	r0, [r3, #6]
10001954:	00bb      	lsls	r3, r7, #2
10001956:	19db      	adds	r3, r3, r7
10001958:	0119      	lsls	r1, r3, #4
1000195a:	185b      	adds	r3, r3, r1
1000195c:	0219      	lsls	r1, r3, #8
1000195e:	185b      	adds	r3, r3, r1
10001960:	0419      	lsls	r1, r3, #16
10001962:	185b      	adds	r3, r3, r1
10001964:	005b      	lsls	r3, r3, #1
10001966:	19db      	adds	r3, r3, r7
10001968:	7013      	strb	r3, [r2, #0]
1000196a:	e7b3      	b.n	100018d4 <irq_remove_handler+0xc4>
1000196c:	21bd      	movs	r1, #189	; 0xbd
1000196e:	0209      	lsls	r1, r1, #8
10001970:	e7db      	b.n	1000192a <irq_remove_handler+0x11a>
10001972:	4a15      	ldr	r2, [pc, #84]	; (100019c8 <irq_remove_handler+0x1b8>)
10001974:	4915      	ldr	r1, [pc, #84]	; (100019cc <irq_remove_handler+0x1bc>)
10001976:	1ad2      	subs	r2, r2, r3
10001978:	3a08      	subs	r2, #8
1000197a:	0250      	lsls	r0, r2, #9
1000197c:	0d40      	lsrs	r0, r0, #21
1000197e:	4301      	orrs	r1, r0
10001980:	8099      	strh	r1, [r3, #4]
10001982:	4913      	ldr	r1, [pc, #76]	; (100019d0 <irq_remove_handler+0x1c0>)
10001984:	0852      	lsrs	r2, r2, #1
10001986:	430a      	orrs	r2, r1
10001988:	80da      	strh	r2, [r3, #6]
1000198a:	e7a3      	b.n	100018d4 <irq_remove_handler+0xc4>
1000198c:	2006      	movs	r0, #6
1000198e:	5608      	ldrsb	r0, [r1, r0]
10001990:	000b      	movs	r3, r1
10001992:	2800      	cmp	r0, #0
10001994:	daaf      	bge.n	100018f6 <irq_remove_handler+0xe6>
10001996:	9a01      	ldr	r2, [sp, #4]
10001998:	2a00      	cmp	r2, #0
1000199a:	d1ea      	bne.n	10001972 <irq_remove_handler+0x162>
1000199c:	000b      	movs	r3, r1
1000199e:	4645      	mov	r5, r8
100019a0:	e7d3      	b.n	1000194a <irq_remove_handler+0x13a>
100019a2:	46c0      	nop			; (mov r8, r8)
100019a4:	d0000124 	.word	0xd0000124
100019a8:	e000ed00 	.word	0xe000ed00
100019ac:	100002cd 	.word	0x100002cd
100019b0:	2000018c 	.word	0x2000018c
100019b4:	e000e100 	.word	0xe000e100
100019b8:	e000e180 	.word	0xe000e180
100019bc:	e000e280 	.word	0xe000e280
100019c0:	20000b29 	.word	0x20000b29
100019c4:	ffffbd00 	.word	0xffffbd00
100019c8:	200001c6 	.word	0x200001c6
100019cc:	fffff000 	.word	0xfffff000
100019d0:	fffff800 	.word	0xfffff800

100019d4 <irq_add_tail_to_free_list>:
100019d4:	b5f8      	push	{r3, r4, r5, r6, r7, lr}
100019d6:	2501      	movs	r5, #1
100019d8:	0004      	movs	r4, r0
100019da:	4305      	orrs	r5, r0
100019dc:	f7fe fbdb 	bl	10000196 <__get_current_exception>
100019e0:	f3ef 8610 	mrs	r6, PRIMASK
100019e4:	b672      	cpsid	i
100019e6:	4a24      	ldr	r2, [pc, #144]	; (10001a78 <irq_add_tail_to_free_list+0xa4>)
100019e8:	6813      	ldr	r3, [r2, #0]
100019ea:	2b00      	cmp	r3, #0
100019ec:	d0fc      	beq.n	100019e8 <irq_add_tail_to_free_list+0x14>
100019ee:	f3bf 8f5f 	dmb	sy
100019f2:	4f22      	ldr	r7, [pc, #136]	; (10001a7c <irq_add_tail_to_free_list+0xa8>)
100019f4:	0080      	lsls	r0, r0, #2
100019f6:	1be1      	subs	r1, r4, r7
100019f8:	1089      	asrs	r1, r1, #2
100019fa:	008a      	lsls	r2, r1, #2
100019fc:	1852      	adds	r2, r2, r1
100019fe:	0113      	lsls	r3, r2, #4
10001a00:	18d2      	adds	r2, r2, r3
10001a02:	0213      	lsls	r3, r2, #8
10001a04:	18d2      	adds	r2, r2, r3
10001a06:	0413      	lsls	r3, r2, #16
10001a08:	18d3      	adds	r3, r2, r3
10001a0a:	4a1d      	ldr	r2, [pc, #116]	; (10001a80 <irq_add_tail_to_free_list+0xac>)
10001a0c:	005b      	lsls	r3, r3, #1
10001a0e:	185b      	adds	r3, r3, r1
10001a10:	6891      	ldr	r1, [r2, #8]
10001a12:	5809      	ldr	r1, [r1, r0]
10001a14:	42a9      	cmp	r1, r5
10001a16:	d01c      	beq.n	10001a52 <irq_add_tail_to_free_list+0x7e>
10001a18:	2206      	movs	r2, #6
10001a1a:	56ba      	ldrsb	r2, [r7, r2]
10001a1c:	4293      	cmp	r3, r2
10001a1e:	d01c      	beq.n	10001a5a <irq_add_tail_to_free_list+0x86>
10001a20:	2212      	movs	r2, #18
10001a22:	56ba      	ldrsb	r2, [r7, r2]
10001a24:	4293      	cmp	r3, r2
10001a26:	d022      	beq.n	10001a6e <irq_add_tail_to_free_list+0x9a>
10001a28:	221e      	movs	r2, #30
10001a2a:	56ba      	ldrsb	r2, [r7, r2]
10001a2c:	4293      	cmp	r3, r2
10001a2e:	d020      	beq.n	10001a72 <irq_add_tail_to_free_list+0x9e>
10001a30:	222a      	movs	r2, #42	; 0x2a
10001a32:	56ba      	ldrsb	r2, [r7, r2]
10001a34:	2103      	movs	r1, #3
10001a36:	429a      	cmp	r2, r3
10001a38:	d010      	beq.n	10001a5c <irq_add_tail_to_free_list+0x88>
10001a3a:	4a12      	ldr	r2, [pc, #72]	; (10001a84 <irq_add_tail_to_free_list+0xb0>)
10001a3c:	7811      	ldrb	r1, [r2, #0]
10001a3e:	7013      	strb	r3, [r2, #0]
10001a40:	71a1      	strb	r1, [r4, #6]
10001a42:	f3bf 8f5f 	dmb	sy
10001a46:	2200      	movs	r2, #0
10001a48:	4b0b      	ldr	r3, [pc, #44]	; (10001a78 <irq_add_tail_to_free_list+0xa4>)
10001a4a:	601a      	str	r2, [r3, #0]
10001a4c:	f386 8810 	msr	PRIMASK, r6
10001a50:	bdf8      	pop	{r3, r4, r5, r6, r7, pc}
10001a52:	6892      	ldr	r2, [r2, #8]
10001a54:	490c      	ldr	r1, [pc, #48]	; (10001a88 <irq_add_tail_to_free_list+0xb4>)
10001a56:	5011      	str	r1, [r2, r0]
10001a58:	e7ef      	b.n	10001a3a <irq_add_tail_to_free_list+0x66>
10001a5a:	2100      	movs	r1, #0
10001a5c:	004a      	lsls	r2, r1, #1
10001a5e:	1852      	adds	r2, r2, r1
10001a60:	21ff      	movs	r1, #255	; 0xff
10001a62:	0092      	lsls	r2, r2, #2
10001a64:	18ba      	adds	r2, r7, r2
10001a66:	7191      	strb	r1, [r2, #6]
10001a68:	4908      	ldr	r1, [pc, #32]	; (10001a8c <irq_add_tail_to_free_list+0xb8>)
10001a6a:	8091      	strh	r1, [r2, #4]
10001a6c:	e7e5      	b.n	10001a3a <irq_add_tail_to_free_list+0x66>
10001a6e:	2101      	movs	r1, #1
10001a70:	e7f4      	b.n	10001a5c <irq_add_tail_to_free_list+0x88>
10001a72:	2102      	movs	r1, #2
10001a74:	e7f2      	b.n	10001a5c <irq_add_tail_to_free_list+0x88>
10001a76:	46c0      	nop			; (mov r8, r8)
10001a78:	d0000124 	.word	0xd0000124
10001a7c:	2000018c 	.word	0x2000018c
10001a80:	e000ed00 	.word	0xe000ed00
10001a84:	20000b29 	.word	0x20000b29
10001a88:	100002cd 	.word	0x100002cd
10001a8c:	ffffbd00 	.word	0xffffbd00

10001a90 <irq_init_priorities>:
10001a90:	b5f0      	push	{r4, r5, r6, r7, lr}
10001a92:	2200      	movs	r2, #0
10001a94:	2403      	movs	r4, #3
10001a96:	27ff      	movs	r7, #255	; 0xff
10001a98:	2680      	movs	r6, #128	; 0x80
10001a9a:	0020      	movs	r0, r4
10001a9c:	003d      	movs	r5, r7
10001a9e:	4b09      	ldr	r3, [pc, #36]	; (10001ac4 <irq_init_priorities+0x34>)
10001aa0:	0011      	movs	r1, r2
10001aa2:	469c      	mov	ip, r3
10001aa4:	4010      	ands	r0, r2
10001aa6:	00c0      	lsls	r0, r0, #3
10001aa8:	4085      	lsls	r5, r0
10001aaa:	43a1      	bics	r1, r4
10001aac:	4461      	add	r1, ip
10001aae:	680b      	ldr	r3, [r1, #0]
10001ab0:	3201      	adds	r2, #1
10001ab2:	43ab      	bics	r3, r5
10001ab4:	0035      	movs	r5, r6
10001ab6:	4085      	lsls	r5, r0
10001ab8:	432b      	orrs	r3, r5
10001aba:	600b      	str	r3, [r1, #0]
10001abc:	2a20      	cmp	r2, #32
10001abe:	d1ec      	bne.n	10001a9a <irq_init_priorities+0xa>
10001ac0:	bdf0      	pop	{r4, r5, r6, r7, pc}
10001ac2:	46c0      	nop			; (mov r8, r8)
10001ac4:	e000e400 	.word	0xe000e400

10001ac8 <_out_null>:
10001ac8:	4770      	bx	lr
10001aca:	46c0      	nop			; (mov r8, r8)

10001acc <_out_rev>:
10001acc:	b5f8      	push	{r3, r4, r5, r6, r7, lr}
10001ace:	4657      	mov	r7, sl
10001ad0:	464e      	mov	r6, r9
10001ad2:	46de      	mov	lr, fp
10001ad4:	4645      	mov	r5, r8
10001ad6:	b5e0      	push	{r5, r6, r7, lr}
10001ad8:	001f      	movs	r7, r3
10001ada:	9b0a      	ldr	r3, [sp, #40]	; 0x28
10001adc:	0005      	movs	r5, r0
10001ade:	469b      	mov	fp, r3
10001ae0:	9b0d      	ldr	r3, [sp, #52]	; 0x34
10001ae2:	000e      	movs	r6, r1
10001ae4:	4691      	mov	r9, r2
10001ae6:	4692      	mov	sl, r2
10001ae8:	079b      	lsls	r3, r3, #30
10001aea:	d118      	bne.n	10001b1e <_out_rev+0x52>
10001aec:	9b0b      	ldr	r3, [sp, #44]	; 0x2c
10001aee:	9a0c      	ldr	r2, [sp, #48]	; 0x30
10001af0:	4293      	cmp	r3, r2
10001af2:	d214      	bcs.n	10001b1e <_out_rev+0x52>
10001af4:	0013      	movs	r3, r2
10001af6:	9a0b      	ldr	r2, [sp, #44]	; 0x2c
10001af8:	46b8      	mov	r8, r7
10001afa:	1a9b      	subs	r3, r3, r2
10001afc:	444b      	add	r3, r9
10001afe:	464c      	mov	r4, r9
10001b00:	000f      	movs	r7, r1
10001b02:	0006      	movs	r6, r0
10001b04:	001d      	movs	r5, r3
10001b06:	0022      	movs	r2, r4
10001b08:	4643      	mov	r3, r8
10001b0a:	3401      	adds	r4, #1
10001b0c:	0039      	movs	r1, r7
10001b0e:	2020      	movs	r0, #32
10001b10:	47b0      	blx	r6
10001b12:	42ac      	cmp	r4, r5
10001b14:	d1f7      	bne.n	10001b06 <_out_rev+0x3a>
10001b16:	46aa      	mov	sl, r5
10001b18:	0035      	movs	r5, r6
10001b1a:	003e      	movs	r6, r7
10001b1c:	4647      	mov	r7, r8
10001b1e:	9b0b      	ldr	r3, [sp, #44]	; 0x2c
10001b20:	2b00      	cmp	r3, #0
10001b22:	d038      	beq.n	10001b96 <_out_rev+0xca>
10001b24:	449a      	add	sl, r3
10001b26:	001c      	movs	r4, r3
10001b28:	46d0      	mov	r8, sl
10001b2a:	4653      	mov	r3, sl
10001b2c:	1b1a      	subs	r2, r3, r4
10001b2e:	465b      	mov	r3, fp
10001b30:	3c01      	subs	r4, #1
10001b32:	5d18      	ldrb	r0, [r3, r4]
10001b34:	0031      	movs	r1, r6
10001b36:	003b      	movs	r3, r7
10001b38:	47a8      	blx	r5
10001b3a:	2c00      	cmp	r4, #0
10001b3c:	d1f5      	bne.n	10001b2a <_out_rev+0x5e>
10001b3e:	9b0d      	ldr	r3, [sp, #52]	; 0x34
10001b40:	079b      	lsls	r3, r3, #30
10001b42:	d521      	bpl.n	10001b88 <_out_rev+0xbc>
10001b44:	4643      	mov	r3, r8
10001b46:	464a      	mov	r2, r9
10001b48:	1a9c      	subs	r4, r3, r2
10001b4a:	9b0c      	ldr	r3, [sp, #48]	; 0x30
10001b4c:	42a3      	cmp	r3, r4
10001b4e:	d91b      	bls.n	10001b88 <_out_rev+0xbc>
10001b50:	003a      	movs	r2, r7
10001b52:	469a      	mov	sl, r3
10001b54:	464f      	mov	r7, r9
10001b56:	4691      	mov	r9, r2
10001b58:	19e2      	adds	r2, r4, r7
10001b5a:	464b      	mov	r3, r9
10001b5c:	0031      	movs	r1, r6
10001b5e:	2020      	movs	r0, #32
10001b60:	3401      	adds	r4, #1
10001b62:	47a8      	blx	r5
10001b64:	4554      	cmp	r4, sl
10001b66:	d3f7      	bcc.n	10001b58 <_out_rev+0x8c>
10001b68:	4643      	mov	r3, r8
10001b6a:	990c      	ldr	r1, [sp, #48]	; 0x30
10001b6c:	1bdb      	subs	r3, r3, r7
10001b6e:	3301      	adds	r3, #1
10001b70:	46b9      	mov	r9, r7
10001b72:	2200      	movs	r2, #0
10001b74:	4299      	cmp	r1, r3
10001b76:	d303      	bcc.n	10001b80 <_out_rev+0xb4>
10001b78:	4643      	mov	r3, r8
10001b7a:	1e4a      	subs	r2, r1, #1
10001b7c:	444a      	add	r2, r9
10001b7e:	1ad2      	subs	r2, r2, r3
10001b80:	4643      	mov	r3, r8
10001b82:	4690      	mov	r8, r2
10001b84:	3301      	adds	r3, #1
10001b86:	4498      	add	r8, r3
10001b88:	4640      	mov	r0, r8
10001b8a:	bc3c      	pop	{r2, r3, r4, r5}
10001b8c:	4690      	mov	r8, r2
10001b8e:	4699      	mov	r9, r3
10001b90:	46a2      	mov	sl, r4
10001b92:	46ab      	mov	fp, r5
10001b94:	bdf8      	pop	{r3, r4, r5, r6, r7, pc}
10001b96:	46d0      	mov	r8, sl
10001b98:	e7d1      	b.n	10001b3e <_out_rev+0x72>
10001b9a:	46c0      	nop			; (mov r8, r8)

10001b9c <_ntoa_format>:
10001b9c:	b5f0      	push	{r4, r5, r6, r7, lr}
10001b9e:	464f      	mov	r7, r9
10001ba0:	4646      	mov	r6, r8
10001ba2:	46d6      	mov	lr, sl
10001ba4:	b5c0      	push	{r6, r7, lr}
10001ba6:	b084      	sub	sp, #16
10001ba8:	4698      	mov	r8, r3
10001baa:	ab0e      	add	r3, sp, #56	; 0x38
10001bac:	781b      	ldrb	r3, [r3, #0]
10001bae:	9f12      	ldr	r7, [sp, #72]	; 0x48
10001bb0:	4699      	mov	r9, r3
10001bb2:	4694      	mov	ip, r2
10001bb4:	9c0d      	ldr	r4, [sp, #52]	; 0x34
10001bb6:	9b10      	ldr	r3, [sp, #64]	; 0x40
10001bb8:	9e11      	ldr	r6, [sp, #68]	; 0x44
10001bba:	07ba      	lsls	r2, r7, #30
10001bbc:	d425      	bmi.n	10001c0a <_ntoa_format+0x6e>
10001bbe:	2e00      	cmp	r6, #0
10001bc0:	d169      	bne.n	10001c96 <_ntoa_format+0xfa>
10001bc2:	429c      	cmp	r4, r3
10001bc4:	d300      	bcc.n	10001bc8 <_ntoa_format+0x2c>
10001bc6:	e0c2      	b.n	10001d4e <_ntoa_format+0x1b2>
10001bc8:	2201      	movs	r2, #1
10001bca:	403a      	ands	r2, r7
10001bcc:	4692      	mov	sl, r2
10001bce:	2c1f      	cmp	r4, #31
10001bd0:	d900      	bls.n	10001bd4 <_ntoa_format+0x38>
10001bd2:	e0bb      	b.n	10001d4c <_ntoa_format+0x1b0>
10001bd4:	9a0c      	ldr	r2, [sp, #48]	; 0x30
10001bd6:	1e55      	subs	r5, r2, #1
10001bd8:	2230      	movs	r2, #48	; 0x30
10001bda:	e001      	b.n	10001be0 <_ntoa_format+0x44>
10001bdc:	2c20      	cmp	r4, #32
10001bde:	d003      	beq.n	10001be8 <_ntoa_format+0x4c>
10001be0:	3401      	adds	r4, #1
10001be2:	552a      	strb	r2, [r5, r4]
10001be4:	42a3      	cmp	r3, r4
10001be6:	d8f9      	bhi.n	10001bdc <_ntoa_format+0x40>
10001be8:	4652      	mov	r2, sl
10001bea:	2a00      	cmp	r2, #0
10001bec:	d00d      	beq.n	10001c0a <_ntoa_format+0x6e>
10001bee:	42b4      	cmp	r4, r6
10001bf0:	d20b      	bcs.n	10001c0a <_ntoa_format+0x6e>
10001bf2:	2c1f      	cmp	r4, #31
10001bf4:	d862      	bhi.n	10001cbc <_ntoa_format+0x120>
10001bf6:	9a0c      	ldr	r2, [sp, #48]	; 0x30
10001bf8:	1e55      	subs	r5, r2, #1
10001bfa:	2230      	movs	r2, #48	; 0x30
10001bfc:	e001      	b.n	10001c02 <_ntoa_format+0x66>
10001bfe:	2c20      	cmp	r4, #32
10001c00:	d05c      	beq.n	10001cbc <_ntoa_format+0x120>
10001c02:	3401      	adds	r4, #1
10001c04:	552a      	strb	r2, [r5, r4]
10001c06:	42b4      	cmp	r4, r6
10001c08:	d1f9      	bne.n	10001bfe <_ntoa_format+0x62>
10001c0a:	06fa      	lsls	r2, r7, #27
10001c0c:	d535      	bpl.n	10001c7a <_ntoa_format+0xde>
10001c0e:	057a      	lsls	r2, r7, #21
10001c10:	d45d      	bmi.n	10001cce <_ntoa_format+0x132>
10001c12:	2c00      	cmp	r4, #0
10001c14:	d157      	bne.n	10001cc6 <_ntoa_format+0x12a>
10001c16:	9b0f      	ldr	r3, [sp, #60]	; 0x3c
10001c18:	2b10      	cmp	r3, #16
10001c1a:	d100      	bne.n	10001c1e <_ntoa_format+0x82>
10001c1c:	e07c      	b.n	10001d18 <_ntoa_format+0x17c>
10001c1e:	9b0f      	ldr	r3, [sp, #60]	; 0x3c
10001c20:	2b02      	cmp	r3, #2
10001c22:	d100      	bne.n	10001c26 <_ntoa_format+0x8a>
10001c24:	e08d      	b.n	10001d42 <_ntoa_format+0x1a6>
10001c26:	2330      	movs	r3, #48	; 0x30
10001c28:	9a0c      	ldr	r2, [sp, #48]	; 0x30
10001c2a:	2401      	movs	r4, #1
10001c2c:	7013      	strb	r3, [r2, #0]
10001c2e:	464b      	mov	r3, r9
10001c30:	2b00      	cmp	r3, #0
10001c32:	d027      	beq.n	10001c84 <_ntoa_format+0xe8>
10001c34:	232d      	movs	r3, #45	; 0x2d
10001c36:	9a0c      	ldr	r2, [sp, #48]	; 0x30
10001c38:	5513      	strb	r3, [r2, r4]
10001c3a:	3401      	adds	r4, #1
10001c3c:	9b0c      	ldr	r3, [sp, #48]	; 0x30
10001c3e:	4662      	mov	r2, ip
10001c40:	9300      	str	r3, [sp, #0]
10001c42:	9703      	str	r7, [sp, #12]
10001c44:	4643      	mov	r3, r8
10001c46:	9602      	str	r6, [sp, #8]
10001c48:	9401      	str	r4, [sp, #4]
10001c4a:	f7ff ff3f 	bl	10001acc <_out_rev>
10001c4e:	b004      	add	sp, #16
10001c50:	bc1c      	pop	{r2, r3, r4}
10001c52:	4690      	mov	r8, r2
10001c54:	4699      	mov	r9, r3
10001c56:	46a2      	mov	sl, r4
10001c58:	bdf0      	pop	{r4, r5, r6, r7, pc}
10001c5a:	06bb      	lsls	r3, r7, #26
10001c5c:	d463      	bmi.n	10001d26 <_ntoa_format+0x18a>
10001c5e:	2c20      	cmp	r4, #32
10001c60:	d0ec      	beq.n	10001c3c <_ntoa_format+0xa0>
10001c62:	9b0c      	ldr	r3, [sp, #48]	; 0x30
10001c64:	191a      	adds	r2, r3, r4
10001c66:	3401      	adds	r4, #1
10001c68:	2378      	movs	r3, #120	; 0x78
10001c6a:	7013      	strb	r3, [r2, #0]
10001c6c:	2c20      	cmp	r4, #32
10001c6e:	d0e5      	beq.n	10001c3c <_ntoa_format+0xa0>
10001c70:	2230      	movs	r2, #48	; 0x30
10001c72:	9b0c      	ldr	r3, [sp, #48]	; 0x30
10001c74:	191b      	adds	r3, r3, r4
10001c76:	701a      	strb	r2, [r3, #0]
10001c78:	3401      	adds	r4, #1
10001c7a:	2c20      	cmp	r4, #32
10001c7c:	d0de      	beq.n	10001c3c <_ntoa_format+0xa0>
10001c7e:	464b      	mov	r3, r9
10001c80:	2b00      	cmp	r3, #0
10001c82:	d1d7      	bne.n	10001c34 <_ntoa_format+0x98>
10001c84:	077b      	lsls	r3, r7, #29
10001c86:	d435      	bmi.n	10001cf4 <_ntoa_format+0x158>
10001c88:	073b      	lsls	r3, r7, #28
10001c8a:	d5d7      	bpl.n	10001c3c <_ntoa_format+0xa0>
10001c8c:	2320      	movs	r3, #32
10001c8e:	9a0c      	ldr	r2, [sp, #48]	; 0x30
10001c90:	5513      	strb	r3, [r2, r4]
10001c92:	3401      	adds	r4, #1
10001c94:	e7d2      	b.n	10001c3c <_ntoa_format+0xa0>
10001c96:	2201      	movs	r2, #1
10001c98:	0015      	movs	r5, r2
10001c9a:	403d      	ands	r5, r7
10001c9c:	46aa      	mov	sl, r5
10001c9e:	423a      	tst	r2, r7
10001ca0:	d020      	beq.n	10001ce4 <_ntoa_format+0x148>
10001ca2:	464a      	mov	r2, r9
10001ca4:	2a00      	cmp	r2, #0
10001ca6:	d12a      	bne.n	10001cfe <_ntoa_format+0x162>
10001ca8:	320c      	adds	r2, #12
10001caa:	423a      	tst	r2, r7
10001cac:	d127      	bne.n	10001cfe <_ntoa_format+0x162>
10001cae:	429c      	cmp	r4, r3
10001cb0:	d29d      	bcs.n	10001bee <_ntoa_format+0x52>
10001cb2:	2c1f      	cmp	r4, #31
10001cb4:	d800      	bhi.n	10001cb8 <_ntoa_format+0x11c>
10001cb6:	e78d      	b.n	10001bd4 <_ntoa_format+0x38>
10001cb8:	2e20      	cmp	r6, #32
10001cba:	d919      	bls.n	10001cf0 <_ntoa_format+0x154>
10001cbc:	2420      	movs	r4, #32
10001cbe:	06fa      	lsls	r2, r7, #27
10001cc0:	d5bc      	bpl.n	10001c3c <_ntoa_format+0xa0>
10001cc2:	057a      	lsls	r2, r7, #21
10001cc4:	d403      	bmi.n	10001cce <_ntoa_format+0x132>
10001cc6:	42a3      	cmp	r3, r4
10001cc8:	d01b      	beq.n	10001d02 <_ntoa_format+0x166>
10001cca:	42a6      	cmp	r6, r4
10001ccc:	d019      	beq.n	10001d02 <_ntoa_format+0x166>
10001cce:	9b0f      	ldr	r3, [sp, #60]	; 0x3c
10001cd0:	2b10      	cmp	r3, #16
10001cd2:	d0c2      	beq.n	10001c5a <_ntoa_format+0xbe>
10001cd4:	2b02      	cmp	r3, #2
10001cd6:	d1c9      	bne.n	10001c6c <_ntoa_format+0xd0>
10001cd8:	2c20      	cmp	r4, #32
10001cda:	d0af      	beq.n	10001c3c <_ntoa_format+0xa0>
10001cdc:	9b0c      	ldr	r3, [sp, #48]	; 0x30
10001cde:	191b      	adds	r3, r3, r4
10001ce0:	3401      	adds	r4, #1
10001ce2:	e040      	b.n	10001d66 <_ntoa_format+0x1ca>
10001ce4:	429c      	cmp	r4, r3
10001ce6:	d300      	bcc.n	10001cea <_ntoa_format+0x14e>
10001ce8:	e78f      	b.n	10001c0a <_ntoa_format+0x6e>
10001cea:	2c1f      	cmp	r4, #31
10001cec:	d800      	bhi.n	10001cf0 <_ntoa_format+0x154>
10001cee:	e771      	b.n	10001bd4 <_ntoa_format+0x38>
10001cf0:	2420      	movs	r4, #32
10001cf2:	e78a      	b.n	10001c0a <_ntoa_format+0x6e>
10001cf4:	232b      	movs	r3, #43	; 0x2b
10001cf6:	9a0c      	ldr	r2, [sp, #48]	; 0x30
10001cf8:	5513      	strb	r3, [r2, r4]
10001cfa:	3401      	adds	r4, #1
10001cfc:	e79e      	b.n	10001c3c <_ntoa_format+0xa0>
10001cfe:	3e01      	subs	r6, #1
10001d00:	e7d5      	b.n	10001cae <_ntoa_format+0x112>
10001d02:	1e63      	subs	r3, r4, #1
10001d04:	2c01      	cmp	r4, #1
10001d06:	d100      	bne.n	10001d0a <_ntoa_format+0x16e>
10001d08:	e785      	b.n	10001c16 <_ntoa_format+0x7a>
10001d0a:	9a0f      	ldr	r2, [sp, #60]	; 0x3c
10001d0c:	2a10      	cmp	r2, #16
10001d0e:	d020      	beq.n	10001d52 <_ntoa_format+0x1b6>
10001d10:	2a02      	cmp	r2, #2
10001d12:	d025      	beq.n	10001d60 <_ntoa_format+0x1c4>
10001d14:	001c      	movs	r4, r3
10001d16:	e7ab      	b.n	10001c70 <_ntoa_format+0xd4>
10001d18:	06bb      	lsls	r3, r7, #26
10001d1a:	d40d      	bmi.n	10001d38 <_ntoa_format+0x19c>
10001d1c:	2378      	movs	r3, #120	; 0x78
10001d1e:	9a0c      	ldr	r2, [sp, #48]	; 0x30
10001d20:	2401      	movs	r4, #1
10001d22:	7013      	strb	r3, [r2, #0]
10001d24:	e7a4      	b.n	10001c70 <_ntoa_format+0xd4>
10001d26:	2c20      	cmp	r4, #32
10001d28:	d100      	bne.n	10001d2c <_ntoa_format+0x190>
10001d2a:	e787      	b.n	10001c3c <_ntoa_format+0xa0>
10001d2c:	2258      	movs	r2, #88	; 0x58
10001d2e:	9b0c      	ldr	r3, [sp, #48]	; 0x30
10001d30:	191b      	adds	r3, r3, r4
10001d32:	701a      	strb	r2, [r3, #0]
10001d34:	3401      	adds	r4, #1
10001d36:	e799      	b.n	10001c6c <_ntoa_format+0xd0>
10001d38:	2358      	movs	r3, #88	; 0x58
10001d3a:	9a0c      	ldr	r2, [sp, #48]	; 0x30
10001d3c:	2401      	movs	r4, #1
10001d3e:	7013      	strb	r3, [r2, #0]
10001d40:	e796      	b.n	10001c70 <_ntoa_format+0xd4>
10001d42:	9a0c      	ldr	r2, [sp, #48]	; 0x30
10001d44:	3360      	adds	r3, #96	; 0x60
10001d46:	2401      	movs	r4, #1
10001d48:	7013      	strb	r3, [r2, #0]
10001d4a:	e791      	b.n	10001c70 <_ntoa_format+0xd4>
10001d4c:	2420      	movs	r4, #32
10001d4e:	2600      	movs	r6, #0
10001d50:	e75b      	b.n	10001c0a <_ntoa_format+0x6e>
10001d52:	3c02      	subs	r4, #2
10001d54:	06ba      	lsls	r2, r7, #26
10001d56:	d4e9      	bmi.n	10001d2c <_ntoa_format+0x190>
10001d58:	9a0c      	ldr	r2, [sp, #48]	; 0x30
10001d5a:	1912      	adds	r2, r2, r4
10001d5c:	001c      	movs	r4, r3
10001d5e:	e783      	b.n	10001c68 <_ntoa_format+0xcc>
10001d60:	9a0c      	ldr	r2, [sp, #48]	; 0x30
10001d62:	4692      	mov	sl, r2
10001d64:	4453      	add	r3, sl
10001d66:	2262      	movs	r2, #98	; 0x62
10001d68:	701a      	strb	r2, [r3, #0]
10001d6a:	e77f      	b.n	10001c6c <_ntoa_format+0xd0>

10001d6c <_out_char>:
10001d6c:	b510      	push	{r4, lr}
10001d6e:	2800      	cmp	r0, #0
10001d70:	d100      	bne.n	10001d74 <_out_char+0x8>
10001d72:	bd10      	pop	{r4, pc}
10001d74:	f002 fa04 	bl	10004180 <__wrap_putchar>
10001d78:	e7fb      	b.n	10001d72 <_out_char+0x6>
10001d7a:	46c0      	nop			; (mov r8, r8)

10001d7c <_out_fct>:
10001d7c:	000b      	movs	r3, r1
10001d7e:	b510      	push	{r4, lr}
10001d80:	2800      	cmp	r0, #0
10001d82:	d002      	beq.n	10001d8a <_out_fct+0xe>
10001d84:	6849      	ldr	r1, [r1, #4]
10001d86:	681b      	ldr	r3, [r3, #0]
10001d88:	4798      	blx	r3
10001d8a:	bd10      	pop	{r4, pc}

10001d8c <_etoa>:
10001d8c:	b5f0      	push	{r4, r5, r6, r7, lr}
10001d8e:	46de      	mov	lr, fp
10001d90:	4657      	mov	r7, sl
10001d92:	464e      	mov	r6, r9
10001d94:	4645      	mov	r5, r8
10001d96:	b5e0      	push	{r5, r6, r7, lr}
10001d98:	b09b      	sub	sp, #108	; 0x6c
10001d9a:	469a      	mov	sl, r3
10001d9c:	9b24      	ldr	r3, [sp, #144]	; 0x90
10001d9e:	468b      	mov	fp, r1
10001da0:	4699      	mov	r9, r3
10001da2:	9b25      	ldr	r3, [sp, #148]	; 0x94
10001da4:	900b      	str	r0, [sp, #44]	; 0x2c
10001da6:	4698      	mov	r8, r3
10001da8:	920c      	str	r2, [sp, #48]	; 0x30
10001daa:	4643      	mov	r3, r8
10001dac:	464a      	mov	r2, r9
10001dae:	4648      	mov	r0, r9
10001db0:	4641      	mov	r1, r8
10001db2:	f001 fccc 	bl	1000374e <__wrap___aeabi_dcmpun>
10001db6:	2800      	cmp	r0, #0
10001db8:	d000      	beq.n	10001dbc <_etoa+0x30>
10001dba:	e1a3      	b.n	10002104 <_etoa+0x378>
10001dbc:	2201      	movs	r2, #1
10001dbe:	4648      	mov	r0, r9
10001dc0:	4641      	mov	r1, r8
10001dc2:	4be2      	ldr	r3, [pc, #904]	; (1000214c <_etoa+0x3c0>)
10001dc4:	4252      	negs	r2, r2
10001dc6:	f001 fcbd 	bl	10003744 <__wrap___aeabi_dcmpgt>
10001dca:	2800      	cmp	r0, #0
10001dcc:	d000      	beq.n	10001dd0 <_etoa+0x44>
10001dce:	e199      	b.n	10002104 <_etoa+0x378>
10001dd0:	2201      	movs	r2, #1
10001dd2:	4648      	mov	r0, r9
10001dd4:	4641      	mov	r1, r8
10001dd6:	4bde      	ldr	r3, [pc, #888]	; (10002150 <_etoa+0x3c4>)
10001dd8:	4252      	negs	r2, r2
10001dda:	f001 fc9d 	bl	10003718 <__wrap___aeabi_dcmplt>
10001dde:	2800      	cmp	r0, #0
10001de0:	d000      	beq.n	10001de4 <_etoa+0x58>
10001de2:	e18f      	b.n	10002104 <_etoa+0x378>
10001de4:	2200      	movs	r2, #0
10001de6:	2300      	movs	r3, #0
10001de8:	4648      	mov	r0, r9
10001dea:	4641      	mov	r1, r8
10001dec:	f001 fc94 	bl	10003718 <__wrap___aeabi_dcmplt>
10001df0:	2800      	cmp	r0, #0
10001df2:	d000      	beq.n	10001df6 <_etoa+0x6a>
10001df4:	e1de      	b.n	100021b4 <_etoa+0x428>
10001df6:	464a      	mov	r2, r9
10001df8:	4643      	mov	r3, r8
10001dfa:	920a      	str	r2, [sp, #40]	; 0x28
10001dfc:	9309      	str	r3, [sp, #36]	; 0x24
10001dfe:	2380      	movs	r3, #128	; 0x80
10001e00:	9a28      	ldr	r2, [sp, #160]	; 0xa0
10001e02:	00db      	lsls	r3, r3, #3
10001e04:	401a      	ands	r2, r3
10001e06:	9211      	str	r2, [sp, #68]	; 0x44
10001e08:	9a28      	ldr	r2, [sp, #160]	; 0xa0
10001e0a:	421a      	tst	r2, r3
10001e0c:	d101      	bne.n	10001e12 <_etoa+0x86>
10001e0e:	2306      	movs	r3, #6
10001e10:	9326      	str	r3, [sp, #152]	; 0x98
10001e12:	4bd0      	ldr	r3, [pc, #832]	; (10002154 <_etoa+0x3c8>)
10001e14:	9f09      	ldr	r7, [sp, #36]	; 0x24
10001e16:	469c      	mov	ip, r3
10001e18:	0078      	lsls	r0, r7, #1
10001e1a:	0d40      	lsrs	r0, r0, #21
10001e1c:	4460      	add	r0, ip
10001e1e:	f001 fca9 	bl	10003774 <__wrap___aeabi_i2d>
10001e22:	4acd      	ldr	r2, [pc, #820]	; (10002158 <_etoa+0x3cc>)
10001e24:	4bcd      	ldr	r3, [pc, #820]	; (1000215c <_etoa+0x3d0>)
10001e26:	f001 fc35 	bl	10003694 <__wrap___aeabi_dmul>
10001e2a:	4acd      	ldr	r2, [pc, #820]	; (10002160 <_etoa+0x3d4>)
10001e2c:	4bcd      	ldr	r3, [pc, #820]	; (10002164 <_etoa+0x3d8>)
10001e2e:	f001 fc1f 	bl	10003670 <__wrap___aeabi_dadd>
10001e32:	033b      	lsls	r3, r7, #12
10001e34:	4acc      	ldr	r2, [pc, #816]	; (10002168 <_etoa+0x3dc>)
10001e36:	9e0a      	ldr	r6, [sp, #40]	; 0x28
10001e38:	0b1b      	lsrs	r3, r3, #12
10001e3a:	431a      	orrs	r2, r3
10001e3c:	0004      	movs	r4, r0
10001e3e:	000d      	movs	r5, r1
10001e40:	0030      	movs	r0, r6
10001e42:	0011      	movs	r1, r2
10001e44:	4bc9      	ldr	r3, [pc, #804]	; (1000216c <_etoa+0x3e0>)
10001e46:	2200      	movs	r2, #0
10001e48:	9709      	str	r7, [sp, #36]	; 0x24
10001e4a:	f001 fc08 	bl	1000365e <__wrap___aeabi_dsub>
10001e4e:	4ac8      	ldr	r2, [pc, #800]	; (10002170 <_etoa+0x3e4>)
10001e50:	4bc8      	ldr	r3, [pc, #800]	; (10002174 <_etoa+0x3e8>)
10001e52:	f001 fc1f 	bl	10003694 <__wrap___aeabi_dmul>
10001e56:	0002      	movs	r2, r0
10001e58:	000b      	movs	r3, r1
10001e5a:	0020      	movs	r0, r4
10001e5c:	0029      	movs	r1, r5
10001e5e:	f001 fc07 	bl	10003670 <__wrap___aeabi_dadd>
10001e62:	f001 fc9f 	bl	100037a4 <__wrap___aeabi_d2iz>
10001e66:	900d      	str	r0, [sp, #52]	; 0x34
10001e68:	f001 fc84 	bl	10003774 <__wrap___aeabi_i2d>
10001e6c:	4ac2      	ldr	r2, [pc, #776]	; (10002178 <_etoa+0x3ec>)
10001e6e:	4bc3      	ldr	r3, [pc, #780]	; (1000217c <_etoa+0x3f0>)
10001e70:	0004      	movs	r4, r0
10001e72:	000d      	movs	r5, r1
10001e74:	f001 fc0e 	bl	10003694 <__wrap___aeabi_dmul>
10001e78:	2200      	movs	r2, #0
10001e7a:	4bc1      	ldr	r3, [pc, #772]	; (10002180 <_etoa+0x3f4>)
10001e7c:	f001 fbf8 	bl	10003670 <__wrap___aeabi_dadd>
10001e80:	f001 fc90 	bl	100037a4 <__wrap___aeabi_d2iz>
10001e84:	4abf      	ldr	r2, [pc, #764]	; (10002184 <_etoa+0x3f8>)
10001e86:	0006      	movs	r6, r0
10001e88:	4bbf      	ldr	r3, [pc, #764]	; (10002188 <_etoa+0x3fc>)
10001e8a:	0020      	movs	r0, r4
10001e8c:	0029      	movs	r1, r5
10001e8e:	f001 fc01 	bl	10003694 <__wrap___aeabi_dmul>
10001e92:	0004      	movs	r4, r0
10001e94:	0030      	movs	r0, r6
10001e96:	000d      	movs	r5, r1
10001e98:	9610      	str	r6, [sp, #64]	; 0x40
10001e9a:	f001 fc6b 	bl	10003774 <__wrap___aeabi_i2d>
10001e9e:	4abb      	ldr	r2, [pc, #748]	; (1000218c <_etoa+0x400>)
10001ea0:	4bbb      	ldr	r3, [pc, #748]	; (10002190 <_etoa+0x404>)
10001ea2:	f001 fbf7 	bl	10003694 <__wrap___aeabi_dmul>
10001ea6:	0002      	movs	r2, r0
10001ea8:	000b      	movs	r3, r1
10001eaa:	0020      	movs	r0, r4
10001eac:	0029      	movs	r1, r5
10001eae:	f001 fbd6 	bl	1000365e <__wrap___aeabi_dsub>
10001eb2:	0002      	movs	r2, r0
10001eb4:	000b      	movs	r3, r1
10001eb6:	0006      	movs	r6, r0
10001eb8:	000f      	movs	r7, r1
10001eba:	f001 fbeb 	bl	10003694 <__wrap___aeabi_dmul>
10001ebe:	0032      	movs	r2, r6
10001ec0:	0004      	movs	r4, r0
10001ec2:	000d      	movs	r5, r1
10001ec4:	003b      	movs	r3, r7
10001ec6:	0030      	movs	r0, r6
10001ec8:	0039      	movs	r1, r7
10001eca:	f001 fbd1 	bl	10003670 <__wrap___aeabi_dadd>
10001ece:	2200      	movs	r2, #0
10001ed0:	900e      	str	r0, [sp, #56]	; 0x38
10001ed2:	910f      	str	r1, [sp, #60]	; 0x3c
10001ed4:	4baf      	ldr	r3, [pc, #700]	; (10002194 <_etoa+0x408>)
10001ed6:	0020      	movs	r0, r4
10001ed8:	0029      	movs	r1, r5
10001eda:	f001 fbd2 	bl	10003682 <__wrap___aeabi_ddiv>
10001ede:	2200      	movs	r2, #0
10001ee0:	4bad      	ldr	r3, [pc, #692]	; (10002198 <_etoa+0x40c>)
10001ee2:	f001 fbc5 	bl	10003670 <__wrap___aeabi_dadd>
10001ee6:	0002      	movs	r2, r0
10001ee8:	000b      	movs	r3, r1
10001eea:	0020      	movs	r0, r4
10001eec:	0029      	movs	r1, r5
10001eee:	f001 fbc8 	bl	10003682 <__wrap___aeabi_ddiv>
10001ef2:	2200      	movs	r2, #0
10001ef4:	4ba9      	ldr	r3, [pc, #676]	; (1000219c <_etoa+0x410>)
10001ef6:	f001 fbbb 	bl	10003670 <__wrap___aeabi_dadd>
10001efa:	0002      	movs	r2, r0
10001efc:	000b      	movs	r3, r1
10001efe:	0020      	movs	r0, r4
10001f00:	0029      	movs	r1, r5
10001f02:	f001 fbbe 	bl	10003682 <__wrap___aeabi_ddiv>
10001f06:	000d      	movs	r5, r1
10001f08:	2180      	movs	r1, #128	; 0x80
10001f0a:	0004      	movs	r4, r0
10001f0c:	0032      	movs	r2, r6
10001f0e:	003b      	movs	r3, r7
10001f10:	2000      	movs	r0, #0
10001f12:	05c9      	lsls	r1, r1, #23
10001f14:	f001 fba3 	bl	1000365e <__wrap___aeabi_dsub>
10001f18:	0002      	movs	r2, r0
10001f1a:	000b      	movs	r3, r1
10001f1c:	0020      	movs	r0, r4
10001f1e:	0029      	movs	r1, r5
10001f20:	f001 fba6 	bl	10003670 <__wrap___aeabi_dadd>
10001f24:	0002      	movs	r2, r0
10001f26:	000b      	movs	r3, r1
10001f28:	980e      	ldr	r0, [sp, #56]	; 0x38
10001f2a:	990f      	ldr	r1, [sp, #60]	; 0x3c
10001f2c:	f001 fba9 	bl	10003682 <__wrap___aeabi_ddiv>
10001f30:	2200      	movs	r2, #0
10001f32:	4b8d      	ldr	r3, [pc, #564]	; (10002168 <_etoa+0x3dc>)
10001f34:	f001 fb9c 	bl	10003670 <__wrap___aeabi_dadd>
10001f38:	9b10      	ldr	r3, [sp, #64]	; 0x40
10001f3a:	4a99      	ldr	r2, [pc, #612]	; (100021a0 <_etoa+0x414>)
10001f3c:	001c      	movs	r4, r3
10001f3e:	4694      	mov	ip, r2
10001f40:	4464      	add	r4, ip
10001f42:	2200      	movs	r2, #0
10001f44:	0523      	lsls	r3, r4, #20
10001f46:	f001 fba5 	bl	10003694 <__wrap___aeabi_dmul>
10001f4a:	0006      	movs	r6, r0
10001f4c:	000f      	movs	r7, r1
10001f4e:	0002      	movs	r2, r0
10001f50:	000b      	movs	r3, r1
10001f52:	980a      	ldr	r0, [sp, #40]	; 0x28
10001f54:	9909      	ldr	r1, [sp, #36]	; 0x24
10001f56:	f001 fbdf 	bl	10003718 <__wrap___aeabi_dcmplt>
10001f5a:	2800      	cmp	r0, #0
10001f5c:	d00a      	beq.n	10001f74 <_etoa+0x1e8>
10001f5e:	9b0d      	ldr	r3, [sp, #52]	; 0x34
10001f60:	0030      	movs	r0, r6
10001f62:	3b01      	subs	r3, #1
10001f64:	0039      	movs	r1, r7
10001f66:	930d      	str	r3, [sp, #52]	; 0x34
10001f68:	2200      	movs	r2, #0
10001f6a:	4b8b      	ldr	r3, [pc, #556]	; (10002198 <_etoa+0x40c>)
10001f6c:	f001 fb89 	bl	10003682 <__wrap___aeabi_ddiv>
10001f70:	0006      	movs	r6, r0
10001f72:	000f      	movs	r7, r1
10001f74:	9d0d      	ldr	r5, [sp, #52]	; 0x34
10001f76:	24c6      	movs	r4, #198	; 0xc6
10001f78:	002b      	movs	r3, r5
10001f7a:	3363      	adds	r3, #99	; 0x63
10001f7c:	429c      	cmp	r4, r3
10001f7e:	41a4      	sbcs	r4, r4
10001f80:	9b28      	ldr	r3, [sp, #160]	; 0xa0
10001f82:	4264      	negs	r4, r4
10001f84:	3404      	adds	r4, #4
10001f86:	051b      	lsls	r3, r3, #20
10001f88:	d51f      	bpl.n	10001fca <_etoa+0x23e>
10001f8a:	4a86      	ldr	r2, [pc, #536]	; (100021a4 <_etoa+0x418>)
10001f8c:	4b86      	ldr	r3, [pc, #536]	; (100021a8 <_etoa+0x41c>)
10001f8e:	980a      	ldr	r0, [sp, #40]	; 0x28
10001f90:	9909      	ldr	r1, [sp, #36]	; 0x24
10001f92:	f001 fbcf 	bl	10003734 <__wrap___aeabi_dcmpge>
10001f96:	2800      	cmp	r0, #0
10001f98:	d100      	bne.n	10001f9c <_etoa+0x210>
10001f9a:	e0cc      	b.n	10002136 <_etoa+0x3aa>
10001f9c:	2200      	movs	r2, #0
10001f9e:	4b83      	ldr	r3, [pc, #524]	; (100021ac <_etoa+0x420>)
10001fa0:	980a      	ldr	r0, [sp, #40]	; 0x28
10001fa2:	9909      	ldr	r1, [sp, #36]	; 0x24
10001fa4:	f001 fbb8 	bl	10003718 <__wrap___aeabi_dcmplt>
10001fa8:	2800      	cmp	r0, #0
10001faa:	d100      	bne.n	10001fae <_etoa+0x222>
10001fac:	e0c3      	b.n	10002136 <_etoa+0x3aa>
10001fae:	9a26      	ldr	r2, [sp, #152]	; 0x98
10001fb0:	4295      	cmp	r5, r2
10001fb2:	da00      	bge.n	10001fb6 <_etoa+0x22a>
10001fb4:	e10b      	b.n	100021ce <_etoa+0x442>
10001fb6:	2300      	movs	r3, #0
10001fb8:	9326      	str	r3, [sp, #152]	; 0x98
10001fba:	2380      	movs	r3, #128	; 0x80
10001fbc:	9a28      	ldr	r2, [sp, #160]	; 0xa0
10001fbe:	00db      	lsls	r3, r3, #3
10001fc0:	431a      	orrs	r2, r3
10001fc2:	2300      	movs	r3, #0
10001fc4:	2400      	movs	r4, #0
10001fc6:	9228      	str	r2, [sp, #160]	; 0xa0
10001fc8:	930d      	str	r3, [sp, #52]	; 0x34
10001fca:	9b27      	ldr	r3, [sp, #156]	; 0x9c
10001fcc:	2500      	movs	r5, #0
10001fce:	42a3      	cmp	r3, r4
10001fd0:	d900      	bls.n	10001fd4 <_etoa+0x248>
10001fd2:	1b1d      	subs	r5, r3, r4
10001fd4:	2302      	movs	r3, #2
10001fd6:	9a28      	ldr	r2, [sp, #160]	; 0xa0
10001fd8:	401a      	ands	r2, r3
10001fda:	9210      	str	r2, [sp, #64]	; 0x40
10001fdc:	9a28      	ldr	r2, [sp, #160]	; 0xa0
10001fde:	4213      	tst	r3, r2
10001fe0:	d003      	beq.n	10001fea <_etoa+0x25e>
10001fe2:	4263      	negs	r3, r4
10001fe4:	4163      	adcs	r3, r4
10001fe6:	425b      	negs	r3, r3
10001fe8:	401d      	ands	r5, r3
10001fea:	9b0d      	ldr	r3, [sp, #52]	; 0x34
10001fec:	2b00      	cmp	r3, #0
10001fee:	d007      	beq.n	10002000 <_etoa+0x274>
10001ff0:	980a      	ldr	r0, [sp, #40]	; 0x28
10001ff2:	9909      	ldr	r1, [sp, #36]	; 0x24
10001ff4:	0032      	movs	r2, r6
10001ff6:	003b      	movs	r3, r7
10001ff8:	f001 fb43 	bl	10003682 <__wrap___aeabi_ddiv>
10001ffc:	900a      	str	r0, [sp, #40]	; 0x28
10001ffe:	9109      	str	r1, [sp, #36]	; 0x24
10002000:	2200      	movs	r2, #0
10002002:	2300      	movs	r3, #0
10002004:	4648      	mov	r0, r9
10002006:	4641      	mov	r1, r8
10002008:	f001 fb86 	bl	10003718 <__wrap___aeabi_dcmplt>
1000200c:	2800      	cmp	r0, #0
1000200e:	d005      	beq.n	1000201c <_etoa+0x290>
10002010:	2080      	movs	r0, #128	; 0x80
10002012:	0600      	lsls	r0, r0, #24
10002014:	4684      	mov	ip, r0
10002016:	9909      	ldr	r1, [sp, #36]	; 0x24
10002018:	4461      	add	r1, ip
1000201a:	9109      	str	r1, [sp, #36]	; 0x24
1000201c:	9a28      	ldr	r2, [sp, #160]	; 0xa0
1000201e:	4b64      	ldr	r3, [pc, #400]	; (100021b0 <_etoa+0x424>)
10002020:	9e0b      	ldr	r6, [sp, #44]	; 0x2c
10002022:	4013      	ands	r3, r2
10002024:	9304      	str	r3, [sp, #16]
10002026:	9b26      	ldr	r3, [sp, #152]	; 0x98
10002028:	9a0a      	ldr	r2, [sp, #40]	; 0x28
1000202a:	9302      	str	r3, [sp, #8]
1000202c:	9b09      	ldr	r3, [sp, #36]	; 0x24
1000202e:	9503      	str	r5, [sp, #12]
10002030:	9200      	str	r2, [sp, #0]
10002032:	9301      	str	r3, [sp, #4]
10002034:	4659      	mov	r1, fp
10002036:	4653      	mov	r3, sl
10002038:	0030      	movs	r0, r6
1000203a:	9a0c      	ldr	r2, [sp, #48]	; 0x30
1000203c:	f000 f8cc 	bl	100021d8 <_ftoa>
10002040:	0005      	movs	r5, r0
10002042:	2c00      	cmp	r4, #0
10002044:	d06f      	beq.n	10002126 <_etoa+0x39a>
10002046:	9b28      	ldr	r3, [sp, #160]	; 0xa0
10002048:	002a      	movs	r2, r5
1000204a:	0698      	lsls	r0, r3, #26
1000204c:	231f      	movs	r3, #31
1000204e:	17c0      	asrs	r0, r0, #31
10002050:	4398      	bics	r0, r3
10002052:	1c6b      	adds	r3, r5, #1
10002054:	4698      	mov	r8, r3
10002056:	4659      	mov	r1, fp
10002058:	4653      	mov	r3, sl
1000205a:	3065      	adds	r0, #101	; 0x65
1000205c:	47b0      	blx	r6
1000205e:	9b0d      	ldr	r3, [sp, #52]	; 0x34
10002060:	2600      	movs	r6, #0
10002062:	17da      	asrs	r2, r3, #31
10002064:	189d      	adds	r5, r3, r2
10002066:	0fdb      	lsrs	r3, r3, #31
10002068:	4699      	mov	r9, r3
1000206a:	4055      	eors	r5, r2
1000206c:	3c01      	subs	r4, #1
1000206e:	e001      	b.n	10002074 <_etoa+0x2e8>
10002070:	2e20      	cmp	r6, #32
10002072:	d013      	beq.n	1000209c <_etoa+0x310>
10002074:	aa0a      	add	r2, sp, #40	; 0x28
10002076:	4694      	mov	ip, r2
10002078:	231f      	movs	r3, #31
1000207a:	0028      	movs	r0, r5
1000207c:	4463      	add	r3, ip
1000207e:	210a      	movs	r1, #10
10002080:	3601      	adds	r6, #1
10002082:	199f      	adds	r7, r3, r6
10002084:	f001 f8a6 	bl	100031d4 <__wrap___aeabi_uidiv>
10002088:	3130      	adds	r1, #48	; 0x30
1000208a:	7039      	strb	r1, [r7, #0]
1000208c:	0028      	movs	r0, r5
1000208e:	210a      	movs	r1, #10
10002090:	f001 f8a0 	bl	100031d4 <__wrap___aeabi_uidiv>
10002094:	002f      	movs	r7, r5
10002096:	0005      	movs	r5, r0
10002098:	2f09      	cmp	r7, #9
1000209a:	d8e9      	bhi.n	10002070 <_etoa+0x2e4>
1000209c:	2305      	movs	r3, #5
1000209e:	9306      	str	r3, [sp, #24]
100020a0:	2300      	movs	r3, #0
100020a2:	9304      	str	r3, [sp, #16]
100020a4:	330a      	adds	r3, #10
100020a6:	9303      	str	r3, [sp, #12]
100020a8:	464b      	mov	r3, r9
100020aa:	9601      	str	r6, [sp, #4]
100020ac:	9e0b      	ldr	r6, [sp, #44]	; 0x2c
100020ae:	9302      	str	r3, [sp, #8]
100020b0:	ab12      	add	r3, sp, #72	; 0x48
100020b2:	9300      	str	r3, [sp, #0]
100020b4:	4642      	mov	r2, r8
100020b6:	4653      	mov	r3, sl
100020b8:	4659      	mov	r1, fp
100020ba:	0030      	movs	r0, r6
100020bc:	9405      	str	r4, [sp, #20]
100020be:	f7ff fd6d 	bl	10001b9c <_ntoa_format>
100020c2:	9b10      	ldr	r3, [sp, #64]	; 0x40
100020c4:	0005      	movs	r5, r0
100020c6:	2b00      	cmp	r3, #0
100020c8:	d02d      	beq.n	10002126 <_etoa+0x39a>
100020ca:	9b0c      	ldr	r3, [sp, #48]	; 0x30
100020cc:	9a27      	ldr	r2, [sp, #156]	; 0x9c
100020ce:	1ac4      	subs	r4, r0, r3
100020d0:	42a2      	cmp	r2, r4
100020d2:	d928      	bls.n	10002126 <_etoa+0x39a>
100020d4:	4681      	mov	r9, r0
100020d6:	465d      	mov	r5, fp
100020d8:	4698      	mov	r8, r3
100020da:	0017      	movs	r7, r2
100020dc:	4643      	mov	r3, r8
100020de:	0029      	movs	r1, r5
100020e0:	191a      	adds	r2, r3, r4
100020e2:	2020      	movs	r0, #32
100020e4:	4653      	mov	r3, sl
100020e6:	3401      	adds	r4, #1
100020e8:	47b0      	blx	r6
100020ea:	42a7      	cmp	r7, r4
100020ec:	d8f6      	bhi.n	100020dc <_etoa+0x350>
100020ee:	464d      	mov	r5, r9
100020f0:	990c      	ldr	r1, [sp, #48]	; 0x30
100020f2:	9827      	ldr	r0, [sp, #156]	; 0x9c
100020f4:	1a6b      	subs	r3, r5, r1
100020f6:	3301      	adds	r3, #1
100020f8:	2200      	movs	r2, #0
100020fa:	4298      	cmp	r0, r3
100020fc:	d261      	bcs.n	100021c2 <_etoa+0x436>
100020fe:	3501      	adds	r5, #1
10002100:	1955      	adds	r5, r2, r5
10002102:	e010      	b.n	10002126 <_etoa+0x39a>
10002104:	9b28      	ldr	r3, [sp, #160]	; 0xa0
10002106:	464a      	mov	r2, r9
10002108:	9304      	str	r3, [sp, #16]
1000210a:	9b27      	ldr	r3, [sp, #156]	; 0x9c
1000210c:	4659      	mov	r1, fp
1000210e:	9303      	str	r3, [sp, #12]
10002110:	9b26      	ldr	r3, [sp, #152]	; 0x98
10002112:	980b      	ldr	r0, [sp, #44]	; 0x2c
10002114:	9302      	str	r3, [sp, #8]
10002116:	4643      	mov	r3, r8
10002118:	9200      	str	r2, [sp, #0]
1000211a:	9301      	str	r3, [sp, #4]
1000211c:	4653      	mov	r3, sl
1000211e:	9a0c      	ldr	r2, [sp, #48]	; 0x30
10002120:	f000 f85a 	bl	100021d8 <_ftoa>
10002124:	0005      	movs	r5, r0
10002126:	0028      	movs	r0, r5
10002128:	b01b      	add	sp, #108	; 0x6c
1000212a:	bc3c      	pop	{r2, r3, r4, r5}
1000212c:	4690      	mov	r8, r2
1000212e:	4699      	mov	r9, r3
10002130:	46a2      	mov	sl, r4
10002132:	46ab      	mov	fp, r5
10002134:	bdf0      	pop	{r4, r5, r6, r7, pc}
10002136:	9b26      	ldr	r3, [sp, #152]	; 0x98
10002138:	2b00      	cmp	r3, #0
1000213a:	d100      	bne.n	1000213e <_etoa+0x3b2>
1000213c:	e745      	b.n	10001fca <_etoa+0x23e>
1000213e:	9b11      	ldr	r3, [sp, #68]	; 0x44
10002140:	1e5a      	subs	r2, r3, #1
10002142:	4193      	sbcs	r3, r2
10002144:	9a26      	ldr	r2, [sp, #152]	; 0x98
10002146:	1ad3      	subs	r3, r2, r3
10002148:	9326      	str	r3, [sp, #152]	; 0x98
1000214a:	e73e      	b.n	10001fca <_etoa+0x23e>
1000214c:	7fefffff 	.word	0x7fefffff
10002150:	ffefffff 	.word	0xffefffff
10002154:	fffffc01 	.word	0xfffffc01
10002158:	509f79fb 	.word	0x509f79fb
1000215c:	3fd34413 	.word	0x3fd34413
10002160:	8b60c8b3 	.word	0x8b60c8b3
10002164:	3fc68a28 	.word	0x3fc68a28
10002168:	3ff00000 	.word	0x3ff00000
1000216c:	3ff80000 	.word	0x3ff80000
10002170:	636f4361 	.word	0x636f4361
10002174:	3fd287a7 	.word	0x3fd287a7
10002178:	0979a371 	.word	0x0979a371
1000217c:	400a934f 	.word	0x400a934f
10002180:	3fe00000 	.word	0x3fe00000
10002184:	bbb55516 	.word	0xbbb55516
10002188:	40026bb1 	.word	0x40026bb1
1000218c:	fefa39ef 	.word	0xfefa39ef
10002190:	3fe62e42 	.word	0x3fe62e42
10002194:	402c0000 	.word	0x402c0000
10002198:	40240000 	.word	0x40240000
1000219c:	40180000 	.word	0x40180000
100021a0:	000003ff 	.word	0x000003ff
100021a4:	eb1c432d 	.word	0xeb1c432d
100021a8:	3f1a36e2 	.word	0x3f1a36e2
100021ac:	412e8480 	.word	0x412e8480
100021b0:	fffff7ff 	.word	0xfffff7ff
100021b4:	464b      	mov	r3, r9
100021b6:	930a      	str	r3, [sp, #40]	; 0x28
100021b8:	2380      	movs	r3, #128	; 0x80
100021ba:	061b      	lsls	r3, r3, #24
100021bc:	4443      	add	r3, r8
100021be:	9309      	str	r3, [sp, #36]	; 0x24
100021c0:	e61d      	b.n	10001dfe <_etoa+0x72>
100021c2:	000a      	movs	r2, r1
100021c4:	4684      	mov	ip, r0
100021c6:	3a01      	subs	r2, #1
100021c8:	4462      	add	r2, ip
100021ca:	1b52      	subs	r2, r2, r5
100021cc:	e797      	b.n	100020fe <_etoa+0x372>
100021ce:	1b50      	subs	r0, r2, r5
100021d0:	1e43      	subs	r3, r0, #1
100021d2:	9326      	str	r3, [sp, #152]	; 0x98
100021d4:	e6f1      	b.n	10001fba <_etoa+0x22e>
100021d6:	46c0      	nop			; (mov r8, r8)

100021d8 <_ftoa>:
100021d8:	b5f0      	push	{r4, r5, r6, r7, lr}
100021da:	464e      	mov	r6, r9
100021dc:	46de      	mov	lr, fp
100021de:	4657      	mov	r7, sl
100021e0:	4645      	mov	r5, r8
100021e2:	b5e0      	push	{r5, r6, r7, lr}
100021e4:	b097      	sub	sp, #92	; 0x5c
100021e6:	4699      	mov	r9, r3
100021e8:	9e20      	ldr	r6, [sp, #128]	; 0x80
100021ea:	9f21      	ldr	r7, [sp, #132]	; 0x84
100021ec:	9b22      	ldr	r3, [sp, #136]	; 0x88
100021ee:	4683      	mov	fp, r0
100021f0:	4698      	mov	r8, r3
100021f2:	9107      	str	r1, [sp, #28]
100021f4:	920c      	str	r2, [sp, #48]	; 0x30
100021f6:	003b      	movs	r3, r7
100021f8:	0032      	movs	r2, r6
100021fa:	0030      	movs	r0, r6
100021fc:	0039      	movs	r1, r7
100021fe:	f001 faa6 	bl	1000374e <__wrap___aeabi_dcmpun>
10002202:	2800      	cmp	r0, #0
10002204:	d000      	beq.n	10002208 <_ftoa+0x30>
10002206:	e1c1      	b.n	1000258c <_ftoa+0x3b4>
10002208:	2201      	movs	r2, #1
1000220a:	0030      	movs	r0, r6
1000220c:	0039      	movs	r1, r7
1000220e:	4bca      	ldr	r3, [pc, #808]	; (10002538 <_ftoa+0x360>)
10002210:	4252      	negs	r2, r2
10002212:	f001 fa81 	bl	10003718 <__wrap___aeabi_dcmplt>
10002216:	2800      	cmp	r0, #0
10002218:	d000      	beq.n	1000221c <_ftoa+0x44>
1000221a:	e0e0      	b.n	100023de <_ftoa+0x206>
1000221c:	2201      	movs	r2, #1
1000221e:	0030      	movs	r0, r6
10002220:	0039      	movs	r1, r7
10002222:	4bc6      	ldr	r3, [pc, #792]	; (1000253c <_ftoa+0x364>)
10002224:	4252      	negs	r2, r2
10002226:	f001 fa8d 	bl	10003744 <__wrap___aeabi_dcmpgt>
1000222a:	2800      	cmp	r0, #0
1000222c:	d000      	beq.n	10002230 <_ftoa+0x58>
1000222e:	e0b6      	b.n	1000239e <_ftoa+0x1c6>
10002230:	2200      	movs	r2, #0
10002232:	0030      	movs	r0, r6
10002234:	0039      	movs	r1, r7
10002236:	4bc2      	ldr	r3, [pc, #776]	; (10002540 <_ftoa+0x368>)
10002238:	f001 fa84 	bl	10003744 <__wrap___aeabi_dcmpgt>
1000223c:	2800      	cmp	r0, #0
1000223e:	d000      	beq.n	10002242 <_ftoa+0x6a>
10002240:	e098      	b.n	10002374 <_ftoa+0x19c>
10002242:	2200      	movs	r2, #0
10002244:	0030      	movs	r0, r6
10002246:	0039      	movs	r1, r7
10002248:	4bbe      	ldr	r3, [pc, #760]	; (10002544 <_ftoa+0x36c>)
1000224a:	f001 fa65 	bl	10003718 <__wrap___aeabi_dcmplt>
1000224e:	2800      	cmp	r0, #0
10002250:	d000      	beq.n	10002254 <_ftoa+0x7c>
10002252:	e08f      	b.n	10002374 <_ftoa+0x19c>
10002254:	2200      	movs	r2, #0
10002256:	2300      	movs	r3, #0
10002258:	0030      	movs	r0, r6
1000225a:	0039      	movs	r1, r7
1000225c:	f001 fa5c 	bl	10003718 <__wrap___aeabi_dcmplt>
10002260:	2800      	cmp	r0, #0
10002262:	d000      	beq.n	10002266 <_ftoa+0x8e>
10002264:	e0b0      	b.n	100023c8 <_ftoa+0x1f0>
10002266:	2300      	movs	r3, #0
10002268:	930d      	str	r3, [sp, #52]	; 0x34
1000226a:	9b24      	ldr	r3, [sp, #144]	; 0x90
1000226c:	055b      	lsls	r3, r3, #21
1000226e:	d401      	bmi.n	10002274 <_ftoa+0x9c>
10002270:	2306      	movs	r3, #6
10002272:	4698      	mov	r8, r3
10002274:	ab08      	add	r3, sp, #32
10002276:	469c      	mov	ip, r3
10002278:	2217      	movs	r2, #23
1000227a:	2400      	movs	r4, #0
1000227c:	2330      	movs	r3, #48	; 0x30
1000227e:	4641      	mov	r1, r8
10002280:	4462      	add	r2, ip
10002282:	e004      	b.n	1000228e <_ftoa+0xb6>
10002284:	3401      	adds	r4, #1
10002286:	5513      	strb	r3, [r2, r4]
10002288:	3901      	subs	r1, #1
1000228a:	2c20      	cmp	r4, #32
1000228c:	d001      	beq.n	10002292 <_ftoa+0xba>
1000228e:	2909      	cmp	r1, #9
10002290:	d8f8      	bhi.n	10002284 <_ftoa+0xac>
10002292:	4688      	mov	r8, r1
10002294:	0030      	movs	r0, r6
10002296:	0039      	movs	r1, r7
10002298:	f001 fa84 	bl	100037a4 <__wrap___aeabi_d2iz>
1000229c:	4643      	mov	r3, r8
1000229e:	00da      	lsls	r2, r3, #3
100022a0:	4ba9      	ldr	r3, [pc, #676]	; (10002548 <_ftoa+0x370>)
100022a2:	0005      	movs	r5, r0
100022a4:	189b      	adds	r3, r3, r2
100022a6:	681a      	ldr	r2, [r3, #0]
100022a8:	685b      	ldr	r3, [r3, #4]
100022aa:	9208      	str	r2, [sp, #32]
100022ac:	9309      	str	r3, [sp, #36]	; 0x24
100022ae:	f001 fa61 	bl	10003774 <__wrap___aeabi_i2d>
100022b2:	0002      	movs	r2, r0
100022b4:	000b      	movs	r3, r1
100022b6:	0030      	movs	r0, r6
100022b8:	0039      	movs	r1, r7
100022ba:	f001 f9d0 	bl	1000365e <__wrap___aeabi_dsub>
100022be:	9a08      	ldr	r2, [sp, #32]
100022c0:	9b09      	ldr	r3, [sp, #36]	; 0x24
100022c2:	f001 f9e7 	bl	10003694 <__wrap___aeabi_dmul>
100022c6:	900a      	str	r0, [sp, #40]	; 0x28
100022c8:	910b      	str	r1, [sp, #44]	; 0x2c
100022ca:	f001 fa8f 	bl	100037ec <__wrap___aeabi_d2uiz>
100022ce:	4682      	mov	sl, r0
100022d0:	f001 fa4c 	bl	1000376c <__wrap___aeabi_ui2d>
100022d4:	0002      	movs	r2, r0
100022d6:	000b      	movs	r3, r1
100022d8:	980a      	ldr	r0, [sp, #40]	; 0x28
100022da:	990b      	ldr	r1, [sp, #44]	; 0x2c
100022dc:	f001 f9bf 	bl	1000365e <__wrap___aeabi_dsub>
100022e0:	2200      	movs	r2, #0
100022e2:	4b9a      	ldr	r3, [pc, #616]	; (1000254c <_ftoa+0x374>)
100022e4:	900a      	str	r0, [sp, #40]	; 0x28
100022e6:	910b      	str	r1, [sp, #44]	; 0x2c
100022e8:	f001 fa2c 	bl	10003744 <__wrap___aeabi_dcmpgt>
100022ec:	2800      	cmp	r0, #0
100022ee:	d100      	bne.n	100022f2 <_ftoa+0x11a>
100022f0:	e0c0      	b.n	10002474 <_ftoa+0x29c>
100022f2:	2301      	movs	r3, #1
100022f4:	469c      	mov	ip, r3
100022f6:	44e2      	add	sl, ip
100022f8:	4650      	mov	r0, sl
100022fa:	f001 fa37 	bl	1000376c <__wrap___aeabi_ui2d>
100022fe:	0002      	movs	r2, r0
10002300:	000b      	movs	r3, r1
10002302:	9808      	ldr	r0, [sp, #32]
10002304:	9909      	ldr	r1, [sp, #36]	; 0x24
10002306:	f001 fa0d 	bl	10003724 <__wrap___aeabi_dcmple>
1000230a:	2800      	cmp	r0, #0
1000230c:	d002      	beq.n	10002314 <_ftoa+0x13c>
1000230e:	2300      	movs	r3, #0
10002310:	469a      	mov	sl, r3
10002312:	3501      	adds	r5, #1
10002314:	4643      	mov	r3, r8
10002316:	2b00      	cmp	r3, #0
10002318:	d069      	beq.n	100023ee <_ftoa+0x216>
1000231a:	ab08      	add	r3, sp, #32
1000231c:	2617      	movs	r6, #23
1000231e:	469c      	mov	ip, r3
10002320:	9508      	str	r5, [sp, #32]
10002322:	4466      	add	r6, ip
10002324:	4655      	mov	r5, sl
10002326:	e014      	b.n	10002352 <_ftoa+0x17a>
10002328:	2301      	movs	r3, #1
1000232a:	425b      	negs	r3, r3
1000232c:	4443      	add	r3, r8
1000232e:	210a      	movs	r1, #10
10002330:	0028      	movs	r0, r5
10002332:	469a      	mov	sl, r3
10002334:	f000 ff4e 	bl	100031d4 <__wrap___aeabi_uidiv>
10002338:	3401      	adds	r4, #1
1000233a:	3130      	adds	r1, #48	; 0x30
1000233c:	1937      	adds	r7, r6, r4
1000233e:	7039      	strb	r1, [r7, #0]
10002340:	0028      	movs	r0, r5
10002342:	210a      	movs	r1, #10
10002344:	f000 ff46 	bl	100031d4 <__wrap___aeabi_uidiv>
10002348:	2d09      	cmp	r5, #9
1000234a:	d800      	bhi.n	1000234e <_ftoa+0x176>
1000234c:	e0d5      	b.n	100024fa <_ftoa+0x322>
1000234e:	46d0      	mov	r8, sl
10002350:	0005      	movs	r5, r0
10002352:	2c20      	cmp	r4, #32
10002354:	d1e8      	bne.n	10002328 <_ftoa+0x150>
10002356:	2303      	movs	r3, #3
10002358:	9a24      	ldr	r2, [sp, #144]	; 0x90
1000235a:	4013      	ands	r3, r2
1000235c:	2b01      	cmp	r3, #1
1000235e:	d100      	bne.n	10002362 <_ftoa+0x18a>
10002360:	e100      	b.n	10002564 <_ftoa+0x38c>
10002362:	ab0e      	add	r3, sp, #56	; 0x38
10002364:	4698      	mov	r8, r3
10002366:	9b24      	ldr	r3, [sp, #144]	; 0x90
10002368:	9401      	str	r4, [sp, #4]
1000236a:	9303      	str	r3, [sp, #12]
1000236c:	9b23      	ldr	r3, [sp, #140]	; 0x8c
1000236e:	9302      	str	r3, [sp, #8]
10002370:	4643      	mov	r3, r8
10002372:	e01e      	b.n	100023b2 <_ftoa+0x1da>
10002374:	9b24      	ldr	r3, [sp, #144]	; 0x90
10002376:	4658      	mov	r0, fp
10002378:	9304      	str	r3, [sp, #16]
1000237a:	9b23      	ldr	r3, [sp, #140]	; 0x8c
1000237c:	9600      	str	r6, [sp, #0]
1000237e:	9701      	str	r7, [sp, #4]
10002380:	9303      	str	r3, [sp, #12]
10002382:	4643      	mov	r3, r8
10002384:	9a0c      	ldr	r2, [sp, #48]	; 0x30
10002386:	9302      	str	r3, [sp, #8]
10002388:	9907      	ldr	r1, [sp, #28]
1000238a:	464b      	mov	r3, r9
1000238c:	f7ff fcfe 	bl	10001d8c <_etoa>
10002390:	b017      	add	sp, #92	; 0x5c
10002392:	bc3c      	pop	{r2, r3, r4, r5}
10002394:	4690      	mov	r8, r2
10002396:	4699      	mov	r9, r3
10002398:	46a2      	mov	sl, r4
1000239a:	46ab      	mov	fp, r5
1000239c:	bdf0      	pop	{r4, r5, r6, r7, pc}
1000239e:	9b24      	ldr	r3, [sp, #144]	; 0x90
100023a0:	075b      	lsls	r3, r3, #29
100023a2:	d40e      	bmi.n	100023c2 <_ftoa+0x1ea>
100023a4:	2203      	movs	r2, #3
100023a6:	4b6a      	ldr	r3, [pc, #424]	; (10002550 <_ftoa+0x378>)
100023a8:	9924      	ldr	r1, [sp, #144]	; 0x90
100023aa:	9201      	str	r2, [sp, #4]
100023ac:	9103      	str	r1, [sp, #12]
100023ae:	9923      	ldr	r1, [sp, #140]	; 0x8c
100023b0:	9102      	str	r1, [sp, #8]
100023b2:	9300      	str	r3, [sp, #0]
100023b4:	4658      	mov	r0, fp
100023b6:	464b      	mov	r3, r9
100023b8:	9a0c      	ldr	r2, [sp, #48]	; 0x30
100023ba:	9907      	ldr	r1, [sp, #28]
100023bc:	f7ff fb86 	bl	10001acc <_out_rev>
100023c0:	e7e6      	b.n	10002390 <_ftoa+0x1b8>
100023c2:	2204      	movs	r2, #4
100023c4:	4b63      	ldr	r3, [pc, #396]	; (10002554 <_ftoa+0x37c>)
100023c6:	e7ef      	b.n	100023a8 <_ftoa+0x1d0>
100023c8:	003b      	movs	r3, r7
100023ca:	0032      	movs	r2, r6
100023cc:	2000      	movs	r0, #0
100023ce:	2100      	movs	r1, #0
100023d0:	f001 f945 	bl	1000365e <__wrap___aeabi_dsub>
100023d4:	2301      	movs	r3, #1
100023d6:	0006      	movs	r6, r0
100023d8:	000f      	movs	r7, r1
100023da:	930d      	str	r3, [sp, #52]	; 0x34
100023dc:	e745      	b.n	1000226a <_ftoa+0x92>
100023de:	9b24      	ldr	r3, [sp, #144]	; 0x90
100023e0:	9303      	str	r3, [sp, #12]
100023e2:	9b23      	ldr	r3, [sp, #140]	; 0x8c
100023e4:	9302      	str	r3, [sp, #8]
100023e6:	2304      	movs	r3, #4
100023e8:	9301      	str	r3, [sp, #4]
100023ea:	4b5b      	ldr	r3, [pc, #364]	; (10002558 <_ftoa+0x380>)
100023ec:	e7e1      	b.n	100023b2 <_ftoa+0x1da>
100023ee:	0028      	movs	r0, r5
100023f0:	f001 f9c0 	bl	10003774 <__wrap___aeabi_i2d>
100023f4:	0002      	movs	r2, r0
100023f6:	000b      	movs	r3, r1
100023f8:	0030      	movs	r0, r6
100023fa:	0039      	movs	r1, r7
100023fc:	f001 f92f 	bl	1000365e <__wrap___aeabi_dsub>
10002400:	4b52      	ldr	r3, [pc, #328]	; (1000254c <_ftoa+0x374>)
10002402:	2200      	movs	r2, #0
10002404:	0006      	movs	r6, r0
10002406:	000f      	movs	r7, r1
10002408:	f001 f986 	bl	10003718 <__wrap___aeabi_dcmplt>
1000240c:	ab0e      	add	r3, sp, #56	; 0x38
1000240e:	4698      	mov	r8, r3
10002410:	2800      	cmp	r0, #0
10002412:	d10a      	bne.n	1000242a <_ftoa+0x252>
10002414:	2200      	movs	r2, #0
10002416:	0030      	movs	r0, r6
10002418:	0039      	movs	r1, r7
1000241a:	4b4c      	ldr	r3, [pc, #304]	; (1000254c <_ftoa+0x374>)
1000241c:	f001 f992 	bl	10003744 <__wrap___aeabi_dcmpgt>
10002420:	2800      	cmp	r0, #0
10002422:	d102      	bne.n	1000242a <_ftoa+0x252>
10002424:	07eb      	lsls	r3, r5, #31
10002426:	d500      	bpl.n	1000242a <_ftoa+0x252>
10002428:	3501      	adds	r5, #1
1000242a:	2c20      	cmp	r4, #32
1000242c:	d032      	beq.n	10002494 <_ftoa+0x2bc>
1000242e:	aa08      	add	r2, sp, #32
10002430:	4694      	mov	ip, r2
10002432:	2317      	movs	r3, #23
10002434:	0028      	movs	r0, r5
10002436:	4463      	add	r3, ip
10002438:	210a      	movs	r1, #10
1000243a:	3401      	adds	r4, #1
1000243c:	191e      	adds	r6, r3, r4
1000243e:	f000 fe9d 	bl	1000317c <__wrap___aeabi_idiv>
10002442:	3130      	adds	r1, #48	; 0x30
10002444:	0028      	movs	r0, r5
10002446:	7031      	strb	r1, [r6, #0]
10002448:	210a      	movs	r1, #10
1000244a:	f000 fe97 	bl	1000317c <__wrap___aeabi_idiv>
1000244e:	1e05      	subs	r5, r0, #0
10002450:	d1eb      	bne.n	1000242a <_ftoa+0x252>
10002452:	2303      	movs	r3, #3
10002454:	9a24      	ldr	r2, [sp, #144]	; 0x90
10002456:	4013      	ands	r3, r2
10002458:	2b01      	cmp	r3, #1
1000245a:	d100      	bne.n	1000245e <_ftoa+0x286>
1000245c:	e091      	b.n	10002582 <_ftoa+0x3aa>
1000245e:	2c1f      	cmp	r4, #31
10002460:	d900      	bls.n	10002464 <_ftoa+0x28c>
10002462:	e780      	b.n	10002366 <_ftoa+0x18e>
10002464:	9b0d      	ldr	r3, [sp, #52]	; 0x34
10002466:	2b00      	cmp	r3, #0
10002468:	d03b      	beq.n	100024e2 <_ftoa+0x30a>
1000246a:	232d      	movs	r3, #45	; 0x2d
1000246c:	4642      	mov	r2, r8
1000246e:	5513      	strb	r3, [r2, r4]
10002470:	3401      	adds	r4, #1
10002472:	e778      	b.n	10002366 <_ftoa+0x18e>
10002474:	2200      	movs	r2, #0
10002476:	980a      	ldr	r0, [sp, #40]	; 0x28
10002478:	990b      	ldr	r1, [sp, #44]	; 0x2c
1000247a:	4b34      	ldr	r3, [pc, #208]	; (1000254c <_ftoa+0x374>)
1000247c:	f001 f94c 	bl	10003718 <__wrap___aeabi_dcmplt>
10002480:	2800      	cmp	r0, #0
10002482:	d000      	beq.n	10002486 <_ftoa+0x2ae>
10002484:	e746      	b.n	10002314 <_ftoa+0x13c>
10002486:	4653      	mov	r3, sl
10002488:	2b00      	cmp	r3, #0
1000248a:	d167      	bne.n	1000255c <_ftoa+0x384>
1000248c:	2301      	movs	r3, #1
1000248e:	469c      	mov	ip, r3
10002490:	44e2      	add	sl, ip
10002492:	e73f      	b.n	10002314 <_ftoa+0x13c>
10002494:	2303      	movs	r3, #3
10002496:	9a24      	ldr	r2, [sp, #144]	; 0x90
10002498:	4013      	ands	r3, r2
1000249a:	2b01      	cmp	r3, #1
1000249c:	d000      	beq.n	100024a0 <_ftoa+0x2c8>
1000249e:	e762      	b.n	10002366 <_ftoa+0x18e>
100024a0:	9b23      	ldr	r3, [sp, #140]	; 0x8c
100024a2:	2b00      	cmp	r3, #0
100024a4:	d100      	bne.n	100024a8 <_ftoa+0x2d0>
100024a6:	e75e      	b.n	10002366 <_ftoa+0x18e>
100024a8:	9b0d      	ldr	r3, [sp, #52]	; 0x34
100024aa:	2b00      	cmp	r3, #0
100024ac:	d103      	bne.n	100024b6 <_ftoa+0x2de>
100024ae:	9a24      	ldr	r2, [sp, #144]	; 0x90
100024b0:	330c      	adds	r3, #12
100024b2:	4213      	tst	r3, r2
100024b4:	d002      	beq.n	100024bc <_ftoa+0x2e4>
100024b6:	9b23      	ldr	r3, [sp, #140]	; 0x8c
100024b8:	3b01      	subs	r3, #1
100024ba:	9323      	str	r3, [sp, #140]	; 0x8c
100024bc:	9b23      	ldr	r3, [sp, #140]	; 0x8c
100024be:	429c      	cmp	r4, r3
100024c0:	d2cd      	bcs.n	1000245e <_ftoa+0x286>
100024c2:	ab08      	add	r3, sp, #32
100024c4:	469c      	mov	ip, r3
100024c6:	2217      	movs	r2, #23
100024c8:	2330      	movs	r3, #48	; 0x30
100024ca:	4462      	add	r2, ip
100024cc:	2c1f      	cmp	r4, #31
100024ce:	d806      	bhi.n	100024de <_ftoa+0x306>
100024d0:	9923      	ldr	r1, [sp, #140]	; 0x8c
100024d2:	3401      	adds	r4, #1
100024d4:	5513      	strb	r3, [r2, r4]
100024d6:	428c      	cmp	r4, r1
100024d8:	d0c1      	beq.n	1000245e <_ftoa+0x286>
100024da:	2c20      	cmp	r4, #32
100024dc:	d1f8      	bne.n	100024d0 <_ftoa+0x2f8>
100024de:	2420      	movs	r4, #32
100024e0:	e741      	b.n	10002366 <_ftoa+0x18e>
100024e2:	9b24      	ldr	r3, [sp, #144]	; 0x90
100024e4:	075b      	lsls	r3, r3, #29
100024e6:	d421      	bmi.n	1000252c <_ftoa+0x354>
100024e8:	9b24      	ldr	r3, [sp, #144]	; 0x90
100024ea:	071b      	lsls	r3, r3, #28
100024ec:	d400      	bmi.n	100024f0 <_ftoa+0x318>
100024ee:	e73a      	b.n	10002366 <_ftoa+0x18e>
100024f0:	2320      	movs	r3, #32
100024f2:	4642      	mov	r2, r8
100024f4:	5513      	strb	r3, [r2, r4]
100024f6:	3401      	adds	r4, #1
100024f8:	e735      	b.n	10002366 <_ftoa+0x18e>
100024fa:	4657      	mov	r7, sl
100024fc:	9d08      	ldr	r5, [sp, #32]
100024fe:	2c20      	cmp	r4, #32
10002500:	d037      	beq.n	10002572 <_ftoa+0x39a>
10002502:	0022      	movs	r2, r4
10002504:	2130      	movs	r1, #48	; 0x30
10002506:	4640      	mov	r0, r8
10002508:	2f00      	cmp	r7, #0
1000250a:	d008      	beq.n	1000251e <_ftoa+0x346>
1000250c:	3201      	adds	r2, #1
1000250e:	54b1      	strb	r1, [r6, r2]
10002510:	2a20      	cmp	r2, #32
10002512:	d043      	beq.n	1000259c <_ftoa+0x3c4>
10002514:	43d3      	mvns	r3, r2
10002516:	191b      	adds	r3, r3, r4
10002518:	181b      	adds	r3, r3, r0
1000251a:	2b00      	cmp	r3, #0
1000251c:	d1f6      	bne.n	1000250c <_ftoa+0x334>
1000251e:	ab0e      	add	r3, sp, #56	; 0x38
10002520:	4698      	mov	r8, r3
10002522:	232e      	movs	r3, #46	; 0x2e
10002524:	4641      	mov	r1, r8
10002526:	1c54      	adds	r4, r2, #1
10002528:	548b      	strb	r3, [r1, r2]
1000252a:	e77e      	b.n	1000242a <_ftoa+0x252>
1000252c:	232b      	movs	r3, #43	; 0x2b
1000252e:	4642      	mov	r2, r8
10002530:	5513      	strb	r3, [r2, r4]
10002532:	3401      	adds	r4, #1
10002534:	e717      	b.n	10002366 <_ftoa+0x18e>
10002536:	46c0      	nop			; (mov r8, r8)
10002538:	ffefffff 	.word	0xffefffff
1000253c:	7fefffff 	.word	0x7fefffff
10002540:	41cdcd65 	.word	0x41cdcd65
10002544:	c1cdcd65 	.word	0xc1cdcd65
10002548:	10004fc0 	.word	0x10004fc0
1000254c:	3fe00000 	.word	0x3fe00000
10002550:	10004dc4 	.word	0x10004dc4
10002554:	10004dc8 	.word	0x10004dc8
10002558:	10004dd4 	.word	0x10004dd4
1000255c:	07db      	lsls	r3, r3, #31
1000255e:	d400      	bmi.n	10002562 <_ftoa+0x38a>
10002560:	e6d8      	b.n	10002314 <_ftoa+0x13c>
10002562:	e793      	b.n	1000248c <_ftoa+0x2b4>
10002564:	9b23      	ldr	r3, [sp, #140]	; 0x8c
10002566:	2b00      	cmp	r3, #0
10002568:	d100      	bne.n	1000256c <_ftoa+0x394>
1000256a:	e6fa      	b.n	10002362 <_ftoa+0x18a>
1000256c:	ab0e      	add	r3, sp, #56	; 0x38
1000256e:	4698      	mov	r8, r3
10002570:	e79a      	b.n	100024a8 <_ftoa+0x2d0>
10002572:	2303      	movs	r3, #3
10002574:	9a24      	ldr	r2, [sp, #144]	; 0x90
10002576:	4013      	ands	r3, r2
10002578:	2b01      	cmp	r3, #1
1000257a:	d000      	beq.n	1000257e <_ftoa+0x3a6>
1000257c:	e6f1      	b.n	10002362 <_ftoa+0x18a>
1000257e:	ab0e      	add	r3, sp, #56	; 0x38
10002580:	4698      	mov	r8, r3
10002582:	9b23      	ldr	r3, [sp, #140]	; 0x8c
10002584:	2b00      	cmp	r3, #0
10002586:	d100      	bne.n	1000258a <_ftoa+0x3b2>
10002588:	e769      	b.n	1000245e <_ftoa+0x286>
1000258a:	e78d      	b.n	100024a8 <_ftoa+0x2d0>
1000258c:	9b24      	ldr	r3, [sp, #144]	; 0x90
1000258e:	9303      	str	r3, [sp, #12]
10002590:	9b23      	ldr	r3, [sp, #140]	; 0x8c
10002592:	9302      	str	r3, [sp, #8]
10002594:	2303      	movs	r3, #3
10002596:	9301      	str	r3, [sp, #4]
10002598:	4b06      	ldr	r3, [pc, #24]	; (100025b4 <_ftoa+0x3dc>)
1000259a:	e70a      	b.n	100023b2 <_ftoa+0x1da>
1000259c:	2303      	movs	r3, #3
1000259e:	9a24      	ldr	r2, [sp, #144]	; 0x90
100025a0:	2420      	movs	r4, #32
100025a2:	4013      	ands	r3, r2
100025a4:	2b01      	cmp	r3, #1
100025a6:	d000      	beq.n	100025aa <_ftoa+0x3d2>
100025a8:	e6db      	b.n	10002362 <_ftoa+0x18a>
100025aa:	9b23      	ldr	r3, [sp, #140]	; 0x8c
100025ac:	2420      	movs	r4, #32
100025ae:	2b00      	cmp	r3, #0
100025b0:	d1dc      	bne.n	1000256c <_ftoa+0x394>
100025b2:	e6d6      	b.n	10002362 <_ftoa+0x18a>
100025b4:	10004dd0 	.word	0x10004dd0

100025b8 <_vsnprintf>:
100025b8:	b5f0      	push	{r4, r5, r6, r7, lr}
100025ba:	46de      	mov	lr, fp
100025bc:	464e      	mov	r6, r9
100025be:	4657      	mov	r7, sl
100025c0:	4645      	mov	r5, r8
100025c2:	b5e0      	push	{r5, r6, r7, lr}
100025c4:	b09f      	sub	sp, #124	; 0x7c
100025c6:	001c      	movs	r4, r3
100025c8:	9b28      	ldr	r3, [sp, #160]	; 0xa0
100025ca:	4693      	mov	fp, r2
100025cc:	9309      	str	r3, [sp, #36]	; 0x24
100025ce:	4acf      	ldr	r2, [pc, #828]	; (1000290c <_vsnprintf+0x354>)
100025d0:	4bcf      	ldr	r3, [pc, #828]	; (10002910 <_vsnprintf+0x358>)
100025d2:	4689      	mov	r9, r1
100025d4:	9008      	str	r0, [sp, #32]
100025d6:	601a      	str	r2, [r3, #0]
100025d8:	2900      	cmp	r1, #0
100025da:	d100      	bne.n	100025de <_vsnprintf+0x26>
100025dc:	e216      	b.n	10002a0c <_vsnprintf+0x454>
100025de:	2300      	movs	r3, #0
100025e0:	7820      	ldrb	r0, [r4, #0]
100025e2:	469a      	mov	sl, r3
100025e4:	2800      	cmp	r0, #0
100025e6:	d100      	bne.n	100025ea <_vsnprintf+0x32>
100025e8:	e218      	b.n	10002a1c <_vsnprintf+0x464>
100025ea:	0026      	movs	r6, r4
100025ec:	001d      	movs	r5, r3
100025ee:	464c      	mov	r4, r9
100025f0:	e00a      	b.n	10002608 <_vsnprintf+0x50>
100025f2:	002a      	movs	r2, r5
100025f4:	1c6f      	adds	r7, r5, #1
100025f6:	465b      	mov	r3, fp
100025f8:	9d08      	ldr	r5, [sp, #32]
100025fa:	0021      	movs	r1, r4
100025fc:	47a8      	blx	r5
100025fe:	003d      	movs	r5, r7
10002600:	3601      	adds	r6, #1
10002602:	7830      	ldrb	r0, [r6, #0]
10002604:	2800      	cmp	r0, #0
10002606:	d07a      	beq.n	100026fe <_vsnprintf+0x146>
10002608:	2825      	cmp	r0, #37	; 0x25
1000260a:	d1f2      	bne.n	100025f2 <_vsnprintf+0x3a>
1000260c:	2310      	movs	r3, #16
1000260e:	469a      	mov	sl, r3
10002610:	3b08      	subs	r3, #8
10002612:	4699      	mov	r9, r3
10002614:	3b04      	subs	r3, #4
10002616:	4698      	mov	r8, r3
10002618:	3b02      	subs	r3, #2
1000261a:	2100      	movs	r1, #0
1000261c:	469c      	mov	ip, r3
1000261e:	1c72      	adds	r2, r6, #1
10002620:	7810      	ldrb	r0, [r2, #0]
10002622:	0016      	movs	r6, r2
10002624:	0003      	movs	r3, r0
10002626:	3b20      	subs	r3, #32
10002628:	b2db      	uxtb	r3, r3
1000262a:	2b10      	cmp	r3, #16
1000262c:	d803      	bhi.n	10002636 <_vsnprintf+0x7e>
1000262e:	4fb9      	ldr	r7, [pc, #740]	; (10002914 <_vsnprintf+0x35c>)
10002630:	009b      	lsls	r3, r3, #2
10002632:	58fb      	ldr	r3, [r7, r3]
10002634:	469f      	mov	pc, r3
10002636:	0003      	movs	r3, r0
10002638:	3b30      	subs	r3, #48	; 0x30
1000263a:	2b09      	cmp	r3, #9
1000263c:	d93c      	bls.n	100026b8 <_vsnprintf+0x100>
1000263e:	2300      	movs	r3, #0
10002640:	930a      	str	r3, [sp, #40]	; 0x28
10002642:	282a      	cmp	r0, #42	; 0x2a
10002644:	d100      	bne.n	10002648 <_vsnprintf+0x90>
10002646:	e071      	b.n	1000272c <_vsnprintf+0x174>
10002648:	2300      	movs	r3, #0
1000264a:	4698      	mov	r8, r3
1000264c:	282e      	cmp	r0, #46	; 0x2e
1000264e:	d047      	beq.n	100026e0 <_vsnprintf+0x128>
10002650:	0003      	movs	r3, r0
10002652:	3b68      	subs	r3, #104	; 0x68
10002654:	b2db      	uxtb	r3, r3
10002656:	2b12      	cmp	r3, #18
10002658:	d81f      	bhi.n	1000269a <_vsnprintf+0xe2>
1000265a:	4aaf      	ldr	r2, [pc, #700]	; (10002918 <_vsnprintf+0x360>)
1000265c:	009b      	lsls	r3, r3, #2
1000265e:	58d3      	ldr	r3, [r2, r3]
10002660:	469f      	mov	pc, r3
10002662:	2301      	movs	r3, #1
10002664:	3201      	adds	r2, #1
10002666:	4319      	orrs	r1, r3
10002668:	e7da      	b.n	10002620 <_vsnprintf+0x68>
1000266a:	4663      	mov	r3, ip
1000266c:	3201      	adds	r2, #1
1000266e:	4319      	orrs	r1, r3
10002670:	e7d6      	b.n	10002620 <_vsnprintf+0x68>
10002672:	4643      	mov	r3, r8
10002674:	3201      	adds	r2, #1
10002676:	4319      	orrs	r1, r3
10002678:	e7d2      	b.n	10002620 <_vsnprintf+0x68>
1000267a:	4653      	mov	r3, sl
1000267c:	3201      	adds	r2, #1
1000267e:	4319      	orrs	r1, r3
10002680:	e7ce      	b.n	10002620 <_vsnprintf+0x68>
10002682:	464b      	mov	r3, r9
10002684:	3201      	adds	r2, #1
10002686:	4319      	orrs	r1, r3
10002688:	e7ca      	b.n	10002620 <_vsnprintf+0x68>
1000268a:	7870      	ldrb	r0, [r6, #1]
1000268c:	286c      	cmp	r0, #108	; 0x6c
1000268e:	d100      	bne.n	10002692 <_vsnprintf+0xda>
10002690:	e2bf      	b.n	10002c12 <_vsnprintf+0x65a>
10002692:	2380      	movs	r3, #128	; 0x80
10002694:	005b      	lsls	r3, r3, #1
10002696:	4319      	orrs	r1, r3
10002698:	3601      	adds	r6, #1
1000269a:	0003      	movs	r3, r0
1000269c:	3b25      	subs	r3, #37	; 0x25
1000269e:	b2db      	uxtb	r3, r3
100026a0:	2b53      	cmp	r3, #83	; 0x53
100026a2:	d8a6      	bhi.n	100025f2 <_vsnprintf+0x3a>
100026a4:	4a9d      	ldr	r2, [pc, #628]	; (1000291c <_vsnprintf+0x364>)
100026a6:	009b      	lsls	r3, r3, #2
100026a8:	58d3      	ldr	r3, [r2, r3]
100026aa:	469f      	mov	pc, r3
100026ac:	2380      	movs	r3, #128	; 0x80
100026ae:	005b      	lsls	r3, r3, #1
100026b0:	7870      	ldrb	r0, [r6, #1]
100026b2:	4319      	orrs	r1, r3
100026b4:	3601      	adds	r6, #1
100026b6:	e7f0      	b.n	1000269a <_vsnprintf+0xe2>
100026b8:	2700      	movs	r7, #0
100026ba:	0003      	movs	r3, r0
100026bc:	00b8      	lsls	r0, r7, #2
100026be:	19c0      	adds	r0, r0, r7
100026c0:	3601      	adds	r6, #1
100026c2:	0040      	lsls	r0, r0, #1
100026c4:	18c0      	adds	r0, r0, r3
100026c6:	7833      	ldrb	r3, [r6, #0]
100026c8:	3830      	subs	r0, #48	; 0x30
100026ca:	001a      	movs	r2, r3
100026cc:	3a30      	subs	r2, #48	; 0x30
100026ce:	0007      	movs	r7, r0
100026d0:	2a09      	cmp	r2, #9
100026d2:	d9f3      	bls.n	100026bc <_vsnprintf+0x104>
100026d4:	900a      	str	r0, [sp, #40]	; 0x28
100026d6:	0018      	movs	r0, r3
100026d8:	2300      	movs	r3, #0
100026da:	4698      	mov	r8, r3
100026dc:	282e      	cmp	r0, #46	; 0x2e
100026de:	d1b7      	bne.n	10002650 <_vsnprintf+0x98>
100026e0:	2380      	movs	r3, #128	; 0x80
100026e2:	7870      	ldrb	r0, [r6, #1]
100026e4:	00db      	lsls	r3, r3, #3
100026e6:	4319      	orrs	r1, r3
100026e8:	0003      	movs	r3, r0
100026ea:	3b30      	subs	r3, #48	; 0x30
100026ec:	1c72      	adds	r2, r6, #1
100026ee:	2b09      	cmp	r3, #9
100026f0:	d800      	bhi.n	100026f4 <_vsnprintf+0x13c>
100026f2:	e195      	b.n	10002a20 <_vsnprintf+0x468>
100026f4:	282a      	cmp	r0, #42	; 0x2a
100026f6:	d100      	bne.n	100026fa <_vsnprintf+0x142>
100026f8:	e1a6      	b.n	10002a48 <_vsnprintf+0x490>
100026fa:	0016      	movs	r6, r2
100026fc:	e7a8      	b.n	10002650 <_vsnprintf+0x98>
100026fe:	46a1      	mov	r9, r4
10002700:	46aa      	mov	sl, r5
10002702:	002c      	movs	r4, r5
10002704:	45d3      	cmp	fp, sl
10002706:	d803      	bhi.n	10002710 <_vsnprintf+0x158>
10002708:	2301      	movs	r3, #1
1000270a:	425b      	negs	r3, r3
1000270c:	445b      	add	r3, fp
1000270e:	469a      	mov	sl, r3
10002710:	465b      	mov	r3, fp
10002712:	4652      	mov	r2, sl
10002714:	4649      	mov	r1, r9
10002716:	2000      	movs	r0, #0
10002718:	9d08      	ldr	r5, [sp, #32]
1000271a:	47a8      	blx	r5
1000271c:	0020      	movs	r0, r4
1000271e:	b01f      	add	sp, #124	; 0x7c
10002720:	bc3c      	pop	{r2, r3, r4, r5}
10002722:	4690      	mov	r8, r2
10002724:	4699      	mov	r9, r3
10002726:	46a2      	mov	sl, r4
10002728:	46ab      	mov	fp, r5
1000272a:	bdf0      	pop	{r4, r5, r6, r7, pc}
1000272c:	9b09      	ldr	r3, [sp, #36]	; 0x24
1000272e:	cb40      	ldmia	r3!, {r6}
10002730:	960a      	str	r6, [sp, #40]	; 0x28
10002732:	2e00      	cmp	r6, #0
10002734:	db03      	blt.n	1000273e <_vsnprintf+0x186>
10002736:	7850      	ldrb	r0, [r2, #1]
10002738:	9309      	str	r3, [sp, #36]	; 0x24
1000273a:	1c56      	adds	r6, r2, #1
1000273c:	e784      	b.n	10002648 <_vsnprintf+0x90>
1000273e:	3828      	subs	r0, #40	; 0x28
10002740:	4301      	orrs	r1, r0
10002742:	4270      	negs	r0, r6
10002744:	900a      	str	r0, [sp, #40]	; 0x28
10002746:	9309      	str	r3, [sp, #36]	; 0x24
10002748:	7850      	ldrb	r0, [r2, #1]
1000274a:	1c56      	adds	r6, r2, #1
1000274c:	e77c      	b.n	10002648 <_vsnprintf+0x90>
1000274e:	2878      	cmp	r0, #120	; 0x78
10002750:	d100      	bne.n	10002754 <_vsnprintf+0x19c>
10002752:	e1d4      	b.n	10002afe <_vsnprintf+0x546>
10002754:	2858      	cmp	r0, #88	; 0x58
10002756:	d100      	bne.n	1000275a <_vsnprintf+0x1a2>
10002758:	e268      	b.n	10002c2c <_vsnprintf+0x674>
1000275a:	286f      	cmp	r0, #111	; 0x6f
1000275c:	d100      	bne.n	10002760 <_vsnprintf+0x1a8>
1000275e:	e352      	b.n	10002e06 <_vsnprintf+0x84e>
10002760:	2862      	cmp	r0, #98	; 0x62
10002762:	d100      	bne.n	10002766 <_vsnprintf+0x1ae>
10002764:	e1d8      	b.n	10002b18 <_vsnprintf+0x560>
10002766:	2310      	movs	r3, #16
10002768:	000a      	movs	r2, r1
1000276a:	439a      	bics	r2, r3
1000276c:	920b      	str	r2, [sp, #44]	; 0x2c
1000276e:	2869      	cmp	r0, #105	; 0x69
10002770:	d001      	beq.n	10002776 <_vsnprintf+0x1be>
10002772:	f000 fca2 	bl	100030ba <_vsnprintf+0xb02>
10002776:	230a      	movs	r3, #10
10002778:	930c      	str	r3, [sp, #48]	; 0x30
1000277a:	054b      	lsls	r3, r1, #21
1000277c:	d400      	bmi.n	10002780 <_vsnprintf+0x1c8>
1000277e:	e1d5      	b.n	10002b2c <_vsnprintf+0x574>
10002780:	2301      	movs	r3, #1
10002782:	9a0b      	ldr	r2, [sp, #44]	; 0x2c
10002784:	439a      	bics	r2, r3
10002786:	920b      	str	r2, [sp, #44]	; 0x2c
10002788:	2869      	cmp	r0, #105	; 0x69
1000278a:	d100      	bne.n	1000278e <_vsnprintf+0x1d6>
1000278c:	e1ce      	b.n	10002b2c <_vsnprintf+0x574>
1000278e:	2864      	cmp	r0, #100	; 0x64
10002790:	d100      	bne.n	10002794 <_vsnprintf+0x1dc>
10002792:	e1cb      	b.n	10002b2c <_vsnprintf+0x574>
10002794:	9a0b      	ldr	r2, [sp, #44]	; 0x2c
10002796:	2380      	movs	r3, #128	; 0x80
10002798:	0011      	movs	r1, r2
1000279a:	009b      	lsls	r3, r3, #2
1000279c:	4019      	ands	r1, r3
1000279e:	468a      	mov	sl, r1
100027a0:	421a      	tst	r2, r3
100027a2:	d000      	beq.n	100027a6 <_vsnprintf+0x1ee>
100027a4:	e332      	b.n	10002e0c <_vsnprintf+0x854>
100027a6:	2380      	movs	r3, #128	; 0x80
100027a8:	0011      	movs	r1, r2
100027aa:	005b      	lsls	r3, r3, #1
100027ac:	4019      	ands	r1, r3
100027ae:	4689      	mov	r9, r1
100027b0:	421a      	tst	r2, r3
100027b2:	d001      	beq.n	100027b8 <_vsnprintf+0x200>
100027b4:	f000 fc02 	bl	10002fbc <_vsnprintf+0xa04>
100027b8:	0013      	movs	r3, r2
100027ba:	065b      	lsls	r3, r3, #25
100027bc:	d500      	bpl.n	100027c0 <_vsnprintf+0x208>
100027be:	e310      	b.n	10002de2 <_vsnprintf+0x82a>
100027c0:	9b0b      	ldr	r3, [sp, #44]	; 0x2c
100027c2:	061b      	lsls	r3, r3, #24
100027c4:	d401      	bmi.n	100027ca <_vsnprintf+0x212>
100027c6:	f000 fc6e 	bl	100030a6 <_vsnprintf+0xaee>
100027ca:	9b09      	ldr	r3, [sp, #36]	; 0x24
100027cc:	cb04      	ldmia	r3!, {r2}
100027ce:	0412      	lsls	r2, r2, #16
100027d0:	0c12      	lsrs	r2, r2, #16
100027d2:	4692      	mov	sl, r2
100027d4:	9309      	str	r3, [sp, #36]	; 0x24
100027d6:	4653      	mov	r3, sl
100027d8:	2b00      	cmp	r3, #0
100027da:	d000      	beq.n	100027de <_vsnprintf+0x226>
100027dc:	e364      	b.n	10002ea8 <_vsnprintf+0x8f0>
100027de:	9a0b      	ldr	r2, [sp, #44]	; 0x2c
100027e0:	3310      	adds	r3, #16
100027e2:	0011      	movs	r1, r2
100027e4:	4399      	bics	r1, r3
100027e6:	910b      	str	r1, [sp, #44]	; 0x2c
100027e8:	0552      	lsls	r2, r2, #21
100027ea:	d400      	bmi.n	100027ee <_vsnprintf+0x236>
100027ec:	e35c      	b.n	10002ea8 <_vsnprintf+0x8f0>
100027ee:	2300      	movs	r3, #0
100027f0:	4699      	mov	r9, r3
100027f2:	9b0b      	ldr	r3, [sp, #44]	; 0x2c
100027f4:	9306      	str	r3, [sp, #24]
100027f6:	9b0a      	ldr	r3, [sp, #40]	; 0x28
100027f8:	9305      	str	r3, [sp, #20]
100027fa:	4643      	mov	r3, r8
100027fc:	9304      	str	r3, [sp, #16]
100027fe:	9b0c      	ldr	r3, [sp, #48]	; 0x30
10002800:	9303      	str	r3, [sp, #12]
10002802:	2300      	movs	r3, #0
10002804:	e2de      	b.n	10002dc4 <_vsnprintf+0x80c>
10002806:	7870      	ldrb	r0, [r6, #1]
10002808:	2868      	cmp	r0, #104	; 0x68
1000280a:	d100      	bne.n	1000280e <_vsnprintf+0x256>
1000280c:	e207      	b.n	10002c1e <_vsnprintf+0x666>
1000280e:	2380      	movs	r3, #128	; 0x80
10002810:	3601      	adds	r6, #1
10002812:	4319      	orrs	r1, r3
10002814:	e741      	b.n	1000269a <_vsnprintf+0xe2>
10002816:	2380      	movs	r3, #128	; 0x80
10002818:	009b      	lsls	r3, r3, #2
1000281a:	7870      	ldrb	r0, [r6, #1]
1000281c:	4319      	orrs	r1, r3
1000281e:	3601      	adds	r6, #1
10002820:	e73b      	b.n	1000269a <_vsnprintf+0xe2>
10002822:	2846      	cmp	r0, #70	; 0x46
10002824:	d100      	bne.n	10002828 <_vsnprintf+0x270>
10002826:	e174      	b.n	10002b12 <_vsnprintf+0x55a>
10002828:	2207      	movs	r2, #7
1000282a:	9b09      	ldr	r3, [sp, #36]	; 0x24
1000282c:	9104      	str	r1, [sp, #16]
1000282e:	3307      	adds	r3, #7
10002830:	4393      	bics	r3, r2
10002832:	9a0a      	ldr	r2, [sp, #40]	; 0x28
10002834:	0019      	movs	r1, r3
10002836:	9203      	str	r2, [sp, #12]
10002838:	4642      	mov	r2, r8
1000283a:	9202      	str	r2, [sp, #8]
1000283c:	c90c      	ldmia	r1!, {r2, r3}
1000283e:	9808      	ldr	r0, [sp, #32]
10002840:	9200      	str	r2, [sp, #0]
10002842:	9301      	str	r3, [sp, #4]
10002844:	9109      	str	r1, [sp, #36]	; 0x24
10002846:	002a      	movs	r2, r5
10002848:	465b      	mov	r3, fp
1000284a:	0021      	movs	r1, r4
1000284c:	f7ff fcc4 	bl	100021d8 <_ftoa>
10002850:	3601      	adds	r6, #1
10002852:	0005      	movs	r5, r0
10002854:	e6d5      	b.n	10002602 <_vsnprintf+0x4a>
10002856:	9b09      	ldr	r3, [sp, #36]	; 0x24
10002858:	001a      	movs	r2, r3
1000285a:	ca08      	ldmia	r2!, {r3}
1000285c:	4691      	mov	r9, r2
1000285e:	2b00      	cmp	r3, #0
10002860:	d100      	bne.n	10002864 <_vsnprintf+0x2ac>
10002862:	e105      	b.n	10002a70 <_vsnprintf+0x4b8>
10002864:	2221      	movs	r2, #33	; 0x21
10002866:	4311      	orrs	r1, r2
10002868:	468a      	mov	sl, r1
1000286a:	a80e      	add	r0, sp, #56	; 0x38
1000286c:	4684      	mov	ip, r0
1000286e:	211f      	movs	r1, #31
10002870:	4461      	add	r1, ip
10002872:	9509      	str	r5, [sp, #36]	; 0x24
10002874:	2200      	movs	r2, #0
10002876:	270f      	movs	r7, #15
10002878:	46a4      	mov	ip, r4
1000287a:	000d      	movs	r5, r1
1000287c:	e002      	b.n	10002884 <_vsnprintf+0x2cc>
1000287e:	2a20      	cmp	r2, #32
10002880:	d00c      	beq.n	1000289c <_vsnprintf+0x2e4>
10002882:	000b      	movs	r3, r1
10002884:	003c      	movs	r4, r7
10002886:	401c      	ands	r4, r3
10002888:	0020      	movs	r0, r4
1000288a:	3037      	adds	r0, #55	; 0x37
1000288c:	2c09      	cmp	r4, #9
1000288e:	d800      	bhi.n	10002892 <_vsnprintf+0x2da>
10002890:	3807      	subs	r0, #7
10002892:	3201      	adds	r2, #1
10002894:	54a8      	strb	r0, [r5, r2]
10002896:	0919      	lsrs	r1, r3, #4
10002898:	2b0f      	cmp	r3, #15
1000289a:	d8f0      	bhi.n	1000287e <_vsnprintf+0x2c6>
1000289c:	4664      	mov	r4, ip
1000289e:	9d09      	ldr	r5, [sp, #36]	; 0x24
100028a0:	e0f0      	b.n	10002a84 <_vsnprintf+0x4cc>
100028a2:	078b      	lsls	r3, r1, #30
100028a4:	d400      	bmi.n	100028a8 <_vsnprintf+0x2f0>
100028a6:	e1d1      	b.n	10002c4c <_vsnprintf+0x694>
100028a8:	9b09      	ldr	r3, [sp, #36]	; 0x24
100028aa:	002a      	movs	r2, r5
100028ac:	4699      	mov	r9, r3
100028ae:	1c6b      	adds	r3, r5, #1
100028b0:	4698      	mov	r8, r3
100028b2:	464b      	mov	r3, r9
100028b4:	cb01      	ldmia	r3!, {r0}
100028b6:	0021      	movs	r1, r4
100028b8:	4699      	mov	r9, r3
100028ba:	9f08      	ldr	r7, [sp, #32]
100028bc:	465b      	mov	r3, fp
100028be:	b2c0      	uxtb	r0, r0
100028c0:	47b8      	blx	r7
100028c2:	9b0a      	ldr	r3, [sp, #40]	; 0x28
100028c4:	469c      	mov	ip, r3
100028c6:	4465      	add	r5, ip
100028c8:	2b01      	cmp	r3, #1
100028ca:	d800      	bhi.n	100028ce <_vsnprintf+0x316>
100028cc:	e290      	b.n	10002df0 <_vsnprintf+0x838>
100028ce:	46b2      	mov	sl, r6
100028d0:	465e      	mov	r6, fp
100028d2:	4647      	mov	r7, r8
100028d4:	46a8      	mov	r8, r5
100028d6:	9d08      	ldr	r5, [sp, #32]
100028d8:	003a      	movs	r2, r7
100028da:	0033      	movs	r3, r6
100028dc:	3701      	adds	r7, #1
100028de:	0021      	movs	r1, r4
100028e0:	2020      	movs	r0, #32
100028e2:	47a8      	blx	r5
100028e4:	4547      	cmp	r7, r8
100028e6:	d1f7      	bne.n	100028d8 <_vsnprintf+0x320>
100028e8:	46b3      	mov	fp, r6
100028ea:	464b      	mov	r3, r9
100028ec:	4656      	mov	r6, sl
100028ee:	003d      	movs	r5, r7
100028f0:	9309      	str	r3, [sp, #36]	; 0x24
100028f2:	3601      	adds	r6, #1
100028f4:	e685      	b.n	10002602 <_vsnprintf+0x4a>
100028f6:	002a      	movs	r2, r5
100028f8:	1c6f      	adds	r7, r5, #1
100028fa:	465b      	mov	r3, fp
100028fc:	9d08      	ldr	r5, [sp, #32]
100028fe:	0021      	movs	r1, r4
10002900:	2025      	movs	r0, #37	; 0x25
10002902:	47a8      	blx	r5
10002904:	3601      	adds	r6, #1
10002906:	003d      	movs	r5, r7
10002908:	e67b      	b.n	10002602 <_vsnprintf+0x4a>
1000290a:	46c0      	nop			; (mov r8, r8)
1000290c:	100025b9 	.word	0x100025b9
10002910:	20000b04 	.word	0x20000b04
10002914:	10004ddc 	.word	0x10004ddc
10002918:	10004e20 	.word	0x10004e20
1000291c:	10004e6c 	.word	0x10004e6c
10002920:	9b09      	ldr	r3, [sp, #36]	; 0x24
10002922:	cb04      	ldmia	r3!, {r2}
10002924:	4699      	mov	r9, r3
10002926:	4643      	mov	r3, r8
10002928:	9209      	str	r2, [sp, #36]	; 0x24
1000292a:	2b00      	cmp	r3, #0
1000292c:	d000      	beq.n	10002930 <_vsnprintf+0x378>
1000292e:	e097      	b.n	10002a60 <_vsnprintf+0x4a8>
10002930:	7813      	ldrb	r3, [r2, #0]
10002932:	469c      	mov	ip, r3
10002934:	2b00      	cmp	r3, #0
10002936:	d100      	bne.n	1000293a <_vsnprintf+0x382>
10002938:	e3b3      	b.n	100030a2 <_vsnprintf+0xaea>
1000293a:	2302      	movs	r3, #2
1000293c:	425b      	negs	r3, r3
1000293e:	1c5a      	adds	r2, r3, #1
10002940:	9b09      	ldr	r3, [sp, #36]	; 0x24
10002942:	4692      	mov	sl, r2
10002944:	0018      	movs	r0, r3
10002946:	9f0a      	ldr	r7, [sp, #40]	; 0x28
10002948:	920b      	str	r2, [sp, #44]	; 0x2c
1000294a:	4450      	add	r0, sl
1000294c:	e002      	b.n	10002954 <_vsnprintf+0x39c>
1000294e:	4283      	cmp	r3, r0
10002950:	d100      	bne.n	10002954 <_vsnprintf+0x39c>
10002952:	e169      	b.n	10002c28 <_vsnprintf+0x670>
10002954:	785a      	ldrb	r2, [r3, #1]
10002956:	3301      	adds	r3, #1
10002958:	2a00      	cmp	r2, #0
1000295a:	d1f8      	bne.n	1000294e <_vsnprintf+0x396>
1000295c:	9a09      	ldr	r2, [sp, #36]	; 0x24
1000295e:	970a      	str	r7, [sp, #40]	; 0x28
10002960:	1a9b      	subs	r3, r3, r2
10002962:	930b      	str	r3, [sp, #44]	; 0x2c
10002964:	2380      	movs	r3, #128	; 0x80
10002966:	000a      	movs	r2, r1
10002968:	00db      	lsls	r3, r3, #3
1000296a:	401a      	ands	r2, r3
1000296c:	920c      	str	r2, [sp, #48]	; 0x30
1000296e:	4219      	tst	r1, r3
10002970:	d004      	beq.n	1000297c <_vsnprintf+0x3c4>
10002972:	9b0b      	ldr	r3, [sp, #44]	; 0x2c
10002974:	4543      	cmp	r3, r8
10002976:	d901      	bls.n	1000297c <_vsnprintf+0x3c4>
10002978:	4643      	mov	r3, r8
1000297a:	930b      	str	r3, [sp, #44]	; 0x2c
1000297c:	2302      	movs	r3, #2
1000297e:	001a      	movs	r2, r3
10002980:	400a      	ands	r2, r1
10002982:	920d      	str	r2, [sp, #52]	; 0x34
10002984:	420b      	tst	r3, r1
10002986:	d100      	bne.n	1000298a <_vsnprintf+0x3d2>
10002988:	e184      	b.n	10002c94 <_vsnprintf+0x6dc>
1000298a:	4660      	mov	r0, ip
1000298c:	2800      	cmp	r0, #0
1000298e:	d023      	beq.n	100029d8 <_vsnprintf+0x420>
10002990:	9b0c      	ldr	r3, [sp, #48]	; 0x30
10002992:	2b00      	cmp	r3, #0
10002994:	d100      	bne.n	10002998 <_vsnprintf+0x3e0>
10002996:	e124      	b.n	10002be2 <_vsnprintf+0x62a>
10002998:	44a8      	add	r8, r5
1000299a:	46c2      	mov	sl, r8
1000299c:	9b09      	ldr	r3, [sp, #36]	; 0x24
1000299e:	4657      	mov	r7, sl
100029a0:	1b5b      	subs	r3, r3, r5
100029a2:	4698      	mov	r8, r3
100029a4:	9b08      	ldr	r3, [sp, #32]
100029a6:	46b2      	mov	sl, r6
100029a8:	002a      	movs	r2, r5
100029aa:	0026      	movs	r6, r4
100029ac:	465c      	mov	r4, fp
100029ae:	469b      	mov	fp, r3
100029b0:	e009      	b.n	100029c6 <_vsnprintf+0x40e>
100029b2:	0023      	movs	r3, r4
100029b4:	0031      	movs	r1, r6
100029b6:	1c55      	adds	r5, r2, #1
100029b8:	47d8      	blx	fp
100029ba:	4643      	mov	r3, r8
100029bc:	5d58      	ldrb	r0, [r3, r5]
100029be:	2800      	cmp	r0, #0
100029c0:	d100      	bne.n	100029c4 <_vsnprintf+0x40c>
100029c2:	e13f      	b.n	10002c44 <_vsnprintf+0x68c>
100029c4:	002a      	movs	r2, r5
100029c6:	4297      	cmp	r7, r2
100029c8:	d1f3      	bne.n	100029b2 <_vsnprintf+0x3fa>
100029ca:	46a3      	mov	fp, r4
100029cc:	003d      	movs	r5, r7
100029ce:	0034      	movs	r4, r6
100029d0:	4656      	mov	r6, sl
100029d2:	9b0d      	ldr	r3, [sp, #52]	; 0x34
100029d4:	2b00      	cmp	r3, #0
100029d6:	d069      	beq.n	10002aac <_vsnprintf+0x4f4>
100029d8:	9b0b      	ldr	r3, [sp, #44]	; 0x2c
100029da:	990a      	ldr	r1, [sp, #40]	; 0x28
100029dc:	46a8      	mov	r8, r5
100029de:	4299      	cmp	r1, r3
100029e0:	d964      	bls.n	10002aac <_vsnprintf+0x4f4>
100029e2:	468c      	mov	ip, r1
100029e4:	4465      	add	r5, ip
100029e6:	1aed      	subs	r5, r5, r3
100029e8:	9b08      	ldr	r3, [sp, #32]
100029ea:	4647      	mov	r7, r8
100029ec:	469a      	mov	sl, r3
100029ee:	46b0      	mov	r8, r6
100029f0:	0026      	movs	r6, r4
100029f2:	465c      	mov	r4, fp
100029f4:	003a      	movs	r2, r7
100029f6:	0023      	movs	r3, r4
100029f8:	3701      	adds	r7, #1
100029fa:	0031      	movs	r1, r6
100029fc:	2020      	movs	r0, #32
100029fe:	47d0      	blx	sl
10002a00:	42af      	cmp	r7, r5
10002a02:	d1f7      	bne.n	100029f4 <_vsnprintf+0x43c>
10002a04:	46a3      	mov	fp, r4
10002a06:	0034      	movs	r4, r6
10002a08:	4646      	mov	r6, r8
10002a0a:	e04f      	b.n	10002aac <_vsnprintf+0x4f4>
10002a0c:	4bd2      	ldr	r3, [pc, #840]	; (10002d58 <_vsnprintf+0x7a0>)
10002a0e:	7820      	ldrb	r0, [r4, #0]
10002a10:	9308      	str	r3, [sp, #32]
10002a12:	2300      	movs	r3, #0
10002a14:	469a      	mov	sl, r3
10002a16:	2800      	cmp	r0, #0
10002a18:	d000      	beq.n	10002a1c <_vsnprintf+0x464>
10002a1a:	e5e6      	b.n	100025ea <_vsnprintf+0x32>
10002a1c:	2400      	movs	r4, #0
10002a1e:	e671      	b.n	10002704 <_vsnprintf+0x14c>
10002a20:	4643      	mov	r3, r8
10002a22:	0006      	movs	r6, r0
10002a24:	9f0a      	ldr	r7, [sp, #40]	; 0x28
10002a26:	0098      	lsls	r0, r3, #2
10002a28:	18c0      	adds	r0, r0, r3
10002a2a:	3201      	adds	r2, #1
10002a2c:	0040      	lsls	r0, r0, #1
10002a2e:	1980      	adds	r0, r0, r6
10002a30:	7816      	ldrb	r6, [r2, #0]
10002a32:	0003      	movs	r3, r0
10002a34:	0030      	movs	r0, r6
10002a36:	3830      	subs	r0, #48	; 0x30
10002a38:	3b30      	subs	r3, #48	; 0x30
10002a3a:	2809      	cmp	r0, #9
10002a3c:	d9f3      	bls.n	10002a26 <_vsnprintf+0x46e>
10002a3e:	0030      	movs	r0, r6
10002a40:	4698      	mov	r8, r3
10002a42:	0016      	movs	r6, r2
10002a44:	970a      	str	r7, [sp, #40]	; 0x28
10002a46:	e603      	b.n	10002650 <_vsnprintf+0x98>
10002a48:	9b09      	ldr	r3, [sp, #36]	; 0x24
10002a4a:	3602      	adds	r6, #2
10002a4c:	cb04      	ldmia	r3!, {r2}
10002a4e:	4690      	mov	r8, r2
10002a50:	43d2      	mvns	r2, r2
10002a52:	4640      	mov	r0, r8
10002a54:	17d2      	asrs	r2, r2, #31
10002a56:	4010      	ands	r0, r2
10002a58:	4680      	mov	r8, r0
10002a5a:	9309      	str	r3, [sp, #36]	; 0x24
10002a5c:	7830      	ldrb	r0, [r6, #0]
10002a5e:	e5f7      	b.n	10002650 <_vsnprintf+0x98>
10002a60:	7813      	ldrb	r3, [r2, #0]
10002a62:	469c      	mov	ip, r3
10002a64:	2b00      	cmp	r3, #0
10002a66:	d100      	bne.n	10002a6a <_vsnprintf+0x4b2>
10002a68:	e31a      	b.n	100030a0 <_vsnprintf+0xae8>
10002a6a:	4643      	mov	r3, r8
10002a6c:	3b01      	subs	r3, #1
10002a6e:	e766      	b.n	1000293e <_vsnprintf+0x386>
10002a70:	2210      	movs	r2, #16
10002a72:	0008      	movs	r0, r1
10002a74:	4390      	bics	r0, r2
10002a76:	3211      	adds	r2, #17
10002a78:	4310      	orrs	r0, r2
10002a7a:	4682      	mov	sl, r0
10002a7c:	2200      	movs	r2, #0
10002a7e:	0549      	lsls	r1, r1, #21
10002a80:	d400      	bmi.n	10002a84 <_vsnprintf+0x4cc>
10002a82:	e6f2      	b.n	1000286a <_vsnprintf+0x2b2>
10002a84:	4653      	mov	r3, sl
10002a86:	9306      	str	r3, [sp, #24]
10002a88:	2308      	movs	r3, #8
10002a8a:	9305      	str	r3, [sp, #20]
10002a8c:	4643      	mov	r3, r8
10002a8e:	9304      	str	r3, [sp, #16]
10002a90:	2310      	movs	r3, #16
10002a92:	9303      	str	r3, [sp, #12]
10002a94:	2300      	movs	r3, #0
10002a96:	9302      	str	r3, [sp, #8]
10002a98:	ab16      	add	r3, sp, #88	; 0x58
10002a9a:	9201      	str	r2, [sp, #4]
10002a9c:	9300      	str	r3, [sp, #0]
10002a9e:	002a      	movs	r2, r5
10002aa0:	465b      	mov	r3, fp
10002aa2:	0021      	movs	r1, r4
10002aa4:	9808      	ldr	r0, [sp, #32]
10002aa6:	f7ff f879 	bl	10001b9c <_ntoa_format>
10002aaa:	0005      	movs	r5, r0
10002aac:	464b      	mov	r3, r9
10002aae:	3601      	adds	r6, #1
10002ab0:	9309      	str	r3, [sp, #36]	; 0x24
10002ab2:	e5a6      	b.n	10002602 <_vsnprintf+0x4a>
10002ab4:	2320      	movs	r3, #32
10002ab6:	0002      	movs	r2, r0
10002ab8:	439a      	bics	r2, r3
10002aba:	2a47      	cmp	r2, #71	; 0x47
10002abc:	d104      	bne.n	10002ac8 <_vsnprintf+0x510>
10002abe:	2380      	movs	r3, #128	; 0x80
10002ac0:	011b      	lsls	r3, r3, #4
10002ac2:	4319      	orrs	r1, r3
10002ac4:	2302      	movs	r3, #2
10002ac6:	4398      	bics	r0, r3
10002ac8:	2845      	cmp	r0, #69	; 0x45
10002aca:	d101      	bne.n	10002ad0 <_vsnprintf+0x518>
10002acc:	2320      	movs	r3, #32
10002ace:	4319      	orrs	r1, r3
10002ad0:	2207      	movs	r2, #7
10002ad2:	9b09      	ldr	r3, [sp, #36]	; 0x24
10002ad4:	9104      	str	r1, [sp, #16]
10002ad6:	3307      	adds	r3, #7
10002ad8:	4393      	bics	r3, r2
10002ada:	9a0a      	ldr	r2, [sp, #40]	; 0x28
10002adc:	0019      	movs	r1, r3
10002ade:	9203      	str	r2, [sp, #12]
10002ae0:	4642      	mov	r2, r8
10002ae2:	9202      	str	r2, [sp, #8]
10002ae4:	c90c      	ldmia	r1!, {r2, r3}
10002ae6:	9808      	ldr	r0, [sp, #32]
10002ae8:	9200      	str	r2, [sp, #0]
10002aea:	9301      	str	r3, [sp, #4]
10002aec:	9109      	str	r1, [sp, #36]	; 0x24
10002aee:	002a      	movs	r2, r5
10002af0:	465b      	mov	r3, fp
10002af2:	0021      	movs	r1, r4
10002af4:	f7ff f94a 	bl	10001d8c <_etoa>
10002af8:	3601      	adds	r6, #1
10002afa:	0005      	movs	r5, r0
10002afc:	e581      	b.n	10002602 <_vsnprintf+0x4a>
10002afe:	2310      	movs	r3, #16
10002b00:	930c      	str	r3, [sp, #48]	; 0x30
10002b02:	230c      	movs	r3, #12
10002b04:	000a      	movs	r2, r1
10002b06:	439a      	bics	r2, r3
10002b08:	920b      	str	r2, [sp, #44]	; 0x2c
10002b0a:	054b      	lsls	r3, r1, #21
10002b0c:	d400      	bmi.n	10002b10 <_vsnprintf+0x558>
10002b0e:	e63b      	b.n	10002788 <_vsnprintf+0x1d0>
10002b10:	e636      	b.n	10002780 <_vsnprintf+0x1c8>
10002b12:	2320      	movs	r3, #32
10002b14:	4319      	orrs	r1, r3
10002b16:	e687      	b.n	10002828 <_vsnprintf+0x270>
10002b18:	2302      	movs	r3, #2
10002b1a:	930c      	str	r3, [sp, #48]	; 0x30
10002b1c:	910b      	str	r1, [sp, #44]	; 0x2c
10002b1e:	990b      	ldr	r1, [sp, #44]	; 0x2c
10002b20:	2864      	cmp	r0, #100	; 0x64
10002b22:	d1ee      	bne.n	10002b02 <_vsnprintf+0x54a>
10002b24:	9b0b      	ldr	r3, [sp, #44]	; 0x2c
10002b26:	055b      	lsls	r3, r3, #21
10002b28:	d500      	bpl.n	10002b2c <_vsnprintf+0x574>
10002b2a:	e629      	b.n	10002780 <_vsnprintf+0x1c8>
10002b2c:	9a0b      	ldr	r2, [sp, #44]	; 0x2c
10002b2e:	2380      	movs	r3, #128	; 0x80
10002b30:	0011      	movs	r1, r2
10002b32:	009b      	lsls	r3, r3, #2
10002b34:	4019      	ands	r1, r3
10002b36:	468a      	mov	sl, r1
10002b38:	421a      	tst	r2, r3
10002b3a:	d000      	beq.n	10002b3e <_vsnprintf+0x586>
10002b3c:	e0ce      	b.n	10002cdc <_vsnprintf+0x724>
10002b3e:	2380      	movs	r3, #128	; 0x80
10002b40:	0011      	movs	r1, r2
10002b42:	005b      	lsls	r3, r3, #1
10002b44:	4019      	ands	r1, r3
10002b46:	4689      	mov	r9, r1
10002b48:	421a      	tst	r2, r3
10002b4a:	d000      	beq.n	10002b4e <_vsnprintf+0x596>
10002b4c:	e1db      	b.n	10002f06 <_vsnprintf+0x94e>
10002b4e:	0013      	movs	r3, r2
10002b50:	065b      	lsls	r3, r3, #25
10002b52:	d500      	bpl.n	10002b56 <_vsnprintf+0x59e>
10002b54:	e11d      	b.n	10002d92 <_vsnprintf+0x7da>
10002b56:	9b0b      	ldr	r3, [sp, #44]	; 0x2c
10002b58:	9909      	ldr	r1, [sp, #36]	; 0x24
10002b5a:	061b      	lsls	r3, r3, #24
10002b5c:	d400      	bmi.n	10002b60 <_vsnprintf+0x5a8>
10002b5e:	e299      	b.n	10003094 <_vsnprintf+0xadc>
10002b60:	c908      	ldmia	r1!, {r3}
10002b62:	b21b      	sxth	r3, r3
10002b64:	17d8      	asrs	r0, r3, #31
10002b66:	181a      	adds	r2, r3, r0
10002b68:	4042      	eors	r2, r0
10002b6a:	b292      	uxth	r2, r2
10002b6c:	9109      	str	r1, [sp, #36]	; 0x24
10002b6e:	4692      	mov	sl, r2
10002b70:	0fda      	lsrs	r2, r3, #31
10002b72:	9212      	str	r2, [sp, #72]	; 0x48
10002b74:	2b00      	cmp	r3, #0
10002b76:	d109      	bne.n	10002b8c <_vsnprintf+0x5d4>
10002b78:	2380      	movs	r3, #128	; 0x80
10002b7a:	2210      	movs	r2, #16
10002b7c:	990b      	ldr	r1, [sp, #44]	; 0x2c
10002b7e:	00db      	lsls	r3, r3, #3
10002b80:	400b      	ands	r3, r1
10002b82:	4391      	bics	r1, r2
10002b84:	910b      	str	r1, [sp, #44]	; 0x2c
10002b86:	2b00      	cmp	r3, #0
10002b88:	d000      	beq.n	10002b8c <_vsnprintf+0x5d4>
10002b8a:	e112      	b.n	10002db2 <_vsnprintf+0x7fa>
10002b8c:	9a0b      	ldr	r2, [sp, #44]	; 0x2c
10002b8e:	2361      	movs	r3, #97	; 0x61
10002b90:	0692      	lsls	r2, r2, #26
10002b92:	d500      	bpl.n	10002b96 <_vsnprintf+0x5de>
10002b94:	2341      	movs	r3, #65	; 0x41
10002b96:	a90e      	add	r1, sp, #56	; 0x38
10002b98:	221f      	movs	r2, #31
10002b9a:	468c      	mov	ip, r1
10002b9c:	b2db      	uxtb	r3, r3
10002b9e:	4462      	add	r2, ip
10002ba0:	3b0a      	subs	r3, #10
10002ba2:	4657      	mov	r7, sl
10002ba4:	9513      	str	r5, [sp, #76]	; 0x4c
10002ba6:	46a2      	mov	sl, r4
10002ba8:	464d      	mov	r5, r9
10002baa:	9c0c      	ldr	r4, [sp, #48]	; 0x30
10002bac:	46b1      	mov	r9, r6
10002bae:	930d      	str	r3, [sp, #52]	; 0x34
10002bb0:	0016      	movs	r6, r2
10002bb2:	e00a      	b.n	10002bca <_vsnprintf+0x612>
10002bb4:	3330      	adds	r3, #48	; 0x30
10002bb6:	b2db      	uxtb	r3, r3
10002bb8:	3501      	adds	r5, #1
10002bba:	5573      	strb	r3, [r6, r5]
10002bbc:	42a7      	cmp	r7, r4
10002bbe:	d200      	bcs.n	10002bc2 <_vsnprintf+0x60a>
10002bc0:	e11c      	b.n	10002dfc <_vsnprintf+0x844>
10002bc2:	2d20      	cmp	r5, #32
10002bc4:	d100      	bne.n	10002bc8 <_vsnprintf+0x610>
10002bc6:	e119      	b.n	10002dfc <_vsnprintf+0x844>
10002bc8:	0007      	movs	r7, r0
10002bca:	0021      	movs	r1, r4
10002bcc:	0038      	movs	r0, r7
10002bce:	f000 fb01 	bl	100031d4 <__wrap___aeabi_uidiv>
10002bd2:	b2cb      	uxtb	r3, r1
10002bd4:	2909      	cmp	r1, #9
10002bd6:	d9ed      	bls.n	10002bb4 <_vsnprintf+0x5fc>
10002bd8:	9a0d      	ldr	r2, [sp, #52]	; 0x34
10002bda:	4694      	mov	ip, r2
10002bdc:	4463      	add	r3, ip
10002bde:	b2db      	uxtb	r3, r3
10002be0:	e7ea      	b.n	10002bb8 <_vsnprintf+0x600>
10002be2:	9b09      	ldr	r3, [sp, #36]	; 0x24
10002be4:	465f      	mov	r7, fp
10002be6:	1b5b      	subs	r3, r3, r5
10002be8:	4698      	mov	r8, r3
10002bea:	9b0a      	ldr	r3, [sp, #40]	; 0x28
10002bec:	46b3      	mov	fp, r6
10002bee:	469a      	mov	sl, r3
10002bf0:	0026      	movs	r6, r4
10002bf2:	9c08      	ldr	r4, [sp, #32]
10002bf4:	002a      	movs	r2, r5
10002bf6:	003b      	movs	r3, r7
10002bf8:	0031      	movs	r1, r6
10002bfa:	47a0      	blx	r4
10002bfc:	4643      	mov	r3, r8
10002bfe:	3501      	adds	r5, #1
10002c00:	5d58      	ldrb	r0, [r3, r5]
10002c02:	2800      	cmp	r0, #0
10002c04:	d1f6      	bne.n	10002bf4 <_vsnprintf+0x63c>
10002c06:	4653      	mov	r3, sl
10002c08:	0034      	movs	r4, r6
10002c0a:	930a      	str	r3, [sp, #40]	; 0x28
10002c0c:	465e      	mov	r6, fp
10002c0e:	46bb      	mov	fp, r7
10002c10:	e6df      	b.n	100029d2 <_vsnprintf+0x41a>
10002c12:	23c0      	movs	r3, #192	; 0xc0
10002c14:	009b      	lsls	r3, r3, #2
10002c16:	78b0      	ldrb	r0, [r6, #2]
10002c18:	4319      	orrs	r1, r3
10002c1a:	3602      	adds	r6, #2
10002c1c:	e53d      	b.n	1000269a <_vsnprintf+0xe2>
10002c1e:	23c0      	movs	r3, #192	; 0xc0
10002c20:	78b0      	ldrb	r0, [r6, #2]
10002c22:	4319      	orrs	r1, r3
10002c24:	3602      	adds	r6, #2
10002c26:	e538      	b.n	1000269a <_vsnprintf+0xe2>
10002c28:	970a      	str	r7, [sp, #40]	; 0x28
10002c2a:	e69b      	b.n	10002964 <_vsnprintf+0x3ac>
10002c2c:	230c      	movs	r3, #12
10002c2e:	000a      	movs	r2, r1
10002c30:	439a      	bics	r2, r3
10002c32:	3314      	adds	r3, #20
10002c34:	431a      	orrs	r2, r3
10002c36:	2310      	movs	r3, #16
10002c38:	920b      	str	r2, [sp, #44]	; 0x2c
10002c3a:	930c      	str	r3, [sp, #48]	; 0x30
10002c3c:	054b      	lsls	r3, r1, #21
10002c3e:	d400      	bmi.n	10002c42 <_vsnprintf+0x68a>
10002c40:	e5a8      	b.n	10002794 <_vsnprintf+0x1dc>
10002c42:	e59d      	b.n	10002780 <_vsnprintf+0x1c8>
10002c44:	46a3      	mov	fp, r4
10002c46:	0034      	movs	r4, r6
10002c48:	4656      	mov	r6, sl
10002c4a:	e6c2      	b.n	100029d2 <_vsnprintf+0x41a>
10002c4c:	9a0a      	ldr	r2, [sp, #40]	; 0x28
10002c4e:	2a01      	cmp	r2, #1
10002c50:	d800      	bhi.n	10002c54 <_vsnprintf+0x69c>
10002c52:	e22e      	b.n	100030b2 <_vsnprintf+0xafa>
10002c54:	1e6b      	subs	r3, r5, #1
10002c56:	189f      	adds	r7, r3, r2
10002c58:	9b08      	ldr	r3, [sp, #32]
10002c5a:	46b0      	mov	r8, r6
10002c5c:	4699      	mov	r9, r3
10002c5e:	0026      	movs	r6, r4
10002c60:	465c      	mov	r4, fp
10002c62:	002a      	movs	r2, r5
10002c64:	0023      	movs	r3, r4
10002c66:	3501      	adds	r5, #1
10002c68:	0031      	movs	r1, r6
10002c6a:	2020      	movs	r0, #32
10002c6c:	47c8      	blx	r9
10002c6e:	42bd      	cmp	r5, r7
10002c70:	d1f7      	bne.n	10002c62 <_vsnprintf+0x6aa>
10002c72:	46a3      	mov	fp, r4
10002c74:	0034      	movs	r4, r6
10002c76:	4646      	mov	r6, r8
10002c78:	9b09      	ldr	r3, [sp, #36]	; 0x24
10002c7a:	003a      	movs	r2, r7
10002c7c:	cb01      	ldmia	r3!, {r0}
10002c7e:	0021      	movs	r1, r4
10002c80:	4698      	mov	r8, r3
10002c82:	1c7d      	adds	r5, r7, #1
10002c84:	465b      	mov	r3, fp
10002c86:	9f08      	ldr	r7, [sp, #32]
10002c88:	b2c0      	uxtb	r0, r0
10002c8a:	47b8      	blx	r7
10002c8c:	4643      	mov	r3, r8
10002c8e:	3601      	adds	r6, #1
10002c90:	9309      	str	r3, [sp, #36]	; 0x24
10002c92:	e4b6      	b.n	10002602 <_vsnprintf+0x4a>
10002c94:	9a0b      	ldr	r2, [sp, #44]	; 0x2c
10002c96:	980a      	ldr	r0, [sp, #40]	; 0x28
10002c98:	1c53      	adds	r3, r2, #1
10002c9a:	4290      	cmp	r0, r2
10002c9c:	d800      	bhi.n	10002ca0 <_vsnprintf+0x6e8>
10002c9e:	e20a      	b.n	100030b6 <_vsnprintf+0xafe>
10002ca0:	1943      	adds	r3, r0, r5
10002ca2:	1a9b      	subs	r3, r3, r2
10002ca4:	001f      	movs	r7, r3
10002ca6:	9b08      	ldr	r3, [sp, #32]
10002ca8:	46b2      	mov	sl, r6
10002caa:	0026      	movs	r6, r4
10002cac:	465c      	mov	r4, fp
10002cae:	469b      	mov	fp, r3
10002cb0:	002a      	movs	r2, r5
10002cb2:	0023      	movs	r3, r4
10002cb4:	3501      	adds	r5, #1
10002cb6:	0031      	movs	r1, r6
10002cb8:	2020      	movs	r0, #32
10002cba:	47d8      	blx	fp
10002cbc:	42bd      	cmp	r5, r7
10002cbe:	d1f7      	bne.n	10002cb0 <_vsnprintf+0x6f8>
10002cc0:	9b0a      	ldr	r3, [sp, #40]	; 0x28
10002cc2:	46a3      	mov	fp, r4
10002cc4:	3301      	adds	r3, #1
10002cc6:	930b      	str	r3, [sp, #44]	; 0x2c
10002cc8:	9b09      	ldr	r3, [sp, #36]	; 0x24
10002cca:	0034      	movs	r4, r6
10002ccc:	781b      	ldrb	r3, [r3, #0]
10002cce:	4656      	mov	r6, sl
10002cd0:	469c      	mov	ip, r3
10002cd2:	4660      	mov	r0, ip
10002cd4:	2800      	cmp	r0, #0
10002cd6:	d000      	beq.n	10002cda <_vsnprintf+0x722>
10002cd8:	e65a      	b.n	10002990 <_vsnprintf+0x3d8>
10002cda:	e6e7      	b.n	10002aac <_vsnprintf+0x4f4>
10002cdc:	2207      	movs	r2, #7
10002cde:	9b09      	ldr	r3, [sp, #36]	; 0x24
10002ce0:	3307      	adds	r3, #7
10002ce2:	4393      	bics	r3, r2
10002ce4:	3201      	adds	r2, #1
10002ce6:	4694      	mov	ip, r2
10002ce8:	449c      	add	ip, r3
10002cea:	4662      	mov	r2, ip
10002cec:	685f      	ldr	r7, [r3, #4]
10002cee:	9209      	str	r2, [sp, #36]	; 0x24
10002cf0:	681a      	ldr	r2, [r3, #0]
10002cf2:	17fb      	asrs	r3, r7, #31
10002cf4:	9310      	str	r3, [sp, #64]	; 0x40
10002cf6:	9311      	str	r3, [sp, #68]	; 0x44
10002cf8:	9810      	ldr	r0, [sp, #64]	; 0x40
10002cfa:	9911      	ldr	r1, [sp, #68]	; 0x44
10002cfc:	0003      	movs	r3, r0
10002cfe:	4053      	eors	r3, r2
10002d00:	930e      	str	r3, [sp, #56]	; 0x38
10002d02:	000b      	movs	r3, r1
10002d04:	407b      	eors	r3, r7
10002d06:	930f      	str	r3, [sp, #60]	; 0x3c
10002d08:	4694      	mov	ip, r2
10002d0a:	9a0e      	ldr	r2, [sp, #56]	; 0x38
10002d0c:	9b0f      	ldr	r3, [sp, #60]	; 0x3c
10002d0e:	1a12      	subs	r2, r2, r0
10002d10:	418b      	sbcs	r3, r1
10002d12:	920e      	str	r2, [sp, #56]	; 0x38
10002d14:	930f      	str	r3, [sp, #60]	; 0x3c
10002d16:	0ffb      	lsrs	r3, r7, #31
10002d18:	4662      	mov	r2, ip
10002d1a:	9312      	str	r3, [sp, #72]	; 0x48
10002d1c:	2300      	movs	r3, #0
10002d1e:	433a      	orrs	r2, r7
10002d20:	469a      	mov	sl, r3
10002d22:	d03d      	beq.n	10002da0 <_vsnprintf+0x7e8>
10002d24:	9a0b      	ldr	r2, [sp, #44]	; 0x2c
10002d26:	2361      	movs	r3, #97	; 0x61
10002d28:	0692      	lsls	r2, r2, #26
10002d2a:	d500      	bpl.n	10002d2e <_vsnprintf+0x776>
10002d2c:	2341      	movs	r3, #65	; 0x41
10002d2e:	2200      	movs	r2, #0
10002d30:	b2db      	uxtb	r3, r3
10002d32:	a90e      	add	r1, sp, #56	; 0x38
10002d34:	3b0a      	subs	r3, #10
10002d36:	468c      	mov	ip, r1
10002d38:	4691      	mov	r9, r2
10002d3a:	930d      	str	r3, [sp, #52]	; 0x34
10002d3c:	4643      	mov	r3, r8
10002d3e:	321f      	adds	r2, #31
10002d40:	4462      	add	r2, ip
10002d42:	9513      	str	r5, [sp, #76]	; 0x4c
10002d44:	9615      	str	r6, [sp, #84]	; 0x54
10002d46:	464d      	mov	r5, r9
10002d48:	9e0e      	ldr	r6, [sp, #56]	; 0x38
10002d4a:	9f0f      	ldr	r7, [sp, #60]	; 0x3c
10002d4c:	46a1      	mov	r9, r4
10002d4e:	4690      	mov	r8, r2
10002d50:	9c0c      	ldr	r4, [sp, #48]	; 0x30
10002d52:	9314      	str	r3, [sp, #80]	; 0x50
10002d54:	e00f      	b.n	10002d76 <_vsnprintf+0x7be>
10002d56:	46c0      	nop			; (mov r8, r8)
10002d58:	10001ac9 	.word	0x10001ac9
10002d5c:	3230      	adds	r2, #48	; 0x30
10002d5e:	b2d2      	uxtb	r2, r2
10002d60:	4643      	mov	r3, r8
10002d62:	3501      	adds	r5, #1
10002d64:	555a      	strb	r2, [r3, r5]
10002d66:	45ba      	cmp	sl, r7
10002d68:	d100      	bne.n	10002d6c <_vsnprintf+0x7b4>
10002d6a:	e17c      	b.n	10003066 <_vsnprintf+0xaae>
10002d6c:	2d20      	cmp	r5, #32
10002d6e:	d100      	bne.n	10002d72 <_vsnprintf+0x7ba>
10002d70:	e17c      	b.n	1000306c <_vsnprintf+0xab4>
10002d72:	0006      	movs	r6, r0
10002d74:	000f      	movs	r7, r1
10002d76:	0022      	movs	r2, r4
10002d78:	2300      	movs	r3, #0
10002d7a:	0030      	movs	r0, r6
10002d7c:	0039      	movs	r1, r7
10002d7e:	f000 fa6f 	bl	10003260 <__wrap___aeabi_uldivmod>
10002d82:	b2d2      	uxtb	r2, r2
10002d84:	2a09      	cmp	r2, #9
10002d86:	d9e9      	bls.n	10002d5c <_vsnprintf+0x7a4>
10002d88:	9b0d      	ldr	r3, [sp, #52]	; 0x34
10002d8a:	469c      	mov	ip, r3
10002d8c:	4462      	add	r2, ip
10002d8e:	b2d2      	uxtb	r2, r2
10002d90:	e7e6      	b.n	10002d60 <_vsnprintf+0x7a8>
10002d92:	23ff      	movs	r3, #255	; 0xff
10002d94:	9909      	ldr	r1, [sp, #36]	; 0x24
10002d96:	c904      	ldmia	r1!, {r2}
10002d98:	4013      	ands	r3, r2
10002d9a:	001a      	movs	r2, r3
10002d9c:	9109      	str	r1, [sp, #36]	; 0x24
10002d9e:	e6e6      	b.n	10002b6e <_vsnprintf+0x5b6>
10002da0:	9a0b      	ldr	r2, [sp, #44]	; 0x2c
10002da2:	3310      	adds	r3, #16
10002da4:	0011      	movs	r1, r2
10002da6:	4399      	bics	r1, r3
10002da8:	910b      	str	r1, [sp, #44]	; 0x2c
10002daa:	0552      	lsls	r2, r2, #21
10002dac:	d5ba      	bpl.n	10002d24 <_vsnprintf+0x76c>
10002dae:	2300      	movs	r3, #0
10002db0:	4699      	mov	r9, r3
10002db2:	9b0b      	ldr	r3, [sp, #44]	; 0x2c
10002db4:	9306      	str	r3, [sp, #24]
10002db6:	9b0a      	ldr	r3, [sp, #40]	; 0x28
10002db8:	9305      	str	r3, [sp, #20]
10002dba:	4643      	mov	r3, r8
10002dbc:	9304      	str	r3, [sp, #16]
10002dbe:	9b0c      	ldr	r3, [sp, #48]	; 0x30
10002dc0:	9303      	str	r3, [sp, #12]
10002dc2:	9b12      	ldr	r3, [sp, #72]	; 0x48
10002dc4:	9302      	str	r3, [sp, #8]
10002dc6:	464b      	mov	r3, r9
10002dc8:	9301      	str	r3, [sp, #4]
10002dca:	ab16      	add	r3, sp, #88	; 0x58
10002dcc:	002a      	movs	r2, r5
10002dce:	9300      	str	r3, [sp, #0]
10002dd0:	0021      	movs	r1, r4
10002dd2:	465b      	mov	r3, fp
10002dd4:	9808      	ldr	r0, [sp, #32]
10002dd6:	f7fe fee1 	bl	10001b9c <_ntoa_format>
10002dda:	3601      	adds	r6, #1
10002ddc:	0005      	movs	r5, r0
10002dde:	f7ff fc10 	bl	10002602 <_vsnprintf+0x4a>
10002de2:	22ff      	movs	r2, #255	; 0xff
10002de4:	9b09      	ldr	r3, [sp, #36]	; 0x24
10002de6:	cb02      	ldmia	r3!, {r1}
10002de8:	4011      	ands	r1, r2
10002dea:	468a      	mov	sl, r1
10002dec:	9309      	str	r3, [sp, #36]	; 0x24
10002dee:	e4f2      	b.n	100027d6 <_vsnprintf+0x21e>
10002df0:	464b      	mov	r3, r9
10002df2:	4645      	mov	r5, r8
10002df4:	9309      	str	r3, [sp, #36]	; 0x24
10002df6:	3601      	adds	r6, #1
10002df8:	f7ff fc03 	bl	10002602 <_vsnprintf+0x4a>
10002dfc:	464e      	mov	r6, r9
10002dfe:	4654      	mov	r4, sl
10002e00:	46a9      	mov	r9, r5
10002e02:	9d13      	ldr	r5, [sp, #76]	; 0x4c
10002e04:	e7d5      	b.n	10002db2 <_vsnprintf+0x7fa>
10002e06:	2308      	movs	r3, #8
10002e08:	930c      	str	r3, [sp, #48]	; 0x30
10002e0a:	e687      	b.n	10002b1c <_vsnprintf+0x564>
10002e0c:	2207      	movs	r2, #7
10002e0e:	9b09      	ldr	r3, [sp, #36]	; 0x24
10002e10:	3307      	adds	r3, #7
10002e12:	4393      	bics	r3, r2
10002e14:	3201      	adds	r2, #1
10002e16:	4694      	mov	ip, r2
10002e18:	449c      	add	ip, r3
10002e1a:	4662      	mov	r2, ip
10002e1c:	9209      	str	r2, [sp, #36]	; 0x24
10002e1e:	681a      	ldr	r2, [r3, #0]
10002e20:	685b      	ldr	r3, [r3, #4]
10002e22:	0010      	movs	r0, r2
10002e24:	469a      	mov	sl, r3
10002e26:	0013      	movs	r3, r2
10002e28:	4652      	mov	r2, sl
10002e2a:	4313      	orrs	r3, r2
10002e2c:	d107      	bne.n	10002e3e <_vsnprintf+0x886>
10002e2e:	9a0b      	ldr	r2, [sp, #44]	; 0x2c
10002e30:	3310      	adds	r3, #16
10002e32:	0011      	movs	r1, r2
10002e34:	4399      	bics	r1, r3
10002e36:	910b      	str	r1, [sp, #44]	; 0x2c
10002e38:	0552      	lsls	r2, r2, #21
10002e3a:	d500      	bpl.n	10002e3e <_vsnprintf+0x886>
10002e3c:	e4d7      	b.n	100027ee <_vsnprintf+0x236>
10002e3e:	9a0b      	ldr	r2, [sp, #44]	; 0x2c
10002e40:	2361      	movs	r3, #97	; 0x61
10002e42:	0692      	lsls	r2, r2, #26
10002e44:	d500      	bpl.n	10002e48 <_vsnprintf+0x890>
10002e46:	2341      	movs	r3, #65	; 0x41
10002e48:	2200      	movs	r2, #0
10002e4a:	b2db      	uxtb	r3, r3
10002e4c:	a90e      	add	r1, sp, #56	; 0x38
10002e4e:	3b0a      	subs	r3, #10
10002e50:	468c      	mov	ip, r1
10002e52:	4691      	mov	r9, r2
10002e54:	930d      	str	r3, [sp, #52]	; 0x34
10002e56:	4643      	mov	r3, r8
10002e58:	321f      	adds	r2, #31
10002e5a:	4462      	add	r2, ip
10002e5c:	4657      	mov	r7, sl
10002e5e:	9512      	str	r5, [sp, #72]	; 0x48
10002e60:	46a2      	mov	sl, r4
10002e62:	464d      	mov	r5, r9
10002e64:	0004      	movs	r4, r0
10002e66:	46b1      	mov	r9, r6
10002e68:	4690      	mov	r8, r2
10002e6a:	9e0c      	ldr	r6, [sp, #48]	; 0x30
10002e6c:	9313      	str	r3, [sp, #76]	; 0x4c
10002e6e:	e00d      	b.n	10002e8c <_vsnprintf+0x8d4>
10002e70:	3230      	adds	r2, #48	; 0x30
10002e72:	b2d2      	uxtb	r2, r2
10002e74:	4643      	mov	r3, r8
10002e76:	3501      	adds	r5, #1
10002e78:	555a      	strb	r2, [r3, r5]
10002e7a:	2300      	movs	r3, #0
10002e7c:	42bb      	cmp	r3, r7
10002e7e:	d100      	bne.n	10002e82 <_vsnprintf+0x8ca>
10002e80:	e0fd      	b.n	1000307e <_vsnprintf+0xac6>
10002e82:	2d20      	cmp	r5, #32
10002e84:	d100      	bne.n	10002e88 <_vsnprintf+0x8d0>
10002e86:	e0fd      	b.n	10003084 <_vsnprintf+0xacc>
10002e88:	0004      	movs	r4, r0
10002e8a:	000f      	movs	r7, r1
10002e8c:	0032      	movs	r2, r6
10002e8e:	2300      	movs	r3, #0
10002e90:	0020      	movs	r0, r4
10002e92:	0039      	movs	r1, r7
10002e94:	f000 f9e4 	bl	10003260 <__wrap___aeabi_uldivmod>
10002e98:	b2d2      	uxtb	r2, r2
10002e9a:	2a09      	cmp	r2, #9
10002e9c:	d9e8      	bls.n	10002e70 <_vsnprintf+0x8b8>
10002e9e:	9b0d      	ldr	r3, [sp, #52]	; 0x34
10002ea0:	469c      	mov	ip, r3
10002ea2:	4462      	add	r2, ip
10002ea4:	b2d2      	uxtb	r2, r2
10002ea6:	e7e5      	b.n	10002e74 <_vsnprintf+0x8bc>
10002ea8:	9a0b      	ldr	r2, [sp, #44]	; 0x2c
10002eaa:	2361      	movs	r3, #97	; 0x61
10002eac:	0692      	lsls	r2, r2, #26
10002eae:	d500      	bpl.n	10002eb2 <_vsnprintf+0x8fa>
10002eb0:	2341      	movs	r3, #65	; 0x41
10002eb2:	b2db      	uxtb	r3, r3
10002eb4:	a90e      	add	r1, sp, #56	; 0x38
10002eb6:	3b0a      	subs	r3, #10
10002eb8:	221f      	movs	r2, #31
10002eba:	468c      	mov	ip, r1
10002ebc:	930d      	str	r3, [sp, #52]	; 0x34
10002ebe:	0023      	movs	r3, r4
10002ec0:	4462      	add	r2, ip
10002ec2:	4654      	mov	r4, sl
10002ec4:	9512      	str	r5, [sp, #72]	; 0x48
10002ec6:	0017      	movs	r7, r2
10002ec8:	464d      	mov	r5, r9
10002eca:	469a      	mov	sl, r3
10002ecc:	46b1      	mov	r9, r6
10002ece:	9e0c      	ldr	r6, [sp, #48]	; 0x30
10002ed0:	e008      	b.n	10002ee4 <_vsnprintf+0x92c>
10002ed2:	3330      	adds	r3, #48	; 0x30
10002ed4:	b2db      	uxtb	r3, r3
10002ed6:	3501      	adds	r5, #1
10002ed8:	557b      	strb	r3, [r7, r5]
10002eda:	42b4      	cmp	r4, r6
10002edc:	d30e      	bcc.n	10002efc <_vsnprintf+0x944>
10002ede:	2d20      	cmp	r5, #32
10002ee0:	d00c      	beq.n	10002efc <_vsnprintf+0x944>
10002ee2:	0004      	movs	r4, r0
10002ee4:	0031      	movs	r1, r6
10002ee6:	0020      	movs	r0, r4
10002ee8:	f000 f974 	bl	100031d4 <__wrap___aeabi_uidiv>
10002eec:	b2cb      	uxtb	r3, r1
10002eee:	2909      	cmp	r1, #9
10002ef0:	d9ef      	bls.n	10002ed2 <_vsnprintf+0x91a>
10002ef2:	9a0d      	ldr	r2, [sp, #52]	; 0x34
10002ef4:	4694      	mov	ip, r2
10002ef6:	4463      	add	r3, ip
10002ef8:	b2db      	uxtb	r3, r3
10002efa:	e7ec      	b.n	10002ed6 <_vsnprintf+0x91e>
10002efc:	464e      	mov	r6, r9
10002efe:	4654      	mov	r4, sl
10002f00:	46a9      	mov	r9, r5
10002f02:	9d12      	ldr	r5, [sp, #72]	; 0x48
10002f04:	e475      	b.n	100027f2 <_vsnprintf+0x23a>
10002f06:	9b09      	ldr	r3, [sp, #36]	; 0x24
10002f08:	001a      	movs	r2, r3
10002f0a:	ca08      	ldmia	r2!, {r3}
10002f0c:	17d9      	asrs	r1, r3, #31
10002f0e:	9213      	str	r2, [sp, #76]	; 0x4c
10002f10:	185a      	adds	r2, r3, r1
10002f12:	404a      	eors	r2, r1
10002f14:	4691      	mov	r9, r2
10002f16:	0fda      	lsrs	r2, r3, #31
10002f18:	9212      	str	r2, [sp, #72]	; 0x48
10002f1a:	2b00      	cmp	r3, #0
10002f1c:	d108      	bne.n	10002f30 <_vsnprintf+0x978>
10002f1e:	2380      	movs	r3, #128	; 0x80
10002f20:	2210      	movs	r2, #16
10002f22:	990b      	ldr	r1, [sp, #44]	; 0x2c
10002f24:	00db      	lsls	r3, r3, #3
10002f26:	400b      	ands	r3, r1
10002f28:	4391      	bics	r1, r2
10002f2a:	910b      	str	r1, [sp, #44]	; 0x2c
10002f2c:	2b00      	cmp	r3, #0
10002f2e:	d12b      	bne.n	10002f88 <_vsnprintf+0x9d0>
10002f30:	9a0b      	ldr	r2, [sp, #44]	; 0x2c
10002f32:	2361      	movs	r3, #97	; 0x61
10002f34:	0692      	lsls	r2, r2, #26
10002f36:	d500      	bpl.n	10002f3a <_vsnprintf+0x982>
10002f38:	2341      	movs	r3, #65	; 0x41
10002f3a:	aa0e      	add	r2, sp, #56	; 0x38
10002f3c:	271f      	movs	r7, #31
10002f3e:	4694      	mov	ip, r2
10002f40:	b2db      	uxtb	r3, r3
10002f42:	3b0a      	subs	r3, #10
10002f44:	950d      	str	r5, [sp, #52]	; 0x34
10002f46:	4467      	add	r7, ip
10002f48:	4655      	mov	r5, sl
10002f4a:	9309      	str	r3, [sp, #36]	; 0x24
10002f4c:	46a2      	mov	sl, r4
10002f4e:	464c      	mov	r4, r9
10002f50:	46b1      	mov	r9, r6
10002f52:	9e0c      	ldr	r6, [sp, #48]	; 0x30
10002f54:	e008      	b.n	10002f68 <_vsnprintf+0x9b0>
10002f56:	3330      	adds	r3, #48	; 0x30
10002f58:	b2db      	uxtb	r3, r3
10002f5a:	3501      	adds	r5, #1
10002f5c:	557b      	strb	r3, [r7, r5]
10002f5e:	42b4      	cmp	r4, r6
10002f60:	d30e      	bcc.n	10002f80 <_vsnprintf+0x9c8>
10002f62:	2d20      	cmp	r5, #32
10002f64:	d00c      	beq.n	10002f80 <_vsnprintf+0x9c8>
10002f66:	0004      	movs	r4, r0
10002f68:	0031      	movs	r1, r6
10002f6a:	0020      	movs	r0, r4
10002f6c:	f000 f932 	bl	100031d4 <__wrap___aeabi_uidiv>
10002f70:	b2cb      	uxtb	r3, r1
10002f72:	2909      	cmp	r1, #9
10002f74:	d9ef      	bls.n	10002f56 <_vsnprintf+0x99e>
10002f76:	9a09      	ldr	r2, [sp, #36]	; 0x24
10002f78:	4694      	mov	ip, r2
10002f7a:	4463      	add	r3, ip
10002f7c:	b2db      	uxtb	r3, r3
10002f7e:	e7ec      	b.n	10002f5a <_vsnprintf+0x9a2>
10002f80:	464e      	mov	r6, r9
10002f82:	4654      	mov	r4, sl
10002f84:	46aa      	mov	sl, r5
10002f86:	9d0d      	ldr	r5, [sp, #52]	; 0x34
10002f88:	9b0b      	ldr	r3, [sp, #44]	; 0x2c
10002f8a:	002a      	movs	r2, r5
10002f8c:	9306      	str	r3, [sp, #24]
10002f8e:	9b0a      	ldr	r3, [sp, #40]	; 0x28
10002f90:	0021      	movs	r1, r4
10002f92:	9305      	str	r3, [sp, #20]
10002f94:	4643      	mov	r3, r8
10002f96:	9304      	str	r3, [sp, #16]
10002f98:	9b0c      	ldr	r3, [sp, #48]	; 0x30
10002f9a:	9808      	ldr	r0, [sp, #32]
10002f9c:	9303      	str	r3, [sp, #12]
10002f9e:	9b12      	ldr	r3, [sp, #72]	; 0x48
10002fa0:	3601      	adds	r6, #1
10002fa2:	9302      	str	r3, [sp, #8]
10002fa4:	4653      	mov	r3, sl
10002fa6:	9301      	str	r3, [sp, #4]
10002fa8:	ab16      	add	r3, sp, #88	; 0x58
10002faa:	9300      	str	r3, [sp, #0]
10002fac:	465b      	mov	r3, fp
10002fae:	f7fe fdf5 	bl	10001b9c <_ntoa_format>
10002fb2:	9b13      	ldr	r3, [sp, #76]	; 0x4c
10002fb4:	0005      	movs	r5, r0
10002fb6:	9309      	str	r3, [sp, #36]	; 0x24
10002fb8:	f7ff fb23 	bl	10002602 <_vsnprintf+0x4a>
10002fbc:	9b09      	ldr	r3, [sp, #36]	; 0x24
10002fbe:	cb04      	ldmia	r3!, {r2}
10002fc0:	4691      	mov	r9, r2
10002fc2:	9312      	str	r3, [sp, #72]	; 0x48
10002fc4:	2a00      	cmp	r2, #0
10002fc6:	d108      	bne.n	10002fda <_vsnprintf+0xa22>
10002fc8:	2380      	movs	r3, #128	; 0x80
10002fca:	2210      	movs	r2, #16
10002fcc:	990b      	ldr	r1, [sp, #44]	; 0x2c
10002fce:	00db      	lsls	r3, r3, #3
10002fd0:	400b      	ands	r3, r1
10002fd2:	4391      	bics	r1, r2
10002fd4:	910b      	str	r1, [sp, #44]	; 0x2c
10002fd6:	2b00      	cmp	r3, #0
10002fd8:	d12b      	bne.n	10003032 <_vsnprintf+0xa7a>
10002fda:	9a0b      	ldr	r2, [sp, #44]	; 0x2c
10002fdc:	2361      	movs	r3, #97	; 0x61
10002fde:	0692      	lsls	r2, r2, #26
10002fe0:	d500      	bpl.n	10002fe4 <_vsnprintf+0xa2c>
10002fe2:	2341      	movs	r3, #65	; 0x41
10002fe4:	aa0e      	add	r2, sp, #56	; 0x38
10002fe6:	271f      	movs	r7, #31
10002fe8:	4694      	mov	ip, r2
10002fea:	b2db      	uxtb	r3, r3
10002fec:	3b0a      	subs	r3, #10
10002fee:	950d      	str	r5, [sp, #52]	; 0x34
10002ff0:	4467      	add	r7, ip
10002ff2:	4655      	mov	r5, sl
10002ff4:	9309      	str	r3, [sp, #36]	; 0x24
10002ff6:	46a2      	mov	sl, r4
10002ff8:	464c      	mov	r4, r9
10002ffa:	46b1      	mov	r9, r6
10002ffc:	9e0c      	ldr	r6, [sp, #48]	; 0x30
10002ffe:	e008      	b.n	10003012 <_vsnprintf+0xa5a>
10003000:	3330      	adds	r3, #48	; 0x30
10003002:	b2db      	uxtb	r3, r3
10003004:	3501      	adds	r5, #1
10003006:	557b      	strb	r3, [r7, r5]
10003008:	42b4      	cmp	r4, r6
1000300a:	d30e      	bcc.n	1000302a <_vsnprintf+0xa72>
1000300c:	2d20      	cmp	r5, #32
1000300e:	d00c      	beq.n	1000302a <_vsnprintf+0xa72>
10003010:	0004      	movs	r4, r0
10003012:	0031      	movs	r1, r6
10003014:	0020      	movs	r0, r4
10003016:	f000 f8dd 	bl	100031d4 <__wrap___aeabi_uidiv>
1000301a:	b2cb      	uxtb	r3, r1
1000301c:	2909      	cmp	r1, #9
1000301e:	d9ef      	bls.n	10003000 <_vsnprintf+0xa48>
10003020:	9a09      	ldr	r2, [sp, #36]	; 0x24
10003022:	4694      	mov	ip, r2
10003024:	4463      	add	r3, ip
10003026:	b2db      	uxtb	r3, r3
10003028:	e7ec      	b.n	10003004 <_vsnprintf+0xa4c>
1000302a:	464e      	mov	r6, r9
1000302c:	4654      	mov	r4, sl
1000302e:	46aa      	mov	sl, r5
10003030:	9d0d      	ldr	r5, [sp, #52]	; 0x34
10003032:	9b0b      	ldr	r3, [sp, #44]	; 0x2c
10003034:	002a      	movs	r2, r5
10003036:	9306      	str	r3, [sp, #24]
10003038:	9b0a      	ldr	r3, [sp, #40]	; 0x28
1000303a:	0021      	movs	r1, r4
1000303c:	9305      	str	r3, [sp, #20]
1000303e:	4643      	mov	r3, r8
10003040:	9304      	str	r3, [sp, #16]
10003042:	9b0c      	ldr	r3, [sp, #48]	; 0x30
10003044:	9808      	ldr	r0, [sp, #32]
10003046:	9303      	str	r3, [sp, #12]
10003048:	2300      	movs	r3, #0
1000304a:	9302      	str	r3, [sp, #8]
1000304c:	4653      	mov	r3, sl
1000304e:	9301      	str	r3, [sp, #4]
10003050:	ab16      	add	r3, sp, #88	; 0x58
10003052:	9300      	str	r3, [sp, #0]
10003054:	465b      	mov	r3, fp
10003056:	f7fe fda1 	bl	10001b9c <_ntoa_format>
1000305a:	9b12      	ldr	r3, [sp, #72]	; 0x48
1000305c:	0005      	movs	r5, r0
1000305e:	9309      	str	r3, [sp, #36]	; 0x24
10003060:	3601      	adds	r6, #1
10003062:	f7ff face 	bl	10002602 <_vsnprintf+0x4a>
10003066:	42b4      	cmp	r4, r6
10003068:	d800      	bhi.n	1000306c <_vsnprintf+0xab4>
1000306a:	e67f      	b.n	10002d6c <_vsnprintf+0x7b4>
1000306c:	9b14      	ldr	r3, [sp, #80]	; 0x50
1000306e:	464c      	mov	r4, r9
10003070:	960e      	str	r6, [sp, #56]	; 0x38
10003072:	970f      	str	r7, [sp, #60]	; 0x3c
10003074:	46a9      	mov	r9, r5
10003076:	4698      	mov	r8, r3
10003078:	9e15      	ldr	r6, [sp, #84]	; 0x54
1000307a:	9d13      	ldr	r5, [sp, #76]	; 0x4c
1000307c:	e699      	b.n	10002db2 <_vsnprintf+0x7fa>
1000307e:	42a6      	cmp	r6, r4
10003080:	d800      	bhi.n	10003084 <_vsnprintf+0xacc>
10003082:	e6fe      	b.n	10002e82 <_vsnprintf+0x8ca>
10003084:	9b13      	ldr	r3, [sp, #76]	; 0x4c
10003086:	464e      	mov	r6, r9
10003088:	4698      	mov	r8, r3
1000308a:	46a9      	mov	r9, r5
1000308c:	4654      	mov	r4, sl
1000308e:	9d12      	ldr	r5, [sp, #72]	; 0x48
10003090:	f7ff fbaf 	bl	100027f2 <_vsnprintf+0x23a>
10003094:	c908      	ldmia	r1!, {r3}
10003096:	17d8      	asrs	r0, r3, #31
10003098:	181a      	adds	r2, r3, r0
1000309a:	4042      	eors	r2, r0
1000309c:	9109      	str	r1, [sp, #36]	; 0x24
1000309e:	e566      	b.n	10002b6e <_vsnprintf+0x5b6>
100030a0:	2300      	movs	r3, #0
100030a2:	930b      	str	r3, [sp, #44]	; 0x2c
100030a4:	e45e      	b.n	10002964 <_vsnprintf+0x3ac>
100030a6:	9b09      	ldr	r3, [sp, #36]	; 0x24
100030a8:	cb04      	ldmia	r3!, {r2}
100030aa:	4692      	mov	sl, r2
100030ac:	9309      	str	r3, [sp, #36]	; 0x24
100030ae:	f7ff fb92 	bl	100027d6 <_vsnprintf+0x21e>
100030b2:	002f      	movs	r7, r5
100030b4:	e5e0      	b.n	10002c78 <_vsnprintf+0x6c0>
100030b6:	930b      	str	r3, [sp, #44]	; 0x2c
100030b8:	e60b      	b.n	10002cd2 <_vsnprintf+0x71a>
100030ba:	3b06      	subs	r3, #6
100030bc:	930c      	str	r3, [sp, #48]	; 0x30
100030be:	e52e      	b.n	10002b1e <_vsnprintf+0x566>

100030c0 <vfctprintf>:
100030c0:	b500      	push	{lr}
100030c2:	b085      	sub	sp, #20
100030c4:	9103      	str	r1, [sp, #12]
100030c6:	2101      	movs	r1, #1
100030c8:	9002      	str	r0, [sp, #8]
100030ca:	9300      	str	r3, [sp, #0]
100030cc:	4803      	ldr	r0, [pc, #12]	; (100030dc <vfctprintf+0x1c>)
100030ce:	0013      	movs	r3, r2
100030d0:	424a      	negs	r2, r1
100030d2:	a902      	add	r1, sp, #8
100030d4:	f7ff fa70 	bl	100025b8 <_vsnprintf>
100030d8:	b005      	add	sp, #20
100030da:	bd00      	pop	{pc}
100030dc:	10001d7d 	.word	0x10001d7d

100030e0 <weak_raw_vprintf>:
100030e0:	b510      	push	{r4, lr}
100030e2:	4a09      	ldr	r2, [pc, #36]	; (10003108 <weak_raw_vprintf+0x28>)
100030e4:	0003      	movs	r3, r0
100030e6:	6814      	ldr	r4, [r2, #0]
100030e8:	b084      	sub	sp, #16
100030ea:	2c00      	cmp	r4, #0
100030ec:	d008      	beq.n	10003100 <weak_raw_vprintf+0x20>
100030ee:	2201      	movs	r2, #1
100030f0:	9100      	str	r1, [sp, #0]
100030f2:	4806      	ldr	r0, [pc, #24]	; (1000310c <weak_raw_vprintf+0x2c>)
100030f4:	4252      	negs	r2, r2
100030f6:	a903      	add	r1, sp, #12
100030f8:	47a0      	blx	r4
100030fa:	2001      	movs	r0, #1
100030fc:	b004      	add	sp, #16
100030fe:	bd10      	pop	{r4, pc}
10003100:	f001 f84c 	bl	1000419c <__wrap_puts>
10003104:	2000      	movs	r0, #0
10003106:	e7f9      	b.n	100030fc <weak_raw_vprintf+0x1c>
10003108:	20000b04 	.word	0x20000b04
1000310c:	10001d6d 	.word	0x10001d6d

10003110 <__aeabi_bits_init>:
10003110:	4801      	ldr	r0, [pc, #4]	; (10003118 <__aeabi_bits_init+0x8>)
10003112:	2104      	movs	r1, #4
10003114:	4b01      	ldr	r3, [pc, #4]	; (1000311c <__aeabi_bits_init+0xc>)
10003116:	4718      	bx	r3
10003118:	200001e0 	.word	0x200001e0
1000311c:	10003141 	.word	0x10003141

10003120 <rom_func_lookup>:
10003120:	2314      	movs	r3, #20
10003122:	b510      	push	{r4, lr}
10003124:	0001      	movs	r1, r0
10003126:	8818      	ldrh	r0, [r3, #0]
10003128:	3304      	adds	r3, #4
1000312a:	881b      	ldrh	r3, [r3, #0]
1000312c:	4798      	blx	r3
1000312e:	bd10      	pop	{r4, pc}

10003130 <rom_data_lookup>:
10003130:	2316      	movs	r3, #22
10003132:	b510      	push	{r4, lr}
10003134:	0001      	movs	r1, r0
10003136:	8818      	ldrh	r0, [r3, #0]
10003138:	3302      	adds	r3, #2
1000313a:	881b      	ldrh	r3, [r3, #0]
1000313c:	4798      	blx	r3
1000313e:	bd10      	pop	{r4, pc}

10003140 <rom_funcs_lookup>:
10003140:	b5f0      	push	{r4, r5, r6, r7, lr}
10003142:	46c6      	mov	lr, r8
10003144:	b500      	push	{lr}
10003146:	2900      	cmp	r1, #0
10003148:	d016      	beq.n	10003178 <rom_funcs_lookup+0x38>
1000314a:	2314      	movs	r3, #20
1000314c:	0004      	movs	r4, r0
1000314e:	2501      	movs	r5, #1
10003150:	4698      	mov	r8, r3
10003152:	2718      	movs	r7, #24
10003154:	0089      	lsls	r1, r1, #2
10003156:	1846      	adds	r6, r0, r1
10003158:	4643      	mov	r3, r8
1000315a:	6821      	ldr	r1, [r4, #0]
1000315c:	8818      	ldrh	r0, [r3, #0]
1000315e:	883b      	ldrh	r3, [r7, #0]
10003160:	4798      	blx	r3
10003162:	c401      	stmia	r4!, {r0}
10003164:	1e43      	subs	r3, r0, #1
10003166:	4198      	sbcs	r0, r3
10003168:	4240      	negs	r0, r0
1000316a:	4005      	ands	r5, r0
1000316c:	42a6      	cmp	r6, r4
1000316e:	d1f3      	bne.n	10003158 <rom_funcs_lookup+0x18>
10003170:	0028      	movs	r0, r5
10003172:	bc04      	pop	{r2}
10003174:	4690      	mov	r8, r2
10003176:	bdf0      	pop	{r4, r5, r6, r7, pc}
10003178:	2501      	movs	r5, #1
1000317a:	e7f9      	b.n	10003170 <rom_funcs_lookup+0x30>

1000317c <__wrap___aeabi_idiv>:
1000317c:	4a14      	ldr	r2, [pc, #80]	; (100031d0 <divmod_s32s32_savestate+0x20>)
1000317e:	6f93      	ldr	r3, [r2, #120]	; 0x78
10003180:	089b      	lsrs	r3, r3, #2
10003182:	d215      	bcs.n	100031b0 <divmod_s32s32_savestate>

10003184 <divmod_s32s32_unsafe>:
10003184:	6690      	str	r0, [r2, #104]	; 0x68
10003186:	66d1      	str	r1, [r2, #108]	; 0x6c
10003188:	2900      	cmp	r1, #0
1000318a:	d005      	beq.n	10003198 <divmod_s32s32_unsafe+0x14>
1000318c:	e7ff      	b.n	1000318e <divmod_s32s32_unsafe+0xa>
1000318e:	e7ff      	b.n	10003190 <divmod_s32s32_unsafe+0xc>
10003190:	e7ff      	b.n	10003192 <divmod_s32s32_unsafe+0xe>
10003192:	6f51      	ldr	r1, [r2, #116]	; 0x74
10003194:	6f10      	ldr	r0, [r2, #112]	; 0x70
10003196:	4770      	bx	lr
10003198:	b504      	push	{r2, lr}
1000319a:	2180      	movs	r1, #128	; 0x80
1000319c:	0609      	lsls	r1, r1, #24
1000319e:	17c2      	asrs	r2, r0, #31
100031a0:	4051      	eors	r1, r2
100031a2:	2800      	cmp	r0, #0
100031a4:	d000      	beq.n	100031a8 <divmod_s32s32_unsafe+0x24>
100031a6:	43c8      	mvns	r0, r1
100031a8:	f001 fdca 	bl	10004d40 <____aeabi_idiv0_veneer>
100031ac:	2100      	movs	r1, #0
100031ae:	bd04      	pop	{r2, pc}

100031b0 <divmod_s32s32_savestate>:
100031b0:	6f93      	ldr	r3, [r2, #120]	; 0x78
100031b2:	085b      	lsrs	r3, r3, #1
100031b4:	d3fd      	bcc.n	100031b2 <divmod_s32s32_savestate+0x2>
100031b6:	b5f0      	push	{r4, r5, r6, r7, lr}
100031b8:	6e94      	ldr	r4, [r2, #104]	; 0x68
100031ba:	6ed5      	ldr	r5, [r2, #108]	; 0x6c
100031bc:	6f57      	ldr	r7, [r2, #116]	; 0x74
100031be:	6f16      	ldr	r6, [r2, #112]	; 0x70
100031c0:	f7ff ffe0 	bl	10003184 <divmod_s32s32_unsafe>
100031c4:	6694      	str	r4, [r2, #104]	; 0x68
100031c6:	66d5      	str	r5, [r2, #108]	; 0x6c
100031c8:	6757      	str	r7, [r2, #116]	; 0x74
100031ca:	6716      	str	r6, [r2, #112]	; 0x70
100031cc:	bdf0      	pop	{r4, r5, r6, r7, pc}
100031ce:	0000      	.short	0x0000
100031d0:	d0000000 	.word	0xd0000000

100031d4 <__wrap___aeabi_uidiv>:
100031d4:	4a13      	ldr	r2, [pc, #76]	; (10003224 <divmod_u32u32_savestate+0x20>)
100031d6:	6f93      	ldr	r3, [r2, #120]	; 0x78
100031d8:	089b      	lsrs	r3, r3, #2
100031da:	d213      	bcs.n	10003204 <divmod_u32u32_savestate>

100031dc <divmod_u32u32_unsafe>:
100031dc:	6610      	str	r0, [r2, #96]	; 0x60
100031de:	6651      	str	r1, [r2, #100]	; 0x64
100031e0:	2900      	cmp	r1, #0
100031e2:	d005      	beq.n	100031f0 <divmod_u32u32_unsafe+0x14>
100031e4:	e7ff      	b.n	100031e6 <divmod_u32u32_unsafe+0xa>
100031e6:	e7ff      	b.n	100031e8 <divmod_u32u32_unsafe+0xc>
100031e8:	e7ff      	b.n	100031ea <divmod_u32u32_unsafe+0xe>
100031ea:	6f51      	ldr	r1, [r2, #116]	; 0x74
100031ec:	6f10      	ldr	r0, [r2, #112]	; 0x70
100031ee:	4770      	bx	lr
100031f0:	b504      	push	{r2, lr}
100031f2:	2800      	cmp	r0, #0
100031f4:	d001      	beq.n	100031fa <divmod_u32u32_unsafe+0x1e>
100031f6:	2000      	movs	r0, #0
100031f8:	43c0      	mvns	r0, r0
100031fa:	f001 fda1 	bl	10004d40 <____aeabi_idiv0_veneer>
100031fe:	2100      	movs	r1, #0
10003200:	bd04      	pop	{r2, pc}
10003202:	46c0      	nop			; (mov r8, r8)

10003204 <divmod_u32u32_savestate>:
10003204:	6f93      	ldr	r3, [r2, #120]	; 0x78
10003206:	085b      	lsrs	r3, r3, #1
10003208:	d3fd      	bcc.n	10003206 <divmod_u32u32_savestate+0x2>
1000320a:	b5f0      	push	{r4, r5, r6, r7, lr}
1000320c:	6e94      	ldr	r4, [r2, #104]	; 0x68
1000320e:	6ed5      	ldr	r5, [r2, #108]	; 0x6c
10003210:	6f57      	ldr	r7, [r2, #116]	; 0x74
10003212:	6f16      	ldr	r6, [r2, #112]	; 0x70
10003214:	f7ff ffe2 	bl	100031dc <divmod_u32u32_unsafe>
10003218:	6694      	str	r4, [r2, #104]	; 0x68
1000321a:	66d5      	str	r5, [r2, #108]	; 0x6c
1000321c:	6757      	str	r7, [r2, #116]	; 0x74
1000321e:	6716      	str	r6, [r2, #112]	; 0x70
10003220:	bdf0      	pop	{r4, r5, r6, r7, pc}
10003222:	0000      	.short	0x0000
10003224:	d0000000 	.word	0xd0000000

10003228 <__wrap___aeabi_ldivmod>:
10003228:	4694      	mov	ip, r2
1000322a:	4a4e      	ldr	r2, [pc, #312]	; (10003364 <udiv0+0x1a>)
1000322c:	6f92      	ldr	r2, [r2, #120]	; 0x78
1000322e:	0892      	lsrs	r2, r2, #2
10003230:	4662      	mov	r2, ip
10003232:	d201      	bcs.n	10003238 <divmod_s64s64_savestate>
10003234:	e030      	b.n	10003298 <divmod_s64s64_unsafe>
10003236:	46c0      	nop			; (mov r8, r8)

10003238 <divmod_s64s64_savestate>:
10003238:	b5f0      	push	{r4, r5, r6, r7, lr}
1000323a:	4e4a      	ldr	r6, [pc, #296]	; (10003364 <udiv0+0x1a>)
1000323c:	6fb5      	ldr	r5, [r6, #120]	; 0x78
1000323e:	086d      	lsrs	r5, r5, #1
10003240:	d3fc      	bcc.n	1000323c <divmod_s64s64_savestate+0x4>
10003242:	6e34      	ldr	r4, [r6, #96]	; 0x60
10003244:	6e75      	ldr	r5, [r6, #100]	; 0x64
10003246:	6f77      	ldr	r7, [r6, #116]	; 0x74
10003248:	6f36      	ldr	r6, [r6, #112]	; 0x70
1000324a:	f000 f825 	bl	10003298 <divmod_s64s64_unsafe>
1000324e:	4694      	mov	ip, r2
10003250:	4a44      	ldr	r2, [pc, #272]	; (10003364 <udiv0+0x1a>)
10003252:	6614      	str	r4, [r2, #96]	; 0x60
10003254:	6655      	str	r5, [r2, #100]	; 0x64
10003256:	6757      	str	r7, [r2, #116]	; 0x74
10003258:	6716      	str	r6, [r2, #112]	; 0x70
1000325a:	4662      	mov	r2, ip
1000325c:	bdf0      	pop	{r4, r5, r6, r7, pc}
1000325e:	46c0      	nop			; (mov r8, r8)

10003260 <__wrap___aeabi_uldivmod>:
10003260:	4694      	mov	ip, r2
10003262:	4a40      	ldr	r2, [pc, #256]	; (10003364 <udiv0+0x1a>)
10003264:	6f92      	ldr	r2, [r2, #120]	; 0x78
10003266:	0892      	lsrs	r2, r2, #2
10003268:	4662      	mov	r2, ip
1000326a:	d201      	bcs.n	10003270 <divmod_u64u64_savestate>
1000326c:	e058      	b.n	10003320 <divmod_u64u64_unsafe>
1000326e:	46c0      	nop			; (mov r8, r8)

10003270 <divmod_u64u64_savestate>:
10003270:	b5f0      	push	{r4, r5, r6, r7, lr}
10003272:	4e3c      	ldr	r6, [pc, #240]	; (10003364 <udiv0+0x1a>)
10003274:	6fb5      	ldr	r5, [r6, #120]	; 0x78
10003276:	086d      	lsrs	r5, r5, #1
10003278:	d3fc      	bcc.n	10003274 <divmod_u64u64_savestate+0x4>
1000327a:	6e34      	ldr	r4, [r6, #96]	; 0x60
1000327c:	6e75      	ldr	r5, [r6, #100]	; 0x64
1000327e:	6f77      	ldr	r7, [r6, #116]	; 0x74
10003280:	6f36      	ldr	r6, [r6, #112]	; 0x70
10003282:	f000 f84d 	bl	10003320 <divmod_u64u64_unsafe>
10003286:	4694      	mov	ip, r2
10003288:	4a36      	ldr	r2, [pc, #216]	; (10003364 <udiv0+0x1a>)
1000328a:	6614      	str	r4, [r2, #96]	; 0x60
1000328c:	6655      	str	r5, [r2, #100]	; 0x64
1000328e:	6757      	str	r7, [r2, #116]	; 0x74
10003290:	6716      	str	r6, [r2, #112]	; 0x70
10003292:	4662      	mov	r2, ip
10003294:	bdf0      	pop	{r4, r5, r6, r7, pc}
10003296:	46c0      	nop			; (mov r8, r8)

10003298 <divmod_s64s64_unsafe>:
10003298:	2b00      	cmp	r3, #0
1000329a:	db24      	blt.n	100032e6 <l41_1+0x26>
1000329c:	d011      	beq.n	100032c2 <l41_1+0x2>
1000329e:	2900      	cmp	r1, #0
100032a0:	da3e      	bge.n	10003320 <divmod_u64u64_unsafe>
100032a2:	b500      	push	{lr}
100032a4:	43c9      	mvns	r1, r1
100032a6:	4240      	negs	r0, r0
100032a8:	d100      	bne.n	100032ac <l39_1>
100032aa:	3101      	adds	r1, #1

100032ac <l39_1>:
100032ac:	f000 f838 	bl	10003320 <divmod_u64u64_unsafe>
100032b0:	43c9      	mvns	r1, r1
100032b2:	4240      	negs	r0, r0
100032b4:	d100      	bne.n	100032b8 <l40_1>
100032b6:	3101      	adds	r1, #1

100032b8 <l40_1>:
100032b8:	43db      	mvns	r3, r3
100032ba:	4252      	negs	r2, r2
100032bc:	d100      	bne.n	100032c0 <l41_1>
100032be:	3301      	adds	r3, #1

100032c0 <l41_1>:
100032c0:	bd00      	pop	{pc}
100032c2:	2a00      	cmp	r2, #0
100032c4:	d1eb      	bne.n	1000329e <divmod_s64s64_unsafe+0x6>
100032c6:	2800      	cmp	r0, #0
100032c8:	d101      	bne.n	100032ce <l41_1+0xe>
100032ca:	2900      	cmp	r1, #0
100032cc:	d005      	beq.n	100032da <l41_1+0x1a>
100032ce:	2000      	movs	r0, #0
100032d0:	0fc9      	lsrs	r1, r1, #31
100032d2:	07c9      	lsls	r1, r1, #31
100032d4:	d101      	bne.n	100032da <l41_1+0x1a>
100032d6:	43c0      	mvns	r0, r0
100032d8:	0841      	lsrs	r1, r0, #1
100032da:	b500      	push	{lr}
100032dc:	f001 fd28 	bl	10004d30 <____aeabi_ldiv0_veneer>
100032e0:	2200      	movs	r2, #0
100032e2:	2300      	movs	r3, #0
100032e4:	bd00      	pop	{pc}
100032e6:	b500      	push	{lr}
100032e8:	2900      	cmp	r1, #0
100032ea:	db0a      	blt.n	10003302 <l43_1+0x2>
100032ec:	43db      	mvns	r3, r3
100032ee:	4252      	negs	r2, r2
100032f0:	d100      	bne.n	100032f4 <l42_1>
100032f2:	3301      	adds	r3, #1

100032f4 <l42_1>:
100032f4:	f000 f814 	bl	10003320 <divmod_u64u64_unsafe>
100032f8:	43c9      	mvns	r1, r1
100032fa:	4240      	negs	r0, r0
100032fc:	d100      	bne.n	10003300 <l43_1>
100032fe:	3101      	adds	r1, #1

10003300 <l43_1>:
10003300:	bd00      	pop	{pc}
10003302:	43c9      	mvns	r1, r1
10003304:	4240      	negs	r0, r0
10003306:	d100      	bne.n	1000330a <l44_1>
10003308:	3101      	adds	r1, #1

1000330a <l44_1>:
1000330a:	43db      	mvns	r3, r3
1000330c:	4252      	negs	r2, r2
1000330e:	d100      	bne.n	10003312 <l45_1>
10003310:	3301      	adds	r3, #1

10003312 <l45_1>:
10003312:	f000 f805 	bl	10003320 <divmod_u64u64_unsafe>
10003316:	43db      	mvns	r3, r3
10003318:	4252      	negs	r2, r2
1000331a:	d100      	bne.n	1000331e <l46_1>
1000331c:	3301      	adds	r3, #1

1000331e <l46_1>:
1000331e:	bd00      	pop	{pc}

10003320 <divmod_u64u64_unsafe>:
10003320:	2900      	cmp	r1, #0
10003322:	d123      	bne.n	1000336c <y64>
10003324:	2b00      	cmp	r3, #0
10003326:	d118      	bne.n	1000335a <udiv0+0x10>
10003328:	2a00      	cmp	r2, #0
1000332a:	d00c      	beq.n	10003346 <divmod_u64u64_unsafe+0x26>
1000332c:	46bc      	mov	ip, r7
1000332e:	4f0d      	ldr	r7, [pc, #52]	; (10003364 <udiv0+0x1a>)
10003330:	6638      	str	r0, [r7, #96]	; 0x60
10003332:	667a      	str	r2, [r7, #100]	; 0x64
10003334:	2100      	movs	r1, #0
10003336:	2300      	movs	r3, #0
10003338:	e7ff      	b.n	1000333a <divmod_u64u64_unsafe+0x1a>
1000333a:	e7ff      	b.n	1000333c <divmod_u64u64_unsafe+0x1c>
1000333c:	e7ff      	b.n	1000333e <divmod_u64u64_unsafe+0x1e>
1000333e:	6f7a      	ldr	r2, [r7, #116]	; 0x74
10003340:	6f38      	ldr	r0, [r7, #112]	; 0x70
10003342:	4667      	mov	r7, ip
10003344:	4770      	bx	lr
10003346:	2800      	cmp	r0, #0
10003348:	d001      	beq.n	1000334e <udiv0+0x4>

1000334a <udiv0>:
1000334a:	4807      	ldr	r0, [pc, #28]	; (10003368 <udiv0+0x1e>)
1000334c:	0001      	movs	r1, r0
1000334e:	b500      	push	{lr}
10003350:	f001 fcee 	bl	10004d30 <____aeabi_ldiv0_veneer>
10003354:	2200      	movs	r2, #0
10003356:	2300      	movs	r3, #0
10003358:	bd00      	pop	{pc}
1000335a:	0002      	movs	r2, r0
1000335c:	000b      	movs	r3, r1
1000335e:	2000      	movs	r0, #0
10003360:	2100      	movs	r1, #0
10003362:	4770      	bx	lr
10003364:	d0000000 	.word	0xd0000000
10003368:	ffffffff 	.word	0xffffffff

1000336c <y64>:
1000336c:	2b00      	cmp	r3, #0
1000336e:	d000      	beq.n	10003372 <y64+0x6>
10003370:	e0bd      	b.n	100034ee <y64_x48>
10003372:	0c13      	lsrs	r3, r2, #16
10003374:	d126      	bne.n	100033c4 <y64_x32>
10003376:	2a00      	cmp	r2, #0
10003378:	d0e7      	beq.n	1000334a <udiv0>
1000337a:	b480      	push	{r7}
1000337c:	4f10      	ldr	r7, [pc, #64]	; (100033c0 <y64+0x54>)
1000337e:	6639      	str	r1, [r7, #96]	; 0x60
10003380:	667a      	str	r2, [r7, #100]	; 0x64
10003382:	e7ff      	b.n	10003384 <y64+0x18>
10003384:	e7ff      	b.n	10003386 <y64+0x1a>
10003386:	b430      	push	{r4, r5}
10003388:	0c04      	lsrs	r4, r0, #16
1000338a:	6f7b      	ldr	r3, [r7, #116]	; 0x74
1000338c:	6f39      	ldr	r1, [r7, #112]	; 0x70
1000338e:	041b      	lsls	r3, r3, #16
10003390:	4323      	orrs	r3, r4
10003392:	663b      	str	r3, [r7, #96]	; 0x60
10003394:	e7ff      	b.n	10003396 <y64+0x2a>
10003396:	e7ff      	b.n	10003398 <y64+0x2c>
10003398:	e7ff      	b.n	1000339a <y64+0x2e>
1000339a:	46c0      	nop			; (mov r8, r8)
1000339c:	b284      	uxth	r4, r0
1000339e:	6f7b      	ldr	r3, [r7, #116]	; 0x74
100033a0:	6f3d      	ldr	r5, [r7, #112]	; 0x70
100033a2:	041b      	lsls	r3, r3, #16
100033a4:	4323      	orrs	r3, r4
100033a6:	663b      	str	r3, [r7, #96]	; 0x60
100033a8:	e7ff      	b.n	100033aa <y64+0x3e>
100033aa:	e7ff      	b.n	100033ac <y64+0x40>
100033ac:	46c0      	nop			; (mov r8, r8)
100033ae:	2300      	movs	r3, #0
100033b0:	042c      	lsls	r4, r5, #16
100033b2:	0c2d      	lsrs	r5, r5, #16
100033b4:	6f7a      	ldr	r2, [r7, #116]	; 0x74
100033b6:	6f38      	ldr	r0, [r7, #112]	; 0x70
100033b8:	1900      	adds	r0, r0, r4
100033ba:	4169      	adcs	r1, r5
100033bc:	bcb0      	pop	{r4, r5, r7}
100033be:	4770      	bx	lr
100033c0:	d0000000 	.word	0xd0000000

100033c4 <y64_x32>:
100033c4:	b5f0      	push	{r4, r5, r6, r7, lr}
100033c6:	4694      	mov	ip, r2
100033c8:	2500      	movs	r5, #0
100033ca:	0e14      	lsrs	r4, r2, #24
100033cc:	d101      	bne.n	100033d2 <y64_x32+0xe>
100033ce:	0212      	lsls	r2, r2, #8
100033d0:	3508      	adds	r5, #8
100033d2:	0f14      	lsrs	r4, r2, #28
100033d4:	d101      	bne.n	100033da <y64_x32+0x16>
100033d6:	0112      	lsls	r2, r2, #4
100033d8:	3504      	adds	r5, #4
100033da:	0f94      	lsrs	r4, r2, #30
100033dc:	d101      	bne.n	100033e2 <y64_x32+0x1e>
100033de:	0092      	lsls	r2, r2, #2
100033e0:	3502      	adds	r5, #2
100033e2:	0fd4      	lsrs	r4, r2, #31
100033e4:	d101      	bne.n	100033ea <y64_x32+0x26>
100033e6:	0052      	lsls	r2, r2, #1
100033e8:	3501      	adds	r5, #1
100033ea:	0bd4      	lsrs	r4, r2, #15
100033ec:	3401      	adds	r4, #1
100033ee:	4f25      	ldr	r7, [pc, #148]	; (10003484 <y64_x32+0xc0>)
100033f0:	667c      	str	r4, [r7, #100]	; 0x64
100033f2:	4c25      	ldr	r4, [pc, #148]	; (10003488 <y64_x32+0xc4>)
100033f4:	663c      	str	r4, [r7, #96]	; 0x60
100033f6:	0c0e      	lsrs	r6, r1, #16
100033f8:	b293      	uxth	r3, r2
100033fa:	e7ff      	b.n	100033fc <y64_x32+0x38>
100033fc:	e7ff      	b.n	100033fe <y64_x32+0x3a>
100033fe:	e7ff      	b.n	10003400 <y64_x32+0x3c>
10003400:	6f3c      	ldr	r4, [r7, #112]	; 0x70
10003402:	4366      	muls	r6, r4
10003404:	0c36      	lsrs	r6, r6, #16
10003406:	0377      	lsls	r7, r6, #13
10003408:	46be      	mov	lr, r7
1000340a:	4373      	muls	r3, r6
1000340c:	0bdf      	lsrs	r7, r3, #15
1000340e:	045b      	lsls	r3, r3, #17
10003410:	1ac0      	subs	r0, r0, r3
10003412:	41b9      	sbcs	r1, r7
10003414:	0c13      	lsrs	r3, r2, #16
10003416:	4373      	muls	r3, r6
10003418:	18db      	adds	r3, r3, r3
1000341a:	1ac9      	subs	r1, r1, r3
1000341c:	08ce      	lsrs	r6, r1, #3
1000341e:	4366      	muls	r6, r4
10003420:	0c36      	lsrs	r6, r6, #16
10003422:	44b6      	add	lr, r6
10003424:	b293      	uxth	r3, r2
10003426:	4373      	muls	r3, r6
10003428:	0f1f      	lsrs	r7, r3, #28
1000342a:	011b      	lsls	r3, r3, #4
1000342c:	1ac0      	subs	r0, r0, r3
1000342e:	41b9      	sbcs	r1, r7
10003430:	0c13      	lsrs	r3, r2, #16
10003432:	4373      	muls	r3, r6
10003434:	0b1f      	lsrs	r7, r3, #12
10003436:	051b      	lsls	r3, r3, #20
10003438:	1ac0      	subs	r0, r0, r3
1000343a:	41b9      	sbcs	r1, r7
1000343c:	0d86      	lsrs	r6, r0, #22
1000343e:	028f      	lsls	r7, r1, #10
10003440:	433e      	orrs	r6, r7
10003442:	4366      	muls	r6, r4
10003444:	0c36      	lsrs	r6, r6, #16
10003446:	2d09      	cmp	r5, #9
10003448:	db24      	blt.n	10003494 <last0>
1000344a:	0a52      	lsrs	r2, r2, #9
1000344c:	4372      	muls	r2, r6
1000344e:	1a80      	subs	r0, r0, r2
10003450:	0377      	lsls	r7, r6, #13
10003452:	0a46      	lsrs	r6, r0, #9
10003454:	4366      	muls	r6, r4
10003456:	0c36      	lsrs	r6, r6, #16
10003458:	2316      	movs	r3, #22
1000345a:	1b5b      	subs	r3, r3, r5
1000345c:	40de      	lsrs	r6, r3
1000345e:	40df      	lsrs	r7, r3
10003460:	19bf      	adds	r7, r7, r6
10003462:	4664      	mov	r4, ip
10003464:	4366      	muls	r6, r4
10003466:	1b82      	subs	r2, r0, r6
10003468:	4670      	mov	r0, lr
1000346a:	3504      	adds	r5, #4
1000346c:	3306      	adds	r3, #6
1000346e:	0001      	movs	r1, r0
10003470:	40d9      	lsrs	r1, r3
10003472:	40a8      	lsls	r0, r5
10003474:	19c0      	adds	r0, r0, r7
10003476:	d300      	bcc.n	1000347a <y64_x32+0xb6>
10003478:	3101      	adds	r1, #1
1000347a:	42a2      	cmp	r2, r4
1000347c:	d206      	bcs.n	1000348c <y64_x32+0xc8>
1000347e:	2300      	movs	r3, #0
10003480:	bdf0      	pop	{r4, r5, r6, r7, pc}
10003482:	0000      	.short	0x0000
10003484:	d0000000 	.word	0xd0000000
10003488:	ffffffff 	.word	0xffffffff
1000348c:	1b12      	subs	r2, r2, r4
1000348e:	3001      	adds	r0, #1
10003490:	d3f3      	bcc.n	1000347a <y64_x32+0xb6>
10003492:	e7f1      	b.n	10003478 <y64_x32+0xb4>

10003494 <last0>:
10003494:	2709      	movs	r7, #9
10003496:	1b7f      	subs	r7, r7, r5
10003498:	40fe      	lsrs	r6, r7
1000349a:	4664      	mov	r4, ip
1000349c:	b2a2      	uxth	r2, r4
1000349e:	4372      	muls	r2, r6
100034a0:	1a80      	subs	r0, r0, r2
100034a2:	d200      	bcs.n	100034a6 <last0+0x12>
100034a4:	3901      	subs	r1, #1
100034a6:	0c22      	lsrs	r2, r4, #16
100034a8:	4372      	muls	r2, r6
100034aa:	0c13      	lsrs	r3, r2, #16
100034ac:	0412      	lsls	r2, r2, #16
100034ae:	1a82      	subs	r2, r0, r2
100034b0:	4199      	sbcs	r1, r3
100034b2:	000b      	movs	r3, r1
100034b4:	4670      	mov	r0, lr
100034b6:	3504      	adds	r5, #4
100034b8:	3713      	adds	r7, #19
100034ba:	0001      	movs	r1, r0
100034bc:	40f9      	lsrs	r1, r7
100034be:	40a8      	lsls	r0, r5
100034c0:	1980      	adds	r0, r0, r6
100034c2:	d300      	bcc.n	100034c6 <last0+0x32>
100034c4:	3101      	adds	r1, #1
100034c6:	2b00      	cmp	r3, #0
100034c8:	d102      	bne.n	100034d0 <last0+0x3c>
100034ca:	42a2      	cmp	r2, r4
100034cc:	d20a      	bcs.n	100034e4 <last0+0x50>
100034ce:	bdf0      	pop	{r4, r5, r6, r7, pc}
100034d0:	3001      	adds	r0, #1
100034d2:	d300      	bcc.n	100034d6 <last0+0x42>
100034d4:	3101      	adds	r1, #1
100034d6:	1b12      	subs	r2, r2, r4
100034d8:	d2fa      	bcs.n	100034d0 <last0+0x3c>
100034da:	3b01      	subs	r3, #1
100034dc:	d1f8      	bne.n	100034d0 <last0+0x3c>
100034de:	42a2      	cmp	r2, r4
100034e0:	d200      	bcs.n	100034e4 <last0+0x50>
100034e2:	bdf0      	pop	{r4, r5, r6, r7, pc}
100034e4:	3001      	adds	r0, #1
100034e6:	d300      	bcc.n	100034ea <last0+0x56>
100034e8:	3101      	adds	r1, #1
100034ea:	1b12      	subs	r2, r2, r4
100034ec:	e7f7      	b.n	100034de <last0+0x4a>

100034ee <y64_x48>:
100034ee:	b5f0      	push	{r4, r5, r6, r7, lr}
100034f0:	0c1c      	lsrs	r4, r3, #16
100034f2:	d000      	beq.n	100034f6 <y64_x48+0x8>
100034f4:	e080      	b.n	100035f8 <y64_x64>
100034f6:	b40c      	push	{r2, r3}
100034f8:	2500      	movs	r5, #0
100034fa:	0a1c      	lsrs	r4, r3, #8
100034fc:	d104      	bne.n	10003508 <y64_x48+0x1a>
100034fe:	021b      	lsls	r3, r3, #8
10003500:	0e16      	lsrs	r6, r2, #24
10003502:	4333      	orrs	r3, r6
10003504:	0212      	lsls	r2, r2, #8
10003506:	3508      	adds	r5, #8
10003508:	0b1c      	lsrs	r4, r3, #12
1000350a:	d104      	bne.n	10003516 <y64_x48+0x28>
1000350c:	011b      	lsls	r3, r3, #4
1000350e:	0f16      	lsrs	r6, r2, #28
10003510:	4333      	orrs	r3, r6
10003512:	0112      	lsls	r2, r2, #4
10003514:	3504      	adds	r5, #4
10003516:	0b9c      	lsrs	r4, r3, #14
10003518:	d104      	bne.n	10003524 <y64_x48+0x36>
1000351a:	009b      	lsls	r3, r3, #2
1000351c:	0f96      	lsrs	r6, r2, #30
1000351e:	4333      	orrs	r3, r6
10003520:	0092      	lsls	r2, r2, #2
10003522:	3502      	adds	r5, #2
10003524:	0bdc      	lsrs	r4, r3, #15
10003526:	d102      	bne.n	1000352e <y64_x48+0x40>
10003528:	1892      	adds	r2, r2, r2
1000352a:	415b      	adcs	r3, r3
1000352c:	3501      	adds	r5, #1
1000352e:	001c      	movs	r4, r3
10003530:	1897      	adds	r7, r2, r2
10003532:	4164      	adcs	r4, r4
10003534:	3401      	adds	r4, #1
10003536:	4f46      	ldr	r7, [pc, #280]	; (10003650 <y64_x64+0x58>)
10003538:	667c      	str	r4, [r7, #100]	; 0x64
1000353a:	4c46      	ldr	r4, [pc, #280]	; (10003654 <y64_x64+0x5c>)
1000353c:	663c      	str	r4, [r7, #96]	; 0x60
1000353e:	0c0e      	lsrs	r6, r1, #16
10003540:	e7ff      	b.n	10003542 <y64_x48+0x54>
10003542:	e7ff      	b.n	10003544 <y64_x48+0x56>
10003544:	e7ff      	b.n	10003546 <y64_x48+0x58>
10003546:	46c0      	nop			; (mov r8, r8)
10003548:	6f3c      	ldr	r4, [r7, #112]	; 0x70
1000354a:	4366      	muls	r6, r4
1000354c:	0c36      	lsrs	r6, r6, #16
1000354e:	0377      	lsls	r7, r6, #13
10003550:	46be      	mov	lr, r7
10003552:	b297      	uxth	r7, r2
10003554:	4377      	muls	r7, r6
10003556:	1bc0      	subs	r0, r0, r7
10003558:	d200      	bcs.n	1000355c <y64_x48+0x6e>
1000355a:	3901      	subs	r1, #1
1000355c:	1bc0      	subs	r0, r0, r7
1000355e:	d200      	bcs.n	10003562 <y64_x48+0x74>
10003560:	3901      	subs	r1, #1
10003562:	b29f      	uxth	r7, r3
10003564:	4377      	muls	r7, r6
10003566:	1bc9      	subs	r1, r1, r7
10003568:	1bc9      	subs	r1, r1, r7
1000356a:	0c17      	lsrs	r7, r2, #16
1000356c:	4377      	muls	r7, r6
1000356e:	047e      	lsls	r6, r7, #17
10003570:	0bff      	lsrs	r7, r7, #15
10003572:	1b80      	subs	r0, r0, r6
10003574:	41b9      	sbcs	r1, r7
10003576:	08ce      	lsrs	r6, r1, #3
10003578:	4366      	muls	r6, r4
1000357a:	0c36      	lsrs	r6, r6, #16
1000357c:	2d0c      	cmp	r5, #12
1000357e:	db33      	blt.n	100035e8 <last1>
10003580:	44b6      	add	lr, r6
10003582:	0b12      	lsrs	r2, r2, #12
10003584:	051f      	lsls	r7, r3, #20
10003586:	433a      	orrs	r2, r7
10003588:	0b1b      	lsrs	r3, r3, #12
1000358a:	b297      	uxth	r7, r2
1000358c:	4377      	muls	r7, r6
1000358e:	1bc0      	subs	r0, r0, r7
10003590:	d200      	bcs.n	10003594 <y64_x48+0xa6>
10003592:	3901      	subs	r1, #1
10003594:	b29f      	uxth	r7, r3
10003596:	4377      	muls	r7, r6
10003598:	1bc9      	subs	r1, r1, r7
1000359a:	0c17      	lsrs	r7, r2, #16
1000359c:	4377      	muls	r7, r6
1000359e:	043e      	lsls	r6, r7, #16
100035a0:	0c3f      	lsrs	r7, r7, #16
100035a2:	1b80      	subs	r0, r0, r6
100035a4:	41b9      	sbcs	r1, r7
100035a6:	0d86      	lsrs	r6, r0, #22
100035a8:	028f      	lsls	r7, r1, #10
100035aa:	433e      	orrs	r6, r7
100035ac:	4366      	muls	r6, r4
100035ae:	2729      	movs	r7, #41	; 0x29
100035b0:	1b7f      	subs	r7, r7, r5
100035b2:	40fe      	lsrs	r6, r7
100035b4:	3d0c      	subs	r5, #12
100035b6:	4677      	mov	r7, lr
100035b8:	40af      	lsls	r7, r5
100035ba:	19bf      	adds	r7, r7, r6
100035bc:	bc30      	pop	{r4, r5}
100035be:	b2a2      	uxth	r2, r4
100035c0:	b2ab      	uxth	r3, r5
100035c2:	4372      	muls	r2, r6
100035c4:	4373      	muls	r3, r6
100035c6:	1a80      	subs	r0, r0, r2
100035c8:	4199      	sbcs	r1, r3
100035ca:	0c22      	lsrs	r2, r4, #16
100035cc:	4372      	muls	r2, r6
100035ce:	0c13      	lsrs	r3, r2, #16
100035d0:	0412      	lsls	r2, r2, #16
100035d2:	1a80      	subs	r0, r0, r2
100035d4:	4199      	sbcs	r1, r3
100035d6:	0002      	movs	r2, r0
100035d8:	000b      	movs	r3, r1
100035da:	3701      	adds	r7, #1
100035dc:	1b00      	subs	r0, r0, r4
100035de:	41a9      	sbcs	r1, r5
100035e0:	d2f9      	bcs.n	100035d6 <y64_x48+0xe8>
100035e2:	1e78      	subs	r0, r7, #1
100035e4:	2100      	movs	r1, #0
100035e6:	bdf0      	pop	{r4, r5, r6, r7, pc}

100035e8 <last1>:
100035e8:	270c      	movs	r7, #12
100035ea:	1b7f      	subs	r7, r7, r5
100035ec:	40fe      	lsrs	r6, r7
100035ee:	4677      	mov	r7, lr
100035f0:	0b7f      	lsrs	r7, r7, #13
100035f2:	40af      	lsls	r7, r5
100035f4:	19ff      	adds	r7, r7, r7
100035f6:	e7e0      	b.n	100035ba <y64_x48+0xcc>

100035f8 <y64_x64>:
100035f8:	2400      	movs	r4, #0
100035fa:	1c5d      	adds	r5, r3, #1
100035fc:	d007      	beq.n	1000360e <y64_x64+0x16>
100035fe:	4f14      	ldr	r7, [pc, #80]	; (10003650 <y64_x64+0x58>)
10003600:	667d      	str	r5, [r7, #100]	; 0x64
10003602:	6639      	str	r1, [r7, #96]	; 0x60
10003604:	e7ff      	b.n	10003606 <y64_x64+0xe>
10003606:	e7ff      	b.n	10003608 <y64_x64+0x10>
10003608:	e7ff      	b.n	1000360a <y64_x64+0x12>
1000360a:	e7ff      	b.n	1000360c <y64_x64+0x14>
1000360c:	6f3c      	ldr	r4, [r7, #112]	; 0x70
1000360e:	b295      	uxth	r5, r2
10003610:	b29e      	uxth	r6, r3
10003612:	4365      	muls	r5, r4
10003614:	4366      	muls	r6, r4
10003616:	1b40      	subs	r0, r0, r5
10003618:	41b1      	sbcs	r1, r6
1000361a:	0c15      	lsrs	r5, r2, #16
1000361c:	0c1e      	lsrs	r6, r3, #16
1000361e:	4365      	muls	r5, r4
10003620:	4366      	muls	r6, r4
10003622:	0436      	lsls	r6, r6, #16
10003624:	0c2f      	lsrs	r7, r5, #16
10003626:	433e      	orrs	r6, r7
10003628:	042d      	lsls	r5, r5, #16
1000362a:	1b40      	subs	r0, r0, r5
1000362c:	41b1      	sbcs	r1, r6
1000362e:	4299      	cmp	r1, r3
10003630:	d204      	bcs.n	1000363c <y64_x64+0x44>
10003632:	0002      	movs	r2, r0
10003634:	000b      	movs	r3, r1
10003636:	0020      	movs	r0, r4
10003638:	2100      	movs	r1, #0
1000363a:	bdf0      	pop	{r4, r5, r6, r7, pc}
1000363c:	d101      	bne.n	10003642 <y64_x64+0x4a>
1000363e:	4290      	cmp	r0, r2
10003640:	d3f7      	bcc.n	10003632 <y64_x64+0x3a>
10003642:	1a80      	subs	r0, r0, r2
10003644:	4199      	sbcs	r1, r3
10003646:	3401      	adds	r4, #1
10003648:	4299      	cmp	r1, r3
1000364a:	d3f2      	bcc.n	10003632 <y64_x64+0x3a>
1000364c:	e7f6      	b.n	1000363c <y64_x64+0x44>
1000364e:	0000      	.short	0x0000
10003650:	d0000000 	.word	0xd0000000
10003654:	ffffffff 	.word	0xffffffff

10003658 <__wrap___aeabi_drsub>:
10003658:	4048      	eors	r0, r1
1000365a:	4041      	eors	r1, r0
1000365c:	4048      	eors	r0, r1

1000365e <__wrap___aeabi_dsub>:
1000365e:	b418      	push	{r3, r4}
10003660:	4b11      	ldr	r3, [pc, #68]	; (100036a8 <__wrap___aeabi_dmul+0x14>)
10003662:	685b      	ldr	r3, [r3, #4]
10003664:	46fc      	mov	ip, pc
10003666:	9301      	str	r3, [sp, #4]
10003668:	bd08      	pop	{r3, pc}
1000366a:	df04      	.short	0xdf04
1000366c:	100038e3 	.word	0x100038e3

10003670 <__wrap___aeabi_dadd>:
10003670:	b418      	push	{r3, r4}
10003672:	4b0d      	ldr	r3, [pc, #52]	; (100036a8 <__wrap___aeabi_dmul+0x14>)
10003674:	681b      	ldr	r3, [r3, #0]
10003676:	46fc      	mov	ip, pc
10003678:	9301      	str	r3, [sp, #4]
1000367a:	bd08      	pop	{r3, pc}
1000367c:	38eddf00 	.word	0x38eddf00
10003680:	1000      	.short	0x1000

10003682 <__wrap___aeabi_ddiv>:
10003682:	b418      	push	{r3, r4}
10003684:	4b08      	ldr	r3, [pc, #32]	; (100036a8 <__wrap___aeabi_dmul+0x14>)
10003686:	68db      	ldr	r3, [r3, #12]
10003688:	46fc      	mov	ip, pc
1000368a:	9301      	str	r3, [sp, #4]
1000368c:	bd08      	pop	{r3, pc}
1000368e:	df0c      	.short	0xdf0c
10003690:	10003ba5 	.word	0x10003ba5

10003694 <__wrap___aeabi_dmul>:
10003694:	b418      	push	{r3, r4}
10003696:	4b04      	ldr	r3, [pc, #16]	; (100036a8 <__wrap___aeabi_dmul+0x14>)
10003698:	689b      	ldr	r3, [r3, #8]
1000369a:	46fc      	mov	ip, pc
1000369c:	9301      	str	r3, [sp, #4]
1000369e:	bd08      	pop	{r3, pc}
100036a0:	3a49df08 	.word	0x3a49df08
100036a4:	00001000 	.word	0x00001000
100036a8:	20000b30 	.word	0x20000b30

100036ac <__wrap___aeabi_cdrcmple>:
100036ac:	b5ff      	push	{r0, r1, r2, r3, r4, r5, r6, r7, lr}
100036ae:	4050      	eors	r0, r2
100036b0:	4042      	eors	r2, r0
100036b2:	4050      	eors	r0, r2
100036b4:	4059      	eors	r1, r3
100036b6:	404b      	eors	r3, r1
100036b8:	4059      	eors	r1, r3
100036ba:	e000      	b.n	100036be <__aeabi_dfcmple_guts>

100036bc <__wrap___aeabi_cdcmpeq>:
100036bc:	b5ff      	push	{r0, r1, r2, r3, r4, r5, r6, r7, lr}

100036be <__aeabi_dfcmple_guts>:
100036be:	4f15      	ldr	r7, [pc, #84]	; (10003714 <__aeabi_dfcmple_guts+0x56>)
100036c0:	004c      	lsls	r4, r1, #1
100036c2:	0d64      	lsrs	r4, r4, #21
100036c4:	d003      	beq.n	100036ce <__aeabi_dfcmple_guts+0x10>
100036c6:	42bc      	cmp	r4, r7
100036c8:	d104      	bne.n	100036d4 <__aeabi_dfcmple_guts+0x16>
100036ca:	030c      	lsls	r4, r1, #12
100036cc:	d814      	bhi.n	100036f8 <__aeabi_dfcmple_guts+0x3a>
100036ce:	2000      	movs	r0, #0
100036d0:	0d09      	lsrs	r1, r1, #20
100036d2:	0509      	lsls	r1, r1, #20
100036d4:	005c      	lsls	r4, r3, #1
100036d6:	0d64      	lsrs	r4, r4, #21
100036d8:	d003      	beq.n	100036e2 <__aeabi_dfcmple_guts+0x24>
100036da:	42bc      	cmp	r4, r7
100036dc:	d104      	bne.n	100036e8 <__aeabi_dfcmple_guts+0x2a>
100036de:	031c      	lsls	r4, r3, #12
100036e0:	d80a      	bhi.n	100036f8 <__aeabi_dfcmple_guts+0x3a>
100036e2:	2200      	movs	r2, #0
100036e4:	0d1b      	lsrs	r3, r3, #20
100036e6:	051b      	lsls	r3, r3, #20
100036e8:	2601      	movs	r6, #1
100036ea:	404b      	eors	r3, r1
100036ec:	d409      	bmi.n	10003702 <__aeabi_dfcmple_guts+0x44>
100036ee:	404b      	eors	r3, r1
100036f0:	d503      	bpl.n	100036fa <__aeabi_dfcmple_guts+0x3c>
100036f2:	428b      	cmp	r3, r1
100036f4:	d100      	bne.n	100036f8 <__aeabi_dfcmple_guts+0x3a>
100036f6:	4282      	cmp	r2, r0
100036f8:	bdff      	pop	{r0, r1, r2, r3, r4, r5, r6, r7, pc}
100036fa:	4299      	cmp	r1, r3
100036fc:	d1fc      	bne.n	100036f8 <__aeabi_dfcmple_guts+0x3a>
100036fe:	4290      	cmp	r0, r2
10003700:	bdff      	pop	{r0, r1, r2, r3, r4, r5, r6, r7, pc}
10003702:	430b      	orrs	r3, r1
10003704:	18db      	adds	r3, r3, r3
10003706:	4303      	orrs	r3, r0
10003708:	4313      	orrs	r3, r2
1000370a:	d0f5      	beq.n	100036f8 <__aeabi_dfcmple_guts+0x3a>
1000370c:	43c9      	mvns	r1, r1
1000370e:	1849      	adds	r1, r1, r1
10003710:	bdff      	pop	{r0, r1, r2, r3, r4, r5, r6, r7, pc}
10003712:	0000      	.short	0x0000
10003714:	000007ff 	.word	0x000007ff

10003718 <__wrap___aeabi_dcmplt>:
10003718:	b500      	push	{lr}
1000371a:	f7ff ffcf 	bl	100036bc <__wrap___aeabi_cdcmpeq>
1000371e:	4180      	sbcs	r0, r0
10003720:	bd00      	pop	{pc}
10003722:	46c0      	nop			; (mov r8, r8)

10003724 <__wrap___aeabi_dcmple>:
10003724:	b500      	push	{lr}
10003726:	f7ff ffc9 	bl	100036bc <__wrap___aeabi_cdcmpeq>
1000372a:	d901      	bls.n	10003730 <__wrap___aeabi_dcmple+0xc>
1000372c:	2000      	movs	r0, #0
1000372e:	bd00      	pop	{pc}
10003730:	2001      	movs	r0, #1
10003732:	bd00      	pop	{pc}

10003734 <__wrap___aeabi_dcmpge>:
10003734:	b500      	push	{lr}
10003736:	f7ff ffb9 	bl	100036ac <__wrap___aeabi_cdrcmple>
1000373a:	d901      	bls.n	10003740 <__wrap___aeabi_dcmpge+0xc>
1000373c:	2000      	movs	r0, #0
1000373e:	bd00      	pop	{pc}
10003740:	2001      	movs	r0, #1
10003742:	bd00      	pop	{pc}

10003744 <__wrap___aeabi_dcmpgt>:
10003744:	b500      	push	{lr}
10003746:	f7ff ffb1 	bl	100036ac <__wrap___aeabi_cdrcmple>
1000374a:	4180      	sbcs	r0, r0
1000374c:	bd00      	pop	{pc}

1000374e <__wrap___aeabi_dcmpun>:
1000374e:	2001      	movs	r0, #1
10003750:	0540      	lsls	r0, r0, #21
10003752:	004a      	lsls	r2, r1, #1
10003754:	1812      	adds	r2, r2, r0
10003756:	d804      	bhi.n	10003762 <__wrap___aeabi_dcmpun+0x14>
10003758:	005a      	lsls	r2, r3, #1
1000375a:	1812      	adds	r2, r2, r0
1000375c:	d801      	bhi.n	10003762 <__wrap___aeabi_dcmpun+0x14>
1000375e:	2000      	movs	r0, #0
10003760:	4770      	bx	lr
10003762:	2001      	movs	r0, #1
10003764:	4770      	bx	lr
10003766:	2000      	movs	r0, #0
10003768:	4770      	bx	lr
	...

1000376c <__wrap___aeabi_ui2d>:
1000376c:	2100      	movs	r1, #0
1000376e:	2800      	cmp	r0, #0
10003770:	d105      	bne.n	1000377e <__wrap___aeabi_i2d+0xa>
10003772:	4770      	bx	lr

10003774 <__wrap___aeabi_i2d>:
10003774:	17c1      	asrs	r1, r0, #31
10003776:	4048      	eors	r0, r1
10003778:	1a40      	subs	r0, r0, r1
1000377a:	d0fa      	beq.n	10003772 <__wrap___aeabi_ui2d+0x6>
1000377c:	07c9      	lsls	r1, r1, #31
1000377e:	b513      	push	{r0, r1, r4, lr}
10003780:	4b06      	ldr	r3, [pc, #24]	; (1000379c <__wrap___aeabi_i2d+0x28>)
10003782:	681b      	ldr	r3, [r3, #0]
10003784:	4798      	blx	r3
10003786:	bc0c      	pop	{r2, r3}
10003788:	1c44      	adds	r4, r0, #1
1000378a:	40a2      	lsls	r2, r4
1000378c:	0510      	lsls	r0, r2, #20
1000378e:	0b12      	lsrs	r2, r2, #12
10003790:	4903      	ldr	r1, [pc, #12]	; (100037a0 <__wrap___aeabi_i2d+0x2c>)
10003792:	1b09      	subs	r1, r1, r4
10003794:	0509      	lsls	r1, r1, #20
10003796:	4319      	orrs	r1, r3
10003798:	4311      	orrs	r1, r2
1000379a:	bd10      	pop	{r4, pc}
1000379c:	20000d30 	.word	0x20000d30
100037a0:	0000041f 	.word	0x0000041f

100037a4 <__wrap___aeabi_d2iz>:
100037a4:	b510      	push	{r4, lr}
100037a6:	004c      	lsls	r4, r1, #1
100037a8:	0d62      	lsrs	r2, r4, #21
100037aa:	2380      	movs	r3, #128	; 0x80
100037ac:	18d2      	adds	r2, r2, r3
100037ae:	00db      	lsls	r3, r3, #3
100037b0:	1ad2      	subs	r2, r2, r3
100037b2:	055b      	lsls	r3, r3, #21
100037b4:	2a7e      	cmp	r2, #126	; 0x7e
100037b6:	dd10      	ble.n	100037da <__wrap___aeabi_d2iz+0x36>
100037b8:	3a9e      	subs	r2, #158	; 0x9e
100037ba:	da13      	bge.n	100037e4 <__wrap___aeabi_d2iz+0x40>
100037bc:	17cc      	asrs	r4, r1, #31
100037be:	0309      	lsls	r1, r1, #12
100037c0:	0849      	lsrs	r1, r1, #1
100037c2:	4319      	orrs	r1, r3
100037c4:	4252      	negs	r2, r2
100037c6:	40d1      	lsrs	r1, r2
100037c8:	0064      	lsls	r4, r4, #1
100037ca:	3401      	adds	r4, #1
100037cc:	3215      	adds	r2, #21
100037ce:	2a20      	cmp	r2, #32
100037d0:	da05      	bge.n	100037de <__wrap___aeabi_d2iz+0x3a>
100037d2:	40d0      	lsrs	r0, r2
100037d4:	4308      	orrs	r0, r1
100037d6:	4360      	muls	r0, r4
100037d8:	bd10      	pop	{r4, pc}
100037da:	2000      	movs	r0, #0
100037dc:	bd10      	pop	{r4, pc}
100037de:	4608      	mov	r0, r1
100037e0:	4360      	muls	r0, r4
100037e2:	bd10      	pop	{r4, pc}
100037e4:	0fc8      	lsrs	r0, r1, #31
100037e6:	18c0      	adds	r0, r0, r3
100037e8:	3801      	subs	r0, #1
100037ea:	bd10      	pop	{r4, pc}

100037ec <__wrap___aeabi_d2uiz>:
100037ec:	b418      	push	{r3, r4}
100037ee:	4b04      	ldr	r3, [pc, #16]	; (10003800 <__wrap___aeabi_d2uiz+0x14>)
100037f0:	6a5b      	ldr	r3, [r3, #36]	; 0x24
100037f2:	46fc      	mov	ip, pc
100037f4:	9301      	str	r3, [sp, #4]
100037f6:	bd08      	pop	{r3, pc}
100037f8:	3dd1df24 	.word	0x3dd1df24
100037fc:	00001000 	.word	0x00001000
10003800:	20000b30 	.word	0x20000b30

10003804 <__aeabi_double_init>:
10003804:	2313      	movs	r3, #19
10003806:	b570      	push	{r4, r5, r6, lr}
10003808:	781d      	ldrb	r5, [r3, #0]
1000380a:	2d01      	cmp	r5, #1
1000380c:	d010      	beq.n	10003830 <__aeabi_double_init+0x2c>
1000380e:	dd0b      	ble.n	10003828 <__aeabi_double_init+0x24>
10003810:	4824      	ldr	r0, [pc, #144]	; (100038a4 <__aeabi_double_init+0xa0>)
10003812:	f7ff fc8d 	bl	10003130 <rom_data_lookup>
10003816:	4c24      	ldr	r4, [pc, #144]	; (100038a8 <__aeabi_double_init+0xa4>)
10003818:	0001      	movs	r1, r0
1000381a:	2280      	movs	r2, #128	; 0x80
1000381c:	0020      	movs	r0, r4
1000381e:	f000 fbab 	bl	10003f78 <__wrap___aeabi_memcpy>
10003822:	2d02      	cmp	r5, #2
10003824:	d001      	beq.n	1000382a <__aeabi_double_init+0x26>
10003826:	bd70      	pop	{r4, r5, r6, pc}
10003828:	4c1f      	ldr	r4, [pc, #124]	; (100038a8 <__aeabi_double_init+0xa4>)
1000382a:	4a20      	ldr	r2, [pc, #128]	; (100038ac <__aeabi_double_init+0xa8>)
1000382c:	64a2      	str	r2, [r4, #72]	; 0x48
1000382e:	e7fa      	b.n	10003826 <__aeabi_double_init+0x22>
10003830:	002e      	movs	r6, r5
10003832:	4c1d      	ldr	r4, [pc, #116]	; (100038a8 <__aeabi_double_init+0xa4>)
10003834:	4a1d      	ldr	r2, [pc, #116]	; (100038ac <__aeabi_double_init+0xa8>)
10003836:	08a3      	lsrs	r3, r4, #2
10003838:	425b      	negs	r3, r3
1000383a:	401e      	ands	r6, r3
1000383c:	421d      	tst	r5, r3
1000383e:	d02f      	beq.n	100038a0 <__aeabi_double_init+0x9c>
10003840:	0033      	movs	r3, r6
10003842:	6022      	str	r2, [r4, #0]
10003844:	2020      	movs	r0, #32
10003846:	00b1      	lsls	r1, r6, #2
10003848:	1861      	adds	r1, r4, r1
1000384a:	1b80      	subs	r0, r0, r6
1000384c:	600a      	str	r2, [r1, #0]
1000384e:	604a      	str	r2, [r1, #4]
10003850:	608a      	str	r2, [r1, #8]
10003852:	60ca      	str	r2, [r1, #12]
10003854:	610a      	str	r2, [r1, #16]
10003856:	614a      	str	r2, [r1, #20]
10003858:	618a      	str	r2, [r1, #24]
1000385a:	61ca      	str	r2, [r1, #28]
1000385c:	620a      	str	r2, [r1, #32]
1000385e:	624a      	str	r2, [r1, #36]	; 0x24
10003860:	628a      	str	r2, [r1, #40]	; 0x28
10003862:	62ca      	str	r2, [r1, #44]	; 0x2c
10003864:	630a      	str	r2, [r1, #48]	; 0x30
10003866:	634a      	str	r2, [r1, #52]	; 0x34
10003868:	638a      	str	r2, [r1, #56]	; 0x38
1000386a:	63ca      	str	r2, [r1, #60]	; 0x3c
1000386c:	640a      	str	r2, [r1, #64]	; 0x40
1000386e:	644a      	str	r2, [r1, #68]	; 0x44
10003870:	648a      	str	r2, [r1, #72]	; 0x48
10003872:	64ca      	str	r2, [r1, #76]	; 0x4c
10003874:	650a      	str	r2, [r1, #80]	; 0x50
10003876:	654a      	str	r2, [r1, #84]	; 0x54
10003878:	658a      	str	r2, [r1, #88]	; 0x58
1000387a:	65ca      	str	r2, [r1, #92]	; 0x5c
1000387c:	660a      	str	r2, [r1, #96]	; 0x60
1000387e:	664a      	str	r2, [r1, #100]	; 0x64
10003880:	668a      	str	r2, [r1, #104]	; 0x68
10003882:	66ca      	str	r2, [r1, #108]	; 0x6c
10003884:	670a      	str	r2, [r1, #112]	; 0x70
10003886:	674a      	str	r2, [r1, #116]	; 0x74
10003888:	0840      	lsrs	r0, r0, #1
1000388a:	2810      	cmp	r0, #16
1000388c:	d103      	bne.n	10003896 <__aeabi_double_init+0x92>
1000388e:	678a      	str	r2, [r1, #120]	; 0x78
10003890:	67ca      	str	r2, [r1, #124]	; 0x7c
10003892:	64a2      	str	r2, [r4, #72]	; 0x48
10003894:	e7c7      	b.n	10003826 <__aeabi_double_init+0x22>
10003896:	331e      	adds	r3, #30
10003898:	009b      	lsls	r3, r3, #2
1000389a:	50e2      	str	r2, [r4, r3]
1000389c:	64a2      	str	r2, [r4, #72]	; 0x48
1000389e:	e7c2      	b.n	10003826 <__aeabi_double_init+0x22>
100038a0:	2300      	movs	r3, #0
100038a2:	e7cf      	b.n	10003844 <__aeabi_double_init+0x40>
100038a4:	00004453 	.word	0x00004453
100038a8:	20000b30 	.word	0x20000b30
100038ac:	100038b1 	.word	0x100038b1

100038b0 <double_table_shim_on_use_helper>:
100038b0:	b507      	push	{r0, r1, r2, lr}
100038b2:	4660      	mov	r0, ip
100038b4:	8801      	ldrh	r1, [r0, #0]
100038b6:	0a0a      	lsrs	r2, r1, #8
100038b8:	3002      	adds	r0, #2
100038ba:	2adf      	cmp	r2, #223	; 0xdf
100038bc:	d1fa      	bne.n	100038b4 <double_table_shim_on_use_helper+0x4>
100038be:	b2c9      	uxtb	r1, r1
100038c0:	0882      	lsrs	r2, r0, #2
100038c2:	d304      	bcc.n	100038ce <double_table_shim_on_use_helper+0x1e>
100038c4:	8802      	ldrh	r2, [r0, #0]
100038c6:	8840      	ldrh	r0, [r0, #2]
100038c8:	0400      	lsls	r0, r0, #16
100038ca:	4310      	orrs	r0, r2
100038cc:	e000      	b.n	100038d0 <double_table_shim_on_use_helper+0x20>
100038ce:	6800      	ldr	r0, [r0, #0]
100038d0:	4a01      	ldr	r2, [pc, #4]	; (100038d8 <double_table_shim_on_use_helper+0x28>)
100038d2:	5050      	str	r0, [r2, r1]
100038d4:	9003      	str	r0, [sp, #12]
100038d6:	bd07      	pop	{r0, r1, r2, pc}
100038d8:	20000b30 	.word	0x20000b30

100038dc <drsub_shim>:
100038dc:	b40f      	push	{r0, r1, r2, r3}
100038de:	bc03      	pop	{r0, r1}
100038e0:	bc0c      	pop	{r2, r3}

100038e2 <dsub_shim>:
100038e2:	b5f0      	push	{r4, r5, r6, r7, lr}
100038e4:	2401      	movs	r4, #1
100038e6:	07e4      	lsls	r4, r4, #31
100038e8:	4063      	eors	r3, r4
100038ea:	e000      	b.n	100038ee <da_entry>

100038ec <dadd_shim>:
100038ec:	b5f0      	push	{r4, r5, r6, r7, lr}

100038ee <da_entry>:
100038ee:	0d0c      	lsrs	r4, r1, #20
100038f0:	0fcf      	lsrs	r7, r1, #31
100038f2:	1e66      	subs	r6, r4, #1
100038f4:	0536      	lsls	r6, r6, #20
100038f6:	1b89      	subs	r1, r1, r6
100038f8:	0564      	lsls	r4, r4, #21
100038fa:	d303      	bcc.n	10003904 <l7_1>
100038fc:	43c9      	mvns	r1, r1
100038fe:	4240      	negs	r0, r0
10003900:	d300      	bcc.n	10003904 <l7_1>
10003902:	3101      	adds	r1, #1

10003904 <l7_1>:
10003904:	0d64      	lsrs	r4, r4, #21
10003906:	d003      	beq.n	10003910 <l7_2>
10003908:	1c66      	adds	r6, r4, #1
1000390a:	0af6      	lsrs	r6, r6, #11
1000390c:	d007      	beq.n	1000391e <l7_3>
1000390e:	1be4      	subs	r4, r4, r7

10003910 <l7_2>:
10003910:	2000      	movs	r0, #0
10003912:	007f      	lsls	r7, r7, #1
10003914:	1c79      	adds	r1, r7, #1
10003916:	0789      	lsls	r1, r1, #30
10003918:	1289      	asrs	r1, r1, #10
1000391a:	3c80      	subs	r4, #128	; 0x80
1000391c:	0324      	lsls	r4, r4, #12

1000391e <l7_3>:
1000391e:	0d1d      	lsrs	r5, r3, #20
10003920:	0fdf      	lsrs	r7, r3, #31
10003922:	1e6e      	subs	r6, r5, #1
10003924:	0536      	lsls	r6, r6, #20
10003926:	1b9b      	subs	r3, r3, r6
10003928:	056d      	lsls	r5, r5, #21
1000392a:	d303      	bcc.n	10003934 <l8_1>
1000392c:	43db      	mvns	r3, r3
1000392e:	4252      	negs	r2, r2
10003930:	d300      	bcc.n	10003934 <l8_1>
10003932:	3301      	adds	r3, #1

10003934 <l8_1>:
10003934:	0d6d      	lsrs	r5, r5, #21
10003936:	d003      	beq.n	10003940 <l8_2>
10003938:	1c6e      	adds	r6, r5, #1
1000393a:	0af6      	lsrs	r6, r6, #11
1000393c:	d007      	beq.n	1000394e <l8_3>
1000393e:	1bed      	subs	r5, r5, r7

10003940 <l8_2>:
10003940:	2200      	movs	r2, #0
10003942:	007f      	lsls	r7, r7, #1
10003944:	1c7b      	adds	r3, r7, #1
10003946:	079b      	lsls	r3, r3, #30
10003948:	129b      	asrs	r3, r3, #10
1000394a:	3d80      	subs	r5, #128	; 0x80
1000394c:	032d      	lsls	r5, r5, #12

1000394e <l8_3>:
1000394e:	1b2f      	subs	r7, r5, r4
10003950:	1b66      	subs	r6, r4, r5
10003952:	d458      	bmi.n	10003a06 <da_ygtx>
10003954:	46a4      	mov	ip, r4
10003956:	2e20      	cmp	r6, #32
10003958:	da46      	bge.n	100039e8 <da_xrgty>
1000395a:	3720      	adds	r7, #32
1000395c:	0014      	movs	r4, r2
1000395e:	40bc      	lsls	r4, r7

10003960 <da_xgty0>:
10003960:	001d      	movs	r5, r3
10003962:	40bd      	lsls	r5, r7
10003964:	40f2      	lsrs	r2, r6
10003966:	4133      	asrs	r3, r6
10003968:	432a      	orrs	r2, r5

1000396a <da_add>:
1000396a:	1880      	adds	r0, r0, r2
1000396c:	4159      	adcs	r1, r3

1000396e <da_pack>:
1000396e:	0fcb      	lsrs	r3, r1, #31
10003970:	d005      	beq.n	1000397e <da_pack+0x10>
10003972:	43c9      	mvns	r1, r1
10003974:	43c0      	mvns	r0, r0
10003976:	2200      	movs	r2, #0
10003978:	4264      	negs	r4, r4
1000397a:	4150      	adcs	r0, r2
1000397c:	4151      	adcs	r1, r2
1000397e:	4662      	mov	r2, ip
10003980:	0d4d      	lsrs	r5, r1, #21
10003982:	d128      	bne.n	100039d6 <da_0>
10003984:	0d0d      	lsrs	r5, r1, #20
10003986:	d107      	bne.n	10003998 <da_1>
10003988:	2800      	cmp	r0, #0
1000398a:	d01f      	beq.n	100039cc <da_5>

1000398c <da_2>:
1000398c:	1924      	adds	r4, r4, r4
1000398e:	4140      	adcs	r0, r0
10003990:	4149      	adcs	r1, r1
10003992:	3a01      	subs	r2, #1
10003994:	0d0d      	lsrs	r5, r1, #20
10003996:	d0f9      	beq.n	1000398c <da_2>

10003998 <da_1>:
10003998:	0064      	lsls	r4, r4, #1
1000399a:	d306      	bcc.n	100039aa <da_3>

1000399c <da_4>:
1000399c:	3001      	adds	r0, #1
1000399e:	d300      	bcc.n	100039a2 <da_4+0x6>
100039a0:	3101      	adds	r1, #1
100039a2:	2c00      	cmp	r4, #0
100039a4:	d101      	bne.n	100039aa <da_3>
100039a6:	0840      	lsrs	r0, r0, #1
100039a8:	0040      	lsls	r0, r0, #1

100039aa <da_3>:
100039aa:	3a01      	subs	r2, #1
100039ac:	d40b      	bmi.n	100039c6 <da_6>
100039ae:	1c94      	adds	r4, r2, #2
100039b0:	0ae4      	lsrs	r4, r4, #11
100039b2:	d104      	bne.n	100039be <da_7>
100039b4:	0512      	lsls	r2, r2, #20
100039b6:	4411      	add	r1, r2
100039b8:	07db      	lsls	r3, r3, #31
100039ba:	4419      	add	r1, r3
100039bc:	bdf0      	pop	{r4, r5, r6, r7, pc}

100039be <da_7>:
100039be:	07d9      	lsls	r1, r3, #31
100039c0:	4b20      	ldr	r3, [pc, #128]	; (10003a44 <da_xmgty+0x4>)
100039c2:	4319      	orrs	r1, r3
100039c4:	e000      	b.n	100039c8 <da_6+0x2>

100039c6 <da_6>:
100039c6:	07d9      	lsls	r1, r3, #31
100039c8:	2000      	movs	r0, #0
100039ca:	bdf0      	pop	{r4, r5, r6, r7, pc}

100039cc <da_5>:
100039cc:	2900      	cmp	r1, #0
100039ce:	d1dd      	bne.n	1000398c <da_2>
100039d0:	2c00      	cmp	r4, #0
100039d2:	d1db      	bne.n	1000398c <da_2>
100039d4:	bdf0      	pop	{r4, r5, r6, r7, pc}

100039d6 <da_0>:
100039d6:	3201      	adds	r2, #1
100039d8:	07c6      	lsls	r6, r0, #31
100039da:	0840      	lsrs	r0, r0, #1
100039dc:	07cd      	lsls	r5, r1, #31
100039de:	4328      	orrs	r0, r5
100039e0:	0849      	lsrs	r1, r1, #1
100039e2:	2e00      	cmp	r6, #0
100039e4:	d0e1      	beq.n	100039aa <da_3>
100039e6:	e7d9      	b.n	1000399c <da_4>

100039e8 <da_xrgty>:
100039e8:	2e3c      	cmp	r6, #60	; 0x3c
100039ea:	da29      	bge.n	10003a40 <da_xmgty>
100039ec:	3e20      	subs	r6, #32
100039ee:	3740      	adds	r7, #64	; 0x40
100039f0:	0014      	movs	r4, r2
100039f2:	40bc      	lsls	r4, r7
100039f4:	d000      	beq.n	100039f8 <da_xrgty+0x10>
100039f6:	2401      	movs	r4, #1
100039f8:	40f2      	lsrs	r2, r6
100039fa:	4314      	orrs	r4, r2
100039fc:	001a      	movs	r2, r3
100039fe:	40bb      	lsls	r3, r7
10003a00:	431c      	orrs	r4, r3
10003a02:	17d3      	asrs	r3, r2, #31
10003a04:	e7ac      	b.n	10003960 <da_xgty0>

10003a06 <da_ygtx>:
10003a06:	46ac      	mov	ip, r5
10003a08:	2f20      	cmp	r7, #32
10003a0a:	da08      	bge.n	10003a1e <da_yrgtx>
10003a0c:	3620      	adds	r6, #32
10003a0e:	0004      	movs	r4, r0
10003a10:	40b4      	lsls	r4, r6

10003a12 <da_ygtx0>:
10003a12:	000d      	movs	r5, r1
10003a14:	40b5      	lsls	r5, r6
10003a16:	40f8      	lsrs	r0, r7
10003a18:	4139      	asrs	r1, r7
10003a1a:	4328      	orrs	r0, r5
10003a1c:	e7a5      	b.n	1000396a <da_add>

10003a1e <da_yrgtx>:
10003a1e:	2f3c      	cmp	r7, #60	; 0x3c
10003a20:	da0c      	bge.n	10003a3c <da_ymgtx>
10003a22:	3f20      	subs	r7, #32
10003a24:	3640      	adds	r6, #64	; 0x40
10003a26:	0004      	movs	r4, r0
10003a28:	40b4      	lsls	r4, r6
10003a2a:	d000      	beq.n	10003a2e <da_yrgtx+0x10>
10003a2c:	2401      	movs	r4, #1
10003a2e:	40f8      	lsrs	r0, r7
10003a30:	4304      	orrs	r4, r0
10003a32:	0008      	movs	r0, r1
10003a34:	40b1      	lsls	r1, r6
10003a36:	430c      	orrs	r4, r1
10003a38:	17c1      	asrs	r1, r0, #31
10003a3a:	e7ea      	b.n	10003a12 <da_ygtx0>

10003a3c <da_ymgtx>:
10003a3c:	0010      	movs	r0, r2
10003a3e:	0019      	movs	r1, r3

10003a40 <da_xmgty>:
10003a40:	2400      	movs	r4, #0
10003a42:	e794      	b.n	1000396e <da_pack>
10003a44:	7ff00000 	.word	0x7ff00000

10003a48 <dmul_shim>:
10003a48:	b5f0      	push	{r4, r5, r6, r7, lr}
10003a4a:	0d0c      	lsrs	r4, r1, #20
10003a4c:	1e66      	subs	r6, r4, #1
10003a4e:	0536      	lsls	r6, r6, #20
10003a50:	1b89      	subs	r1, r1, r6
10003a52:	0ae6      	lsrs	r6, r4, #11
10003a54:	0564      	lsls	r4, r4, #21
10003a56:	0d64      	lsrs	r4, r4, #21
10003a58:	d002      	beq.n	10003a60 <l11_1>
10003a5a:	1c65      	adds	r5, r4, #1
10003a5c:	0aed      	lsrs	r5, r5, #11
10003a5e:	d004      	beq.n	10003a6a <l11_2>

10003a60 <l11_1>:
10003a60:	2000      	movs	r0, #0
10003a62:	2101      	movs	r1, #1
10003a64:	0509      	lsls	r1, r1, #20
10003a66:	3c80      	subs	r4, #128	; 0x80
10003a68:	0324      	lsls	r4, r4, #12

10003a6a <l11_2>:
10003a6a:	46a4      	mov	ip, r4
10003a6c:	0d1c      	lsrs	r4, r3, #20
10003a6e:	1e67      	subs	r7, r4, #1
10003a70:	053f      	lsls	r7, r7, #20
10003a72:	1bdb      	subs	r3, r3, r7
10003a74:	0ae7      	lsrs	r7, r4, #11
10003a76:	0564      	lsls	r4, r4, #21
10003a78:	0d64      	lsrs	r4, r4, #21
10003a7a:	d002      	beq.n	10003a82 <l12_1>
10003a7c:	1c65      	adds	r5, r4, #1
10003a7e:	0aed      	lsrs	r5, r5, #11
10003a80:	d004      	beq.n	10003a8c <l12_2>

10003a82 <l12_1>:
10003a82:	2200      	movs	r2, #0
10003a84:	2301      	movs	r3, #1
10003a86:	051b      	lsls	r3, r3, #20
10003a88:	3c80      	subs	r4, #128	; 0x80
10003a8a:	0324      	lsls	r4, r4, #12

10003a8c <l12_2>:
10003a8c:	4077      	eors	r7, r6
10003a8e:	4464      	add	r4, ip
10003a90:	b497      	push	{r0, r1, r2, r4, r7}
10003a92:	b284      	uxth	r4, r0
10003a94:	b296      	uxth	r6, r2
10003a96:	4374      	muls	r4, r6
10003a98:	0c07      	lsrs	r7, r0, #16
10003a9a:	437e      	muls	r6, r7
10003a9c:	0c15      	lsrs	r5, r2, #16
10003a9e:	436f      	muls	r7, r5
10003aa0:	b280      	uxth	r0, r0
10003aa2:	4368      	muls	r0, r5
10003aa4:	1836      	adds	r6, r6, r0
10003aa6:	d302      	bcc.n	10003aae <l13_1>
10003aa8:	2001      	movs	r0, #1
10003aaa:	0400      	lsls	r0, r0, #16
10003aac:	183f      	adds	r7, r7, r0

10003aae <l13_1>:
10003aae:	0430      	lsls	r0, r6, #16
10003ab0:	0c35      	lsrs	r5, r6, #16
10003ab2:	1900      	adds	r0, r0, r4
10003ab4:	417d      	adcs	r5, r7
10003ab6:	4684      	mov	ip, r0
10003ab8:	b288      	uxth	r0, r1
10003aba:	b29a      	uxth	r2, r3
10003abc:	4350      	muls	r0, r2
10003abe:	0c0c      	lsrs	r4, r1, #16
10003ac0:	4362      	muls	r2, r4
10003ac2:	0c1f      	lsrs	r7, r3, #16
10003ac4:	437c      	muls	r4, r7
10003ac6:	b28e      	uxth	r6, r1
10003ac8:	437e      	muls	r6, r7
10003aca:	1992      	adds	r2, r2, r6
10003acc:	d302      	bcc.n	10003ad4 <l14_1>
10003ace:	2601      	movs	r6, #1
10003ad0:	0436      	lsls	r6, r6, #16
10003ad2:	19a4      	adds	r4, r4, r6

10003ad4 <l14_1>:
10003ad4:	0416      	lsls	r6, r2, #16
10003ad6:	0c17      	lsrs	r7, r2, #16
10003ad8:	1836      	adds	r6, r6, r0
10003ada:	4167      	adcs	r7, r4
10003adc:	bc01      	pop	{r0}
10003ade:	b281      	uxth	r1, r0
10003ae0:	b29a      	uxth	r2, r3
10003ae2:	4351      	muls	r1, r2
10003ae4:	0c04      	lsrs	r4, r0, #16
10003ae6:	4362      	muls	r2, r4
10003ae8:	0c1b      	lsrs	r3, r3, #16
10003aea:	435c      	muls	r4, r3
10003aec:	b280      	uxth	r0, r0
10003aee:	4358      	muls	r0, r3
10003af0:	1812      	adds	r2, r2, r0
10003af2:	d302      	bcc.n	10003afa <l15_1>
10003af4:	2001      	movs	r0, #1
10003af6:	0400      	lsls	r0, r0, #16
10003af8:	1824      	adds	r4, r4, r0

10003afa <l15_1>:
10003afa:	0410      	lsls	r0, r2, #16
10003afc:	0c13      	lsrs	r3, r2, #16
10003afe:	1840      	adds	r0, r0, r1
10003b00:	4163      	adcs	r3, r4
10003b02:	182d      	adds	r5, r5, r0
10003b04:	415e      	adcs	r6, r3
10003b06:	2000      	movs	r0, #0
10003b08:	4147      	adcs	r7, r0
10003b0a:	bc06      	pop	{r1, r2}
10003b0c:	b288      	uxth	r0, r1
10003b0e:	b293      	uxth	r3, r2
10003b10:	4358      	muls	r0, r3
10003b12:	0c0c      	lsrs	r4, r1, #16
10003b14:	4363      	muls	r3, r4
10003b16:	0c12      	lsrs	r2, r2, #16
10003b18:	4354      	muls	r4, r2
10003b1a:	b289      	uxth	r1, r1
10003b1c:	4351      	muls	r1, r2
10003b1e:	185b      	adds	r3, r3, r1
10003b20:	d302      	bcc.n	10003b28 <l16_1>
10003b22:	2101      	movs	r1, #1
10003b24:	0409      	lsls	r1, r1, #16
10003b26:	1864      	adds	r4, r4, r1

10003b28 <l16_1>:
10003b28:	0419      	lsls	r1, r3, #16
10003b2a:	0c1a      	lsrs	r2, r3, #16
10003b2c:	1809      	adds	r1, r1, r0
10003b2e:	4162      	adcs	r2, r4
10003b30:	186d      	adds	r5, r5, r1
10003b32:	4156      	adcs	r6, r2
10003b34:	2000      	movs	r0, #0
10003b36:	4147      	adcs	r7, r0
10003b38:	bc18      	pop	{r3, r4}
10003b3a:	02f9      	lsls	r1, r7, #11
10003b3c:	0d72      	lsrs	r2, r6, #21
10003b3e:	4311      	orrs	r1, r2
10003b40:	02f0      	lsls	r0, r6, #11
10003b42:	0d6a      	lsrs	r2, r5, #21
10003b44:	4310      	orrs	r0, r2
10003b46:	02ed      	lsls	r5, r5, #11
10003b48:	0d0a      	lsrs	r2, r1, #20
10003b4a:	d103      	bne.n	10003b54 <l16_1+0x2c>
10003b4c:	196d      	adds	r5, r5, r5
10003b4e:	4140      	adcs	r0, r0
10003b50:	4149      	adcs	r1, r1
10003b52:	3b01      	subs	r3, #1
10003b54:	4e12      	ldr	r6, [pc, #72]	; (10003ba0 <dm_1+0xa>)
10003b56:	1b9b      	subs	r3, r3, r6
10003b58:	0076      	lsls	r6, r6, #1
10003b5a:	42b3      	cmp	r3, r6
10003b5c:	d20e      	bcs.n	10003b7c <dm_0>
10003b5e:	006d      	lsls	r5, r5, #1
10003b60:	d307      	bcc.n	10003b72 <l16_1+0x4a>
10003b62:	3001      	adds	r0, #1
10003b64:	2600      	movs	r6, #0
10003b66:	4171      	adcs	r1, r6
10003b68:	4666      	mov	r6, ip
10003b6a:	4335      	orrs	r5, r6
10003b6c:	d101      	bne.n	10003b72 <l16_1+0x4a>
10003b6e:	0840      	lsrs	r0, r0, #1
10003b70:	0040      	lsls	r0, r0, #1
10003b72:	051b      	lsls	r3, r3, #20
10003b74:	18c9      	adds	r1, r1, r3

10003b76 <dm_2>:
10003b76:	07e4      	lsls	r4, r4, #31
10003b78:	4421      	add	r1, r4
10003b7a:	bdf0      	pop	{r4, r5, r6, r7, pc}

10003b7c <dm_0>:
10003b7c:	da0b      	bge.n	10003b96 <dm_1>
10003b7e:	3301      	adds	r3, #1
10003b80:	d106      	bne.n	10003b90 <dm_0+0x14>
10003b82:	3001      	adds	r0, #1
10003b84:	d104      	bne.n	10003b90 <dm_0+0x14>
10003b86:	3101      	adds	r1, #1
10003b88:	0d4f      	lsrs	r7, r1, #21
10003b8a:	d001      	beq.n	10003b90 <dm_0+0x14>
10003b8c:	0849      	lsrs	r1, r1, #1
10003b8e:	e7f2      	b.n	10003b76 <dm_2>
10003b90:	07e1      	lsls	r1, r4, #31
10003b92:	2000      	movs	r0, #0
10003b94:	bdf0      	pop	{r4, r5, r6, r7, pc}

10003b96 <dm_1>:
10003b96:	3601      	adds	r6, #1
10003b98:	0531      	lsls	r1, r6, #20
10003b9a:	2000      	movs	r0, #0
10003b9c:	e7eb      	b.n	10003b76 <dm_2>
10003b9e:	0000      	.short	0x0000
10003ba0:	000003ff 	.word	0x000003ff

10003ba4 <ddiv_shim>:
10003ba4:	b5f0      	push	{r4, r5, r6, r7, lr}

10003ba6 <ddiv0>:
10003ba6:	0d1c      	lsrs	r4, r3, #20
10003ba8:	1e67      	subs	r7, r4, #1
10003baa:	053f      	lsls	r7, r7, #20
10003bac:	1bdb      	subs	r3, r3, r7
10003bae:	0ae7      	lsrs	r7, r4, #11
10003bb0:	0564      	lsls	r4, r4, #21
10003bb2:	0d64      	lsrs	r4, r4, #21
10003bb4:	d002      	beq.n	10003bbc <l19_1>
10003bb6:	1c66      	adds	r6, r4, #1
10003bb8:	0af6      	lsrs	r6, r6, #11
10003bba:	d004      	beq.n	10003bc6 <l19_2>

10003bbc <l19_1>:
10003bbc:	2200      	movs	r2, #0
10003bbe:	2301      	movs	r3, #1
10003bc0:	051b      	lsls	r3, r3, #20
10003bc2:	3c80      	subs	r4, #128	; 0x80
10003bc4:	0324      	lsls	r4, r4, #12

10003bc6 <l19_2>:
10003bc6:	25d0      	movs	r5, #208	; 0xd0
10003bc8:	062d      	lsls	r5, r5, #24
10003bca:	2600      	movs	r6, #0
10003bcc:	43f6      	mvns	r6, r6
10003bce:	662e      	str	r6, [r5, #96]	; 0x60
10003bd0:	091e      	lsrs	r6, r3, #4
10003bd2:	666e      	str	r6, [r5, #100]	; 0x64
10003bd4:	0fce      	lsrs	r6, r1, #31
10003bd6:	19f6      	adds	r6, r6, r7
10003bd8:	46b4      	mov	ip, r6
10003bda:	0049      	lsls	r1, r1, #1
10003bdc:	0d4f      	lsrs	r7, r1, #21
10003bde:	d002      	beq.n	10003be6 <l19_2+0x20>
10003be0:	1c7e      	adds	r6, r7, #1
10003be2:	0af6      	lsrs	r6, r6, #11
10003be4:	d003      	beq.n	10003bee <l19_2+0x28>
10003be6:	2000      	movs	r0, #0
10003be8:	2100      	movs	r1, #0
10003bea:	3f40      	subs	r7, #64	; 0x40
10003bec:	033f      	lsls	r7, r7, #12
10003bee:	1b3e      	subs	r6, r7, r4
10003bf0:	00b6      	lsls	r6, r6, #2
10003bf2:	44b4      	add	ip, r6
10003bf4:	3f01      	subs	r7, #1
10003bf6:	057f      	lsls	r7, r7, #21
10003bf8:	1bc9      	subs	r1, r1, r7
10003bfa:	0849      	lsrs	r1, r1, #1
10003bfc:	6f2e      	ldr	r6, [r5, #112]	; 0x70
10003bfe:	3601      	adds	r6, #1
10003c00:	0876      	lsrs	r6, r6, #1
10003c02:	029c      	lsls	r4, r3, #10
10003c04:	0d95      	lsrs	r5, r2, #22
10003c06:	4325      	orrs	r5, r4
10003c08:	4375      	muls	r5, r6
10003c0a:	13ed      	asrs	r5, r5, #15
10003c0c:	4375      	muls	r5, r6
10003c0e:	13ad      	asrs	r5, r5, #14
10003c10:	3501      	adds	r5, #1
10003c12:	106d      	asrs	r5, r5, #1
10003c14:	03f6      	lsls	r6, r6, #15
10003c16:	1b76      	subs	r6, r6, r5
10003c18:	b40c      	push	{r2, r3}
10003c1a:	02cc      	lsls	r4, r1, #11
10003c1c:	0d45      	lsrs	r5, r0, #21
10003c1e:	432c      	orrs	r4, r5
10003c20:	b2a2      	uxth	r2, r4
10003c22:	b2b3      	uxth	r3, r6
10003c24:	435a      	muls	r2, r3
10003c26:	0c27      	lsrs	r7, r4, #16
10003c28:	437b      	muls	r3, r7
10003c2a:	0c35      	lsrs	r5, r6, #16
10003c2c:	436f      	muls	r7, r5
10003c2e:	b2a4      	uxth	r4, r4
10003c30:	436c      	muls	r4, r5
10003c32:	191b      	adds	r3, r3, r4
10003c34:	d302      	bcc.n	10003c3c <l20_1>
10003c36:	2401      	movs	r4, #1
10003c38:	0424      	lsls	r4, r4, #16
10003c3a:	193f      	adds	r7, r7, r4

10003c3c <l20_1>:
10003c3c:	041c      	lsls	r4, r3, #16
10003c3e:	0c1d      	lsrs	r5, r3, #16
10003c40:	18a4      	adds	r4, r4, r2
10003c42:	417d      	adcs	r5, r7
10003c44:	1924      	adds	r4, r4, r4
10003c46:	416d      	adcs	r5, r5
10003c48:	9a00      	ldr	r2, [sp, #0]
10003c4a:	b291      	uxth	r1, r2
10003c4c:	b2ac      	uxth	r4, r5
10003c4e:	4361      	muls	r1, r4
10003c50:	0c17      	lsrs	r7, r2, #16
10003c52:	437c      	muls	r4, r7
10003c54:	0c2b      	lsrs	r3, r5, #16
10003c56:	435f      	muls	r7, r3
10003c58:	b292      	uxth	r2, r2
10003c5a:	435a      	muls	r2, r3
10003c5c:	18a4      	adds	r4, r4, r2
10003c5e:	d302      	bcc.n	10003c66 <l21_1>
10003c60:	2201      	movs	r2, #1
10003c62:	0412      	lsls	r2, r2, #16
10003c64:	18bf      	adds	r7, r7, r2

10003c66 <l21_1>:
10003c66:	0422      	lsls	r2, r4, #16
10003c68:	0c23      	lsrs	r3, r4, #16
10003c6a:	1852      	adds	r2, r2, r1
10003c6c:	417b      	adcs	r3, r7
10003c6e:	9c01      	ldr	r4, [sp, #4]
10003c70:	436c      	muls	r4, r5
10003c72:	191b      	adds	r3, r3, r4
10003c74:	0e52      	lsrs	r2, r2, #25
10003c76:	01d9      	lsls	r1, r3, #7
10003c78:	430a      	orrs	r2, r1
10003c7a:	0144      	lsls	r4, r0, #5
10003c7c:	1aa0      	subs	r0, r4, r2
10003c7e:	b281      	uxth	r1, r0
10003c80:	b2b2      	uxth	r2, r6
10003c82:	4351      	muls	r1, r2
10003c84:	1403      	asrs	r3, r0, #16
10003c86:	435a      	muls	r2, r3
10003c88:	0c36      	lsrs	r6, r6, #16
10003c8a:	4373      	muls	r3, r6
10003c8c:	b287      	uxth	r7, r0
10003c8e:	4377      	muls	r7, r6
10003c90:	17d6      	asrs	r6, r2, #31
10003c92:	19d2      	adds	r2, r2, r7
10003c94:	2700      	movs	r7, #0
10003c96:	417e      	adcs	r6, r7
10003c98:	0436      	lsls	r6, r6, #16
10003c9a:	199b      	adds	r3, r3, r6
10003c9c:	0417      	lsls	r7, r2, #16
10003c9e:	0c16      	lsrs	r6, r2, #16
10003ca0:	187f      	adds	r7, r7, r1
10003ca2:	415e      	adcs	r6, r3
10003ca4:	1673      	asrs	r3, r6, #25
10003ca6:	18ed      	adds	r5, r5, r3
10003ca8:	01f3      	lsls	r3, r6, #7
10003caa:	2600      	movs	r6, #0
10003cac:	3380      	adds	r3, #128	; 0x80
10003cae:	4175      	adcs	r5, r6
10003cb0:	0fa9      	lsrs	r1, r5, #30
10003cb2:	d106      	bne.n	10003cc2 <dd_0>
10003cb4:	0064      	lsls	r4, r4, #1
10003cb6:	0a69      	lsrs	r1, r5, #9
10003cb8:	05e8      	lsls	r0, r5, #23
10003cba:	0a5b      	lsrs	r3, r3, #9
10003cbc:	4318      	orrs	r0, r3
10003cbe:	d209      	bcs.n	10003cd4 <dd_1>
10003cc0:	e02f      	b.n	10003d22 <dd_2>

10003cc2 <dd_0>:
10003cc2:	2204      	movs	r2, #4
10003cc4:	4494      	add	ip, r2
10003cc6:	3380      	adds	r3, #128	; 0x80
10003cc8:	4175      	adcs	r5, r6
10003cca:	0aa9      	lsrs	r1, r5, #10
10003ccc:	05a8      	lsls	r0, r5, #22
10003cce:	0a9b      	lsrs	r3, r3, #10
10003cd0:	4318      	orrs	r0, r3
10003cd2:	d326      	bcc.n	10003d22 <dd_2>

10003cd4 <dd_1>:
10003cd4:	4140      	adcs	r0, r0
10003cd6:	4149      	adcs	r1, r1
10003cd8:	0424      	lsls	r4, r4, #16
10003cda:	9a00      	ldr	r2, [sp, #0]
10003cdc:	9b01      	ldr	r3, [sp, #4]
10003cde:	000d      	movs	r5, r1
10003ce0:	4355      	muls	r5, r2
10003ce2:	1b64      	subs	r4, r4, r5
10003ce4:	4343      	muls	r3, r0
10003ce6:	1ae4      	subs	r4, r4, r3
10003ce8:	b295      	uxth	r5, r2
10003cea:	b286      	uxth	r6, r0
10003cec:	4375      	muls	r5, r6
10003cee:	0c17      	lsrs	r7, r2, #16
10003cf0:	437e      	muls	r6, r7
10003cf2:	0c03      	lsrs	r3, r0, #16
10003cf4:	435f      	muls	r7, r3
10003cf6:	b292      	uxth	r2, r2
10003cf8:	435a      	muls	r2, r3
10003cfa:	18b6      	adds	r6, r6, r2
10003cfc:	d302      	bcc.n	10003d04 <l23_1>
10003cfe:	2201      	movs	r2, #1
10003d00:	0412      	lsls	r2, r2, #16
10003d02:	18bf      	adds	r7, r7, r2

10003d04 <l23_1>:
10003d04:	0432      	lsls	r2, r6, #16
10003d06:	0c33      	lsrs	r3, r6, #16
10003d08:	1952      	adds	r2, r2, r5
10003d0a:	417b      	adcs	r3, r7
10003d0c:	4252      	negs	r2, r2
10003d0e:	419c      	sbcs	r4, r3
10003d10:	2c00      	cmp	r4, #0
10003d12:	d402      	bmi.n	10003d1a <l23_1+0x16>
10003d14:	2200      	movs	r2, #0
10003d16:	3001      	adds	r0, #1
10003d18:	4151      	adcs	r1, r2
10003d1a:	0840      	lsrs	r0, r0, #1
10003d1c:	07ca      	lsls	r2, r1, #31
10003d1e:	4310      	orrs	r0, r2
10003d20:	0849      	lsrs	r1, r1, #1

10003d22 <dd_2>:
10003d22:	b002      	add	sp, #8
10003d24:	4662      	mov	r2, ip
10003d26:	07d7      	lsls	r7, r2, #31
10003d28:	1092      	asrs	r2, r2, #2
10003d2a:	4b08      	ldr	r3, [pc, #32]	; (10003d4c <dd_4+0x6>)
10003d2c:	18d2      	adds	r2, r2, r3
10003d2e:	4b08      	ldr	r3, [pc, #32]	; (10003d50 <dd_4+0xa>)
10003d30:	429a      	cmp	r2, r3
10003d32:	d203      	bcs.n	10003d3c <dd_3>
10003d34:	0512      	lsls	r2, r2, #20
10003d36:	1889      	adds	r1, r1, r2

10003d38 <dd_5>:
10003d38:	19c9      	adds	r1, r1, r7
10003d3a:	bdf0      	pop	{r4, r5, r6, r7, pc}

10003d3c <dd_3>:
10003d3c:	2000      	movs	r0, #0
10003d3e:	2a00      	cmp	r2, #0
10003d40:	dc01      	bgt.n	10003d46 <dd_4>
10003d42:	0039      	movs	r1, r7
10003d44:	bdf0      	pop	{r4, r5, r6, r7, pc}

10003d46 <dd_4>:
10003d46:	3301      	adds	r3, #1
10003d48:	0519      	lsls	r1, r3, #20
10003d4a:	e7f5      	b.n	10003d38 <dd_5>
10003d4c:	000003fd 	.word	0x000003fd
10003d50:	000007fe 	.word	0x000007fe

10003d54 <dcordic_rot_step>:
10003d54:	4662      	mov	r2, ip
10003d56:	ca18      	ldmia	r2!, {r3, r4}
10003d58:	4694      	mov	ip, r2
10003d5a:	2900      	cmp	r1, #0
10003d5c:	da1a      	bge.n	10003d94 <dcordic_rot_step+0x40>
10003d5e:	18c0      	adds	r0, r0, r3
10003d60:	4161      	adcs	r1, r4
10003d62:	465b      	mov	r3, fp
10003d64:	413b      	asrs	r3, r7
10003d66:	465c      	mov	r4, fp
10003d68:	40b4      	lsls	r4, r6
10003d6a:	4652      	mov	r2, sl
10003d6c:	40fa      	lsrs	r2, r7
10003d6e:	4322      	orrs	r2, r4
10003d70:	4644      	mov	r4, r8
10003d72:	464d      	mov	r5, r9
10003d74:	4162      	adcs	r2, r4
10003d76:	416b      	adcs	r3, r5
10003d78:	4690      	mov	r8, r2
10003d7a:	4699      	mov	r9, r3
10003d7c:	462b      	mov	r3, r5
10003d7e:	40b3      	lsls	r3, r6
10003d80:	413d      	asrs	r5, r7
10003d82:	40fc      	lsrs	r4, r7
10003d84:	431c      	orrs	r4, r3
10003d86:	4652      	mov	r2, sl
10003d88:	465b      	mov	r3, fp
10003d8a:	41a2      	sbcs	r2, r4
10003d8c:	41ab      	sbcs	r3, r5
10003d8e:	4692      	mov	sl, r2
10003d90:	469b      	mov	fp, r3
10003d92:	4770      	bx	lr
10003d94:	1ac0      	subs	r0, r0, r3
10003d96:	41a1      	sbcs	r1, r4
10003d98:	464b      	mov	r3, r9
10003d9a:	413b      	asrs	r3, r7
10003d9c:	464c      	mov	r4, r9
10003d9e:	40b4      	lsls	r4, r6
10003da0:	4642      	mov	r2, r8
10003da2:	40fa      	lsrs	r2, r7
10003da4:	4322      	orrs	r2, r4
10003da6:	4654      	mov	r4, sl
10003da8:	465d      	mov	r5, fp
10003daa:	4162      	adcs	r2, r4
10003dac:	416b      	adcs	r3, r5
10003dae:	4692      	mov	sl, r2
10003db0:	469b      	mov	fp, r3
10003db2:	462b      	mov	r3, r5
10003db4:	40b3      	lsls	r3, r6
10003db6:	413d      	asrs	r5, r7
10003db8:	40fc      	lsrs	r4, r7
10003dba:	431c      	orrs	r4, r3
10003dbc:	4642      	mov	r2, r8
10003dbe:	464b      	mov	r3, r9
10003dc0:	41a2      	sbcs	r2, r4
10003dc2:	41ab      	sbcs	r3, r5
10003dc4:	4690      	mov	r8, r2
10003dc6:	4699      	mov	r9, r3
10003dc8:	4770      	bx	lr

10003dca <ret_dzero>:
10003dca:	2000      	movs	r0, #0
10003dcc:	2100      	movs	r1, #0
10003dce:	4770      	bx	lr

10003dd0 <double2uint_shim>:
10003dd0:	2200      	movs	r2, #0

10003dd2 <double2ufix_shim>:
10003dd2:	b500      	push	{lr}
10003dd4:	3220      	adds	r2, #32
10003dd6:	f000 f804 	bl	10003de2 <double2ufix64_shim>
10003dda:	0008      	movs	r0, r1
10003ddc:	bd00      	pop	{pc}
	...

10003de0 <double2uint64_shim>:
10003de0:	2200      	movs	r2, #0

10003de2 <double2ufix64_shim>:
10003de2:	150b      	asrs	r3, r1, #20
10003de4:	d4f1      	bmi.n	10003dca <ret_dzero>

10003de6 <d2fix>:
10003de6:	b510      	push	{r4, lr}
10003de8:	4694      	mov	ip, r2
10003dea:	f000 f82f 	bl	10003e4c <dunpacks>
10003dee:	1414      	asrs	r4, r2, #16
10003df0:	3401      	adds	r4, #1
10003df2:	da00      	bge.n	10003df6 <d2fix+0x10>
10003df4:	2100      	movs	r1, #0
10003df6:	17cb      	asrs	r3, r1, #31
10003df8:	4c13      	ldr	r4, [pc, #76]	; (10003e48 <d2fix_a+0x4c>)
10003dfa:	4720      	bx	r4

10003dfc <d2fix_a>:
10003dfc:	4462      	add	r2, ip
10003dfe:	3a34      	subs	r2, #52	; 0x34
10003e00:	d40c      	bmi.n	10003e1c <d2fix_a+0x20>
10003e02:	2a0c      	cmp	r2, #12
10003e04:	da07      	bge.n	10003e16 <d2fix_a+0x1a>
10003e06:	0004      	movs	r4, r0
10003e08:	4091      	lsls	r1, r2
10003e0a:	4090      	lsls	r0, r2
10003e0c:	4252      	negs	r2, r2
10003e0e:	3220      	adds	r2, #32
10003e10:	40d4      	lsrs	r4, r2
10003e12:	4321      	orrs	r1, r4
10003e14:	bd10      	pop	{r4, pc}
10003e16:	43d8      	mvns	r0, r3
10003e18:	43d9      	mvns	r1, r3
10003e1a:	bd10      	pop	{r4, pc}
10003e1c:	3220      	adds	r2, #32
10003e1e:	d407      	bmi.n	10003e30 <d2fix_a+0x34>
10003e20:	460c      	mov	r4, r1
10003e22:	4094      	lsls	r4, r2
10003e24:	4252      	negs	r2, r2
10003e26:	3220      	adds	r2, #32
10003e28:	4111      	asrs	r1, r2
10003e2a:	40d0      	lsrs	r0, r2
10003e2c:	4320      	orrs	r0, r4
10003e2e:	bd10      	pop	{r4, pc}
10003e30:	0008      	movs	r0, r1
10003e32:	17c9      	asrs	r1, r1, #31
10003e34:	3220      	adds	r2, #32
10003e36:	d403      	bmi.n	10003e40 <d2fix_a+0x44>
10003e38:	4252      	negs	r2, r2
10003e3a:	3220      	adds	r2, #32
10003e3c:	4110      	asrs	r0, r2
10003e3e:	bd10      	pop	{r4, pc}
10003e40:	0018      	movs	r0, r3
10003e42:	0019      	movs	r1, r3
10003e44:	bd10      	pop	{r4, pc}
10003e46:	0000      	.short	0x0000
10003e48:	10003dfd 	.word	0x10003dfd

10003e4c <dunpacks>:
10003e4c:	0d0a      	lsrs	r2, r1, #20
10003e4e:	0fcc      	lsrs	r4, r1, #31
10003e50:	1e53      	subs	r3, r2, #1
10003e52:	051b      	lsls	r3, r3, #20
10003e54:	1ac9      	subs	r1, r1, r3
10003e56:	0552      	lsls	r2, r2, #21
10003e58:	d303      	bcc.n	10003e62 <l60_1>
10003e5a:	43c9      	mvns	r1, r1
10003e5c:	4240      	negs	r0, r0
10003e5e:	d300      	bcc.n	10003e62 <l60_1>
10003e60:	3101      	adds	r1, #1

10003e62 <l60_1>:
10003e62:	0d52      	lsrs	r2, r2, #21
10003e64:	d003      	beq.n	10003e6e <l60_2>
10003e66:	1c53      	adds	r3, r2, #1
10003e68:	0adb      	lsrs	r3, r3, #11
10003e6a:	d007      	beq.n	10003e7c <l60_3>
10003e6c:	1b12      	subs	r2, r2, r4

10003e6e <l60_2>:
10003e6e:	2000      	movs	r0, #0
10003e70:	0064      	lsls	r4, r4, #1
10003e72:	1c61      	adds	r1, r4, #1
10003e74:	0789      	lsls	r1, r1, #30
10003e76:	1289      	asrs	r1, r1, #10
10003e78:	3a80      	subs	r2, #128	; 0x80
10003e7a:	0312      	lsls	r2, r2, #12

10003e7c <l60_3>:
10003e7c:	4b01      	ldr	r3, [pc, #4]	; (10003e84 <l60_3+0x8>)
10003e7e:	1ad2      	subs	r2, r2, r3
10003e80:	4770      	bx	lr
10003e82:	0000      	.short	0x0000
10003e84:	000003ff 	.word	0x000003ff

10003e88 <__wrap___aeabi_lmul>:
10003e88:	4351      	muls	r1, r2
10003e8a:	4343      	muls	r3, r0
10003e8c:	18c9      	adds	r1, r1, r3
10003e8e:	468c      	mov	ip, r1
10003e90:	0c11      	lsrs	r1, r2, #16
10003e92:	b283      	uxth	r3, r0
10003e94:	434b      	muls	r3, r1
10003e96:	b410      	push	{r4}
10003e98:	0c04      	lsrs	r4, r0, #16
10003e9a:	4361      	muls	r1, r4
10003e9c:	b292      	uxth	r2, r2
10003e9e:	b280      	uxth	r0, r0
10003ea0:	4350      	muls	r0, r2
10003ea2:	4362      	muls	r2, r4
10003ea4:	041c      	lsls	r4, r3, #16
10003ea6:	0c1b      	lsrs	r3, r3, #16
10003ea8:	1900      	adds	r0, r0, r4
10003eaa:	bc10      	pop	{r4}
10003eac:	4159      	adcs	r1, r3
10003eae:	0413      	lsls	r3, r2, #16
10003eb0:	0c12      	lsrs	r2, r2, #16
10003eb2:	18c0      	adds	r0, r0, r3
10003eb4:	4151      	adcs	r1, r2
10003eb6:	4461      	add	r1, ip
10003eb8:	4770      	bx	lr
	...

10003ebc <__aeabi_float_init>:
10003ebc:	2313      	movs	r3, #19
10003ebe:	b510      	push	{r4, lr}
10003ec0:	4812      	ldr	r0, [pc, #72]	; (10003f0c <__aeabi_float_init+0x50>)
10003ec2:	781c      	ldrb	r4, [r3, #0]
10003ec4:	f7ff f934 	bl	10003130 <rom_data_lookup>
10003ec8:	0001      	movs	r1, r0
10003eca:	2c01      	cmp	r4, #1
10003ecc:	d00a      	beq.n	10003ee4 <__aeabi_float_init+0x28>
10003ece:	dd03      	ble.n	10003ed8 <__aeabi_float_init+0x1c>
10003ed0:	2280      	movs	r2, #128	; 0x80
10003ed2:	480f      	ldr	r0, [pc, #60]	; (10003f10 <__aeabi_float_init+0x54>)
10003ed4:	f000 f850 	bl	10003f78 <__wrap___aeabi_memcpy>
10003ed8:	480e      	ldr	r0, [pc, #56]	; (10003f14 <__aeabi_float_init+0x58>)
10003eda:	f7ff f921 	bl	10003120 <rom_func_lookup>
10003ede:	4b0e      	ldr	r3, [pc, #56]	; (10003f18 <__aeabi_float_init+0x5c>)
10003ee0:	6018      	str	r0, [r3, #0]
10003ee2:	bd10      	pop	{r4, pc}
10003ee4:	4c0a      	ldr	r4, [pc, #40]	; (10003f10 <__aeabi_float_init+0x54>)
10003ee6:	2254      	movs	r2, #84	; 0x54
10003ee8:	0020      	movs	r0, r4
10003eea:	f000 f845 	bl	10003f78 <__wrap___aeabi_memcpy>
10003eee:	4b0b      	ldr	r3, [pc, #44]	; (10003f1c <__aeabi_float_init+0x60>)
10003ef0:	6563      	str	r3, [r4, #84]	; 0x54
10003ef2:	65a3      	str	r3, [r4, #88]	; 0x58
10003ef4:	65e3      	str	r3, [r4, #92]	; 0x5c
10003ef6:	6623      	str	r3, [r4, #96]	; 0x60
10003ef8:	6663      	str	r3, [r4, #100]	; 0x64
10003efa:	66a3      	str	r3, [r4, #104]	; 0x68
10003efc:	66e3      	str	r3, [r4, #108]	; 0x6c
10003efe:	6723      	str	r3, [r4, #112]	; 0x70
10003f00:	6763      	str	r3, [r4, #116]	; 0x74
10003f02:	67a3      	str	r3, [r4, #120]	; 0x78
10003f04:	67e3      	str	r3, [r4, #124]	; 0x7c
10003f06:	6223      	str	r3, [r4, #32]
10003f08:	61e3      	str	r3, [r4, #28]
10003f0a:	e7e5      	b.n	10003ed8 <__aeabi_float_init+0x1c>
10003f0c:	00004653 	.word	0x00004653
10003f10:	20000c30 	.word	0x20000c30
10003f14:	0000334c 	.word	0x0000334c
10003f18:	20000d30 	.word	0x20000d30
10003f1c:	10003f21 	.word	0x10003f21

10003f20 <float_table_shim_on_use_helper>:
10003f20:	b507      	push	{r0, r1, r2, lr}
10003f22:	4660      	mov	r0, ip
10003f24:	8801      	ldrh	r1, [r0, #0]
10003f26:	0a0a      	lsrs	r2, r1, #8
10003f28:	3002      	adds	r0, #2
10003f2a:	2adf      	cmp	r2, #223	; 0xdf
10003f2c:	d1fa      	bne.n	10003f24 <float_table_shim_on_use_helper+0x4>
10003f2e:	b2c9      	uxtb	r1, r1
10003f30:	0882      	lsrs	r2, r0, #2
10003f32:	d304      	bcc.n	10003f3e <float_table_shim_on_use_helper+0x1e>
10003f34:	8802      	ldrh	r2, [r0, #0]
10003f36:	8840      	ldrh	r0, [r0, #2]
10003f38:	0400      	lsls	r0, r0, #16
10003f3a:	4310      	orrs	r0, r2
10003f3c:	e000      	b.n	10003f40 <float_table_shim_on_use_helper+0x20>
10003f3e:	6800      	ldr	r0, [r0, #0]
10003f40:	4a01      	ldr	r2, [pc, #4]	; (10003f48 <float_table_shim_on_use_helper+0x28>)
10003f42:	5050      	str	r0, [r2, r1]
10003f44:	9003      	str	r0, [sp, #12]
10003f46:	bd07      	pop	{r0, r1, r2, pc}
10003f48:	20000c30 	.word	0x20000c30

10003f4c <__wrap_malloc>:
10003f4c:	b510      	push	{r4, lr}
10003f4e:	f000 fa95 	bl	1000447c <malloc>
10003f52:	bd10      	pop	{r4, pc}

10003f54 <__wrap_calloc>:
10003f54:	b510      	push	{r4, lr}
10003f56:	f000 fa57 	bl	10004408 <calloc>
10003f5a:	bd10      	pop	{r4, pc}

10003f5c <__aeabi_mem_init>:
10003f5c:	4801      	ldr	r0, [pc, #4]	; (10003f64 <__aeabi_mem_init+0x8>)
10003f5e:	2104      	movs	r1, #4
10003f60:	4b01      	ldr	r3, [pc, #4]	; (10003f68 <__aeabi_mem_init+0xc>)
10003f62:	4718      	bx	r3
10003f64:	200001f0 	.word	0x200001f0
10003f68:	10003141 	.word	0x10003141

10003f6c <__wrap_memset>:
10003f6c:	4b01      	ldr	r3, [pc, #4]	; (10003f74 <__wrap_memset+0x8>)
10003f6e:	681b      	ldr	r3, [r3, #0]
10003f70:	4718      	bx	r3
10003f72:	0000      	.short	0x0000
10003f74:	200001f0 	.word	0x200001f0

10003f78 <__wrap___aeabi_memcpy>:
10003f78:	4b01      	ldr	r3, [pc, #4]	; (10003f80 <__wrap___aeabi_memcpy+0x8>)
10003f7a:	685b      	ldr	r3, [r3, #4]
10003f7c:	4718      	bx	r3
10003f7e:	0000      	.short	0x0000
10003f80:	200001f0 	.word	0x200001f0

10003f84 <stdio_out_chars_crlf.part.0>:
10003f84:	b5f8      	push	{r3, r4, r5, r6, r7, lr}
10003f86:	4647      	mov	r7, r8
10003f88:	46ce      	mov	lr, r9
10003f8a:	000d      	movs	r5, r1
10003f8c:	b580      	push	{r7, lr}
10003f8e:	0016      	movs	r6, r2
10003f90:	0007      	movs	r7, r0
10003f92:	2a00      	cmp	r2, #0
10003f94:	dd20      	ble.n	10003fd8 <stdio_out_chars_crlf.part.0+0x54>
10003f96:	1e4b      	subs	r3, r1, #1
10003f98:	4698      	mov	r8, r3
10003f9a:	4b1a      	ldr	r3, [pc, #104]	; (10004004 <stdio_out_chars_crlf.part.0+0x80>)
10003f9c:	2400      	movs	r4, #0
10003f9e:	2000      	movs	r0, #0
10003fa0:	4699      	mov	r9, r3
10003fa2:	2c00      	cmp	r4, #0
10003fa4:	d02b      	beq.n	10003ffe <stdio_out_chars_crlf.part.0+0x7a>
10003fa6:	4643      	mov	r3, r8
10003fa8:	5d1b      	ldrb	r3, [r3, r4]
10003faa:	3b0d      	subs	r3, #13
10003fac:	425a      	negs	r2, r3
10003fae:	4153      	adcs	r3, r2
10003fb0:	b2db      	uxtb	r3, r3
10003fb2:	5d2a      	ldrb	r2, [r5, r4]
10003fb4:	2a0a      	cmp	r2, #10
10003fb6:	d013      	beq.n	10003fe0 <stdio_out_chars_crlf.part.0+0x5c>
10003fb8:	3401      	adds	r4, #1
10003fba:	42a6      	cmp	r6, r4
10003fbc:	dcf1      	bgt.n	10003fa2 <stdio_out_chars_crlf.part.0+0x1e>
10003fbe:	4286      	cmp	r6, r0
10003fc0:	dd03      	ble.n	10003fca <stdio_out_chars_crlf.part.0+0x46>
10003fc2:	1a31      	subs	r1, r6, r0
10003fc4:	683b      	ldr	r3, [r7, #0]
10003fc6:	1828      	adds	r0, r5, r0
10003fc8:	4798      	blx	r3
10003fca:	19ad      	adds	r5, r5, r6
10003fcc:	3d01      	subs	r5, #1
10003fce:	782b      	ldrb	r3, [r5, #0]
10003fd0:	3b0d      	subs	r3, #13
10003fd2:	425a      	negs	r2, r3
10003fd4:	4153      	adcs	r3, r2
10003fd6:	743b      	strb	r3, [r7, #16]
10003fd8:	bc0c      	pop	{r2, r3}
10003fda:	4690      	mov	r8, r2
10003fdc:	4699      	mov	r9, r3
10003fde:	bdf8      	pop	{r3, r4, r5, r6, r7, pc}
10003fe0:	2b00      	cmp	r3, #0
10003fe2:	d1e9      	bne.n	10003fb8 <stdio_out_chars_crlf.part.0+0x34>
10003fe4:	42a0      	cmp	r0, r4
10003fe6:	da03      	bge.n	10003ff0 <stdio_out_chars_crlf.part.0+0x6c>
10003fe8:	1a21      	subs	r1, r4, r0
10003fea:	683b      	ldr	r3, [r7, #0]
10003fec:	1828      	adds	r0, r5, r0
10003fee:	4798      	blx	r3
10003ff0:	4648      	mov	r0, r9
10003ff2:	2102      	movs	r1, #2
10003ff4:	683b      	ldr	r3, [r7, #0]
10003ff6:	3401      	adds	r4, #1
10003ff8:	4798      	blx	r3
10003ffa:	0020      	movs	r0, r4
10003ffc:	e7dd      	b.n	10003fba <stdio_out_chars_crlf.part.0+0x36>
10003ffe:	7c3b      	ldrb	r3, [r7, #16]
10004000:	e7d7      	b.n	10003fb2 <stdio_out_chars_crlf.part.0+0x2e>
10004002:	46c0      	nop			; (mov r8, r8)
10004004:	100050b8 	.word	0x100050b8

10004008 <stdio_buffered_printer>:
10004008:	b5f8      	push	{r3, r4, r5, r6, r7, lr}
1000400a:	4647      	mov	r7, r8
1000400c:	46ce      	mov	lr, r9
1000400e:	000c      	movs	r4, r1
10004010:	6809      	ldr	r1, [r1, #0]
10004012:	b580      	push	{r7, lr}
10004014:	0007      	movs	r7, r0
10004016:	2980      	cmp	r1, #128	; 0x80
10004018:	d007      	beq.n	1000402a <stdio_buffered_printer+0x22>
1000401a:	1c4b      	adds	r3, r1, #1
1000401c:	6023      	str	r3, [r4, #0]
1000401e:	1864      	adds	r4, r4, r1
10004020:	7127      	strb	r7, [r4, #4]
10004022:	bc0c      	pop	{r2, r3}
10004024:	4690      	mov	r8, r2
10004026:	4699      	mov	r9, r3
10004028:	bdf8      	pop	{r3, r4, r5, r6, r7, pc}
1000402a:	4b13      	ldr	r3, [pc, #76]	; (10004078 <stdio_buffered_printer+0x70>)
1000402c:	681d      	ldr	r5, [r3, #0]
1000402e:	2d00      	cmp	r5, #0
10004030:	d01b      	beq.n	1000406a <stdio_buffered_printer+0x62>
10004032:	4b12      	ldr	r3, [pc, #72]	; (1000407c <stdio_buffered_printer+0x74>)
10004034:	4698      	mov	r8, r3
10004036:	1d23      	adds	r3, r4, #4
10004038:	4699      	mov	r9, r3
1000403a:	e002      	b.n	10004042 <stdio_buffered_printer+0x3a>
1000403c:	68ed      	ldr	r5, [r5, #12]
1000403e:	2d00      	cmp	r5, #0
10004040:	d013      	beq.n	1000406a <stdio_buffered_printer+0x62>
10004042:	682e      	ldr	r6, [r5, #0]
10004044:	2e00      	cmp	r6, #0
10004046:	d0f9      	beq.n	1000403c <stdio_buffered_printer+0x34>
10004048:	4643      	mov	r3, r8
1000404a:	681b      	ldr	r3, [r3, #0]
1000404c:	2b00      	cmp	r3, #0
1000404e:	d001      	beq.n	10004054 <stdio_buffered_printer+0x4c>
10004050:	429d      	cmp	r5, r3
10004052:	d1f3      	bne.n	1000403c <stdio_buffered_printer+0x34>
10004054:	7c6b      	ldrb	r3, [r5, #17]
10004056:	6822      	ldr	r2, [r4, #0]
10004058:	2b00      	cmp	r3, #0
1000405a:	d009      	beq.n	10004070 <stdio_buffered_printer+0x68>
1000405c:	0028      	movs	r0, r5
1000405e:	4649      	mov	r1, r9
10004060:	f7ff ff90 	bl	10003f84 <stdio_out_chars_crlf.part.0>
10004064:	68ed      	ldr	r5, [r5, #12]
10004066:	2d00      	cmp	r5, #0
10004068:	d1eb      	bne.n	10004042 <stdio_buffered_printer+0x3a>
1000406a:	2301      	movs	r3, #1
1000406c:	2100      	movs	r1, #0
1000406e:	e7d5      	b.n	1000401c <stdio_buffered_printer+0x14>
10004070:	0011      	movs	r1, r2
10004072:	4648      	mov	r0, r9
10004074:	47b0      	blx	r6
10004076:	e7e1      	b.n	1000403c <stdio_buffered_printer+0x34>
10004078:	20000af8 	.word	0x20000af8
1000407c:	20000afc 	.word	0x20000afc

10004080 <stdio_put_string>:
10004080:	b5f0      	push	{r4, r5, r6, r7, lr}
10004082:	4657      	mov	r7, sl
10004084:	4645      	mov	r5, r8
10004086:	46de      	mov	lr, fp
10004088:	464e      	mov	r6, r9
1000408a:	23d0      	movs	r3, #208	; 0xd0
1000408c:	b5e0      	push	{r5, r6, r7, lr}
1000408e:	061b      	lsls	r3, r3, #24
10004090:	681c      	ldr	r4, [r3, #0]
10004092:	4b37      	ldr	r3, [pc, #220]	; (10004170 <stdio_put_string+0xf0>)
10004094:	b083      	sub	sp, #12
10004096:	0007      	movs	r7, r0
10004098:	000d      	movs	r5, r1
1000409a:	0018      	movs	r0, r3
1000409c:	a901      	add	r1, sp, #4
1000409e:	4690      	mov	r8, r2
100040a0:	469a      	mov	sl, r3
100040a2:	f000 fe55 	bl	10004d50 <__mutex_try_enter_veneer>
100040a6:	4681      	mov	r9, r0
100040a8:	2800      	cmp	r0, #0
100040aa:	d107      	bne.n	100040bc <stdio_put_string+0x3c>
100040ac:	9b01      	ldr	r3, [sp, #4]
100040ae:	429c      	cmp	r4, r3
100040b0:	d004      	beq.n	100040bc <stdio_put_string+0x3c>
100040b2:	4650      	mov	r0, sl
100040b4:	f000 fe54 	bl	10004d60 <__mutex_enter_blocking_veneer>
100040b8:	2301      	movs	r3, #1
100040ba:	4699      	mov	r9, r3
100040bc:	1c6b      	adds	r3, r5, #1
100040be:	d103      	bne.n	100040c8 <stdio_put_string+0x48>
100040c0:	0038      	movs	r0, r7
100040c2:	f000 fcc7 	bl	10004a54 <strlen>
100040c6:	0005      	movs	r5, r0
100040c8:	4b2a      	ldr	r3, [pc, #168]	; (10004174 <stdio_put_string+0xf4>)
100040ca:	681c      	ldr	r4, [r3, #0]
100040cc:	2c00      	cmp	r4, #0
100040ce:	d02f      	beq.n	10004130 <stdio_put_string+0xb0>
100040d0:	230a      	movs	r3, #10
100040d2:	4e29      	ldr	r6, [pc, #164]	; (10004178 <stdio_put_string+0xf8>)
100040d4:	469b      	mov	fp, r3
100040d6:	e002      	b.n	100040de <stdio_put_string+0x5e>
100040d8:	68e4      	ldr	r4, [r4, #12]
100040da:	2c00      	cmp	r4, #0
100040dc:	d028      	beq.n	10004130 <stdio_put_string+0xb0>
100040de:	6822      	ldr	r2, [r4, #0]
100040e0:	2a00      	cmp	r2, #0
100040e2:	d0f9      	beq.n	100040d8 <stdio_put_string+0x58>
100040e4:	6833      	ldr	r3, [r6, #0]
100040e6:	2b00      	cmp	r3, #0
100040e8:	d001      	beq.n	100040ee <stdio_put_string+0x6e>
100040ea:	42a3      	cmp	r3, r4
100040ec:	d1f4      	bne.n	100040d8 <stdio_put_string+0x58>
100040ee:	7c63      	ldrb	r3, [r4, #17]
100040f0:	2b00      	cmp	r3, #0
100040f2:	d02a      	beq.n	1000414a <stdio_put_string+0xca>
100040f4:	002a      	movs	r2, r5
100040f6:	0039      	movs	r1, r7
100040f8:	0020      	movs	r0, r4
100040fa:	f7ff ff43 	bl	10003f84 <stdio_out_chars_crlf.part.0>
100040fe:	4643      	mov	r3, r8
10004100:	2b00      	cmp	r3, #0
10004102:	d0e9      	beq.n	100040d8 <stdio_put_string+0x58>
10004104:	466b      	mov	r3, sp
10004106:	465a      	mov	r2, fp
10004108:	711a      	strb	r2, [r3, #4]
1000410a:	7c63      	ldrb	r3, [r4, #17]
1000410c:	2b00      	cmp	r3, #0
1000410e:	d020      	beq.n	10004152 <stdio_put_string+0xd2>
10004110:	7c23      	ldrb	r3, [r4, #16]
10004112:	2b00      	cmp	r3, #0
10004114:	d026      	beq.n	10004164 <stdio_put_string+0xe4>
10004116:	2101      	movs	r1, #1
10004118:	6823      	ldr	r3, [r4, #0]
1000411a:	a801      	add	r0, sp, #4
1000411c:	4798      	blx	r3
1000411e:	466b      	mov	r3, sp
10004120:	791b      	ldrb	r3, [r3, #4]
10004122:	3b0d      	subs	r3, #13
10004124:	425a      	negs	r2, r3
10004126:	4153      	adcs	r3, r2
10004128:	7423      	strb	r3, [r4, #16]
1000412a:	68e4      	ldr	r4, [r4, #12]
1000412c:	2c00      	cmp	r4, #0
1000412e:	d1d6      	bne.n	100040de <stdio_put_string+0x5e>
10004130:	464b      	mov	r3, r9
10004132:	2b00      	cmp	r3, #0
10004134:	d112      	bne.n	1000415c <stdio_put_string+0xdc>
10004136:	1e68      	subs	r0, r5, #1
10004138:	4185      	sbcs	r5, r0
1000413a:	b2e8      	uxtb	r0, r5
1000413c:	b003      	add	sp, #12
1000413e:	bc3c      	pop	{r2, r3, r4, r5}
10004140:	4690      	mov	r8, r2
10004142:	4699      	mov	r9, r3
10004144:	46a2      	mov	sl, r4
10004146:	46ab      	mov	fp, r5
10004148:	bdf0      	pop	{r4, r5, r6, r7, pc}
1000414a:	0029      	movs	r1, r5
1000414c:	0038      	movs	r0, r7
1000414e:	4790      	blx	r2
10004150:	e7d5      	b.n	100040fe <stdio_put_string+0x7e>
10004152:	2101      	movs	r1, #1
10004154:	6823      	ldr	r3, [r4, #0]
10004156:	a801      	add	r0, sp, #4
10004158:	4798      	blx	r3
1000415a:	e7bd      	b.n	100040d8 <stdio_put_string+0x58>
1000415c:	4650      	mov	r0, sl
1000415e:	f000 fddf 	bl	10004d20 <__mutex_exit_veneer>
10004162:	e7e8      	b.n	10004136 <stdio_put_string+0xb6>
10004164:	2102      	movs	r1, #2
10004166:	4805      	ldr	r0, [pc, #20]	; (1000417c <stdio_put_string+0xfc>)
10004168:	6823      	ldr	r3, [r4, #0]
1000416a:	4798      	blx	r3
1000416c:	e7d7      	b.n	1000411e <stdio_put_string+0x9e>
1000416e:	46c0      	nop			; (mov r8, r8)
10004170:	20000a50 	.word	0x20000a50
10004174:	20000af8 	.word	0x20000af8
10004178:	20000afc 	.word	0x20000afc
1000417c:	100050b8 	.word	0x100050b8

10004180 <__wrap_putchar>:
10004180:	b510      	push	{r4, lr}
10004182:	b082      	sub	sp, #8
10004184:	466b      	mov	r3, sp
10004186:	0004      	movs	r4, r0
10004188:	2200      	movs	r2, #0
1000418a:	1dd8      	adds	r0, r3, #7
1000418c:	2101      	movs	r1, #1
1000418e:	7004      	strb	r4, [r0, #0]
10004190:	f7ff ff76 	bl	10004080 <stdio_put_string>
10004194:	0020      	movs	r0, r4
10004196:	b002      	add	sp, #8
10004198:	bd10      	pop	{r4, pc}
1000419a:	46c0      	nop			; (mov r8, r8)

1000419c <__wrap_puts>:
1000419c:	b570      	push	{r4, r5, r6, lr}
1000419e:	0004      	movs	r4, r0
100041a0:	f000 fc58 	bl	10004a54 <strlen>
100041a4:	2201      	movs	r2, #1
100041a6:	0001      	movs	r1, r0
100041a8:	0005      	movs	r5, r0
100041aa:	0020      	movs	r0, r4
100041ac:	f7ff ff68 	bl	10004080 <stdio_put_string>
100041b0:	4b08      	ldr	r3, [pc, #32]	; (100041d4 <__wrap_puts+0x38>)
100041b2:	681c      	ldr	r4, [r3, #0]
100041b4:	2c00      	cmp	r4, #0
100041b6:	d006      	beq.n	100041c6 <__wrap_puts+0x2a>
100041b8:	6863      	ldr	r3, [r4, #4]
100041ba:	2b00      	cmp	r3, #0
100041bc:	d005      	beq.n	100041ca <__wrap_puts+0x2e>
100041be:	4798      	blx	r3
100041c0:	68e4      	ldr	r4, [r4, #12]
100041c2:	2c00      	cmp	r4, #0
100041c4:	d1f8      	bne.n	100041b8 <__wrap_puts+0x1c>
100041c6:	0028      	movs	r0, r5
100041c8:	bd70      	pop	{r4, r5, r6, pc}
100041ca:	68e4      	ldr	r4, [r4, #12]
100041cc:	2c00      	cmp	r4, #0
100041ce:	d1f3      	bne.n	100041b8 <__wrap_puts+0x1c>
100041d0:	e7f9      	b.n	100041c6 <__wrap_puts+0x2a>
100041d2:	46c0      	nop			; (mov r8, r8)
100041d4:	20000af8 	.word	0x20000af8

100041d8 <stdio_set_driver_enabled>:
100041d8:	4a0d      	ldr	r2, [pc, #52]	; (10004210 <stdio_set_driver_enabled+0x38>)
100041da:	6813      	ldr	r3, [r2, #0]
100041dc:	2b00      	cmp	r3, #0
100041de:	d013      	beq.n	10004208 <stdio_set_driver_enabled+0x30>
100041e0:	4283      	cmp	r3, r0
100041e2:	d102      	bne.n	100041ea <stdio_set_driver_enabled+0x12>
100041e4:	e009      	b.n	100041fa <stdio_set_driver_enabled+0x22>
100041e6:	4298      	cmp	r0, r3
100041e8:	d008      	beq.n	100041fc <stdio_set_driver_enabled+0x24>
100041ea:	001a      	movs	r2, r3
100041ec:	68db      	ldr	r3, [r3, #12]
100041ee:	2b00      	cmp	r3, #0
100041f0:	d1f9      	bne.n	100041e6 <stdio_set_driver_enabled+0xe>
100041f2:	2900      	cmp	r1, #0
100041f4:	d000      	beq.n	100041f8 <stdio_set_driver_enabled+0x20>
100041f6:	60d0      	str	r0, [r2, #12]
100041f8:	4770      	bx	lr
100041fa:	001a      	movs	r2, r3
100041fc:	2900      	cmp	r1, #0
100041fe:	d1fb      	bne.n	100041f8 <stdio_set_driver_enabled+0x20>
10004200:	68db      	ldr	r3, [r3, #12]
10004202:	60d3      	str	r3, [r2, #12]
10004204:	60c1      	str	r1, [r0, #12]
10004206:	e7f7      	b.n	100041f8 <stdio_set_driver_enabled+0x20>
10004208:	2900      	cmp	r1, #0
1000420a:	d0f5      	beq.n	100041f8 <stdio_set_driver_enabled+0x20>
1000420c:	6010      	str	r0, [r2, #0]
1000420e:	e7f3      	b.n	100041f8 <stdio_set_driver_enabled+0x20>
10004210:	20000af8 	.word	0x20000af8

10004214 <__wrap_vprintf>:
10004214:	b5f0      	push	{r4, r5, r6, r7, lr}
10004216:	4646      	mov	r6, r8
10004218:	46d6      	mov	lr, sl
1000421a:	464f      	mov	r7, r9
1000421c:	23d0      	movs	r3, #208	; 0xd0
1000421e:	b5c0      	push	{r6, r7, lr}
10004220:	061b      	lsls	r3, r3, #24
10004222:	681f      	ldr	r7, [r3, #0]
10004224:	4b31      	ldr	r3, [pc, #196]	; (100042ec <__wrap_vprintf+0xd8>)
10004226:	b0a2      	sub	sp, #136	; 0x88
10004228:	0004      	movs	r4, r0
1000422a:	000d      	movs	r5, r1
1000422c:	0018      	movs	r0, r3
1000422e:	a901      	add	r1, sp, #4
10004230:	4698      	mov	r8, r3
10004232:	f000 fd8d 	bl	10004d50 <__mutex_try_enter_veneer>
10004236:	1e06      	subs	r6, r0, #0
10004238:	d106      	bne.n	10004248 <__wrap_vprintf+0x34>
1000423a:	9b01      	ldr	r3, [sp, #4]
1000423c:	429f      	cmp	r7, r3
1000423e:	d003      	beq.n	10004248 <__wrap_vprintf+0x34>
10004240:	4640      	mov	r0, r8
10004242:	f000 fd8d 	bl	10004d60 <__mutex_enter_blocking_veneer>
10004246:	3601      	adds	r6, #1
10004248:	2284      	movs	r2, #132	; 0x84
1000424a:	2100      	movs	r1, #0
1000424c:	a801      	add	r0, sp, #4
1000424e:	f7ff fe8d 	bl	10003f6c <__wrap_memset>
10004252:	002b      	movs	r3, r5
10004254:	0022      	movs	r2, r4
10004256:	4826      	ldr	r0, [pc, #152]	; (100042f0 <__wrap_vprintf+0xdc>)
10004258:	a901      	add	r1, sp, #4
1000425a:	f7fe ff31 	bl	100030c0 <vfctprintf>
1000425e:	9b01      	ldr	r3, [sp, #4]
10004260:	0007      	movs	r7, r0
10004262:	2b00      	cmp	r3, #0
10004264:	d115      	bne.n	10004292 <__wrap_vprintf+0x7e>
10004266:	4b23      	ldr	r3, [pc, #140]	; (100042f4 <__wrap_vprintf+0xe0>)
10004268:	681c      	ldr	r4, [r3, #0]
1000426a:	2c00      	cmp	r4, #0
1000426c:	d006      	beq.n	1000427c <__wrap_vprintf+0x68>
1000426e:	6863      	ldr	r3, [r4, #4]
10004270:	2b00      	cmp	r3, #0
10004272:	d00c      	beq.n	1000428e <__wrap_vprintf+0x7a>
10004274:	4798      	blx	r3
10004276:	68e4      	ldr	r4, [r4, #12]
10004278:	2c00      	cmp	r4, #0
1000427a:	d1f8      	bne.n	1000426e <__wrap_vprintf+0x5a>
1000427c:	2e00      	cmp	r6, #0
1000427e:	d12f      	bne.n	100042e0 <__wrap_vprintf+0xcc>
10004280:	0038      	movs	r0, r7
10004282:	b022      	add	sp, #136	; 0x88
10004284:	bc1c      	pop	{r2, r3, r4}
10004286:	4690      	mov	r8, r2
10004288:	4699      	mov	r9, r3
1000428a:	46a2      	mov	sl, r4
1000428c:	bdf0      	pop	{r4, r5, r6, r7, pc}
1000428e:	68e4      	ldr	r4, [r4, #12]
10004290:	e7eb      	b.n	1000426a <__wrap_vprintf+0x56>
10004292:	4b18      	ldr	r3, [pc, #96]	; (100042f4 <__wrap_vprintf+0xe0>)
10004294:	681d      	ldr	r5, [r3, #0]
10004296:	469a      	mov	sl, r3
10004298:	2d00      	cmp	r5, #0
1000429a:	d025      	beq.n	100042e8 <__wrap_vprintf+0xd4>
1000429c:	4b16      	ldr	r3, [pc, #88]	; (100042f8 <__wrap_vprintf+0xe4>)
1000429e:	4699      	mov	r9, r3
100042a0:	e002      	b.n	100042a8 <__wrap_vprintf+0x94>
100042a2:	68ed      	ldr	r5, [r5, #12]
100042a4:	2d00      	cmp	r5, #0
100042a6:	d013      	beq.n	100042d0 <__wrap_vprintf+0xbc>
100042a8:	682c      	ldr	r4, [r5, #0]
100042aa:	2c00      	cmp	r4, #0
100042ac:	d0f9      	beq.n	100042a2 <__wrap_vprintf+0x8e>
100042ae:	464b      	mov	r3, r9
100042b0:	681b      	ldr	r3, [r3, #0]
100042b2:	2b00      	cmp	r3, #0
100042b4:	d001      	beq.n	100042ba <__wrap_vprintf+0xa6>
100042b6:	429d      	cmp	r5, r3
100042b8:	d1f3      	bne.n	100042a2 <__wrap_vprintf+0x8e>
100042ba:	7c6b      	ldrb	r3, [r5, #17]
100042bc:	9a01      	ldr	r2, [sp, #4]
100042be:	2b00      	cmp	r3, #0
100042c0:	d00a      	beq.n	100042d8 <__wrap_vprintf+0xc4>
100042c2:	0028      	movs	r0, r5
100042c4:	a902      	add	r1, sp, #8
100042c6:	f7ff fe5d 	bl	10003f84 <stdio_out_chars_crlf.part.0>
100042ca:	68ed      	ldr	r5, [r5, #12]
100042cc:	2d00      	cmp	r5, #0
100042ce:	d1eb      	bne.n	100042a8 <__wrap_vprintf+0x94>
100042d0:	4653      	mov	r3, sl
100042d2:	9501      	str	r5, [sp, #4]
100042d4:	681c      	ldr	r4, [r3, #0]
100042d6:	e7c8      	b.n	1000426a <__wrap_vprintf+0x56>
100042d8:	0011      	movs	r1, r2
100042da:	a802      	add	r0, sp, #8
100042dc:	47a0      	blx	r4
100042de:	e7e0      	b.n	100042a2 <__wrap_vprintf+0x8e>
100042e0:	4640      	mov	r0, r8
100042e2:	f000 fd1d 	bl	10004d20 <__mutex_exit_veneer>
100042e6:	e7cb      	b.n	10004280 <__wrap_vprintf+0x6c>
100042e8:	9501      	str	r5, [sp, #4]
100042ea:	e7c7      	b.n	1000427c <__wrap_vprintf+0x68>
100042ec:	20000a50 	.word	0x20000a50
100042f0:	10004009 	.word	0x10004009
100042f4:	20000af8 	.word	0x20000af8
100042f8:	20000afc 	.word	0x20000afc

100042fc <__wrap_printf>:
100042fc:	b40f      	push	{r0, r1, r2, r3}
100042fe:	b500      	push	{lr}
10004300:	b083      	sub	sp, #12
10004302:	a904      	add	r1, sp, #16
10004304:	c901      	ldmia	r1!, {r0}
10004306:	9101      	str	r1, [sp, #4]
10004308:	f7ff ff84 	bl	10004214 <__wrap_vprintf>
1000430c:	b003      	add	sp, #12
1000430e:	bc08      	pop	{r3}
10004310:	b004      	add	sp, #16
10004312:	4718      	bx	r3

10004314 <stdio_init_all>:
10004314:	b510      	push	{r4, lr}
10004316:	f000 f83b 	bl	10004390 <stdio_uart_init>
1000431a:	bd10      	pop	{r4, pc}

1000431c <stdio_uart_out_chars>:
1000431c:	b5f0      	push	{r4, r5, r6, r7, lr}
1000431e:	2900      	cmp	r1, #0
10004320:	d010      	beq.n	10004344 <stdio_uart_out_chars+0x28>
10004322:	1845      	adds	r5, r0, r1
10004324:	270d      	movs	r7, #13
10004326:	2120      	movs	r1, #32
10004328:	4b09      	ldr	r3, [pc, #36]	; (10004350 <stdio_uart_out_chars+0x34>)
1000432a:	4a0a      	ldr	r2, [pc, #40]	; (10004354 <stdio_uart_out_chars+0x38>)
1000432c:	2600      	movs	r6, #0
1000432e:	5f9e      	ldrsh	r6, [r3, r6]
10004330:	7804      	ldrb	r4, [r0, #0]
10004332:	42a6      	cmp	r6, r4
10004334:	d007      	beq.n	10004346 <stdio_uart_out_chars+0x2a>
10004336:	6993      	ldr	r3, [r2, #24]
10004338:	4219      	tst	r1, r3
1000433a:	d1fc      	bne.n	10004336 <stdio_uart_out_chars+0x1a>
1000433c:	3001      	adds	r0, #1
1000433e:	6014      	str	r4, [r2, #0]
10004340:	42a8      	cmp	r0, r5
10004342:	d1f5      	bne.n	10004330 <stdio_uart_out_chars+0x14>
10004344:	bdf0      	pop	{r4, r5, r6, r7, pc}
10004346:	6993      	ldr	r3, [r2, #24]
10004348:	4219      	tst	r1, r3
1000434a:	d1fc      	bne.n	10004346 <stdio_uart_out_chars+0x2a>
1000434c:	6017      	str	r7, [r2, #0]
1000434e:	e7f2      	b.n	10004336 <stdio_uart_out_chars+0x1a>
10004350:	20000b2c 	.word	0x20000b2c
10004354:	40034000 	.word	0x40034000

10004358 <stdio_uart_in_chars>:
10004358:	b530      	push	{r4, r5, lr}
1000435a:	0005      	movs	r5, r0
1000435c:	2000      	movs	r0, #0
1000435e:	2900      	cmp	r1, #0
10004360:	dd10      	ble.n	10004384 <stdio_uart_in_chars+0x2c>
10004362:	2410      	movs	r4, #16
10004364:	4a09      	ldr	r2, [pc, #36]	; (1000438c <stdio_uart_in_chars+0x34>)
10004366:	3d01      	subs	r5, #1
10004368:	6993      	ldr	r3, [r2, #24]
1000436a:	421c      	tst	r4, r3
1000436c:	d108      	bne.n	10004380 <stdio_uart_in_chars+0x28>
1000436e:	3001      	adds	r0, #1
10004370:	6993      	ldr	r3, [r2, #24]
10004372:	421c      	tst	r4, r3
10004374:	d1fc      	bne.n	10004370 <stdio_uart_in_chars+0x18>
10004376:	6813      	ldr	r3, [r2, #0]
10004378:	542b      	strb	r3, [r5, r0]
1000437a:	4281      	cmp	r1, r0
1000437c:	d1f4      	bne.n	10004368 <stdio_uart_in_chars+0x10>
1000437e:	bd30      	pop	{r4, r5, pc}
10004380:	2800      	cmp	r0, #0
10004382:	d1fc      	bne.n	1000437e <stdio_uart_in_chars+0x26>
10004384:	2003      	movs	r0, #3
10004386:	4240      	negs	r0, r0
10004388:	e7f9      	b.n	1000437e <stdio_uart_in_chars+0x26>
1000438a:	46c0      	nop			; (mov r8, r8)
1000438c:	40034000 	.word	0x40034000

10004390 <stdio_uart_init>:
10004390:	21e1      	movs	r1, #225	; 0xe1
10004392:	b510      	push	{r4, lr}
10004394:	4b0a      	ldr	r3, [pc, #40]	; (100043c0 <stdio_uart_init+0x30>)
10004396:	0249      	lsls	r1, r1, #9
10004398:	781b      	ldrb	r3, [r3, #0]
1000439a:	4b0a      	ldr	r3, [pc, #40]	; (100043c4 <stdio_uart_init+0x34>)
1000439c:	480a      	ldr	r0, [pc, #40]	; (100043c8 <stdio_uart_init+0x38>)
1000439e:	781b      	ldrb	r3, [r3, #0]
100043a0:	f7fc f8ee 	bl	10000580 <uart_init>
100043a4:	2102      	movs	r1, #2
100043a6:	2000      	movs	r0, #0
100043a8:	f7fc f854 	bl	10000454 <gpio_set_function>
100043ac:	2102      	movs	r1, #2
100043ae:	2001      	movs	r0, #1
100043b0:	f7fc f850 	bl	10000454 <gpio_set_function>
100043b4:	2101      	movs	r1, #1
100043b6:	4805      	ldr	r0, [pc, #20]	; (100043cc <stdio_uart_init+0x3c>)
100043b8:	f7ff ff0e 	bl	100041d8 <stdio_set_driver_enabled>
100043bc:	bd10      	pop	{r4, pc}
100043be:	46c0      	nop			; (mov r8, r8)
100043c0:	10005118 	.word	0x10005118
100043c4:	1000511c 	.word	0x1000511c
100043c8:	40034000 	.word	0x40034000
100043cc:	20000200 	.word	0x20000200

100043d0 <adc_init>:
100043d0:	2301      	movs	r3, #1
100043d2:	2101      	movs	r1, #1
100043d4:	4a08      	ldr	r2, [pc, #32]	; (100043f8 <adc_init+0x28>)
100043d6:	6013      	str	r3, [r2, #0]
100043d8:	4a08      	ldr	r2, [pc, #32]	; (100043fc <adc_init+0x2c>)
100043da:	6013      	str	r3, [r2, #0]
100043dc:	4a08      	ldr	r2, [pc, #32]	; (10004400 <adc_init+0x30>)
100043de:	0008      	movs	r0, r1
100043e0:	6893      	ldr	r3, [r2, #8]
100043e2:	4398      	bics	r0, r3
100043e4:	d1fb      	bne.n	100043de <adc_init+0xe>
100043e6:	4a07      	ldr	r2, [pc, #28]	; (10004404 <adc_init+0x34>)
100043e8:	6011      	str	r1, [r2, #0]
100043ea:	2180      	movs	r1, #128	; 0x80
100043ec:	0049      	lsls	r1, r1, #1
100043ee:	6813      	ldr	r3, [r2, #0]
100043f0:	420b      	tst	r3, r1
100043f2:	d0fc      	beq.n	100043ee <adc_init+0x1e>
100043f4:	4770      	bx	lr
100043f6:	46c0      	nop			; (mov r8, r8)
100043f8:	4000e000 	.word	0x4000e000
100043fc:	4000f000 	.word	0x4000f000
10004400:	4000c000 	.word	0x4000c000
10004404:	4004c000 	.word	0x4004c000

10004408 <calloc>:
10004408:	0003      	movs	r3, r0
1000440a:	b510      	push	{r4, lr}
1000440c:	000a      	movs	r2, r1
1000440e:	4903      	ldr	r1, [pc, #12]	; (1000441c <calloc+0x14>)
10004410:	6808      	ldr	r0, [r1, #0]
10004412:	0019      	movs	r1, r3
10004414:	f000 f804 	bl	10004420 <_calloc_r>
10004418:	bd10      	pop	{r4, pc}
1000441a:	46c0      	nop			; (mov r8, r8)
1000441c:	20000214 	.word	0x20000214

10004420 <_calloc_r>:
10004420:	b510      	push	{r4, lr}
10004422:	4351      	muls	r1, r2
10004424:	f000 f834 	bl	10004490 <_malloc_r>
10004428:	1e04      	subs	r4, r0, #0
1000442a:	d00e      	beq.n	1000444a <_calloc_r+0x2a>
1000442c:	0003      	movs	r3, r0
1000442e:	3b08      	subs	r3, #8
10004430:	685a      	ldr	r2, [r3, #4]
10004432:	2303      	movs	r3, #3
10004434:	439a      	bics	r2, r3
10004436:	3a04      	subs	r2, #4
10004438:	2a24      	cmp	r2, #36	; 0x24
1000443a:	d815      	bhi.n	10004468 <_calloc_r+0x48>
1000443c:	0003      	movs	r3, r0
1000443e:	2a13      	cmp	r2, #19
10004440:	d805      	bhi.n	1000444e <_calloc_r+0x2e>
10004442:	2200      	movs	r2, #0
10004444:	601a      	str	r2, [r3, #0]
10004446:	605a      	str	r2, [r3, #4]
10004448:	609a      	str	r2, [r3, #8]
1000444a:	0020      	movs	r0, r4
1000444c:	bd10      	pop	{r4, pc}
1000444e:	2100      	movs	r1, #0
10004450:	3308      	adds	r3, #8
10004452:	6001      	str	r1, [r0, #0]
10004454:	6041      	str	r1, [r0, #4]
10004456:	2a1b      	cmp	r2, #27
10004458:	d9f3      	bls.n	10004442 <_calloc_r+0x22>
1000445a:	6081      	str	r1, [r0, #8]
1000445c:	60c1      	str	r1, [r0, #12]
1000445e:	2a24      	cmp	r2, #36	; 0x24
10004460:	d006      	beq.n	10004470 <_calloc_r+0x50>
10004462:	0003      	movs	r3, r0
10004464:	3310      	adds	r3, #16
10004466:	e7ec      	b.n	10004442 <_calloc_r+0x22>
10004468:	2100      	movs	r1, #0
1000446a:	f7ff fd7f 	bl	10003f6c <__wrap_memset>
1000446e:	e7ec      	b.n	1000444a <_calloc_r+0x2a>
10004470:	0003      	movs	r3, r0
10004472:	6101      	str	r1, [r0, #16]
10004474:	3318      	adds	r3, #24
10004476:	6141      	str	r1, [r0, #20]
10004478:	e7e3      	b.n	10004442 <_calloc_r+0x22>
1000447a:	46c0      	nop			; (mov r8, r8)

1000447c <malloc>:
1000447c:	b510      	push	{r4, lr}
1000447e:	4b03      	ldr	r3, [pc, #12]	; (1000448c <malloc+0x10>)
10004480:	0001      	movs	r1, r0
10004482:	6818      	ldr	r0, [r3, #0]
10004484:	f000 f804 	bl	10004490 <_malloc_r>
10004488:	bd10      	pop	{r4, pc}
1000448a:	46c0      	nop			; (mov r8, r8)
1000448c:	20000214 	.word	0x20000214

10004490 <_malloc_r>:
10004490:	b5f0      	push	{r4, r5, r6, r7, lr}
10004492:	464e      	mov	r6, r9
10004494:	4645      	mov	r5, r8
10004496:	46de      	mov	lr, fp
10004498:	4657      	mov	r7, sl
1000449a:	b5e0      	push	{r5, r6, r7, lr}
1000449c:	000d      	movs	r5, r1
1000449e:	350b      	adds	r5, #11
100044a0:	0006      	movs	r6, r0
100044a2:	b083      	sub	sp, #12
100044a4:	2d16      	cmp	r5, #22
100044a6:	d822      	bhi.n	100044ee <_malloc_r+0x5e>
100044a8:	2910      	cmp	r1, #16
100044aa:	d900      	bls.n	100044ae <_malloc_r+0x1e>
100044ac:	e0b2      	b.n	10004614 <_malloc_r+0x184>
100044ae:	f000 faaf 	bl	10004a10 <__malloc_lock>
100044b2:	2510      	movs	r5, #16
100044b4:	2002      	movs	r0, #2
100044b6:	2318      	movs	r3, #24
100044b8:	4fcb      	ldr	r7, [pc, #812]	; (100047e8 <_malloc_r+0x358>)
100044ba:	18fb      	adds	r3, r7, r3
100044bc:	001a      	movs	r2, r3
100044be:	685c      	ldr	r4, [r3, #4]
100044c0:	3a08      	subs	r2, #8
100044c2:	4294      	cmp	r4, r2
100044c4:	d100      	bne.n	100044c8 <_malloc_r+0x38>
100044c6:	e0b5      	b.n	10004634 <_malloc_r+0x1a4>
100044c8:	2303      	movs	r3, #3
100044ca:	6862      	ldr	r2, [r4, #4]
100044cc:	439a      	bics	r2, r3
100044ce:	0013      	movs	r3, r2
100044d0:	68e2      	ldr	r2, [r4, #12]
100044d2:	68a1      	ldr	r1, [r4, #8]
100044d4:	60ca      	str	r2, [r1, #12]
100044d6:	6091      	str	r1, [r2, #8]
100044d8:	2201      	movs	r2, #1
100044da:	18e3      	adds	r3, r4, r3
100044dc:	6859      	ldr	r1, [r3, #4]
100044de:	0030      	movs	r0, r6
100044e0:	430a      	orrs	r2, r1
100044e2:	605a      	str	r2, [r3, #4]
100044e4:	f000 fa9c 	bl	10004a20 <__malloc_unlock>
100044e8:	0020      	movs	r0, r4
100044ea:	3008      	adds	r0, #8
100044ec:	e095      	b.n	1000461a <_malloc_r+0x18a>
100044ee:	2307      	movs	r3, #7
100044f0:	439d      	bics	r5, r3
100044f2:	d500      	bpl.n	100044f6 <_malloc_r+0x66>
100044f4:	e08e      	b.n	10004614 <_malloc_r+0x184>
100044f6:	42a9      	cmp	r1, r5
100044f8:	d900      	bls.n	100044fc <_malloc_r+0x6c>
100044fa:	e08b      	b.n	10004614 <_malloc_r+0x184>
100044fc:	f000 fa88 	bl	10004a10 <__malloc_lock>
10004500:	23fc      	movs	r3, #252	; 0xfc
10004502:	005b      	lsls	r3, r3, #1
10004504:	429d      	cmp	r5, r3
10004506:	d200      	bcs.n	1000450a <_malloc_r+0x7a>
10004508:	e1a5      	b.n	10004856 <_malloc_r+0x3c6>
1000450a:	0a68      	lsrs	r0, r5, #9
1000450c:	d100      	bne.n	10004510 <_malloc_r+0x80>
1000450e:	e08b      	b.n	10004628 <_malloc_r+0x198>
10004510:	2804      	cmp	r0, #4
10004512:	d900      	bls.n	10004516 <_malloc_r+0x86>
10004514:	e178      	b.n	10004808 <_malloc_r+0x378>
10004516:	2338      	movs	r3, #56	; 0x38
10004518:	4698      	mov	r8, r3
1000451a:	09a8      	lsrs	r0, r5, #6
1000451c:	4480      	add	r8, r0
1000451e:	3039      	adds	r0, #57	; 0x39
10004520:	00c1      	lsls	r1, r0, #3
10004522:	4fb1      	ldr	r7, [pc, #708]	; (100047e8 <_malloc_r+0x358>)
10004524:	1879      	adds	r1, r7, r1
10004526:	684c      	ldr	r4, [r1, #4]
10004528:	3908      	subs	r1, #8
1000452a:	42a1      	cmp	r1, r4
1000452c:	d00e      	beq.n	1000454c <_malloc_r+0xbc>
1000452e:	2303      	movs	r3, #3
10004530:	469c      	mov	ip, r3
10004532:	e004      	b.n	1000453e <_malloc_r+0xae>
10004534:	2a00      	cmp	r2, #0
10004536:	dacb      	bge.n	100044d0 <_malloc_r+0x40>
10004538:	68e4      	ldr	r4, [r4, #12]
1000453a:	42a1      	cmp	r1, r4
1000453c:	d006      	beq.n	1000454c <_malloc_r+0xbc>
1000453e:	4662      	mov	r2, ip
10004540:	6863      	ldr	r3, [r4, #4]
10004542:	4393      	bics	r3, r2
10004544:	1b5a      	subs	r2, r3, r5
10004546:	2a0f      	cmp	r2, #15
10004548:	ddf4      	ble.n	10004534 <_malloc_r+0xa4>
1000454a:	4640      	mov	r0, r8
1000454c:	003a      	movs	r2, r7
1000454e:	693c      	ldr	r4, [r7, #16]
10004550:	3208      	adds	r2, #8
10004552:	4294      	cmp	r4, r2
10004554:	d100      	bne.n	10004558 <_malloc_r+0xc8>
10004556:	e078      	b.n	1000464a <_malloc_r+0x1ba>
10004558:	2303      	movs	r3, #3
1000455a:	6861      	ldr	r1, [r4, #4]
1000455c:	4399      	bics	r1, r3
1000455e:	4689      	mov	r9, r1
10004560:	000b      	movs	r3, r1
10004562:	1b49      	subs	r1, r1, r5
10004564:	290f      	cmp	r1, #15
10004566:	dd00      	ble.n	1000456a <_malloc_r+0xda>
10004568:	e179      	b.n	1000485e <_malloc_r+0x3ce>
1000456a:	617a      	str	r2, [r7, #20]
1000456c:	613a      	str	r2, [r7, #16]
1000456e:	2900      	cmp	r1, #0
10004570:	dab2      	bge.n	100044d8 <_malloc_r+0x48>
10004572:	2280      	movs	r2, #128	; 0x80
10004574:	0092      	lsls	r2, r2, #2
10004576:	4591      	cmp	r9, r2
10004578:	d300      	bcc.n	1000457c <_malloc_r+0xec>
1000457a:	e10e      	b.n	1000479a <_malloc_r+0x30a>
1000457c:	0959      	lsrs	r1, r3, #5
1000457e:	08da      	lsrs	r2, r3, #3
10004580:	2301      	movs	r3, #1
10004582:	408b      	lsls	r3, r1
10004584:	00d2      	lsls	r2, r2, #3
10004586:	6879      	ldr	r1, [r7, #4]
10004588:	19d2      	adds	r2, r2, r7
1000458a:	430b      	orrs	r3, r1
1000458c:	6891      	ldr	r1, [r2, #8]
1000458e:	607b      	str	r3, [r7, #4]
10004590:	60e2      	str	r2, [r4, #12]
10004592:	60a1      	str	r1, [r4, #8]
10004594:	6094      	str	r4, [r2, #8]
10004596:	60cc      	str	r4, [r1, #12]
10004598:	2101      	movs	r1, #1
1000459a:	1082      	asrs	r2, r0, #2
1000459c:	4091      	lsls	r1, r2
1000459e:	4299      	cmp	r1, r3
100045a0:	d859      	bhi.n	10004656 <_malloc_r+0x1c6>
100045a2:	420b      	tst	r3, r1
100045a4:	d105      	bne.n	100045b2 <_malloc_r+0x122>
100045a6:	2203      	movs	r2, #3
100045a8:	4390      	bics	r0, r2
100045aa:	0049      	lsls	r1, r1, #1
100045ac:	3004      	adds	r0, #4
100045ae:	420b      	tst	r3, r1
100045b0:	d0fb      	beq.n	100045aa <_malloc_r+0x11a>
100045b2:	2303      	movs	r3, #3
100045b4:	4698      	mov	r8, r3
100045b6:	00c3      	lsls	r3, r0, #3
100045b8:	4699      	mov	r9, r3
100045ba:	44b9      	add	r9, r7
100045bc:	46cc      	mov	ip, r9
100045be:	4682      	mov	sl, r0
100045c0:	4663      	mov	r3, ip
100045c2:	68dc      	ldr	r4, [r3, #12]
100045c4:	45a4      	cmp	ip, r4
100045c6:	d107      	bne.n	100045d8 <_malloc_r+0x148>
100045c8:	e12a      	b.n	10004820 <_malloc_r+0x390>
100045ca:	2a00      	cmp	r2, #0
100045cc:	db00      	blt.n	100045d0 <_malloc_r+0x140>
100045ce:	e133      	b.n	10004838 <_malloc_r+0x3a8>
100045d0:	68e4      	ldr	r4, [r4, #12]
100045d2:	45a4      	cmp	ip, r4
100045d4:	d100      	bne.n	100045d8 <_malloc_r+0x148>
100045d6:	e123      	b.n	10004820 <_malloc_r+0x390>
100045d8:	4642      	mov	r2, r8
100045da:	6863      	ldr	r3, [r4, #4]
100045dc:	4393      	bics	r3, r2
100045de:	1b5a      	subs	r2, r3, r5
100045e0:	2a0f      	cmp	r2, #15
100045e2:	ddf2      	ble.n	100045ca <_malloc_r+0x13a>
100045e4:	2001      	movs	r0, #1
100045e6:	4680      	mov	r8, r0
100045e8:	1961      	adds	r1, r4, r5
100045ea:	4305      	orrs	r5, r0
100045ec:	6065      	str	r5, [r4, #4]
100045ee:	68a0      	ldr	r0, [r4, #8]
100045f0:	68e5      	ldr	r5, [r4, #12]
100045f2:	3708      	adds	r7, #8
100045f4:	60c5      	str	r5, [r0, #12]
100045f6:	60a8      	str	r0, [r5, #8]
100045f8:	4640      	mov	r0, r8
100045fa:	4310      	orrs	r0, r2
100045fc:	60f9      	str	r1, [r7, #12]
100045fe:	60b9      	str	r1, [r7, #8]
10004600:	6048      	str	r0, [r1, #4]
10004602:	60cf      	str	r7, [r1, #12]
10004604:	0030      	movs	r0, r6
10004606:	608f      	str	r7, [r1, #8]
10004608:	50e2      	str	r2, [r4, r3]
1000460a:	f000 fa09 	bl	10004a20 <__malloc_unlock>
1000460e:	0020      	movs	r0, r4
10004610:	3008      	adds	r0, #8
10004612:	e002      	b.n	1000461a <_malloc_r+0x18a>
10004614:	230c      	movs	r3, #12
10004616:	2000      	movs	r0, #0
10004618:	6033      	str	r3, [r6, #0]
1000461a:	b003      	add	sp, #12
1000461c:	bc3c      	pop	{r2, r3, r4, r5}
1000461e:	4690      	mov	r8, r2
10004620:	4699      	mov	r9, r3
10004622:	46a2      	mov	sl, r4
10004624:	46ab      	mov	fp, r5
10004626:	bdf0      	pop	{r4, r5, r6, r7, pc}
10004628:	2180      	movs	r1, #128	; 0x80
1000462a:	233f      	movs	r3, #63	; 0x3f
1000462c:	2040      	movs	r0, #64	; 0x40
1000462e:	4698      	mov	r8, r3
10004630:	0089      	lsls	r1, r1, #2
10004632:	e776      	b.n	10004522 <_malloc_r+0x92>
10004634:	68dc      	ldr	r4, [r3, #12]
10004636:	3002      	adds	r0, #2
10004638:	42a3      	cmp	r3, r4
1000463a:	d000      	beq.n	1000463e <_malloc_r+0x1ae>
1000463c:	e744      	b.n	100044c8 <_malloc_r+0x38>
1000463e:	003a      	movs	r2, r7
10004640:	693c      	ldr	r4, [r7, #16]
10004642:	3208      	adds	r2, #8
10004644:	4294      	cmp	r4, r2
10004646:	d000      	beq.n	1000464a <_malloc_r+0x1ba>
10004648:	e786      	b.n	10004558 <_malloc_r+0xc8>
1000464a:	2101      	movs	r1, #1
1000464c:	687b      	ldr	r3, [r7, #4]
1000464e:	1082      	asrs	r2, r0, #2
10004650:	4091      	lsls	r1, r2
10004652:	4299      	cmp	r1, r3
10004654:	d9a5      	bls.n	100045a2 <_malloc_r+0x112>
10004656:	2303      	movs	r3, #3
10004658:	68bc      	ldr	r4, [r7, #8]
1000465a:	6862      	ldr	r2, [r4, #4]
1000465c:	439a      	bics	r2, r3
1000465e:	4691      	mov	r9, r2
10004660:	4295      	cmp	r5, r2
10004662:	d803      	bhi.n	1000466c <_malloc_r+0x1dc>
10004664:	1b53      	subs	r3, r2, r5
10004666:	2b0f      	cmp	r3, #15
10004668:	dd00      	ble.n	1000466c <_malloc_r+0x1dc>
1000466a:	e088      	b.n	1000477e <_malloc_r+0x2ee>
1000466c:	0023      	movs	r3, r4
1000466e:	444b      	add	r3, r9
10004670:	4a5e      	ldr	r2, [pc, #376]	; (100047ec <_malloc_r+0x35c>)
10004672:	9301      	str	r3, [sp, #4]
10004674:	4b5e      	ldr	r3, [pc, #376]	; (100047f0 <_malloc_r+0x360>)
10004676:	4693      	mov	fp, r2
10004678:	681b      	ldr	r3, [r3, #0]
1000467a:	6812      	ldr	r2, [r2, #0]
1000467c:	18eb      	adds	r3, r5, r3
1000467e:	3201      	adds	r2, #1
10004680:	d100      	bne.n	10004684 <_malloc_r+0x1f4>
10004682:	e13b      	b.n	100048fc <_malloc_r+0x46c>
10004684:	4a5b      	ldr	r2, [pc, #364]	; (100047f4 <_malloc_r+0x364>)
10004686:	4694      	mov	ip, r2
10004688:	4463      	add	r3, ip
1000468a:	0b1b      	lsrs	r3, r3, #12
1000468c:	031b      	lsls	r3, r3, #12
1000468e:	9300      	str	r3, [sp, #0]
10004690:	0030      	movs	r0, r6
10004692:	9900      	ldr	r1, [sp, #0]
10004694:	f000 f9cc 	bl	10004a30 <_sbrk_r>
10004698:	0003      	movs	r3, r0
1000469a:	4680      	mov	r8, r0
1000469c:	3301      	adds	r3, #1
1000469e:	d100      	bne.n	100046a2 <_malloc_r+0x212>
100046a0:	e0f8      	b.n	10004894 <_malloc_r+0x404>
100046a2:	9b01      	ldr	r3, [sp, #4]
100046a4:	4283      	cmp	r3, r0
100046a6:	d900      	bls.n	100046aa <_malloc_r+0x21a>
100046a8:	e0f2      	b.n	10004890 <_malloc_r+0x400>
100046aa:	4b53      	ldr	r3, [pc, #332]	; (100047f8 <_malloc_r+0x368>)
100046ac:	0019      	movs	r1, r3
100046ae:	469a      	mov	sl, r3
100046b0:	6809      	ldr	r1, [r1, #0]
100046b2:	9b00      	ldr	r3, [sp, #0]
100046b4:	468c      	mov	ip, r1
100046b6:	4651      	mov	r1, sl
100046b8:	4463      	add	r3, ip
100046ba:	600b      	str	r3, [r1, #0]
100046bc:	9901      	ldr	r1, [sp, #4]
100046be:	001a      	movs	r2, r3
100046c0:	4281      	cmp	r1, r0
100046c2:	d100      	bne.n	100046c6 <_malloc_r+0x236>
100046c4:	e150      	b.n	10004968 <_malloc_r+0x4d8>
100046c6:	465b      	mov	r3, fp
100046c8:	681b      	ldr	r3, [r3, #0]
100046ca:	3301      	adds	r3, #1
100046cc:	d100      	bne.n	100046d0 <_malloc_r+0x240>
100046ce:	e155      	b.n	1000497c <_malloc_r+0x4ec>
100046d0:	4643      	mov	r3, r8
100046d2:	9901      	ldr	r1, [sp, #4]
100046d4:	1a5b      	subs	r3, r3, r1
100046d6:	189a      	adds	r2, r3, r2
100046d8:	4653      	mov	r3, sl
100046da:	601a      	str	r2, [r3, #0]
100046dc:	2307      	movs	r3, #7
100046de:	4642      	mov	r2, r8
100046e0:	4641      	mov	r1, r8
100046e2:	401a      	ands	r2, r3
100046e4:	9201      	str	r2, [sp, #4]
100046e6:	4219      	tst	r1, r3
100046e8:	d100      	bne.n	100046ec <_malloc_r+0x25c>
100046ea:	e111      	b.n	10004910 <_malloc_r+0x480>
100046ec:	2308      	movs	r3, #8
100046ee:	4698      	mov	r8, r3
100046f0:	1a88      	subs	r0, r1, r2
100046f2:	4b42      	ldr	r3, [pc, #264]	; (100047fc <_malloc_r+0x36c>)
100046f4:	9900      	ldr	r1, [sp, #0]
100046f6:	4480      	add	r8, r0
100046f8:	4441      	add	r1, r8
100046fa:	1a9b      	subs	r3, r3, r2
100046fc:	1a5b      	subs	r3, r3, r1
100046fe:	051b      	lsls	r3, r3, #20
10004700:	0d1b      	lsrs	r3, r3, #20
10004702:	9100      	str	r1, [sp, #0]
10004704:	0030      	movs	r0, r6
10004706:	0019      	movs	r1, r3
10004708:	469b      	mov	fp, r3
1000470a:	f000 f991 	bl	10004a30 <_sbrk_r>
1000470e:	1c43      	adds	r3, r0, #1
10004710:	d100      	bne.n	10004714 <_malloc_r+0x284>
10004712:	e14f      	b.n	100049b4 <_malloc_r+0x524>
10004714:	4643      	mov	r3, r8
10004716:	1ac0      	subs	r0, r0, r3
10004718:	0003      	movs	r3, r0
1000471a:	445b      	add	r3, fp
1000471c:	9300      	str	r3, [sp, #0]
1000471e:	4653      	mov	r3, sl
10004720:	4652      	mov	r2, sl
10004722:	681b      	ldr	r3, [r3, #0]
10004724:	2101      	movs	r1, #1
10004726:	445b      	add	r3, fp
10004728:	6013      	str	r3, [r2, #0]
1000472a:	4642      	mov	r2, r8
1000472c:	4640      	mov	r0, r8
1000472e:	60ba      	str	r2, [r7, #8]
10004730:	9a00      	ldr	r2, [sp, #0]
10004732:	430a      	orrs	r2, r1
10004734:	6042      	str	r2, [r0, #4]
10004736:	42bc      	cmp	r4, r7
10004738:	d100      	bne.n	1000473c <_malloc_r+0x2ac>
1000473a:	e123      	b.n	10004984 <_malloc_r+0x4f4>
1000473c:	464a      	mov	r2, r9
1000473e:	2a0f      	cmp	r2, #15
10004740:	d800      	bhi.n	10004744 <_malloc_r+0x2b4>
10004742:	e121      	b.n	10004988 <_malloc_r+0x4f8>
10004744:	2007      	movs	r0, #7
10004746:	3a0c      	subs	r2, #12
10004748:	4382      	bics	r2, r0
1000474a:	6860      	ldr	r0, [r4, #4]
1000474c:	4001      	ands	r1, r0
1000474e:	2005      	movs	r0, #5
10004750:	4311      	orrs	r1, r2
10004752:	6061      	str	r1, [r4, #4]
10004754:	18a1      	adds	r1, r4, r2
10004756:	6048      	str	r0, [r1, #4]
10004758:	6088      	str	r0, [r1, #8]
1000475a:	2a0f      	cmp	r2, #15
1000475c:	d900      	bls.n	10004760 <_malloc_r+0x2d0>
1000475e:	e134      	b.n	100049ca <_malloc_r+0x53a>
10004760:	4642      	mov	r2, r8
10004762:	4644      	mov	r4, r8
10004764:	6852      	ldr	r2, [r2, #4]
10004766:	4926      	ldr	r1, [pc, #152]	; (10004800 <_malloc_r+0x370>)
10004768:	6808      	ldr	r0, [r1, #0]
1000476a:	4298      	cmp	r0, r3
1000476c:	d200      	bcs.n	10004770 <_malloc_r+0x2e0>
1000476e:	600b      	str	r3, [r1, #0]
10004770:	4924      	ldr	r1, [pc, #144]	; (10004804 <_malloc_r+0x374>)
10004772:	6808      	ldr	r0, [r1, #0]
10004774:	4298      	cmp	r0, r3
10004776:	d300      	bcc.n	1000477a <_malloc_r+0x2ea>
10004778:	e08e      	b.n	10004898 <_malloc_r+0x408>
1000477a:	600b      	str	r3, [r1, #0]
1000477c:	e08c      	b.n	10004898 <_malloc_r+0x408>
1000477e:	2201      	movs	r2, #1
10004780:	0029      	movs	r1, r5
10004782:	4313      	orrs	r3, r2
10004784:	4311      	orrs	r1, r2
10004786:	1965      	adds	r5, r4, r5
10004788:	6061      	str	r1, [r4, #4]
1000478a:	0030      	movs	r0, r6
1000478c:	60bd      	str	r5, [r7, #8]
1000478e:	606b      	str	r3, [r5, #4]
10004790:	f000 f946 	bl	10004a20 <__malloc_unlock>
10004794:	0020      	movs	r0, r4
10004796:	3008      	adds	r0, #8
10004798:	e73f      	b.n	1000461a <_malloc_r+0x18a>
1000479a:	0a5a      	lsrs	r2, r3, #9
1000479c:	2a04      	cmp	r2, #4
1000479e:	d971      	bls.n	10004884 <_malloc_r+0x3f4>
100047a0:	2a14      	cmp	r2, #20
100047a2:	d900      	bls.n	100047a6 <_malloc_r+0x316>
100047a4:	e0c4      	b.n	10004930 <_malloc_r+0x4a0>
100047a6:	0011      	movs	r1, r2
100047a8:	325c      	adds	r2, #92	; 0x5c
100047aa:	315b      	adds	r1, #91	; 0x5b
100047ac:	00d2      	lsls	r2, r2, #3
100047ae:	2308      	movs	r3, #8
100047b0:	425b      	negs	r3, r3
100047b2:	469c      	mov	ip, r3
100047b4:	18ba      	adds	r2, r7, r2
100047b6:	4494      	add	ip, r2
100047b8:	4663      	mov	r3, ip
100047ba:	689a      	ldr	r2, [r3, #8]
100047bc:	2303      	movs	r3, #3
100047be:	4698      	mov	r8, r3
100047c0:	4594      	cmp	ip, r2
100047c2:	d100      	bne.n	100047c6 <_malloc_r+0x336>
100047c4:	e09d      	b.n	10004902 <_malloc_r+0x472>
100047c6:	4643      	mov	r3, r8
100047c8:	6851      	ldr	r1, [r2, #4]
100047ca:	4399      	bics	r1, r3
100047cc:	4549      	cmp	r1, r9
100047ce:	d902      	bls.n	100047d6 <_malloc_r+0x346>
100047d0:	6892      	ldr	r2, [r2, #8]
100047d2:	4594      	cmp	ip, r2
100047d4:	d1f7      	bne.n	100047c6 <_malloc_r+0x336>
100047d6:	68d3      	ldr	r3, [r2, #12]
100047d8:	469c      	mov	ip, r3
100047da:	687b      	ldr	r3, [r7, #4]
100047dc:	4661      	mov	r1, ip
100047de:	60a2      	str	r2, [r4, #8]
100047e0:	60e1      	str	r1, [r4, #12]
100047e2:	608c      	str	r4, [r1, #8]
100047e4:	60d4      	str	r4, [r2, #12]
100047e6:	e6d7      	b.n	10004598 <_malloc_r+0x108>
100047e8:	20000640 	.word	0x20000640
100047ec:	20000a48 	.word	0x20000a48
100047f0:	20000ab8 	.word	0x20000ab8
100047f4:	0000100f 	.word	0x0000100f
100047f8:	20000a88 	.word	0x20000a88
100047fc:	00001008 	.word	0x00001008
10004800:	20000ab0 	.word	0x20000ab0
10004804:	20000ab4 	.word	0x20000ab4
10004808:	2814      	cmp	r0, #20
1000480a:	d952      	bls.n	100048b2 <_malloc_r+0x422>
1000480c:	2854      	cmp	r0, #84	; 0x54
1000480e:	d900      	bls.n	10004812 <_malloc_r+0x382>
10004810:	e096      	b.n	10004940 <_malloc_r+0x4b0>
10004812:	236e      	movs	r3, #110	; 0x6e
10004814:	4698      	mov	r8, r3
10004816:	0b28      	lsrs	r0, r5, #12
10004818:	4480      	add	r8, r0
1000481a:	306f      	adds	r0, #111	; 0x6f
1000481c:	00c1      	lsls	r1, r0, #3
1000481e:	e680      	b.n	10004522 <_malloc_r+0x92>
10004820:	2308      	movs	r3, #8
10004822:	469b      	mov	fp, r3
10004824:	3b07      	subs	r3, #7
10004826:	44dc      	add	ip, fp
10004828:	469b      	mov	fp, r3
1000482a:	44da      	add	sl, fp
1000482c:	4643      	mov	r3, r8
1000482e:	4652      	mov	r2, sl
10004830:	4213      	tst	r3, r2
10004832:	d000      	beq.n	10004836 <_malloc_r+0x3a6>
10004834:	e6c4      	b.n	100045c0 <_malloc_r+0x130>
10004836:	e04c      	b.n	100048d2 <_malloc_r+0x442>
10004838:	2201      	movs	r2, #1
1000483a:	18e3      	adds	r3, r4, r3
1000483c:	6859      	ldr	r1, [r3, #4]
1000483e:	0030      	movs	r0, r6
10004840:	430a      	orrs	r2, r1
10004842:	605a      	str	r2, [r3, #4]
10004844:	68e3      	ldr	r3, [r4, #12]
10004846:	68a2      	ldr	r2, [r4, #8]
10004848:	60d3      	str	r3, [r2, #12]
1000484a:	609a      	str	r2, [r3, #8]
1000484c:	f000 f8e8 	bl	10004a20 <__malloc_unlock>
10004850:	0020      	movs	r0, r4
10004852:	3008      	adds	r0, #8
10004854:	e6e1      	b.n	1000461a <_malloc_r+0x18a>
10004856:	002b      	movs	r3, r5
10004858:	08e8      	lsrs	r0, r5, #3
1000485a:	3308      	adds	r3, #8
1000485c:	e62c      	b.n	100044b8 <_malloc_r+0x28>
1000485e:	2301      	movs	r3, #1
10004860:	1960      	adds	r0, r4, r5
10004862:	431d      	orrs	r5, r3
10004864:	6065      	str	r5, [r4, #4]
10004866:	6178      	str	r0, [r7, #20]
10004868:	6138      	str	r0, [r7, #16]
1000486a:	60c2      	str	r2, [r0, #12]
1000486c:	6082      	str	r2, [r0, #8]
1000486e:	001a      	movs	r2, r3
10004870:	464b      	mov	r3, r9
10004872:	430a      	orrs	r2, r1
10004874:	6042      	str	r2, [r0, #4]
10004876:	0030      	movs	r0, r6
10004878:	50e1      	str	r1, [r4, r3]
1000487a:	f000 f8d1 	bl	10004a20 <__malloc_unlock>
1000487e:	0020      	movs	r0, r4
10004880:	3008      	adds	r0, #8
10004882:	e6ca      	b.n	1000461a <_malloc_r+0x18a>
10004884:	099a      	lsrs	r2, r3, #6
10004886:	0011      	movs	r1, r2
10004888:	3239      	adds	r2, #57	; 0x39
1000488a:	3138      	adds	r1, #56	; 0x38
1000488c:	00d2      	lsls	r2, r2, #3
1000488e:	e78e      	b.n	100047ae <_malloc_r+0x31e>
10004890:	42bc      	cmp	r4, r7
10004892:	d060      	beq.n	10004956 <_malloc_r+0x4c6>
10004894:	68bc      	ldr	r4, [r7, #8]
10004896:	6862      	ldr	r2, [r4, #4]
10004898:	2303      	movs	r3, #3
1000489a:	439a      	bics	r2, r3
1000489c:	1b53      	subs	r3, r2, r5
1000489e:	4295      	cmp	r5, r2
100048a0:	d802      	bhi.n	100048a8 <_malloc_r+0x418>
100048a2:	2b0f      	cmp	r3, #15
100048a4:	dd00      	ble.n	100048a8 <_malloc_r+0x418>
100048a6:	e76a      	b.n	1000477e <_malloc_r+0x2ee>
100048a8:	0030      	movs	r0, r6
100048aa:	f000 f8b9 	bl	10004a20 <__malloc_unlock>
100048ae:	2000      	movs	r0, #0
100048b0:	e6b3      	b.n	1000461a <_malloc_r+0x18a>
100048b2:	235b      	movs	r3, #91	; 0x5b
100048b4:	4698      	mov	r8, r3
100048b6:	4480      	add	r8, r0
100048b8:	305c      	adds	r0, #92	; 0x5c
100048ba:	00c1      	lsls	r1, r0, #3
100048bc:	e631      	b.n	10004522 <_malloc_r+0x92>
100048be:	2308      	movs	r3, #8
100048c0:	425b      	negs	r3, r3
100048c2:	469c      	mov	ip, r3
100048c4:	44e1      	add	r9, ip
100048c6:	464b      	mov	r3, r9
100048c8:	689b      	ldr	r3, [r3, #8]
100048ca:	3801      	subs	r0, #1
100048cc:	454b      	cmp	r3, r9
100048ce:	d000      	beq.n	100048d2 <_malloc_r+0x442>
100048d0:	e098      	b.n	10004a04 <_malloc_r+0x574>
100048d2:	4643      	mov	r3, r8
100048d4:	4203      	tst	r3, r0
100048d6:	d1f2      	bne.n	100048be <_malloc_r+0x42e>
100048d8:	687b      	ldr	r3, [r7, #4]
100048da:	438b      	bics	r3, r1
100048dc:	607b      	str	r3, [r7, #4]
100048de:	0049      	lsls	r1, r1, #1
100048e0:	4299      	cmp	r1, r3
100048e2:	d900      	bls.n	100048e6 <_malloc_r+0x456>
100048e4:	e6b7      	b.n	10004656 <_malloc_r+0x1c6>
100048e6:	2900      	cmp	r1, #0
100048e8:	d104      	bne.n	100048f4 <_malloc_r+0x464>
100048ea:	e6b4      	b.n	10004656 <_malloc_r+0x1c6>
100048ec:	2204      	movs	r2, #4
100048ee:	4694      	mov	ip, r2
100048f0:	0049      	lsls	r1, r1, #1
100048f2:	44e2      	add	sl, ip
100048f4:	420b      	tst	r3, r1
100048f6:	d0f9      	beq.n	100048ec <_malloc_r+0x45c>
100048f8:	4650      	mov	r0, sl
100048fa:	e65c      	b.n	100045b6 <_malloc_r+0x126>
100048fc:	3310      	adds	r3, #16
100048fe:	9300      	str	r3, [sp, #0]
10004900:	e6c6      	b.n	10004690 <_malloc_r+0x200>
10004902:	1089      	asrs	r1, r1, #2
10004904:	3b02      	subs	r3, #2
10004906:	408b      	lsls	r3, r1
10004908:	6879      	ldr	r1, [r7, #4]
1000490a:	430b      	orrs	r3, r1
1000490c:	607b      	str	r3, [r7, #4]
1000490e:	e765      	b.n	100047dc <_malloc_r+0x34c>
10004910:	9b00      	ldr	r3, [sp, #0]
10004912:	0030      	movs	r0, r6
10004914:	4443      	add	r3, r8
10004916:	425b      	negs	r3, r3
10004918:	051b      	lsls	r3, r3, #20
1000491a:	0d1b      	lsrs	r3, r3, #20
1000491c:	0019      	movs	r1, r3
1000491e:	469b      	mov	fp, r3
10004920:	f000 f886 	bl	10004a30 <_sbrk_r>
10004924:	1c43      	adds	r3, r0, #1
10004926:	d000      	beq.n	1000492a <_malloc_r+0x49a>
10004928:	e6f4      	b.n	10004714 <_malloc_r+0x284>
1000492a:	2300      	movs	r3, #0
1000492c:	469b      	mov	fp, r3
1000492e:	e6f6      	b.n	1000471e <_malloc_r+0x28e>
10004930:	2a54      	cmp	r2, #84	; 0x54
10004932:	d82b      	bhi.n	1000498c <_malloc_r+0x4fc>
10004934:	0b1a      	lsrs	r2, r3, #12
10004936:	0011      	movs	r1, r2
10004938:	326f      	adds	r2, #111	; 0x6f
1000493a:	316e      	adds	r1, #110	; 0x6e
1000493c:	00d2      	lsls	r2, r2, #3
1000493e:	e736      	b.n	100047ae <_malloc_r+0x31e>
10004940:	23aa      	movs	r3, #170	; 0xaa
10004942:	005b      	lsls	r3, r3, #1
10004944:	4298      	cmp	r0, r3
10004946:	d82b      	bhi.n	100049a0 <_malloc_r+0x510>
10004948:	3bdd      	subs	r3, #221	; 0xdd
1000494a:	4698      	mov	r8, r3
1000494c:	0be8      	lsrs	r0, r5, #15
1000494e:	4480      	add	r8, r0
10004950:	3078      	adds	r0, #120	; 0x78
10004952:	00c1      	lsls	r1, r0, #3
10004954:	e5e5      	b.n	10004522 <_malloc_r+0x92>
10004956:	4b2c      	ldr	r3, [pc, #176]	; (10004a08 <_malloc_r+0x578>)
10004958:	9a00      	ldr	r2, [sp, #0]
1000495a:	469a      	mov	sl, r3
1000495c:	681b      	ldr	r3, [r3, #0]
1000495e:	469c      	mov	ip, r3
10004960:	4653      	mov	r3, sl
10004962:	4462      	add	r2, ip
10004964:	601a      	str	r2, [r3, #0]
10004966:	e6ae      	b.n	100046c6 <_malloc_r+0x236>
10004968:	0509      	lsls	r1, r1, #20
1000496a:	d000      	beq.n	1000496e <_malloc_r+0x4de>
1000496c:	e6ab      	b.n	100046c6 <_malloc_r+0x236>
1000496e:	9a00      	ldr	r2, [sp, #0]
10004970:	68bc      	ldr	r4, [r7, #8]
10004972:	444a      	add	r2, r9
10004974:	3101      	adds	r1, #1
10004976:	430a      	orrs	r2, r1
10004978:	6062      	str	r2, [r4, #4]
1000497a:	e6f4      	b.n	10004766 <_malloc_r+0x2d6>
1000497c:	465b      	mov	r3, fp
1000497e:	4642      	mov	r2, r8
10004980:	601a      	str	r2, [r3, #0]
10004982:	e6ab      	b.n	100046dc <_malloc_r+0x24c>
10004984:	4644      	mov	r4, r8
10004986:	e6ee      	b.n	10004766 <_malloc_r+0x2d6>
10004988:	6041      	str	r1, [r0, #4]
1000498a:	e78d      	b.n	100048a8 <_malloc_r+0x418>
1000498c:	21aa      	movs	r1, #170	; 0xaa
1000498e:	0049      	lsls	r1, r1, #1
10004990:	428a      	cmp	r2, r1
10004992:	d824      	bhi.n	100049de <_malloc_r+0x54e>
10004994:	0bda      	lsrs	r2, r3, #15
10004996:	0011      	movs	r1, r2
10004998:	3278      	adds	r2, #120	; 0x78
1000499a:	3177      	adds	r1, #119	; 0x77
1000499c:	00d2      	lsls	r2, r2, #3
1000499e:	e706      	b.n	100047ae <_malloc_r+0x31e>
100049a0:	4b1a      	ldr	r3, [pc, #104]	; (10004a0c <_malloc_r+0x57c>)
100049a2:	4298      	cmp	r0, r3
100049a4:	d824      	bhi.n	100049f0 <_malloc_r+0x560>
100049a6:	237c      	movs	r3, #124	; 0x7c
100049a8:	4698      	mov	r8, r3
100049aa:	0ca8      	lsrs	r0, r5, #18
100049ac:	4480      	add	r8, r0
100049ae:	307d      	adds	r0, #125	; 0x7d
100049b0:	00c1      	lsls	r1, r0, #3
100049b2:	e5b6      	b.n	10004522 <_malloc_r+0x92>
100049b4:	9a00      	ldr	r2, [sp, #0]
100049b6:	9b01      	ldr	r3, [sp, #4]
100049b8:	4694      	mov	ip, r2
100049ba:	4642      	mov	r2, r8
100049bc:	3b08      	subs	r3, #8
100049be:	4463      	add	r3, ip
100049c0:	1a9b      	subs	r3, r3, r2
100049c2:	9300      	str	r3, [sp, #0]
100049c4:	2300      	movs	r3, #0
100049c6:	469b      	mov	fp, r3
100049c8:	e6a9      	b.n	1000471e <_malloc_r+0x28e>
100049ca:	0021      	movs	r1, r4
100049cc:	0030      	movs	r0, r6
100049ce:	3108      	adds	r1, #8
100049d0:	f000 f8bc 	bl	10004b4c <_free_r>
100049d4:	4653      	mov	r3, sl
100049d6:	68bc      	ldr	r4, [r7, #8]
100049d8:	681b      	ldr	r3, [r3, #0]
100049da:	6862      	ldr	r2, [r4, #4]
100049dc:	e6c3      	b.n	10004766 <_malloc_r+0x2d6>
100049de:	490b      	ldr	r1, [pc, #44]	; (10004a0c <_malloc_r+0x57c>)
100049e0:	428a      	cmp	r2, r1
100049e2:	d80b      	bhi.n	100049fc <_malloc_r+0x56c>
100049e4:	0c9a      	lsrs	r2, r3, #18
100049e6:	0011      	movs	r1, r2
100049e8:	327d      	adds	r2, #125	; 0x7d
100049ea:	317c      	adds	r1, #124	; 0x7c
100049ec:	00d2      	lsls	r2, r2, #3
100049ee:	e6de      	b.n	100047ae <_malloc_r+0x31e>
100049f0:	21fe      	movs	r1, #254	; 0xfe
100049f2:	237e      	movs	r3, #126	; 0x7e
100049f4:	207f      	movs	r0, #127	; 0x7f
100049f6:	4698      	mov	r8, r3
100049f8:	0089      	lsls	r1, r1, #2
100049fa:	e592      	b.n	10004522 <_malloc_r+0x92>
100049fc:	22fe      	movs	r2, #254	; 0xfe
100049fe:	217e      	movs	r1, #126	; 0x7e
10004a00:	0092      	lsls	r2, r2, #2
10004a02:	e6d4      	b.n	100047ae <_malloc_r+0x31e>
10004a04:	687b      	ldr	r3, [r7, #4]
10004a06:	e76a      	b.n	100048de <_malloc_r+0x44e>
10004a08:	20000a88 	.word	0x20000a88
10004a0c:	00000554 	.word	0x00000554

10004a10 <__malloc_lock>:
10004a10:	b510      	push	{r4, lr}
10004a12:	4802      	ldr	r0, [pc, #8]	; (10004a1c <__malloc_lock+0xc>)
10004a14:	f000 f97c 	bl	10004d10 <__retarget_lock_acquire_recursive>
10004a18:	bd10      	pop	{r4, pc}
10004a1a:	46c0      	nop			; (mov r8, r8)
10004a1c:	20000d44 	.word	0x20000d44

10004a20 <__malloc_unlock>:
10004a20:	b510      	push	{r4, lr}
10004a22:	4802      	ldr	r0, [pc, #8]	; (10004a2c <__malloc_unlock+0xc>)
10004a24:	f000 f976 	bl	10004d14 <__retarget_lock_release_recursive>
10004a28:	bd10      	pop	{r4, pc}
10004a2a:	46c0      	nop			; (mov r8, r8)
10004a2c:	20000d44 	.word	0x20000d44

10004a30 <_sbrk_r>:
10004a30:	2300      	movs	r3, #0
10004a32:	b570      	push	{r4, r5, r6, lr}
10004a34:	4d06      	ldr	r5, [pc, #24]	; (10004a50 <_sbrk_r+0x20>)
10004a36:	0004      	movs	r4, r0
10004a38:	0008      	movs	r0, r1
10004a3a:	602b      	str	r3, [r5, #0]
10004a3c:	f7fc fcae 	bl	1000139c <_sbrk>
10004a40:	1c43      	adds	r3, r0, #1
10004a42:	d000      	beq.n	10004a46 <_sbrk_r+0x16>
10004a44:	bd70      	pop	{r4, r5, r6, pc}
10004a46:	682b      	ldr	r3, [r5, #0]
10004a48:	2b00      	cmp	r3, #0
10004a4a:	d0fb      	beq.n	10004a44 <_sbrk_r+0x14>
10004a4c:	6023      	str	r3, [r4, #0]
10004a4e:	e7f9      	b.n	10004a44 <_sbrk_r+0x14>
10004a50:	20000d58 	.word	0x20000d58

10004a54 <strlen>:
10004a54:	b510      	push	{r4, lr}
10004a56:	0783      	lsls	r3, r0, #30
10004a58:	d00a      	beq.n	10004a70 <strlen+0x1c>
10004a5a:	0003      	movs	r3, r0
10004a5c:	2103      	movs	r1, #3
10004a5e:	e002      	b.n	10004a66 <strlen+0x12>
10004a60:	3301      	adds	r3, #1
10004a62:	420b      	tst	r3, r1
10004a64:	d005      	beq.n	10004a72 <strlen+0x1e>
10004a66:	781a      	ldrb	r2, [r3, #0]
10004a68:	2a00      	cmp	r2, #0
10004a6a:	d1f9      	bne.n	10004a60 <strlen+0xc>
10004a6c:	1a18      	subs	r0, r3, r0
10004a6e:	bd10      	pop	{r4, pc}
10004a70:	0003      	movs	r3, r0
10004a72:	6819      	ldr	r1, [r3, #0]
10004a74:	4a0c      	ldr	r2, [pc, #48]	; (10004aa8 <strlen+0x54>)
10004a76:	4c0d      	ldr	r4, [pc, #52]	; (10004aac <strlen+0x58>)
10004a78:	188a      	adds	r2, r1, r2
10004a7a:	438a      	bics	r2, r1
10004a7c:	4222      	tst	r2, r4
10004a7e:	d10f      	bne.n	10004aa0 <strlen+0x4c>
10004a80:	6859      	ldr	r1, [r3, #4]
10004a82:	4a09      	ldr	r2, [pc, #36]	; (10004aa8 <strlen+0x54>)
10004a84:	3304      	adds	r3, #4
10004a86:	188a      	adds	r2, r1, r2
10004a88:	438a      	bics	r2, r1
10004a8a:	4222      	tst	r2, r4
10004a8c:	d108      	bne.n	10004aa0 <strlen+0x4c>
10004a8e:	6859      	ldr	r1, [r3, #4]
10004a90:	4a05      	ldr	r2, [pc, #20]	; (10004aa8 <strlen+0x54>)
10004a92:	3304      	adds	r3, #4
10004a94:	188a      	adds	r2, r1, r2
10004a96:	438a      	bics	r2, r1
10004a98:	4222      	tst	r2, r4
10004a9a:	d0f1      	beq.n	10004a80 <strlen+0x2c>
10004a9c:	e000      	b.n	10004aa0 <strlen+0x4c>
10004a9e:	3301      	adds	r3, #1
10004aa0:	781a      	ldrb	r2, [r3, #0]
10004aa2:	2a00      	cmp	r2, #0
10004aa4:	d1fb      	bne.n	10004a9e <strlen+0x4a>
10004aa6:	e7e1      	b.n	10004a6c <strlen+0x18>
10004aa8:	fefefeff 	.word	0xfefefeff
10004aac:	80808080 	.word	0x80808080

10004ab0 <_malloc_trim_r>:
10004ab0:	b5f8      	push	{r3, r4, r5, r6, r7, lr}
10004ab2:	000c      	movs	r4, r1
10004ab4:	0005      	movs	r5, r0
10004ab6:	f7ff ffab 	bl	10004a10 <__malloc_lock>
10004aba:	4f20      	ldr	r7, [pc, #128]	; (10004b3c <_malloc_trim_r+0x8c>)
10004abc:	68bb      	ldr	r3, [r7, #8]
10004abe:	685e      	ldr	r6, [r3, #4]
10004ac0:	2303      	movs	r3, #3
10004ac2:	439e      	bics	r6, r3
10004ac4:	4b1e      	ldr	r3, [pc, #120]	; (10004b40 <_malloc_trim_r+0x90>)
10004ac6:	1b34      	subs	r4, r6, r4
10004ac8:	469c      	mov	ip, r3
10004aca:	4464      	add	r4, ip
10004acc:	0b24      	lsrs	r4, r4, #12
10004ace:	3c01      	subs	r4, #1
10004ad0:	3311      	adds	r3, #17
10004ad2:	0324      	lsls	r4, r4, #12
10004ad4:	429c      	cmp	r4, r3
10004ad6:	db07      	blt.n	10004ae8 <_malloc_trim_r+0x38>
10004ad8:	2100      	movs	r1, #0
10004ada:	0028      	movs	r0, r5
10004adc:	f7ff ffa8 	bl	10004a30 <_sbrk_r>
10004ae0:	68bb      	ldr	r3, [r7, #8]
10004ae2:	199b      	adds	r3, r3, r6
10004ae4:	4298      	cmp	r0, r3
10004ae6:	d004      	beq.n	10004af2 <_malloc_trim_r+0x42>
10004ae8:	0028      	movs	r0, r5
10004aea:	f7ff ff99 	bl	10004a20 <__malloc_unlock>
10004aee:	2000      	movs	r0, #0
10004af0:	bdf8      	pop	{r3, r4, r5, r6, r7, pc}
10004af2:	0028      	movs	r0, r5
10004af4:	4261      	negs	r1, r4
10004af6:	f7ff ff9b 	bl	10004a30 <_sbrk_r>
10004afa:	1c43      	adds	r3, r0, #1
10004afc:	d00d      	beq.n	10004b1a <_malloc_trim_r+0x6a>
10004afe:	2201      	movs	r2, #1
10004b00:	68bb      	ldr	r3, [r7, #8]
10004b02:	1b36      	subs	r6, r6, r4
10004b04:	4316      	orrs	r6, r2
10004b06:	605e      	str	r6, [r3, #4]
10004b08:	4b0e      	ldr	r3, [pc, #56]	; (10004b44 <_malloc_trim_r+0x94>)
10004b0a:	0028      	movs	r0, r5
10004b0c:	681a      	ldr	r2, [r3, #0]
10004b0e:	1b14      	subs	r4, r2, r4
10004b10:	601c      	str	r4, [r3, #0]
10004b12:	f7ff ff85 	bl	10004a20 <__malloc_unlock>
10004b16:	2001      	movs	r0, #1
10004b18:	e7ea      	b.n	10004af0 <_malloc_trim_r+0x40>
10004b1a:	2100      	movs	r1, #0
10004b1c:	0028      	movs	r0, r5
10004b1e:	f7ff ff87 	bl	10004a30 <_sbrk_r>
10004b22:	68ba      	ldr	r2, [r7, #8]
10004b24:	1a83      	subs	r3, r0, r2
10004b26:	2b0f      	cmp	r3, #15
10004b28:	ddde      	ble.n	10004ae8 <_malloc_trim_r+0x38>
10004b2a:	4907      	ldr	r1, [pc, #28]	; (10004b48 <_malloc_trim_r+0x98>)
10004b2c:	6809      	ldr	r1, [r1, #0]
10004b2e:	1a40      	subs	r0, r0, r1
10004b30:	4904      	ldr	r1, [pc, #16]	; (10004b44 <_malloc_trim_r+0x94>)
10004b32:	6008      	str	r0, [r1, #0]
10004b34:	2101      	movs	r1, #1
10004b36:	430b      	orrs	r3, r1
10004b38:	6053      	str	r3, [r2, #4]
10004b3a:	e7d5      	b.n	10004ae8 <_malloc_trim_r+0x38>
10004b3c:	20000640 	.word	0x20000640
10004b40:	00000fef 	.word	0x00000fef
10004b44:	20000a88 	.word	0x20000a88
10004b48:	20000a48 	.word	0x20000a48

10004b4c <_free_r>:
10004b4c:	b5f0      	push	{r4, r5, r6, r7, lr}
10004b4e:	46c6      	mov	lr, r8
10004b50:	0005      	movs	r5, r0
10004b52:	000c      	movs	r4, r1
10004b54:	b500      	push	{lr}
10004b56:	2900      	cmp	r1, #0
10004b58:	d04f      	beq.n	10004bfa <_free_r+0xae>
10004b5a:	f7ff ff59 	bl	10004a10 <__malloc_lock>
10004b5e:	0021      	movs	r1, r4
10004b60:	3908      	subs	r1, #8
10004b62:	684c      	ldr	r4, [r1, #4]
10004b64:	2601      	movs	r6, #1
10004b66:	0022      	movs	r2, r4
10004b68:	2003      	movs	r0, #3
10004b6a:	43b2      	bics	r2, r6
10004b6c:	188f      	adds	r7, r1, r2
10004b6e:	687b      	ldr	r3, [r7, #4]
10004b70:	4383      	bics	r3, r0
10004b72:	4862      	ldr	r0, [pc, #392]	; (10004cfc <_free_r+0x1b0>)
10004b74:	4698      	mov	r8, r3
10004b76:	6883      	ldr	r3, [r0, #8]
10004b78:	42bb      	cmp	r3, r7
10004b7a:	d06b      	beq.n	10004c54 <_free_r+0x108>
10004b7c:	4643      	mov	r3, r8
10004b7e:	607b      	str	r3, [r7, #4]
10004b80:	4226      	tst	r6, r4
10004b82:	d11e      	bne.n	10004bc2 <_free_r+0x76>
10004b84:	2308      	movs	r3, #8
10004b86:	469c      	mov	ip, r3
10004b88:	680c      	ldr	r4, [r1, #0]
10004b8a:	4484      	add	ip, r0
10004b8c:	1b09      	subs	r1, r1, r4
10004b8e:	1912      	adds	r2, r2, r4
10004b90:	688c      	ldr	r4, [r1, #8]
10004b92:	4564      	cmp	r4, ip
10004b94:	d04f      	beq.n	10004c36 <_free_r+0xea>
10004b96:	68cb      	ldr	r3, [r1, #12]
10004b98:	60e3      	str	r3, [r4, #12]
10004b9a:	609c      	str	r4, [r3, #8]
10004b9c:	4643      	mov	r3, r8
10004b9e:	18fc      	adds	r4, r7, r3
10004ba0:	6864      	ldr	r4, [r4, #4]
10004ba2:	4234      	tst	r4, r6
10004ba4:	d111      	bne.n	10004bca <_free_r+0x7e>
10004ba6:	68bb      	ldr	r3, [r7, #8]
10004ba8:	4c55      	ldr	r4, [pc, #340]	; (10004d00 <_free_r+0x1b4>)
10004baa:	4442      	add	r2, r8
10004bac:	42a3      	cmp	r3, r4
10004bae:	d100      	bne.n	10004bb2 <_free_r+0x66>
10004bb0:	e07f      	b.n	10004cb2 <_free_r+0x166>
10004bb2:	68fc      	ldr	r4, [r7, #12]
10004bb4:	60dc      	str	r4, [r3, #12]
10004bb6:	60a3      	str	r3, [r4, #8]
10004bb8:	2301      	movs	r3, #1
10004bba:	4313      	orrs	r3, r2
10004bbc:	604b      	str	r3, [r1, #4]
10004bbe:	508a      	str	r2, [r1, r2]
10004bc0:	e006      	b.n	10004bd0 <_free_r+0x84>
10004bc2:	18fc      	adds	r4, r7, r3
10004bc4:	6864      	ldr	r4, [r4, #4]
10004bc6:	4234      	tst	r4, r6
10004bc8:	d0ed      	beq.n	10004ba6 <_free_r+0x5a>
10004bca:	4316      	orrs	r6, r2
10004bcc:	604e      	str	r6, [r1, #4]
10004bce:	603a      	str	r2, [r7, #0]
10004bd0:	2380      	movs	r3, #128	; 0x80
10004bd2:	009b      	lsls	r3, r3, #2
10004bd4:	429a      	cmp	r2, r3
10004bd6:	d213      	bcs.n	10004c00 <_free_r+0xb4>
10004bd8:	0954      	lsrs	r4, r2, #5
10004bda:	08d3      	lsrs	r3, r2, #3
10004bdc:	2201      	movs	r2, #1
10004bde:	40a2      	lsls	r2, r4
10004be0:	6844      	ldr	r4, [r0, #4]
10004be2:	00db      	lsls	r3, r3, #3
10004be4:	4322      	orrs	r2, r4
10004be6:	6042      	str	r2, [r0, #4]
10004be8:	1818      	adds	r0, r3, r0
10004bea:	6883      	ldr	r3, [r0, #8]
10004bec:	60c8      	str	r0, [r1, #12]
10004bee:	608b      	str	r3, [r1, #8]
10004bf0:	6081      	str	r1, [r0, #8]
10004bf2:	60d9      	str	r1, [r3, #12]
10004bf4:	0028      	movs	r0, r5
10004bf6:	f7ff ff13 	bl	10004a20 <__malloc_unlock>
10004bfa:	bc04      	pop	{r2}
10004bfc:	4690      	mov	r8, r2
10004bfe:	bdf0      	pop	{r4, r5, r6, r7, pc}
10004c00:	0a53      	lsrs	r3, r2, #9
10004c02:	2b04      	cmp	r3, #4
10004c04:	d83f      	bhi.n	10004c86 <_free_r+0x13a>
10004c06:	0994      	lsrs	r4, r2, #6
10004c08:	0026      	movs	r6, r4
10004c0a:	3439      	adds	r4, #57	; 0x39
10004c0c:	3638      	adds	r6, #56	; 0x38
10004c0e:	00e4      	lsls	r4, r4, #3
10004c10:	1904      	adds	r4, r0, r4
10004c12:	6823      	ldr	r3, [r4, #0]
10004c14:	3c08      	subs	r4, #8
10004c16:	2703      	movs	r7, #3
10004c18:	429c      	cmp	r4, r3
10004c1a:	d043      	beq.n	10004ca4 <_free_r+0x158>
10004c1c:	6858      	ldr	r0, [r3, #4]
10004c1e:	43b8      	bics	r0, r7
10004c20:	4290      	cmp	r0, r2
10004c22:	d902      	bls.n	10004c2a <_free_r+0xde>
10004c24:	689b      	ldr	r3, [r3, #8]
10004c26:	429c      	cmp	r4, r3
10004c28:	d1f8      	bne.n	10004c1c <_free_r+0xd0>
10004c2a:	68dc      	ldr	r4, [r3, #12]
10004c2c:	60cc      	str	r4, [r1, #12]
10004c2e:	608b      	str	r3, [r1, #8]
10004c30:	60a1      	str	r1, [r4, #8]
10004c32:	60d9      	str	r1, [r3, #12]
10004c34:	e7de      	b.n	10004bf4 <_free_r+0xa8>
10004c36:	4643      	mov	r3, r8
10004c38:	18f8      	adds	r0, r7, r3
10004c3a:	6840      	ldr	r0, [r0, #4]
10004c3c:	4230      	tst	r0, r6
10004c3e:	d158      	bne.n	10004cf2 <_free_r+0x1a6>
10004c40:	0013      	movs	r3, r2
10004c42:	68b8      	ldr	r0, [r7, #8]
10004c44:	68fa      	ldr	r2, [r7, #12]
10004c46:	4443      	add	r3, r8
10004c48:	431e      	orrs	r6, r3
10004c4a:	60c2      	str	r2, [r0, #12]
10004c4c:	6090      	str	r0, [r2, #8]
10004c4e:	604e      	str	r6, [r1, #4]
10004c50:	50cb      	str	r3, [r1, r3]
10004c52:	e7cf      	b.n	10004bf4 <_free_r+0xa8>
10004c54:	0013      	movs	r3, r2
10004c56:	4443      	add	r3, r8
10004c58:	4226      	tst	r6, r4
10004c5a:	d106      	bne.n	10004c6a <_free_r+0x11e>
10004c5c:	680a      	ldr	r2, [r1, #0]
10004c5e:	1a89      	subs	r1, r1, r2
10004c60:	688c      	ldr	r4, [r1, #8]
10004c62:	189b      	adds	r3, r3, r2
10004c64:	68ca      	ldr	r2, [r1, #12]
10004c66:	60e2      	str	r2, [r4, #12]
10004c68:	6094      	str	r4, [r2, #8]
10004c6a:	2201      	movs	r2, #1
10004c6c:	431a      	orrs	r2, r3
10004c6e:	604a      	str	r2, [r1, #4]
10004c70:	4a24      	ldr	r2, [pc, #144]	; (10004d04 <_free_r+0x1b8>)
10004c72:	6081      	str	r1, [r0, #8]
10004c74:	6812      	ldr	r2, [r2, #0]
10004c76:	429a      	cmp	r2, r3
10004c78:	d8bc      	bhi.n	10004bf4 <_free_r+0xa8>
10004c7a:	4b23      	ldr	r3, [pc, #140]	; (10004d08 <_free_r+0x1bc>)
10004c7c:	0028      	movs	r0, r5
10004c7e:	6819      	ldr	r1, [r3, #0]
10004c80:	f7ff ff16 	bl	10004ab0 <_malloc_trim_r>
10004c84:	e7b6      	b.n	10004bf4 <_free_r+0xa8>
10004c86:	2b14      	cmp	r3, #20
10004c88:	d907      	bls.n	10004c9a <_free_r+0x14e>
10004c8a:	2b54      	cmp	r3, #84	; 0x54
10004c8c:	d81a      	bhi.n	10004cc4 <_free_r+0x178>
10004c8e:	0b14      	lsrs	r4, r2, #12
10004c90:	0026      	movs	r6, r4
10004c92:	346f      	adds	r4, #111	; 0x6f
10004c94:	366e      	adds	r6, #110	; 0x6e
10004c96:	00e4      	lsls	r4, r4, #3
10004c98:	e7ba      	b.n	10004c10 <_free_r+0xc4>
10004c9a:	001e      	movs	r6, r3
10004c9c:	335c      	adds	r3, #92	; 0x5c
10004c9e:	365b      	adds	r6, #91	; 0x5b
10004ca0:	00dc      	lsls	r4, r3, #3
10004ca2:	e7b5      	b.n	10004c10 <_free_r+0xc4>
10004ca4:	2201      	movs	r2, #1
10004ca6:	10b6      	asrs	r6, r6, #2
10004ca8:	40b2      	lsls	r2, r6
10004caa:	6846      	ldr	r6, [r0, #4]
10004cac:	4332      	orrs	r2, r6
10004cae:	6042      	str	r2, [r0, #4]
10004cb0:	e7bc      	b.n	10004c2c <_free_r+0xe0>
10004cb2:	60d9      	str	r1, [r3, #12]
10004cb4:	6099      	str	r1, [r3, #8]
10004cb6:	60cb      	str	r3, [r1, #12]
10004cb8:	608b      	str	r3, [r1, #8]
10004cba:	2301      	movs	r3, #1
10004cbc:	4313      	orrs	r3, r2
10004cbe:	604b      	str	r3, [r1, #4]
10004cc0:	508a      	str	r2, [r1, r2]
10004cc2:	e797      	b.n	10004bf4 <_free_r+0xa8>
10004cc4:	24aa      	movs	r4, #170	; 0xaa
10004cc6:	0064      	lsls	r4, r4, #1
10004cc8:	42a3      	cmp	r3, r4
10004cca:	d805      	bhi.n	10004cd8 <_free_r+0x18c>
10004ccc:	0bd4      	lsrs	r4, r2, #15
10004cce:	0026      	movs	r6, r4
10004cd0:	3478      	adds	r4, #120	; 0x78
10004cd2:	3677      	adds	r6, #119	; 0x77
10004cd4:	00e4      	lsls	r4, r4, #3
10004cd6:	e79b      	b.n	10004c10 <_free_r+0xc4>
10004cd8:	4c0c      	ldr	r4, [pc, #48]	; (10004d0c <_free_r+0x1c0>)
10004cda:	42a3      	cmp	r3, r4
10004cdc:	d805      	bhi.n	10004cea <_free_r+0x19e>
10004cde:	0c94      	lsrs	r4, r2, #18
10004ce0:	0026      	movs	r6, r4
10004ce2:	347d      	adds	r4, #125	; 0x7d
10004ce4:	367c      	adds	r6, #124	; 0x7c
10004ce6:	00e4      	lsls	r4, r4, #3
10004ce8:	e792      	b.n	10004c10 <_free_r+0xc4>
10004cea:	24fe      	movs	r4, #254	; 0xfe
10004cec:	267e      	movs	r6, #126	; 0x7e
10004cee:	00a4      	lsls	r4, r4, #2
10004cf0:	e78e      	b.n	10004c10 <_free_r+0xc4>
10004cf2:	0033      	movs	r3, r6
10004cf4:	4313      	orrs	r3, r2
10004cf6:	604b      	str	r3, [r1, #4]
10004cf8:	603a      	str	r2, [r7, #0]
10004cfa:	e77b      	b.n	10004bf4 <_free_r+0xa8>
10004cfc:	20000640 	.word	0x20000640
10004d00:	20000648 	.word	0x20000648
10004d04:	20000a4c 	.word	0x20000a4c
10004d08:	20000ab8 	.word	0x20000ab8
10004d0c:	00000554 	.word	0x00000554

10004d10 <__retarget_lock_acquire_recursive>:
10004d10:	4770      	bx	lr
10004d12:	46c0      	nop			; (mov r8, r8)

10004d14 <__retarget_lock_release_recursive>:
10004d14:	4770      	bx	lr
10004d16:	46c0      	nop			; (mov r8, r8)

10004d18 <_fini>:
10004d18:	b5f8      	push	{r3, r4, r5, r6, r7, lr}
10004d1a:	46c0      	nop			; (mov r8, r8)
10004d1c:	0000      	movs	r0, r0
	...

10004d20 <__mutex_exit_veneer>:
10004d20:	b401      	push	{r0}
10004d22:	4802      	ldr	r0, [pc, #8]	; (10004d2c <__mutex_exit_veneer+0xc>)
10004d24:	4684      	mov	ip, r0
10004d26:	bc01      	pop	{r0}
10004d28:	4760      	bx	ip
10004d2a:	bf00      	nop
10004d2c:	2000015d 	.word	0x2000015d

10004d30 <____aeabi_ldiv0_veneer>:
10004d30:	b401      	push	{r0}
10004d32:	4802      	ldr	r0, [pc, #8]	; (10004d3c <____aeabi_ldiv0_veneer+0xc>)
10004d34:	4684      	mov	ip, r0
10004d36:	bc01      	pop	{r0}
10004d38:	4760      	bx	ip
10004d3a:	bf00      	nop
10004d3c:	20000185 	.word	0x20000185

10004d40 <____aeabi_idiv0_veneer>:
10004d40:	b401      	push	{r0}
10004d42:	4802      	ldr	r0, [pc, #8]	; (10004d4c <____aeabi_idiv0_veneer+0xc>)
10004d44:	4684      	mov	ip, r0
10004d46:	bc01      	pop	{r0}
10004d48:	4760      	bx	ip
10004d4a:	bf00      	nop
10004d4c:	20000185 	.word	0x20000185

10004d50 <__mutex_try_enter_veneer>:
10004d50:	b401      	push	{r0}
10004d52:	4802      	ldr	r0, [pc, #8]	; (10004d5c <__mutex_try_enter_veneer+0xc>)
10004d54:	4684      	mov	ip, r0
10004d56:	bc01      	pop	{r0}
10004d58:	4760      	bx	ip
10004d5a:	bf00      	nop
10004d5c:	20000111 	.word	0x20000111

10004d60 <__mutex_enter_blocking_veneer>:
10004d60:	b401      	push	{r0}
10004d62:	4802      	ldr	r0, [pc, #8]	; (10004d6c <__mutex_enter_blocking_veneer+0xc>)
10004d64:	4684      	mov	ip, r0
10004d66:	bc01      	pop	{r0}
10004d68:	4760      	bx	ip
10004d6a:	bf00      	nop
10004d6c:	200000c1 	.word	0x200000c1

Disassembly of section .data:

200000c0 <mutex_enter_blocking>:
200000c0:	b510      	push	{r4, lr}
200000c2:	6802      	ldr	r2, [r0, #0]
200000c4:	2400      	movs	r4, #0
200000c6:	f3ef 8110 	mrs	r1, PRIMASK
200000ca:	b672      	cpsid	i
200000cc:	6813      	ldr	r3, [r2, #0]
200000ce:	2b00      	cmp	r3, #0
200000d0:	d0fc      	beq.n	200000cc <mutex_enter_blocking+0xc>
200000d2:	f3bf 8f5f 	dmb	sy
200000d6:	7903      	ldrb	r3, [r0, #4]
200000d8:	2b00      	cmp	r3, #0
200000da:	d00b      	beq.n	200000f4 <mutex_enter_blocking+0x34>
200000dc:	6803      	ldr	r3, [r0, #0]
200000de:	f3bf 8f5f 	dmb	sy
200000e2:	601c      	str	r4, [r3, #0]
200000e4:	f381 8810 	msr	PRIMASK, r1
200000e8:	bf20      	wfe
200000ea:	6802      	ldr	r2, [r0, #0]
200000ec:	f3ef 8110 	mrs	r1, PRIMASK
200000f0:	b672      	cpsid	i
200000f2:	e7eb      	b.n	200000cc <mutex_enter_blocking+0xc>
200000f4:	2201      	movs	r2, #1
200000f6:	7102      	strb	r2, [r0, #4]
200000f8:	22d0      	movs	r2, #208	; 0xd0
200000fa:	0612      	lsls	r2, r2, #24
200000fc:	6812      	ldr	r2, [r2, #0]
200000fe:	7142      	strb	r2, [r0, #5]
20000100:	6802      	ldr	r2, [r0, #0]
20000102:	f3bf 8f5f 	dmb	sy
20000106:	6013      	str	r3, [r2, #0]
20000108:	f381 8810 	msr	PRIMASK, r1
2000010c:	bd10      	pop	{r4, pc}
2000010e:	46c0      	nop			; (mov r8, r8)

20000110 <mutex_try_enter>:
20000110:	0003      	movs	r3, r0
20000112:	b510      	push	{r4, lr}
20000114:	6800      	ldr	r0, [r0, #0]
20000116:	f3ef 8410 	mrs	r4, PRIMASK
2000011a:	b672      	cpsid	i
2000011c:	6802      	ldr	r2, [r0, #0]
2000011e:	2a00      	cmp	r2, #0
20000120:	d0fc      	beq.n	2000011c <mutex_try_enter+0xc>
20000122:	f3bf 8f5f 	dmb	sy
20000126:	791a      	ldrb	r2, [r3, #4]
20000128:	2a00      	cmp	r2, #0
2000012a:	d00d      	beq.n	20000148 <mutex_try_enter+0x38>
2000012c:	2900      	cmp	r1, #0
2000012e:	d013      	beq.n	20000158 <mutex_try_enter+0x48>
20000130:	2205      	movs	r2, #5
20000132:	2000      	movs	r0, #0
20000134:	569a      	ldrsb	r2, [r3, r2]
20000136:	600a      	str	r2, [r1, #0]
20000138:	681b      	ldr	r3, [r3, #0]
2000013a:	f3bf 8f5f 	dmb	sy
2000013e:	2200      	movs	r2, #0
20000140:	601a      	str	r2, [r3, #0]
20000142:	f384 8810 	msr	PRIMASK, r4
20000146:	bd10      	pop	{r4, pc}
20000148:	3201      	adds	r2, #1
2000014a:	711a      	strb	r2, [r3, #4]
2000014c:	22d0      	movs	r2, #208	; 0xd0
2000014e:	0612      	lsls	r2, r2, #24
20000150:	6812      	ldr	r2, [r2, #0]
20000152:	2001      	movs	r0, #1
20000154:	715a      	strb	r2, [r3, #5]
20000156:	e7ef      	b.n	20000138 <mutex_try_enter+0x28>
20000158:	2000      	movs	r0, #0
2000015a:	e7ed      	b.n	20000138 <mutex_try_enter+0x28>

2000015c <mutex_exit>:
2000015c:	6802      	ldr	r2, [r0, #0]
2000015e:	f3ef 8110 	mrs	r1, PRIMASK
20000162:	b672      	cpsid	i
20000164:	6813      	ldr	r3, [r2, #0]
20000166:	2b00      	cmp	r3, #0
20000168:	d0fc      	beq.n	20000164 <mutex_exit+0x8>
2000016a:	f3bf 8f5f 	dmb	sy
2000016e:	2300      	movs	r3, #0
20000170:	7103      	strb	r3, [r0, #4]
20000172:	bf40      	sev
20000174:	6802      	ldr	r2, [r0, #0]
20000176:	f3bf 8f5f 	dmb	sy
2000017a:	6013      	str	r3, [r2, #0]
2000017c:	f381 8810 	msr	PRIMASK, r1
20000180:	4770      	bx	lr
20000182:	46c0      	nop			; (mov r8, r8)

20000184 <__aeabi_idiv0>:
20000184:	4770      	bx	lr
20000186:	46c0      	nop			; (mov r8, r8)

20000188 <striped_spin_lock_num>:
20000188:	0010 0000                                   ....

2000018c <irq_handler_chain_slots>:
2000018c:	00000000 	.word	0x00000000
20000190:	00010000 	.word	0x00010000
	...
2000019c:	00020000 	.word	0x00020000
	...
200001a8:	00030000 	.word	0x00030000
	...
200001b4:	00ff0000 	.word	0x00ff0000
200001b8:	00000000 	.word	0x00000000

200001bc <irq_handler_chain_first_slot>:
200001bc:	b500      	push	{lr}
200001be:	6848      	ldr	r0, [r1, #4]
200001c0:	3101      	adds	r1, #1
200001c2:	468e      	mov	lr, r1
200001c4:	4700      	bx	r0

200001c6 <irq_handler_chain_remove_tail>:
200001c6:	4670      	mov	r0, lr
200001c8:	3809      	subs	r0, #9
200001ca:	4901      	ldr	r1, [pc, #4]	; (200001d0 <irq_handler_chain_remove_tail+0xa>)
200001cc:	4788      	blx	r1
200001ce:	bd00      	pop	{pc}
200001d0:	100019d5 	.word	0x100019d5
	...

200001e0 <aeabi_bits_funcs>:
200001e0:	00003350 	.word	0x00003350
200001e4:	0000334c 	.word	0x0000334c
200001e8:	00003354 	.word	0x00003354
200001ec:	00003352 	.word	0x00003352

200001f0 <aeabi_bits_funcs_end>:
200001f0:	0000534d 	.word	0x0000534d
200001f4:	0000434d 	.word	0x0000434d
200001f8:	00003453 	.word	0x00003453
200001fc:	00003443 	.word	0x00003443

20000200 <stdio_uart>:
20000200:	1000431d 00000000 10004359 00000000     .C......YC......
20000210:	00000100                                ....

20000214 <_impure_ptr>:
20000214:	20000218                                ... 

20000218 <impure_data>:
20000218:	00000000 20000504 2000056c 200005d4     ....... l.. ... 
	...
200002c0:	00000001 00000000 abcd330e e66d1234     .........3..4.m.
200002d0:	0005deec 0000000b 00000000 00000000     ................
	...

20000640 <__malloc_av_>:
	...
20000648:	20000640 20000640 20000648 20000648     @.. @.. H.. H.. 
20000658:	20000650 20000650 20000658 20000658     P.. P.. X.. X.. 
20000668:	20000660 20000660 20000668 20000668     `.. `.. h.. h.. 
20000678:	20000670 20000670 20000678 20000678     p.. p.. x.. x.. 
20000688:	20000680 20000680 20000688 20000688     ... ... ... ... 
20000698:	20000690 20000690 20000698 20000698     ... ... ... ... 
200006a8:	200006a0 200006a0 200006a8 200006a8     ... ... ... ... 
200006b8:	200006b0 200006b0 200006b8 200006b8     ... ... ... ... 
200006c8:	200006c0 200006c0 200006c8 200006c8     ... ... ... ... 
200006d8:	200006d0 200006d0 200006d8 200006d8     ... ... ... ... 
200006e8:	200006e0 200006e0 200006e8 200006e8     ... ... ... ... 
200006f8:	200006f0 200006f0 200006f8 200006f8     ... ... ... ... 
20000708:	20000700 20000700 20000708 20000708     ... ... ... ... 
20000718:	20000710 20000710 20000718 20000718     ... ... ... ... 
20000728:	20000720 20000720 20000728 20000728      ..  .. (.. (.. 
20000738:	20000730 20000730 20000738 20000738     0.. 0.. 8.. 8.. 
20000748:	20000740 20000740 20000748 20000748     @.. @.. H.. H.. 
20000758:	20000750 20000750 20000758 20000758     P.. P.. X.. X.. 
20000768:	20000760 20000760 20000768 20000768     `.. `.. h.. h.. 
20000778:	20000770 20000770 20000778 20000778     p.. p.. x.. x.. 
20000788:	20000780 20000780 20000788 20000788     ... ... ... ... 
20000798:	20000790 20000790 20000798 20000798     ... ... ... ... 
200007a8:	200007a0 200007a0 200007a8 200007a8     ... ... ... ... 
200007b8:	200007b0 200007b0 200007b8 200007b8     ... ... ... ... 
200007c8:	200007c0 200007c0 200007c8 200007c8     ... ... ... ... 
200007d8:	200007d0 200007d0 200007d8 200007d8     ... ... ... ... 
200007e8:	200007e0 200007e0 200007e8 200007e8     ... ... ... ... 
200007f8:	200007f0 200007f0 200007f8 200007f8     ... ... ... ... 
20000808:	20000800 20000800 20000808 20000808     ... ... ... ... 
20000818:	20000810 20000810 20000818 20000818     ... ... ... ... 
20000828:	20000820 20000820 20000828 20000828      ..  .. (.. (.. 
20000838:	20000830 20000830 20000838 20000838     0.. 0.. 8.. 8.. 
20000848:	20000840 20000840 20000848 20000848     @.. @.. H.. H.. 
20000858:	20000850 20000850 20000858 20000858     P.. P.. X.. X.. 
20000868:	20000860 20000860 20000868 20000868     `.. `.. h.. h.. 
20000878:	20000870 20000870 20000878 20000878     p.. p.. x.. x.. 
20000888:	20000880 20000880 20000888 20000888     ... ... ... ... 
20000898:	20000890 20000890 20000898 20000898     ... ... ... ... 
200008a8:	200008a0 200008a0 200008a8 200008a8     ... ... ... ... 
200008b8:	200008b0 200008b0 200008b8 200008b8     ... ... ... ... 
200008c8:	200008c0 200008c0 200008c8 200008c8     ... ... ... ... 
200008d8:	200008d0 200008d0 200008d8 200008d8     ... ... ... ... 
200008e8:	200008e0 200008e0 200008e8 200008e8     ... ... ... ... 
200008f8:	200008f0 200008f0 200008f8 200008f8     ... ... ... ... 
20000908:	20000900 20000900 20000908 20000908     ... ... ... ... 
20000918:	20000910 20000910 20000918 20000918     ... ... ... ... 
20000928:	20000920 20000920 20000928 20000928      ..  .. (.. (.. 
20000938:	20000930 20000930 20000938 20000938     0.. 0.. 8.. 8.. 
20000948:	20000940 20000940 20000948 20000948     @.. @.. H.. H.. 
20000958:	20000950 20000950 20000958 20000958     P.. P.. X.. X.. 
20000968:	20000960 20000960 20000968 20000968     `.. `.. h.. h.. 
20000978:	20000970 20000970 20000978 20000978     p.. p.. x.. x.. 
20000988:	20000980 20000980 20000988 20000988     ... ... ... ... 
20000998:	20000990 20000990 20000998 20000998     ... ... ... ... 
200009a8:	200009a0 200009a0 200009a8 200009a8     ... ... ... ... 
200009b8:	200009b0 200009b0 200009b8 200009b8     ... ... ... ... 
200009c8:	200009c0 200009c0 200009c8 200009c8     ... ... ... ... 
200009d8:	200009d0 200009d0 200009d8 200009d8     ... ... ... ... 
200009e8:	200009e0 200009e0 200009e8 200009e8     ... ... ... ... 
200009f8:	200009f0 200009f0 200009f8 200009f8     ... ... ... ... 
20000a08:	20000a00 20000a00 20000a08 20000a08     ... ... ... ... 
20000a18:	20000a10 20000a10 20000a18 20000a18     ... ... ... ... 
20000a28:	20000a20 20000a20 20000a28 20000a28      ..  .. (.. (.. 
20000a38:	20000a30 20000a30 20000a38 20000a38     0.. 0.. 8.. 8.. 

20000a48 <__malloc_sbrk_base>:
20000a48:	ffffffff                                ....

20000a4c <__malloc_trim_threshold>:
20000a4c:	00020000                                ....

20000a50 <print_mutex>:
	...

20000a58 <__mutex_array_end>:
20000a58:	10003f5d 	.word	0x10003f5d
20000a5c:	10003111 	.word	0x10003111
20000a60:	10003805 	.word	0x10003805
20000a64:	10003ebd 	.word	0x10003ebd

20000a68 <__frame_dummy_init_array_entry>:
20000a68:	10000301                                ....
