
pio_ws2812.elf:     file format elf32-littlearm

Sections:
Idx Name          Size      VMA       LMA       File off  Algn
  0 .boot2        00000100  10000000  10000000  00010000  2**0
                  CONTENTS, ALLOC, LOAD, READONLY, DATA
  1 .text         00002c98  10000100  10000100  00010100  2**3
                  CONTENTS, ALLOC, LOAD, READONLY, CODE
  2 .rodata       000001b8  10002d98  10002d98  00012d98  2**2
                  CONTENTS, ALLOC, LOAD, READONLY, DATA
  3 .binary_info  00000024  10002f50  10002f50  00012f50  2**2
                  CONTENTS, ALLOC, LOAD, DATA
  4 .ram_vector_table 000000c0  20000000  20000000  00020a6c  2**2
                  CONTENTS
  5 .data         000009ac  200000c0  10002f74  000200c0  2**4
                  CONTENTS, ALLOC, LOAD, CODE
  6 .uninitialized_data 00000000  20000a6c  20000a6c  00020b2c  2**0
                  CONTENTS
  7 .scratch_x    00000000  20040000  20040000  00020b2c  2**0
                  CONTENTS
  8 .scratch_y    00000000  20041000  20041000  00020b2c  2**0
                  CONTENTS
  9 .bss          000002f8  20000a6c  20000a6c  00020a6c  2**2
                  ALLOC
 10 .heap         00000800  20000d64  20000d64  00020b2c  2**2
                  CONTENTS, READONLY
 11 .stack_dummy  00000800  20041000  20041000  00021340  2**5
                  CONTENTS, READONLY
 12 .ARM.attributes 00000028  00000000  00000000  00021b40  2**0
                  CONTENTS, READONLY
 13 .comment      00000079  00000000  00000000  00021b68  2**0
                  CONTENTS, READONLY
 14 .debug_frame  000002e4  00000000  00000000  00021be4  2**2
                  CONTENTS, READONLY, DEBUGGING

pio_ws2812.elf:     file format elf32-littlearm


Disassembly of section .text:

10000100 <__reset_start>:
10000100:	4827      	ldr	r0, [pc, #156]	; (100001a0 <__get_current_exception+0xa>)
10000102:	e000      	b.n	10000106 <__vector_entry>

10000104 <_entry_point>:
10000104:	2000      	movs	r0, #0

10000106 <__vector_entry>:
10000106:	4927      	ldr	r1, [pc, #156]	; (100001a4 <__get_current_exception+0xe>)
10000108:	6088      	str	r0, [r1, #8]
1000010a:	c806      	ldmia	r0!, {r1, r2}
1000010c:	f381 8808 	msr	MSP, r1
10000110:	4710      	bx	r2

10000112 <_reset_handler>:
10000112:	4825      	ldr	r0, [pc, #148]	; (100001a8 <__get_current_exception+0x12>)
10000114:	6800      	ldr	r0, [r0, #0]
10000116:	2800      	cmp	r0, #0
10000118:	d139      	bne.n	1000018e <wait_for_vector>
1000011a:	a412      	add	r4, pc, #72	; (adr r4, 10000164 <data_cpy_table>)
1000011c:	cc0e      	ldmia	r4!, {r1, r2, r3}
1000011e:	2900      	cmp	r1, #0
10000120:	d002      	beq.n	10000128 <_reset_handler+0x16>
10000122:	f000 f812 	bl	1000014a <data_cpy>
10000126:	e7f9      	b.n	1000011c <_reset_handler+0xa>
10000128:	4920      	ldr	r1, [pc, #128]	; (100001ac <__get_current_exception+0x16>)
1000012a:	4a21      	ldr	r2, [pc, #132]	; (100001b0 <__get_current_exception+0x1a>)
1000012c:	2000      	movs	r0, #0
1000012e:	e000      	b.n	10000132 <bss_fill_test>

10000130 <bss_fill_loop>:
10000130:	c101      	stmia	r1!, {r0}

10000132 <bss_fill_test>:
10000132:	4291      	cmp	r1, r2
10000134:	d1fc      	bne.n	10000130 <bss_fill_loop>

10000136 <platform_entry>:
10000136:	491f      	ldr	r1, [pc, #124]	; (100001b4 <__get_current_exception+0x1e>)
10000138:	4788      	blx	r1
1000013a:	491f      	ldr	r1, [pc, #124]	; (100001b8 <__get_current_exception+0x22>)
1000013c:	4788      	blx	r1
1000013e:	491f      	ldr	r1, [pc, #124]	; (100001bc <__get_current_exception+0x26>)
10000140:	4788      	blx	r1
10000142:	be00      	bkpt	0x0000
10000144:	e7fd      	b.n	10000142 <platform_entry+0xc>

10000146 <data_cpy_loop>:
10000146:	c901      	ldmia	r1!, {r0}
10000148:	c201      	stmia	r2!, {r0}

1000014a <data_cpy>:
1000014a:	429a      	cmp	r2, r3
1000014c:	d3fb      	bcc.n	10000146 <data_cpy_loop>
1000014e:	4770      	bx	lr

10000150 <binary_info_header>:
10000150:	7188ebf2 	.word	0x7188ebf2
10000154:	10002f50 	.word	0x10002f50
10000158:	10002f74 	.word	0x10002f74
1000015c:	10000164 	.word	0x10000164
10000160:	e71aa390 	.word	0xe71aa390

10000164 <data_cpy_table>:
10000164:	10002f74 	.word	0x10002f74
10000168:	200000c0 	.word	0x200000c0
1000016c:	20000a6c 	.word	0x20000a6c
10000170:	10003920 	.word	0x10003920
10000174:	20040000 	.word	0x20040000
10000178:	20040000 	.word	0x20040000
1000017c:	10003920 	.word	0x10003920
10000180:	20041000 	.word	0x20041000
10000184:	20041000 	.word	0x20041000
10000188:	00000000 	.word	0x00000000
1000018c:	4770      	bx	lr

1000018e <wait_for_vector>:
1000018e:	480c      	ldr	r0, [pc, #48]	; (100001c0 <__get_current_exception+0x2a>)
10000190:	f001 fd54 	bl	10001c3c <rom_func_lookup>
10000194:	4700      	bx	r0

10000196 <__get_current_exception>:
10000196:	f3ef 8005 	mrs	r0, IPSR
1000019a:	b2c0      	uxtb	r0, r0
1000019c:	4770      	bx	lr
1000019e:	0000      	.short	0x0000
100001a0:	10000200 	.word	0x10000200
100001a4:	e000ed00 	.word	0xe000ed00
100001a8:	d0000000 	.word	0xd0000000
100001ac:	20000a6c 	.word	0x20000a6c
100001b0:	20000d64 	.word	0x20000d64
100001b4:	100013d5 	.word	0x100013d5
100001b8:	10000459 	.word	0x10000459
100001bc:	100014f5 	.word	0x100014f5
100001c0:	00005657 	.word	0x00005657

100001c4 <__bi_46>:
100001c4:	50520006 5360b3ab 10002eac              ..RP..`S....

100001d0 <__bi_34>:
100001d0:	50520006 02031c86 10002ebc              ..RP........

100001dc <__bi_26>:
100001dc:	50520006 9da22254 10002ec8              ..RPT"......

100001e8 <__bi_18>:
100001e8:	50520005 68f465de 10003920 00000000     ..RP.e.h 9......
	...

10000200 <__reset_end>:
10000200:	20042000 	.word	0x20042000
10000204:	10000113 	.word	0x10000113
10000208:	100002c3 	.word	0x100002c3
1000020c:	100002c5 	.word	0x100002c5
10000210:	100002c1 	.word	0x100002c1
10000214:	100002c1 	.word	0x100002c1
10000218:	100002c1 	.word	0x100002c1
1000021c:	100002c1 	.word	0x100002c1
10000220:	100002c1 	.word	0x100002c1
10000224:	100002c1 	.word	0x100002c1
10000228:	100002c1 	.word	0x100002c1
1000022c:	100002c7 	.word	0x100002c7
10000230:	100002c1 	.word	0x100002c1
10000234:	100002c1 	.word	0x100002c1
10000238:	100002c9 	.word	0x100002c9
1000023c:	100002cb 	.word	0x100002cb
10000240:	100002cd 	.word	0x100002cd
10000244:	100002cd 	.word	0x100002cd
10000248:	100002cd 	.word	0x100002cd
1000024c:	100002cd 	.word	0x100002cd
10000250:	100002cd 	.word	0x100002cd
10000254:	100002cd 	.word	0x100002cd
10000258:	100002cd 	.word	0x100002cd
1000025c:	100002cd 	.word	0x100002cd
10000260:	100002cd 	.word	0x100002cd
10000264:	100002cd 	.word	0x100002cd
10000268:	100002cd 	.word	0x100002cd
1000026c:	100002cd 	.word	0x100002cd
10000270:	100002cd 	.word	0x100002cd
10000274:	100002cd 	.word	0x100002cd
10000278:	100002cd 	.word	0x100002cd
1000027c:	100002cd 	.word	0x100002cd
10000280:	100002cd 	.word	0x100002cd
10000284:	100002cd 	.word	0x100002cd
10000288:	100002cd 	.word	0x100002cd
1000028c:	100002cd 	.word	0x100002cd
10000290:	100002cd 	.word	0x100002cd
10000294:	100002cd 	.word	0x100002cd
10000298:	100002cd 	.word	0x100002cd
1000029c:	100002cd 	.word	0x100002cd
100002a0:	100002cd 	.word	0x100002cd
100002a4:	100002cd 	.word	0x100002cd
100002a8:	100002cd 	.word	0x100002cd
100002ac:	100002cd 	.word	0x100002cd
100002b0:	100002cd 	.word	0x100002cd
100002b4:	100002cd 	.word	0x100002cd
100002b8:	100002cd 	.word	0x100002cd
100002bc:	100002cd 	.word	0x100002cd

100002c0 <isr_invalid>:
100002c0:	be00      	bkpt	0x0000

100002c2 <isr_nmi>:
100002c2:	be00      	bkpt	0x0000

100002c4 <isr_hardfault>:
100002c4:	be00      	bkpt	0x0000

100002c6 <isr_svcall>:
100002c6:	be00      	bkpt	0x0000

100002c8 <isr_pendsv>:
100002c8:	be00      	bkpt	0x0000

100002ca <isr_systick>:
100002ca:	be00      	bkpt	0x0000

100002cc <__unhandled_user_irq>:
100002cc:	f7ff ff63 	bl	10000196 <__get_current_exception>
100002d0:	3810      	subs	r0, #16

100002d2 <unhandled_user_irq_num_in_r0>:
100002d2:	be00      	bkpt	0x0000

100002d4 <_init>:
100002d4:	b5f8      	push	{r3, r4, r5, r6, r7, lr}
100002d6:	46c0      	nop			; (mov r8, r8)

100002d8 <__do_global_dtors_aux>:
100002d8:	b510      	push	{r4, lr}
100002da:	4c06      	ldr	r4, [pc, #24]	; (100002f4 <__do_global_dtors_aux+0x1c>)
100002dc:	7823      	ldrb	r3, [r4, #0]
100002de:	2b00      	cmp	r3, #0
100002e0:	d107      	bne.n	100002f2 <__do_global_dtors_aux+0x1a>
100002e2:	4b05      	ldr	r3, [pc, #20]	; (100002f8 <__do_global_dtors_aux+0x20>)
100002e4:	2b00      	cmp	r3, #0
100002e6:	d002      	beq.n	100002ee <__do_global_dtors_aux+0x16>
100002e8:	4804      	ldr	r0, [pc, #16]	; (100002fc <__do_global_dtors_aux+0x24>)
100002ea:	e000      	b.n	100002ee <__do_global_dtors_aux+0x16>
100002ec:	bf00      	nop
100002ee:	2301      	movs	r3, #1
100002f0:	7023      	strb	r3, [r4, #0]
100002f2:	bd10      	pop	{r4, pc}
100002f4:	20000a6c 	.word	0x20000a6c
100002f8:	00000000 	.word	0x00000000
100002fc:	10002d98 	.word	0x10002d98

10000300 <frame_dummy>:
10000300:	4b04      	ldr	r3, [pc, #16]	; (10000314 <frame_dummy+0x14>)
10000302:	b510      	push	{r4, lr}
10000304:	2b00      	cmp	r3, #0
10000306:	d003      	beq.n	10000310 <frame_dummy+0x10>
10000308:	4903      	ldr	r1, [pc, #12]	; (10000318 <frame_dummy+0x18>)
1000030a:	4804      	ldr	r0, [pc, #16]	; (1000031c <frame_dummy+0x1c>)
1000030c:	e000      	b.n	10000310 <frame_dummy+0x10>
1000030e:	bf00      	nop
10000310:	bd10      	pop	{r4, pc}
10000312:	46c0      	nop			; (mov r8, r8)
10000314:	00000000 	.word	0x00000000
10000318:	20000a70 	.word	0x20000a70
1000031c:	10002d98 	.word	0x10002d98

10000320 <pattern_snakes>:
10000320:	b5f0      	push	{r4, r5, r6, r7, lr}
10000322:	46c6      	mov	lr, r8
10000324:	b500      	push	{lr}
10000326:	2800      	cmp	r0, #0
10000328:	d020      	beq.n	1000036c <pattern_snakes+0x4c>
1000032a:	24ff      	movs	r4, #255	; 0xff
1000032c:	0624      	lsls	r4, r4, #24
1000032e:	46a4      	mov	ip, r4
10000330:	24ff      	movs	r4, #255	; 0xff
10000332:	2380      	movs	r3, #128	; 0x80
10000334:	26ff      	movs	r6, #255	; 0xff
10000336:	0224      	lsls	r4, r4, #8
10000338:	253f      	movs	r5, #63	; 0x3f
1000033a:	46a0      	mov	r8, r4
1000033c:	0849      	lsrs	r1, r1, #1
1000033e:	4a17      	ldr	r2, [pc, #92]	; (1000039c <pattern_snakes+0x7c>)
10000340:	1808      	adds	r0, r1, r0
10000342:	025b      	lsls	r3, r3, #9
10000344:	0436      	lsls	r6, r6, #16
10000346:	002c      	movs	r4, r5
10000348:	400c      	ands	r4, r1
1000034a:	2c09      	cmp	r4, #9
1000034c:	d911      	bls.n	10000372 <pattern_snakes+0x52>
1000034e:	0027      	movs	r7, r4
10000350:	3f0f      	subs	r7, #15
10000352:	2f09      	cmp	r7, #9
10000354:	d91c      	bls.n	10000390 <pattern_snakes+0x70>
10000356:	3c1e      	subs	r4, #30
10000358:	2c09      	cmp	r4, #9
1000035a:	d812      	bhi.n	10000382 <pattern_snakes+0x62>
1000035c:	6854      	ldr	r4, [r2, #4]
1000035e:	421c      	tst	r4, r3
10000360:	d1fc      	bne.n	1000035c <pattern_snakes+0x3c>
10000362:	4644      	mov	r4, r8
10000364:	3101      	adds	r1, #1
10000366:	6114      	str	r4, [r2, #16]
10000368:	4288      	cmp	r0, r1
1000036a:	d1ec      	bne.n	10000346 <pattern_snakes+0x26>
1000036c:	bc04      	pop	{r2}
1000036e:	4690      	mov	r8, r2
10000370:	bdf0      	pop	{r4, r5, r6, r7, pc}
10000372:	6854      	ldr	r4, [r2, #4]
10000374:	421c      	tst	r4, r3
10000376:	d1fc      	bne.n	10000372 <pattern_snakes+0x52>
10000378:	6116      	str	r6, [r2, #16]
1000037a:	3101      	adds	r1, #1
1000037c:	4288      	cmp	r0, r1
1000037e:	d1e2      	bne.n	10000346 <pattern_snakes+0x26>
10000380:	e7f4      	b.n	1000036c <pattern_snakes+0x4c>
10000382:	6854      	ldr	r4, [r2, #4]
10000384:	0027      	movs	r7, r4
10000386:	401f      	ands	r7, r3
10000388:	421c      	tst	r4, r3
1000038a:	d1fa      	bne.n	10000382 <pattern_snakes+0x62>
1000038c:	6117      	str	r7, [r2, #16]
1000038e:	e7f4      	b.n	1000037a <pattern_snakes+0x5a>
10000390:	6854      	ldr	r4, [r2, #4]
10000392:	421c      	tst	r4, r3
10000394:	d1fc      	bne.n	10000390 <pattern_snakes+0x70>
10000396:	4664      	mov	r4, ip
10000398:	6114      	str	r4, [r2, #16]
1000039a:	e7ee      	b.n	1000037a <pattern_snakes+0x5a>
1000039c:	50200000 	.word	0x50200000

100003a0 <pattern_greys>:
100003a0:	b570      	push	{r4, r5, r6, lr}
100003a2:	0005      	movs	r5, r0
100003a4:	0008      	movs	r0, r1
100003a6:	2164      	movs	r1, #100	; 0x64
100003a8:	f001 fc76 	bl	10001c98 <__wrap___aeabi_uidiv>
100003ac:	2d00      	cmp	r5, #0
100003ae:	d016      	beq.n	100003de <pattern_greys+0x3e>
100003b0:	2080      	movs	r0, #128	; 0x80
100003b2:	2600      	movs	r6, #0
100003b4:	4a0a      	ldr	r2, [pc, #40]	; (100003e0 <pattern_greys+0x40>)
100003b6:	0240      	lsls	r0, r0, #9
100003b8:	020c      	lsls	r4, r1, #8
100003ba:	1864      	adds	r4, r4, r1
100003bc:	0224      	lsls	r4, r4, #8
100003be:	1864      	adds	r4, r4, r1
100003c0:	0224      	lsls	r4, r4, #8
100003c2:	6853      	ldr	r3, [r2, #4]
100003c4:	4203      	tst	r3, r0
100003c6:	d1fc      	bne.n	100003c2 <pattern_greys+0x22>
100003c8:	3101      	adds	r1, #1
100003ca:	6114      	str	r4, [r2, #16]
100003cc:	3601      	adds	r6, #1
100003ce:	2964      	cmp	r1, #100	; 0x64
100003d0:	d103      	bne.n	100003da <pattern_greys+0x3a>
100003d2:	42b5      	cmp	r5, r6
100003d4:	d003      	beq.n	100003de <pattern_greys+0x3e>
100003d6:	2100      	movs	r1, #0
100003d8:	e7ee      	b.n	100003b8 <pattern_greys+0x18>
100003da:	42ae      	cmp	r6, r5
100003dc:	d1ec      	bne.n	100003b8 <pattern_greys+0x18>
100003de:	bd70      	pop	{r4, r5, r6, pc}
100003e0:	50200000 	.word	0x50200000

100003e4 <pattern_random>:
100003e4:	b5f8      	push	{r3, r4, r5, r6, r7, lr}
100003e6:	0007      	movs	r7, r0
100003e8:	074b      	lsls	r3, r1, #29
100003ea:	d10f      	bne.n	1000040c <pattern_random+0x28>
100003ec:	2800      	cmp	r0, #0
100003ee:	d00d      	beq.n	1000040c <pattern_random+0x28>
100003f0:	2580      	movs	r5, #128	; 0x80
100003f2:	2600      	movs	r6, #0
100003f4:	4c06      	ldr	r4, [pc, #24]	; (10000410 <pattern_random+0x2c>)
100003f6:	026d      	lsls	r5, r5, #9
100003f8:	f002 fb1e 	bl	10002a38 <rand>
100003fc:	0200      	lsls	r0, r0, #8
100003fe:	6863      	ldr	r3, [r4, #4]
10000400:	422b      	tst	r3, r5
10000402:	d1fc      	bne.n	100003fe <pattern_random+0x1a>
10000404:	3601      	adds	r6, #1
10000406:	6120      	str	r0, [r4, #16]
10000408:	42b7      	cmp	r7, r6
1000040a:	d1f5      	bne.n	100003f8 <pattern_random+0x14>
1000040c:	bdf8      	pop	{r3, r4, r5, r6, r7, pc}
1000040e:	46c0      	nop			; (mov r8, r8)
10000410:	50200000 	.word	0x50200000

10000414 <pattern_sparkle>:
10000414:	b5f0      	push	{r4, r5, r6, r7, lr}
10000416:	46c6      	mov	lr, r8
10000418:	0007      	movs	r7, r0
1000041a:	b500      	push	{lr}
1000041c:	074b      	lsls	r3, r1, #29
1000041e:	d116      	bne.n	1000044e <pattern_sparkle+0x3a>
10000420:	2800      	cmp	r0, #0
10000422:	d014      	beq.n	1000044e <pattern_sparkle+0x3a>
10000424:	230f      	movs	r3, #15
10000426:	2580      	movs	r5, #128	; 0x80
10000428:	2600      	movs	r6, #0
1000042a:	4698      	mov	r8, r3
1000042c:	4c09      	ldr	r4, [pc, #36]	; (10000454 <pattern_sparkle+0x40>)
1000042e:	026d      	lsls	r5, r5, #9
10000430:	f002 fb02 	bl	10002a38 <rand>
10000434:	4643      	mov	r3, r8
10000436:	4018      	ands	r0, r3
10000438:	4242      	negs	r2, r0
1000043a:	4142      	adcs	r2, r0
1000043c:	4252      	negs	r2, r2
1000043e:	0212      	lsls	r2, r2, #8
10000440:	6863      	ldr	r3, [r4, #4]
10000442:	422b      	tst	r3, r5
10000444:	d1fc      	bne.n	10000440 <pattern_sparkle+0x2c>
10000446:	3601      	adds	r6, #1
10000448:	6122      	str	r2, [r4, #16]
1000044a:	42b7      	cmp	r7, r6
1000044c:	d1f0      	bne.n	10000430 <pattern_sparkle+0x1c>
1000044e:	bc04      	pop	{r2}
10000450:	4690      	mov	r8, r2
10000452:	bdf0      	pop	{r4, r5, r6, r7, pc}
10000454:	50200000 	.word	0x50200000

10000458 <main>:
10000458:	b5f0      	push	{r4, r5, r6, r7, lr}
1000045a:	46de      	mov	lr, fp
1000045c:	4657      	mov	r7, sl
1000045e:	464e      	mov	r6, r9
10000460:	4645      	mov	r5, r8
10000462:	b5e0      	push	{r5, r6, r7, lr}
10000464:	4c46      	ldr	r4, [pc, #280]	; (10000580 <main+0x128>)
10000466:	b087      	sub	sp, #28
10000468:	f001 fe76 	bl	10002158 <stdio_init_all>
1000046c:	4845      	ldr	r0, [pc, #276]	; (10000584 <main+0x12c>)
1000046e:	f001 fe37 	bl	100020e0 <__wrap_puts>
10000472:	4945      	ldr	r1, [pc, #276]	; (10000588 <main+0x130>)
10000474:	0020      	movs	r0, r4
10000476:	f001 fecd 	bl	10002214 <pio_add_program>
1000047a:	2601      	movs	r6, #1
1000047c:	0005      	movs	r5, r0
1000047e:	2106      	movs	r1, #6
10000480:	2000      	movs	r0, #0
10000482:	f000 f88f 	bl	100005a4 <gpio_set_function>
10000486:	2100      	movs	r1, #0
10000488:	2301      	movs	r3, #1
1000048a:	2200      	movs	r2, #0
1000048c:	0020      	movs	r0, r4
1000048e:	9600      	str	r6, [sp, #0]
10000490:	f001 ff32 	bl	100022f8 <pio_sm_set_consecutive_pindirs>
10000494:	2380      	movs	r3, #128	; 0x80
10000496:	025b      	lsls	r3, r3, #9
10000498:	9302      	str	r3, [sp, #8]
1000049a:	1ceb      	adds	r3, r5, #3
1000049c:	01ea      	lsls	r2, r5, #7
1000049e:	031b      	lsls	r3, r3, #12
100004a0:	4313      	orrs	r3, r2
100004a2:	4a3a      	ldr	r2, [pc, #232]	; (1000058c <main+0x134>)
100004a4:	2005      	movs	r0, #5
100004a6:	4013      	ands	r3, r2
100004a8:	9303      	str	r3, [sp, #12]
100004aa:	2380      	movs	r3, #128	; 0x80
100004ac:	059b      	lsls	r3, r3, #22
100004ae:	9305      	str	r3, [sp, #20]
100004b0:	4b37      	ldr	r3, [pc, #220]	; (10000590 <main+0x138>)
100004b2:	9304      	str	r3, [sp, #16]
100004b4:	f001 f9ae 	bl	10001814 <clock_get_hz>
100004b8:	f001 fcb0 	bl	10001e1c <__wrap___aeabi_ui2f>
100004bc:	4935      	ldr	r1, [pc, #212]	; (10000594 <main+0x13c>)
100004be:	f001 fca4 	bl	10001e0a <__wrap___aeabi_fdiv>
100004c2:	4680      	mov	r8, r0
100004c4:	f001 fcd2 	bl	10001e6c <__wrap___aeabi_f2uiz>
100004c8:	b287      	uxth	r7, r0
100004ca:	0038      	movs	r0, r7
100004cc:	f001 fcac 	bl	10001e28 <__wrap___aeabi_i2f>
100004d0:	1c01      	adds	r1, r0, #0
100004d2:	4640      	mov	r0, r8
100004d4:	f001 fc93 	bl	10001dfe <__wrap___aeabi_fsub>
100004d8:	2187      	movs	r1, #135	; 0x87
100004da:	05c9      	lsls	r1, r1, #23
100004dc:	f001 fc98 	bl	10001e10 <__wrap___aeabi_fmul>
100004e0:	f001 fcc4 	bl	10001e6c <__wrap___aeabi_f2uiz>
100004e4:	b2c3      	uxtb	r3, r0
100004e6:	021b      	lsls	r3, r3, #8
100004e8:	043f      	lsls	r7, r7, #16
100004ea:	433b      	orrs	r3, r7
100004ec:	9302      	str	r3, [sp, #8]
100004ee:	002a      	movs	r2, r5
100004f0:	ab02      	add	r3, sp, #8
100004f2:	2100      	movs	r1, #0
100004f4:	0020      	movs	r0, r4
100004f6:	f001 ff43 	bl	10002380 <pio_sm_init>
100004fa:	6823      	ldr	r3, [r4, #0]
100004fc:	43b3      	bics	r3, r6
100004fe:	431e      	orrs	r6, r3
10000500:	2300      	movs	r3, #0
10000502:	4698      	mov	r8, r3
10000504:	4b24      	ldr	r3, [pc, #144]	; (10000598 <main+0x140>)
10000506:	6026      	str	r6, [r4, #0]
10000508:	4699      	mov	r9, r3
1000050a:	2303      	movs	r3, #3
1000050c:	469b      	mov	fp, r3
1000050e:	2380      	movs	r3, #128	; 0x80
10000510:	05db      	lsls	r3, r3, #23
10000512:	469a      	mov	sl, r3
10000514:	f002 fa90 	bl	10002a38 <rand>
10000518:	465c      	mov	r4, fp
1000051a:	4004      	ands	r4, r0
1000051c:	f002 fa8c 	bl	10002a38 <rand>
10000520:	4653      	mov	r3, sl
10000522:	00e4      	lsls	r4, r4, #3
10000524:	4218      	tst	r0, r3
10000526:	d022      	beq.n	1000056e <main+0x116>
10000528:	464b      	mov	r3, r9
1000052a:	2601      	movs	r6, #1
1000052c:	191b      	adds	r3, r3, r4
1000052e:	6858      	ldr	r0, [r3, #4]
10000530:	f001 fdd6 	bl	100020e0 <__wrap_puts>
10000534:	4819      	ldr	r0, [pc, #100]	; (1000059c <main+0x144>)
10000536:	f001 fdd3 	bl	100020e0 <__wrap_puts>
1000053a:	464b      	mov	r3, r9
1000053c:	591f      	ldr	r7, [r3, r4]
1000053e:	24fa      	movs	r4, #250	; 0xfa
10000540:	4645      	mov	r5, r8
10000542:	00a4      	lsls	r4, r4, #2
10000544:	0029      	movs	r1, r5
10000546:	2096      	movs	r0, #150	; 0x96
10000548:	47b8      	blx	r7
1000054a:	3c01      	subs	r4, #1
1000054c:	200a      	movs	r0, #10
1000054e:	f000 fb89 	bl	10000c64 <sleep_ms>
10000552:	19ad      	adds	r5, r5, r6
10000554:	2c00      	cmp	r4, #0
10000556:	d1f5      	bne.n	10000544 <main+0xec>
10000558:	4643      	mov	r3, r8
1000055a:	199a      	adds	r2, r3, r6
1000055c:	00f3      	lsls	r3, r6, #3
1000055e:	1b9b      	subs	r3, r3, r6
10000560:	011b      	lsls	r3, r3, #4
10000562:	1b9b      	subs	r3, r3, r6
10000564:	00de      	lsls	r6, r3, #3
10000566:	199e      	adds	r6, r3, r6
10000568:	46b0      	mov	r8, r6
1000056a:	4490      	add	r8, r2
1000056c:	e7d2      	b.n	10000514 <main+0xbc>
1000056e:	464b      	mov	r3, r9
10000570:	2601      	movs	r6, #1
10000572:	191b      	adds	r3, r3, r4
10000574:	6858      	ldr	r0, [r3, #4]
10000576:	f001 fdb3 	bl	100020e0 <__wrap_puts>
1000057a:	4276      	negs	r6, r6
1000057c:	4808      	ldr	r0, [pc, #32]	; (100005a0 <main+0x148>)
1000057e:	e7da      	b.n	10000536 <main+0xde>
10000580:	50200000 	.word	0x50200000
10000584:	10002db0 	.word	0x10002db0
10000588:	10002e0c 	.word	0x10002e0c
1000058c:	9fffffff 	.word	0x9fffffff
10000590:	40060000 	.word	0x40060000
10000594:	4af42400 	.word	0x4af42400
10000598:	10002dec 	.word	0x10002dec
1000059c:	10002d98 	.word	0x10002d98
100005a0:	10002da4 	.word	0x10002da4

100005a4 <gpio_set_function>:
100005a4:	4a09      	ldr	r2, [pc, #36]	; (100005cc <gpio_set_function+0x28>)
100005a6:	0083      	lsls	r3, r0, #2
100005a8:	4694      	mov	ip, r2
100005aa:	2240      	movs	r2, #64	; 0x40
100005ac:	4463      	add	r3, ip
100005ae:	b510      	push	{r4, lr}
100005b0:	681c      	ldr	r4, [r3, #0]
100005b2:	00c0      	lsls	r0, r0, #3
100005b4:	4062      	eors	r2, r4
100005b6:	24c0      	movs	r4, #192	; 0xc0
100005b8:	4014      	ands	r4, r2
100005ba:	2280      	movs	r2, #128	; 0x80
100005bc:	0152      	lsls	r2, r2, #5
100005be:	4313      	orrs	r3, r2
100005c0:	601c      	str	r4, [r3, #0]
100005c2:	4b03      	ldr	r3, [pc, #12]	; (100005d0 <gpio_set_function+0x2c>)
100005c4:	469c      	mov	ip, r3
100005c6:	4460      	add	r0, ip
100005c8:	6041      	str	r1, [r0, #4]
100005ca:	bd10      	pop	{r4, pc}
100005cc:	4001c004 	.word	0x4001c004
100005d0:	40014000 	.word	0x40014000

100005d4 <hw_claim_lock>:
100005d4:	f3ef 8010 	mrs	r0, PRIMASK
100005d8:	b672      	cpsid	i
100005da:	4a03      	ldr	r2, [pc, #12]	; (100005e8 <hw_claim_lock+0x14>)
100005dc:	6813      	ldr	r3, [r2, #0]
100005de:	2b00      	cmp	r3, #0
100005e0:	d0fc      	beq.n	100005dc <hw_claim_lock+0x8>
100005e2:	f3bf 8f5f 	dmb	sy
100005e6:	4770      	bx	lr
100005e8:	d000012c 	.word	0xd000012c

100005ec <hw_claim_unlock>:
100005ec:	f3bf 8f5f 	dmb	sy
100005f0:	2200      	movs	r2, #0
100005f2:	4b02      	ldr	r3, [pc, #8]	; (100005fc <hw_claim_unlock+0x10>)
100005f4:	601a      	str	r2, [r3, #0]
100005f6:	f380 8810 	msr	PRIMASK, r0
100005fa:	4770      	bx	lr
100005fc:	d000012c 	.word	0xd000012c

10000600 <hw_claim_or_assert>:
10000600:	b5f8      	push	{r3, r4, r5, r6, r7, lr}
10000602:	46ce      	mov	lr, r9
10000604:	4647      	mov	r7, r8
10000606:	4691      	mov	r9, r2
10000608:	b580      	push	{r7, lr}
1000060a:	f3ef 8710 	mrs	r7, PRIMASK
1000060e:	b672      	cpsid	i
10000610:	4e12      	ldr	r6, [pc, #72]	; (1000065c <hw_claim_or_assert+0x5c>)
10000612:	6833      	ldr	r3, [r6, #0]
10000614:	2b00      	cmp	r3, #0
10000616:	d0fc      	beq.n	10000612 <hw_claim_or_assert+0x12>
10000618:	f3bf 8f5f 	dmb	sy
1000061c:	08cb      	lsrs	r3, r1, #3
1000061e:	5cc5      	ldrb	r5, [r0, r3]
10000620:	2407      	movs	r4, #7
10000622:	18c2      	adds	r2, r0, r3
10000624:	0028      	movs	r0, r5
10000626:	2301      	movs	r3, #1
10000628:	400c      	ands	r4, r1
1000062a:	4694      	mov	ip, r2
1000062c:	40e0      	lsrs	r0, r4
1000062e:	001a      	movs	r2, r3
10000630:	4002      	ands	r2, r0
10000632:	4690      	mov	r8, r2
10000634:	4203      	tst	r3, r0
10000636:	d10d      	bne.n	10000654 <hw_claim_or_assert+0x54>
10000638:	40a3      	lsls	r3, r4
1000063a:	4662      	mov	r2, ip
1000063c:	432b      	orrs	r3, r5
1000063e:	7013      	strb	r3, [r2, #0]
10000640:	f3bf 8f5f 	dmb	sy
10000644:	4643      	mov	r3, r8
10000646:	6033      	str	r3, [r6, #0]
10000648:	f387 8810 	msr	PRIMASK, r7
1000064c:	bc0c      	pop	{r2, r3}
1000064e:	4690      	mov	r8, r2
10000650:	4699      	mov	r9, r3
10000652:	bdf8      	pop	{r3, r4, r5, r6, r7, pc}
10000654:	4648      	mov	r0, r9
10000656:	f000 ff4f 	bl	100014f8 <panic>
1000065a:	46c0      	nop			; (mov r8, r8)
1000065c:	d000012c 	.word	0xd000012c

10000660 <spin_locks_reset>:
10000660:	2100      	movs	r1, #0
10000662:	4b04      	ldr	r3, [pc, #16]	; (10000674 <spin_locks_reset+0x14>)
10000664:	4a04      	ldr	r2, [pc, #16]	; (10000678 <spin_locks_reset+0x18>)
10000666:	f3bf 8f5f 	dmb	sy
1000066a:	c302      	stmia	r3!, {r1}
1000066c:	4293      	cmp	r3, r2
1000066e:	d1fa      	bne.n	10000666 <spin_locks_reset+0x6>
10000670:	4770      	bx	lr
10000672:	46c0      	nop			; (mov r8, r8)
10000674:	d0000100 	.word	0xd0000100
10000678:	d0000180 	.word	0xd0000180

1000067c <next_striped_spin_lock_num>:
1000067c:	4a04      	ldr	r2, [pc, #16]	; (10000690 <next_striped_spin_lock_num+0x14>)
1000067e:	7810      	ldrb	r0, [r2, #0]
10000680:	1c43      	adds	r3, r0, #1
10000682:	b2db      	uxtb	r3, r3
10000684:	2b17      	cmp	r3, #23
10000686:	d900      	bls.n	1000068a <next_striped_spin_lock_num+0xe>
10000688:	2310      	movs	r3, #16
1000068a:	7013      	strb	r3, [r2, #0]
1000068c:	4770      	bx	lr
1000068e:	46c0      	nop			; (mov r8, r8)
10000690:	20000188 	.word	0x20000188

10000694 <running_on_fpga>:
10000694:	4b02      	ldr	r3, [pc, #8]	; (100006a0 <running_on_fpga+0xc>)
10000696:	6818      	ldr	r0, [r3, #0]
10000698:	0780      	lsls	r0, r0, #30
1000069a:	0fc0      	lsrs	r0, r0, #31
1000069c:	4770      	bx	lr
1000069e:	46c0      	nop			; (mov r8, r8)
100006a0:	4006c000 	.word	0x4006c000

100006a4 <uart_init>:
100006a4:	b5f0      	push	{r4, r5, r6, r7, lr}
100006a6:	46c6      	mov	lr, r8
100006a8:	0005      	movs	r5, r0
100006aa:	b500      	push	{lr}
100006ac:	2006      	movs	r0, #6
100006ae:	000e      	movs	r6, r1
100006b0:	f001 f8b0 	bl	10001814 <clock_get_hz>
100006b4:	2800      	cmp	r0, #0
100006b6:	d04d      	beq.n	10000754 <uart_init+0xb0>
100006b8:	4b29      	ldr	r3, [pc, #164]	; (10000760 <uart_init+0xbc>)
100006ba:	492a      	ldr	r1, [pc, #168]	; (10000764 <uart_init+0xc0>)
100006bc:	18eb      	adds	r3, r5, r3
100006be:	425a      	negs	r2, r3
100006c0:	4153      	adcs	r3, r2
100006c2:	2280      	movs	r2, #128	; 0x80
100006c4:	03d2      	lsls	r2, r2, #15
100006c6:	4694      	mov	ip, r2
100006c8:	425b      	negs	r3, r3
100006ca:	4013      	ands	r3, r2
100006cc:	4a26      	ldr	r2, [pc, #152]	; (10000768 <uart_init+0xc4>)
100006ce:	4463      	add	r3, ip
100006d0:	6013      	str	r3, [r2, #0]
100006d2:	4a26      	ldr	r2, [pc, #152]	; (1000076c <uart_init+0xc8>)
100006d4:	6013      	str	r3, [r2, #0]
100006d6:	001c      	movs	r4, r3
100006d8:	688a      	ldr	r2, [r1, #8]
100006da:	4394      	bics	r4, r2
100006dc:	d1fb      	bne.n	100006d6 <uart_init+0x32>
100006de:	4b20      	ldr	r3, [pc, #128]	; (10000760 <uart_init+0xbc>)
100006e0:	2180      	movs	r1, #128	; 0x80
100006e2:	18eb      	adds	r3, r5, r3
100006e4:	425a      	negs	r2, r3
100006e6:	4153      	adcs	r3, r2
100006e8:	4a21      	ldr	r2, [pc, #132]	; (10000770 <uart_init+0xcc>)
100006ea:	005b      	lsls	r3, r3, #1
100006ec:	0049      	lsls	r1, r1, #1
100006ee:	2006      	movs	r0, #6
100006f0:	5299      	strh	r1, [r3, r2]
100006f2:	f001 f88f 	bl	10001814 <clock_get_hz>
100006f6:	0031      	movs	r1, r6
100006f8:	00c0      	lsls	r0, r0, #3
100006fa:	f001 facd 	bl	10001c98 <__wrap___aeabi_uidiv>
100006fe:	267f      	movs	r6, #127	; 0x7f
10000700:	4b1c      	ldr	r3, [pc, #112]	; (10000774 <uart_init+0xd0>)
10000702:	4006      	ands	r6, r0
10000704:	09c7      	lsrs	r7, r0, #7
10000706:	3601      	adds	r6, #1
10000708:	0876      	lsrs	r6, r6, #1
1000070a:	626f      	str	r7, [r5, #36]	; 0x24
1000070c:	429f      	cmp	r7, r3
1000070e:	d024      	beq.n	1000075a <uart_init+0xb6>
10000710:	62ae      	str	r6, [r5, #40]	; 0x28
10000712:	232c      	movs	r3, #44	; 0x2c
10000714:	4698      	mov	r8, r3
10000716:	2480      	movs	r4, #128	; 0x80
10000718:	44a8      	add	r8, r5
1000071a:	4643      	mov	r3, r8
1000071c:	01a4      	lsls	r4, r4, #6
1000071e:	431c      	orrs	r4, r3
10000720:	2300      	movs	r3, #0
10000722:	2006      	movs	r0, #6
10000724:	6023      	str	r3, [r4, #0]
10000726:	f001 f875 	bl	10001814 <clock_get_hz>
1000072a:	01b9      	lsls	r1, r7, #6
1000072c:	1989      	adds	r1, r1, r6
1000072e:	0080      	lsls	r0, r0, #2
10000730:	f001 fab2 	bl	10001c98 <__wrap___aeabi_uidiv>
10000734:	2360      	movs	r3, #96	; 0x60
10000736:	6aea      	ldr	r2, [r5, #44]	; 0x2c
10000738:	4641      	mov	r1, r8
1000073a:	4053      	eors	r3, r2
1000073c:	226e      	movs	r2, #110	; 0x6e
1000073e:	401a      	ands	r2, r3
10000740:	2380      	movs	r3, #128	; 0x80
10000742:	015b      	lsls	r3, r3, #5
10000744:	430b      	orrs	r3, r1
10000746:	601a      	str	r2, [r3, #0]
10000748:	4b0b      	ldr	r3, [pc, #44]	; (10000778 <uart_init+0xd4>)
1000074a:	632b      	str	r3, [r5, #48]	; 0x30
1000074c:	2310      	movs	r3, #16
1000074e:	6023      	str	r3, [r4, #0]
10000750:	3b0d      	subs	r3, #13
10000752:	64ab      	str	r3, [r5, #72]	; 0x48
10000754:	bc04      	pop	{r2}
10000756:	4690      	mov	r8, r2
10000758:	bdf0      	pop	{r4, r5, r6, r7, pc}
1000075a:	62ac      	str	r4, [r5, #40]	; 0x28
1000075c:	e7d9      	b.n	10000712 <uart_init+0x6e>
1000075e:	46c0      	nop			; (mov r8, r8)
10000760:	bffc8000 	.word	0xbffc8000
10000764:	4000c000 	.word	0x4000c000
10000768:	4000e000 	.word	0x4000e000
1000076c:	4000f000 	.word	0x4000f000
10000770:	20000b34 	.word	0x20000b34
10000774:	0000ffff 	.word	0x0000ffff
10000778:	00000301 	.word	0x00000301

1000077c <timer_pool_entry_comparator>:
1000077c:	6883      	ldr	r3, [r0, #8]
1000077e:	480b      	ldr	r0, [pc, #44]	; (100007ac <timer_pool_entry_comparator+0x30>)
10000780:	b510      	push	{r4, lr}
10000782:	4684      	mov	ip, r0
10000784:	4461      	add	r1, ip
10000786:	4462      	add	r2, ip
10000788:	0109      	lsls	r1, r1, #4
1000078a:	0112      	lsls	r2, r2, #4
1000078c:	189a      	adds	r2, r3, r2
1000078e:	1859      	adds	r1, r3, r1
10000790:	6854      	ldr	r4, [r2, #4]
10000792:	684b      	ldr	r3, [r1, #4]
10000794:	2001      	movs	r0, #1
10000796:	429c      	cmp	r4, r3
10000798:	d801      	bhi.n	1000079e <timer_pool_entry_comparator+0x22>
1000079a:	d002      	beq.n	100007a2 <timer_pool_entry_comparator+0x26>
1000079c:	2000      	movs	r0, #0
1000079e:	b2c0      	uxtb	r0, r0
100007a0:	bd10      	pop	{r4, pc}
100007a2:	6812      	ldr	r2, [r2, #0]
100007a4:	680b      	ldr	r3, [r1, #0]
100007a6:	429a      	cmp	r2, r3
100007a8:	d8f9      	bhi.n	1000079e <timer_pool_entry_comparator+0x22>
100007aa:	e7f7      	b.n	1000079c <timer_pool_entry_comparator+0x20>
100007ac:	0fffffff 	.word	0x0fffffff

100007b0 <sev_callback>:
100007b0:	bf40      	sev
100007b2:	2000      	movs	r0, #0
100007b4:	2100      	movs	r1, #0
100007b6:	4770      	bx	lr

100007b8 <add_alarm_under_lock>:
100007b8:	b5f0      	push	{r4, r5, r6, r7, lr}
100007ba:	4657      	mov	r7, sl
100007bc:	4645      	mov	r5, r8
100007be:	46de      	mov	lr, fp
100007c0:	464e      	mov	r6, r9
100007c2:	b5e0      	push	{r5, r6, r7, lr}
100007c4:	b083      	sub	sp, #12
100007c6:	001f      	movs	r7, r3
100007c8:	ab0f      	add	r3, sp, #60	; 0x3c
100007ca:	781b      	ldrb	r3, [r3, #0]
100007cc:	9c0e      	ldr	r4, [sp, #56]	; 0x38
100007ce:	0005      	movs	r5, r0
100007d0:	4692      	mov	sl, r2
100007d2:	9301      	str	r3, [sp, #4]
100007d4:	2c00      	cmp	r4, #0
100007d6:	d10d      	bne.n	100007f4 <add_alarm_under_lock+0x3c>
100007d8:	6802      	ldr	r2, [r0, #0]
100007da:	7b94      	ldrb	r4, [r2, #14]
100007dc:	2c00      	cmp	r4, #0
100007de:	d056      	beq.n	1000088e <add_alarm_under_lock+0xd6>
100007e0:	6811      	ldr	r1, [r2, #0]
100007e2:	0063      	lsls	r3, r4, #1
100007e4:	468c      	mov	ip, r1
100007e6:	191b      	adds	r3, r3, r4
100007e8:	4463      	add	r3, ip
100007ea:	3b03      	subs	r3, #3
100007ec:	785b      	ldrb	r3, [r3, #1]
100007ee:	7393      	strb	r3, [r2, #14]
100007f0:	2b00      	cmp	r3, #0
100007f2:	d054      	beq.n	1000089e <add_alarm_under_lock+0xe6>
100007f4:	68aa      	ldr	r2, [r5, #8]
100007f6:	b2e3      	uxtb	r3, r4
100007f8:	4694      	mov	ip, r2
100007fa:	4652      	mov	r2, sl
100007fc:	469b      	mov	fp, r3
100007fe:	4b38      	ldr	r3, [pc, #224]	; (100008e0 <add_alarm_under_lock+0x128>)
10000800:	682e      	ldr	r6, [r5, #0]
10000802:	18e3      	adds	r3, r4, r3
10000804:	011b      	lsls	r3, r3, #4
10000806:	4463      	add	r3, ip
10000808:	601a      	str	r2, [r3, #0]
1000080a:	9a0c      	ldr	r2, [sp, #48]	; 0x30
1000080c:	605f      	str	r7, [r3, #4]
1000080e:	609a      	str	r2, [r3, #8]
10000810:	9a0d      	ldr	r2, [sp, #52]	; 0x34
10000812:	60da      	str	r2, [r3, #12]
10000814:	23d0      	movs	r3, #208	; 0xd0
10000816:	2280      	movs	r2, #128	; 0x80
10000818:	061b      	lsls	r3, r3, #24
1000081a:	0312      	lsls	r2, r2, #12
1000081c:	615a      	str	r2, [r3, #20]
1000081e:	0063      	lsls	r3, r4, #1
10000820:	191b      	adds	r3, r3, r4
10000822:	3b03      	subs	r3, #3
10000824:	4698      	mov	r8, r3
10000826:	2200      	movs	r2, #0
10000828:	6833      	ldr	r3, [r6, #0]
1000082a:	4443      	add	r3, r8
1000082c:	709a      	strb	r2, [r3, #2]
1000082e:	705a      	strb	r2, [r3, #1]
10000830:	701a      	strb	r2, [r3, #0]
10000832:	7b73      	ldrb	r3, [r6, #13]
10000834:	4699      	mov	r9, r3
10000836:	2b00      	cmp	r3, #0
10000838:	d017      	beq.n	1000086a <add_alarm_under_lock+0xb2>
1000083a:	465a      	mov	r2, fp
1000083c:	0019      	movs	r1, r3
1000083e:	68b0      	ldr	r0, [r6, #8]
10000840:	6873      	ldr	r3, [r6, #4]
10000842:	4798      	blx	r3
10000844:	6832      	ldr	r2, [r6, #0]
10000846:	2800      	cmp	r0, #0
10000848:	d12b      	bne.n	100008a2 <add_alarm_under_lock+0xea>
1000084a:	4643      	mov	r3, r8
1000084c:	18d1      	adds	r1, r2, r3
1000084e:	464b      	mov	r3, r9
10000850:	4658      	mov	r0, fp
10000852:	005b      	lsls	r3, r3, #1
10000854:	444b      	add	r3, r9
10000856:	3b03      	subs	r3, #3
10000858:	18d3      	adds	r3, r2, r3
1000085a:	7098      	strb	r0, [r3, #2]
1000085c:	4640      	mov	r0, r8
1000085e:	5c12      	ldrb	r2, [r2, r0]
10000860:	2a00      	cmp	r2, #0
10000862:	d000      	beq.n	10000866 <add_alarm_under_lock+0xae>
10000864:	705a      	strb	r2, [r3, #1]
10000866:	464b      	mov	r3, r9
10000868:	700b      	strb	r3, [r1, #0]
1000086a:	465b      	mov	r3, fp
1000086c:	7373      	strb	r3, [r6, #13]
1000086e:	4652      	mov	r2, sl
10000870:	003b      	movs	r3, r7
10000872:	7d28      	ldrb	r0, [r5, #20]
10000874:	f000 fb12 	bl	10000e9c <hardware_alarm_set_target>
10000878:	1e06      	subs	r6, r0, #0
1000087a:	d002      	beq.n	10000882 <add_alarm_under_lock+0xca>
1000087c:	9b01      	ldr	r3, [sp, #4]
1000087e:	2b00      	cmp	r3, #0
10000880:	d026      	beq.n	100008d0 <add_alarm_under_lock+0x118>
10000882:	9b10      	ldr	r3, [sp, #64]	; 0x40
10000884:	2b00      	cmp	r3, #0
10000886:	d028      	beq.n	100008da <add_alarm_under_lock+0x122>
10000888:	0020      	movs	r0, r4
1000088a:	701e      	strb	r6, [r3, #0]
1000088c:	e000      	b.n	10000890 <add_alarm_under_lock+0xd8>
1000088e:	2000      	movs	r0, #0
10000890:	b003      	add	sp, #12
10000892:	bc3c      	pop	{r2, r3, r4, r5}
10000894:	4690      	mov	r8, r2
10000896:	4699      	mov	r9, r3
10000898:	46a2      	mov	sl, r4
1000089a:	46ab      	mov	fp, r5
1000089c:	bdf0      	pop	{r4, r5, r6, r7, pc}
1000089e:	73d3      	strb	r3, [r2, #15]
100008a0:	e7a8      	b.n	100007f4 <add_alarm_under_lock+0x3c>
100008a2:	464b      	mov	r3, r9
100008a4:	005b      	lsls	r3, r3, #1
100008a6:	444b      	add	r3, r9
100008a8:	3b03      	subs	r3, #3
100008aa:	18d1      	adds	r1, r2, r3
100008ac:	468c      	mov	ip, r1
100008ae:	4641      	mov	r1, r8
100008b0:	4648      	mov	r0, r9
100008b2:	1851      	adds	r1, r2, r1
100008b4:	7088      	strb	r0, [r1, #2]
100008b6:	5cd3      	ldrb	r3, [r2, r3]
100008b8:	2b00      	cmp	r3, #0
100008ba:	d000      	beq.n	100008be <add_alarm_under_lock+0x106>
100008bc:	704b      	strb	r3, [r1, #1]
100008be:	465b      	mov	r3, fp
100008c0:	4662      	mov	r2, ip
100008c2:	7013      	strb	r3, [r2, #0]
100008c4:	464b      	mov	r3, r9
100008c6:	0020      	movs	r0, r4
100008c8:	7373      	strb	r3, [r6, #13]
100008ca:	45a1      	cmp	r9, r4
100008cc:	d1e0      	bne.n	10000890 <add_alarm_under_lock+0xd8>
100008ce:	e7ce      	b.n	1000086e <add_alarm_under_lock+0xb6>
100008d0:	4659      	mov	r1, fp
100008d2:	6828      	ldr	r0, [r5, #0]
100008d4:	f000 fd40 	bl	10001358 <ph_delete>
100008d8:	e7d3      	b.n	10000882 <add_alarm_under_lock+0xca>
100008da:	0020      	movs	r0, r4
100008dc:	e7d8      	b.n	10000890 <add_alarm_under_lock+0xd8>
100008de:	46c0      	nop			; (mov r8, r8)
100008e0:	0fffffff 	.word	0x0fffffff

100008e4 <alarm_pool_alarm_callback>:
100008e4:	b5f0      	push	{r4, r5, r6, r7, lr}
100008e6:	46de      	mov	lr, fp
100008e8:	464e      	mov	r6, r9
100008ea:	4657      	mov	r7, sl
100008ec:	4645      	mov	r5, r8
100008ee:	2300      	movs	r3, #0
100008f0:	b5e0      	push	{r5, r6, r7, lr}
100008f2:	b08d      	sub	sp, #52	; 0x34
100008f4:	930a      	str	r3, [sp, #40]	; 0x28
100008f6:	4b71      	ldr	r3, [pc, #452]	; (10000abc <alarm_pool_alarm_callback+0x1d8>)
100008f8:	0082      	lsls	r2, r0, #2
100008fa:	58d3      	ldr	r3, [r2, r3]
100008fc:	900b      	str	r0, [sp, #44]	; 0x2c
100008fe:	4699      	mov	r9, r3
10000900:	2300      	movs	r3, #0
10000902:	469b      	mov	fp, r3
10000904:	464b      	mov	r3, r9
10000906:	9307      	str	r3, [sp, #28]
10000908:	f000 fa68 	bl	10000ddc <time_us_64>
1000090c:	9c07      	ldr	r4, [sp, #28]
1000090e:	0006      	movs	r6, r0
10000910:	000f      	movs	r7, r1
10000912:	6862      	ldr	r2, [r4, #4]
10000914:	f3ef 8510 	mrs	r5, PRIMASK
10000918:	b672      	cpsid	i
1000091a:	6813      	ldr	r3, [r2, #0]
1000091c:	2b00      	cmp	r3, #0
1000091e:	d0fc      	beq.n	1000091a <alarm_pool_alarm_callback+0x36>
10000920:	0022      	movs	r2, r4
10000922:	9407      	str	r4, [sp, #28]
10000924:	f3bf 8f5f 	dmb	sy
10000928:	6824      	ldr	r4, [r4, #0]
1000092a:	7b63      	ldrb	r3, [r4, #13]
1000092c:	4699      	mov	r9, r3
1000092e:	2b00      	cmp	r3, #0
10000930:	d100      	bne.n	10000934 <alarm_pool_alarm_callback+0x50>
10000932:	e070      	b.n	10000a16 <alarm_pool_alarm_callback+0x132>
10000934:	6892      	ldr	r2, [r2, #8]
10000936:	4b62      	ldr	r3, [pc, #392]	; (10000ac0 <alarm_pool_alarm_callback+0x1dc>)
10000938:	4690      	mov	r8, r2
1000093a:	444b      	add	r3, r9
1000093c:	011b      	lsls	r3, r3, #4
1000093e:	4498      	add	r8, r3
10000940:	4643      	mov	r3, r8
10000942:	681a      	ldr	r2, [r3, #0]
10000944:	685b      	ldr	r3, [r3, #4]
10000946:	0010      	movs	r0, r2
10000948:	0019      	movs	r1, r3
1000094a:	1b80      	subs	r0, r0, r6
1000094c:	41b9      	sbcs	r1, r7
1000094e:	2900      	cmp	r1, #0
10000950:	dd68      	ble.n	10000a24 <alarm_pool_alarm_callback+0x140>
10000952:	980b      	ldr	r0, [sp, #44]	; 0x2c
10000954:	f000 faa2 	bl	10000e9c <hardware_alarm_set_target>
10000958:	2300      	movs	r3, #0
1000095a:	2600      	movs	r6, #0
1000095c:	4698      	mov	r8, r3
1000095e:	2700      	movs	r7, #0
10000960:	469a      	mov	sl, r3
10000962:	9c07      	ldr	r4, [sp, #28]
10000964:	6863      	ldr	r3, [r4, #4]
10000966:	f3bf 8f5f 	dmb	sy
1000096a:	465a      	mov	r2, fp
1000096c:	601a      	str	r2, [r3, #0]
1000096e:	f385 8810 	msr	PRIMASK, r5
10000972:	4653      	mov	r3, sl
10000974:	2b00      	cmp	r3, #0
10000976:	d108      	bne.n	1000098a <alarm_pool_alarm_callback+0xa6>
10000978:	2800      	cmp	r0, #0
1000097a:	d1c5      	bne.n	10000908 <alarm_pool_alarm_callback+0x24>
1000097c:	b00d      	add	sp, #52	; 0x34
1000097e:	bc3c      	pop	{r2, r3, r4, r5}
10000980:	4690      	mov	r8, r2
10000982:	4699      	mov	r9, r3
10000984:	46a2      	mov	sl, r4
10000986:	46ab      	mov	fp, r5
10000988:	bdf0      	pop	{r4, r5, r6, r7, pc}
1000098a:	23d0      	movs	r3, #208	; 0xd0
1000098c:	2280      	movs	r2, #128	; 0x80
1000098e:	2180      	movs	r1, #128	; 0x80
10000990:	061b      	lsls	r3, r3, #24
10000992:	0392      	lsls	r2, r2, #14
10000994:	0309      	lsls	r1, r1, #12
10000996:	615a      	str	r2, [r3, #20]
10000998:	6199      	str	r1, [r3, #24]
1000099a:	619a      	str	r2, [r3, #24]
1000099c:	9b0a      	ldr	r3, [sp, #40]	; 0x28
1000099e:	4641      	mov	r1, r8
100009a0:	0218      	lsls	r0, r3, #8
100009a2:	464b      	mov	r3, r9
100009a4:	4318      	orrs	r0, r3
100009a6:	47d0      	blx	sl
100009a8:	9008      	str	r0, [sp, #32]
100009aa:	9109      	str	r1, [sp, #36]	; 0x24
100009ac:	6862      	ldr	r2, [r4, #4]
100009ae:	f3ef 8510 	mrs	r5, PRIMASK
100009b2:	b672      	cpsid	i
100009b4:	6813      	ldr	r3, [r2, #0]
100009b6:	2b00      	cmp	r3, #0
100009b8:	d0fc      	beq.n	100009b4 <alarm_pool_alarm_callback+0xd0>
100009ba:	9407      	str	r4, [sp, #28]
100009bc:	f3bf 8f5f 	dmb	sy
100009c0:	9908      	ldr	r1, [sp, #32]
100009c2:	9a09      	ldr	r2, [sp, #36]	; 0x24
100009c4:	2a00      	cmp	r2, #0
100009c6:	db49      	blt.n	10000a5c <alarm_pool_alarm_callback+0x178>
100009c8:	4311      	orrs	r1, r2
100009ca:	d003      	beq.n	100009d4 <alarm_pool_alarm_callback+0xf0>
100009cc:	9b07      	ldr	r3, [sp, #28]
100009ce:	691b      	ldr	r3, [r3, #16]
100009d0:	2b00      	cmp	r3, #0
100009d2:	d15e      	bne.n	10000a92 <alarm_pool_alarm_callback+0x1ae>
100009d4:	9b07      	ldr	r3, [sp, #28]
100009d6:	681b      	ldr	r3, [r3, #0]
100009d8:	7bda      	ldrb	r2, [r3, #15]
100009da:	2a00      	cmp	r2, #0
100009dc:	d007      	beq.n	100009ee <alarm_pool_alarm_callback+0x10a>
100009de:	0051      	lsls	r1, r2, #1
100009e0:	188a      	adds	r2, r1, r2
100009e2:	6819      	ldr	r1, [r3, #0]
100009e4:	468c      	mov	ip, r1
100009e6:	4649      	mov	r1, r9
100009e8:	4462      	add	r2, ip
100009ea:	3a03      	subs	r2, #3
100009ec:	7051      	strb	r1, [r2, #1]
100009ee:	464a      	mov	r2, r9
100009f0:	73da      	strb	r2, [r3, #15]
100009f2:	464b      	mov	r3, r9
100009f4:	9a07      	ldr	r2, [sp, #28]
100009f6:	3b01      	subs	r3, #1
100009f8:	68d1      	ldr	r1, [r2, #12]
100009fa:	5cca      	ldrb	r2, [r1, r3]
100009fc:	3201      	adds	r2, #1
100009fe:	54ca      	strb	r2, [r1, r3]
10000a00:	465b      	mov	r3, fp
10000a02:	9a07      	ldr	r2, [sp, #28]
10000a04:	6113      	str	r3, [r2, #16]
10000a06:	6853      	ldr	r3, [r2, #4]
10000a08:	f3bf 8f5f 	dmb	sy
10000a0c:	465a      	mov	r2, fp
10000a0e:	601a      	str	r2, [r3, #0]
10000a10:	f385 8810 	msr	PRIMASK, r5
10000a14:	e778      	b.n	10000908 <alarm_pool_alarm_callback+0x24>
10000a16:	2300      	movs	r3, #0
10000a18:	2600      	movs	r6, #0
10000a1a:	4698      	mov	r8, r3
10000a1c:	2700      	movs	r7, #0
10000a1e:	469a      	mov	sl, r3
10000a20:	2000      	movs	r0, #0
10000a22:	e79e      	b.n	10000962 <alarm_pool_alarm_callback+0x7e>
10000a24:	2900      	cmp	r1, #0
10000a26:	d102      	bne.n	10000a2e <alarm_pool_alarm_callback+0x14a>
10000a28:	2800      	cmp	r0, #0
10000a2a:	d000      	beq.n	10000a2e <alarm_pool_alarm_callback+0x14a>
10000a2c:	e791      	b.n	10000952 <alarm_pool_alarm_callback+0x6e>
10000a2e:	2101      	movs	r1, #1
10000a30:	0020      	movs	r0, r4
10000a32:	f000 fbf3 	bl	1000121c <ph_remove_head_reserve>
10000a36:	4643      	mov	r3, r8
10000a38:	681e      	ldr	r6, [r3, #0]
10000a3a:	685f      	ldr	r7, [r3, #4]
10000a3c:	689b      	ldr	r3, [r3, #8]
10000a3e:	9a07      	ldr	r2, [sp, #28]
10000a40:	469a      	mov	sl, r3
10000a42:	4643      	mov	r3, r8
10000a44:	68db      	ldr	r3, [r3, #12]
10000a46:	4698      	mov	r8, r3
10000a48:	68d3      	ldr	r3, [r2, #12]
10000a4a:	444b      	add	r3, r9
10000a4c:	3b01      	subs	r3, #1
10000a4e:	781b      	ldrb	r3, [r3, #0]
10000a50:	930a      	str	r3, [sp, #40]	; 0x28
10000a52:	021b      	lsls	r3, r3, #8
10000a54:	4303      	orrs	r3, r0
10000a56:	6113      	str	r3, [r2, #16]
10000a58:	2000      	movs	r0, #0
10000a5a:	e782      	b.n	10000962 <alarm_pool_alarm_callback+0x7e>
10000a5c:	6923      	ldr	r3, [r4, #16]
10000a5e:	2b00      	cmp	r3, #0
10000a60:	d0b8      	beq.n	100009d4 <alarm_pool_alarm_callback+0xf0>
10000a62:	0033      	movs	r3, r6
10000a64:	003c      	movs	r4, r7
10000a66:	1a5b      	subs	r3, r3, r1
10000a68:	4194      	sbcs	r4, r2
10000a6a:	001a      	movs	r2, r3
10000a6c:	0023      	movs	r3, r4
10000a6e:	42a7      	cmp	r7, r4
10000a70:	d819      	bhi.n	10000aa6 <alarm_pool_alarm_callback+0x1c2>
10000a72:	429f      	cmp	r7, r3
10000a74:	d01b      	beq.n	10000aae <alarm_pool_alarm_callback+0x1ca>
10000a76:	4659      	mov	r1, fp
10000a78:	9104      	str	r1, [sp, #16]
10000a7a:	2101      	movs	r1, #1
10000a7c:	9103      	str	r1, [sp, #12]
10000a7e:	4649      	mov	r1, r9
10000a80:	9102      	str	r1, [sp, #8]
10000a82:	4641      	mov	r1, r8
10000a84:	9101      	str	r1, [sp, #4]
10000a86:	4651      	mov	r1, sl
10000a88:	9807      	ldr	r0, [sp, #28]
10000a8a:	9100      	str	r1, [sp, #0]
10000a8c:	f7ff fe94 	bl	100007b8 <add_alarm_under_lock>
10000a90:	e7b6      	b.n	10000a00 <alarm_pool_alarm_callback+0x11c>
10000a92:	f000 f9a3 	bl	10000ddc <time_us_64>
10000a96:	9a08      	ldr	r2, [sp, #32]
10000a98:	9b09      	ldr	r3, [sp, #36]	; 0x24
10000a9a:	0006      	movs	r6, r0
10000a9c:	000f      	movs	r7, r1
10000a9e:	1992      	adds	r2, r2, r6
10000aa0:	417b      	adcs	r3, r7
10000aa2:	4299      	cmp	r1, r3
10000aa4:	d9e5      	bls.n	10000a72 <alarm_pool_alarm_callback+0x18e>
10000aa6:	2201      	movs	r2, #1
10000aa8:	4252      	negs	r2, r2
10000aaa:	17d3      	asrs	r3, r2, #31
10000aac:	e7e3      	b.n	10000a76 <alarm_pool_alarm_callback+0x192>
10000aae:	4296      	cmp	r6, r2
10000ab0:	d9e1      	bls.n	10000a76 <alarm_pool_alarm_callback+0x192>
10000ab2:	2201      	movs	r2, #1
10000ab4:	4252      	negs	r2, r2
10000ab6:	17d3      	asrs	r3, r2, #31
10000ab8:	e7dd      	b.n	10000a76 <alarm_pool_alarm_callback+0x192>
10000aba:	46c0      	nop			; (mov r8, r8)
10000abc:	20000b10 	.word	0x20000b10
10000ac0:	0fffffff 	.word	0x0fffffff

10000ac4 <alarm_pool_add_alarm_at.constprop.0>:
10000ac4:	b5f8      	push	{r3, r4, r5, r6, r7, lr}
10000ac6:	4657      	mov	r7, sl
10000ac8:	464e      	mov	r6, r9
10000aca:	46de      	mov	lr, fp
10000acc:	4645      	mov	r5, r8
10000ace:	4691      	mov	r9, r2
10000ad0:	b5e0      	push	{r5, r6, r7, lr}
10000ad2:	0004      	movs	r4, r0
10000ad4:	469a      	mov	sl, r3
10000ad6:	6842      	ldr	r2, [r0, #4]
10000ad8:	f3ef 8810 	mrs	r8, PRIMASK
10000adc:	b672      	cpsid	i
10000ade:	6813      	ldr	r3, [r2, #0]
10000ae0:	2b00      	cmp	r3, #0
10000ae2:	d0fc      	beq.n	10000ade <alarm_pool_add_alarm_at.constprop.0+0x1a>
10000ae4:	f3bf 8f5f 	dmb	sy
10000ae8:	6826      	ldr	r6, [r4, #0]
10000aea:	7bb5      	ldrb	r5, [r6, #14]
10000aec:	2d00      	cmp	r5, #0
10000aee:	d040      	beq.n	10000b72 <alarm_pool_add_alarm_at.constprop.0+0xae>
10000af0:	006f      	lsls	r7, r5, #1
10000af2:	6833      	ldr	r3, [r6, #0]
10000af4:	197f      	adds	r7, r7, r5
10000af6:	3f03      	subs	r7, #3
10000af8:	19db      	adds	r3, r3, r7
10000afa:	785b      	ldrb	r3, [r3, #1]
10000afc:	73b3      	strb	r3, [r6, #14]
10000afe:	2b00      	cmp	r3, #0
10000b00:	d100      	bne.n	10000b04 <alarm_pool_add_alarm_at.constprop.0+0x40>
10000b02:	73f3      	strb	r3, [r6, #15]
10000b04:	4b37      	ldr	r3, [pc, #220]	; (10000be4 <alarm_pool_add_alarm_at.constprop.0+0x120>)
10000b06:	2200      	movs	r2, #0
10000b08:	18e9      	adds	r1, r5, r3
10000b0a:	68a3      	ldr	r3, [r4, #8]
10000b0c:	0109      	lsls	r1, r1, #4
10000b0e:	469c      	mov	ip, r3
10000b10:	464b      	mov	r3, r9
10000b12:	4461      	add	r1, ip
10000b14:	600b      	str	r3, [r1, #0]
10000b16:	4653      	mov	r3, sl
10000b18:	604b      	str	r3, [r1, #4]
10000b1a:	4b33      	ldr	r3, [pc, #204]	; (10000be8 <alarm_pool_add_alarm_at.constprop.0+0x124>)
10000b1c:	60ca      	str	r2, [r1, #12]
10000b1e:	608b      	str	r3, [r1, #8]
10000b20:	23d0      	movs	r3, #208	; 0xd0
10000b22:	2180      	movs	r1, #128	; 0x80
10000b24:	061b      	lsls	r3, r3, #24
10000b26:	0309      	lsls	r1, r1, #12
10000b28:	6159      	str	r1, [r3, #20]
10000b2a:	6833      	ldr	r3, [r6, #0]
10000b2c:	19db      	adds	r3, r3, r7
10000b2e:	709a      	strb	r2, [r3, #2]
10000b30:	705a      	strb	r2, [r3, #1]
10000b32:	701a      	strb	r2, [r3, #0]
10000b34:	7b73      	ldrb	r3, [r6, #13]
10000b36:	469b      	mov	fp, r3
10000b38:	2b00      	cmp	r3, #0
10000b3a:	d035      	beq.n	10000ba8 <alarm_pool_add_alarm_at.constprop.0+0xe4>
10000b3c:	002a      	movs	r2, r5
10000b3e:	0019      	movs	r1, r3
10000b40:	68b0      	ldr	r0, [r6, #8]
10000b42:	6873      	ldr	r3, [r6, #4]
10000b44:	4798      	blx	r3
10000b46:	6832      	ldr	r2, [r6, #0]
10000b48:	2800      	cmp	r0, #0
10000b4a:	d020      	beq.n	10000b8e <alarm_pool_add_alarm_at.constprop.0+0xca>
10000b4c:	465b      	mov	r3, fp
10000b4e:	4658      	mov	r0, fp
10000b50:	005b      	lsls	r3, r3, #1
10000b52:	445b      	add	r3, fp
10000b54:	19d7      	adds	r7, r2, r7
10000b56:	3b03      	subs	r3, #3
10000b58:	70b8      	strb	r0, [r7, #2]
10000b5a:	18d1      	adds	r1, r2, r3
10000b5c:	5cd3      	ldrb	r3, [r2, r3]
10000b5e:	2b00      	cmp	r3, #0
10000b60:	d000      	beq.n	10000b64 <alarm_pool_add_alarm_at.constprop.0+0xa0>
10000b62:	707b      	strb	r3, [r7, #1]
10000b64:	465b      	mov	r3, fp
10000b66:	700d      	strb	r5, [r1, #0]
10000b68:	7373      	strb	r3, [r6, #13]
10000b6a:	455d      	cmp	r5, fp
10000b6c:	d01d      	beq.n	10000baa <alarm_pool_add_alarm_at.constprop.0+0xe6>
10000b6e:	2600      	movs	r6, #0
10000b70:	e026      	b.n	10000bc0 <alarm_pool_add_alarm_at.constprop.0+0xfc>
10000b72:	6863      	ldr	r3, [r4, #4]
10000b74:	f3bf 8f5f 	dmb	sy
10000b78:	601d      	str	r5, [r3, #0]
10000b7a:	f388 8810 	msr	PRIMASK, r8
10000b7e:	2001      	movs	r0, #1
10000b80:	4240      	negs	r0, r0
10000b82:	bc3c      	pop	{r2, r3, r4, r5}
10000b84:	4690      	mov	r8, r2
10000b86:	4699      	mov	r9, r3
10000b88:	46a2      	mov	sl, r4
10000b8a:	46ab      	mov	fp, r5
10000b8c:	bdf8      	pop	{r3, r4, r5, r6, r7, pc}
10000b8e:	465b      	mov	r3, fp
10000b90:	005b      	lsls	r3, r3, #1
10000b92:	445b      	add	r3, fp
10000b94:	3b03      	subs	r3, #3
10000b96:	18d3      	adds	r3, r2, r3
10000b98:	709d      	strb	r5, [r3, #2]
10000b9a:	19d1      	adds	r1, r2, r7
10000b9c:	5dd2      	ldrb	r2, [r2, r7]
10000b9e:	2a00      	cmp	r2, #0
10000ba0:	d000      	beq.n	10000ba4 <alarm_pool_add_alarm_at.constprop.0+0xe0>
10000ba2:	705a      	strb	r2, [r3, #1]
10000ba4:	465b      	mov	r3, fp
10000ba6:	700b      	strb	r3, [r1, #0]
10000ba8:	7375      	strb	r5, [r6, #13]
10000baa:	464a      	mov	r2, r9
10000bac:	4653      	mov	r3, sl
10000bae:	7d20      	ldrb	r0, [r4, #20]
10000bb0:	f000 f974 	bl	10000e9c <hardware_alarm_set_target>
10000bb4:	1e06      	subs	r6, r0, #0
10000bb6:	d0da      	beq.n	10000b6e <alarm_pool_add_alarm_at.constprop.0+0xaa>
10000bb8:	0029      	movs	r1, r5
10000bba:	6820      	ldr	r0, [r4, #0]
10000bbc:	f000 fbcc 	bl	10001358 <ph_delete>
10000bc0:	68e3      	ldr	r3, [r4, #12]
10000bc2:	6862      	ldr	r2, [r4, #4]
10000bc4:	195b      	adds	r3, r3, r5
10000bc6:	3b01      	subs	r3, #1
10000bc8:	781b      	ldrb	r3, [r3, #0]
10000bca:	f3bf 8f5f 	dmb	sy
10000bce:	2100      	movs	r1, #0
10000bd0:	6011      	str	r1, [r2, #0]
10000bd2:	f388 8810 	msr	PRIMASK, r8
10000bd6:	2000      	movs	r0, #0
10000bd8:	2e00      	cmp	r6, #0
10000bda:	d1d2      	bne.n	10000b82 <alarm_pool_add_alarm_at.constprop.0+0xbe>
10000bdc:	0218      	lsls	r0, r3, #8
10000bde:	4328      	orrs	r0, r5
10000be0:	e7cf      	b.n	10000b82 <alarm_pool_add_alarm_at.constprop.0+0xbe>
10000be2:	46c0      	nop			; (mov r8, r8)
10000be4:	0fffffff 	.word	0x0fffffff
10000be8:	100007b1 	.word	0x100007b1

10000bec <alarm_pool_init_default>:
10000bec:	b570      	push	{r4, r5, r6, lr}
10000bee:	4c18      	ldr	r4, [pc, #96]	; (10000c50 <alarm_pool_init_default+0x64>)
10000bf0:	6823      	ldr	r3, [r4, #0]
10000bf2:	2b00      	cmp	r3, #0
10000bf4:	d000      	beq.n	10000bf8 <alarm_pool_init_default+0xc>
10000bf6:	bd70      	pop	{r4, r5, r6, pc}
10000bf8:	2003      	movs	r0, #3
10000bfa:	f000 f8e3 	bl	10000dc4 <hardware_alarm_claim>
10000bfe:	2003      	movs	r0, #3
10000c00:	f000 f9ae 	bl	10000f60 <hardware_alarm_cancel>
10000c04:	4913      	ldr	r1, [pc, #76]	; (10000c54 <alarm_pool_init_default+0x68>)
10000c06:	2003      	movs	r0, #3
10000c08:	f000 f902 	bl	10000e10 <hardware_alarm_set_callback>
10000c0c:	2018      	movs	r0, #24
10000c0e:	f001 f97b 	bl	10001f08 <__wrap_malloc>
10000c12:	0005      	movs	r5, r0
10000c14:	f7ff fd32 	bl	1000067c <next_striped_spin_lock_num>
10000c18:	4b0f      	ldr	r3, [pc, #60]	; (10000c58 <alarm_pool_init_default+0x6c>)
10000c1a:	002a      	movs	r2, r5
10000c1c:	469c      	mov	ip, r3
10000c1e:	4460      	add	r0, ip
10000c20:	0080      	lsls	r0, r0, #2
10000c22:	490e      	ldr	r1, [pc, #56]	; (10000c5c <alarm_pool_init_default+0x70>)
10000c24:	6068      	str	r0, [r5, #4]
10000c26:	2010      	movs	r0, #16
10000c28:	f000 fa02 	bl	10001030 <ph_create>
10000c2c:	2110      	movs	r1, #16
10000c2e:	6028      	str	r0, [r5, #0]
10000c30:	2010      	movs	r0, #16
10000c32:	f001 f96d 	bl	10001f10 <__wrap_calloc>
10000c36:	2101      	movs	r1, #1
10000c38:	60a8      	str	r0, [r5, #8]
10000c3a:	2010      	movs	r0, #16
10000c3c:	f001 f968 	bl	10001f10 <__wrap_calloc>
10000c40:	2303      	movs	r3, #3
10000c42:	752b      	strb	r3, [r5, #20]
10000c44:	4b06      	ldr	r3, [pc, #24]	; (10000c60 <alarm_pool_init_default+0x74>)
10000c46:	60e8      	str	r0, [r5, #12]
10000c48:	60dd      	str	r5, [r3, #12]
10000c4a:	6025      	str	r5, [r4, #0]
10000c4c:	e7d3      	b.n	10000bf6 <alarm_pool_init_default+0xa>
10000c4e:	46c0      	nop			; (mov r8, r8)
10000c50:	20000afc 	.word	0x20000afc
10000c54:	100008e5 	.word	0x100008e5
10000c58:	34000040 	.word	0x34000040
10000c5c:	1000077d 	.word	0x1000077d
10000c60:	20000b10 	.word	0x20000b10

10000c64 <sleep_ms>:
10000c64:	b5f8      	push	{r3, r4, r5, r6, r7, lr}
10000c66:	0004      	movs	r4, r0
10000c68:	f000 f8b8 	bl	10000ddc <time_us_64>
10000c6c:	22fa      	movs	r2, #250	; 0xfa
10000c6e:	0006      	movs	r6, r0
10000c70:	000f      	movs	r7, r1
10000c72:	0020      	movs	r0, r4
10000c74:	2300      	movs	r3, #0
10000c76:	2100      	movs	r1, #0
10000c78:	0092      	lsls	r2, r2, #2
10000c7a:	f001 f8a3 	bl	10001dc4 <__wrap___aeabi_lmul>
10000c7e:	1980      	adds	r0, r0, r6
10000c80:	4179      	adcs	r1, r7
10000c82:	0004      	movs	r4, r0
10000c84:	000d      	movs	r5, r1
10000c86:	428f      	cmp	r7, r1
10000c88:	d82f      	bhi.n	10000cea <sleep_ms+0x86>
10000c8a:	d02c      	beq.n	10000ce6 <sleep_ms+0x82>
10000c8c:	2606      	movs	r6, #6
10000c8e:	4276      	negs	r6, r6
10000c90:	17f7      	asrs	r7, r6, #31
10000c92:	1936      	adds	r6, r6, r4
10000c94:	416f      	adcs	r7, r5
10000c96:	42af      	cmp	r7, r5
10000c98:	d92e      	bls.n	10000cf8 <sleep_ms+0x94>
10000c9a:	2600      	movs	r6, #0
10000c9c:	2700      	movs	r7, #0
10000c9e:	f000 f89d 	bl	10000ddc <time_us_64>
10000ca2:	0032      	movs	r2, r6
10000ca4:	003b      	movs	r3, r7
10000ca6:	1a12      	subs	r2, r2, r0
10000ca8:	418b      	sbcs	r3, r1
10000caa:	2b00      	cmp	r3, #0
10000cac:	dc07      	bgt.n	10000cbe <sleep_ms+0x5a>
10000cae:	d004      	beq.n	10000cba <sleep_ms+0x56>
10000cb0:	0029      	movs	r1, r5
10000cb2:	0020      	movs	r0, r4
10000cb4:	f000 f89c 	bl	10000df0 <busy_wait_until>
10000cb8:	bdf8      	pop	{r3, r4, r5, r6, r7, pc}
10000cba:	2a00      	cmp	r2, #0
10000cbc:	d0f8      	beq.n	10000cb0 <sleep_ms+0x4c>
10000cbe:	4b11      	ldr	r3, [pc, #68]	; (10000d04 <sleep_ms+0xa0>)
10000cc0:	0032      	movs	r2, r6
10000cc2:	6818      	ldr	r0, [r3, #0]
10000cc4:	003b      	movs	r3, r7
10000cc6:	f7ff fefd 	bl	10000ac4 <alarm_pool_add_alarm_at.constprop.0>
10000cca:	2800      	cmp	r0, #0
10000ccc:	dbf0      	blt.n	10000cb0 <sleep_ms+0x4c>
10000cce:	0038      	movs	r0, r7
10000cd0:	4a0d      	ldr	r2, [pc, #52]	; (10000d08 <sleep_ms+0xa4>)
10000cd2:	6a53      	ldr	r3, [r2, #36]	; 0x24
10000cd4:	4298      	cmp	r0, r3
10000cd6:	d804      	bhi.n	10000ce2 <sleep_ms+0x7e>
10000cd8:	6a91      	ldr	r1, [r2, #40]	; 0x28
10000cda:	428e      	cmp	r6, r1
10000cdc:	d9e8      	bls.n	10000cb0 <sleep_ms+0x4c>
10000cde:	4298      	cmp	r0, r3
10000ce0:	d1e6      	bne.n	10000cb0 <sleep_ms+0x4c>
10000ce2:	bf20      	wfe
10000ce4:	e7f5      	b.n	10000cd2 <sleep_ms+0x6e>
10000ce6:	4286      	cmp	r6, r0
10000ce8:	d9d0      	bls.n	10000c8c <sleep_ms+0x28>
10000cea:	2401      	movs	r4, #1
10000cec:	4264      	negs	r4, r4
10000cee:	17e5      	asrs	r5, r4, #31
10000cf0:	2607      	movs	r6, #7
10000cf2:	4276      	negs	r6, r6
10000cf4:	17f7      	asrs	r7, r6, #31
10000cf6:	e7d2      	b.n	10000c9e <sleep_ms+0x3a>
10000cf8:	42af      	cmp	r7, r5
10000cfa:	d1d0      	bne.n	10000c9e <sleep_ms+0x3a>
10000cfc:	42a6      	cmp	r6, r4
10000cfe:	d8cc      	bhi.n	10000c9a <sleep_ms+0x36>
10000d00:	e7cd      	b.n	10000c9e <sleep_ms+0x3a>
10000d02:	46c0      	nop			; (mov r8, r8)
10000d04:	20000afc 	.word	0x20000afc
10000d08:	40054000 	.word	0x40054000

10000d0c <hardware_alarm_irq_handler>:
10000d0c:	b5f0      	push	{r4, r5, r6, r7, lr}
10000d0e:	46d6      	mov	lr, sl
10000d10:	464f      	mov	r7, r9
10000d12:	4646      	mov	r6, r8
10000d14:	b5c0      	push	{r6, r7, lr}
10000d16:	f3ef 8305 	mrs	r3, IPSR
10000d1a:	223f      	movs	r2, #63	; 0x3f
10000d1c:	4013      	ands	r3, r2
10000d1e:	0018      	movs	r0, r3
10000d20:	3810      	subs	r0, #16
10000d22:	f3ef 8c10 	mrs	ip, PRIMASK
10000d26:	b672      	cpsid	i
10000d28:	4d20      	ldr	r5, [pc, #128]	; (10000dac <hardware_alarm_irq_handler+0xa0>)
10000d2a:	682a      	ldr	r2, [r5, #0]
10000d2c:	2a00      	cmp	r2, #0
10000d2e:	d0fc      	beq.n	10000d2a <hardware_alarm_irq_handler+0x1e>
10000d30:	f3bf 8f5f 	dmb	sy
10000d34:	2201      	movs	r2, #1
10000d36:	0011      	movs	r1, r2
10000d38:	4081      	lsls	r1, r0
10000d3a:	4c1d      	ldr	r4, [pc, #116]	; (10000db0 <hardware_alarm_irq_handler+0xa4>)
10000d3c:	4688      	mov	r8, r1
10000d3e:	6361      	str	r1, [r4, #52]	; 0x34
10000d40:	491c      	ldr	r1, [pc, #112]	; (10000db4 <hardware_alarm_irq_handler+0xa8>)
10000d42:	0017      	movs	r7, r2
10000d44:	780e      	ldrb	r6, [r1, #0]
10000d46:	468a      	mov	sl, r1
10000d48:	0031      	movs	r1, r6
10000d4a:	40c1      	lsrs	r1, r0
10000d4c:	400f      	ands	r7, r1
10000d4e:	420a      	tst	r2, r1
10000d50:	d015      	beq.n	10000d7e <hardware_alarm_irq_handler+0x72>
10000d52:	4919      	ldr	r1, [pc, #100]	; (10000db8 <hardware_alarm_irq_handler+0xac>)
10000d54:	0082      	lsls	r2, r0, #2
10000d56:	6a64      	ldr	r4, [r4, #36]	; 0x24
10000d58:	5851      	ldr	r1, [r2, r1]
10000d5a:	428c      	cmp	r4, r1
10000d5c:	d319      	bcc.n	10000d92 <hardware_alarm_irq_handler+0x86>
10000d5e:	4b17      	ldr	r3, [pc, #92]	; (10000dbc <hardware_alarm_irq_handler+0xb0>)
10000d60:	58d2      	ldr	r2, [r2, r3]
10000d62:	4643      	mov	r3, r8
10000d64:	439e      	bics	r6, r3
10000d66:	4653      	mov	r3, sl
10000d68:	701e      	strb	r6, [r3, #0]
10000d6a:	f3bf 8f5f 	dmb	sy
10000d6e:	2300      	movs	r3, #0
10000d70:	602b      	str	r3, [r5, #0]
10000d72:	f38c 8810 	msr	PRIMASK, ip
10000d76:	2a00      	cmp	r2, #0
10000d78:	d006      	beq.n	10000d88 <hardware_alarm_irq_handler+0x7c>
10000d7a:	4790      	blx	r2
10000d7c:	e004      	b.n	10000d88 <hardware_alarm_irq_handler+0x7c>
10000d7e:	f3bf 8f5f 	dmb	sy
10000d82:	602f      	str	r7, [r5, #0]
10000d84:	f38c 8810 	msr	PRIMASK, ip
10000d88:	bc1c      	pop	{r2, r3, r4}
10000d8a:	4690      	mov	r8, r2
10000d8c:	4699      	mov	r9, r3
10000d8e:	46a2      	mov	sl, r4
10000d90:	bdf0      	pop	{r4, r5, r6, r7, pc}
10000d92:	4a0b      	ldr	r2, [pc, #44]	; (10000dc0 <hardware_alarm_irq_handler+0xb4>)
10000d94:	009b      	lsls	r3, r3, #2
10000d96:	4690      	mov	r8, r2
10000d98:	4443      	add	r3, r8
10000d9a:	681a      	ldr	r2, [r3, #0]
10000d9c:	601a      	str	r2, [r3, #0]
10000d9e:	f3bf 8f5f 	dmb	sy
10000da2:	2300      	movs	r3, #0
10000da4:	602b      	str	r3, [r5, #0]
10000da6:	f38c 8810 	msr	PRIMASK, ip
10000daa:	e7ed      	b.n	10000d88 <hardware_alarm_irq_handler+0x7c>
10000dac:	d0000128 	.word	0xd0000128
10000db0:	40054000 	.word	0x40054000
10000db4:	20000b32 	.word	0x20000b32
10000db8:	20000b20 	.word	0x20000b20
10000dbc:	20000ac4 	.word	0x20000ac4
10000dc0:	40053fd0 	.word	0x40053fd0

10000dc4 <hardware_alarm_claim>:
10000dc4:	b510      	push	{r4, lr}
10000dc6:	0001      	movs	r1, r0
10000dc8:	4a02      	ldr	r2, [pc, #8]	; (10000dd4 <hardware_alarm_claim+0x10>)
10000dca:	4803      	ldr	r0, [pc, #12]	; (10000dd8 <hardware_alarm_claim+0x14>)
10000dcc:	f7ff fc18 	bl	10000600 <hw_claim_or_assert>
10000dd0:	bd10      	pop	{r4, pc}
10000dd2:	46c0      	nop			; (mov r8, r8)
10000dd4:	10002e1c 	.word	0x10002e1c
10000dd8:	20000b30 	.word	0x20000b30

10000ddc <time_us_64>:
10000ddc:	4b03      	ldr	r3, [pc, #12]	; (10000dec <time_us_64+0x10>)
10000dde:	6a59      	ldr	r1, [r3, #36]	; 0x24
10000de0:	000a      	movs	r2, r1
10000de2:	6a98      	ldr	r0, [r3, #40]	; 0x28
10000de4:	6a59      	ldr	r1, [r3, #36]	; 0x24
10000de6:	428a      	cmp	r2, r1
10000de8:	d1fa      	bne.n	10000de0 <time_us_64+0x4>
10000dea:	4770      	bx	lr
10000dec:	40054000 	.word	0x40054000

10000df0 <busy_wait_until>:
10000df0:	4a06      	ldr	r2, [pc, #24]	; (10000e0c <busy_wait_until+0x1c>)
10000df2:	6a53      	ldr	r3, [r2, #36]	; 0x24
10000df4:	4299      	cmp	r1, r3
10000df6:	d8fc      	bhi.n	10000df2 <busy_wait_until+0x2>
10000df8:	d107      	bne.n	10000e0a <busy_wait_until+0x1a>
10000dfa:	4b04      	ldr	r3, [pc, #16]	; (10000e0c <busy_wait_until+0x1c>)
10000dfc:	e002      	b.n	10000e04 <busy_wait_until+0x14>
10000dfe:	6a5a      	ldr	r2, [r3, #36]	; 0x24
10000e00:	4291      	cmp	r1, r2
10000e02:	d102      	bne.n	10000e0a <busy_wait_until+0x1a>
10000e04:	6a9a      	ldr	r2, [r3, #40]	; 0x28
10000e06:	4282      	cmp	r2, r0
10000e08:	d3f9      	bcc.n	10000dfe <busy_wait_until+0xe>
10000e0a:	4770      	bx	lr
10000e0c:	40054000 	.word	0x40054000

10000e10 <hardware_alarm_set_callback>:
10000e10:	b570      	push	{r4, r5, r6, lr}
10000e12:	0004      	movs	r4, r0
10000e14:	000d      	movs	r5, r1
10000e16:	f3ef 8610 	mrs	r6, PRIMASK
10000e1a:	b672      	cpsid	i
10000e1c:	4a1a      	ldr	r2, [pc, #104]	; (10000e88 <hardware_alarm_set_callback+0x78>)
10000e1e:	6813      	ldr	r3, [r2, #0]
10000e20:	2b00      	cmp	r3, #0
10000e22:	d0fc      	beq.n	10000e1e <hardware_alarm_set_callback+0xe>
10000e24:	f3bf 8f5f 	dmb	sy
10000e28:	2d00      	cmp	r5, #0
10000e2a:	d01b      	beq.n	10000e64 <hardware_alarm_set_callback+0x54>
10000e2c:	0020      	movs	r0, r4
10000e2e:	f000 fd4f 	bl	100018d0 <irq_get_vtable_handler>
10000e32:	4916      	ldr	r1, [pc, #88]	; (10000e8c <hardware_alarm_set_callback+0x7c>)
10000e34:	4281      	cmp	r1, r0
10000e36:	d00a      	beq.n	10000e4e <hardware_alarm_set_callback+0x3e>
10000e38:	0020      	movs	r0, r4
10000e3a:	f000 fd51 	bl	100018e0 <irq_set_exclusive_handler>
10000e3e:	2101      	movs	r1, #1
10000e40:	0020      	movs	r0, r4
10000e42:	f000 fd33 	bl	100018ac <irq_set_enabled>
10000e46:	2301      	movs	r3, #1
10000e48:	40a3      	lsls	r3, r4
10000e4a:	4a11      	ldr	r2, [pc, #68]	; (10000e90 <hardware_alarm_set_callback+0x80>)
10000e4c:	6013      	str	r3, [r2, #0]
10000e4e:	4b11      	ldr	r3, [pc, #68]	; (10000e94 <hardware_alarm_set_callback+0x84>)
10000e50:	00a4      	lsls	r4, r4, #2
10000e52:	50e5      	str	r5, [r4, r3]
10000e54:	f3bf 8f5f 	dmb	sy
10000e58:	2200      	movs	r2, #0
10000e5a:	4b0b      	ldr	r3, [pc, #44]	; (10000e88 <hardware_alarm_set_callback+0x78>)
10000e5c:	601a      	str	r2, [r3, #0]
10000e5e:	f386 8810 	msr	PRIMASK, r6
10000e62:	bd70      	pop	{r4, r5, r6, pc}
10000e64:	4b0b      	ldr	r3, [pc, #44]	; (10000e94 <hardware_alarm_set_callback+0x84>)
10000e66:	00a2      	lsls	r2, r4, #2
10000e68:	50d5      	str	r5, [r2, r3]
10000e6a:	2201      	movs	r2, #1
10000e6c:	40a2      	lsls	r2, r4
10000e6e:	490a      	ldr	r1, [pc, #40]	; (10000e98 <hardware_alarm_set_callback+0x88>)
10000e70:	0020      	movs	r0, r4
10000e72:	780b      	ldrb	r3, [r1, #0]
10000e74:	4393      	bics	r3, r2
10000e76:	700b      	strb	r3, [r1, #0]
10000e78:	4904      	ldr	r1, [pc, #16]	; (10000e8c <hardware_alarm_set_callback+0x7c>)
10000e7a:	f000 fd5b 	bl	10001934 <irq_remove_handler>
10000e7e:	2100      	movs	r1, #0
10000e80:	0020      	movs	r0, r4
10000e82:	f000 fd13 	bl	100018ac <irq_set_enabled>
10000e86:	e7e5      	b.n	10000e54 <hardware_alarm_set_callback+0x44>
10000e88:	d0000128 	.word	0xd0000128
10000e8c:	10000d0d 	.word	0x10000d0d
10000e90:	40056038 	.word	0x40056038
10000e94:	20000ac4 	.word	0x20000ac4
10000e98:	20000b32 	.word	0x20000b32

10000e9c <hardware_alarm_set_target>:
10000e9c:	b5f0      	push	{r4, r5, r6, r7, lr}
10000e9e:	46ce      	mov	lr, r9
10000ea0:	4647      	mov	r7, r8
10000ea2:	b580      	push	{r7, lr}
10000ea4:	4c2a      	ldr	r4, [pc, #168]	; (10000f50 <hardware_alarm_set_target+0xb4>)
10000ea6:	6a61      	ldr	r1, [r4, #36]	; 0x24
10000ea8:	000d      	movs	r5, r1
10000eaa:	6aa6      	ldr	r6, [r4, #40]	; 0x28
10000eac:	6a61      	ldr	r1, [r4, #36]	; 0x24
10000eae:	42a9      	cmp	r1, r5
10000eb0:	d1fa      	bne.n	10000ea8 <hardware_alarm_set_target+0xc>
10000eb2:	428b      	cmp	r3, r1
10000eb4:	d807      	bhi.n	10000ec6 <hardware_alarm_set_target+0x2a>
10000eb6:	d004      	beq.n	10000ec2 <hardware_alarm_set_target+0x26>
10000eb8:	2001      	movs	r0, #1
10000eba:	bc0c      	pop	{r2, r3}
10000ebc:	4690      	mov	r8, r2
10000ebe:	4699      	mov	r9, r3
10000ec0:	bdf0      	pop	{r4, r5, r6, r7, pc}
10000ec2:	42b2      	cmp	r2, r6
10000ec4:	d9f8      	bls.n	10000eb8 <hardware_alarm_set_target+0x1c>
10000ec6:	f3ef 8810 	mrs	r8, PRIMASK
10000eca:	b672      	cpsid	i
10000ecc:	4c21      	ldr	r4, [pc, #132]	; (10000f54 <hardware_alarm_set_target+0xb8>)
10000ece:	6821      	ldr	r1, [r4, #0]
10000ed0:	2900      	cmp	r1, #0
10000ed2:	d0fc      	beq.n	10000ece <hardware_alarm_set_target+0x32>
10000ed4:	f3bf 8f5f 	dmb	sy
10000ed8:	2501      	movs	r5, #1
10000eda:	4085      	lsls	r5, r0
10000edc:	4c1c      	ldr	r4, [pc, #112]	; (10000f50 <hardware_alarm_set_target+0xb4>)
10000ede:	4e1e      	ldr	r6, [pc, #120]	; (10000f58 <hardware_alarm_set_target+0xbc>)
10000ee0:	6365      	str	r5, [r4, #52]	; 0x34
10000ee2:	b2e9      	uxtb	r1, r5
10000ee4:	468c      	mov	ip, r1
10000ee6:	7831      	ldrb	r1, [r6, #0]
10000ee8:	4689      	mov	r9, r1
10000eea:	4661      	mov	r1, ip
10000eec:	464f      	mov	r7, r9
10000eee:	4339      	orrs	r1, r7
10000ef0:	7031      	strb	r1, [r6, #0]
10000ef2:	1d01      	adds	r1, r0, #4
10000ef4:	0089      	lsls	r1, r1, #2
10000ef6:	510a      	str	r2, [r1, r4]
10000ef8:	4918      	ldr	r1, [pc, #96]	; (10000f5c <hardware_alarm_set_target+0xc0>)
10000efa:	0080      	lsls	r0, r0, #2
10000efc:	5043      	str	r3, [r0, r1]
10000efe:	6a21      	ldr	r1, [r4, #32]
10000f00:	2000      	movs	r0, #0
10000f02:	4229      	tst	r1, r5
10000f04:	d00c      	beq.n	10000f20 <hardware_alarm_set_target+0x84>
10000f06:	0020      	movs	r0, r4
10000f08:	6a61      	ldr	r1, [r4, #36]	; 0x24
10000f0a:	000c      	movs	r4, r1
10000f0c:	6a87      	ldr	r7, [r0, #40]	; 0x28
10000f0e:	6a41      	ldr	r1, [r0, #36]	; 0x24
10000f10:	42a1      	cmp	r1, r4
10000f12:	d1fa      	bne.n	10000f0a <hardware_alarm_set_target+0x6e>
10000f14:	428b      	cmp	r3, r1
10000f16:	d802      	bhi.n	10000f1e <hardware_alarm_set_target+0x82>
10000f18:	d10a      	bne.n	10000f30 <hardware_alarm_set_target+0x94>
10000f1a:	42ba      	cmp	r2, r7
10000f1c:	d908      	bls.n	10000f30 <hardware_alarm_set_target+0x94>
10000f1e:	2000      	movs	r0, #0
10000f20:	f3bf 8f5f 	dmb	sy
10000f24:	2200      	movs	r2, #0
10000f26:	4b0b      	ldr	r3, [pc, #44]	; (10000f54 <hardware_alarm_set_target+0xb8>)
10000f28:	601a      	str	r2, [r3, #0]
10000f2a:	f388 8810 	msr	PRIMASK, r8
10000f2e:	e7c4      	b.n	10000eba <hardware_alarm_set_target+0x1e>
10000f30:	4b07      	ldr	r3, [pc, #28]	; (10000f50 <hardware_alarm_set_target+0xb4>)
10000f32:	464f      	mov	r7, r9
10000f34:	621d      	str	r5, [r3, #32]
10000f36:	635d      	str	r5, [r3, #52]	; 0x34
10000f38:	4663      	mov	r3, ip
10000f3a:	439f      	bics	r7, r3
10000f3c:	2001      	movs	r0, #1
10000f3e:	7037      	strb	r7, [r6, #0]
10000f40:	f3bf 8f5f 	dmb	sy
10000f44:	2200      	movs	r2, #0
10000f46:	4b03      	ldr	r3, [pc, #12]	; (10000f54 <hardware_alarm_set_target+0xb8>)
10000f48:	601a      	str	r2, [r3, #0]
10000f4a:	f388 8810 	msr	PRIMASK, r8
10000f4e:	e7b4      	b.n	10000eba <hardware_alarm_set_target+0x1e>
10000f50:	40054000 	.word	0x40054000
10000f54:	d0000128 	.word	0xd0000128
10000f58:	20000b32 	.word	0x20000b32
10000f5c:	20000b20 	.word	0x20000b20

10000f60 <hardware_alarm_cancel>:
10000f60:	b510      	push	{r4, lr}
10000f62:	f3ef 8410 	mrs	r4, PRIMASK
10000f66:	b672      	cpsid	i
10000f68:	490a      	ldr	r1, [pc, #40]	; (10000f94 <hardware_alarm_cancel+0x34>)
10000f6a:	680b      	ldr	r3, [r1, #0]
10000f6c:	2b00      	cmp	r3, #0
10000f6e:	d0fc      	beq.n	10000f6a <hardware_alarm_cancel+0xa>
10000f70:	f3bf 8f5f 	dmb	sy
10000f74:	2301      	movs	r3, #1
10000f76:	4083      	lsls	r3, r0
10000f78:	4a07      	ldr	r2, [pc, #28]	; (10000f98 <hardware_alarm_cancel+0x38>)
10000f7a:	4808      	ldr	r0, [pc, #32]	; (10000f9c <hardware_alarm_cancel+0x3c>)
10000f7c:	6213      	str	r3, [r2, #32]
10000f7e:	7802      	ldrb	r2, [r0, #0]
10000f80:	439a      	bics	r2, r3
10000f82:	7002      	strb	r2, [r0, #0]
10000f84:	f3bf 8f5f 	dmb	sy
10000f88:	2300      	movs	r3, #0
10000f8a:	600b      	str	r3, [r1, #0]
10000f8c:	f384 8810 	msr	PRIMASK, r4
10000f90:	bd10      	pop	{r4, pc}
10000f92:	46c0      	nop			; (mov r8, r8)
10000f94:	d0000128 	.word	0xd0000128
10000f98:	40054000 	.word	0x40054000
10000f9c:	20000b32 	.word	0x20000b32

10000fa0 <lock_init>:
10000fa0:	4b02      	ldr	r3, [pc, #8]	; (10000fac <lock_init+0xc>)
10000fa2:	469c      	mov	ip, r3
10000fa4:	4461      	add	r1, ip
10000fa6:	0089      	lsls	r1, r1, #2
10000fa8:	6001      	str	r1, [r0, #0]
10000faa:	4770      	bx	lr
10000fac:	34000040 	.word	0x34000040

10000fb0 <mutex_init>:
10000fb0:	b510      	push	{r4, lr}
10000fb2:	0004      	movs	r4, r0
10000fb4:	f7ff fb62 	bl	1000067c <next_striped_spin_lock_num>
10000fb8:	0001      	movs	r1, r0
10000fba:	0020      	movs	r0, r4
10000fbc:	f7ff fff0 	bl	10000fa0 <lock_init>
10000fc0:	f3bf 8f5f 	dmb	sy
10000fc4:	bd10      	pop	{r4, pc}
10000fc6:	46c0      	nop			; (mov r8, r8)

10000fc8 <ph_merge_nodes>:
10000fc8:	b570      	push	{r4, r5, r6, lr}
10000fca:	0005      	movs	r5, r0
10000fcc:	000e      	movs	r6, r1
10000fce:	0014      	movs	r4, r2
10000fd0:	2900      	cmp	r1, #0
10000fd2:	d024      	beq.n	1000101e <ph_merge_nodes+0x56>
10000fd4:	2a00      	cmp	r2, #0
10000fd6:	d024      	beq.n	10001022 <ph_merge_nodes+0x5a>
10000fd8:	6880      	ldr	r0, [r0, #8]
10000fda:	686b      	ldr	r3, [r5, #4]
10000fdc:	4798      	blx	r3
10000fde:	6829      	ldr	r1, [r5, #0]
10000fe0:	2800      	cmp	r0, #0
10000fe2:	d00e      	beq.n	10001002 <ph_merge_nodes+0x3a>
10000fe4:	0063      	lsls	r3, r4, #1
10000fe6:	191b      	adds	r3, r3, r4
10000fe8:	0072      	lsls	r2, r6, #1
10000fea:	3b03      	subs	r3, #3
10000fec:	1992      	adds	r2, r2, r6
10000fee:	18cb      	adds	r3, r1, r3
10000ff0:	3a03      	subs	r2, #3
10000ff2:	709e      	strb	r6, [r3, #2]
10000ff4:	1888      	adds	r0, r1, r2
10000ff6:	5c8a      	ldrb	r2, [r1, r2]
10000ff8:	2a00      	cmp	r2, #0
10000ffa:	d114      	bne.n	10001026 <ph_merge_nodes+0x5e>
10000ffc:	7004      	strb	r4, [r0, #0]
10000ffe:	0030      	movs	r0, r6
10001000:	e00e      	b.n	10001020 <ph_merge_nodes+0x58>
10001002:	0073      	lsls	r3, r6, #1
10001004:	199b      	adds	r3, r3, r6
10001006:	0062      	lsls	r2, r4, #1
10001008:	3b03      	subs	r3, #3
1000100a:	1912      	adds	r2, r2, r4
1000100c:	18cb      	adds	r3, r1, r3
1000100e:	3a03      	subs	r2, #3
10001010:	709c      	strb	r4, [r3, #2]
10001012:	1888      	adds	r0, r1, r2
10001014:	5c8a      	ldrb	r2, [r1, r2]
10001016:	2a00      	cmp	r2, #0
10001018:	d000      	beq.n	1000101c <ph_merge_nodes+0x54>
1000101a:	705a      	strb	r2, [r3, #1]
1000101c:	7006      	strb	r6, [r0, #0]
1000101e:	0020      	movs	r0, r4
10001020:	bd70      	pop	{r4, r5, r6, pc}
10001022:	0008      	movs	r0, r1
10001024:	e7fc      	b.n	10001020 <ph_merge_nodes+0x58>
10001026:	705a      	strb	r2, [r3, #1]
10001028:	7004      	strb	r4, [r0, #0]
1000102a:	0030      	movs	r0, r6
1000102c:	e7f8      	b.n	10001020 <ph_merge_nodes+0x58>
1000102e:	46c0      	nop			; (mov r8, r8)

10001030 <ph_create>:
10001030:	b5f0      	push	{r4, r5, r6, r7, lr}
10001032:	46c6      	mov	lr, r8
10001034:	0005      	movs	r5, r0
10001036:	000f      	movs	r7, r1
10001038:	b500      	push	{lr}
1000103a:	2110      	movs	r1, #16
1000103c:	2001      	movs	r0, #1
1000103e:	0016      	movs	r6, r2
10001040:	f000 ff66 	bl	10001f10 <__wrap_calloc>
10001044:	b2eb      	uxtb	r3, r5
10001046:	0004      	movs	r4, r0
10001048:	7303      	strb	r3, [r0, #12]
1000104a:	2103      	movs	r1, #3
1000104c:	6047      	str	r7, [r0, #4]
1000104e:	0028      	movs	r0, r5
10001050:	4698      	mov	r8, r3
10001052:	f000 ff5d 	bl	10001f10 <__wrap_calloc>
10001056:	2300      	movs	r3, #0
10001058:	7363      	strb	r3, [r4, #13]
1000105a:	3301      	adds	r3, #1
1000105c:	73a3      	strb	r3, [r4, #14]
1000105e:	4643      	mov	r3, r8
10001060:	21ff      	movs	r1, #255	; 0xff
10001062:	73e3      	strb	r3, [r4, #15]
10001064:	23fe      	movs	r3, #254	; 0xfe
10001066:	6020      	str	r0, [r4, #0]
10001068:	60a6      	str	r6, [r4, #8]
1000106a:	4029      	ands	r1, r5
1000106c:	422b      	tst	r3, r5
1000106e:	d006      	beq.n	1000107e <ph_create+0x4e>
10001070:	1c42      	adds	r2, r0, #1
10001072:	3bfd      	subs	r3, #253	; 0xfd
10001074:	3301      	adds	r3, #1
10001076:	7013      	strb	r3, [r2, #0]
10001078:	3203      	adds	r2, #3
1000107a:	428b      	cmp	r3, r1
1000107c:	d3fa      	bcc.n	10001074 <ph_create+0x44>
1000107e:	004b      	lsls	r3, r1, #1
10001080:	1859      	adds	r1, r3, r1
10001082:	2300      	movs	r3, #0
10001084:	1840      	adds	r0, r0, r1
10001086:	3803      	subs	r0, #3
10001088:	7043      	strb	r3, [r0, #1]
1000108a:	0020      	movs	r0, r4
1000108c:	bc04      	pop	{r2}
1000108e:	4690      	mov	r8, r2
10001090:	bdf0      	pop	{r4, r5, r6, r7, pc}
10001092:	46c0      	nop			; (mov r8, r8)

10001094 <ph_merge_two_pass>:
10001094:	b5f8      	push	{r3, r4, r5, r6, r7, lr}
10001096:	46ce      	mov	lr, r9
10001098:	4647      	mov	r7, r8
1000109a:	0006      	movs	r6, r0
1000109c:	000c      	movs	r4, r1
1000109e:	b580      	push	{r7, lr}
100010a0:	2900      	cmp	r1, #0
100010a2:	d007      	beq.n	100010b4 <ph_merge_two_pass+0x20>
100010a4:	004d      	lsls	r5, r1, #1
100010a6:	6803      	ldr	r3, [r0, #0]
100010a8:	186d      	adds	r5, r5, r1
100010aa:	3d03      	subs	r5, #3
100010ac:	195a      	adds	r2, r3, r5
100010ae:	7857      	ldrb	r7, [r2, #1]
100010b0:	2f00      	cmp	r7, #0
100010b2:	d104      	bne.n	100010be <ph_merge_two_pass+0x2a>
100010b4:	0020      	movs	r0, r4
100010b6:	bc0c      	pop	{r2, r3}
100010b8:	4690      	mov	r8, r2
100010ba:	4699      	mov	r9, r3
100010bc:	bdf8      	pop	{r3, r4, r5, r6, r7, pc}
100010be:	0079      	lsls	r1, r7, #1
100010c0:	19c9      	adds	r1, r1, r7
100010c2:	3903      	subs	r1, #3
100010c4:	4688      	mov	r8, r1
100010c6:	4443      	add	r3, r8
100010c8:	7859      	ldrb	r1, [r3, #1]
100010ca:	4689      	mov	r9, r1
100010cc:	2100      	movs	r1, #0
100010ce:	7059      	strb	r1, [r3, #1]
100010d0:	7051      	strb	r1, [r2, #1]
100010d2:	6873      	ldr	r3, [r6, #4]
100010d4:	003a      	movs	r2, r7
100010d6:	0021      	movs	r1, r4
100010d8:	6880      	ldr	r0, [r0, #8]
100010da:	4798      	blx	r3
100010dc:	6833      	ldr	r3, [r6, #0]
100010de:	2800      	cmp	r0, #0
100010e0:	d014      	beq.n	1000110c <ph_merge_two_pass+0x78>
100010e2:	4642      	mov	r2, r8
100010e4:	189a      	adds	r2, r3, r2
100010e6:	7094      	strb	r4, [r2, #2]
100010e8:	1959      	adds	r1, r3, r5
100010ea:	5d5b      	ldrb	r3, [r3, r5]
100010ec:	2b00      	cmp	r3, #0
100010ee:	d000      	beq.n	100010f2 <ph_merge_two_pass+0x5e>
100010f0:	7053      	strb	r3, [r2, #1]
100010f2:	700f      	strb	r7, [r1, #0]
100010f4:	0027      	movs	r7, r4
100010f6:	4649      	mov	r1, r9
100010f8:	0030      	movs	r0, r6
100010fa:	f7ff ffcb 	bl	10001094 <ph_merge_two_pass>
100010fe:	0039      	movs	r1, r7
10001100:	0002      	movs	r2, r0
10001102:	0030      	movs	r0, r6
10001104:	f7ff ff60 	bl	10000fc8 <ph_merge_nodes>
10001108:	0004      	movs	r4, r0
1000110a:	e7d3      	b.n	100010b4 <ph_merge_two_pass+0x20>
1000110c:	4642      	mov	r2, r8
1000110e:	4641      	mov	r1, r8
10001110:	195d      	adds	r5, r3, r5
10001112:	70af      	strb	r7, [r5, #2]
10001114:	189a      	adds	r2, r3, r2
10001116:	5c5b      	ldrb	r3, [r3, r1]
10001118:	2b00      	cmp	r3, #0
1000111a:	d000      	beq.n	1000111e <ph_merge_two_pass+0x8a>
1000111c:	706b      	strb	r3, [r5, #1]
1000111e:	7014      	strb	r4, [r2, #0]
10001120:	e7e9      	b.n	100010f6 <ph_merge_two_pass+0x62>
10001122:	46c0      	nop			; (mov r8, r8)

10001124 <ph_remove_any_head>:
10001124:	b5f0      	push	{r4, r5, r6, r7, lr}
10001126:	4657      	mov	r7, sl
10001128:	4645      	mov	r5, r8
1000112a:	46de      	mov	lr, fp
1000112c:	464e      	mov	r6, r9
1000112e:	b5e0      	push	{r5, r6, r7, lr}
10001130:	000d      	movs	r5, r1
10001132:	006b      	lsls	r3, r5, #1
10001134:	6801      	ldr	r1, [r0, #0]
10001136:	195b      	adds	r3, r3, r5
10001138:	1edf      	subs	r7, r3, #3
1000113a:	0004      	movs	r4, r0
1000113c:	5dc8      	ldrb	r0, [r1, r7]
1000113e:	b083      	sub	sp, #12
10001140:	9201      	str	r2, [sp, #4]
10001142:	19ca      	adds	r2, r1, r7
10001144:	2800      	cmp	r0, #0
10001146:	d04c      	beq.n	100011e2 <ph_remove_any_head+0xbe>
10001148:	0043      	lsls	r3, r0, #1
1000114a:	181b      	adds	r3, r3, r0
1000114c:	3b03      	subs	r3, #3
1000114e:	18cb      	adds	r3, r1, r3
10001150:	785e      	ldrb	r6, [r3, #1]
10001152:	46b4      	mov	ip, r6
10001154:	2e00      	cmp	r6, #0
10001156:	d116      	bne.n	10001186 <ph_remove_any_head+0x62>
10001158:	9e01      	ldr	r6, [sp, #4]
1000115a:	2e00      	cmp	r6, #0
1000115c:	d13e      	bne.n	100011dc <ph_remove_any_head+0xb8>
1000115e:	7be6      	ldrb	r6, [r4, #15]
10001160:	2e00      	cmp	r6, #0
10001162:	d004      	beq.n	1000116e <ph_remove_any_head+0x4a>
10001164:	0073      	lsls	r3, r6, #1
10001166:	199b      	adds	r3, r3, r6
10001168:	18cb      	adds	r3, r1, r3
1000116a:	3b03      	subs	r3, #3
1000116c:	705d      	strb	r5, [r3, #1]
1000116e:	73e5      	strb	r5, [r4, #15]
10001170:	2800      	cmp	r0, #0
10001172:	d12f      	bne.n	100011d4 <ph_remove_any_head+0xb0>
10001174:	2300      	movs	r3, #0
10001176:	7053      	strb	r3, [r2, #1]
10001178:	b003      	add	sp, #12
1000117a:	bc3c      	pop	{r2, r3, r4, r5}
1000117c:	4690      	mov	r8, r2
1000117e:	4699      	mov	r9, r3
10001180:	46a2      	mov	sl, r4
10001182:	46ab      	mov	fp, r5
10001184:	bdf0      	pop	{r4, r5, r6, r7, pc}
10001186:	0072      	lsls	r2, r6, #1
10001188:	4462      	add	r2, ip
1000118a:	3a03      	subs	r2, #3
1000118c:	1889      	adds	r1, r1, r2
1000118e:	784a      	ldrb	r2, [r1, #1]
10001190:	4690      	mov	r8, r2
10001192:	2200      	movs	r2, #0
10001194:	704a      	strb	r2, [r1, #1]
10001196:	4691      	mov	r9, r2
10001198:	705a      	strb	r2, [r3, #1]
1000119a:	0001      	movs	r1, r0
1000119c:	0032      	movs	r2, r6
1000119e:	0020      	movs	r0, r4
100011a0:	f7ff ff12 	bl	10000fc8 <ph_merge_nodes>
100011a4:	4643      	mov	r3, r8
100011a6:	4682      	mov	sl, r0
100011a8:	2b00      	cmp	r3, #0
100011aa:	d007      	beq.n	100011bc <ph_remove_any_head+0x98>
100011ac:	005b      	lsls	r3, r3, #1
100011ae:	6821      	ldr	r1, [r4, #0]
100011b0:	4443      	add	r3, r8
100011b2:	3b03      	subs	r3, #3
100011b4:	18cb      	adds	r3, r1, r3
100011b6:	785a      	ldrb	r2, [r3, #1]
100011b8:	2a00      	cmp	r2, #0
100011ba:	d116      	bne.n	100011ea <ph_remove_any_head+0xc6>
100011bc:	4642      	mov	r2, r8
100011be:	4651      	mov	r1, sl
100011c0:	0020      	movs	r0, r4
100011c2:	f7ff ff01 	bl	10000fc8 <ph_merge_nodes>
100011c6:	6821      	ldr	r1, [r4, #0]
100011c8:	9b01      	ldr	r3, [sp, #4]
100011ca:	19ca      	adds	r2, r1, r7
100011cc:	2b00      	cmp	r3, #0
100011ce:	d0c6      	beq.n	1000115e <ph_remove_any_head+0x3a>
100011d0:	2800      	cmp	r0, #0
100011d2:	d0cf      	beq.n	10001174 <ph_remove_any_head+0x50>
100011d4:	0043      	lsls	r3, r0, #1
100011d6:	181b      	adds	r3, r3, r0
100011d8:	3b03      	subs	r3, #3
100011da:	18cb      	adds	r3, r1, r3
100011dc:	2100      	movs	r1, #0
100011de:	7099      	strb	r1, [r3, #2]
100011e0:	e7c8      	b.n	10001174 <ph_remove_any_head+0x50>
100011e2:	9b01      	ldr	r3, [sp, #4]
100011e4:	2b00      	cmp	r3, #0
100011e6:	d1c5      	bne.n	10001174 <ph_remove_any_head+0x50>
100011e8:	e7b9      	b.n	1000115e <ph_remove_any_head+0x3a>
100011ea:	0050      	lsls	r0, r2, #1
100011ec:	1880      	adds	r0, r0, r2
100011ee:	3803      	subs	r0, #3
100011f0:	1809      	adds	r1, r1, r0
100011f2:	7848      	ldrb	r0, [r1, #1]
100011f4:	4683      	mov	fp, r0
100011f6:	4648      	mov	r0, r9
100011f8:	7048      	strb	r0, [r1, #1]
100011fa:	7058      	strb	r0, [r3, #1]
100011fc:	4641      	mov	r1, r8
100011fe:	0020      	movs	r0, r4
10001200:	f7ff fee2 	bl	10000fc8 <ph_merge_nodes>
10001204:	4659      	mov	r1, fp
10001206:	4680      	mov	r8, r0
10001208:	0020      	movs	r0, r4
1000120a:	f7ff ff43 	bl	10001094 <ph_merge_two_pass>
1000120e:	4641      	mov	r1, r8
10001210:	0002      	movs	r2, r0
10001212:	0020      	movs	r0, r4
10001214:	f7ff fed8 	bl	10000fc8 <ph_merge_nodes>
10001218:	4680      	mov	r8, r0
1000121a:	e7cf      	b.n	100011bc <ph_remove_any_head+0x98>

1000121c <ph_remove_head_reserve>:
1000121c:	b5f0      	push	{r4, r5, r6, r7, lr}
1000121e:	464e      	mov	r6, r9
10001220:	4645      	mov	r5, r8
10001222:	46de      	mov	lr, fp
10001224:	4657      	mov	r7, sl
10001226:	b5e0      	push	{r5, r6, r7, lr}
10001228:	7b46      	ldrb	r6, [r0, #13]
1000122a:	0004      	movs	r4, r0
1000122c:	0075      	lsls	r5, r6, #1
1000122e:	6800      	ldr	r0, [r0, #0]
10001230:	19ad      	adds	r5, r5, r6
10001232:	3d03      	subs	r5, #3
10001234:	b083      	sub	sp, #12
10001236:	9101      	str	r1, [sp, #4]
10001238:	5d41      	ldrb	r1, [r0, r5]
1000123a:	1942      	adds	r2, r0, r5
1000123c:	2900      	cmp	r1, #0
1000123e:	d04e      	beq.n	100012de <ph_remove_head_reserve+0xc2>
10001240:	004b      	lsls	r3, r1, #1
10001242:	185b      	adds	r3, r3, r1
10001244:	3b03      	subs	r3, #3
10001246:	18c3      	adds	r3, r0, r3
10001248:	785f      	ldrb	r7, [r3, #1]
1000124a:	46bc      	mov	ip, r7
1000124c:	2f00      	cmp	r7, #0
1000124e:	d118      	bne.n	10001282 <ph_remove_head_reserve+0x66>
10001250:	9d01      	ldr	r5, [sp, #4]
10001252:	2d00      	cmp	r5, #0
10001254:	d140      	bne.n	100012d8 <ph_remove_head_reserve+0xbc>
10001256:	7be5      	ldrb	r5, [r4, #15]
10001258:	2d00      	cmp	r5, #0
1000125a:	d004      	beq.n	10001266 <ph_remove_head_reserve+0x4a>
1000125c:	006b      	lsls	r3, r5, #1
1000125e:	195b      	adds	r3, r3, r5
10001260:	18c3      	adds	r3, r0, r3
10001262:	3b03      	subs	r3, #3
10001264:	705e      	strb	r6, [r3, #1]
10001266:	73e6      	strb	r6, [r4, #15]
10001268:	2900      	cmp	r1, #0
1000126a:	d131      	bne.n	100012d0 <ph_remove_head_reserve+0xb4>
1000126c:	2300      	movs	r3, #0
1000126e:	0030      	movs	r0, r6
10001270:	7053      	strb	r3, [r2, #1]
10001272:	7361      	strb	r1, [r4, #13]
10001274:	b003      	add	sp, #12
10001276:	bc3c      	pop	{r2, r3, r4, r5}
10001278:	4690      	mov	r8, r2
1000127a:	4699      	mov	r9, r3
1000127c:	46a2      	mov	sl, r4
1000127e:	46ab      	mov	fp, r5
10001280:	bdf0      	pop	{r4, r5, r6, r7, pc}
10001282:	007a      	lsls	r2, r7, #1
10001284:	4462      	add	r2, ip
10001286:	3a03      	subs	r2, #3
10001288:	1880      	adds	r0, r0, r2
1000128a:	7842      	ldrb	r2, [r0, #1]
1000128c:	4693      	mov	fp, r2
1000128e:	2200      	movs	r2, #0
10001290:	7042      	strb	r2, [r0, #1]
10001292:	4691      	mov	r9, r2
10001294:	705a      	strb	r2, [r3, #1]
10001296:	0020      	movs	r0, r4
10001298:	003a      	movs	r2, r7
1000129a:	f7ff fe95 	bl	10000fc8 <ph_merge_nodes>
1000129e:	465b      	mov	r3, fp
100012a0:	4680      	mov	r8, r0
100012a2:	2b00      	cmp	r3, #0
100012a4:	d007      	beq.n	100012b6 <ph_remove_head_reserve+0x9a>
100012a6:	005b      	lsls	r3, r3, #1
100012a8:	6821      	ldr	r1, [r4, #0]
100012aa:	445b      	add	r3, fp
100012ac:	3b03      	subs	r3, #3
100012ae:	18cb      	adds	r3, r1, r3
100012b0:	785a      	ldrb	r2, [r3, #1]
100012b2:	2a00      	cmp	r2, #0
100012b4:	d117      	bne.n	100012e6 <ph_remove_head_reserve+0xca>
100012b6:	465a      	mov	r2, fp
100012b8:	4641      	mov	r1, r8
100012ba:	0020      	movs	r0, r4
100012bc:	f7ff fe84 	bl	10000fc8 <ph_merge_nodes>
100012c0:	9b01      	ldr	r3, [sp, #4]
100012c2:	0001      	movs	r1, r0
100012c4:	6820      	ldr	r0, [r4, #0]
100012c6:	1942      	adds	r2, r0, r5
100012c8:	2b00      	cmp	r3, #0
100012ca:	d0c4      	beq.n	10001256 <ph_remove_head_reserve+0x3a>
100012cc:	2900      	cmp	r1, #0
100012ce:	d0cd      	beq.n	1000126c <ph_remove_head_reserve+0x50>
100012d0:	004b      	lsls	r3, r1, #1
100012d2:	185b      	adds	r3, r3, r1
100012d4:	3b03      	subs	r3, #3
100012d6:	18c3      	adds	r3, r0, r3
100012d8:	2000      	movs	r0, #0
100012da:	7098      	strb	r0, [r3, #2]
100012dc:	e7c6      	b.n	1000126c <ph_remove_head_reserve+0x50>
100012de:	9b01      	ldr	r3, [sp, #4]
100012e0:	2b00      	cmp	r3, #0
100012e2:	d1c3      	bne.n	1000126c <ph_remove_head_reserve+0x50>
100012e4:	e7b7      	b.n	10001256 <ph_remove_head_reserve+0x3a>
100012e6:	0050      	lsls	r0, r2, #1
100012e8:	1880      	adds	r0, r0, r2
100012ea:	3803      	subs	r0, #3
100012ec:	1809      	adds	r1, r1, r0
100012ee:	7848      	ldrb	r0, [r1, #1]
100012f0:	4682      	mov	sl, r0
100012f2:	4648      	mov	r0, r9
100012f4:	7048      	strb	r0, [r1, #1]
100012f6:	7058      	strb	r0, [r3, #1]
100012f8:	4659      	mov	r1, fp
100012fa:	0020      	movs	r0, r4
100012fc:	f7ff fe64 	bl	10000fc8 <ph_merge_nodes>
10001300:	4653      	mov	r3, sl
10001302:	4683      	mov	fp, r0
10001304:	2b00      	cmp	r3, #0
10001306:	d007      	beq.n	10001318 <ph_remove_head_reserve+0xfc>
10001308:	005b      	lsls	r3, r3, #1
1000130a:	6821      	ldr	r1, [r4, #0]
1000130c:	4453      	add	r3, sl
1000130e:	3b03      	subs	r3, #3
10001310:	18cb      	adds	r3, r1, r3
10001312:	785a      	ldrb	r2, [r3, #1]
10001314:	2a00      	cmp	r2, #0
10001316:	d106      	bne.n	10001326 <ph_remove_head_reserve+0x10a>
10001318:	4659      	mov	r1, fp
1000131a:	4652      	mov	r2, sl
1000131c:	0020      	movs	r0, r4
1000131e:	f7ff fe53 	bl	10000fc8 <ph_merge_nodes>
10001322:	4683      	mov	fp, r0
10001324:	e7c7      	b.n	100012b6 <ph_remove_head_reserve+0x9a>
10001326:	0050      	lsls	r0, r2, #1
10001328:	1880      	adds	r0, r0, r2
1000132a:	3803      	subs	r0, #3
1000132c:	1809      	adds	r1, r1, r0
1000132e:	4648      	mov	r0, r9
10001330:	784f      	ldrb	r7, [r1, #1]
10001332:	7048      	strb	r0, [r1, #1]
10001334:	7058      	strb	r0, [r3, #1]
10001336:	4651      	mov	r1, sl
10001338:	0020      	movs	r0, r4
1000133a:	f7ff fe45 	bl	10000fc8 <ph_merge_nodes>
1000133e:	0039      	movs	r1, r7
10001340:	4681      	mov	r9, r0
10001342:	0020      	movs	r0, r4
10001344:	f7ff fea6 	bl	10001094 <ph_merge_two_pass>
10001348:	4649      	mov	r1, r9
1000134a:	0002      	movs	r2, r0
1000134c:	0020      	movs	r0, r4
1000134e:	f7ff fe3b 	bl	10000fc8 <ph_merge_nodes>
10001352:	4682      	mov	sl, r0
10001354:	e7e0      	b.n	10001318 <ph_remove_head_reserve+0xfc>
10001356:	46c0      	nop			; (mov r8, r8)

10001358 <ph_delete>:
10001358:	b570      	push	{r4, r5, r6, lr}
1000135a:	0004      	movs	r4, r0
1000135c:	2900      	cmp	r1, #0
1000135e:	d02c      	beq.n	100013ba <ph_delete+0x62>
10001360:	7b43      	ldrb	r3, [r0, #13]
10001362:	428b      	cmp	r3, r1
10001364:	d02e      	beq.n	100013c4 <ph_delete+0x6c>
10001366:	6805      	ldr	r5, [r0, #0]
10001368:	0048      	lsls	r0, r1, #1
1000136a:	1840      	adds	r0, r0, r1
1000136c:	3803      	subs	r0, #3
1000136e:	1828      	adds	r0, r5, r0
10001370:	7882      	ldrb	r2, [r0, #2]
10001372:	2a00      	cmp	r2, #0
10001374:	d021      	beq.n	100013ba <ph_delete+0x62>
10001376:	0053      	lsls	r3, r2, #1
10001378:	189b      	adds	r3, r3, r2
1000137a:	3b03      	subs	r3, #3
1000137c:	5cea      	ldrb	r2, [r5, r3]
1000137e:	18ee      	adds	r6, r5, r3
10001380:	428a      	cmp	r2, r1
10001382:	d102      	bne.n	1000138a <ph_delete+0x32>
10001384:	e01b      	b.n	100013be <ph_delete+0x66>
10001386:	2a00      	cmp	r2, #0
10001388:	d008      	beq.n	1000139c <ph_delete+0x44>
1000138a:	0053      	lsls	r3, r2, #1
1000138c:	189b      	adds	r3, r3, r2
1000138e:	3b03      	subs	r3, #3
10001390:	18eb      	adds	r3, r5, r3
10001392:	785a      	ldrb	r2, [r3, #1]
10001394:	428a      	cmp	r2, r1
10001396:	d1f6      	bne.n	10001386 <ph_delete+0x2e>
10001398:	7842      	ldrb	r2, [r0, #1]
1000139a:	705a      	strb	r2, [r3, #1]
1000139c:	2300      	movs	r3, #0
1000139e:	2200      	movs	r2, #0
100013a0:	7083      	strb	r3, [r0, #2]
100013a2:	7043      	strb	r3, [r0, #1]
100013a4:	0020      	movs	r0, r4
100013a6:	f7ff febd 	bl	10001124 <ph_remove_any_head>
100013aa:	7b61      	ldrb	r1, [r4, #13]
100013ac:	0002      	movs	r2, r0
100013ae:	0020      	movs	r0, r4
100013b0:	f7ff fe0a 	bl	10000fc8 <ph_merge_nodes>
100013b4:	7360      	strb	r0, [r4, #13]
100013b6:	2001      	movs	r0, #1
100013b8:	e000      	b.n	100013bc <ph_delete+0x64>
100013ba:	2000      	movs	r0, #0
100013bc:	bd70      	pop	{r4, r5, r6, pc}
100013be:	7843      	ldrb	r3, [r0, #1]
100013c0:	7033      	strb	r3, [r6, #0]
100013c2:	e7eb      	b.n	1000139c <ph_delete+0x44>
100013c4:	2200      	movs	r2, #0
100013c6:	0019      	movs	r1, r3
100013c8:	f7ff feac 	bl	10001124 <ph_remove_any_head>
100013cc:	7360      	strb	r0, [r4, #13]
100013ce:	2001      	movs	r0, #1
100013d0:	e7f4      	b.n	100013bc <ph_delete+0x64>
100013d2:	46c0      	nop			; (mov r8, r8)

100013d4 <runtime_init>:
100013d4:	4b2b      	ldr	r3, [pc, #172]	; (10001484 <runtime_init+0xb0>)
100013d6:	4a2c      	ldr	r2, [pc, #176]	; (10001488 <runtime_init+0xb4>)
100013d8:	b570      	push	{r4, r5, r6, lr}
100013da:	601a      	str	r2, [r3, #0]
100013dc:	4a2b      	ldr	r2, [pc, #172]	; (1000148c <runtime_init+0xb8>)
100013de:	4b2c      	ldr	r3, [pc, #176]	; (10001490 <runtime_init+0xbc>)
100013e0:	492c      	ldr	r1, [pc, #176]	; (10001494 <runtime_init+0xc0>)
100013e2:	601a      	str	r2, [r3, #0]
100013e4:	0010      	movs	r0, r2
100013e6:	688b      	ldr	r3, [r1, #8]
100013e8:	4398      	bics	r0, r3
100013ea:	d1fb      	bne.n	100013e4 <runtime_init+0x10>
100013ec:	4c2a      	ldr	r4, [pc, #168]	; (10001498 <runtime_init+0xc4>)
100013ee:	4b2b      	ldr	r3, [pc, #172]	; (1000149c <runtime_init+0xc8>)
100013f0:	429c      	cmp	r4, r3
100013f2:	d209      	bcs.n	10001408 <runtime_init+0x34>
100013f4:	3b01      	subs	r3, #1
100013f6:	1b1d      	subs	r5, r3, r4
100013f8:	08ad      	lsrs	r5, r5, #2
100013fa:	3501      	adds	r5, #1
100013fc:	00ad      	lsls	r5, r5, #2
100013fe:	192d      	adds	r5, r5, r4
10001400:	cc08      	ldmia	r4!, {r3}
10001402:	4798      	blx	r3
10001404:	42ac      	cmp	r4, r5
10001406:	d1fb      	bne.n	10001400 <runtime_init+0x2c>
10001408:	f000 f894 	bl	10001534 <clocks_init>
1000140c:	4a24      	ldr	r2, [pc, #144]	; (100014a0 <runtime_init+0xcc>)
1000140e:	4b20      	ldr	r3, [pc, #128]	; (10001490 <runtime_init+0xbc>)
10001410:	601a      	str	r2, [r3, #0]
10001412:	4a20      	ldr	r2, [pc, #128]	; (10001494 <runtime_init+0xc0>)
10001414:	6893      	ldr	r3, [r2, #8]
10001416:	01db      	lsls	r3, r3, #7
10001418:	3380      	adds	r3, #128	; 0x80
1000141a:	d1fb      	bne.n	10001414 <runtime_init+0x40>
1000141c:	2240      	movs	r2, #64	; 0x40
1000141e:	4b21      	ldr	r3, [pc, #132]	; (100014a4 <runtime_init+0xd0>)
10001420:	4c21      	ldr	r4, [pc, #132]	; (100014a8 <runtime_init+0xd4>)
10001422:	679a      	str	r2, [r3, #120]	; 0x78
10001424:	675a      	str	r2, [r3, #116]	; 0x74
10001426:	671a      	str	r2, [r3, #112]	; 0x70
10001428:	66da      	str	r2, [r3, #108]	; 0x6c
1000142a:	4b20      	ldr	r3, [pc, #128]	; (100014ac <runtime_init+0xd8>)
1000142c:	429c      	cmp	r4, r3
1000142e:	d20b      	bcs.n	10001448 <runtime_init+0x74>
10001430:	3b01      	subs	r3, #1
10001432:	1b1d      	subs	r5, r3, r4
10001434:	08ed      	lsrs	r5, r5, #3
10001436:	3501      	adds	r5, #1
10001438:	00ed      	lsls	r5, r5, #3
1000143a:	192d      	adds	r5, r5, r4
1000143c:	0020      	movs	r0, r4
1000143e:	3408      	adds	r4, #8
10001440:	f7ff fdb6 	bl	10000fb0 <mutex_init>
10001444:	42ac      	cmp	r4, r5
10001446:	d1f9      	bne.n	1000143c <runtime_init+0x68>
10001448:	4c19      	ldr	r4, [pc, #100]	; (100014b0 <runtime_init+0xdc>)
1000144a:	4d1a      	ldr	r5, [pc, #104]	; (100014b4 <runtime_init+0xe0>)
1000144c:	68a1      	ldr	r1, [r4, #8]
1000144e:	22c0      	movs	r2, #192	; 0xc0
10001450:	0028      	movs	r0, r5
10001452:	f000 fd6f 	bl	10001f34 <__wrap___aeabi_memcpy>
10001456:	60a5      	str	r5, [r4, #8]
10001458:	f7ff f902 	bl	10000660 <spin_locks_reset>
1000145c:	f000 fbaa 	bl	10001bb4 <irq_init_priorities>
10001460:	f7ff fbc4 	bl	10000bec <alarm_pool_init_default>
10001464:	4c14      	ldr	r4, [pc, #80]	; (100014b8 <runtime_init+0xe4>)
10001466:	4b15      	ldr	r3, [pc, #84]	; (100014bc <runtime_init+0xe8>)
10001468:	429c      	cmp	r4, r3
1000146a:	d209      	bcs.n	10001480 <runtime_init+0xac>
1000146c:	3b01      	subs	r3, #1
1000146e:	1b1d      	subs	r5, r3, r4
10001470:	08ad      	lsrs	r5, r5, #2
10001472:	3501      	adds	r5, #1
10001474:	00ad      	lsls	r5, r5, #2
10001476:	192d      	adds	r5, r5, r4
10001478:	cc08      	ldmia	r4!, {r3}
1000147a:	4798      	blx	r3
1000147c:	42a5      	cmp	r5, r4
1000147e:	d1fb      	bne.n	10001478 <runtime_init+0xa4>
10001480:	bd70      	pop	{r4, r5, r6, pc}
10001482:	46c0      	nop			; (mov r8, r8)
10001484:	4000e000 	.word	0x4000e000
10001488:	ffffcdbf 	.word	0xffffcdbf
1000148c:	003c7ffe 	.word	0x003c7ffe
10001490:	4000f000 	.word	0x4000f000
10001494:	4000c000 	.word	0x4000c000
10001498:	20000a58 	.word	0x20000a58
1000149c:	20000a68 	.word	0x20000a68
100014a0:	01ffffff 	.word	0x01ffffff
100014a4:	4001f000 	.word	0x4001f000
100014a8:	20000a50 	.word	0x20000a50
100014ac:	20000a58 	.word	0x20000a58
100014b0:	e000ed00 	.word	0xe000ed00
100014b4:	20000000 	.word	0x20000000
100014b8:	20000a68 	.word	0x20000a68
100014bc:	20000a6c 	.word	0x20000a6c

100014c0 <_sbrk>:
100014c0:	4a09      	ldr	r2, [pc, #36]	; (100014e8 <_sbrk+0x28>)
100014c2:	0003      	movs	r3, r0
100014c4:	6810      	ldr	r0, [r2, #0]
100014c6:	2800      	cmp	r0, #0
100014c8:	d005      	beq.n	100014d6 <_sbrk+0x16>
100014ca:	4908      	ldr	r1, [pc, #32]	; (100014ec <_sbrk+0x2c>)
100014cc:	18c3      	adds	r3, r0, r3
100014ce:	428b      	cmp	r3, r1
100014d0:	d207      	bcs.n	100014e2 <_sbrk+0x22>
100014d2:	6013      	str	r3, [r2, #0]
100014d4:	4770      	bx	lr
100014d6:	4806      	ldr	r0, [pc, #24]	; (100014f0 <_sbrk+0x30>)
100014d8:	4904      	ldr	r1, [pc, #16]	; (100014ec <_sbrk+0x2c>)
100014da:	18c3      	adds	r3, r0, r3
100014dc:	6010      	str	r0, [r2, #0]
100014de:	428b      	cmp	r3, r1
100014e0:	d3f7      	bcc.n	100014d2 <_sbrk+0x12>
100014e2:	2001      	movs	r0, #1
100014e4:	4240      	negs	r0, r0
100014e6:	e7f5      	b.n	100014d4 <_sbrk+0x14>
100014e8:	20000b08 	.word	0x20000b08
100014ec:	20040000 	.word	0x20040000
100014f0:	20000d64 	.word	0x20000d64

100014f4 <exit>:
100014f4:	be00      	bkpt	0x0000
100014f6:	e7fd      	b.n	100014f4 <exit>

100014f8 <panic>:
100014f8:	b40f      	push	{r0, r1, r2, r3}
100014fa:	b500      	push	{lr}
100014fc:	4808      	ldr	r0, [pc, #32]	; (10001520 <panic+0x28>)
100014fe:	b083      	sub	sp, #12
10001500:	f000 fdee 	bl	100020e0 <__wrap_puts>
10001504:	9b04      	ldr	r3, [sp, #16]
10001506:	2b00      	cmp	r3, #0
10001508:	d007      	beq.n	1000151a <panic+0x22>
1000150a:	a905      	add	r1, sp, #20
1000150c:	0018      	movs	r0, r3
1000150e:	9101      	str	r1, [sp, #4]
10001510:	f000 fb74 	bl	10001bfc <weak_raw_vprintf>
10001514:	4803      	ldr	r0, [pc, #12]	; (10001524 <panic+0x2c>)
10001516:	f000 fde3 	bl	100020e0 <__wrap_puts>
1000151a:	be00      	bkpt	0x0000
1000151c:	e7fd      	b.n	1000151a <panic+0x22>
1000151e:	46c0      	nop			; (mov r8, r8)
10001520:	10002e40 	.word	0x10002e40
10001524:	10002e50 	.word	0x10002e50

10001528 <hard_assertion_failure>:
10001528:	b510      	push	{r4, lr}
1000152a:	4801      	ldr	r0, [pc, #4]	; (10001530 <hard_assertion_failure+0x8>)
1000152c:	f7ff ffe4 	bl	100014f8 <panic>
10001530:	10002e54 	.word	0x10002e54

10001534 <clocks_init>:
10001534:	b530      	push	{r4, r5, lr}
10001536:	200c      	movs	r0, #12
10001538:	b083      	sub	sp, #12
1000153a:	f000 f971 	bl	10001820 <watchdog_start_tick>
1000153e:	f7ff f8a9 	bl	10000694 <running_on_fpga>
10001542:	2800      	cmp	r0, #0
10001544:	d00e      	beq.n	10001564 <clocks_init+0x30>
10001546:	4b9a      	ldr	r3, [pc, #616]	; (100017b0 <clocks_init+0x27c>)
10001548:	4a9a      	ldr	r2, [pc, #616]	; (100017b4 <clocks_init+0x280>)
1000154a:	601a      	str	r2, [r3, #0]
1000154c:	605a      	str	r2, [r3, #4]
1000154e:	609a      	str	r2, [r3, #8]
10001550:	60da      	str	r2, [r3, #12]
10001552:	611a      	str	r2, [r3, #16]
10001554:	615a      	str	r2, [r3, #20]
10001556:	619a      	str	r2, [r3, #24]
10001558:	61da      	str	r2, [r3, #28]
1000155a:	621a      	str	r2, [r3, #32]
1000155c:	4a96      	ldr	r2, [pc, #600]	; (100017b8 <clocks_init+0x284>)
1000155e:	625a      	str	r2, [r3, #36]	; 0x24
10001560:	b003      	add	sp, #12
10001562:	bd30      	pop	{r4, r5, pc}
10001564:	4c95      	ldr	r4, [pc, #596]	; (100017bc <clocks_init+0x288>)
10001566:	67a0      	str	r0, [r4, #120]	; 0x78
10001568:	f000 f962 	bl	10001830 <xosc_init>
1000156c:	2201      	movs	r2, #1
1000156e:	4b94      	ldr	r3, [pc, #592]	; (100017c0 <clocks_init+0x28c>)
10001570:	601a      	str	r2, [r3, #0]
10001572:	6c63      	ldr	r3, [r4, #68]	; 0x44
10001574:	2b01      	cmp	r3, #1
10001576:	d1fc      	bne.n	10001572 <clocks_init+0x3e>
10001578:	2203      	movs	r2, #3
1000157a:	4b92      	ldr	r3, [pc, #584]	; (100017c4 <clocks_init+0x290>)
1000157c:	601a      	str	r2, [r3, #0]
1000157e:	4a8f      	ldr	r2, [pc, #572]	; (100017bc <clocks_init+0x288>)
10001580:	6b93      	ldr	r3, [r2, #56]	; 0x38
10001582:	2b01      	cmp	r3, #1
10001584:	d1fc      	bne.n	10001580 <clocks_init+0x4c>
10001586:	22c0      	movs	r2, #192	; 0xc0
10001588:	4b8f      	ldr	r3, [pc, #572]	; (100017c8 <clocks_init+0x294>)
1000158a:	0192      	lsls	r2, r2, #6
1000158c:	601a      	str	r2, [r3, #0]
1000158e:	4b8f      	ldr	r3, [pc, #572]	; (100017cc <clocks_init+0x298>)
10001590:	498f      	ldr	r1, [pc, #572]	; (100017d0 <clocks_init+0x29c>)
10001592:	601a      	str	r2, [r3, #0]
10001594:	0010      	movs	r0, r2
10001596:	688b      	ldr	r3, [r1, #8]
10001598:	4398      	bics	r0, r3
1000159a:	1e03      	subs	r3, r0, #0
1000159c:	d1fa      	bne.n	10001594 <clocks_init+0x60>
1000159e:	2402      	movs	r4, #2
100015a0:	2101      	movs	r1, #1
100015a2:	4a8c      	ldr	r2, [pc, #560]	; (100017d4 <clocks_init+0x2a0>)
100015a4:	488c      	ldr	r0, [pc, #560]	; (100017d8 <clocks_init+0x2a4>)
100015a6:	3306      	adds	r3, #6
100015a8:	9400      	str	r4, [sp, #0]
100015aa:	f000 f955 	bl	10001858 <pll_init>
100015ae:	2305      	movs	r3, #5
100015b0:	4a8a      	ldr	r2, [pc, #552]	; (100017dc <clocks_init+0x2a8>)
100015b2:	2101      	movs	r1, #1
100015b4:	488a      	ldr	r0, [pc, #552]	; (100017e0 <clocks_init+0x2ac>)
100015b6:	9400      	str	r4, [sp, #0]
100015b8:	f000 f94e 	bl	10001858 <pll_init>
100015bc:	4b89      	ldr	r3, [pc, #548]	; (100017e4 <clocks_init+0x2b0>)
100015be:	685a      	ldr	r2, [r3, #4]
100015c0:	2aff      	cmp	r2, #255	; 0xff
100015c2:	d802      	bhi.n	100015ca <clocks_init+0x96>
100015c4:	2280      	movs	r2, #128	; 0x80
100015c6:	0052      	lsls	r2, r2, #1
100015c8:	605a      	str	r2, [r3, #4]
100015ca:	2280      	movs	r2, #128	; 0x80
100015cc:	4c78      	ldr	r4, [pc, #480]	; (100017b0 <clocks_init+0x27c>)
100015ce:	4b7d      	ldr	r3, [pc, #500]	; (100017c4 <clocks_init+0x290>)
100015d0:	6921      	ldr	r1, [r4, #16]
100015d2:	0112      	lsls	r2, r2, #4
100015d4:	4d83      	ldr	r5, [pc, #524]	; (100017e4 <clocks_init+0x2b0>)
100015d6:	601a      	str	r2, [r3, #0]
100015d8:	2900      	cmp	r1, #0
100015da:	d005      	beq.n	100015e8 <clocks_init+0xb4>
100015dc:	6960      	ldr	r0, [r4, #20]
100015de:	f000 fb5b 	bl	10001c98 <__wrap___aeabi_uidiv>
100015e2:	3001      	adds	r0, #1
100015e4:	3801      	subs	r0, #1
100015e6:	d1fd      	bne.n	100015e4 <clocks_init+0xb0>
100015e8:	21e0      	movs	r1, #224	; 0xe0
100015ea:	4b7e      	ldr	r3, [pc, #504]	; (100017e4 <clocks_init+0x2b0>)
100015ec:	2002      	movs	r0, #2
100015ee:	681a      	ldr	r2, [r3, #0]
100015f0:	4011      	ands	r1, r2
100015f2:	2280      	movs	r2, #128	; 0x80
100015f4:	0152      	lsls	r2, r2, #5
100015f6:	432a      	orrs	r2, r5
100015f8:	6011      	str	r1, [r2, #0]
100015fa:	6819      	ldr	r1, [r3, #0]
100015fc:	4048      	eors	r0, r1
100015fe:	2103      	movs	r1, #3
10001600:	4001      	ands	r1, r0
10001602:	6011      	str	r1, [r2, #0]
10001604:	2104      	movs	r1, #4
10001606:	689a      	ldr	r2, [r3, #8]
10001608:	4211      	tst	r1, r2
1000160a:	d0fc      	beq.n	10001606 <clocks_init+0xd2>
1000160c:	2280      	movs	r2, #128	; 0x80
1000160e:	2180      	movs	r1, #128	; 0x80
10001610:	0192      	lsls	r2, r2, #6
10001612:	432a      	orrs	r2, r5
10001614:	0109      	lsls	r1, r1, #4
10001616:	6011      	str	r1, [r2, #0]
10001618:	2280      	movs	r2, #128	; 0x80
1000161a:	0052      	lsls	r2, r2, #1
1000161c:	605a      	str	r2, [r3, #4]
1000161e:	4b72      	ldr	r3, [pc, #456]	; (100017e8 <clocks_init+0x2b4>)
10001620:	6123      	str	r3, [r4, #16]
10001622:	4b72      	ldr	r3, [pc, #456]	; (100017ec <clocks_init+0x2b8>)
10001624:	6859      	ldr	r1, [r3, #4]
10001626:	29ff      	cmp	r1, #255	; 0xff
10001628:	d800      	bhi.n	1000162c <clocks_init+0xf8>
1000162a:	605a      	str	r2, [r3, #4]
1000162c:	2203      	movs	r2, #3
1000162e:	486f      	ldr	r0, [pc, #444]	; (100017ec <clocks_init+0x2b8>)
10001630:	4b63      	ldr	r3, [pc, #396]	; (100017c0 <clocks_init+0x28c>)
10001632:	2101      	movs	r1, #1
10001634:	601a      	str	r2, [r3, #0]
10001636:	0002      	movs	r2, r0
10001638:	6893      	ldr	r3, [r2, #8]
1000163a:	4219      	tst	r1, r3
1000163c:	d0fc      	beq.n	10001638 <clocks_init+0x104>
1000163e:	25e0      	movs	r5, #224	; 0xe0
10001640:	6813      	ldr	r3, [r2, #0]
10001642:	401d      	ands	r5, r3
10001644:	2380      	movs	r3, #128	; 0x80
10001646:	015b      	lsls	r3, r3, #5
10001648:	4303      	orrs	r3, r0
1000164a:	601d      	str	r5, [r3, #0]
1000164c:	6812      	ldr	r2, [r2, #0]
1000164e:	404a      	eors	r2, r1
10001650:	2103      	movs	r1, #3
10001652:	4011      	ands	r1, r2
10001654:	6019      	str	r1, [r3, #0]
10001656:	2102      	movs	r1, #2
10001658:	4a64      	ldr	r2, [pc, #400]	; (100017ec <clocks_init+0x2b8>)
1000165a:	6893      	ldr	r3, [r2, #8]
1000165c:	4219      	tst	r1, r3
1000165e:	d0fc      	beq.n	1000165a <clocks_init+0x126>
10001660:	2380      	movs	r3, #128	; 0x80
10001662:	2180      	movs	r1, #128	; 0x80
10001664:	019b      	lsls	r3, r3, #6
10001666:	4303      	orrs	r3, r0
10001668:	0109      	lsls	r1, r1, #4
1000166a:	6019      	str	r1, [r3, #0]
1000166c:	2180      	movs	r1, #128	; 0x80
1000166e:	4b60      	ldr	r3, [pc, #384]	; (100017f0 <clocks_init+0x2bc>)
10001670:	0049      	lsls	r1, r1, #1
10001672:	6051      	str	r1, [r2, #4]
10001674:	6163      	str	r3, [r4, #20]
10001676:	4b5f      	ldr	r3, [pc, #380]	; (100017f4 <clocks_init+0x2c0>)
10001678:	685a      	ldr	r2, [r3, #4]
1000167a:	2aff      	cmp	r2, #255	; 0xff
1000167c:	d800      	bhi.n	10001680 <clocks_init+0x14c>
1000167e:	6059      	str	r1, [r3, #4]
10001680:	2280      	movs	r2, #128	; 0x80
10001682:	4b5d      	ldr	r3, [pc, #372]	; (100017f8 <clocks_init+0x2c4>)
10001684:	69e1      	ldr	r1, [r4, #28]
10001686:	0112      	lsls	r2, r2, #4
10001688:	4d5a      	ldr	r5, [pc, #360]	; (100017f4 <clocks_init+0x2c0>)
1000168a:	601a      	str	r2, [r3, #0]
1000168c:	2900      	cmp	r1, #0
1000168e:	d005      	beq.n	1000169c <clocks_init+0x168>
10001690:	6960      	ldr	r0, [r4, #20]
10001692:	f000 fb01 	bl	10001c98 <__wrap___aeabi_uidiv>
10001696:	3001      	adds	r0, #1
10001698:	3801      	subs	r0, #1
1000169a:	d1fd      	bne.n	10001698 <clocks_init+0x164>
1000169c:	22e0      	movs	r2, #224	; 0xe0
1000169e:	4955      	ldr	r1, [pc, #340]	; (100017f4 <clocks_init+0x2c0>)
100016a0:	680b      	ldr	r3, [r1, #0]
100016a2:	401a      	ands	r2, r3
100016a4:	2380      	movs	r3, #128	; 0x80
100016a6:	015b      	lsls	r3, r3, #5
100016a8:	432b      	orrs	r3, r5
100016aa:	601a      	str	r2, [r3, #0]
100016ac:	2380      	movs	r3, #128	; 0x80
100016ae:	2280      	movs	r2, #128	; 0x80
100016b0:	019b      	lsls	r3, r3, #6
100016b2:	432b      	orrs	r3, r5
100016b4:	0112      	lsls	r2, r2, #4
100016b6:	601a      	str	r2, [r3, #0]
100016b8:	2280      	movs	r2, #128	; 0x80
100016ba:	4b3e      	ldr	r3, [pc, #248]	; (100017b4 <clocks_init+0x280>)
100016bc:	0052      	lsls	r2, r2, #1
100016be:	604a      	str	r2, [r1, #4]
100016c0:	61e3      	str	r3, [r4, #28]
100016c2:	4b4e      	ldr	r3, [pc, #312]	; (100017fc <clocks_init+0x2c8>)
100016c4:	6859      	ldr	r1, [r3, #4]
100016c6:	29ff      	cmp	r1, #255	; 0xff
100016c8:	d800      	bhi.n	100016cc <clocks_init+0x198>
100016ca:	605a      	str	r2, [r3, #4]
100016cc:	2280      	movs	r2, #128	; 0x80
100016ce:	4b4c      	ldr	r3, [pc, #304]	; (10001800 <clocks_init+0x2cc>)
100016d0:	6a21      	ldr	r1, [r4, #32]
100016d2:	0112      	lsls	r2, r2, #4
100016d4:	4d49      	ldr	r5, [pc, #292]	; (100017fc <clocks_init+0x2c8>)
100016d6:	601a      	str	r2, [r3, #0]
100016d8:	2900      	cmp	r1, #0
100016da:	d005      	beq.n	100016e8 <clocks_init+0x1b4>
100016dc:	6960      	ldr	r0, [r4, #20]
100016de:	f000 fadb 	bl	10001c98 <__wrap___aeabi_uidiv>
100016e2:	3001      	adds	r0, #1
100016e4:	3801      	subs	r0, #1
100016e6:	d1fd      	bne.n	100016e4 <clocks_init+0x1b0>
100016e8:	22e0      	movs	r2, #224	; 0xe0
100016ea:	4944      	ldr	r1, [pc, #272]	; (100017fc <clocks_init+0x2c8>)
100016ec:	680b      	ldr	r3, [r1, #0]
100016ee:	401a      	ands	r2, r3
100016f0:	2380      	movs	r3, #128	; 0x80
100016f2:	015b      	lsls	r3, r3, #5
100016f4:	432b      	orrs	r3, r5
100016f6:	601a      	str	r2, [r3, #0]
100016f8:	2380      	movs	r3, #128	; 0x80
100016fa:	2280      	movs	r2, #128	; 0x80
100016fc:	019b      	lsls	r3, r3, #6
100016fe:	432b      	orrs	r3, r5
10001700:	0112      	lsls	r2, r2, #4
10001702:	601a      	str	r2, [r3, #0]
10001704:	2380      	movs	r3, #128	; 0x80
10001706:	2280      	movs	r2, #128	; 0x80
10001708:	005b      	lsls	r3, r3, #1
1000170a:	604b      	str	r3, [r1, #4]
1000170c:	4b29      	ldr	r3, [pc, #164]	; (100017b4 <clocks_init+0x280>)
1000170e:	02d2      	lsls	r2, r2, #11
10001710:	6223      	str	r3, [r4, #32]
10001712:	4b3c      	ldr	r3, [pc, #240]	; (10001804 <clocks_init+0x2d0>)
10001714:	6859      	ldr	r1, [r3, #4]
10001716:	4291      	cmp	r1, r2
10001718:	d200      	bcs.n	1000171c <clocks_init+0x1e8>
1000171a:	605a      	str	r2, [r3, #4]
1000171c:	2280      	movs	r2, #128	; 0x80
1000171e:	4b3a      	ldr	r3, [pc, #232]	; (10001808 <clocks_init+0x2d4>)
10001720:	6a61      	ldr	r1, [r4, #36]	; 0x24
10001722:	0112      	lsls	r2, r2, #4
10001724:	4d37      	ldr	r5, [pc, #220]	; (10001804 <clocks_init+0x2d0>)
10001726:	601a      	str	r2, [r3, #0]
10001728:	2900      	cmp	r1, #0
1000172a:	d005      	beq.n	10001738 <clocks_init+0x204>
1000172c:	6960      	ldr	r0, [r4, #20]
1000172e:	f000 fab3 	bl	10001c98 <__wrap___aeabi_uidiv>
10001732:	3001      	adds	r0, #1
10001734:	3801      	subs	r0, #1
10001736:	d1fd      	bne.n	10001734 <clocks_init+0x200>
10001738:	22e0      	movs	r2, #224	; 0xe0
1000173a:	4932      	ldr	r1, [pc, #200]	; (10001804 <clocks_init+0x2d0>)
1000173c:	680b      	ldr	r3, [r1, #0]
1000173e:	401a      	ands	r2, r3
10001740:	2380      	movs	r3, #128	; 0x80
10001742:	015b      	lsls	r3, r3, #5
10001744:	432b      	orrs	r3, r5
10001746:	601a      	str	r2, [r3, #0]
10001748:	2380      	movs	r3, #128	; 0x80
1000174a:	2280      	movs	r2, #128	; 0x80
1000174c:	019b      	lsls	r3, r3, #6
1000174e:	432b      	orrs	r3, r5
10001750:	0112      	lsls	r2, r2, #4
10001752:	601a      	str	r2, [r3, #0]
10001754:	2380      	movs	r3, #128	; 0x80
10001756:	02db      	lsls	r3, r3, #11
10001758:	604b      	str	r3, [r1, #4]
1000175a:	4b17      	ldr	r3, [pc, #92]	; (100017b8 <clocks_init+0x284>)
1000175c:	6263      	str	r3, [r4, #36]	; 0x24
1000175e:	4b2b      	ldr	r3, [pc, #172]	; (1000180c <clocks_init+0x2d8>)
10001760:	685a      	ldr	r2, [r3, #4]
10001762:	2aff      	cmp	r2, #255	; 0xff
10001764:	d802      	bhi.n	1000176c <clocks_init+0x238>
10001766:	2280      	movs	r2, #128	; 0x80
10001768:	0052      	lsls	r2, r2, #1
1000176a:	605a      	str	r2, [r3, #4]
1000176c:	2280      	movs	r2, #128	; 0x80
1000176e:	4b28      	ldr	r3, [pc, #160]	; (10001810 <clocks_init+0x2dc>)
10001770:	69a1      	ldr	r1, [r4, #24]
10001772:	0112      	lsls	r2, r2, #4
10001774:	4d25      	ldr	r5, [pc, #148]	; (1000180c <clocks_init+0x2d8>)
10001776:	601a      	str	r2, [r3, #0]
10001778:	2900      	cmp	r1, #0
1000177a:	d005      	beq.n	10001788 <clocks_init+0x254>
1000177c:	6960      	ldr	r0, [r4, #20]
1000177e:	f000 fa8b 	bl	10001c98 <__wrap___aeabi_uidiv>
10001782:	3001      	adds	r0, #1
10001784:	3801      	subs	r0, #1
10001786:	d1fd      	bne.n	10001784 <clocks_init+0x250>
10001788:	22e0      	movs	r2, #224	; 0xe0
1000178a:	4920      	ldr	r1, [pc, #128]	; (1000180c <clocks_init+0x2d8>)
1000178c:	680b      	ldr	r3, [r1, #0]
1000178e:	401a      	ands	r2, r3
10001790:	2380      	movs	r3, #128	; 0x80
10001792:	015b      	lsls	r3, r3, #5
10001794:	432b      	orrs	r3, r5
10001796:	601a      	str	r2, [r3, #0]
10001798:	2380      	movs	r3, #128	; 0x80
1000179a:	2280      	movs	r2, #128	; 0x80
1000179c:	019b      	lsls	r3, r3, #6
1000179e:	432b      	orrs	r3, r5
100017a0:	0112      	lsls	r2, r2, #4
100017a2:	601a      	str	r2, [r3, #0]
100017a4:	2380      	movs	r3, #128	; 0x80
100017a6:	005b      	lsls	r3, r3, #1
100017a8:	604b      	str	r3, [r1, #4]
100017aa:	4b11      	ldr	r3, [pc, #68]	; (100017f0 <clocks_init+0x2bc>)
100017ac:	61a3      	str	r3, [r4, #24]
100017ae:	e6d7      	b.n	10001560 <clocks_init+0x2c>
100017b0:	20000ad4 	.word	0x20000ad4
100017b4:	02dc6c00 	.word	0x02dc6c00
100017b8:	0000b71b 	.word	0x0000b71b
100017bc:	40008000 	.word	0x40008000
100017c0:	4000b03c 	.word	0x4000b03c
100017c4:	4000b030 	.word	0x4000b030
100017c8:	4000e000 	.word	0x4000e000
100017cc:	4000f000 	.word	0x4000f000
100017d0:	4000c000 	.word	0x4000c000
100017d4:	59682f00 	.word	0x59682f00
100017d8:	40028000 	.word	0x40028000
100017dc:	1c9c3800 	.word	0x1c9c3800
100017e0:	4002c000 	.word	0x4002c000
100017e4:	40008030 	.word	0x40008030
100017e8:	00b71b00 	.word	0x00b71b00
100017ec:	4000803c 	.word	0x4000803c
100017f0:	07735940 	.word	0x07735940
100017f4:	40008054 	.word	0x40008054
100017f8:	4000b054 	.word	0x4000b054
100017fc:	40008060 	.word	0x40008060
10001800:	4000b060 	.word	0x4000b060
10001804:	4000806c 	.word	0x4000806c
10001808:	4000b06c 	.word	0x4000b06c
1000180c:	40008048 	.word	0x40008048
10001810:	4000b048 	.word	0x4000b048

10001814 <clock_get_hz>:
10001814:	4b01      	ldr	r3, [pc, #4]	; (1000181c <clock_get_hz+0x8>)
10001816:	0080      	lsls	r0, r0, #2
10001818:	58c0      	ldr	r0, [r0, r3]
1000181a:	4770      	bx	lr
1000181c:	20000ad4 	.word	0x20000ad4

10001820 <watchdog_start_tick>:
10001820:	2380      	movs	r3, #128	; 0x80
10001822:	4a02      	ldr	r2, [pc, #8]	; (1000182c <watchdog_start_tick+0xc>)
10001824:	009b      	lsls	r3, r3, #2
10001826:	4303      	orrs	r3, r0
10001828:	62d3      	str	r3, [r2, #44]	; 0x2c
1000182a:	4770      	bx	lr
1000182c:	40058000 	.word	0x40058000

10001830 <xosc_init>:
10001830:	23aa      	movs	r3, #170	; 0xaa
10001832:	4a06      	ldr	r2, [pc, #24]	; (1000184c <xosc_init+0x1c>)
10001834:	011b      	lsls	r3, r3, #4
10001836:	6013      	str	r3, [r2, #0]
10001838:	232f      	movs	r3, #47	; 0x2f
1000183a:	4905      	ldr	r1, [pc, #20]	; (10001850 <xosc_init+0x20>)
1000183c:	60d3      	str	r3, [r2, #12]
1000183e:	4b05      	ldr	r3, [pc, #20]	; (10001854 <xosc_init+0x24>)
10001840:	6019      	str	r1, [r3, #0]
10001842:	6853      	ldr	r3, [r2, #4]
10001844:	2b00      	cmp	r3, #0
10001846:	dafc      	bge.n	10001842 <xosc_init+0x12>
10001848:	4770      	bx	lr
1000184a:	46c0      	nop			; (mov r8, r8)
1000184c:	40024000 	.word	0x40024000
10001850:	00fab000 	.word	0x00fab000
10001854:	40026000 	.word	0x40026000

10001858 <pll_init>:
10001858:	b5f8      	push	{r3, r4, r5, r6, r7, lr}
1000185a:	001d      	movs	r5, r3
1000185c:	ab06      	add	r3, sp, #24
1000185e:	781e      	ldrb	r6, [r3, #0]
10001860:	2301      	movs	r3, #1
10001862:	425b      	negs	r3, r3
10001864:	6043      	str	r3, [r0, #4]
10001866:	2300      	movs	r3, #0
10001868:	0004      	movs	r4, r0
1000186a:	6083      	str	r3, [r0, #8]
1000186c:	6001      	str	r1, [r0, #0]
1000186e:	200c      	movs	r0, #12
10001870:	0017      	movs	r7, r2
10001872:	f000 fa11 	bl	10001c98 <__wrap___aeabi_uidiv>
10001876:	0141      	lsls	r1, r0, #5
10001878:	1a09      	subs	r1, r1, r0
1000187a:	018b      	lsls	r3, r1, #6
1000187c:	1a59      	subs	r1, r3, r1
1000187e:	00c9      	lsls	r1, r1, #3
10001880:	1809      	adds	r1, r1, r0
10001882:	0189      	lsls	r1, r1, #6
10001884:	0038      	movs	r0, r7
10001886:	f000 fa07 	bl	10001c98 <__wrap___aeabi_uidiv>
1000188a:	21c0      	movs	r1, #192	; 0xc0
1000188c:	1d23      	adds	r3, r4, #4
1000188e:	0189      	lsls	r1, r1, #6
10001890:	4319      	orrs	r1, r3
10001892:	2321      	movs	r3, #33	; 0x21
10001894:	60a0      	str	r0, [r4, #8]
10001896:	600b      	str	r3, [r1, #0]
10001898:	6822      	ldr	r2, [r4, #0]
1000189a:	2a00      	cmp	r2, #0
1000189c:	dafc      	bge.n	10001898 <pll_init+0x40>
1000189e:	2308      	movs	r3, #8
100018a0:	042d      	lsls	r5, r5, #16
100018a2:	0336      	lsls	r6, r6, #12
100018a4:	432e      	orrs	r6, r5
100018a6:	60e6      	str	r6, [r4, #12]
100018a8:	600b      	str	r3, [r1, #0]
100018aa:	bdf8      	pop	{r3, r4, r5, r6, r7, pc}

100018ac <irq_set_enabled>:
100018ac:	2301      	movs	r3, #1
100018ae:	4083      	lsls	r3, r0
100018b0:	2900      	cmp	r1, #0
100018b2:	d004      	beq.n	100018be <irq_set_enabled+0x12>
100018b4:	4a03      	ldr	r2, [pc, #12]	; (100018c4 <irq_set_enabled+0x18>)
100018b6:	6013      	str	r3, [r2, #0]
100018b8:	4a03      	ldr	r2, [pc, #12]	; (100018c8 <irq_set_enabled+0x1c>)
100018ba:	6013      	str	r3, [r2, #0]
100018bc:	4770      	bx	lr
100018be:	4a03      	ldr	r2, [pc, #12]	; (100018cc <irq_set_enabled+0x20>)
100018c0:	6013      	str	r3, [r2, #0]
100018c2:	e7fb      	b.n	100018bc <irq_set_enabled+0x10>
100018c4:	e000e280 	.word	0xe000e280
100018c8:	e000e100 	.word	0xe000e100
100018cc:	e000e180 	.word	0xe000e180

100018d0 <irq_get_vtable_handler>:
100018d0:	4b02      	ldr	r3, [pc, #8]	; (100018dc <irq_get_vtable_handler+0xc>)
100018d2:	3010      	adds	r0, #16
100018d4:	689b      	ldr	r3, [r3, #8]
100018d6:	0080      	lsls	r0, r0, #2
100018d8:	58c0      	ldr	r0, [r0, r3]
100018da:	4770      	bx	lr
100018dc:	e000ed00 	.word	0xe000ed00

100018e0 <irq_set_exclusive_handler>:
100018e0:	b570      	push	{r4, r5, r6, lr}
100018e2:	000d      	movs	r5, r1
100018e4:	f3ef 8610 	mrs	r6, PRIMASK
100018e8:	b672      	cpsid	i
100018ea:	4a0f      	ldr	r2, [pc, #60]	; (10001928 <irq_set_exclusive_handler+0x48>)
100018ec:	6813      	ldr	r3, [r2, #0]
100018ee:	2b00      	cmp	r3, #0
100018f0:	d0fc      	beq.n	100018ec <irq_set_exclusive_handler+0xc>
100018f2:	f3bf 8f5f 	dmb	sy
100018f6:	4b0d      	ldr	r3, [pc, #52]	; (1000192c <irq_set_exclusive_handler+0x4c>)
100018f8:	3010      	adds	r0, #16
100018fa:	689b      	ldr	r3, [r3, #8]
100018fc:	0084      	lsls	r4, r0, #2
100018fe:	591b      	ldr	r3, [r3, r4]
10001900:	4a0b      	ldr	r2, [pc, #44]	; (10001930 <irq_set_exclusive_handler+0x50>)
10001902:	4293      	cmp	r3, r2
10001904:	d003      	beq.n	1000190e <irq_set_exclusive_handler+0x2e>
10001906:	429d      	cmp	r5, r3
10001908:	d001      	beq.n	1000190e <irq_set_exclusive_handler+0x2e>
1000190a:	f7ff fe0d 	bl	10001528 <hard_assertion_failure>
1000190e:	4b07      	ldr	r3, [pc, #28]	; (1000192c <irq_set_exclusive_handler+0x4c>)
10001910:	689b      	ldr	r3, [r3, #8]
10001912:	511d      	str	r5, [r3, r4]
10001914:	f3bf 8f5f 	dmb	sy
10001918:	f3bf 8f5f 	dmb	sy
1000191c:	2200      	movs	r2, #0
1000191e:	4b02      	ldr	r3, [pc, #8]	; (10001928 <irq_set_exclusive_handler+0x48>)
10001920:	601a      	str	r2, [r3, #0]
10001922:	f386 8810 	msr	PRIMASK, r6
10001926:	bd70      	pop	{r4, r5, r6, pc}
10001928:	d0000124 	.word	0xd0000124
1000192c:	e000ed00 	.word	0xe000ed00
10001930:	100002cd 	.word	0x100002cd

10001934 <irq_remove_handler>:
10001934:	b5f0      	push	{r4, r5, r6, r7, lr}
10001936:	46de      	mov	lr, fp
10001938:	4657      	mov	r7, sl
1000193a:	464e      	mov	r6, r9
1000193c:	4645      	mov	r5, r8
1000193e:	b5e0      	push	{r5, r6, r7, lr}
10001940:	000c      	movs	r4, r1
10001942:	b083      	sub	sp, #12
10001944:	f3ef 8a10 	mrs	sl, PRIMASK
10001948:	b672      	cpsid	i
1000194a:	4a5f      	ldr	r2, [pc, #380]	; (10001ac8 <irq_remove_handler+0x194>)
1000194c:	6813      	ldr	r3, [r2, #0]
1000194e:	2b00      	cmp	r3, #0
10001950:	d0fc      	beq.n	1000194c <irq_remove_handler+0x18>
10001952:	f3bf 8f5f 	dmb	sy
10001956:	2210      	movs	r2, #16
10001958:	4691      	mov	r9, r2
1000195a:	4481      	add	r9, r0
1000195c:	464a      	mov	r2, r9
1000195e:	4b5b      	ldr	r3, [pc, #364]	; (10001acc <irq_remove_handler+0x198>)
10001960:	0096      	lsls	r6, r2, #2
10001962:	689b      	ldr	r3, [r3, #8]
10001964:	599d      	ldr	r5, [r3, r6]
10001966:	4b5a      	ldr	r3, [pc, #360]	; (10001ad0 <irq_remove_handler+0x19c>)
10001968:	4698      	mov	r8, r3
1000196a:	429d      	cmp	r5, r3
1000196c:	d005      	beq.n	1000197a <irq_remove_handler+0x46>
1000196e:	42a5      	cmp	r5, r4
10001970:	d016      	beq.n	100019a0 <irq_remove_handler+0x6c>
10001972:	4f58      	ldr	r7, [pc, #352]	; (10001ad4 <irq_remove_handler+0x1a0>)
10001974:	1beb      	subs	r3, r5, r7
10001976:	2b2f      	cmp	r3, #47	; 0x2f
10001978:	d914      	bls.n	100019a4 <irq_remove_handler+0x70>
1000197a:	4b54      	ldr	r3, [pc, #336]	; (10001acc <irq_remove_handler+0x198>)
1000197c:	689b      	ldr	r3, [r3, #8]
1000197e:	519d      	str	r5, [r3, r6]
10001980:	f3bf 8f5f 	dmb	sy
10001984:	f3bf 8f5f 	dmb	sy
10001988:	2200      	movs	r2, #0
1000198a:	4b4f      	ldr	r3, [pc, #316]	; (10001ac8 <irq_remove_handler+0x194>)
1000198c:	601a      	str	r2, [r3, #0]
1000198e:	f38a 8810 	msr	PRIMASK, sl
10001992:	b003      	add	sp, #12
10001994:	bc3c      	pop	{r2, r3, r4, r5}
10001996:	4690      	mov	r8, r2
10001998:	4699      	mov	r9, r3
1000199a:	46a2      	mov	sl, r4
1000199c:	46ab      	mov	fp, r5
1000199e:	bdf0      	pop	{r4, r5, r6, r7, pc}
100019a0:	001d      	movs	r5, r3
100019a2:	e7ea      	b.n	1000197a <irq_remove_handler+0x46>
100019a4:	2301      	movs	r3, #1
100019a6:	4083      	lsls	r3, r0
100019a8:	469b      	mov	fp, r3
100019aa:	465a      	mov	r2, fp
100019ac:	4b4a      	ldr	r3, [pc, #296]	; (10001ad8 <irq_remove_handler+0x1a4>)
100019ae:	681b      	ldr	r3, [r3, #0]
100019b0:	401a      	ands	r2, r3
100019b2:	9200      	str	r2, [sp, #0]
100019b4:	465a      	mov	r2, fp
100019b6:	4b49      	ldr	r3, [pc, #292]	; (10001adc <irq_remove_handler+0x1a8>)
100019b8:	601a      	str	r2, [r3, #0]
100019ba:	f3bf 8f5f 	dmb	sy
100019be:	f7fe fbea 	bl	10000196 <__get_current_exception>
100019c2:	9001      	str	r0, [sp, #4]
100019c4:	2800      	cmp	r0, #0
100019c6:	d003      	beq.n	100019d0 <irq_remove_handler+0x9c>
100019c8:	4581      	cmp	r9, r0
100019ca:	d001      	beq.n	100019d0 <irq_remove_handler+0x9c>
100019cc:	f7ff fdac 	bl	10001528 <hard_assertion_failure>
100019d0:	2301      	movs	r3, #1
100019d2:	0029      	movs	r1, r5
100019d4:	4399      	bics	r1, r3
100019d6:	688b      	ldr	r3, [r1, #8]
100019d8:	42a3      	cmp	r3, r4
100019da:	d069      	beq.n	10001ab0 <irq_remove_handler+0x17c>
100019dc:	000a      	movs	r2, r1
100019de:	e007      	b.n	100019f0 <irq_remove_handler+0xbc>
100019e0:	0043      	lsls	r3, r0, #1
100019e2:	181b      	adds	r3, r3, r0
100019e4:	009b      	lsls	r3, r3, #2
100019e6:	18fb      	adds	r3, r7, r3
100019e8:	6898      	ldr	r0, [r3, #8]
100019ea:	42a0      	cmp	r0, r4
100019ec:	d011      	beq.n	10001a12 <irq_remove_handler+0xde>
100019ee:	001a      	movs	r2, r3
100019f0:	2006      	movs	r0, #6
100019f2:	5610      	ldrsb	r0, [r2, r0]
100019f4:	2800      	cmp	r0, #0
100019f6:	daf3      	bge.n	100019e0 <irq_remove_handler+0xac>
100019f8:	9b00      	ldr	r3, [sp, #0]
100019fa:	2b00      	cmp	r3, #0
100019fc:	d005      	beq.n	10001a0a <irq_remove_handler+0xd6>
100019fe:	465a      	mov	r2, fp
10001a00:	4b37      	ldr	r3, [pc, #220]	; (10001ae0 <irq_remove_handler+0x1ac>)
10001a02:	601a      	str	r2, [r3, #0]
10001a04:	4b34      	ldr	r3, [pc, #208]	; (10001ad8 <irq_remove_handler+0x1a4>)
10001a06:	601a      	str	r2, [r3, #0]
10001a08:	e7b7      	b.n	1000197a <irq_remove_handler+0x46>
10001a0a:	465a      	mov	r2, fp
10001a0c:	4b33      	ldr	r3, [pc, #204]	; (10001adc <irq_remove_handler+0x1a8>)
10001a0e:	601a      	str	r2, [r3, #0]
10001a10:	e7b3      	b.n	1000197a <irq_remove_handler+0x46>
10001a12:	2006      	movs	r0, #6
10001a14:	5618      	ldrsb	r0, [r3, r0]
10001a16:	2800      	cmp	r0, #0
10001a18:	db22      	blt.n	10001a60 <irq_remove_handler+0x12c>
10001a1a:	0042      	lsls	r2, r0, #1
10001a1c:	1811      	adds	r1, r2, r0
10001a1e:	0089      	lsls	r1, r1, #2
10001a20:	187c      	adds	r4, r7, r1
10001a22:	4688      	mov	r8, r1
10001a24:	68a1      	ldr	r1, [r4, #8]
10001a26:	6099      	str	r1, [r3, #8]
10001a28:	79e1      	ldrb	r1, [r4, #7]
10001a2a:	71d9      	strb	r1, [r3, #7]
10001a2c:	2106      	movs	r1, #6
10001a2e:	5661      	ldrsb	r1, [r4, r1]
10001a30:	7199      	strb	r1, [r3, #6]
10001a32:	79a1      	ldrb	r1, [r4, #6]
10001a34:	297f      	cmp	r1, #127	; 0x7f
10001a36:	d82b      	bhi.n	10001a90 <irq_remove_handler+0x15c>
10001a38:	88a4      	ldrh	r4, [r4, #4]
10001a3a:	1af9      	subs	r1, r7, r3
10001a3c:	0564      	lsls	r4, r4, #21
10001a3e:	1524      	asrs	r4, r4, #20
10001a40:	4444      	add	r4, r8
10001a42:	1909      	adds	r1, r1, r4
10001a44:	24e0      	movs	r4, #224	; 0xe0
10001a46:	0509      	lsls	r1, r1, #20
10001a48:	0d49      	lsrs	r1, r1, #21
10001a4a:	0224      	lsls	r4, r4, #8
10001a4c:	4321      	orrs	r1, r4
10001a4e:	8099      	strh	r1, [r3, #4]
10001a50:	1812      	adds	r2, r2, r0
10001a52:	4b24      	ldr	r3, [pc, #144]	; (10001ae4 <irq_remove_handler+0x1b0>)
10001a54:	0092      	lsls	r2, r2, #2
10001a56:	18bf      	adds	r7, r7, r2
10001a58:	781a      	ldrb	r2, [r3, #0]
10001a5a:	7018      	strb	r0, [r3, #0]
10001a5c:	71ba      	strb	r2, [r7, #6]
10001a5e:	e7cb      	b.n	100019f8 <irq_remove_handler+0xc4>
10001a60:	9801      	ldr	r0, [sp, #4]
10001a62:	2800      	cmp	r0, #0
10001a64:	d117      	bne.n	10001a96 <irq_remove_handler+0x162>
10001a66:	30ff      	adds	r0, #255	; 0xff
10001a68:	7190      	strb	r0, [r2, #6]
10001a6a:	481f      	ldr	r0, [pc, #124]	; (10001ae8 <irq_remove_handler+0x1b4>)
10001a6c:	8090      	strh	r0, [r2, #4]
10001a6e:	4a1d      	ldr	r2, [pc, #116]	; (10001ae4 <irq_remove_handler+0x1b0>)
10001a70:	1bcf      	subs	r7, r1, r7
10001a72:	7810      	ldrb	r0, [r2, #0]
10001a74:	10bf      	asrs	r7, r7, #2
10001a76:	7198      	strb	r0, [r3, #6]
10001a78:	00bb      	lsls	r3, r7, #2
10001a7a:	19db      	adds	r3, r3, r7
10001a7c:	0119      	lsls	r1, r3, #4
10001a7e:	185b      	adds	r3, r3, r1
10001a80:	0219      	lsls	r1, r3, #8
10001a82:	185b      	adds	r3, r3, r1
10001a84:	0419      	lsls	r1, r3, #16
10001a86:	185b      	adds	r3, r3, r1
10001a88:	005b      	lsls	r3, r3, #1
10001a8a:	19db      	adds	r3, r3, r7
10001a8c:	7013      	strb	r3, [r2, #0]
10001a8e:	e7b3      	b.n	100019f8 <irq_remove_handler+0xc4>
10001a90:	21bd      	movs	r1, #189	; 0xbd
10001a92:	0209      	lsls	r1, r1, #8
10001a94:	e7db      	b.n	10001a4e <irq_remove_handler+0x11a>
10001a96:	4a15      	ldr	r2, [pc, #84]	; (10001aec <irq_remove_handler+0x1b8>)
10001a98:	4915      	ldr	r1, [pc, #84]	; (10001af0 <irq_remove_handler+0x1bc>)
10001a9a:	1ad2      	subs	r2, r2, r3
10001a9c:	3a08      	subs	r2, #8
10001a9e:	0250      	lsls	r0, r2, #9
10001aa0:	0d40      	lsrs	r0, r0, #21
10001aa2:	4301      	orrs	r1, r0
10001aa4:	8099      	strh	r1, [r3, #4]
10001aa6:	4913      	ldr	r1, [pc, #76]	; (10001af4 <irq_remove_handler+0x1c0>)
10001aa8:	0852      	lsrs	r2, r2, #1
10001aaa:	430a      	orrs	r2, r1
10001aac:	80da      	strh	r2, [r3, #6]
10001aae:	e7a3      	b.n	100019f8 <irq_remove_handler+0xc4>
10001ab0:	2006      	movs	r0, #6
10001ab2:	5608      	ldrsb	r0, [r1, r0]
10001ab4:	000b      	movs	r3, r1
10001ab6:	2800      	cmp	r0, #0
10001ab8:	daaf      	bge.n	10001a1a <irq_remove_handler+0xe6>
10001aba:	9a01      	ldr	r2, [sp, #4]
10001abc:	2a00      	cmp	r2, #0
10001abe:	d1ea      	bne.n	10001a96 <irq_remove_handler+0x162>
10001ac0:	000b      	movs	r3, r1
10001ac2:	4645      	mov	r5, r8
10001ac4:	e7d3      	b.n	10001a6e <irq_remove_handler+0x13a>
10001ac6:	46c0      	nop			; (mov r8, r8)
10001ac8:	d0000124 	.word	0xd0000124
10001acc:	e000ed00 	.word	0xe000ed00
10001ad0:	100002cd 	.word	0x100002cd
10001ad4:	2000018c 	.word	0x2000018c
10001ad8:	e000e100 	.word	0xe000e100
10001adc:	e000e180 	.word	0xe000e180
10001ae0:	e000e280 	.word	0xe000e280
10001ae4:	20000b31 	.word	0x20000b31
10001ae8:	ffffbd00 	.word	0xffffbd00
10001aec:	200001c6 	.word	0x200001c6
10001af0:	fffff000 	.word	0xfffff000
10001af4:	fffff800 	.word	0xfffff800

10001af8 <irq_add_tail_to_free_list>:
10001af8:	b5f8      	push	{r3, r4, r5, r6, r7, lr}
10001afa:	2501      	movs	r5, #1
10001afc:	0004      	movs	r4, r0
10001afe:	4305      	orrs	r5, r0
10001b00:	f7fe fb49 	bl	10000196 <__get_current_exception>
10001b04:	f3ef 8610 	mrs	r6, PRIMASK
10001b08:	b672      	cpsid	i
10001b0a:	4a24      	ldr	r2, [pc, #144]	; (10001b9c <irq_add_tail_to_free_list+0xa4>)
10001b0c:	6813      	ldr	r3, [r2, #0]
10001b0e:	2b00      	cmp	r3, #0
10001b10:	d0fc      	beq.n	10001b0c <irq_add_tail_to_free_list+0x14>
10001b12:	f3bf 8f5f 	dmb	sy
10001b16:	4f22      	ldr	r7, [pc, #136]	; (10001ba0 <irq_add_tail_to_free_list+0xa8>)
10001b18:	0080      	lsls	r0, r0, #2
10001b1a:	1be1      	subs	r1, r4, r7
10001b1c:	1089      	asrs	r1, r1, #2
10001b1e:	008a      	lsls	r2, r1, #2
10001b20:	1852      	adds	r2, r2, r1
10001b22:	0113      	lsls	r3, r2, #4
10001b24:	18d2      	adds	r2, r2, r3
10001b26:	0213      	lsls	r3, r2, #8
10001b28:	18d2      	adds	r2, r2, r3
10001b2a:	0413      	lsls	r3, r2, #16
10001b2c:	18d3      	adds	r3, r2, r3
10001b2e:	4a1d      	ldr	r2, [pc, #116]	; (10001ba4 <irq_add_tail_to_free_list+0xac>)
10001b30:	005b      	lsls	r3, r3, #1
10001b32:	185b      	adds	r3, r3, r1
10001b34:	6891      	ldr	r1, [r2, #8]
10001b36:	5809      	ldr	r1, [r1, r0]
10001b38:	42a9      	cmp	r1, r5
10001b3a:	d01c      	beq.n	10001b76 <irq_add_tail_to_free_list+0x7e>
10001b3c:	2206      	movs	r2, #6
10001b3e:	56ba      	ldrsb	r2, [r7, r2]
10001b40:	4293      	cmp	r3, r2
10001b42:	d01c      	beq.n	10001b7e <irq_add_tail_to_free_list+0x86>
10001b44:	2212      	movs	r2, #18
10001b46:	56ba      	ldrsb	r2, [r7, r2]
10001b48:	4293      	cmp	r3, r2
10001b4a:	d022      	beq.n	10001b92 <irq_add_tail_to_free_list+0x9a>
10001b4c:	221e      	movs	r2, #30
10001b4e:	56ba      	ldrsb	r2, [r7, r2]
10001b50:	4293      	cmp	r3, r2
10001b52:	d020      	beq.n	10001b96 <irq_add_tail_to_free_list+0x9e>
10001b54:	222a      	movs	r2, #42	; 0x2a
10001b56:	56ba      	ldrsb	r2, [r7, r2]
10001b58:	2103      	movs	r1, #3
10001b5a:	429a      	cmp	r2, r3
10001b5c:	d010      	beq.n	10001b80 <irq_add_tail_to_free_list+0x88>
10001b5e:	4a12      	ldr	r2, [pc, #72]	; (10001ba8 <irq_add_tail_to_free_list+0xb0>)
10001b60:	7811      	ldrb	r1, [r2, #0]
10001b62:	7013      	strb	r3, [r2, #0]
10001b64:	71a1      	strb	r1, [r4, #6]
10001b66:	f3bf 8f5f 	dmb	sy
10001b6a:	2200      	movs	r2, #0
10001b6c:	4b0b      	ldr	r3, [pc, #44]	; (10001b9c <irq_add_tail_to_free_list+0xa4>)
10001b6e:	601a      	str	r2, [r3, #0]
10001b70:	f386 8810 	msr	PRIMASK, r6
10001b74:	bdf8      	pop	{r3, r4, r5, r6, r7, pc}
10001b76:	6892      	ldr	r2, [r2, #8]
10001b78:	490c      	ldr	r1, [pc, #48]	; (10001bac <irq_add_tail_to_free_list+0xb4>)
10001b7a:	5011      	str	r1, [r2, r0]
10001b7c:	e7ef      	b.n	10001b5e <irq_add_tail_to_free_list+0x66>
10001b7e:	2100      	movs	r1, #0
10001b80:	004a      	lsls	r2, r1, #1
10001b82:	1852      	adds	r2, r2, r1
10001b84:	21ff      	movs	r1, #255	; 0xff
10001b86:	0092      	lsls	r2, r2, #2
10001b88:	18ba      	adds	r2, r7, r2
10001b8a:	7191      	strb	r1, [r2, #6]
10001b8c:	4908      	ldr	r1, [pc, #32]	; (10001bb0 <irq_add_tail_to_free_list+0xb8>)
10001b8e:	8091      	strh	r1, [r2, #4]
10001b90:	e7e5      	b.n	10001b5e <irq_add_tail_to_free_list+0x66>
10001b92:	2101      	movs	r1, #1
10001b94:	e7f4      	b.n	10001b80 <irq_add_tail_to_free_list+0x88>
10001b96:	2102      	movs	r1, #2
10001b98:	e7f2      	b.n	10001b80 <irq_add_tail_to_free_list+0x88>
10001b9a:	46c0      	nop			; (mov r8, r8)
10001b9c:	d0000124 	.word	0xd0000124
10001ba0:	2000018c 	.word	0x2000018c
10001ba4:	e000ed00 	.word	0xe000ed00
10001ba8:	20000b31 	.word	0x20000b31
10001bac:	100002cd 	.word	0x100002cd
10001bb0:	ffffbd00 	.word	0xffffbd00

10001bb4 <irq_init_priorities>:
10001bb4:	b5f0      	push	{r4, r5, r6, r7, lr}
10001bb6:	2200      	movs	r2, #0
10001bb8:	2403      	movs	r4, #3
10001bba:	27ff      	movs	r7, #255	; 0xff
10001bbc:	2680      	movs	r6, #128	; 0x80
10001bbe:	0020      	movs	r0, r4
10001bc0:	003d      	movs	r5, r7
10001bc2:	4b09      	ldr	r3, [pc, #36]	; (10001be8 <irq_init_priorities+0x34>)
10001bc4:	0011      	movs	r1, r2
10001bc6:	469c      	mov	ip, r3
10001bc8:	4010      	ands	r0, r2
10001bca:	00c0      	lsls	r0, r0, #3
10001bcc:	4085      	lsls	r5, r0
10001bce:	43a1      	bics	r1, r4
10001bd0:	4461      	add	r1, ip
10001bd2:	680b      	ldr	r3, [r1, #0]
10001bd4:	3201      	adds	r2, #1
10001bd6:	43ab      	bics	r3, r5
10001bd8:	0035      	movs	r5, r6
10001bda:	4085      	lsls	r5, r0
10001bdc:	432b      	orrs	r3, r5
10001bde:	600b      	str	r3, [r1, #0]
10001be0:	2a20      	cmp	r2, #32
10001be2:	d1ec      	bne.n	10001bbe <irq_init_priorities+0xa>
10001be4:	bdf0      	pop	{r4, r5, r6, r7, pc}
10001be6:	46c0      	nop			; (mov r8, r8)
10001be8:	e000e400 	.word	0xe000e400

10001bec <_out_char>:
10001bec:	b510      	push	{r4, lr}
10001bee:	2800      	cmp	r0, #0
10001bf0:	d100      	bne.n	10001bf4 <_out_char+0x8>
10001bf2:	bd10      	pop	{r4, pc}
10001bf4:	f000 fa66 	bl	100020c4 <__wrap_putchar>
10001bf8:	e7fb      	b.n	10001bf2 <_out_char+0x6>
10001bfa:	46c0      	nop			; (mov r8, r8)

10001bfc <weak_raw_vprintf>:
10001bfc:	b510      	push	{r4, lr}
10001bfe:	4a09      	ldr	r2, [pc, #36]	; (10001c24 <weak_raw_vprintf+0x28>)
10001c00:	0003      	movs	r3, r0
10001c02:	6814      	ldr	r4, [r2, #0]
10001c04:	b084      	sub	sp, #16
10001c06:	2c00      	cmp	r4, #0
10001c08:	d008      	beq.n	10001c1c <weak_raw_vprintf+0x20>
10001c0a:	2201      	movs	r2, #1
10001c0c:	9100      	str	r1, [sp, #0]
10001c0e:	4806      	ldr	r0, [pc, #24]	; (10001c28 <weak_raw_vprintf+0x2c>)
10001c10:	4252      	negs	r2, r2
10001c12:	a903      	add	r1, sp, #12
10001c14:	47a0      	blx	r4
10001c16:	2001      	movs	r0, #1
10001c18:	b004      	add	sp, #16
10001c1a:	bd10      	pop	{r4, pc}
10001c1c:	f000 fa60 	bl	100020e0 <__wrap_puts>
10001c20:	2000      	movs	r0, #0
10001c22:	e7f9      	b.n	10001c18 <weak_raw_vprintf+0x1c>
10001c24:	20000b0c 	.word	0x20000b0c
10001c28:	10001bed 	.word	0x10001bed

10001c2c <__aeabi_bits_init>:
10001c2c:	4801      	ldr	r0, [pc, #4]	; (10001c34 <__aeabi_bits_init+0x8>)
10001c2e:	2104      	movs	r1, #4
10001c30:	4b01      	ldr	r3, [pc, #4]	; (10001c38 <__aeabi_bits_init+0xc>)
10001c32:	4718      	bx	r3
10001c34:	200001e0 	.word	0x200001e0
10001c38:	10001c5d 	.word	0x10001c5d

10001c3c <rom_func_lookup>:
10001c3c:	2314      	movs	r3, #20
10001c3e:	b510      	push	{r4, lr}
10001c40:	0001      	movs	r1, r0
10001c42:	8818      	ldrh	r0, [r3, #0]
10001c44:	3304      	adds	r3, #4
10001c46:	881b      	ldrh	r3, [r3, #0]
10001c48:	4798      	blx	r3
10001c4a:	bd10      	pop	{r4, pc}

10001c4c <rom_data_lookup>:
10001c4c:	2316      	movs	r3, #22
10001c4e:	b510      	push	{r4, lr}
10001c50:	0001      	movs	r1, r0
10001c52:	8818      	ldrh	r0, [r3, #0]
10001c54:	3302      	adds	r3, #2
10001c56:	881b      	ldrh	r3, [r3, #0]
10001c58:	4798      	blx	r3
10001c5a:	bd10      	pop	{r4, pc}

10001c5c <rom_funcs_lookup>:
10001c5c:	b5f0      	push	{r4, r5, r6, r7, lr}
10001c5e:	46c6      	mov	lr, r8
10001c60:	b500      	push	{lr}
10001c62:	2900      	cmp	r1, #0
10001c64:	d016      	beq.n	10001c94 <rom_funcs_lookup+0x38>
10001c66:	2314      	movs	r3, #20
10001c68:	0004      	movs	r4, r0
10001c6a:	2501      	movs	r5, #1
10001c6c:	4698      	mov	r8, r3
10001c6e:	2718      	movs	r7, #24
10001c70:	0089      	lsls	r1, r1, #2
10001c72:	1846      	adds	r6, r0, r1
10001c74:	4643      	mov	r3, r8
10001c76:	6821      	ldr	r1, [r4, #0]
10001c78:	8818      	ldrh	r0, [r3, #0]
10001c7a:	883b      	ldrh	r3, [r7, #0]
10001c7c:	4798      	blx	r3
10001c7e:	c401      	stmia	r4!, {r0}
10001c80:	1e43      	subs	r3, r0, #1
10001c82:	4198      	sbcs	r0, r3
10001c84:	4240      	negs	r0, r0
10001c86:	4005      	ands	r5, r0
10001c88:	42a6      	cmp	r6, r4
10001c8a:	d1f3      	bne.n	10001c74 <rom_funcs_lookup+0x18>
10001c8c:	0028      	movs	r0, r5
10001c8e:	bc04      	pop	{r2}
10001c90:	4690      	mov	r8, r2
10001c92:	bdf0      	pop	{r4, r5, r6, r7, pc}
10001c94:	2501      	movs	r5, #1
10001c96:	e7f9      	b.n	10001c8c <rom_funcs_lookup+0x30>

10001c98 <__wrap___aeabi_uidiv>:
10001c98:	4a13      	ldr	r2, [pc, #76]	; (10001ce8 <divmod_u32u32_savestate+0x20>)
10001c9a:	6f93      	ldr	r3, [r2, #120]	; 0x78
10001c9c:	089b      	lsrs	r3, r3, #2
10001c9e:	d213      	bcs.n	10001cc8 <divmod_u32u32_savestate>

10001ca0 <divmod_u32u32_unsafe>:
10001ca0:	6610      	str	r0, [r2, #96]	; 0x60
10001ca2:	6651      	str	r1, [r2, #100]	; 0x64
10001ca4:	2900      	cmp	r1, #0
10001ca6:	d005      	beq.n	10001cb4 <divmod_u32u32_unsafe+0x14>
10001ca8:	e7ff      	b.n	10001caa <divmod_u32u32_unsafe+0xa>
10001caa:	e7ff      	b.n	10001cac <divmod_u32u32_unsafe+0xc>
10001cac:	e7ff      	b.n	10001cae <divmod_u32u32_unsafe+0xe>
10001cae:	6f51      	ldr	r1, [r2, #116]	; 0x74
10001cb0:	6f10      	ldr	r0, [r2, #112]	; 0x70
10001cb2:	4770      	bx	lr
10001cb4:	b504      	push	{r2, lr}
10001cb6:	2800      	cmp	r0, #0
10001cb8:	d001      	beq.n	10001cbe <divmod_u32u32_unsafe+0x1e>
10001cba:	2000      	movs	r0, #0
10001cbc:	43c0      	mvns	r0, r0
10001cbe:	f001 f853 	bl	10002d68 <____aeabi_idiv0_veneer>
10001cc2:	2100      	movs	r1, #0
10001cc4:	bd04      	pop	{r2, pc}
10001cc6:	46c0      	nop			; (mov r8, r8)

10001cc8 <divmod_u32u32_savestate>:
10001cc8:	6f93      	ldr	r3, [r2, #120]	; 0x78
10001cca:	085b      	lsrs	r3, r3, #1
10001ccc:	d3fd      	bcc.n	10001cca <divmod_u32u32_savestate+0x2>
10001cce:	b5f0      	push	{r4, r5, r6, r7, lr}
10001cd0:	6e94      	ldr	r4, [r2, #104]	; 0x68
10001cd2:	6ed5      	ldr	r5, [r2, #108]	; 0x6c
10001cd4:	6f57      	ldr	r7, [r2, #116]	; 0x74
10001cd6:	6f16      	ldr	r6, [r2, #112]	; 0x70
10001cd8:	f7ff ffe2 	bl	10001ca0 <divmod_u32u32_unsafe>
10001cdc:	6694      	str	r4, [r2, #104]	; 0x68
10001cde:	66d5      	str	r5, [r2, #108]	; 0x6c
10001ce0:	6757      	str	r7, [r2, #116]	; 0x74
10001ce2:	6716      	str	r6, [r2, #112]	; 0x70
10001ce4:	bdf0      	pop	{r4, r5, r6, r7, pc}
10001ce6:	0000      	.short	0x0000
10001ce8:	d0000000 	.word	0xd0000000

10001cec <__aeabi_double_init>:
10001cec:	2313      	movs	r3, #19
10001cee:	b570      	push	{r4, r5, r6, lr}
10001cf0:	781d      	ldrb	r5, [r3, #0]
10001cf2:	2d01      	cmp	r5, #1
10001cf4:	d010      	beq.n	10001d18 <__aeabi_double_init+0x2c>
10001cf6:	dd0b      	ble.n	10001d10 <__aeabi_double_init+0x24>
10001cf8:	4824      	ldr	r0, [pc, #144]	; (10001d8c <__aeabi_double_init+0xa0>)
10001cfa:	f7ff ffa7 	bl	10001c4c <rom_data_lookup>
10001cfe:	4c24      	ldr	r4, [pc, #144]	; (10001d90 <__aeabi_double_init+0xa4>)
10001d00:	0001      	movs	r1, r0
10001d02:	2280      	movs	r2, #128	; 0x80
10001d04:	0020      	movs	r0, r4
10001d06:	f000 f915 	bl	10001f34 <__wrap___aeabi_memcpy>
10001d0a:	2d02      	cmp	r5, #2
10001d0c:	d001      	beq.n	10001d12 <__aeabi_double_init+0x26>
10001d0e:	bd70      	pop	{r4, r5, r6, pc}
10001d10:	4c1f      	ldr	r4, [pc, #124]	; (10001d90 <__aeabi_double_init+0xa4>)
10001d12:	4a20      	ldr	r2, [pc, #128]	; (10001d94 <__aeabi_double_init+0xa8>)
10001d14:	64a2      	str	r2, [r4, #72]	; 0x48
10001d16:	e7fa      	b.n	10001d0e <__aeabi_double_init+0x22>
10001d18:	002e      	movs	r6, r5
10001d1a:	4c1d      	ldr	r4, [pc, #116]	; (10001d90 <__aeabi_double_init+0xa4>)
10001d1c:	4a1d      	ldr	r2, [pc, #116]	; (10001d94 <__aeabi_double_init+0xa8>)
10001d1e:	08a3      	lsrs	r3, r4, #2
10001d20:	425b      	negs	r3, r3
10001d22:	401e      	ands	r6, r3
10001d24:	421d      	tst	r5, r3
10001d26:	d02f      	beq.n	10001d88 <__aeabi_double_init+0x9c>
10001d28:	0033      	movs	r3, r6
10001d2a:	6022      	str	r2, [r4, #0]
10001d2c:	2020      	movs	r0, #32
10001d2e:	00b1      	lsls	r1, r6, #2
10001d30:	1861      	adds	r1, r4, r1
10001d32:	1b80      	subs	r0, r0, r6
10001d34:	600a      	str	r2, [r1, #0]
10001d36:	604a      	str	r2, [r1, #4]
10001d38:	608a      	str	r2, [r1, #8]
10001d3a:	60ca      	str	r2, [r1, #12]
10001d3c:	610a      	str	r2, [r1, #16]
10001d3e:	614a      	str	r2, [r1, #20]
10001d40:	618a      	str	r2, [r1, #24]
10001d42:	61ca      	str	r2, [r1, #28]
10001d44:	620a      	str	r2, [r1, #32]
10001d46:	624a      	str	r2, [r1, #36]	; 0x24
10001d48:	628a      	str	r2, [r1, #40]	; 0x28
10001d4a:	62ca      	str	r2, [r1, #44]	; 0x2c
10001d4c:	630a      	str	r2, [r1, #48]	; 0x30
10001d4e:	634a      	str	r2, [r1, #52]	; 0x34
10001d50:	638a      	str	r2, [r1, #56]	; 0x38
10001d52:	63ca      	str	r2, [r1, #60]	; 0x3c
10001d54:	640a      	str	r2, [r1, #64]	; 0x40
10001d56:	644a      	str	r2, [r1, #68]	; 0x44
10001d58:	648a      	str	r2, [r1, #72]	; 0x48
10001d5a:	64ca      	str	r2, [r1, #76]	; 0x4c
10001d5c:	650a      	str	r2, [r1, #80]	; 0x50
10001d5e:	654a      	str	r2, [r1, #84]	; 0x54
10001d60:	658a      	str	r2, [r1, #88]	; 0x58
10001d62:	65ca      	str	r2, [r1, #92]	; 0x5c
10001d64:	660a      	str	r2, [r1, #96]	; 0x60
10001d66:	664a      	str	r2, [r1, #100]	; 0x64
10001d68:	668a      	str	r2, [r1, #104]	; 0x68
10001d6a:	66ca      	str	r2, [r1, #108]	; 0x6c
10001d6c:	670a      	str	r2, [r1, #112]	; 0x70
10001d6e:	674a      	str	r2, [r1, #116]	; 0x74
10001d70:	0840      	lsrs	r0, r0, #1
10001d72:	2810      	cmp	r0, #16
10001d74:	d103      	bne.n	10001d7e <__aeabi_double_init+0x92>
10001d76:	678a      	str	r2, [r1, #120]	; 0x78
10001d78:	67ca      	str	r2, [r1, #124]	; 0x7c
10001d7a:	64a2      	str	r2, [r4, #72]	; 0x48
10001d7c:	e7c7      	b.n	10001d0e <__aeabi_double_init+0x22>
10001d7e:	331e      	adds	r3, #30
10001d80:	009b      	lsls	r3, r3, #2
10001d82:	50e2      	str	r2, [r4, r3]
10001d84:	64a2      	str	r2, [r4, #72]	; 0x48
10001d86:	e7c2      	b.n	10001d0e <__aeabi_double_init+0x22>
10001d88:	2300      	movs	r3, #0
10001d8a:	e7cf      	b.n	10001d2c <__aeabi_double_init+0x40>
10001d8c:	00004453 	.word	0x00004453
10001d90:	20000b38 	.word	0x20000b38
10001d94:	10001d99 	.word	0x10001d99

10001d98 <double_table_shim_on_use_helper>:
10001d98:	b507      	push	{r0, r1, r2, lr}
10001d9a:	4660      	mov	r0, ip
10001d9c:	8801      	ldrh	r1, [r0, #0]
10001d9e:	0a0a      	lsrs	r2, r1, #8
10001da0:	3002      	adds	r0, #2
10001da2:	2adf      	cmp	r2, #223	; 0xdf
10001da4:	d1fa      	bne.n	10001d9c <double_table_shim_on_use_helper+0x4>
10001da6:	b2c9      	uxtb	r1, r1
10001da8:	0882      	lsrs	r2, r0, #2
10001daa:	d304      	bcc.n	10001db6 <double_table_shim_on_use_helper+0x1e>
10001dac:	8802      	ldrh	r2, [r0, #0]
10001dae:	8840      	ldrh	r0, [r0, #2]
10001db0:	0400      	lsls	r0, r0, #16
10001db2:	4310      	orrs	r0, r2
10001db4:	e000      	b.n	10001db8 <double_table_shim_on_use_helper+0x20>
10001db6:	6800      	ldr	r0, [r0, #0]
10001db8:	4a01      	ldr	r2, [pc, #4]	; (10001dc0 <double_table_shim_on_use_helper+0x28>)
10001dba:	5050      	str	r0, [r2, r1]
10001dbc:	9003      	str	r0, [sp, #12]
10001dbe:	bd07      	pop	{r0, r1, r2, pc}
10001dc0:	20000b38 	.word	0x20000b38

10001dc4 <__wrap___aeabi_lmul>:
10001dc4:	4351      	muls	r1, r2
10001dc6:	4343      	muls	r3, r0
10001dc8:	18c9      	adds	r1, r1, r3
10001dca:	468c      	mov	ip, r1
10001dcc:	0c11      	lsrs	r1, r2, #16
10001dce:	b283      	uxth	r3, r0
10001dd0:	434b      	muls	r3, r1
10001dd2:	b410      	push	{r4}
10001dd4:	0c04      	lsrs	r4, r0, #16
10001dd6:	4361      	muls	r1, r4
10001dd8:	b292      	uxth	r2, r2
10001dda:	b280      	uxth	r0, r0
10001ddc:	4350      	muls	r0, r2
10001dde:	4362      	muls	r2, r4
10001de0:	041c      	lsls	r4, r3, #16
10001de2:	0c1b      	lsrs	r3, r3, #16
10001de4:	1900      	adds	r0, r0, r4
10001de6:	bc10      	pop	{r4}
10001de8:	4159      	adcs	r1, r3
10001dea:	0413      	lsls	r3, r2, #16
10001dec:	0c12      	lsrs	r2, r2, #16
10001dee:	18c0      	adds	r0, r0, r3
10001df0:	4151      	adcs	r1, r2
10001df2:	4461      	add	r1, ip
10001df4:	4770      	bx	lr
	...

10001df8 <__wrap___aeabi_frsub>:
10001df8:	4048      	eors	r0, r1
10001dfa:	4041      	eors	r1, r0
10001dfc:	4048      	eors	r0, r1

10001dfe <__wrap___aeabi_fsub>:
10001dfe:	4b06      	ldr	r3, [pc, #24]	; (10001e18 <__wrap___aeabi_fmul+0x8>)
10001e00:	685b      	ldr	r3, [r3, #4]
10001e02:	4718      	bx	r3

10001e04 <__wrap___aeabi_fadd>:
10001e04:	4b04      	ldr	r3, [pc, #16]	; (10001e18 <__wrap___aeabi_fmul+0x8>)
10001e06:	681b      	ldr	r3, [r3, #0]
10001e08:	4718      	bx	r3

10001e0a <__wrap___aeabi_fdiv>:
10001e0a:	4b03      	ldr	r3, [pc, #12]	; (10001e18 <__wrap___aeabi_fmul+0x8>)
10001e0c:	68db      	ldr	r3, [r3, #12]
10001e0e:	4718      	bx	r3

10001e10 <__wrap___aeabi_fmul>:
10001e10:	4b01      	ldr	r3, [pc, #4]	; (10001e18 <__wrap___aeabi_fmul+0x8>)
10001e12:	689b      	ldr	r3, [r3, #8]
10001e14:	4718      	bx	r3
10001e16:	0000      	.short	0x0000
10001e18:	20000c38 	.word	0x20000c38

10001e1c <__wrap___aeabi_ui2f>:
10001e1c:	1a49      	subs	r1, r1, r1
10001e1e:	2800      	cmp	r0, #0
10001e20:	d108      	bne.n	10001e34 <__aeabi_i2f_main>
10001e22:	4608      	mov	r0, r1
10001e24:	4770      	bx	lr
	...

10001e28 <__wrap___aeabi_i2f>:
10001e28:	0fc1      	lsrs	r1, r0, #31
10001e2a:	07c9      	lsls	r1, r1, #31
10001e2c:	d500      	bpl.n	10001e30 <__wrap___aeabi_i2f+0x8>
10001e2e:	4240      	negs	r0, r0
10001e30:	2800      	cmp	r0, #0
10001e32:	d017      	beq.n	10001e64 <__aeabi_i2f_main+0x30>

10001e34 <__aeabi_i2f_main>:
10001e34:	46f4      	mov	ip, lr
10001e36:	b403      	push	{r0, r1}
10001e38:	4b0b      	ldr	r3, [pc, #44]	; (10001e68 <__aeabi_i2f_main+0x34>)
10001e3a:	681b      	ldr	r3, [r3, #0]
10001e3c:	4798      	blx	r3
10001e3e:	bc06      	pop	{r1, r2}
10001e40:	4081      	lsls	r1, r0
10001e42:	389e      	subs	r0, #158	; 0x9e
10001e44:	4240      	negs	r0, r0
10001e46:	3180      	adds	r1, #128	; 0x80
10001e48:	d207      	bcs.n	10001e5a <__aeabi_i2f_main+0x26>
10001e4a:	060b      	lsls	r3, r1, #24
10001e4c:	d007      	beq.n	10001e5e <__aeabi_i2f_main+0x2a>
10001e4e:	0049      	lsls	r1, r1, #1
10001e50:	0a49      	lsrs	r1, r1, #9
10001e52:	05c0      	lsls	r0, r0, #23
10001e54:	4310      	orrs	r0, r2
10001e56:	4308      	orrs	r0, r1
10001e58:	4760      	bx	ip
10001e5a:	3001      	adds	r0, #1
10001e5c:	e7f8      	b.n	10001e50 <__aeabi_i2f_main+0x1c>
10001e5e:	0a49      	lsrs	r1, r1, #9
10001e60:	0289      	lsls	r1, r1, #10
10001e62:	e7f5      	b.n	10001e50 <__aeabi_i2f_main+0x1c>
10001e64:	4770      	bx	lr
10001e66:	0000      	.short	0x0000
10001e68:	20000d38 	.word	0x20000d38

10001e6c <__wrap___aeabi_f2uiz>:
10001e6c:	4b01      	ldr	r3, [pc, #4]	; (10001e74 <__wrap___aeabi_f2uiz+0x8>)
10001e6e:	6a5b      	ldr	r3, [r3, #36]	; 0x24
10001e70:	4718      	bx	r3
10001e72:	0000      	.short	0x0000
10001e74:	20000c38 	.word	0x20000c38

10001e78 <__aeabi_float_init>:
10001e78:	2313      	movs	r3, #19
10001e7a:	b510      	push	{r4, lr}
10001e7c:	4812      	ldr	r0, [pc, #72]	; (10001ec8 <__aeabi_float_init+0x50>)
10001e7e:	781c      	ldrb	r4, [r3, #0]
10001e80:	f7ff fee4 	bl	10001c4c <rom_data_lookup>
10001e84:	0001      	movs	r1, r0
10001e86:	2c01      	cmp	r4, #1
10001e88:	d00a      	beq.n	10001ea0 <__aeabi_float_init+0x28>
10001e8a:	dd03      	ble.n	10001e94 <__aeabi_float_init+0x1c>
10001e8c:	2280      	movs	r2, #128	; 0x80
10001e8e:	480f      	ldr	r0, [pc, #60]	; (10001ecc <__aeabi_float_init+0x54>)
10001e90:	f000 f850 	bl	10001f34 <__wrap___aeabi_memcpy>
10001e94:	480e      	ldr	r0, [pc, #56]	; (10001ed0 <__aeabi_float_init+0x58>)
10001e96:	f7ff fed1 	bl	10001c3c <rom_func_lookup>
10001e9a:	4b0e      	ldr	r3, [pc, #56]	; (10001ed4 <__aeabi_float_init+0x5c>)
10001e9c:	6018      	str	r0, [r3, #0]
10001e9e:	bd10      	pop	{r4, pc}
10001ea0:	4c0a      	ldr	r4, [pc, #40]	; (10001ecc <__aeabi_float_init+0x54>)
10001ea2:	2254      	movs	r2, #84	; 0x54
10001ea4:	0020      	movs	r0, r4
10001ea6:	f000 f845 	bl	10001f34 <__wrap___aeabi_memcpy>
10001eaa:	4b0b      	ldr	r3, [pc, #44]	; (10001ed8 <__aeabi_float_init+0x60>)
10001eac:	6563      	str	r3, [r4, #84]	; 0x54
10001eae:	65a3      	str	r3, [r4, #88]	; 0x58
10001eb0:	65e3      	str	r3, [r4, #92]	; 0x5c
10001eb2:	6623      	str	r3, [r4, #96]	; 0x60
10001eb4:	6663      	str	r3, [r4, #100]	; 0x64
10001eb6:	66a3      	str	r3, [r4, #104]	; 0x68
10001eb8:	66e3      	str	r3, [r4, #108]	; 0x6c
10001eba:	6723      	str	r3, [r4, #112]	; 0x70
10001ebc:	6763      	str	r3, [r4, #116]	; 0x74
10001ebe:	67a3      	str	r3, [r4, #120]	; 0x78
10001ec0:	67e3      	str	r3, [r4, #124]	; 0x7c
10001ec2:	6223      	str	r3, [r4, #32]
10001ec4:	61e3      	str	r3, [r4, #28]
10001ec6:	e7e5      	b.n	10001e94 <__aeabi_float_init+0x1c>
10001ec8:	00004653 	.word	0x00004653
10001ecc:	20000c38 	.word	0x20000c38
10001ed0:	0000334c 	.word	0x0000334c
10001ed4:	20000d38 	.word	0x20000d38
10001ed8:	10001edd 	.word	0x10001edd

10001edc <float_table_shim_on_use_helper>:
10001edc:	b507      	push	{r0, r1, r2, lr}
10001ede:	4660      	mov	r0, ip
10001ee0:	8801      	ldrh	r1, [r0, #0]
10001ee2:	0a0a      	lsrs	r2, r1, #8
10001ee4:	3002      	adds	r0, #2
10001ee6:	2adf      	cmp	r2, #223	; 0xdf
10001ee8:	d1fa      	bne.n	10001ee0 <float_table_shim_on_use_helper+0x4>
10001eea:	b2c9      	uxtb	r1, r1
10001eec:	0882      	lsrs	r2, r0, #2
10001eee:	d304      	bcc.n	10001efa <float_table_shim_on_use_helper+0x1e>
10001ef0:	8802      	ldrh	r2, [r0, #0]
10001ef2:	8840      	ldrh	r0, [r0, #2]
10001ef4:	0400      	lsls	r0, r0, #16
10001ef6:	4310      	orrs	r0, r2
10001ef8:	e000      	b.n	10001efc <float_table_shim_on_use_helper+0x20>
10001efa:	6800      	ldr	r0, [r0, #0]
10001efc:	4a01      	ldr	r2, [pc, #4]	; (10001f04 <float_table_shim_on_use_helper+0x28>)
10001efe:	5050      	str	r0, [r2, r1]
10001f00:	9003      	str	r0, [sp, #12]
10001f02:	bd07      	pop	{r0, r1, r2, pc}
10001f04:	20000c38 	.word	0x20000c38

10001f08 <__wrap_malloc>:
10001f08:	b510      	push	{r4, lr}
10001f0a:	f000 fabb 	bl	10002484 <malloc>
10001f0e:	bd10      	pop	{r4, pc}

10001f10 <__wrap_calloc>:
10001f10:	b510      	push	{r4, lr}
10001f12:	f000 fa7d 	bl	10002410 <calloc>
10001f16:	bd10      	pop	{r4, pc}

10001f18 <__aeabi_mem_init>:
10001f18:	4801      	ldr	r0, [pc, #4]	; (10001f20 <__aeabi_mem_init+0x8>)
10001f1a:	2104      	movs	r1, #4
10001f1c:	4b01      	ldr	r3, [pc, #4]	; (10001f24 <__aeabi_mem_init+0xc>)
10001f1e:	4718      	bx	r3
10001f20:	200001f0 	.word	0x200001f0
10001f24:	10001c5d 	.word	0x10001c5d

10001f28 <__wrap_memset>:
10001f28:	4b01      	ldr	r3, [pc, #4]	; (10001f30 <__wrap_memset+0x8>)
10001f2a:	681b      	ldr	r3, [r3, #0]
10001f2c:	4718      	bx	r3
10001f2e:	0000      	.short	0x0000
10001f30:	200001f0 	.word	0x200001f0

10001f34 <__wrap___aeabi_memcpy>:
10001f34:	4b01      	ldr	r3, [pc, #4]	; (10001f3c <__wrap___aeabi_memcpy+0x8>)
10001f36:	685b      	ldr	r3, [r3, #4]
10001f38:	4718      	bx	r3
10001f3a:	0000      	.short	0x0000
10001f3c:	200001f0 	.word	0x200001f0

10001f40 <stdio_out_chars_crlf.part.0>:
10001f40:	b5f8      	push	{r3, r4, r5, r6, r7, lr}
10001f42:	4647      	mov	r7, r8
10001f44:	46ce      	mov	lr, r9
10001f46:	000d      	movs	r5, r1
10001f48:	b580      	push	{r7, lr}
10001f4a:	0016      	movs	r6, r2
10001f4c:	0007      	movs	r7, r0
10001f4e:	2a00      	cmp	r2, #0
10001f50:	dd20      	ble.n	10001f94 <stdio_out_chars_crlf.part.0+0x54>
10001f52:	1e4b      	subs	r3, r1, #1
10001f54:	4698      	mov	r8, r3
10001f56:	4b1a      	ldr	r3, [pc, #104]	; (10001fc0 <stdio_out_chars_crlf.part.0+0x80>)
10001f58:	2400      	movs	r4, #0
10001f5a:	2000      	movs	r0, #0
10001f5c:	4699      	mov	r9, r3
10001f5e:	2c00      	cmp	r4, #0
10001f60:	d02b      	beq.n	10001fba <stdio_out_chars_crlf.part.0+0x7a>
10001f62:	4643      	mov	r3, r8
10001f64:	5d1b      	ldrb	r3, [r3, r4]
10001f66:	3b0d      	subs	r3, #13
10001f68:	425a      	negs	r2, r3
10001f6a:	4153      	adcs	r3, r2
10001f6c:	b2db      	uxtb	r3, r3
10001f6e:	5d2a      	ldrb	r2, [r5, r4]
10001f70:	2a0a      	cmp	r2, #10
10001f72:	d013      	beq.n	10001f9c <stdio_out_chars_crlf.part.0+0x5c>
10001f74:	3401      	adds	r4, #1
10001f76:	42a6      	cmp	r6, r4
10001f78:	dcf1      	bgt.n	10001f5e <stdio_out_chars_crlf.part.0+0x1e>
10001f7a:	4286      	cmp	r6, r0
10001f7c:	dd03      	ble.n	10001f86 <stdio_out_chars_crlf.part.0+0x46>
10001f7e:	1a31      	subs	r1, r6, r0
10001f80:	683b      	ldr	r3, [r7, #0]
10001f82:	1828      	adds	r0, r5, r0
10001f84:	4798      	blx	r3
10001f86:	19ad      	adds	r5, r5, r6
10001f88:	3d01      	subs	r5, #1
10001f8a:	782b      	ldrb	r3, [r5, #0]
10001f8c:	3b0d      	subs	r3, #13
10001f8e:	425a      	negs	r2, r3
10001f90:	4153      	adcs	r3, r2
10001f92:	743b      	strb	r3, [r7, #16]
10001f94:	bc0c      	pop	{r2, r3}
10001f96:	4690      	mov	r8, r2
10001f98:	4699      	mov	r9, r3
10001f9a:	bdf8      	pop	{r3, r4, r5, r6, r7, pc}
10001f9c:	2b00      	cmp	r3, #0
10001f9e:	d1e9      	bne.n	10001f74 <stdio_out_chars_crlf.part.0+0x34>
10001fa0:	42a0      	cmp	r0, r4
10001fa2:	da03      	bge.n	10001fac <stdio_out_chars_crlf.part.0+0x6c>
10001fa4:	1a21      	subs	r1, r4, r0
10001fa6:	683b      	ldr	r3, [r7, #0]
10001fa8:	1828      	adds	r0, r5, r0
10001faa:	4798      	blx	r3
10001fac:	4648      	mov	r0, r9
10001fae:	2102      	movs	r1, #2
10001fb0:	683b      	ldr	r3, [r7, #0]
10001fb2:	3401      	adds	r4, #1
10001fb4:	4798      	blx	r3
10001fb6:	0020      	movs	r0, r4
10001fb8:	e7dd      	b.n	10001f76 <stdio_out_chars_crlf.part.0+0x36>
10001fba:	7c3b      	ldrb	r3, [r7, #16]
10001fbc:	e7d7      	b.n	10001f6e <stdio_out_chars_crlf.part.0+0x2e>
10001fbe:	46c0      	nop			; (mov r8, r8)
10001fc0:	10002ef8 	.word	0x10002ef8

10001fc4 <stdio_put_string>:
10001fc4:	b5f0      	push	{r4, r5, r6, r7, lr}
10001fc6:	4657      	mov	r7, sl
10001fc8:	4645      	mov	r5, r8
10001fca:	46de      	mov	lr, fp
10001fcc:	464e      	mov	r6, r9
10001fce:	23d0      	movs	r3, #208	; 0xd0
10001fd0:	b5e0      	push	{r5, r6, r7, lr}
10001fd2:	061b      	lsls	r3, r3, #24
10001fd4:	681c      	ldr	r4, [r3, #0]
10001fd6:	4b37      	ldr	r3, [pc, #220]	; (100020b4 <stdio_put_string+0xf0>)
10001fd8:	b083      	sub	sp, #12
10001fda:	0007      	movs	r7, r0
10001fdc:	000d      	movs	r5, r1
10001fde:	0018      	movs	r0, r3
10001fe0:	a901      	add	r1, sp, #4
10001fe2:	4690      	mov	r8, r2
10001fe4:	469a      	mov	sl, r3
10001fe6:	f000 fec7 	bl	10002d78 <__mutex_try_enter_veneer>
10001fea:	4681      	mov	r9, r0
10001fec:	2800      	cmp	r0, #0
10001fee:	d107      	bne.n	10002000 <stdio_put_string+0x3c>
10001ff0:	9b01      	ldr	r3, [sp, #4]
10001ff2:	429c      	cmp	r4, r3
10001ff4:	d004      	beq.n	10002000 <stdio_put_string+0x3c>
10001ff6:	4650      	mov	r0, sl
10001ff8:	f000 fec6 	bl	10002d88 <__mutex_enter_blocking_veneer>
10001ffc:	2301      	movs	r3, #1
10001ffe:	4699      	mov	r9, r3
10002000:	1c6b      	adds	r3, r5, #1
10002002:	d103      	bne.n	1000200c <stdio_put_string+0x48>
10002004:	0038      	movs	r0, r7
10002006:	f000 fd43 	bl	10002a90 <strlen>
1000200a:	0005      	movs	r5, r0
1000200c:	4b2a      	ldr	r3, [pc, #168]	; (100020b8 <stdio_put_string+0xf4>)
1000200e:	681c      	ldr	r4, [r3, #0]
10002010:	2c00      	cmp	r4, #0
10002012:	d02f      	beq.n	10002074 <stdio_put_string+0xb0>
10002014:	230a      	movs	r3, #10
10002016:	4e29      	ldr	r6, [pc, #164]	; (100020bc <stdio_put_string+0xf8>)
10002018:	469b      	mov	fp, r3
1000201a:	e002      	b.n	10002022 <stdio_put_string+0x5e>
1000201c:	68e4      	ldr	r4, [r4, #12]
1000201e:	2c00      	cmp	r4, #0
10002020:	d028      	beq.n	10002074 <stdio_put_string+0xb0>
10002022:	6822      	ldr	r2, [r4, #0]
10002024:	2a00      	cmp	r2, #0
10002026:	d0f9      	beq.n	1000201c <stdio_put_string+0x58>
10002028:	6833      	ldr	r3, [r6, #0]
1000202a:	2b00      	cmp	r3, #0
1000202c:	d001      	beq.n	10002032 <stdio_put_string+0x6e>
1000202e:	42a3      	cmp	r3, r4
10002030:	d1f4      	bne.n	1000201c <stdio_put_string+0x58>
10002032:	7c63      	ldrb	r3, [r4, #17]
10002034:	2b00      	cmp	r3, #0
10002036:	d02a      	beq.n	1000208e <stdio_put_string+0xca>
10002038:	002a      	movs	r2, r5
1000203a:	0039      	movs	r1, r7
1000203c:	0020      	movs	r0, r4
1000203e:	f7ff ff7f 	bl	10001f40 <stdio_out_chars_crlf.part.0>
10002042:	4643      	mov	r3, r8
10002044:	2b00      	cmp	r3, #0
10002046:	d0e9      	beq.n	1000201c <stdio_put_string+0x58>
10002048:	466b      	mov	r3, sp
1000204a:	465a      	mov	r2, fp
1000204c:	711a      	strb	r2, [r3, #4]
1000204e:	7c63      	ldrb	r3, [r4, #17]
10002050:	2b00      	cmp	r3, #0
10002052:	d020      	beq.n	10002096 <stdio_put_string+0xd2>
10002054:	7c23      	ldrb	r3, [r4, #16]
10002056:	2b00      	cmp	r3, #0
10002058:	d026      	beq.n	100020a8 <stdio_put_string+0xe4>
1000205a:	2101      	movs	r1, #1
1000205c:	6823      	ldr	r3, [r4, #0]
1000205e:	a801      	add	r0, sp, #4
10002060:	4798      	blx	r3
10002062:	466b      	mov	r3, sp
10002064:	791b      	ldrb	r3, [r3, #4]
10002066:	3b0d      	subs	r3, #13
10002068:	425a      	negs	r2, r3
1000206a:	4153      	adcs	r3, r2
1000206c:	7423      	strb	r3, [r4, #16]
1000206e:	68e4      	ldr	r4, [r4, #12]
10002070:	2c00      	cmp	r4, #0
10002072:	d1d6      	bne.n	10002022 <stdio_put_string+0x5e>
10002074:	464b      	mov	r3, r9
10002076:	2b00      	cmp	r3, #0
10002078:	d112      	bne.n	100020a0 <stdio_put_string+0xdc>
1000207a:	1e68      	subs	r0, r5, #1
1000207c:	4185      	sbcs	r5, r0
1000207e:	b2e8      	uxtb	r0, r5
10002080:	b003      	add	sp, #12
10002082:	bc3c      	pop	{r2, r3, r4, r5}
10002084:	4690      	mov	r8, r2
10002086:	4699      	mov	r9, r3
10002088:	46a2      	mov	sl, r4
1000208a:	46ab      	mov	fp, r5
1000208c:	bdf0      	pop	{r4, r5, r6, r7, pc}
1000208e:	0029      	movs	r1, r5
10002090:	0038      	movs	r0, r7
10002092:	4790      	blx	r2
10002094:	e7d5      	b.n	10002042 <stdio_put_string+0x7e>
10002096:	2101      	movs	r1, #1
10002098:	6823      	ldr	r3, [r4, #0]
1000209a:	a801      	add	r0, sp, #4
1000209c:	4798      	blx	r3
1000209e:	e7bd      	b.n	1000201c <stdio_put_string+0x58>
100020a0:	4650      	mov	r0, sl
100020a2:	f000 fe59 	bl	10002d58 <__mutex_exit_veneer>
100020a6:	e7e8      	b.n	1000207a <stdio_put_string+0xb6>
100020a8:	2102      	movs	r1, #2
100020aa:	4805      	ldr	r0, [pc, #20]	; (100020c0 <stdio_put_string+0xfc>)
100020ac:	6823      	ldr	r3, [r4, #0]
100020ae:	4798      	blx	r3
100020b0:	e7d7      	b.n	10002062 <stdio_put_string+0x9e>
100020b2:	46c0      	nop			; (mov r8, r8)
100020b4:	20000a50 	.word	0x20000a50
100020b8:	20000b00 	.word	0x20000b00
100020bc:	20000b04 	.word	0x20000b04
100020c0:	10002ef8 	.word	0x10002ef8

100020c4 <__wrap_putchar>:
100020c4:	b510      	push	{r4, lr}
100020c6:	b082      	sub	sp, #8
100020c8:	466b      	mov	r3, sp
100020ca:	0004      	movs	r4, r0
100020cc:	2200      	movs	r2, #0
100020ce:	1dd8      	adds	r0, r3, #7
100020d0:	2101      	movs	r1, #1
100020d2:	7004      	strb	r4, [r0, #0]
100020d4:	f7ff ff76 	bl	10001fc4 <stdio_put_string>
100020d8:	0020      	movs	r0, r4
100020da:	b002      	add	sp, #8
100020dc:	bd10      	pop	{r4, pc}
100020de:	46c0      	nop			; (mov r8, r8)

100020e0 <__wrap_puts>:
100020e0:	b570      	push	{r4, r5, r6, lr}
100020e2:	0004      	movs	r4, r0
100020e4:	f000 fcd4 	bl	10002a90 <strlen>
100020e8:	2201      	movs	r2, #1
100020ea:	0001      	movs	r1, r0
100020ec:	0005      	movs	r5, r0
100020ee:	0020      	movs	r0, r4
100020f0:	f7ff ff68 	bl	10001fc4 <stdio_put_string>
100020f4:	4b08      	ldr	r3, [pc, #32]	; (10002118 <__wrap_puts+0x38>)
100020f6:	681c      	ldr	r4, [r3, #0]
100020f8:	2c00      	cmp	r4, #0
100020fa:	d006      	beq.n	1000210a <__wrap_puts+0x2a>
100020fc:	6863      	ldr	r3, [r4, #4]
100020fe:	2b00      	cmp	r3, #0
10002100:	d005      	beq.n	1000210e <__wrap_puts+0x2e>
10002102:	4798      	blx	r3
10002104:	68e4      	ldr	r4, [r4, #12]
10002106:	2c00      	cmp	r4, #0
10002108:	d1f8      	bne.n	100020fc <__wrap_puts+0x1c>
1000210a:	0028      	movs	r0, r5
1000210c:	bd70      	pop	{r4, r5, r6, pc}
1000210e:	68e4      	ldr	r4, [r4, #12]
10002110:	2c00      	cmp	r4, #0
10002112:	d1f3      	bne.n	100020fc <__wrap_puts+0x1c>
10002114:	e7f9      	b.n	1000210a <__wrap_puts+0x2a>
10002116:	46c0      	nop			; (mov r8, r8)
10002118:	20000b00 	.word	0x20000b00

1000211c <stdio_set_driver_enabled>:
1000211c:	4a0d      	ldr	r2, [pc, #52]	; (10002154 <stdio_set_driver_enabled+0x38>)
1000211e:	6813      	ldr	r3, [r2, #0]
10002120:	2b00      	cmp	r3, #0
10002122:	d013      	beq.n	1000214c <stdio_set_driver_enabled+0x30>
10002124:	4283      	cmp	r3, r0
10002126:	d102      	bne.n	1000212e <stdio_set_driver_enabled+0x12>
10002128:	e009      	b.n	1000213e <stdio_set_driver_enabled+0x22>
1000212a:	4298      	cmp	r0, r3
1000212c:	d008      	beq.n	10002140 <stdio_set_driver_enabled+0x24>
1000212e:	001a      	movs	r2, r3
10002130:	68db      	ldr	r3, [r3, #12]
10002132:	2b00      	cmp	r3, #0
10002134:	d1f9      	bne.n	1000212a <stdio_set_driver_enabled+0xe>
10002136:	2900      	cmp	r1, #0
10002138:	d000      	beq.n	1000213c <stdio_set_driver_enabled+0x20>
1000213a:	60d0      	str	r0, [r2, #12]
1000213c:	4770      	bx	lr
1000213e:	001a      	movs	r2, r3
10002140:	2900      	cmp	r1, #0
10002142:	d1fb      	bne.n	1000213c <stdio_set_driver_enabled+0x20>
10002144:	68db      	ldr	r3, [r3, #12]
10002146:	60d3      	str	r3, [r2, #12]
10002148:	60c1      	str	r1, [r0, #12]
1000214a:	e7f7      	b.n	1000213c <stdio_set_driver_enabled+0x20>
1000214c:	2900      	cmp	r1, #0
1000214e:	d0f5      	beq.n	1000213c <stdio_set_driver_enabled+0x20>
10002150:	6010      	str	r0, [r2, #0]
10002152:	e7f3      	b.n	1000213c <stdio_set_driver_enabled+0x20>
10002154:	20000b00 	.word	0x20000b00

10002158 <stdio_init_all>:
10002158:	b510      	push	{r4, lr}
1000215a:	f000 f83b 	bl	100021d4 <stdio_uart_init>
1000215e:	bd10      	pop	{r4, pc}

10002160 <stdio_uart_out_chars>:
10002160:	b5f0      	push	{r4, r5, r6, r7, lr}
10002162:	2900      	cmp	r1, #0
10002164:	d010      	beq.n	10002188 <stdio_uart_out_chars+0x28>
10002166:	1845      	adds	r5, r0, r1
10002168:	270d      	movs	r7, #13
1000216a:	2120      	movs	r1, #32
1000216c:	4b09      	ldr	r3, [pc, #36]	; (10002194 <stdio_uart_out_chars+0x34>)
1000216e:	4a0a      	ldr	r2, [pc, #40]	; (10002198 <stdio_uart_out_chars+0x38>)
10002170:	2600      	movs	r6, #0
10002172:	5f9e      	ldrsh	r6, [r3, r6]
10002174:	7804      	ldrb	r4, [r0, #0]
10002176:	42a6      	cmp	r6, r4
10002178:	d007      	beq.n	1000218a <stdio_uart_out_chars+0x2a>
1000217a:	6993      	ldr	r3, [r2, #24]
1000217c:	4219      	tst	r1, r3
1000217e:	d1fc      	bne.n	1000217a <stdio_uart_out_chars+0x1a>
10002180:	3001      	adds	r0, #1
10002182:	6014      	str	r4, [r2, #0]
10002184:	42a8      	cmp	r0, r5
10002186:	d1f5      	bne.n	10002174 <stdio_uart_out_chars+0x14>
10002188:	bdf0      	pop	{r4, r5, r6, r7, pc}
1000218a:	6993      	ldr	r3, [r2, #24]
1000218c:	4219      	tst	r1, r3
1000218e:	d1fc      	bne.n	1000218a <stdio_uart_out_chars+0x2a>
10002190:	6017      	str	r7, [r2, #0]
10002192:	e7f2      	b.n	1000217a <stdio_uart_out_chars+0x1a>
10002194:	20000b34 	.word	0x20000b34
10002198:	40034000 	.word	0x40034000

1000219c <stdio_uart_in_chars>:
1000219c:	b530      	push	{r4, r5, lr}
1000219e:	0005      	movs	r5, r0
100021a0:	2000      	movs	r0, #0
100021a2:	2900      	cmp	r1, #0
100021a4:	dd10      	ble.n	100021c8 <stdio_uart_in_chars+0x2c>
100021a6:	2410      	movs	r4, #16
100021a8:	4a09      	ldr	r2, [pc, #36]	; (100021d0 <stdio_uart_in_chars+0x34>)
100021aa:	3d01      	subs	r5, #1
100021ac:	6993      	ldr	r3, [r2, #24]
100021ae:	421c      	tst	r4, r3
100021b0:	d108      	bne.n	100021c4 <stdio_uart_in_chars+0x28>
100021b2:	3001      	adds	r0, #1
100021b4:	6993      	ldr	r3, [r2, #24]
100021b6:	421c      	tst	r4, r3
100021b8:	d1fc      	bne.n	100021b4 <stdio_uart_in_chars+0x18>
100021ba:	6813      	ldr	r3, [r2, #0]
100021bc:	542b      	strb	r3, [r5, r0]
100021be:	4281      	cmp	r1, r0
100021c0:	d1f4      	bne.n	100021ac <stdio_uart_in_chars+0x10>
100021c2:	bd30      	pop	{r4, r5, pc}
100021c4:	2800      	cmp	r0, #0
100021c6:	d1fc      	bne.n	100021c2 <stdio_uart_in_chars+0x26>
100021c8:	2003      	movs	r0, #3
100021ca:	4240      	negs	r0, r0
100021cc:	e7f9      	b.n	100021c2 <stdio_uart_in_chars+0x26>
100021ce:	46c0      	nop			; (mov r8, r8)
100021d0:	40034000 	.word	0x40034000

100021d4 <stdio_uart_init>:
100021d4:	21e1      	movs	r1, #225	; 0xe1
100021d6:	b510      	push	{r4, lr}
100021d8:	4b0a      	ldr	r3, [pc, #40]	; (10002204 <stdio_uart_init+0x30>)
100021da:	0249      	lsls	r1, r1, #9
100021dc:	781b      	ldrb	r3, [r3, #0]
100021de:	4b0a      	ldr	r3, [pc, #40]	; (10002208 <stdio_uart_init+0x34>)
100021e0:	480a      	ldr	r0, [pc, #40]	; (1000220c <stdio_uart_init+0x38>)
100021e2:	781b      	ldrb	r3, [r3, #0]
100021e4:	f7fe fa5e 	bl	100006a4 <uart_init>
100021e8:	2102      	movs	r1, #2
100021ea:	2000      	movs	r0, #0
100021ec:	f7fe f9da 	bl	100005a4 <gpio_set_function>
100021f0:	2102      	movs	r1, #2
100021f2:	2001      	movs	r0, #1
100021f4:	f7fe f9d6 	bl	100005a4 <gpio_set_function>
100021f8:	2101      	movs	r1, #1
100021fa:	4805      	ldr	r0, [pc, #20]	; (10002210 <stdio_uart_init+0x3c>)
100021fc:	f7ff ff8e 	bl	1000211c <stdio_set_driver_enabled>
10002200:	bd10      	pop	{r4, pc}
10002202:	46c0      	nop			; (mov r8, r8)
10002204:	10002f6c 	.word	0x10002f6c
10002208:	10002f70 	.word	0x10002f70
1000220c:	40034000 	.word	0x40034000
10002210:	20000200 	.word	0x20000200

10002214 <pio_add_program>:
10002214:	b5f0      	push	{r4, r5, r6, r7, lr}
10002216:	46de      	mov	lr, fp
10002218:	4645      	mov	r5, r8
1000221a:	4657      	mov	r7, sl
1000221c:	464e      	mov	r6, r9
1000221e:	b5e0      	push	{r5, r6, r7, lr}
10002220:	0006      	movs	r6, r0
10002222:	b083      	sub	sp, #12
10002224:	000d      	movs	r5, r1
10002226:	f7fe f9d5 	bl	100005d4 <hw_claim_lock>
1000222a:	4b30      	ldr	r3, [pc, #192]	; (100022ec <pio_add_program+0xd8>)
1000222c:	792f      	ldrb	r7, [r5, #4]
1000222e:	18f1      	adds	r1, r6, r3
10002230:	424b      	negs	r3, r1
10002232:	4159      	adcs	r1, r3
10002234:	4b2e      	ldr	r3, [pc, #184]	; (100022f0 <pio_add_program+0xdc>)
10002236:	2405      	movs	r4, #5
10002238:	4698      	mov	r8, r3
1000223a:	008b      	lsls	r3, r1, #2
1000223c:	469b      	mov	fp, r3
1000223e:	4643      	mov	r3, r8
10002240:	465a      	mov	r2, fp
10002242:	589b      	ldr	r3, [r3, r2]
10002244:	2220      	movs	r2, #32
10002246:	469c      	mov	ip, r3
10002248:	2301      	movs	r3, #1
1000224a:	40bb      	lsls	r3, r7
1000224c:	9001      	str	r0, [sp, #4]
1000224e:	572c      	ldrsb	r4, [r5, r4]
10002250:	3b01      	subs	r3, #1
10002252:	1bd2      	subs	r2, r2, r7
10002254:	2c00      	cmp	r4, #0
10002256:	db32      	blt.n	100022be <pio_add_program+0xaa>
10002258:	4294      	cmp	r4, r2
1000225a:	dc43      	bgt.n	100022e4 <pio_add_program+0xd0>
1000225c:	40a3      	lsls	r3, r4
1000225e:	4662      	mov	r2, ip
10002260:	421a      	tst	r2, r3
10002262:	d13f      	bne.n	100022e4 <pio_add_program+0xd0>
10002264:	4699      	mov	r9, r3
10002266:	2f00      	cmp	r7, #0
10002268:	d018      	beq.n	1000229c <pio_add_program+0x88>
1000226a:	786b      	ldrb	r3, [r5, #1]
1000226c:	782a      	ldrb	r2, [r5, #0]
1000226e:	021b      	lsls	r3, r3, #8
10002270:	431a      	orrs	r2, r3
10002272:	78ab      	ldrb	r3, [r5, #2]
10002274:	041b      	lsls	r3, r3, #16
10002276:	4313      	orrs	r3, r2
10002278:	78ea      	ldrb	r2, [r5, #3]
1000227a:	0612      	lsls	r2, r2, #24
1000227c:	431a      	orrs	r2, r3
1000227e:	4692      	mov	sl, r2
10002280:	2300      	movs	r3, #0
10002282:	4651      	mov	r1, sl
10002284:	005a      	lsls	r2, r3, #1
10002286:	5a8d      	ldrh	r5, [r1, r2]
10002288:	0b6a      	lsrs	r2, r5, #13
1000228a:	d100      	bne.n	1000228e <pio_add_program+0x7a>
1000228c:	192d      	adds	r5, r5, r4
1000228e:	191a      	adds	r2, r3, r4
10002290:	3212      	adds	r2, #18
10002292:	0092      	lsls	r2, r2, #2
10002294:	3301      	adds	r3, #1
10002296:	5195      	str	r5, [r2, r6]
10002298:	429f      	cmp	r7, r3
1000229a:	d8f2      	bhi.n	10002282 <pio_add_program+0x6e>
1000229c:	4663      	mov	r3, ip
1000229e:	464a      	mov	r2, r9
100022a0:	4659      	mov	r1, fp
100022a2:	4313      	orrs	r3, r2
100022a4:	4642      	mov	r2, r8
100022a6:	9801      	ldr	r0, [sp, #4]
100022a8:	5053      	str	r3, [r2, r1]
100022aa:	f7fe f99f 	bl	100005ec <hw_claim_unlock>
100022ae:	0020      	movs	r0, r4
100022b0:	b003      	add	sp, #12
100022b2:	bc3c      	pop	{r2, r3, r4, r5}
100022b4:	4690      	mov	r8, r2
100022b6:	4699      	mov	r9, r3
100022b8:	46a2      	mov	sl, r4
100022ba:	46ab      	mov	fp, r5
100022bc:	bdf0      	pop	{r4, r5, r6, r7, pc}
100022be:	2a00      	cmp	r2, #0
100022c0:	db10      	blt.n	100022e4 <pio_add_program+0xd0>
100022c2:	0019      	movs	r1, r3
100022c4:	4660      	mov	r0, ip
100022c6:	4091      	lsls	r1, r2
100022c8:	0014      	movs	r4, r2
100022ca:	4689      	mov	r9, r1
100022cc:	4201      	tst	r1, r0
100022ce:	d107      	bne.n	100022e0 <pio_add_program+0xcc>
100022d0:	e7c9      	b.n	10002266 <pio_add_program+0x52>
100022d2:	0018      	movs	r0, r3
100022d4:	4661      	mov	r1, ip
100022d6:	4090      	lsls	r0, r2
100022d8:	0014      	movs	r4, r2
100022da:	4681      	mov	r9, r0
100022dc:	4208      	tst	r0, r1
100022de:	d0c2      	beq.n	10002266 <pio_add_program+0x52>
100022e0:	3a01      	subs	r2, #1
100022e2:	d2f6      	bcs.n	100022d2 <pio_add_program+0xbe>
100022e4:	4803      	ldr	r0, [pc, #12]	; (100022f4 <pio_add_program+0xe0>)
100022e6:	f7ff f907 	bl	100014f8 <panic>
100022ea:	46c0      	nop			; (mov r8, r8)
100022ec:	afd00000 	.word	0xafd00000
100022f0:	20000abc 	.word	0x20000abc
100022f4:	10002f3c 	.word	0x10002f3c

100022f8 <pio_sm_set_consecutive_pindirs>:
100022f8:	b5f0      	push	{r4, r5, r6, r7, lr}
100022fa:	464e      	mov	r6, r9
100022fc:	4645      	mov	r5, r8
100022fe:	46de      	mov	lr, fp
10002300:	4657      	mov	r7, sl
10002302:	468b      	mov	fp, r1
10002304:	0049      	lsls	r1, r1, #1
10002306:	b5e0      	push	{r5, r6, r7, lr}
10002308:	000d      	movs	r5, r1
1000230a:	4680      	mov	r8, r0
1000230c:	445d      	add	r5, fp
1000230e:	00ed      	lsls	r5, r5, #3
10002310:	4445      	add	r5, r8
10002312:	0028      	movs	r0, r5
10002314:	ac09      	add	r4, sp, #36	; 0x24
10002316:	7826      	ldrb	r6, [r4, #0]
10002318:	30dc      	adds	r0, #220	; 0xdc
1000231a:	1e74      	subs	r4, r6, #1
1000231c:	41a6      	sbcs	r6, r4
1000231e:	4689      	mov	r9, r1
10002320:	6801      	ldr	r1, [r0, #0]
10002322:	4274      	negs	r4, r6
10002324:	468c      	mov	ip, r1
10002326:	4915      	ldr	r1, [pc, #84]	; (1000237c <pio_sm_set_consecutive_pindirs+0x84>)
10002328:	261f      	movs	r6, #31
1000232a:	468a      	mov	sl, r1
1000232c:	4026      	ands	r6, r4
1000232e:	4456      	add	r6, sl
10002330:	2b05      	cmp	r3, #5
10002332:	d90e      	bls.n	10002352 <pio_sm_set_consecutive_pindirs+0x5a>
10002334:	21a0      	movs	r1, #160	; 0xa0
10002336:	0549      	lsls	r1, r1, #21
10002338:	468a      	mov	sl, r1
1000233a:	271f      	movs	r7, #31
1000233c:	35d8      	adds	r5, #216	; 0xd8
1000233e:	4651      	mov	r1, sl
10002340:	0154      	lsls	r4, r2, #5
10002342:	430c      	orrs	r4, r1
10002344:	3205      	adds	r2, #5
10002346:	3b05      	subs	r3, #5
10002348:	6004      	str	r4, [r0, #0]
1000234a:	403a      	ands	r2, r7
1000234c:	602e      	str	r6, [r5, #0]
1000234e:	2b05      	cmp	r3, #5
10002350:	d8f5      	bhi.n	1000233e <pio_sm_set_consecutive_pindirs+0x46>
10002352:	4659      	mov	r1, fp
10002354:	4449      	add	r1, r9
10002356:	00c9      	lsls	r1, r1, #3
10002358:	4441      	add	r1, r8
1000235a:	069b      	lsls	r3, r3, #26
1000235c:	0152      	lsls	r2, r2, #5
1000235e:	431a      	orrs	r2, r3
10002360:	000b      	movs	r3, r1
10002362:	0008      	movs	r0, r1
10002364:	33dc      	adds	r3, #220	; 0xdc
10002366:	601a      	str	r2, [r3, #0]
10002368:	4662      	mov	r2, ip
1000236a:	30d8      	adds	r0, #216	; 0xd8
1000236c:	6006      	str	r6, [r0, #0]
1000236e:	601a      	str	r2, [r3, #0]
10002370:	bc3c      	pop	{r2, r3, r4, r5}
10002372:	4690      	mov	r8, r2
10002374:	4699      	mov	r9, r3
10002376:	46a2      	mov	sl, r4
10002378:	46ab      	mov	fp, r5
1000237a:	bdf0      	pop	{r4, r5, r6, r7, pc}
1000237c:	0000e080 	.word	0x0000e080

10002380 <pio_sm_init>:
10002380:	b5f0      	push	{r4, r5, r6, r7, lr}
10002382:	2501      	movs	r5, #1
10002384:	408d      	lsls	r5, r1
10002386:	6804      	ldr	r4, [r0, #0]
10002388:	43ac      	bics	r4, r5
1000238a:	004d      	lsls	r5, r1, #1
1000238c:	6004      	str	r4, [r0, #0]
1000238e:	186c      	adds	r4, r5, r1
10002390:	00e4      	lsls	r4, r4, #3
10002392:	1904      	adds	r4, r0, r4
10002394:	0026      	movs	r6, r4
10002396:	36c8      	adds	r6, #200	; 0xc8
10002398:	2b00      	cmp	r3, #0
1000239a:	d02a      	beq.n	100023f2 <pio_sm_init+0x72>
1000239c:	681f      	ldr	r7, [r3, #0]
1000239e:	34dc      	adds	r4, #220	; 0xdc
100023a0:	6037      	str	r7, [r6, #0]
100023a2:	685f      	ldr	r7, [r3, #4]
100023a4:	6077      	str	r7, [r6, #4]
100023a6:	689f      	ldr	r7, [r3, #8]
100023a8:	68db      	ldr	r3, [r3, #12]
100023aa:	60b7      	str	r7, [r6, #8]
100023ac:	6023      	str	r3, [r4, #0]
100023ae:	186b      	adds	r3, r5, r1
100023b0:	00db      	lsls	r3, r3, #3
100023b2:	001d      	movs	r5, r3
100023b4:	2480      	movs	r4, #128	; 0x80
100023b6:	35d0      	adds	r5, #208	; 0xd0
100023b8:	1945      	adds	r5, r0, r5
100023ba:	0164      	lsls	r4, r4, #5
100023bc:	432c      	orrs	r4, r5
100023be:	2580      	movs	r5, #128	; 0x80
100023c0:	062d      	lsls	r5, r5, #24
100023c2:	6025      	str	r5, [r4, #0]
100023c4:	6025      	str	r5, [r4, #0]
100023c6:	4c11      	ldr	r4, [pc, #68]	; (1000240c <pio_sm_init+0x8c>)
100023c8:	1d0d      	adds	r5, r1, #4
100023ca:	408c      	lsls	r4, r1
100023cc:	6084      	str	r4, [r0, #8]
100023ce:	2401      	movs	r4, #1
100023d0:	0027      	movs	r7, r4
100023d2:	40af      	lsls	r7, r5
100023d4:	003d      	movs	r5, r7
100023d6:	3108      	adds	r1, #8
100023d8:	408c      	lsls	r4, r1
100023da:	211f      	movs	r1, #31
100023dc:	6806      	ldr	r6, [r0, #0]
100023de:	400a      	ands	r2, r1
100023e0:	4335      	orrs	r5, r6
100023e2:	6005      	str	r5, [r0, #0]
100023e4:	6805      	ldr	r5, [r0, #0]
100023e6:	432c      	orrs	r4, r5
100023e8:	6004      	str	r4, [r0, #0]
100023ea:	18c0      	adds	r0, r0, r3
100023ec:	30d8      	adds	r0, #216	; 0xd8
100023ee:	6002      	str	r2, [r0, #0]
100023f0:	bdf0      	pop	{r4, r5, r6, r7, pc}
100023f2:	2780      	movs	r7, #128	; 0x80
100023f4:	027f      	lsls	r7, r7, #9
100023f6:	6037      	str	r7, [r6, #0]
100023f8:	27f8      	movs	r7, #248	; 0xf8
100023fa:	027f      	lsls	r7, r7, #9
100023fc:	6077      	str	r7, [r6, #4]
100023fe:	27c0      	movs	r7, #192	; 0xc0
10002400:	34dc      	adds	r4, #220	; 0xdc
10002402:	033f      	lsls	r7, r7, #12
10002404:	60b7      	str	r7, [r6, #8]
10002406:	6023      	str	r3, [r4, #0]
10002408:	e7d1      	b.n	100023ae <pio_sm_init+0x2e>
1000240a:	46c0      	nop			; (mov r8, r8)
1000240c:	01010101 	.word	0x01010101

10002410 <calloc>:
10002410:	0003      	movs	r3, r0
10002412:	b510      	push	{r4, lr}
10002414:	000a      	movs	r2, r1
10002416:	4903      	ldr	r1, [pc, #12]	; (10002424 <calloc+0x14>)
10002418:	6808      	ldr	r0, [r1, #0]
1000241a:	0019      	movs	r1, r3
1000241c:	f000 f804 	bl	10002428 <_calloc_r>
10002420:	bd10      	pop	{r4, pc}
10002422:	46c0      	nop			; (mov r8, r8)
10002424:	20000214 	.word	0x20000214

10002428 <_calloc_r>:
10002428:	b510      	push	{r4, lr}
1000242a:	4351      	muls	r1, r2
1000242c:	f000 f834 	bl	10002498 <_malloc_r>
10002430:	1e04      	subs	r4, r0, #0
10002432:	d00e      	beq.n	10002452 <_calloc_r+0x2a>
10002434:	0003      	movs	r3, r0
10002436:	3b08      	subs	r3, #8
10002438:	685a      	ldr	r2, [r3, #4]
1000243a:	2303      	movs	r3, #3
1000243c:	439a      	bics	r2, r3
1000243e:	3a04      	subs	r2, #4
10002440:	2a24      	cmp	r2, #36	; 0x24
10002442:	d815      	bhi.n	10002470 <_calloc_r+0x48>
10002444:	0003      	movs	r3, r0
10002446:	2a13      	cmp	r2, #19
10002448:	d805      	bhi.n	10002456 <_calloc_r+0x2e>
1000244a:	2200      	movs	r2, #0
1000244c:	601a      	str	r2, [r3, #0]
1000244e:	605a      	str	r2, [r3, #4]
10002450:	609a      	str	r2, [r3, #8]
10002452:	0020      	movs	r0, r4
10002454:	bd10      	pop	{r4, pc}
10002456:	2100      	movs	r1, #0
10002458:	3308      	adds	r3, #8
1000245a:	6001      	str	r1, [r0, #0]
1000245c:	6041      	str	r1, [r0, #4]
1000245e:	2a1b      	cmp	r2, #27
10002460:	d9f3      	bls.n	1000244a <_calloc_r+0x22>
10002462:	6081      	str	r1, [r0, #8]
10002464:	60c1      	str	r1, [r0, #12]
10002466:	2a24      	cmp	r2, #36	; 0x24
10002468:	d006      	beq.n	10002478 <_calloc_r+0x50>
1000246a:	0003      	movs	r3, r0
1000246c:	3310      	adds	r3, #16
1000246e:	e7ec      	b.n	1000244a <_calloc_r+0x22>
10002470:	2100      	movs	r1, #0
10002472:	f7ff fd59 	bl	10001f28 <__wrap_memset>
10002476:	e7ec      	b.n	10002452 <_calloc_r+0x2a>
10002478:	0003      	movs	r3, r0
1000247a:	6101      	str	r1, [r0, #16]
1000247c:	3318      	adds	r3, #24
1000247e:	6141      	str	r1, [r0, #20]
10002480:	e7e3      	b.n	1000244a <_calloc_r+0x22>
10002482:	46c0      	nop			; (mov r8, r8)

10002484 <malloc>:
10002484:	b510      	push	{r4, lr}
10002486:	4b03      	ldr	r3, [pc, #12]	; (10002494 <malloc+0x10>)
10002488:	0001      	movs	r1, r0
1000248a:	6818      	ldr	r0, [r3, #0]
1000248c:	f000 f804 	bl	10002498 <_malloc_r>
10002490:	bd10      	pop	{r4, pc}
10002492:	46c0      	nop			; (mov r8, r8)
10002494:	20000214 	.word	0x20000214

10002498 <_malloc_r>:
10002498:	b5f0      	push	{r4, r5, r6, r7, lr}
1000249a:	464e      	mov	r6, r9
1000249c:	4645      	mov	r5, r8
1000249e:	46de      	mov	lr, fp
100024a0:	4657      	mov	r7, sl
100024a2:	b5e0      	push	{r5, r6, r7, lr}
100024a4:	000d      	movs	r5, r1
100024a6:	350b      	adds	r5, #11
100024a8:	0006      	movs	r6, r0
100024aa:	b083      	sub	sp, #12
100024ac:	2d16      	cmp	r5, #22
100024ae:	d822      	bhi.n	100024f6 <_malloc_r+0x5e>
100024b0:	2910      	cmp	r1, #16
100024b2:	d900      	bls.n	100024b6 <_malloc_r+0x1e>
100024b4:	e0b2      	b.n	1000261c <_malloc_r+0x184>
100024b6:	f000 faaf 	bl	10002a18 <__malloc_lock>
100024ba:	2510      	movs	r5, #16
100024bc:	2002      	movs	r0, #2
100024be:	2318      	movs	r3, #24
100024c0:	4fcb      	ldr	r7, [pc, #812]	; (100027f0 <_malloc_r+0x358>)
100024c2:	18fb      	adds	r3, r7, r3
100024c4:	001a      	movs	r2, r3
100024c6:	685c      	ldr	r4, [r3, #4]
100024c8:	3a08      	subs	r2, #8
100024ca:	4294      	cmp	r4, r2
100024cc:	d100      	bne.n	100024d0 <_malloc_r+0x38>
100024ce:	e0b5      	b.n	1000263c <_malloc_r+0x1a4>
100024d0:	2303      	movs	r3, #3
100024d2:	6862      	ldr	r2, [r4, #4]
100024d4:	439a      	bics	r2, r3
100024d6:	0013      	movs	r3, r2
100024d8:	68e2      	ldr	r2, [r4, #12]
100024da:	68a1      	ldr	r1, [r4, #8]
100024dc:	60ca      	str	r2, [r1, #12]
100024de:	6091      	str	r1, [r2, #8]
100024e0:	2201      	movs	r2, #1
100024e2:	18e3      	adds	r3, r4, r3
100024e4:	6859      	ldr	r1, [r3, #4]
100024e6:	0030      	movs	r0, r6
100024e8:	430a      	orrs	r2, r1
100024ea:	605a      	str	r2, [r3, #4]
100024ec:	f000 fa9c 	bl	10002a28 <__malloc_unlock>
100024f0:	0020      	movs	r0, r4
100024f2:	3008      	adds	r0, #8
100024f4:	e095      	b.n	10002622 <_malloc_r+0x18a>
100024f6:	2307      	movs	r3, #7
100024f8:	439d      	bics	r5, r3
100024fa:	d500      	bpl.n	100024fe <_malloc_r+0x66>
100024fc:	e08e      	b.n	1000261c <_malloc_r+0x184>
100024fe:	42a9      	cmp	r1, r5
10002500:	d900      	bls.n	10002504 <_malloc_r+0x6c>
10002502:	e08b      	b.n	1000261c <_malloc_r+0x184>
10002504:	f000 fa88 	bl	10002a18 <__malloc_lock>
10002508:	23fc      	movs	r3, #252	; 0xfc
1000250a:	005b      	lsls	r3, r3, #1
1000250c:	429d      	cmp	r5, r3
1000250e:	d200      	bcs.n	10002512 <_malloc_r+0x7a>
10002510:	e1a5      	b.n	1000285e <_malloc_r+0x3c6>
10002512:	0a68      	lsrs	r0, r5, #9
10002514:	d100      	bne.n	10002518 <_malloc_r+0x80>
10002516:	e08b      	b.n	10002630 <_malloc_r+0x198>
10002518:	2804      	cmp	r0, #4
1000251a:	d900      	bls.n	1000251e <_malloc_r+0x86>
1000251c:	e178      	b.n	10002810 <_malloc_r+0x378>
1000251e:	2338      	movs	r3, #56	; 0x38
10002520:	4698      	mov	r8, r3
10002522:	09a8      	lsrs	r0, r5, #6
10002524:	4480      	add	r8, r0
10002526:	3039      	adds	r0, #57	; 0x39
10002528:	00c1      	lsls	r1, r0, #3
1000252a:	4fb1      	ldr	r7, [pc, #708]	; (100027f0 <_malloc_r+0x358>)
1000252c:	1879      	adds	r1, r7, r1
1000252e:	684c      	ldr	r4, [r1, #4]
10002530:	3908      	subs	r1, #8
10002532:	42a1      	cmp	r1, r4
10002534:	d00e      	beq.n	10002554 <_malloc_r+0xbc>
10002536:	2303      	movs	r3, #3
10002538:	469c      	mov	ip, r3
1000253a:	e004      	b.n	10002546 <_malloc_r+0xae>
1000253c:	2a00      	cmp	r2, #0
1000253e:	dacb      	bge.n	100024d8 <_malloc_r+0x40>
10002540:	68e4      	ldr	r4, [r4, #12]
10002542:	42a1      	cmp	r1, r4
10002544:	d006      	beq.n	10002554 <_malloc_r+0xbc>
10002546:	4662      	mov	r2, ip
10002548:	6863      	ldr	r3, [r4, #4]
1000254a:	4393      	bics	r3, r2
1000254c:	1b5a      	subs	r2, r3, r5
1000254e:	2a0f      	cmp	r2, #15
10002550:	ddf4      	ble.n	1000253c <_malloc_r+0xa4>
10002552:	4640      	mov	r0, r8
10002554:	003a      	movs	r2, r7
10002556:	693c      	ldr	r4, [r7, #16]
10002558:	3208      	adds	r2, #8
1000255a:	4294      	cmp	r4, r2
1000255c:	d100      	bne.n	10002560 <_malloc_r+0xc8>
1000255e:	e078      	b.n	10002652 <_malloc_r+0x1ba>
10002560:	2303      	movs	r3, #3
10002562:	6861      	ldr	r1, [r4, #4]
10002564:	4399      	bics	r1, r3
10002566:	4689      	mov	r9, r1
10002568:	000b      	movs	r3, r1
1000256a:	1b49      	subs	r1, r1, r5
1000256c:	290f      	cmp	r1, #15
1000256e:	dd00      	ble.n	10002572 <_malloc_r+0xda>
10002570:	e179      	b.n	10002866 <_malloc_r+0x3ce>
10002572:	617a      	str	r2, [r7, #20]
10002574:	613a      	str	r2, [r7, #16]
10002576:	2900      	cmp	r1, #0
10002578:	dab2      	bge.n	100024e0 <_malloc_r+0x48>
1000257a:	2280      	movs	r2, #128	; 0x80
1000257c:	0092      	lsls	r2, r2, #2
1000257e:	4591      	cmp	r9, r2
10002580:	d300      	bcc.n	10002584 <_malloc_r+0xec>
10002582:	e10e      	b.n	100027a2 <_malloc_r+0x30a>
10002584:	0959      	lsrs	r1, r3, #5
10002586:	08da      	lsrs	r2, r3, #3
10002588:	2301      	movs	r3, #1
1000258a:	408b      	lsls	r3, r1
1000258c:	00d2      	lsls	r2, r2, #3
1000258e:	6879      	ldr	r1, [r7, #4]
10002590:	19d2      	adds	r2, r2, r7
10002592:	430b      	orrs	r3, r1
10002594:	6891      	ldr	r1, [r2, #8]
10002596:	607b      	str	r3, [r7, #4]
10002598:	60e2      	str	r2, [r4, #12]
1000259a:	60a1      	str	r1, [r4, #8]
1000259c:	6094      	str	r4, [r2, #8]
1000259e:	60cc      	str	r4, [r1, #12]
100025a0:	2101      	movs	r1, #1
100025a2:	1082      	asrs	r2, r0, #2
100025a4:	4091      	lsls	r1, r2
100025a6:	4299      	cmp	r1, r3
100025a8:	d859      	bhi.n	1000265e <_malloc_r+0x1c6>
100025aa:	420b      	tst	r3, r1
100025ac:	d105      	bne.n	100025ba <_malloc_r+0x122>
100025ae:	2203      	movs	r2, #3
100025b0:	4390      	bics	r0, r2
100025b2:	0049      	lsls	r1, r1, #1
100025b4:	3004      	adds	r0, #4
100025b6:	420b      	tst	r3, r1
100025b8:	d0fb      	beq.n	100025b2 <_malloc_r+0x11a>
100025ba:	2303      	movs	r3, #3
100025bc:	4698      	mov	r8, r3
100025be:	00c3      	lsls	r3, r0, #3
100025c0:	4699      	mov	r9, r3
100025c2:	44b9      	add	r9, r7
100025c4:	46cc      	mov	ip, r9
100025c6:	4682      	mov	sl, r0
100025c8:	4663      	mov	r3, ip
100025ca:	68dc      	ldr	r4, [r3, #12]
100025cc:	45a4      	cmp	ip, r4
100025ce:	d107      	bne.n	100025e0 <_malloc_r+0x148>
100025d0:	e12a      	b.n	10002828 <_malloc_r+0x390>
100025d2:	2a00      	cmp	r2, #0
100025d4:	db00      	blt.n	100025d8 <_malloc_r+0x140>
100025d6:	e133      	b.n	10002840 <_malloc_r+0x3a8>
100025d8:	68e4      	ldr	r4, [r4, #12]
100025da:	45a4      	cmp	ip, r4
100025dc:	d100      	bne.n	100025e0 <_malloc_r+0x148>
100025de:	e123      	b.n	10002828 <_malloc_r+0x390>
100025e0:	4642      	mov	r2, r8
100025e2:	6863      	ldr	r3, [r4, #4]
100025e4:	4393      	bics	r3, r2
100025e6:	1b5a      	subs	r2, r3, r5
100025e8:	2a0f      	cmp	r2, #15
100025ea:	ddf2      	ble.n	100025d2 <_malloc_r+0x13a>
100025ec:	2001      	movs	r0, #1
100025ee:	4680      	mov	r8, r0
100025f0:	1961      	adds	r1, r4, r5
100025f2:	4305      	orrs	r5, r0
100025f4:	6065      	str	r5, [r4, #4]
100025f6:	68a0      	ldr	r0, [r4, #8]
100025f8:	68e5      	ldr	r5, [r4, #12]
100025fa:	3708      	adds	r7, #8
100025fc:	60c5      	str	r5, [r0, #12]
100025fe:	60a8      	str	r0, [r5, #8]
10002600:	4640      	mov	r0, r8
10002602:	4310      	orrs	r0, r2
10002604:	60f9      	str	r1, [r7, #12]
10002606:	60b9      	str	r1, [r7, #8]
10002608:	6048      	str	r0, [r1, #4]
1000260a:	60cf      	str	r7, [r1, #12]
1000260c:	0030      	movs	r0, r6
1000260e:	608f      	str	r7, [r1, #8]
10002610:	50e2      	str	r2, [r4, r3]
10002612:	f000 fa09 	bl	10002a28 <__malloc_unlock>
10002616:	0020      	movs	r0, r4
10002618:	3008      	adds	r0, #8
1000261a:	e002      	b.n	10002622 <_malloc_r+0x18a>
1000261c:	230c      	movs	r3, #12
1000261e:	2000      	movs	r0, #0
10002620:	6033      	str	r3, [r6, #0]
10002622:	b003      	add	sp, #12
10002624:	bc3c      	pop	{r2, r3, r4, r5}
10002626:	4690      	mov	r8, r2
10002628:	4699      	mov	r9, r3
1000262a:	46a2      	mov	sl, r4
1000262c:	46ab      	mov	fp, r5
1000262e:	bdf0      	pop	{r4, r5, r6, r7, pc}
10002630:	2180      	movs	r1, #128	; 0x80
10002632:	233f      	movs	r3, #63	; 0x3f
10002634:	2040      	movs	r0, #64	; 0x40
10002636:	4698      	mov	r8, r3
10002638:	0089      	lsls	r1, r1, #2
1000263a:	e776      	b.n	1000252a <_malloc_r+0x92>
1000263c:	68dc      	ldr	r4, [r3, #12]
1000263e:	3002      	adds	r0, #2
10002640:	42a3      	cmp	r3, r4
10002642:	d000      	beq.n	10002646 <_malloc_r+0x1ae>
10002644:	e744      	b.n	100024d0 <_malloc_r+0x38>
10002646:	003a      	movs	r2, r7
10002648:	693c      	ldr	r4, [r7, #16]
1000264a:	3208      	adds	r2, #8
1000264c:	4294      	cmp	r4, r2
1000264e:	d000      	beq.n	10002652 <_malloc_r+0x1ba>
10002650:	e786      	b.n	10002560 <_malloc_r+0xc8>
10002652:	2101      	movs	r1, #1
10002654:	687b      	ldr	r3, [r7, #4]
10002656:	1082      	asrs	r2, r0, #2
10002658:	4091      	lsls	r1, r2
1000265a:	4299      	cmp	r1, r3
1000265c:	d9a5      	bls.n	100025aa <_malloc_r+0x112>
1000265e:	2303      	movs	r3, #3
10002660:	68bc      	ldr	r4, [r7, #8]
10002662:	6862      	ldr	r2, [r4, #4]
10002664:	439a      	bics	r2, r3
10002666:	4691      	mov	r9, r2
10002668:	4295      	cmp	r5, r2
1000266a:	d803      	bhi.n	10002674 <_malloc_r+0x1dc>
1000266c:	1b53      	subs	r3, r2, r5
1000266e:	2b0f      	cmp	r3, #15
10002670:	dd00      	ble.n	10002674 <_malloc_r+0x1dc>
10002672:	e088      	b.n	10002786 <_malloc_r+0x2ee>
10002674:	0023      	movs	r3, r4
10002676:	444b      	add	r3, r9
10002678:	4a5e      	ldr	r2, [pc, #376]	; (100027f4 <_malloc_r+0x35c>)
1000267a:	9301      	str	r3, [sp, #4]
1000267c:	4b5e      	ldr	r3, [pc, #376]	; (100027f8 <_malloc_r+0x360>)
1000267e:	4693      	mov	fp, r2
10002680:	681b      	ldr	r3, [r3, #0]
10002682:	6812      	ldr	r2, [r2, #0]
10002684:	18eb      	adds	r3, r5, r3
10002686:	3201      	adds	r2, #1
10002688:	d100      	bne.n	1000268c <_malloc_r+0x1f4>
1000268a:	e13b      	b.n	10002904 <_malloc_r+0x46c>
1000268c:	4a5b      	ldr	r2, [pc, #364]	; (100027fc <_malloc_r+0x364>)
1000268e:	4694      	mov	ip, r2
10002690:	4463      	add	r3, ip
10002692:	0b1b      	lsrs	r3, r3, #12
10002694:	031b      	lsls	r3, r3, #12
10002696:	9300      	str	r3, [sp, #0]
10002698:	0030      	movs	r0, r6
1000269a:	9900      	ldr	r1, [sp, #0]
1000269c:	f000 f9e6 	bl	10002a6c <_sbrk_r>
100026a0:	0003      	movs	r3, r0
100026a2:	4680      	mov	r8, r0
100026a4:	3301      	adds	r3, #1
100026a6:	d100      	bne.n	100026aa <_malloc_r+0x212>
100026a8:	e0f8      	b.n	1000289c <_malloc_r+0x404>
100026aa:	9b01      	ldr	r3, [sp, #4]
100026ac:	4283      	cmp	r3, r0
100026ae:	d900      	bls.n	100026b2 <_malloc_r+0x21a>
100026b0:	e0f2      	b.n	10002898 <_malloc_r+0x400>
100026b2:	4b53      	ldr	r3, [pc, #332]	; (10002800 <_malloc_r+0x368>)
100026b4:	0019      	movs	r1, r3
100026b6:	469a      	mov	sl, r3
100026b8:	6809      	ldr	r1, [r1, #0]
100026ba:	9b00      	ldr	r3, [sp, #0]
100026bc:	468c      	mov	ip, r1
100026be:	4651      	mov	r1, sl
100026c0:	4463      	add	r3, ip
100026c2:	600b      	str	r3, [r1, #0]
100026c4:	9901      	ldr	r1, [sp, #4]
100026c6:	001a      	movs	r2, r3
100026c8:	4281      	cmp	r1, r0
100026ca:	d100      	bne.n	100026ce <_malloc_r+0x236>
100026cc:	e150      	b.n	10002970 <_malloc_r+0x4d8>
100026ce:	465b      	mov	r3, fp
100026d0:	681b      	ldr	r3, [r3, #0]
100026d2:	3301      	adds	r3, #1
100026d4:	d100      	bne.n	100026d8 <_malloc_r+0x240>
100026d6:	e155      	b.n	10002984 <_malloc_r+0x4ec>
100026d8:	4643      	mov	r3, r8
100026da:	9901      	ldr	r1, [sp, #4]
100026dc:	1a5b      	subs	r3, r3, r1
100026de:	189a      	adds	r2, r3, r2
100026e0:	4653      	mov	r3, sl
100026e2:	601a      	str	r2, [r3, #0]
100026e4:	2307      	movs	r3, #7
100026e6:	4642      	mov	r2, r8
100026e8:	4641      	mov	r1, r8
100026ea:	401a      	ands	r2, r3
100026ec:	9201      	str	r2, [sp, #4]
100026ee:	4219      	tst	r1, r3
100026f0:	d100      	bne.n	100026f4 <_malloc_r+0x25c>
100026f2:	e111      	b.n	10002918 <_malloc_r+0x480>
100026f4:	2308      	movs	r3, #8
100026f6:	4698      	mov	r8, r3
100026f8:	1a88      	subs	r0, r1, r2
100026fa:	4b42      	ldr	r3, [pc, #264]	; (10002804 <_malloc_r+0x36c>)
100026fc:	9900      	ldr	r1, [sp, #0]
100026fe:	4480      	add	r8, r0
10002700:	4441      	add	r1, r8
10002702:	1a9b      	subs	r3, r3, r2
10002704:	1a5b      	subs	r3, r3, r1
10002706:	051b      	lsls	r3, r3, #20
10002708:	0d1b      	lsrs	r3, r3, #20
1000270a:	9100      	str	r1, [sp, #0]
1000270c:	0030      	movs	r0, r6
1000270e:	0019      	movs	r1, r3
10002710:	469b      	mov	fp, r3
10002712:	f000 f9ab 	bl	10002a6c <_sbrk_r>
10002716:	1c43      	adds	r3, r0, #1
10002718:	d100      	bne.n	1000271c <_malloc_r+0x284>
1000271a:	e14f      	b.n	100029bc <_malloc_r+0x524>
1000271c:	4643      	mov	r3, r8
1000271e:	1ac0      	subs	r0, r0, r3
10002720:	0003      	movs	r3, r0
10002722:	445b      	add	r3, fp
10002724:	9300      	str	r3, [sp, #0]
10002726:	4653      	mov	r3, sl
10002728:	4652      	mov	r2, sl
1000272a:	681b      	ldr	r3, [r3, #0]
1000272c:	2101      	movs	r1, #1
1000272e:	445b      	add	r3, fp
10002730:	6013      	str	r3, [r2, #0]
10002732:	4642      	mov	r2, r8
10002734:	4640      	mov	r0, r8
10002736:	60ba      	str	r2, [r7, #8]
10002738:	9a00      	ldr	r2, [sp, #0]
1000273a:	430a      	orrs	r2, r1
1000273c:	6042      	str	r2, [r0, #4]
1000273e:	42bc      	cmp	r4, r7
10002740:	d100      	bne.n	10002744 <_malloc_r+0x2ac>
10002742:	e123      	b.n	1000298c <_malloc_r+0x4f4>
10002744:	464a      	mov	r2, r9
10002746:	2a0f      	cmp	r2, #15
10002748:	d800      	bhi.n	1000274c <_malloc_r+0x2b4>
1000274a:	e121      	b.n	10002990 <_malloc_r+0x4f8>
1000274c:	2007      	movs	r0, #7
1000274e:	3a0c      	subs	r2, #12
10002750:	4382      	bics	r2, r0
10002752:	6860      	ldr	r0, [r4, #4]
10002754:	4001      	ands	r1, r0
10002756:	2005      	movs	r0, #5
10002758:	4311      	orrs	r1, r2
1000275a:	6061      	str	r1, [r4, #4]
1000275c:	18a1      	adds	r1, r4, r2
1000275e:	6048      	str	r0, [r1, #4]
10002760:	6088      	str	r0, [r1, #8]
10002762:	2a0f      	cmp	r2, #15
10002764:	d900      	bls.n	10002768 <_malloc_r+0x2d0>
10002766:	e134      	b.n	100029d2 <_malloc_r+0x53a>
10002768:	4642      	mov	r2, r8
1000276a:	4644      	mov	r4, r8
1000276c:	6852      	ldr	r2, [r2, #4]
1000276e:	4926      	ldr	r1, [pc, #152]	; (10002808 <_malloc_r+0x370>)
10002770:	6808      	ldr	r0, [r1, #0]
10002772:	4298      	cmp	r0, r3
10002774:	d200      	bcs.n	10002778 <_malloc_r+0x2e0>
10002776:	600b      	str	r3, [r1, #0]
10002778:	4924      	ldr	r1, [pc, #144]	; (1000280c <_malloc_r+0x374>)
1000277a:	6808      	ldr	r0, [r1, #0]
1000277c:	4298      	cmp	r0, r3
1000277e:	d300      	bcc.n	10002782 <_malloc_r+0x2ea>
10002780:	e08e      	b.n	100028a0 <_malloc_r+0x408>
10002782:	600b      	str	r3, [r1, #0]
10002784:	e08c      	b.n	100028a0 <_malloc_r+0x408>
10002786:	2201      	movs	r2, #1
10002788:	0029      	movs	r1, r5
1000278a:	4313      	orrs	r3, r2
1000278c:	4311      	orrs	r1, r2
1000278e:	1965      	adds	r5, r4, r5
10002790:	6061      	str	r1, [r4, #4]
10002792:	0030      	movs	r0, r6
10002794:	60bd      	str	r5, [r7, #8]
10002796:	606b      	str	r3, [r5, #4]
10002798:	f000 f946 	bl	10002a28 <__malloc_unlock>
1000279c:	0020      	movs	r0, r4
1000279e:	3008      	adds	r0, #8
100027a0:	e73f      	b.n	10002622 <_malloc_r+0x18a>
100027a2:	0a5a      	lsrs	r2, r3, #9
100027a4:	2a04      	cmp	r2, #4
100027a6:	d971      	bls.n	1000288c <_malloc_r+0x3f4>
100027a8:	2a14      	cmp	r2, #20
100027aa:	d900      	bls.n	100027ae <_malloc_r+0x316>
100027ac:	e0c4      	b.n	10002938 <_malloc_r+0x4a0>
100027ae:	0011      	movs	r1, r2
100027b0:	325c      	adds	r2, #92	; 0x5c
100027b2:	315b      	adds	r1, #91	; 0x5b
100027b4:	00d2      	lsls	r2, r2, #3
100027b6:	2308      	movs	r3, #8
100027b8:	425b      	negs	r3, r3
100027ba:	469c      	mov	ip, r3
100027bc:	18ba      	adds	r2, r7, r2
100027be:	4494      	add	ip, r2
100027c0:	4663      	mov	r3, ip
100027c2:	689a      	ldr	r2, [r3, #8]
100027c4:	2303      	movs	r3, #3
100027c6:	4698      	mov	r8, r3
100027c8:	4594      	cmp	ip, r2
100027ca:	d100      	bne.n	100027ce <_malloc_r+0x336>
100027cc:	e09d      	b.n	1000290a <_malloc_r+0x472>
100027ce:	4643      	mov	r3, r8
100027d0:	6851      	ldr	r1, [r2, #4]
100027d2:	4399      	bics	r1, r3
100027d4:	4549      	cmp	r1, r9
100027d6:	d902      	bls.n	100027de <_malloc_r+0x346>
100027d8:	6892      	ldr	r2, [r2, #8]
100027da:	4594      	cmp	ip, r2
100027dc:	d1f7      	bne.n	100027ce <_malloc_r+0x336>
100027de:	68d3      	ldr	r3, [r2, #12]
100027e0:	469c      	mov	ip, r3
100027e2:	687b      	ldr	r3, [r7, #4]
100027e4:	4661      	mov	r1, ip
100027e6:	60a2      	str	r2, [r4, #8]
100027e8:	60e1      	str	r1, [r4, #12]
100027ea:	608c      	str	r4, [r1, #8]
100027ec:	60d4      	str	r4, [r2, #12]
100027ee:	e6d7      	b.n	100025a0 <_malloc_r+0x108>
100027f0:	20000640 	.word	0x20000640
100027f4:	20000a48 	.word	0x20000a48
100027f8:	20000ab8 	.word	0x20000ab8
100027fc:	0000100f 	.word	0x0000100f
10002800:	20000a88 	.word	0x20000a88
10002804:	00001008 	.word	0x00001008
10002808:	20000ab0 	.word	0x20000ab0
1000280c:	20000ab4 	.word	0x20000ab4
10002810:	2814      	cmp	r0, #20
10002812:	d952      	bls.n	100028ba <_malloc_r+0x422>
10002814:	2854      	cmp	r0, #84	; 0x54
10002816:	d900      	bls.n	1000281a <_malloc_r+0x382>
10002818:	e096      	b.n	10002948 <_malloc_r+0x4b0>
1000281a:	236e      	movs	r3, #110	; 0x6e
1000281c:	4698      	mov	r8, r3
1000281e:	0b28      	lsrs	r0, r5, #12
10002820:	4480      	add	r8, r0
10002822:	306f      	adds	r0, #111	; 0x6f
10002824:	00c1      	lsls	r1, r0, #3
10002826:	e680      	b.n	1000252a <_malloc_r+0x92>
10002828:	2308      	movs	r3, #8
1000282a:	469b      	mov	fp, r3
1000282c:	3b07      	subs	r3, #7
1000282e:	44dc      	add	ip, fp
10002830:	469b      	mov	fp, r3
10002832:	44da      	add	sl, fp
10002834:	4643      	mov	r3, r8
10002836:	4652      	mov	r2, sl
10002838:	4213      	tst	r3, r2
1000283a:	d000      	beq.n	1000283e <_malloc_r+0x3a6>
1000283c:	e6c4      	b.n	100025c8 <_malloc_r+0x130>
1000283e:	e04c      	b.n	100028da <_malloc_r+0x442>
10002840:	2201      	movs	r2, #1
10002842:	18e3      	adds	r3, r4, r3
10002844:	6859      	ldr	r1, [r3, #4]
10002846:	0030      	movs	r0, r6
10002848:	430a      	orrs	r2, r1
1000284a:	605a      	str	r2, [r3, #4]
1000284c:	68e3      	ldr	r3, [r4, #12]
1000284e:	68a2      	ldr	r2, [r4, #8]
10002850:	60d3      	str	r3, [r2, #12]
10002852:	609a      	str	r2, [r3, #8]
10002854:	f000 f8e8 	bl	10002a28 <__malloc_unlock>
10002858:	0020      	movs	r0, r4
1000285a:	3008      	adds	r0, #8
1000285c:	e6e1      	b.n	10002622 <_malloc_r+0x18a>
1000285e:	002b      	movs	r3, r5
10002860:	08e8      	lsrs	r0, r5, #3
10002862:	3308      	adds	r3, #8
10002864:	e62c      	b.n	100024c0 <_malloc_r+0x28>
10002866:	2301      	movs	r3, #1
10002868:	1960      	adds	r0, r4, r5
1000286a:	431d      	orrs	r5, r3
1000286c:	6065      	str	r5, [r4, #4]
1000286e:	6178      	str	r0, [r7, #20]
10002870:	6138      	str	r0, [r7, #16]
10002872:	60c2      	str	r2, [r0, #12]
10002874:	6082      	str	r2, [r0, #8]
10002876:	001a      	movs	r2, r3
10002878:	464b      	mov	r3, r9
1000287a:	430a      	orrs	r2, r1
1000287c:	6042      	str	r2, [r0, #4]
1000287e:	0030      	movs	r0, r6
10002880:	50e1      	str	r1, [r4, r3]
10002882:	f000 f8d1 	bl	10002a28 <__malloc_unlock>
10002886:	0020      	movs	r0, r4
10002888:	3008      	adds	r0, #8
1000288a:	e6ca      	b.n	10002622 <_malloc_r+0x18a>
1000288c:	099a      	lsrs	r2, r3, #6
1000288e:	0011      	movs	r1, r2
10002890:	3239      	adds	r2, #57	; 0x39
10002892:	3138      	adds	r1, #56	; 0x38
10002894:	00d2      	lsls	r2, r2, #3
10002896:	e78e      	b.n	100027b6 <_malloc_r+0x31e>
10002898:	42bc      	cmp	r4, r7
1000289a:	d060      	beq.n	1000295e <_malloc_r+0x4c6>
1000289c:	68bc      	ldr	r4, [r7, #8]
1000289e:	6862      	ldr	r2, [r4, #4]
100028a0:	2303      	movs	r3, #3
100028a2:	439a      	bics	r2, r3
100028a4:	1b53      	subs	r3, r2, r5
100028a6:	4295      	cmp	r5, r2
100028a8:	d802      	bhi.n	100028b0 <_malloc_r+0x418>
100028aa:	2b0f      	cmp	r3, #15
100028ac:	dd00      	ble.n	100028b0 <_malloc_r+0x418>
100028ae:	e76a      	b.n	10002786 <_malloc_r+0x2ee>
100028b0:	0030      	movs	r0, r6
100028b2:	f000 f8b9 	bl	10002a28 <__malloc_unlock>
100028b6:	2000      	movs	r0, #0
100028b8:	e6b3      	b.n	10002622 <_malloc_r+0x18a>
100028ba:	235b      	movs	r3, #91	; 0x5b
100028bc:	4698      	mov	r8, r3
100028be:	4480      	add	r8, r0
100028c0:	305c      	adds	r0, #92	; 0x5c
100028c2:	00c1      	lsls	r1, r0, #3
100028c4:	e631      	b.n	1000252a <_malloc_r+0x92>
100028c6:	2308      	movs	r3, #8
100028c8:	425b      	negs	r3, r3
100028ca:	469c      	mov	ip, r3
100028cc:	44e1      	add	r9, ip
100028ce:	464b      	mov	r3, r9
100028d0:	689b      	ldr	r3, [r3, #8]
100028d2:	3801      	subs	r0, #1
100028d4:	454b      	cmp	r3, r9
100028d6:	d000      	beq.n	100028da <_malloc_r+0x442>
100028d8:	e098      	b.n	10002a0c <_malloc_r+0x574>
100028da:	4643      	mov	r3, r8
100028dc:	4203      	tst	r3, r0
100028de:	d1f2      	bne.n	100028c6 <_malloc_r+0x42e>
100028e0:	687b      	ldr	r3, [r7, #4]
100028e2:	438b      	bics	r3, r1
100028e4:	607b      	str	r3, [r7, #4]
100028e6:	0049      	lsls	r1, r1, #1
100028e8:	4299      	cmp	r1, r3
100028ea:	d900      	bls.n	100028ee <_malloc_r+0x456>
100028ec:	e6b7      	b.n	1000265e <_malloc_r+0x1c6>
100028ee:	2900      	cmp	r1, #0
100028f0:	d104      	bne.n	100028fc <_malloc_r+0x464>
100028f2:	e6b4      	b.n	1000265e <_malloc_r+0x1c6>
100028f4:	2204      	movs	r2, #4
100028f6:	4694      	mov	ip, r2
100028f8:	0049      	lsls	r1, r1, #1
100028fa:	44e2      	add	sl, ip
100028fc:	420b      	tst	r3, r1
100028fe:	d0f9      	beq.n	100028f4 <_malloc_r+0x45c>
10002900:	4650      	mov	r0, sl
10002902:	e65c      	b.n	100025be <_malloc_r+0x126>
10002904:	3310      	adds	r3, #16
10002906:	9300      	str	r3, [sp, #0]
10002908:	e6c6      	b.n	10002698 <_malloc_r+0x200>
1000290a:	1089      	asrs	r1, r1, #2
1000290c:	3b02      	subs	r3, #2
1000290e:	408b      	lsls	r3, r1
10002910:	6879      	ldr	r1, [r7, #4]
10002912:	430b      	orrs	r3, r1
10002914:	607b      	str	r3, [r7, #4]
10002916:	e765      	b.n	100027e4 <_malloc_r+0x34c>
10002918:	9b00      	ldr	r3, [sp, #0]
1000291a:	0030      	movs	r0, r6
1000291c:	4443      	add	r3, r8
1000291e:	425b      	negs	r3, r3
10002920:	051b      	lsls	r3, r3, #20
10002922:	0d1b      	lsrs	r3, r3, #20
10002924:	0019      	movs	r1, r3
10002926:	469b      	mov	fp, r3
10002928:	f000 f8a0 	bl	10002a6c <_sbrk_r>
1000292c:	1c43      	adds	r3, r0, #1
1000292e:	d000      	beq.n	10002932 <_malloc_r+0x49a>
10002930:	e6f4      	b.n	1000271c <_malloc_r+0x284>
10002932:	2300      	movs	r3, #0
10002934:	469b      	mov	fp, r3
10002936:	e6f6      	b.n	10002726 <_malloc_r+0x28e>
10002938:	2a54      	cmp	r2, #84	; 0x54
1000293a:	d82b      	bhi.n	10002994 <_malloc_r+0x4fc>
1000293c:	0b1a      	lsrs	r2, r3, #12
1000293e:	0011      	movs	r1, r2
10002940:	326f      	adds	r2, #111	; 0x6f
10002942:	316e      	adds	r1, #110	; 0x6e
10002944:	00d2      	lsls	r2, r2, #3
10002946:	e736      	b.n	100027b6 <_malloc_r+0x31e>
10002948:	23aa      	movs	r3, #170	; 0xaa
1000294a:	005b      	lsls	r3, r3, #1
1000294c:	4298      	cmp	r0, r3
1000294e:	d82b      	bhi.n	100029a8 <_malloc_r+0x510>
10002950:	3bdd      	subs	r3, #221	; 0xdd
10002952:	4698      	mov	r8, r3
10002954:	0be8      	lsrs	r0, r5, #15
10002956:	4480      	add	r8, r0
10002958:	3078      	adds	r0, #120	; 0x78
1000295a:	00c1      	lsls	r1, r0, #3
1000295c:	e5e5      	b.n	1000252a <_malloc_r+0x92>
1000295e:	4b2c      	ldr	r3, [pc, #176]	; (10002a10 <_malloc_r+0x578>)
10002960:	9a00      	ldr	r2, [sp, #0]
10002962:	469a      	mov	sl, r3
10002964:	681b      	ldr	r3, [r3, #0]
10002966:	469c      	mov	ip, r3
10002968:	4653      	mov	r3, sl
1000296a:	4462      	add	r2, ip
1000296c:	601a      	str	r2, [r3, #0]
1000296e:	e6ae      	b.n	100026ce <_malloc_r+0x236>
10002970:	0509      	lsls	r1, r1, #20
10002972:	d000      	beq.n	10002976 <_malloc_r+0x4de>
10002974:	e6ab      	b.n	100026ce <_malloc_r+0x236>
10002976:	9a00      	ldr	r2, [sp, #0]
10002978:	68bc      	ldr	r4, [r7, #8]
1000297a:	444a      	add	r2, r9
1000297c:	3101      	adds	r1, #1
1000297e:	430a      	orrs	r2, r1
10002980:	6062      	str	r2, [r4, #4]
10002982:	e6f4      	b.n	1000276e <_malloc_r+0x2d6>
10002984:	465b      	mov	r3, fp
10002986:	4642      	mov	r2, r8
10002988:	601a      	str	r2, [r3, #0]
1000298a:	e6ab      	b.n	100026e4 <_malloc_r+0x24c>
1000298c:	4644      	mov	r4, r8
1000298e:	e6ee      	b.n	1000276e <_malloc_r+0x2d6>
10002990:	6041      	str	r1, [r0, #4]
10002992:	e78d      	b.n	100028b0 <_malloc_r+0x418>
10002994:	21aa      	movs	r1, #170	; 0xaa
10002996:	0049      	lsls	r1, r1, #1
10002998:	428a      	cmp	r2, r1
1000299a:	d824      	bhi.n	100029e6 <_malloc_r+0x54e>
1000299c:	0bda      	lsrs	r2, r3, #15
1000299e:	0011      	movs	r1, r2
100029a0:	3278      	adds	r2, #120	; 0x78
100029a2:	3177      	adds	r1, #119	; 0x77
100029a4:	00d2      	lsls	r2, r2, #3
100029a6:	e706      	b.n	100027b6 <_malloc_r+0x31e>
100029a8:	4b1a      	ldr	r3, [pc, #104]	; (10002a14 <_malloc_r+0x57c>)
100029aa:	4298      	cmp	r0, r3
100029ac:	d824      	bhi.n	100029f8 <_malloc_r+0x560>
100029ae:	237c      	movs	r3, #124	; 0x7c
100029b0:	4698      	mov	r8, r3
100029b2:	0ca8      	lsrs	r0, r5, #18
100029b4:	4480      	add	r8, r0
100029b6:	307d      	adds	r0, #125	; 0x7d
100029b8:	00c1      	lsls	r1, r0, #3
100029ba:	e5b6      	b.n	1000252a <_malloc_r+0x92>
100029bc:	9a00      	ldr	r2, [sp, #0]
100029be:	9b01      	ldr	r3, [sp, #4]
100029c0:	4694      	mov	ip, r2
100029c2:	4642      	mov	r2, r8
100029c4:	3b08      	subs	r3, #8
100029c6:	4463      	add	r3, ip
100029c8:	1a9b      	subs	r3, r3, r2
100029ca:	9300      	str	r3, [sp, #0]
100029cc:	2300      	movs	r3, #0
100029ce:	469b      	mov	fp, r3
100029d0:	e6a9      	b.n	10002726 <_malloc_r+0x28e>
100029d2:	0021      	movs	r1, r4
100029d4:	0030      	movs	r0, r6
100029d6:	3108      	adds	r1, #8
100029d8:	f000 f8d6 	bl	10002b88 <_free_r>
100029dc:	4653      	mov	r3, sl
100029de:	68bc      	ldr	r4, [r7, #8]
100029e0:	681b      	ldr	r3, [r3, #0]
100029e2:	6862      	ldr	r2, [r4, #4]
100029e4:	e6c3      	b.n	1000276e <_malloc_r+0x2d6>
100029e6:	490b      	ldr	r1, [pc, #44]	; (10002a14 <_malloc_r+0x57c>)
100029e8:	428a      	cmp	r2, r1
100029ea:	d80b      	bhi.n	10002a04 <_malloc_r+0x56c>
100029ec:	0c9a      	lsrs	r2, r3, #18
100029ee:	0011      	movs	r1, r2
100029f0:	327d      	adds	r2, #125	; 0x7d
100029f2:	317c      	adds	r1, #124	; 0x7c
100029f4:	00d2      	lsls	r2, r2, #3
100029f6:	e6de      	b.n	100027b6 <_malloc_r+0x31e>
100029f8:	21fe      	movs	r1, #254	; 0xfe
100029fa:	237e      	movs	r3, #126	; 0x7e
100029fc:	207f      	movs	r0, #127	; 0x7f
100029fe:	4698      	mov	r8, r3
10002a00:	0089      	lsls	r1, r1, #2
10002a02:	e592      	b.n	1000252a <_malloc_r+0x92>
10002a04:	22fe      	movs	r2, #254	; 0xfe
10002a06:	217e      	movs	r1, #126	; 0x7e
10002a08:	0092      	lsls	r2, r2, #2
10002a0a:	e6d4      	b.n	100027b6 <_malloc_r+0x31e>
10002a0c:	687b      	ldr	r3, [r7, #4]
10002a0e:	e76a      	b.n	100028e6 <_malloc_r+0x44e>
10002a10:	20000a88 	.word	0x20000a88
10002a14:	00000554 	.word	0x00000554

10002a18 <__malloc_lock>:
10002a18:	b510      	push	{r4, lr}
10002a1a:	4802      	ldr	r0, [pc, #8]	; (10002a24 <__malloc_lock+0xc>)
10002a1c:	f000 f996 	bl	10002d4c <__retarget_lock_acquire_recursive>
10002a20:	bd10      	pop	{r4, pc}
10002a22:	46c0      	nop			; (mov r8, r8)
10002a24:	20000d4c 	.word	0x20000d4c

10002a28 <__malloc_unlock>:
10002a28:	b510      	push	{r4, lr}
10002a2a:	4802      	ldr	r0, [pc, #8]	; (10002a34 <__malloc_unlock+0xc>)
10002a2c:	f000 f990 	bl	10002d50 <__retarget_lock_release_recursive>
10002a30:	bd10      	pop	{r4, pc}
10002a32:	46c0      	nop			; (mov r8, r8)
10002a34:	20000d4c 	.word	0x20000d4c

10002a38 <rand>:
10002a38:	4b09      	ldr	r3, [pc, #36]	; (10002a60 <rand+0x28>)
10002a3a:	b510      	push	{r4, lr}
10002a3c:	681c      	ldr	r4, [r3, #0]
10002a3e:	4a09      	ldr	r2, [pc, #36]	; (10002a64 <rand+0x2c>)
10002a40:	34a8      	adds	r4, #168	; 0xa8
10002a42:	6820      	ldr	r0, [r4, #0]
10002a44:	6861      	ldr	r1, [r4, #4]
10002a46:	4b08      	ldr	r3, [pc, #32]	; (10002a68 <rand+0x30>)
10002a48:	f7ff f9bc 	bl	10001dc4 <__wrap___aeabi_lmul>
10002a4c:	2201      	movs	r2, #1
10002a4e:	2300      	movs	r3, #0
10002a50:	1880      	adds	r0, r0, r2
10002a52:	4159      	adcs	r1, r3
10002a54:	6020      	str	r0, [r4, #0]
10002a56:	6061      	str	r1, [r4, #4]
10002a58:	0048      	lsls	r0, r1, #1
10002a5a:	0840      	lsrs	r0, r0, #1
10002a5c:	bd10      	pop	{r4, pc}
10002a5e:	46c0      	nop			; (mov r8, r8)
10002a60:	20000214 	.word	0x20000214
10002a64:	4c957f2d 	.word	0x4c957f2d
10002a68:	5851f42d 	.word	0x5851f42d

10002a6c <_sbrk_r>:
10002a6c:	2300      	movs	r3, #0
10002a6e:	b570      	push	{r4, r5, r6, lr}
10002a70:	4d06      	ldr	r5, [pc, #24]	; (10002a8c <_sbrk_r+0x20>)
10002a72:	0004      	movs	r4, r0
10002a74:	0008      	movs	r0, r1
10002a76:	602b      	str	r3, [r5, #0]
10002a78:	f7fe fd22 	bl	100014c0 <_sbrk>
10002a7c:	1c43      	adds	r3, r0, #1
10002a7e:	d000      	beq.n	10002a82 <_sbrk_r+0x16>
10002a80:	bd70      	pop	{r4, r5, r6, pc}
10002a82:	682b      	ldr	r3, [r5, #0]
10002a84:	2b00      	cmp	r3, #0
10002a86:	d0fb      	beq.n	10002a80 <_sbrk_r+0x14>
10002a88:	6023      	str	r3, [r4, #0]
10002a8a:	e7f9      	b.n	10002a80 <_sbrk_r+0x14>
10002a8c:	20000d60 	.word	0x20000d60

10002a90 <strlen>:
10002a90:	b510      	push	{r4, lr}
10002a92:	0783      	lsls	r3, r0, #30
10002a94:	d00a      	beq.n	10002aac <strlen+0x1c>
10002a96:	0003      	movs	r3, r0
10002a98:	2103      	movs	r1, #3
10002a9a:	e002      	b.n	10002aa2 <strlen+0x12>
10002a9c:	3301      	adds	r3, #1
10002a9e:	420b      	tst	r3, r1
10002aa0:	d005      	beq.n	10002aae <strlen+0x1e>
10002aa2:	781a      	ldrb	r2, [r3, #0]
10002aa4:	2a00      	cmp	r2, #0
10002aa6:	d1f9      	bne.n	10002a9c <strlen+0xc>
10002aa8:	1a18      	subs	r0, r3, r0
10002aaa:	bd10      	pop	{r4, pc}
10002aac:	0003      	movs	r3, r0
10002aae:	6819      	ldr	r1, [r3, #0]
10002ab0:	4a0c      	ldr	r2, [pc, #48]	; (10002ae4 <strlen+0x54>)
10002ab2:	4c0d      	ldr	r4, [pc, #52]	; (10002ae8 <strlen+0x58>)
10002ab4:	188a      	adds	r2, r1, r2
10002ab6:	438a      	bics	r2, r1
10002ab8:	4222      	tst	r2, r4
10002aba:	d10f      	bne.n	10002adc <strlen+0x4c>
10002abc:	6859      	ldr	r1, [r3, #4]
10002abe:	4a09      	ldr	r2, [pc, #36]	; (10002ae4 <strlen+0x54>)
10002ac0:	3304      	adds	r3, #4
10002ac2:	188a      	adds	r2, r1, r2
10002ac4:	438a      	bics	r2, r1
10002ac6:	4222      	tst	r2, r4
10002ac8:	d108      	bne.n	10002adc <strlen+0x4c>
10002aca:	6859      	ldr	r1, [r3, #4]
10002acc:	4a05      	ldr	r2, [pc, #20]	; (10002ae4 <strlen+0x54>)
10002ace:	3304      	adds	r3, #4
10002ad0:	188a      	adds	r2, r1, r2
10002ad2:	438a      	bics	r2, r1
10002ad4:	4222      	tst	r2, r4
10002ad6:	d0f1      	beq.n	10002abc <strlen+0x2c>
10002ad8:	e000      	b.n	10002adc <strlen+0x4c>
10002ada:	3301      	adds	r3, #1
10002adc:	781a      	ldrb	r2, [r3, #0]
10002ade:	2a00      	cmp	r2, #0
10002ae0:	d1fb      	bne.n	10002ada <strlen+0x4a>
10002ae2:	e7e1      	b.n	10002aa8 <strlen+0x18>
10002ae4:	fefefeff 	.word	0xfefefeff
10002ae8:	80808080 	.word	0x80808080

10002aec <_malloc_trim_r>:
10002aec:	b5f8      	push	{r3, r4, r5, r6, r7, lr}
10002aee:	000c      	movs	r4, r1
10002af0:	0005      	movs	r5, r0
10002af2:	f7ff ff91 	bl	10002a18 <__malloc_lock>
10002af6:	4f20      	ldr	r7, [pc, #128]	; (10002b78 <_malloc_trim_r+0x8c>)
10002af8:	68bb      	ldr	r3, [r7, #8]
10002afa:	685e      	ldr	r6, [r3, #4]
10002afc:	2303      	movs	r3, #3
10002afe:	439e      	bics	r6, r3
10002b00:	4b1e      	ldr	r3, [pc, #120]	; (10002b7c <_malloc_trim_r+0x90>)
10002b02:	1b34      	subs	r4, r6, r4
10002b04:	469c      	mov	ip, r3
10002b06:	4464      	add	r4, ip
10002b08:	0b24      	lsrs	r4, r4, #12
10002b0a:	3c01      	subs	r4, #1
10002b0c:	3311      	adds	r3, #17
10002b0e:	0324      	lsls	r4, r4, #12
10002b10:	429c      	cmp	r4, r3
10002b12:	db07      	blt.n	10002b24 <_malloc_trim_r+0x38>
10002b14:	2100      	movs	r1, #0
10002b16:	0028      	movs	r0, r5
10002b18:	f7ff ffa8 	bl	10002a6c <_sbrk_r>
10002b1c:	68bb      	ldr	r3, [r7, #8]
10002b1e:	199b      	adds	r3, r3, r6
10002b20:	4298      	cmp	r0, r3
10002b22:	d004      	beq.n	10002b2e <_malloc_trim_r+0x42>
10002b24:	0028      	movs	r0, r5
10002b26:	f7ff ff7f 	bl	10002a28 <__malloc_unlock>
10002b2a:	2000      	movs	r0, #0
10002b2c:	bdf8      	pop	{r3, r4, r5, r6, r7, pc}
10002b2e:	0028      	movs	r0, r5
10002b30:	4261      	negs	r1, r4
10002b32:	f7ff ff9b 	bl	10002a6c <_sbrk_r>
10002b36:	1c43      	adds	r3, r0, #1
10002b38:	d00d      	beq.n	10002b56 <_malloc_trim_r+0x6a>
10002b3a:	2201      	movs	r2, #1
10002b3c:	68bb      	ldr	r3, [r7, #8]
10002b3e:	1b36      	subs	r6, r6, r4
10002b40:	4316      	orrs	r6, r2
10002b42:	605e      	str	r6, [r3, #4]
10002b44:	4b0e      	ldr	r3, [pc, #56]	; (10002b80 <_malloc_trim_r+0x94>)
10002b46:	0028      	movs	r0, r5
10002b48:	681a      	ldr	r2, [r3, #0]
10002b4a:	1b14      	subs	r4, r2, r4
10002b4c:	601c      	str	r4, [r3, #0]
10002b4e:	f7ff ff6b 	bl	10002a28 <__malloc_unlock>
10002b52:	2001      	movs	r0, #1
10002b54:	e7ea      	b.n	10002b2c <_malloc_trim_r+0x40>
10002b56:	2100      	movs	r1, #0
10002b58:	0028      	movs	r0, r5
10002b5a:	f7ff ff87 	bl	10002a6c <_sbrk_r>
10002b5e:	68ba      	ldr	r2, [r7, #8]
10002b60:	1a83      	subs	r3, r0, r2
10002b62:	2b0f      	cmp	r3, #15
10002b64:	ddde      	ble.n	10002b24 <_malloc_trim_r+0x38>
10002b66:	4907      	ldr	r1, [pc, #28]	; (10002b84 <_malloc_trim_r+0x98>)
10002b68:	6809      	ldr	r1, [r1, #0]
10002b6a:	1a40      	subs	r0, r0, r1
10002b6c:	4904      	ldr	r1, [pc, #16]	; (10002b80 <_malloc_trim_r+0x94>)
10002b6e:	6008      	str	r0, [r1, #0]
10002b70:	2101      	movs	r1, #1
10002b72:	430b      	orrs	r3, r1
10002b74:	6053      	str	r3, [r2, #4]
10002b76:	e7d5      	b.n	10002b24 <_malloc_trim_r+0x38>
10002b78:	20000640 	.word	0x20000640
10002b7c:	00000fef 	.word	0x00000fef
10002b80:	20000a88 	.word	0x20000a88
10002b84:	20000a48 	.word	0x20000a48

10002b88 <_free_r>:
10002b88:	b5f0      	push	{r4, r5, r6, r7, lr}
10002b8a:	46c6      	mov	lr, r8
10002b8c:	0005      	movs	r5, r0
10002b8e:	000c      	movs	r4, r1
10002b90:	b500      	push	{lr}
10002b92:	2900      	cmp	r1, #0
10002b94:	d04f      	beq.n	10002c36 <_free_r+0xae>
10002b96:	f7ff ff3f 	bl	10002a18 <__malloc_lock>
10002b9a:	0021      	movs	r1, r4
10002b9c:	3908      	subs	r1, #8
10002b9e:	684c      	ldr	r4, [r1, #4]
10002ba0:	2601      	movs	r6, #1
10002ba2:	0022      	movs	r2, r4
10002ba4:	2003      	movs	r0, #3
10002ba6:	43b2      	bics	r2, r6
10002ba8:	188f      	adds	r7, r1, r2
10002baa:	687b      	ldr	r3, [r7, #4]
10002bac:	4383      	bics	r3, r0
10002bae:	4862      	ldr	r0, [pc, #392]	; (10002d38 <_free_r+0x1b0>)
10002bb0:	4698      	mov	r8, r3
10002bb2:	6883      	ldr	r3, [r0, #8]
10002bb4:	42bb      	cmp	r3, r7
10002bb6:	d06b      	beq.n	10002c90 <_free_r+0x108>
10002bb8:	4643      	mov	r3, r8
10002bba:	607b      	str	r3, [r7, #4]
10002bbc:	4226      	tst	r6, r4
10002bbe:	d11e      	bne.n	10002bfe <_free_r+0x76>
10002bc0:	2308      	movs	r3, #8
10002bc2:	469c      	mov	ip, r3
10002bc4:	680c      	ldr	r4, [r1, #0]
10002bc6:	4484      	add	ip, r0
10002bc8:	1b09      	subs	r1, r1, r4
10002bca:	1912      	adds	r2, r2, r4
10002bcc:	688c      	ldr	r4, [r1, #8]
10002bce:	4564      	cmp	r4, ip
10002bd0:	d04f      	beq.n	10002c72 <_free_r+0xea>
10002bd2:	68cb      	ldr	r3, [r1, #12]
10002bd4:	60e3      	str	r3, [r4, #12]
10002bd6:	609c      	str	r4, [r3, #8]
10002bd8:	4643      	mov	r3, r8
10002bda:	18fc      	adds	r4, r7, r3
10002bdc:	6864      	ldr	r4, [r4, #4]
10002bde:	4234      	tst	r4, r6
10002be0:	d111      	bne.n	10002c06 <_free_r+0x7e>
10002be2:	68bb      	ldr	r3, [r7, #8]
10002be4:	4c55      	ldr	r4, [pc, #340]	; (10002d3c <_free_r+0x1b4>)
10002be6:	4442      	add	r2, r8
10002be8:	42a3      	cmp	r3, r4
10002bea:	d100      	bne.n	10002bee <_free_r+0x66>
10002bec:	e07f      	b.n	10002cee <_free_r+0x166>
10002bee:	68fc      	ldr	r4, [r7, #12]
10002bf0:	60dc      	str	r4, [r3, #12]
10002bf2:	60a3      	str	r3, [r4, #8]
10002bf4:	2301      	movs	r3, #1
10002bf6:	4313      	orrs	r3, r2
10002bf8:	604b      	str	r3, [r1, #4]
10002bfa:	508a      	str	r2, [r1, r2]
10002bfc:	e006      	b.n	10002c0c <_free_r+0x84>
10002bfe:	18fc      	adds	r4, r7, r3
10002c00:	6864      	ldr	r4, [r4, #4]
10002c02:	4234      	tst	r4, r6
10002c04:	d0ed      	beq.n	10002be2 <_free_r+0x5a>
10002c06:	4316      	orrs	r6, r2
10002c08:	604e      	str	r6, [r1, #4]
10002c0a:	603a      	str	r2, [r7, #0]
10002c0c:	2380      	movs	r3, #128	; 0x80
10002c0e:	009b      	lsls	r3, r3, #2
10002c10:	429a      	cmp	r2, r3
10002c12:	d213      	bcs.n	10002c3c <_free_r+0xb4>
10002c14:	0954      	lsrs	r4, r2, #5
10002c16:	08d3      	lsrs	r3, r2, #3
10002c18:	2201      	movs	r2, #1
10002c1a:	40a2      	lsls	r2, r4
10002c1c:	6844      	ldr	r4, [r0, #4]
10002c1e:	00db      	lsls	r3, r3, #3
10002c20:	4322      	orrs	r2, r4
10002c22:	6042      	str	r2, [r0, #4]
10002c24:	1818      	adds	r0, r3, r0
10002c26:	6883      	ldr	r3, [r0, #8]
10002c28:	60c8      	str	r0, [r1, #12]
10002c2a:	608b      	str	r3, [r1, #8]
10002c2c:	6081      	str	r1, [r0, #8]
10002c2e:	60d9      	str	r1, [r3, #12]
10002c30:	0028      	movs	r0, r5
10002c32:	f7ff fef9 	bl	10002a28 <__malloc_unlock>
10002c36:	bc04      	pop	{r2}
10002c38:	4690      	mov	r8, r2
10002c3a:	bdf0      	pop	{r4, r5, r6, r7, pc}
10002c3c:	0a53      	lsrs	r3, r2, #9
10002c3e:	2b04      	cmp	r3, #4
10002c40:	d83f      	bhi.n	10002cc2 <_free_r+0x13a>
10002c42:	0994      	lsrs	r4, r2, #6
10002c44:	0026      	movs	r6, r4
10002c46:	3439      	adds	r4, #57	; 0x39
10002c48:	3638      	adds	r6, #56	; 0x38
10002c4a:	00e4      	lsls	r4, r4, #3
10002c4c:	1904      	adds	r4, r0, r4
10002c4e:	6823      	ldr	r3, [r4, #0]
10002c50:	3c08      	subs	r4, #8
10002c52:	2703      	movs	r7, #3
10002c54:	429c      	cmp	r4, r3
10002c56:	d043      	beq.n	10002ce0 <_free_r+0x158>
10002c58:	6858      	ldr	r0, [r3, #4]
10002c5a:	43b8      	bics	r0, r7
10002c5c:	4290      	cmp	r0, r2
10002c5e:	d902      	bls.n	10002c66 <_free_r+0xde>
10002c60:	689b      	ldr	r3, [r3, #8]
10002c62:	429c      	cmp	r4, r3
10002c64:	d1f8      	bne.n	10002c58 <_free_r+0xd0>
10002c66:	68dc      	ldr	r4, [r3, #12]
10002c68:	60cc      	str	r4, [r1, #12]
10002c6a:	608b      	str	r3, [r1, #8]
10002c6c:	60a1      	str	r1, [r4, #8]
10002c6e:	60d9      	str	r1, [r3, #12]
10002c70:	e7de      	b.n	10002c30 <_free_r+0xa8>
10002c72:	4643      	mov	r3, r8
10002c74:	18f8      	adds	r0, r7, r3
10002c76:	6840      	ldr	r0, [r0, #4]
10002c78:	4230      	tst	r0, r6
10002c7a:	d158      	bne.n	10002d2e <_free_r+0x1a6>
10002c7c:	0013      	movs	r3, r2
10002c7e:	68b8      	ldr	r0, [r7, #8]
10002c80:	68fa      	ldr	r2, [r7, #12]
10002c82:	4443      	add	r3, r8
10002c84:	431e      	orrs	r6, r3
10002c86:	60c2      	str	r2, [r0, #12]
10002c88:	6090      	str	r0, [r2, #8]
10002c8a:	604e      	str	r6, [r1, #4]
10002c8c:	50cb      	str	r3, [r1, r3]
10002c8e:	e7cf      	b.n	10002c30 <_free_r+0xa8>
10002c90:	0013      	movs	r3, r2
10002c92:	4443      	add	r3, r8
10002c94:	4226      	tst	r6, r4
10002c96:	d106      	bne.n	10002ca6 <_free_r+0x11e>
10002c98:	680a      	ldr	r2, [r1, #0]
10002c9a:	1a89      	subs	r1, r1, r2
10002c9c:	688c      	ldr	r4, [r1, #8]
10002c9e:	189b      	adds	r3, r3, r2
10002ca0:	68ca      	ldr	r2, [r1, #12]
10002ca2:	60e2      	str	r2, [r4, #12]
10002ca4:	6094      	str	r4, [r2, #8]
10002ca6:	2201      	movs	r2, #1
10002ca8:	431a      	orrs	r2, r3
10002caa:	604a      	str	r2, [r1, #4]
10002cac:	4a24      	ldr	r2, [pc, #144]	; (10002d40 <_free_r+0x1b8>)
10002cae:	6081      	str	r1, [r0, #8]
10002cb0:	6812      	ldr	r2, [r2, #0]
10002cb2:	429a      	cmp	r2, r3
10002cb4:	d8bc      	bhi.n	10002c30 <_free_r+0xa8>
10002cb6:	4b23      	ldr	r3, [pc, #140]	; (10002d44 <_free_r+0x1bc>)
10002cb8:	0028      	movs	r0, r5
10002cba:	6819      	ldr	r1, [r3, #0]
10002cbc:	f7ff ff16 	bl	10002aec <_malloc_trim_r>
10002cc0:	e7b6      	b.n	10002c30 <_free_r+0xa8>
10002cc2:	2b14      	cmp	r3, #20
10002cc4:	d907      	bls.n	10002cd6 <_free_r+0x14e>
10002cc6:	2b54      	cmp	r3, #84	; 0x54
10002cc8:	d81a      	bhi.n	10002d00 <_free_r+0x178>
10002cca:	0b14      	lsrs	r4, r2, #12
10002ccc:	0026      	movs	r6, r4
10002cce:	346f      	adds	r4, #111	; 0x6f
10002cd0:	366e      	adds	r6, #110	; 0x6e
10002cd2:	00e4      	lsls	r4, r4, #3
10002cd4:	e7ba      	b.n	10002c4c <_free_r+0xc4>
10002cd6:	001e      	movs	r6, r3
10002cd8:	335c      	adds	r3, #92	; 0x5c
10002cda:	365b      	adds	r6, #91	; 0x5b
10002cdc:	00dc      	lsls	r4, r3, #3
10002cde:	e7b5      	b.n	10002c4c <_free_r+0xc4>
10002ce0:	2201      	movs	r2, #1
10002ce2:	10b6      	asrs	r6, r6, #2
10002ce4:	40b2      	lsls	r2, r6
10002ce6:	6846      	ldr	r6, [r0, #4]
10002ce8:	4332      	orrs	r2, r6
10002cea:	6042      	str	r2, [r0, #4]
10002cec:	e7bc      	b.n	10002c68 <_free_r+0xe0>
10002cee:	60d9      	str	r1, [r3, #12]
10002cf0:	6099      	str	r1, [r3, #8]
10002cf2:	60cb      	str	r3, [r1, #12]
10002cf4:	608b      	str	r3, [r1, #8]
10002cf6:	2301      	movs	r3, #1
10002cf8:	4313      	orrs	r3, r2
10002cfa:	604b      	str	r3, [r1, #4]
10002cfc:	508a      	str	r2, [r1, r2]
10002cfe:	e797      	b.n	10002c30 <_free_r+0xa8>
10002d00:	24aa      	movs	r4, #170	; 0xaa
10002d02:	0064      	lsls	r4, r4, #1
10002d04:	42a3      	cmp	r3, r4
10002d06:	d805      	bhi.n	10002d14 <_free_r+0x18c>
10002d08:	0bd4      	lsrs	r4, r2, #15
10002d0a:	0026      	movs	r6, r4
10002d0c:	3478      	adds	r4, #120	; 0x78
10002d0e:	3677      	adds	r6, #119	; 0x77
10002d10:	00e4      	lsls	r4, r4, #3
10002d12:	e79b      	b.n	10002c4c <_free_r+0xc4>
10002d14:	4c0c      	ldr	r4, [pc, #48]	; (10002d48 <_free_r+0x1c0>)
10002d16:	42a3      	cmp	r3, r4
10002d18:	d805      	bhi.n	10002d26 <_free_r+0x19e>
10002d1a:	0c94      	lsrs	r4, r2, #18
10002d1c:	0026      	movs	r6, r4
10002d1e:	347d      	adds	r4, #125	; 0x7d
10002d20:	367c      	adds	r6, #124	; 0x7c
10002d22:	00e4      	lsls	r4, r4, #3
10002d24:	e792      	b.n	10002c4c <_free_r+0xc4>
10002d26:	24fe      	movs	r4, #254	; 0xfe
10002d28:	267e      	movs	r6, #126	; 0x7e
10002d2a:	00a4      	lsls	r4, r4, #2
10002d2c:	e78e      	b.n	10002c4c <_free_r+0xc4>
10002d2e:	0033      	movs	r3, r6
10002d30:	4313      	orrs	r3, r2
10002d32:	604b      	str	r3, [r1, #4]
10002d34:	603a      	str	r2, [r7, #0]
10002d36:	e77b      	b.n	10002c30 <_free_r+0xa8>
10002d38:	20000640 	.word	0x20000640
10002d3c:	20000648 	.word	0x20000648
10002d40:	20000a4c 	.word	0x20000a4c
10002d44:	20000ab8 	.word	0x20000ab8
10002d48:	00000554 	.word	0x00000554

10002d4c <__retarget_lock_acquire_recursive>:
10002d4c:	4770      	bx	lr
10002d4e:	46c0      	nop			; (mov r8, r8)

10002d50 <__retarget_lock_release_recursive>:
10002d50:	4770      	bx	lr
10002d52:	46c0      	nop			; (mov r8, r8)

10002d54 <_fini>:
10002d54:	b5f8      	push	{r3, r4, r5, r6, r7, lr}
10002d56:	46c0      	nop			; (mov r8, r8)

10002d58 <__mutex_exit_veneer>:
10002d58:	b401      	push	{r0}
10002d5a:	4802      	ldr	r0, [pc, #8]	; (10002d64 <__mutex_exit_veneer+0xc>)
10002d5c:	4684      	mov	ip, r0
10002d5e:	bc01      	pop	{r0}
10002d60:	4760      	bx	ip
10002d62:	bf00      	nop
10002d64:	2000015d 	.word	0x2000015d

10002d68 <____aeabi_idiv0_veneer>:
10002d68:	b401      	push	{r0}
10002d6a:	4802      	ldr	r0, [pc, #8]	; (10002d74 <____aeabi_idiv0_veneer+0xc>)
10002d6c:	4684      	mov	ip, r0
10002d6e:	bc01      	pop	{r0}
10002d70:	4760      	bx	ip
10002d72:	bf00      	nop
10002d74:	20000185 	.word	0x20000185

10002d78 <__mutex_try_enter_veneer>:
10002d78:	b401      	push	{r0}
10002d7a:	4802      	ldr	r0, [pc, #8]	; (10002d84 <__mutex_try_enter_veneer+0xc>)
10002d7c:	4684      	mov	ip, r0
10002d7e:	bc01      	pop	{r0}
10002d80:	4760      	bx	ip
10002d82:	bf00      	nop
10002d84:	20000111 	.word	0x20000111

10002d88 <__mutex_enter_blocking_veneer>:
10002d88:	b401      	push	{r0}
10002d8a:	4802      	ldr	r0, [pc, #8]	; (10002d94 <__mutex_enter_blocking_veneer+0xc>)
10002d8c:	4684      	mov	ip, r0
10002d8e:	bc01      	pop	{r0}
10002d90:	4760      	bx	ip
10002d92:	bf00      	nop
10002d94:	200000c1 	.word	0x200000c1

Disassembly of section .data:

200000c0 <mutex_enter_blocking>:
200000c0:	b510      	push	{r4, lr}
200000c2:	6802      	ldr	r2, [r0, #0]
200000c4:	2400      	movs	r4, #0
200000c6:	f3ef 8110 	mrs	r1, PRIMASK
200000ca:	b672      	cpsid	i
200000cc:	6813      	ldr	r3, [r2, #0]
200000ce:	2b00      	cmp	r3, #0
200000d0:	d0fc      	beq.n	200000cc <mutex_enter_blocking+0xc>
200000d2:	f3bf 8f5f 	dmb	sy
200000d6:	7903      	ldrb	r3, [r0, #4]
200000d8:	2b00      	cmp	r3, #0
200000da:	d00b      	beq.n	200000f4 <mutex_enter_blocking+0x34>
200000dc:	6803      	ldr	r3, [r0, #0]
200000de:	f3bf 8f5f 	dmb	sy
200000e2:	601c      	str	r4, [r3, #0]
200000e4:	f381 8810 	msr	PRIMASK, r1
200000e8:	bf20      	wfe
200000ea:	6802      	ldr	r2, [r0, #0]
200000ec:	f3ef 8110 	mrs	r1, PRIMASK
200000f0:	b672      	cpsid	i
200000f2:	e7eb      	b.n	200000cc <mutex_enter_blocking+0xc>
200000f4:	2201      	movs	r2, #1
200000f6:	7102      	strb	r2, [r0, #4]
200000f8:	22d0      	movs	r2, #208	; 0xd0
200000fa:	0612      	lsls	r2, r2, #24
200000fc:	6812      	ldr	r2, [r2, #0]
200000fe:	7142      	strb	r2, [r0, #5]
20000100:	6802      	ldr	r2, [r0, #0]
20000102:	f3bf 8f5f 	dmb	sy
20000106:	6013      	str	r3, [r2, #0]
20000108:	f381 8810 	msr	PRIMASK, r1
2000010c:	bd10      	pop	{r4, pc}
2000010e:	46c0      	nop			; (mov r8, r8)

20000110 <mutex_try_enter>:
20000110:	0003      	movs	r3, r0
20000112:	b510      	push	{r4, lr}
20000114:	6800      	ldr	r0, [r0, #0]
20000116:	f3ef 8410 	mrs	r4, PRIMASK
2000011a:	b672      	cpsid	i
2000011c:	6802      	ldr	r2, [r0, #0]
2000011e:	2a00      	cmp	r2, #0
20000120:	d0fc      	beq.n	2000011c <mutex_try_enter+0xc>
20000122:	f3bf 8f5f 	dmb	sy
20000126:	791a      	ldrb	r2, [r3, #4]
20000128:	2a00      	cmp	r2, #0
2000012a:	d00d      	beq.n	20000148 <mutex_try_enter+0x38>
2000012c:	2900      	cmp	r1, #0
2000012e:	d013      	beq.n	20000158 <mutex_try_enter+0x48>
20000130:	2205      	movs	r2, #5
20000132:	2000      	movs	r0, #0
20000134:	569a      	ldrsb	r2, [r3, r2]
20000136:	600a      	str	r2, [r1, #0]
20000138:	681b      	ldr	r3, [r3, #0]
2000013a:	f3bf 8f5f 	dmb	sy
2000013e:	2200      	movs	r2, #0
20000140:	601a      	str	r2, [r3, #0]
20000142:	f384 8810 	msr	PRIMASK, r4
20000146:	bd10      	pop	{r4, pc}
20000148:	3201      	adds	r2, #1
2000014a:	711a      	strb	r2, [r3, #4]
2000014c:	22d0      	movs	r2, #208	; 0xd0
2000014e:	0612      	lsls	r2, r2, #24
20000150:	6812      	ldr	r2, [r2, #0]
20000152:	2001      	movs	r0, #1
20000154:	715a      	strb	r2, [r3, #5]
20000156:	e7ef      	b.n	20000138 <mutex_try_enter+0x28>
20000158:	2000      	movs	r0, #0
2000015a:	e7ed      	b.n	20000138 <mutex_try_enter+0x28>

2000015c <mutex_exit>:
2000015c:	6802      	ldr	r2, [r0, #0]
2000015e:	f3ef 8110 	mrs	r1, PRIMASK
20000162:	b672      	cpsid	i
20000164:	6813      	ldr	r3, [r2, #0]
20000166:	2b00      	cmp	r3, #0
20000168:	d0fc      	beq.n	20000164 <mutex_exit+0x8>
2000016a:	f3bf 8f5f 	dmb	sy
2000016e:	2300      	movs	r3, #0
20000170:	7103      	strb	r3, [r0, #4]
20000172:	bf40      	sev
20000174:	6802      	ldr	r2, [r0, #0]
20000176:	f3bf 8f5f 	dmb	sy
2000017a:	6013      	str	r3, [r2, #0]
2000017c:	f381 8810 	msr	PRIMASK, r1
20000180:	4770      	bx	lr
20000182:	46c0      	nop			; (mov r8, r8)

20000184 <__aeabi_idiv0>:
20000184:	4770      	bx	lr
20000186:	46c0      	nop			; (mov r8, r8)

20000188 <striped_spin_lock_num>:
20000188:	0010 0000                                   ....

2000018c <irq_handler_chain_slots>:
2000018c:	00000000 	.word	0x00000000
20000190:	00010000 	.word	0x00010000
	...
2000019c:	00020000 	.word	0x00020000
	...
200001a8:	00030000 	.word	0x00030000
	...
200001b4:	00ff0000 	.word	0x00ff0000
200001b8:	00000000 	.word	0x00000000

200001bc <irq_handler_chain_first_slot>:
200001bc:	b500      	push	{lr}
200001be:	6848      	ldr	r0, [r1, #4]
200001c0:	3101      	adds	r1, #1
200001c2:	468e      	mov	lr, r1
200001c4:	4700      	bx	r0

200001c6 <irq_handler_chain_remove_tail>:
200001c6:	4670      	mov	r0, lr
200001c8:	3809      	subs	r0, #9
200001ca:	4901      	ldr	r1, [pc, #4]	; (200001d0 <irq_handler_chain_remove_tail+0xa>)
200001cc:	4788      	blx	r1
200001ce:	bd00      	pop	{pc}
200001d0:	10001af9 	.word	0x10001af9
	...

200001e0 <aeabi_bits_funcs>:
200001e0:	00003350 	.word	0x00003350
200001e4:	0000334c 	.word	0x0000334c
200001e8:	00003354 	.word	0x00003354
200001ec:	00003352 	.word	0x00003352

200001f0 <aeabi_bits_funcs_end>:
200001f0:	0000534d 	.word	0x0000534d
200001f4:	0000434d 	.word	0x0000434d
200001f8:	00003453 	.word	0x00003453
200001fc:	00003443 	.word	0x00003443

20000200 <stdio_uart>:
20000200:	10002161 00000000 1000219d 00000000     a!.......!......
20000210:	00000100                                ....

20000214 <_impure_ptr>:
20000214:	20000218                                ... 

20000218 <impure_data>:
20000218:	00000000 20000504 2000056c 200005d4     ....... l.. ... 
	...
200002c0:	00000001 00000000 abcd330e e66d1234     .........3..4.m.
200002d0:	0005deec 0000000b 00000000 00000000     ................
	...

20000640 <__malloc_av_>:
	...
20000648:	20000640 20000640 20000648 20000648     @.. @.. H.. H.. 
20000658:	20000650 20000650 20000658 20000658     P.. P.. X.. X.. 
20000668:	20000660 20000660 20000668 20000668     `.. `.. h.. h.. 
20000678:	20000670 20000670 20000678 20000678     p.. p.. x.. x.. 
20000688:	20000680 20000680 20000688 20000688     ... ... ... ... 
20000698:	20000690 20000690 20000698 20000698     ... ... ... ... 
200006a8:	200006a0 200006a0 200006a8 200006a8     ... ... ... ... 
200006b8:	200006b0 200006b0 200006b8 200006b8     ... ... ... ... 
200006c8:	200006c0 200006c0 200006c8 200006c8     ... ... ... ... 
200006d8:	200006d0 200006d0 200006d8 200006d8     ... ... ... ... 
200006e8:	200006e0 200006e0 200006e8 200006e8     ... ... ... ... 
200006f8:	200006f0 200006f0 200006f8 200006f8     ... ... ... ... 
20000708:	20000700 20000700 20000708 20000708     ... ... ... ... 
20000718:	20000710 20000710 20000718 20000718     ... ... ... ... 
20000728:	20000720 20000720 20000728 20000728      ..  .. (.. (.. 
20000738:	20000730 20000730 20000738 20000738     0.. 0.. 8.. 8.. 
20000748:	20000740 20000740 20000748 20000748     @.. @.. H.. H.. 
20000758:	20000750 20000750 20000758 20000758     P.. P.. X.. X.. 
20000768:	20000760 20000760 20000768 20000768     `.. `.. h.. h.. 
20000778:	20000770 20000770 20000778 20000778     p.. p.. x.. x.. 
20000788:	20000780 20000780 20000788 20000788     ... ... ... ... 
20000798:	20000790 20000790 20000798 20000798     ... ... ... ... 
200007a8:	200007a0 200007a0 200007a8 200007a8     ... ... ... ... 
200007b8:	200007b0 200007b0 200007b8 200007b8     ... ... ... ... 
200007c8:	200007c0 200007c0 200007c8 200007c8     ... ... ... ... 
200007d8:	200007d0 200007d0 200007d8 200007d8     ... ... ... ... 
200007e8:	200007e0 200007e0 200007e8 200007e8     ... ... ... ... 
200007f8:	200007f0 200007f0 200007f8 200007f8     ... ... ... ... 
20000808:	20000800 20000800 20000808 20000808     ... ... ... ... 
20000818:	20000810 20000810 20000818 20000818     ... ... ... ... 
20000828:	20000820 20000820 20000828 20000828      ..  .. (.. (.. 
20000838:	20000830 20000830 20000838 20000838     0.. 0.. 8.. 8.. 
20000848:	20000840 20000840 20000848 20000848     @.. @.. H.. H.. 
20000858:	20000850 20000850 20000858 20000858     P.. P.. X.. X.. 
20000868:	20000860 20000860 20000868 20000868     `.. `.. h.. h.. 
20000878:	20000870 20000870 20000878 20000878     p.. p.. x.. x.. 
20000888:	20000880 20000880 20000888 20000888     ... ... ... ... 
20000898:	20000890 20000890 20000898 20000898     ... ... ... ... 
200008a8:	200008a0 200008a0 200008a8 200008a8     ... ... ... ... 
200008b8:	200008b0 200008b0 200008b8 200008b8     ... ... ... ... 
200008c8:	200008c0 200008c0 200008c8 200008c8     ... ... ... ... 
200008d8:	200008d0 200008d0 200008d8 200008d8     ... ... ... ... 
200008e8:	200008e0 200008e0 200008e8 200008e8     ... ... ... ... 
200008f8:	200008f0 200008f0 200008f8 200008f8     ... ... ... ... 
20000908:	20000900 20000900 20000908 20000908     ... ... ... ... 
20000918:	20000910 20000910 20000918 20000918     ... ... ... ... 
20000928:	20000920 20000920 20000928 20000928      ..  .. (.. (.. 
20000938:	20000930 20000930 20000938 20000938     0.. 0.. 8.. 8.. 
20000948:	20000940 20000940 20000948 20000948     @.. @.. H.. H.. 
20000958:	20000950 20000950 20000958 20000958     P.. P.. X.. X.. 
20000968:	20000960 20000960 20000968 20000968     `.. `.. h.. h.. 
20000978:	20000970 20000970 20000978 20000978     p.. p.. x.. x.. 
20000988:	20000980 20000980 20000988 20000988     ... ... ... ... 
20000998:	20000990 20000990 20000998 20000998     ... ... ... ... 
200009a8:	200009a0 200009a0 200009a8 200009a8     ... ... ... ... 
200009b8:	200009b0 200009b0 200009b8 200009b8     ... ... ... ... 
200009c8:	200009c0 200009c0 200009c8 200009c8     ... ... ... ... 
200009d8:	200009d0 200009d0 200009d8 200009d8     ... ... ... ... 
200009e8:	200009e0 200009e0 200009e8 200009e8     ... ... ... ... 
200009f8:	200009f0 200009f0 200009f8 200009f8     ... ... ... ... 
20000a08:	20000a00 20000a00 20000a08 20000a08     ... ... ... ... 
20000a18:	20000a10 20000a10 20000a18 20000a18     ... ... ... ... 
20000a28:	20000a20 20000a20 20000a28 20000a28      ..  .. (.. (.. 
20000a38:	20000a30 20000a30 20000a38 20000a38     0.. 0.. 8.. 8.. 

20000a48 <__malloc_sbrk_base>:
20000a48:	ffffffff                                ....

20000a4c <__malloc_trim_threshold>:
20000a4c:	00020000                                ....

20000a50 <print_mutex>:
	...

20000a58 <__mutex_array_end>:
20000a58:	10001f19 	.word	0x10001f19
20000a5c:	10001c2d 	.word	0x10001c2d
20000a60:	10001ced 	.word	0x10001ced
20000a64:	10001e79 	.word	0x10001e79

20000a68 <__frame_dummy_init_array_entry>:
20000a68:	10000301                                ....
