
pio_ws2812_parallel.elf:     file format elf32-littlearm

Sections:
Idx Name          Size      VMA       LMA       File off  Algn
  0 .boot2        00000100  10000000  10000000  00010000  2**0
                  CONTENTS, ALLOC, LOAD, READONLY, DATA
  1 .text         00003560  10000100  10000100  00010100  2**3
                  CONTENTS, ALLOC, LOAD, READONLY, CODE
  2 .rodata       000001fc  10003660  10003660  00013660  2**2
                  CONTENTS, ALLOC, LOAD, READONLY, DATA
  3 .binary_info  00000028  1000385c  1000385c  0001385c  2**2
                  CONTENTS, ALLOC, LOAD, DATA
  4 .ram_vector_table 000000c0  20000000  20000000  00020b0c  2**2
                  CONTENTS
  5 .data         00000a4c  200000c0  10003884  000200c0  2**4
                  CONTENTS, ALLOC, LOAD, CODE
  6 .uninitialized_data 00000000  20000b0c  20000b0c  00020bcc  2**0
                  CONTENTS
  7 .scratch_x    00000000  20040000  20040000  00020bcc  2**0
                  CONTENTS
  8 .scratch_y    00000000  20041000  20041000  00020bcc  2**0
                  CONTENTS
  9 .bss          0000ed0c  20000b0c  20000b0c  00020b0c  2**2
                  ALLOC
 10 .heap         00000800  2000f818  2000f818  00020bcc  2**2
                  CONTENTS, READONLY
 11 .stack_dummy  00000800  20041000  20041000  000213e0  2**5
                  CONTENTS, READONLY
 12 .ARM.attributes 00000028  00000000  00000000  00021be0  2**0
                  CONTENTS, READONLY
 13 .comment      00000079  00000000  00000000  00021c08  2**0
                  CONTENTS, READONLY
 14 .debug_frame  000002e4  00000000  00000000  00021c84  2**2
                  CONTENTS, READONLY, DEBUGGING

pio_ws2812_parallel.elf:     file format elf32-littlearm


Disassembly of section .text:

10000100 <__reset_start>:
10000100:	4827      	ldr	r0, [pc, #156]	; (100001a0 <__get_current_exception+0xa>)
10000102:	e000      	b.n	10000106 <__vector_entry>

10000104 <_entry_point>:
10000104:	2000      	movs	r0, #0

10000106 <__vector_entry>:
10000106:	4927      	ldr	r1, [pc, #156]	; (100001a4 <__get_current_exception+0xe>)
10000108:	6088      	str	r0, [r1, #8]
1000010a:	c806      	ldmia	r0!, {r1, r2}
1000010c:	f381 8808 	msr	MSP, r1
10000110:	4710      	bx	r2

10000112 <_reset_handler>:
10000112:	4825      	ldr	r0, [pc, #148]	; (100001a8 <__get_current_exception+0x12>)
10000114:	6800      	ldr	r0, [r0, #0]
10000116:	2800      	cmp	r0, #0
10000118:	d139      	bne.n	1000018e <wait_for_vector>
1000011a:	a412      	add	r4, pc, #72	; (adr r4, 10000164 <data_cpy_table>)
1000011c:	cc0e      	ldmia	r4!, {r1, r2, r3}
1000011e:	2900      	cmp	r1, #0
10000120:	d002      	beq.n	10000128 <_reset_handler+0x16>
10000122:	f000 f812 	bl	1000014a <data_cpy>
10000126:	e7f9      	b.n	1000011c <_reset_handler+0xa>
10000128:	4920      	ldr	r1, [pc, #128]	; (100001ac <__get_current_exception+0x16>)
1000012a:	4a21      	ldr	r2, [pc, #132]	; (100001b0 <__get_current_exception+0x1a>)
1000012c:	2000      	movs	r0, #0
1000012e:	e000      	b.n	10000132 <bss_fill_test>

10000130 <bss_fill_loop>:
10000130:	c101      	stmia	r1!, {r0}

10000132 <bss_fill_test>:
10000132:	4291      	cmp	r1, r2
10000134:	d1fc      	bne.n	10000130 <bss_fill_loop>

10000136 <platform_entry>:
10000136:	491f      	ldr	r1, [pc, #124]	; (100001b4 <__get_current_exception+0x1e>)
10000138:	4788      	blx	r1
1000013a:	491f      	ldr	r1, [pc, #124]	; (100001b8 <__get_current_exception+0x22>)
1000013c:	4788      	blx	r1
1000013e:	491f      	ldr	r1, [pc, #124]	; (100001bc <__get_current_exception+0x26>)
10000140:	4788      	blx	r1
10000142:	be00      	bkpt	0x0000
10000144:	e7fd      	b.n	10000142 <platform_entry+0xc>

10000146 <data_cpy_loop>:
10000146:	c901      	ldmia	r1!, {r0}
10000148:	c201      	stmia	r2!, {r0}

1000014a <data_cpy>:
1000014a:	429a      	cmp	r2, r3
1000014c:	d3fb      	bcc.n	10000146 <data_cpy_loop>
1000014e:	4770      	bx	lr

10000150 <binary_info_header>:
10000150:	7188ebf2 	.word	0x7188ebf2
10000154:	1000385c 	.word	0x1000385c
10000158:	10003884 	.word	0x10003884
1000015c:	10000164 	.word	0x10000164
10000160:	e71aa390 	.word	0xe71aa390

10000164 <data_cpy_table>:
10000164:	10003884 	.word	0x10003884
10000168:	200000c0 	.word	0x200000c0
1000016c:	20000b0c 	.word	0x20000b0c
10000170:	100042d0 	.word	0x100042d0
10000174:	20040000 	.word	0x20040000
10000178:	20040000 	.word	0x20040000
1000017c:	100042d0 	.word	0x100042d0
10000180:	20041000 	.word	0x20041000
10000184:	20041000 	.word	0x20041000
10000188:	00000000 	.word	0x00000000
1000018c:	4770      	bx	lr

1000018e <wait_for_vector>:
1000018e:	480c      	ldr	r0, [pc, #48]	; (100001c0 <__get_current_exception+0x2a>)
10000190:	f002 f986 	bl	100024a0 <rom_func_lookup>
10000194:	4700      	bx	r0

10000196 <__get_current_exception>:
10000196:	f3ef 8005 	mrs	r0, IPSR
1000019a:	b2c0      	uxtb	r0, r0
1000019c:	4770      	bx	lr
1000019e:	0000      	.short	0x0000
100001a0:	10000200 	.word	0x10000200
100001a4:	e000ed00 	.word	0xe000ed00
100001a8:	d0000000 	.word	0xd0000000
100001ac:	20000b0c 	.word	0x20000b0c
100001b0:	2000f818 	.word	0x2000f818
100001b4:	10001c39 	.word	0x10001c39
100001b8:	10000675 	.word	0x10000675
100001bc:	10001d59 	.word	0x10001d59
100001c0:	00005657 	.word	0x00005657

100001c4 <__bi_46>:
100001c4:	50520006 5360b3ab 1000378c              ..RP..`S.7..

100001d0 <__bi_34>:
100001d0:	50520006 02031c86 1000379c              ..RP.....7..

100001dc <__bi_26>:
100001dc:	50520006 9da22254 100037b0              ..RPT"...7..

100001e8 <__bi_18>:
100001e8:	50520005 68f465de 100042d0 00000000     ..RP.e.h.B......
	...

10000200 <__reset_end>:
10000200:	20042000 	.word	0x20042000
10000204:	10000113 	.word	0x10000113
10000208:	100002c3 	.word	0x100002c3
1000020c:	100002c5 	.word	0x100002c5
10000210:	100002c1 	.word	0x100002c1
10000214:	100002c1 	.word	0x100002c1
10000218:	100002c1 	.word	0x100002c1
1000021c:	100002c1 	.word	0x100002c1
10000220:	100002c1 	.word	0x100002c1
10000224:	100002c1 	.word	0x100002c1
10000228:	100002c1 	.word	0x100002c1
1000022c:	100002c7 	.word	0x100002c7
10000230:	100002c1 	.word	0x100002c1
10000234:	100002c1 	.word	0x100002c1
10000238:	100002c9 	.word	0x100002c9
1000023c:	100002cb 	.word	0x100002cb
10000240:	100002cd 	.word	0x100002cd
10000244:	100002cd 	.word	0x100002cd
10000248:	100002cd 	.word	0x100002cd
1000024c:	100002cd 	.word	0x100002cd
10000250:	100002cd 	.word	0x100002cd
10000254:	100002cd 	.word	0x100002cd
10000258:	100002cd 	.word	0x100002cd
1000025c:	100002cd 	.word	0x100002cd
10000260:	100002cd 	.word	0x100002cd
10000264:	100002cd 	.word	0x100002cd
10000268:	100002cd 	.word	0x100002cd
1000026c:	100002cd 	.word	0x100002cd
10000270:	100002cd 	.word	0x100002cd
10000274:	100002cd 	.word	0x100002cd
10000278:	100002cd 	.word	0x100002cd
1000027c:	100002cd 	.word	0x100002cd
10000280:	100002cd 	.word	0x100002cd
10000284:	100002cd 	.word	0x100002cd
10000288:	100002cd 	.word	0x100002cd
1000028c:	100002cd 	.word	0x100002cd
10000290:	100002cd 	.word	0x100002cd
10000294:	100002cd 	.word	0x100002cd
10000298:	100002cd 	.word	0x100002cd
1000029c:	100002cd 	.word	0x100002cd
100002a0:	100002cd 	.word	0x100002cd
100002a4:	100002cd 	.word	0x100002cd
100002a8:	100002cd 	.word	0x100002cd
100002ac:	100002cd 	.word	0x100002cd
100002b0:	100002cd 	.word	0x100002cd
100002b4:	100002cd 	.word	0x100002cd
100002b8:	100002cd 	.word	0x100002cd
100002bc:	100002cd 	.word	0x100002cd

100002c0 <isr_invalid>:
100002c0:	be00      	bkpt	0x0000

100002c2 <isr_nmi>:
100002c2:	be00      	bkpt	0x0000

100002c4 <isr_hardfault>:
100002c4:	be00      	bkpt	0x0000

100002c6 <isr_svcall>:
100002c6:	be00      	bkpt	0x0000

100002c8 <isr_pendsv>:
100002c8:	be00      	bkpt	0x0000

100002ca <isr_systick>:
100002ca:	be00      	bkpt	0x0000

100002cc <__unhandled_user_irq>:
100002cc:	f7ff ff63 	bl	10000196 <__get_current_exception>
100002d0:	3810      	subs	r0, #16

100002d2 <unhandled_user_irq_num_in_r0>:
100002d2:	be00      	bkpt	0x0000

100002d4 <_init>:
100002d4:	b5f8      	push	{r3, r4, r5, r6, r7, lr}
100002d6:	46c0      	nop			; (mov r8, r8)

100002d8 <__do_global_dtors_aux>:
100002d8:	b510      	push	{r4, lr}
100002da:	4c06      	ldr	r4, [pc, #24]	; (100002f4 <__do_global_dtors_aux+0x1c>)
100002dc:	7823      	ldrb	r3, [r4, #0]
100002de:	2b00      	cmp	r3, #0
100002e0:	d107      	bne.n	100002f2 <__do_global_dtors_aux+0x1a>
100002e2:	4b05      	ldr	r3, [pc, #20]	; (100002f8 <__do_global_dtors_aux+0x20>)
100002e4:	2b00      	cmp	r3, #0
100002e6:	d002      	beq.n	100002ee <__do_global_dtors_aux+0x16>
100002e8:	4804      	ldr	r0, [pc, #16]	; (100002fc <__do_global_dtors_aux+0x24>)
100002ea:	e000      	b.n	100002ee <__do_global_dtors_aux+0x16>
100002ec:	bf00      	nop
100002ee:	2301      	movs	r3, #1
100002f0:	7023      	strb	r3, [r4, #0]
100002f2:	bd10      	pop	{r4, pc}
100002f4:	20000b0c 	.word	0x20000b0c
100002f8:	00000000 	.word	0x00000000
100002fc:	10003660 	.word	0x10003660

10000300 <frame_dummy>:
10000300:	4b04      	ldr	r3, [pc, #16]	; (10000314 <frame_dummy+0x14>)
10000302:	b510      	push	{r4, lr}
10000304:	2b00      	cmp	r3, #0
10000306:	d003      	beq.n	10000310 <frame_dummy+0x10>
10000308:	4903      	ldr	r1, [pc, #12]	; (10000318 <frame_dummy+0x18>)
1000030a:	4804      	ldr	r0, [pc, #16]	; (1000031c <frame_dummy+0x1c>)
1000030c:	e000      	b.n	10000310 <frame_dummy+0x10>
1000030e:	bf00      	nop
10000310:	bd10      	pop	{r4, pc}
10000312:	46c0      	nop			; (mov r8, r8)
10000314:	00000000 	.word	0x00000000
10000318:	20000b10 	.word	0x20000b10
1000031c:	10003660 	.word	0x10003660

10000320 <pattern_snakes>:
10000320:	b5f0      	push	{r4, r5, r6, r7, lr}
10000322:	464f      	mov	r7, r9
10000324:	46d6      	mov	lr, sl
10000326:	4646      	mov	r6, r8
10000328:	b5c0      	push	{r6, r7, lr}
1000032a:	1e07      	subs	r7, r0, #0
1000032c:	d02b      	beq.n	10000386 <pattern_snakes+0x66>
1000032e:	4a39      	ldr	r2, [pc, #228]	; (10000414 <pattern_snakes+0xf4>)
10000330:	4b39      	ldr	r3, [pc, #228]	; (10000418 <pattern_snakes+0xf8>)
10000332:	7812      	ldrb	r2, [r2, #0]
10000334:	469a      	mov	sl, r3
10000336:	0849      	lsrs	r1, r1, #1
10000338:	681b      	ldr	r3, [r3, #0]
1000033a:	2a00      	cmp	r2, #0
1000033c:	d128      	bne.n	10000390 <pattern_snakes+0x70>
1000033e:	0040      	lsls	r0, r0, #1
10000340:	19c0      	adds	r0, r0, r7
10000342:	32ff      	adds	r2, #255	; 0xff
10000344:	253f      	movs	r5, #63	; 0x3f
10000346:	2400      	movs	r4, #0
10000348:	4694      	mov	ip, r2
1000034a:	1818      	adds	r0, r3, r0
1000034c:	e00d      	b.n	1000036a <pattern_snakes+0x4a>
1000034e:	0017      	movs	r7, r2
10000350:	3f0f      	subs	r7, #15
10000352:	2f09      	cmp	r7, #9
10000354:	d94f      	bls.n	100003f6 <pattern_snakes+0xd6>
10000356:	3a1e      	subs	r2, #30
10000358:	2a09      	cmp	r2, #9
1000035a:	d951      	bls.n	10000400 <pattern_snakes+0xe0>
1000035c:	701c      	strb	r4, [r3, #0]
1000035e:	705c      	strb	r4, [r3, #1]
10000360:	709c      	strb	r4, [r3, #2]
10000362:	3303      	adds	r3, #3
10000364:	3101      	adds	r1, #1
10000366:	4298      	cmp	r0, r3
10000368:	d00b      	beq.n	10000382 <pattern_snakes+0x62>
1000036a:	002a      	movs	r2, r5
1000036c:	400a      	ands	r2, r1
1000036e:	2a09      	cmp	r2, #9
10000370:	d8ed      	bhi.n	1000034e <pattern_snakes+0x2e>
10000372:	4662      	mov	r2, ip
10000374:	701c      	strb	r4, [r3, #0]
10000376:	705a      	strb	r2, [r3, #1]
10000378:	709c      	strb	r4, [r3, #2]
1000037a:	3303      	adds	r3, #3
1000037c:	3101      	adds	r1, #1
1000037e:	4298      	cmp	r0, r3
10000380:	d1f3      	bne.n	1000036a <pattern_snakes+0x4a>
10000382:	4653      	mov	r3, sl
10000384:	6018      	str	r0, [r3, #0]
10000386:	bc1c      	pop	{r2, r3, r4}
10000388:	4690      	mov	r8, r2
1000038a:	4699      	mov	r9, r3
1000038c:	46a2      	mov	sl, r4
1000038e:	bdf0      	pop	{r4, r5, r6, r7, pc}
10000390:	24ff      	movs	r4, #255	; 0xff
10000392:	1808      	adds	r0, r1, r0
10000394:	4684      	mov	ip, r0
10000396:	001a      	movs	r2, r3
10000398:	203f      	movs	r0, #63	; 0x3f
1000039a:	2500      	movs	r5, #0
1000039c:	46a1      	mov	r9, r4
1000039e:	e008      	b.n	100003b2 <pattern_snakes+0x92>
100003a0:	464c      	mov	r4, r9
100003a2:	7015      	strb	r5, [r2, #0]
100003a4:	7054      	strb	r4, [r2, #1]
100003a6:	7095      	strb	r5, [r2, #2]
100003a8:	70d5      	strb	r5, [r2, #3]
100003aa:	3101      	adds	r1, #1
100003ac:	3204      	adds	r2, #4
100003ae:	4561      	cmp	r1, ip
100003b0:	d013      	beq.n	100003da <pattern_snakes+0xba>
100003b2:	0004      	movs	r4, r0
100003b4:	400c      	ands	r4, r1
100003b6:	2c09      	cmp	r4, #9
100003b8:	d9f2      	bls.n	100003a0 <pattern_snakes+0x80>
100003ba:	260f      	movs	r6, #15
100003bc:	4276      	negs	r6, r6
100003be:	46b0      	mov	r8, r6
100003c0:	44a0      	add	r8, r4
100003c2:	4646      	mov	r6, r8
100003c4:	2e09      	cmp	r6, #9
100003c6:	d80d      	bhi.n	100003e4 <pattern_snakes+0xc4>
100003c8:	464c      	mov	r4, r9
100003ca:	3101      	adds	r1, #1
100003cc:	7015      	strb	r5, [r2, #0]
100003ce:	7055      	strb	r5, [r2, #1]
100003d0:	7094      	strb	r4, [r2, #2]
100003d2:	70d5      	strb	r5, [r2, #3]
100003d4:	3204      	adds	r2, #4
100003d6:	4561      	cmp	r1, ip
100003d8:	d1eb      	bne.n	100003b2 <pattern_snakes+0x92>
100003da:	00b8      	lsls	r0, r7, #2
100003dc:	1818      	adds	r0, r3, r0
100003de:	4653      	mov	r3, sl
100003e0:	6018      	str	r0, [r3, #0]
100003e2:	e7d0      	b.n	10000386 <pattern_snakes+0x66>
100003e4:	3c1e      	subs	r4, #30
100003e6:	2c09      	cmp	r4, #9
100003e8:	d80f      	bhi.n	1000040a <pattern_snakes+0xea>
100003ea:	464c      	mov	r4, r9
100003ec:	7055      	strb	r5, [r2, #1]
100003ee:	7014      	strb	r4, [r2, #0]
100003f0:	7095      	strb	r5, [r2, #2]
100003f2:	70d5      	strb	r5, [r2, #3]
100003f4:	e7d9      	b.n	100003aa <pattern_snakes+0x8a>
100003f6:	4662      	mov	r2, ip
100003f8:	701c      	strb	r4, [r3, #0]
100003fa:	705c      	strb	r4, [r3, #1]
100003fc:	709a      	strb	r2, [r3, #2]
100003fe:	e7b0      	b.n	10000362 <pattern_snakes+0x42>
10000400:	4662      	mov	r2, ip
10000402:	705c      	strb	r4, [r3, #1]
10000404:	701a      	strb	r2, [r3, #0]
10000406:	709c      	strb	r4, [r3, #2]
10000408:	e7ab      	b.n	10000362 <pattern_snakes+0x42>
1000040a:	7015      	strb	r5, [r2, #0]
1000040c:	7055      	strb	r5, [r2, #1]
1000040e:	7095      	strb	r5, [r2, #2]
10000410:	70d5      	strb	r5, [r2, #3]
10000412:	e7ca      	b.n	100003aa <pattern_snakes+0x8a>
10000414:	2000f5df 	.word	0x2000f5df
10000418:	2000569c 	.word	0x2000569c

1000041c <pattern_greys>:
1000041c:	b5f8      	push	{r3, r4, r5, r6, r7, lr}
1000041e:	0004      	movs	r4, r0
10000420:	0008      	movs	r0, r1
10000422:	2164      	movs	r1, #100	; 0x64
10000424:	f002 f86a 	bl	100024fc <__wrap___aeabi_uidiv>
10000428:	2c00      	cmp	r4, #0
1000042a:	d022      	beq.n	10000472 <pattern_greys+0x56>
1000042c:	4b1d      	ldr	r3, [pc, #116]	; (100004a4 <pattern_greys+0x88>)
1000042e:	4a1e      	ldr	r2, [pc, #120]	; (100004a8 <pattern_greys+0x8c>)
10000430:	781b      	ldrb	r3, [r3, #0]
10000432:	6815      	ldr	r5, [r2, #0]
10000434:	2b00      	cmp	r3, #0
10000436:	d01d      	beq.n	10000474 <pattern_greys+0x58>
10000438:	2300      	movs	r3, #0
1000043a:	002e      	movs	r6, r5
1000043c:	2700      	movs	r7, #0
1000043e:	469c      	mov	ip, r3
10000440:	020b      	lsls	r3, r1, #8
10000442:	185b      	adds	r3, r3, r1
10000444:	021b      	lsls	r3, r3, #8
10000446:	185b      	adds	r3, r3, r1
10000448:	7033      	strb	r3, [r6, #0]
1000044a:	0a18      	lsrs	r0, r3, #8
1000044c:	0c1b      	lsrs	r3, r3, #16
1000044e:	70b3      	strb	r3, [r6, #2]
10000450:	4663      	mov	r3, ip
10000452:	3101      	adds	r1, #1
10000454:	7070      	strb	r0, [r6, #1]
10000456:	70f3      	strb	r3, [r6, #3]
10000458:	3701      	adds	r7, #1
1000045a:	3604      	adds	r6, #4
1000045c:	2964      	cmp	r1, #100	; 0x64
1000045e:	d103      	bne.n	10000468 <pattern_greys+0x4c>
10000460:	42a7      	cmp	r7, r4
10000462:	d003      	beq.n	1000046c <pattern_greys+0x50>
10000464:	2100      	movs	r1, #0
10000466:	e7eb      	b.n	10000440 <pattern_greys+0x24>
10000468:	42a7      	cmp	r7, r4
1000046a:	d1e9      	bne.n	10000440 <pattern_greys+0x24>
1000046c:	00a4      	lsls	r4, r4, #2
1000046e:	192c      	adds	r4, r5, r4
10000470:	6014      	str	r4, [r2, #0]
10000472:	bdf8      	pop	{r3, r4, r5, r6, r7, pc}
10000474:	0060      	lsls	r0, r4, #1
10000476:	1904      	adds	r4, r0, r4
10000478:	192c      	adds	r4, r5, r4
1000047a:	020b      	lsls	r3, r1, #8
1000047c:	185b      	adds	r3, r3, r1
1000047e:	021b      	lsls	r3, r3, #8
10000480:	185b      	adds	r3, r3, r1
10000482:	702b      	strb	r3, [r5, #0]
10000484:	0a18      	lsrs	r0, r3, #8
10000486:	3101      	adds	r1, #1
10000488:	0c1b      	lsrs	r3, r3, #16
1000048a:	7068      	strb	r0, [r5, #1]
1000048c:	70ab      	strb	r3, [r5, #2]
1000048e:	3503      	adds	r5, #3
10000490:	2964      	cmp	r1, #100	; 0x64
10000492:	d002      	beq.n	1000049a <pattern_greys+0x7e>
10000494:	42ac      	cmp	r4, r5
10000496:	d1f0      	bne.n	1000047a <pattern_greys+0x5e>
10000498:	e7ea      	b.n	10000470 <pattern_greys+0x54>
1000049a:	42ac      	cmp	r4, r5
1000049c:	d0e8      	beq.n	10000470 <pattern_greys+0x54>
1000049e:	2100      	movs	r1, #0
100004a0:	e7eb      	b.n	1000047a <pattern_greys+0x5e>
100004a2:	46c0      	nop			; (mov r8, r8)
100004a4:	2000f5df 	.word	0x2000f5df
100004a8:	2000569c 	.word	0x2000569c

100004ac <reset_delay_complete>:
100004ac:	2200      	movs	r2, #0
100004ae:	b510      	push	{r4, lr}
100004b0:	4b03      	ldr	r3, [pc, #12]	; (100004c0 <reset_delay_complete+0x14>)
100004b2:	4804      	ldr	r0, [pc, #16]	; (100004c4 <reset_delay_complete+0x18>)
100004b4:	601a      	str	r2, [r3, #0]
100004b6:	f003 f8a3 	bl	10003600 <__sem_release_veneer>
100004ba:	2000      	movs	r0, #0
100004bc:	2100      	movs	r1, #0
100004be:	bd10      	pop	{r4, pc}
100004c0:	2000f5e4 	.word	0x2000f5e4
100004c4:	20005d08 	.word	0x20005d08

100004c8 <pattern_random>:
100004c8:	b5f0      	push	{r4, r5, r6, r7, lr}
100004ca:	46c6      	mov	lr, r8
100004cc:	0006      	movs	r6, r0
100004ce:	b500      	push	{lr}
100004d0:	074b      	lsls	r3, r1, #29
100004d2:	d11a      	bne.n	1000050a <pattern_random+0x42>
100004d4:	2800      	cmp	r0, #0
100004d6:	d018      	beq.n	1000050a <pattern_random+0x42>
100004d8:	2300      	movs	r3, #0
100004da:	2400      	movs	r4, #0
100004dc:	4698      	mov	r8, r3
100004de:	4d0c      	ldr	r5, [pc, #48]	; (10000510 <pattern_random+0x48>)
100004e0:	4f0c      	ldr	r7, [pc, #48]	; (10000514 <pattern_random+0x4c>)
100004e2:	f002 fefb 	bl	100032dc <rand>
100004e6:	682b      	ldr	r3, [r5, #0]
100004e8:	0a02      	lsrs	r2, r0, #8
100004ea:	705a      	strb	r2, [r3, #1]
100004ec:	1cda      	adds	r2, r3, #3
100004ee:	602a      	str	r2, [r5, #0]
100004f0:	783a      	ldrb	r2, [r7, #0]
100004f2:	7018      	strb	r0, [r3, #0]
100004f4:	0c00      	lsrs	r0, r0, #16
100004f6:	7098      	strb	r0, [r3, #2]
100004f8:	2a00      	cmp	r2, #0
100004fa:	d003      	beq.n	10000504 <pattern_random+0x3c>
100004fc:	1d1a      	adds	r2, r3, #4
100004fe:	602a      	str	r2, [r5, #0]
10000500:	4642      	mov	r2, r8
10000502:	70da      	strb	r2, [r3, #3]
10000504:	3401      	adds	r4, #1
10000506:	42b4      	cmp	r4, r6
10000508:	d1eb      	bne.n	100004e2 <pattern_random+0x1a>
1000050a:	bc04      	pop	{r2}
1000050c:	4690      	mov	r8, r2
1000050e:	bdf0      	pop	{r4, r5, r6, r7, pc}
10000510:	2000569c 	.word	0x2000569c
10000514:	2000f5df 	.word	0x2000f5df

10000518 <pattern_sparkle>:
10000518:	b5f8      	push	{r3, r4, r5, r6, r7, lr}
1000051a:	46ce      	mov	lr, r9
1000051c:	4647      	mov	r7, r8
1000051e:	0006      	movs	r6, r0
10000520:	b580      	push	{r7, lr}
10000522:	074b      	lsls	r3, r1, #29
10000524:	d121      	bne.n	1000056a <pattern_sparkle+0x52>
10000526:	2800      	cmp	r0, #0
10000528:	d01f      	beq.n	1000056a <pattern_sparkle+0x52>
1000052a:	4b12      	ldr	r3, [pc, #72]	; (10000574 <pattern_sparkle+0x5c>)
1000052c:	2400      	movs	r4, #0
1000052e:	4698      	mov	r8, r3
10000530:	2300      	movs	r3, #0
10000532:	270f      	movs	r7, #15
10000534:	4699      	mov	r9, r3
10000536:	4d10      	ldr	r5, [pc, #64]	; (10000578 <pattern_sparkle+0x60>)
10000538:	f002 fed0 	bl	100032dc <rand>
1000053c:	4038      	ands	r0, r7
1000053e:	4243      	negs	r3, r0
10000540:	4143      	adcs	r3, r0
10000542:	682a      	ldr	r2, [r5, #0]
10000544:	425b      	negs	r3, r3
10000546:	0a19      	lsrs	r1, r3, #8
10000548:	7013      	strb	r3, [r2, #0]
1000054a:	0c1b      	lsrs	r3, r3, #16
1000054c:	7093      	strb	r3, [r2, #2]
1000054e:	4643      	mov	r3, r8
10000550:	781b      	ldrb	r3, [r3, #0]
10000552:	7051      	strb	r1, [r2, #1]
10000554:	1cd1      	adds	r1, r2, #3
10000556:	6029      	str	r1, [r5, #0]
10000558:	2b00      	cmp	r3, #0
1000055a:	d003      	beq.n	10000564 <pattern_sparkle+0x4c>
1000055c:	1d13      	adds	r3, r2, #4
1000055e:	602b      	str	r3, [r5, #0]
10000560:	464b      	mov	r3, r9
10000562:	70d3      	strb	r3, [r2, #3]
10000564:	3401      	adds	r4, #1
10000566:	42b4      	cmp	r4, r6
10000568:	d1e6      	bne.n	10000538 <pattern_sparkle+0x20>
1000056a:	bc0c      	pop	{r2, r3}
1000056c:	4690      	mov	r8, r2
1000056e:	4699      	mov	r9, r3
10000570:	bdf8      	pop	{r3, r4, r5, r6, r7, pc}
10000572:	46c0      	nop			; (mov r8, r8)
10000574:	2000f5df 	.word	0x2000f5df
10000578:	2000569c 	.word	0x2000569c

1000057c <dma_complete_handler>:
1000057c:	22a0      	movs	r2, #160	; 0xa0
1000057e:	2101      	movs	r1, #1
10000580:	b5f0      	push	{r4, r5, r6, r7, lr}
10000582:	4b1b      	ldr	r3, [pc, #108]	; (100005f0 <dma_complete_handler+0x74>)
10000584:	05d2      	lsls	r2, r2, #23
10000586:	58d0      	ldr	r0, [r2, r3]
10000588:	b085      	sub	sp, #20
1000058a:	4201      	tst	r1, r0
1000058c:	d022      	beq.n	100005d4 <dma_complete_handler+0x58>
1000058e:	50d1      	str	r1, [r2, r3]
10000590:	23d0      	movs	r3, #208	; 0xd0
10000592:	2280      	movs	r2, #128	; 0x80
10000594:	4f17      	ldr	r7, [pc, #92]	; (100005f4 <dma_complete_handler+0x78>)
10000596:	061b      	lsls	r3, r3, #24
10000598:	0392      	lsls	r2, r2, #14
1000059a:	615a      	str	r2, [r3, #20]
1000059c:	683c      	ldr	r4, [r7, #0]
1000059e:	2c00      	cmp	r4, #0
100005a0:	d120      	bne.n	100005e4 <dma_complete_handler+0x68>
100005a2:	f000 fecb 	bl	1000133c <alarm_pool_get_default>
100005a6:	0006      	movs	r6, r0
100005a8:	f001 f84a 	bl	10001640 <time_us_64>
100005ac:	22c8      	movs	r2, #200	; 0xc8
100005ae:	0004      	movs	r4, r0
100005b0:	000d      	movs	r5, r1
100005b2:	2300      	movs	r3, #0
100005b4:	0052      	lsls	r2, r2, #1
100005b6:	1912      	adds	r2, r2, r4
100005b8:	416b      	adcs	r3, r5
100005ba:	4299      	cmp	r1, r3
100005bc:	d80e      	bhi.n	100005dc <dma_complete_handler+0x60>
100005be:	d00b      	beq.n	100005d8 <dma_complete_handler+0x5c>
100005c0:	2101      	movs	r1, #1
100005c2:	9102      	str	r1, [sp, #8]
100005c4:	2100      	movs	r1, #0
100005c6:	9101      	str	r1, [sp, #4]
100005c8:	490b      	ldr	r1, [pc, #44]	; (100005f8 <dma_complete_handler+0x7c>)
100005ca:	0030      	movs	r0, r6
100005cc:	9100      	str	r1, [sp, #0]
100005ce:	f000 febb 	bl	10001348 <alarm_pool_add_alarm_at>
100005d2:	6038      	str	r0, [r7, #0]
100005d4:	b005      	add	sp, #20
100005d6:	bdf0      	pop	{r4, r5, r6, r7, pc}
100005d8:	4290      	cmp	r0, r2
100005da:	d9f1      	bls.n	100005c0 <dma_complete_handler+0x44>
100005dc:	2201      	movs	r2, #1
100005de:	4252      	negs	r2, r2
100005e0:	17d3      	asrs	r3, r2, #31
100005e2:	e7ed      	b.n	100005c0 <dma_complete_handler+0x44>
100005e4:	f000 feaa 	bl	1000133c <alarm_pool_get_default>
100005e8:	0021      	movs	r1, r4
100005ea:	f000 ff89 	bl	10001500 <alarm_pool_cancel_alarm>
100005ee:	e7d8      	b.n	100005a2 <dma_complete_handler+0x26>
100005f0:	0000040c 	.word	0x0000040c
100005f4:	2000f5e4 	.word	0x2000f5e4
100005f8:	100004ad 	.word	0x100004ad

100005fc <dma_init>:
100005fc:	b570      	push	{r4, r5, r6, lr}
100005fe:	0005      	movs	r5, r0
10000600:	2003      	movs	r0, #3
10000602:	000c      	movs	r4, r1
10000604:	f002 fb36 	bl	10002c74 <dma_claim_mask>
10000608:	4b13      	ldr	r3, [pc, #76]	; (10000658 <dma_init+0x5c>)
1000060a:	429d      	cmp	r5, r3
1000060c:	d022      	beq.n	10000654 <dma_init+0x58>
1000060e:	0023      	movs	r3, r4
10000610:	3308      	adds	r3, #8
10000612:	4a12      	ldr	r2, [pc, #72]	; (1000065c <dma_init+0x60>)
10000614:	03db      	lsls	r3, r3, #15
10000616:	431a      	orrs	r2, r3
10000618:	23a0      	movs	r3, #160	; 0xa0
1000061a:	2100      	movs	r1, #0
1000061c:	2008      	movs	r0, #8
1000061e:	3404      	adds	r4, #4
10000620:	00a4      	lsls	r4, r4, #2
10000622:	05db      	lsls	r3, r3, #23
10000624:	192c      	adds	r4, r5, r4
10000626:	6019      	str	r1, [r3, #0]
10000628:	605c      	str	r4, [r3, #4]
1000062a:	2401      	movs	r4, #1
1000062c:	6098      	str	r0, [r3, #8]
1000062e:	611a      	str	r2, [r3, #16]
10000630:	4b0b      	ldr	r3, [pc, #44]	; (10000660 <dma_init+0x64>)
10000632:	4a0c      	ldr	r2, [pc, #48]	; (10000664 <dma_init+0x68>)
10000634:	6019      	str	r1, [r3, #0]
10000636:	605a      	str	r2, [r3, #4]
10000638:	4a0b      	ldr	r2, [pc, #44]	; (10000668 <dma_init+0x6c>)
1000063a:	609c      	str	r4, [r3, #8]
1000063c:	490b      	ldr	r1, [pc, #44]	; (1000066c <dma_init+0x70>)
1000063e:	611a      	str	r2, [r3, #16]
10000640:	3003      	adds	r0, #3
10000642:	f001 fd7f 	bl	10002144 <irq_set_exclusive_handler>
10000646:	4b0a      	ldr	r3, [pc, #40]	; (10000670 <dma_init+0x74>)
10000648:	2101      	movs	r1, #1
1000064a:	200b      	movs	r0, #11
1000064c:	601c      	str	r4, [r3, #0]
1000064e:	f001 fd5f 	bl	10002110 <irq_set_enabled>
10000652:	bd70      	pop	{r4, r5, r6, pc}
10000654:	0023      	movs	r3, r4
10000656:	e7dc      	b.n	10000612 <dma_init+0x16>
10000658:	50200000 	.word	0x50200000
1000065c:	00200819 	.word	0x00200819
10000660:	50000040 	.word	0x50000040
10000664:	5000003c 	.word	0x5000003c
10000668:	001f8819 	.word	0x001f8819
1000066c:	1000057d 	.word	0x1000057d
10000670:	50002404 	.word	0x50002404

10000674 <main>:
10000674:	b5f0      	push	{r4, r5, r6, r7, lr}
10000676:	46de      	mov	lr, fp
10000678:	4645      	mov	r5, r8
1000067a:	4657      	mov	r7, sl
1000067c:	464e      	mov	r6, r9
1000067e:	b5e0      	push	{r5, r6, r7, lr}
10000680:	4c66      	ldr	r4, [pc, #408]	; (1000081c <main+0x1a8>)
10000682:	b09d      	sub	sp, #116	; 0x74
10000684:	f002 f99a 	bl	100029bc <stdio_init_all>
10000688:	4865      	ldr	r0, [pc, #404]	; (10000820 <main+0x1ac>)
1000068a:	f002 f95b 	bl	10002944 <__wrap_puts>
1000068e:	f000 fb63 	bl	10000d58 <gpio_debug_pins_init>
10000692:	0020      	movs	r0, r4
10000694:	4963      	ldr	r1, [pc, #396]	; (10000824 <main+0x1b0>)
10000696:	f002 f9ef 	bl	10002a78 <pio_add_program>
1000069a:	2601      	movs	r6, #1
1000069c:	0007      	movs	r7, r0
1000069e:	2106      	movs	r1, #6
100006a0:	2000      	movs	r0, #0
100006a2:	f000 fb41 	bl	10000d28 <gpio_set_function>
100006a6:	2106      	movs	r1, #6
100006a8:	2001      	movs	r0, #1
100006aa:	f000 fb3d 	bl	10000d28 <gpio_set_function>
100006ae:	0020      	movs	r0, r4
100006b0:	2302      	movs	r3, #2
100006b2:	2200      	movs	r2, #0
100006b4:	2100      	movs	r1, #0
100006b6:	9600      	str	r6, [sp, #0]
100006b8:	f002 fa50 	bl	10002b5c <pio_sm_set_consecutive_pindirs>
100006bc:	2300      	movs	r3, #0
100006be:	2280      	movs	r2, #128	; 0x80
100006c0:	9317      	str	r3, [sp, #92]	; 0x5c
100006c2:	23f8      	movs	r3, #248	; 0xf8
100006c4:	25c0      	movs	r5, #192	; 0xc0
100006c6:	025b      	lsls	r3, r3, #9
100006c8:	0252      	lsls	r2, r2, #9
100006ca:	9214      	str	r2, [sp, #80]	; 0x50
100006cc:	9315      	str	r3, [sp, #84]	; 0x54
100006ce:	032d      	lsls	r5, r5, #12
100006d0:	2210      	movs	r2, #16
100006d2:	a914      	add	r1, sp, #80	; 0x50
100006d4:	a818      	add	r0, sp, #96	; 0x60
100006d6:	9516      	str	r5, [sp, #88]	; 0x58
100006d8:	f002 f85e 	bl	10002798 <__wrap___aeabi_memcpy>
100006dc:	2380      	movs	r3, #128	; 0x80
100006de:	025b      	lsls	r3, r3, #9
100006e0:	9318      	str	r3, [sp, #96]	; 0x60
100006e2:	1cfb      	adds	r3, r7, #3
100006e4:	01fa      	lsls	r2, r7, #7
100006e6:	031b      	lsls	r3, r3, #12
100006e8:	4313      	orrs	r3, r2
100006ea:	a918      	add	r1, sp, #96	; 0x60
100006ec:	2210      	movs	r2, #16
100006ee:	a814      	add	r0, sp, #80	; 0x50
100006f0:	9319      	str	r3, [sp, #100]	; 0x64
100006f2:	951a      	str	r5, [sp, #104]	; 0x68
100006f4:	f002 f850 	bl	10002798 <__wrap___aeabi_memcpy>
100006f8:	2382      	movs	r3, #130	; 0x82
100006fa:	4a4b      	ldr	r2, [pc, #300]	; (10000828 <main+0x1b4>)
100006fc:	051b      	lsls	r3, r3, #20
100006fe:	2005      	movs	r0, #5
10000700:	9216      	str	r2, [sp, #88]	; 0x58
10000702:	9317      	str	r3, [sp, #92]	; 0x5c
10000704:	f001 fcb8 	bl	10002078 <clock_get_hz>
10000708:	f001 ffba 	bl	10002680 <__wrap___aeabi_ui2f>
1000070c:	4947      	ldr	r1, [pc, #284]	; (1000082c <main+0x1b8>)
1000070e:	f001 ffae 	bl	1000266e <__wrap___aeabi_fdiv>
10000712:	4680      	mov	r8, r0
10000714:	f001 ffdc 	bl	100026d0 <__wrap___aeabi_f2uiz>
10000718:	b285      	uxth	r5, r0
1000071a:	0028      	movs	r0, r5
1000071c:	f001 ffb6 	bl	1000268c <__wrap___aeabi_i2f>
10000720:	1c01      	adds	r1, r0, #0
10000722:	4640      	mov	r0, r8
10000724:	f001 ff9d 	bl	10002662 <__wrap___aeabi_fsub>
10000728:	2187      	movs	r1, #135	; 0x87
1000072a:	05c9      	lsls	r1, r1, #23
1000072c:	f001 ffa2 	bl	10002674 <__wrap___aeabi_fmul>
10000730:	f001 ffce 	bl	100026d0 <__wrap___aeabi_f2uiz>
10000734:	b2c3      	uxtb	r3, r0
10000736:	021b      	lsls	r3, r3, #8
10000738:	042d      	lsls	r5, r5, #16
1000073a:	432b      	orrs	r3, r5
1000073c:	0020      	movs	r0, r4
1000073e:	003a      	movs	r2, r7
10000740:	2100      	movs	r1, #0
10000742:	9314      	str	r3, [sp, #80]	; 0x50
10000744:	ab14      	add	r3, sp, #80	; 0x50
10000746:	f002 fa4d 	bl	10002be4 <pio_sm_init>
1000074a:	6823      	ldr	r3, [r4, #0]
1000074c:	2201      	movs	r2, #1
1000074e:	43b3      	bics	r3, r6
10000750:	4333      	orrs	r3, r6
10000752:	6023      	str	r3, [r4, #0]
10000754:	2101      	movs	r1, #1
10000756:	4836      	ldr	r0, [pc, #216]	; (10000830 <main+0x1bc>)
10000758:	f001 f844 	bl	100017e4 <sem_init>
1000075c:	0020      	movs	r0, r4
1000075e:	2100      	movs	r1, #0
10000760:	f7ff ff4c 	bl	100005fc <dma_init>
10000764:	2300      	movs	r3, #0
10000766:	9313      	str	r3, [sp, #76]	; 0x4c
10000768:	3301      	adds	r3, #1
1000076a:	469b      	mov	fp, r3
1000076c:	2403      	movs	r4, #3
1000076e:	f002 fdb5 	bl	100032dc <rand>
10000772:	4004      	ands	r4, r0
10000774:	f002 fdb2 	bl	100032dc <rand>
10000778:	0043      	lsls	r3, r0, #1
1000077a:	d400      	bmi.n	1000077e <main+0x10a>
1000077c:	e236      	b.n	10000bec <main+0x578>
1000077e:	f002 fdad 	bl	100032dc <rand>
10000782:	465b      	mov	r3, fp
10000784:	4203      	tst	r3, r0
10000786:	d000      	beq.n	1000078a <main+0x116>
10000788:	e236      	b.n	10000bf8 <main+0x584>
1000078a:	4b2a      	ldr	r3, [pc, #168]	; (10000834 <main+0x1c0>)
1000078c:	00e4      	lsls	r4, r4, #3
1000078e:	191b      	adds	r3, r3, r4
10000790:	6858      	ldr	r0, [r3, #4]
10000792:	f002 f8d7 	bl	10002944 <__wrap_puts>
10000796:	2301      	movs	r3, #1
10000798:	4827      	ldr	r0, [pc, #156]	; (10000838 <main+0x1c4>)
1000079a:	9311      	str	r3, [sp, #68]	; 0x44
1000079c:	f002 f8d2 	bl	10002944 <__wrap_puts>
100007a0:	4b24      	ldr	r3, [pc, #144]	; (10000834 <main+0x1c0>)
100007a2:	591b      	ldr	r3, [r3, r4]
100007a4:	9312      	str	r3, [sp, #72]	; 0x48
100007a6:	9b13      	ldr	r3, [sp, #76]	; 0x4c
100007a8:	930c      	str	r3, [sp, #48]	; 0x30
100007aa:	23fa      	movs	r3, #250	; 0xfa
100007ac:	009b      	lsls	r3, r3, #2
100007ae:	930e      	str	r3, [sp, #56]	; 0x38
100007b0:	2300      	movs	r3, #0
100007b2:	930d      	str	r3, [sp, #52]	; 0x34
100007b4:	930b      	str	r3, [sp, #44]	; 0x2c
100007b6:	930f      	str	r3, [sp, #60]	; 0x3c
100007b8:	23d0      	movs	r3, #208	; 0xd0
100007ba:	061b      	lsls	r3, r3, #24
100007bc:	469a      	mov	sl, r3
100007be:	2480      	movs	r4, #128	; 0x80
100007c0:	4653      	mov	r3, sl
100007c2:	0324      	lsls	r4, r4, #12
100007c4:	615c      	str	r4, [r3, #20]
100007c6:	4b1d      	ldr	r3, [pc, #116]	; (1000083c <main+0x1c8>)
100007c8:	9e0c      	ldr	r6, [sp, #48]	; 0x30
100007ca:	681b      	ldr	r3, [r3, #0]
100007cc:	0031      	movs	r1, r6
100007ce:	9303      	str	r3, [sp, #12]
100007d0:	9a03      	ldr	r2, [sp, #12]
100007d2:	4b1b      	ldr	r3, [pc, #108]	; (10000840 <main+0x1cc>)
100007d4:	9d12      	ldr	r5, [sp, #72]	; 0x48
100007d6:	601a      	str	r2, [r3, #0]
100007d8:	2200      	movs	r2, #0
100007da:	4b1a      	ldr	r3, [pc, #104]	; (10000844 <main+0x1d0>)
100007dc:	2040      	movs	r0, #64	; 0x40
100007de:	701a      	strb	r2, [r3, #0]
100007e0:	47a8      	blx	r5
100007e2:	4b19      	ldr	r3, [pc, #100]	; (10000848 <main+0x1d4>)
100007e4:	0031      	movs	r1, r6
100007e6:	681b      	ldr	r3, [r3, #0]
100007e8:	2040      	movs	r0, #64	; 0x40
100007ea:	9303      	str	r3, [sp, #12]
100007ec:	9a03      	ldr	r2, [sp, #12]
100007ee:	4b14      	ldr	r3, [pc, #80]	; (10000840 <main+0x1cc>)
100007f0:	2700      	movs	r7, #0
100007f2:	601a      	str	r2, [r3, #0]
100007f4:	465a      	mov	r2, fp
100007f6:	4b13      	ldr	r3, [pc, #76]	; (10000844 <main+0x1d0>)
100007f8:	701a      	strb	r2, [r3, #0]
100007fa:	47a8      	blx	r5
100007fc:	4653      	mov	r3, sl
100007fe:	619c      	str	r4, [r3, #24]
10000800:	2380      	movs	r3, #128	; 0x80
10000802:	4652      	mov	r2, sl
10000804:	035b      	lsls	r3, r3, #13
10000806:	6153      	str	r3, [r2, #20]
10000808:	4b10      	ldr	r3, [pc, #64]	; (1000084c <main+0x1d8>)
1000080a:	4d11      	ldr	r5, [pc, #68]	; (10000850 <main+0x1dc>)
1000080c:	681b      	ldr	r3, [r3, #0]
1000080e:	002e      	movs	r6, r5
10000810:	4699      	mov	r9, r3
10000812:	4b0e      	ldr	r3, [pc, #56]	; (1000084c <main+0x1d8>)
10000814:	9510      	str	r5, [sp, #64]	; 0x40
10000816:	685c      	ldr	r4, [r3, #4]
10000818:	464d      	mov	r5, r9
1000081a:	e033      	b.n	10000884 <main+0x210>
1000081c:	50200000 	.word	0x50200000
10000820:	10003680 	.word	0x10003680
10000824:	100036d8 	.word	0x100036d8
10000828:	400e0000 	.word	0x400e0000
1000082c:	4af42400 	.word	0x4af42400
10000830:	20005d08 	.word	0x20005d08
10000834:	100036b8 	.word	0x100036b8
10000838:	10003668 	.word	0x10003668
1000083c:	20000208 	.word	0x20000208
10000840:	2000569c 	.word	0x2000569c
10000844:	2000f5df 	.word	0x2000f5df
10000848:	20000214 	.word	0x20000214
1000084c:	20000220 	.word	0x20000220
10000850:	20000b74 	.word	0x20000b74
10000854:	2302      	movs	r3, #2
10000856:	4699      	mov	r9, r3
10000858:	9303      	str	r3, [sp, #12]
1000085a:	4698      	mov	r8, r3
1000085c:	469c      	mov	ip, r3
1000085e:	9304      	str	r3, [sp, #16]
10000860:	9305      	str	r3, [sp, #20]
10000862:	9306      	str	r3, [sp, #24]
10000864:	2202      	movs	r2, #2
10000866:	9307      	str	r3, [sp, #28]
10000868:	9308      	str	r3, [sp, #32]
1000086a:	9309      	str	r3, [sp, #36]	; 0x24
1000086c:	930a      	str	r3, [sp, #40]	; 0x28
1000086e:	6863      	ldr	r3, [r4, #4]
10000870:	429f      	cmp	r7, r3
10000872:	d200      	bcs.n	10000876 <main+0x202>
10000874:	e085      	b.n	10000982 <main+0x30e>
10000876:	2380      	movs	r3, #128	; 0x80
10000878:	3701      	adds	r7, #1
1000087a:	3630      	adds	r6, #48	; 0x30
1000087c:	005b      	lsls	r3, r3, #1
1000087e:	429f      	cmp	r7, r3
10000880:	d100      	bne.n	10000884 <main+0x210>
10000882:	e0ee      	b.n	10000a62 <main+0x3ee>
10000884:	2230      	movs	r2, #48	; 0x30
10000886:	2100      	movs	r1, #0
10000888:	0030      	movs	r0, r6
1000088a:	f001 ff7f 	bl	1000278c <__wrap_memset>
1000088e:	686b      	ldr	r3, [r5, #4]
10000890:	42bb      	cmp	r3, r7
10000892:	d9df      	bls.n	10000854 <main+0x1e0>
10000894:	682b      	ldr	r3, [r5, #0]
10000896:	68aa      	ldr	r2, [r5, #8]
10000898:	5ddb      	ldrb	r3, [r3, r7]
1000089a:	4353      	muls	r3, r2
1000089c:	9a0b      	ldr	r2, [sp, #44]	; 0x2c
1000089e:	0a1b      	lsrs	r3, r3, #8
100008a0:	4353      	muls	r3, r2
100008a2:	0a1a      	lsrs	r2, r3, #8
100008a4:	d0d6      	beq.n	10000854 <main+0x1e0>
100008a6:	4659      	mov	r1, fp
100008a8:	4211      	tst	r1, r2
100008aa:	d000      	beq.n	100008ae <main+0x23a>
100008ac:	e1ae      	b.n	10000c0c <main+0x598>
100008ae:	2202      	movs	r2, #2
100008b0:	4691      	mov	r9, r2
100008b2:	0a5a      	lsrs	r2, r3, #9
100008b4:	d100      	bne.n	100008b8 <main+0x244>
100008b6:	e1af      	b.n	10000c18 <main+0x5a4>
100008b8:	4659      	mov	r1, fp
100008ba:	4211      	tst	r1, r2
100008bc:	d000      	beq.n	100008c0 <main+0x24c>
100008be:	e1ae      	b.n	10000c1e <main+0x5aa>
100008c0:	2202      	movs	r2, #2
100008c2:	9203      	str	r2, [sp, #12]
100008c4:	0a9a      	lsrs	r2, r3, #10
100008c6:	d100      	bne.n	100008ca <main+0x256>
100008c8:	e1af      	b.n	10000c2a <main+0x5b6>
100008ca:	4659      	mov	r1, fp
100008cc:	4211      	tst	r1, r2
100008ce:	d000      	beq.n	100008d2 <main+0x25e>
100008d0:	e1ad      	b.n	10000c2e <main+0x5ba>
100008d2:	2202      	movs	r2, #2
100008d4:	9204      	str	r2, [sp, #16]
100008d6:	0ada      	lsrs	r2, r3, #11
100008d8:	d100      	bne.n	100008dc <main+0x268>
100008da:	e1ae      	b.n	10000c3a <main+0x5c6>
100008dc:	4659      	mov	r1, fp
100008de:	4211      	tst	r1, r2
100008e0:	d000      	beq.n	100008e4 <main+0x270>
100008e2:	e1b0      	b.n	10000c46 <main+0x5d2>
100008e4:	2202      	movs	r2, #2
100008e6:	4690      	mov	r8, r2
100008e8:	0b1a      	lsrs	r2, r3, #12
100008ea:	d100      	bne.n	100008ee <main+0x27a>
100008ec:	e1b1      	b.n	10000c52 <main+0x5de>
100008ee:	4659      	mov	r1, fp
100008f0:	4211      	tst	r1, r2
100008f2:	d000      	beq.n	100008f6 <main+0x282>
100008f4:	e1b2      	b.n	10000c5c <main+0x5e8>
100008f6:	2202      	movs	r2, #2
100008f8:	4694      	mov	ip, r2
100008fa:	0b5a      	lsrs	r2, r3, #13
100008fc:	d100      	bne.n	10000900 <main+0x28c>
100008fe:	e1b3      	b.n	10000c68 <main+0x5f4>
10000900:	4659      	mov	r1, fp
10000902:	4211      	tst	r1, r2
10000904:	d000      	beq.n	10000908 <main+0x294>
10000906:	e1b3      	b.n	10000c70 <main+0x5fc>
10000908:	2202      	movs	r2, #2
1000090a:	9205      	str	r2, [sp, #20]
1000090c:	0b9a      	lsrs	r2, r3, #14
1000090e:	d100      	bne.n	10000912 <main+0x29e>
10000910:	e1b4      	b.n	10000c7c <main+0x608>
10000912:	4659      	mov	r1, fp
10000914:	4211      	tst	r1, r2
10000916:	d000      	beq.n	1000091a <main+0x2a6>
10000918:	e1b3      	b.n	10000c82 <main+0x60e>
1000091a:	2202      	movs	r2, #2
1000091c:	9206      	str	r2, [sp, #24]
1000091e:	0bda      	lsrs	r2, r3, #15
10000920:	d100      	bne.n	10000924 <main+0x2b0>
10000922:	e1b4      	b.n	10000c8e <main+0x61a>
10000924:	4659      	mov	r1, fp
10000926:	4211      	tst	r1, r2
10000928:	d000      	beq.n	1000092c <main+0x2b8>
1000092a:	e1b2      	b.n	10000c92 <main+0x61e>
1000092c:	2202      	movs	r2, #2
1000092e:	9207      	str	r2, [sp, #28]
10000930:	0c1a      	lsrs	r2, r3, #16
10000932:	d100      	bne.n	10000936 <main+0x2c2>
10000934:	e1b3      	b.n	10000c9e <main+0x62a>
10000936:	4659      	mov	r1, fp
10000938:	4211      	tst	r1, r2
1000093a:	d000      	beq.n	1000093e <main+0x2ca>
1000093c:	e1b5      	b.n	10000caa <main+0x636>
1000093e:	2202      	movs	r2, #2
10000940:	9208      	str	r2, [sp, #32]
10000942:	0c5a      	lsrs	r2, r3, #17
10000944:	d100      	bne.n	10000948 <main+0x2d4>
10000946:	e1b6      	b.n	10000cb6 <main+0x642>
10000948:	4659      	mov	r1, fp
1000094a:	4211      	tst	r1, r2
1000094c:	d000      	beq.n	10000950 <main+0x2dc>
1000094e:	e1b7      	b.n	10000cc0 <main+0x64c>
10000950:	2202      	movs	r2, #2
10000952:	9209      	str	r2, [sp, #36]	; 0x24
10000954:	0c9a      	lsrs	r2, r3, #18
10000956:	d100      	bne.n	1000095a <main+0x2e6>
10000958:	e1b8      	b.n	10000ccc <main+0x658>
1000095a:	4659      	mov	r1, fp
1000095c:	4211      	tst	r1, r2
1000095e:	d000      	beq.n	10000962 <main+0x2ee>
10000960:	e1b8      	b.n	10000cd4 <main+0x660>
10000962:	2202      	movs	r2, #2
10000964:	920a      	str	r2, [sp, #40]	; 0x28
10000966:	2202      	movs	r2, #2
10000968:	0cdb      	lsrs	r3, r3, #19
1000096a:	d100      	bne.n	1000096e <main+0x2fa>
1000096c:	e77f      	b.n	1000086e <main+0x1fa>
1000096e:	4659      	mov	r1, fp
10000970:	4219      	tst	r1, r3
10000972:	d100      	bne.n	10000976 <main+0x302>
10000974:	e77b      	b.n	1000086e <main+0x1fa>
10000976:	6863      	ldr	r3, [r4, #4]
10000978:	6031      	str	r1, [r6, #0]
1000097a:	3201      	adds	r2, #1
1000097c:	429f      	cmp	r7, r3
1000097e:	d300      	bcc.n	10000982 <main+0x30e>
10000980:	e779      	b.n	10000876 <main+0x202>
10000982:	6823      	ldr	r3, [r4, #0]
10000984:	68a1      	ldr	r1, [r4, #8]
10000986:	5ddb      	ldrb	r3, [r3, r7]
10000988:	434b      	muls	r3, r1
1000098a:	990b      	ldr	r1, [sp, #44]	; 0x2c
1000098c:	0a1b      	lsrs	r3, r3, #8
1000098e:	434b      	muls	r3, r1
10000990:	0a19      	lsrs	r1, r3, #8
10000992:	d100      	bne.n	10000996 <main+0x322>
10000994:	e76f      	b.n	10000876 <main+0x202>
10000996:	4658      	mov	r0, fp
10000998:	4208      	tst	r0, r1
1000099a:	d001      	beq.n	100009a0 <main+0x32c>
1000099c:	4649      	mov	r1, r9
1000099e:	62f1      	str	r1, [r6, #44]	; 0x2c
100009a0:	0a59      	lsrs	r1, r3, #9
100009a2:	4689      	mov	r9, r1
100009a4:	d100      	bne.n	100009a8 <main+0x334>
100009a6:	e766      	b.n	10000876 <main+0x202>
100009a8:	4659      	mov	r1, fp
100009aa:	4648      	mov	r0, r9
100009ac:	4201      	tst	r1, r0
100009ae:	d001      	beq.n	100009b4 <main+0x340>
100009b0:	9903      	ldr	r1, [sp, #12]
100009b2:	62b1      	str	r1, [r6, #40]	; 0x28
100009b4:	0a98      	lsrs	r0, r3, #10
100009b6:	d100      	bne.n	100009ba <main+0x346>
100009b8:	e75d      	b.n	10000876 <main+0x202>
100009ba:	4659      	mov	r1, fp
100009bc:	4201      	tst	r1, r0
100009be:	d001      	beq.n	100009c4 <main+0x350>
100009c0:	9904      	ldr	r1, [sp, #16]
100009c2:	6271      	str	r1, [r6, #36]	; 0x24
100009c4:	0ad9      	lsrs	r1, r3, #11
100009c6:	d100      	bne.n	100009ca <main+0x356>
100009c8:	e755      	b.n	10000876 <main+0x202>
100009ca:	4658      	mov	r0, fp
100009cc:	4208      	tst	r0, r1
100009ce:	d001      	beq.n	100009d4 <main+0x360>
100009d0:	4641      	mov	r1, r8
100009d2:	6231      	str	r1, [r6, #32]
100009d4:	0b19      	lsrs	r1, r3, #12
100009d6:	d100      	bne.n	100009da <main+0x366>
100009d8:	e74d      	b.n	10000876 <main+0x202>
100009da:	4658      	mov	r0, fp
100009dc:	4208      	tst	r0, r1
100009de:	d001      	beq.n	100009e4 <main+0x370>
100009e0:	4661      	mov	r1, ip
100009e2:	61f1      	str	r1, [r6, #28]
100009e4:	0b59      	lsrs	r1, r3, #13
100009e6:	d100      	bne.n	100009ea <main+0x376>
100009e8:	e745      	b.n	10000876 <main+0x202>
100009ea:	4658      	mov	r0, fp
100009ec:	4208      	tst	r0, r1
100009ee:	d001      	beq.n	100009f4 <main+0x380>
100009f0:	9905      	ldr	r1, [sp, #20]
100009f2:	61b1      	str	r1, [r6, #24]
100009f4:	0b99      	lsrs	r1, r3, #14
100009f6:	d100      	bne.n	100009fa <main+0x386>
100009f8:	e73d      	b.n	10000876 <main+0x202>
100009fa:	4658      	mov	r0, fp
100009fc:	4208      	tst	r0, r1
100009fe:	d001      	beq.n	10000a04 <main+0x390>
10000a00:	9906      	ldr	r1, [sp, #24]
10000a02:	6171      	str	r1, [r6, #20]
10000a04:	0bd9      	lsrs	r1, r3, #15
10000a06:	d100      	bne.n	10000a0a <main+0x396>
10000a08:	e735      	b.n	10000876 <main+0x202>
10000a0a:	4658      	mov	r0, fp
10000a0c:	4208      	tst	r0, r1
10000a0e:	d001      	beq.n	10000a14 <main+0x3a0>
10000a10:	9907      	ldr	r1, [sp, #28]
10000a12:	6131      	str	r1, [r6, #16]
10000a14:	0c19      	lsrs	r1, r3, #16
10000a16:	d100      	bne.n	10000a1a <main+0x3a6>
10000a18:	e72d      	b.n	10000876 <main+0x202>
10000a1a:	4658      	mov	r0, fp
10000a1c:	4208      	tst	r0, r1
10000a1e:	d001      	beq.n	10000a24 <main+0x3b0>
10000a20:	9908      	ldr	r1, [sp, #32]
10000a22:	60f1      	str	r1, [r6, #12]
10000a24:	0c59      	lsrs	r1, r3, #17
10000a26:	d100      	bne.n	10000a2a <main+0x3b6>
10000a28:	e725      	b.n	10000876 <main+0x202>
10000a2a:	4658      	mov	r0, fp
10000a2c:	4208      	tst	r0, r1
10000a2e:	d001      	beq.n	10000a34 <main+0x3c0>
10000a30:	9909      	ldr	r1, [sp, #36]	; 0x24
10000a32:	60b1      	str	r1, [r6, #8]
10000a34:	0c99      	lsrs	r1, r3, #18
10000a36:	d100      	bne.n	10000a3a <main+0x3c6>
10000a38:	e71d      	b.n	10000876 <main+0x202>
10000a3a:	4658      	mov	r0, fp
10000a3c:	4208      	tst	r0, r1
10000a3e:	d001      	beq.n	10000a44 <main+0x3d0>
10000a40:	990a      	ldr	r1, [sp, #40]	; 0x28
10000a42:	6071      	str	r1, [r6, #4]
10000a44:	0cdb      	lsrs	r3, r3, #19
10000a46:	d100      	bne.n	10000a4a <main+0x3d6>
10000a48:	e715      	b.n	10000876 <main+0x202>
10000a4a:	4659      	mov	r1, fp
10000a4c:	4219      	tst	r1, r3
10000a4e:	d100      	bne.n	10000a52 <main+0x3de>
10000a50:	e711      	b.n	10000876 <main+0x202>
10000a52:	2380      	movs	r3, #128	; 0x80
10000a54:	3701      	adds	r7, #1
10000a56:	6032      	str	r2, [r6, #0]
10000a58:	005b      	lsls	r3, r3, #1
10000a5a:	3630      	adds	r6, #48	; 0x30
10000a5c:	429f      	cmp	r7, r3
10000a5e:	d000      	beq.n	10000a62 <main+0x3ee>
10000a60:	e710      	b.n	10000884 <main+0x210>
10000a62:	2380      	movs	r3, #128	; 0x80
10000a64:	4652      	mov	r2, sl
10000a66:	035b      	lsls	r3, r3, #13
10000a68:	9d10      	ldr	r5, [sp, #64]	; 0x40
10000a6a:	6193      	str	r3, [r2, #24]
10000a6c:	2280      	movs	r2, #128	; 0x80
10000a6e:	4653      	mov	r3, sl
10000a70:	0312      	lsls	r2, r2, #12
10000a72:	615a      	str	r2, [r3, #20]
10000a74:	9a0d      	ldr	r2, [sp, #52]	; 0x34
10000a76:	9b0f      	ldr	r3, [sp, #60]	; 0x3c
10000a78:	4694      	mov	ip, r2
10000a7a:	4463      	add	r3, ip
10000a7c:	011c      	lsls	r4, r3, #4
10000a7e:	1ae4      	subs	r4, r4, r3
10000a80:	465b      	mov	r3, fp
10000a82:	405a      	eors	r2, r3
10000a84:	4694      	mov	ip, r2
10000a86:	0093      	lsls	r3, r2, #2
10000a88:	920d      	str	r2, [sp, #52]	; 0x34
10000a8a:	22c0      	movs	r2, #192	; 0xc0
10000a8c:	930f      	str	r3, [sp, #60]	; 0x3c
10000a8e:	4463      	add	r3, ip
10000a90:	0118      	lsls	r0, r3, #4
10000a92:	1ac0      	subs	r0, r0, r3
10000a94:	4b9b      	ldr	r3, [pc, #620]	; (10000d04 <main+0x690>)
10000a96:	0192      	lsls	r2, r2, #6
10000a98:	469c      	mov	ip, r3
10000a9a:	4690      	mov	r8, r2
10000a9c:	4b9a      	ldr	r3, [pc, #616]	; (10000d08 <main+0x694>)
10000a9e:	0224      	lsls	r4, r4, #8
10000aa0:	0200      	lsls	r0, r0, #8
10000aa2:	4464      	add	r4, ip
10000aa4:	3020      	adds	r0, #32
10000aa6:	4443      	add	r3, r8
10000aa8:	4460      	add	r0, ip
10000aaa:	0022      	movs	r2, r4
10000aac:	469c      	mov	ip, r3
10000aae:	68c7      	ldr	r7, [r0, #12]
10000ab0:	6aee      	ldr	r6, [r5, #44]	; 0x2c
10000ab2:	003b      	movs	r3, r7
10000ab4:	4037      	ands	r7, r6
10000ab6:	4073      	eors	r3, r6
10000ab8:	003e      	movs	r6, r7
10000aba:	62d3      	str	r3, [r2, #44]	; 0x2c
10000abc:	6883      	ldr	r3, [r0, #8]
10000abe:	6aa9      	ldr	r1, [r5, #40]	; 0x28
10000ac0:	4059      	eors	r1, r3
10000ac2:	404e      	eors	r6, r1
10000ac4:	6296      	str	r6, [r2, #40]	; 0x28
10000ac6:	6aae      	ldr	r6, [r5, #40]	; 0x28
10000ac8:	4039      	ands	r1, r7
10000aca:	401e      	ands	r6, r3
10000acc:	430e      	orrs	r6, r1
10000ace:	0031      	movs	r1, r6
10000ad0:	6847      	ldr	r7, [r0, #4]
10000ad2:	6a6b      	ldr	r3, [r5, #36]	; 0x24
10000ad4:	407b      	eors	r3, r7
10000ad6:	4059      	eors	r1, r3
10000ad8:	6251      	str	r1, [r2, #36]	; 0x24
10000ada:	6a69      	ldr	r1, [r5, #36]	; 0x24
10000adc:	401e      	ands	r6, r3
10000ade:	4039      	ands	r1, r7
10000ae0:	4331      	orrs	r1, r6
10000ae2:	000b      	movs	r3, r1
10000ae4:	6807      	ldr	r7, [r0, #0]
10000ae6:	6a2e      	ldr	r6, [r5, #32]
10000ae8:	3030      	adds	r0, #48	; 0x30
10000aea:	407e      	eors	r6, r7
10000aec:	4073      	eors	r3, r6
10000aee:	6213      	str	r3, [r2, #32]
10000af0:	6a2b      	ldr	r3, [r5, #32]
10000af2:	4031      	ands	r1, r6
10000af4:	403b      	ands	r3, r7
10000af6:	430b      	orrs	r3, r1
10000af8:	69e9      	ldr	r1, [r5, #28]
10000afa:	000e      	movs	r6, r1
10000afc:	405e      	eors	r6, r3
10000afe:	400b      	ands	r3, r1
10000b00:	61d6      	str	r6, [r2, #28]
10000b02:	001e      	movs	r6, r3
10000b04:	69a9      	ldr	r1, [r5, #24]
10000b06:	404e      	eors	r6, r1
10000b08:	400b      	ands	r3, r1
10000b0a:	6969      	ldr	r1, [r5, #20]
10000b0c:	6196      	str	r6, [r2, #24]
10000b0e:	000e      	movs	r6, r1
10000b10:	405e      	eors	r6, r3
10000b12:	400b      	ands	r3, r1
10000b14:	0019      	movs	r1, r3
10000b16:	6156      	str	r6, [r2, #20]
10000b18:	692e      	ldr	r6, [r5, #16]
10000b1a:	4071      	eors	r1, r6
10000b1c:	4033      	ands	r3, r6
10000b1e:	6111      	str	r1, [r2, #16]
10000b20:	0019      	movs	r1, r3
10000b22:	68ee      	ldr	r6, [r5, #12]
10000b24:	4071      	eors	r1, r6
10000b26:	4033      	ands	r3, r6
10000b28:	60d1      	str	r1, [r2, #12]
10000b2a:	0019      	movs	r1, r3
10000b2c:	68ae      	ldr	r6, [r5, #8]
10000b2e:	4033      	ands	r3, r6
10000b30:	4071      	eors	r1, r6
10000b32:	6091      	str	r1, [r2, #8]
10000b34:	0019      	movs	r1, r3
10000b36:	686e      	ldr	r6, [r5, #4]
10000b38:	4071      	eors	r1, r6
10000b3a:	401e      	ands	r6, r3
10000b3c:	682b      	ldr	r3, [r5, #0]
10000b3e:	3530      	adds	r5, #48	; 0x30
10000b40:	405e      	eors	r6, r3
10000b42:	6051      	str	r1, [r2, #4]
10000b44:	6016      	str	r6, [r2, #0]
10000b46:	3230      	adds	r2, #48	; 0x30
10000b48:	4565      	cmp	r5, ip
10000b4a:	d1b0      	bne.n	10000aae <main+0x43a>
10000b4c:	2280      	movs	r2, #128	; 0x80
10000b4e:	4653      	mov	r3, sl
10000b50:	0312      	lsls	r2, r2, #12
10000b52:	619a      	str	r2, [r3, #24]
10000b54:	486d      	ldr	r0, [pc, #436]	; (10000d0c <main+0x698>)
10000b56:	f002 fd6b 	bl	10003630 <__sem_acquire_blocking_veneer>
10000b5a:	2380      	movs	r3, #128	; 0x80
10000b5c:	4652      	mov	r2, sl
10000b5e:	039b      	lsls	r3, r3, #14
10000b60:	6193      	str	r3, [r2, #24]
10000b62:	23c0      	movs	r3, #192	; 0xc0
10000b64:	035b      	lsls	r3, r3, #13
10000b66:	6153      	str	r3, [r2, #20]
10000b68:	4b69      	ldr	r3, [pc, #420]	; (10000d10 <main+0x69c>)
10000b6a:	4a6a      	ldr	r2, [pc, #424]	; (10000d14 <main+0x6a0>)
10000b6c:	c310      	stmia	r3!, {r4}
10000b6e:	3430      	adds	r4, #48	; 0x30
10000b70:	429a      	cmp	r2, r3
10000b72:	d1fa      	bne.n	10000b6a <main+0x4f6>
10000b74:	2380      	movs	r3, #128	; 0x80
10000b76:	2100      	movs	r1, #0
10000b78:	4a65      	ldr	r2, [pc, #404]	; (10000d10 <main+0x69c>)
10000b7a:	00db      	lsls	r3, r3, #3
10000b7c:	50d1      	str	r1, [r2, r3]
10000b7e:	4b66      	ldr	r3, [pc, #408]	; (10000d18 <main+0x6a4>)
10000b80:	63da      	str	r2, [r3, #60]	; 0x3c
10000b82:	23c0      	movs	r3, #192	; 0xc0
10000b84:	4652      	mov	r2, sl
10000b86:	035b      	lsls	r3, r3, #13
10000b88:	6193      	str	r3, [r2, #24]
10000b8a:	9a11      	ldr	r2, [sp, #68]	; 0x44
10000b8c:	9b0c      	ldr	r3, [sp, #48]	; 0x30
10000b8e:	4694      	mov	ip, r2
10000b90:	4463      	add	r3, ip
10000b92:	930c      	str	r3, [sp, #48]	; 0x30
10000b94:	9b0b      	ldr	r3, [sp, #44]	; 0x2c
10000b96:	3301      	adds	r3, #1
10000b98:	001a      	movs	r2, r3
10000b9a:	930b      	str	r3, [sp, #44]	; 0x2c
10000b9c:	2380      	movs	r3, #128	; 0x80
10000b9e:	009b      	lsls	r3, r3, #2
10000ba0:	429a      	cmp	r2, r3
10000ba2:	d100      	bne.n	10000ba6 <main+0x532>
10000ba4:	e09a      	b.n	10000cdc <main+0x668>
10000ba6:	9b0e      	ldr	r3, [sp, #56]	; 0x38
10000ba8:	3b01      	subs	r3, #1
10000baa:	930e      	str	r3, [sp, #56]	; 0x38
10000bac:	2b00      	cmp	r3, #0
10000bae:	d000      	beq.n	10000bb2 <main+0x53e>
10000bb0:	e605      	b.n	100007be <main+0x14a>
10000bb2:	9b13      	ldr	r3, [sp, #76]	; 0x4c
10000bb4:	4853      	ldr	r0, [pc, #332]	; (10000d04 <main+0x690>)
10000bb6:	001a      	movs	r2, r3
10000bb8:	9b11      	ldr	r3, [sp, #68]	; 0x44
10000bba:	2403      	movs	r4, #3
10000bbc:	0019      	movs	r1, r3
10000bbe:	469c      	mov	ip, r3
10000bc0:	00db      	lsls	r3, r3, #3
10000bc2:	1a5b      	subs	r3, r3, r1
10000bc4:	011b      	lsls	r3, r3, #4
10000bc6:	1a5b      	subs	r3, r3, r1
10000bc8:	00d9      	lsls	r1, r3, #3
10000bca:	4462      	add	r2, ip
10000bcc:	185b      	adds	r3, r3, r1
10000bce:	189b      	adds	r3, r3, r2
10000bd0:	2296      	movs	r2, #150	; 0x96
10000bd2:	2100      	movs	r1, #0
10000bd4:	0212      	lsls	r2, r2, #8
10000bd6:	9313      	str	r3, [sp, #76]	; 0x4c
10000bd8:	f001 fdd8 	bl	1000278c <__wrap_memset>
10000bdc:	f002 fb7e 	bl	100032dc <rand>
10000be0:	4004      	ands	r4, r0
10000be2:	f002 fb7b 	bl	100032dc <rand>
10000be6:	0043      	lsls	r3, r0, #1
10000be8:	d500      	bpl.n	10000bec <main+0x578>
10000bea:	e5c8      	b.n	1000077e <main+0x10a>
10000bec:	f002 fb76 	bl	100032dc <rand>
10000bf0:	465b      	mov	r3, fp
10000bf2:	4203      	tst	r3, r0
10000bf4:	d100      	bne.n	10000bf8 <main+0x584>
10000bf6:	e07a      	b.n	10000cee <main+0x67a>
10000bf8:	4b48      	ldr	r3, [pc, #288]	; (10000d1c <main+0x6a8>)
10000bfa:	00e4      	lsls	r4, r4, #3
10000bfc:	191b      	adds	r3, r3, r4
10000bfe:	6858      	ldr	r0, [r3, #4]
10000c00:	f001 fea0 	bl	10002944 <__wrap_puts>
10000c04:	2300      	movs	r3, #0
10000c06:	4846      	ldr	r0, [pc, #280]	; (10000d20 <main+0x6ac>)
10000c08:	9311      	str	r3, [sp, #68]	; 0x44
10000c0a:	e5c7      	b.n	1000079c <main+0x128>
10000c0c:	2203      	movs	r2, #3
10000c0e:	62f1      	str	r1, [r6, #44]	; 0x2c
10000c10:	4691      	mov	r9, r2
10000c12:	0a5a      	lsrs	r2, r3, #9
10000c14:	d000      	beq.n	10000c18 <main+0x5a4>
10000c16:	e64f      	b.n	100008b8 <main+0x244>
10000c18:	2302      	movs	r3, #2
10000c1a:	9303      	str	r3, [sp, #12]
10000c1c:	e61d      	b.n	1000085a <main+0x1e6>
10000c1e:	2203      	movs	r2, #3
10000c20:	62b1      	str	r1, [r6, #40]	; 0x28
10000c22:	9203      	str	r2, [sp, #12]
10000c24:	0a9a      	lsrs	r2, r3, #10
10000c26:	d000      	beq.n	10000c2a <main+0x5b6>
10000c28:	e64f      	b.n	100008ca <main+0x256>
10000c2a:	2302      	movs	r3, #2
10000c2c:	e615      	b.n	1000085a <main+0x1e6>
10000c2e:	2203      	movs	r2, #3
10000c30:	6271      	str	r1, [r6, #36]	; 0x24
10000c32:	9204      	str	r2, [sp, #16]
10000c34:	0ada      	lsrs	r2, r3, #11
10000c36:	d000      	beq.n	10000c3a <main+0x5c6>
10000c38:	e650      	b.n	100008dc <main+0x268>
10000c3a:	2302      	movs	r3, #2
10000c3c:	4698      	mov	r8, r3
10000c3e:	469c      	mov	ip, r3
10000c40:	9305      	str	r3, [sp, #20]
10000c42:	9306      	str	r3, [sp, #24]
10000c44:	e60e      	b.n	10000864 <main+0x1f0>
10000c46:	2203      	movs	r2, #3
10000c48:	6231      	str	r1, [r6, #32]
10000c4a:	4690      	mov	r8, r2
10000c4c:	0b1a      	lsrs	r2, r3, #12
10000c4e:	d000      	beq.n	10000c52 <main+0x5de>
10000c50:	e64d      	b.n	100008ee <main+0x27a>
10000c52:	2302      	movs	r3, #2
10000c54:	469c      	mov	ip, r3
10000c56:	9305      	str	r3, [sp, #20]
10000c58:	9306      	str	r3, [sp, #24]
10000c5a:	e603      	b.n	10000864 <main+0x1f0>
10000c5c:	2203      	movs	r2, #3
10000c5e:	61f1      	str	r1, [r6, #28]
10000c60:	4694      	mov	ip, r2
10000c62:	0b5a      	lsrs	r2, r3, #13
10000c64:	d000      	beq.n	10000c68 <main+0x5f4>
10000c66:	e64b      	b.n	10000900 <main+0x28c>
10000c68:	2302      	movs	r3, #2
10000c6a:	9305      	str	r3, [sp, #20]
10000c6c:	9306      	str	r3, [sp, #24]
10000c6e:	e5f9      	b.n	10000864 <main+0x1f0>
10000c70:	2203      	movs	r2, #3
10000c72:	61b1      	str	r1, [r6, #24]
10000c74:	9205      	str	r2, [sp, #20]
10000c76:	0b9a      	lsrs	r2, r3, #14
10000c78:	d000      	beq.n	10000c7c <main+0x608>
10000c7a:	e64a      	b.n	10000912 <main+0x29e>
10000c7c:	2302      	movs	r3, #2
10000c7e:	9306      	str	r3, [sp, #24]
10000c80:	e5f0      	b.n	10000864 <main+0x1f0>
10000c82:	2203      	movs	r2, #3
10000c84:	6171      	str	r1, [r6, #20]
10000c86:	9206      	str	r2, [sp, #24]
10000c88:	0bda      	lsrs	r2, r3, #15
10000c8a:	d000      	beq.n	10000c8e <main+0x61a>
10000c8c:	e64a      	b.n	10000924 <main+0x2b0>
10000c8e:	2302      	movs	r3, #2
10000c90:	e5e8      	b.n	10000864 <main+0x1f0>
10000c92:	2203      	movs	r2, #3
10000c94:	6131      	str	r1, [r6, #16]
10000c96:	9207      	str	r2, [sp, #28]
10000c98:	0c1a      	lsrs	r2, r3, #16
10000c9a:	d000      	beq.n	10000c9e <main+0x62a>
10000c9c:	e64b      	b.n	10000936 <main+0x2c2>
10000c9e:	2302      	movs	r3, #2
10000ca0:	2202      	movs	r2, #2
10000ca2:	9308      	str	r3, [sp, #32]
10000ca4:	9309      	str	r3, [sp, #36]	; 0x24
10000ca6:	930a      	str	r3, [sp, #40]	; 0x28
10000ca8:	e5e1      	b.n	1000086e <main+0x1fa>
10000caa:	2203      	movs	r2, #3
10000cac:	60f1      	str	r1, [r6, #12]
10000cae:	9208      	str	r2, [sp, #32]
10000cb0:	0c5a      	lsrs	r2, r3, #17
10000cb2:	d000      	beq.n	10000cb6 <main+0x642>
10000cb4:	e648      	b.n	10000948 <main+0x2d4>
10000cb6:	2302      	movs	r3, #2
10000cb8:	2202      	movs	r2, #2
10000cba:	9309      	str	r3, [sp, #36]	; 0x24
10000cbc:	930a      	str	r3, [sp, #40]	; 0x28
10000cbe:	e5d6      	b.n	1000086e <main+0x1fa>
10000cc0:	2203      	movs	r2, #3
10000cc2:	60b1      	str	r1, [r6, #8]
10000cc4:	9209      	str	r2, [sp, #36]	; 0x24
10000cc6:	0c9a      	lsrs	r2, r3, #18
10000cc8:	d000      	beq.n	10000ccc <main+0x658>
10000cca:	e646      	b.n	1000095a <main+0x2e6>
10000ccc:	2302      	movs	r3, #2
10000cce:	2202      	movs	r2, #2
10000cd0:	930a      	str	r3, [sp, #40]	; 0x28
10000cd2:	e5cc      	b.n	1000086e <main+0x1fa>
10000cd4:	2203      	movs	r2, #3
10000cd6:	6071      	str	r1, [r6, #4]
10000cd8:	920a      	str	r2, [sp, #40]	; 0x28
10000cda:	e644      	b.n	10000966 <main+0x2f2>
10000cdc:	9b0e      	ldr	r3, [sp, #56]	; 0x38
10000cde:	3b01      	subs	r3, #1
10000ce0:	930e      	str	r3, [sp, #56]	; 0x38
10000ce2:	2b00      	cmp	r3, #0
10000ce4:	d100      	bne.n	10000ce8 <main+0x674>
10000ce6:	e764      	b.n	10000bb2 <main+0x53e>
10000ce8:	2300      	movs	r3, #0
10000cea:	930b      	str	r3, [sp, #44]	; 0x2c
10000cec:	e567      	b.n	100007be <main+0x14a>
10000cee:	4b0b      	ldr	r3, [pc, #44]	; (10000d1c <main+0x6a8>)
10000cf0:	00e4      	lsls	r4, r4, #3
10000cf2:	191b      	adds	r3, r3, r4
10000cf4:	6858      	ldr	r0, [r3, #4]
10000cf6:	f001 fe25 	bl	10002944 <__wrap_puts>
10000cfa:	2301      	movs	r3, #1
10000cfc:	425b      	negs	r3, r3
10000cfe:	4809      	ldr	r0, [pc, #36]	; (10000d24 <main+0x6b0>)
10000d00:	9311      	str	r3, [sp, #68]	; 0x44
10000d02:	e54b      	b.n	1000079c <main+0x128>
10000d04:	20005d10 	.word	0x20005d10
10000d08:	20000b74 	.word	0x20000b74
10000d0c:	20005d08 	.word	0x20005d08
10000d10:	200056ac 	.word	0x200056ac
10000d14:	20005aac 	.word	0x20005aac
10000d18:	50000040 	.word	0x50000040
10000d1c:	100036b8 	.word	0x100036b8
10000d20:	10003660 	.word	0x10003660
10000d24:	10003674 	.word	0x10003674

10000d28 <gpio_set_function>:
10000d28:	4a09      	ldr	r2, [pc, #36]	; (10000d50 <gpio_set_function+0x28>)
10000d2a:	0083      	lsls	r3, r0, #2
10000d2c:	4694      	mov	ip, r2
10000d2e:	2240      	movs	r2, #64	; 0x40
10000d30:	4463      	add	r3, ip
10000d32:	b510      	push	{r4, lr}
10000d34:	681c      	ldr	r4, [r3, #0]
10000d36:	00c0      	lsls	r0, r0, #3
10000d38:	4062      	eors	r2, r4
10000d3a:	24c0      	movs	r4, #192	; 0xc0
10000d3c:	4014      	ands	r4, r2
10000d3e:	2280      	movs	r2, #128	; 0x80
10000d40:	0152      	lsls	r2, r2, #5
10000d42:	4313      	orrs	r3, r2
10000d44:	601c      	str	r4, [r3, #0]
10000d46:	4b03      	ldr	r3, [pc, #12]	; (10000d54 <gpio_set_function+0x2c>)
10000d48:	469c      	mov	ip, r3
10000d4a:	4460      	add	r0, ip
10000d4c:	6041      	str	r1, [r0, #4]
10000d4e:	bd10      	pop	{r4, pc}
10000d50:	4001c004 	.word	0x4001c004
10000d54:	40014000 	.word	0x40014000

10000d58 <gpio_debug_pins_init>:
10000d58:	2240      	movs	r2, #64	; 0x40
10000d5a:	b5f0      	push	{r4, r5, r6, r7, lr}
10000d5c:	46d6      	mov	lr, sl
10000d5e:	464f      	mov	r7, r9
10000d60:	4646      	mov	r6, r8
10000d62:	4690      	mov	r8, r2
10000d64:	3280      	adds	r2, #128	; 0x80
10000d66:	20e0      	movs	r0, #224	; 0xe0
10000d68:	24d0      	movs	r4, #208	; 0xd0
10000d6a:	4694      	mov	ip, r2
10000d6c:	b5c0      	push	{r6, r7, lr}
10000d6e:	3abb      	subs	r2, #187	; 0xbb
10000d70:	2780      	movs	r7, #128	; 0x80
10000d72:	2301      	movs	r3, #1
10000d74:	2501      	movs	r5, #1
10000d76:	4692      	mov	sl, r2
10000d78:	4915      	ldr	r1, [pc, #84]	; (10000dd0 <gpio_debug_pins_init+0x78>)
10000d7a:	0340      	lsls	r0, r0, #13
10000d7c:	0624      	lsls	r4, r4, #24
10000d7e:	017f      	lsls	r7, r7, #5
10000d80:	4205      	tst	r5, r0
10000d82:	d011      	beq.n	10000da8 <gpio_debug_pins_init+0x50>
10000d84:	002a      	movs	r2, r5
10000d86:	409a      	lsls	r2, r3
10000d88:	4646      	mov	r6, r8
10000d8a:	62a2      	str	r2, [r4, #40]	; 0x28
10000d8c:	61a2      	str	r2, [r4, #24]
10000d8e:	680a      	ldr	r2, [r1, #0]
10000d90:	4072      	eors	r2, r6
10000d92:	4666      	mov	r6, ip
10000d94:	4032      	ands	r2, r6
10000d96:	003e      	movs	r6, r7
10000d98:	430e      	orrs	r6, r1
10000d9a:	6032      	str	r2, [r6, #0]
10000d9c:	4e0d      	ldr	r6, [pc, #52]	; (10000dd4 <gpio_debug_pins_init+0x7c>)
10000d9e:	00da      	lsls	r2, r3, #3
10000da0:	46b1      	mov	r9, r6
10000da2:	4656      	mov	r6, sl
10000da4:	444a      	add	r2, r9
10000da6:	6016      	str	r6, [r2, #0]
10000da8:	3301      	adds	r3, #1
10000daa:	0840      	lsrs	r0, r0, #1
10000dac:	3104      	adds	r1, #4
10000dae:	2b20      	cmp	r3, #32
10000db0:	d1e6      	bne.n	10000d80 <gpio_debug_pins_init+0x28>
10000db2:	22d0      	movs	r2, #208	; 0xd0
10000db4:	23e0      	movs	r3, #224	; 0xe0
10000db6:	0612      	lsls	r2, r2, #24
10000db8:	6a11      	ldr	r1, [r2, #32]
10000dba:	039b      	lsls	r3, r3, #14
10000dbc:	438b      	bics	r3, r1
10000dbe:	62d3      	str	r3, [r2, #44]	; 0x2c
10000dc0:	4b05      	ldr	r3, [pc, #20]	; (10000dd8 <gpio_debug_pins_init+0x80>)
10000dc2:	781b      	ldrb	r3, [r3, #0]
10000dc4:	bc1c      	pop	{r2, r3, r4}
10000dc6:	4690      	mov	r8, r2
10000dc8:	4699      	mov	r9, r3
10000dca:	46a2      	mov	sl, r4
10000dcc:	bdf0      	pop	{r4, r5, r6, r7, pc}
10000dce:	46c0      	nop			; (mov r8, r8)
10000dd0:	4001c008 	.word	0x4001c008
10000dd4:	40014004 	.word	0x40014004
10000dd8:	10003878 	.word	0x10003878

10000ddc <hw_claim_lock>:
10000ddc:	f3ef 8010 	mrs	r0, PRIMASK
10000de0:	b672      	cpsid	i
10000de2:	4a03      	ldr	r2, [pc, #12]	; (10000df0 <hw_claim_lock+0x14>)
10000de4:	6813      	ldr	r3, [r2, #0]
10000de6:	2b00      	cmp	r3, #0
10000de8:	d0fc      	beq.n	10000de4 <hw_claim_lock+0x8>
10000dea:	f3bf 8f5f 	dmb	sy
10000dee:	4770      	bx	lr
10000df0:	d000012c 	.word	0xd000012c

10000df4 <hw_claim_unlock>:
10000df4:	f3bf 8f5f 	dmb	sy
10000df8:	2200      	movs	r2, #0
10000dfa:	4b02      	ldr	r3, [pc, #8]	; (10000e04 <hw_claim_unlock+0x10>)
10000dfc:	601a      	str	r2, [r3, #0]
10000dfe:	f380 8810 	msr	PRIMASK, r0
10000e02:	4770      	bx	lr
10000e04:	d000012c 	.word	0xd000012c

10000e08 <hw_claim_or_assert>:
10000e08:	b5f8      	push	{r3, r4, r5, r6, r7, lr}
10000e0a:	46ce      	mov	lr, r9
10000e0c:	4647      	mov	r7, r8
10000e0e:	4691      	mov	r9, r2
10000e10:	b580      	push	{r7, lr}
10000e12:	f3ef 8710 	mrs	r7, PRIMASK
10000e16:	b672      	cpsid	i
10000e18:	4e12      	ldr	r6, [pc, #72]	; (10000e64 <hw_claim_or_assert+0x5c>)
10000e1a:	6833      	ldr	r3, [r6, #0]
10000e1c:	2b00      	cmp	r3, #0
10000e1e:	d0fc      	beq.n	10000e1a <hw_claim_or_assert+0x12>
10000e20:	f3bf 8f5f 	dmb	sy
10000e24:	08cb      	lsrs	r3, r1, #3
10000e26:	5cc5      	ldrb	r5, [r0, r3]
10000e28:	2407      	movs	r4, #7
10000e2a:	18c2      	adds	r2, r0, r3
10000e2c:	0028      	movs	r0, r5
10000e2e:	2301      	movs	r3, #1
10000e30:	400c      	ands	r4, r1
10000e32:	4694      	mov	ip, r2
10000e34:	40e0      	lsrs	r0, r4
10000e36:	001a      	movs	r2, r3
10000e38:	4002      	ands	r2, r0
10000e3a:	4690      	mov	r8, r2
10000e3c:	4203      	tst	r3, r0
10000e3e:	d10d      	bne.n	10000e5c <hw_claim_or_assert+0x54>
10000e40:	40a3      	lsls	r3, r4
10000e42:	4662      	mov	r2, ip
10000e44:	432b      	orrs	r3, r5
10000e46:	7013      	strb	r3, [r2, #0]
10000e48:	f3bf 8f5f 	dmb	sy
10000e4c:	4643      	mov	r3, r8
10000e4e:	6033      	str	r3, [r6, #0]
10000e50:	f387 8810 	msr	PRIMASK, r7
10000e54:	bc0c      	pop	{r2, r3}
10000e56:	4690      	mov	r8, r2
10000e58:	4699      	mov	r9, r3
10000e5a:	bdf8      	pop	{r3, r4, r5, r6, r7, pc}
10000e5c:	4648      	mov	r0, r9
10000e5e:	f000 ff7d 	bl	10001d5c <panic>
10000e62:	46c0      	nop			; (mov r8, r8)
10000e64:	d000012c 	.word	0xd000012c

10000e68 <spin_locks_reset>:
10000e68:	2100      	movs	r1, #0
10000e6a:	4b04      	ldr	r3, [pc, #16]	; (10000e7c <spin_locks_reset+0x14>)
10000e6c:	4a04      	ldr	r2, [pc, #16]	; (10000e80 <spin_locks_reset+0x18>)
10000e6e:	f3bf 8f5f 	dmb	sy
10000e72:	c302      	stmia	r3!, {r1}
10000e74:	4293      	cmp	r3, r2
10000e76:	d1fa      	bne.n	10000e6e <spin_locks_reset+0x6>
10000e78:	4770      	bx	lr
10000e7a:	46c0      	nop			; (mov r8, r8)
10000e7c:	d0000100 	.word	0xd0000100
10000e80:	d0000180 	.word	0xd0000180

10000e84 <next_striped_spin_lock_num>:
10000e84:	4a04      	ldr	r2, [pc, #16]	; (10000e98 <next_striped_spin_lock_num+0x14>)
10000e86:	7810      	ldrb	r0, [r2, #0]
10000e88:	1c43      	adds	r3, r0, #1
10000e8a:	b2db      	uxtb	r3, r3
10000e8c:	2b17      	cmp	r3, #23
10000e8e:	d900      	bls.n	10000e92 <next_striped_spin_lock_num+0xe>
10000e90:	2310      	movs	r3, #16
10000e92:	7013      	strb	r3, [r2, #0]
10000e94:	4770      	bx	lr
10000e96:	46c0      	nop			; (mov r8, r8)
10000e98:	20000228 	.word	0x20000228

10000e9c <running_on_fpga>:
10000e9c:	4b02      	ldr	r3, [pc, #8]	; (10000ea8 <running_on_fpga+0xc>)
10000e9e:	6818      	ldr	r0, [r3, #0]
10000ea0:	0780      	lsls	r0, r0, #30
10000ea2:	0fc0      	lsrs	r0, r0, #31
10000ea4:	4770      	bx	lr
10000ea6:	46c0      	nop			; (mov r8, r8)
10000ea8:	4006c000 	.word	0x4006c000

10000eac <uart_init>:
10000eac:	b5f0      	push	{r4, r5, r6, r7, lr}
10000eae:	46c6      	mov	lr, r8
10000eb0:	0005      	movs	r5, r0
10000eb2:	b500      	push	{lr}
10000eb4:	2006      	movs	r0, #6
10000eb6:	000e      	movs	r6, r1
10000eb8:	f001 f8de 	bl	10002078 <clock_get_hz>
10000ebc:	2800      	cmp	r0, #0
10000ebe:	d04d      	beq.n	10000f5c <uart_init+0xb0>
10000ec0:	4b29      	ldr	r3, [pc, #164]	; (10000f68 <uart_init+0xbc>)
10000ec2:	492a      	ldr	r1, [pc, #168]	; (10000f6c <uart_init+0xc0>)
10000ec4:	18eb      	adds	r3, r5, r3
10000ec6:	425a      	negs	r2, r3
10000ec8:	4153      	adcs	r3, r2
10000eca:	2280      	movs	r2, #128	; 0x80
10000ecc:	03d2      	lsls	r2, r2, #15
10000ece:	4694      	mov	ip, r2
10000ed0:	425b      	negs	r3, r3
10000ed2:	4013      	ands	r3, r2
10000ed4:	4a26      	ldr	r2, [pc, #152]	; (10000f70 <uart_init+0xc4>)
10000ed6:	4463      	add	r3, ip
10000ed8:	6013      	str	r3, [r2, #0]
10000eda:	4a26      	ldr	r2, [pc, #152]	; (10000f74 <uart_init+0xc8>)
10000edc:	6013      	str	r3, [r2, #0]
10000ede:	001c      	movs	r4, r3
10000ee0:	688a      	ldr	r2, [r1, #8]
10000ee2:	4394      	bics	r4, r2
10000ee4:	d1fb      	bne.n	10000ede <uart_init+0x32>
10000ee6:	4b20      	ldr	r3, [pc, #128]	; (10000f68 <uart_init+0xbc>)
10000ee8:	2180      	movs	r1, #128	; 0x80
10000eea:	18eb      	adds	r3, r5, r3
10000eec:	425a      	negs	r2, r3
10000eee:	4153      	adcs	r3, r2
10000ef0:	4a21      	ldr	r2, [pc, #132]	; (10000f78 <uart_init+0xcc>)
10000ef2:	005b      	lsls	r3, r3, #1
10000ef4:	0049      	lsls	r1, r1, #1
10000ef6:	2006      	movs	r0, #6
10000ef8:	5299      	strh	r1, [r3, r2]
10000efa:	f001 f8bd 	bl	10002078 <clock_get_hz>
10000efe:	0031      	movs	r1, r6
10000f00:	00c0      	lsls	r0, r0, #3
10000f02:	f001 fafb 	bl	100024fc <__wrap___aeabi_uidiv>
10000f06:	267f      	movs	r6, #127	; 0x7f
10000f08:	4b1c      	ldr	r3, [pc, #112]	; (10000f7c <uart_init+0xd0>)
10000f0a:	4006      	ands	r6, r0
10000f0c:	09c7      	lsrs	r7, r0, #7
10000f0e:	3601      	adds	r6, #1
10000f10:	0876      	lsrs	r6, r6, #1
10000f12:	626f      	str	r7, [r5, #36]	; 0x24
10000f14:	429f      	cmp	r7, r3
10000f16:	d024      	beq.n	10000f62 <uart_init+0xb6>
10000f18:	62ae      	str	r6, [r5, #40]	; 0x28
10000f1a:	232c      	movs	r3, #44	; 0x2c
10000f1c:	4698      	mov	r8, r3
10000f1e:	2480      	movs	r4, #128	; 0x80
10000f20:	44a8      	add	r8, r5
10000f22:	4643      	mov	r3, r8
10000f24:	01a4      	lsls	r4, r4, #6
10000f26:	431c      	orrs	r4, r3
10000f28:	2300      	movs	r3, #0
10000f2a:	2006      	movs	r0, #6
10000f2c:	6023      	str	r3, [r4, #0]
10000f2e:	f001 f8a3 	bl	10002078 <clock_get_hz>
10000f32:	01b9      	lsls	r1, r7, #6
10000f34:	1989      	adds	r1, r1, r6
10000f36:	0080      	lsls	r0, r0, #2
10000f38:	f001 fae0 	bl	100024fc <__wrap___aeabi_uidiv>
10000f3c:	2360      	movs	r3, #96	; 0x60
10000f3e:	6aea      	ldr	r2, [r5, #44]	; 0x2c
10000f40:	4641      	mov	r1, r8
10000f42:	4053      	eors	r3, r2
10000f44:	226e      	movs	r2, #110	; 0x6e
10000f46:	401a      	ands	r2, r3
10000f48:	2380      	movs	r3, #128	; 0x80
10000f4a:	015b      	lsls	r3, r3, #5
10000f4c:	430b      	orrs	r3, r1
10000f4e:	601a      	str	r2, [r3, #0]
10000f50:	4b0b      	ldr	r3, [pc, #44]	; (10000f80 <uart_init+0xd4>)
10000f52:	632b      	str	r3, [r5, #48]	; 0x30
10000f54:	2310      	movs	r3, #16
10000f56:	6023      	str	r3, [r4, #0]
10000f58:	3b0d      	subs	r3, #13
10000f5a:	64ab      	str	r3, [r5, #72]	; 0x48
10000f5c:	bc04      	pop	{r2}
10000f5e:	4690      	mov	r8, r2
10000f60:	bdf0      	pop	{r4, r5, r6, r7, pc}
10000f62:	62ac      	str	r4, [r5, #40]	; 0x28
10000f64:	e7d9      	b.n	10000f1a <uart_init+0x6e>
10000f66:	46c0      	nop			; (mov r8, r8)
10000f68:	bffc8000 	.word	0xbffc8000
10000f6c:	4000c000 	.word	0x4000c000
10000f70:	4000e000 	.word	0x4000e000
10000f74:	4000f000 	.word	0x4000f000
10000f78:	2000f5e8 	.word	0x2000f5e8
10000f7c:	0000ffff 	.word	0x0000ffff
10000f80:	00000301 	.word	0x00000301

10000f84 <timer_pool_entry_comparator>:
10000f84:	6883      	ldr	r3, [r0, #8]
10000f86:	480b      	ldr	r0, [pc, #44]	; (10000fb4 <timer_pool_entry_comparator+0x30>)
10000f88:	b510      	push	{r4, lr}
10000f8a:	4684      	mov	ip, r0
10000f8c:	4461      	add	r1, ip
10000f8e:	4462      	add	r2, ip
10000f90:	0109      	lsls	r1, r1, #4
10000f92:	0112      	lsls	r2, r2, #4
10000f94:	189a      	adds	r2, r3, r2
10000f96:	1859      	adds	r1, r3, r1
10000f98:	6854      	ldr	r4, [r2, #4]
10000f9a:	684b      	ldr	r3, [r1, #4]
10000f9c:	2001      	movs	r0, #1
10000f9e:	429c      	cmp	r4, r3
10000fa0:	d801      	bhi.n	10000fa6 <timer_pool_entry_comparator+0x22>
10000fa2:	d002      	beq.n	10000faa <timer_pool_entry_comparator+0x26>
10000fa4:	2000      	movs	r0, #0
10000fa6:	b2c0      	uxtb	r0, r0
10000fa8:	bd10      	pop	{r4, pc}
10000faa:	6812      	ldr	r2, [r2, #0]
10000fac:	680b      	ldr	r3, [r1, #0]
10000fae:	429a      	cmp	r2, r3
10000fb0:	d8f9      	bhi.n	10000fa6 <timer_pool_entry_comparator+0x22>
10000fb2:	e7f7      	b.n	10000fa4 <timer_pool_entry_comparator+0x20>
10000fb4:	0fffffff 	.word	0x0fffffff

10000fb8 <add_alarm_under_lock>:
10000fb8:	b5f0      	push	{r4, r5, r6, r7, lr}
10000fba:	4657      	mov	r7, sl
10000fbc:	4645      	mov	r5, r8
10000fbe:	46de      	mov	lr, fp
10000fc0:	464e      	mov	r6, r9
10000fc2:	b5e0      	push	{r5, r6, r7, lr}
10000fc4:	b083      	sub	sp, #12
10000fc6:	001f      	movs	r7, r3
10000fc8:	ab0f      	add	r3, sp, #60	; 0x3c
10000fca:	781b      	ldrb	r3, [r3, #0]
10000fcc:	9c0e      	ldr	r4, [sp, #56]	; 0x38
10000fce:	0005      	movs	r5, r0
10000fd0:	4692      	mov	sl, r2
10000fd2:	9301      	str	r3, [sp, #4]
10000fd4:	2c00      	cmp	r4, #0
10000fd6:	d10d      	bne.n	10000ff4 <add_alarm_under_lock+0x3c>
10000fd8:	6802      	ldr	r2, [r0, #0]
10000fda:	7b94      	ldrb	r4, [r2, #14]
10000fdc:	2c00      	cmp	r4, #0
10000fde:	d056      	beq.n	1000108e <add_alarm_under_lock+0xd6>
10000fe0:	6811      	ldr	r1, [r2, #0]
10000fe2:	0063      	lsls	r3, r4, #1
10000fe4:	468c      	mov	ip, r1
10000fe6:	191b      	adds	r3, r3, r4
10000fe8:	4463      	add	r3, ip
10000fea:	3b03      	subs	r3, #3
10000fec:	785b      	ldrb	r3, [r3, #1]
10000fee:	7393      	strb	r3, [r2, #14]
10000ff0:	2b00      	cmp	r3, #0
10000ff2:	d054      	beq.n	1000109e <add_alarm_under_lock+0xe6>
10000ff4:	68aa      	ldr	r2, [r5, #8]
10000ff6:	b2e3      	uxtb	r3, r4
10000ff8:	4694      	mov	ip, r2
10000ffa:	4652      	mov	r2, sl
10000ffc:	469b      	mov	fp, r3
10000ffe:	4b38      	ldr	r3, [pc, #224]	; (100010e0 <add_alarm_under_lock+0x128>)
10001000:	682e      	ldr	r6, [r5, #0]
10001002:	18e3      	adds	r3, r4, r3
10001004:	011b      	lsls	r3, r3, #4
10001006:	4463      	add	r3, ip
10001008:	601a      	str	r2, [r3, #0]
1000100a:	9a0c      	ldr	r2, [sp, #48]	; 0x30
1000100c:	605f      	str	r7, [r3, #4]
1000100e:	609a      	str	r2, [r3, #8]
10001010:	9a0d      	ldr	r2, [sp, #52]	; 0x34
10001012:	60da      	str	r2, [r3, #12]
10001014:	23d0      	movs	r3, #208	; 0xd0
10001016:	2280      	movs	r2, #128	; 0x80
10001018:	061b      	lsls	r3, r3, #24
1000101a:	0312      	lsls	r2, r2, #12
1000101c:	615a      	str	r2, [r3, #20]
1000101e:	0063      	lsls	r3, r4, #1
10001020:	191b      	adds	r3, r3, r4
10001022:	3b03      	subs	r3, #3
10001024:	4698      	mov	r8, r3
10001026:	2200      	movs	r2, #0
10001028:	6833      	ldr	r3, [r6, #0]
1000102a:	4443      	add	r3, r8
1000102c:	709a      	strb	r2, [r3, #2]
1000102e:	705a      	strb	r2, [r3, #1]
10001030:	701a      	strb	r2, [r3, #0]
10001032:	7b73      	ldrb	r3, [r6, #13]
10001034:	4699      	mov	r9, r3
10001036:	2b00      	cmp	r3, #0
10001038:	d017      	beq.n	1000106a <add_alarm_under_lock+0xb2>
1000103a:	465a      	mov	r2, fp
1000103c:	0019      	movs	r1, r3
1000103e:	68b0      	ldr	r0, [r6, #8]
10001040:	6873      	ldr	r3, [r6, #4]
10001042:	4798      	blx	r3
10001044:	6832      	ldr	r2, [r6, #0]
10001046:	2800      	cmp	r0, #0
10001048:	d12b      	bne.n	100010a2 <add_alarm_under_lock+0xea>
1000104a:	4643      	mov	r3, r8
1000104c:	18d1      	adds	r1, r2, r3
1000104e:	464b      	mov	r3, r9
10001050:	4658      	mov	r0, fp
10001052:	005b      	lsls	r3, r3, #1
10001054:	444b      	add	r3, r9
10001056:	3b03      	subs	r3, #3
10001058:	18d3      	adds	r3, r2, r3
1000105a:	7098      	strb	r0, [r3, #2]
1000105c:	4640      	mov	r0, r8
1000105e:	5c12      	ldrb	r2, [r2, r0]
10001060:	2a00      	cmp	r2, #0
10001062:	d000      	beq.n	10001066 <add_alarm_under_lock+0xae>
10001064:	705a      	strb	r2, [r3, #1]
10001066:	464b      	mov	r3, r9
10001068:	700b      	strb	r3, [r1, #0]
1000106a:	465b      	mov	r3, fp
1000106c:	7373      	strb	r3, [r6, #13]
1000106e:	4652      	mov	r2, sl
10001070:	003b      	movs	r3, r7
10001072:	7d28      	ldrb	r0, [r5, #20]
10001074:	f000 fb34 	bl	100016e0 <hardware_alarm_set_target>
10001078:	1e06      	subs	r6, r0, #0
1000107a:	d002      	beq.n	10001082 <add_alarm_under_lock+0xca>
1000107c:	9b01      	ldr	r3, [sp, #4]
1000107e:	2b00      	cmp	r3, #0
10001080:	d026      	beq.n	100010d0 <add_alarm_under_lock+0x118>
10001082:	9b10      	ldr	r3, [sp, #64]	; 0x40
10001084:	2b00      	cmp	r3, #0
10001086:	d028      	beq.n	100010da <add_alarm_under_lock+0x122>
10001088:	0020      	movs	r0, r4
1000108a:	701e      	strb	r6, [r3, #0]
1000108c:	e000      	b.n	10001090 <add_alarm_under_lock+0xd8>
1000108e:	2000      	movs	r0, #0
10001090:	b003      	add	sp, #12
10001092:	bc3c      	pop	{r2, r3, r4, r5}
10001094:	4690      	mov	r8, r2
10001096:	4699      	mov	r9, r3
10001098:	46a2      	mov	sl, r4
1000109a:	46ab      	mov	fp, r5
1000109c:	bdf0      	pop	{r4, r5, r6, r7, pc}
1000109e:	73d3      	strb	r3, [r2, #15]
100010a0:	e7a8      	b.n	10000ff4 <add_alarm_under_lock+0x3c>
100010a2:	464b      	mov	r3, r9
100010a4:	005b      	lsls	r3, r3, #1
100010a6:	444b      	add	r3, r9
100010a8:	3b03      	subs	r3, #3
100010aa:	18d1      	adds	r1, r2, r3
100010ac:	468c      	mov	ip, r1
100010ae:	4641      	mov	r1, r8
100010b0:	4648      	mov	r0, r9
100010b2:	1851      	adds	r1, r2, r1
100010b4:	7088      	strb	r0, [r1, #2]
100010b6:	5cd3      	ldrb	r3, [r2, r3]
100010b8:	2b00      	cmp	r3, #0
100010ba:	d000      	beq.n	100010be <add_alarm_under_lock+0x106>
100010bc:	704b      	strb	r3, [r1, #1]
100010be:	465b      	mov	r3, fp
100010c0:	4662      	mov	r2, ip
100010c2:	7013      	strb	r3, [r2, #0]
100010c4:	464b      	mov	r3, r9
100010c6:	0020      	movs	r0, r4
100010c8:	7373      	strb	r3, [r6, #13]
100010ca:	45a1      	cmp	r9, r4
100010cc:	d1e0      	bne.n	10001090 <add_alarm_under_lock+0xd8>
100010ce:	e7ce      	b.n	1000106e <add_alarm_under_lock+0xb6>
100010d0:	4659      	mov	r1, fp
100010d2:	6828      	ldr	r0, [r5, #0]
100010d4:	f000 fd72 	bl	10001bbc <ph_delete>
100010d8:	e7d3      	b.n	10001082 <add_alarm_under_lock+0xca>
100010da:	0020      	movs	r0, r4
100010dc:	e7d8      	b.n	10001090 <add_alarm_under_lock+0xd8>
100010de:	46c0      	nop			; (mov r8, r8)
100010e0:	0fffffff 	.word	0x0fffffff

100010e4 <alarm_pool_alarm_callback>:
100010e4:	b5f0      	push	{r4, r5, r6, r7, lr}
100010e6:	46de      	mov	lr, fp
100010e8:	464e      	mov	r6, r9
100010ea:	4657      	mov	r7, sl
100010ec:	4645      	mov	r5, r8
100010ee:	2300      	movs	r3, #0
100010f0:	b5e0      	push	{r5, r6, r7, lr}
100010f2:	b08d      	sub	sp, #52	; 0x34
100010f4:	930a      	str	r3, [sp, #40]	; 0x28
100010f6:	4b71      	ldr	r3, [pc, #452]	; (100012bc <alarm_pool_alarm_callback+0x1d8>)
100010f8:	0082      	lsls	r2, r0, #2
100010fa:	58d3      	ldr	r3, [r2, r3]
100010fc:	900b      	str	r0, [sp, #44]	; 0x2c
100010fe:	4699      	mov	r9, r3
10001100:	2300      	movs	r3, #0
10001102:	469b      	mov	fp, r3
10001104:	464b      	mov	r3, r9
10001106:	9307      	str	r3, [sp, #28]
10001108:	f000 fa9a 	bl	10001640 <time_us_64>
1000110c:	9c07      	ldr	r4, [sp, #28]
1000110e:	0006      	movs	r6, r0
10001110:	000f      	movs	r7, r1
10001112:	6862      	ldr	r2, [r4, #4]
10001114:	f3ef 8510 	mrs	r5, PRIMASK
10001118:	b672      	cpsid	i
1000111a:	6813      	ldr	r3, [r2, #0]
1000111c:	2b00      	cmp	r3, #0
1000111e:	d0fc      	beq.n	1000111a <alarm_pool_alarm_callback+0x36>
10001120:	0022      	movs	r2, r4
10001122:	9407      	str	r4, [sp, #28]
10001124:	f3bf 8f5f 	dmb	sy
10001128:	6824      	ldr	r4, [r4, #0]
1000112a:	7b63      	ldrb	r3, [r4, #13]
1000112c:	4699      	mov	r9, r3
1000112e:	2b00      	cmp	r3, #0
10001130:	d100      	bne.n	10001134 <alarm_pool_alarm_callback+0x50>
10001132:	e070      	b.n	10001216 <alarm_pool_alarm_callback+0x132>
10001134:	6892      	ldr	r2, [r2, #8]
10001136:	4b62      	ldr	r3, [pc, #392]	; (100012c0 <alarm_pool_alarm_callback+0x1dc>)
10001138:	4690      	mov	r8, r2
1000113a:	444b      	add	r3, r9
1000113c:	011b      	lsls	r3, r3, #4
1000113e:	4498      	add	r8, r3
10001140:	4643      	mov	r3, r8
10001142:	681a      	ldr	r2, [r3, #0]
10001144:	685b      	ldr	r3, [r3, #4]
10001146:	0010      	movs	r0, r2
10001148:	0019      	movs	r1, r3
1000114a:	1b80      	subs	r0, r0, r6
1000114c:	41b9      	sbcs	r1, r7
1000114e:	2900      	cmp	r1, #0
10001150:	dd68      	ble.n	10001224 <alarm_pool_alarm_callback+0x140>
10001152:	980b      	ldr	r0, [sp, #44]	; 0x2c
10001154:	f000 fac4 	bl	100016e0 <hardware_alarm_set_target>
10001158:	2300      	movs	r3, #0
1000115a:	2600      	movs	r6, #0
1000115c:	4698      	mov	r8, r3
1000115e:	2700      	movs	r7, #0
10001160:	469a      	mov	sl, r3
10001162:	9c07      	ldr	r4, [sp, #28]
10001164:	6863      	ldr	r3, [r4, #4]
10001166:	f3bf 8f5f 	dmb	sy
1000116a:	465a      	mov	r2, fp
1000116c:	601a      	str	r2, [r3, #0]
1000116e:	f385 8810 	msr	PRIMASK, r5
10001172:	4653      	mov	r3, sl
10001174:	2b00      	cmp	r3, #0
10001176:	d108      	bne.n	1000118a <alarm_pool_alarm_callback+0xa6>
10001178:	2800      	cmp	r0, #0
1000117a:	d1c5      	bne.n	10001108 <alarm_pool_alarm_callback+0x24>
1000117c:	b00d      	add	sp, #52	; 0x34
1000117e:	bc3c      	pop	{r2, r3, r4, r5}
10001180:	4690      	mov	r8, r2
10001182:	4699      	mov	r9, r3
10001184:	46a2      	mov	sl, r4
10001186:	46ab      	mov	fp, r5
10001188:	bdf0      	pop	{r4, r5, r6, r7, pc}
1000118a:	23d0      	movs	r3, #208	; 0xd0
1000118c:	2280      	movs	r2, #128	; 0x80
1000118e:	2180      	movs	r1, #128	; 0x80
10001190:	061b      	lsls	r3, r3, #24
10001192:	0392      	lsls	r2, r2, #14
10001194:	0309      	lsls	r1, r1, #12
10001196:	615a      	str	r2, [r3, #20]
10001198:	6199      	str	r1, [r3, #24]
1000119a:	619a      	str	r2, [r3, #24]
1000119c:	9b0a      	ldr	r3, [sp, #40]	; 0x28
1000119e:	4641      	mov	r1, r8
100011a0:	0218      	lsls	r0, r3, #8
100011a2:	464b      	mov	r3, r9
100011a4:	4318      	orrs	r0, r3
100011a6:	47d0      	blx	sl
100011a8:	9008      	str	r0, [sp, #32]
100011aa:	9109      	str	r1, [sp, #36]	; 0x24
100011ac:	6862      	ldr	r2, [r4, #4]
100011ae:	f3ef 8510 	mrs	r5, PRIMASK
100011b2:	b672      	cpsid	i
100011b4:	6813      	ldr	r3, [r2, #0]
100011b6:	2b00      	cmp	r3, #0
100011b8:	d0fc      	beq.n	100011b4 <alarm_pool_alarm_callback+0xd0>
100011ba:	9407      	str	r4, [sp, #28]
100011bc:	f3bf 8f5f 	dmb	sy
100011c0:	9908      	ldr	r1, [sp, #32]
100011c2:	9a09      	ldr	r2, [sp, #36]	; 0x24
100011c4:	2a00      	cmp	r2, #0
100011c6:	db49      	blt.n	1000125c <alarm_pool_alarm_callback+0x178>
100011c8:	4311      	orrs	r1, r2
100011ca:	d003      	beq.n	100011d4 <alarm_pool_alarm_callback+0xf0>
100011cc:	9b07      	ldr	r3, [sp, #28]
100011ce:	691b      	ldr	r3, [r3, #16]
100011d0:	2b00      	cmp	r3, #0
100011d2:	d15e      	bne.n	10001292 <alarm_pool_alarm_callback+0x1ae>
100011d4:	9b07      	ldr	r3, [sp, #28]
100011d6:	681b      	ldr	r3, [r3, #0]
100011d8:	7bda      	ldrb	r2, [r3, #15]
100011da:	2a00      	cmp	r2, #0
100011dc:	d007      	beq.n	100011ee <alarm_pool_alarm_callback+0x10a>
100011de:	0051      	lsls	r1, r2, #1
100011e0:	188a      	adds	r2, r1, r2
100011e2:	6819      	ldr	r1, [r3, #0]
100011e4:	468c      	mov	ip, r1
100011e6:	4649      	mov	r1, r9
100011e8:	4462      	add	r2, ip
100011ea:	3a03      	subs	r2, #3
100011ec:	7051      	strb	r1, [r2, #1]
100011ee:	464a      	mov	r2, r9
100011f0:	73da      	strb	r2, [r3, #15]
100011f2:	464b      	mov	r3, r9
100011f4:	9a07      	ldr	r2, [sp, #28]
100011f6:	3b01      	subs	r3, #1
100011f8:	68d1      	ldr	r1, [r2, #12]
100011fa:	5cca      	ldrb	r2, [r1, r3]
100011fc:	3201      	adds	r2, #1
100011fe:	54ca      	strb	r2, [r1, r3]
10001200:	465b      	mov	r3, fp
10001202:	9a07      	ldr	r2, [sp, #28]
10001204:	6113      	str	r3, [r2, #16]
10001206:	6853      	ldr	r3, [r2, #4]
10001208:	f3bf 8f5f 	dmb	sy
1000120c:	465a      	mov	r2, fp
1000120e:	601a      	str	r2, [r3, #0]
10001210:	f385 8810 	msr	PRIMASK, r5
10001214:	e778      	b.n	10001108 <alarm_pool_alarm_callback+0x24>
10001216:	2300      	movs	r3, #0
10001218:	2600      	movs	r6, #0
1000121a:	4698      	mov	r8, r3
1000121c:	2700      	movs	r7, #0
1000121e:	469a      	mov	sl, r3
10001220:	2000      	movs	r0, #0
10001222:	e79e      	b.n	10001162 <alarm_pool_alarm_callback+0x7e>
10001224:	2900      	cmp	r1, #0
10001226:	d102      	bne.n	1000122e <alarm_pool_alarm_callback+0x14a>
10001228:	2800      	cmp	r0, #0
1000122a:	d000      	beq.n	1000122e <alarm_pool_alarm_callback+0x14a>
1000122c:	e791      	b.n	10001152 <alarm_pool_alarm_callback+0x6e>
1000122e:	2101      	movs	r1, #1
10001230:	0020      	movs	r0, r4
10001232:	f000 fc25 	bl	10001a80 <ph_remove_head_reserve>
10001236:	4643      	mov	r3, r8
10001238:	681e      	ldr	r6, [r3, #0]
1000123a:	685f      	ldr	r7, [r3, #4]
1000123c:	689b      	ldr	r3, [r3, #8]
1000123e:	9a07      	ldr	r2, [sp, #28]
10001240:	469a      	mov	sl, r3
10001242:	4643      	mov	r3, r8
10001244:	68db      	ldr	r3, [r3, #12]
10001246:	4698      	mov	r8, r3
10001248:	68d3      	ldr	r3, [r2, #12]
1000124a:	444b      	add	r3, r9
1000124c:	3b01      	subs	r3, #1
1000124e:	781b      	ldrb	r3, [r3, #0]
10001250:	930a      	str	r3, [sp, #40]	; 0x28
10001252:	021b      	lsls	r3, r3, #8
10001254:	4303      	orrs	r3, r0
10001256:	6113      	str	r3, [r2, #16]
10001258:	2000      	movs	r0, #0
1000125a:	e782      	b.n	10001162 <alarm_pool_alarm_callback+0x7e>
1000125c:	6923      	ldr	r3, [r4, #16]
1000125e:	2b00      	cmp	r3, #0
10001260:	d0b8      	beq.n	100011d4 <alarm_pool_alarm_callback+0xf0>
10001262:	0033      	movs	r3, r6
10001264:	003c      	movs	r4, r7
10001266:	1a5b      	subs	r3, r3, r1
10001268:	4194      	sbcs	r4, r2
1000126a:	001a      	movs	r2, r3
1000126c:	0023      	movs	r3, r4
1000126e:	42a7      	cmp	r7, r4
10001270:	d819      	bhi.n	100012a6 <alarm_pool_alarm_callback+0x1c2>
10001272:	429f      	cmp	r7, r3
10001274:	d01b      	beq.n	100012ae <alarm_pool_alarm_callback+0x1ca>
10001276:	4659      	mov	r1, fp
10001278:	9104      	str	r1, [sp, #16]
1000127a:	2101      	movs	r1, #1
1000127c:	9103      	str	r1, [sp, #12]
1000127e:	4649      	mov	r1, r9
10001280:	9102      	str	r1, [sp, #8]
10001282:	4641      	mov	r1, r8
10001284:	9101      	str	r1, [sp, #4]
10001286:	4651      	mov	r1, sl
10001288:	9807      	ldr	r0, [sp, #28]
1000128a:	9100      	str	r1, [sp, #0]
1000128c:	f7ff fe94 	bl	10000fb8 <add_alarm_under_lock>
10001290:	e7b6      	b.n	10001200 <alarm_pool_alarm_callback+0x11c>
10001292:	f000 f9d5 	bl	10001640 <time_us_64>
10001296:	9a08      	ldr	r2, [sp, #32]
10001298:	9b09      	ldr	r3, [sp, #36]	; 0x24
1000129a:	0006      	movs	r6, r0
1000129c:	000f      	movs	r7, r1
1000129e:	1992      	adds	r2, r2, r6
100012a0:	417b      	adcs	r3, r7
100012a2:	4299      	cmp	r1, r3
100012a4:	d9e5      	bls.n	10001272 <alarm_pool_alarm_callback+0x18e>
100012a6:	2201      	movs	r2, #1
100012a8:	4252      	negs	r2, r2
100012aa:	17d3      	asrs	r3, r2, #31
100012ac:	e7e3      	b.n	10001276 <alarm_pool_alarm_callback+0x192>
100012ae:	4296      	cmp	r6, r2
100012b0:	d9e1      	bls.n	10001276 <alarm_pool_alarm_callback+0x192>
100012b2:	2201      	movs	r2, #1
100012b4:	4252      	negs	r2, r2
100012b6:	17d3      	asrs	r3, r2, #31
100012b8:	e7dd      	b.n	10001276 <alarm_pool_alarm_callback+0x192>
100012ba:	46c0      	nop			; (mov r8, r8)
100012bc:	20005cf8 	.word	0x20005cf8
100012c0:	0fffffff 	.word	0x0fffffff

100012c4 <alarm_pool_init_default>:
100012c4:	b570      	push	{r4, r5, r6, lr}
100012c6:	4c18      	ldr	r4, [pc, #96]	; (10001328 <alarm_pool_init_default+0x64>)
100012c8:	6823      	ldr	r3, [r4, #0]
100012ca:	2b00      	cmp	r3, #0
100012cc:	d000      	beq.n	100012d0 <alarm_pool_init_default+0xc>
100012ce:	bd70      	pop	{r4, r5, r6, pc}
100012d0:	2003      	movs	r0, #3
100012d2:	f000 f9a9 	bl	10001628 <hardware_alarm_claim>
100012d6:	2003      	movs	r0, #3
100012d8:	f000 fa64 	bl	100017a4 <hardware_alarm_cancel>
100012dc:	4913      	ldr	r1, [pc, #76]	; (1000132c <alarm_pool_init_default+0x68>)
100012de:	2003      	movs	r0, #3
100012e0:	f000 f9b8 	bl	10001654 <hardware_alarm_set_callback>
100012e4:	2018      	movs	r0, #24
100012e6:	f001 fa41 	bl	1000276c <__wrap_malloc>
100012ea:	0005      	movs	r5, r0
100012ec:	f7ff fdca 	bl	10000e84 <next_striped_spin_lock_num>
100012f0:	4b0f      	ldr	r3, [pc, #60]	; (10001330 <alarm_pool_init_default+0x6c>)
100012f2:	002a      	movs	r2, r5
100012f4:	469c      	mov	ip, r3
100012f6:	4460      	add	r0, ip
100012f8:	0080      	lsls	r0, r0, #2
100012fa:	490e      	ldr	r1, [pc, #56]	; (10001334 <alarm_pool_init_default+0x70>)
100012fc:	6068      	str	r0, [r5, #4]
100012fe:	2010      	movs	r0, #16
10001300:	f000 fac8 	bl	10001894 <ph_create>
10001304:	2110      	movs	r1, #16
10001306:	6028      	str	r0, [r5, #0]
10001308:	2010      	movs	r0, #16
1000130a:	f001 fa33 	bl	10002774 <__wrap_calloc>
1000130e:	2101      	movs	r1, #1
10001310:	60a8      	str	r0, [r5, #8]
10001312:	2010      	movs	r0, #16
10001314:	f001 fa2e 	bl	10002774 <__wrap_calloc>
10001318:	2303      	movs	r3, #3
1000131a:	752b      	strb	r3, [r5, #20]
1000131c:	4b06      	ldr	r3, [pc, #24]	; (10001338 <alarm_pool_init_default+0x74>)
1000131e:	60e8      	str	r0, [r5, #12]
10001320:	60dd      	str	r5, [r3, #12]
10001322:	6025      	str	r5, [r4, #0]
10001324:	e7d3      	b.n	100012ce <alarm_pool_init_default+0xa>
10001326:	46c0      	nop			; (mov r8, r8)
10001328:	200056a0 	.word	0x200056a0
1000132c:	100010e5 	.word	0x100010e5
10001330:	34000040 	.word	0x34000040
10001334:	10000f85 	.word	0x10000f85
10001338:	20005cf8 	.word	0x20005cf8

1000133c <alarm_pool_get_default>:
1000133c:	4b01      	ldr	r3, [pc, #4]	; (10001344 <alarm_pool_get_default+0x8>)
1000133e:	6818      	ldr	r0, [r3, #0]
10001340:	4770      	bx	lr
10001342:	46c0      	nop			; (mov r8, r8)
10001344:	200056a0 	.word	0x200056a0

10001348 <alarm_pool_add_alarm_at>:
10001348:	b5f0      	push	{r4, r5, r6, r7, lr}
1000134a:	464e      	mov	r6, r9
1000134c:	4657      	mov	r7, sl
1000134e:	46de      	mov	lr, fp
10001350:	4645      	mov	r5, r8
10001352:	b5e0      	push	{r5, r6, r7, lr}
10001354:	b085      	sub	sp, #20
10001356:	9301      	str	r3, [sp, #4]
10001358:	ab10      	add	r3, sp, #64	; 0x40
1000135a:	781b      	ldrb	r3, [r3, #0]
1000135c:	0006      	movs	r6, r0
1000135e:	9303      	str	r3, [sp, #12]
10001360:	2300      	movs	r3, #0
10001362:	469a      	mov	sl, r3
10001364:	23d0      	movs	r3, #208	; 0xd0
10001366:	061b      	lsls	r3, r3, #24
10001368:	4699      	mov	r9, r3
1000136a:	9200      	str	r2, [sp, #0]
1000136c:	6872      	ldr	r2, [r6, #4]
1000136e:	f3ef 8b10 	mrs	fp, PRIMASK
10001372:	b672      	cpsid	i
10001374:	6813      	ldr	r3, [r2, #0]
10001376:	2b00      	cmp	r3, #0
10001378:	d0fc      	beq.n	10001374 <alarm_pool_add_alarm_at+0x2c>
1000137a:	f3bf 8f5f 	dmb	sy
1000137e:	6835      	ldr	r5, [r6, #0]
10001380:	7bac      	ldrb	r4, [r5, #14]
10001382:	2c00      	cmp	r4, #0
10001384:	d100      	bne.n	10001388 <alarm_pool_add_alarm_at+0x40>
10001386:	e088      	b.n	1000149a <alarm_pool_add_alarm_at+0x152>
10001388:	0067      	lsls	r7, r4, #1
1000138a:	682b      	ldr	r3, [r5, #0]
1000138c:	193f      	adds	r7, r7, r4
1000138e:	3f03      	subs	r7, #3
10001390:	19db      	adds	r3, r3, r7
10001392:	785b      	ldrb	r3, [r3, #1]
10001394:	73ab      	strb	r3, [r5, #14]
10001396:	2b00      	cmp	r3, #0
10001398:	d100      	bne.n	1000139c <alarm_pool_add_alarm_at+0x54>
1000139a:	73eb      	strb	r3, [r5, #15]
1000139c:	68b2      	ldr	r2, [r6, #8]
1000139e:	4b57      	ldr	r3, [pc, #348]	; (100014fc <alarm_pool_add_alarm_at+0x1b4>)
100013a0:	4694      	mov	ip, r2
100013a2:	9900      	ldr	r1, [sp, #0]
100013a4:	9a01      	ldr	r2, [sp, #4]
100013a6:	18e3      	adds	r3, r4, r3
100013a8:	011b      	lsls	r3, r3, #4
100013aa:	4463      	add	r3, ip
100013ac:	6019      	str	r1, [r3, #0]
100013ae:	605a      	str	r2, [r3, #4]
100013b0:	9a0e      	ldr	r2, [sp, #56]	; 0x38
100013b2:	609a      	str	r2, [r3, #8]
100013b4:	9a0f      	ldr	r2, [sp, #60]	; 0x3c
100013b6:	60da      	str	r2, [r3, #12]
100013b8:	2280      	movs	r2, #128	; 0x80
100013ba:	464b      	mov	r3, r9
100013bc:	0312      	lsls	r2, r2, #12
100013be:	615a      	str	r2, [r3, #20]
100013c0:	2200      	movs	r2, #0
100013c2:	682b      	ldr	r3, [r5, #0]
100013c4:	19db      	adds	r3, r3, r7
100013c6:	709a      	strb	r2, [r3, #2]
100013c8:	705a      	strb	r2, [r3, #1]
100013ca:	701a      	strb	r2, [r3, #0]
100013cc:	7b6b      	ldrb	r3, [r5, #13]
100013ce:	4698      	mov	r8, r3
100013d0:	2b00      	cmp	r3, #0
100013d2:	d100      	bne.n	100013d6 <alarm_pool_add_alarm_at+0x8e>
100013d4:	e080      	b.n	100014d8 <alarm_pool_add_alarm_at+0x190>
100013d6:	0022      	movs	r2, r4
100013d8:	0019      	movs	r1, r3
100013da:	68a8      	ldr	r0, [r5, #8]
100013dc:	686b      	ldr	r3, [r5, #4]
100013de:	4798      	blx	r3
100013e0:	682a      	ldr	r2, [r5, #0]
100013e2:	2800      	cmp	r0, #0
100013e4:	d06b      	beq.n	100014be <alarm_pool_add_alarm_at+0x176>
100013e6:	4643      	mov	r3, r8
100013e8:	4640      	mov	r0, r8
100013ea:	005b      	lsls	r3, r3, #1
100013ec:	4443      	add	r3, r8
100013ee:	19d7      	adds	r7, r2, r7
100013f0:	3b03      	subs	r3, #3
100013f2:	70b8      	strb	r0, [r7, #2]
100013f4:	18d1      	adds	r1, r2, r3
100013f6:	5cd3      	ldrb	r3, [r2, r3]
100013f8:	2b00      	cmp	r3, #0
100013fa:	d000      	beq.n	100013fe <alarm_pool_add_alarm_at+0xb6>
100013fc:	707b      	strb	r3, [r7, #1]
100013fe:	4643      	mov	r3, r8
10001400:	700c      	strb	r4, [r1, #0]
10001402:	736b      	strb	r3, [r5, #13]
10001404:	4544      	cmp	r4, r8
10001406:	d068      	beq.n	100014da <alarm_pool_add_alarm_at+0x192>
10001408:	68f3      	ldr	r3, [r6, #12]
1000140a:	191b      	adds	r3, r3, r4
1000140c:	3b01      	subs	r3, #1
1000140e:	7818      	ldrb	r0, [r3, #0]
10001410:	6873      	ldr	r3, [r6, #4]
10001412:	f3bf 8f5f 	dmb	sy
10001416:	2200      	movs	r2, #0
10001418:	601a      	str	r2, [r3, #0]
1000141a:	f38b 8810 	msr	PRIMASK, fp
1000141e:	4653      	mov	r3, sl
10001420:	2b00      	cmp	r3, #0
10001422:	d108      	bne.n	10001436 <alarm_pool_add_alarm_at+0xee>
10001424:	0200      	lsls	r0, r0, #8
10001426:	4320      	orrs	r0, r4
10001428:	b005      	add	sp, #20
1000142a:	bc3c      	pop	{r2, r3, r4, r5}
1000142c:	4690      	mov	r8, r2
1000142e:	4699      	mov	r9, r3
10001430:	46a2      	mov	sl, r4
10001432:	46ab      	mov	fp, r5
10001434:	bdf0      	pop	{r4, r5, r6, r7, pc}
10001436:	9b03      	ldr	r3, [sp, #12]
10001438:	2b00      	cmp	r3, #0
1000143a:	d05c      	beq.n	100014f6 <alarm_pool_add_alarm_at+0x1ae>
1000143c:	9b0e      	ldr	r3, [sp, #56]	; 0x38
1000143e:	2000      	movs	r0, #0
10001440:	990f      	ldr	r1, [sp, #60]	; 0x3c
10001442:	4798      	blx	r3
10001444:	0003      	movs	r3, r0
10001446:	0004      	movs	r4, r0
10001448:	000d      	movs	r5, r1
1000144a:	430b      	orrs	r3, r1
1000144c:	d053      	beq.n	100014f6 <alarm_pool_add_alarm_at+0x1ae>
1000144e:	2900      	cmp	r1, #0
10001450:	da0d      	bge.n	1000146e <alarm_pool_add_alarm_at+0x126>
10001452:	9800      	ldr	r0, [sp, #0]
10001454:	9901      	ldr	r1, [sp, #4]
10001456:	0002      	movs	r2, r0
10001458:	000b      	movs	r3, r1
1000145a:	1b12      	subs	r2, r2, r4
1000145c:	41ab      	sbcs	r3, r5
1000145e:	4299      	cmp	r1, r3
10001460:	d815      	bhi.n	1000148e <alarm_pool_add_alarm_at+0x146>
10001462:	d023      	beq.n	100014ac <alarm_pool_add_alarm_at+0x164>
10001464:	9200      	str	r2, [sp, #0]
10001466:	9301      	str	r3, [sp, #4]
10001468:	9b03      	ldr	r3, [sp, #12]
1000146a:	469a      	mov	sl, r3
1000146c:	e77e      	b.n	1000136c <alarm_pool_add_alarm_at+0x24>
1000146e:	f000 f8e7 	bl	10001640 <time_us_64>
10001472:	0002      	movs	r2, r0
10001474:	000b      	movs	r3, r1
10001476:	18a4      	adds	r4, r4, r2
10001478:	415d      	adcs	r5, r3
1000147a:	0020      	movs	r0, r4
1000147c:	0029      	movs	r1, r5
1000147e:	9000      	str	r0, [sp, #0]
10001480:	9101      	str	r1, [sp, #4]
10001482:	42ab      	cmp	r3, r5
10001484:	d803      	bhi.n	1000148e <alarm_pool_add_alarm_at+0x146>
10001486:	d1ef      	bne.n	10001468 <alarm_pool_add_alarm_at+0x120>
10001488:	9900      	ldr	r1, [sp, #0]
1000148a:	428a      	cmp	r2, r1
1000148c:	d9ec      	bls.n	10001468 <alarm_pool_add_alarm_at+0x120>
1000148e:	2301      	movs	r3, #1
10001490:	425b      	negs	r3, r3
10001492:	17dc      	asrs	r4, r3, #31
10001494:	9300      	str	r3, [sp, #0]
10001496:	9401      	str	r4, [sp, #4]
10001498:	e7e6      	b.n	10001468 <alarm_pool_add_alarm_at+0x120>
1000149a:	6873      	ldr	r3, [r6, #4]
1000149c:	f3bf 8f5f 	dmb	sy
100014a0:	601c      	str	r4, [r3, #0]
100014a2:	f38b 8810 	msr	PRIMASK, fp
100014a6:	2001      	movs	r0, #1
100014a8:	4240      	negs	r0, r0
100014aa:	e7bd      	b.n	10001428 <alarm_pool_add_alarm_at+0xe0>
100014ac:	9900      	ldr	r1, [sp, #0]
100014ae:	4291      	cmp	r1, r2
100014b0:	d9d8      	bls.n	10001464 <alarm_pool_add_alarm_at+0x11c>
100014b2:	2301      	movs	r3, #1
100014b4:	425b      	negs	r3, r3
100014b6:	17dc      	asrs	r4, r3, #31
100014b8:	9300      	str	r3, [sp, #0]
100014ba:	9401      	str	r4, [sp, #4]
100014bc:	e7d4      	b.n	10001468 <alarm_pool_add_alarm_at+0x120>
100014be:	4643      	mov	r3, r8
100014c0:	005b      	lsls	r3, r3, #1
100014c2:	4443      	add	r3, r8
100014c4:	3b03      	subs	r3, #3
100014c6:	18d3      	adds	r3, r2, r3
100014c8:	709c      	strb	r4, [r3, #2]
100014ca:	19d1      	adds	r1, r2, r7
100014cc:	5dd2      	ldrb	r2, [r2, r7]
100014ce:	2a00      	cmp	r2, #0
100014d0:	d000      	beq.n	100014d4 <alarm_pool_add_alarm_at+0x18c>
100014d2:	705a      	strb	r2, [r3, #1]
100014d4:	4643      	mov	r3, r8
100014d6:	700b      	strb	r3, [r1, #0]
100014d8:	736c      	strb	r4, [r5, #13]
100014da:	7d30      	ldrb	r0, [r6, #20]
100014dc:	9a00      	ldr	r2, [sp, #0]
100014de:	9b01      	ldr	r3, [sp, #4]
100014e0:	f000 f8fe 	bl	100016e0 <hardware_alarm_set_target>
100014e4:	4682      	mov	sl, r0
100014e6:	2800      	cmp	r0, #0
100014e8:	d100      	bne.n	100014ec <alarm_pool_add_alarm_at+0x1a4>
100014ea:	e78d      	b.n	10001408 <alarm_pool_add_alarm_at+0xc0>
100014ec:	0021      	movs	r1, r4
100014ee:	6830      	ldr	r0, [r6, #0]
100014f0:	f000 fb64 	bl	10001bbc <ph_delete>
100014f4:	e788      	b.n	10001408 <alarm_pool_add_alarm_at+0xc0>
100014f6:	2000      	movs	r0, #0
100014f8:	e796      	b.n	10001428 <alarm_pool_add_alarm_at+0xe0>
100014fa:	46c0      	nop			; (mov r8, r8)
100014fc:	0fffffff 	.word	0x0fffffff

10001500 <alarm_pool_cancel_alarm>:
10001500:	b570      	push	{r4, r5, r6, lr}
10001502:	6842      	ldr	r2, [r0, #4]
10001504:	0004      	movs	r4, r0
10001506:	f3ef 8510 	mrs	r5, PRIMASK
1000150a:	b672      	cpsid	i
1000150c:	6813      	ldr	r3, [r2, #0]
1000150e:	2b00      	cmp	r3, #0
10001510:	d0fc      	beq.n	1000150c <alarm_pool_cancel_alarm+0xc>
10001512:	f3bf 8f5f 	dmb	sy
10001516:	6820      	ldr	r0, [r4, #0]
10001518:	b2ca      	uxtb	r2, r1
1000151a:	7b43      	ldrb	r3, [r0, #13]
1000151c:	4293      	cmp	r3, r2
1000151e:	d00a      	beq.n	10001536 <alarm_pool_cancel_alarm+0x36>
10001520:	23ff      	movs	r3, #255	; 0xff
10001522:	400b      	ands	r3, r1
10001524:	005e      	lsls	r6, r3, #1
10001526:	18f3      	adds	r3, r6, r3
10001528:	6806      	ldr	r6, [r0, #0]
1000152a:	46b4      	mov	ip, r6
1000152c:	4463      	add	r3, ip
1000152e:	3b03      	subs	r3, #3
10001530:	789b      	ldrb	r3, [r3, #2]
10001532:	2b00      	cmp	r3, #0
10001534:	d013      	beq.n	1000155e <alarm_pool_cancel_alarm+0x5e>
10001536:	68e6      	ldr	r6, [r4, #12]
10001538:	23ff      	movs	r3, #255	; 0xff
1000153a:	46b4      	mov	ip, r6
1000153c:	400b      	ands	r3, r1
1000153e:	4463      	add	r3, ip
10001540:	3b01      	subs	r3, #1
10001542:	0a09      	lsrs	r1, r1, #8
10001544:	781e      	ldrb	r6, [r3, #0]
10001546:	b2c9      	uxtb	r1, r1
10001548:	428e      	cmp	r6, r1
1000154a:	d00d      	beq.n	10001568 <alarm_pool_cancel_alarm+0x68>
1000154c:	2000      	movs	r0, #0
1000154e:	6863      	ldr	r3, [r4, #4]
10001550:	f3bf 8f5f 	dmb	sy
10001554:	2200      	movs	r2, #0
10001556:	601a      	str	r2, [r3, #0]
10001558:	f385 8810 	msr	PRIMASK, r5
1000155c:	bd70      	pop	{r4, r5, r6, pc}
1000155e:	6922      	ldr	r2, [r4, #16]
10001560:	428a      	cmp	r2, r1
10001562:	d1f3      	bne.n	1000154c <alarm_pool_cancel_alarm+0x4c>
10001564:	6123      	str	r3, [r4, #16]
10001566:	e7f1      	b.n	1000154c <alarm_pool_cancel_alarm+0x4c>
10001568:	0011      	movs	r1, r2
1000156a:	f000 fb27 	bl	10001bbc <ph_delete>
1000156e:	e7ee      	b.n	1000154e <alarm_pool_cancel_alarm+0x4e>

10001570 <hardware_alarm_irq_handler>:
10001570:	b5f0      	push	{r4, r5, r6, r7, lr}
10001572:	46d6      	mov	lr, sl
10001574:	464f      	mov	r7, r9
10001576:	4646      	mov	r6, r8
10001578:	b5c0      	push	{r6, r7, lr}
1000157a:	f3ef 8305 	mrs	r3, IPSR
1000157e:	223f      	movs	r2, #63	; 0x3f
10001580:	4013      	ands	r3, r2
10001582:	0018      	movs	r0, r3
10001584:	3810      	subs	r0, #16
10001586:	f3ef 8c10 	mrs	ip, PRIMASK
1000158a:	b672      	cpsid	i
1000158c:	4d20      	ldr	r5, [pc, #128]	; (10001610 <hardware_alarm_irq_handler+0xa0>)
1000158e:	682a      	ldr	r2, [r5, #0]
10001590:	2a00      	cmp	r2, #0
10001592:	d0fc      	beq.n	1000158e <hardware_alarm_irq_handler+0x1e>
10001594:	f3bf 8f5f 	dmb	sy
10001598:	2201      	movs	r2, #1
1000159a:	0011      	movs	r1, r2
1000159c:	4081      	lsls	r1, r0
1000159e:	4c1d      	ldr	r4, [pc, #116]	; (10001614 <hardware_alarm_irq_handler+0xa4>)
100015a0:	4688      	mov	r8, r1
100015a2:	6361      	str	r1, [r4, #52]	; 0x34
100015a4:	491c      	ldr	r1, [pc, #112]	; (10001618 <hardware_alarm_irq_handler+0xa8>)
100015a6:	0017      	movs	r7, r2
100015a8:	780e      	ldrb	r6, [r1, #0]
100015aa:	468a      	mov	sl, r1
100015ac:	0031      	movs	r1, r6
100015ae:	40c1      	lsrs	r1, r0
100015b0:	400f      	ands	r7, r1
100015b2:	420a      	tst	r2, r1
100015b4:	d015      	beq.n	100015e2 <hardware_alarm_irq_handler+0x72>
100015b6:	4919      	ldr	r1, [pc, #100]	; (1000161c <hardware_alarm_irq_handler+0xac>)
100015b8:	0082      	lsls	r2, r0, #2
100015ba:	6a64      	ldr	r4, [r4, #36]	; 0x24
100015bc:	5851      	ldr	r1, [r2, r1]
100015be:	428c      	cmp	r4, r1
100015c0:	d319      	bcc.n	100015f6 <hardware_alarm_irq_handler+0x86>
100015c2:	4b17      	ldr	r3, [pc, #92]	; (10001620 <hardware_alarm_irq_handler+0xb0>)
100015c4:	58d2      	ldr	r2, [r2, r3]
100015c6:	4643      	mov	r3, r8
100015c8:	439e      	bics	r6, r3
100015ca:	4653      	mov	r3, sl
100015cc:	701e      	strb	r6, [r3, #0]
100015ce:	f3bf 8f5f 	dmb	sy
100015d2:	2300      	movs	r3, #0
100015d4:	602b      	str	r3, [r5, #0]
100015d6:	f38c 8810 	msr	PRIMASK, ip
100015da:	2a00      	cmp	r2, #0
100015dc:	d006      	beq.n	100015ec <hardware_alarm_irq_handler+0x7c>
100015de:	4790      	blx	r2
100015e0:	e004      	b.n	100015ec <hardware_alarm_irq_handler+0x7c>
100015e2:	f3bf 8f5f 	dmb	sy
100015e6:	602f      	str	r7, [r5, #0]
100015e8:	f38c 8810 	msr	PRIMASK, ip
100015ec:	bc1c      	pop	{r2, r3, r4}
100015ee:	4690      	mov	r8, r2
100015f0:	4699      	mov	r9, r3
100015f2:	46a2      	mov	sl, r4
100015f4:	bdf0      	pop	{r4, r5, r6, r7, pc}
100015f6:	4a0b      	ldr	r2, [pc, #44]	; (10001624 <hardware_alarm_irq_handler+0xb4>)
100015f8:	009b      	lsls	r3, r3, #2
100015fa:	4690      	mov	r8, r2
100015fc:	4443      	add	r3, r8
100015fe:	681a      	ldr	r2, [r3, #0]
10001600:	601a      	str	r2, [r3, #0]
10001602:	f3bf 8f5f 	dmb	sy
10001606:	2300      	movs	r3, #0
10001608:	602b      	str	r3, [r5, #0]
1000160a:	f38c 8810 	msr	PRIMASK, ip
1000160e:	e7ed      	b.n	100015ec <hardware_alarm_irq_handler+0x7c>
10001610:	d0000128 	.word	0xd0000128
10001614:	40054000 	.word	0x40054000
10001618:	2000f5e1 	.word	0x2000f5e1
1000161c:	2000f5cc 	.word	0x2000f5cc
10001620:	20000b64 	.word	0x20000b64
10001624:	40053fd0 	.word	0x40053fd0

10001628 <hardware_alarm_claim>:
10001628:	b510      	push	{r4, lr}
1000162a:	0001      	movs	r1, r0
1000162c:	4a02      	ldr	r2, [pc, #8]	; (10001638 <hardware_alarm_claim+0x10>)
1000162e:	4803      	ldr	r0, [pc, #12]	; (1000163c <hardware_alarm_claim+0x14>)
10001630:	f7ff fbea 	bl	10000e08 <hw_claim_or_assert>
10001634:	bd10      	pop	{r4, pc}
10001636:	46c0      	nop			; (mov r8, r8)
10001638:	100036fc 	.word	0x100036fc
1000163c:	2000f5de 	.word	0x2000f5de

10001640 <time_us_64>:
10001640:	4b03      	ldr	r3, [pc, #12]	; (10001650 <time_us_64+0x10>)
10001642:	6a59      	ldr	r1, [r3, #36]	; 0x24
10001644:	000a      	movs	r2, r1
10001646:	6a98      	ldr	r0, [r3, #40]	; 0x28
10001648:	6a59      	ldr	r1, [r3, #36]	; 0x24
1000164a:	428a      	cmp	r2, r1
1000164c:	d1fa      	bne.n	10001644 <time_us_64+0x4>
1000164e:	4770      	bx	lr
10001650:	40054000 	.word	0x40054000

10001654 <hardware_alarm_set_callback>:
10001654:	b570      	push	{r4, r5, r6, lr}
10001656:	0004      	movs	r4, r0
10001658:	000d      	movs	r5, r1
1000165a:	f3ef 8610 	mrs	r6, PRIMASK
1000165e:	b672      	cpsid	i
10001660:	4a1a      	ldr	r2, [pc, #104]	; (100016cc <hardware_alarm_set_callback+0x78>)
10001662:	6813      	ldr	r3, [r2, #0]
10001664:	2b00      	cmp	r3, #0
10001666:	d0fc      	beq.n	10001662 <hardware_alarm_set_callback+0xe>
10001668:	f3bf 8f5f 	dmb	sy
1000166c:	2d00      	cmp	r5, #0
1000166e:	d01b      	beq.n	100016a8 <hardware_alarm_set_callback+0x54>
10001670:	0020      	movs	r0, r4
10001672:	f000 fd5f 	bl	10002134 <irq_get_vtable_handler>
10001676:	4916      	ldr	r1, [pc, #88]	; (100016d0 <hardware_alarm_set_callback+0x7c>)
10001678:	4281      	cmp	r1, r0
1000167a:	d00a      	beq.n	10001692 <hardware_alarm_set_callback+0x3e>
1000167c:	0020      	movs	r0, r4
1000167e:	f000 fd61 	bl	10002144 <irq_set_exclusive_handler>
10001682:	2101      	movs	r1, #1
10001684:	0020      	movs	r0, r4
10001686:	f000 fd43 	bl	10002110 <irq_set_enabled>
1000168a:	2301      	movs	r3, #1
1000168c:	40a3      	lsls	r3, r4
1000168e:	4a11      	ldr	r2, [pc, #68]	; (100016d4 <hardware_alarm_set_callback+0x80>)
10001690:	6013      	str	r3, [r2, #0]
10001692:	4b11      	ldr	r3, [pc, #68]	; (100016d8 <hardware_alarm_set_callback+0x84>)
10001694:	00a4      	lsls	r4, r4, #2
10001696:	50e5      	str	r5, [r4, r3]
10001698:	f3bf 8f5f 	dmb	sy
1000169c:	2200      	movs	r2, #0
1000169e:	4b0b      	ldr	r3, [pc, #44]	; (100016cc <hardware_alarm_set_callback+0x78>)
100016a0:	601a      	str	r2, [r3, #0]
100016a2:	f386 8810 	msr	PRIMASK, r6
100016a6:	bd70      	pop	{r4, r5, r6, pc}
100016a8:	4b0b      	ldr	r3, [pc, #44]	; (100016d8 <hardware_alarm_set_callback+0x84>)
100016aa:	00a2      	lsls	r2, r4, #2
100016ac:	50d5      	str	r5, [r2, r3]
100016ae:	2201      	movs	r2, #1
100016b0:	40a2      	lsls	r2, r4
100016b2:	490a      	ldr	r1, [pc, #40]	; (100016dc <hardware_alarm_set_callback+0x88>)
100016b4:	0020      	movs	r0, r4
100016b6:	780b      	ldrb	r3, [r1, #0]
100016b8:	4393      	bics	r3, r2
100016ba:	700b      	strb	r3, [r1, #0]
100016bc:	4904      	ldr	r1, [pc, #16]	; (100016d0 <hardware_alarm_set_callback+0x7c>)
100016be:	f000 fd6b 	bl	10002198 <irq_remove_handler>
100016c2:	2100      	movs	r1, #0
100016c4:	0020      	movs	r0, r4
100016c6:	f000 fd23 	bl	10002110 <irq_set_enabled>
100016ca:	e7e5      	b.n	10001698 <hardware_alarm_set_callback+0x44>
100016cc:	d0000128 	.word	0xd0000128
100016d0:	10001571 	.word	0x10001571
100016d4:	40056038 	.word	0x40056038
100016d8:	20000b64 	.word	0x20000b64
100016dc:	2000f5e1 	.word	0x2000f5e1

100016e0 <hardware_alarm_set_target>:
100016e0:	b5f0      	push	{r4, r5, r6, r7, lr}
100016e2:	46ce      	mov	lr, r9
100016e4:	4647      	mov	r7, r8
100016e6:	b580      	push	{r7, lr}
100016e8:	4c2a      	ldr	r4, [pc, #168]	; (10001794 <hardware_alarm_set_target+0xb4>)
100016ea:	6a61      	ldr	r1, [r4, #36]	; 0x24
100016ec:	000d      	movs	r5, r1
100016ee:	6aa6      	ldr	r6, [r4, #40]	; 0x28
100016f0:	6a61      	ldr	r1, [r4, #36]	; 0x24
100016f2:	42a9      	cmp	r1, r5
100016f4:	d1fa      	bne.n	100016ec <hardware_alarm_set_target+0xc>
100016f6:	428b      	cmp	r3, r1
100016f8:	d807      	bhi.n	1000170a <hardware_alarm_set_target+0x2a>
100016fa:	d004      	beq.n	10001706 <hardware_alarm_set_target+0x26>
100016fc:	2001      	movs	r0, #1
100016fe:	bc0c      	pop	{r2, r3}
10001700:	4690      	mov	r8, r2
10001702:	4699      	mov	r9, r3
10001704:	bdf0      	pop	{r4, r5, r6, r7, pc}
10001706:	42b2      	cmp	r2, r6
10001708:	d9f8      	bls.n	100016fc <hardware_alarm_set_target+0x1c>
1000170a:	f3ef 8810 	mrs	r8, PRIMASK
1000170e:	b672      	cpsid	i
10001710:	4c21      	ldr	r4, [pc, #132]	; (10001798 <hardware_alarm_set_target+0xb8>)
10001712:	6821      	ldr	r1, [r4, #0]
10001714:	2900      	cmp	r1, #0
10001716:	d0fc      	beq.n	10001712 <hardware_alarm_set_target+0x32>
10001718:	f3bf 8f5f 	dmb	sy
1000171c:	2501      	movs	r5, #1
1000171e:	4085      	lsls	r5, r0
10001720:	4c1c      	ldr	r4, [pc, #112]	; (10001794 <hardware_alarm_set_target+0xb4>)
10001722:	4e1e      	ldr	r6, [pc, #120]	; (1000179c <hardware_alarm_set_target+0xbc>)
10001724:	6365      	str	r5, [r4, #52]	; 0x34
10001726:	b2e9      	uxtb	r1, r5
10001728:	468c      	mov	ip, r1
1000172a:	7831      	ldrb	r1, [r6, #0]
1000172c:	4689      	mov	r9, r1
1000172e:	4661      	mov	r1, ip
10001730:	464f      	mov	r7, r9
10001732:	4339      	orrs	r1, r7
10001734:	7031      	strb	r1, [r6, #0]
10001736:	1d01      	adds	r1, r0, #4
10001738:	0089      	lsls	r1, r1, #2
1000173a:	510a      	str	r2, [r1, r4]
1000173c:	4918      	ldr	r1, [pc, #96]	; (100017a0 <hardware_alarm_set_target+0xc0>)
1000173e:	0080      	lsls	r0, r0, #2
10001740:	5043      	str	r3, [r0, r1]
10001742:	6a21      	ldr	r1, [r4, #32]
10001744:	2000      	movs	r0, #0
10001746:	4229      	tst	r1, r5
10001748:	d00c      	beq.n	10001764 <hardware_alarm_set_target+0x84>
1000174a:	0020      	movs	r0, r4
1000174c:	6a61      	ldr	r1, [r4, #36]	; 0x24
1000174e:	000c      	movs	r4, r1
10001750:	6a87      	ldr	r7, [r0, #40]	; 0x28
10001752:	6a41      	ldr	r1, [r0, #36]	; 0x24
10001754:	42a1      	cmp	r1, r4
10001756:	d1fa      	bne.n	1000174e <hardware_alarm_set_target+0x6e>
10001758:	428b      	cmp	r3, r1
1000175a:	d802      	bhi.n	10001762 <hardware_alarm_set_target+0x82>
1000175c:	d10a      	bne.n	10001774 <hardware_alarm_set_target+0x94>
1000175e:	42ba      	cmp	r2, r7
10001760:	d908      	bls.n	10001774 <hardware_alarm_set_target+0x94>
10001762:	2000      	movs	r0, #0
10001764:	f3bf 8f5f 	dmb	sy
10001768:	2200      	movs	r2, #0
1000176a:	4b0b      	ldr	r3, [pc, #44]	; (10001798 <hardware_alarm_set_target+0xb8>)
1000176c:	601a      	str	r2, [r3, #0]
1000176e:	f388 8810 	msr	PRIMASK, r8
10001772:	e7c4      	b.n	100016fe <hardware_alarm_set_target+0x1e>
10001774:	4b07      	ldr	r3, [pc, #28]	; (10001794 <hardware_alarm_set_target+0xb4>)
10001776:	464f      	mov	r7, r9
10001778:	621d      	str	r5, [r3, #32]
1000177a:	635d      	str	r5, [r3, #52]	; 0x34
1000177c:	4663      	mov	r3, ip
1000177e:	439f      	bics	r7, r3
10001780:	2001      	movs	r0, #1
10001782:	7037      	strb	r7, [r6, #0]
10001784:	f3bf 8f5f 	dmb	sy
10001788:	2200      	movs	r2, #0
1000178a:	4b03      	ldr	r3, [pc, #12]	; (10001798 <hardware_alarm_set_target+0xb8>)
1000178c:	601a      	str	r2, [r3, #0]
1000178e:	f388 8810 	msr	PRIMASK, r8
10001792:	e7b4      	b.n	100016fe <hardware_alarm_set_target+0x1e>
10001794:	40054000 	.word	0x40054000
10001798:	d0000128 	.word	0xd0000128
1000179c:	2000f5e1 	.word	0x2000f5e1
100017a0:	2000f5cc 	.word	0x2000f5cc

100017a4 <hardware_alarm_cancel>:
100017a4:	b510      	push	{r4, lr}
100017a6:	f3ef 8410 	mrs	r4, PRIMASK
100017aa:	b672      	cpsid	i
100017ac:	490a      	ldr	r1, [pc, #40]	; (100017d8 <hardware_alarm_cancel+0x34>)
100017ae:	680b      	ldr	r3, [r1, #0]
100017b0:	2b00      	cmp	r3, #0
100017b2:	d0fc      	beq.n	100017ae <hardware_alarm_cancel+0xa>
100017b4:	f3bf 8f5f 	dmb	sy
100017b8:	2301      	movs	r3, #1
100017ba:	4083      	lsls	r3, r0
100017bc:	4a07      	ldr	r2, [pc, #28]	; (100017dc <hardware_alarm_cancel+0x38>)
100017be:	4808      	ldr	r0, [pc, #32]	; (100017e0 <hardware_alarm_cancel+0x3c>)
100017c0:	6213      	str	r3, [r2, #32]
100017c2:	7802      	ldrb	r2, [r0, #0]
100017c4:	439a      	bics	r2, r3
100017c6:	7002      	strb	r2, [r0, #0]
100017c8:	f3bf 8f5f 	dmb	sy
100017cc:	2300      	movs	r3, #0
100017ce:	600b      	str	r3, [r1, #0]
100017d0:	f384 8810 	msr	PRIMASK, r4
100017d4:	bd10      	pop	{r4, pc}
100017d6:	46c0      	nop			; (mov r8, r8)
100017d8:	d0000128 	.word	0xd0000128
100017dc:	40054000 	.word	0x40054000
100017e0:	2000f5e1 	.word	0x2000f5e1

100017e4 <sem_init>:
100017e4:	b570      	push	{r4, r5, r6, lr}
100017e6:	0004      	movs	r4, r0
100017e8:	000e      	movs	r6, r1
100017ea:	0015      	movs	r5, r2
100017ec:	f7ff fb4a 	bl	10000e84 <next_striped_spin_lock_num>
100017f0:	0001      	movs	r1, r0
100017f2:	0020      	movs	r0, r4
100017f4:	f000 f806 	bl	10001804 <lock_init>
100017f8:	80a6      	strh	r6, [r4, #4]
100017fa:	80e5      	strh	r5, [r4, #6]
100017fc:	f3bf 8f5f 	dmb	sy
10001800:	bd70      	pop	{r4, r5, r6, pc}
10001802:	46c0      	nop			; (mov r8, r8)

10001804 <lock_init>:
10001804:	4b02      	ldr	r3, [pc, #8]	; (10001810 <lock_init+0xc>)
10001806:	469c      	mov	ip, r3
10001808:	4461      	add	r1, ip
1000180a:	0089      	lsls	r1, r1, #2
1000180c:	6001      	str	r1, [r0, #0]
1000180e:	4770      	bx	lr
10001810:	34000040 	.word	0x34000040

10001814 <mutex_init>:
10001814:	b510      	push	{r4, lr}
10001816:	0004      	movs	r4, r0
10001818:	f7ff fb34 	bl	10000e84 <next_striped_spin_lock_num>
1000181c:	0001      	movs	r1, r0
1000181e:	0020      	movs	r0, r4
10001820:	f7ff fff0 	bl	10001804 <lock_init>
10001824:	f3bf 8f5f 	dmb	sy
10001828:	bd10      	pop	{r4, pc}
1000182a:	46c0      	nop			; (mov r8, r8)

1000182c <ph_merge_nodes>:
1000182c:	b570      	push	{r4, r5, r6, lr}
1000182e:	0005      	movs	r5, r0
10001830:	000e      	movs	r6, r1
10001832:	0014      	movs	r4, r2
10001834:	2900      	cmp	r1, #0
10001836:	d024      	beq.n	10001882 <ph_merge_nodes+0x56>
10001838:	2a00      	cmp	r2, #0
1000183a:	d024      	beq.n	10001886 <ph_merge_nodes+0x5a>
1000183c:	6880      	ldr	r0, [r0, #8]
1000183e:	686b      	ldr	r3, [r5, #4]
10001840:	4798      	blx	r3
10001842:	6829      	ldr	r1, [r5, #0]
10001844:	2800      	cmp	r0, #0
10001846:	d00e      	beq.n	10001866 <ph_merge_nodes+0x3a>
10001848:	0063      	lsls	r3, r4, #1
1000184a:	191b      	adds	r3, r3, r4
1000184c:	0072      	lsls	r2, r6, #1
1000184e:	3b03      	subs	r3, #3
10001850:	1992      	adds	r2, r2, r6
10001852:	18cb      	adds	r3, r1, r3
10001854:	3a03      	subs	r2, #3
10001856:	709e      	strb	r6, [r3, #2]
10001858:	1888      	adds	r0, r1, r2
1000185a:	5c8a      	ldrb	r2, [r1, r2]
1000185c:	2a00      	cmp	r2, #0
1000185e:	d114      	bne.n	1000188a <ph_merge_nodes+0x5e>
10001860:	7004      	strb	r4, [r0, #0]
10001862:	0030      	movs	r0, r6
10001864:	e00e      	b.n	10001884 <ph_merge_nodes+0x58>
10001866:	0073      	lsls	r3, r6, #1
10001868:	199b      	adds	r3, r3, r6
1000186a:	0062      	lsls	r2, r4, #1
1000186c:	3b03      	subs	r3, #3
1000186e:	1912      	adds	r2, r2, r4
10001870:	18cb      	adds	r3, r1, r3
10001872:	3a03      	subs	r2, #3
10001874:	709c      	strb	r4, [r3, #2]
10001876:	1888      	adds	r0, r1, r2
10001878:	5c8a      	ldrb	r2, [r1, r2]
1000187a:	2a00      	cmp	r2, #0
1000187c:	d000      	beq.n	10001880 <ph_merge_nodes+0x54>
1000187e:	705a      	strb	r2, [r3, #1]
10001880:	7006      	strb	r6, [r0, #0]
10001882:	0020      	movs	r0, r4
10001884:	bd70      	pop	{r4, r5, r6, pc}
10001886:	0008      	movs	r0, r1
10001888:	e7fc      	b.n	10001884 <ph_merge_nodes+0x58>
1000188a:	705a      	strb	r2, [r3, #1]
1000188c:	7004      	strb	r4, [r0, #0]
1000188e:	0030      	movs	r0, r6
10001890:	e7f8      	b.n	10001884 <ph_merge_nodes+0x58>
10001892:	46c0      	nop			; (mov r8, r8)

10001894 <ph_create>:
10001894:	b5f0      	push	{r4, r5, r6, r7, lr}
10001896:	46c6      	mov	lr, r8
10001898:	0005      	movs	r5, r0
1000189a:	000f      	movs	r7, r1
1000189c:	b500      	push	{lr}
1000189e:	2110      	movs	r1, #16
100018a0:	2001      	movs	r0, #1
100018a2:	0016      	movs	r6, r2
100018a4:	f000 ff66 	bl	10002774 <__wrap_calloc>
100018a8:	b2eb      	uxtb	r3, r5
100018aa:	0004      	movs	r4, r0
100018ac:	7303      	strb	r3, [r0, #12]
100018ae:	2103      	movs	r1, #3
100018b0:	6047      	str	r7, [r0, #4]
100018b2:	0028      	movs	r0, r5
100018b4:	4698      	mov	r8, r3
100018b6:	f000 ff5d 	bl	10002774 <__wrap_calloc>
100018ba:	2300      	movs	r3, #0
100018bc:	7363      	strb	r3, [r4, #13]
100018be:	3301      	adds	r3, #1
100018c0:	73a3      	strb	r3, [r4, #14]
100018c2:	4643      	mov	r3, r8
100018c4:	21ff      	movs	r1, #255	; 0xff
100018c6:	73e3      	strb	r3, [r4, #15]
100018c8:	23fe      	movs	r3, #254	; 0xfe
100018ca:	6020      	str	r0, [r4, #0]
100018cc:	60a6      	str	r6, [r4, #8]
100018ce:	4029      	ands	r1, r5
100018d0:	422b      	tst	r3, r5
100018d2:	d006      	beq.n	100018e2 <ph_create+0x4e>
100018d4:	1c42      	adds	r2, r0, #1
100018d6:	3bfd      	subs	r3, #253	; 0xfd
100018d8:	3301      	adds	r3, #1
100018da:	7013      	strb	r3, [r2, #0]
100018dc:	3203      	adds	r2, #3
100018de:	428b      	cmp	r3, r1
100018e0:	d3fa      	bcc.n	100018d8 <ph_create+0x44>
100018e2:	004b      	lsls	r3, r1, #1
100018e4:	1859      	adds	r1, r3, r1
100018e6:	2300      	movs	r3, #0
100018e8:	1840      	adds	r0, r0, r1
100018ea:	3803      	subs	r0, #3
100018ec:	7043      	strb	r3, [r0, #1]
100018ee:	0020      	movs	r0, r4
100018f0:	bc04      	pop	{r2}
100018f2:	4690      	mov	r8, r2
100018f4:	bdf0      	pop	{r4, r5, r6, r7, pc}
100018f6:	46c0      	nop			; (mov r8, r8)

100018f8 <ph_merge_two_pass>:
100018f8:	b5f8      	push	{r3, r4, r5, r6, r7, lr}
100018fa:	46ce      	mov	lr, r9
100018fc:	4647      	mov	r7, r8
100018fe:	0006      	movs	r6, r0
10001900:	000c      	movs	r4, r1
10001902:	b580      	push	{r7, lr}
10001904:	2900      	cmp	r1, #0
10001906:	d007      	beq.n	10001918 <ph_merge_two_pass+0x20>
10001908:	004d      	lsls	r5, r1, #1
1000190a:	6803      	ldr	r3, [r0, #0]
1000190c:	186d      	adds	r5, r5, r1
1000190e:	3d03      	subs	r5, #3
10001910:	195a      	adds	r2, r3, r5
10001912:	7857      	ldrb	r7, [r2, #1]
10001914:	2f00      	cmp	r7, #0
10001916:	d104      	bne.n	10001922 <ph_merge_two_pass+0x2a>
10001918:	0020      	movs	r0, r4
1000191a:	bc0c      	pop	{r2, r3}
1000191c:	4690      	mov	r8, r2
1000191e:	4699      	mov	r9, r3
10001920:	bdf8      	pop	{r3, r4, r5, r6, r7, pc}
10001922:	0079      	lsls	r1, r7, #1
10001924:	19c9      	adds	r1, r1, r7
10001926:	3903      	subs	r1, #3
10001928:	4688      	mov	r8, r1
1000192a:	4443      	add	r3, r8
1000192c:	7859      	ldrb	r1, [r3, #1]
1000192e:	4689      	mov	r9, r1
10001930:	2100      	movs	r1, #0
10001932:	7059      	strb	r1, [r3, #1]
10001934:	7051      	strb	r1, [r2, #1]
10001936:	6873      	ldr	r3, [r6, #4]
10001938:	003a      	movs	r2, r7
1000193a:	0021      	movs	r1, r4
1000193c:	6880      	ldr	r0, [r0, #8]
1000193e:	4798      	blx	r3
10001940:	6833      	ldr	r3, [r6, #0]
10001942:	2800      	cmp	r0, #0
10001944:	d014      	beq.n	10001970 <ph_merge_two_pass+0x78>
10001946:	4642      	mov	r2, r8
10001948:	189a      	adds	r2, r3, r2
1000194a:	7094      	strb	r4, [r2, #2]
1000194c:	1959      	adds	r1, r3, r5
1000194e:	5d5b      	ldrb	r3, [r3, r5]
10001950:	2b00      	cmp	r3, #0
10001952:	d000      	beq.n	10001956 <ph_merge_two_pass+0x5e>
10001954:	7053      	strb	r3, [r2, #1]
10001956:	700f      	strb	r7, [r1, #0]
10001958:	0027      	movs	r7, r4
1000195a:	4649      	mov	r1, r9
1000195c:	0030      	movs	r0, r6
1000195e:	f7ff ffcb 	bl	100018f8 <ph_merge_two_pass>
10001962:	0039      	movs	r1, r7
10001964:	0002      	movs	r2, r0
10001966:	0030      	movs	r0, r6
10001968:	f7ff ff60 	bl	1000182c <ph_merge_nodes>
1000196c:	0004      	movs	r4, r0
1000196e:	e7d3      	b.n	10001918 <ph_merge_two_pass+0x20>
10001970:	4642      	mov	r2, r8
10001972:	4641      	mov	r1, r8
10001974:	195d      	adds	r5, r3, r5
10001976:	70af      	strb	r7, [r5, #2]
10001978:	189a      	adds	r2, r3, r2
1000197a:	5c5b      	ldrb	r3, [r3, r1]
1000197c:	2b00      	cmp	r3, #0
1000197e:	d000      	beq.n	10001982 <ph_merge_two_pass+0x8a>
10001980:	706b      	strb	r3, [r5, #1]
10001982:	7014      	strb	r4, [r2, #0]
10001984:	e7e9      	b.n	1000195a <ph_merge_two_pass+0x62>
10001986:	46c0      	nop			; (mov r8, r8)

10001988 <ph_remove_any_head>:
10001988:	b5f0      	push	{r4, r5, r6, r7, lr}
1000198a:	4657      	mov	r7, sl
1000198c:	4645      	mov	r5, r8
1000198e:	46de      	mov	lr, fp
10001990:	464e      	mov	r6, r9
10001992:	b5e0      	push	{r5, r6, r7, lr}
10001994:	000d      	movs	r5, r1
10001996:	006b      	lsls	r3, r5, #1
10001998:	6801      	ldr	r1, [r0, #0]
1000199a:	195b      	adds	r3, r3, r5
1000199c:	1edf      	subs	r7, r3, #3
1000199e:	0004      	movs	r4, r0
100019a0:	5dc8      	ldrb	r0, [r1, r7]
100019a2:	b083      	sub	sp, #12
100019a4:	9201      	str	r2, [sp, #4]
100019a6:	19ca      	adds	r2, r1, r7
100019a8:	2800      	cmp	r0, #0
100019aa:	d04c      	beq.n	10001a46 <ph_remove_any_head+0xbe>
100019ac:	0043      	lsls	r3, r0, #1
100019ae:	181b      	adds	r3, r3, r0
100019b0:	3b03      	subs	r3, #3
100019b2:	18cb      	adds	r3, r1, r3
100019b4:	785e      	ldrb	r6, [r3, #1]
100019b6:	46b4      	mov	ip, r6
100019b8:	2e00      	cmp	r6, #0
100019ba:	d116      	bne.n	100019ea <ph_remove_any_head+0x62>
100019bc:	9e01      	ldr	r6, [sp, #4]
100019be:	2e00      	cmp	r6, #0
100019c0:	d13e      	bne.n	10001a40 <ph_remove_any_head+0xb8>
100019c2:	7be6      	ldrb	r6, [r4, #15]
100019c4:	2e00      	cmp	r6, #0
100019c6:	d004      	beq.n	100019d2 <ph_remove_any_head+0x4a>
100019c8:	0073      	lsls	r3, r6, #1
100019ca:	199b      	adds	r3, r3, r6
100019cc:	18cb      	adds	r3, r1, r3
100019ce:	3b03      	subs	r3, #3
100019d0:	705d      	strb	r5, [r3, #1]
100019d2:	73e5      	strb	r5, [r4, #15]
100019d4:	2800      	cmp	r0, #0
100019d6:	d12f      	bne.n	10001a38 <ph_remove_any_head+0xb0>
100019d8:	2300      	movs	r3, #0
100019da:	7053      	strb	r3, [r2, #1]
100019dc:	b003      	add	sp, #12
100019de:	bc3c      	pop	{r2, r3, r4, r5}
100019e0:	4690      	mov	r8, r2
100019e2:	4699      	mov	r9, r3
100019e4:	46a2      	mov	sl, r4
100019e6:	46ab      	mov	fp, r5
100019e8:	bdf0      	pop	{r4, r5, r6, r7, pc}
100019ea:	0072      	lsls	r2, r6, #1
100019ec:	4462      	add	r2, ip
100019ee:	3a03      	subs	r2, #3
100019f0:	1889      	adds	r1, r1, r2
100019f2:	784a      	ldrb	r2, [r1, #1]
100019f4:	4690      	mov	r8, r2
100019f6:	2200      	movs	r2, #0
100019f8:	704a      	strb	r2, [r1, #1]
100019fa:	4691      	mov	r9, r2
100019fc:	705a      	strb	r2, [r3, #1]
100019fe:	0001      	movs	r1, r0
10001a00:	0032      	movs	r2, r6
10001a02:	0020      	movs	r0, r4
10001a04:	f7ff ff12 	bl	1000182c <ph_merge_nodes>
10001a08:	4643      	mov	r3, r8
10001a0a:	4682      	mov	sl, r0
10001a0c:	2b00      	cmp	r3, #0
10001a0e:	d007      	beq.n	10001a20 <ph_remove_any_head+0x98>
10001a10:	005b      	lsls	r3, r3, #1
10001a12:	6821      	ldr	r1, [r4, #0]
10001a14:	4443      	add	r3, r8
10001a16:	3b03      	subs	r3, #3
10001a18:	18cb      	adds	r3, r1, r3
10001a1a:	785a      	ldrb	r2, [r3, #1]
10001a1c:	2a00      	cmp	r2, #0
10001a1e:	d116      	bne.n	10001a4e <ph_remove_any_head+0xc6>
10001a20:	4642      	mov	r2, r8
10001a22:	4651      	mov	r1, sl
10001a24:	0020      	movs	r0, r4
10001a26:	f7ff ff01 	bl	1000182c <ph_merge_nodes>
10001a2a:	6821      	ldr	r1, [r4, #0]
10001a2c:	9b01      	ldr	r3, [sp, #4]
10001a2e:	19ca      	adds	r2, r1, r7
10001a30:	2b00      	cmp	r3, #0
10001a32:	d0c6      	beq.n	100019c2 <ph_remove_any_head+0x3a>
10001a34:	2800      	cmp	r0, #0
10001a36:	d0cf      	beq.n	100019d8 <ph_remove_any_head+0x50>
10001a38:	0043      	lsls	r3, r0, #1
10001a3a:	181b      	adds	r3, r3, r0
10001a3c:	3b03      	subs	r3, #3
10001a3e:	18cb      	adds	r3, r1, r3
10001a40:	2100      	movs	r1, #0
10001a42:	7099      	strb	r1, [r3, #2]
10001a44:	e7c8      	b.n	100019d8 <ph_remove_any_head+0x50>
10001a46:	9b01      	ldr	r3, [sp, #4]
10001a48:	2b00      	cmp	r3, #0
10001a4a:	d1c5      	bne.n	100019d8 <ph_remove_any_head+0x50>
10001a4c:	e7b9      	b.n	100019c2 <ph_remove_any_head+0x3a>
10001a4e:	0050      	lsls	r0, r2, #1
10001a50:	1880      	adds	r0, r0, r2
10001a52:	3803      	subs	r0, #3
10001a54:	1809      	adds	r1, r1, r0
10001a56:	7848      	ldrb	r0, [r1, #1]
10001a58:	4683      	mov	fp, r0
10001a5a:	4648      	mov	r0, r9
10001a5c:	7048      	strb	r0, [r1, #1]
10001a5e:	7058      	strb	r0, [r3, #1]
10001a60:	4641      	mov	r1, r8
10001a62:	0020      	movs	r0, r4
10001a64:	f7ff fee2 	bl	1000182c <ph_merge_nodes>
10001a68:	4659      	mov	r1, fp
10001a6a:	4680      	mov	r8, r0
10001a6c:	0020      	movs	r0, r4
10001a6e:	f7ff ff43 	bl	100018f8 <ph_merge_two_pass>
10001a72:	4641      	mov	r1, r8
10001a74:	0002      	movs	r2, r0
10001a76:	0020      	movs	r0, r4
10001a78:	f7ff fed8 	bl	1000182c <ph_merge_nodes>
10001a7c:	4680      	mov	r8, r0
10001a7e:	e7cf      	b.n	10001a20 <ph_remove_any_head+0x98>

10001a80 <ph_remove_head_reserve>:
10001a80:	b5f0      	push	{r4, r5, r6, r7, lr}
10001a82:	464e      	mov	r6, r9
10001a84:	4645      	mov	r5, r8
10001a86:	46de      	mov	lr, fp
10001a88:	4657      	mov	r7, sl
10001a8a:	b5e0      	push	{r5, r6, r7, lr}
10001a8c:	7b46      	ldrb	r6, [r0, #13]
10001a8e:	0004      	movs	r4, r0
10001a90:	0075      	lsls	r5, r6, #1
10001a92:	6800      	ldr	r0, [r0, #0]
10001a94:	19ad      	adds	r5, r5, r6
10001a96:	3d03      	subs	r5, #3
10001a98:	b083      	sub	sp, #12
10001a9a:	9101      	str	r1, [sp, #4]
10001a9c:	5d41      	ldrb	r1, [r0, r5]
10001a9e:	1942      	adds	r2, r0, r5
10001aa0:	2900      	cmp	r1, #0
10001aa2:	d04e      	beq.n	10001b42 <ph_remove_head_reserve+0xc2>
10001aa4:	004b      	lsls	r3, r1, #1
10001aa6:	185b      	adds	r3, r3, r1
10001aa8:	3b03      	subs	r3, #3
10001aaa:	18c3      	adds	r3, r0, r3
10001aac:	785f      	ldrb	r7, [r3, #1]
10001aae:	46bc      	mov	ip, r7
10001ab0:	2f00      	cmp	r7, #0
10001ab2:	d118      	bne.n	10001ae6 <ph_remove_head_reserve+0x66>
10001ab4:	9d01      	ldr	r5, [sp, #4]
10001ab6:	2d00      	cmp	r5, #0
10001ab8:	d140      	bne.n	10001b3c <ph_remove_head_reserve+0xbc>
10001aba:	7be5      	ldrb	r5, [r4, #15]
10001abc:	2d00      	cmp	r5, #0
10001abe:	d004      	beq.n	10001aca <ph_remove_head_reserve+0x4a>
10001ac0:	006b      	lsls	r3, r5, #1
10001ac2:	195b      	adds	r3, r3, r5
10001ac4:	18c3      	adds	r3, r0, r3
10001ac6:	3b03      	subs	r3, #3
10001ac8:	705e      	strb	r6, [r3, #1]
10001aca:	73e6      	strb	r6, [r4, #15]
10001acc:	2900      	cmp	r1, #0
10001ace:	d131      	bne.n	10001b34 <ph_remove_head_reserve+0xb4>
10001ad0:	2300      	movs	r3, #0
10001ad2:	0030      	movs	r0, r6
10001ad4:	7053      	strb	r3, [r2, #1]
10001ad6:	7361      	strb	r1, [r4, #13]
10001ad8:	b003      	add	sp, #12
10001ada:	bc3c      	pop	{r2, r3, r4, r5}
10001adc:	4690      	mov	r8, r2
10001ade:	4699      	mov	r9, r3
10001ae0:	46a2      	mov	sl, r4
10001ae2:	46ab      	mov	fp, r5
10001ae4:	bdf0      	pop	{r4, r5, r6, r7, pc}
10001ae6:	007a      	lsls	r2, r7, #1
10001ae8:	4462      	add	r2, ip
10001aea:	3a03      	subs	r2, #3
10001aec:	1880      	adds	r0, r0, r2
10001aee:	7842      	ldrb	r2, [r0, #1]
10001af0:	4693      	mov	fp, r2
10001af2:	2200      	movs	r2, #0
10001af4:	7042      	strb	r2, [r0, #1]
10001af6:	4691      	mov	r9, r2
10001af8:	705a      	strb	r2, [r3, #1]
10001afa:	0020      	movs	r0, r4
10001afc:	003a      	movs	r2, r7
10001afe:	f7ff fe95 	bl	1000182c <ph_merge_nodes>
10001b02:	465b      	mov	r3, fp
10001b04:	4680      	mov	r8, r0
10001b06:	2b00      	cmp	r3, #0
10001b08:	d007      	beq.n	10001b1a <ph_remove_head_reserve+0x9a>
10001b0a:	005b      	lsls	r3, r3, #1
10001b0c:	6821      	ldr	r1, [r4, #0]
10001b0e:	445b      	add	r3, fp
10001b10:	3b03      	subs	r3, #3
10001b12:	18cb      	adds	r3, r1, r3
10001b14:	785a      	ldrb	r2, [r3, #1]
10001b16:	2a00      	cmp	r2, #0
10001b18:	d117      	bne.n	10001b4a <ph_remove_head_reserve+0xca>
10001b1a:	465a      	mov	r2, fp
10001b1c:	4641      	mov	r1, r8
10001b1e:	0020      	movs	r0, r4
10001b20:	f7ff fe84 	bl	1000182c <ph_merge_nodes>
10001b24:	9b01      	ldr	r3, [sp, #4]
10001b26:	0001      	movs	r1, r0
10001b28:	6820      	ldr	r0, [r4, #0]
10001b2a:	1942      	adds	r2, r0, r5
10001b2c:	2b00      	cmp	r3, #0
10001b2e:	d0c4      	beq.n	10001aba <ph_remove_head_reserve+0x3a>
10001b30:	2900      	cmp	r1, #0
10001b32:	d0cd      	beq.n	10001ad0 <ph_remove_head_reserve+0x50>
10001b34:	004b      	lsls	r3, r1, #1
10001b36:	185b      	adds	r3, r3, r1
10001b38:	3b03      	subs	r3, #3
10001b3a:	18c3      	adds	r3, r0, r3
10001b3c:	2000      	movs	r0, #0
10001b3e:	7098      	strb	r0, [r3, #2]
10001b40:	e7c6      	b.n	10001ad0 <ph_remove_head_reserve+0x50>
10001b42:	9b01      	ldr	r3, [sp, #4]
10001b44:	2b00      	cmp	r3, #0
10001b46:	d1c3      	bne.n	10001ad0 <ph_remove_head_reserve+0x50>
10001b48:	e7b7      	b.n	10001aba <ph_remove_head_reserve+0x3a>
10001b4a:	0050      	lsls	r0, r2, #1
10001b4c:	1880      	adds	r0, r0, r2
10001b4e:	3803      	subs	r0, #3
10001b50:	1809      	adds	r1, r1, r0
10001b52:	7848      	ldrb	r0, [r1, #1]
10001b54:	4682      	mov	sl, r0
10001b56:	4648      	mov	r0, r9
10001b58:	7048      	strb	r0, [r1, #1]
10001b5a:	7058      	strb	r0, [r3, #1]
10001b5c:	4659      	mov	r1, fp
10001b5e:	0020      	movs	r0, r4
10001b60:	f7ff fe64 	bl	1000182c <ph_merge_nodes>
10001b64:	4653      	mov	r3, sl
10001b66:	4683      	mov	fp, r0
10001b68:	2b00      	cmp	r3, #0
10001b6a:	d007      	beq.n	10001b7c <ph_remove_head_reserve+0xfc>
10001b6c:	005b      	lsls	r3, r3, #1
10001b6e:	6821      	ldr	r1, [r4, #0]
10001b70:	4453      	add	r3, sl
10001b72:	3b03      	subs	r3, #3
10001b74:	18cb      	adds	r3, r1, r3
10001b76:	785a      	ldrb	r2, [r3, #1]
10001b78:	2a00      	cmp	r2, #0
10001b7a:	d106      	bne.n	10001b8a <ph_remove_head_reserve+0x10a>
10001b7c:	4659      	mov	r1, fp
10001b7e:	4652      	mov	r2, sl
10001b80:	0020      	movs	r0, r4
10001b82:	f7ff fe53 	bl	1000182c <ph_merge_nodes>
10001b86:	4683      	mov	fp, r0
10001b88:	e7c7      	b.n	10001b1a <ph_remove_head_reserve+0x9a>
10001b8a:	0050      	lsls	r0, r2, #1
10001b8c:	1880      	adds	r0, r0, r2
10001b8e:	3803      	subs	r0, #3
10001b90:	1809      	adds	r1, r1, r0
10001b92:	4648      	mov	r0, r9
10001b94:	784f      	ldrb	r7, [r1, #1]
10001b96:	7048      	strb	r0, [r1, #1]
10001b98:	7058      	strb	r0, [r3, #1]
10001b9a:	4651      	mov	r1, sl
10001b9c:	0020      	movs	r0, r4
10001b9e:	f7ff fe45 	bl	1000182c <ph_merge_nodes>
10001ba2:	0039      	movs	r1, r7
10001ba4:	4681      	mov	r9, r0
10001ba6:	0020      	movs	r0, r4
10001ba8:	f7ff fea6 	bl	100018f8 <ph_merge_two_pass>
10001bac:	4649      	mov	r1, r9
10001bae:	0002      	movs	r2, r0
10001bb0:	0020      	movs	r0, r4
10001bb2:	f7ff fe3b 	bl	1000182c <ph_merge_nodes>
10001bb6:	4682      	mov	sl, r0
10001bb8:	e7e0      	b.n	10001b7c <ph_remove_head_reserve+0xfc>
10001bba:	46c0      	nop			; (mov r8, r8)

10001bbc <ph_delete>:
10001bbc:	b570      	push	{r4, r5, r6, lr}
10001bbe:	0004      	movs	r4, r0
10001bc0:	2900      	cmp	r1, #0
10001bc2:	d02c      	beq.n	10001c1e <ph_delete+0x62>
10001bc4:	7b43      	ldrb	r3, [r0, #13]
10001bc6:	428b      	cmp	r3, r1
10001bc8:	d02e      	beq.n	10001c28 <ph_delete+0x6c>
10001bca:	6805      	ldr	r5, [r0, #0]
10001bcc:	0048      	lsls	r0, r1, #1
10001bce:	1840      	adds	r0, r0, r1
10001bd0:	3803      	subs	r0, #3
10001bd2:	1828      	adds	r0, r5, r0
10001bd4:	7882      	ldrb	r2, [r0, #2]
10001bd6:	2a00      	cmp	r2, #0
10001bd8:	d021      	beq.n	10001c1e <ph_delete+0x62>
10001bda:	0053      	lsls	r3, r2, #1
10001bdc:	189b      	adds	r3, r3, r2
10001bde:	3b03      	subs	r3, #3
10001be0:	5cea      	ldrb	r2, [r5, r3]
10001be2:	18ee      	adds	r6, r5, r3
10001be4:	428a      	cmp	r2, r1
10001be6:	d102      	bne.n	10001bee <ph_delete+0x32>
10001be8:	e01b      	b.n	10001c22 <ph_delete+0x66>
10001bea:	2a00      	cmp	r2, #0
10001bec:	d008      	beq.n	10001c00 <ph_delete+0x44>
10001bee:	0053      	lsls	r3, r2, #1
10001bf0:	189b      	adds	r3, r3, r2
10001bf2:	3b03      	subs	r3, #3
10001bf4:	18eb      	adds	r3, r5, r3
10001bf6:	785a      	ldrb	r2, [r3, #1]
10001bf8:	428a      	cmp	r2, r1
10001bfa:	d1f6      	bne.n	10001bea <ph_delete+0x2e>
10001bfc:	7842      	ldrb	r2, [r0, #1]
10001bfe:	705a      	strb	r2, [r3, #1]
10001c00:	2300      	movs	r3, #0
10001c02:	2200      	movs	r2, #0
10001c04:	7083      	strb	r3, [r0, #2]
10001c06:	7043      	strb	r3, [r0, #1]
10001c08:	0020      	movs	r0, r4
10001c0a:	f7ff febd 	bl	10001988 <ph_remove_any_head>
10001c0e:	7b61      	ldrb	r1, [r4, #13]
10001c10:	0002      	movs	r2, r0
10001c12:	0020      	movs	r0, r4
10001c14:	f7ff fe0a 	bl	1000182c <ph_merge_nodes>
10001c18:	7360      	strb	r0, [r4, #13]
10001c1a:	2001      	movs	r0, #1
10001c1c:	e000      	b.n	10001c20 <ph_delete+0x64>
10001c1e:	2000      	movs	r0, #0
10001c20:	bd70      	pop	{r4, r5, r6, pc}
10001c22:	7843      	ldrb	r3, [r0, #1]
10001c24:	7033      	strb	r3, [r6, #0]
10001c26:	e7eb      	b.n	10001c00 <ph_delete+0x44>
10001c28:	2200      	movs	r2, #0
10001c2a:	0019      	movs	r1, r3
10001c2c:	f7ff feac 	bl	10001988 <ph_remove_any_head>
10001c30:	7360      	strb	r0, [r4, #13]
10001c32:	2001      	movs	r0, #1
10001c34:	e7f4      	b.n	10001c20 <ph_delete+0x64>
10001c36:	46c0      	nop			; (mov r8, r8)

10001c38 <runtime_init>:
10001c38:	4b2b      	ldr	r3, [pc, #172]	; (10001ce8 <runtime_init+0xb0>)
10001c3a:	4a2c      	ldr	r2, [pc, #176]	; (10001cec <runtime_init+0xb4>)
10001c3c:	b570      	push	{r4, r5, r6, lr}
10001c3e:	601a      	str	r2, [r3, #0]
10001c40:	4a2b      	ldr	r2, [pc, #172]	; (10001cf0 <runtime_init+0xb8>)
10001c42:	4b2c      	ldr	r3, [pc, #176]	; (10001cf4 <runtime_init+0xbc>)
10001c44:	492c      	ldr	r1, [pc, #176]	; (10001cf8 <runtime_init+0xc0>)
10001c46:	601a      	str	r2, [r3, #0]
10001c48:	0010      	movs	r0, r2
10001c4a:	688b      	ldr	r3, [r1, #8]
10001c4c:	4398      	bics	r0, r3
10001c4e:	d1fb      	bne.n	10001c48 <runtime_init+0x10>
10001c50:	4c2a      	ldr	r4, [pc, #168]	; (10001cfc <runtime_init+0xc4>)
10001c52:	4b2b      	ldr	r3, [pc, #172]	; (10001d00 <runtime_init+0xc8>)
10001c54:	429c      	cmp	r4, r3
10001c56:	d209      	bcs.n	10001c6c <runtime_init+0x34>
10001c58:	3b01      	subs	r3, #1
10001c5a:	1b1d      	subs	r5, r3, r4
10001c5c:	08ad      	lsrs	r5, r5, #2
10001c5e:	3501      	adds	r5, #1
10001c60:	00ad      	lsls	r5, r5, #2
10001c62:	192d      	adds	r5, r5, r4
10001c64:	cc08      	ldmia	r4!, {r3}
10001c66:	4798      	blx	r3
10001c68:	42ac      	cmp	r4, r5
10001c6a:	d1fb      	bne.n	10001c64 <runtime_init+0x2c>
10001c6c:	f000 f894 	bl	10001d98 <clocks_init>
10001c70:	4a24      	ldr	r2, [pc, #144]	; (10001d04 <runtime_init+0xcc>)
10001c72:	4b20      	ldr	r3, [pc, #128]	; (10001cf4 <runtime_init+0xbc>)
10001c74:	601a      	str	r2, [r3, #0]
10001c76:	4a20      	ldr	r2, [pc, #128]	; (10001cf8 <runtime_init+0xc0>)
10001c78:	6893      	ldr	r3, [r2, #8]
10001c7a:	01db      	lsls	r3, r3, #7
10001c7c:	3380      	adds	r3, #128	; 0x80
10001c7e:	d1fb      	bne.n	10001c78 <runtime_init+0x40>
10001c80:	2240      	movs	r2, #64	; 0x40
10001c82:	4b21      	ldr	r3, [pc, #132]	; (10001d08 <runtime_init+0xd0>)
10001c84:	4c21      	ldr	r4, [pc, #132]	; (10001d0c <runtime_init+0xd4>)
10001c86:	679a      	str	r2, [r3, #120]	; 0x78
10001c88:	675a      	str	r2, [r3, #116]	; 0x74
10001c8a:	671a      	str	r2, [r3, #112]	; 0x70
10001c8c:	66da      	str	r2, [r3, #108]	; 0x6c
10001c8e:	4b20      	ldr	r3, [pc, #128]	; (10001d10 <runtime_init+0xd8>)
10001c90:	429c      	cmp	r4, r3
10001c92:	d20b      	bcs.n	10001cac <runtime_init+0x74>
10001c94:	3b01      	subs	r3, #1
10001c96:	1b1d      	subs	r5, r3, r4
10001c98:	08ed      	lsrs	r5, r5, #3
10001c9a:	3501      	adds	r5, #1
10001c9c:	00ed      	lsls	r5, r5, #3
10001c9e:	192d      	adds	r5, r5, r4
10001ca0:	0020      	movs	r0, r4
10001ca2:	3408      	adds	r4, #8
10001ca4:	f7ff fdb6 	bl	10001814 <mutex_init>
10001ca8:	42ac      	cmp	r4, r5
10001caa:	d1f9      	bne.n	10001ca0 <runtime_init+0x68>
10001cac:	4c19      	ldr	r4, [pc, #100]	; (10001d14 <runtime_init+0xdc>)
10001cae:	4d1a      	ldr	r5, [pc, #104]	; (10001d18 <runtime_init+0xe0>)
10001cb0:	68a1      	ldr	r1, [r4, #8]
10001cb2:	22c0      	movs	r2, #192	; 0xc0
10001cb4:	0028      	movs	r0, r5
10001cb6:	f000 fd6f 	bl	10002798 <__wrap___aeabi_memcpy>
10001cba:	60a5      	str	r5, [r4, #8]
10001cbc:	f7ff f8d4 	bl	10000e68 <spin_locks_reset>
10001cc0:	f000 fbaa 	bl	10002418 <irq_init_priorities>
10001cc4:	f7ff fafe 	bl	100012c4 <alarm_pool_init_default>
10001cc8:	4c14      	ldr	r4, [pc, #80]	; (10001d1c <runtime_init+0xe4>)
10001cca:	4b15      	ldr	r3, [pc, #84]	; (10001d20 <runtime_init+0xe8>)
10001ccc:	429c      	cmp	r4, r3
10001cce:	d209      	bcs.n	10001ce4 <runtime_init+0xac>
10001cd0:	3b01      	subs	r3, #1
10001cd2:	1b1d      	subs	r5, r3, r4
10001cd4:	08ad      	lsrs	r5, r5, #2
10001cd6:	3501      	adds	r5, #1
10001cd8:	00ad      	lsls	r5, r5, #2
10001cda:	192d      	adds	r5, r5, r4
10001cdc:	cc08      	ldmia	r4!, {r3}
10001cde:	4798      	blx	r3
10001ce0:	42a5      	cmp	r5, r4
10001ce2:	d1fb      	bne.n	10001cdc <runtime_init+0xa4>
10001ce4:	bd70      	pop	{r4, r5, r6, pc}
10001ce6:	46c0      	nop			; (mov r8, r8)
10001ce8:	4000e000 	.word	0x4000e000
10001cec:	ffffcdbf 	.word	0xffffcdbf
10001cf0:	003c7ffe 	.word	0x003c7ffe
10001cf4:	4000f000 	.word	0x4000f000
10001cf8:	4000c000 	.word	0x4000c000
10001cfc:	20000af8 	.word	0x20000af8
10001d00:	20000b08 	.word	0x20000b08
10001d04:	01ffffff 	.word	0x01ffffff
10001d08:	4001f000 	.word	0x4001f000
10001d0c:	20000af0 	.word	0x20000af0
10001d10:	20000af8 	.word	0x20000af8
10001d14:	e000ed00 	.word	0xe000ed00
10001d18:	20000000 	.word	0x20000000
10001d1c:	20000b08 	.word	0x20000b08
10001d20:	20000b0c 	.word	0x20000b0c

10001d24 <_sbrk>:
10001d24:	4a09      	ldr	r2, [pc, #36]	; (10001d4c <_sbrk+0x28>)
10001d26:	0003      	movs	r3, r0
10001d28:	6810      	ldr	r0, [r2, #0]
10001d2a:	2800      	cmp	r0, #0
10001d2c:	d005      	beq.n	10001d3a <_sbrk+0x16>
10001d2e:	4908      	ldr	r1, [pc, #32]	; (10001d50 <_sbrk+0x2c>)
10001d30:	18c3      	adds	r3, r0, r3
10001d32:	428b      	cmp	r3, r1
10001d34:	d207      	bcs.n	10001d46 <_sbrk+0x22>
10001d36:	6013      	str	r3, [r2, #0]
10001d38:	4770      	bx	lr
10001d3a:	4806      	ldr	r0, [pc, #24]	; (10001d54 <_sbrk+0x30>)
10001d3c:	4904      	ldr	r1, [pc, #16]	; (10001d50 <_sbrk+0x2c>)
10001d3e:	18c3      	adds	r3, r0, r3
10001d40:	6010      	str	r0, [r2, #0]
10001d42:	428b      	cmp	r3, r1
10001d44:	d3f7      	bcc.n	10001d36 <_sbrk+0x12>
10001d46:	2001      	movs	r0, #1
10001d48:	4240      	negs	r0, r0
10001d4a:	e7f5      	b.n	10001d38 <_sbrk+0x14>
10001d4c:	20005cf0 	.word	0x20005cf0
10001d50:	20040000 	.word	0x20040000
10001d54:	2000f818 	.word	0x2000f818

10001d58 <exit>:
10001d58:	be00      	bkpt	0x0000
10001d5a:	e7fd      	b.n	10001d58 <exit>

10001d5c <panic>:
10001d5c:	b40f      	push	{r0, r1, r2, r3}
10001d5e:	b500      	push	{lr}
10001d60:	4808      	ldr	r0, [pc, #32]	; (10001d84 <panic+0x28>)
10001d62:	b083      	sub	sp, #12
10001d64:	f000 fdee 	bl	10002944 <__wrap_puts>
10001d68:	9b04      	ldr	r3, [sp, #16]
10001d6a:	2b00      	cmp	r3, #0
10001d6c:	d007      	beq.n	10001d7e <panic+0x22>
10001d6e:	a905      	add	r1, sp, #20
10001d70:	0018      	movs	r0, r3
10001d72:	9101      	str	r1, [sp, #4]
10001d74:	f000 fb74 	bl	10002460 <weak_raw_vprintf>
10001d78:	4803      	ldr	r0, [pc, #12]	; (10001d88 <panic+0x2c>)
10001d7a:	f000 fde3 	bl	10002944 <__wrap_puts>
10001d7e:	be00      	bkpt	0x0000
10001d80:	e7fd      	b.n	10001d7e <panic+0x22>
10001d82:	46c0      	nop			; (mov r8, r8)
10001d84:	10003720 	.word	0x10003720
10001d88:	10003730 	.word	0x10003730

10001d8c <hard_assertion_failure>:
10001d8c:	b510      	push	{r4, lr}
10001d8e:	4801      	ldr	r0, [pc, #4]	; (10001d94 <hard_assertion_failure+0x8>)
10001d90:	f7ff ffe4 	bl	10001d5c <panic>
10001d94:	10003734 	.word	0x10003734

10001d98 <clocks_init>:
10001d98:	b530      	push	{r4, r5, lr}
10001d9a:	200c      	movs	r0, #12
10001d9c:	b083      	sub	sp, #12
10001d9e:	f000 f971 	bl	10002084 <watchdog_start_tick>
10001da2:	f7ff f87b 	bl	10000e9c <running_on_fpga>
10001da6:	2800      	cmp	r0, #0
10001da8:	d00e      	beq.n	10001dc8 <clocks_init+0x30>
10001daa:	4b9a      	ldr	r3, [pc, #616]	; (10002014 <clocks_init+0x27c>)
10001dac:	4a9a      	ldr	r2, [pc, #616]	; (10002018 <clocks_init+0x280>)
10001dae:	601a      	str	r2, [r3, #0]
10001db0:	605a      	str	r2, [r3, #4]
10001db2:	609a      	str	r2, [r3, #8]
10001db4:	60da      	str	r2, [r3, #12]
10001db6:	611a      	str	r2, [r3, #16]
10001db8:	615a      	str	r2, [r3, #20]
10001dba:	619a      	str	r2, [r3, #24]
10001dbc:	61da      	str	r2, [r3, #28]
10001dbe:	621a      	str	r2, [r3, #32]
10001dc0:	4a96      	ldr	r2, [pc, #600]	; (1000201c <clocks_init+0x284>)
10001dc2:	625a      	str	r2, [r3, #36]	; 0x24
10001dc4:	b003      	add	sp, #12
10001dc6:	bd30      	pop	{r4, r5, pc}
10001dc8:	4c95      	ldr	r4, [pc, #596]	; (10002020 <clocks_init+0x288>)
10001dca:	67a0      	str	r0, [r4, #120]	; 0x78
10001dcc:	f000 f962 	bl	10002094 <xosc_init>
10001dd0:	2201      	movs	r2, #1
10001dd2:	4b94      	ldr	r3, [pc, #592]	; (10002024 <clocks_init+0x28c>)
10001dd4:	601a      	str	r2, [r3, #0]
10001dd6:	6c63      	ldr	r3, [r4, #68]	; 0x44
10001dd8:	2b01      	cmp	r3, #1
10001dda:	d1fc      	bne.n	10001dd6 <clocks_init+0x3e>
10001ddc:	2203      	movs	r2, #3
10001dde:	4b92      	ldr	r3, [pc, #584]	; (10002028 <clocks_init+0x290>)
10001de0:	601a      	str	r2, [r3, #0]
10001de2:	4a8f      	ldr	r2, [pc, #572]	; (10002020 <clocks_init+0x288>)
10001de4:	6b93      	ldr	r3, [r2, #56]	; 0x38
10001de6:	2b01      	cmp	r3, #1
10001de8:	d1fc      	bne.n	10001de4 <clocks_init+0x4c>
10001dea:	22c0      	movs	r2, #192	; 0xc0
10001dec:	4b8f      	ldr	r3, [pc, #572]	; (1000202c <clocks_init+0x294>)
10001dee:	0192      	lsls	r2, r2, #6
10001df0:	601a      	str	r2, [r3, #0]
10001df2:	4b8f      	ldr	r3, [pc, #572]	; (10002030 <clocks_init+0x298>)
10001df4:	498f      	ldr	r1, [pc, #572]	; (10002034 <clocks_init+0x29c>)
10001df6:	601a      	str	r2, [r3, #0]
10001df8:	0010      	movs	r0, r2
10001dfa:	688b      	ldr	r3, [r1, #8]
10001dfc:	4398      	bics	r0, r3
10001dfe:	1e03      	subs	r3, r0, #0
10001e00:	d1fa      	bne.n	10001df8 <clocks_init+0x60>
10001e02:	2402      	movs	r4, #2
10001e04:	2101      	movs	r1, #1
10001e06:	4a8c      	ldr	r2, [pc, #560]	; (10002038 <clocks_init+0x2a0>)
10001e08:	488c      	ldr	r0, [pc, #560]	; (1000203c <clocks_init+0x2a4>)
10001e0a:	3306      	adds	r3, #6
10001e0c:	9400      	str	r4, [sp, #0]
10001e0e:	f000 f955 	bl	100020bc <pll_init>
10001e12:	2305      	movs	r3, #5
10001e14:	4a8a      	ldr	r2, [pc, #552]	; (10002040 <clocks_init+0x2a8>)
10001e16:	2101      	movs	r1, #1
10001e18:	488a      	ldr	r0, [pc, #552]	; (10002044 <clocks_init+0x2ac>)
10001e1a:	9400      	str	r4, [sp, #0]
10001e1c:	f000 f94e 	bl	100020bc <pll_init>
10001e20:	4b89      	ldr	r3, [pc, #548]	; (10002048 <clocks_init+0x2b0>)
10001e22:	685a      	ldr	r2, [r3, #4]
10001e24:	2aff      	cmp	r2, #255	; 0xff
10001e26:	d802      	bhi.n	10001e2e <clocks_init+0x96>
10001e28:	2280      	movs	r2, #128	; 0x80
10001e2a:	0052      	lsls	r2, r2, #1
10001e2c:	605a      	str	r2, [r3, #4]
10001e2e:	2280      	movs	r2, #128	; 0x80
10001e30:	4c78      	ldr	r4, [pc, #480]	; (10002014 <clocks_init+0x27c>)
10001e32:	4b7d      	ldr	r3, [pc, #500]	; (10002028 <clocks_init+0x290>)
10001e34:	6921      	ldr	r1, [r4, #16]
10001e36:	0112      	lsls	r2, r2, #4
10001e38:	4d83      	ldr	r5, [pc, #524]	; (10002048 <clocks_init+0x2b0>)
10001e3a:	601a      	str	r2, [r3, #0]
10001e3c:	2900      	cmp	r1, #0
10001e3e:	d005      	beq.n	10001e4c <clocks_init+0xb4>
10001e40:	6960      	ldr	r0, [r4, #20]
10001e42:	f000 fb5b 	bl	100024fc <__wrap___aeabi_uidiv>
10001e46:	3001      	adds	r0, #1
10001e48:	3801      	subs	r0, #1
10001e4a:	d1fd      	bne.n	10001e48 <clocks_init+0xb0>
10001e4c:	21e0      	movs	r1, #224	; 0xe0
10001e4e:	4b7e      	ldr	r3, [pc, #504]	; (10002048 <clocks_init+0x2b0>)
10001e50:	2002      	movs	r0, #2
10001e52:	681a      	ldr	r2, [r3, #0]
10001e54:	4011      	ands	r1, r2
10001e56:	2280      	movs	r2, #128	; 0x80
10001e58:	0152      	lsls	r2, r2, #5
10001e5a:	432a      	orrs	r2, r5
10001e5c:	6011      	str	r1, [r2, #0]
10001e5e:	6819      	ldr	r1, [r3, #0]
10001e60:	4048      	eors	r0, r1
10001e62:	2103      	movs	r1, #3
10001e64:	4001      	ands	r1, r0
10001e66:	6011      	str	r1, [r2, #0]
10001e68:	2104      	movs	r1, #4
10001e6a:	689a      	ldr	r2, [r3, #8]
10001e6c:	4211      	tst	r1, r2
10001e6e:	d0fc      	beq.n	10001e6a <clocks_init+0xd2>
10001e70:	2280      	movs	r2, #128	; 0x80
10001e72:	2180      	movs	r1, #128	; 0x80
10001e74:	0192      	lsls	r2, r2, #6
10001e76:	432a      	orrs	r2, r5
10001e78:	0109      	lsls	r1, r1, #4
10001e7a:	6011      	str	r1, [r2, #0]
10001e7c:	2280      	movs	r2, #128	; 0x80
10001e7e:	0052      	lsls	r2, r2, #1
10001e80:	605a      	str	r2, [r3, #4]
10001e82:	4b72      	ldr	r3, [pc, #456]	; (1000204c <clocks_init+0x2b4>)
10001e84:	6123      	str	r3, [r4, #16]
10001e86:	4b72      	ldr	r3, [pc, #456]	; (10002050 <clocks_init+0x2b8>)
10001e88:	6859      	ldr	r1, [r3, #4]
10001e8a:	29ff      	cmp	r1, #255	; 0xff
10001e8c:	d800      	bhi.n	10001e90 <clocks_init+0xf8>
10001e8e:	605a      	str	r2, [r3, #4]
10001e90:	2203      	movs	r2, #3
10001e92:	486f      	ldr	r0, [pc, #444]	; (10002050 <clocks_init+0x2b8>)
10001e94:	4b63      	ldr	r3, [pc, #396]	; (10002024 <clocks_init+0x28c>)
10001e96:	2101      	movs	r1, #1
10001e98:	601a      	str	r2, [r3, #0]
10001e9a:	0002      	movs	r2, r0
10001e9c:	6893      	ldr	r3, [r2, #8]
10001e9e:	4219      	tst	r1, r3
10001ea0:	d0fc      	beq.n	10001e9c <clocks_init+0x104>
10001ea2:	25e0      	movs	r5, #224	; 0xe0
10001ea4:	6813      	ldr	r3, [r2, #0]
10001ea6:	401d      	ands	r5, r3
10001ea8:	2380      	movs	r3, #128	; 0x80
10001eaa:	015b      	lsls	r3, r3, #5
10001eac:	4303      	orrs	r3, r0
10001eae:	601d      	str	r5, [r3, #0]
10001eb0:	6812      	ldr	r2, [r2, #0]
10001eb2:	404a      	eors	r2, r1
10001eb4:	2103      	movs	r1, #3
10001eb6:	4011      	ands	r1, r2
10001eb8:	6019      	str	r1, [r3, #0]
10001eba:	2102      	movs	r1, #2
10001ebc:	4a64      	ldr	r2, [pc, #400]	; (10002050 <clocks_init+0x2b8>)
10001ebe:	6893      	ldr	r3, [r2, #8]
10001ec0:	4219      	tst	r1, r3
10001ec2:	d0fc      	beq.n	10001ebe <clocks_init+0x126>
10001ec4:	2380      	movs	r3, #128	; 0x80
10001ec6:	2180      	movs	r1, #128	; 0x80
10001ec8:	019b      	lsls	r3, r3, #6
10001eca:	4303      	orrs	r3, r0
10001ecc:	0109      	lsls	r1, r1, #4
10001ece:	6019      	str	r1, [r3, #0]
10001ed0:	2180      	movs	r1, #128	; 0x80
10001ed2:	4b60      	ldr	r3, [pc, #384]	; (10002054 <clocks_init+0x2bc>)
10001ed4:	0049      	lsls	r1, r1, #1
10001ed6:	6051      	str	r1, [r2, #4]
10001ed8:	6163      	str	r3, [r4, #20]
10001eda:	4b5f      	ldr	r3, [pc, #380]	; (10002058 <clocks_init+0x2c0>)
10001edc:	685a      	ldr	r2, [r3, #4]
10001ede:	2aff      	cmp	r2, #255	; 0xff
10001ee0:	d800      	bhi.n	10001ee4 <clocks_init+0x14c>
10001ee2:	6059      	str	r1, [r3, #4]
10001ee4:	2280      	movs	r2, #128	; 0x80
10001ee6:	4b5d      	ldr	r3, [pc, #372]	; (1000205c <clocks_init+0x2c4>)
10001ee8:	69e1      	ldr	r1, [r4, #28]
10001eea:	0112      	lsls	r2, r2, #4
10001eec:	4d5a      	ldr	r5, [pc, #360]	; (10002058 <clocks_init+0x2c0>)
10001eee:	601a      	str	r2, [r3, #0]
10001ef0:	2900      	cmp	r1, #0
10001ef2:	d005      	beq.n	10001f00 <clocks_init+0x168>
10001ef4:	6960      	ldr	r0, [r4, #20]
10001ef6:	f000 fb01 	bl	100024fc <__wrap___aeabi_uidiv>
10001efa:	3001      	adds	r0, #1
10001efc:	3801      	subs	r0, #1
10001efe:	d1fd      	bne.n	10001efc <clocks_init+0x164>
10001f00:	22e0      	movs	r2, #224	; 0xe0
10001f02:	4955      	ldr	r1, [pc, #340]	; (10002058 <clocks_init+0x2c0>)
10001f04:	680b      	ldr	r3, [r1, #0]
10001f06:	401a      	ands	r2, r3
10001f08:	2380      	movs	r3, #128	; 0x80
10001f0a:	015b      	lsls	r3, r3, #5
10001f0c:	432b      	orrs	r3, r5
10001f0e:	601a      	str	r2, [r3, #0]
10001f10:	2380      	movs	r3, #128	; 0x80
10001f12:	2280      	movs	r2, #128	; 0x80
10001f14:	019b      	lsls	r3, r3, #6
10001f16:	432b      	orrs	r3, r5
10001f18:	0112      	lsls	r2, r2, #4
10001f1a:	601a      	str	r2, [r3, #0]
10001f1c:	2280      	movs	r2, #128	; 0x80
10001f1e:	4b3e      	ldr	r3, [pc, #248]	; (10002018 <clocks_init+0x280>)
10001f20:	0052      	lsls	r2, r2, #1
10001f22:	604a      	str	r2, [r1, #4]
10001f24:	61e3      	str	r3, [r4, #28]
10001f26:	4b4e      	ldr	r3, [pc, #312]	; (10002060 <clocks_init+0x2c8>)
10001f28:	6859      	ldr	r1, [r3, #4]
10001f2a:	29ff      	cmp	r1, #255	; 0xff
10001f2c:	d800      	bhi.n	10001f30 <clocks_init+0x198>
10001f2e:	605a      	str	r2, [r3, #4]
10001f30:	2280      	movs	r2, #128	; 0x80
10001f32:	4b4c      	ldr	r3, [pc, #304]	; (10002064 <clocks_init+0x2cc>)
10001f34:	6a21      	ldr	r1, [r4, #32]
10001f36:	0112      	lsls	r2, r2, #4
10001f38:	4d49      	ldr	r5, [pc, #292]	; (10002060 <clocks_init+0x2c8>)
10001f3a:	601a      	str	r2, [r3, #0]
10001f3c:	2900      	cmp	r1, #0
10001f3e:	d005      	beq.n	10001f4c <clocks_init+0x1b4>
10001f40:	6960      	ldr	r0, [r4, #20]
10001f42:	f000 fadb 	bl	100024fc <__wrap___aeabi_uidiv>
10001f46:	3001      	adds	r0, #1
10001f48:	3801      	subs	r0, #1
10001f4a:	d1fd      	bne.n	10001f48 <clocks_init+0x1b0>
10001f4c:	22e0      	movs	r2, #224	; 0xe0
10001f4e:	4944      	ldr	r1, [pc, #272]	; (10002060 <clocks_init+0x2c8>)
10001f50:	680b      	ldr	r3, [r1, #0]
10001f52:	401a      	ands	r2, r3
10001f54:	2380      	movs	r3, #128	; 0x80
10001f56:	015b      	lsls	r3, r3, #5
10001f58:	432b      	orrs	r3, r5
10001f5a:	601a      	str	r2, [r3, #0]
10001f5c:	2380      	movs	r3, #128	; 0x80
10001f5e:	2280      	movs	r2, #128	; 0x80
10001f60:	019b      	lsls	r3, r3, #6
10001f62:	432b      	orrs	r3, r5
10001f64:	0112      	lsls	r2, r2, #4
10001f66:	601a      	str	r2, [r3, #0]
10001f68:	2380      	movs	r3, #128	; 0x80
10001f6a:	2280      	movs	r2, #128	; 0x80
10001f6c:	005b      	lsls	r3, r3, #1
10001f6e:	604b      	str	r3, [r1, #4]
10001f70:	4b29      	ldr	r3, [pc, #164]	; (10002018 <clocks_init+0x280>)
10001f72:	02d2      	lsls	r2, r2, #11
10001f74:	6223      	str	r3, [r4, #32]
10001f76:	4b3c      	ldr	r3, [pc, #240]	; (10002068 <clocks_init+0x2d0>)
10001f78:	6859      	ldr	r1, [r3, #4]
10001f7a:	4291      	cmp	r1, r2
10001f7c:	d200      	bcs.n	10001f80 <clocks_init+0x1e8>
10001f7e:	605a      	str	r2, [r3, #4]
10001f80:	2280      	movs	r2, #128	; 0x80
10001f82:	4b3a      	ldr	r3, [pc, #232]	; (1000206c <clocks_init+0x2d4>)
10001f84:	6a61      	ldr	r1, [r4, #36]	; 0x24
10001f86:	0112      	lsls	r2, r2, #4
10001f88:	4d37      	ldr	r5, [pc, #220]	; (10002068 <clocks_init+0x2d0>)
10001f8a:	601a      	str	r2, [r3, #0]
10001f8c:	2900      	cmp	r1, #0
10001f8e:	d005      	beq.n	10001f9c <clocks_init+0x204>
10001f90:	6960      	ldr	r0, [r4, #20]
10001f92:	f000 fab3 	bl	100024fc <__wrap___aeabi_uidiv>
10001f96:	3001      	adds	r0, #1
10001f98:	3801      	subs	r0, #1
10001f9a:	d1fd      	bne.n	10001f98 <clocks_init+0x200>
10001f9c:	22e0      	movs	r2, #224	; 0xe0
10001f9e:	4932      	ldr	r1, [pc, #200]	; (10002068 <clocks_init+0x2d0>)
10001fa0:	680b      	ldr	r3, [r1, #0]
10001fa2:	401a      	ands	r2, r3
10001fa4:	2380      	movs	r3, #128	; 0x80
10001fa6:	015b      	lsls	r3, r3, #5
10001fa8:	432b      	orrs	r3, r5
10001faa:	601a      	str	r2, [r3, #0]
10001fac:	2380      	movs	r3, #128	; 0x80
10001fae:	2280      	movs	r2, #128	; 0x80
10001fb0:	019b      	lsls	r3, r3, #6
10001fb2:	432b      	orrs	r3, r5
10001fb4:	0112      	lsls	r2, r2, #4
10001fb6:	601a      	str	r2, [r3, #0]
10001fb8:	2380      	movs	r3, #128	; 0x80
10001fba:	02db      	lsls	r3, r3, #11
10001fbc:	604b      	str	r3, [r1, #4]
10001fbe:	4b17      	ldr	r3, [pc, #92]	; (1000201c <clocks_init+0x284>)
10001fc0:	6263      	str	r3, [r4, #36]	; 0x24
10001fc2:	4b2b      	ldr	r3, [pc, #172]	; (10002070 <clocks_init+0x2d8>)
10001fc4:	685a      	ldr	r2, [r3, #4]
10001fc6:	2aff      	cmp	r2, #255	; 0xff
10001fc8:	d802      	bhi.n	10001fd0 <clocks_init+0x238>
10001fca:	2280      	movs	r2, #128	; 0x80
10001fcc:	0052      	lsls	r2, r2, #1
10001fce:	605a      	str	r2, [r3, #4]
10001fd0:	2280      	movs	r2, #128	; 0x80
10001fd2:	4b28      	ldr	r3, [pc, #160]	; (10002074 <clocks_init+0x2dc>)
10001fd4:	69a1      	ldr	r1, [r4, #24]
10001fd6:	0112      	lsls	r2, r2, #4
10001fd8:	4d25      	ldr	r5, [pc, #148]	; (10002070 <clocks_init+0x2d8>)
10001fda:	601a      	str	r2, [r3, #0]
10001fdc:	2900      	cmp	r1, #0
10001fde:	d005      	beq.n	10001fec <clocks_init+0x254>
10001fe0:	6960      	ldr	r0, [r4, #20]
10001fe2:	f000 fa8b 	bl	100024fc <__wrap___aeabi_uidiv>
10001fe6:	3001      	adds	r0, #1
10001fe8:	3801      	subs	r0, #1
10001fea:	d1fd      	bne.n	10001fe8 <clocks_init+0x250>
10001fec:	22e0      	movs	r2, #224	; 0xe0
10001fee:	4920      	ldr	r1, [pc, #128]	; (10002070 <clocks_init+0x2d8>)
10001ff0:	680b      	ldr	r3, [r1, #0]
10001ff2:	401a      	ands	r2, r3
10001ff4:	2380      	movs	r3, #128	; 0x80
10001ff6:	015b      	lsls	r3, r3, #5
10001ff8:	432b      	orrs	r3, r5
10001ffa:	601a      	str	r2, [r3, #0]
10001ffc:	2380      	movs	r3, #128	; 0x80
10001ffe:	2280      	movs	r2, #128	; 0x80
10002000:	019b      	lsls	r3, r3, #6
10002002:	432b      	orrs	r3, r5
10002004:	0112      	lsls	r2, r2, #4
10002006:	601a      	str	r2, [r3, #0]
10002008:	2380      	movs	r3, #128	; 0x80
1000200a:	005b      	lsls	r3, r3, #1
1000200c:	604b      	str	r3, [r1, #4]
1000200e:	4b11      	ldr	r3, [pc, #68]	; (10002054 <clocks_init+0x2bc>)
10002010:	61a3      	str	r3, [r4, #24]
10002012:	e6d7      	b.n	10001dc4 <clocks_init+0x2c>
10002014:	20005674 	.word	0x20005674
10002018:	02dc6c00 	.word	0x02dc6c00
1000201c:	0000b71b 	.word	0x0000b71b
10002020:	40008000 	.word	0x40008000
10002024:	4000b03c 	.word	0x4000b03c
10002028:	4000b030 	.word	0x4000b030
1000202c:	4000e000 	.word	0x4000e000
10002030:	4000f000 	.word	0x4000f000
10002034:	4000c000 	.word	0x4000c000
10002038:	59682f00 	.word	0x59682f00
1000203c:	40028000 	.word	0x40028000
10002040:	1c9c3800 	.word	0x1c9c3800
10002044:	4002c000 	.word	0x4002c000
10002048:	40008030 	.word	0x40008030
1000204c:	00b71b00 	.word	0x00b71b00
10002050:	4000803c 	.word	0x4000803c
10002054:	07735940 	.word	0x07735940
10002058:	40008054 	.word	0x40008054
1000205c:	4000b054 	.word	0x4000b054
10002060:	40008060 	.word	0x40008060
10002064:	4000b060 	.word	0x4000b060
10002068:	4000806c 	.word	0x4000806c
1000206c:	4000b06c 	.word	0x4000b06c
10002070:	40008048 	.word	0x40008048
10002074:	4000b048 	.word	0x4000b048

10002078 <clock_get_hz>:
10002078:	4b01      	ldr	r3, [pc, #4]	; (10002080 <clock_get_hz+0x8>)
1000207a:	0080      	lsls	r0, r0, #2
1000207c:	58c0      	ldr	r0, [r0, r3]
1000207e:	4770      	bx	lr
10002080:	20005674 	.word	0x20005674

10002084 <watchdog_start_tick>:
10002084:	2380      	movs	r3, #128	; 0x80
10002086:	4a02      	ldr	r2, [pc, #8]	; (10002090 <watchdog_start_tick+0xc>)
10002088:	009b      	lsls	r3, r3, #2
1000208a:	4303      	orrs	r3, r0
1000208c:	62d3      	str	r3, [r2, #44]	; 0x2c
1000208e:	4770      	bx	lr
10002090:	40058000 	.word	0x40058000

10002094 <xosc_init>:
10002094:	23aa      	movs	r3, #170	; 0xaa
10002096:	4a06      	ldr	r2, [pc, #24]	; (100020b0 <xosc_init+0x1c>)
10002098:	011b      	lsls	r3, r3, #4
1000209a:	6013      	str	r3, [r2, #0]
1000209c:	232f      	movs	r3, #47	; 0x2f
1000209e:	4905      	ldr	r1, [pc, #20]	; (100020b4 <xosc_init+0x20>)
100020a0:	60d3      	str	r3, [r2, #12]
100020a2:	4b05      	ldr	r3, [pc, #20]	; (100020b8 <xosc_init+0x24>)
100020a4:	6019      	str	r1, [r3, #0]
100020a6:	6853      	ldr	r3, [r2, #4]
100020a8:	2b00      	cmp	r3, #0
100020aa:	dafc      	bge.n	100020a6 <xosc_init+0x12>
100020ac:	4770      	bx	lr
100020ae:	46c0      	nop			; (mov r8, r8)
100020b0:	40024000 	.word	0x40024000
100020b4:	00fab000 	.word	0x00fab000
100020b8:	40026000 	.word	0x40026000

100020bc <pll_init>:
100020bc:	b5f8      	push	{r3, r4, r5, r6, r7, lr}
100020be:	001d      	movs	r5, r3
100020c0:	ab06      	add	r3, sp, #24
100020c2:	781e      	ldrb	r6, [r3, #0]
100020c4:	2301      	movs	r3, #1
100020c6:	425b      	negs	r3, r3
100020c8:	6043      	str	r3, [r0, #4]
100020ca:	2300      	movs	r3, #0
100020cc:	0004      	movs	r4, r0
100020ce:	6083      	str	r3, [r0, #8]
100020d0:	6001      	str	r1, [r0, #0]
100020d2:	200c      	movs	r0, #12
100020d4:	0017      	movs	r7, r2
100020d6:	f000 fa11 	bl	100024fc <__wrap___aeabi_uidiv>
100020da:	0141      	lsls	r1, r0, #5
100020dc:	1a09      	subs	r1, r1, r0
100020de:	018b      	lsls	r3, r1, #6
100020e0:	1a59      	subs	r1, r3, r1
100020e2:	00c9      	lsls	r1, r1, #3
100020e4:	1809      	adds	r1, r1, r0
100020e6:	0189      	lsls	r1, r1, #6
100020e8:	0038      	movs	r0, r7
100020ea:	f000 fa07 	bl	100024fc <__wrap___aeabi_uidiv>
100020ee:	21c0      	movs	r1, #192	; 0xc0
100020f0:	1d23      	adds	r3, r4, #4
100020f2:	0189      	lsls	r1, r1, #6
100020f4:	4319      	orrs	r1, r3
100020f6:	2321      	movs	r3, #33	; 0x21
100020f8:	60a0      	str	r0, [r4, #8]
100020fa:	600b      	str	r3, [r1, #0]
100020fc:	6822      	ldr	r2, [r4, #0]
100020fe:	2a00      	cmp	r2, #0
10002100:	dafc      	bge.n	100020fc <pll_init+0x40>
10002102:	2308      	movs	r3, #8
10002104:	042d      	lsls	r5, r5, #16
10002106:	0336      	lsls	r6, r6, #12
10002108:	432e      	orrs	r6, r5
1000210a:	60e6      	str	r6, [r4, #12]
1000210c:	600b      	str	r3, [r1, #0]
1000210e:	bdf8      	pop	{r3, r4, r5, r6, r7, pc}

10002110 <irq_set_enabled>:
10002110:	2301      	movs	r3, #1
10002112:	4083      	lsls	r3, r0
10002114:	2900      	cmp	r1, #0
10002116:	d004      	beq.n	10002122 <irq_set_enabled+0x12>
10002118:	4a03      	ldr	r2, [pc, #12]	; (10002128 <irq_set_enabled+0x18>)
1000211a:	6013      	str	r3, [r2, #0]
1000211c:	4a03      	ldr	r2, [pc, #12]	; (1000212c <irq_set_enabled+0x1c>)
1000211e:	6013      	str	r3, [r2, #0]
10002120:	4770      	bx	lr
10002122:	4a03      	ldr	r2, [pc, #12]	; (10002130 <irq_set_enabled+0x20>)
10002124:	6013      	str	r3, [r2, #0]
10002126:	e7fb      	b.n	10002120 <irq_set_enabled+0x10>
10002128:	e000e280 	.word	0xe000e280
1000212c:	e000e100 	.word	0xe000e100
10002130:	e000e180 	.word	0xe000e180

10002134 <irq_get_vtable_handler>:
10002134:	4b02      	ldr	r3, [pc, #8]	; (10002140 <irq_get_vtable_handler+0xc>)
10002136:	3010      	adds	r0, #16
10002138:	689b      	ldr	r3, [r3, #8]
1000213a:	0080      	lsls	r0, r0, #2
1000213c:	58c0      	ldr	r0, [r0, r3]
1000213e:	4770      	bx	lr
10002140:	e000ed00 	.word	0xe000ed00

10002144 <irq_set_exclusive_handler>:
10002144:	b570      	push	{r4, r5, r6, lr}
10002146:	000d      	movs	r5, r1
10002148:	f3ef 8610 	mrs	r6, PRIMASK
1000214c:	b672      	cpsid	i
1000214e:	4a0f      	ldr	r2, [pc, #60]	; (1000218c <irq_set_exclusive_handler+0x48>)
10002150:	6813      	ldr	r3, [r2, #0]
10002152:	2b00      	cmp	r3, #0
10002154:	d0fc      	beq.n	10002150 <irq_set_exclusive_handler+0xc>
10002156:	f3bf 8f5f 	dmb	sy
1000215a:	4b0d      	ldr	r3, [pc, #52]	; (10002190 <irq_set_exclusive_handler+0x4c>)
1000215c:	3010      	adds	r0, #16
1000215e:	689b      	ldr	r3, [r3, #8]
10002160:	0084      	lsls	r4, r0, #2
10002162:	591b      	ldr	r3, [r3, r4]
10002164:	4a0b      	ldr	r2, [pc, #44]	; (10002194 <irq_set_exclusive_handler+0x50>)
10002166:	4293      	cmp	r3, r2
10002168:	d003      	beq.n	10002172 <irq_set_exclusive_handler+0x2e>
1000216a:	429d      	cmp	r5, r3
1000216c:	d001      	beq.n	10002172 <irq_set_exclusive_handler+0x2e>
1000216e:	f7ff fe0d 	bl	10001d8c <hard_assertion_failure>
10002172:	4b07      	ldr	r3, [pc, #28]	; (10002190 <irq_set_exclusive_handler+0x4c>)
10002174:	689b      	ldr	r3, [r3, #8]
10002176:	511d      	str	r5, [r3, r4]
10002178:	f3bf 8f5f 	dmb	sy
1000217c:	f3bf 8f5f 	dmb	sy
10002180:	2200      	movs	r2, #0
10002182:	4b02      	ldr	r3, [pc, #8]	; (1000218c <irq_set_exclusive_handler+0x48>)
10002184:	601a      	str	r2, [r3, #0]
10002186:	f386 8810 	msr	PRIMASK, r6
1000218a:	bd70      	pop	{r4, r5, r6, pc}
1000218c:	d0000124 	.word	0xd0000124
10002190:	e000ed00 	.word	0xe000ed00
10002194:	100002cd 	.word	0x100002cd

10002198 <irq_remove_handler>:
10002198:	b5f0      	push	{r4, r5, r6, r7, lr}
1000219a:	46de      	mov	lr, fp
1000219c:	4657      	mov	r7, sl
1000219e:	464e      	mov	r6, r9
100021a0:	4645      	mov	r5, r8
100021a2:	b5e0      	push	{r5, r6, r7, lr}
100021a4:	000c      	movs	r4, r1
100021a6:	b083      	sub	sp, #12
100021a8:	f3ef 8a10 	mrs	sl, PRIMASK
100021ac:	b672      	cpsid	i
100021ae:	4a5f      	ldr	r2, [pc, #380]	; (1000232c <irq_remove_handler+0x194>)
100021b0:	6813      	ldr	r3, [r2, #0]
100021b2:	2b00      	cmp	r3, #0
100021b4:	d0fc      	beq.n	100021b0 <irq_remove_handler+0x18>
100021b6:	f3bf 8f5f 	dmb	sy
100021ba:	2210      	movs	r2, #16
100021bc:	4691      	mov	r9, r2
100021be:	4481      	add	r9, r0
100021c0:	464a      	mov	r2, r9
100021c2:	4b5b      	ldr	r3, [pc, #364]	; (10002330 <irq_remove_handler+0x198>)
100021c4:	0096      	lsls	r6, r2, #2
100021c6:	689b      	ldr	r3, [r3, #8]
100021c8:	599d      	ldr	r5, [r3, r6]
100021ca:	4b5a      	ldr	r3, [pc, #360]	; (10002334 <irq_remove_handler+0x19c>)
100021cc:	4698      	mov	r8, r3
100021ce:	429d      	cmp	r5, r3
100021d0:	d005      	beq.n	100021de <irq_remove_handler+0x46>
100021d2:	42a5      	cmp	r5, r4
100021d4:	d016      	beq.n	10002204 <irq_remove_handler+0x6c>
100021d6:	4f58      	ldr	r7, [pc, #352]	; (10002338 <irq_remove_handler+0x1a0>)
100021d8:	1beb      	subs	r3, r5, r7
100021da:	2b2f      	cmp	r3, #47	; 0x2f
100021dc:	d914      	bls.n	10002208 <irq_remove_handler+0x70>
100021de:	4b54      	ldr	r3, [pc, #336]	; (10002330 <irq_remove_handler+0x198>)
100021e0:	689b      	ldr	r3, [r3, #8]
100021e2:	519d      	str	r5, [r3, r6]
100021e4:	f3bf 8f5f 	dmb	sy
100021e8:	f3bf 8f5f 	dmb	sy
100021ec:	2200      	movs	r2, #0
100021ee:	4b4f      	ldr	r3, [pc, #316]	; (1000232c <irq_remove_handler+0x194>)
100021f0:	601a      	str	r2, [r3, #0]
100021f2:	f38a 8810 	msr	PRIMASK, sl
100021f6:	b003      	add	sp, #12
100021f8:	bc3c      	pop	{r2, r3, r4, r5}
100021fa:	4690      	mov	r8, r2
100021fc:	4699      	mov	r9, r3
100021fe:	46a2      	mov	sl, r4
10002200:	46ab      	mov	fp, r5
10002202:	bdf0      	pop	{r4, r5, r6, r7, pc}
10002204:	001d      	movs	r5, r3
10002206:	e7ea      	b.n	100021de <irq_remove_handler+0x46>
10002208:	2301      	movs	r3, #1
1000220a:	4083      	lsls	r3, r0
1000220c:	469b      	mov	fp, r3
1000220e:	465a      	mov	r2, fp
10002210:	4b4a      	ldr	r3, [pc, #296]	; (1000233c <irq_remove_handler+0x1a4>)
10002212:	681b      	ldr	r3, [r3, #0]
10002214:	401a      	ands	r2, r3
10002216:	9200      	str	r2, [sp, #0]
10002218:	465a      	mov	r2, fp
1000221a:	4b49      	ldr	r3, [pc, #292]	; (10002340 <irq_remove_handler+0x1a8>)
1000221c:	601a      	str	r2, [r3, #0]
1000221e:	f3bf 8f5f 	dmb	sy
10002222:	f7fd ffb8 	bl	10000196 <__get_current_exception>
10002226:	9001      	str	r0, [sp, #4]
10002228:	2800      	cmp	r0, #0
1000222a:	d003      	beq.n	10002234 <irq_remove_handler+0x9c>
1000222c:	4581      	cmp	r9, r0
1000222e:	d001      	beq.n	10002234 <irq_remove_handler+0x9c>
10002230:	f7ff fdac 	bl	10001d8c <hard_assertion_failure>
10002234:	2301      	movs	r3, #1
10002236:	0029      	movs	r1, r5
10002238:	4399      	bics	r1, r3
1000223a:	688b      	ldr	r3, [r1, #8]
1000223c:	42a3      	cmp	r3, r4
1000223e:	d069      	beq.n	10002314 <irq_remove_handler+0x17c>
10002240:	000a      	movs	r2, r1
10002242:	e007      	b.n	10002254 <irq_remove_handler+0xbc>
10002244:	0043      	lsls	r3, r0, #1
10002246:	181b      	adds	r3, r3, r0
10002248:	009b      	lsls	r3, r3, #2
1000224a:	18fb      	adds	r3, r7, r3
1000224c:	6898      	ldr	r0, [r3, #8]
1000224e:	42a0      	cmp	r0, r4
10002250:	d011      	beq.n	10002276 <irq_remove_handler+0xde>
10002252:	001a      	movs	r2, r3
10002254:	2006      	movs	r0, #6
10002256:	5610      	ldrsb	r0, [r2, r0]
10002258:	2800      	cmp	r0, #0
1000225a:	daf3      	bge.n	10002244 <irq_remove_handler+0xac>
1000225c:	9b00      	ldr	r3, [sp, #0]
1000225e:	2b00      	cmp	r3, #0
10002260:	d005      	beq.n	1000226e <irq_remove_handler+0xd6>
10002262:	465a      	mov	r2, fp
10002264:	4b37      	ldr	r3, [pc, #220]	; (10002344 <irq_remove_handler+0x1ac>)
10002266:	601a      	str	r2, [r3, #0]
10002268:	4b34      	ldr	r3, [pc, #208]	; (1000233c <irq_remove_handler+0x1a4>)
1000226a:	601a      	str	r2, [r3, #0]
1000226c:	e7b7      	b.n	100021de <irq_remove_handler+0x46>
1000226e:	465a      	mov	r2, fp
10002270:	4b33      	ldr	r3, [pc, #204]	; (10002340 <irq_remove_handler+0x1a8>)
10002272:	601a      	str	r2, [r3, #0]
10002274:	e7b3      	b.n	100021de <irq_remove_handler+0x46>
10002276:	2006      	movs	r0, #6
10002278:	5618      	ldrsb	r0, [r3, r0]
1000227a:	2800      	cmp	r0, #0
1000227c:	db22      	blt.n	100022c4 <irq_remove_handler+0x12c>
1000227e:	0042      	lsls	r2, r0, #1
10002280:	1811      	adds	r1, r2, r0
10002282:	0089      	lsls	r1, r1, #2
10002284:	187c      	adds	r4, r7, r1
10002286:	4688      	mov	r8, r1
10002288:	68a1      	ldr	r1, [r4, #8]
1000228a:	6099      	str	r1, [r3, #8]
1000228c:	79e1      	ldrb	r1, [r4, #7]
1000228e:	71d9      	strb	r1, [r3, #7]
10002290:	2106      	movs	r1, #6
10002292:	5661      	ldrsb	r1, [r4, r1]
10002294:	7199      	strb	r1, [r3, #6]
10002296:	79a1      	ldrb	r1, [r4, #6]
10002298:	297f      	cmp	r1, #127	; 0x7f
1000229a:	d82b      	bhi.n	100022f4 <irq_remove_handler+0x15c>
1000229c:	88a4      	ldrh	r4, [r4, #4]
1000229e:	1af9      	subs	r1, r7, r3
100022a0:	0564      	lsls	r4, r4, #21
100022a2:	1524      	asrs	r4, r4, #20
100022a4:	4444      	add	r4, r8
100022a6:	1909      	adds	r1, r1, r4
100022a8:	24e0      	movs	r4, #224	; 0xe0
100022aa:	0509      	lsls	r1, r1, #20
100022ac:	0d49      	lsrs	r1, r1, #21
100022ae:	0224      	lsls	r4, r4, #8
100022b0:	4321      	orrs	r1, r4
100022b2:	8099      	strh	r1, [r3, #4]
100022b4:	1812      	adds	r2, r2, r0
100022b6:	4b24      	ldr	r3, [pc, #144]	; (10002348 <irq_remove_handler+0x1b0>)
100022b8:	0092      	lsls	r2, r2, #2
100022ba:	18bf      	adds	r7, r7, r2
100022bc:	781a      	ldrb	r2, [r3, #0]
100022be:	7018      	strb	r0, [r3, #0]
100022c0:	71ba      	strb	r2, [r7, #6]
100022c2:	e7cb      	b.n	1000225c <irq_remove_handler+0xc4>
100022c4:	9801      	ldr	r0, [sp, #4]
100022c6:	2800      	cmp	r0, #0
100022c8:	d117      	bne.n	100022fa <irq_remove_handler+0x162>
100022ca:	30ff      	adds	r0, #255	; 0xff
100022cc:	7190      	strb	r0, [r2, #6]
100022ce:	481f      	ldr	r0, [pc, #124]	; (1000234c <irq_remove_handler+0x1b4>)
100022d0:	8090      	strh	r0, [r2, #4]
100022d2:	4a1d      	ldr	r2, [pc, #116]	; (10002348 <irq_remove_handler+0x1b0>)
100022d4:	1bcf      	subs	r7, r1, r7
100022d6:	7810      	ldrb	r0, [r2, #0]
100022d8:	10bf      	asrs	r7, r7, #2
100022da:	7198      	strb	r0, [r3, #6]
100022dc:	00bb      	lsls	r3, r7, #2
100022de:	19db      	adds	r3, r3, r7
100022e0:	0119      	lsls	r1, r3, #4
100022e2:	185b      	adds	r3, r3, r1
100022e4:	0219      	lsls	r1, r3, #8
100022e6:	185b      	adds	r3, r3, r1
100022e8:	0419      	lsls	r1, r3, #16
100022ea:	185b      	adds	r3, r3, r1
100022ec:	005b      	lsls	r3, r3, #1
100022ee:	19db      	adds	r3, r3, r7
100022f0:	7013      	strb	r3, [r2, #0]
100022f2:	e7b3      	b.n	1000225c <irq_remove_handler+0xc4>
100022f4:	21bd      	movs	r1, #189	; 0xbd
100022f6:	0209      	lsls	r1, r1, #8
100022f8:	e7db      	b.n	100022b2 <irq_remove_handler+0x11a>
100022fa:	4a15      	ldr	r2, [pc, #84]	; (10002350 <irq_remove_handler+0x1b8>)
100022fc:	4915      	ldr	r1, [pc, #84]	; (10002354 <irq_remove_handler+0x1bc>)
100022fe:	1ad2      	subs	r2, r2, r3
10002300:	3a08      	subs	r2, #8
10002302:	0250      	lsls	r0, r2, #9
10002304:	0d40      	lsrs	r0, r0, #21
10002306:	4301      	orrs	r1, r0
10002308:	8099      	strh	r1, [r3, #4]
1000230a:	4913      	ldr	r1, [pc, #76]	; (10002358 <irq_remove_handler+0x1c0>)
1000230c:	0852      	lsrs	r2, r2, #1
1000230e:	430a      	orrs	r2, r1
10002310:	80da      	strh	r2, [r3, #6]
10002312:	e7a3      	b.n	1000225c <irq_remove_handler+0xc4>
10002314:	2006      	movs	r0, #6
10002316:	5608      	ldrsb	r0, [r1, r0]
10002318:	000b      	movs	r3, r1
1000231a:	2800      	cmp	r0, #0
1000231c:	daaf      	bge.n	1000227e <irq_remove_handler+0xe6>
1000231e:	9a01      	ldr	r2, [sp, #4]
10002320:	2a00      	cmp	r2, #0
10002322:	d1ea      	bne.n	100022fa <irq_remove_handler+0x162>
10002324:	000b      	movs	r3, r1
10002326:	4645      	mov	r5, r8
10002328:	e7d3      	b.n	100022d2 <irq_remove_handler+0x13a>
1000232a:	46c0      	nop			; (mov r8, r8)
1000232c:	d0000124 	.word	0xd0000124
10002330:	e000ed00 	.word	0xe000ed00
10002334:	100002cd 	.word	0x100002cd
10002338:	2000022c 	.word	0x2000022c
1000233c:	e000e100 	.word	0xe000e100
10002340:	e000e180 	.word	0xe000e180
10002344:	e000e280 	.word	0xe000e280
10002348:	2000f5e0 	.word	0x2000f5e0
1000234c:	ffffbd00 	.word	0xffffbd00
10002350:	20000266 	.word	0x20000266
10002354:	fffff000 	.word	0xfffff000
10002358:	fffff800 	.word	0xfffff800

1000235c <irq_add_tail_to_free_list>:
1000235c:	b5f8      	push	{r3, r4, r5, r6, r7, lr}
1000235e:	2501      	movs	r5, #1
10002360:	0004      	movs	r4, r0
10002362:	4305      	orrs	r5, r0
10002364:	f7fd ff17 	bl	10000196 <__get_current_exception>
10002368:	f3ef 8610 	mrs	r6, PRIMASK
1000236c:	b672      	cpsid	i
1000236e:	4a24      	ldr	r2, [pc, #144]	; (10002400 <irq_add_tail_to_free_list+0xa4>)
10002370:	6813      	ldr	r3, [r2, #0]
10002372:	2b00      	cmp	r3, #0
10002374:	d0fc      	beq.n	10002370 <irq_add_tail_to_free_list+0x14>
10002376:	f3bf 8f5f 	dmb	sy
1000237a:	4f22      	ldr	r7, [pc, #136]	; (10002404 <irq_add_tail_to_free_list+0xa8>)
1000237c:	0080      	lsls	r0, r0, #2
1000237e:	1be1      	subs	r1, r4, r7
10002380:	1089      	asrs	r1, r1, #2
10002382:	008a      	lsls	r2, r1, #2
10002384:	1852      	adds	r2, r2, r1
10002386:	0113      	lsls	r3, r2, #4
10002388:	18d2      	adds	r2, r2, r3
1000238a:	0213      	lsls	r3, r2, #8
1000238c:	18d2      	adds	r2, r2, r3
1000238e:	0413      	lsls	r3, r2, #16
10002390:	18d3      	adds	r3, r2, r3
10002392:	4a1d      	ldr	r2, [pc, #116]	; (10002408 <irq_add_tail_to_free_list+0xac>)
10002394:	005b      	lsls	r3, r3, #1
10002396:	185b      	adds	r3, r3, r1
10002398:	6891      	ldr	r1, [r2, #8]
1000239a:	5809      	ldr	r1, [r1, r0]
1000239c:	42a9      	cmp	r1, r5
1000239e:	d01c      	beq.n	100023da <irq_add_tail_to_free_list+0x7e>
100023a0:	2206      	movs	r2, #6
100023a2:	56ba      	ldrsb	r2, [r7, r2]
100023a4:	4293      	cmp	r3, r2
100023a6:	d01c      	beq.n	100023e2 <irq_add_tail_to_free_list+0x86>
100023a8:	2212      	movs	r2, #18
100023aa:	56ba      	ldrsb	r2, [r7, r2]
100023ac:	4293      	cmp	r3, r2
100023ae:	d022      	beq.n	100023f6 <irq_add_tail_to_free_list+0x9a>
100023b0:	221e      	movs	r2, #30
100023b2:	56ba      	ldrsb	r2, [r7, r2]
100023b4:	4293      	cmp	r3, r2
100023b6:	d020      	beq.n	100023fa <irq_add_tail_to_free_list+0x9e>
100023b8:	222a      	movs	r2, #42	; 0x2a
100023ba:	56ba      	ldrsb	r2, [r7, r2]
100023bc:	2103      	movs	r1, #3
100023be:	429a      	cmp	r2, r3
100023c0:	d010      	beq.n	100023e4 <irq_add_tail_to_free_list+0x88>
100023c2:	4a12      	ldr	r2, [pc, #72]	; (1000240c <irq_add_tail_to_free_list+0xb0>)
100023c4:	7811      	ldrb	r1, [r2, #0]
100023c6:	7013      	strb	r3, [r2, #0]
100023c8:	71a1      	strb	r1, [r4, #6]
100023ca:	f3bf 8f5f 	dmb	sy
100023ce:	2200      	movs	r2, #0
100023d0:	4b0b      	ldr	r3, [pc, #44]	; (10002400 <irq_add_tail_to_free_list+0xa4>)
100023d2:	601a      	str	r2, [r3, #0]
100023d4:	f386 8810 	msr	PRIMASK, r6
100023d8:	bdf8      	pop	{r3, r4, r5, r6, r7, pc}
100023da:	6892      	ldr	r2, [r2, #8]
100023dc:	490c      	ldr	r1, [pc, #48]	; (10002410 <irq_add_tail_to_free_list+0xb4>)
100023de:	5011      	str	r1, [r2, r0]
100023e0:	e7ef      	b.n	100023c2 <irq_add_tail_to_free_list+0x66>
100023e2:	2100      	movs	r1, #0
100023e4:	004a      	lsls	r2, r1, #1
100023e6:	1852      	adds	r2, r2, r1
100023e8:	21ff      	movs	r1, #255	; 0xff
100023ea:	0092      	lsls	r2, r2, #2
100023ec:	18ba      	adds	r2, r7, r2
100023ee:	7191      	strb	r1, [r2, #6]
100023f0:	4908      	ldr	r1, [pc, #32]	; (10002414 <irq_add_tail_to_free_list+0xb8>)
100023f2:	8091      	strh	r1, [r2, #4]
100023f4:	e7e5      	b.n	100023c2 <irq_add_tail_to_free_list+0x66>
100023f6:	2101      	movs	r1, #1
100023f8:	e7f4      	b.n	100023e4 <irq_add_tail_to_free_list+0x88>
100023fa:	2102      	movs	r1, #2
100023fc:	e7f2      	b.n	100023e4 <irq_add_tail_to_free_list+0x88>
100023fe:	46c0      	nop			; (mov r8, r8)
10002400:	d0000124 	.word	0xd0000124
10002404:	2000022c 	.word	0x2000022c
10002408:	e000ed00 	.word	0xe000ed00
1000240c:	2000f5e0 	.word	0x2000f5e0
10002410:	100002cd 	.word	0x100002cd
10002414:	ffffbd00 	.word	0xffffbd00

10002418 <irq_init_priorities>:
10002418:	b5f0      	push	{r4, r5, r6, r7, lr}
1000241a:	2200      	movs	r2, #0
1000241c:	2403      	movs	r4, #3
1000241e:	27ff      	movs	r7, #255	; 0xff
10002420:	2680      	movs	r6, #128	; 0x80
10002422:	0020      	movs	r0, r4
10002424:	003d      	movs	r5, r7
10002426:	4b09      	ldr	r3, [pc, #36]	; (1000244c <irq_init_priorities+0x34>)
10002428:	0011      	movs	r1, r2
1000242a:	469c      	mov	ip, r3
1000242c:	4010      	ands	r0, r2
1000242e:	00c0      	lsls	r0, r0, #3
10002430:	4085      	lsls	r5, r0
10002432:	43a1      	bics	r1, r4
10002434:	4461      	add	r1, ip
10002436:	680b      	ldr	r3, [r1, #0]
10002438:	3201      	adds	r2, #1
1000243a:	43ab      	bics	r3, r5
1000243c:	0035      	movs	r5, r6
1000243e:	4085      	lsls	r5, r0
10002440:	432b      	orrs	r3, r5
10002442:	600b      	str	r3, [r1, #0]
10002444:	2a20      	cmp	r2, #32
10002446:	d1ec      	bne.n	10002422 <irq_init_priorities+0xa>
10002448:	bdf0      	pop	{r4, r5, r6, r7, pc}
1000244a:	46c0      	nop			; (mov r8, r8)
1000244c:	e000e400 	.word	0xe000e400

10002450 <_out_char>:
10002450:	b510      	push	{r4, lr}
10002452:	2800      	cmp	r0, #0
10002454:	d100      	bne.n	10002458 <_out_char+0x8>
10002456:	bd10      	pop	{r4, pc}
10002458:	f000 fa66 	bl	10002928 <__wrap_putchar>
1000245c:	e7fb      	b.n	10002456 <_out_char+0x6>
1000245e:	46c0      	nop			; (mov r8, r8)

10002460 <weak_raw_vprintf>:
10002460:	b510      	push	{r4, lr}
10002462:	4a09      	ldr	r2, [pc, #36]	; (10002488 <weak_raw_vprintf+0x28>)
10002464:	0003      	movs	r3, r0
10002466:	6814      	ldr	r4, [r2, #0]
10002468:	b084      	sub	sp, #16
1000246a:	2c00      	cmp	r4, #0
1000246c:	d008      	beq.n	10002480 <weak_raw_vprintf+0x20>
1000246e:	2201      	movs	r2, #1
10002470:	9100      	str	r1, [sp, #0]
10002472:	4806      	ldr	r0, [pc, #24]	; (1000248c <weak_raw_vprintf+0x2c>)
10002474:	4252      	negs	r2, r2
10002476:	a903      	add	r1, sp, #12
10002478:	47a0      	blx	r4
1000247a:	2001      	movs	r0, #1
1000247c:	b004      	add	sp, #16
1000247e:	bd10      	pop	{r4, pc}
10002480:	f000 fa60 	bl	10002944 <__wrap_puts>
10002484:	2000      	movs	r0, #0
10002486:	e7f9      	b.n	1000247c <weak_raw_vprintf+0x1c>
10002488:	20005cf4 	.word	0x20005cf4
1000248c:	10002451 	.word	0x10002451

10002490 <__aeabi_bits_init>:
10002490:	4801      	ldr	r0, [pc, #4]	; (10002498 <__aeabi_bits_init+0x8>)
10002492:	2104      	movs	r1, #4
10002494:	4b01      	ldr	r3, [pc, #4]	; (1000249c <__aeabi_bits_init+0xc>)
10002496:	4718      	bx	r3
10002498:	20000280 	.word	0x20000280
1000249c:	100024c1 	.word	0x100024c1

100024a0 <rom_func_lookup>:
100024a0:	2314      	movs	r3, #20
100024a2:	b510      	push	{r4, lr}
100024a4:	0001      	movs	r1, r0
100024a6:	8818      	ldrh	r0, [r3, #0]
100024a8:	3304      	adds	r3, #4
100024aa:	881b      	ldrh	r3, [r3, #0]
100024ac:	4798      	blx	r3
100024ae:	bd10      	pop	{r4, pc}

100024b0 <rom_data_lookup>:
100024b0:	2316      	movs	r3, #22
100024b2:	b510      	push	{r4, lr}
100024b4:	0001      	movs	r1, r0
100024b6:	8818      	ldrh	r0, [r3, #0]
100024b8:	3302      	adds	r3, #2
100024ba:	881b      	ldrh	r3, [r3, #0]
100024bc:	4798      	blx	r3
100024be:	bd10      	pop	{r4, pc}

100024c0 <rom_funcs_lookup>:
100024c0:	b5f0      	push	{r4, r5, r6, r7, lr}
100024c2:	46c6      	mov	lr, r8
100024c4:	b500      	push	{lr}
100024c6:	2900      	cmp	r1, #0
100024c8:	d016      	beq.n	100024f8 <rom_funcs_lookup+0x38>
100024ca:	2314      	movs	r3, #20
100024cc:	0004      	movs	r4, r0
100024ce:	2501      	movs	r5, #1
100024d0:	4698      	mov	r8, r3
100024d2:	2718      	movs	r7, #24
100024d4:	0089      	lsls	r1, r1, #2
100024d6:	1846      	adds	r6, r0, r1
100024d8:	4643      	mov	r3, r8
100024da:	6821      	ldr	r1, [r4, #0]
100024dc:	8818      	ldrh	r0, [r3, #0]
100024de:	883b      	ldrh	r3, [r7, #0]
100024e0:	4798      	blx	r3
100024e2:	c401      	stmia	r4!, {r0}
100024e4:	1e43      	subs	r3, r0, #1
100024e6:	4198      	sbcs	r0, r3
100024e8:	4240      	negs	r0, r0
100024ea:	4005      	ands	r5, r0
100024ec:	42a6      	cmp	r6, r4
100024ee:	d1f3      	bne.n	100024d8 <rom_funcs_lookup+0x18>
100024f0:	0028      	movs	r0, r5
100024f2:	bc04      	pop	{r2}
100024f4:	4690      	mov	r8, r2
100024f6:	bdf0      	pop	{r4, r5, r6, r7, pc}
100024f8:	2501      	movs	r5, #1
100024fa:	e7f9      	b.n	100024f0 <rom_funcs_lookup+0x30>

100024fc <__wrap___aeabi_uidiv>:
100024fc:	4a13      	ldr	r2, [pc, #76]	; (1000254c <divmod_u32u32_savestate+0x20>)
100024fe:	6f93      	ldr	r3, [r2, #120]	; 0x78
10002500:	089b      	lsrs	r3, r3, #2
10002502:	d213      	bcs.n	1000252c <divmod_u32u32_savestate>

10002504 <divmod_u32u32_unsafe>:
10002504:	6610      	str	r0, [r2, #96]	; 0x60
10002506:	6651      	str	r1, [r2, #100]	; 0x64
10002508:	2900      	cmp	r1, #0
1000250a:	d005      	beq.n	10002518 <divmod_u32u32_unsafe+0x14>
1000250c:	e7ff      	b.n	1000250e <divmod_u32u32_unsafe+0xa>
1000250e:	e7ff      	b.n	10002510 <divmod_u32u32_unsafe+0xc>
10002510:	e7ff      	b.n	10002512 <divmod_u32u32_unsafe+0xe>
10002512:	6f51      	ldr	r1, [r2, #116]	; 0x74
10002514:	6f10      	ldr	r0, [r2, #112]	; 0x70
10002516:	4770      	bx	lr
10002518:	b504      	push	{r2, lr}
1000251a:	2800      	cmp	r0, #0
1000251c:	d001      	beq.n	10002522 <divmod_u32u32_unsafe+0x1e>
1000251e:	2000      	movs	r0, #0
10002520:	43c0      	mvns	r0, r0
10002522:	f001 f87d 	bl	10003620 <____aeabi_idiv0_veneer>
10002526:	2100      	movs	r1, #0
10002528:	bd04      	pop	{r2, pc}
1000252a:	46c0      	nop			; (mov r8, r8)

1000252c <divmod_u32u32_savestate>:
1000252c:	6f93      	ldr	r3, [r2, #120]	; 0x78
1000252e:	085b      	lsrs	r3, r3, #1
10002530:	d3fd      	bcc.n	1000252e <divmod_u32u32_savestate+0x2>
10002532:	b5f0      	push	{r4, r5, r6, r7, lr}
10002534:	6e94      	ldr	r4, [r2, #104]	; 0x68
10002536:	6ed5      	ldr	r5, [r2, #108]	; 0x6c
10002538:	6f57      	ldr	r7, [r2, #116]	; 0x74
1000253a:	6f16      	ldr	r6, [r2, #112]	; 0x70
1000253c:	f7ff ffe2 	bl	10002504 <divmod_u32u32_unsafe>
10002540:	6694      	str	r4, [r2, #104]	; 0x68
10002542:	66d5      	str	r5, [r2, #108]	; 0x6c
10002544:	6757      	str	r7, [r2, #116]	; 0x74
10002546:	6716      	str	r6, [r2, #112]	; 0x70
10002548:	bdf0      	pop	{r4, r5, r6, r7, pc}
1000254a:	0000      	.short	0x0000
1000254c:	d0000000 	.word	0xd0000000

10002550 <__aeabi_double_init>:
10002550:	2313      	movs	r3, #19
10002552:	b570      	push	{r4, r5, r6, lr}
10002554:	781d      	ldrb	r5, [r3, #0]
10002556:	2d01      	cmp	r5, #1
10002558:	d010      	beq.n	1000257c <__aeabi_double_init+0x2c>
1000255a:	dd0b      	ble.n	10002574 <__aeabi_double_init+0x24>
1000255c:	4824      	ldr	r0, [pc, #144]	; (100025f0 <__aeabi_double_init+0xa0>)
1000255e:	f7ff ffa7 	bl	100024b0 <rom_data_lookup>
10002562:	4c24      	ldr	r4, [pc, #144]	; (100025f4 <__aeabi_double_init+0xa4>)
10002564:	0001      	movs	r1, r0
10002566:	2280      	movs	r2, #128	; 0x80
10002568:	0020      	movs	r0, r4
1000256a:	f000 f915 	bl	10002798 <__wrap___aeabi_memcpy>
1000256e:	2d02      	cmp	r5, #2
10002570:	d001      	beq.n	10002576 <__aeabi_double_init+0x26>
10002572:	bd70      	pop	{r4, r5, r6, pc}
10002574:	4c1f      	ldr	r4, [pc, #124]	; (100025f4 <__aeabi_double_init+0xa4>)
10002576:	4a20      	ldr	r2, [pc, #128]	; (100025f8 <__aeabi_double_init+0xa8>)
10002578:	64a2      	str	r2, [r4, #72]	; 0x48
1000257a:	e7fa      	b.n	10002572 <__aeabi_double_init+0x22>
1000257c:	002e      	movs	r6, r5
1000257e:	4c1d      	ldr	r4, [pc, #116]	; (100025f4 <__aeabi_double_init+0xa4>)
10002580:	4a1d      	ldr	r2, [pc, #116]	; (100025f8 <__aeabi_double_init+0xa8>)
10002582:	08a3      	lsrs	r3, r4, #2
10002584:	425b      	negs	r3, r3
10002586:	401e      	ands	r6, r3
10002588:	421d      	tst	r5, r3
1000258a:	d02f      	beq.n	100025ec <__aeabi_double_init+0x9c>
1000258c:	0033      	movs	r3, r6
1000258e:	6022      	str	r2, [r4, #0]
10002590:	2020      	movs	r0, #32
10002592:	00b1      	lsls	r1, r6, #2
10002594:	1861      	adds	r1, r4, r1
10002596:	1b80      	subs	r0, r0, r6
10002598:	600a      	str	r2, [r1, #0]
1000259a:	604a      	str	r2, [r1, #4]
1000259c:	608a      	str	r2, [r1, #8]
1000259e:	60ca      	str	r2, [r1, #12]
100025a0:	610a      	str	r2, [r1, #16]
100025a2:	614a      	str	r2, [r1, #20]
100025a4:	618a      	str	r2, [r1, #24]
100025a6:	61ca      	str	r2, [r1, #28]
100025a8:	620a      	str	r2, [r1, #32]
100025aa:	624a      	str	r2, [r1, #36]	; 0x24
100025ac:	628a      	str	r2, [r1, #40]	; 0x28
100025ae:	62ca      	str	r2, [r1, #44]	; 0x2c
100025b0:	630a      	str	r2, [r1, #48]	; 0x30
100025b2:	634a      	str	r2, [r1, #52]	; 0x34
100025b4:	638a      	str	r2, [r1, #56]	; 0x38
100025b6:	63ca      	str	r2, [r1, #60]	; 0x3c
100025b8:	640a      	str	r2, [r1, #64]	; 0x40
100025ba:	644a      	str	r2, [r1, #68]	; 0x44
100025bc:	648a      	str	r2, [r1, #72]	; 0x48
100025be:	64ca      	str	r2, [r1, #76]	; 0x4c
100025c0:	650a      	str	r2, [r1, #80]	; 0x50
100025c2:	654a      	str	r2, [r1, #84]	; 0x54
100025c4:	658a      	str	r2, [r1, #88]	; 0x58
100025c6:	65ca      	str	r2, [r1, #92]	; 0x5c
100025c8:	660a      	str	r2, [r1, #96]	; 0x60
100025ca:	664a      	str	r2, [r1, #100]	; 0x64
100025cc:	668a      	str	r2, [r1, #104]	; 0x68
100025ce:	66ca      	str	r2, [r1, #108]	; 0x6c
100025d0:	670a      	str	r2, [r1, #112]	; 0x70
100025d2:	674a      	str	r2, [r1, #116]	; 0x74
100025d4:	0840      	lsrs	r0, r0, #1
100025d6:	2810      	cmp	r0, #16
100025d8:	d103      	bne.n	100025e2 <__aeabi_double_init+0x92>
100025da:	678a      	str	r2, [r1, #120]	; 0x78
100025dc:	67ca      	str	r2, [r1, #124]	; 0x7c
100025de:	64a2      	str	r2, [r4, #72]	; 0x48
100025e0:	e7c7      	b.n	10002572 <__aeabi_double_init+0x22>
100025e2:	331e      	adds	r3, #30
100025e4:	009b      	lsls	r3, r3, #2
100025e6:	50e2      	str	r2, [r4, r3]
100025e8:	64a2      	str	r2, [r4, #72]	; 0x48
100025ea:	e7c2      	b.n	10002572 <__aeabi_double_init+0x22>
100025ec:	2300      	movs	r3, #0
100025ee:	e7cf      	b.n	10002590 <__aeabi_double_init+0x40>
100025f0:	00004453 	.word	0x00004453
100025f4:	2000f5ec 	.word	0x2000f5ec
100025f8:	100025fd 	.word	0x100025fd

100025fc <double_table_shim_on_use_helper>:
100025fc:	b507      	push	{r0, r1, r2, lr}
100025fe:	4660      	mov	r0, ip
10002600:	8801      	ldrh	r1, [r0, #0]
10002602:	0a0a      	lsrs	r2, r1, #8
10002604:	3002      	adds	r0, #2
10002606:	2adf      	cmp	r2, #223	; 0xdf
10002608:	d1fa      	bne.n	10002600 <double_table_shim_on_use_helper+0x4>
1000260a:	b2c9      	uxtb	r1, r1
1000260c:	0882      	lsrs	r2, r0, #2
1000260e:	d304      	bcc.n	1000261a <double_table_shim_on_use_helper+0x1e>
10002610:	8802      	ldrh	r2, [r0, #0]
10002612:	8840      	ldrh	r0, [r0, #2]
10002614:	0400      	lsls	r0, r0, #16
10002616:	4310      	orrs	r0, r2
10002618:	e000      	b.n	1000261c <double_table_shim_on_use_helper+0x20>
1000261a:	6800      	ldr	r0, [r0, #0]
1000261c:	4a01      	ldr	r2, [pc, #4]	; (10002624 <double_table_shim_on_use_helper+0x28>)
1000261e:	5050      	str	r0, [r2, r1]
10002620:	9003      	str	r0, [sp, #12]
10002622:	bd07      	pop	{r0, r1, r2, pc}
10002624:	2000f5ec 	.word	0x2000f5ec

10002628 <__wrap___aeabi_lmul>:
10002628:	4351      	muls	r1, r2
1000262a:	4343      	muls	r3, r0
1000262c:	18c9      	adds	r1, r1, r3
1000262e:	468c      	mov	ip, r1
10002630:	0c11      	lsrs	r1, r2, #16
10002632:	b283      	uxth	r3, r0
10002634:	434b      	muls	r3, r1
10002636:	b410      	push	{r4}
10002638:	0c04      	lsrs	r4, r0, #16
1000263a:	4361      	muls	r1, r4
1000263c:	b292      	uxth	r2, r2
1000263e:	b280      	uxth	r0, r0
10002640:	4350      	muls	r0, r2
10002642:	4362      	muls	r2, r4
10002644:	041c      	lsls	r4, r3, #16
10002646:	0c1b      	lsrs	r3, r3, #16
10002648:	1900      	adds	r0, r0, r4
1000264a:	bc10      	pop	{r4}
1000264c:	4159      	adcs	r1, r3
1000264e:	0413      	lsls	r3, r2, #16
10002650:	0c12      	lsrs	r2, r2, #16
10002652:	18c0      	adds	r0, r0, r3
10002654:	4151      	adcs	r1, r2
10002656:	4461      	add	r1, ip
10002658:	4770      	bx	lr
	...

1000265c <__wrap___aeabi_frsub>:
1000265c:	4048      	eors	r0, r1
1000265e:	4041      	eors	r1, r0
10002660:	4048      	eors	r0, r1

10002662 <__wrap___aeabi_fsub>:
10002662:	4b06      	ldr	r3, [pc, #24]	; (1000267c <__wrap___aeabi_fmul+0x8>)
10002664:	685b      	ldr	r3, [r3, #4]
10002666:	4718      	bx	r3

10002668 <__wrap___aeabi_fadd>:
10002668:	4b04      	ldr	r3, [pc, #16]	; (1000267c <__wrap___aeabi_fmul+0x8>)
1000266a:	681b      	ldr	r3, [r3, #0]
1000266c:	4718      	bx	r3

1000266e <__wrap___aeabi_fdiv>:
1000266e:	4b03      	ldr	r3, [pc, #12]	; (1000267c <__wrap___aeabi_fmul+0x8>)
10002670:	68db      	ldr	r3, [r3, #12]
10002672:	4718      	bx	r3

10002674 <__wrap___aeabi_fmul>:
10002674:	4b01      	ldr	r3, [pc, #4]	; (1000267c <__wrap___aeabi_fmul+0x8>)
10002676:	689b      	ldr	r3, [r3, #8]
10002678:	4718      	bx	r3
1000267a:	0000      	.short	0x0000
1000267c:	2000f6ec 	.word	0x2000f6ec

10002680 <__wrap___aeabi_ui2f>:
10002680:	1a49      	subs	r1, r1, r1
10002682:	2800      	cmp	r0, #0
10002684:	d108      	bne.n	10002698 <__aeabi_i2f_main>
10002686:	4608      	mov	r0, r1
10002688:	4770      	bx	lr
	...

1000268c <__wrap___aeabi_i2f>:
1000268c:	0fc1      	lsrs	r1, r0, #31
1000268e:	07c9      	lsls	r1, r1, #31
10002690:	d500      	bpl.n	10002694 <__wrap___aeabi_i2f+0x8>
10002692:	4240      	negs	r0, r0
10002694:	2800      	cmp	r0, #0
10002696:	d017      	beq.n	100026c8 <__aeabi_i2f_main+0x30>

10002698 <__aeabi_i2f_main>:
10002698:	46f4      	mov	ip, lr
1000269a:	b403      	push	{r0, r1}
1000269c:	4b0b      	ldr	r3, [pc, #44]	; (100026cc <__aeabi_i2f_main+0x34>)
1000269e:	681b      	ldr	r3, [r3, #0]
100026a0:	4798      	blx	r3
100026a2:	bc06      	pop	{r1, r2}
100026a4:	4081      	lsls	r1, r0
100026a6:	389e      	subs	r0, #158	; 0x9e
100026a8:	4240      	negs	r0, r0
100026aa:	3180      	adds	r1, #128	; 0x80
100026ac:	d207      	bcs.n	100026be <__aeabi_i2f_main+0x26>
100026ae:	060b      	lsls	r3, r1, #24
100026b0:	d007      	beq.n	100026c2 <__aeabi_i2f_main+0x2a>
100026b2:	0049      	lsls	r1, r1, #1
100026b4:	0a49      	lsrs	r1, r1, #9
100026b6:	05c0      	lsls	r0, r0, #23
100026b8:	4310      	orrs	r0, r2
100026ba:	4308      	orrs	r0, r1
100026bc:	4760      	bx	ip
100026be:	3001      	adds	r0, #1
100026c0:	e7f8      	b.n	100026b4 <__aeabi_i2f_main+0x1c>
100026c2:	0a49      	lsrs	r1, r1, #9
100026c4:	0289      	lsls	r1, r1, #10
100026c6:	e7f5      	b.n	100026b4 <__aeabi_i2f_main+0x1c>
100026c8:	4770      	bx	lr
100026ca:	0000      	.short	0x0000
100026cc:	2000f7ec 	.word	0x2000f7ec

100026d0 <__wrap___aeabi_f2uiz>:
100026d0:	4b01      	ldr	r3, [pc, #4]	; (100026d8 <__wrap___aeabi_f2uiz+0x8>)
100026d2:	6a5b      	ldr	r3, [r3, #36]	; 0x24
100026d4:	4718      	bx	r3
100026d6:	0000      	.short	0x0000
100026d8:	2000f6ec 	.word	0x2000f6ec

100026dc <__aeabi_float_init>:
100026dc:	2313      	movs	r3, #19
100026de:	b510      	push	{r4, lr}
100026e0:	4812      	ldr	r0, [pc, #72]	; (1000272c <__aeabi_float_init+0x50>)
100026e2:	781c      	ldrb	r4, [r3, #0]
100026e4:	f7ff fee4 	bl	100024b0 <rom_data_lookup>
100026e8:	0001      	movs	r1, r0
100026ea:	2c01      	cmp	r4, #1
100026ec:	d00a      	beq.n	10002704 <__aeabi_float_init+0x28>
100026ee:	dd03      	ble.n	100026f8 <__aeabi_float_init+0x1c>
100026f0:	2280      	movs	r2, #128	; 0x80
100026f2:	480f      	ldr	r0, [pc, #60]	; (10002730 <__aeabi_float_init+0x54>)
100026f4:	f000 f850 	bl	10002798 <__wrap___aeabi_memcpy>
100026f8:	480e      	ldr	r0, [pc, #56]	; (10002734 <__aeabi_float_init+0x58>)
100026fa:	f7ff fed1 	bl	100024a0 <rom_func_lookup>
100026fe:	4b0e      	ldr	r3, [pc, #56]	; (10002738 <__aeabi_float_init+0x5c>)
10002700:	6018      	str	r0, [r3, #0]
10002702:	bd10      	pop	{r4, pc}
10002704:	4c0a      	ldr	r4, [pc, #40]	; (10002730 <__aeabi_float_init+0x54>)
10002706:	2254      	movs	r2, #84	; 0x54
10002708:	0020      	movs	r0, r4
1000270a:	f000 f845 	bl	10002798 <__wrap___aeabi_memcpy>
1000270e:	4b0b      	ldr	r3, [pc, #44]	; (1000273c <__aeabi_float_init+0x60>)
10002710:	6563      	str	r3, [r4, #84]	; 0x54
10002712:	65a3      	str	r3, [r4, #88]	; 0x58
10002714:	65e3      	str	r3, [r4, #92]	; 0x5c
10002716:	6623      	str	r3, [r4, #96]	; 0x60
10002718:	6663      	str	r3, [r4, #100]	; 0x64
1000271a:	66a3      	str	r3, [r4, #104]	; 0x68
1000271c:	66e3      	str	r3, [r4, #108]	; 0x6c
1000271e:	6723      	str	r3, [r4, #112]	; 0x70
10002720:	6763      	str	r3, [r4, #116]	; 0x74
10002722:	67a3      	str	r3, [r4, #120]	; 0x78
10002724:	67e3      	str	r3, [r4, #124]	; 0x7c
10002726:	6223      	str	r3, [r4, #32]
10002728:	61e3      	str	r3, [r4, #28]
1000272a:	e7e5      	b.n	100026f8 <__aeabi_float_init+0x1c>
1000272c:	00004653 	.word	0x00004653
10002730:	2000f6ec 	.word	0x2000f6ec
10002734:	0000334c 	.word	0x0000334c
10002738:	2000f7ec 	.word	0x2000f7ec
1000273c:	10002741 	.word	0x10002741

10002740 <float_table_shim_on_use_helper>:
10002740:	b507      	push	{r0, r1, r2, lr}
10002742:	4660      	mov	r0, ip
10002744:	8801      	ldrh	r1, [r0, #0]
10002746:	0a0a      	lsrs	r2, r1, #8
10002748:	3002      	adds	r0, #2
1000274a:	2adf      	cmp	r2, #223	; 0xdf
1000274c:	d1fa      	bne.n	10002744 <float_table_shim_on_use_helper+0x4>
1000274e:	b2c9      	uxtb	r1, r1
10002750:	0882      	lsrs	r2, r0, #2
10002752:	d304      	bcc.n	1000275e <float_table_shim_on_use_helper+0x1e>
10002754:	8802      	ldrh	r2, [r0, #0]
10002756:	8840      	ldrh	r0, [r0, #2]
10002758:	0400      	lsls	r0, r0, #16
1000275a:	4310      	orrs	r0, r2
1000275c:	e000      	b.n	10002760 <float_table_shim_on_use_helper+0x20>
1000275e:	6800      	ldr	r0, [r0, #0]
10002760:	4a01      	ldr	r2, [pc, #4]	; (10002768 <float_table_shim_on_use_helper+0x28>)
10002762:	5050      	str	r0, [r2, r1]
10002764:	9003      	str	r0, [sp, #12]
10002766:	bd07      	pop	{r0, r1, r2, pc}
10002768:	2000f6ec 	.word	0x2000f6ec

1000276c <__wrap_malloc>:
1000276c:	b510      	push	{r4, lr}
1000276e:	f000 fadb 	bl	10002d28 <malloc>
10002772:	bd10      	pop	{r4, pc}

10002774 <__wrap_calloc>:
10002774:	b510      	push	{r4, lr}
10002776:	f000 fa9d 	bl	10002cb4 <calloc>
1000277a:	bd10      	pop	{r4, pc}

1000277c <__aeabi_mem_init>:
1000277c:	4801      	ldr	r0, [pc, #4]	; (10002784 <__aeabi_mem_init+0x8>)
1000277e:	2104      	movs	r1, #4
10002780:	4b01      	ldr	r3, [pc, #4]	; (10002788 <__aeabi_mem_init+0xc>)
10002782:	4718      	bx	r3
10002784:	20000290 	.word	0x20000290
10002788:	100024c1 	.word	0x100024c1

1000278c <__wrap_memset>:
1000278c:	4b01      	ldr	r3, [pc, #4]	; (10002794 <__wrap_memset+0x8>)
1000278e:	681b      	ldr	r3, [r3, #0]
10002790:	4718      	bx	r3
10002792:	0000      	.short	0x0000
10002794:	20000290 	.word	0x20000290

10002798 <__wrap___aeabi_memcpy>:
10002798:	4b01      	ldr	r3, [pc, #4]	; (100027a0 <__wrap___aeabi_memcpy+0x8>)
1000279a:	685b      	ldr	r3, [r3, #4]
1000279c:	4718      	bx	r3
1000279e:	0000      	.short	0x0000
100027a0:	20000290 	.word	0x20000290

100027a4 <stdio_out_chars_crlf.part.0>:
100027a4:	b5f8      	push	{r3, r4, r5, r6, r7, lr}
100027a6:	4647      	mov	r7, r8
100027a8:	46ce      	mov	lr, r9
100027aa:	000d      	movs	r5, r1
100027ac:	b580      	push	{r7, lr}
100027ae:	0016      	movs	r6, r2
100027b0:	0007      	movs	r7, r0
100027b2:	2a00      	cmp	r2, #0
100027b4:	dd20      	ble.n	100027f8 <stdio_out_chars_crlf.part.0+0x54>
100027b6:	1e4b      	subs	r3, r1, #1
100027b8:	4698      	mov	r8, r3
100027ba:	4b1a      	ldr	r3, [pc, #104]	; (10002824 <stdio_out_chars_crlf.part.0+0x80>)
100027bc:	2400      	movs	r4, #0
100027be:	2000      	movs	r0, #0
100027c0:	4699      	mov	r9, r3
100027c2:	2c00      	cmp	r4, #0
100027c4:	d02b      	beq.n	1000281e <stdio_out_chars_crlf.part.0+0x7a>
100027c6:	4643      	mov	r3, r8
100027c8:	5d1b      	ldrb	r3, [r3, r4]
100027ca:	3b0d      	subs	r3, #13
100027cc:	425a      	negs	r2, r3
100027ce:	4153      	adcs	r3, r2
100027d0:	b2db      	uxtb	r3, r3
100027d2:	5d2a      	ldrb	r2, [r5, r4]
100027d4:	2a0a      	cmp	r2, #10
100027d6:	d013      	beq.n	10002800 <stdio_out_chars_crlf.part.0+0x5c>
100027d8:	3401      	adds	r4, #1
100027da:	42a6      	cmp	r6, r4
100027dc:	dcf1      	bgt.n	100027c2 <stdio_out_chars_crlf.part.0+0x1e>
100027de:	4286      	cmp	r6, r0
100027e0:	dd03      	ble.n	100027ea <stdio_out_chars_crlf.part.0+0x46>
100027e2:	1a31      	subs	r1, r6, r0
100027e4:	683b      	ldr	r3, [r7, #0]
100027e6:	1828      	adds	r0, r5, r0
100027e8:	4798      	blx	r3
100027ea:	19ad      	adds	r5, r5, r6
100027ec:	3d01      	subs	r5, #1
100027ee:	782b      	ldrb	r3, [r5, #0]
100027f0:	3b0d      	subs	r3, #13
100027f2:	425a      	negs	r2, r3
100027f4:	4153      	adcs	r3, r2
100027f6:	743b      	strb	r3, [r7, #16]
100027f8:	bc0c      	pop	{r2, r3}
100027fa:	4690      	mov	r8, r2
100027fc:	4699      	mov	r9, r3
100027fe:	bdf8      	pop	{r3, r4, r5, r6, r7, pc}
10002800:	2b00      	cmp	r3, #0
10002802:	d1e9      	bne.n	100027d8 <stdio_out_chars_crlf.part.0+0x34>
10002804:	42a0      	cmp	r0, r4
10002806:	da03      	bge.n	10002810 <stdio_out_chars_crlf.part.0+0x6c>
10002808:	1a21      	subs	r1, r4, r0
1000280a:	683b      	ldr	r3, [r7, #0]
1000280c:	1828      	adds	r0, r5, r0
1000280e:	4798      	blx	r3
10002810:	4648      	mov	r0, r9
10002812:	2102      	movs	r1, #2
10002814:	683b      	ldr	r3, [r7, #0]
10002816:	3401      	adds	r4, #1
10002818:	4798      	blx	r3
1000281a:	0020      	movs	r0, r4
1000281c:	e7dd      	b.n	100027da <stdio_out_chars_crlf.part.0+0x36>
1000281e:	7c3b      	ldrb	r3, [r7, #16]
10002820:	e7d7      	b.n	100027d2 <stdio_out_chars_crlf.part.0+0x2e>
10002822:	46c0      	nop			; (mov r8, r8)
10002824:	100037e0 	.word	0x100037e0

10002828 <stdio_put_string>:
10002828:	b5f0      	push	{r4, r5, r6, r7, lr}
1000282a:	4657      	mov	r7, sl
1000282c:	4645      	mov	r5, r8
1000282e:	46de      	mov	lr, fp
10002830:	464e      	mov	r6, r9
10002832:	23d0      	movs	r3, #208	; 0xd0
10002834:	b5e0      	push	{r5, r6, r7, lr}
10002836:	061b      	lsls	r3, r3, #24
10002838:	681c      	ldr	r4, [r3, #0]
1000283a:	4b37      	ldr	r3, [pc, #220]	; (10002918 <stdio_put_string+0xf0>)
1000283c:	b083      	sub	sp, #12
1000283e:	0007      	movs	r7, r0
10002840:	000d      	movs	r5, r1
10002842:	0018      	movs	r0, r3
10002844:	a901      	add	r1, sp, #4
10002846:	4690      	mov	r8, r2
10002848:	469a      	mov	sl, r3
1000284a:	f000 fef9 	bl	10003640 <__mutex_try_enter_veneer>
1000284e:	4681      	mov	r9, r0
10002850:	2800      	cmp	r0, #0
10002852:	d107      	bne.n	10002864 <stdio_put_string+0x3c>
10002854:	9b01      	ldr	r3, [sp, #4]
10002856:	429c      	cmp	r4, r3
10002858:	d004      	beq.n	10002864 <stdio_put_string+0x3c>
1000285a:	4650      	mov	r0, sl
1000285c:	f000 fef8 	bl	10003650 <__mutex_enter_blocking_veneer>
10002860:	2301      	movs	r3, #1
10002862:	4699      	mov	r9, r3
10002864:	1c6b      	adds	r3, r5, #1
10002866:	d103      	bne.n	10002870 <stdio_put_string+0x48>
10002868:	0038      	movs	r0, r7
1000286a:	f000 fd63 	bl	10003334 <strlen>
1000286e:	0005      	movs	r5, r0
10002870:	4b2a      	ldr	r3, [pc, #168]	; (1000291c <stdio_put_string+0xf4>)
10002872:	681c      	ldr	r4, [r3, #0]
10002874:	2c00      	cmp	r4, #0
10002876:	d02f      	beq.n	100028d8 <stdio_put_string+0xb0>
10002878:	230a      	movs	r3, #10
1000287a:	4e29      	ldr	r6, [pc, #164]	; (10002920 <stdio_put_string+0xf8>)
1000287c:	469b      	mov	fp, r3
1000287e:	e002      	b.n	10002886 <stdio_put_string+0x5e>
10002880:	68e4      	ldr	r4, [r4, #12]
10002882:	2c00      	cmp	r4, #0
10002884:	d028      	beq.n	100028d8 <stdio_put_string+0xb0>
10002886:	6822      	ldr	r2, [r4, #0]
10002888:	2a00      	cmp	r2, #0
1000288a:	d0f9      	beq.n	10002880 <stdio_put_string+0x58>
1000288c:	6833      	ldr	r3, [r6, #0]
1000288e:	2b00      	cmp	r3, #0
10002890:	d001      	beq.n	10002896 <stdio_put_string+0x6e>
10002892:	42a3      	cmp	r3, r4
10002894:	d1f4      	bne.n	10002880 <stdio_put_string+0x58>
10002896:	7c63      	ldrb	r3, [r4, #17]
10002898:	2b00      	cmp	r3, #0
1000289a:	d02a      	beq.n	100028f2 <stdio_put_string+0xca>
1000289c:	002a      	movs	r2, r5
1000289e:	0039      	movs	r1, r7
100028a0:	0020      	movs	r0, r4
100028a2:	f7ff ff7f 	bl	100027a4 <stdio_out_chars_crlf.part.0>
100028a6:	4643      	mov	r3, r8
100028a8:	2b00      	cmp	r3, #0
100028aa:	d0e9      	beq.n	10002880 <stdio_put_string+0x58>
100028ac:	466b      	mov	r3, sp
100028ae:	465a      	mov	r2, fp
100028b0:	711a      	strb	r2, [r3, #4]
100028b2:	7c63      	ldrb	r3, [r4, #17]
100028b4:	2b00      	cmp	r3, #0
100028b6:	d020      	beq.n	100028fa <stdio_put_string+0xd2>
100028b8:	7c23      	ldrb	r3, [r4, #16]
100028ba:	2b00      	cmp	r3, #0
100028bc:	d026      	beq.n	1000290c <stdio_put_string+0xe4>
100028be:	2101      	movs	r1, #1
100028c0:	6823      	ldr	r3, [r4, #0]
100028c2:	a801      	add	r0, sp, #4
100028c4:	4798      	blx	r3
100028c6:	466b      	mov	r3, sp
100028c8:	791b      	ldrb	r3, [r3, #4]
100028ca:	3b0d      	subs	r3, #13
100028cc:	425a      	negs	r2, r3
100028ce:	4153      	adcs	r3, r2
100028d0:	7423      	strb	r3, [r4, #16]
100028d2:	68e4      	ldr	r4, [r4, #12]
100028d4:	2c00      	cmp	r4, #0
100028d6:	d1d6      	bne.n	10002886 <stdio_put_string+0x5e>
100028d8:	464b      	mov	r3, r9
100028da:	2b00      	cmp	r3, #0
100028dc:	d112      	bne.n	10002904 <stdio_put_string+0xdc>
100028de:	1e68      	subs	r0, r5, #1
100028e0:	4185      	sbcs	r5, r0
100028e2:	b2e8      	uxtb	r0, r5
100028e4:	b003      	add	sp, #12
100028e6:	bc3c      	pop	{r2, r3, r4, r5}
100028e8:	4690      	mov	r8, r2
100028ea:	4699      	mov	r9, r3
100028ec:	46a2      	mov	sl, r4
100028ee:	46ab      	mov	fp, r5
100028f0:	bdf0      	pop	{r4, r5, r6, r7, pc}
100028f2:	0029      	movs	r1, r5
100028f4:	0038      	movs	r0, r7
100028f6:	4790      	blx	r2
100028f8:	e7d5      	b.n	100028a6 <stdio_put_string+0x7e>
100028fa:	2101      	movs	r1, #1
100028fc:	6823      	ldr	r3, [r4, #0]
100028fe:	a801      	add	r0, sp, #4
10002900:	4798      	blx	r3
10002902:	e7bd      	b.n	10002880 <stdio_put_string+0x58>
10002904:	4650      	mov	r0, sl
10002906:	f000 fe83 	bl	10003610 <__mutex_exit_veneer>
1000290a:	e7e8      	b.n	100028de <stdio_put_string+0xb6>
1000290c:	2102      	movs	r1, #2
1000290e:	4805      	ldr	r0, [pc, #20]	; (10002924 <stdio_put_string+0xfc>)
10002910:	6823      	ldr	r3, [r4, #0]
10002912:	4798      	blx	r3
10002914:	e7d7      	b.n	100028c6 <stdio_put_string+0x9e>
10002916:	46c0      	nop			; (mov r8, r8)
10002918:	20000af0 	.word	0x20000af0
1000291c:	200056a4 	.word	0x200056a4
10002920:	200056a8 	.word	0x200056a8
10002924:	100037e0 	.word	0x100037e0

10002928 <__wrap_putchar>:
10002928:	b510      	push	{r4, lr}
1000292a:	b082      	sub	sp, #8
1000292c:	466b      	mov	r3, sp
1000292e:	0004      	movs	r4, r0
10002930:	2200      	movs	r2, #0
10002932:	1dd8      	adds	r0, r3, #7
10002934:	2101      	movs	r1, #1
10002936:	7004      	strb	r4, [r0, #0]
10002938:	f7ff ff76 	bl	10002828 <stdio_put_string>
1000293c:	0020      	movs	r0, r4
1000293e:	b002      	add	sp, #8
10002940:	bd10      	pop	{r4, pc}
10002942:	46c0      	nop			; (mov r8, r8)

10002944 <__wrap_puts>:
10002944:	b570      	push	{r4, r5, r6, lr}
10002946:	0004      	movs	r4, r0
10002948:	f000 fcf4 	bl	10003334 <strlen>
1000294c:	2201      	movs	r2, #1
1000294e:	0001      	movs	r1, r0
10002950:	0005      	movs	r5, r0
10002952:	0020      	movs	r0, r4
10002954:	f7ff ff68 	bl	10002828 <stdio_put_string>
10002958:	4b08      	ldr	r3, [pc, #32]	; (1000297c <__wrap_puts+0x38>)
1000295a:	681c      	ldr	r4, [r3, #0]
1000295c:	2c00      	cmp	r4, #0
1000295e:	d006      	beq.n	1000296e <__wrap_puts+0x2a>
10002960:	6863      	ldr	r3, [r4, #4]
10002962:	2b00      	cmp	r3, #0
10002964:	d005      	beq.n	10002972 <__wrap_puts+0x2e>
10002966:	4798      	blx	r3
10002968:	68e4      	ldr	r4, [r4, #12]
1000296a:	2c00      	cmp	r4, #0
1000296c:	d1f8      	bne.n	10002960 <__wrap_puts+0x1c>
1000296e:	0028      	movs	r0, r5
10002970:	bd70      	pop	{r4, r5, r6, pc}
10002972:	68e4      	ldr	r4, [r4, #12]
10002974:	2c00      	cmp	r4, #0
10002976:	d1f3      	bne.n	10002960 <__wrap_puts+0x1c>
10002978:	e7f9      	b.n	1000296e <__wrap_puts+0x2a>
1000297a:	46c0      	nop			; (mov r8, r8)
1000297c:	200056a4 	.word	0x200056a4

10002980 <stdio_set_driver_enabled>:
10002980:	4a0d      	ldr	r2, [pc, #52]	; (100029b8 <stdio_set_driver_enabled+0x38>)
10002982:	6813      	ldr	r3, [r2, #0]
10002984:	2b00      	cmp	r3, #0
10002986:	d013      	beq.n	100029b0 <stdio_set_driver_enabled+0x30>
10002988:	4283      	cmp	r3, r0
1000298a:	d102      	bne.n	10002992 <stdio_set_driver_enabled+0x12>
1000298c:	e009      	b.n	100029a2 <stdio_set_driver_enabled+0x22>
1000298e:	4298      	cmp	r0, r3
10002990:	d008      	beq.n	100029a4 <stdio_set_driver_enabled+0x24>
10002992:	001a      	movs	r2, r3
10002994:	68db      	ldr	r3, [r3, #12]
10002996:	2b00      	cmp	r3, #0
10002998:	d1f9      	bne.n	1000298e <stdio_set_driver_enabled+0xe>
1000299a:	2900      	cmp	r1, #0
1000299c:	d000      	beq.n	100029a0 <stdio_set_driver_enabled+0x20>
1000299e:	60d0      	str	r0, [r2, #12]
100029a0:	4770      	bx	lr
100029a2:	001a      	movs	r2, r3
100029a4:	2900      	cmp	r1, #0
100029a6:	d1fb      	bne.n	100029a0 <stdio_set_driver_enabled+0x20>
100029a8:	68db      	ldr	r3, [r3, #12]
100029aa:	60d3      	str	r3, [r2, #12]
100029ac:	60c1      	str	r1, [r0, #12]
100029ae:	e7f7      	b.n	100029a0 <stdio_set_driver_enabled+0x20>
100029b0:	2900      	cmp	r1, #0
100029b2:	d0f5      	beq.n	100029a0 <stdio_set_driver_enabled+0x20>
100029b4:	6010      	str	r0, [r2, #0]
100029b6:	e7f3      	b.n	100029a0 <stdio_set_driver_enabled+0x20>
100029b8:	200056a4 	.word	0x200056a4

100029bc <stdio_init_all>:
100029bc:	b510      	push	{r4, lr}
100029be:	f000 f83b 	bl	10002a38 <stdio_uart_init>
100029c2:	bd10      	pop	{r4, pc}

100029c4 <stdio_uart_out_chars>:
100029c4:	b5f0      	push	{r4, r5, r6, r7, lr}
100029c6:	2900      	cmp	r1, #0
100029c8:	d010      	beq.n	100029ec <stdio_uart_out_chars+0x28>
100029ca:	1845      	adds	r5, r0, r1
100029cc:	270d      	movs	r7, #13
100029ce:	2120      	movs	r1, #32
100029d0:	4b09      	ldr	r3, [pc, #36]	; (100029f8 <stdio_uart_out_chars+0x34>)
100029d2:	4a0a      	ldr	r2, [pc, #40]	; (100029fc <stdio_uart_out_chars+0x38>)
100029d4:	2600      	movs	r6, #0
100029d6:	5f9e      	ldrsh	r6, [r3, r6]
100029d8:	7804      	ldrb	r4, [r0, #0]
100029da:	42a6      	cmp	r6, r4
100029dc:	d007      	beq.n	100029ee <stdio_uart_out_chars+0x2a>
100029de:	6993      	ldr	r3, [r2, #24]
100029e0:	4219      	tst	r1, r3
100029e2:	d1fc      	bne.n	100029de <stdio_uart_out_chars+0x1a>
100029e4:	3001      	adds	r0, #1
100029e6:	6014      	str	r4, [r2, #0]
100029e8:	42a8      	cmp	r0, r5
100029ea:	d1f5      	bne.n	100029d8 <stdio_uart_out_chars+0x14>
100029ec:	bdf0      	pop	{r4, r5, r6, r7, pc}
100029ee:	6993      	ldr	r3, [r2, #24]
100029f0:	4219      	tst	r1, r3
100029f2:	d1fc      	bne.n	100029ee <stdio_uart_out_chars+0x2a>
100029f4:	6017      	str	r7, [r2, #0]
100029f6:	e7f2      	b.n	100029de <stdio_uart_out_chars+0x1a>
100029f8:	2000f5e8 	.word	0x2000f5e8
100029fc:	40034000 	.word	0x40034000

10002a00 <stdio_uart_in_chars>:
10002a00:	b530      	push	{r4, r5, lr}
10002a02:	0005      	movs	r5, r0
10002a04:	2000      	movs	r0, #0
10002a06:	2900      	cmp	r1, #0
10002a08:	dd10      	ble.n	10002a2c <stdio_uart_in_chars+0x2c>
10002a0a:	2410      	movs	r4, #16
10002a0c:	4a09      	ldr	r2, [pc, #36]	; (10002a34 <stdio_uart_in_chars+0x34>)
10002a0e:	3d01      	subs	r5, #1
10002a10:	6993      	ldr	r3, [r2, #24]
10002a12:	421c      	tst	r4, r3
10002a14:	d108      	bne.n	10002a28 <stdio_uart_in_chars+0x28>
10002a16:	3001      	adds	r0, #1
10002a18:	6993      	ldr	r3, [r2, #24]
10002a1a:	421c      	tst	r4, r3
10002a1c:	d1fc      	bne.n	10002a18 <stdio_uart_in_chars+0x18>
10002a1e:	6813      	ldr	r3, [r2, #0]
10002a20:	542b      	strb	r3, [r5, r0]
10002a22:	4281      	cmp	r1, r0
10002a24:	d1f4      	bne.n	10002a10 <stdio_uart_in_chars+0x10>
10002a26:	bd30      	pop	{r4, r5, pc}
10002a28:	2800      	cmp	r0, #0
10002a2a:	d1fc      	bne.n	10002a26 <stdio_uart_in_chars+0x26>
10002a2c:	2003      	movs	r0, #3
10002a2e:	4240      	negs	r0, r0
10002a30:	e7f9      	b.n	10002a26 <stdio_uart_in_chars+0x26>
10002a32:	46c0      	nop			; (mov r8, r8)
10002a34:	40034000 	.word	0x40034000

10002a38 <stdio_uart_init>:
10002a38:	21e1      	movs	r1, #225	; 0xe1
10002a3a:	b510      	push	{r4, lr}
10002a3c:	4b0a      	ldr	r3, [pc, #40]	; (10002a68 <stdio_uart_init+0x30>)
10002a3e:	0249      	lsls	r1, r1, #9
10002a40:	781b      	ldrb	r3, [r3, #0]
10002a42:	4b0a      	ldr	r3, [pc, #40]	; (10002a6c <stdio_uart_init+0x34>)
10002a44:	480a      	ldr	r0, [pc, #40]	; (10002a70 <stdio_uart_init+0x38>)
10002a46:	781b      	ldrb	r3, [r3, #0]
10002a48:	f7fe fa30 	bl	10000eac <uart_init>
10002a4c:	2102      	movs	r1, #2
10002a4e:	2000      	movs	r0, #0
10002a50:	f7fe f96a 	bl	10000d28 <gpio_set_function>
10002a54:	2102      	movs	r1, #2
10002a56:	2001      	movs	r0, #1
10002a58:	f7fe f966 	bl	10000d28 <gpio_set_function>
10002a5c:	2101      	movs	r1, #1
10002a5e:	4805      	ldr	r0, [pc, #20]	; (10002a74 <stdio_uart_init+0x3c>)
10002a60:	f7ff ff8e 	bl	10002980 <stdio_set_driver_enabled>
10002a64:	bd10      	pop	{r4, pc}
10002a66:	46c0      	nop			; (mov r8, r8)
10002a68:	1000387c 	.word	0x1000387c
10002a6c:	10003880 	.word	0x10003880
10002a70:	40034000 	.word	0x40034000
10002a74:	200002a0 	.word	0x200002a0

10002a78 <pio_add_program>:
10002a78:	b5f0      	push	{r4, r5, r6, r7, lr}
10002a7a:	46de      	mov	lr, fp
10002a7c:	4645      	mov	r5, r8
10002a7e:	4657      	mov	r7, sl
10002a80:	464e      	mov	r6, r9
10002a82:	b5e0      	push	{r5, r6, r7, lr}
10002a84:	0006      	movs	r6, r0
10002a86:	b083      	sub	sp, #12
10002a88:	000d      	movs	r5, r1
10002a8a:	f7fe f9a7 	bl	10000ddc <hw_claim_lock>
10002a8e:	4b30      	ldr	r3, [pc, #192]	; (10002b50 <pio_add_program+0xd8>)
10002a90:	792f      	ldrb	r7, [r5, #4]
10002a92:	18f1      	adds	r1, r6, r3
10002a94:	424b      	negs	r3, r1
10002a96:	4159      	adcs	r1, r3
10002a98:	4b2e      	ldr	r3, [pc, #184]	; (10002b54 <pio_add_program+0xdc>)
10002a9a:	2405      	movs	r4, #5
10002a9c:	4698      	mov	r8, r3
10002a9e:	008b      	lsls	r3, r1, #2
10002aa0:	469b      	mov	fp, r3
10002aa2:	4643      	mov	r3, r8
10002aa4:	465a      	mov	r2, fp
10002aa6:	589b      	ldr	r3, [r3, r2]
10002aa8:	2220      	movs	r2, #32
10002aaa:	469c      	mov	ip, r3
10002aac:	2301      	movs	r3, #1
10002aae:	40bb      	lsls	r3, r7
10002ab0:	9001      	str	r0, [sp, #4]
10002ab2:	572c      	ldrsb	r4, [r5, r4]
10002ab4:	3b01      	subs	r3, #1
10002ab6:	1bd2      	subs	r2, r2, r7
10002ab8:	2c00      	cmp	r4, #0
10002aba:	db32      	blt.n	10002b22 <pio_add_program+0xaa>
10002abc:	4294      	cmp	r4, r2
10002abe:	dc43      	bgt.n	10002b48 <pio_add_program+0xd0>
10002ac0:	40a3      	lsls	r3, r4
10002ac2:	4662      	mov	r2, ip
10002ac4:	421a      	tst	r2, r3
10002ac6:	d13f      	bne.n	10002b48 <pio_add_program+0xd0>
10002ac8:	4699      	mov	r9, r3
10002aca:	2f00      	cmp	r7, #0
10002acc:	d018      	beq.n	10002b00 <pio_add_program+0x88>
10002ace:	786b      	ldrb	r3, [r5, #1]
10002ad0:	782a      	ldrb	r2, [r5, #0]
10002ad2:	021b      	lsls	r3, r3, #8
10002ad4:	431a      	orrs	r2, r3
10002ad6:	78ab      	ldrb	r3, [r5, #2]
10002ad8:	041b      	lsls	r3, r3, #16
10002ada:	4313      	orrs	r3, r2
10002adc:	78ea      	ldrb	r2, [r5, #3]
10002ade:	0612      	lsls	r2, r2, #24
10002ae0:	431a      	orrs	r2, r3
10002ae2:	4692      	mov	sl, r2
10002ae4:	2300      	movs	r3, #0
10002ae6:	4651      	mov	r1, sl
10002ae8:	005a      	lsls	r2, r3, #1
10002aea:	5a8d      	ldrh	r5, [r1, r2]
10002aec:	0b6a      	lsrs	r2, r5, #13
10002aee:	d100      	bne.n	10002af2 <pio_add_program+0x7a>
10002af0:	192d      	adds	r5, r5, r4
10002af2:	191a      	adds	r2, r3, r4
10002af4:	3212      	adds	r2, #18
10002af6:	0092      	lsls	r2, r2, #2
10002af8:	3301      	adds	r3, #1
10002afa:	5195      	str	r5, [r2, r6]
10002afc:	429f      	cmp	r7, r3
10002afe:	d8f2      	bhi.n	10002ae6 <pio_add_program+0x6e>
10002b00:	4663      	mov	r3, ip
10002b02:	464a      	mov	r2, r9
10002b04:	4659      	mov	r1, fp
10002b06:	4313      	orrs	r3, r2
10002b08:	4642      	mov	r2, r8
10002b0a:	9801      	ldr	r0, [sp, #4]
10002b0c:	5053      	str	r3, [r2, r1]
10002b0e:	f7fe f971 	bl	10000df4 <hw_claim_unlock>
10002b12:	0020      	movs	r0, r4
10002b14:	b003      	add	sp, #12
10002b16:	bc3c      	pop	{r2, r3, r4, r5}
10002b18:	4690      	mov	r8, r2
10002b1a:	4699      	mov	r9, r3
10002b1c:	46a2      	mov	sl, r4
10002b1e:	46ab      	mov	fp, r5
10002b20:	bdf0      	pop	{r4, r5, r6, r7, pc}
10002b22:	2a00      	cmp	r2, #0
10002b24:	db10      	blt.n	10002b48 <pio_add_program+0xd0>
10002b26:	0019      	movs	r1, r3
10002b28:	4660      	mov	r0, ip
10002b2a:	4091      	lsls	r1, r2
10002b2c:	0014      	movs	r4, r2
10002b2e:	4689      	mov	r9, r1
10002b30:	4201      	tst	r1, r0
10002b32:	d107      	bne.n	10002b44 <pio_add_program+0xcc>
10002b34:	e7c9      	b.n	10002aca <pio_add_program+0x52>
10002b36:	0018      	movs	r0, r3
10002b38:	4661      	mov	r1, ip
10002b3a:	4090      	lsls	r0, r2
10002b3c:	0014      	movs	r4, r2
10002b3e:	4681      	mov	r9, r0
10002b40:	4208      	tst	r0, r1
10002b42:	d0c2      	beq.n	10002aca <pio_add_program+0x52>
10002b44:	3a01      	subs	r2, #1
10002b46:	d2f6      	bcs.n	10002b36 <pio_add_program+0xbe>
10002b48:	4803      	ldr	r0, [pc, #12]	; (10002b58 <pio_add_program+0xe0>)
10002b4a:	f7ff f907 	bl	10001d5c <panic>
10002b4e:	46c0      	nop			; (mov r8, r8)
10002b50:	afd00000 	.word	0xafd00000
10002b54:	20000b5c 	.word	0x20000b5c
10002b58:	10003824 	.word	0x10003824

10002b5c <pio_sm_set_consecutive_pindirs>:
10002b5c:	b5f0      	push	{r4, r5, r6, r7, lr}
10002b5e:	464e      	mov	r6, r9
10002b60:	4645      	mov	r5, r8
10002b62:	46de      	mov	lr, fp
10002b64:	4657      	mov	r7, sl
10002b66:	468b      	mov	fp, r1
10002b68:	0049      	lsls	r1, r1, #1
10002b6a:	b5e0      	push	{r5, r6, r7, lr}
10002b6c:	000d      	movs	r5, r1
10002b6e:	4680      	mov	r8, r0
10002b70:	445d      	add	r5, fp
10002b72:	00ed      	lsls	r5, r5, #3
10002b74:	4445      	add	r5, r8
10002b76:	0028      	movs	r0, r5
10002b78:	ac09      	add	r4, sp, #36	; 0x24
10002b7a:	7826      	ldrb	r6, [r4, #0]
10002b7c:	30dc      	adds	r0, #220	; 0xdc
10002b7e:	1e74      	subs	r4, r6, #1
10002b80:	41a6      	sbcs	r6, r4
10002b82:	4689      	mov	r9, r1
10002b84:	6801      	ldr	r1, [r0, #0]
10002b86:	4274      	negs	r4, r6
10002b88:	468c      	mov	ip, r1
10002b8a:	4915      	ldr	r1, [pc, #84]	; (10002be0 <pio_sm_set_consecutive_pindirs+0x84>)
10002b8c:	261f      	movs	r6, #31
10002b8e:	468a      	mov	sl, r1
10002b90:	4026      	ands	r6, r4
10002b92:	4456      	add	r6, sl
10002b94:	2b05      	cmp	r3, #5
10002b96:	d90e      	bls.n	10002bb6 <pio_sm_set_consecutive_pindirs+0x5a>
10002b98:	21a0      	movs	r1, #160	; 0xa0
10002b9a:	0549      	lsls	r1, r1, #21
10002b9c:	468a      	mov	sl, r1
10002b9e:	271f      	movs	r7, #31
10002ba0:	35d8      	adds	r5, #216	; 0xd8
10002ba2:	4651      	mov	r1, sl
10002ba4:	0154      	lsls	r4, r2, #5
10002ba6:	430c      	orrs	r4, r1
10002ba8:	3205      	adds	r2, #5
10002baa:	3b05      	subs	r3, #5
10002bac:	6004      	str	r4, [r0, #0]
10002bae:	403a      	ands	r2, r7
10002bb0:	602e      	str	r6, [r5, #0]
10002bb2:	2b05      	cmp	r3, #5
10002bb4:	d8f5      	bhi.n	10002ba2 <pio_sm_set_consecutive_pindirs+0x46>
10002bb6:	4659      	mov	r1, fp
10002bb8:	4449      	add	r1, r9
10002bba:	00c9      	lsls	r1, r1, #3
10002bbc:	4441      	add	r1, r8
10002bbe:	069b      	lsls	r3, r3, #26
10002bc0:	0152      	lsls	r2, r2, #5
10002bc2:	431a      	orrs	r2, r3
10002bc4:	000b      	movs	r3, r1
10002bc6:	0008      	movs	r0, r1
10002bc8:	33dc      	adds	r3, #220	; 0xdc
10002bca:	601a      	str	r2, [r3, #0]
10002bcc:	4662      	mov	r2, ip
10002bce:	30d8      	adds	r0, #216	; 0xd8
10002bd0:	6006      	str	r6, [r0, #0]
10002bd2:	601a      	str	r2, [r3, #0]
10002bd4:	bc3c      	pop	{r2, r3, r4, r5}
10002bd6:	4690      	mov	r8, r2
10002bd8:	4699      	mov	r9, r3
10002bda:	46a2      	mov	sl, r4
10002bdc:	46ab      	mov	fp, r5
10002bde:	bdf0      	pop	{r4, r5, r6, r7, pc}
10002be0:	0000e080 	.word	0x0000e080

10002be4 <pio_sm_init>:
10002be4:	b5f0      	push	{r4, r5, r6, r7, lr}
10002be6:	2501      	movs	r5, #1
10002be8:	408d      	lsls	r5, r1
10002bea:	6804      	ldr	r4, [r0, #0]
10002bec:	43ac      	bics	r4, r5
10002bee:	004d      	lsls	r5, r1, #1
10002bf0:	6004      	str	r4, [r0, #0]
10002bf2:	186c      	adds	r4, r5, r1
10002bf4:	00e4      	lsls	r4, r4, #3
10002bf6:	1904      	adds	r4, r0, r4
10002bf8:	0026      	movs	r6, r4
10002bfa:	36c8      	adds	r6, #200	; 0xc8
10002bfc:	2b00      	cmp	r3, #0
10002bfe:	d02a      	beq.n	10002c56 <pio_sm_init+0x72>
10002c00:	681f      	ldr	r7, [r3, #0]
10002c02:	34dc      	adds	r4, #220	; 0xdc
10002c04:	6037      	str	r7, [r6, #0]
10002c06:	685f      	ldr	r7, [r3, #4]
10002c08:	6077      	str	r7, [r6, #4]
10002c0a:	689f      	ldr	r7, [r3, #8]
10002c0c:	68db      	ldr	r3, [r3, #12]
10002c0e:	60b7      	str	r7, [r6, #8]
10002c10:	6023      	str	r3, [r4, #0]
10002c12:	186b      	adds	r3, r5, r1
10002c14:	00db      	lsls	r3, r3, #3
10002c16:	001d      	movs	r5, r3
10002c18:	2480      	movs	r4, #128	; 0x80
10002c1a:	35d0      	adds	r5, #208	; 0xd0
10002c1c:	1945      	adds	r5, r0, r5
10002c1e:	0164      	lsls	r4, r4, #5
10002c20:	432c      	orrs	r4, r5
10002c22:	2580      	movs	r5, #128	; 0x80
10002c24:	062d      	lsls	r5, r5, #24
10002c26:	6025      	str	r5, [r4, #0]
10002c28:	6025      	str	r5, [r4, #0]
10002c2a:	4c11      	ldr	r4, [pc, #68]	; (10002c70 <pio_sm_init+0x8c>)
10002c2c:	1d0d      	adds	r5, r1, #4
10002c2e:	408c      	lsls	r4, r1
10002c30:	6084      	str	r4, [r0, #8]
10002c32:	2401      	movs	r4, #1
10002c34:	0027      	movs	r7, r4
10002c36:	40af      	lsls	r7, r5
10002c38:	003d      	movs	r5, r7
10002c3a:	3108      	adds	r1, #8
10002c3c:	408c      	lsls	r4, r1
10002c3e:	211f      	movs	r1, #31
10002c40:	6806      	ldr	r6, [r0, #0]
10002c42:	400a      	ands	r2, r1
10002c44:	4335      	orrs	r5, r6
10002c46:	6005      	str	r5, [r0, #0]
10002c48:	6805      	ldr	r5, [r0, #0]
10002c4a:	432c      	orrs	r4, r5
10002c4c:	6004      	str	r4, [r0, #0]
10002c4e:	18c0      	adds	r0, r0, r3
10002c50:	30d8      	adds	r0, #216	; 0xd8
10002c52:	6002      	str	r2, [r0, #0]
10002c54:	bdf0      	pop	{r4, r5, r6, r7, pc}
10002c56:	2780      	movs	r7, #128	; 0x80
10002c58:	027f      	lsls	r7, r7, #9
10002c5a:	6037      	str	r7, [r6, #0]
10002c5c:	27f8      	movs	r7, #248	; 0xf8
10002c5e:	027f      	lsls	r7, r7, #9
10002c60:	6077      	str	r7, [r6, #4]
10002c62:	27c0      	movs	r7, #192	; 0xc0
10002c64:	34dc      	adds	r4, #220	; 0xdc
10002c66:	033f      	lsls	r7, r7, #12
10002c68:	60b7      	str	r7, [r6, #8]
10002c6a:	6023      	str	r3, [r4, #0]
10002c6c:	e7d1      	b.n	10002c12 <pio_sm_init+0x2e>
10002c6e:	46c0      	nop			; (mov r8, r8)
10002c70:	01010101 	.word	0x01010101

10002c74 <dma_claim_mask>:
10002c74:	b5f0      	push	{r4, r5, r6, r7, lr}
10002c76:	46c6      	mov	lr, r8
10002c78:	0004      	movs	r4, r0
10002c7a:	b500      	push	{lr}
10002c7c:	2800      	cmp	r0, #0
10002c7e:	d012      	beq.n	10002ca6 <dma_claim_mask+0x32>
10002c80:	4b0a      	ldr	r3, [pc, #40]	; (10002cac <dma_claim_mask+0x38>)
10002c82:	2500      	movs	r5, #0
10002c84:	2601      	movs	r6, #1
10002c86:	4698      	mov	r8, r3
10002c88:	4f09      	ldr	r7, [pc, #36]	; (10002cb0 <dma_claim_mask+0x3c>)
10002c8a:	e002      	b.n	10002c92 <dma_claim_mask+0x1e>
10002c8c:	3501      	adds	r5, #1
10002c8e:	0864      	lsrs	r4, r4, #1
10002c90:	d009      	beq.n	10002ca6 <dma_claim_mask+0x32>
10002c92:	4226      	tst	r6, r4
10002c94:	d0fa      	beq.n	10002c8c <dma_claim_mask+0x18>
10002c96:	0029      	movs	r1, r5
10002c98:	4642      	mov	r2, r8
10002c9a:	0038      	movs	r0, r7
10002c9c:	f7fe f8b4 	bl	10000e08 <hw_claim_or_assert>
10002ca0:	3501      	adds	r5, #1
10002ca2:	0864      	lsrs	r4, r4, #1
10002ca4:	d1f5      	bne.n	10002c92 <dma_claim_mask+0x1e>
10002ca6:	bc04      	pop	{r2}
10002ca8:	4690      	mov	r8, r2
10002caa:	bdf0      	pop	{r4, r5, r6, r7, pc}
10002cac:	10003838 	.word	0x10003838
10002cb0:	2000f5dc 	.word	0x2000f5dc

10002cb4 <calloc>:
10002cb4:	0003      	movs	r3, r0
10002cb6:	b510      	push	{r4, lr}
10002cb8:	000a      	movs	r2, r1
10002cba:	4903      	ldr	r1, [pc, #12]	; (10002cc8 <calloc+0x14>)
10002cbc:	6808      	ldr	r0, [r1, #0]
10002cbe:	0019      	movs	r1, r3
10002cc0:	f000 f804 	bl	10002ccc <_calloc_r>
10002cc4:	bd10      	pop	{r4, pc}
10002cc6:	46c0      	nop			; (mov r8, r8)
10002cc8:	200002b4 	.word	0x200002b4

10002ccc <_calloc_r>:
10002ccc:	b510      	push	{r4, lr}
10002cce:	4351      	muls	r1, r2
10002cd0:	f000 f834 	bl	10002d3c <_malloc_r>
10002cd4:	1e04      	subs	r4, r0, #0
10002cd6:	d00e      	beq.n	10002cf6 <_calloc_r+0x2a>
10002cd8:	0003      	movs	r3, r0
10002cda:	3b08      	subs	r3, #8
10002cdc:	685a      	ldr	r2, [r3, #4]
10002cde:	2303      	movs	r3, #3
10002ce0:	439a      	bics	r2, r3
10002ce2:	3a04      	subs	r2, #4
10002ce4:	2a24      	cmp	r2, #36	; 0x24
10002ce6:	d815      	bhi.n	10002d14 <_calloc_r+0x48>
10002ce8:	0003      	movs	r3, r0
10002cea:	2a13      	cmp	r2, #19
10002cec:	d805      	bhi.n	10002cfa <_calloc_r+0x2e>
10002cee:	2200      	movs	r2, #0
10002cf0:	601a      	str	r2, [r3, #0]
10002cf2:	605a      	str	r2, [r3, #4]
10002cf4:	609a      	str	r2, [r3, #8]
10002cf6:	0020      	movs	r0, r4
10002cf8:	bd10      	pop	{r4, pc}
10002cfa:	2100      	movs	r1, #0
10002cfc:	3308      	adds	r3, #8
10002cfe:	6001      	str	r1, [r0, #0]
10002d00:	6041      	str	r1, [r0, #4]
10002d02:	2a1b      	cmp	r2, #27
10002d04:	d9f3      	bls.n	10002cee <_calloc_r+0x22>
10002d06:	6081      	str	r1, [r0, #8]
10002d08:	60c1      	str	r1, [r0, #12]
10002d0a:	2a24      	cmp	r2, #36	; 0x24
10002d0c:	d006      	beq.n	10002d1c <_calloc_r+0x50>
10002d0e:	0003      	movs	r3, r0
10002d10:	3310      	adds	r3, #16
10002d12:	e7ec      	b.n	10002cee <_calloc_r+0x22>
10002d14:	2100      	movs	r1, #0
10002d16:	f7ff fd39 	bl	1000278c <__wrap_memset>
10002d1a:	e7ec      	b.n	10002cf6 <_calloc_r+0x2a>
10002d1c:	0003      	movs	r3, r0
10002d1e:	6101      	str	r1, [r0, #16]
10002d20:	3318      	adds	r3, #24
10002d22:	6141      	str	r1, [r0, #20]
10002d24:	e7e3      	b.n	10002cee <_calloc_r+0x22>
10002d26:	46c0      	nop			; (mov r8, r8)

10002d28 <malloc>:
10002d28:	b510      	push	{r4, lr}
10002d2a:	4b03      	ldr	r3, [pc, #12]	; (10002d38 <malloc+0x10>)
10002d2c:	0001      	movs	r1, r0
10002d2e:	6818      	ldr	r0, [r3, #0]
10002d30:	f000 f804 	bl	10002d3c <_malloc_r>
10002d34:	bd10      	pop	{r4, pc}
10002d36:	46c0      	nop			; (mov r8, r8)
10002d38:	200002b4 	.word	0x200002b4

10002d3c <_malloc_r>:
10002d3c:	b5f0      	push	{r4, r5, r6, r7, lr}
10002d3e:	464e      	mov	r6, r9
10002d40:	4645      	mov	r5, r8
10002d42:	46de      	mov	lr, fp
10002d44:	4657      	mov	r7, sl
10002d46:	b5e0      	push	{r5, r6, r7, lr}
10002d48:	000d      	movs	r5, r1
10002d4a:	350b      	adds	r5, #11
10002d4c:	0006      	movs	r6, r0
10002d4e:	b083      	sub	sp, #12
10002d50:	2d16      	cmp	r5, #22
10002d52:	d822      	bhi.n	10002d9a <_malloc_r+0x5e>
10002d54:	2910      	cmp	r1, #16
10002d56:	d900      	bls.n	10002d5a <_malloc_r+0x1e>
10002d58:	e0b2      	b.n	10002ec0 <_malloc_r+0x184>
10002d5a:	f000 faaf 	bl	100032bc <__malloc_lock>
10002d5e:	2510      	movs	r5, #16
10002d60:	2002      	movs	r0, #2
10002d62:	2318      	movs	r3, #24
10002d64:	4fcb      	ldr	r7, [pc, #812]	; (10003094 <_malloc_r+0x358>)
10002d66:	18fb      	adds	r3, r7, r3
10002d68:	001a      	movs	r2, r3
10002d6a:	685c      	ldr	r4, [r3, #4]
10002d6c:	3a08      	subs	r2, #8
10002d6e:	4294      	cmp	r4, r2
10002d70:	d100      	bne.n	10002d74 <_malloc_r+0x38>
10002d72:	e0b5      	b.n	10002ee0 <_malloc_r+0x1a4>
10002d74:	2303      	movs	r3, #3
10002d76:	6862      	ldr	r2, [r4, #4]
10002d78:	439a      	bics	r2, r3
10002d7a:	0013      	movs	r3, r2
10002d7c:	68e2      	ldr	r2, [r4, #12]
10002d7e:	68a1      	ldr	r1, [r4, #8]
10002d80:	60ca      	str	r2, [r1, #12]
10002d82:	6091      	str	r1, [r2, #8]
10002d84:	2201      	movs	r2, #1
10002d86:	18e3      	adds	r3, r4, r3
10002d88:	6859      	ldr	r1, [r3, #4]
10002d8a:	0030      	movs	r0, r6
10002d8c:	430a      	orrs	r2, r1
10002d8e:	605a      	str	r2, [r3, #4]
10002d90:	f000 fa9c 	bl	100032cc <__malloc_unlock>
10002d94:	0020      	movs	r0, r4
10002d96:	3008      	adds	r0, #8
10002d98:	e095      	b.n	10002ec6 <_malloc_r+0x18a>
10002d9a:	2307      	movs	r3, #7
10002d9c:	439d      	bics	r5, r3
10002d9e:	d500      	bpl.n	10002da2 <_malloc_r+0x66>
10002da0:	e08e      	b.n	10002ec0 <_malloc_r+0x184>
10002da2:	42a9      	cmp	r1, r5
10002da4:	d900      	bls.n	10002da8 <_malloc_r+0x6c>
10002da6:	e08b      	b.n	10002ec0 <_malloc_r+0x184>
10002da8:	f000 fa88 	bl	100032bc <__malloc_lock>
10002dac:	23fc      	movs	r3, #252	; 0xfc
10002dae:	005b      	lsls	r3, r3, #1
10002db0:	429d      	cmp	r5, r3
10002db2:	d200      	bcs.n	10002db6 <_malloc_r+0x7a>
10002db4:	e1a5      	b.n	10003102 <_malloc_r+0x3c6>
10002db6:	0a68      	lsrs	r0, r5, #9
10002db8:	d100      	bne.n	10002dbc <_malloc_r+0x80>
10002dba:	e08b      	b.n	10002ed4 <_malloc_r+0x198>
10002dbc:	2804      	cmp	r0, #4
10002dbe:	d900      	bls.n	10002dc2 <_malloc_r+0x86>
10002dc0:	e178      	b.n	100030b4 <_malloc_r+0x378>
10002dc2:	2338      	movs	r3, #56	; 0x38
10002dc4:	4698      	mov	r8, r3
10002dc6:	09a8      	lsrs	r0, r5, #6
10002dc8:	4480      	add	r8, r0
10002dca:	3039      	adds	r0, #57	; 0x39
10002dcc:	00c1      	lsls	r1, r0, #3
10002dce:	4fb1      	ldr	r7, [pc, #708]	; (10003094 <_malloc_r+0x358>)
10002dd0:	1879      	adds	r1, r7, r1
10002dd2:	684c      	ldr	r4, [r1, #4]
10002dd4:	3908      	subs	r1, #8
10002dd6:	42a1      	cmp	r1, r4
10002dd8:	d00e      	beq.n	10002df8 <_malloc_r+0xbc>
10002dda:	2303      	movs	r3, #3
10002ddc:	469c      	mov	ip, r3
10002dde:	e004      	b.n	10002dea <_malloc_r+0xae>
10002de0:	2a00      	cmp	r2, #0
10002de2:	dacb      	bge.n	10002d7c <_malloc_r+0x40>
10002de4:	68e4      	ldr	r4, [r4, #12]
10002de6:	42a1      	cmp	r1, r4
10002de8:	d006      	beq.n	10002df8 <_malloc_r+0xbc>
10002dea:	4662      	mov	r2, ip
10002dec:	6863      	ldr	r3, [r4, #4]
10002dee:	4393      	bics	r3, r2
10002df0:	1b5a      	subs	r2, r3, r5
10002df2:	2a0f      	cmp	r2, #15
10002df4:	ddf4      	ble.n	10002de0 <_malloc_r+0xa4>
10002df6:	4640      	mov	r0, r8
10002df8:	003a      	movs	r2, r7
10002dfa:	693c      	ldr	r4, [r7, #16]
10002dfc:	3208      	adds	r2, #8
10002dfe:	4294      	cmp	r4, r2
10002e00:	d100      	bne.n	10002e04 <_malloc_r+0xc8>
10002e02:	e078      	b.n	10002ef6 <_malloc_r+0x1ba>
10002e04:	2303      	movs	r3, #3
10002e06:	6861      	ldr	r1, [r4, #4]
10002e08:	4399      	bics	r1, r3
10002e0a:	4689      	mov	r9, r1
10002e0c:	000b      	movs	r3, r1
10002e0e:	1b49      	subs	r1, r1, r5
10002e10:	290f      	cmp	r1, #15
10002e12:	dd00      	ble.n	10002e16 <_malloc_r+0xda>
10002e14:	e179      	b.n	1000310a <_malloc_r+0x3ce>
10002e16:	617a      	str	r2, [r7, #20]
10002e18:	613a      	str	r2, [r7, #16]
10002e1a:	2900      	cmp	r1, #0
10002e1c:	dab2      	bge.n	10002d84 <_malloc_r+0x48>
10002e1e:	2280      	movs	r2, #128	; 0x80
10002e20:	0092      	lsls	r2, r2, #2
10002e22:	4591      	cmp	r9, r2
10002e24:	d300      	bcc.n	10002e28 <_malloc_r+0xec>
10002e26:	e10e      	b.n	10003046 <_malloc_r+0x30a>
10002e28:	0959      	lsrs	r1, r3, #5
10002e2a:	08da      	lsrs	r2, r3, #3
10002e2c:	2301      	movs	r3, #1
10002e2e:	408b      	lsls	r3, r1
10002e30:	00d2      	lsls	r2, r2, #3
10002e32:	6879      	ldr	r1, [r7, #4]
10002e34:	19d2      	adds	r2, r2, r7
10002e36:	430b      	orrs	r3, r1
10002e38:	6891      	ldr	r1, [r2, #8]
10002e3a:	607b      	str	r3, [r7, #4]
10002e3c:	60e2      	str	r2, [r4, #12]
10002e3e:	60a1      	str	r1, [r4, #8]
10002e40:	6094      	str	r4, [r2, #8]
10002e42:	60cc      	str	r4, [r1, #12]
10002e44:	2101      	movs	r1, #1
10002e46:	1082      	asrs	r2, r0, #2
10002e48:	4091      	lsls	r1, r2
10002e4a:	4299      	cmp	r1, r3
10002e4c:	d859      	bhi.n	10002f02 <_malloc_r+0x1c6>
10002e4e:	420b      	tst	r3, r1
10002e50:	d105      	bne.n	10002e5e <_malloc_r+0x122>
10002e52:	2203      	movs	r2, #3
10002e54:	4390      	bics	r0, r2
10002e56:	0049      	lsls	r1, r1, #1
10002e58:	3004      	adds	r0, #4
10002e5a:	420b      	tst	r3, r1
10002e5c:	d0fb      	beq.n	10002e56 <_malloc_r+0x11a>
10002e5e:	2303      	movs	r3, #3
10002e60:	4698      	mov	r8, r3
10002e62:	00c3      	lsls	r3, r0, #3
10002e64:	4699      	mov	r9, r3
10002e66:	44b9      	add	r9, r7
10002e68:	46cc      	mov	ip, r9
10002e6a:	4682      	mov	sl, r0
10002e6c:	4663      	mov	r3, ip
10002e6e:	68dc      	ldr	r4, [r3, #12]
10002e70:	45a4      	cmp	ip, r4
10002e72:	d107      	bne.n	10002e84 <_malloc_r+0x148>
10002e74:	e12a      	b.n	100030cc <_malloc_r+0x390>
10002e76:	2a00      	cmp	r2, #0
10002e78:	db00      	blt.n	10002e7c <_malloc_r+0x140>
10002e7a:	e133      	b.n	100030e4 <_malloc_r+0x3a8>
10002e7c:	68e4      	ldr	r4, [r4, #12]
10002e7e:	45a4      	cmp	ip, r4
10002e80:	d100      	bne.n	10002e84 <_malloc_r+0x148>
10002e82:	e123      	b.n	100030cc <_malloc_r+0x390>
10002e84:	4642      	mov	r2, r8
10002e86:	6863      	ldr	r3, [r4, #4]
10002e88:	4393      	bics	r3, r2
10002e8a:	1b5a      	subs	r2, r3, r5
10002e8c:	2a0f      	cmp	r2, #15
10002e8e:	ddf2      	ble.n	10002e76 <_malloc_r+0x13a>
10002e90:	2001      	movs	r0, #1
10002e92:	4680      	mov	r8, r0
10002e94:	1961      	adds	r1, r4, r5
10002e96:	4305      	orrs	r5, r0
10002e98:	6065      	str	r5, [r4, #4]
10002e9a:	68a0      	ldr	r0, [r4, #8]
10002e9c:	68e5      	ldr	r5, [r4, #12]
10002e9e:	3708      	adds	r7, #8
10002ea0:	60c5      	str	r5, [r0, #12]
10002ea2:	60a8      	str	r0, [r5, #8]
10002ea4:	4640      	mov	r0, r8
10002ea6:	4310      	orrs	r0, r2
10002ea8:	60f9      	str	r1, [r7, #12]
10002eaa:	60b9      	str	r1, [r7, #8]
10002eac:	6048      	str	r0, [r1, #4]
10002eae:	60cf      	str	r7, [r1, #12]
10002eb0:	0030      	movs	r0, r6
10002eb2:	608f      	str	r7, [r1, #8]
10002eb4:	50e2      	str	r2, [r4, r3]
10002eb6:	f000 fa09 	bl	100032cc <__malloc_unlock>
10002eba:	0020      	movs	r0, r4
10002ebc:	3008      	adds	r0, #8
10002ebe:	e002      	b.n	10002ec6 <_malloc_r+0x18a>
10002ec0:	230c      	movs	r3, #12
10002ec2:	2000      	movs	r0, #0
10002ec4:	6033      	str	r3, [r6, #0]
10002ec6:	b003      	add	sp, #12
10002ec8:	bc3c      	pop	{r2, r3, r4, r5}
10002eca:	4690      	mov	r8, r2
10002ecc:	4699      	mov	r9, r3
10002ece:	46a2      	mov	sl, r4
10002ed0:	46ab      	mov	fp, r5
10002ed2:	bdf0      	pop	{r4, r5, r6, r7, pc}
10002ed4:	2180      	movs	r1, #128	; 0x80
10002ed6:	233f      	movs	r3, #63	; 0x3f
10002ed8:	2040      	movs	r0, #64	; 0x40
10002eda:	4698      	mov	r8, r3
10002edc:	0089      	lsls	r1, r1, #2
10002ede:	e776      	b.n	10002dce <_malloc_r+0x92>
10002ee0:	68dc      	ldr	r4, [r3, #12]
10002ee2:	3002      	adds	r0, #2
10002ee4:	42a3      	cmp	r3, r4
10002ee6:	d000      	beq.n	10002eea <_malloc_r+0x1ae>
10002ee8:	e744      	b.n	10002d74 <_malloc_r+0x38>
10002eea:	003a      	movs	r2, r7
10002eec:	693c      	ldr	r4, [r7, #16]
10002eee:	3208      	adds	r2, #8
10002ef0:	4294      	cmp	r4, r2
10002ef2:	d000      	beq.n	10002ef6 <_malloc_r+0x1ba>
10002ef4:	e786      	b.n	10002e04 <_malloc_r+0xc8>
10002ef6:	2101      	movs	r1, #1
10002ef8:	687b      	ldr	r3, [r7, #4]
10002efa:	1082      	asrs	r2, r0, #2
10002efc:	4091      	lsls	r1, r2
10002efe:	4299      	cmp	r1, r3
10002f00:	d9a5      	bls.n	10002e4e <_malloc_r+0x112>
10002f02:	2303      	movs	r3, #3
10002f04:	68bc      	ldr	r4, [r7, #8]
10002f06:	6862      	ldr	r2, [r4, #4]
10002f08:	439a      	bics	r2, r3
10002f0a:	4691      	mov	r9, r2
10002f0c:	4295      	cmp	r5, r2
10002f0e:	d803      	bhi.n	10002f18 <_malloc_r+0x1dc>
10002f10:	1b53      	subs	r3, r2, r5
10002f12:	2b0f      	cmp	r3, #15
10002f14:	dd00      	ble.n	10002f18 <_malloc_r+0x1dc>
10002f16:	e088      	b.n	1000302a <_malloc_r+0x2ee>
10002f18:	0023      	movs	r3, r4
10002f1a:	444b      	add	r3, r9
10002f1c:	4a5e      	ldr	r2, [pc, #376]	; (10003098 <_malloc_r+0x35c>)
10002f1e:	9301      	str	r3, [sp, #4]
10002f20:	4b5e      	ldr	r3, [pc, #376]	; (1000309c <_malloc_r+0x360>)
10002f22:	4693      	mov	fp, r2
10002f24:	681b      	ldr	r3, [r3, #0]
10002f26:	6812      	ldr	r2, [r2, #0]
10002f28:	18eb      	adds	r3, r5, r3
10002f2a:	3201      	adds	r2, #1
10002f2c:	d100      	bne.n	10002f30 <_malloc_r+0x1f4>
10002f2e:	e13b      	b.n	100031a8 <_malloc_r+0x46c>
10002f30:	4a5b      	ldr	r2, [pc, #364]	; (100030a0 <_malloc_r+0x364>)
10002f32:	4694      	mov	ip, r2
10002f34:	4463      	add	r3, ip
10002f36:	0b1b      	lsrs	r3, r3, #12
10002f38:	031b      	lsls	r3, r3, #12
10002f3a:	9300      	str	r3, [sp, #0]
10002f3c:	0030      	movs	r0, r6
10002f3e:	9900      	ldr	r1, [sp, #0]
10002f40:	f000 f9e6 	bl	10003310 <_sbrk_r>
10002f44:	0003      	movs	r3, r0
10002f46:	4680      	mov	r8, r0
10002f48:	3301      	adds	r3, #1
10002f4a:	d100      	bne.n	10002f4e <_malloc_r+0x212>
10002f4c:	e0f8      	b.n	10003140 <_malloc_r+0x404>
10002f4e:	9b01      	ldr	r3, [sp, #4]
10002f50:	4283      	cmp	r3, r0
10002f52:	d900      	bls.n	10002f56 <_malloc_r+0x21a>
10002f54:	e0f2      	b.n	1000313c <_malloc_r+0x400>
10002f56:	4b53      	ldr	r3, [pc, #332]	; (100030a4 <_malloc_r+0x368>)
10002f58:	0019      	movs	r1, r3
10002f5a:	469a      	mov	sl, r3
10002f5c:	6809      	ldr	r1, [r1, #0]
10002f5e:	9b00      	ldr	r3, [sp, #0]
10002f60:	468c      	mov	ip, r1
10002f62:	4651      	mov	r1, sl
10002f64:	4463      	add	r3, ip
10002f66:	600b      	str	r3, [r1, #0]
10002f68:	9901      	ldr	r1, [sp, #4]
10002f6a:	001a      	movs	r2, r3
10002f6c:	4281      	cmp	r1, r0
10002f6e:	d100      	bne.n	10002f72 <_malloc_r+0x236>
10002f70:	e150      	b.n	10003214 <_malloc_r+0x4d8>
10002f72:	465b      	mov	r3, fp
10002f74:	681b      	ldr	r3, [r3, #0]
10002f76:	3301      	adds	r3, #1
10002f78:	d100      	bne.n	10002f7c <_malloc_r+0x240>
10002f7a:	e155      	b.n	10003228 <_malloc_r+0x4ec>
10002f7c:	4643      	mov	r3, r8
10002f7e:	9901      	ldr	r1, [sp, #4]
10002f80:	1a5b      	subs	r3, r3, r1
10002f82:	189a      	adds	r2, r3, r2
10002f84:	4653      	mov	r3, sl
10002f86:	601a      	str	r2, [r3, #0]
10002f88:	2307      	movs	r3, #7
10002f8a:	4642      	mov	r2, r8
10002f8c:	4641      	mov	r1, r8
10002f8e:	401a      	ands	r2, r3
10002f90:	9201      	str	r2, [sp, #4]
10002f92:	4219      	tst	r1, r3
10002f94:	d100      	bne.n	10002f98 <_malloc_r+0x25c>
10002f96:	e111      	b.n	100031bc <_malloc_r+0x480>
10002f98:	2308      	movs	r3, #8
10002f9a:	4698      	mov	r8, r3
10002f9c:	1a88      	subs	r0, r1, r2
10002f9e:	4b42      	ldr	r3, [pc, #264]	; (100030a8 <_malloc_r+0x36c>)
10002fa0:	9900      	ldr	r1, [sp, #0]
10002fa2:	4480      	add	r8, r0
10002fa4:	4441      	add	r1, r8
10002fa6:	1a9b      	subs	r3, r3, r2
10002fa8:	1a5b      	subs	r3, r3, r1
10002faa:	051b      	lsls	r3, r3, #20
10002fac:	0d1b      	lsrs	r3, r3, #20
10002fae:	9100      	str	r1, [sp, #0]
10002fb0:	0030      	movs	r0, r6
10002fb2:	0019      	movs	r1, r3
10002fb4:	469b      	mov	fp, r3
10002fb6:	f000 f9ab 	bl	10003310 <_sbrk_r>
10002fba:	1c43      	adds	r3, r0, #1
10002fbc:	d100      	bne.n	10002fc0 <_malloc_r+0x284>
10002fbe:	e14f      	b.n	10003260 <_malloc_r+0x524>
10002fc0:	4643      	mov	r3, r8
10002fc2:	1ac0      	subs	r0, r0, r3
10002fc4:	0003      	movs	r3, r0
10002fc6:	445b      	add	r3, fp
10002fc8:	9300      	str	r3, [sp, #0]
10002fca:	4653      	mov	r3, sl
10002fcc:	4652      	mov	r2, sl
10002fce:	681b      	ldr	r3, [r3, #0]
10002fd0:	2101      	movs	r1, #1
10002fd2:	445b      	add	r3, fp
10002fd4:	6013      	str	r3, [r2, #0]
10002fd6:	4642      	mov	r2, r8
10002fd8:	4640      	mov	r0, r8
10002fda:	60ba      	str	r2, [r7, #8]
10002fdc:	9a00      	ldr	r2, [sp, #0]
10002fde:	430a      	orrs	r2, r1
10002fe0:	6042      	str	r2, [r0, #4]
10002fe2:	42bc      	cmp	r4, r7
10002fe4:	d100      	bne.n	10002fe8 <_malloc_r+0x2ac>
10002fe6:	e123      	b.n	10003230 <_malloc_r+0x4f4>
10002fe8:	464a      	mov	r2, r9
10002fea:	2a0f      	cmp	r2, #15
10002fec:	d800      	bhi.n	10002ff0 <_malloc_r+0x2b4>
10002fee:	e121      	b.n	10003234 <_malloc_r+0x4f8>
10002ff0:	2007      	movs	r0, #7
10002ff2:	3a0c      	subs	r2, #12
10002ff4:	4382      	bics	r2, r0
10002ff6:	6860      	ldr	r0, [r4, #4]
10002ff8:	4001      	ands	r1, r0
10002ffa:	2005      	movs	r0, #5
10002ffc:	4311      	orrs	r1, r2
10002ffe:	6061      	str	r1, [r4, #4]
10003000:	18a1      	adds	r1, r4, r2
10003002:	6048      	str	r0, [r1, #4]
10003004:	6088      	str	r0, [r1, #8]
10003006:	2a0f      	cmp	r2, #15
10003008:	d900      	bls.n	1000300c <_malloc_r+0x2d0>
1000300a:	e134      	b.n	10003276 <_malloc_r+0x53a>
1000300c:	4642      	mov	r2, r8
1000300e:	4644      	mov	r4, r8
10003010:	6852      	ldr	r2, [r2, #4]
10003012:	4926      	ldr	r1, [pc, #152]	; (100030ac <_malloc_r+0x370>)
10003014:	6808      	ldr	r0, [r1, #0]
10003016:	4298      	cmp	r0, r3
10003018:	d200      	bcs.n	1000301c <_malloc_r+0x2e0>
1000301a:	600b      	str	r3, [r1, #0]
1000301c:	4924      	ldr	r1, [pc, #144]	; (100030b0 <_malloc_r+0x374>)
1000301e:	6808      	ldr	r0, [r1, #0]
10003020:	4298      	cmp	r0, r3
10003022:	d300      	bcc.n	10003026 <_malloc_r+0x2ea>
10003024:	e08e      	b.n	10003144 <_malloc_r+0x408>
10003026:	600b      	str	r3, [r1, #0]
10003028:	e08c      	b.n	10003144 <_malloc_r+0x408>
1000302a:	2201      	movs	r2, #1
1000302c:	0029      	movs	r1, r5
1000302e:	4313      	orrs	r3, r2
10003030:	4311      	orrs	r1, r2
10003032:	1965      	adds	r5, r4, r5
10003034:	6061      	str	r1, [r4, #4]
10003036:	0030      	movs	r0, r6
10003038:	60bd      	str	r5, [r7, #8]
1000303a:	606b      	str	r3, [r5, #4]
1000303c:	f000 f946 	bl	100032cc <__malloc_unlock>
10003040:	0020      	movs	r0, r4
10003042:	3008      	adds	r0, #8
10003044:	e73f      	b.n	10002ec6 <_malloc_r+0x18a>
10003046:	0a5a      	lsrs	r2, r3, #9
10003048:	2a04      	cmp	r2, #4
1000304a:	d971      	bls.n	10003130 <_malloc_r+0x3f4>
1000304c:	2a14      	cmp	r2, #20
1000304e:	d900      	bls.n	10003052 <_malloc_r+0x316>
10003050:	e0c4      	b.n	100031dc <_malloc_r+0x4a0>
10003052:	0011      	movs	r1, r2
10003054:	325c      	adds	r2, #92	; 0x5c
10003056:	315b      	adds	r1, #91	; 0x5b
10003058:	00d2      	lsls	r2, r2, #3
1000305a:	2308      	movs	r3, #8
1000305c:	425b      	negs	r3, r3
1000305e:	469c      	mov	ip, r3
10003060:	18ba      	adds	r2, r7, r2
10003062:	4494      	add	ip, r2
10003064:	4663      	mov	r3, ip
10003066:	689a      	ldr	r2, [r3, #8]
10003068:	2303      	movs	r3, #3
1000306a:	4698      	mov	r8, r3
1000306c:	4594      	cmp	ip, r2
1000306e:	d100      	bne.n	10003072 <_malloc_r+0x336>
10003070:	e09d      	b.n	100031ae <_malloc_r+0x472>
10003072:	4643      	mov	r3, r8
10003074:	6851      	ldr	r1, [r2, #4]
10003076:	4399      	bics	r1, r3
10003078:	4549      	cmp	r1, r9
1000307a:	d902      	bls.n	10003082 <_malloc_r+0x346>
1000307c:	6892      	ldr	r2, [r2, #8]
1000307e:	4594      	cmp	ip, r2
10003080:	d1f7      	bne.n	10003072 <_malloc_r+0x336>
10003082:	68d3      	ldr	r3, [r2, #12]
10003084:	469c      	mov	ip, r3
10003086:	687b      	ldr	r3, [r7, #4]
10003088:	4661      	mov	r1, ip
1000308a:	60a2      	str	r2, [r4, #8]
1000308c:	60e1      	str	r1, [r4, #12]
1000308e:	608c      	str	r4, [r1, #8]
10003090:	60d4      	str	r4, [r2, #12]
10003092:	e6d7      	b.n	10002e44 <_malloc_r+0x108>
10003094:	200006e0 	.word	0x200006e0
10003098:	20000ae8 	.word	0x20000ae8
1000309c:	20000b58 	.word	0x20000b58
100030a0:	0000100f 	.word	0x0000100f
100030a4:	20000b28 	.word	0x20000b28
100030a8:	00001008 	.word	0x00001008
100030ac:	20000b50 	.word	0x20000b50
100030b0:	20000b54 	.word	0x20000b54
100030b4:	2814      	cmp	r0, #20
100030b6:	d952      	bls.n	1000315e <_malloc_r+0x422>
100030b8:	2854      	cmp	r0, #84	; 0x54
100030ba:	d900      	bls.n	100030be <_malloc_r+0x382>
100030bc:	e096      	b.n	100031ec <_malloc_r+0x4b0>
100030be:	236e      	movs	r3, #110	; 0x6e
100030c0:	4698      	mov	r8, r3
100030c2:	0b28      	lsrs	r0, r5, #12
100030c4:	4480      	add	r8, r0
100030c6:	306f      	adds	r0, #111	; 0x6f
100030c8:	00c1      	lsls	r1, r0, #3
100030ca:	e680      	b.n	10002dce <_malloc_r+0x92>
100030cc:	2308      	movs	r3, #8
100030ce:	469b      	mov	fp, r3
100030d0:	3b07      	subs	r3, #7
100030d2:	44dc      	add	ip, fp
100030d4:	469b      	mov	fp, r3
100030d6:	44da      	add	sl, fp
100030d8:	4643      	mov	r3, r8
100030da:	4652      	mov	r2, sl
100030dc:	4213      	tst	r3, r2
100030de:	d000      	beq.n	100030e2 <_malloc_r+0x3a6>
100030e0:	e6c4      	b.n	10002e6c <_malloc_r+0x130>
100030e2:	e04c      	b.n	1000317e <_malloc_r+0x442>
100030e4:	2201      	movs	r2, #1
100030e6:	18e3      	adds	r3, r4, r3
100030e8:	6859      	ldr	r1, [r3, #4]
100030ea:	0030      	movs	r0, r6
100030ec:	430a      	orrs	r2, r1
100030ee:	605a      	str	r2, [r3, #4]
100030f0:	68e3      	ldr	r3, [r4, #12]
100030f2:	68a2      	ldr	r2, [r4, #8]
100030f4:	60d3      	str	r3, [r2, #12]
100030f6:	609a      	str	r2, [r3, #8]
100030f8:	f000 f8e8 	bl	100032cc <__malloc_unlock>
100030fc:	0020      	movs	r0, r4
100030fe:	3008      	adds	r0, #8
10003100:	e6e1      	b.n	10002ec6 <_malloc_r+0x18a>
10003102:	002b      	movs	r3, r5
10003104:	08e8      	lsrs	r0, r5, #3
10003106:	3308      	adds	r3, #8
10003108:	e62c      	b.n	10002d64 <_malloc_r+0x28>
1000310a:	2301      	movs	r3, #1
1000310c:	1960      	adds	r0, r4, r5
1000310e:	431d      	orrs	r5, r3
10003110:	6065      	str	r5, [r4, #4]
10003112:	6178      	str	r0, [r7, #20]
10003114:	6138      	str	r0, [r7, #16]
10003116:	60c2      	str	r2, [r0, #12]
10003118:	6082      	str	r2, [r0, #8]
1000311a:	001a      	movs	r2, r3
1000311c:	464b      	mov	r3, r9
1000311e:	430a      	orrs	r2, r1
10003120:	6042      	str	r2, [r0, #4]
10003122:	0030      	movs	r0, r6
10003124:	50e1      	str	r1, [r4, r3]
10003126:	f000 f8d1 	bl	100032cc <__malloc_unlock>
1000312a:	0020      	movs	r0, r4
1000312c:	3008      	adds	r0, #8
1000312e:	e6ca      	b.n	10002ec6 <_malloc_r+0x18a>
10003130:	099a      	lsrs	r2, r3, #6
10003132:	0011      	movs	r1, r2
10003134:	3239      	adds	r2, #57	; 0x39
10003136:	3138      	adds	r1, #56	; 0x38
10003138:	00d2      	lsls	r2, r2, #3
1000313a:	e78e      	b.n	1000305a <_malloc_r+0x31e>
1000313c:	42bc      	cmp	r4, r7
1000313e:	d060      	beq.n	10003202 <_malloc_r+0x4c6>
10003140:	68bc      	ldr	r4, [r7, #8]
10003142:	6862      	ldr	r2, [r4, #4]
10003144:	2303      	movs	r3, #3
10003146:	439a      	bics	r2, r3
10003148:	1b53      	subs	r3, r2, r5
1000314a:	4295      	cmp	r5, r2
1000314c:	d802      	bhi.n	10003154 <_malloc_r+0x418>
1000314e:	2b0f      	cmp	r3, #15
10003150:	dd00      	ble.n	10003154 <_malloc_r+0x418>
10003152:	e76a      	b.n	1000302a <_malloc_r+0x2ee>
10003154:	0030      	movs	r0, r6
10003156:	f000 f8b9 	bl	100032cc <__malloc_unlock>
1000315a:	2000      	movs	r0, #0
1000315c:	e6b3      	b.n	10002ec6 <_malloc_r+0x18a>
1000315e:	235b      	movs	r3, #91	; 0x5b
10003160:	4698      	mov	r8, r3
10003162:	4480      	add	r8, r0
10003164:	305c      	adds	r0, #92	; 0x5c
10003166:	00c1      	lsls	r1, r0, #3
10003168:	e631      	b.n	10002dce <_malloc_r+0x92>
1000316a:	2308      	movs	r3, #8
1000316c:	425b      	negs	r3, r3
1000316e:	469c      	mov	ip, r3
10003170:	44e1      	add	r9, ip
10003172:	464b      	mov	r3, r9
10003174:	689b      	ldr	r3, [r3, #8]
10003176:	3801      	subs	r0, #1
10003178:	454b      	cmp	r3, r9
1000317a:	d000      	beq.n	1000317e <_malloc_r+0x442>
1000317c:	e098      	b.n	100032b0 <_malloc_r+0x574>
1000317e:	4643      	mov	r3, r8
10003180:	4203      	tst	r3, r0
10003182:	d1f2      	bne.n	1000316a <_malloc_r+0x42e>
10003184:	687b      	ldr	r3, [r7, #4]
10003186:	438b      	bics	r3, r1
10003188:	607b      	str	r3, [r7, #4]
1000318a:	0049      	lsls	r1, r1, #1
1000318c:	4299      	cmp	r1, r3
1000318e:	d900      	bls.n	10003192 <_malloc_r+0x456>
10003190:	e6b7      	b.n	10002f02 <_malloc_r+0x1c6>
10003192:	2900      	cmp	r1, #0
10003194:	d104      	bne.n	100031a0 <_malloc_r+0x464>
10003196:	e6b4      	b.n	10002f02 <_malloc_r+0x1c6>
10003198:	2204      	movs	r2, #4
1000319a:	4694      	mov	ip, r2
1000319c:	0049      	lsls	r1, r1, #1
1000319e:	44e2      	add	sl, ip
100031a0:	420b      	tst	r3, r1
100031a2:	d0f9      	beq.n	10003198 <_malloc_r+0x45c>
100031a4:	4650      	mov	r0, sl
100031a6:	e65c      	b.n	10002e62 <_malloc_r+0x126>
100031a8:	3310      	adds	r3, #16
100031aa:	9300      	str	r3, [sp, #0]
100031ac:	e6c6      	b.n	10002f3c <_malloc_r+0x200>
100031ae:	1089      	asrs	r1, r1, #2
100031b0:	3b02      	subs	r3, #2
100031b2:	408b      	lsls	r3, r1
100031b4:	6879      	ldr	r1, [r7, #4]
100031b6:	430b      	orrs	r3, r1
100031b8:	607b      	str	r3, [r7, #4]
100031ba:	e765      	b.n	10003088 <_malloc_r+0x34c>
100031bc:	9b00      	ldr	r3, [sp, #0]
100031be:	0030      	movs	r0, r6
100031c0:	4443      	add	r3, r8
100031c2:	425b      	negs	r3, r3
100031c4:	051b      	lsls	r3, r3, #20
100031c6:	0d1b      	lsrs	r3, r3, #20
100031c8:	0019      	movs	r1, r3
100031ca:	469b      	mov	fp, r3
100031cc:	f000 f8a0 	bl	10003310 <_sbrk_r>
100031d0:	1c43      	adds	r3, r0, #1
100031d2:	d000      	beq.n	100031d6 <_malloc_r+0x49a>
100031d4:	e6f4      	b.n	10002fc0 <_malloc_r+0x284>
100031d6:	2300      	movs	r3, #0
100031d8:	469b      	mov	fp, r3
100031da:	e6f6      	b.n	10002fca <_malloc_r+0x28e>
100031dc:	2a54      	cmp	r2, #84	; 0x54
100031de:	d82b      	bhi.n	10003238 <_malloc_r+0x4fc>
100031e0:	0b1a      	lsrs	r2, r3, #12
100031e2:	0011      	movs	r1, r2
100031e4:	326f      	adds	r2, #111	; 0x6f
100031e6:	316e      	adds	r1, #110	; 0x6e
100031e8:	00d2      	lsls	r2, r2, #3
100031ea:	e736      	b.n	1000305a <_malloc_r+0x31e>
100031ec:	23aa      	movs	r3, #170	; 0xaa
100031ee:	005b      	lsls	r3, r3, #1
100031f0:	4298      	cmp	r0, r3
100031f2:	d82b      	bhi.n	1000324c <_malloc_r+0x510>
100031f4:	3bdd      	subs	r3, #221	; 0xdd
100031f6:	4698      	mov	r8, r3
100031f8:	0be8      	lsrs	r0, r5, #15
100031fa:	4480      	add	r8, r0
100031fc:	3078      	adds	r0, #120	; 0x78
100031fe:	00c1      	lsls	r1, r0, #3
10003200:	e5e5      	b.n	10002dce <_malloc_r+0x92>
10003202:	4b2c      	ldr	r3, [pc, #176]	; (100032b4 <_malloc_r+0x578>)
10003204:	9a00      	ldr	r2, [sp, #0]
10003206:	469a      	mov	sl, r3
10003208:	681b      	ldr	r3, [r3, #0]
1000320a:	469c      	mov	ip, r3
1000320c:	4653      	mov	r3, sl
1000320e:	4462      	add	r2, ip
10003210:	601a      	str	r2, [r3, #0]
10003212:	e6ae      	b.n	10002f72 <_malloc_r+0x236>
10003214:	0509      	lsls	r1, r1, #20
10003216:	d000      	beq.n	1000321a <_malloc_r+0x4de>
10003218:	e6ab      	b.n	10002f72 <_malloc_r+0x236>
1000321a:	9a00      	ldr	r2, [sp, #0]
1000321c:	68bc      	ldr	r4, [r7, #8]
1000321e:	444a      	add	r2, r9
10003220:	3101      	adds	r1, #1
10003222:	430a      	orrs	r2, r1
10003224:	6062      	str	r2, [r4, #4]
10003226:	e6f4      	b.n	10003012 <_malloc_r+0x2d6>
10003228:	465b      	mov	r3, fp
1000322a:	4642      	mov	r2, r8
1000322c:	601a      	str	r2, [r3, #0]
1000322e:	e6ab      	b.n	10002f88 <_malloc_r+0x24c>
10003230:	4644      	mov	r4, r8
10003232:	e6ee      	b.n	10003012 <_malloc_r+0x2d6>
10003234:	6041      	str	r1, [r0, #4]
10003236:	e78d      	b.n	10003154 <_malloc_r+0x418>
10003238:	21aa      	movs	r1, #170	; 0xaa
1000323a:	0049      	lsls	r1, r1, #1
1000323c:	428a      	cmp	r2, r1
1000323e:	d824      	bhi.n	1000328a <_malloc_r+0x54e>
10003240:	0bda      	lsrs	r2, r3, #15
10003242:	0011      	movs	r1, r2
10003244:	3278      	adds	r2, #120	; 0x78
10003246:	3177      	adds	r1, #119	; 0x77
10003248:	00d2      	lsls	r2, r2, #3
1000324a:	e706      	b.n	1000305a <_malloc_r+0x31e>
1000324c:	4b1a      	ldr	r3, [pc, #104]	; (100032b8 <_malloc_r+0x57c>)
1000324e:	4298      	cmp	r0, r3
10003250:	d824      	bhi.n	1000329c <_malloc_r+0x560>
10003252:	237c      	movs	r3, #124	; 0x7c
10003254:	4698      	mov	r8, r3
10003256:	0ca8      	lsrs	r0, r5, #18
10003258:	4480      	add	r8, r0
1000325a:	307d      	adds	r0, #125	; 0x7d
1000325c:	00c1      	lsls	r1, r0, #3
1000325e:	e5b6      	b.n	10002dce <_malloc_r+0x92>
10003260:	9a00      	ldr	r2, [sp, #0]
10003262:	9b01      	ldr	r3, [sp, #4]
10003264:	4694      	mov	ip, r2
10003266:	4642      	mov	r2, r8
10003268:	3b08      	subs	r3, #8
1000326a:	4463      	add	r3, ip
1000326c:	1a9b      	subs	r3, r3, r2
1000326e:	9300      	str	r3, [sp, #0]
10003270:	2300      	movs	r3, #0
10003272:	469b      	mov	fp, r3
10003274:	e6a9      	b.n	10002fca <_malloc_r+0x28e>
10003276:	0021      	movs	r1, r4
10003278:	0030      	movs	r0, r6
1000327a:	3108      	adds	r1, #8
1000327c:	f000 f8d6 	bl	1000342c <_free_r>
10003280:	4653      	mov	r3, sl
10003282:	68bc      	ldr	r4, [r7, #8]
10003284:	681b      	ldr	r3, [r3, #0]
10003286:	6862      	ldr	r2, [r4, #4]
10003288:	e6c3      	b.n	10003012 <_malloc_r+0x2d6>
1000328a:	490b      	ldr	r1, [pc, #44]	; (100032b8 <_malloc_r+0x57c>)
1000328c:	428a      	cmp	r2, r1
1000328e:	d80b      	bhi.n	100032a8 <_malloc_r+0x56c>
10003290:	0c9a      	lsrs	r2, r3, #18
10003292:	0011      	movs	r1, r2
10003294:	327d      	adds	r2, #125	; 0x7d
10003296:	317c      	adds	r1, #124	; 0x7c
10003298:	00d2      	lsls	r2, r2, #3
1000329a:	e6de      	b.n	1000305a <_malloc_r+0x31e>
1000329c:	21fe      	movs	r1, #254	; 0xfe
1000329e:	237e      	movs	r3, #126	; 0x7e
100032a0:	207f      	movs	r0, #127	; 0x7f
100032a2:	4698      	mov	r8, r3
100032a4:	0089      	lsls	r1, r1, #2
100032a6:	e592      	b.n	10002dce <_malloc_r+0x92>
100032a8:	22fe      	movs	r2, #254	; 0xfe
100032aa:	217e      	movs	r1, #126	; 0x7e
100032ac:	0092      	lsls	r2, r2, #2
100032ae:	e6d4      	b.n	1000305a <_malloc_r+0x31e>
100032b0:	687b      	ldr	r3, [r7, #4]
100032b2:	e76a      	b.n	1000318a <_malloc_r+0x44e>
100032b4:	20000b28 	.word	0x20000b28
100032b8:	00000554 	.word	0x00000554

100032bc <__malloc_lock>:
100032bc:	b510      	push	{r4, lr}
100032be:	4802      	ldr	r0, [pc, #8]	; (100032c8 <__malloc_lock+0xc>)
100032c0:	f000 f996 	bl	100035f0 <__retarget_lock_acquire_recursive>
100032c4:	bd10      	pop	{r4, pc}
100032c6:	46c0      	nop			; (mov r8, r8)
100032c8:	2000f800 	.word	0x2000f800

100032cc <__malloc_unlock>:
100032cc:	b510      	push	{r4, lr}
100032ce:	4802      	ldr	r0, [pc, #8]	; (100032d8 <__malloc_unlock+0xc>)
100032d0:	f000 f990 	bl	100035f4 <__retarget_lock_release_recursive>
100032d4:	bd10      	pop	{r4, pc}
100032d6:	46c0      	nop			; (mov r8, r8)
100032d8:	2000f800 	.word	0x2000f800

100032dc <rand>:
100032dc:	4b09      	ldr	r3, [pc, #36]	; (10003304 <rand+0x28>)
100032de:	b510      	push	{r4, lr}
100032e0:	681c      	ldr	r4, [r3, #0]
100032e2:	4a09      	ldr	r2, [pc, #36]	; (10003308 <rand+0x2c>)
100032e4:	34a8      	adds	r4, #168	; 0xa8
100032e6:	6820      	ldr	r0, [r4, #0]
100032e8:	6861      	ldr	r1, [r4, #4]
100032ea:	4b08      	ldr	r3, [pc, #32]	; (1000330c <rand+0x30>)
100032ec:	f7ff f99c 	bl	10002628 <__wrap___aeabi_lmul>
100032f0:	2201      	movs	r2, #1
100032f2:	2300      	movs	r3, #0
100032f4:	1880      	adds	r0, r0, r2
100032f6:	4159      	adcs	r1, r3
100032f8:	6020      	str	r0, [r4, #0]
100032fa:	6061      	str	r1, [r4, #4]
100032fc:	0048      	lsls	r0, r1, #1
100032fe:	0840      	lsrs	r0, r0, #1
10003300:	bd10      	pop	{r4, pc}
10003302:	46c0      	nop			; (mov r8, r8)
10003304:	200002b4 	.word	0x200002b4
10003308:	4c957f2d 	.word	0x4c957f2d
1000330c:	5851f42d 	.word	0x5851f42d

10003310 <_sbrk_r>:
10003310:	2300      	movs	r3, #0
10003312:	b570      	push	{r4, r5, r6, lr}
10003314:	4d06      	ldr	r5, [pc, #24]	; (10003330 <_sbrk_r+0x20>)
10003316:	0004      	movs	r4, r0
10003318:	0008      	movs	r0, r1
1000331a:	602b      	str	r3, [r5, #0]
1000331c:	f7fe fd02 	bl	10001d24 <_sbrk>
10003320:	1c43      	adds	r3, r0, #1
10003322:	d000      	beq.n	10003326 <_sbrk_r+0x16>
10003324:	bd70      	pop	{r4, r5, r6, pc}
10003326:	682b      	ldr	r3, [r5, #0]
10003328:	2b00      	cmp	r3, #0
1000332a:	d0fb      	beq.n	10003324 <_sbrk_r+0x14>
1000332c:	6023      	str	r3, [r4, #0]
1000332e:	e7f9      	b.n	10003324 <_sbrk_r+0x14>
10003330:	2000f814 	.word	0x2000f814

10003334 <strlen>:
10003334:	b510      	push	{r4, lr}
10003336:	0783      	lsls	r3, r0, #30
10003338:	d00a      	beq.n	10003350 <strlen+0x1c>
1000333a:	0003      	movs	r3, r0
1000333c:	2103      	movs	r1, #3
1000333e:	e002      	b.n	10003346 <strlen+0x12>
10003340:	3301      	adds	r3, #1
10003342:	420b      	tst	r3, r1
10003344:	d005      	beq.n	10003352 <strlen+0x1e>
10003346:	781a      	ldrb	r2, [r3, #0]
10003348:	2a00      	cmp	r2, #0
1000334a:	d1f9      	bne.n	10003340 <strlen+0xc>
1000334c:	1a18      	subs	r0, r3, r0
1000334e:	bd10      	pop	{r4, pc}
10003350:	0003      	movs	r3, r0
10003352:	6819      	ldr	r1, [r3, #0]
10003354:	4a0c      	ldr	r2, [pc, #48]	; (10003388 <strlen+0x54>)
10003356:	4c0d      	ldr	r4, [pc, #52]	; (1000338c <strlen+0x58>)
10003358:	188a      	adds	r2, r1, r2
1000335a:	438a      	bics	r2, r1
1000335c:	4222      	tst	r2, r4
1000335e:	d10f      	bne.n	10003380 <strlen+0x4c>
10003360:	6859      	ldr	r1, [r3, #4]
10003362:	4a09      	ldr	r2, [pc, #36]	; (10003388 <strlen+0x54>)
10003364:	3304      	adds	r3, #4
10003366:	188a      	adds	r2, r1, r2
10003368:	438a      	bics	r2, r1
1000336a:	4222      	tst	r2, r4
1000336c:	d108      	bne.n	10003380 <strlen+0x4c>
1000336e:	6859      	ldr	r1, [r3, #4]
10003370:	4a05      	ldr	r2, [pc, #20]	; (10003388 <strlen+0x54>)
10003372:	3304      	adds	r3, #4
10003374:	188a      	adds	r2, r1, r2
10003376:	438a      	bics	r2, r1
10003378:	4222      	tst	r2, r4
1000337a:	d0f1      	beq.n	10003360 <strlen+0x2c>
1000337c:	e000      	b.n	10003380 <strlen+0x4c>
1000337e:	3301      	adds	r3, #1
10003380:	781a      	ldrb	r2, [r3, #0]
10003382:	2a00      	cmp	r2, #0
10003384:	d1fb      	bne.n	1000337e <strlen+0x4a>
10003386:	e7e1      	b.n	1000334c <strlen+0x18>
10003388:	fefefeff 	.word	0xfefefeff
1000338c:	80808080 	.word	0x80808080

10003390 <_malloc_trim_r>:
10003390:	b5f8      	push	{r3, r4, r5, r6, r7, lr}
10003392:	000c      	movs	r4, r1
10003394:	0005      	movs	r5, r0
10003396:	f7ff ff91 	bl	100032bc <__malloc_lock>
1000339a:	4f20      	ldr	r7, [pc, #128]	; (1000341c <_malloc_trim_r+0x8c>)
1000339c:	68bb      	ldr	r3, [r7, #8]
1000339e:	685e      	ldr	r6, [r3, #4]
100033a0:	2303      	movs	r3, #3
100033a2:	439e      	bics	r6, r3
100033a4:	4b1e      	ldr	r3, [pc, #120]	; (10003420 <_malloc_trim_r+0x90>)
100033a6:	1b34      	subs	r4, r6, r4
100033a8:	469c      	mov	ip, r3
100033aa:	4464      	add	r4, ip
100033ac:	0b24      	lsrs	r4, r4, #12
100033ae:	3c01      	subs	r4, #1
100033b0:	3311      	adds	r3, #17
100033b2:	0324      	lsls	r4, r4, #12
100033b4:	429c      	cmp	r4, r3
100033b6:	db07      	blt.n	100033c8 <_malloc_trim_r+0x38>
100033b8:	2100      	movs	r1, #0
100033ba:	0028      	movs	r0, r5
100033bc:	f7ff ffa8 	bl	10003310 <_sbrk_r>
100033c0:	68bb      	ldr	r3, [r7, #8]
100033c2:	199b      	adds	r3, r3, r6
100033c4:	4298      	cmp	r0, r3
100033c6:	d004      	beq.n	100033d2 <_malloc_trim_r+0x42>
100033c8:	0028      	movs	r0, r5
100033ca:	f7ff ff7f 	bl	100032cc <__malloc_unlock>
100033ce:	2000      	movs	r0, #0
100033d0:	bdf8      	pop	{r3, r4, r5, r6, r7, pc}
100033d2:	0028      	movs	r0, r5
100033d4:	4261      	negs	r1, r4
100033d6:	f7ff ff9b 	bl	10003310 <_sbrk_r>
100033da:	1c43      	adds	r3, r0, #1
100033dc:	d00d      	beq.n	100033fa <_malloc_trim_r+0x6a>
100033de:	2201      	movs	r2, #1
100033e0:	68bb      	ldr	r3, [r7, #8]
100033e2:	1b36      	subs	r6, r6, r4
100033e4:	4316      	orrs	r6, r2
100033e6:	605e      	str	r6, [r3, #4]
100033e8:	4b0e      	ldr	r3, [pc, #56]	; (10003424 <_malloc_trim_r+0x94>)
100033ea:	0028      	movs	r0, r5
100033ec:	681a      	ldr	r2, [r3, #0]
100033ee:	1b14      	subs	r4, r2, r4
100033f0:	601c      	str	r4, [r3, #0]
100033f2:	f7ff ff6b 	bl	100032cc <__malloc_unlock>
100033f6:	2001      	movs	r0, #1
100033f8:	e7ea      	b.n	100033d0 <_malloc_trim_r+0x40>
100033fa:	2100      	movs	r1, #0
100033fc:	0028      	movs	r0, r5
100033fe:	f7ff ff87 	bl	10003310 <_sbrk_r>
10003402:	68ba      	ldr	r2, [r7, #8]
10003404:	1a83      	subs	r3, r0, r2
10003406:	2b0f      	cmp	r3, #15
10003408:	ddde      	ble.n	100033c8 <_malloc_trim_r+0x38>
1000340a:	4907      	ldr	r1, [pc, #28]	; (10003428 <_malloc_trim_r+0x98>)
1000340c:	6809      	ldr	r1, [r1, #0]
1000340e:	1a40      	subs	r0, r0, r1
10003410:	4904      	ldr	r1, [pc, #16]	; (10003424 <_malloc_trim_r+0x94>)
10003412:	6008      	str	r0, [r1, #0]
10003414:	2101      	movs	r1, #1
10003416:	430b      	orrs	r3, r1
10003418:	6053      	str	r3, [r2, #4]
1000341a:	e7d5      	b.n	100033c8 <_malloc_trim_r+0x38>
1000341c:	200006e0 	.word	0x200006e0
10003420:	00000fef 	.word	0x00000fef
10003424:	20000b28 	.word	0x20000b28
10003428:	20000ae8 	.word	0x20000ae8

1000342c <_free_r>:
1000342c:	b5f0      	push	{r4, r5, r6, r7, lr}
1000342e:	46c6      	mov	lr, r8
10003430:	0005      	movs	r5, r0
10003432:	000c      	movs	r4, r1
10003434:	b500      	push	{lr}
10003436:	2900      	cmp	r1, #0
10003438:	d04f      	beq.n	100034da <_free_r+0xae>
1000343a:	f7ff ff3f 	bl	100032bc <__malloc_lock>
1000343e:	0021      	movs	r1, r4
10003440:	3908      	subs	r1, #8
10003442:	684c      	ldr	r4, [r1, #4]
10003444:	2601      	movs	r6, #1
10003446:	0022      	movs	r2, r4
10003448:	2003      	movs	r0, #3
1000344a:	43b2      	bics	r2, r6
1000344c:	188f      	adds	r7, r1, r2
1000344e:	687b      	ldr	r3, [r7, #4]
10003450:	4383      	bics	r3, r0
10003452:	4862      	ldr	r0, [pc, #392]	; (100035dc <_free_r+0x1b0>)
10003454:	4698      	mov	r8, r3
10003456:	6883      	ldr	r3, [r0, #8]
10003458:	42bb      	cmp	r3, r7
1000345a:	d06b      	beq.n	10003534 <_free_r+0x108>
1000345c:	4643      	mov	r3, r8
1000345e:	607b      	str	r3, [r7, #4]
10003460:	4226      	tst	r6, r4
10003462:	d11e      	bne.n	100034a2 <_free_r+0x76>
10003464:	2308      	movs	r3, #8
10003466:	469c      	mov	ip, r3
10003468:	680c      	ldr	r4, [r1, #0]
1000346a:	4484      	add	ip, r0
1000346c:	1b09      	subs	r1, r1, r4
1000346e:	1912      	adds	r2, r2, r4
10003470:	688c      	ldr	r4, [r1, #8]
10003472:	4564      	cmp	r4, ip
10003474:	d04f      	beq.n	10003516 <_free_r+0xea>
10003476:	68cb      	ldr	r3, [r1, #12]
10003478:	60e3      	str	r3, [r4, #12]
1000347a:	609c      	str	r4, [r3, #8]
1000347c:	4643      	mov	r3, r8
1000347e:	18fc      	adds	r4, r7, r3
10003480:	6864      	ldr	r4, [r4, #4]
10003482:	4234      	tst	r4, r6
10003484:	d111      	bne.n	100034aa <_free_r+0x7e>
10003486:	68bb      	ldr	r3, [r7, #8]
10003488:	4c55      	ldr	r4, [pc, #340]	; (100035e0 <_free_r+0x1b4>)
1000348a:	4442      	add	r2, r8
1000348c:	42a3      	cmp	r3, r4
1000348e:	d100      	bne.n	10003492 <_free_r+0x66>
10003490:	e07f      	b.n	10003592 <_free_r+0x166>
10003492:	68fc      	ldr	r4, [r7, #12]
10003494:	60dc      	str	r4, [r3, #12]
10003496:	60a3      	str	r3, [r4, #8]
10003498:	2301      	movs	r3, #1
1000349a:	4313      	orrs	r3, r2
1000349c:	604b      	str	r3, [r1, #4]
1000349e:	508a      	str	r2, [r1, r2]
100034a0:	e006      	b.n	100034b0 <_free_r+0x84>
100034a2:	18fc      	adds	r4, r7, r3
100034a4:	6864      	ldr	r4, [r4, #4]
100034a6:	4234      	tst	r4, r6
100034a8:	d0ed      	beq.n	10003486 <_free_r+0x5a>
100034aa:	4316      	orrs	r6, r2
100034ac:	604e      	str	r6, [r1, #4]
100034ae:	603a      	str	r2, [r7, #0]
100034b0:	2380      	movs	r3, #128	; 0x80
100034b2:	009b      	lsls	r3, r3, #2
100034b4:	429a      	cmp	r2, r3
100034b6:	d213      	bcs.n	100034e0 <_free_r+0xb4>
100034b8:	0954      	lsrs	r4, r2, #5
100034ba:	08d3      	lsrs	r3, r2, #3
100034bc:	2201      	movs	r2, #1
100034be:	40a2      	lsls	r2, r4
100034c0:	6844      	ldr	r4, [r0, #4]
100034c2:	00db      	lsls	r3, r3, #3
100034c4:	4322      	orrs	r2, r4
100034c6:	6042      	str	r2, [r0, #4]
100034c8:	1818      	adds	r0, r3, r0
100034ca:	6883      	ldr	r3, [r0, #8]
100034cc:	60c8      	str	r0, [r1, #12]
100034ce:	608b      	str	r3, [r1, #8]
100034d0:	6081      	str	r1, [r0, #8]
100034d2:	60d9      	str	r1, [r3, #12]
100034d4:	0028      	movs	r0, r5
100034d6:	f7ff fef9 	bl	100032cc <__malloc_unlock>
100034da:	bc04      	pop	{r2}
100034dc:	4690      	mov	r8, r2
100034de:	bdf0      	pop	{r4, r5, r6, r7, pc}
100034e0:	0a53      	lsrs	r3, r2, #9
100034e2:	2b04      	cmp	r3, #4
100034e4:	d83f      	bhi.n	10003566 <_free_r+0x13a>
100034e6:	0994      	lsrs	r4, r2, #6
100034e8:	0026      	movs	r6, r4
100034ea:	3439      	adds	r4, #57	; 0x39
100034ec:	3638      	adds	r6, #56	; 0x38
100034ee:	00e4      	lsls	r4, r4, #3
100034f0:	1904      	adds	r4, r0, r4
100034f2:	6823      	ldr	r3, [r4, #0]
100034f4:	3c08      	subs	r4, #8
100034f6:	2703      	movs	r7, #3
100034f8:	429c      	cmp	r4, r3
100034fa:	d043      	beq.n	10003584 <_free_r+0x158>
100034fc:	6858      	ldr	r0, [r3, #4]
100034fe:	43b8      	bics	r0, r7
10003500:	4290      	cmp	r0, r2
10003502:	d902      	bls.n	1000350a <_free_r+0xde>
10003504:	689b      	ldr	r3, [r3, #8]
10003506:	429c      	cmp	r4, r3
10003508:	d1f8      	bne.n	100034fc <_free_r+0xd0>
1000350a:	68dc      	ldr	r4, [r3, #12]
1000350c:	60cc      	str	r4, [r1, #12]
1000350e:	608b      	str	r3, [r1, #8]
10003510:	60a1      	str	r1, [r4, #8]
10003512:	60d9      	str	r1, [r3, #12]
10003514:	e7de      	b.n	100034d4 <_free_r+0xa8>
10003516:	4643      	mov	r3, r8
10003518:	18f8      	adds	r0, r7, r3
1000351a:	6840      	ldr	r0, [r0, #4]
1000351c:	4230      	tst	r0, r6
1000351e:	d158      	bne.n	100035d2 <_free_r+0x1a6>
10003520:	0013      	movs	r3, r2
10003522:	68b8      	ldr	r0, [r7, #8]
10003524:	68fa      	ldr	r2, [r7, #12]
10003526:	4443      	add	r3, r8
10003528:	431e      	orrs	r6, r3
1000352a:	60c2      	str	r2, [r0, #12]
1000352c:	6090      	str	r0, [r2, #8]
1000352e:	604e      	str	r6, [r1, #4]
10003530:	50cb      	str	r3, [r1, r3]
10003532:	e7cf      	b.n	100034d4 <_free_r+0xa8>
10003534:	0013      	movs	r3, r2
10003536:	4443      	add	r3, r8
10003538:	4226      	tst	r6, r4
1000353a:	d106      	bne.n	1000354a <_free_r+0x11e>
1000353c:	680a      	ldr	r2, [r1, #0]
1000353e:	1a89      	subs	r1, r1, r2
10003540:	688c      	ldr	r4, [r1, #8]
10003542:	189b      	adds	r3, r3, r2
10003544:	68ca      	ldr	r2, [r1, #12]
10003546:	60e2      	str	r2, [r4, #12]
10003548:	6094      	str	r4, [r2, #8]
1000354a:	2201      	movs	r2, #1
1000354c:	431a      	orrs	r2, r3
1000354e:	604a      	str	r2, [r1, #4]
10003550:	4a24      	ldr	r2, [pc, #144]	; (100035e4 <_free_r+0x1b8>)
10003552:	6081      	str	r1, [r0, #8]
10003554:	6812      	ldr	r2, [r2, #0]
10003556:	429a      	cmp	r2, r3
10003558:	d8bc      	bhi.n	100034d4 <_free_r+0xa8>
1000355a:	4b23      	ldr	r3, [pc, #140]	; (100035e8 <_free_r+0x1bc>)
1000355c:	0028      	movs	r0, r5
1000355e:	6819      	ldr	r1, [r3, #0]
10003560:	f7ff ff16 	bl	10003390 <_malloc_trim_r>
10003564:	e7b6      	b.n	100034d4 <_free_r+0xa8>
10003566:	2b14      	cmp	r3, #20
10003568:	d907      	bls.n	1000357a <_free_r+0x14e>
1000356a:	2b54      	cmp	r3, #84	; 0x54
1000356c:	d81a      	bhi.n	100035a4 <_free_r+0x178>
1000356e:	0b14      	lsrs	r4, r2, #12
10003570:	0026      	movs	r6, r4
10003572:	346f      	adds	r4, #111	; 0x6f
10003574:	366e      	adds	r6, #110	; 0x6e
10003576:	00e4      	lsls	r4, r4, #3
10003578:	e7ba      	b.n	100034f0 <_free_r+0xc4>
1000357a:	001e      	movs	r6, r3
1000357c:	335c      	adds	r3, #92	; 0x5c
1000357e:	365b      	adds	r6, #91	; 0x5b
10003580:	00dc      	lsls	r4, r3, #3
10003582:	e7b5      	b.n	100034f0 <_free_r+0xc4>
10003584:	2201      	movs	r2, #1
10003586:	10b6      	asrs	r6, r6, #2
10003588:	40b2      	lsls	r2, r6
1000358a:	6846      	ldr	r6, [r0, #4]
1000358c:	4332      	orrs	r2, r6
1000358e:	6042      	str	r2, [r0, #4]
10003590:	e7bc      	b.n	1000350c <_free_r+0xe0>
10003592:	60d9      	str	r1, [r3, #12]
10003594:	6099      	str	r1, [r3, #8]
10003596:	60cb      	str	r3, [r1, #12]
10003598:	608b      	str	r3, [r1, #8]
1000359a:	2301      	movs	r3, #1
1000359c:	4313      	orrs	r3, r2
1000359e:	604b      	str	r3, [r1, #4]
100035a0:	508a      	str	r2, [r1, r2]
100035a2:	e797      	b.n	100034d4 <_free_r+0xa8>
100035a4:	24aa      	movs	r4, #170	; 0xaa
100035a6:	0064      	lsls	r4, r4, #1
100035a8:	42a3      	cmp	r3, r4
100035aa:	d805      	bhi.n	100035b8 <_free_r+0x18c>
100035ac:	0bd4      	lsrs	r4, r2, #15
100035ae:	0026      	movs	r6, r4
100035b0:	3478      	adds	r4, #120	; 0x78
100035b2:	3677      	adds	r6, #119	; 0x77
100035b4:	00e4      	lsls	r4, r4, #3
100035b6:	e79b      	b.n	100034f0 <_free_r+0xc4>
100035b8:	4c0c      	ldr	r4, [pc, #48]	; (100035ec <_free_r+0x1c0>)
100035ba:	42a3      	cmp	r3, r4
100035bc:	d805      	bhi.n	100035ca <_free_r+0x19e>
100035be:	0c94      	lsrs	r4, r2, #18
100035c0:	0026      	movs	r6, r4
100035c2:	347d      	adds	r4, #125	; 0x7d
100035c4:	367c      	adds	r6, #124	; 0x7c
100035c6:	00e4      	lsls	r4, r4, #3
100035c8:	e792      	b.n	100034f0 <_free_r+0xc4>
100035ca:	24fe      	movs	r4, #254	; 0xfe
100035cc:	267e      	movs	r6, #126	; 0x7e
100035ce:	00a4      	lsls	r4, r4, #2
100035d0:	e78e      	b.n	100034f0 <_free_r+0xc4>
100035d2:	0033      	movs	r3, r6
100035d4:	4313      	orrs	r3, r2
100035d6:	604b      	str	r3, [r1, #4]
100035d8:	603a      	str	r2, [r7, #0]
100035da:	e77b      	b.n	100034d4 <_free_r+0xa8>
100035dc:	200006e0 	.word	0x200006e0
100035e0:	200006e8 	.word	0x200006e8
100035e4:	20000aec 	.word	0x20000aec
100035e8:	20000b58 	.word	0x20000b58
100035ec:	00000554 	.word	0x00000554

100035f0 <__retarget_lock_acquire_recursive>:
100035f0:	4770      	bx	lr
100035f2:	46c0      	nop			; (mov r8, r8)

100035f4 <__retarget_lock_release_recursive>:
100035f4:	4770      	bx	lr
100035f6:	46c0      	nop			; (mov r8, r8)

100035f8 <_fini>:
100035f8:	b5f8      	push	{r3, r4, r5, r6, r7, lr}
100035fa:	46c0      	nop			; (mov r8, r8)
100035fc:	0000      	movs	r0, r0
	...

10003600 <__sem_release_veneer>:
10003600:	b401      	push	{r0}
10003602:	4802      	ldr	r0, [pc, #8]	; (1000360c <__sem_release_veneer+0xc>)
10003604:	4684      	mov	ip, r0
10003606:	bc01      	pop	{r0}
10003608:	4760      	bx	ip
1000360a:	bf00      	nop
1000360c:	20000105 	.word	0x20000105

10003610 <__mutex_exit_veneer>:
10003610:	b401      	push	{r0}
10003612:	4802      	ldr	r0, [pc, #8]	; (1000361c <__mutex_exit_veneer+0xc>)
10003614:	4684      	mov	ip, r0
10003616:	bc01      	pop	{r0}
10003618:	4760      	bx	ip
1000361a:	bf00      	nop
1000361c:	200001dd 	.word	0x200001dd

10003620 <____aeabi_idiv0_veneer>:
10003620:	b401      	push	{r0}
10003622:	4802      	ldr	r0, [pc, #8]	; (1000362c <____aeabi_idiv0_veneer+0xc>)
10003624:	4684      	mov	ip, r0
10003626:	bc01      	pop	{r0}
10003628:	4760      	bx	ip
1000362a:	bf00      	nop
1000362c:	20000205 	.word	0x20000205

10003630 <__sem_acquire_blocking_veneer>:
10003630:	b401      	push	{r0}
10003632:	4802      	ldr	r0, [pc, #8]	; (1000363c <__sem_acquire_blocking_veneer+0xc>)
10003634:	4684      	mov	ip, r0
10003636:	bc01      	pop	{r0}
10003638:	4760      	bx	ip
1000363a:	bf00      	nop
1000363c:	200000c1 	.word	0x200000c1

10003640 <__mutex_try_enter_veneer>:
10003640:	b401      	push	{r0}
10003642:	4802      	ldr	r0, [pc, #8]	; (1000364c <__mutex_try_enter_veneer+0xc>)
10003644:	4684      	mov	ip, r0
10003646:	bc01      	pop	{r0}
10003648:	4760      	bx	ip
1000364a:	bf00      	nop
1000364c:	20000191 	.word	0x20000191

10003650 <__mutex_enter_blocking_veneer>:
10003650:	b401      	push	{r0}
10003652:	4802      	ldr	r0, [pc, #8]	; (1000365c <__mutex_enter_blocking_veneer+0xc>)
10003654:	4684      	mov	ip, r0
10003656:	bc01      	pop	{r0}
10003658:	4760      	bx	ip
1000365a:	bf00      	nop
1000365c:	20000141 	.word	0x20000141

Disassembly of section .data:

200000c0 <sem_acquire_blocking>:
200000c0:	b510      	push	{r4, lr}
200000c2:	2400      	movs	r4, #0
200000c4:	6802      	ldr	r2, [r0, #0]
200000c6:	f3ef 8110 	mrs	r1, PRIMASK
200000ca:	b672      	cpsid	i
200000cc:	6813      	ldr	r3, [r2, #0]
200000ce:	2b00      	cmp	r3, #0
200000d0:	d0fc      	beq.n	200000cc <sem_acquire_blocking+0xc>
200000d2:	f3bf 8f5f 	dmb	sy
200000d6:	2204      	movs	r2, #4
200000d8:	5e83      	ldrsh	r3, [r0, r2]
200000da:	2b00      	cmp	r3, #0
200000dc:	dd0a      	ble.n	200000f4 <sem_acquire_blocking+0x34>
200000de:	3b01      	subs	r3, #1
200000e0:	8083      	strh	r3, [r0, #4]
200000e2:	bf40      	sev
200000e4:	6803      	ldr	r3, [r0, #0]
200000e6:	f3bf 8f5f 	dmb	sy
200000ea:	2200      	movs	r2, #0
200000ec:	601a      	str	r2, [r3, #0]
200000ee:	f381 8810 	msr	PRIMASK, r1
200000f2:	bd10      	pop	{r4, pc}
200000f4:	6803      	ldr	r3, [r0, #0]
200000f6:	f3bf 8f5f 	dmb	sy
200000fa:	601c      	str	r4, [r3, #0]
200000fc:	f381 8810 	msr	PRIMASK, r1
20000100:	bf20      	wfe
20000102:	e7df      	b.n	200000c4 <sem_acquire_blocking+0x4>

20000104 <sem_release>:
20000104:	b510      	push	{r4, lr}
20000106:	0003      	movs	r3, r0
20000108:	6801      	ldr	r1, [r0, #0]
2000010a:	f3ef 8410 	mrs	r4, PRIMASK
2000010e:	b672      	cpsid	i
20000110:	680a      	ldr	r2, [r1, #0]
20000112:	2a00      	cmp	r2, #0
20000114:	d0fc      	beq.n	20000110 <sem_release+0xc>
20000116:	f3bf 8f5f 	dmb	sy
2000011a:	2104      	movs	r1, #4
2000011c:	5e5a      	ldrsh	r2, [r3, r1]
2000011e:	2006      	movs	r0, #6
20000120:	5e19      	ldrsh	r1, [r3, r0]
20000122:	2000      	movs	r0, #0
20000124:	4291      	cmp	r1, r2
20000126:	dd03      	ble.n	20000130 <sem_release+0x2c>
20000128:	3201      	adds	r2, #1
2000012a:	809a      	strh	r2, [r3, #4]
2000012c:	bf40      	sev
2000012e:	3001      	adds	r0, #1
20000130:	681b      	ldr	r3, [r3, #0]
20000132:	f3bf 8f5f 	dmb	sy
20000136:	2200      	movs	r2, #0
20000138:	601a      	str	r2, [r3, #0]
2000013a:	f384 8810 	msr	PRIMASK, r4
2000013e:	bd10      	pop	{r4, pc}

20000140 <mutex_enter_blocking>:
20000140:	b510      	push	{r4, lr}
20000142:	6802      	ldr	r2, [r0, #0]
20000144:	2400      	movs	r4, #0
20000146:	f3ef 8110 	mrs	r1, PRIMASK
2000014a:	b672      	cpsid	i
2000014c:	6813      	ldr	r3, [r2, #0]
2000014e:	2b00      	cmp	r3, #0
20000150:	d0fc      	beq.n	2000014c <mutex_enter_blocking+0xc>
20000152:	f3bf 8f5f 	dmb	sy
20000156:	7903      	ldrb	r3, [r0, #4]
20000158:	2b00      	cmp	r3, #0
2000015a:	d00b      	beq.n	20000174 <mutex_enter_blocking+0x34>
2000015c:	6803      	ldr	r3, [r0, #0]
2000015e:	f3bf 8f5f 	dmb	sy
20000162:	601c      	str	r4, [r3, #0]
20000164:	f381 8810 	msr	PRIMASK, r1
20000168:	bf20      	wfe
2000016a:	6802      	ldr	r2, [r0, #0]
2000016c:	f3ef 8110 	mrs	r1, PRIMASK
20000170:	b672      	cpsid	i
20000172:	e7eb      	b.n	2000014c <mutex_enter_blocking+0xc>
20000174:	2201      	movs	r2, #1
20000176:	7102      	strb	r2, [r0, #4]
20000178:	22d0      	movs	r2, #208	; 0xd0
2000017a:	0612      	lsls	r2, r2, #24
2000017c:	6812      	ldr	r2, [r2, #0]
2000017e:	7142      	strb	r2, [r0, #5]
20000180:	6802      	ldr	r2, [r0, #0]
20000182:	f3bf 8f5f 	dmb	sy
20000186:	6013      	str	r3, [r2, #0]
20000188:	f381 8810 	msr	PRIMASK, r1
2000018c:	bd10      	pop	{r4, pc}
2000018e:	46c0      	nop			; (mov r8, r8)

20000190 <mutex_try_enter>:
20000190:	0003      	movs	r3, r0
20000192:	b510      	push	{r4, lr}
20000194:	6800      	ldr	r0, [r0, #0]
20000196:	f3ef 8410 	mrs	r4, PRIMASK
2000019a:	b672      	cpsid	i
2000019c:	6802      	ldr	r2, [r0, #0]
2000019e:	2a00      	cmp	r2, #0
200001a0:	d0fc      	beq.n	2000019c <mutex_try_enter+0xc>
200001a2:	f3bf 8f5f 	dmb	sy
200001a6:	791a      	ldrb	r2, [r3, #4]
200001a8:	2a00      	cmp	r2, #0
200001aa:	d00d      	beq.n	200001c8 <mutex_try_enter+0x38>
200001ac:	2900      	cmp	r1, #0
200001ae:	d013      	beq.n	200001d8 <mutex_try_enter+0x48>
200001b0:	2205      	movs	r2, #5
200001b2:	2000      	movs	r0, #0
200001b4:	569a      	ldrsb	r2, [r3, r2]
200001b6:	600a      	str	r2, [r1, #0]
200001b8:	681b      	ldr	r3, [r3, #0]
200001ba:	f3bf 8f5f 	dmb	sy
200001be:	2200      	movs	r2, #0
200001c0:	601a      	str	r2, [r3, #0]
200001c2:	f384 8810 	msr	PRIMASK, r4
200001c6:	bd10      	pop	{r4, pc}
200001c8:	3201      	adds	r2, #1
200001ca:	711a      	strb	r2, [r3, #4]
200001cc:	22d0      	movs	r2, #208	; 0xd0
200001ce:	0612      	lsls	r2, r2, #24
200001d0:	6812      	ldr	r2, [r2, #0]
200001d2:	2001      	movs	r0, #1
200001d4:	715a      	strb	r2, [r3, #5]
200001d6:	e7ef      	b.n	200001b8 <mutex_try_enter+0x28>
200001d8:	2000      	movs	r0, #0
200001da:	e7ed      	b.n	200001b8 <mutex_try_enter+0x28>

200001dc <mutex_exit>:
200001dc:	6802      	ldr	r2, [r0, #0]
200001de:	f3ef 8110 	mrs	r1, PRIMASK
200001e2:	b672      	cpsid	i
200001e4:	6813      	ldr	r3, [r2, #0]
200001e6:	2b00      	cmp	r3, #0
200001e8:	d0fc      	beq.n	200001e4 <mutex_exit+0x8>
200001ea:	f3bf 8f5f 	dmb	sy
200001ee:	2300      	movs	r3, #0
200001f0:	7103      	strb	r3, [r0, #4]
200001f2:	bf40      	sev
200001f4:	6802      	ldr	r2, [r0, #0]
200001f6:	f3bf 8f5f 	dmb	sy
200001fa:	6013      	str	r3, [r2, #0]
200001fc:	f381 8810 	msr	PRIMASK, r1
20000200:	4770      	bx	lr
20000202:	46c0      	nop			; (mov r8, r8)

20000204 <__aeabi_idiv0>:
20000204:	4770      	bx	lr
20000206:	46c0      	nop			; (mov r8, r8)

20000208 <string0>:
20000208:	f310 2000 012c 0000 0040 0000               ... ,...@...

20000214 <string1>:
20000214:	f43c 2000 0190 0000 0100 0000               <.. ........

20000220 <strings>:
20000220:	0208 2000 0214 2000                         ... ... 

20000228 <striped_spin_lock_num>:
20000228:	0010 0000                                   ....

2000022c <irq_handler_chain_slots>:
2000022c:	00000000 	.word	0x00000000
20000230:	00010000 	.word	0x00010000
	...
2000023c:	00020000 	.word	0x00020000
	...
20000248:	00030000 	.word	0x00030000
	...
20000254:	00ff0000 	.word	0x00ff0000
20000258:	00000000 	.word	0x00000000

2000025c <irq_handler_chain_first_slot>:
2000025c:	b500      	push	{lr}
2000025e:	6848      	ldr	r0, [r1, #4]
20000260:	3101      	adds	r1, #1
20000262:	468e      	mov	lr, r1
20000264:	4700      	bx	r0

20000266 <irq_handler_chain_remove_tail>:
20000266:	4670      	mov	r0, lr
20000268:	3809      	subs	r0, #9
2000026a:	4901      	ldr	r1, [pc, #4]	; (20000270 <irq_handler_chain_remove_tail+0xa>)
2000026c:	4788      	blx	r1
2000026e:	bd00      	pop	{pc}
20000270:	1000235d 	.word	0x1000235d
	...

20000280 <aeabi_bits_funcs>:
20000280:	00003350 	.word	0x00003350
20000284:	0000334c 	.word	0x0000334c
20000288:	00003354 	.word	0x00003354
2000028c:	00003352 	.word	0x00003352

20000290 <aeabi_bits_funcs_end>:
20000290:	0000534d 	.word	0x0000534d
20000294:	0000434d 	.word	0x0000434d
20000298:	00003453 	.word	0x00003453
2000029c:	00003443 	.word	0x00003443

200002a0 <stdio_uart>:
200002a0:	100029c5 00000000 10002a01 00000000     .).......*......
200002b0:	00000100                                ....

200002b4 <_impure_ptr>:
200002b4:	200002b8                                ... 

200002b8 <impure_data>:
200002b8:	00000000 200005a4 2000060c 20000674     ....... ... t.. 
	...
20000360:	00000001 00000000 abcd330e e66d1234     .........3..4.m.
20000370:	0005deec 0000000b 00000000 00000000     ................
	...

200006e0 <__malloc_av_>:
	...
200006e8:	200006e0 200006e0 200006e8 200006e8     ... ... ... ... 
200006f8:	200006f0 200006f0 200006f8 200006f8     ... ... ... ... 
20000708:	20000700 20000700 20000708 20000708     ... ... ... ... 
20000718:	20000710 20000710 20000718 20000718     ... ... ... ... 
20000728:	20000720 20000720 20000728 20000728      ..  .. (.. (.. 
20000738:	20000730 20000730 20000738 20000738     0.. 0.. 8.. 8.. 
20000748:	20000740 20000740 20000748 20000748     @.. @.. H.. H.. 
20000758:	20000750 20000750 20000758 20000758     P.. P.. X.. X.. 
20000768:	20000760 20000760 20000768 20000768     `.. `.. h.. h.. 
20000778:	20000770 20000770 20000778 20000778     p.. p.. x.. x.. 
20000788:	20000780 20000780 20000788 20000788     ... ... ... ... 
20000798:	20000790 20000790 20000798 20000798     ... ... ... ... 
200007a8:	200007a0 200007a0 200007a8 200007a8     ... ... ... ... 
200007b8:	200007b0 200007b0 200007b8 200007b8     ... ... ... ... 
200007c8:	200007c0 200007c0 200007c8 200007c8     ... ... ... ... 
200007d8:	200007d0 200007d0 200007d8 200007d8     ... ... ... ... 
200007e8:	200007e0 200007e0 200007e8 200007e8     ... ... ... ... 
200007f8:	200007f0 200007f0 200007f8 200007f8     ... ... ... ... 
20000808:	20000800 20000800 20000808 20000808     ... ... ... ... 
20000818:	20000810 20000810 20000818 20000818     ... ... ... ... 
20000828:	20000820 20000820 20000828 20000828      ..  .. (.. (.. 
20000838:	20000830 20000830 20000838 20000838     0.. 0.. 8.. 8.. 
20000848:	20000840 20000840 20000848 20000848     @.. @.. H.. H.. 
20000858:	20000850 20000850 20000858 20000858     P.. P.. X.. X.. 
20000868:	20000860 20000860 20000868 20000868     `.. `.. h.. h.. 
20000878:	20000870 20000870 20000878 20000878     p.. p.. x.. x.. 
20000888:	20000880 20000880 20000888 20000888     ... ... ... ... 
20000898:	20000890 20000890 20000898 20000898     ... ... ... ... 
200008a8:	200008a0 200008a0 200008a8 200008a8     ... ... ... ... 
200008b8:	200008b0 200008b0 200008b8 200008b8     ... ... ... ... 
200008c8:	200008c0 200008c0 200008c8 200008c8     ... ... ... ... 
200008d8:	200008d0 200008d0 200008d8 200008d8     ... ... ... ... 
200008e8:	200008e0 200008e0 200008e8 200008e8     ... ... ... ... 
200008f8:	200008f0 200008f0 200008f8 200008f8     ... ... ... ... 
20000908:	20000900 20000900 20000908 20000908     ... ... ... ... 
20000918:	20000910 20000910 20000918 20000918     ... ... ... ... 
20000928:	20000920 20000920 20000928 20000928      ..  .. (.. (.. 
20000938:	20000930 20000930 20000938 20000938     0.. 0.. 8.. 8.. 
20000948:	20000940 20000940 20000948 20000948     @.. @.. H.. H.. 
20000958:	20000950 20000950 20000958 20000958     P.. P.. X.. X.. 
20000968:	20000960 20000960 20000968 20000968     `.. `.. h.. h.. 
20000978:	20000970 20000970 20000978 20000978     p.. p.. x.. x.. 
20000988:	20000980 20000980 20000988 20000988     ... ... ... ... 
20000998:	20000990 20000990 20000998 20000998     ... ... ... ... 
200009a8:	200009a0 200009a0 200009a8 200009a8     ... ... ... ... 
200009b8:	200009b0 200009b0 200009b8 200009b8     ... ... ... ... 
200009c8:	200009c0 200009c0 200009c8 200009c8     ... ... ... ... 
200009d8:	200009d0 200009d0 200009d8 200009d8     ... ... ... ... 
200009e8:	200009e0 200009e0 200009e8 200009e8     ... ... ... ... 
200009f8:	200009f0 200009f0 200009f8 200009f8     ... ... ... ... 
20000a08:	20000a00 20000a00 20000a08 20000a08     ... ... ... ... 
20000a18:	20000a10 20000a10 20000a18 20000a18     ... ... ... ... 
20000a28:	20000a20 20000a20 20000a28 20000a28      ..  .. (.. (.. 
20000a38:	20000a30 20000a30 20000a38 20000a38     0.. 0.. 8.. 8.. 
20000a48:	20000a40 20000a40 20000a48 20000a48     @.. @.. H.. H.. 
20000a58:	20000a50 20000a50 20000a58 20000a58     P.. P.. X.. X.. 
20000a68:	20000a60 20000a60 20000a68 20000a68     `.. `.. h.. h.. 
20000a78:	20000a70 20000a70 20000a78 20000a78     p.. p.. x.. x.. 
20000a88:	20000a80 20000a80 20000a88 20000a88     ... ... ... ... 
20000a98:	20000a90 20000a90 20000a98 20000a98     ... ... ... ... 
20000aa8:	20000aa0 20000aa0 20000aa8 20000aa8     ... ... ... ... 
20000ab8:	20000ab0 20000ab0 20000ab8 20000ab8     ... ... ... ... 
20000ac8:	20000ac0 20000ac0 20000ac8 20000ac8     ... ... ... ... 
20000ad8:	20000ad0 20000ad0 20000ad8 20000ad8     ... ... ... ... 

20000ae8 <__malloc_sbrk_base>:
20000ae8:	ffffffff                                ....

20000aec <__malloc_trim_threshold>:
20000aec:	00020000                                ....

20000af0 <print_mutex>:
	...

20000af8 <__mutex_array_end>:
20000af8:	1000277d 	.word	0x1000277d
20000afc:	10002491 	.word	0x10002491
20000b00:	10002551 	.word	0x10002551
20000b04:	100026dd 	.word	0x100026dd

20000b08 <__frame_dummy_init_array_entry>:
20000b08:	10000301                                ....
