
uart_advanced.elf:     file format elf32-littlearm

Sections:
Idx Name          Size      VMA       LMA       File off  Algn
  0 .boot2        00000100  10000000  10000000  00010000  2**0
                  CONTENTS, ALLOC, LOAD, READONLY, DATA
  1 .text         00002598  10000100  10000100  00010100  2**3
                  CONTENTS, ALLOC, LOAD, READONLY, CODE
  2 .rodata       000000f8  10002698  10002698  00012698  2**2
                  CONTENTS, ALLOC, LOAD, READONLY, DATA
  3 .binary_info  0000001c  10002790  10002790  00012790  2**2
                  CONTENTS, ALLOC, LOAD, DATA
  4 .ram_vector_table 000000c0  20000000  20000000  00020a5c  2**2
                  CONTENTS
  5 .data         0000099c  200000c0  100027ac  000200c0  2**4
                  CONTENTS, ALLOC, LOAD, CODE
  6 .uninitialized_data 00000000  20000a5c  20000a5c  00020b1c  2**0
                  CONTENTS
  7 .scratch_x    00000000  20040000  20040000  00020b1c  2**0
                  CONTENTS
  8 .scratch_y    00000000  20041000  20041000  00020b1c  2**0
                  CONTENTS
  9 .bss          000002f4  20000a5c  20000a5c  00020a5c  2**2
                  ALLOC
 10 .heap         00000800  20000d50  20000d50  00020b1c  2**2
                  CONTENTS, READONLY
 11 .stack_dummy  00000800  20041000  20041000  00021320  2**5
                  CONTENTS, READONLY
 12 .ARM.attributes 00000028  00000000  00000000  00021b20  2**0
                  CONTENTS, READONLY
 13 .comment      00000079  00000000  00000000  00021b48  2**0
                  CONTENTS, READONLY
 14 .debug_frame  000002ac  00000000  00000000  00021bc4  2**2
                  CONTENTS, READONLY, DEBUGGING

uart_advanced.elf:     file format elf32-littlearm


Disassembly of section .text:

10000100 <__reset_start>:
10000100:	4827      	ldr	r0, [pc, #156]	; (100001a0 <__get_current_exception+0xa>)
10000102:	e000      	b.n	10000106 <__vector_entry>

10000104 <_entry_point>:
10000104:	2000      	movs	r0, #0

10000106 <__vector_entry>:
10000106:	4927      	ldr	r1, [pc, #156]	; (100001a4 <__get_current_exception+0xe>)
10000108:	6088      	str	r0, [r1, #8]
1000010a:	c806      	ldmia	r0!, {r1, r2}
1000010c:	f381 8808 	msr	MSP, r1
10000110:	4710      	bx	r2

10000112 <_reset_handler>:
10000112:	4825      	ldr	r0, [pc, #148]	; (100001a8 <__get_current_exception+0x12>)
10000114:	6800      	ldr	r0, [r0, #0]
10000116:	2800      	cmp	r0, #0
10000118:	d139      	bne.n	1000018e <wait_for_vector>
1000011a:	a412      	add	r4, pc, #72	; (adr r4, 10000164 <data_cpy_table>)
1000011c:	cc0e      	ldmia	r4!, {r1, r2, r3}
1000011e:	2900      	cmp	r1, #0
10000120:	d002      	beq.n	10000128 <_reset_handler+0x16>
10000122:	f000 f812 	bl	1000014a <data_cpy>
10000126:	e7f9      	b.n	1000011c <_reset_handler+0xa>
10000128:	4920      	ldr	r1, [pc, #128]	; (100001ac <__get_current_exception+0x16>)
1000012a:	4a21      	ldr	r2, [pc, #132]	; (100001b0 <__get_current_exception+0x1a>)
1000012c:	2000      	movs	r0, #0
1000012e:	e000      	b.n	10000132 <bss_fill_test>

10000130 <bss_fill_loop>:
10000130:	c101      	stmia	r1!, {r0}

10000132 <bss_fill_test>:
10000132:	4291      	cmp	r1, r2
10000134:	d1fc      	bne.n	10000130 <bss_fill_loop>

10000136 <platform_entry>:
10000136:	491f      	ldr	r1, [pc, #124]	; (100001b4 <__get_current_exception+0x1e>)
10000138:	4788      	blx	r1
1000013a:	491f      	ldr	r1, [pc, #124]	; (100001b8 <__get_current_exception+0x22>)
1000013c:	4788      	blx	r1
1000013e:	491f      	ldr	r1, [pc, #124]	; (100001bc <__get_current_exception+0x26>)
10000140:	4788      	blx	r1
10000142:	be00      	bkpt	0x0000
10000144:	e7fd      	b.n	10000142 <platform_entry+0xc>

10000146 <data_cpy_loop>:
10000146:	c901      	ldmia	r1!, {r0}
10000148:	c201      	stmia	r2!, {r0}

1000014a <data_cpy>:
1000014a:	429a      	cmp	r2, r3
1000014c:	d3fb      	bcc.n	10000146 <data_cpy_loop>
1000014e:	4770      	bx	lr

10000150 <binary_info_header>:
10000150:	7188ebf2 	.word	0x7188ebf2
10000154:	10002790 	.word	0x10002790
10000158:	100027ac 	.word	0x100027ac
1000015c:	10000164 	.word	0x10000164
10000160:	e71aa390 	.word	0xe71aa390

10000164 <data_cpy_table>:
10000164:	100027ac 	.word	0x100027ac
10000168:	200000c0 	.word	0x200000c0
1000016c:	20000a5c 	.word	0x20000a5c
10000170:	10003148 	.word	0x10003148
10000174:	20040000 	.word	0x20040000
10000178:	20040000 	.word	0x20040000
1000017c:	10003148 	.word	0x10003148
10000180:	20041000 	.word	0x20041000
10000184:	20041000 	.word	0x20041000
10000188:	00000000 	.word	0x00000000
1000018c:	4770      	bx	lr

1000018e <wait_for_vector>:
1000018e:	480c      	ldr	r0, [pc, #48]	; (100001c0 <__get_current_exception+0x2a>)
10000190:	f001 fbc2 	bl	10001918 <rom_func_lookup>
10000194:	4700      	bx	r0

10000196 <__get_current_exception>:
10000196:	f3ef 8005 	mrs	r0, IPSR
1000019a:	b2c0      	uxtb	r0, r0
1000019c:	4770      	bx	lr
1000019e:	0000      	.short	0x0000
100001a0:	10000200 	.word	0x10000200
100001a4:	e000ed00 	.word	0xe000ed00
100001a8:	d0000000 	.word	0xd0000000
100001ac:	20000a5c 	.word	0x20000a5c
100001b0:	20000d50 	.word	0x20000d50
100001b4:	100010b1 	.word	0x100010b1
100001b8:	10000385 	.word	0x10000385
100001bc:	100011d1 	.word	0x100011d1
100001c0:	00005657 	.word	0x00005657

100001c4 <__bi_46>:
100001c4:	50520006 5360b3ab 1000274c              ..RP..`SL'..

100001d0 <__bi_34>:
100001d0:	50520006 02031c86 1000273c              ..RP....<'..

100001dc <__bi_26>:
100001dc:	50520006 9da22254 1000275c              ..RPT"..\'..

100001e8 <__bi_18>:
100001e8:	50520005 68f465de 10003148 00000000     ..RP.e.hH1......
	...

10000200 <__reset_end>:
10000200:	20042000 	.word	0x20042000
10000204:	10000113 	.word	0x10000113
10000208:	100002c3 	.word	0x100002c3
1000020c:	100002c5 	.word	0x100002c5
10000210:	100002c1 	.word	0x100002c1
10000214:	100002c1 	.word	0x100002c1
10000218:	100002c1 	.word	0x100002c1
1000021c:	100002c1 	.word	0x100002c1
10000220:	100002c1 	.word	0x100002c1
10000224:	100002c1 	.word	0x100002c1
10000228:	100002c1 	.word	0x100002c1
1000022c:	100002c7 	.word	0x100002c7
10000230:	100002c1 	.word	0x100002c1
10000234:	100002c1 	.word	0x100002c1
10000238:	100002c9 	.word	0x100002c9
1000023c:	100002cb 	.word	0x100002cb
10000240:	100002cd 	.word	0x100002cd
10000244:	100002cd 	.word	0x100002cd
10000248:	100002cd 	.word	0x100002cd
1000024c:	100002cd 	.word	0x100002cd
10000250:	100002cd 	.word	0x100002cd
10000254:	100002cd 	.word	0x100002cd
10000258:	100002cd 	.word	0x100002cd
1000025c:	100002cd 	.word	0x100002cd
10000260:	100002cd 	.word	0x100002cd
10000264:	100002cd 	.word	0x100002cd
10000268:	100002cd 	.word	0x100002cd
1000026c:	100002cd 	.word	0x100002cd
10000270:	100002cd 	.word	0x100002cd
10000274:	100002cd 	.word	0x100002cd
10000278:	100002cd 	.word	0x100002cd
1000027c:	100002cd 	.word	0x100002cd
10000280:	100002cd 	.word	0x100002cd
10000284:	100002cd 	.word	0x100002cd
10000288:	100002cd 	.word	0x100002cd
1000028c:	100002cd 	.word	0x100002cd
10000290:	100002cd 	.word	0x100002cd
10000294:	100002cd 	.word	0x100002cd
10000298:	100002cd 	.word	0x100002cd
1000029c:	100002cd 	.word	0x100002cd
100002a0:	100002cd 	.word	0x100002cd
100002a4:	100002cd 	.word	0x100002cd
100002a8:	100002cd 	.word	0x100002cd
100002ac:	100002cd 	.word	0x100002cd
100002b0:	100002cd 	.word	0x100002cd
100002b4:	100002cd 	.word	0x100002cd
100002b8:	100002cd 	.word	0x100002cd
100002bc:	100002cd 	.word	0x100002cd

100002c0 <isr_invalid>:
100002c0:	be00      	bkpt	0x0000

100002c2 <isr_nmi>:
100002c2:	be00      	bkpt	0x0000

100002c4 <isr_hardfault>:
100002c4:	be00      	bkpt	0x0000

100002c6 <isr_svcall>:
100002c6:	be00      	bkpt	0x0000

100002c8 <isr_pendsv>:
100002c8:	be00      	bkpt	0x0000

100002ca <isr_systick>:
100002ca:	be00      	bkpt	0x0000

100002cc <__unhandled_user_irq>:
100002cc:	f7ff ff63 	bl	10000196 <__get_current_exception>
100002d0:	3810      	subs	r0, #16

100002d2 <unhandled_user_irq_num_in_r0>:
100002d2:	be00      	bkpt	0x0000

100002d4 <_init>:
100002d4:	b5f8      	push	{r3, r4, r5, r6, r7, lr}
100002d6:	46c0      	nop			; (mov r8, r8)

100002d8 <__do_global_dtors_aux>:
100002d8:	b510      	push	{r4, lr}
100002da:	4c06      	ldr	r4, [pc, #24]	; (100002f4 <__do_global_dtors_aux+0x1c>)
100002dc:	7823      	ldrb	r3, [r4, #0]
100002de:	2b00      	cmp	r3, #0
100002e0:	d107      	bne.n	100002f2 <__do_global_dtors_aux+0x1a>
100002e2:	4b05      	ldr	r3, [pc, #20]	; (100002f8 <__do_global_dtors_aux+0x20>)
100002e4:	2b00      	cmp	r3, #0
100002e6:	d002      	beq.n	100002ee <__do_global_dtors_aux+0x16>
100002e8:	4804      	ldr	r0, [pc, #16]	; (100002fc <__do_global_dtors_aux+0x24>)
100002ea:	e000      	b.n	100002ee <__do_global_dtors_aux+0x16>
100002ec:	bf00      	nop
100002ee:	2301      	movs	r3, #1
100002f0:	7023      	strb	r3, [r4, #0]
100002f2:	bd10      	pop	{r4, pc}
100002f4:	20000a5c 	.word	0x20000a5c
100002f8:	00000000 	.word	0x00000000
100002fc:	10002698 	.word	0x10002698

10000300 <frame_dummy>:
10000300:	4b04      	ldr	r3, [pc, #16]	; (10000314 <frame_dummy+0x14>)
10000302:	b510      	push	{r4, lr}
10000304:	2b00      	cmp	r3, #0
10000306:	d003      	beq.n	10000310 <frame_dummy+0x10>
10000308:	4903      	ldr	r1, [pc, #12]	; (10000318 <frame_dummy+0x18>)
1000030a:	4804      	ldr	r0, [pc, #16]	; (1000031c <frame_dummy+0x1c>)
1000030c:	e000      	b.n	10000310 <frame_dummy+0x10>
1000030e:	bf00      	nop
10000310:	bd10      	pop	{r4, pc}
10000312:	46c0      	nop			; (mov r8, r8)
10000314:	00000000 	.word	0x00000000
10000318:	20000a60 	.word	0x20000a60
1000031c:	10002698 	.word	0x10002698

10000320 <on_uart_rx>:
10000320:	4a15      	ldr	r2, [pc, #84]	; (10000378 <on_uart_rx+0x58>)
10000322:	b5f0      	push	{r4, r5, r6, r7, lr}
10000324:	6993      	ldr	r3, [r2, #24]
10000326:	06db      	lsls	r3, r3, #27
10000328:	d416      	bmi.n	10000358 <on_uart_rx+0x38>
1000032a:	4b14      	ldr	r3, [pc, #80]	; (1000037c <on_uart_rx+0x5c>)
1000032c:	4f14      	ldr	r7, [pc, #80]	; (10000380 <on_uart_rx+0x60>)
1000032e:	2600      	movs	r6, #0
10000330:	5f9e      	ldrsh	r6, [r3, r6]
10000332:	683b      	ldr	r3, [r7, #0]
10000334:	2110      	movs	r1, #16
10000336:	1c5c      	adds	r4, r3, #1
10000338:	230d      	movs	r3, #13
1000033a:	2020      	movs	r0, #32
1000033c:	469c      	mov	ip, r3
1000033e:	6993      	ldr	r3, [r2, #24]
10000340:	4219      	tst	r1, r3
10000342:	d1fc      	bne.n	1000033e <on_uart_rx+0x1e>
10000344:	6813      	ldr	r3, [r2, #0]
10000346:	6995      	ldr	r5, [r2, #24]
10000348:	4228      	tst	r0, r5
1000034a:	d006      	beq.n	1000035a <on_uart_rx+0x3a>
1000034c:	6993      	ldr	r3, [r2, #24]
1000034e:	0025      	movs	r5, r4
10000350:	3401      	adds	r4, #1
10000352:	4219      	tst	r1, r3
10000354:	d0f3      	beq.n	1000033e <on_uart_rx+0x1e>
10000356:	603d      	str	r5, [r7, #0]
10000358:	bdf0      	pop	{r4, r5, r6, r7, pc}
1000035a:	3301      	adds	r3, #1
1000035c:	b2dd      	uxtb	r5, r3
1000035e:	42ae      	cmp	r6, r5
10000360:	d004      	beq.n	1000036c <on_uart_rx+0x4c>
10000362:	6993      	ldr	r3, [r2, #24]
10000364:	4218      	tst	r0, r3
10000366:	d1fc      	bne.n	10000362 <on_uart_rx+0x42>
10000368:	6015      	str	r5, [r2, #0]
1000036a:	e7ef      	b.n	1000034c <on_uart_rx+0x2c>
1000036c:	6993      	ldr	r3, [r2, #24]
1000036e:	4218      	tst	r0, r3
10000370:	d1fc      	bne.n	1000036c <on_uart_rx+0x4c>
10000372:	4663      	mov	r3, ip
10000374:	6013      	str	r3, [r2, #0]
10000376:	e7f4      	b.n	10000362 <on_uart_rx+0x42>
10000378:	40034000 	.word	0x40034000
1000037c:	20000b20 	.word	0x20000b20
10000380:	20000abc 	.word	0x20000abc

10000384 <main>:
10000384:	2196      	movs	r1, #150	; 0x96
10000386:	b570      	push	{r4, r5, r6, lr}
10000388:	4c2b      	ldr	r4, [pc, #172]	; (10000438 <main+0xb4>)
1000038a:	0109      	lsls	r1, r1, #4
1000038c:	0020      	movs	r0, r4
1000038e:	f000 f8cb 	bl	10000528 <uart_init>
10000392:	2102      	movs	r1, #2
10000394:	2000      	movs	r0, #0
10000396:	f000 f85d 	bl	10000454 <gpio_set_function>
1000039a:	2102      	movs	r1, #2
1000039c:	2001      	movs	r0, #1
1000039e:	f000 f859 	bl	10000454 <gpio_set_function>
100003a2:	21e1      	movs	r1, #225	; 0xe1
100003a4:	0020      	movs	r0, r4
100003a6:	0249      	lsls	r1, r1, #9
100003a8:	f000 f92a 	bl	10000600 <uart_set_baudrate>
100003ac:	22c0      	movs	r2, #192	; 0xc0
100003ae:	6b23      	ldr	r3, [r4, #48]	; 0x30
100003b0:	0212      	lsls	r2, r2, #8
100003b2:	4013      	ands	r3, r2
100003b4:	4a21      	ldr	r2, [pc, #132]	; (1000043c <main+0xb8>)
100003b6:	2510      	movs	r5, #16
100003b8:	6013      	str	r3, [r2, #0]
100003ba:	2260      	movs	r2, #96	; 0x60
100003bc:	6ae3      	ldr	r3, [r4, #44]	; 0x2c
100003be:	2014      	movs	r0, #20
100003c0:	405a      	eors	r2, r3
100003c2:	236e      	movs	r3, #110	; 0x6e
100003c4:	4013      	ands	r3, r2
100003c6:	4a1e      	ldr	r2, [pc, #120]	; (10000440 <main+0xbc>)
100003c8:	491e      	ldr	r1, [pc, #120]	; (10000444 <main+0xc0>)
100003ca:	6013      	str	r3, [r2, #0]
100003cc:	6ae3      	ldr	r3, [r4, #44]	; 0x2c
100003ce:	402b      	ands	r3, r5
100003d0:	6013      	str	r3, [r2, #0]
100003d2:	f001 f8f3 	bl	100015bc <irq_set_exclusive_handler>
100003d6:	2101      	movs	r1, #1
100003d8:	2014      	movs	r0, #20
100003da:	f001 f8d5 	bl	10001588 <irq_set_enabled>
100003de:	2338      	movs	r3, #56	; 0x38
100003e0:	63a5      	str	r5, [r4, #56]	; 0x38
100003e2:	6b62      	ldr	r2, [r4, #52]	; 0x34
100003e4:	200a      	movs	r0, #10
100003e6:	4013      	ands	r3, r2
100003e8:	4a17      	ldr	r2, [pc, #92]	; (10000448 <main+0xc4>)
100003ea:	2120      	movs	r1, #32
100003ec:	6013      	str	r3, [r2, #0]
100003ee:	4b17      	ldr	r3, [pc, #92]	; (1000044c <main+0xc8>)
100003f0:	2200      	movs	r2, #0
100003f2:	2600      	movs	r6, #0
100003f4:	5f9e      	ldrsh	r6, [r3, r6]
100003f6:	0023      	movs	r3, r4
100003f8:	240d      	movs	r4, #13
100003fa:	4d15      	ldr	r5, [pc, #84]	; (10000450 <main+0xcc>)
100003fc:	2a00      	cmp	r2, #0
100003fe:	d10f      	bne.n	10000420 <main+0x9c>
10000400:	4286      	cmp	r6, r0
10000402:	d014      	beq.n	1000042e <main+0xaa>
10000404:	699a      	ldr	r2, [r3, #24]
10000406:	4211      	tst	r1, r2
10000408:	d1fc      	bne.n	10000404 <main+0x80>
1000040a:	6018      	str	r0, [r3, #0]
1000040c:	782a      	ldrb	r2, [r5, #0]
1000040e:	3501      	adds	r5, #1
10000410:	3a0d      	subs	r2, #13
10000412:	4250      	negs	r0, r2
10000414:	4142      	adcs	r2, r0
10000416:	7828      	ldrb	r0, [r5, #0]
10000418:	b2d2      	uxtb	r2, r2
1000041a:	2800      	cmp	r0, #0
1000041c:	d1ee      	bne.n	100003fc <main+0x78>
1000041e:	e7fe      	b.n	1000041e <main+0x9a>
10000420:	699a      	ldr	r2, [r3, #24]
10000422:	4211      	tst	r1, r2
10000424:	d0f1      	beq.n	1000040a <main+0x86>
10000426:	699a      	ldr	r2, [r3, #24]
10000428:	4211      	tst	r1, r2
1000042a:	d1f9      	bne.n	10000420 <main+0x9c>
1000042c:	e7ed      	b.n	1000040a <main+0x86>
1000042e:	699a      	ldr	r2, [r3, #24]
10000430:	4211      	tst	r1, r2
10000432:	d1fc      	bne.n	1000042e <main+0xaa>
10000434:	601c      	str	r4, [r3, #0]
10000436:	e7e5      	b.n	10000404 <main+0x80>
10000438:	40034000 	.word	0x40034000
1000043c:	40035030 	.word	0x40035030
10000440:	4003502c 	.word	0x4003502c
10000444:	10000321 	.word	0x10000321
10000448:	40035034 	.word	0x40035034
1000044c:	20000b20 	.word	0x20000b20
10000450:	10002698 	.word	0x10002698

10000454 <gpio_set_function>:
10000454:	4a09      	ldr	r2, [pc, #36]	; (1000047c <gpio_set_function+0x28>)
10000456:	0083      	lsls	r3, r0, #2
10000458:	4694      	mov	ip, r2
1000045a:	2240      	movs	r2, #64	; 0x40
1000045c:	4463      	add	r3, ip
1000045e:	b510      	push	{r4, lr}
10000460:	681c      	ldr	r4, [r3, #0]
10000462:	00c0      	lsls	r0, r0, #3
10000464:	4062      	eors	r2, r4
10000466:	24c0      	movs	r4, #192	; 0xc0
10000468:	4014      	ands	r4, r2
1000046a:	2280      	movs	r2, #128	; 0x80
1000046c:	0152      	lsls	r2, r2, #5
1000046e:	4313      	orrs	r3, r2
10000470:	601c      	str	r4, [r3, #0]
10000472:	4b03      	ldr	r3, [pc, #12]	; (10000480 <gpio_set_function+0x2c>)
10000474:	469c      	mov	ip, r3
10000476:	4460      	add	r0, ip
10000478:	6041      	str	r1, [r0, #4]
1000047a:	bd10      	pop	{r4, pc}
1000047c:	4001c004 	.word	0x4001c004
10000480:	40014000 	.word	0x40014000

10000484 <hw_claim_or_assert>:
10000484:	b5f8      	push	{r3, r4, r5, r6, r7, lr}
10000486:	46ce      	mov	lr, r9
10000488:	4647      	mov	r7, r8
1000048a:	4691      	mov	r9, r2
1000048c:	b580      	push	{r7, lr}
1000048e:	f3ef 8710 	mrs	r7, PRIMASK
10000492:	b672      	cpsid	i
10000494:	4e12      	ldr	r6, [pc, #72]	; (100004e0 <hw_claim_or_assert+0x5c>)
10000496:	6833      	ldr	r3, [r6, #0]
10000498:	2b00      	cmp	r3, #0
1000049a:	d0fc      	beq.n	10000496 <hw_claim_or_assert+0x12>
1000049c:	f3bf 8f5f 	dmb	sy
100004a0:	08cb      	lsrs	r3, r1, #3
100004a2:	5cc5      	ldrb	r5, [r0, r3]
100004a4:	2407      	movs	r4, #7
100004a6:	18c2      	adds	r2, r0, r3
100004a8:	0028      	movs	r0, r5
100004aa:	2301      	movs	r3, #1
100004ac:	400c      	ands	r4, r1
100004ae:	4694      	mov	ip, r2
100004b0:	40e0      	lsrs	r0, r4
100004b2:	001a      	movs	r2, r3
100004b4:	4002      	ands	r2, r0
100004b6:	4690      	mov	r8, r2
100004b8:	4203      	tst	r3, r0
100004ba:	d10d      	bne.n	100004d8 <hw_claim_or_assert+0x54>
100004bc:	40a3      	lsls	r3, r4
100004be:	4662      	mov	r2, ip
100004c0:	432b      	orrs	r3, r5
100004c2:	7013      	strb	r3, [r2, #0]
100004c4:	f3bf 8f5f 	dmb	sy
100004c8:	4643      	mov	r3, r8
100004ca:	6033      	str	r3, [r6, #0]
100004cc:	f387 8810 	msr	PRIMASK, r7
100004d0:	bc0c      	pop	{r2, r3}
100004d2:	4690      	mov	r8, r2
100004d4:	4699      	mov	r9, r3
100004d6:	bdf8      	pop	{r3, r4, r5, r6, r7, pc}
100004d8:	4648      	mov	r0, r9
100004da:	f000 fe7b 	bl	100011d4 <panic>
100004de:	46c0      	nop			; (mov r8, r8)
100004e0:	d000012c 	.word	0xd000012c

100004e4 <spin_locks_reset>:
100004e4:	2100      	movs	r1, #0
100004e6:	4b04      	ldr	r3, [pc, #16]	; (100004f8 <spin_locks_reset+0x14>)
100004e8:	4a04      	ldr	r2, [pc, #16]	; (100004fc <spin_locks_reset+0x18>)
100004ea:	f3bf 8f5f 	dmb	sy
100004ee:	c302      	stmia	r3!, {r1}
100004f0:	4293      	cmp	r3, r2
100004f2:	d1fa      	bne.n	100004ea <spin_locks_reset+0x6>
100004f4:	4770      	bx	lr
100004f6:	46c0      	nop			; (mov r8, r8)
100004f8:	d0000100 	.word	0xd0000100
100004fc:	d0000180 	.word	0xd0000180

10000500 <next_striped_spin_lock_num>:
10000500:	4a04      	ldr	r2, [pc, #16]	; (10000514 <next_striped_spin_lock_num+0x14>)
10000502:	7810      	ldrb	r0, [r2, #0]
10000504:	1c43      	adds	r3, r0, #1
10000506:	b2db      	uxtb	r3, r3
10000508:	2b17      	cmp	r3, #23
1000050a:	d900      	bls.n	1000050e <next_striped_spin_lock_num+0xe>
1000050c:	2310      	movs	r3, #16
1000050e:	7013      	strb	r3, [r2, #0]
10000510:	4770      	bx	lr
10000512:	46c0      	nop			; (mov r8, r8)
10000514:	20000188 	.word	0x20000188

10000518 <running_on_fpga>:
10000518:	4b02      	ldr	r3, [pc, #8]	; (10000524 <running_on_fpga+0xc>)
1000051a:	6818      	ldr	r0, [r3, #0]
1000051c:	0780      	lsls	r0, r0, #30
1000051e:	0fc0      	lsrs	r0, r0, #31
10000520:	4770      	bx	lr
10000522:	46c0      	nop			; (mov r8, r8)
10000524:	4006c000 	.word	0x4006c000

10000528 <uart_init>:
10000528:	b5f0      	push	{r4, r5, r6, r7, lr}
1000052a:	46c6      	mov	lr, r8
1000052c:	0005      	movs	r5, r0
1000052e:	b500      	push	{lr}
10000530:	2006      	movs	r0, #6
10000532:	000e      	movs	r6, r1
10000534:	f000 ffdc 	bl	100014f0 <clock_get_hz>
10000538:	2800      	cmp	r0, #0
1000053a:	d04d      	beq.n	100005d8 <uart_init+0xb0>
1000053c:	4b29      	ldr	r3, [pc, #164]	; (100005e4 <uart_init+0xbc>)
1000053e:	492a      	ldr	r1, [pc, #168]	; (100005e8 <uart_init+0xc0>)
10000540:	18eb      	adds	r3, r5, r3
10000542:	425a      	negs	r2, r3
10000544:	4153      	adcs	r3, r2
10000546:	2280      	movs	r2, #128	; 0x80
10000548:	03d2      	lsls	r2, r2, #15
1000054a:	4694      	mov	ip, r2
1000054c:	425b      	negs	r3, r3
1000054e:	4013      	ands	r3, r2
10000550:	4a26      	ldr	r2, [pc, #152]	; (100005ec <uart_init+0xc4>)
10000552:	4463      	add	r3, ip
10000554:	6013      	str	r3, [r2, #0]
10000556:	4a26      	ldr	r2, [pc, #152]	; (100005f0 <uart_init+0xc8>)
10000558:	6013      	str	r3, [r2, #0]
1000055a:	001c      	movs	r4, r3
1000055c:	688a      	ldr	r2, [r1, #8]
1000055e:	4394      	bics	r4, r2
10000560:	d1fb      	bne.n	1000055a <uart_init+0x32>
10000562:	4b20      	ldr	r3, [pc, #128]	; (100005e4 <uart_init+0xbc>)
10000564:	2180      	movs	r1, #128	; 0x80
10000566:	18eb      	adds	r3, r5, r3
10000568:	425a      	negs	r2, r3
1000056a:	4153      	adcs	r3, r2
1000056c:	4a21      	ldr	r2, [pc, #132]	; (100005f4 <uart_init+0xcc>)
1000056e:	005b      	lsls	r3, r3, #1
10000570:	0049      	lsls	r1, r1, #1
10000572:	2006      	movs	r0, #6
10000574:	5299      	strh	r1, [r3, r2]
10000576:	f000 ffbb 	bl	100014f0 <clock_get_hz>
1000057a:	0031      	movs	r1, r6
1000057c:	00c0      	lsls	r0, r0, #3
1000057e:	f001 f9f9 	bl	10001974 <__wrap___aeabi_uidiv>
10000582:	267f      	movs	r6, #127	; 0x7f
10000584:	4b1c      	ldr	r3, [pc, #112]	; (100005f8 <uart_init+0xd0>)
10000586:	4006      	ands	r6, r0
10000588:	09c7      	lsrs	r7, r0, #7
1000058a:	3601      	adds	r6, #1
1000058c:	0876      	lsrs	r6, r6, #1
1000058e:	626f      	str	r7, [r5, #36]	; 0x24
10000590:	429f      	cmp	r7, r3
10000592:	d024      	beq.n	100005de <uart_init+0xb6>
10000594:	62ae      	str	r6, [r5, #40]	; 0x28
10000596:	232c      	movs	r3, #44	; 0x2c
10000598:	4698      	mov	r8, r3
1000059a:	2480      	movs	r4, #128	; 0x80
1000059c:	44a8      	add	r8, r5
1000059e:	4643      	mov	r3, r8
100005a0:	01a4      	lsls	r4, r4, #6
100005a2:	431c      	orrs	r4, r3
100005a4:	2300      	movs	r3, #0
100005a6:	2006      	movs	r0, #6
100005a8:	6023      	str	r3, [r4, #0]
100005aa:	f000 ffa1 	bl	100014f0 <clock_get_hz>
100005ae:	01b9      	lsls	r1, r7, #6
100005b0:	1989      	adds	r1, r1, r6
100005b2:	0080      	lsls	r0, r0, #2
100005b4:	f001 f9de 	bl	10001974 <__wrap___aeabi_uidiv>
100005b8:	2360      	movs	r3, #96	; 0x60
100005ba:	6aea      	ldr	r2, [r5, #44]	; 0x2c
100005bc:	4641      	mov	r1, r8
100005be:	4053      	eors	r3, r2
100005c0:	226e      	movs	r2, #110	; 0x6e
100005c2:	401a      	ands	r2, r3
100005c4:	2380      	movs	r3, #128	; 0x80
100005c6:	015b      	lsls	r3, r3, #5
100005c8:	430b      	orrs	r3, r1
100005ca:	601a      	str	r2, [r3, #0]
100005cc:	4b0b      	ldr	r3, [pc, #44]	; (100005fc <uart_init+0xd4>)
100005ce:	632b      	str	r3, [r5, #48]	; 0x30
100005d0:	2310      	movs	r3, #16
100005d2:	6023      	str	r3, [r4, #0]
100005d4:	3b0d      	subs	r3, #13
100005d6:	64ab      	str	r3, [r5, #72]	; 0x48
100005d8:	bc04      	pop	{r2}
100005da:	4690      	mov	r8, r2
100005dc:	bdf0      	pop	{r4, r5, r6, r7, pc}
100005de:	62ac      	str	r4, [r5, #40]	; 0x28
100005e0:	e7d9      	b.n	10000596 <uart_init+0x6e>
100005e2:	46c0      	nop			; (mov r8, r8)
100005e4:	bffc8000 	.word	0xbffc8000
100005e8:	4000c000 	.word	0x4000c000
100005ec:	4000e000 	.word	0x4000e000
100005f0:	4000f000 	.word	0x4000f000
100005f4:	20000b20 	.word	0x20000b20
100005f8:	0000ffff 	.word	0x0000ffff
100005fc:	00000301 	.word	0x00000301

10000600 <uart_set_baudrate>:
10000600:	b570      	push	{r4, r5, r6, lr}
10000602:	0005      	movs	r5, r0
10000604:	2006      	movs	r0, #6
10000606:	000c      	movs	r4, r1
10000608:	f000 ff72 	bl	100014f0 <clock_get_hz>
1000060c:	0021      	movs	r1, r4
1000060e:	00c0      	lsls	r0, r0, #3
10000610:	f001 f9b0 	bl	10001974 <__wrap___aeabi_uidiv>
10000614:	247f      	movs	r4, #127	; 0x7f
10000616:	4b0d      	ldr	r3, [pc, #52]	; (1000064c <uart_set_baudrate+0x4c>)
10000618:	4004      	ands	r4, r0
1000061a:	09c6      	lsrs	r6, r0, #7
1000061c:	3401      	adds	r4, #1
1000061e:	0864      	lsrs	r4, r4, #1
10000620:	626e      	str	r6, [r5, #36]	; 0x24
10000622:	429e      	cmp	r6, r3
10000624:	d00f      	beq.n	10000646 <uart_set_baudrate+0x46>
10000626:	62ac      	str	r4, [r5, #40]	; 0x28
10000628:	2080      	movs	r0, #128	; 0x80
1000062a:	2300      	movs	r3, #0
1000062c:	0180      	lsls	r0, r0, #6
1000062e:	352c      	adds	r5, #44	; 0x2c
10000630:	4305      	orrs	r5, r0
10000632:	602b      	str	r3, [r5, #0]
10000634:	2006      	movs	r0, #6
10000636:	f000 ff5b 	bl	100014f0 <clock_get_hz>
1000063a:	01b1      	lsls	r1, r6, #6
1000063c:	1909      	adds	r1, r1, r4
1000063e:	0080      	lsls	r0, r0, #2
10000640:	f001 f998 	bl	10001974 <__wrap___aeabi_uidiv>
10000644:	bd70      	pop	{r4, r5, r6, pc}
10000646:	2300      	movs	r3, #0
10000648:	62ab      	str	r3, [r5, #40]	; 0x28
1000064a:	e7ed      	b.n	10000628 <uart_set_baudrate+0x28>
1000064c:	0000ffff 	.word	0x0000ffff

10000650 <timer_pool_entry_comparator>:
10000650:	6883      	ldr	r3, [r0, #8]
10000652:	480b      	ldr	r0, [pc, #44]	; (10000680 <timer_pool_entry_comparator+0x30>)
10000654:	b510      	push	{r4, lr}
10000656:	4684      	mov	ip, r0
10000658:	4461      	add	r1, ip
1000065a:	4462      	add	r2, ip
1000065c:	0109      	lsls	r1, r1, #4
1000065e:	0112      	lsls	r2, r2, #4
10000660:	189a      	adds	r2, r3, r2
10000662:	1859      	adds	r1, r3, r1
10000664:	6854      	ldr	r4, [r2, #4]
10000666:	684b      	ldr	r3, [r1, #4]
10000668:	2001      	movs	r0, #1
1000066a:	429c      	cmp	r4, r3
1000066c:	d801      	bhi.n	10000672 <timer_pool_entry_comparator+0x22>
1000066e:	d002      	beq.n	10000676 <timer_pool_entry_comparator+0x26>
10000670:	2000      	movs	r0, #0
10000672:	b2c0      	uxtb	r0, r0
10000674:	bd10      	pop	{r4, pc}
10000676:	6812      	ldr	r2, [r2, #0]
10000678:	680b      	ldr	r3, [r1, #0]
1000067a:	429a      	cmp	r2, r3
1000067c:	d8f9      	bhi.n	10000672 <timer_pool_entry_comparator+0x22>
1000067e:	e7f7      	b.n	10000670 <timer_pool_entry_comparator+0x20>
10000680:	0fffffff 	.word	0x0fffffff

10000684 <add_alarm_under_lock>:
10000684:	b5f0      	push	{r4, r5, r6, r7, lr}
10000686:	4657      	mov	r7, sl
10000688:	4645      	mov	r5, r8
1000068a:	46de      	mov	lr, fp
1000068c:	464e      	mov	r6, r9
1000068e:	b5e0      	push	{r5, r6, r7, lr}
10000690:	b083      	sub	sp, #12
10000692:	001f      	movs	r7, r3
10000694:	ab0f      	add	r3, sp, #60	; 0x3c
10000696:	781b      	ldrb	r3, [r3, #0]
10000698:	9c0e      	ldr	r4, [sp, #56]	; 0x38
1000069a:	0005      	movs	r5, r0
1000069c:	4692      	mov	sl, r2
1000069e:	9301      	str	r3, [sp, #4]
100006a0:	2c00      	cmp	r4, #0
100006a2:	d10d      	bne.n	100006c0 <add_alarm_under_lock+0x3c>
100006a4:	6802      	ldr	r2, [r0, #0]
100006a6:	7b94      	ldrb	r4, [r2, #14]
100006a8:	2c00      	cmp	r4, #0
100006aa:	d056      	beq.n	1000075a <add_alarm_under_lock+0xd6>
100006ac:	6811      	ldr	r1, [r2, #0]
100006ae:	0063      	lsls	r3, r4, #1
100006b0:	468c      	mov	ip, r1
100006b2:	191b      	adds	r3, r3, r4
100006b4:	4463      	add	r3, ip
100006b6:	3b03      	subs	r3, #3
100006b8:	785b      	ldrb	r3, [r3, #1]
100006ba:	7393      	strb	r3, [r2, #14]
100006bc:	2b00      	cmp	r3, #0
100006be:	d054      	beq.n	1000076a <add_alarm_under_lock+0xe6>
100006c0:	68aa      	ldr	r2, [r5, #8]
100006c2:	b2e3      	uxtb	r3, r4
100006c4:	4694      	mov	ip, r2
100006c6:	4652      	mov	r2, sl
100006c8:	469b      	mov	fp, r3
100006ca:	4b38      	ldr	r3, [pc, #224]	; (100007ac <add_alarm_under_lock+0x128>)
100006cc:	682e      	ldr	r6, [r5, #0]
100006ce:	18e3      	adds	r3, r4, r3
100006d0:	011b      	lsls	r3, r3, #4
100006d2:	4463      	add	r3, ip
100006d4:	601a      	str	r2, [r3, #0]
100006d6:	9a0c      	ldr	r2, [sp, #48]	; 0x30
100006d8:	605f      	str	r7, [r3, #4]
100006da:	609a      	str	r2, [r3, #8]
100006dc:	9a0d      	ldr	r2, [sp, #52]	; 0x34
100006de:	60da      	str	r2, [r3, #12]
100006e0:	23d0      	movs	r3, #208	; 0xd0
100006e2:	2280      	movs	r2, #128	; 0x80
100006e4:	061b      	lsls	r3, r3, #24
100006e6:	0312      	lsls	r2, r2, #12
100006e8:	615a      	str	r2, [r3, #20]
100006ea:	0063      	lsls	r3, r4, #1
100006ec:	191b      	adds	r3, r3, r4
100006ee:	3b03      	subs	r3, #3
100006f0:	4698      	mov	r8, r3
100006f2:	2200      	movs	r2, #0
100006f4:	6833      	ldr	r3, [r6, #0]
100006f6:	4443      	add	r3, r8
100006f8:	709a      	strb	r2, [r3, #2]
100006fa:	705a      	strb	r2, [r3, #1]
100006fc:	701a      	strb	r2, [r3, #0]
100006fe:	7b73      	ldrb	r3, [r6, #13]
10000700:	4699      	mov	r9, r3
10000702:	2b00      	cmp	r3, #0
10000704:	d017      	beq.n	10000736 <add_alarm_under_lock+0xb2>
10000706:	465a      	mov	r2, fp
10000708:	0019      	movs	r1, r3
1000070a:	68b0      	ldr	r0, [r6, #8]
1000070c:	6873      	ldr	r3, [r6, #4]
1000070e:	4798      	blx	r3
10000710:	6832      	ldr	r2, [r6, #0]
10000712:	2800      	cmp	r0, #0
10000714:	d12b      	bne.n	1000076e <add_alarm_under_lock+0xea>
10000716:	4643      	mov	r3, r8
10000718:	18d1      	adds	r1, r2, r3
1000071a:	464b      	mov	r3, r9
1000071c:	4658      	mov	r0, fp
1000071e:	005b      	lsls	r3, r3, #1
10000720:	444b      	add	r3, r9
10000722:	3b03      	subs	r3, #3
10000724:	18d3      	adds	r3, r2, r3
10000726:	7098      	strb	r0, [r3, #2]
10000728:	4640      	mov	r0, r8
1000072a:	5c12      	ldrb	r2, [r2, r0]
1000072c:	2a00      	cmp	r2, #0
1000072e:	d000      	beq.n	10000732 <add_alarm_under_lock+0xae>
10000730:	705a      	strb	r2, [r3, #1]
10000732:	464b      	mov	r3, r9
10000734:	700b      	strb	r3, [r1, #0]
10000736:	465b      	mov	r3, fp
10000738:	7373      	strb	r3, [r6, #13]
1000073a:	4652      	mov	r2, sl
1000073c:	003b      	movs	r3, r7
1000073e:	7d28      	ldrb	r0, [r5, #20]
10000740:	f000 fa1a 	bl	10000b78 <hardware_alarm_set_target>
10000744:	1e06      	subs	r6, r0, #0
10000746:	d002      	beq.n	1000074e <add_alarm_under_lock+0xca>
10000748:	9b01      	ldr	r3, [sp, #4]
1000074a:	2b00      	cmp	r3, #0
1000074c:	d026      	beq.n	1000079c <add_alarm_under_lock+0x118>
1000074e:	9b10      	ldr	r3, [sp, #64]	; 0x40
10000750:	2b00      	cmp	r3, #0
10000752:	d028      	beq.n	100007a6 <add_alarm_under_lock+0x122>
10000754:	0020      	movs	r0, r4
10000756:	701e      	strb	r6, [r3, #0]
10000758:	e000      	b.n	1000075c <add_alarm_under_lock+0xd8>
1000075a:	2000      	movs	r0, #0
1000075c:	b003      	add	sp, #12
1000075e:	bc3c      	pop	{r2, r3, r4, r5}
10000760:	4690      	mov	r8, r2
10000762:	4699      	mov	r9, r3
10000764:	46a2      	mov	sl, r4
10000766:	46ab      	mov	fp, r5
10000768:	bdf0      	pop	{r4, r5, r6, r7, pc}
1000076a:	73d3      	strb	r3, [r2, #15]
1000076c:	e7a8      	b.n	100006c0 <add_alarm_under_lock+0x3c>
1000076e:	464b      	mov	r3, r9
10000770:	005b      	lsls	r3, r3, #1
10000772:	444b      	add	r3, r9
10000774:	3b03      	subs	r3, #3
10000776:	18d1      	adds	r1, r2, r3
10000778:	468c      	mov	ip, r1
1000077a:	4641      	mov	r1, r8
1000077c:	4648      	mov	r0, r9
1000077e:	1851      	adds	r1, r2, r1
10000780:	7088      	strb	r0, [r1, #2]
10000782:	5cd3      	ldrb	r3, [r2, r3]
10000784:	2b00      	cmp	r3, #0
10000786:	d000      	beq.n	1000078a <add_alarm_under_lock+0x106>
10000788:	704b      	strb	r3, [r1, #1]
1000078a:	465b      	mov	r3, fp
1000078c:	4662      	mov	r2, ip
1000078e:	7013      	strb	r3, [r2, #0]
10000790:	464b      	mov	r3, r9
10000792:	0020      	movs	r0, r4
10000794:	7373      	strb	r3, [r6, #13]
10000796:	45a1      	cmp	r9, r4
10000798:	d1e0      	bne.n	1000075c <add_alarm_under_lock+0xd8>
1000079a:	e7ce      	b.n	1000073a <add_alarm_under_lock+0xb6>
1000079c:	4659      	mov	r1, fp
1000079e:	6828      	ldr	r0, [r5, #0]
100007a0:	f000 fc48 	bl	10001034 <ph_delete>
100007a4:	e7d3      	b.n	1000074e <add_alarm_under_lock+0xca>
100007a6:	0020      	movs	r0, r4
100007a8:	e7d8      	b.n	1000075c <add_alarm_under_lock+0xd8>
100007aa:	46c0      	nop			; (mov r8, r8)
100007ac:	0fffffff 	.word	0x0fffffff

100007b0 <alarm_pool_alarm_callback>:
100007b0:	b5f0      	push	{r4, r5, r6, r7, lr}
100007b2:	46de      	mov	lr, fp
100007b4:	464e      	mov	r6, r9
100007b6:	4657      	mov	r7, sl
100007b8:	4645      	mov	r5, r8
100007ba:	2300      	movs	r3, #0
100007bc:	b5e0      	push	{r5, r6, r7, lr}
100007be:	b08d      	sub	sp, #52	; 0x34
100007c0:	930a      	str	r3, [sp, #40]	; 0x28
100007c2:	4b71      	ldr	r3, [pc, #452]	; (10000988 <alarm_pool_alarm_callback+0x1d8>)
100007c4:	0082      	lsls	r2, r0, #2
100007c6:	58d3      	ldr	r3, [r2, r3]
100007c8:	900b      	str	r0, [sp, #44]	; 0x2c
100007ca:	4699      	mov	r9, r3
100007cc:	2300      	movs	r3, #0
100007ce:	469b      	mov	fp, r3
100007d0:	464b      	mov	r3, r9
100007d2:	9307      	str	r3, [sp, #28]
100007d4:	f000 f980 	bl	10000ad8 <time_us_64>
100007d8:	9c07      	ldr	r4, [sp, #28]
100007da:	0006      	movs	r6, r0
100007dc:	000f      	movs	r7, r1
100007de:	6862      	ldr	r2, [r4, #4]
100007e0:	f3ef 8510 	mrs	r5, PRIMASK
100007e4:	b672      	cpsid	i
100007e6:	6813      	ldr	r3, [r2, #0]
100007e8:	2b00      	cmp	r3, #0
100007ea:	d0fc      	beq.n	100007e6 <alarm_pool_alarm_callback+0x36>
100007ec:	0022      	movs	r2, r4
100007ee:	9407      	str	r4, [sp, #28]
100007f0:	f3bf 8f5f 	dmb	sy
100007f4:	6824      	ldr	r4, [r4, #0]
100007f6:	7b63      	ldrb	r3, [r4, #13]
100007f8:	4699      	mov	r9, r3
100007fa:	2b00      	cmp	r3, #0
100007fc:	d100      	bne.n	10000800 <alarm_pool_alarm_callback+0x50>
100007fe:	e070      	b.n	100008e2 <alarm_pool_alarm_callback+0x132>
10000800:	6892      	ldr	r2, [r2, #8]
10000802:	4b62      	ldr	r3, [pc, #392]	; (1000098c <alarm_pool_alarm_callback+0x1dc>)
10000804:	4690      	mov	r8, r2
10000806:	444b      	add	r3, r9
10000808:	011b      	lsls	r3, r3, #4
1000080a:	4498      	add	r8, r3
1000080c:	4643      	mov	r3, r8
1000080e:	681a      	ldr	r2, [r3, #0]
10000810:	685b      	ldr	r3, [r3, #4]
10000812:	0010      	movs	r0, r2
10000814:	0019      	movs	r1, r3
10000816:	1b80      	subs	r0, r0, r6
10000818:	41b9      	sbcs	r1, r7
1000081a:	2900      	cmp	r1, #0
1000081c:	dd68      	ble.n	100008f0 <alarm_pool_alarm_callback+0x140>
1000081e:	980b      	ldr	r0, [sp, #44]	; 0x2c
10000820:	f000 f9aa 	bl	10000b78 <hardware_alarm_set_target>
10000824:	2300      	movs	r3, #0
10000826:	2600      	movs	r6, #0
10000828:	4698      	mov	r8, r3
1000082a:	2700      	movs	r7, #0
1000082c:	469a      	mov	sl, r3
1000082e:	9c07      	ldr	r4, [sp, #28]
10000830:	6863      	ldr	r3, [r4, #4]
10000832:	f3bf 8f5f 	dmb	sy
10000836:	465a      	mov	r2, fp
10000838:	601a      	str	r2, [r3, #0]
1000083a:	f385 8810 	msr	PRIMASK, r5
1000083e:	4653      	mov	r3, sl
10000840:	2b00      	cmp	r3, #0
10000842:	d108      	bne.n	10000856 <alarm_pool_alarm_callback+0xa6>
10000844:	2800      	cmp	r0, #0
10000846:	d1c5      	bne.n	100007d4 <alarm_pool_alarm_callback+0x24>
10000848:	b00d      	add	sp, #52	; 0x34
1000084a:	bc3c      	pop	{r2, r3, r4, r5}
1000084c:	4690      	mov	r8, r2
1000084e:	4699      	mov	r9, r3
10000850:	46a2      	mov	sl, r4
10000852:	46ab      	mov	fp, r5
10000854:	bdf0      	pop	{r4, r5, r6, r7, pc}
10000856:	23d0      	movs	r3, #208	; 0xd0
10000858:	2280      	movs	r2, #128	; 0x80
1000085a:	2180      	movs	r1, #128	; 0x80
1000085c:	061b      	lsls	r3, r3, #24
1000085e:	0392      	lsls	r2, r2, #14
10000860:	0309      	lsls	r1, r1, #12
10000862:	615a      	str	r2, [r3, #20]
10000864:	6199      	str	r1, [r3, #24]
10000866:	619a      	str	r2, [r3, #24]
10000868:	9b0a      	ldr	r3, [sp, #40]	; 0x28
1000086a:	4641      	mov	r1, r8
1000086c:	0218      	lsls	r0, r3, #8
1000086e:	464b      	mov	r3, r9
10000870:	4318      	orrs	r0, r3
10000872:	47d0      	blx	sl
10000874:	9008      	str	r0, [sp, #32]
10000876:	9109      	str	r1, [sp, #36]	; 0x24
10000878:	6862      	ldr	r2, [r4, #4]
1000087a:	f3ef 8510 	mrs	r5, PRIMASK
1000087e:	b672      	cpsid	i
10000880:	6813      	ldr	r3, [r2, #0]
10000882:	2b00      	cmp	r3, #0
10000884:	d0fc      	beq.n	10000880 <alarm_pool_alarm_callback+0xd0>
10000886:	9407      	str	r4, [sp, #28]
10000888:	f3bf 8f5f 	dmb	sy
1000088c:	9908      	ldr	r1, [sp, #32]
1000088e:	9a09      	ldr	r2, [sp, #36]	; 0x24
10000890:	2a00      	cmp	r2, #0
10000892:	db49      	blt.n	10000928 <alarm_pool_alarm_callback+0x178>
10000894:	4311      	orrs	r1, r2
10000896:	d003      	beq.n	100008a0 <alarm_pool_alarm_callback+0xf0>
10000898:	9b07      	ldr	r3, [sp, #28]
1000089a:	691b      	ldr	r3, [r3, #16]
1000089c:	2b00      	cmp	r3, #0
1000089e:	d15e      	bne.n	1000095e <alarm_pool_alarm_callback+0x1ae>
100008a0:	9b07      	ldr	r3, [sp, #28]
100008a2:	681b      	ldr	r3, [r3, #0]
100008a4:	7bda      	ldrb	r2, [r3, #15]
100008a6:	2a00      	cmp	r2, #0
100008a8:	d007      	beq.n	100008ba <alarm_pool_alarm_callback+0x10a>
100008aa:	0051      	lsls	r1, r2, #1
100008ac:	188a      	adds	r2, r1, r2
100008ae:	6819      	ldr	r1, [r3, #0]
100008b0:	468c      	mov	ip, r1
100008b2:	4649      	mov	r1, r9
100008b4:	4462      	add	r2, ip
100008b6:	3a03      	subs	r2, #3
100008b8:	7051      	strb	r1, [r2, #1]
100008ba:	464a      	mov	r2, r9
100008bc:	73da      	strb	r2, [r3, #15]
100008be:	464b      	mov	r3, r9
100008c0:	9a07      	ldr	r2, [sp, #28]
100008c2:	3b01      	subs	r3, #1
100008c4:	68d1      	ldr	r1, [r2, #12]
100008c6:	5cca      	ldrb	r2, [r1, r3]
100008c8:	3201      	adds	r2, #1
100008ca:	54ca      	strb	r2, [r1, r3]
100008cc:	465b      	mov	r3, fp
100008ce:	9a07      	ldr	r2, [sp, #28]
100008d0:	6113      	str	r3, [r2, #16]
100008d2:	6853      	ldr	r3, [r2, #4]
100008d4:	f3bf 8f5f 	dmb	sy
100008d8:	465a      	mov	r2, fp
100008da:	601a      	str	r2, [r3, #0]
100008dc:	f385 8810 	msr	PRIMASK, r5
100008e0:	e778      	b.n	100007d4 <alarm_pool_alarm_callback+0x24>
100008e2:	2300      	movs	r3, #0
100008e4:	2600      	movs	r6, #0
100008e6:	4698      	mov	r8, r3
100008e8:	2700      	movs	r7, #0
100008ea:	469a      	mov	sl, r3
100008ec:	2000      	movs	r0, #0
100008ee:	e79e      	b.n	1000082e <alarm_pool_alarm_callback+0x7e>
100008f0:	2900      	cmp	r1, #0
100008f2:	d102      	bne.n	100008fa <alarm_pool_alarm_callback+0x14a>
100008f4:	2800      	cmp	r0, #0
100008f6:	d000      	beq.n	100008fa <alarm_pool_alarm_callback+0x14a>
100008f8:	e791      	b.n	1000081e <alarm_pool_alarm_callback+0x6e>
100008fa:	2101      	movs	r1, #1
100008fc:	0020      	movs	r0, r4
100008fe:	f000 fafb 	bl	10000ef8 <ph_remove_head_reserve>
10000902:	4643      	mov	r3, r8
10000904:	681e      	ldr	r6, [r3, #0]
10000906:	685f      	ldr	r7, [r3, #4]
10000908:	689b      	ldr	r3, [r3, #8]
1000090a:	9a07      	ldr	r2, [sp, #28]
1000090c:	469a      	mov	sl, r3
1000090e:	4643      	mov	r3, r8
10000910:	68db      	ldr	r3, [r3, #12]
10000912:	4698      	mov	r8, r3
10000914:	68d3      	ldr	r3, [r2, #12]
10000916:	444b      	add	r3, r9
10000918:	3b01      	subs	r3, #1
1000091a:	781b      	ldrb	r3, [r3, #0]
1000091c:	930a      	str	r3, [sp, #40]	; 0x28
1000091e:	021b      	lsls	r3, r3, #8
10000920:	4303      	orrs	r3, r0
10000922:	6113      	str	r3, [r2, #16]
10000924:	2000      	movs	r0, #0
10000926:	e782      	b.n	1000082e <alarm_pool_alarm_callback+0x7e>
10000928:	6923      	ldr	r3, [r4, #16]
1000092a:	2b00      	cmp	r3, #0
1000092c:	d0b8      	beq.n	100008a0 <alarm_pool_alarm_callback+0xf0>
1000092e:	0033      	movs	r3, r6
10000930:	003c      	movs	r4, r7
10000932:	1a5b      	subs	r3, r3, r1
10000934:	4194      	sbcs	r4, r2
10000936:	001a      	movs	r2, r3
10000938:	0023      	movs	r3, r4
1000093a:	42a7      	cmp	r7, r4
1000093c:	d819      	bhi.n	10000972 <alarm_pool_alarm_callback+0x1c2>
1000093e:	429f      	cmp	r7, r3
10000940:	d01b      	beq.n	1000097a <alarm_pool_alarm_callback+0x1ca>
10000942:	4659      	mov	r1, fp
10000944:	9104      	str	r1, [sp, #16]
10000946:	2101      	movs	r1, #1
10000948:	9103      	str	r1, [sp, #12]
1000094a:	4649      	mov	r1, r9
1000094c:	9102      	str	r1, [sp, #8]
1000094e:	4641      	mov	r1, r8
10000950:	9101      	str	r1, [sp, #4]
10000952:	4651      	mov	r1, sl
10000954:	9807      	ldr	r0, [sp, #28]
10000956:	9100      	str	r1, [sp, #0]
10000958:	f7ff fe94 	bl	10000684 <add_alarm_under_lock>
1000095c:	e7b6      	b.n	100008cc <alarm_pool_alarm_callback+0x11c>
1000095e:	f000 f8bb 	bl	10000ad8 <time_us_64>
10000962:	9a08      	ldr	r2, [sp, #32]
10000964:	9b09      	ldr	r3, [sp, #36]	; 0x24
10000966:	0006      	movs	r6, r0
10000968:	000f      	movs	r7, r1
1000096a:	1992      	adds	r2, r2, r6
1000096c:	417b      	adcs	r3, r7
1000096e:	4299      	cmp	r1, r3
10000970:	d9e5      	bls.n	1000093e <alarm_pool_alarm_callback+0x18e>
10000972:	2201      	movs	r2, #1
10000974:	4252      	negs	r2, r2
10000976:	17d3      	asrs	r3, r2, #31
10000978:	e7e3      	b.n	10000942 <alarm_pool_alarm_callback+0x192>
1000097a:	4296      	cmp	r6, r2
1000097c:	d9e1      	bls.n	10000942 <alarm_pool_alarm_callback+0x192>
1000097e:	2201      	movs	r2, #1
10000980:	4252      	negs	r2, r2
10000982:	17d3      	asrs	r3, r2, #31
10000984:	e7dd      	b.n	10000942 <alarm_pool_alarm_callback+0x192>
10000986:	46c0      	nop			; (mov r8, r8)
10000988:	20000afc 	.word	0x20000afc
1000098c:	0fffffff 	.word	0x0fffffff

10000990 <alarm_pool_init_default>:
10000990:	b570      	push	{r4, r5, r6, lr}
10000992:	4c18      	ldr	r4, [pc, #96]	; (100009f4 <alarm_pool_init_default+0x64>)
10000994:	6823      	ldr	r3, [r4, #0]
10000996:	2b00      	cmp	r3, #0
10000998:	d000      	beq.n	1000099c <alarm_pool_init_default+0xc>
1000099a:	bd70      	pop	{r4, r5, r6, pc}
1000099c:	2003      	movs	r0, #3
1000099e:	f000 f88f 	bl	10000ac0 <hardware_alarm_claim>
100009a2:	2003      	movs	r0, #3
100009a4:	f000 f94a 	bl	10000c3c <hardware_alarm_cancel>
100009a8:	4913      	ldr	r1, [pc, #76]	; (100009f8 <alarm_pool_init_default+0x68>)
100009aa:	2003      	movs	r0, #3
100009ac:	f000 f89e 	bl	10000aec <hardware_alarm_set_callback>
100009b0:	2018      	movs	r0, #24
100009b2:	f001 f8bd 	bl	10001b30 <__wrap_malloc>
100009b6:	0005      	movs	r5, r0
100009b8:	f7ff fda2 	bl	10000500 <next_striped_spin_lock_num>
100009bc:	4b0f      	ldr	r3, [pc, #60]	; (100009fc <alarm_pool_init_default+0x6c>)
100009be:	002a      	movs	r2, r5
100009c0:	469c      	mov	ip, r3
100009c2:	4460      	add	r0, ip
100009c4:	0080      	lsls	r0, r0, #2
100009c6:	490e      	ldr	r1, [pc, #56]	; (10000a00 <alarm_pool_init_default+0x70>)
100009c8:	6068      	str	r0, [r5, #4]
100009ca:	2010      	movs	r0, #16
100009cc:	f000 f99e 	bl	10000d0c <ph_create>
100009d0:	2110      	movs	r1, #16
100009d2:	6028      	str	r0, [r5, #0]
100009d4:	2010      	movs	r0, #16
100009d6:	f001 f8af 	bl	10001b38 <__wrap_calloc>
100009da:	2101      	movs	r1, #1
100009dc:	60a8      	str	r0, [r5, #8]
100009de:	2010      	movs	r0, #16
100009e0:	f001 f8aa 	bl	10001b38 <__wrap_calloc>
100009e4:	2303      	movs	r3, #3
100009e6:	752b      	strb	r3, [r5, #20]
100009e8:	4b06      	ldr	r3, [pc, #24]	; (10000a04 <alarm_pool_init_default+0x74>)
100009ea:	60e8      	str	r0, [r5, #12]
100009ec:	60dd      	str	r5, [r3, #12]
100009ee:	6025      	str	r5, [r4, #0]
100009f0:	e7d3      	b.n	1000099a <alarm_pool_init_default+0xa>
100009f2:	46c0      	nop			; (mov r8, r8)
100009f4:	20000ae8 	.word	0x20000ae8
100009f8:	100007b1 	.word	0x100007b1
100009fc:	34000040 	.word	0x34000040
10000a00:	10000651 	.word	0x10000651
10000a04:	20000afc 	.word	0x20000afc

10000a08 <hardware_alarm_irq_handler>:
10000a08:	b5f0      	push	{r4, r5, r6, r7, lr}
10000a0a:	46d6      	mov	lr, sl
10000a0c:	464f      	mov	r7, r9
10000a0e:	4646      	mov	r6, r8
10000a10:	b5c0      	push	{r6, r7, lr}
10000a12:	f3ef 8305 	mrs	r3, IPSR
10000a16:	223f      	movs	r2, #63	; 0x3f
10000a18:	4013      	ands	r3, r2
10000a1a:	0018      	movs	r0, r3
10000a1c:	3810      	subs	r0, #16
10000a1e:	f3ef 8c10 	mrs	ip, PRIMASK
10000a22:	b672      	cpsid	i
10000a24:	4d20      	ldr	r5, [pc, #128]	; (10000aa8 <hardware_alarm_irq_handler+0xa0>)
10000a26:	682a      	ldr	r2, [r5, #0]
10000a28:	2a00      	cmp	r2, #0
10000a2a:	d0fc      	beq.n	10000a26 <hardware_alarm_irq_handler+0x1e>
10000a2c:	f3bf 8f5f 	dmb	sy
10000a30:	2201      	movs	r2, #1
10000a32:	0011      	movs	r1, r2
10000a34:	4081      	lsls	r1, r0
10000a36:	4c1d      	ldr	r4, [pc, #116]	; (10000aac <hardware_alarm_irq_handler+0xa4>)
10000a38:	4688      	mov	r8, r1
10000a3a:	6361      	str	r1, [r4, #52]	; 0x34
10000a3c:	491c      	ldr	r1, [pc, #112]	; (10000ab0 <hardware_alarm_irq_handler+0xa8>)
10000a3e:	0017      	movs	r7, r2
10000a40:	780e      	ldrb	r6, [r1, #0]
10000a42:	468a      	mov	sl, r1
10000a44:	0031      	movs	r1, r6
10000a46:	40c1      	lsrs	r1, r0
10000a48:	400f      	ands	r7, r1
10000a4a:	420a      	tst	r2, r1
10000a4c:	d015      	beq.n	10000a7a <hardware_alarm_irq_handler+0x72>
10000a4e:	4919      	ldr	r1, [pc, #100]	; (10000ab4 <hardware_alarm_irq_handler+0xac>)
10000a50:	0082      	lsls	r2, r0, #2
10000a52:	6a64      	ldr	r4, [r4, #36]	; 0x24
10000a54:	5851      	ldr	r1, [r2, r1]
10000a56:	428c      	cmp	r4, r1
10000a58:	d319      	bcc.n	10000a8e <hardware_alarm_irq_handler+0x86>
10000a5a:	4b17      	ldr	r3, [pc, #92]	; (10000ab8 <hardware_alarm_irq_handler+0xb0>)
10000a5c:	58d2      	ldr	r2, [r2, r3]
10000a5e:	4643      	mov	r3, r8
10000a60:	439e      	bics	r6, r3
10000a62:	4653      	mov	r3, sl
10000a64:	701e      	strb	r6, [r3, #0]
10000a66:	f3bf 8f5f 	dmb	sy
10000a6a:	2300      	movs	r3, #0
10000a6c:	602b      	str	r3, [r5, #0]
10000a6e:	f38c 8810 	msr	PRIMASK, ip
10000a72:	2a00      	cmp	r2, #0
10000a74:	d006      	beq.n	10000a84 <hardware_alarm_irq_handler+0x7c>
10000a76:	4790      	blx	r2
10000a78:	e004      	b.n	10000a84 <hardware_alarm_irq_handler+0x7c>
10000a7a:	f3bf 8f5f 	dmb	sy
10000a7e:	602f      	str	r7, [r5, #0]
10000a80:	f38c 8810 	msr	PRIMASK, ip
10000a84:	bc1c      	pop	{r2, r3, r4}
10000a86:	4690      	mov	r8, r2
10000a88:	4699      	mov	r9, r3
10000a8a:	46a2      	mov	sl, r4
10000a8c:	bdf0      	pop	{r4, r5, r6, r7, pc}
10000a8e:	4a0b      	ldr	r2, [pc, #44]	; (10000abc <hardware_alarm_irq_handler+0xb4>)
10000a90:	009b      	lsls	r3, r3, #2
10000a92:	4690      	mov	r8, r2
10000a94:	4443      	add	r3, r8
10000a96:	681a      	ldr	r2, [r3, #0]
10000a98:	601a      	str	r2, [r3, #0]
10000a9a:	f3bf 8f5f 	dmb	sy
10000a9e:	2300      	movs	r3, #0
10000aa0:	602b      	str	r3, [r5, #0]
10000aa2:	f38c 8810 	msr	PRIMASK, ip
10000aa6:	e7ed      	b.n	10000a84 <hardware_alarm_irq_handler+0x7c>
10000aa8:	d0000128 	.word	0xd0000128
10000aac:	40054000 	.word	0x40054000
10000ab0:	20000b1e 	.word	0x20000b1e
10000ab4:	20000b0c 	.word	0x20000b0c
10000ab8:	20000aac 	.word	0x20000aac
10000abc:	40053fd0 	.word	0x40053fd0

10000ac0 <hardware_alarm_claim>:
10000ac0:	b510      	push	{r4, lr}
10000ac2:	0001      	movs	r1, r0
10000ac4:	4a02      	ldr	r2, [pc, #8]	; (10000ad0 <hardware_alarm_claim+0x10>)
10000ac6:	4803      	ldr	r0, [pc, #12]	; (10000ad4 <hardware_alarm_claim+0x14>)
10000ac8:	f7ff fcdc 	bl	10000484 <hw_claim_or_assert>
10000acc:	bd10      	pop	{r4, pc}
10000ace:	46c0      	nop			; (mov r8, r8)
10000ad0:	100026b4 	.word	0x100026b4
10000ad4:	20000b1c 	.word	0x20000b1c

10000ad8 <time_us_64>:
10000ad8:	4b03      	ldr	r3, [pc, #12]	; (10000ae8 <time_us_64+0x10>)
10000ada:	6a59      	ldr	r1, [r3, #36]	; 0x24
10000adc:	000a      	movs	r2, r1
10000ade:	6a98      	ldr	r0, [r3, #40]	; 0x28
10000ae0:	6a59      	ldr	r1, [r3, #36]	; 0x24
10000ae2:	428a      	cmp	r2, r1
10000ae4:	d1fa      	bne.n	10000adc <time_us_64+0x4>
10000ae6:	4770      	bx	lr
10000ae8:	40054000 	.word	0x40054000

10000aec <hardware_alarm_set_callback>:
10000aec:	b570      	push	{r4, r5, r6, lr}
10000aee:	0004      	movs	r4, r0
10000af0:	000d      	movs	r5, r1
10000af2:	f3ef 8610 	mrs	r6, PRIMASK
10000af6:	b672      	cpsid	i
10000af8:	4a1a      	ldr	r2, [pc, #104]	; (10000b64 <hardware_alarm_set_callback+0x78>)
10000afa:	6813      	ldr	r3, [r2, #0]
10000afc:	2b00      	cmp	r3, #0
10000afe:	d0fc      	beq.n	10000afa <hardware_alarm_set_callback+0xe>
10000b00:	f3bf 8f5f 	dmb	sy
10000b04:	2d00      	cmp	r5, #0
10000b06:	d01b      	beq.n	10000b40 <hardware_alarm_set_callback+0x54>
10000b08:	0020      	movs	r0, r4
10000b0a:	f000 fd4f 	bl	100015ac <irq_get_vtable_handler>
10000b0e:	4916      	ldr	r1, [pc, #88]	; (10000b68 <hardware_alarm_set_callback+0x7c>)
10000b10:	4281      	cmp	r1, r0
10000b12:	d00a      	beq.n	10000b2a <hardware_alarm_set_callback+0x3e>
10000b14:	0020      	movs	r0, r4
10000b16:	f000 fd51 	bl	100015bc <irq_set_exclusive_handler>
10000b1a:	2101      	movs	r1, #1
10000b1c:	0020      	movs	r0, r4
10000b1e:	f000 fd33 	bl	10001588 <irq_set_enabled>
10000b22:	2301      	movs	r3, #1
10000b24:	40a3      	lsls	r3, r4
10000b26:	4a11      	ldr	r2, [pc, #68]	; (10000b6c <hardware_alarm_set_callback+0x80>)
10000b28:	6013      	str	r3, [r2, #0]
10000b2a:	4b11      	ldr	r3, [pc, #68]	; (10000b70 <hardware_alarm_set_callback+0x84>)
10000b2c:	00a4      	lsls	r4, r4, #2
10000b2e:	50e5      	str	r5, [r4, r3]
10000b30:	f3bf 8f5f 	dmb	sy
10000b34:	2200      	movs	r2, #0
10000b36:	4b0b      	ldr	r3, [pc, #44]	; (10000b64 <hardware_alarm_set_callback+0x78>)
10000b38:	601a      	str	r2, [r3, #0]
10000b3a:	f386 8810 	msr	PRIMASK, r6
10000b3e:	bd70      	pop	{r4, r5, r6, pc}
10000b40:	4b0b      	ldr	r3, [pc, #44]	; (10000b70 <hardware_alarm_set_callback+0x84>)
10000b42:	00a2      	lsls	r2, r4, #2
10000b44:	50d5      	str	r5, [r2, r3]
10000b46:	2201      	movs	r2, #1
10000b48:	40a2      	lsls	r2, r4
10000b4a:	490a      	ldr	r1, [pc, #40]	; (10000b74 <hardware_alarm_set_callback+0x88>)
10000b4c:	0020      	movs	r0, r4
10000b4e:	780b      	ldrb	r3, [r1, #0]
10000b50:	4393      	bics	r3, r2
10000b52:	700b      	strb	r3, [r1, #0]
10000b54:	4904      	ldr	r1, [pc, #16]	; (10000b68 <hardware_alarm_set_callback+0x7c>)
10000b56:	f000 fd5b 	bl	10001610 <irq_remove_handler>
10000b5a:	2100      	movs	r1, #0
10000b5c:	0020      	movs	r0, r4
10000b5e:	f000 fd13 	bl	10001588 <irq_set_enabled>
10000b62:	e7e5      	b.n	10000b30 <hardware_alarm_set_callback+0x44>
10000b64:	d0000128 	.word	0xd0000128
10000b68:	10000a09 	.word	0x10000a09
10000b6c:	40056038 	.word	0x40056038
10000b70:	20000aac 	.word	0x20000aac
10000b74:	20000b1e 	.word	0x20000b1e

10000b78 <hardware_alarm_set_target>:
10000b78:	b5f0      	push	{r4, r5, r6, r7, lr}
10000b7a:	46ce      	mov	lr, r9
10000b7c:	4647      	mov	r7, r8
10000b7e:	b580      	push	{r7, lr}
10000b80:	4c2a      	ldr	r4, [pc, #168]	; (10000c2c <hardware_alarm_set_target+0xb4>)
10000b82:	6a61      	ldr	r1, [r4, #36]	; 0x24
10000b84:	000d      	movs	r5, r1
10000b86:	6aa6      	ldr	r6, [r4, #40]	; 0x28
10000b88:	6a61      	ldr	r1, [r4, #36]	; 0x24
10000b8a:	42a9      	cmp	r1, r5
10000b8c:	d1fa      	bne.n	10000b84 <hardware_alarm_set_target+0xc>
10000b8e:	428b      	cmp	r3, r1
10000b90:	d807      	bhi.n	10000ba2 <hardware_alarm_set_target+0x2a>
10000b92:	d004      	beq.n	10000b9e <hardware_alarm_set_target+0x26>
10000b94:	2001      	movs	r0, #1
10000b96:	bc0c      	pop	{r2, r3}
10000b98:	4690      	mov	r8, r2
10000b9a:	4699      	mov	r9, r3
10000b9c:	bdf0      	pop	{r4, r5, r6, r7, pc}
10000b9e:	42b2      	cmp	r2, r6
10000ba0:	d9f8      	bls.n	10000b94 <hardware_alarm_set_target+0x1c>
10000ba2:	f3ef 8810 	mrs	r8, PRIMASK
10000ba6:	b672      	cpsid	i
10000ba8:	4c21      	ldr	r4, [pc, #132]	; (10000c30 <hardware_alarm_set_target+0xb8>)
10000baa:	6821      	ldr	r1, [r4, #0]
10000bac:	2900      	cmp	r1, #0
10000bae:	d0fc      	beq.n	10000baa <hardware_alarm_set_target+0x32>
10000bb0:	f3bf 8f5f 	dmb	sy
10000bb4:	2501      	movs	r5, #1
10000bb6:	4085      	lsls	r5, r0
10000bb8:	4c1c      	ldr	r4, [pc, #112]	; (10000c2c <hardware_alarm_set_target+0xb4>)
10000bba:	4e1e      	ldr	r6, [pc, #120]	; (10000c34 <hardware_alarm_set_target+0xbc>)
10000bbc:	6365      	str	r5, [r4, #52]	; 0x34
10000bbe:	b2e9      	uxtb	r1, r5
10000bc0:	468c      	mov	ip, r1
10000bc2:	7831      	ldrb	r1, [r6, #0]
10000bc4:	4689      	mov	r9, r1
10000bc6:	4661      	mov	r1, ip
10000bc8:	464f      	mov	r7, r9
10000bca:	4339      	orrs	r1, r7
10000bcc:	7031      	strb	r1, [r6, #0]
10000bce:	1d01      	adds	r1, r0, #4
10000bd0:	0089      	lsls	r1, r1, #2
10000bd2:	510a      	str	r2, [r1, r4]
10000bd4:	4918      	ldr	r1, [pc, #96]	; (10000c38 <hardware_alarm_set_target+0xc0>)
10000bd6:	0080      	lsls	r0, r0, #2
10000bd8:	5043      	str	r3, [r0, r1]
10000bda:	6a21      	ldr	r1, [r4, #32]
10000bdc:	2000      	movs	r0, #0
10000bde:	4229      	tst	r1, r5
10000be0:	d00c      	beq.n	10000bfc <hardware_alarm_set_target+0x84>
10000be2:	0020      	movs	r0, r4
10000be4:	6a61      	ldr	r1, [r4, #36]	; 0x24
10000be6:	000c      	movs	r4, r1
10000be8:	6a87      	ldr	r7, [r0, #40]	; 0x28
10000bea:	6a41      	ldr	r1, [r0, #36]	; 0x24
10000bec:	42a1      	cmp	r1, r4
10000bee:	d1fa      	bne.n	10000be6 <hardware_alarm_set_target+0x6e>
10000bf0:	428b      	cmp	r3, r1
10000bf2:	d802      	bhi.n	10000bfa <hardware_alarm_set_target+0x82>
10000bf4:	d10a      	bne.n	10000c0c <hardware_alarm_set_target+0x94>
10000bf6:	42ba      	cmp	r2, r7
10000bf8:	d908      	bls.n	10000c0c <hardware_alarm_set_target+0x94>
10000bfa:	2000      	movs	r0, #0
10000bfc:	f3bf 8f5f 	dmb	sy
10000c00:	2200      	movs	r2, #0
10000c02:	4b0b      	ldr	r3, [pc, #44]	; (10000c30 <hardware_alarm_set_target+0xb8>)
10000c04:	601a      	str	r2, [r3, #0]
10000c06:	f388 8810 	msr	PRIMASK, r8
10000c0a:	e7c4      	b.n	10000b96 <hardware_alarm_set_target+0x1e>
10000c0c:	4b07      	ldr	r3, [pc, #28]	; (10000c2c <hardware_alarm_set_target+0xb4>)
10000c0e:	464f      	mov	r7, r9
10000c10:	621d      	str	r5, [r3, #32]
10000c12:	635d      	str	r5, [r3, #52]	; 0x34
10000c14:	4663      	mov	r3, ip
10000c16:	439f      	bics	r7, r3
10000c18:	2001      	movs	r0, #1
10000c1a:	7037      	strb	r7, [r6, #0]
10000c1c:	f3bf 8f5f 	dmb	sy
10000c20:	2200      	movs	r2, #0
10000c22:	4b03      	ldr	r3, [pc, #12]	; (10000c30 <hardware_alarm_set_target+0xb8>)
10000c24:	601a      	str	r2, [r3, #0]
10000c26:	f388 8810 	msr	PRIMASK, r8
10000c2a:	e7b4      	b.n	10000b96 <hardware_alarm_set_target+0x1e>
10000c2c:	40054000 	.word	0x40054000
10000c30:	d0000128 	.word	0xd0000128
10000c34:	20000b1e 	.word	0x20000b1e
10000c38:	20000b0c 	.word	0x20000b0c

10000c3c <hardware_alarm_cancel>:
10000c3c:	b510      	push	{r4, lr}
10000c3e:	f3ef 8410 	mrs	r4, PRIMASK
10000c42:	b672      	cpsid	i
10000c44:	490a      	ldr	r1, [pc, #40]	; (10000c70 <hardware_alarm_cancel+0x34>)
10000c46:	680b      	ldr	r3, [r1, #0]
10000c48:	2b00      	cmp	r3, #0
10000c4a:	d0fc      	beq.n	10000c46 <hardware_alarm_cancel+0xa>
10000c4c:	f3bf 8f5f 	dmb	sy
10000c50:	2301      	movs	r3, #1
10000c52:	4083      	lsls	r3, r0
10000c54:	4a07      	ldr	r2, [pc, #28]	; (10000c74 <hardware_alarm_cancel+0x38>)
10000c56:	4808      	ldr	r0, [pc, #32]	; (10000c78 <hardware_alarm_cancel+0x3c>)
10000c58:	6213      	str	r3, [r2, #32]
10000c5a:	7802      	ldrb	r2, [r0, #0]
10000c5c:	439a      	bics	r2, r3
10000c5e:	7002      	strb	r2, [r0, #0]
10000c60:	f3bf 8f5f 	dmb	sy
10000c64:	2300      	movs	r3, #0
10000c66:	600b      	str	r3, [r1, #0]
10000c68:	f384 8810 	msr	PRIMASK, r4
10000c6c:	bd10      	pop	{r4, pc}
10000c6e:	46c0      	nop			; (mov r8, r8)
10000c70:	d0000128 	.word	0xd0000128
10000c74:	40054000 	.word	0x40054000
10000c78:	20000b1e 	.word	0x20000b1e

10000c7c <lock_init>:
10000c7c:	4b02      	ldr	r3, [pc, #8]	; (10000c88 <lock_init+0xc>)
10000c7e:	469c      	mov	ip, r3
10000c80:	4461      	add	r1, ip
10000c82:	0089      	lsls	r1, r1, #2
10000c84:	6001      	str	r1, [r0, #0]
10000c86:	4770      	bx	lr
10000c88:	34000040 	.word	0x34000040

10000c8c <mutex_init>:
10000c8c:	b510      	push	{r4, lr}
10000c8e:	0004      	movs	r4, r0
10000c90:	f7ff fc36 	bl	10000500 <next_striped_spin_lock_num>
10000c94:	0001      	movs	r1, r0
10000c96:	0020      	movs	r0, r4
10000c98:	f7ff fff0 	bl	10000c7c <lock_init>
10000c9c:	f3bf 8f5f 	dmb	sy
10000ca0:	bd10      	pop	{r4, pc}
10000ca2:	46c0      	nop			; (mov r8, r8)

10000ca4 <ph_merge_nodes>:
10000ca4:	b570      	push	{r4, r5, r6, lr}
10000ca6:	0005      	movs	r5, r0
10000ca8:	000e      	movs	r6, r1
10000caa:	0014      	movs	r4, r2
10000cac:	2900      	cmp	r1, #0
10000cae:	d024      	beq.n	10000cfa <ph_merge_nodes+0x56>
10000cb0:	2a00      	cmp	r2, #0
10000cb2:	d024      	beq.n	10000cfe <ph_merge_nodes+0x5a>
10000cb4:	6880      	ldr	r0, [r0, #8]
10000cb6:	686b      	ldr	r3, [r5, #4]
10000cb8:	4798      	blx	r3
10000cba:	6829      	ldr	r1, [r5, #0]
10000cbc:	2800      	cmp	r0, #0
10000cbe:	d00e      	beq.n	10000cde <ph_merge_nodes+0x3a>
10000cc0:	0063      	lsls	r3, r4, #1
10000cc2:	191b      	adds	r3, r3, r4
10000cc4:	0072      	lsls	r2, r6, #1
10000cc6:	3b03      	subs	r3, #3
10000cc8:	1992      	adds	r2, r2, r6
10000cca:	18cb      	adds	r3, r1, r3
10000ccc:	3a03      	subs	r2, #3
10000cce:	709e      	strb	r6, [r3, #2]
10000cd0:	1888      	adds	r0, r1, r2
10000cd2:	5c8a      	ldrb	r2, [r1, r2]
10000cd4:	2a00      	cmp	r2, #0
10000cd6:	d114      	bne.n	10000d02 <ph_merge_nodes+0x5e>
10000cd8:	7004      	strb	r4, [r0, #0]
10000cda:	0030      	movs	r0, r6
10000cdc:	e00e      	b.n	10000cfc <ph_merge_nodes+0x58>
10000cde:	0073      	lsls	r3, r6, #1
10000ce0:	199b      	adds	r3, r3, r6
10000ce2:	0062      	lsls	r2, r4, #1
10000ce4:	3b03      	subs	r3, #3
10000ce6:	1912      	adds	r2, r2, r4
10000ce8:	18cb      	adds	r3, r1, r3
10000cea:	3a03      	subs	r2, #3
10000cec:	709c      	strb	r4, [r3, #2]
10000cee:	1888      	adds	r0, r1, r2
10000cf0:	5c8a      	ldrb	r2, [r1, r2]
10000cf2:	2a00      	cmp	r2, #0
10000cf4:	d000      	beq.n	10000cf8 <ph_merge_nodes+0x54>
10000cf6:	705a      	strb	r2, [r3, #1]
10000cf8:	7006      	strb	r6, [r0, #0]
10000cfa:	0020      	movs	r0, r4
10000cfc:	bd70      	pop	{r4, r5, r6, pc}
10000cfe:	0008      	movs	r0, r1
10000d00:	e7fc      	b.n	10000cfc <ph_merge_nodes+0x58>
10000d02:	705a      	strb	r2, [r3, #1]
10000d04:	7004      	strb	r4, [r0, #0]
10000d06:	0030      	movs	r0, r6
10000d08:	e7f8      	b.n	10000cfc <ph_merge_nodes+0x58>
10000d0a:	46c0      	nop			; (mov r8, r8)

10000d0c <ph_create>:
10000d0c:	b5f0      	push	{r4, r5, r6, r7, lr}
10000d0e:	46c6      	mov	lr, r8
10000d10:	0005      	movs	r5, r0
10000d12:	000f      	movs	r7, r1
10000d14:	b500      	push	{lr}
10000d16:	2110      	movs	r1, #16
10000d18:	2001      	movs	r0, #1
10000d1a:	0016      	movs	r6, r2
10000d1c:	f000 ff0c 	bl	10001b38 <__wrap_calloc>
10000d20:	b2eb      	uxtb	r3, r5
10000d22:	0004      	movs	r4, r0
10000d24:	7303      	strb	r3, [r0, #12]
10000d26:	2103      	movs	r1, #3
10000d28:	6047      	str	r7, [r0, #4]
10000d2a:	0028      	movs	r0, r5
10000d2c:	4698      	mov	r8, r3
10000d2e:	f000 ff03 	bl	10001b38 <__wrap_calloc>
10000d32:	2300      	movs	r3, #0
10000d34:	7363      	strb	r3, [r4, #13]
10000d36:	3301      	adds	r3, #1
10000d38:	73a3      	strb	r3, [r4, #14]
10000d3a:	4643      	mov	r3, r8
10000d3c:	21ff      	movs	r1, #255	; 0xff
10000d3e:	73e3      	strb	r3, [r4, #15]
10000d40:	23fe      	movs	r3, #254	; 0xfe
10000d42:	6020      	str	r0, [r4, #0]
10000d44:	60a6      	str	r6, [r4, #8]
10000d46:	4029      	ands	r1, r5
10000d48:	422b      	tst	r3, r5
10000d4a:	d006      	beq.n	10000d5a <ph_create+0x4e>
10000d4c:	1c42      	adds	r2, r0, #1
10000d4e:	3bfd      	subs	r3, #253	; 0xfd
10000d50:	3301      	adds	r3, #1
10000d52:	7013      	strb	r3, [r2, #0]
10000d54:	3203      	adds	r2, #3
10000d56:	428b      	cmp	r3, r1
10000d58:	d3fa      	bcc.n	10000d50 <ph_create+0x44>
10000d5a:	004b      	lsls	r3, r1, #1
10000d5c:	1859      	adds	r1, r3, r1
10000d5e:	2300      	movs	r3, #0
10000d60:	1840      	adds	r0, r0, r1
10000d62:	3803      	subs	r0, #3
10000d64:	7043      	strb	r3, [r0, #1]
10000d66:	0020      	movs	r0, r4
10000d68:	bc04      	pop	{r2}
10000d6a:	4690      	mov	r8, r2
10000d6c:	bdf0      	pop	{r4, r5, r6, r7, pc}
10000d6e:	46c0      	nop			; (mov r8, r8)

10000d70 <ph_merge_two_pass>:
10000d70:	b5f8      	push	{r3, r4, r5, r6, r7, lr}
10000d72:	46ce      	mov	lr, r9
10000d74:	4647      	mov	r7, r8
10000d76:	0006      	movs	r6, r0
10000d78:	000c      	movs	r4, r1
10000d7a:	b580      	push	{r7, lr}
10000d7c:	2900      	cmp	r1, #0
10000d7e:	d007      	beq.n	10000d90 <ph_merge_two_pass+0x20>
10000d80:	004d      	lsls	r5, r1, #1
10000d82:	6803      	ldr	r3, [r0, #0]
10000d84:	186d      	adds	r5, r5, r1
10000d86:	3d03      	subs	r5, #3
10000d88:	195a      	adds	r2, r3, r5
10000d8a:	7857      	ldrb	r7, [r2, #1]
10000d8c:	2f00      	cmp	r7, #0
10000d8e:	d104      	bne.n	10000d9a <ph_merge_two_pass+0x2a>
10000d90:	0020      	movs	r0, r4
10000d92:	bc0c      	pop	{r2, r3}
10000d94:	4690      	mov	r8, r2
10000d96:	4699      	mov	r9, r3
10000d98:	bdf8      	pop	{r3, r4, r5, r6, r7, pc}
10000d9a:	0079      	lsls	r1, r7, #1
10000d9c:	19c9      	adds	r1, r1, r7
10000d9e:	3903      	subs	r1, #3
10000da0:	4688      	mov	r8, r1
10000da2:	4443      	add	r3, r8
10000da4:	7859      	ldrb	r1, [r3, #1]
10000da6:	4689      	mov	r9, r1
10000da8:	2100      	movs	r1, #0
10000daa:	7059      	strb	r1, [r3, #1]
10000dac:	7051      	strb	r1, [r2, #1]
10000dae:	6873      	ldr	r3, [r6, #4]
10000db0:	003a      	movs	r2, r7
10000db2:	0021      	movs	r1, r4
10000db4:	6880      	ldr	r0, [r0, #8]
10000db6:	4798      	blx	r3
10000db8:	6833      	ldr	r3, [r6, #0]
10000dba:	2800      	cmp	r0, #0
10000dbc:	d014      	beq.n	10000de8 <ph_merge_two_pass+0x78>
10000dbe:	4642      	mov	r2, r8
10000dc0:	189a      	adds	r2, r3, r2
10000dc2:	7094      	strb	r4, [r2, #2]
10000dc4:	1959      	adds	r1, r3, r5
10000dc6:	5d5b      	ldrb	r3, [r3, r5]
10000dc8:	2b00      	cmp	r3, #0
10000dca:	d000      	beq.n	10000dce <ph_merge_two_pass+0x5e>
10000dcc:	7053      	strb	r3, [r2, #1]
10000dce:	700f      	strb	r7, [r1, #0]
10000dd0:	0027      	movs	r7, r4
10000dd2:	4649      	mov	r1, r9
10000dd4:	0030      	movs	r0, r6
10000dd6:	f7ff ffcb 	bl	10000d70 <ph_merge_two_pass>
10000dda:	0039      	movs	r1, r7
10000ddc:	0002      	movs	r2, r0
10000dde:	0030      	movs	r0, r6
10000de0:	f7ff ff60 	bl	10000ca4 <ph_merge_nodes>
10000de4:	0004      	movs	r4, r0
10000de6:	e7d3      	b.n	10000d90 <ph_merge_two_pass+0x20>
10000de8:	4642      	mov	r2, r8
10000dea:	4641      	mov	r1, r8
10000dec:	195d      	adds	r5, r3, r5
10000dee:	70af      	strb	r7, [r5, #2]
10000df0:	189a      	adds	r2, r3, r2
10000df2:	5c5b      	ldrb	r3, [r3, r1]
10000df4:	2b00      	cmp	r3, #0
10000df6:	d000      	beq.n	10000dfa <ph_merge_two_pass+0x8a>
10000df8:	706b      	strb	r3, [r5, #1]
10000dfa:	7014      	strb	r4, [r2, #0]
10000dfc:	e7e9      	b.n	10000dd2 <ph_merge_two_pass+0x62>
10000dfe:	46c0      	nop			; (mov r8, r8)

10000e00 <ph_remove_any_head>:
10000e00:	b5f0      	push	{r4, r5, r6, r7, lr}
10000e02:	4657      	mov	r7, sl
10000e04:	4645      	mov	r5, r8
10000e06:	46de      	mov	lr, fp
10000e08:	464e      	mov	r6, r9
10000e0a:	b5e0      	push	{r5, r6, r7, lr}
10000e0c:	000d      	movs	r5, r1
10000e0e:	006b      	lsls	r3, r5, #1
10000e10:	6801      	ldr	r1, [r0, #0]
10000e12:	195b      	adds	r3, r3, r5
10000e14:	1edf      	subs	r7, r3, #3
10000e16:	0004      	movs	r4, r0
10000e18:	5dc8      	ldrb	r0, [r1, r7]
10000e1a:	b083      	sub	sp, #12
10000e1c:	9201      	str	r2, [sp, #4]
10000e1e:	19ca      	adds	r2, r1, r7
10000e20:	2800      	cmp	r0, #0
10000e22:	d04c      	beq.n	10000ebe <ph_remove_any_head+0xbe>
10000e24:	0043      	lsls	r3, r0, #1
10000e26:	181b      	adds	r3, r3, r0
10000e28:	3b03      	subs	r3, #3
10000e2a:	18cb      	adds	r3, r1, r3
10000e2c:	785e      	ldrb	r6, [r3, #1]
10000e2e:	46b4      	mov	ip, r6
10000e30:	2e00      	cmp	r6, #0
10000e32:	d116      	bne.n	10000e62 <ph_remove_any_head+0x62>
10000e34:	9e01      	ldr	r6, [sp, #4]
10000e36:	2e00      	cmp	r6, #0
10000e38:	d13e      	bne.n	10000eb8 <ph_remove_any_head+0xb8>
10000e3a:	7be6      	ldrb	r6, [r4, #15]
10000e3c:	2e00      	cmp	r6, #0
10000e3e:	d004      	beq.n	10000e4a <ph_remove_any_head+0x4a>
10000e40:	0073      	lsls	r3, r6, #1
10000e42:	199b      	adds	r3, r3, r6
10000e44:	18cb      	adds	r3, r1, r3
10000e46:	3b03      	subs	r3, #3
10000e48:	705d      	strb	r5, [r3, #1]
10000e4a:	73e5      	strb	r5, [r4, #15]
10000e4c:	2800      	cmp	r0, #0
10000e4e:	d12f      	bne.n	10000eb0 <ph_remove_any_head+0xb0>
10000e50:	2300      	movs	r3, #0
10000e52:	7053      	strb	r3, [r2, #1]
10000e54:	b003      	add	sp, #12
10000e56:	bc3c      	pop	{r2, r3, r4, r5}
10000e58:	4690      	mov	r8, r2
10000e5a:	4699      	mov	r9, r3
10000e5c:	46a2      	mov	sl, r4
10000e5e:	46ab      	mov	fp, r5
10000e60:	bdf0      	pop	{r4, r5, r6, r7, pc}
10000e62:	0072      	lsls	r2, r6, #1
10000e64:	4462      	add	r2, ip
10000e66:	3a03      	subs	r2, #3
10000e68:	1889      	adds	r1, r1, r2
10000e6a:	784a      	ldrb	r2, [r1, #1]
10000e6c:	4690      	mov	r8, r2
10000e6e:	2200      	movs	r2, #0
10000e70:	704a      	strb	r2, [r1, #1]
10000e72:	4691      	mov	r9, r2
10000e74:	705a      	strb	r2, [r3, #1]
10000e76:	0001      	movs	r1, r0
10000e78:	0032      	movs	r2, r6
10000e7a:	0020      	movs	r0, r4
10000e7c:	f7ff ff12 	bl	10000ca4 <ph_merge_nodes>
10000e80:	4643      	mov	r3, r8
10000e82:	4682      	mov	sl, r0
10000e84:	2b00      	cmp	r3, #0
10000e86:	d007      	beq.n	10000e98 <ph_remove_any_head+0x98>
10000e88:	005b      	lsls	r3, r3, #1
10000e8a:	6821      	ldr	r1, [r4, #0]
10000e8c:	4443      	add	r3, r8
10000e8e:	3b03      	subs	r3, #3
10000e90:	18cb      	adds	r3, r1, r3
10000e92:	785a      	ldrb	r2, [r3, #1]
10000e94:	2a00      	cmp	r2, #0
10000e96:	d116      	bne.n	10000ec6 <ph_remove_any_head+0xc6>
10000e98:	4642      	mov	r2, r8
10000e9a:	4651      	mov	r1, sl
10000e9c:	0020      	movs	r0, r4
10000e9e:	f7ff ff01 	bl	10000ca4 <ph_merge_nodes>
10000ea2:	6821      	ldr	r1, [r4, #0]
10000ea4:	9b01      	ldr	r3, [sp, #4]
10000ea6:	19ca      	adds	r2, r1, r7
10000ea8:	2b00      	cmp	r3, #0
10000eaa:	d0c6      	beq.n	10000e3a <ph_remove_any_head+0x3a>
10000eac:	2800      	cmp	r0, #0
10000eae:	d0cf      	beq.n	10000e50 <ph_remove_any_head+0x50>
10000eb0:	0043      	lsls	r3, r0, #1
10000eb2:	181b      	adds	r3, r3, r0
10000eb4:	3b03      	subs	r3, #3
10000eb6:	18cb      	adds	r3, r1, r3
10000eb8:	2100      	movs	r1, #0
10000eba:	7099      	strb	r1, [r3, #2]
10000ebc:	e7c8      	b.n	10000e50 <ph_remove_any_head+0x50>
10000ebe:	9b01      	ldr	r3, [sp, #4]
10000ec0:	2b00      	cmp	r3, #0
10000ec2:	d1c5      	bne.n	10000e50 <ph_remove_any_head+0x50>
10000ec4:	e7b9      	b.n	10000e3a <ph_remove_any_head+0x3a>
10000ec6:	0050      	lsls	r0, r2, #1
10000ec8:	1880      	adds	r0, r0, r2
10000eca:	3803      	subs	r0, #3
10000ecc:	1809      	adds	r1, r1, r0
10000ece:	7848      	ldrb	r0, [r1, #1]
10000ed0:	4683      	mov	fp, r0
10000ed2:	4648      	mov	r0, r9
10000ed4:	7048      	strb	r0, [r1, #1]
10000ed6:	7058      	strb	r0, [r3, #1]
10000ed8:	4641      	mov	r1, r8
10000eda:	0020      	movs	r0, r4
10000edc:	f7ff fee2 	bl	10000ca4 <ph_merge_nodes>
10000ee0:	4659      	mov	r1, fp
10000ee2:	4680      	mov	r8, r0
10000ee4:	0020      	movs	r0, r4
10000ee6:	f7ff ff43 	bl	10000d70 <ph_merge_two_pass>
10000eea:	4641      	mov	r1, r8
10000eec:	0002      	movs	r2, r0
10000eee:	0020      	movs	r0, r4
10000ef0:	f7ff fed8 	bl	10000ca4 <ph_merge_nodes>
10000ef4:	4680      	mov	r8, r0
10000ef6:	e7cf      	b.n	10000e98 <ph_remove_any_head+0x98>

10000ef8 <ph_remove_head_reserve>:
10000ef8:	b5f0      	push	{r4, r5, r6, r7, lr}
10000efa:	464e      	mov	r6, r9
10000efc:	4645      	mov	r5, r8
10000efe:	46de      	mov	lr, fp
10000f00:	4657      	mov	r7, sl
10000f02:	b5e0      	push	{r5, r6, r7, lr}
10000f04:	7b46      	ldrb	r6, [r0, #13]
10000f06:	0004      	movs	r4, r0
10000f08:	0075      	lsls	r5, r6, #1
10000f0a:	6800      	ldr	r0, [r0, #0]
10000f0c:	19ad      	adds	r5, r5, r6
10000f0e:	3d03      	subs	r5, #3
10000f10:	b083      	sub	sp, #12
10000f12:	9101      	str	r1, [sp, #4]
10000f14:	5d41      	ldrb	r1, [r0, r5]
10000f16:	1942      	adds	r2, r0, r5
10000f18:	2900      	cmp	r1, #0
10000f1a:	d04e      	beq.n	10000fba <ph_remove_head_reserve+0xc2>
10000f1c:	004b      	lsls	r3, r1, #1
10000f1e:	185b      	adds	r3, r3, r1
10000f20:	3b03      	subs	r3, #3
10000f22:	18c3      	adds	r3, r0, r3
10000f24:	785f      	ldrb	r7, [r3, #1]
10000f26:	46bc      	mov	ip, r7
10000f28:	2f00      	cmp	r7, #0
10000f2a:	d118      	bne.n	10000f5e <ph_remove_head_reserve+0x66>
10000f2c:	9d01      	ldr	r5, [sp, #4]
10000f2e:	2d00      	cmp	r5, #0
10000f30:	d140      	bne.n	10000fb4 <ph_remove_head_reserve+0xbc>
10000f32:	7be5      	ldrb	r5, [r4, #15]
10000f34:	2d00      	cmp	r5, #0
10000f36:	d004      	beq.n	10000f42 <ph_remove_head_reserve+0x4a>
10000f38:	006b      	lsls	r3, r5, #1
10000f3a:	195b      	adds	r3, r3, r5
10000f3c:	18c3      	adds	r3, r0, r3
10000f3e:	3b03      	subs	r3, #3
10000f40:	705e      	strb	r6, [r3, #1]
10000f42:	73e6      	strb	r6, [r4, #15]
10000f44:	2900      	cmp	r1, #0
10000f46:	d131      	bne.n	10000fac <ph_remove_head_reserve+0xb4>
10000f48:	2300      	movs	r3, #0
10000f4a:	0030      	movs	r0, r6
10000f4c:	7053      	strb	r3, [r2, #1]
10000f4e:	7361      	strb	r1, [r4, #13]
10000f50:	b003      	add	sp, #12
10000f52:	bc3c      	pop	{r2, r3, r4, r5}
10000f54:	4690      	mov	r8, r2
10000f56:	4699      	mov	r9, r3
10000f58:	46a2      	mov	sl, r4
10000f5a:	46ab      	mov	fp, r5
10000f5c:	bdf0      	pop	{r4, r5, r6, r7, pc}
10000f5e:	007a      	lsls	r2, r7, #1
10000f60:	4462      	add	r2, ip
10000f62:	3a03      	subs	r2, #3
10000f64:	1880      	adds	r0, r0, r2
10000f66:	7842      	ldrb	r2, [r0, #1]
10000f68:	4693      	mov	fp, r2
10000f6a:	2200      	movs	r2, #0
10000f6c:	7042      	strb	r2, [r0, #1]
10000f6e:	4691      	mov	r9, r2
10000f70:	705a      	strb	r2, [r3, #1]
10000f72:	0020      	movs	r0, r4
10000f74:	003a      	movs	r2, r7
10000f76:	f7ff fe95 	bl	10000ca4 <ph_merge_nodes>
10000f7a:	465b      	mov	r3, fp
10000f7c:	4680      	mov	r8, r0
10000f7e:	2b00      	cmp	r3, #0
10000f80:	d007      	beq.n	10000f92 <ph_remove_head_reserve+0x9a>
10000f82:	005b      	lsls	r3, r3, #1
10000f84:	6821      	ldr	r1, [r4, #0]
10000f86:	445b      	add	r3, fp
10000f88:	3b03      	subs	r3, #3
10000f8a:	18cb      	adds	r3, r1, r3
10000f8c:	785a      	ldrb	r2, [r3, #1]
10000f8e:	2a00      	cmp	r2, #0
10000f90:	d117      	bne.n	10000fc2 <ph_remove_head_reserve+0xca>
10000f92:	465a      	mov	r2, fp
10000f94:	4641      	mov	r1, r8
10000f96:	0020      	movs	r0, r4
10000f98:	f7ff fe84 	bl	10000ca4 <ph_merge_nodes>
10000f9c:	9b01      	ldr	r3, [sp, #4]
10000f9e:	0001      	movs	r1, r0
10000fa0:	6820      	ldr	r0, [r4, #0]
10000fa2:	1942      	adds	r2, r0, r5
10000fa4:	2b00      	cmp	r3, #0
10000fa6:	d0c4      	beq.n	10000f32 <ph_remove_head_reserve+0x3a>
10000fa8:	2900      	cmp	r1, #0
10000faa:	d0cd      	beq.n	10000f48 <ph_remove_head_reserve+0x50>
10000fac:	004b      	lsls	r3, r1, #1
10000fae:	185b      	adds	r3, r3, r1
10000fb0:	3b03      	subs	r3, #3
10000fb2:	18c3      	adds	r3, r0, r3
10000fb4:	2000      	movs	r0, #0
10000fb6:	7098      	strb	r0, [r3, #2]
10000fb8:	e7c6      	b.n	10000f48 <ph_remove_head_reserve+0x50>
10000fba:	9b01      	ldr	r3, [sp, #4]
10000fbc:	2b00      	cmp	r3, #0
10000fbe:	d1c3      	bne.n	10000f48 <ph_remove_head_reserve+0x50>
10000fc0:	e7b7      	b.n	10000f32 <ph_remove_head_reserve+0x3a>
10000fc2:	0050      	lsls	r0, r2, #1
10000fc4:	1880      	adds	r0, r0, r2
10000fc6:	3803      	subs	r0, #3
10000fc8:	1809      	adds	r1, r1, r0
10000fca:	7848      	ldrb	r0, [r1, #1]
10000fcc:	4682      	mov	sl, r0
10000fce:	4648      	mov	r0, r9
10000fd0:	7048      	strb	r0, [r1, #1]
10000fd2:	7058      	strb	r0, [r3, #1]
10000fd4:	4659      	mov	r1, fp
10000fd6:	0020      	movs	r0, r4
10000fd8:	f7ff fe64 	bl	10000ca4 <ph_merge_nodes>
10000fdc:	4653      	mov	r3, sl
10000fde:	4683      	mov	fp, r0
10000fe0:	2b00      	cmp	r3, #0
10000fe2:	d007      	beq.n	10000ff4 <ph_remove_head_reserve+0xfc>
10000fe4:	005b      	lsls	r3, r3, #1
10000fe6:	6821      	ldr	r1, [r4, #0]
10000fe8:	4453      	add	r3, sl
10000fea:	3b03      	subs	r3, #3
10000fec:	18cb      	adds	r3, r1, r3
10000fee:	785a      	ldrb	r2, [r3, #1]
10000ff0:	2a00      	cmp	r2, #0
10000ff2:	d106      	bne.n	10001002 <ph_remove_head_reserve+0x10a>
10000ff4:	4659      	mov	r1, fp
10000ff6:	4652      	mov	r2, sl
10000ff8:	0020      	movs	r0, r4
10000ffa:	f7ff fe53 	bl	10000ca4 <ph_merge_nodes>
10000ffe:	4683      	mov	fp, r0
10001000:	e7c7      	b.n	10000f92 <ph_remove_head_reserve+0x9a>
10001002:	0050      	lsls	r0, r2, #1
10001004:	1880      	adds	r0, r0, r2
10001006:	3803      	subs	r0, #3
10001008:	1809      	adds	r1, r1, r0
1000100a:	4648      	mov	r0, r9
1000100c:	784f      	ldrb	r7, [r1, #1]
1000100e:	7048      	strb	r0, [r1, #1]
10001010:	7058      	strb	r0, [r3, #1]
10001012:	4651      	mov	r1, sl
10001014:	0020      	movs	r0, r4
10001016:	f7ff fe45 	bl	10000ca4 <ph_merge_nodes>
1000101a:	0039      	movs	r1, r7
1000101c:	4681      	mov	r9, r0
1000101e:	0020      	movs	r0, r4
10001020:	f7ff fea6 	bl	10000d70 <ph_merge_two_pass>
10001024:	4649      	mov	r1, r9
10001026:	0002      	movs	r2, r0
10001028:	0020      	movs	r0, r4
1000102a:	f7ff fe3b 	bl	10000ca4 <ph_merge_nodes>
1000102e:	4682      	mov	sl, r0
10001030:	e7e0      	b.n	10000ff4 <ph_remove_head_reserve+0xfc>
10001032:	46c0      	nop			; (mov r8, r8)

10001034 <ph_delete>:
10001034:	b570      	push	{r4, r5, r6, lr}
10001036:	0004      	movs	r4, r0
10001038:	2900      	cmp	r1, #0
1000103a:	d02c      	beq.n	10001096 <ph_delete+0x62>
1000103c:	7b43      	ldrb	r3, [r0, #13]
1000103e:	428b      	cmp	r3, r1
10001040:	d02e      	beq.n	100010a0 <ph_delete+0x6c>
10001042:	6805      	ldr	r5, [r0, #0]
10001044:	0048      	lsls	r0, r1, #1
10001046:	1840      	adds	r0, r0, r1
10001048:	3803      	subs	r0, #3
1000104a:	1828      	adds	r0, r5, r0
1000104c:	7882      	ldrb	r2, [r0, #2]
1000104e:	2a00      	cmp	r2, #0
10001050:	d021      	beq.n	10001096 <ph_delete+0x62>
10001052:	0053      	lsls	r3, r2, #1
10001054:	189b      	adds	r3, r3, r2
10001056:	3b03      	subs	r3, #3
10001058:	5cea      	ldrb	r2, [r5, r3]
1000105a:	18ee      	adds	r6, r5, r3
1000105c:	428a      	cmp	r2, r1
1000105e:	d102      	bne.n	10001066 <ph_delete+0x32>
10001060:	e01b      	b.n	1000109a <ph_delete+0x66>
10001062:	2a00      	cmp	r2, #0
10001064:	d008      	beq.n	10001078 <ph_delete+0x44>
10001066:	0053      	lsls	r3, r2, #1
10001068:	189b      	adds	r3, r3, r2
1000106a:	3b03      	subs	r3, #3
1000106c:	18eb      	adds	r3, r5, r3
1000106e:	785a      	ldrb	r2, [r3, #1]
10001070:	428a      	cmp	r2, r1
10001072:	d1f6      	bne.n	10001062 <ph_delete+0x2e>
10001074:	7842      	ldrb	r2, [r0, #1]
10001076:	705a      	strb	r2, [r3, #1]
10001078:	2300      	movs	r3, #0
1000107a:	2200      	movs	r2, #0
1000107c:	7083      	strb	r3, [r0, #2]
1000107e:	7043      	strb	r3, [r0, #1]
10001080:	0020      	movs	r0, r4
10001082:	f7ff febd 	bl	10000e00 <ph_remove_any_head>
10001086:	7b61      	ldrb	r1, [r4, #13]
10001088:	0002      	movs	r2, r0
1000108a:	0020      	movs	r0, r4
1000108c:	f7ff fe0a 	bl	10000ca4 <ph_merge_nodes>
10001090:	7360      	strb	r0, [r4, #13]
10001092:	2001      	movs	r0, #1
10001094:	e000      	b.n	10001098 <ph_delete+0x64>
10001096:	2000      	movs	r0, #0
10001098:	bd70      	pop	{r4, r5, r6, pc}
1000109a:	7843      	ldrb	r3, [r0, #1]
1000109c:	7033      	strb	r3, [r6, #0]
1000109e:	e7eb      	b.n	10001078 <ph_delete+0x44>
100010a0:	2200      	movs	r2, #0
100010a2:	0019      	movs	r1, r3
100010a4:	f7ff feac 	bl	10000e00 <ph_remove_any_head>
100010a8:	7360      	strb	r0, [r4, #13]
100010aa:	2001      	movs	r0, #1
100010ac:	e7f4      	b.n	10001098 <ph_delete+0x64>
100010ae:	46c0      	nop			; (mov r8, r8)

100010b0 <runtime_init>:
100010b0:	4b2b      	ldr	r3, [pc, #172]	; (10001160 <runtime_init+0xb0>)
100010b2:	4a2c      	ldr	r2, [pc, #176]	; (10001164 <runtime_init+0xb4>)
100010b4:	b570      	push	{r4, r5, r6, lr}
100010b6:	601a      	str	r2, [r3, #0]
100010b8:	4a2b      	ldr	r2, [pc, #172]	; (10001168 <runtime_init+0xb8>)
100010ba:	4b2c      	ldr	r3, [pc, #176]	; (1000116c <runtime_init+0xbc>)
100010bc:	492c      	ldr	r1, [pc, #176]	; (10001170 <runtime_init+0xc0>)
100010be:	601a      	str	r2, [r3, #0]
100010c0:	0010      	movs	r0, r2
100010c2:	688b      	ldr	r3, [r1, #8]
100010c4:	4398      	bics	r0, r3
100010c6:	d1fb      	bne.n	100010c0 <runtime_init+0x10>
100010c8:	4c2a      	ldr	r4, [pc, #168]	; (10001174 <runtime_init+0xc4>)
100010ca:	4b2b      	ldr	r3, [pc, #172]	; (10001178 <runtime_init+0xc8>)
100010cc:	429c      	cmp	r4, r3
100010ce:	d209      	bcs.n	100010e4 <runtime_init+0x34>
100010d0:	3b01      	subs	r3, #1
100010d2:	1b1d      	subs	r5, r3, r4
100010d4:	08ad      	lsrs	r5, r5, #2
100010d6:	3501      	adds	r5, #1
100010d8:	00ad      	lsls	r5, r5, #2
100010da:	192d      	adds	r5, r5, r4
100010dc:	cc08      	ldmia	r4!, {r3}
100010de:	4798      	blx	r3
100010e0:	42ac      	cmp	r4, r5
100010e2:	d1fb      	bne.n	100010dc <runtime_init+0x2c>
100010e4:	f000 f894 	bl	10001210 <clocks_init>
100010e8:	4a24      	ldr	r2, [pc, #144]	; (1000117c <runtime_init+0xcc>)
100010ea:	4b20      	ldr	r3, [pc, #128]	; (1000116c <runtime_init+0xbc>)
100010ec:	601a      	str	r2, [r3, #0]
100010ee:	4a20      	ldr	r2, [pc, #128]	; (10001170 <runtime_init+0xc0>)
100010f0:	6893      	ldr	r3, [r2, #8]
100010f2:	01db      	lsls	r3, r3, #7
100010f4:	3380      	adds	r3, #128	; 0x80
100010f6:	d1fb      	bne.n	100010f0 <runtime_init+0x40>
100010f8:	2240      	movs	r2, #64	; 0x40
100010fa:	4b21      	ldr	r3, [pc, #132]	; (10001180 <runtime_init+0xd0>)
100010fc:	4c21      	ldr	r4, [pc, #132]	; (10001184 <runtime_init+0xd4>)
100010fe:	679a      	str	r2, [r3, #120]	; 0x78
10001100:	675a      	str	r2, [r3, #116]	; 0x74
10001102:	671a      	str	r2, [r3, #112]	; 0x70
10001104:	66da      	str	r2, [r3, #108]	; 0x6c
10001106:	4b20      	ldr	r3, [pc, #128]	; (10001188 <runtime_init+0xd8>)
10001108:	429c      	cmp	r4, r3
1000110a:	d20b      	bcs.n	10001124 <runtime_init+0x74>
1000110c:	3b01      	subs	r3, #1
1000110e:	1b1d      	subs	r5, r3, r4
10001110:	08ed      	lsrs	r5, r5, #3
10001112:	3501      	adds	r5, #1
10001114:	00ed      	lsls	r5, r5, #3
10001116:	192d      	adds	r5, r5, r4
10001118:	0020      	movs	r0, r4
1000111a:	3408      	adds	r4, #8
1000111c:	f7ff fdb6 	bl	10000c8c <mutex_init>
10001120:	42ac      	cmp	r4, r5
10001122:	d1f9      	bne.n	10001118 <runtime_init+0x68>
10001124:	4c19      	ldr	r4, [pc, #100]	; (1000118c <runtime_init+0xdc>)
10001126:	4d1a      	ldr	r5, [pc, #104]	; (10001190 <runtime_init+0xe0>)
10001128:	68a1      	ldr	r1, [r4, #8]
1000112a:	22c0      	movs	r2, #192	; 0xc0
1000112c:	0028      	movs	r0, r5
1000112e:	f000 fd15 	bl	10001b5c <__wrap___aeabi_memcpy>
10001132:	60a5      	str	r5, [r4, #8]
10001134:	f7ff f9d6 	bl	100004e4 <spin_locks_reset>
10001138:	f000 fbaa 	bl	10001890 <irq_init_priorities>
1000113c:	f7ff fc28 	bl	10000990 <alarm_pool_init_default>
10001140:	4c14      	ldr	r4, [pc, #80]	; (10001194 <runtime_init+0xe4>)
10001142:	4b15      	ldr	r3, [pc, #84]	; (10001198 <runtime_init+0xe8>)
10001144:	429c      	cmp	r4, r3
10001146:	d209      	bcs.n	1000115c <runtime_init+0xac>
10001148:	3b01      	subs	r3, #1
1000114a:	1b1d      	subs	r5, r3, r4
1000114c:	08ad      	lsrs	r5, r5, #2
1000114e:	3501      	adds	r5, #1
10001150:	00ad      	lsls	r5, r5, #2
10001152:	192d      	adds	r5, r5, r4
10001154:	cc08      	ldmia	r4!, {r3}
10001156:	4798      	blx	r3
10001158:	42a5      	cmp	r5, r4
1000115a:	d1fb      	bne.n	10001154 <runtime_init+0xa4>
1000115c:	bd70      	pop	{r4, r5, r6, pc}
1000115e:	46c0      	nop			; (mov r8, r8)
10001160:	4000e000 	.word	0x4000e000
10001164:	ffffcdbf 	.word	0xffffcdbf
10001168:	003c7ffe 	.word	0x003c7ffe
1000116c:	4000f000 	.word	0x4000f000
10001170:	4000c000 	.word	0x4000c000
10001174:	20000a48 	.word	0x20000a48
10001178:	20000a58 	.word	0x20000a58
1000117c:	01ffffff 	.word	0x01ffffff
10001180:	4001f000 	.word	0x4001f000
10001184:	20000a40 	.word	0x20000a40
10001188:	20000a48 	.word	0x20000a48
1000118c:	e000ed00 	.word	0xe000ed00
10001190:	20000000 	.word	0x20000000
10001194:	20000a58 	.word	0x20000a58
10001198:	20000a5c 	.word	0x20000a5c

1000119c <_sbrk>:
1000119c:	4a09      	ldr	r2, [pc, #36]	; (100011c4 <_sbrk+0x28>)
1000119e:	0003      	movs	r3, r0
100011a0:	6810      	ldr	r0, [r2, #0]
100011a2:	2800      	cmp	r0, #0
100011a4:	d005      	beq.n	100011b2 <_sbrk+0x16>
100011a6:	4908      	ldr	r1, [pc, #32]	; (100011c8 <_sbrk+0x2c>)
100011a8:	18c3      	adds	r3, r0, r3
100011aa:	428b      	cmp	r3, r1
100011ac:	d207      	bcs.n	100011be <_sbrk+0x22>
100011ae:	6013      	str	r3, [r2, #0]
100011b0:	4770      	bx	lr
100011b2:	4806      	ldr	r0, [pc, #24]	; (100011cc <_sbrk+0x30>)
100011b4:	4904      	ldr	r1, [pc, #16]	; (100011c8 <_sbrk+0x2c>)
100011b6:	18c3      	adds	r3, r0, r3
100011b8:	6010      	str	r0, [r2, #0]
100011ba:	428b      	cmp	r3, r1
100011bc:	d3f7      	bcc.n	100011ae <_sbrk+0x12>
100011be:	2001      	movs	r0, #1
100011c0:	4240      	negs	r0, r0
100011c2:	e7f5      	b.n	100011b0 <_sbrk+0x14>
100011c4:	20000af4 	.word	0x20000af4
100011c8:	20040000 	.word	0x20040000
100011cc:	20000d50 	.word	0x20000d50

100011d0 <exit>:
100011d0:	be00      	bkpt	0x0000
100011d2:	e7fd      	b.n	100011d0 <exit>

100011d4 <panic>:
100011d4:	b40f      	push	{r0, r1, r2, r3}
100011d6:	b500      	push	{lr}
100011d8:	4808      	ldr	r0, [pc, #32]	; (100011fc <panic+0x28>)
100011da:	b083      	sub	sp, #12
100011dc:	f000 fd94 	bl	10001d08 <__wrap_puts>
100011e0:	9b04      	ldr	r3, [sp, #16]
100011e2:	2b00      	cmp	r3, #0
100011e4:	d007      	beq.n	100011f6 <panic+0x22>
100011e6:	a905      	add	r1, sp, #20
100011e8:	0018      	movs	r0, r3
100011ea:	9101      	str	r1, [sp, #4]
100011ec:	f000 fb74 	bl	100018d8 <weak_raw_vprintf>
100011f0:	4803      	ldr	r0, [pc, #12]	; (10001200 <panic+0x2c>)
100011f2:	f000 fd89 	bl	10001d08 <__wrap_puts>
100011f6:	be00      	bkpt	0x0000
100011f8:	e7fd      	b.n	100011f6 <panic+0x22>
100011fa:	46c0      	nop			; (mov r8, r8)
100011fc:	100026d8 	.word	0x100026d8
10001200:	100026e8 	.word	0x100026e8

10001204 <hard_assertion_failure>:
10001204:	b510      	push	{r4, lr}
10001206:	4801      	ldr	r0, [pc, #4]	; (1000120c <hard_assertion_failure+0x8>)
10001208:	f7ff ffe4 	bl	100011d4 <panic>
1000120c:	100026ec 	.word	0x100026ec

10001210 <clocks_init>:
10001210:	b530      	push	{r4, r5, lr}
10001212:	200c      	movs	r0, #12
10001214:	b083      	sub	sp, #12
10001216:	f000 f971 	bl	100014fc <watchdog_start_tick>
1000121a:	f7ff f97d 	bl	10000518 <running_on_fpga>
1000121e:	2800      	cmp	r0, #0
10001220:	d00e      	beq.n	10001240 <clocks_init+0x30>
10001222:	4b9a      	ldr	r3, [pc, #616]	; (1000148c <clocks_init+0x27c>)
10001224:	4a9a      	ldr	r2, [pc, #616]	; (10001490 <clocks_init+0x280>)
10001226:	601a      	str	r2, [r3, #0]
10001228:	605a      	str	r2, [r3, #4]
1000122a:	609a      	str	r2, [r3, #8]
1000122c:	60da      	str	r2, [r3, #12]
1000122e:	611a      	str	r2, [r3, #16]
10001230:	615a      	str	r2, [r3, #20]
10001232:	619a      	str	r2, [r3, #24]
10001234:	61da      	str	r2, [r3, #28]
10001236:	621a      	str	r2, [r3, #32]
10001238:	4a96      	ldr	r2, [pc, #600]	; (10001494 <clocks_init+0x284>)
1000123a:	625a      	str	r2, [r3, #36]	; 0x24
1000123c:	b003      	add	sp, #12
1000123e:	bd30      	pop	{r4, r5, pc}
10001240:	4c95      	ldr	r4, [pc, #596]	; (10001498 <clocks_init+0x288>)
10001242:	67a0      	str	r0, [r4, #120]	; 0x78
10001244:	f000 f962 	bl	1000150c <xosc_init>
10001248:	2201      	movs	r2, #1
1000124a:	4b94      	ldr	r3, [pc, #592]	; (1000149c <clocks_init+0x28c>)
1000124c:	601a      	str	r2, [r3, #0]
1000124e:	6c63      	ldr	r3, [r4, #68]	; 0x44
10001250:	2b01      	cmp	r3, #1
10001252:	d1fc      	bne.n	1000124e <clocks_init+0x3e>
10001254:	2203      	movs	r2, #3
10001256:	4b92      	ldr	r3, [pc, #584]	; (100014a0 <clocks_init+0x290>)
10001258:	601a      	str	r2, [r3, #0]
1000125a:	4a8f      	ldr	r2, [pc, #572]	; (10001498 <clocks_init+0x288>)
1000125c:	6b93      	ldr	r3, [r2, #56]	; 0x38
1000125e:	2b01      	cmp	r3, #1
10001260:	d1fc      	bne.n	1000125c <clocks_init+0x4c>
10001262:	22c0      	movs	r2, #192	; 0xc0
10001264:	4b8f      	ldr	r3, [pc, #572]	; (100014a4 <clocks_init+0x294>)
10001266:	0192      	lsls	r2, r2, #6
10001268:	601a      	str	r2, [r3, #0]
1000126a:	4b8f      	ldr	r3, [pc, #572]	; (100014a8 <clocks_init+0x298>)
1000126c:	498f      	ldr	r1, [pc, #572]	; (100014ac <clocks_init+0x29c>)
1000126e:	601a      	str	r2, [r3, #0]
10001270:	0010      	movs	r0, r2
10001272:	688b      	ldr	r3, [r1, #8]
10001274:	4398      	bics	r0, r3
10001276:	1e03      	subs	r3, r0, #0
10001278:	d1fa      	bne.n	10001270 <clocks_init+0x60>
1000127a:	2402      	movs	r4, #2
1000127c:	2101      	movs	r1, #1
1000127e:	4a8c      	ldr	r2, [pc, #560]	; (100014b0 <clocks_init+0x2a0>)
10001280:	488c      	ldr	r0, [pc, #560]	; (100014b4 <clocks_init+0x2a4>)
10001282:	3306      	adds	r3, #6
10001284:	9400      	str	r4, [sp, #0]
10001286:	f000 f955 	bl	10001534 <pll_init>
1000128a:	2305      	movs	r3, #5
1000128c:	4a8a      	ldr	r2, [pc, #552]	; (100014b8 <clocks_init+0x2a8>)
1000128e:	2101      	movs	r1, #1
10001290:	488a      	ldr	r0, [pc, #552]	; (100014bc <clocks_init+0x2ac>)
10001292:	9400      	str	r4, [sp, #0]
10001294:	f000 f94e 	bl	10001534 <pll_init>
10001298:	4b89      	ldr	r3, [pc, #548]	; (100014c0 <clocks_init+0x2b0>)
1000129a:	685a      	ldr	r2, [r3, #4]
1000129c:	2aff      	cmp	r2, #255	; 0xff
1000129e:	d802      	bhi.n	100012a6 <clocks_init+0x96>
100012a0:	2280      	movs	r2, #128	; 0x80
100012a2:	0052      	lsls	r2, r2, #1
100012a4:	605a      	str	r2, [r3, #4]
100012a6:	2280      	movs	r2, #128	; 0x80
100012a8:	4c78      	ldr	r4, [pc, #480]	; (1000148c <clocks_init+0x27c>)
100012aa:	4b7d      	ldr	r3, [pc, #500]	; (100014a0 <clocks_init+0x290>)
100012ac:	6921      	ldr	r1, [r4, #16]
100012ae:	0112      	lsls	r2, r2, #4
100012b0:	4d83      	ldr	r5, [pc, #524]	; (100014c0 <clocks_init+0x2b0>)
100012b2:	601a      	str	r2, [r3, #0]
100012b4:	2900      	cmp	r1, #0
100012b6:	d005      	beq.n	100012c4 <clocks_init+0xb4>
100012b8:	6960      	ldr	r0, [r4, #20]
100012ba:	f000 fb5b 	bl	10001974 <__wrap___aeabi_uidiv>
100012be:	3001      	adds	r0, #1
100012c0:	3801      	subs	r0, #1
100012c2:	d1fd      	bne.n	100012c0 <clocks_init+0xb0>
100012c4:	21e0      	movs	r1, #224	; 0xe0
100012c6:	4b7e      	ldr	r3, [pc, #504]	; (100014c0 <clocks_init+0x2b0>)
100012c8:	2002      	movs	r0, #2
100012ca:	681a      	ldr	r2, [r3, #0]
100012cc:	4011      	ands	r1, r2
100012ce:	2280      	movs	r2, #128	; 0x80
100012d0:	0152      	lsls	r2, r2, #5
100012d2:	432a      	orrs	r2, r5
100012d4:	6011      	str	r1, [r2, #0]
100012d6:	6819      	ldr	r1, [r3, #0]
100012d8:	4048      	eors	r0, r1
100012da:	2103      	movs	r1, #3
100012dc:	4001      	ands	r1, r0
100012de:	6011      	str	r1, [r2, #0]
100012e0:	2104      	movs	r1, #4
100012e2:	689a      	ldr	r2, [r3, #8]
100012e4:	4211      	tst	r1, r2
100012e6:	d0fc      	beq.n	100012e2 <clocks_init+0xd2>
100012e8:	2280      	movs	r2, #128	; 0x80
100012ea:	2180      	movs	r1, #128	; 0x80
100012ec:	0192      	lsls	r2, r2, #6
100012ee:	432a      	orrs	r2, r5
100012f0:	0109      	lsls	r1, r1, #4
100012f2:	6011      	str	r1, [r2, #0]
100012f4:	2280      	movs	r2, #128	; 0x80
100012f6:	0052      	lsls	r2, r2, #1
100012f8:	605a      	str	r2, [r3, #4]
100012fa:	4b72      	ldr	r3, [pc, #456]	; (100014c4 <clocks_init+0x2b4>)
100012fc:	6123      	str	r3, [r4, #16]
100012fe:	4b72      	ldr	r3, [pc, #456]	; (100014c8 <clocks_init+0x2b8>)
10001300:	6859      	ldr	r1, [r3, #4]
10001302:	29ff      	cmp	r1, #255	; 0xff
10001304:	d800      	bhi.n	10001308 <clocks_init+0xf8>
10001306:	605a      	str	r2, [r3, #4]
10001308:	2203      	movs	r2, #3
1000130a:	486f      	ldr	r0, [pc, #444]	; (100014c8 <clocks_init+0x2b8>)
1000130c:	4b63      	ldr	r3, [pc, #396]	; (1000149c <clocks_init+0x28c>)
1000130e:	2101      	movs	r1, #1
10001310:	601a      	str	r2, [r3, #0]
10001312:	0002      	movs	r2, r0
10001314:	6893      	ldr	r3, [r2, #8]
10001316:	4219      	tst	r1, r3
10001318:	d0fc      	beq.n	10001314 <clocks_init+0x104>
1000131a:	25e0      	movs	r5, #224	; 0xe0
1000131c:	6813      	ldr	r3, [r2, #0]
1000131e:	401d      	ands	r5, r3
10001320:	2380      	movs	r3, #128	; 0x80
10001322:	015b      	lsls	r3, r3, #5
10001324:	4303      	orrs	r3, r0
10001326:	601d      	str	r5, [r3, #0]
10001328:	6812      	ldr	r2, [r2, #0]
1000132a:	404a      	eors	r2, r1
1000132c:	2103      	movs	r1, #3
1000132e:	4011      	ands	r1, r2
10001330:	6019      	str	r1, [r3, #0]
10001332:	2102      	movs	r1, #2
10001334:	4a64      	ldr	r2, [pc, #400]	; (100014c8 <clocks_init+0x2b8>)
10001336:	6893      	ldr	r3, [r2, #8]
10001338:	4219      	tst	r1, r3
1000133a:	d0fc      	beq.n	10001336 <clocks_init+0x126>
1000133c:	2380      	movs	r3, #128	; 0x80
1000133e:	2180      	movs	r1, #128	; 0x80
10001340:	019b      	lsls	r3, r3, #6
10001342:	4303      	orrs	r3, r0
10001344:	0109      	lsls	r1, r1, #4
10001346:	6019      	str	r1, [r3, #0]
10001348:	2180      	movs	r1, #128	; 0x80
1000134a:	4b60      	ldr	r3, [pc, #384]	; (100014cc <clocks_init+0x2bc>)
1000134c:	0049      	lsls	r1, r1, #1
1000134e:	6051      	str	r1, [r2, #4]
10001350:	6163      	str	r3, [r4, #20]
10001352:	4b5f      	ldr	r3, [pc, #380]	; (100014d0 <clocks_init+0x2c0>)
10001354:	685a      	ldr	r2, [r3, #4]
10001356:	2aff      	cmp	r2, #255	; 0xff
10001358:	d800      	bhi.n	1000135c <clocks_init+0x14c>
1000135a:	6059      	str	r1, [r3, #4]
1000135c:	2280      	movs	r2, #128	; 0x80
1000135e:	4b5d      	ldr	r3, [pc, #372]	; (100014d4 <clocks_init+0x2c4>)
10001360:	69e1      	ldr	r1, [r4, #28]
10001362:	0112      	lsls	r2, r2, #4
10001364:	4d5a      	ldr	r5, [pc, #360]	; (100014d0 <clocks_init+0x2c0>)
10001366:	601a      	str	r2, [r3, #0]
10001368:	2900      	cmp	r1, #0
1000136a:	d005      	beq.n	10001378 <clocks_init+0x168>
1000136c:	6960      	ldr	r0, [r4, #20]
1000136e:	f000 fb01 	bl	10001974 <__wrap___aeabi_uidiv>
10001372:	3001      	adds	r0, #1
10001374:	3801      	subs	r0, #1
10001376:	d1fd      	bne.n	10001374 <clocks_init+0x164>
10001378:	22e0      	movs	r2, #224	; 0xe0
1000137a:	4955      	ldr	r1, [pc, #340]	; (100014d0 <clocks_init+0x2c0>)
1000137c:	680b      	ldr	r3, [r1, #0]
1000137e:	401a      	ands	r2, r3
10001380:	2380      	movs	r3, #128	; 0x80
10001382:	015b      	lsls	r3, r3, #5
10001384:	432b      	orrs	r3, r5
10001386:	601a      	str	r2, [r3, #0]
10001388:	2380      	movs	r3, #128	; 0x80
1000138a:	2280      	movs	r2, #128	; 0x80
1000138c:	019b      	lsls	r3, r3, #6
1000138e:	432b      	orrs	r3, r5
10001390:	0112      	lsls	r2, r2, #4
10001392:	601a      	str	r2, [r3, #0]
10001394:	2280      	movs	r2, #128	; 0x80
10001396:	4b3e      	ldr	r3, [pc, #248]	; (10001490 <clocks_init+0x280>)
10001398:	0052      	lsls	r2, r2, #1
1000139a:	604a      	str	r2, [r1, #4]
1000139c:	61e3      	str	r3, [r4, #28]
1000139e:	4b4e      	ldr	r3, [pc, #312]	; (100014d8 <clocks_init+0x2c8>)
100013a0:	6859      	ldr	r1, [r3, #4]
100013a2:	29ff      	cmp	r1, #255	; 0xff
100013a4:	d800      	bhi.n	100013a8 <clocks_init+0x198>
100013a6:	605a      	str	r2, [r3, #4]
100013a8:	2280      	movs	r2, #128	; 0x80
100013aa:	4b4c      	ldr	r3, [pc, #304]	; (100014dc <clocks_init+0x2cc>)
100013ac:	6a21      	ldr	r1, [r4, #32]
100013ae:	0112      	lsls	r2, r2, #4
100013b0:	4d49      	ldr	r5, [pc, #292]	; (100014d8 <clocks_init+0x2c8>)
100013b2:	601a      	str	r2, [r3, #0]
100013b4:	2900      	cmp	r1, #0
100013b6:	d005      	beq.n	100013c4 <clocks_init+0x1b4>
100013b8:	6960      	ldr	r0, [r4, #20]
100013ba:	f000 fadb 	bl	10001974 <__wrap___aeabi_uidiv>
100013be:	3001      	adds	r0, #1
100013c0:	3801      	subs	r0, #1
100013c2:	d1fd      	bne.n	100013c0 <clocks_init+0x1b0>
100013c4:	22e0      	movs	r2, #224	; 0xe0
100013c6:	4944      	ldr	r1, [pc, #272]	; (100014d8 <clocks_init+0x2c8>)
100013c8:	680b      	ldr	r3, [r1, #0]
100013ca:	401a      	ands	r2, r3
100013cc:	2380      	movs	r3, #128	; 0x80
100013ce:	015b      	lsls	r3, r3, #5
100013d0:	432b      	orrs	r3, r5
100013d2:	601a      	str	r2, [r3, #0]
100013d4:	2380      	movs	r3, #128	; 0x80
100013d6:	2280      	movs	r2, #128	; 0x80
100013d8:	019b      	lsls	r3, r3, #6
100013da:	432b      	orrs	r3, r5
100013dc:	0112      	lsls	r2, r2, #4
100013de:	601a      	str	r2, [r3, #0]
100013e0:	2380      	movs	r3, #128	; 0x80
100013e2:	2280      	movs	r2, #128	; 0x80
100013e4:	005b      	lsls	r3, r3, #1
100013e6:	604b      	str	r3, [r1, #4]
100013e8:	4b29      	ldr	r3, [pc, #164]	; (10001490 <clocks_init+0x280>)
100013ea:	02d2      	lsls	r2, r2, #11
100013ec:	6223      	str	r3, [r4, #32]
100013ee:	4b3c      	ldr	r3, [pc, #240]	; (100014e0 <clocks_init+0x2d0>)
100013f0:	6859      	ldr	r1, [r3, #4]
100013f2:	4291      	cmp	r1, r2
100013f4:	d200      	bcs.n	100013f8 <clocks_init+0x1e8>
100013f6:	605a      	str	r2, [r3, #4]
100013f8:	2280      	movs	r2, #128	; 0x80
100013fa:	4b3a      	ldr	r3, [pc, #232]	; (100014e4 <clocks_init+0x2d4>)
100013fc:	6a61      	ldr	r1, [r4, #36]	; 0x24
100013fe:	0112      	lsls	r2, r2, #4
10001400:	4d37      	ldr	r5, [pc, #220]	; (100014e0 <clocks_init+0x2d0>)
10001402:	601a      	str	r2, [r3, #0]
10001404:	2900      	cmp	r1, #0
10001406:	d005      	beq.n	10001414 <clocks_init+0x204>
10001408:	6960      	ldr	r0, [r4, #20]
1000140a:	f000 fab3 	bl	10001974 <__wrap___aeabi_uidiv>
1000140e:	3001      	adds	r0, #1
10001410:	3801      	subs	r0, #1
10001412:	d1fd      	bne.n	10001410 <clocks_init+0x200>
10001414:	22e0      	movs	r2, #224	; 0xe0
10001416:	4932      	ldr	r1, [pc, #200]	; (100014e0 <clocks_init+0x2d0>)
10001418:	680b      	ldr	r3, [r1, #0]
1000141a:	401a      	ands	r2, r3
1000141c:	2380      	movs	r3, #128	; 0x80
1000141e:	015b      	lsls	r3, r3, #5
10001420:	432b      	orrs	r3, r5
10001422:	601a      	str	r2, [r3, #0]
10001424:	2380      	movs	r3, #128	; 0x80
10001426:	2280      	movs	r2, #128	; 0x80
10001428:	019b      	lsls	r3, r3, #6
1000142a:	432b      	orrs	r3, r5
1000142c:	0112      	lsls	r2, r2, #4
1000142e:	601a      	str	r2, [r3, #0]
10001430:	2380      	movs	r3, #128	; 0x80
10001432:	02db      	lsls	r3, r3, #11
10001434:	604b      	str	r3, [r1, #4]
10001436:	4b17      	ldr	r3, [pc, #92]	; (10001494 <clocks_init+0x284>)
10001438:	6263      	str	r3, [r4, #36]	; 0x24
1000143a:	4b2b      	ldr	r3, [pc, #172]	; (100014e8 <clocks_init+0x2d8>)
1000143c:	685a      	ldr	r2, [r3, #4]
1000143e:	2aff      	cmp	r2, #255	; 0xff
10001440:	d802      	bhi.n	10001448 <clocks_init+0x238>
10001442:	2280      	movs	r2, #128	; 0x80
10001444:	0052      	lsls	r2, r2, #1
10001446:	605a      	str	r2, [r3, #4]
10001448:	2280      	movs	r2, #128	; 0x80
1000144a:	4b28      	ldr	r3, [pc, #160]	; (100014ec <clocks_init+0x2dc>)
1000144c:	69a1      	ldr	r1, [r4, #24]
1000144e:	0112      	lsls	r2, r2, #4
10001450:	4d25      	ldr	r5, [pc, #148]	; (100014e8 <clocks_init+0x2d8>)
10001452:	601a      	str	r2, [r3, #0]
10001454:	2900      	cmp	r1, #0
10001456:	d005      	beq.n	10001464 <clocks_init+0x254>
10001458:	6960      	ldr	r0, [r4, #20]
1000145a:	f000 fa8b 	bl	10001974 <__wrap___aeabi_uidiv>
1000145e:	3001      	adds	r0, #1
10001460:	3801      	subs	r0, #1
10001462:	d1fd      	bne.n	10001460 <clocks_init+0x250>
10001464:	22e0      	movs	r2, #224	; 0xe0
10001466:	4920      	ldr	r1, [pc, #128]	; (100014e8 <clocks_init+0x2d8>)
10001468:	680b      	ldr	r3, [r1, #0]
1000146a:	401a      	ands	r2, r3
1000146c:	2380      	movs	r3, #128	; 0x80
1000146e:	015b      	lsls	r3, r3, #5
10001470:	432b      	orrs	r3, r5
10001472:	601a      	str	r2, [r3, #0]
10001474:	2380      	movs	r3, #128	; 0x80
10001476:	2280      	movs	r2, #128	; 0x80
10001478:	019b      	lsls	r3, r3, #6
1000147a:	432b      	orrs	r3, r5
1000147c:	0112      	lsls	r2, r2, #4
1000147e:	601a      	str	r2, [r3, #0]
10001480:	2380      	movs	r3, #128	; 0x80
10001482:	005b      	lsls	r3, r3, #1
10001484:	604b      	str	r3, [r1, #4]
10001486:	4b11      	ldr	r3, [pc, #68]	; (100014cc <clocks_init+0x2bc>)
10001488:	61a3      	str	r3, [r4, #24]
1000148a:	e6d7      	b.n	1000123c <clocks_init+0x2c>
1000148c:	20000ac0 	.word	0x20000ac0
10001490:	02dc6c00 	.word	0x02dc6c00
10001494:	0000b71b 	.word	0x0000b71b
10001498:	40008000 	.word	0x40008000
1000149c:	4000b03c 	.word	0x4000b03c
100014a0:	4000b030 	.word	0x4000b030
100014a4:	4000e000 	.word	0x4000e000
100014a8:	4000f000 	.word	0x4000f000
100014ac:	4000c000 	.word	0x4000c000
100014b0:	59682f00 	.word	0x59682f00
100014b4:	40028000 	.word	0x40028000
100014b8:	1c9c3800 	.word	0x1c9c3800
100014bc:	4002c000 	.word	0x4002c000
100014c0:	40008030 	.word	0x40008030
100014c4:	00b71b00 	.word	0x00b71b00
100014c8:	4000803c 	.word	0x4000803c
100014cc:	07735940 	.word	0x07735940
100014d0:	40008054 	.word	0x40008054
100014d4:	4000b054 	.word	0x4000b054
100014d8:	40008060 	.word	0x40008060
100014dc:	4000b060 	.word	0x4000b060
100014e0:	4000806c 	.word	0x4000806c
100014e4:	4000b06c 	.word	0x4000b06c
100014e8:	40008048 	.word	0x40008048
100014ec:	4000b048 	.word	0x4000b048

100014f0 <clock_get_hz>:
100014f0:	4b01      	ldr	r3, [pc, #4]	; (100014f8 <clock_get_hz+0x8>)
100014f2:	0080      	lsls	r0, r0, #2
100014f4:	58c0      	ldr	r0, [r0, r3]
100014f6:	4770      	bx	lr
100014f8:	20000ac0 	.word	0x20000ac0

100014fc <watchdog_start_tick>:
100014fc:	2380      	movs	r3, #128	; 0x80
100014fe:	4a02      	ldr	r2, [pc, #8]	; (10001508 <watchdog_start_tick+0xc>)
10001500:	009b      	lsls	r3, r3, #2
10001502:	4303      	orrs	r3, r0
10001504:	62d3      	str	r3, [r2, #44]	; 0x2c
10001506:	4770      	bx	lr
10001508:	40058000 	.word	0x40058000

1000150c <xosc_init>:
1000150c:	23aa      	movs	r3, #170	; 0xaa
1000150e:	4a06      	ldr	r2, [pc, #24]	; (10001528 <xosc_init+0x1c>)
10001510:	011b      	lsls	r3, r3, #4
10001512:	6013      	str	r3, [r2, #0]
10001514:	232f      	movs	r3, #47	; 0x2f
10001516:	4905      	ldr	r1, [pc, #20]	; (1000152c <xosc_init+0x20>)
10001518:	60d3      	str	r3, [r2, #12]
1000151a:	4b05      	ldr	r3, [pc, #20]	; (10001530 <xosc_init+0x24>)
1000151c:	6019      	str	r1, [r3, #0]
1000151e:	6853      	ldr	r3, [r2, #4]
10001520:	2b00      	cmp	r3, #0
10001522:	dafc      	bge.n	1000151e <xosc_init+0x12>
10001524:	4770      	bx	lr
10001526:	46c0      	nop			; (mov r8, r8)
10001528:	40024000 	.word	0x40024000
1000152c:	00fab000 	.word	0x00fab000
10001530:	40026000 	.word	0x40026000

10001534 <pll_init>:
10001534:	b5f8      	push	{r3, r4, r5, r6, r7, lr}
10001536:	001d      	movs	r5, r3
10001538:	ab06      	add	r3, sp, #24
1000153a:	781e      	ldrb	r6, [r3, #0]
1000153c:	2301      	movs	r3, #1
1000153e:	425b      	negs	r3, r3
10001540:	6043      	str	r3, [r0, #4]
10001542:	2300      	movs	r3, #0
10001544:	0004      	movs	r4, r0
10001546:	6083      	str	r3, [r0, #8]
10001548:	6001      	str	r1, [r0, #0]
1000154a:	200c      	movs	r0, #12
1000154c:	0017      	movs	r7, r2
1000154e:	f000 fa11 	bl	10001974 <__wrap___aeabi_uidiv>
10001552:	0141      	lsls	r1, r0, #5
10001554:	1a09      	subs	r1, r1, r0
10001556:	018b      	lsls	r3, r1, #6
10001558:	1a59      	subs	r1, r3, r1
1000155a:	00c9      	lsls	r1, r1, #3
1000155c:	1809      	adds	r1, r1, r0
1000155e:	0189      	lsls	r1, r1, #6
10001560:	0038      	movs	r0, r7
10001562:	f000 fa07 	bl	10001974 <__wrap___aeabi_uidiv>
10001566:	21c0      	movs	r1, #192	; 0xc0
10001568:	1d23      	adds	r3, r4, #4
1000156a:	0189      	lsls	r1, r1, #6
1000156c:	4319      	orrs	r1, r3
1000156e:	2321      	movs	r3, #33	; 0x21
10001570:	60a0      	str	r0, [r4, #8]
10001572:	600b      	str	r3, [r1, #0]
10001574:	6822      	ldr	r2, [r4, #0]
10001576:	2a00      	cmp	r2, #0
10001578:	dafc      	bge.n	10001574 <pll_init+0x40>
1000157a:	2308      	movs	r3, #8
1000157c:	042d      	lsls	r5, r5, #16
1000157e:	0336      	lsls	r6, r6, #12
10001580:	432e      	orrs	r6, r5
10001582:	60e6      	str	r6, [r4, #12]
10001584:	600b      	str	r3, [r1, #0]
10001586:	bdf8      	pop	{r3, r4, r5, r6, r7, pc}

10001588 <irq_set_enabled>:
10001588:	2301      	movs	r3, #1
1000158a:	4083      	lsls	r3, r0
1000158c:	2900      	cmp	r1, #0
1000158e:	d004      	beq.n	1000159a <irq_set_enabled+0x12>
10001590:	4a03      	ldr	r2, [pc, #12]	; (100015a0 <irq_set_enabled+0x18>)
10001592:	6013      	str	r3, [r2, #0]
10001594:	4a03      	ldr	r2, [pc, #12]	; (100015a4 <irq_set_enabled+0x1c>)
10001596:	6013      	str	r3, [r2, #0]
10001598:	4770      	bx	lr
1000159a:	4a03      	ldr	r2, [pc, #12]	; (100015a8 <irq_set_enabled+0x20>)
1000159c:	6013      	str	r3, [r2, #0]
1000159e:	e7fb      	b.n	10001598 <irq_set_enabled+0x10>
100015a0:	e000e280 	.word	0xe000e280
100015a4:	e000e100 	.word	0xe000e100
100015a8:	e000e180 	.word	0xe000e180

100015ac <irq_get_vtable_handler>:
100015ac:	4b02      	ldr	r3, [pc, #8]	; (100015b8 <irq_get_vtable_handler+0xc>)
100015ae:	3010      	adds	r0, #16
100015b0:	689b      	ldr	r3, [r3, #8]
100015b2:	0080      	lsls	r0, r0, #2
100015b4:	58c0      	ldr	r0, [r0, r3]
100015b6:	4770      	bx	lr
100015b8:	e000ed00 	.word	0xe000ed00

100015bc <irq_set_exclusive_handler>:
100015bc:	b570      	push	{r4, r5, r6, lr}
100015be:	000d      	movs	r5, r1
100015c0:	f3ef 8610 	mrs	r6, PRIMASK
100015c4:	b672      	cpsid	i
100015c6:	4a0f      	ldr	r2, [pc, #60]	; (10001604 <irq_set_exclusive_handler+0x48>)
100015c8:	6813      	ldr	r3, [r2, #0]
100015ca:	2b00      	cmp	r3, #0
100015cc:	d0fc      	beq.n	100015c8 <irq_set_exclusive_handler+0xc>
100015ce:	f3bf 8f5f 	dmb	sy
100015d2:	4b0d      	ldr	r3, [pc, #52]	; (10001608 <irq_set_exclusive_handler+0x4c>)
100015d4:	3010      	adds	r0, #16
100015d6:	689b      	ldr	r3, [r3, #8]
100015d8:	0084      	lsls	r4, r0, #2
100015da:	591b      	ldr	r3, [r3, r4]
100015dc:	4a0b      	ldr	r2, [pc, #44]	; (1000160c <irq_set_exclusive_handler+0x50>)
100015de:	4293      	cmp	r3, r2
100015e0:	d003      	beq.n	100015ea <irq_set_exclusive_handler+0x2e>
100015e2:	429d      	cmp	r5, r3
100015e4:	d001      	beq.n	100015ea <irq_set_exclusive_handler+0x2e>
100015e6:	f7ff fe0d 	bl	10001204 <hard_assertion_failure>
100015ea:	4b07      	ldr	r3, [pc, #28]	; (10001608 <irq_set_exclusive_handler+0x4c>)
100015ec:	689b      	ldr	r3, [r3, #8]
100015ee:	511d      	str	r5, [r3, r4]
100015f0:	f3bf 8f5f 	dmb	sy
100015f4:	f3bf 8f5f 	dmb	sy
100015f8:	2200      	movs	r2, #0
100015fa:	4b02      	ldr	r3, [pc, #8]	; (10001604 <irq_set_exclusive_handler+0x48>)
100015fc:	601a      	str	r2, [r3, #0]
100015fe:	f386 8810 	msr	PRIMASK, r6
10001602:	bd70      	pop	{r4, r5, r6, pc}
10001604:	d0000124 	.word	0xd0000124
10001608:	e000ed00 	.word	0xe000ed00
1000160c:	100002cd 	.word	0x100002cd

10001610 <irq_remove_handler>:
10001610:	b5f0      	push	{r4, r5, r6, r7, lr}
10001612:	46de      	mov	lr, fp
10001614:	4657      	mov	r7, sl
10001616:	464e      	mov	r6, r9
10001618:	4645      	mov	r5, r8
1000161a:	b5e0      	push	{r5, r6, r7, lr}
1000161c:	000c      	movs	r4, r1
1000161e:	b083      	sub	sp, #12
10001620:	f3ef 8a10 	mrs	sl, PRIMASK
10001624:	b672      	cpsid	i
10001626:	4a5f      	ldr	r2, [pc, #380]	; (100017a4 <irq_remove_handler+0x194>)
10001628:	6813      	ldr	r3, [r2, #0]
1000162a:	2b00      	cmp	r3, #0
1000162c:	d0fc      	beq.n	10001628 <irq_remove_handler+0x18>
1000162e:	f3bf 8f5f 	dmb	sy
10001632:	2210      	movs	r2, #16
10001634:	4691      	mov	r9, r2
10001636:	4481      	add	r9, r0
10001638:	464a      	mov	r2, r9
1000163a:	4b5b      	ldr	r3, [pc, #364]	; (100017a8 <irq_remove_handler+0x198>)
1000163c:	0096      	lsls	r6, r2, #2
1000163e:	689b      	ldr	r3, [r3, #8]
10001640:	599d      	ldr	r5, [r3, r6]
10001642:	4b5a      	ldr	r3, [pc, #360]	; (100017ac <irq_remove_handler+0x19c>)
10001644:	4698      	mov	r8, r3
10001646:	429d      	cmp	r5, r3
10001648:	d005      	beq.n	10001656 <irq_remove_handler+0x46>
1000164a:	42a5      	cmp	r5, r4
1000164c:	d016      	beq.n	1000167c <irq_remove_handler+0x6c>
1000164e:	4f58      	ldr	r7, [pc, #352]	; (100017b0 <irq_remove_handler+0x1a0>)
10001650:	1beb      	subs	r3, r5, r7
10001652:	2b2f      	cmp	r3, #47	; 0x2f
10001654:	d914      	bls.n	10001680 <irq_remove_handler+0x70>
10001656:	4b54      	ldr	r3, [pc, #336]	; (100017a8 <irq_remove_handler+0x198>)
10001658:	689b      	ldr	r3, [r3, #8]
1000165a:	519d      	str	r5, [r3, r6]
1000165c:	f3bf 8f5f 	dmb	sy
10001660:	f3bf 8f5f 	dmb	sy
10001664:	2200      	movs	r2, #0
10001666:	4b4f      	ldr	r3, [pc, #316]	; (100017a4 <irq_remove_handler+0x194>)
10001668:	601a      	str	r2, [r3, #0]
1000166a:	f38a 8810 	msr	PRIMASK, sl
1000166e:	b003      	add	sp, #12
10001670:	bc3c      	pop	{r2, r3, r4, r5}
10001672:	4690      	mov	r8, r2
10001674:	4699      	mov	r9, r3
10001676:	46a2      	mov	sl, r4
10001678:	46ab      	mov	fp, r5
1000167a:	bdf0      	pop	{r4, r5, r6, r7, pc}
1000167c:	001d      	movs	r5, r3
1000167e:	e7ea      	b.n	10001656 <irq_remove_handler+0x46>
10001680:	2301      	movs	r3, #1
10001682:	4083      	lsls	r3, r0
10001684:	469b      	mov	fp, r3
10001686:	465a      	mov	r2, fp
10001688:	4b4a      	ldr	r3, [pc, #296]	; (100017b4 <irq_remove_handler+0x1a4>)
1000168a:	681b      	ldr	r3, [r3, #0]
1000168c:	401a      	ands	r2, r3
1000168e:	9200      	str	r2, [sp, #0]
10001690:	465a      	mov	r2, fp
10001692:	4b49      	ldr	r3, [pc, #292]	; (100017b8 <irq_remove_handler+0x1a8>)
10001694:	601a      	str	r2, [r3, #0]
10001696:	f3bf 8f5f 	dmb	sy
1000169a:	f7fe fd7c 	bl	10000196 <__get_current_exception>
1000169e:	9001      	str	r0, [sp, #4]
100016a0:	2800      	cmp	r0, #0
100016a2:	d003      	beq.n	100016ac <irq_remove_handler+0x9c>
100016a4:	4581      	cmp	r9, r0
100016a6:	d001      	beq.n	100016ac <irq_remove_handler+0x9c>
100016a8:	f7ff fdac 	bl	10001204 <hard_assertion_failure>
100016ac:	2301      	movs	r3, #1
100016ae:	0029      	movs	r1, r5
100016b0:	4399      	bics	r1, r3
100016b2:	688b      	ldr	r3, [r1, #8]
100016b4:	42a3      	cmp	r3, r4
100016b6:	d069      	beq.n	1000178c <irq_remove_handler+0x17c>
100016b8:	000a      	movs	r2, r1
100016ba:	e007      	b.n	100016cc <irq_remove_handler+0xbc>
100016bc:	0043      	lsls	r3, r0, #1
100016be:	181b      	adds	r3, r3, r0
100016c0:	009b      	lsls	r3, r3, #2
100016c2:	18fb      	adds	r3, r7, r3
100016c4:	6898      	ldr	r0, [r3, #8]
100016c6:	42a0      	cmp	r0, r4
100016c8:	d011      	beq.n	100016ee <irq_remove_handler+0xde>
100016ca:	001a      	movs	r2, r3
100016cc:	2006      	movs	r0, #6
100016ce:	5610      	ldrsb	r0, [r2, r0]
100016d0:	2800      	cmp	r0, #0
100016d2:	daf3      	bge.n	100016bc <irq_remove_handler+0xac>
100016d4:	9b00      	ldr	r3, [sp, #0]
100016d6:	2b00      	cmp	r3, #0
100016d8:	d005      	beq.n	100016e6 <irq_remove_handler+0xd6>
100016da:	465a      	mov	r2, fp
100016dc:	4b37      	ldr	r3, [pc, #220]	; (100017bc <irq_remove_handler+0x1ac>)
100016de:	601a      	str	r2, [r3, #0]
100016e0:	4b34      	ldr	r3, [pc, #208]	; (100017b4 <irq_remove_handler+0x1a4>)
100016e2:	601a      	str	r2, [r3, #0]
100016e4:	e7b7      	b.n	10001656 <irq_remove_handler+0x46>
100016e6:	465a      	mov	r2, fp
100016e8:	4b33      	ldr	r3, [pc, #204]	; (100017b8 <irq_remove_handler+0x1a8>)
100016ea:	601a      	str	r2, [r3, #0]
100016ec:	e7b3      	b.n	10001656 <irq_remove_handler+0x46>
100016ee:	2006      	movs	r0, #6
100016f0:	5618      	ldrsb	r0, [r3, r0]
100016f2:	2800      	cmp	r0, #0
100016f4:	db22      	blt.n	1000173c <irq_remove_handler+0x12c>
100016f6:	0042      	lsls	r2, r0, #1
100016f8:	1811      	adds	r1, r2, r0
100016fa:	0089      	lsls	r1, r1, #2
100016fc:	187c      	adds	r4, r7, r1
100016fe:	4688      	mov	r8, r1
10001700:	68a1      	ldr	r1, [r4, #8]
10001702:	6099      	str	r1, [r3, #8]
10001704:	79e1      	ldrb	r1, [r4, #7]
10001706:	71d9      	strb	r1, [r3, #7]
10001708:	2106      	movs	r1, #6
1000170a:	5661      	ldrsb	r1, [r4, r1]
1000170c:	7199      	strb	r1, [r3, #6]
1000170e:	79a1      	ldrb	r1, [r4, #6]
10001710:	297f      	cmp	r1, #127	; 0x7f
10001712:	d82b      	bhi.n	1000176c <irq_remove_handler+0x15c>
10001714:	88a4      	ldrh	r4, [r4, #4]
10001716:	1af9      	subs	r1, r7, r3
10001718:	0564      	lsls	r4, r4, #21
1000171a:	1524      	asrs	r4, r4, #20
1000171c:	4444      	add	r4, r8
1000171e:	1909      	adds	r1, r1, r4
10001720:	24e0      	movs	r4, #224	; 0xe0
10001722:	0509      	lsls	r1, r1, #20
10001724:	0d49      	lsrs	r1, r1, #21
10001726:	0224      	lsls	r4, r4, #8
10001728:	4321      	orrs	r1, r4
1000172a:	8099      	strh	r1, [r3, #4]
1000172c:	1812      	adds	r2, r2, r0
1000172e:	4b24      	ldr	r3, [pc, #144]	; (100017c0 <irq_remove_handler+0x1b0>)
10001730:	0092      	lsls	r2, r2, #2
10001732:	18bf      	adds	r7, r7, r2
10001734:	781a      	ldrb	r2, [r3, #0]
10001736:	7018      	strb	r0, [r3, #0]
10001738:	71ba      	strb	r2, [r7, #6]
1000173a:	e7cb      	b.n	100016d4 <irq_remove_handler+0xc4>
1000173c:	9801      	ldr	r0, [sp, #4]
1000173e:	2800      	cmp	r0, #0
10001740:	d117      	bne.n	10001772 <irq_remove_handler+0x162>
10001742:	30ff      	adds	r0, #255	; 0xff
10001744:	7190      	strb	r0, [r2, #6]
10001746:	481f      	ldr	r0, [pc, #124]	; (100017c4 <irq_remove_handler+0x1b4>)
10001748:	8090      	strh	r0, [r2, #4]
1000174a:	4a1d      	ldr	r2, [pc, #116]	; (100017c0 <irq_remove_handler+0x1b0>)
1000174c:	1bcf      	subs	r7, r1, r7
1000174e:	7810      	ldrb	r0, [r2, #0]
10001750:	10bf      	asrs	r7, r7, #2
10001752:	7198      	strb	r0, [r3, #6]
10001754:	00bb      	lsls	r3, r7, #2
10001756:	19db      	adds	r3, r3, r7
10001758:	0119      	lsls	r1, r3, #4
1000175a:	185b      	adds	r3, r3, r1
1000175c:	0219      	lsls	r1, r3, #8
1000175e:	185b      	adds	r3, r3, r1
10001760:	0419      	lsls	r1, r3, #16
10001762:	185b      	adds	r3, r3, r1
10001764:	005b      	lsls	r3, r3, #1
10001766:	19db      	adds	r3, r3, r7
10001768:	7013      	strb	r3, [r2, #0]
1000176a:	e7b3      	b.n	100016d4 <irq_remove_handler+0xc4>
1000176c:	21bd      	movs	r1, #189	; 0xbd
1000176e:	0209      	lsls	r1, r1, #8
10001770:	e7db      	b.n	1000172a <irq_remove_handler+0x11a>
10001772:	4a15      	ldr	r2, [pc, #84]	; (100017c8 <irq_remove_handler+0x1b8>)
10001774:	4915      	ldr	r1, [pc, #84]	; (100017cc <irq_remove_handler+0x1bc>)
10001776:	1ad2      	subs	r2, r2, r3
10001778:	3a08      	subs	r2, #8
1000177a:	0250      	lsls	r0, r2, #9
1000177c:	0d40      	lsrs	r0, r0, #21
1000177e:	4301      	orrs	r1, r0
10001780:	8099      	strh	r1, [r3, #4]
10001782:	4913      	ldr	r1, [pc, #76]	; (100017d0 <irq_remove_handler+0x1c0>)
10001784:	0852      	lsrs	r2, r2, #1
10001786:	430a      	orrs	r2, r1
10001788:	80da      	strh	r2, [r3, #6]
1000178a:	e7a3      	b.n	100016d4 <irq_remove_handler+0xc4>
1000178c:	2006      	movs	r0, #6
1000178e:	5608      	ldrsb	r0, [r1, r0]
10001790:	000b      	movs	r3, r1
10001792:	2800      	cmp	r0, #0
10001794:	daaf      	bge.n	100016f6 <irq_remove_handler+0xe6>
10001796:	9a01      	ldr	r2, [sp, #4]
10001798:	2a00      	cmp	r2, #0
1000179a:	d1ea      	bne.n	10001772 <irq_remove_handler+0x162>
1000179c:	000b      	movs	r3, r1
1000179e:	4645      	mov	r5, r8
100017a0:	e7d3      	b.n	1000174a <irq_remove_handler+0x13a>
100017a2:	46c0      	nop			; (mov r8, r8)
100017a4:	d0000124 	.word	0xd0000124
100017a8:	e000ed00 	.word	0xe000ed00
100017ac:	100002cd 	.word	0x100002cd
100017b0:	2000018c 	.word	0x2000018c
100017b4:	e000e100 	.word	0xe000e100
100017b8:	e000e180 	.word	0xe000e180
100017bc:	e000e280 	.word	0xe000e280
100017c0:	20000b1d 	.word	0x20000b1d
100017c4:	ffffbd00 	.word	0xffffbd00
100017c8:	200001c6 	.word	0x200001c6
100017cc:	fffff000 	.word	0xfffff000
100017d0:	fffff800 	.word	0xfffff800

100017d4 <irq_add_tail_to_free_list>:
100017d4:	b5f8      	push	{r3, r4, r5, r6, r7, lr}
100017d6:	2501      	movs	r5, #1
100017d8:	0004      	movs	r4, r0
100017da:	4305      	orrs	r5, r0
100017dc:	f7fe fcdb 	bl	10000196 <__get_current_exception>
100017e0:	f3ef 8610 	mrs	r6, PRIMASK
100017e4:	b672      	cpsid	i
100017e6:	4a24      	ldr	r2, [pc, #144]	; (10001878 <irq_add_tail_to_free_list+0xa4>)
100017e8:	6813      	ldr	r3, [r2, #0]
100017ea:	2b00      	cmp	r3, #0
100017ec:	d0fc      	beq.n	100017e8 <irq_add_tail_to_free_list+0x14>
100017ee:	f3bf 8f5f 	dmb	sy
100017f2:	4f22      	ldr	r7, [pc, #136]	; (1000187c <irq_add_tail_to_free_list+0xa8>)
100017f4:	0080      	lsls	r0, r0, #2
100017f6:	1be1      	subs	r1, r4, r7
100017f8:	1089      	asrs	r1, r1, #2
100017fa:	008a      	lsls	r2, r1, #2
100017fc:	1852      	adds	r2, r2, r1
100017fe:	0113      	lsls	r3, r2, #4
10001800:	18d2      	adds	r2, r2, r3
10001802:	0213      	lsls	r3, r2, #8
10001804:	18d2      	adds	r2, r2, r3
10001806:	0413      	lsls	r3, r2, #16
10001808:	18d3      	adds	r3, r2, r3
1000180a:	4a1d      	ldr	r2, [pc, #116]	; (10001880 <irq_add_tail_to_free_list+0xac>)
1000180c:	005b      	lsls	r3, r3, #1
1000180e:	185b      	adds	r3, r3, r1
10001810:	6891      	ldr	r1, [r2, #8]
10001812:	5809      	ldr	r1, [r1, r0]
10001814:	42a9      	cmp	r1, r5
10001816:	d01c      	beq.n	10001852 <irq_add_tail_to_free_list+0x7e>
10001818:	2206      	movs	r2, #6
1000181a:	56ba      	ldrsb	r2, [r7, r2]
1000181c:	4293      	cmp	r3, r2
1000181e:	d01c      	beq.n	1000185a <irq_add_tail_to_free_list+0x86>
10001820:	2212      	movs	r2, #18
10001822:	56ba      	ldrsb	r2, [r7, r2]
10001824:	4293      	cmp	r3, r2
10001826:	d022      	beq.n	1000186e <irq_add_tail_to_free_list+0x9a>
10001828:	221e      	movs	r2, #30
1000182a:	56ba      	ldrsb	r2, [r7, r2]
1000182c:	4293      	cmp	r3, r2
1000182e:	d020      	beq.n	10001872 <irq_add_tail_to_free_list+0x9e>
10001830:	222a      	movs	r2, #42	; 0x2a
10001832:	56ba      	ldrsb	r2, [r7, r2]
10001834:	2103      	movs	r1, #3
10001836:	429a      	cmp	r2, r3
10001838:	d010      	beq.n	1000185c <irq_add_tail_to_free_list+0x88>
1000183a:	4a12      	ldr	r2, [pc, #72]	; (10001884 <irq_add_tail_to_free_list+0xb0>)
1000183c:	7811      	ldrb	r1, [r2, #0]
1000183e:	7013      	strb	r3, [r2, #0]
10001840:	71a1      	strb	r1, [r4, #6]
10001842:	f3bf 8f5f 	dmb	sy
10001846:	2200      	movs	r2, #0
10001848:	4b0b      	ldr	r3, [pc, #44]	; (10001878 <irq_add_tail_to_free_list+0xa4>)
1000184a:	601a      	str	r2, [r3, #0]
1000184c:	f386 8810 	msr	PRIMASK, r6
10001850:	bdf8      	pop	{r3, r4, r5, r6, r7, pc}
10001852:	6892      	ldr	r2, [r2, #8]
10001854:	490c      	ldr	r1, [pc, #48]	; (10001888 <irq_add_tail_to_free_list+0xb4>)
10001856:	5011      	str	r1, [r2, r0]
10001858:	e7ef      	b.n	1000183a <irq_add_tail_to_free_list+0x66>
1000185a:	2100      	movs	r1, #0
1000185c:	004a      	lsls	r2, r1, #1
1000185e:	1852      	adds	r2, r2, r1
10001860:	21ff      	movs	r1, #255	; 0xff
10001862:	0092      	lsls	r2, r2, #2
10001864:	18ba      	adds	r2, r7, r2
10001866:	7191      	strb	r1, [r2, #6]
10001868:	4908      	ldr	r1, [pc, #32]	; (1000188c <irq_add_tail_to_free_list+0xb8>)
1000186a:	8091      	strh	r1, [r2, #4]
1000186c:	e7e5      	b.n	1000183a <irq_add_tail_to_free_list+0x66>
1000186e:	2101      	movs	r1, #1
10001870:	e7f4      	b.n	1000185c <irq_add_tail_to_free_list+0x88>
10001872:	2102      	movs	r1, #2
10001874:	e7f2      	b.n	1000185c <irq_add_tail_to_free_list+0x88>
10001876:	46c0      	nop			; (mov r8, r8)
10001878:	d0000124 	.word	0xd0000124
1000187c:	2000018c 	.word	0x2000018c
10001880:	e000ed00 	.word	0xe000ed00
10001884:	20000b1d 	.word	0x20000b1d
10001888:	100002cd 	.word	0x100002cd
1000188c:	ffffbd00 	.word	0xffffbd00

10001890 <irq_init_priorities>:
10001890:	b5f0      	push	{r4, r5, r6, r7, lr}
10001892:	2200      	movs	r2, #0
10001894:	2403      	movs	r4, #3
10001896:	27ff      	movs	r7, #255	; 0xff
10001898:	2680      	movs	r6, #128	; 0x80
1000189a:	0020      	movs	r0, r4
1000189c:	003d      	movs	r5, r7
1000189e:	4b09      	ldr	r3, [pc, #36]	; (100018c4 <irq_init_priorities+0x34>)
100018a0:	0011      	movs	r1, r2
100018a2:	469c      	mov	ip, r3
100018a4:	4010      	ands	r0, r2
100018a6:	00c0      	lsls	r0, r0, #3
100018a8:	4085      	lsls	r5, r0
100018aa:	43a1      	bics	r1, r4
100018ac:	4461      	add	r1, ip
100018ae:	680b      	ldr	r3, [r1, #0]
100018b0:	3201      	adds	r2, #1
100018b2:	43ab      	bics	r3, r5
100018b4:	0035      	movs	r5, r6
100018b6:	4085      	lsls	r5, r0
100018b8:	432b      	orrs	r3, r5
100018ba:	600b      	str	r3, [r1, #0]
100018bc:	2a20      	cmp	r2, #32
100018be:	d1ec      	bne.n	1000189a <irq_init_priorities+0xa>
100018c0:	bdf0      	pop	{r4, r5, r6, r7, pc}
100018c2:	46c0      	nop			; (mov r8, r8)
100018c4:	e000e400 	.word	0xe000e400

100018c8 <_out_char>:
100018c8:	b510      	push	{r4, lr}
100018ca:	2800      	cmp	r0, #0
100018cc:	d100      	bne.n	100018d0 <_out_char+0x8>
100018ce:	bd10      	pop	{r4, pc}
100018d0:	f000 fa0c 	bl	10001cec <__wrap_putchar>
100018d4:	e7fb      	b.n	100018ce <_out_char+0x6>
100018d6:	46c0      	nop			; (mov r8, r8)

100018d8 <weak_raw_vprintf>:
100018d8:	b510      	push	{r4, lr}
100018da:	4a09      	ldr	r2, [pc, #36]	; (10001900 <weak_raw_vprintf+0x28>)
100018dc:	0003      	movs	r3, r0
100018de:	6814      	ldr	r4, [r2, #0]
100018e0:	b084      	sub	sp, #16
100018e2:	2c00      	cmp	r4, #0
100018e4:	d008      	beq.n	100018f8 <weak_raw_vprintf+0x20>
100018e6:	2201      	movs	r2, #1
100018e8:	9100      	str	r1, [sp, #0]
100018ea:	4806      	ldr	r0, [pc, #24]	; (10001904 <weak_raw_vprintf+0x2c>)
100018ec:	4252      	negs	r2, r2
100018ee:	a903      	add	r1, sp, #12
100018f0:	47a0      	blx	r4
100018f2:	2001      	movs	r0, #1
100018f4:	b004      	add	sp, #16
100018f6:	bd10      	pop	{r4, pc}
100018f8:	f000 fa06 	bl	10001d08 <__wrap_puts>
100018fc:	2000      	movs	r0, #0
100018fe:	e7f9      	b.n	100018f4 <weak_raw_vprintf+0x1c>
10001900:	20000af8 	.word	0x20000af8
10001904:	100018c9 	.word	0x100018c9

10001908 <__aeabi_bits_init>:
10001908:	4801      	ldr	r0, [pc, #4]	; (10001910 <__aeabi_bits_init+0x8>)
1000190a:	2104      	movs	r1, #4
1000190c:	4b01      	ldr	r3, [pc, #4]	; (10001914 <__aeabi_bits_init+0xc>)
1000190e:	4718      	bx	r3
10001910:	200001e0 	.word	0x200001e0
10001914:	10001939 	.word	0x10001939

10001918 <rom_func_lookup>:
10001918:	2314      	movs	r3, #20
1000191a:	b510      	push	{r4, lr}
1000191c:	0001      	movs	r1, r0
1000191e:	8818      	ldrh	r0, [r3, #0]
10001920:	3304      	adds	r3, #4
10001922:	881b      	ldrh	r3, [r3, #0]
10001924:	4798      	blx	r3
10001926:	bd10      	pop	{r4, pc}

10001928 <rom_data_lookup>:
10001928:	2316      	movs	r3, #22
1000192a:	b510      	push	{r4, lr}
1000192c:	0001      	movs	r1, r0
1000192e:	8818      	ldrh	r0, [r3, #0]
10001930:	3302      	adds	r3, #2
10001932:	881b      	ldrh	r3, [r3, #0]
10001934:	4798      	blx	r3
10001936:	bd10      	pop	{r4, pc}

10001938 <rom_funcs_lookup>:
10001938:	b5f0      	push	{r4, r5, r6, r7, lr}
1000193a:	46c6      	mov	lr, r8
1000193c:	b500      	push	{lr}
1000193e:	2900      	cmp	r1, #0
10001940:	d016      	beq.n	10001970 <rom_funcs_lookup+0x38>
10001942:	2314      	movs	r3, #20
10001944:	0004      	movs	r4, r0
10001946:	2501      	movs	r5, #1
10001948:	4698      	mov	r8, r3
1000194a:	2718      	movs	r7, #24
1000194c:	0089      	lsls	r1, r1, #2
1000194e:	1846      	adds	r6, r0, r1
10001950:	4643      	mov	r3, r8
10001952:	6821      	ldr	r1, [r4, #0]
10001954:	8818      	ldrh	r0, [r3, #0]
10001956:	883b      	ldrh	r3, [r7, #0]
10001958:	4798      	blx	r3
1000195a:	c401      	stmia	r4!, {r0}
1000195c:	1e43      	subs	r3, r0, #1
1000195e:	4198      	sbcs	r0, r3
10001960:	4240      	negs	r0, r0
10001962:	4005      	ands	r5, r0
10001964:	42a6      	cmp	r6, r4
10001966:	d1f3      	bne.n	10001950 <rom_funcs_lookup+0x18>
10001968:	0028      	movs	r0, r5
1000196a:	bc04      	pop	{r2}
1000196c:	4690      	mov	r8, r2
1000196e:	bdf0      	pop	{r4, r5, r6, r7, pc}
10001970:	2501      	movs	r5, #1
10001972:	e7f9      	b.n	10001968 <rom_funcs_lookup+0x30>

10001974 <__wrap___aeabi_uidiv>:
10001974:	4a13      	ldr	r2, [pc, #76]	; (100019c4 <divmod_u32u32_savestate+0x20>)
10001976:	6f93      	ldr	r3, [r2, #120]	; 0x78
10001978:	089b      	lsrs	r3, r3, #2
1000197a:	d213      	bcs.n	100019a4 <divmod_u32u32_savestate>

1000197c <divmod_u32u32_unsafe>:
1000197c:	6610      	str	r0, [r2, #96]	; 0x60
1000197e:	6651      	str	r1, [r2, #100]	; 0x64
10001980:	2900      	cmp	r1, #0
10001982:	d005      	beq.n	10001990 <divmod_u32u32_unsafe+0x14>
10001984:	e7ff      	b.n	10001986 <divmod_u32u32_unsafe+0xa>
10001986:	e7ff      	b.n	10001988 <divmod_u32u32_unsafe+0xc>
10001988:	e7ff      	b.n	1000198a <divmod_u32u32_unsafe+0xe>
1000198a:	6f51      	ldr	r1, [r2, #116]	; 0x74
1000198c:	6f10      	ldr	r0, [r2, #112]	; 0x70
1000198e:	4770      	bx	lr
10001990:	b504      	push	{r2, lr}
10001992:	2800      	cmp	r0, #0
10001994:	d001      	beq.n	1000199a <divmod_u32u32_unsafe+0x1e>
10001996:	2000      	movs	r0, #0
10001998:	43c0      	mvns	r0, r0
1000199a:	f000 fe65 	bl	10002668 <____aeabi_idiv0_veneer>
1000199e:	2100      	movs	r1, #0
100019a0:	bd04      	pop	{r2, pc}
100019a2:	46c0      	nop			; (mov r8, r8)

100019a4 <divmod_u32u32_savestate>:
100019a4:	6f93      	ldr	r3, [r2, #120]	; 0x78
100019a6:	085b      	lsrs	r3, r3, #1
100019a8:	d3fd      	bcc.n	100019a6 <divmod_u32u32_savestate+0x2>
100019aa:	b5f0      	push	{r4, r5, r6, r7, lr}
100019ac:	6e94      	ldr	r4, [r2, #104]	; 0x68
100019ae:	6ed5      	ldr	r5, [r2, #108]	; 0x6c
100019b0:	6f57      	ldr	r7, [r2, #116]	; 0x74
100019b2:	6f16      	ldr	r6, [r2, #112]	; 0x70
100019b4:	f7ff ffe2 	bl	1000197c <divmod_u32u32_unsafe>
100019b8:	6694      	str	r4, [r2, #104]	; 0x68
100019ba:	66d5      	str	r5, [r2, #108]	; 0x6c
100019bc:	6757      	str	r7, [r2, #116]	; 0x74
100019be:	6716      	str	r6, [r2, #112]	; 0x70
100019c0:	bdf0      	pop	{r4, r5, r6, r7, pc}
100019c2:	0000      	.short	0x0000
100019c4:	d0000000 	.word	0xd0000000

100019c8 <__aeabi_double_init>:
100019c8:	2313      	movs	r3, #19
100019ca:	b570      	push	{r4, r5, r6, lr}
100019cc:	781d      	ldrb	r5, [r3, #0]
100019ce:	2d01      	cmp	r5, #1
100019d0:	d010      	beq.n	100019f4 <__aeabi_double_init+0x2c>
100019d2:	dd0b      	ble.n	100019ec <__aeabi_double_init+0x24>
100019d4:	4824      	ldr	r0, [pc, #144]	; (10001a68 <__aeabi_double_init+0xa0>)
100019d6:	f7ff ffa7 	bl	10001928 <rom_data_lookup>
100019da:	4c24      	ldr	r4, [pc, #144]	; (10001a6c <__aeabi_double_init+0xa4>)
100019dc:	0001      	movs	r1, r0
100019de:	2280      	movs	r2, #128	; 0x80
100019e0:	0020      	movs	r0, r4
100019e2:	f000 f8bb 	bl	10001b5c <__wrap___aeabi_memcpy>
100019e6:	2d02      	cmp	r5, #2
100019e8:	d001      	beq.n	100019ee <__aeabi_double_init+0x26>
100019ea:	bd70      	pop	{r4, r5, r6, pc}
100019ec:	4c1f      	ldr	r4, [pc, #124]	; (10001a6c <__aeabi_double_init+0xa4>)
100019ee:	4a20      	ldr	r2, [pc, #128]	; (10001a70 <__aeabi_double_init+0xa8>)
100019f0:	64a2      	str	r2, [r4, #72]	; 0x48
100019f2:	e7fa      	b.n	100019ea <__aeabi_double_init+0x22>
100019f4:	002e      	movs	r6, r5
100019f6:	4c1d      	ldr	r4, [pc, #116]	; (10001a6c <__aeabi_double_init+0xa4>)
100019f8:	4a1d      	ldr	r2, [pc, #116]	; (10001a70 <__aeabi_double_init+0xa8>)
100019fa:	08a3      	lsrs	r3, r4, #2
100019fc:	425b      	negs	r3, r3
100019fe:	401e      	ands	r6, r3
10001a00:	421d      	tst	r5, r3
10001a02:	d02f      	beq.n	10001a64 <__aeabi_double_init+0x9c>
10001a04:	0033      	movs	r3, r6
10001a06:	6022      	str	r2, [r4, #0]
10001a08:	2020      	movs	r0, #32
10001a0a:	00b1      	lsls	r1, r6, #2
10001a0c:	1861      	adds	r1, r4, r1
10001a0e:	1b80      	subs	r0, r0, r6
10001a10:	600a      	str	r2, [r1, #0]
10001a12:	604a      	str	r2, [r1, #4]
10001a14:	608a      	str	r2, [r1, #8]
10001a16:	60ca      	str	r2, [r1, #12]
10001a18:	610a      	str	r2, [r1, #16]
10001a1a:	614a      	str	r2, [r1, #20]
10001a1c:	618a      	str	r2, [r1, #24]
10001a1e:	61ca      	str	r2, [r1, #28]
10001a20:	620a      	str	r2, [r1, #32]
10001a22:	624a      	str	r2, [r1, #36]	; 0x24
10001a24:	628a      	str	r2, [r1, #40]	; 0x28
10001a26:	62ca      	str	r2, [r1, #44]	; 0x2c
10001a28:	630a      	str	r2, [r1, #48]	; 0x30
10001a2a:	634a      	str	r2, [r1, #52]	; 0x34
10001a2c:	638a      	str	r2, [r1, #56]	; 0x38
10001a2e:	63ca      	str	r2, [r1, #60]	; 0x3c
10001a30:	640a      	str	r2, [r1, #64]	; 0x40
10001a32:	644a      	str	r2, [r1, #68]	; 0x44
10001a34:	648a      	str	r2, [r1, #72]	; 0x48
10001a36:	64ca      	str	r2, [r1, #76]	; 0x4c
10001a38:	650a      	str	r2, [r1, #80]	; 0x50
10001a3a:	654a      	str	r2, [r1, #84]	; 0x54
10001a3c:	658a      	str	r2, [r1, #88]	; 0x58
10001a3e:	65ca      	str	r2, [r1, #92]	; 0x5c
10001a40:	660a      	str	r2, [r1, #96]	; 0x60
10001a42:	664a      	str	r2, [r1, #100]	; 0x64
10001a44:	668a      	str	r2, [r1, #104]	; 0x68
10001a46:	66ca      	str	r2, [r1, #108]	; 0x6c
10001a48:	670a      	str	r2, [r1, #112]	; 0x70
10001a4a:	674a      	str	r2, [r1, #116]	; 0x74
10001a4c:	0840      	lsrs	r0, r0, #1
10001a4e:	2810      	cmp	r0, #16
10001a50:	d103      	bne.n	10001a5a <__aeabi_double_init+0x92>
10001a52:	678a      	str	r2, [r1, #120]	; 0x78
10001a54:	67ca      	str	r2, [r1, #124]	; 0x7c
10001a56:	64a2      	str	r2, [r4, #72]	; 0x48
10001a58:	e7c7      	b.n	100019ea <__aeabi_double_init+0x22>
10001a5a:	331e      	adds	r3, #30
10001a5c:	009b      	lsls	r3, r3, #2
10001a5e:	50e2      	str	r2, [r4, r3]
10001a60:	64a2      	str	r2, [r4, #72]	; 0x48
10001a62:	e7c2      	b.n	100019ea <__aeabi_double_init+0x22>
10001a64:	2300      	movs	r3, #0
10001a66:	e7cf      	b.n	10001a08 <__aeabi_double_init+0x40>
10001a68:	00004453 	.word	0x00004453
10001a6c:	20000b24 	.word	0x20000b24
10001a70:	10001a75 	.word	0x10001a75

10001a74 <double_table_shim_on_use_helper>:
10001a74:	b507      	push	{r0, r1, r2, lr}
10001a76:	4660      	mov	r0, ip
10001a78:	8801      	ldrh	r1, [r0, #0]
10001a7a:	0a0a      	lsrs	r2, r1, #8
10001a7c:	3002      	adds	r0, #2
10001a7e:	2adf      	cmp	r2, #223	; 0xdf
10001a80:	d1fa      	bne.n	10001a78 <double_table_shim_on_use_helper+0x4>
10001a82:	b2c9      	uxtb	r1, r1
10001a84:	0882      	lsrs	r2, r0, #2
10001a86:	d304      	bcc.n	10001a92 <double_table_shim_on_use_helper+0x1e>
10001a88:	8802      	ldrh	r2, [r0, #0]
10001a8a:	8840      	ldrh	r0, [r0, #2]
10001a8c:	0400      	lsls	r0, r0, #16
10001a8e:	4310      	orrs	r0, r2
10001a90:	e000      	b.n	10001a94 <double_table_shim_on_use_helper+0x20>
10001a92:	6800      	ldr	r0, [r0, #0]
10001a94:	4a01      	ldr	r2, [pc, #4]	; (10001a9c <double_table_shim_on_use_helper+0x28>)
10001a96:	5050      	str	r0, [r2, r1]
10001a98:	9003      	str	r0, [sp, #12]
10001a9a:	bd07      	pop	{r0, r1, r2, pc}
10001a9c:	20000b24 	.word	0x20000b24

10001aa0 <__aeabi_float_init>:
10001aa0:	2313      	movs	r3, #19
10001aa2:	b510      	push	{r4, lr}
10001aa4:	4812      	ldr	r0, [pc, #72]	; (10001af0 <__aeabi_float_init+0x50>)
10001aa6:	781c      	ldrb	r4, [r3, #0]
10001aa8:	f7ff ff3e 	bl	10001928 <rom_data_lookup>
10001aac:	0001      	movs	r1, r0
10001aae:	2c01      	cmp	r4, #1
10001ab0:	d00a      	beq.n	10001ac8 <__aeabi_float_init+0x28>
10001ab2:	dd03      	ble.n	10001abc <__aeabi_float_init+0x1c>
10001ab4:	2280      	movs	r2, #128	; 0x80
10001ab6:	480f      	ldr	r0, [pc, #60]	; (10001af4 <__aeabi_float_init+0x54>)
10001ab8:	f000 f850 	bl	10001b5c <__wrap___aeabi_memcpy>
10001abc:	480e      	ldr	r0, [pc, #56]	; (10001af8 <__aeabi_float_init+0x58>)
10001abe:	f7ff ff2b 	bl	10001918 <rom_func_lookup>
10001ac2:	4b0e      	ldr	r3, [pc, #56]	; (10001afc <__aeabi_float_init+0x5c>)
10001ac4:	6018      	str	r0, [r3, #0]
10001ac6:	bd10      	pop	{r4, pc}
10001ac8:	4c0a      	ldr	r4, [pc, #40]	; (10001af4 <__aeabi_float_init+0x54>)
10001aca:	2254      	movs	r2, #84	; 0x54
10001acc:	0020      	movs	r0, r4
10001ace:	f000 f845 	bl	10001b5c <__wrap___aeabi_memcpy>
10001ad2:	4b0b      	ldr	r3, [pc, #44]	; (10001b00 <__aeabi_float_init+0x60>)
10001ad4:	6563      	str	r3, [r4, #84]	; 0x54
10001ad6:	65a3      	str	r3, [r4, #88]	; 0x58
10001ad8:	65e3      	str	r3, [r4, #92]	; 0x5c
10001ada:	6623      	str	r3, [r4, #96]	; 0x60
10001adc:	6663      	str	r3, [r4, #100]	; 0x64
10001ade:	66a3      	str	r3, [r4, #104]	; 0x68
10001ae0:	66e3      	str	r3, [r4, #108]	; 0x6c
10001ae2:	6723      	str	r3, [r4, #112]	; 0x70
10001ae4:	6763      	str	r3, [r4, #116]	; 0x74
10001ae6:	67a3      	str	r3, [r4, #120]	; 0x78
10001ae8:	67e3      	str	r3, [r4, #124]	; 0x7c
10001aea:	6223      	str	r3, [r4, #32]
10001aec:	61e3      	str	r3, [r4, #28]
10001aee:	e7e5      	b.n	10001abc <__aeabi_float_init+0x1c>
10001af0:	00004653 	.word	0x00004653
10001af4:	20000c24 	.word	0x20000c24
10001af8:	0000334c 	.word	0x0000334c
10001afc:	20000d24 	.word	0x20000d24
10001b00:	10001b05 	.word	0x10001b05

10001b04 <float_table_shim_on_use_helper>:
10001b04:	b507      	push	{r0, r1, r2, lr}
10001b06:	4660      	mov	r0, ip
10001b08:	8801      	ldrh	r1, [r0, #0]
10001b0a:	0a0a      	lsrs	r2, r1, #8
10001b0c:	3002      	adds	r0, #2
10001b0e:	2adf      	cmp	r2, #223	; 0xdf
10001b10:	d1fa      	bne.n	10001b08 <float_table_shim_on_use_helper+0x4>
10001b12:	b2c9      	uxtb	r1, r1
10001b14:	0882      	lsrs	r2, r0, #2
10001b16:	d304      	bcc.n	10001b22 <float_table_shim_on_use_helper+0x1e>
10001b18:	8802      	ldrh	r2, [r0, #0]
10001b1a:	8840      	ldrh	r0, [r0, #2]
10001b1c:	0400      	lsls	r0, r0, #16
10001b1e:	4310      	orrs	r0, r2
10001b20:	e000      	b.n	10001b24 <float_table_shim_on_use_helper+0x20>
10001b22:	6800      	ldr	r0, [r0, #0]
10001b24:	4a01      	ldr	r2, [pc, #4]	; (10001b2c <float_table_shim_on_use_helper+0x28>)
10001b26:	5050      	str	r0, [r2, r1]
10001b28:	9003      	str	r0, [sp, #12]
10001b2a:	bd07      	pop	{r0, r1, r2, pc}
10001b2c:	20000c24 	.word	0x20000c24

10001b30 <__wrap_malloc>:
10001b30:	b510      	push	{r4, lr}
10001b32:	f000 f941 	bl	10001db8 <malloc>
10001b36:	bd10      	pop	{r4, pc}

10001b38 <__wrap_calloc>:
10001b38:	b510      	push	{r4, lr}
10001b3a:	f000 f903 	bl	10001d44 <calloc>
10001b3e:	bd10      	pop	{r4, pc}

10001b40 <__aeabi_mem_init>:
10001b40:	4801      	ldr	r0, [pc, #4]	; (10001b48 <__aeabi_mem_init+0x8>)
10001b42:	2104      	movs	r1, #4
10001b44:	4b01      	ldr	r3, [pc, #4]	; (10001b4c <__aeabi_mem_init+0xc>)
10001b46:	4718      	bx	r3
10001b48:	200001f0 	.word	0x200001f0
10001b4c:	10001939 	.word	0x10001939

10001b50 <__wrap_memset>:
10001b50:	4b01      	ldr	r3, [pc, #4]	; (10001b58 <__wrap_memset+0x8>)
10001b52:	681b      	ldr	r3, [r3, #0]
10001b54:	4718      	bx	r3
10001b56:	0000      	.short	0x0000
10001b58:	200001f0 	.word	0x200001f0

10001b5c <__wrap___aeabi_memcpy>:
10001b5c:	4b01      	ldr	r3, [pc, #4]	; (10001b64 <__wrap___aeabi_memcpy+0x8>)
10001b5e:	685b      	ldr	r3, [r3, #4]
10001b60:	4718      	bx	r3
10001b62:	0000      	.short	0x0000
10001b64:	200001f0 	.word	0x200001f0

10001b68 <stdio_out_chars_crlf.part.0>:
10001b68:	b5f8      	push	{r3, r4, r5, r6, r7, lr}
10001b6a:	4647      	mov	r7, r8
10001b6c:	46ce      	mov	lr, r9
10001b6e:	000d      	movs	r5, r1
10001b70:	b580      	push	{r7, lr}
10001b72:	0016      	movs	r6, r2
10001b74:	0007      	movs	r7, r0
10001b76:	2a00      	cmp	r2, #0
10001b78:	dd20      	ble.n	10001bbc <stdio_out_chars_crlf.part.0+0x54>
10001b7a:	1e4b      	subs	r3, r1, #1
10001b7c:	4698      	mov	r8, r3
10001b7e:	4b1a      	ldr	r3, [pc, #104]	; (10001be8 <stdio_out_chars_crlf.part.0+0x80>)
10001b80:	2400      	movs	r4, #0
10001b82:	2000      	movs	r0, #0
10001b84:	4699      	mov	r9, r3
10001b86:	2c00      	cmp	r4, #0
10001b88:	d02b      	beq.n	10001be2 <stdio_out_chars_crlf.part.0+0x7a>
10001b8a:	4643      	mov	r3, r8
10001b8c:	5d1b      	ldrb	r3, [r3, r4]
10001b8e:	3b0d      	subs	r3, #13
10001b90:	425a      	negs	r2, r3
10001b92:	4153      	adcs	r3, r2
10001b94:	b2db      	uxtb	r3, r3
10001b96:	5d2a      	ldrb	r2, [r5, r4]
10001b98:	2a0a      	cmp	r2, #10
10001b9a:	d013      	beq.n	10001bc4 <stdio_out_chars_crlf.part.0+0x5c>
10001b9c:	3401      	adds	r4, #1
10001b9e:	42a6      	cmp	r6, r4
10001ba0:	dcf1      	bgt.n	10001b86 <stdio_out_chars_crlf.part.0+0x1e>
10001ba2:	4286      	cmp	r6, r0
10001ba4:	dd03      	ble.n	10001bae <stdio_out_chars_crlf.part.0+0x46>
10001ba6:	1a31      	subs	r1, r6, r0
10001ba8:	683b      	ldr	r3, [r7, #0]
10001baa:	1828      	adds	r0, r5, r0
10001bac:	4798      	blx	r3
10001bae:	19ad      	adds	r5, r5, r6
10001bb0:	3d01      	subs	r5, #1
10001bb2:	782b      	ldrb	r3, [r5, #0]
10001bb4:	3b0d      	subs	r3, #13
10001bb6:	425a      	negs	r2, r3
10001bb8:	4153      	adcs	r3, r2
10001bba:	743b      	strb	r3, [r7, #16]
10001bbc:	bc0c      	pop	{r2, r3}
10001bbe:	4690      	mov	r8, r2
10001bc0:	4699      	mov	r9, r3
10001bc2:	bdf8      	pop	{r3, r4, r5, r6, r7, pc}
10001bc4:	2b00      	cmp	r3, #0
10001bc6:	d1e9      	bne.n	10001b9c <stdio_out_chars_crlf.part.0+0x34>
10001bc8:	42a0      	cmp	r0, r4
10001bca:	da03      	bge.n	10001bd4 <stdio_out_chars_crlf.part.0+0x6c>
10001bcc:	1a21      	subs	r1, r4, r0
10001bce:	683b      	ldr	r3, [r7, #0]
10001bd0:	1828      	adds	r0, r5, r0
10001bd2:	4798      	blx	r3
10001bd4:	4648      	mov	r0, r9
10001bd6:	2102      	movs	r1, #2
10001bd8:	683b      	ldr	r3, [r7, #0]
10001bda:	3401      	adds	r4, #1
10001bdc:	4798      	blx	r3
10001bde:	0020      	movs	r0, r4
10001be0:	e7dd      	b.n	10001b9e <stdio_out_chars_crlf.part.0+0x36>
10001be2:	7c3b      	ldrb	r3, [r7, #16]
10001be4:	e7d7      	b.n	10001b96 <stdio_out_chars_crlf.part.0+0x2e>
10001be6:	46c0      	nop			; (mov r8, r8)
10001be8:	1000278c 	.word	0x1000278c

10001bec <stdio_put_string>:
10001bec:	b5f0      	push	{r4, r5, r6, r7, lr}
10001bee:	4657      	mov	r7, sl
10001bf0:	4645      	mov	r5, r8
10001bf2:	46de      	mov	lr, fp
10001bf4:	464e      	mov	r6, r9
10001bf6:	23d0      	movs	r3, #208	; 0xd0
10001bf8:	b5e0      	push	{r5, r6, r7, lr}
10001bfa:	061b      	lsls	r3, r3, #24
10001bfc:	681c      	ldr	r4, [r3, #0]
10001bfe:	4b37      	ldr	r3, [pc, #220]	; (10001cdc <stdio_put_string+0xf0>)
10001c00:	b083      	sub	sp, #12
10001c02:	0007      	movs	r7, r0
10001c04:	000d      	movs	r5, r1
10001c06:	0018      	movs	r0, r3
10001c08:	a901      	add	r1, sp, #4
10001c0a:	4690      	mov	r8, r2
10001c0c:	469a      	mov	sl, r3
10001c0e:	f000 fd33 	bl	10002678 <__mutex_try_enter_veneer>
10001c12:	4681      	mov	r9, r0
10001c14:	2800      	cmp	r0, #0
10001c16:	d107      	bne.n	10001c28 <stdio_put_string+0x3c>
10001c18:	9b01      	ldr	r3, [sp, #4]
10001c1a:	429c      	cmp	r4, r3
10001c1c:	d004      	beq.n	10001c28 <stdio_put_string+0x3c>
10001c1e:	4650      	mov	r0, sl
10001c20:	f000 fd32 	bl	10002688 <__mutex_enter_blocking_veneer>
10001c24:	2301      	movs	r3, #1
10001c26:	4699      	mov	r9, r3
10001c28:	1c6b      	adds	r3, r5, #1
10001c2a:	d103      	bne.n	10001c34 <stdio_put_string+0x48>
10001c2c:	0038      	movs	r0, r7
10001c2e:	f000 fbaf 	bl	10002390 <strlen>
10001c32:	0005      	movs	r5, r0
10001c34:	4b2a      	ldr	r3, [pc, #168]	; (10001ce0 <stdio_put_string+0xf4>)
10001c36:	681c      	ldr	r4, [r3, #0]
10001c38:	2c00      	cmp	r4, #0
10001c3a:	d02f      	beq.n	10001c9c <stdio_put_string+0xb0>
10001c3c:	230a      	movs	r3, #10
10001c3e:	4e29      	ldr	r6, [pc, #164]	; (10001ce4 <stdio_put_string+0xf8>)
10001c40:	469b      	mov	fp, r3
10001c42:	e002      	b.n	10001c4a <stdio_put_string+0x5e>
10001c44:	68e4      	ldr	r4, [r4, #12]
10001c46:	2c00      	cmp	r4, #0
10001c48:	d028      	beq.n	10001c9c <stdio_put_string+0xb0>
10001c4a:	6822      	ldr	r2, [r4, #0]
10001c4c:	2a00      	cmp	r2, #0
10001c4e:	d0f9      	beq.n	10001c44 <stdio_put_string+0x58>
10001c50:	6833      	ldr	r3, [r6, #0]
10001c52:	2b00      	cmp	r3, #0
10001c54:	d001      	beq.n	10001c5a <stdio_put_string+0x6e>
10001c56:	42a3      	cmp	r3, r4
10001c58:	d1f4      	bne.n	10001c44 <stdio_put_string+0x58>
10001c5a:	7c63      	ldrb	r3, [r4, #17]
10001c5c:	2b00      	cmp	r3, #0
10001c5e:	d02a      	beq.n	10001cb6 <stdio_put_string+0xca>
10001c60:	002a      	movs	r2, r5
10001c62:	0039      	movs	r1, r7
10001c64:	0020      	movs	r0, r4
10001c66:	f7ff ff7f 	bl	10001b68 <stdio_out_chars_crlf.part.0>
10001c6a:	4643      	mov	r3, r8
10001c6c:	2b00      	cmp	r3, #0
10001c6e:	d0e9      	beq.n	10001c44 <stdio_put_string+0x58>
10001c70:	466b      	mov	r3, sp
10001c72:	465a      	mov	r2, fp
10001c74:	711a      	strb	r2, [r3, #4]
10001c76:	7c63      	ldrb	r3, [r4, #17]
10001c78:	2b00      	cmp	r3, #0
10001c7a:	d020      	beq.n	10001cbe <stdio_put_string+0xd2>
10001c7c:	7c23      	ldrb	r3, [r4, #16]
10001c7e:	2b00      	cmp	r3, #0
10001c80:	d026      	beq.n	10001cd0 <stdio_put_string+0xe4>
10001c82:	2101      	movs	r1, #1
10001c84:	6823      	ldr	r3, [r4, #0]
10001c86:	a801      	add	r0, sp, #4
10001c88:	4798      	blx	r3
10001c8a:	466b      	mov	r3, sp
10001c8c:	791b      	ldrb	r3, [r3, #4]
10001c8e:	3b0d      	subs	r3, #13
10001c90:	425a      	negs	r2, r3
10001c92:	4153      	adcs	r3, r2
10001c94:	7423      	strb	r3, [r4, #16]
10001c96:	68e4      	ldr	r4, [r4, #12]
10001c98:	2c00      	cmp	r4, #0
10001c9a:	d1d6      	bne.n	10001c4a <stdio_put_string+0x5e>
10001c9c:	464b      	mov	r3, r9
10001c9e:	2b00      	cmp	r3, #0
10001ca0:	d112      	bne.n	10001cc8 <stdio_put_string+0xdc>
10001ca2:	1e68      	subs	r0, r5, #1
10001ca4:	4185      	sbcs	r5, r0
10001ca6:	b2e8      	uxtb	r0, r5
10001ca8:	b003      	add	sp, #12
10001caa:	bc3c      	pop	{r2, r3, r4, r5}
10001cac:	4690      	mov	r8, r2
10001cae:	4699      	mov	r9, r3
10001cb0:	46a2      	mov	sl, r4
10001cb2:	46ab      	mov	fp, r5
10001cb4:	bdf0      	pop	{r4, r5, r6, r7, pc}
10001cb6:	0029      	movs	r1, r5
10001cb8:	0038      	movs	r0, r7
10001cba:	4790      	blx	r2
10001cbc:	e7d5      	b.n	10001c6a <stdio_put_string+0x7e>
10001cbe:	2101      	movs	r1, #1
10001cc0:	6823      	ldr	r3, [r4, #0]
10001cc2:	a801      	add	r0, sp, #4
10001cc4:	4798      	blx	r3
10001cc6:	e7bd      	b.n	10001c44 <stdio_put_string+0x58>
10001cc8:	4650      	mov	r0, sl
10001cca:	f000 fcc5 	bl	10002658 <__mutex_exit_veneer>
10001cce:	e7e8      	b.n	10001ca2 <stdio_put_string+0xb6>
10001cd0:	2102      	movs	r1, #2
10001cd2:	4805      	ldr	r0, [pc, #20]	; (10001ce8 <stdio_put_string+0xfc>)
10001cd4:	6823      	ldr	r3, [r4, #0]
10001cd6:	4798      	blx	r3
10001cd8:	e7d7      	b.n	10001c8a <stdio_put_string+0x9e>
10001cda:	46c0      	nop			; (mov r8, r8)
10001cdc:	20000a40 	.word	0x20000a40
10001ce0:	20000aec 	.word	0x20000aec
10001ce4:	20000af0 	.word	0x20000af0
10001ce8:	1000278c 	.word	0x1000278c

10001cec <__wrap_putchar>:
10001cec:	b510      	push	{r4, lr}
10001cee:	b082      	sub	sp, #8
10001cf0:	466b      	mov	r3, sp
10001cf2:	0004      	movs	r4, r0
10001cf4:	2200      	movs	r2, #0
10001cf6:	1dd8      	adds	r0, r3, #7
10001cf8:	2101      	movs	r1, #1
10001cfa:	7004      	strb	r4, [r0, #0]
10001cfc:	f7ff ff76 	bl	10001bec <stdio_put_string>
10001d00:	0020      	movs	r0, r4
10001d02:	b002      	add	sp, #8
10001d04:	bd10      	pop	{r4, pc}
10001d06:	46c0      	nop			; (mov r8, r8)

10001d08 <__wrap_puts>:
10001d08:	b570      	push	{r4, r5, r6, lr}
10001d0a:	0004      	movs	r4, r0
10001d0c:	f000 fb40 	bl	10002390 <strlen>
10001d10:	2201      	movs	r2, #1
10001d12:	0001      	movs	r1, r0
10001d14:	0005      	movs	r5, r0
10001d16:	0020      	movs	r0, r4
10001d18:	f7ff ff68 	bl	10001bec <stdio_put_string>
10001d1c:	4b08      	ldr	r3, [pc, #32]	; (10001d40 <__wrap_puts+0x38>)
10001d1e:	681c      	ldr	r4, [r3, #0]
10001d20:	2c00      	cmp	r4, #0
10001d22:	d006      	beq.n	10001d32 <__wrap_puts+0x2a>
10001d24:	6863      	ldr	r3, [r4, #4]
10001d26:	2b00      	cmp	r3, #0
10001d28:	d005      	beq.n	10001d36 <__wrap_puts+0x2e>
10001d2a:	4798      	blx	r3
10001d2c:	68e4      	ldr	r4, [r4, #12]
10001d2e:	2c00      	cmp	r4, #0
10001d30:	d1f8      	bne.n	10001d24 <__wrap_puts+0x1c>
10001d32:	0028      	movs	r0, r5
10001d34:	bd70      	pop	{r4, r5, r6, pc}
10001d36:	68e4      	ldr	r4, [r4, #12]
10001d38:	2c00      	cmp	r4, #0
10001d3a:	d1f3      	bne.n	10001d24 <__wrap_puts+0x1c>
10001d3c:	e7f9      	b.n	10001d32 <__wrap_puts+0x2a>
10001d3e:	46c0      	nop			; (mov r8, r8)
10001d40:	20000aec 	.word	0x20000aec

10001d44 <calloc>:
10001d44:	0003      	movs	r3, r0
10001d46:	b510      	push	{r4, lr}
10001d48:	000a      	movs	r2, r1
10001d4a:	4903      	ldr	r1, [pc, #12]	; (10001d58 <calloc+0x14>)
10001d4c:	6808      	ldr	r0, [r1, #0]
10001d4e:	0019      	movs	r1, r3
10001d50:	f000 f804 	bl	10001d5c <_calloc_r>
10001d54:	bd10      	pop	{r4, pc}
10001d56:	46c0      	nop			; (mov r8, r8)
10001d58:	20000200 	.word	0x20000200

10001d5c <_calloc_r>:
10001d5c:	b510      	push	{r4, lr}
10001d5e:	4351      	muls	r1, r2
10001d60:	f000 f834 	bl	10001dcc <_malloc_r>
10001d64:	1e04      	subs	r4, r0, #0
10001d66:	d00e      	beq.n	10001d86 <_calloc_r+0x2a>
10001d68:	0003      	movs	r3, r0
10001d6a:	3b08      	subs	r3, #8
10001d6c:	685a      	ldr	r2, [r3, #4]
10001d6e:	2303      	movs	r3, #3
10001d70:	439a      	bics	r2, r3
10001d72:	3a04      	subs	r2, #4
10001d74:	2a24      	cmp	r2, #36	; 0x24
10001d76:	d815      	bhi.n	10001da4 <_calloc_r+0x48>
10001d78:	0003      	movs	r3, r0
10001d7a:	2a13      	cmp	r2, #19
10001d7c:	d805      	bhi.n	10001d8a <_calloc_r+0x2e>
10001d7e:	2200      	movs	r2, #0
10001d80:	601a      	str	r2, [r3, #0]
10001d82:	605a      	str	r2, [r3, #4]
10001d84:	609a      	str	r2, [r3, #8]
10001d86:	0020      	movs	r0, r4
10001d88:	bd10      	pop	{r4, pc}
10001d8a:	2100      	movs	r1, #0
10001d8c:	3308      	adds	r3, #8
10001d8e:	6001      	str	r1, [r0, #0]
10001d90:	6041      	str	r1, [r0, #4]
10001d92:	2a1b      	cmp	r2, #27
10001d94:	d9f3      	bls.n	10001d7e <_calloc_r+0x22>
10001d96:	6081      	str	r1, [r0, #8]
10001d98:	60c1      	str	r1, [r0, #12]
10001d9a:	2a24      	cmp	r2, #36	; 0x24
10001d9c:	d006      	beq.n	10001dac <_calloc_r+0x50>
10001d9e:	0003      	movs	r3, r0
10001da0:	3310      	adds	r3, #16
10001da2:	e7ec      	b.n	10001d7e <_calloc_r+0x22>
10001da4:	2100      	movs	r1, #0
10001da6:	f7ff fed3 	bl	10001b50 <__wrap_memset>
10001daa:	e7ec      	b.n	10001d86 <_calloc_r+0x2a>
10001dac:	0003      	movs	r3, r0
10001dae:	6101      	str	r1, [r0, #16]
10001db0:	3318      	adds	r3, #24
10001db2:	6141      	str	r1, [r0, #20]
10001db4:	e7e3      	b.n	10001d7e <_calloc_r+0x22>
10001db6:	46c0      	nop			; (mov r8, r8)

10001db8 <malloc>:
10001db8:	b510      	push	{r4, lr}
10001dba:	4b03      	ldr	r3, [pc, #12]	; (10001dc8 <malloc+0x10>)
10001dbc:	0001      	movs	r1, r0
10001dbe:	6818      	ldr	r0, [r3, #0]
10001dc0:	f000 f804 	bl	10001dcc <_malloc_r>
10001dc4:	bd10      	pop	{r4, pc}
10001dc6:	46c0      	nop			; (mov r8, r8)
10001dc8:	20000200 	.word	0x20000200

10001dcc <_malloc_r>:
10001dcc:	b5f0      	push	{r4, r5, r6, r7, lr}
10001dce:	464e      	mov	r6, r9
10001dd0:	4645      	mov	r5, r8
10001dd2:	46de      	mov	lr, fp
10001dd4:	4657      	mov	r7, sl
10001dd6:	b5e0      	push	{r5, r6, r7, lr}
10001dd8:	000d      	movs	r5, r1
10001dda:	350b      	adds	r5, #11
10001ddc:	0006      	movs	r6, r0
10001dde:	b083      	sub	sp, #12
10001de0:	2d16      	cmp	r5, #22
10001de2:	d822      	bhi.n	10001e2a <_malloc_r+0x5e>
10001de4:	2910      	cmp	r1, #16
10001de6:	d900      	bls.n	10001dea <_malloc_r+0x1e>
10001de8:	e0b2      	b.n	10001f50 <_malloc_r+0x184>
10001dea:	f000 faaf 	bl	1000234c <__malloc_lock>
10001dee:	2510      	movs	r5, #16
10001df0:	2002      	movs	r0, #2
10001df2:	2318      	movs	r3, #24
10001df4:	4fcb      	ldr	r7, [pc, #812]	; (10002124 <_malloc_r+0x358>)
10001df6:	18fb      	adds	r3, r7, r3
10001df8:	001a      	movs	r2, r3
10001dfa:	685c      	ldr	r4, [r3, #4]
10001dfc:	3a08      	subs	r2, #8
10001dfe:	4294      	cmp	r4, r2
10001e00:	d100      	bne.n	10001e04 <_malloc_r+0x38>
10001e02:	e0b5      	b.n	10001f70 <_malloc_r+0x1a4>
10001e04:	2303      	movs	r3, #3
10001e06:	6862      	ldr	r2, [r4, #4]
10001e08:	439a      	bics	r2, r3
10001e0a:	0013      	movs	r3, r2
10001e0c:	68e2      	ldr	r2, [r4, #12]
10001e0e:	68a1      	ldr	r1, [r4, #8]
10001e10:	60ca      	str	r2, [r1, #12]
10001e12:	6091      	str	r1, [r2, #8]
10001e14:	2201      	movs	r2, #1
10001e16:	18e3      	adds	r3, r4, r3
10001e18:	6859      	ldr	r1, [r3, #4]
10001e1a:	0030      	movs	r0, r6
10001e1c:	430a      	orrs	r2, r1
10001e1e:	605a      	str	r2, [r3, #4]
10001e20:	f000 fa9c 	bl	1000235c <__malloc_unlock>
10001e24:	0020      	movs	r0, r4
10001e26:	3008      	adds	r0, #8
10001e28:	e095      	b.n	10001f56 <_malloc_r+0x18a>
10001e2a:	2307      	movs	r3, #7
10001e2c:	439d      	bics	r5, r3
10001e2e:	d500      	bpl.n	10001e32 <_malloc_r+0x66>
10001e30:	e08e      	b.n	10001f50 <_malloc_r+0x184>
10001e32:	42a9      	cmp	r1, r5
10001e34:	d900      	bls.n	10001e38 <_malloc_r+0x6c>
10001e36:	e08b      	b.n	10001f50 <_malloc_r+0x184>
10001e38:	f000 fa88 	bl	1000234c <__malloc_lock>
10001e3c:	23fc      	movs	r3, #252	; 0xfc
10001e3e:	005b      	lsls	r3, r3, #1
10001e40:	429d      	cmp	r5, r3
10001e42:	d200      	bcs.n	10001e46 <_malloc_r+0x7a>
10001e44:	e1a5      	b.n	10002192 <_malloc_r+0x3c6>
10001e46:	0a68      	lsrs	r0, r5, #9
10001e48:	d100      	bne.n	10001e4c <_malloc_r+0x80>
10001e4a:	e08b      	b.n	10001f64 <_malloc_r+0x198>
10001e4c:	2804      	cmp	r0, #4
10001e4e:	d900      	bls.n	10001e52 <_malloc_r+0x86>
10001e50:	e178      	b.n	10002144 <_malloc_r+0x378>
10001e52:	2338      	movs	r3, #56	; 0x38
10001e54:	4698      	mov	r8, r3
10001e56:	09a8      	lsrs	r0, r5, #6
10001e58:	4480      	add	r8, r0
10001e5a:	3039      	adds	r0, #57	; 0x39
10001e5c:	00c1      	lsls	r1, r0, #3
10001e5e:	4fb1      	ldr	r7, [pc, #708]	; (10002124 <_malloc_r+0x358>)
10001e60:	1879      	adds	r1, r7, r1
10001e62:	684c      	ldr	r4, [r1, #4]
10001e64:	3908      	subs	r1, #8
10001e66:	42a1      	cmp	r1, r4
10001e68:	d00e      	beq.n	10001e88 <_malloc_r+0xbc>
10001e6a:	2303      	movs	r3, #3
10001e6c:	469c      	mov	ip, r3
10001e6e:	e004      	b.n	10001e7a <_malloc_r+0xae>
10001e70:	2a00      	cmp	r2, #0
10001e72:	dacb      	bge.n	10001e0c <_malloc_r+0x40>
10001e74:	68e4      	ldr	r4, [r4, #12]
10001e76:	42a1      	cmp	r1, r4
10001e78:	d006      	beq.n	10001e88 <_malloc_r+0xbc>
10001e7a:	4662      	mov	r2, ip
10001e7c:	6863      	ldr	r3, [r4, #4]
10001e7e:	4393      	bics	r3, r2
10001e80:	1b5a      	subs	r2, r3, r5
10001e82:	2a0f      	cmp	r2, #15
10001e84:	ddf4      	ble.n	10001e70 <_malloc_r+0xa4>
10001e86:	4640      	mov	r0, r8
10001e88:	003a      	movs	r2, r7
10001e8a:	693c      	ldr	r4, [r7, #16]
10001e8c:	3208      	adds	r2, #8
10001e8e:	4294      	cmp	r4, r2
10001e90:	d100      	bne.n	10001e94 <_malloc_r+0xc8>
10001e92:	e078      	b.n	10001f86 <_malloc_r+0x1ba>
10001e94:	2303      	movs	r3, #3
10001e96:	6861      	ldr	r1, [r4, #4]
10001e98:	4399      	bics	r1, r3
10001e9a:	4689      	mov	r9, r1
10001e9c:	000b      	movs	r3, r1
10001e9e:	1b49      	subs	r1, r1, r5
10001ea0:	290f      	cmp	r1, #15
10001ea2:	dd00      	ble.n	10001ea6 <_malloc_r+0xda>
10001ea4:	e179      	b.n	1000219a <_malloc_r+0x3ce>
10001ea6:	617a      	str	r2, [r7, #20]
10001ea8:	613a      	str	r2, [r7, #16]
10001eaa:	2900      	cmp	r1, #0
10001eac:	dab2      	bge.n	10001e14 <_malloc_r+0x48>
10001eae:	2280      	movs	r2, #128	; 0x80
10001eb0:	0092      	lsls	r2, r2, #2
10001eb2:	4591      	cmp	r9, r2
10001eb4:	d300      	bcc.n	10001eb8 <_malloc_r+0xec>
10001eb6:	e10e      	b.n	100020d6 <_malloc_r+0x30a>
10001eb8:	0959      	lsrs	r1, r3, #5
10001eba:	08da      	lsrs	r2, r3, #3
10001ebc:	2301      	movs	r3, #1
10001ebe:	408b      	lsls	r3, r1
10001ec0:	00d2      	lsls	r2, r2, #3
10001ec2:	6879      	ldr	r1, [r7, #4]
10001ec4:	19d2      	adds	r2, r2, r7
10001ec6:	430b      	orrs	r3, r1
10001ec8:	6891      	ldr	r1, [r2, #8]
10001eca:	607b      	str	r3, [r7, #4]
10001ecc:	60e2      	str	r2, [r4, #12]
10001ece:	60a1      	str	r1, [r4, #8]
10001ed0:	6094      	str	r4, [r2, #8]
10001ed2:	60cc      	str	r4, [r1, #12]
10001ed4:	2101      	movs	r1, #1
10001ed6:	1082      	asrs	r2, r0, #2
10001ed8:	4091      	lsls	r1, r2
10001eda:	4299      	cmp	r1, r3
10001edc:	d859      	bhi.n	10001f92 <_malloc_r+0x1c6>
10001ede:	420b      	tst	r3, r1
10001ee0:	d105      	bne.n	10001eee <_malloc_r+0x122>
10001ee2:	2203      	movs	r2, #3
10001ee4:	4390      	bics	r0, r2
10001ee6:	0049      	lsls	r1, r1, #1
10001ee8:	3004      	adds	r0, #4
10001eea:	420b      	tst	r3, r1
10001eec:	d0fb      	beq.n	10001ee6 <_malloc_r+0x11a>
10001eee:	2303      	movs	r3, #3
10001ef0:	4698      	mov	r8, r3
10001ef2:	00c3      	lsls	r3, r0, #3
10001ef4:	4699      	mov	r9, r3
10001ef6:	44b9      	add	r9, r7
10001ef8:	46cc      	mov	ip, r9
10001efa:	4682      	mov	sl, r0
10001efc:	4663      	mov	r3, ip
10001efe:	68dc      	ldr	r4, [r3, #12]
10001f00:	45a4      	cmp	ip, r4
10001f02:	d107      	bne.n	10001f14 <_malloc_r+0x148>
10001f04:	e12a      	b.n	1000215c <_malloc_r+0x390>
10001f06:	2a00      	cmp	r2, #0
10001f08:	db00      	blt.n	10001f0c <_malloc_r+0x140>
10001f0a:	e133      	b.n	10002174 <_malloc_r+0x3a8>
10001f0c:	68e4      	ldr	r4, [r4, #12]
10001f0e:	45a4      	cmp	ip, r4
10001f10:	d100      	bne.n	10001f14 <_malloc_r+0x148>
10001f12:	e123      	b.n	1000215c <_malloc_r+0x390>
10001f14:	4642      	mov	r2, r8
10001f16:	6863      	ldr	r3, [r4, #4]
10001f18:	4393      	bics	r3, r2
10001f1a:	1b5a      	subs	r2, r3, r5
10001f1c:	2a0f      	cmp	r2, #15
10001f1e:	ddf2      	ble.n	10001f06 <_malloc_r+0x13a>
10001f20:	2001      	movs	r0, #1
10001f22:	4680      	mov	r8, r0
10001f24:	1961      	adds	r1, r4, r5
10001f26:	4305      	orrs	r5, r0
10001f28:	6065      	str	r5, [r4, #4]
10001f2a:	68a0      	ldr	r0, [r4, #8]
10001f2c:	68e5      	ldr	r5, [r4, #12]
10001f2e:	3708      	adds	r7, #8
10001f30:	60c5      	str	r5, [r0, #12]
10001f32:	60a8      	str	r0, [r5, #8]
10001f34:	4640      	mov	r0, r8
10001f36:	4310      	orrs	r0, r2
10001f38:	60f9      	str	r1, [r7, #12]
10001f3a:	60b9      	str	r1, [r7, #8]
10001f3c:	6048      	str	r0, [r1, #4]
10001f3e:	60cf      	str	r7, [r1, #12]
10001f40:	0030      	movs	r0, r6
10001f42:	608f      	str	r7, [r1, #8]
10001f44:	50e2      	str	r2, [r4, r3]
10001f46:	f000 fa09 	bl	1000235c <__malloc_unlock>
10001f4a:	0020      	movs	r0, r4
10001f4c:	3008      	adds	r0, #8
10001f4e:	e002      	b.n	10001f56 <_malloc_r+0x18a>
10001f50:	230c      	movs	r3, #12
10001f52:	2000      	movs	r0, #0
10001f54:	6033      	str	r3, [r6, #0]
10001f56:	b003      	add	sp, #12
10001f58:	bc3c      	pop	{r2, r3, r4, r5}
10001f5a:	4690      	mov	r8, r2
10001f5c:	4699      	mov	r9, r3
10001f5e:	46a2      	mov	sl, r4
10001f60:	46ab      	mov	fp, r5
10001f62:	bdf0      	pop	{r4, r5, r6, r7, pc}
10001f64:	2180      	movs	r1, #128	; 0x80
10001f66:	233f      	movs	r3, #63	; 0x3f
10001f68:	2040      	movs	r0, #64	; 0x40
10001f6a:	4698      	mov	r8, r3
10001f6c:	0089      	lsls	r1, r1, #2
10001f6e:	e776      	b.n	10001e5e <_malloc_r+0x92>
10001f70:	68dc      	ldr	r4, [r3, #12]
10001f72:	3002      	adds	r0, #2
10001f74:	42a3      	cmp	r3, r4
10001f76:	d000      	beq.n	10001f7a <_malloc_r+0x1ae>
10001f78:	e744      	b.n	10001e04 <_malloc_r+0x38>
10001f7a:	003a      	movs	r2, r7
10001f7c:	693c      	ldr	r4, [r7, #16]
10001f7e:	3208      	adds	r2, #8
10001f80:	4294      	cmp	r4, r2
10001f82:	d000      	beq.n	10001f86 <_malloc_r+0x1ba>
10001f84:	e786      	b.n	10001e94 <_malloc_r+0xc8>
10001f86:	2101      	movs	r1, #1
10001f88:	687b      	ldr	r3, [r7, #4]
10001f8a:	1082      	asrs	r2, r0, #2
10001f8c:	4091      	lsls	r1, r2
10001f8e:	4299      	cmp	r1, r3
10001f90:	d9a5      	bls.n	10001ede <_malloc_r+0x112>
10001f92:	2303      	movs	r3, #3
10001f94:	68bc      	ldr	r4, [r7, #8]
10001f96:	6862      	ldr	r2, [r4, #4]
10001f98:	439a      	bics	r2, r3
10001f9a:	4691      	mov	r9, r2
10001f9c:	4295      	cmp	r5, r2
10001f9e:	d803      	bhi.n	10001fa8 <_malloc_r+0x1dc>
10001fa0:	1b53      	subs	r3, r2, r5
10001fa2:	2b0f      	cmp	r3, #15
10001fa4:	dd00      	ble.n	10001fa8 <_malloc_r+0x1dc>
10001fa6:	e088      	b.n	100020ba <_malloc_r+0x2ee>
10001fa8:	0023      	movs	r3, r4
10001faa:	444b      	add	r3, r9
10001fac:	4a5e      	ldr	r2, [pc, #376]	; (10002128 <_malloc_r+0x35c>)
10001fae:	9301      	str	r3, [sp, #4]
10001fb0:	4b5e      	ldr	r3, [pc, #376]	; (1000212c <_malloc_r+0x360>)
10001fb2:	4693      	mov	fp, r2
10001fb4:	681b      	ldr	r3, [r3, #0]
10001fb6:	6812      	ldr	r2, [r2, #0]
10001fb8:	18eb      	adds	r3, r5, r3
10001fba:	3201      	adds	r2, #1
10001fbc:	d100      	bne.n	10001fc0 <_malloc_r+0x1f4>
10001fbe:	e13b      	b.n	10002238 <_malloc_r+0x46c>
10001fc0:	4a5b      	ldr	r2, [pc, #364]	; (10002130 <_malloc_r+0x364>)
10001fc2:	4694      	mov	ip, r2
10001fc4:	4463      	add	r3, ip
10001fc6:	0b1b      	lsrs	r3, r3, #12
10001fc8:	031b      	lsls	r3, r3, #12
10001fca:	9300      	str	r3, [sp, #0]
10001fcc:	0030      	movs	r0, r6
10001fce:	9900      	ldr	r1, [sp, #0]
10001fd0:	f000 f9cc 	bl	1000236c <_sbrk_r>
10001fd4:	0003      	movs	r3, r0
10001fd6:	4680      	mov	r8, r0
10001fd8:	3301      	adds	r3, #1
10001fda:	d100      	bne.n	10001fde <_malloc_r+0x212>
10001fdc:	e0f8      	b.n	100021d0 <_malloc_r+0x404>
10001fde:	9b01      	ldr	r3, [sp, #4]
10001fe0:	4283      	cmp	r3, r0
10001fe2:	d900      	bls.n	10001fe6 <_malloc_r+0x21a>
10001fe4:	e0f2      	b.n	100021cc <_malloc_r+0x400>
10001fe6:	4b53      	ldr	r3, [pc, #332]	; (10002134 <_malloc_r+0x368>)
10001fe8:	0019      	movs	r1, r3
10001fea:	469a      	mov	sl, r3
10001fec:	6809      	ldr	r1, [r1, #0]
10001fee:	9b00      	ldr	r3, [sp, #0]
10001ff0:	468c      	mov	ip, r1
10001ff2:	4651      	mov	r1, sl
10001ff4:	4463      	add	r3, ip
10001ff6:	600b      	str	r3, [r1, #0]
10001ff8:	9901      	ldr	r1, [sp, #4]
10001ffa:	001a      	movs	r2, r3
10001ffc:	4281      	cmp	r1, r0
10001ffe:	d100      	bne.n	10002002 <_malloc_r+0x236>
10002000:	e150      	b.n	100022a4 <_malloc_r+0x4d8>
10002002:	465b      	mov	r3, fp
10002004:	681b      	ldr	r3, [r3, #0]
10002006:	3301      	adds	r3, #1
10002008:	d100      	bne.n	1000200c <_malloc_r+0x240>
1000200a:	e155      	b.n	100022b8 <_malloc_r+0x4ec>
1000200c:	4643      	mov	r3, r8
1000200e:	9901      	ldr	r1, [sp, #4]
10002010:	1a5b      	subs	r3, r3, r1
10002012:	189a      	adds	r2, r3, r2
10002014:	4653      	mov	r3, sl
10002016:	601a      	str	r2, [r3, #0]
10002018:	2307      	movs	r3, #7
1000201a:	4642      	mov	r2, r8
1000201c:	4641      	mov	r1, r8
1000201e:	401a      	ands	r2, r3
10002020:	9201      	str	r2, [sp, #4]
10002022:	4219      	tst	r1, r3
10002024:	d100      	bne.n	10002028 <_malloc_r+0x25c>
10002026:	e111      	b.n	1000224c <_malloc_r+0x480>
10002028:	2308      	movs	r3, #8
1000202a:	4698      	mov	r8, r3
1000202c:	1a88      	subs	r0, r1, r2
1000202e:	4b42      	ldr	r3, [pc, #264]	; (10002138 <_malloc_r+0x36c>)
10002030:	9900      	ldr	r1, [sp, #0]
10002032:	4480      	add	r8, r0
10002034:	4441      	add	r1, r8
10002036:	1a9b      	subs	r3, r3, r2
10002038:	1a5b      	subs	r3, r3, r1
1000203a:	051b      	lsls	r3, r3, #20
1000203c:	0d1b      	lsrs	r3, r3, #20
1000203e:	9100      	str	r1, [sp, #0]
10002040:	0030      	movs	r0, r6
10002042:	0019      	movs	r1, r3
10002044:	469b      	mov	fp, r3
10002046:	f000 f991 	bl	1000236c <_sbrk_r>
1000204a:	1c43      	adds	r3, r0, #1
1000204c:	d100      	bne.n	10002050 <_malloc_r+0x284>
1000204e:	e14f      	b.n	100022f0 <_malloc_r+0x524>
10002050:	4643      	mov	r3, r8
10002052:	1ac0      	subs	r0, r0, r3
10002054:	0003      	movs	r3, r0
10002056:	445b      	add	r3, fp
10002058:	9300      	str	r3, [sp, #0]
1000205a:	4653      	mov	r3, sl
1000205c:	4652      	mov	r2, sl
1000205e:	681b      	ldr	r3, [r3, #0]
10002060:	2101      	movs	r1, #1
10002062:	445b      	add	r3, fp
10002064:	6013      	str	r3, [r2, #0]
10002066:	4642      	mov	r2, r8
10002068:	4640      	mov	r0, r8
1000206a:	60ba      	str	r2, [r7, #8]
1000206c:	9a00      	ldr	r2, [sp, #0]
1000206e:	430a      	orrs	r2, r1
10002070:	6042      	str	r2, [r0, #4]
10002072:	42bc      	cmp	r4, r7
10002074:	d100      	bne.n	10002078 <_malloc_r+0x2ac>
10002076:	e123      	b.n	100022c0 <_malloc_r+0x4f4>
10002078:	464a      	mov	r2, r9
1000207a:	2a0f      	cmp	r2, #15
1000207c:	d800      	bhi.n	10002080 <_malloc_r+0x2b4>
1000207e:	e121      	b.n	100022c4 <_malloc_r+0x4f8>
10002080:	2007      	movs	r0, #7
10002082:	3a0c      	subs	r2, #12
10002084:	4382      	bics	r2, r0
10002086:	6860      	ldr	r0, [r4, #4]
10002088:	4001      	ands	r1, r0
1000208a:	2005      	movs	r0, #5
1000208c:	4311      	orrs	r1, r2
1000208e:	6061      	str	r1, [r4, #4]
10002090:	18a1      	adds	r1, r4, r2
10002092:	6048      	str	r0, [r1, #4]
10002094:	6088      	str	r0, [r1, #8]
10002096:	2a0f      	cmp	r2, #15
10002098:	d900      	bls.n	1000209c <_malloc_r+0x2d0>
1000209a:	e134      	b.n	10002306 <_malloc_r+0x53a>
1000209c:	4642      	mov	r2, r8
1000209e:	4644      	mov	r4, r8
100020a0:	6852      	ldr	r2, [r2, #4]
100020a2:	4926      	ldr	r1, [pc, #152]	; (1000213c <_malloc_r+0x370>)
100020a4:	6808      	ldr	r0, [r1, #0]
100020a6:	4298      	cmp	r0, r3
100020a8:	d200      	bcs.n	100020ac <_malloc_r+0x2e0>
100020aa:	600b      	str	r3, [r1, #0]
100020ac:	4924      	ldr	r1, [pc, #144]	; (10002140 <_malloc_r+0x374>)
100020ae:	6808      	ldr	r0, [r1, #0]
100020b0:	4298      	cmp	r0, r3
100020b2:	d300      	bcc.n	100020b6 <_malloc_r+0x2ea>
100020b4:	e08e      	b.n	100021d4 <_malloc_r+0x408>
100020b6:	600b      	str	r3, [r1, #0]
100020b8:	e08c      	b.n	100021d4 <_malloc_r+0x408>
100020ba:	2201      	movs	r2, #1
100020bc:	0029      	movs	r1, r5
100020be:	4313      	orrs	r3, r2
100020c0:	4311      	orrs	r1, r2
100020c2:	1965      	adds	r5, r4, r5
100020c4:	6061      	str	r1, [r4, #4]
100020c6:	0030      	movs	r0, r6
100020c8:	60bd      	str	r5, [r7, #8]
100020ca:	606b      	str	r3, [r5, #4]
100020cc:	f000 f946 	bl	1000235c <__malloc_unlock>
100020d0:	0020      	movs	r0, r4
100020d2:	3008      	adds	r0, #8
100020d4:	e73f      	b.n	10001f56 <_malloc_r+0x18a>
100020d6:	0a5a      	lsrs	r2, r3, #9
100020d8:	2a04      	cmp	r2, #4
100020da:	d971      	bls.n	100021c0 <_malloc_r+0x3f4>
100020dc:	2a14      	cmp	r2, #20
100020de:	d900      	bls.n	100020e2 <_malloc_r+0x316>
100020e0:	e0c4      	b.n	1000226c <_malloc_r+0x4a0>
100020e2:	0011      	movs	r1, r2
100020e4:	325c      	adds	r2, #92	; 0x5c
100020e6:	315b      	adds	r1, #91	; 0x5b
100020e8:	00d2      	lsls	r2, r2, #3
100020ea:	2308      	movs	r3, #8
100020ec:	425b      	negs	r3, r3
100020ee:	469c      	mov	ip, r3
100020f0:	18ba      	adds	r2, r7, r2
100020f2:	4494      	add	ip, r2
100020f4:	4663      	mov	r3, ip
100020f6:	689a      	ldr	r2, [r3, #8]
100020f8:	2303      	movs	r3, #3
100020fa:	4698      	mov	r8, r3
100020fc:	4594      	cmp	ip, r2
100020fe:	d100      	bne.n	10002102 <_malloc_r+0x336>
10002100:	e09d      	b.n	1000223e <_malloc_r+0x472>
10002102:	4643      	mov	r3, r8
10002104:	6851      	ldr	r1, [r2, #4]
10002106:	4399      	bics	r1, r3
10002108:	4549      	cmp	r1, r9
1000210a:	d902      	bls.n	10002112 <_malloc_r+0x346>
1000210c:	6892      	ldr	r2, [r2, #8]
1000210e:	4594      	cmp	ip, r2
10002110:	d1f7      	bne.n	10002102 <_malloc_r+0x336>
10002112:	68d3      	ldr	r3, [r2, #12]
10002114:	469c      	mov	ip, r3
10002116:	687b      	ldr	r3, [r7, #4]
10002118:	4661      	mov	r1, ip
1000211a:	60a2      	str	r2, [r4, #8]
1000211c:	60e1      	str	r1, [r4, #12]
1000211e:	608c      	str	r4, [r1, #8]
10002120:	60d4      	str	r4, [r2, #12]
10002122:	e6d7      	b.n	10001ed4 <_malloc_r+0x108>
10002124:	20000630 	.word	0x20000630
10002128:	20000a38 	.word	0x20000a38
1000212c:	20000aa8 	.word	0x20000aa8
10002130:	0000100f 	.word	0x0000100f
10002134:	20000a78 	.word	0x20000a78
10002138:	00001008 	.word	0x00001008
1000213c:	20000aa0 	.word	0x20000aa0
10002140:	20000aa4 	.word	0x20000aa4
10002144:	2814      	cmp	r0, #20
10002146:	d952      	bls.n	100021ee <_malloc_r+0x422>
10002148:	2854      	cmp	r0, #84	; 0x54
1000214a:	d900      	bls.n	1000214e <_malloc_r+0x382>
1000214c:	e096      	b.n	1000227c <_malloc_r+0x4b0>
1000214e:	236e      	movs	r3, #110	; 0x6e
10002150:	4698      	mov	r8, r3
10002152:	0b28      	lsrs	r0, r5, #12
10002154:	4480      	add	r8, r0
10002156:	306f      	adds	r0, #111	; 0x6f
10002158:	00c1      	lsls	r1, r0, #3
1000215a:	e680      	b.n	10001e5e <_malloc_r+0x92>
1000215c:	2308      	movs	r3, #8
1000215e:	469b      	mov	fp, r3
10002160:	3b07      	subs	r3, #7
10002162:	44dc      	add	ip, fp
10002164:	469b      	mov	fp, r3
10002166:	44da      	add	sl, fp
10002168:	4643      	mov	r3, r8
1000216a:	4652      	mov	r2, sl
1000216c:	4213      	tst	r3, r2
1000216e:	d000      	beq.n	10002172 <_malloc_r+0x3a6>
10002170:	e6c4      	b.n	10001efc <_malloc_r+0x130>
10002172:	e04c      	b.n	1000220e <_malloc_r+0x442>
10002174:	2201      	movs	r2, #1
10002176:	18e3      	adds	r3, r4, r3
10002178:	6859      	ldr	r1, [r3, #4]
1000217a:	0030      	movs	r0, r6
1000217c:	430a      	orrs	r2, r1
1000217e:	605a      	str	r2, [r3, #4]
10002180:	68e3      	ldr	r3, [r4, #12]
10002182:	68a2      	ldr	r2, [r4, #8]
10002184:	60d3      	str	r3, [r2, #12]
10002186:	609a      	str	r2, [r3, #8]
10002188:	f000 f8e8 	bl	1000235c <__malloc_unlock>
1000218c:	0020      	movs	r0, r4
1000218e:	3008      	adds	r0, #8
10002190:	e6e1      	b.n	10001f56 <_malloc_r+0x18a>
10002192:	002b      	movs	r3, r5
10002194:	08e8      	lsrs	r0, r5, #3
10002196:	3308      	adds	r3, #8
10002198:	e62c      	b.n	10001df4 <_malloc_r+0x28>
1000219a:	2301      	movs	r3, #1
1000219c:	1960      	adds	r0, r4, r5
1000219e:	431d      	orrs	r5, r3
100021a0:	6065      	str	r5, [r4, #4]
100021a2:	6178      	str	r0, [r7, #20]
100021a4:	6138      	str	r0, [r7, #16]
100021a6:	60c2      	str	r2, [r0, #12]
100021a8:	6082      	str	r2, [r0, #8]
100021aa:	001a      	movs	r2, r3
100021ac:	464b      	mov	r3, r9
100021ae:	430a      	orrs	r2, r1
100021b0:	6042      	str	r2, [r0, #4]
100021b2:	0030      	movs	r0, r6
100021b4:	50e1      	str	r1, [r4, r3]
100021b6:	f000 f8d1 	bl	1000235c <__malloc_unlock>
100021ba:	0020      	movs	r0, r4
100021bc:	3008      	adds	r0, #8
100021be:	e6ca      	b.n	10001f56 <_malloc_r+0x18a>
100021c0:	099a      	lsrs	r2, r3, #6
100021c2:	0011      	movs	r1, r2
100021c4:	3239      	adds	r2, #57	; 0x39
100021c6:	3138      	adds	r1, #56	; 0x38
100021c8:	00d2      	lsls	r2, r2, #3
100021ca:	e78e      	b.n	100020ea <_malloc_r+0x31e>
100021cc:	42bc      	cmp	r4, r7
100021ce:	d060      	beq.n	10002292 <_malloc_r+0x4c6>
100021d0:	68bc      	ldr	r4, [r7, #8]
100021d2:	6862      	ldr	r2, [r4, #4]
100021d4:	2303      	movs	r3, #3
100021d6:	439a      	bics	r2, r3
100021d8:	1b53      	subs	r3, r2, r5
100021da:	4295      	cmp	r5, r2
100021dc:	d802      	bhi.n	100021e4 <_malloc_r+0x418>
100021de:	2b0f      	cmp	r3, #15
100021e0:	dd00      	ble.n	100021e4 <_malloc_r+0x418>
100021e2:	e76a      	b.n	100020ba <_malloc_r+0x2ee>
100021e4:	0030      	movs	r0, r6
100021e6:	f000 f8b9 	bl	1000235c <__malloc_unlock>
100021ea:	2000      	movs	r0, #0
100021ec:	e6b3      	b.n	10001f56 <_malloc_r+0x18a>
100021ee:	235b      	movs	r3, #91	; 0x5b
100021f0:	4698      	mov	r8, r3
100021f2:	4480      	add	r8, r0
100021f4:	305c      	adds	r0, #92	; 0x5c
100021f6:	00c1      	lsls	r1, r0, #3
100021f8:	e631      	b.n	10001e5e <_malloc_r+0x92>
100021fa:	2308      	movs	r3, #8
100021fc:	425b      	negs	r3, r3
100021fe:	469c      	mov	ip, r3
10002200:	44e1      	add	r9, ip
10002202:	464b      	mov	r3, r9
10002204:	689b      	ldr	r3, [r3, #8]
10002206:	3801      	subs	r0, #1
10002208:	454b      	cmp	r3, r9
1000220a:	d000      	beq.n	1000220e <_malloc_r+0x442>
1000220c:	e098      	b.n	10002340 <_malloc_r+0x574>
1000220e:	4643      	mov	r3, r8
10002210:	4203      	tst	r3, r0
10002212:	d1f2      	bne.n	100021fa <_malloc_r+0x42e>
10002214:	687b      	ldr	r3, [r7, #4]
10002216:	438b      	bics	r3, r1
10002218:	607b      	str	r3, [r7, #4]
1000221a:	0049      	lsls	r1, r1, #1
1000221c:	4299      	cmp	r1, r3
1000221e:	d900      	bls.n	10002222 <_malloc_r+0x456>
10002220:	e6b7      	b.n	10001f92 <_malloc_r+0x1c6>
10002222:	2900      	cmp	r1, #0
10002224:	d104      	bne.n	10002230 <_malloc_r+0x464>
10002226:	e6b4      	b.n	10001f92 <_malloc_r+0x1c6>
10002228:	2204      	movs	r2, #4
1000222a:	4694      	mov	ip, r2
1000222c:	0049      	lsls	r1, r1, #1
1000222e:	44e2      	add	sl, ip
10002230:	420b      	tst	r3, r1
10002232:	d0f9      	beq.n	10002228 <_malloc_r+0x45c>
10002234:	4650      	mov	r0, sl
10002236:	e65c      	b.n	10001ef2 <_malloc_r+0x126>
10002238:	3310      	adds	r3, #16
1000223a:	9300      	str	r3, [sp, #0]
1000223c:	e6c6      	b.n	10001fcc <_malloc_r+0x200>
1000223e:	1089      	asrs	r1, r1, #2
10002240:	3b02      	subs	r3, #2
10002242:	408b      	lsls	r3, r1
10002244:	6879      	ldr	r1, [r7, #4]
10002246:	430b      	orrs	r3, r1
10002248:	607b      	str	r3, [r7, #4]
1000224a:	e765      	b.n	10002118 <_malloc_r+0x34c>
1000224c:	9b00      	ldr	r3, [sp, #0]
1000224e:	0030      	movs	r0, r6
10002250:	4443      	add	r3, r8
10002252:	425b      	negs	r3, r3
10002254:	051b      	lsls	r3, r3, #20
10002256:	0d1b      	lsrs	r3, r3, #20
10002258:	0019      	movs	r1, r3
1000225a:	469b      	mov	fp, r3
1000225c:	f000 f886 	bl	1000236c <_sbrk_r>
10002260:	1c43      	adds	r3, r0, #1
10002262:	d000      	beq.n	10002266 <_malloc_r+0x49a>
10002264:	e6f4      	b.n	10002050 <_malloc_r+0x284>
10002266:	2300      	movs	r3, #0
10002268:	469b      	mov	fp, r3
1000226a:	e6f6      	b.n	1000205a <_malloc_r+0x28e>
1000226c:	2a54      	cmp	r2, #84	; 0x54
1000226e:	d82b      	bhi.n	100022c8 <_malloc_r+0x4fc>
10002270:	0b1a      	lsrs	r2, r3, #12
10002272:	0011      	movs	r1, r2
10002274:	326f      	adds	r2, #111	; 0x6f
10002276:	316e      	adds	r1, #110	; 0x6e
10002278:	00d2      	lsls	r2, r2, #3
1000227a:	e736      	b.n	100020ea <_malloc_r+0x31e>
1000227c:	23aa      	movs	r3, #170	; 0xaa
1000227e:	005b      	lsls	r3, r3, #1
10002280:	4298      	cmp	r0, r3
10002282:	d82b      	bhi.n	100022dc <_malloc_r+0x510>
10002284:	3bdd      	subs	r3, #221	; 0xdd
10002286:	4698      	mov	r8, r3
10002288:	0be8      	lsrs	r0, r5, #15
1000228a:	4480      	add	r8, r0
1000228c:	3078      	adds	r0, #120	; 0x78
1000228e:	00c1      	lsls	r1, r0, #3
10002290:	e5e5      	b.n	10001e5e <_malloc_r+0x92>
10002292:	4b2c      	ldr	r3, [pc, #176]	; (10002344 <_malloc_r+0x578>)
10002294:	9a00      	ldr	r2, [sp, #0]
10002296:	469a      	mov	sl, r3
10002298:	681b      	ldr	r3, [r3, #0]
1000229a:	469c      	mov	ip, r3
1000229c:	4653      	mov	r3, sl
1000229e:	4462      	add	r2, ip
100022a0:	601a      	str	r2, [r3, #0]
100022a2:	e6ae      	b.n	10002002 <_malloc_r+0x236>
100022a4:	0509      	lsls	r1, r1, #20
100022a6:	d000      	beq.n	100022aa <_malloc_r+0x4de>
100022a8:	e6ab      	b.n	10002002 <_malloc_r+0x236>
100022aa:	9a00      	ldr	r2, [sp, #0]
100022ac:	68bc      	ldr	r4, [r7, #8]
100022ae:	444a      	add	r2, r9
100022b0:	3101      	adds	r1, #1
100022b2:	430a      	orrs	r2, r1
100022b4:	6062      	str	r2, [r4, #4]
100022b6:	e6f4      	b.n	100020a2 <_malloc_r+0x2d6>
100022b8:	465b      	mov	r3, fp
100022ba:	4642      	mov	r2, r8
100022bc:	601a      	str	r2, [r3, #0]
100022be:	e6ab      	b.n	10002018 <_malloc_r+0x24c>
100022c0:	4644      	mov	r4, r8
100022c2:	e6ee      	b.n	100020a2 <_malloc_r+0x2d6>
100022c4:	6041      	str	r1, [r0, #4]
100022c6:	e78d      	b.n	100021e4 <_malloc_r+0x418>
100022c8:	21aa      	movs	r1, #170	; 0xaa
100022ca:	0049      	lsls	r1, r1, #1
100022cc:	428a      	cmp	r2, r1
100022ce:	d824      	bhi.n	1000231a <_malloc_r+0x54e>
100022d0:	0bda      	lsrs	r2, r3, #15
100022d2:	0011      	movs	r1, r2
100022d4:	3278      	adds	r2, #120	; 0x78
100022d6:	3177      	adds	r1, #119	; 0x77
100022d8:	00d2      	lsls	r2, r2, #3
100022da:	e706      	b.n	100020ea <_malloc_r+0x31e>
100022dc:	4b1a      	ldr	r3, [pc, #104]	; (10002348 <_malloc_r+0x57c>)
100022de:	4298      	cmp	r0, r3
100022e0:	d824      	bhi.n	1000232c <_malloc_r+0x560>
100022e2:	237c      	movs	r3, #124	; 0x7c
100022e4:	4698      	mov	r8, r3
100022e6:	0ca8      	lsrs	r0, r5, #18
100022e8:	4480      	add	r8, r0
100022ea:	307d      	adds	r0, #125	; 0x7d
100022ec:	00c1      	lsls	r1, r0, #3
100022ee:	e5b6      	b.n	10001e5e <_malloc_r+0x92>
100022f0:	9a00      	ldr	r2, [sp, #0]
100022f2:	9b01      	ldr	r3, [sp, #4]
100022f4:	4694      	mov	ip, r2
100022f6:	4642      	mov	r2, r8
100022f8:	3b08      	subs	r3, #8
100022fa:	4463      	add	r3, ip
100022fc:	1a9b      	subs	r3, r3, r2
100022fe:	9300      	str	r3, [sp, #0]
10002300:	2300      	movs	r3, #0
10002302:	469b      	mov	fp, r3
10002304:	e6a9      	b.n	1000205a <_malloc_r+0x28e>
10002306:	0021      	movs	r1, r4
10002308:	0030      	movs	r0, r6
1000230a:	3108      	adds	r1, #8
1000230c:	f000 f8bc 	bl	10002488 <_free_r>
10002310:	4653      	mov	r3, sl
10002312:	68bc      	ldr	r4, [r7, #8]
10002314:	681b      	ldr	r3, [r3, #0]
10002316:	6862      	ldr	r2, [r4, #4]
10002318:	e6c3      	b.n	100020a2 <_malloc_r+0x2d6>
1000231a:	490b      	ldr	r1, [pc, #44]	; (10002348 <_malloc_r+0x57c>)
1000231c:	428a      	cmp	r2, r1
1000231e:	d80b      	bhi.n	10002338 <_malloc_r+0x56c>
10002320:	0c9a      	lsrs	r2, r3, #18
10002322:	0011      	movs	r1, r2
10002324:	327d      	adds	r2, #125	; 0x7d
10002326:	317c      	adds	r1, #124	; 0x7c
10002328:	00d2      	lsls	r2, r2, #3
1000232a:	e6de      	b.n	100020ea <_malloc_r+0x31e>
1000232c:	21fe      	movs	r1, #254	; 0xfe
1000232e:	237e      	movs	r3, #126	; 0x7e
10002330:	207f      	movs	r0, #127	; 0x7f
10002332:	4698      	mov	r8, r3
10002334:	0089      	lsls	r1, r1, #2
10002336:	e592      	b.n	10001e5e <_malloc_r+0x92>
10002338:	22fe      	movs	r2, #254	; 0xfe
1000233a:	217e      	movs	r1, #126	; 0x7e
1000233c:	0092      	lsls	r2, r2, #2
1000233e:	e6d4      	b.n	100020ea <_malloc_r+0x31e>
10002340:	687b      	ldr	r3, [r7, #4]
10002342:	e76a      	b.n	1000221a <_malloc_r+0x44e>
10002344:	20000a78 	.word	0x20000a78
10002348:	00000554 	.word	0x00000554

1000234c <__malloc_lock>:
1000234c:	b510      	push	{r4, lr}
1000234e:	4802      	ldr	r0, [pc, #8]	; (10002358 <__malloc_lock+0xc>)
10002350:	f000 f97c 	bl	1000264c <__retarget_lock_acquire_recursive>
10002354:	bd10      	pop	{r4, pc}
10002356:	46c0      	nop			; (mov r8, r8)
10002358:	20000d38 	.word	0x20000d38

1000235c <__malloc_unlock>:
1000235c:	b510      	push	{r4, lr}
1000235e:	4802      	ldr	r0, [pc, #8]	; (10002368 <__malloc_unlock+0xc>)
10002360:	f000 f976 	bl	10002650 <__retarget_lock_release_recursive>
10002364:	bd10      	pop	{r4, pc}
10002366:	46c0      	nop			; (mov r8, r8)
10002368:	20000d38 	.word	0x20000d38

1000236c <_sbrk_r>:
1000236c:	2300      	movs	r3, #0
1000236e:	b570      	push	{r4, r5, r6, lr}
10002370:	4d06      	ldr	r5, [pc, #24]	; (1000238c <_sbrk_r+0x20>)
10002372:	0004      	movs	r4, r0
10002374:	0008      	movs	r0, r1
10002376:	602b      	str	r3, [r5, #0]
10002378:	f7fe ff10 	bl	1000119c <_sbrk>
1000237c:	1c43      	adds	r3, r0, #1
1000237e:	d000      	beq.n	10002382 <_sbrk_r+0x16>
10002380:	bd70      	pop	{r4, r5, r6, pc}
10002382:	682b      	ldr	r3, [r5, #0]
10002384:	2b00      	cmp	r3, #0
10002386:	d0fb      	beq.n	10002380 <_sbrk_r+0x14>
10002388:	6023      	str	r3, [r4, #0]
1000238a:	e7f9      	b.n	10002380 <_sbrk_r+0x14>
1000238c:	20000d4c 	.word	0x20000d4c

10002390 <strlen>:
10002390:	b510      	push	{r4, lr}
10002392:	0783      	lsls	r3, r0, #30
10002394:	d00a      	beq.n	100023ac <strlen+0x1c>
10002396:	0003      	movs	r3, r0
10002398:	2103      	movs	r1, #3
1000239a:	e002      	b.n	100023a2 <strlen+0x12>
1000239c:	3301      	adds	r3, #1
1000239e:	420b      	tst	r3, r1
100023a0:	d005      	beq.n	100023ae <strlen+0x1e>
100023a2:	781a      	ldrb	r2, [r3, #0]
100023a4:	2a00      	cmp	r2, #0
100023a6:	d1f9      	bne.n	1000239c <strlen+0xc>
100023a8:	1a18      	subs	r0, r3, r0
100023aa:	bd10      	pop	{r4, pc}
100023ac:	0003      	movs	r3, r0
100023ae:	6819      	ldr	r1, [r3, #0]
100023b0:	4a0c      	ldr	r2, [pc, #48]	; (100023e4 <strlen+0x54>)
100023b2:	4c0d      	ldr	r4, [pc, #52]	; (100023e8 <strlen+0x58>)
100023b4:	188a      	adds	r2, r1, r2
100023b6:	438a      	bics	r2, r1
100023b8:	4222      	tst	r2, r4
100023ba:	d10f      	bne.n	100023dc <strlen+0x4c>
100023bc:	6859      	ldr	r1, [r3, #4]
100023be:	4a09      	ldr	r2, [pc, #36]	; (100023e4 <strlen+0x54>)
100023c0:	3304      	adds	r3, #4
100023c2:	188a      	adds	r2, r1, r2
100023c4:	438a      	bics	r2, r1
100023c6:	4222      	tst	r2, r4
100023c8:	d108      	bne.n	100023dc <strlen+0x4c>
100023ca:	6859      	ldr	r1, [r3, #4]
100023cc:	4a05      	ldr	r2, [pc, #20]	; (100023e4 <strlen+0x54>)
100023ce:	3304      	adds	r3, #4
100023d0:	188a      	adds	r2, r1, r2
100023d2:	438a      	bics	r2, r1
100023d4:	4222      	tst	r2, r4
100023d6:	d0f1      	beq.n	100023bc <strlen+0x2c>
100023d8:	e000      	b.n	100023dc <strlen+0x4c>
100023da:	3301      	adds	r3, #1
100023dc:	781a      	ldrb	r2, [r3, #0]
100023de:	2a00      	cmp	r2, #0
100023e0:	d1fb      	bne.n	100023da <strlen+0x4a>
100023e2:	e7e1      	b.n	100023a8 <strlen+0x18>
100023e4:	fefefeff 	.word	0xfefefeff
100023e8:	80808080 	.word	0x80808080

100023ec <_malloc_trim_r>:
100023ec:	b5f8      	push	{r3, r4, r5, r6, r7, lr}
100023ee:	000c      	movs	r4, r1
100023f0:	0005      	movs	r5, r0
100023f2:	f7ff ffab 	bl	1000234c <__malloc_lock>
100023f6:	4f20      	ldr	r7, [pc, #128]	; (10002478 <_malloc_trim_r+0x8c>)
100023f8:	68bb      	ldr	r3, [r7, #8]
100023fa:	685e      	ldr	r6, [r3, #4]
100023fc:	2303      	movs	r3, #3
100023fe:	439e      	bics	r6, r3
10002400:	4b1e      	ldr	r3, [pc, #120]	; (1000247c <_malloc_trim_r+0x90>)
10002402:	1b34      	subs	r4, r6, r4
10002404:	469c      	mov	ip, r3
10002406:	4464      	add	r4, ip
10002408:	0b24      	lsrs	r4, r4, #12
1000240a:	3c01      	subs	r4, #1
1000240c:	3311      	adds	r3, #17
1000240e:	0324      	lsls	r4, r4, #12
10002410:	429c      	cmp	r4, r3
10002412:	db07      	blt.n	10002424 <_malloc_trim_r+0x38>
10002414:	2100      	movs	r1, #0
10002416:	0028      	movs	r0, r5
10002418:	f7ff ffa8 	bl	1000236c <_sbrk_r>
1000241c:	68bb      	ldr	r3, [r7, #8]
1000241e:	199b      	adds	r3, r3, r6
10002420:	4298      	cmp	r0, r3
10002422:	d004      	beq.n	1000242e <_malloc_trim_r+0x42>
10002424:	0028      	movs	r0, r5
10002426:	f7ff ff99 	bl	1000235c <__malloc_unlock>
1000242a:	2000      	movs	r0, #0
1000242c:	bdf8      	pop	{r3, r4, r5, r6, r7, pc}
1000242e:	0028      	movs	r0, r5
10002430:	4261      	negs	r1, r4
10002432:	f7ff ff9b 	bl	1000236c <_sbrk_r>
10002436:	1c43      	adds	r3, r0, #1
10002438:	d00d      	beq.n	10002456 <_malloc_trim_r+0x6a>
1000243a:	2201      	movs	r2, #1
1000243c:	68bb      	ldr	r3, [r7, #8]
1000243e:	1b36      	subs	r6, r6, r4
10002440:	4316      	orrs	r6, r2
10002442:	605e      	str	r6, [r3, #4]
10002444:	4b0e      	ldr	r3, [pc, #56]	; (10002480 <_malloc_trim_r+0x94>)
10002446:	0028      	movs	r0, r5
10002448:	681a      	ldr	r2, [r3, #0]
1000244a:	1b14      	subs	r4, r2, r4
1000244c:	601c      	str	r4, [r3, #0]
1000244e:	f7ff ff85 	bl	1000235c <__malloc_unlock>
10002452:	2001      	movs	r0, #1
10002454:	e7ea      	b.n	1000242c <_malloc_trim_r+0x40>
10002456:	2100      	movs	r1, #0
10002458:	0028      	movs	r0, r5
1000245a:	f7ff ff87 	bl	1000236c <_sbrk_r>
1000245e:	68ba      	ldr	r2, [r7, #8]
10002460:	1a83      	subs	r3, r0, r2
10002462:	2b0f      	cmp	r3, #15
10002464:	ddde      	ble.n	10002424 <_malloc_trim_r+0x38>
10002466:	4907      	ldr	r1, [pc, #28]	; (10002484 <_malloc_trim_r+0x98>)
10002468:	6809      	ldr	r1, [r1, #0]
1000246a:	1a40      	subs	r0, r0, r1
1000246c:	4904      	ldr	r1, [pc, #16]	; (10002480 <_malloc_trim_r+0x94>)
1000246e:	6008      	str	r0, [r1, #0]
10002470:	2101      	movs	r1, #1
10002472:	430b      	orrs	r3, r1
10002474:	6053      	str	r3, [r2, #4]
10002476:	e7d5      	b.n	10002424 <_malloc_trim_r+0x38>
10002478:	20000630 	.word	0x20000630
1000247c:	00000fef 	.word	0x00000fef
10002480:	20000a78 	.word	0x20000a78
10002484:	20000a38 	.word	0x20000a38

10002488 <_free_r>:
10002488:	b5f0      	push	{r4, r5, r6, r7, lr}
1000248a:	46c6      	mov	lr, r8
1000248c:	0005      	movs	r5, r0
1000248e:	000c      	movs	r4, r1
10002490:	b500      	push	{lr}
10002492:	2900      	cmp	r1, #0
10002494:	d04f      	beq.n	10002536 <_free_r+0xae>
10002496:	f7ff ff59 	bl	1000234c <__malloc_lock>
1000249a:	0021      	movs	r1, r4
1000249c:	3908      	subs	r1, #8
1000249e:	684c      	ldr	r4, [r1, #4]
100024a0:	2601      	movs	r6, #1
100024a2:	0022      	movs	r2, r4
100024a4:	2003      	movs	r0, #3
100024a6:	43b2      	bics	r2, r6
100024a8:	188f      	adds	r7, r1, r2
100024aa:	687b      	ldr	r3, [r7, #4]
100024ac:	4383      	bics	r3, r0
100024ae:	4862      	ldr	r0, [pc, #392]	; (10002638 <_free_r+0x1b0>)
100024b0:	4698      	mov	r8, r3
100024b2:	6883      	ldr	r3, [r0, #8]
100024b4:	42bb      	cmp	r3, r7
100024b6:	d06b      	beq.n	10002590 <_free_r+0x108>
100024b8:	4643      	mov	r3, r8
100024ba:	607b      	str	r3, [r7, #4]
100024bc:	4226      	tst	r6, r4
100024be:	d11e      	bne.n	100024fe <_free_r+0x76>
100024c0:	2308      	movs	r3, #8
100024c2:	469c      	mov	ip, r3
100024c4:	680c      	ldr	r4, [r1, #0]
100024c6:	4484      	add	ip, r0
100024c8:	1b09      	subs	r1, r1, r4
100024ca:	1912      	adds	r2, r2, r4
100024cc:	688c      	ldr	r4, [r1, #8]
100024ce:	4564      	cmp	r4, ip
100024d0:	d04f      	beq.n	10002572 <_free_r+0xea>
100024d2:	68cb      	ldr	r3, [r1, #12]
100024d4:	60e3      	str	r3, [r4, #12]
100024d6:	609c      	str	r4, [r3, #8]
100024d8:	4643      	mov	r3, r8
100024da:	18fc      	adds	r4, r7, r3
100024dc:	6864      	ldr	r4, [r4, #4]
100024de:	4234      	tst	r4, r6
100024e0:	d111      	bne.n	10002506 <_free_r+0x7e>
100024e2:	68bb      	ldr	r3, [r7, #8]
100024e4:	4c55      	ldr	r4, [pc, #340]	; (1000263c <_free_r+0x1b4>)
100024e6:	4442      	add	r2, r8
100024e8:	42a3      	cmp	r3, r4
100024ea:	d100      	bne.n	100024ee <_free_r+0x66>
100024ec:	e07f      	b.n	100025ee <_free_r+0x166>
100024ee:	68fc      	ldr	r4, [r7, #12]
100024f0:	60dc      	str	r4, [r3, #12]
100024f2:	60a3      	str	r3, [r4, #8]
100024f4:	2301      	movs	r3, #1
100024f6:	4313      	orrs	r3, r2
100024f8:	604b      	str	r3, [r1, #4]
100024fa:	508a      	str	r2, [r1, r2]
100024fc:	e006      	b.n	1000250c <_free_r+0x84>
100024fe:	18fc      	adds	r4, r7, r3
10002500:	6864      	ldr	r4, [r4, #4]
10002502:	4234      	tst	r4, r6
10002504:	d0ed      	beq.n	100024e2 <_free_r+0x5a>
10002506:	4316      	orrs	r6, r2
10002508:	604e      	str	r6, [r1, #4]
1000250a:	603a      	str	r2, [r7, #0]
1000250c:	2380      	movs	r3, #128	; 0x80
1000250e:	009b      	lsls	r3, r3, #2
10002510:	429a      	cmp	r2, r3
10002512:	d213      	bcs.n	1000253c <_free_r+0xb4>
10002514:	0954      	lsrs	r4, r2, #5
10002516:	08d3      	lsrs	r3, r2, #3
10002518:	2201      	movs	r2, #1
1000251a:	40a2      	lsls	r2, r4
1000251c:	6844      	ldr	r4, [r0, #4]
1000251e:	00db      	lsls	r3, r3, #3
10002520:	4322      	orrs	r2, r4
10002522:	6042      	str	r2, [r0, #4]
10002524:	1818      	adds	r0, r3, r0
10002526:	6883      	ldr	r3, [r0, #8]
10002528:	60c8      	str	r0, [r1, #12]
1000252a:	608b      	str	r3, [r1, #8]
1000252c:	6081      	str	r1, [r0, #8]
1000252e:	60d9      	str	r1, [r3, #12]
10002530:	0028      	movs	r0, r5
10002532:	f7ff ff13 	bl	1000235c <__malloc_unlock>
10002536:	bc04      	pop	{r2}
10002538:	4690      	mov	r8, r2
1000253a:	bdf0      	pop	{r4, r5, r6, r7, pc}
1000253c:	0a53      	lsrs	r3, r2, #9
1000253e:	2b04      	cmp	r3, #4
10002540:	d83f      	bhi.n	100025c2 <_free_r+0x13a>
10002542:	0994      	lsrs	r4, r2, #6
10002544:	0026      	movs	r6, r4
10002546:	3439      	adds	r4, #57	; 0x39
10002548:	3638      	adds	r6, #56	; 0x38
1000254a:	00e4      	lsls	r4, r4, #3
1000254c:	1904      	adds	r4, r0, r4
1000254e:	6823      	ldr	r3, [r4, #0]
10002550:	3c08      	subs	r4, #8
10002552:	2703      	movs	r7, #3
10002554:	429c      	cmp	r4, r3
10002556:	d043      	beq.n	100025e0 <_free_r+0x158>
10002558:	6858      	ldr	r0, [r3, #4]
1000255a:	43b8      	bics	r0, r7
1000255c:	4290      	cmp	r0, r2
1000255e:	d902      	bls.n	10002566 <_free_r+0xde>
10002560:	689b      	ldr	r3, [r3, #8]
10002562:	429c      	cmp	r4, r3
10002564:	d1f8      	bne.n	10002558 <_free_r+0xd0>
10002566:	68dc      	ldr	r4, [r3, #12]
10002568:	60cc      	str	r4, [r1, #12]
1000256a:	608b      	str	r3, [r1, #8]
1000256c:	60a1      	str	r1, [r4, #8]
1000256e:	60d9      	str	r1, [r3, #12]
10002570:	e7de      	b.n	10002530 <_free_r+0xa8>
10002572:	4643      	mov	r3, r8
10002574:	18f8      	adds	r0, r7, r3
10002576:	6840      	ldr	r0, [r0, #4]
10002578:	4230      	tst	r0, r6
1000257a:	d158      	bne.n	1000262e <_free_r+0x1a6>
1000257c:	0013      	movs	r3, r2
1000257e:	68b8      	ldr	r0, [r7, #8]
10002580:	68fa      	ldr	r2, [r7, #12]
10002582:	4443      	add	r3, r8
10002584:	431e      	orrs	r6, r3
10002586:	60c2      	str	r2, [r0, #12]
10002588:	6090      	str	r0, [r2, #8]
1000258a:	604e      	str	r6, [r1, #4]
1000258c:	50cb      	str	r3, [r1, r3]
1000258e:	e7cf      	b.n	10002530 <_free_r+0xa8>
10002590:	0013      	movs	r3, r2
10002592:	4443      	add	r3, r8
10002594:	4226      	tst	r6, r4
10002596:	d106      	bne.n	100025a6 <_free_r+0x11e>
10002598:	680a      	ldr	r2, [r1, #0]
1000259a:	1a89      	subs	r1, r1, r2
1000259c:	688c      	ldr	r4, [r1, #8]
1000259e:	189b      	adds	r3, r3, r2
100025a0:	68ca      	ldr	r2, [r1, #12]
100025a2:	60e2      	str	r2, [r4, #12]
100025a4:	6094      	str	r4, [r2, #8]
100025a6:	2201      	movs	r2, #1
100025a8:	431a      	orrs	r2, r3
100025aa:	604a      	str	r2, [r1, #4]
100025ac:	4a24      	ldr	r2, [pc, #144]	; (10002640 <_free_r+0x1b8>)
100025ae:	6081      	str	r1, [r0, #8]
100025b0:	6812      	ldr	r2, [r2, #0]
100025b2:	429a      	cmp	r2, r3
100025b4:	d8bc      	bhi.n	10002530 <_free_r+0xa8>
100025b6:	4b23      	ldr	r3, [pc, #140]	; (10002644 <_free_r+0x1bc>)
100025b8:	0028      	movs	r0, r5
100025ba:	6819      	ldr	r1, [r3, #0]
100025bc:	f7ff ff16 	bl	100023ec <_malloc_trim_r>
100025c0:	e7b6      	b.n	10002530 <_free_r+0xa8>
100025c2:	2b14      	cmp	r3, #20
100025c4:	d907      	bls.n	100025d6 <_free_r+0x14e>
100025c6:	2b54      	cmp	r3, #84	; 0x54
100025c8:	d81a      	bhi.n	10002600 <_free_r+0x178>
100025ca:	0b14      	lsrs	r4, r2, #12
100025cc:	0026      	movs	r6, r4
100025ce:	346f      	adds	r4, #111	; 0x6f
100025d0:	366e      	adds	r6, #110	; 0x6e
100025d2:	00e4      	lsls	r4, r4, #3
100025d4:	e7ba      	b.n	1000254c <_free_r+0xc4>
100025d6:	001e      	movs	r6, r3
100025d8:	335c      	adds	r3, #92	; 0x5c
100025da:	365b      	adds	r6, #91	; 0x5b
100025dc:	00dc      	lsls	r4, r3, #3
100025de:	e7b5      	b.n	1000254c <_free_r+0xc4>
100025e0:	2201      	movs	r2, #1
100025e2:	10b6      	asrs	r6, r6, #2
100025e4:	40b2      	lsls	r2, r6
100025e6:	6846      	ldr	r6, [r0, #4]
100025e8:	4332      	orrs	r2, r6
100025ea:	6042      	str	r2, [r0, #4]
100025ec:	e7bc      	b.n	10002568 <_free_r+0xe0>
100025ee:	60d9      	str	r1, [r3, #12]
100025f0:	6099      	str	r1, [r3, #8]
100025f2:	60cb      	str	r3, [r1, #12]
100025f4:	608b      	str	r3, [r1, #8]
100025f6:	2301      	movs	r3, #1
100025f8:	4313      	orrs	r3, r2
100025fa:	604b      	str	r3, [r1, #4]
100025fc:	508a      	str	r2, [r1, r2]
100025fe:	e797      	b.n	10002530 <_free_r+0xa8>
10002600:	24aa      	movs	r4, #170	; 0xaa
10002602:	0064      	lsls	r4, r4, #1
10002604:	42a3      	cmp	r3, r4
10002606:	d805      	bhi.n	10002614 <_free_r+0x18c>
10002608:	0bd4      	lsrs	r4, r2, #15
1000260a:	0026      	movs	r6, r4
1000260c:	3478      	adds	r4, #120	; 0x78
1000260e:	3677      	adds	r6, #119	; 0x77
10002610:	00e4      	lsls	r4, r4, #3
10002612:	e79b      	b.n	1000254c <_free_r+0xc4>
10002614:	4c0c      	ldr	r4, [pc, #48]	; (10002648 <_free_r+0x1c0>)
10002616:	42a3      	cmp	r3, r4
10002618:	d805      	bhi.n	10002626 <_free_r+0x19e>
1000261a:	0c94      	lsrs	r4, r2, #18
1000261c:	0026      	movs	r6, r4
1000261e:	347d      	adds	r4, #125	; 0x7d
10002620:	367c      	adds	r6, #124	; 0x7c
10002622:	00e4      	lsls	r4, r4, #3
10002624:	e792      	b.n	1000254c <_free_r+0xc4>
10002626:	24fe      	movs	r4, #254	; 0xfe
10002628:	267e      	movs	r6, #126	; 0x7e
1000262a:	00a4      	lsls	r4, r4, #2
1000262c:	e78e      	b.n	1000254c <_free_r+0xc4>
1000262e:	0033      	movs	r3, r6
10002630:	4313      	orrs	r3, r2
10002632:	604b      	str	r3, [r1, #4]
10002634:	603a      	str	r2, [r7, #0]
10002636:	e77b      	b.n	10002530 <_free_r+0xa8>
10002638:	20000630 	.word	0x20000630
1000263c:	20000638 	.word	0x20000638
10002640:	20000a3c 	.word	0x20000a3c
10002644:	20000aa8 	.word	0x20000aa8
10002648:	00000554 	.word	0x00000554

1000264c <__retarget_lock_acquire_recursive>:
1000264c:	4770      	bx	lr
1000264e:	46c0      	nop			; (mov r8, r8)

10002650 <__retarget_lock_release_recursive>:
10002650:	4770      	bx	lr
10002652:	46c0      	nop			; (mov r8, r8)

10002654 <_fini>:
10002654:	b5f8      	push	{r3, r4, r5, r6, r7, lr}
10002656:	46c0      	nop			; (mov r8, r8)

10002658 <__mutex_exit_veneer>:
10002658:	b401      	push	{r0}
1000265a:	4802      	ldr	r0, [pc, #8]	; (10002664 <__mutex_exit_veneer+0xc>)
1000265c:	4684      	mov	ip, r0
1000265e:	bc01      	pop	{r0}
10002660:	4760      	bx	ip
10002662:	bf00      	nop
10002664:	2000015d 	.word	0x2000015d

10002668 <____aeabi_idiv0_veneer>:
10002668:	b401      	push	{r0}
1000266a:	4802      	ldr	r0, [pc, #8]	; (10002674 <____aeabi_idiv0_veneer+0xc>)
1000266c:	4684      	mov	ip, r0
1000266e:	bc01      	pop	{r0}
10002670:	4760      	bx	ip
10002672:	bf00      	nop
10002674:	20000185 	.word	0x20000185

10002678 <__mutex_try_enter_veneer>:
10002678:	b401      	push	{r0}
1000267a:	4802      	ldr	r0, [pc, #8]	; (10002684 <__mutex_try_enter_veneer+0xc>)
1000267c:	4684      	mov	ip, r0
1000267e:	bc01      	pop	{r0}
10002680:	4760      	bx	ip
10002682:	bf00      	nop
10002684:	20000111 	.word	0x20000111

10002688 <__mutex_enter_blocking_veneer>:
10002688:	b401      	push	{r0}
1000268a:	4802      	ldr	r0, [pc, #8]	; (10002694 <__mutex_enter_blocking_veneer+0xc>)
1000268c:	4684      	mov	ip, r0
1000268e:	bc01      	pop	{r0}
10002690:	4760      	bx	ip
10002692:	bf00      	nop
10002694:	200000c1 	.word	0x200000c1

Disassembly of section .data:

200000c0 <mutex_enter_blocking>:
200000c0:	b510      	push	{r4, lr}
200000c2:	6802      	ldr	r2, [r0, #0]
200000c4:	2400      	movs	r4, #0
200000c6:	f3ef 8110 	mrs	r1, PRIMASK
200000ca:	b672      	cpsid	i
200000cc:	6813      	ldr	r3, [r2, #0]
200000ce:	2b00      	cmp	r3, #0
200000d0:	d0fc      	beq.n	200000cc <mutex_enter_blocking+0xc>
200000d2:	f3bf 8f5f 	dmb	sy
200000d6:	7903      	ldrb	r3, [r0, #4]
200000d8:	2b00      	cmp	r3, #0
200000da:	d00b      	beq.n	200000f4 <mutex_enter_blocking+0x34>
200000dc:	6803      	ldr	r3, [r0, #0]
200000de:	f3bf 8f5f 	dmb	sy
200000e2:	601c      	str	r4, [r3, #0]
200000e4:	f381 8810 	msr	PRIMASK, r1
200000e8:	bf20      	wfe
200000ea:	6802      	ldr	r2, [r0, #0]
200000ec:	f3ef 8110 	mrs	r1, PRIMASK
200000f0:	b672      	cpsid	i
200000f2:	e7eb      	b.n	200000cc <mutex_enter_blocking+0xc>
200000f4:	2201      	movs	r2, #1
200000f6:	7102      	strb	r2, [r0, #4]
200000f8:	22d0      	movs	r2, #208	; 0xd0
200000fa:	0612      	lsls	r2, r2, #24
200000fc:	6812      	ldr	r2, [r2, #0]
200000fe:	7142      	strb	r2, [r0, #5]
20000100:	6802      	ldr	r2, [r0, #0]
20000102:	f3bf 8f5f 	dmb	sy
20000106:	6013      	str	r3, [r2, #0]
20000108:	f381 8810 	msr	PRIMASK, r1
2000010c:	bd10      	pop	{r4, pc}
2000010e:	46c0      	nop			; (mov r8, r8)

20000110 <mutex_try_enter>:
20000110:	0003      	movs	r3, r0
20000112:	b510      	push	{r4, lr}
20000114:	6800      	ldr	r0, [r0, #0]
20000116:	f3ef 8410 	mrs	r4, PRIMASK
2000011a:	b672      	cpsid	i
2000011c:	6802      	ldr	r2, [r0, #0]
2000011e:	2a00      	cmp	r2, #0
20000120:	d0fc      	beq.n	2000011c <mutex_try_enter+0xc>
20000122:	f3bf 8f5f 	dmb	sy
20000126:	791a      	ldrb	r2, [r3, #4]
20000128:	2a00      	cmp	r2, #0
2000012a:	d00d      	beq.n	20000148 <mutex_try_enter+0x38>
2000012c:	2900      	cmp	r1, #0
2000012e:	d013      	beq.n	20000158 <mutex_try_enter+0x48>
20000130:	2205      	movs	r2, #5
20000132:	2000      	movs	r0, #0
20000134:	569a      	ldrsb	r2, [r3, r2]
20000136:	600a      	str	r2, [r1, #0]
20000138:	681b      	ldr	r3, [r3, #0]
2000013a:	f3bf 8f5f 	dmb	sy
2000013e:	2200      	movs	r2, #0
20000140:	601a      	str	r2, [r3, #0]
20000142:	f384 8810 	msr	PRIMASK, r4
20000146:	bd10      	pop	{r4, pc}
20000148:	3201      	adds	r2, #1
2000014a:	711a      	strb	r2, [r3, #4]
2000014c:	22d0      	movs	r2, #208	; 0xd0
2000014e:	0612      	lsls	r2, r2, #24
20000150:	6812      	ldr	r2, [r2, #0]
20000152:	2001      	movs	r0, #1
20000154:	715a      	strb	r2, [r3, #5]
20000156:	e7ef      	b.n	20000138 <mutex_try_enter+0x28>
20000158:	2000      	movs	r0, #0
2000015a:	e7ed      	b.n	20000138 <mutex_try_enter+0x28>

2000015c <mutex_exit>:
2000015c:	6802      	ldr	r2, [r0, #0]
2000015e:	f3ef 8110 	mrs	r1, PRIMASK
20000162:	b672      	cpsid	i
20000164:	6813      	ldr	r3, [r2, #0]
20000166:	2b00      	cmp	r3, #0
20000168:	d0fc      	beq.n	20000164 <mutex_exit+0x8>
2000016a:	f3bf 8f5f 	dmb	sy
2000016e:	2300      	movs	r3, #0
20000170:	7103      	strb	r3, [r0, #4]
20000172:	bf40      	sev
20000174:	6802      	ldr	r2, [r0, #0]
20000176:	f3bf 8f5f 	dmb	sy
2000017a:	6013      	str	r3, [r2, #0]
2000017c:	f381 8810 	msr	PRIMASK, r1
20000180:	4770      	bx	lr
20000182:	46c0      	nop			; (mov r8, r8)

20000184 <__aeabi_idiv0>:
20000184:	4770      	bx	lr
20000186:	46c0      	nop			; (mov r8, r8)

20000188 <striped_spin_lock_num>:
20000188:	0010 0000                                   ....

2000018c <irq_handler_chain_slots>:
2000018c:	00000000 	.word	0x00000000
20000190:	00010000 	.word	0x00010000
	...
2000019c:	00020000 	.word	0x00020000
	...
200001a8:	00030000 	.word	0x00030000
	...
200001b4:	00ff0000 	.word	0x00ff0000
200001b8:	00000000 	.word	0x00000000

200001bc <irq_handler_chain_first_slot>:
200001bc:	b500      	push	{lr}
200001be:	6848      	ldr	r0, [r1, #4]
200001c0:	3101      	adds	r1, #1
200001c2:	468e      	mov	lr, r1
200001c4:	4700      	bx	r0

200001c6 <irq_handler_chain_remove_tail>:
200001c6:	4670      	mov	r0, lr
200001c8:	3809      	subs	r0, #9
200001ca:	4901      	ldr	r1, [pc, #4]	; (200001d0 <irq_handler_chain_remove_tail+0xa>)
200001cc:	4788      	blx	r1
200001ce:	bd00      	pop	{pc}
200001d0:	100017d5 	.word	0x100017d5
	...

200001e0 <aeabi_bits_funcs>:
200001e0:	00003350 	.word	0x00003350
200001e4:	0000334c 	.word	0x0000334c
200001e8:	00003354 	.word	0x00003354
200001ec:	00003352 	.word	0x00003352

200001f0 <aeabi_bits_funcs_end>:
200001f0:	0000534d 	.word	0x0000534d
200001f4:	0000434d 	.word	0x0000434d
200001f8:	00003453 	.word	0x00003453
200001fc:	00003443 	.word	0x00003443

20000200 <_impure_ptr>:
20000200:	20000208 00000000                       ... ....

20000208 <impure_data>:
20000208:	00000000 200004f4 2000055c 200005c4     ....... \.. ... 
	...
200002b0:	00000001 00000000 abcd330e e66d1234     .........3..4.m.
200002c0:	0005deec 0000000b 00000000 00000000     ................
	...

20000630 <__malloc_av_>:
	...
20000638:	20000630 20000630 20000638 20000638     0.. 0.. 8.. 8.. 
20000648:	20000640 20000640 20000648 20000648     @.. @.. H.. H.. 
20000658:	20000650 20000650 20000658 20000658     P.. P.. X.. X.. 
20000668:	20000660 20000660 20000668 20000668     `.. `.. h.. h.. 
20000678:	20000670 20000670 20000678 20000678     p.. p.. x.. x.. 
20000688:	20000680 20000680 20000688 20000688     ... ... ... ... 
20000698:	20000690 20000690 20000698 20000698     ... ... ... ... 
200006a8:	200006a0 200006a0 200006a8 200006a8     ... ... ... ... 
200006b8:	200006b0 200006b0 200006b8 200006b8     ... ... ... ... 
200006c8:	200006c0 200006c0 200006c8 200006c8     ... ... ... ... 
200006d8:	200006d0 200006d0 200006d8 200006d8     ... ... ... ... 
200006e8:	200006e0 200006e0 200006e8 200006e8     ... ... ... ... 
200006f8:	200006f0 200006f0 200006f8 200006f8     ... ... ... ... 
20000708:	20000700 20000700 20000708 20000708     ... ... ... ... 
20000718:	20000710 20000710 20000718 20000718     ... ... ... ... 
20000728:	20000720 20000720 20000728 20000728      ..  .. (.. (.. 
20000738:	20000730 20000730 20000738 20000738     0.. 0.. 8.. 8.. 
20000748:	20000740 20000740 20000748 20000748     @.. @.. H.. H.. 
20000758:	20000750 20000750 20000758 20000758     P.. P.. X.. X.. 
20000768:	20000760 20000760 20000768 20000768     `.. `.. h.. h.. 
20000778:	20000770 20000770 20000778 20000778     p.. p.. x.. x.. 
20000788:	20000780 20000780 20000788 20000788     ... ... ... ... 
20000798:	20000790 20000790 20000798 20000798     ... ... ... ... 
200007a8:	200007a0 200007a0 200007a8 200007a8     ... ... ... ... 
200007b8:	200007b0 200007b0 200007b8 200007b8     ... ... ... ... 
200007c8:	200007c0 200007c0 200007c8 200007c8     ... ... ... ... 
200007d8:	200007d0 200007d0 200007d8 200007d8     ... ... ... ... 
200007e8:	200007e0 200007e0 200007e8 200007e8     ... ... ... ... 
200007f8:	200007f0 200007f0 200007f8 200007f8     ... ... ... ... 
20000808:	20000800 20000800 20000808 20000808     ... ... ... ... 
20000818:	20000810 20000810 20000818 20000818     ... ... ... ... 
20000828:	20000820 20000820 20000828 20000828      ..  .. (.. (.. 
20000838:	20000830 20000830 20000838 20000838     0.. 0.. 8.. 8.. 
20000848:	20000840 20000840 20000848 20000848     @.. @.. H.. H.. 
20000858:	20000850 20000850 20000858 20000858     P.. P.. X.. X.. 
20000868:	20000860 20000860 20000868 20000868     `.. `.. h.. h.. 
20000878:	20000870 20000870 20000878 20000878     p.. p.. x.. x.. 
20000888:	20000880 20000880 20000888 20000888     ... ... ... ... 
20000898:	20000890 20000890 20000898 20000898     ... ... ... ... 
200008a8:	200008a0 200008a0 200008a8 200008a8     ... ... ... ... 
200008b8:	200008b0 200008b0 200008b8 200008b8     ... ... ... ... 
200008c8:	200008c0 200008c0 200008c8 200008c8     ... ... ... ... 
200008d8:	200008d0 200008d0 200008d8 200008d8     ... ... ... ... 
200008e8:	200008e0 200008e0 200008e8 200008e8     ... ... ... ... 
200008f8:	200008f0 200008f0 200008f8 200008f8     ... ... ... ... 
20000908:	20000900 20000900 20000908 20000908     ... ... ... ... 
20000918:	20000910 20000910 20000918 20000918     ... ... ... ... 
20000928:	20000920 20000920 20000928 20000928      ..  .. (.. (.. 
20000938:	20000930 20000930 20000938 20000938     0.. 0.. 8.. 8.. 
20000948:	20000940 20000940 20000948 20000948     @.. @.. H.. H.. 
20000958:	20000950 20000950 20000958 20000958     P.. P.. X.. X.. 
20000968:	20000960 20000960 20000968 20000968     `.. `.. h.. h.. 
20000978:	20000970 20000970 20000978 20000978     p.. p.. x.. x.. 
20000988:	20000980 20000980 20000988 20000988     ... ... ... ... 
20000998:	20000990 20000990 20000998 20000998     ... ... ... ... 
200009a8:	200009a0 200009a0 200009a8 200009a8     ... ... ... ... 
200009b8:	200009b0 200009b0 200009b8 200009b8     ... ... ... ... 
200009c8:	200009c0 200009c0 200009c8 200009c8     ... ... ... ... 
200009d8:	200009d0 200009d0 200009d8 200009d8     ... ... ... ... 
200009e8:	200009e0 200009e0 200009e8 200009e8     ... ... ... ... 
200009f8:	200009f0 200009f0 200009f8 200009f8     ... ... ... ... 
20000a08:	20000a00 20000a00 20000a08 20000a08     ... ... ... ... 
20000a18:	20000a10 20000a10 20000a18 20000a18     ... ... ... ... 
20000a28:	20000a20 20000a20 20000a28 20000a28      ..  .. (.. (.. 

20000a38 <__malloc_sbrk_base>:
20000a38:	ffffffff                                ....

20000a3c <__malloc_trim_threshold>:
20000a3c:	00020000                                ....

20000a40 <print_mutex>:
	...

20000a48 <__mutex_array_end>:
20000a48:	10001b41 	.word	0x10001b41
20000a4c:	10001909 	.word	0x10001909
20000a50:	100019c9 	.word	0x100019c9
20000a54:	10001aa1 	.word	0x10001aa1

20000a58 <__frame_dummy_init_array_entry>:
20000a58:	10000301                                ....
