
flash_cache_perfctr.elf:     file format elf32-littlearm

Sections:
Idx Name          Size      VMA       LMA       File off  Algn
  0 .boot2        00000100  10000000  10000000  00010000  2**0
                  CONTENTS, ALLOC, LOAD, READONLY, DATA
  1 .text         00004a68  10000100  10000100  00010100  2**3
                  CONTENTS, ALLOC, LOAD, READONLY, CODE
  2 .rodata       0000053c  10004b68  10004b68  00014b68  2**3
                  CONTENTS, ALLOC, LOAD, READONLY, DATA
  3 .binary_info  00000024  100050a4  100050a4  000150a4  2**2
                  CONTENTS, ALLOC, LOAD, DATA
  4 .ram_vector_table 000000c0  20000000  20000000  00020b4c  2**2
                  CONTENTS
  5 .data         00000a8c  200000c0  100050c8  000200c0  2**4
                  CONTENTS, ALLOC, LOAD, CODE
  6 .uninitialized_data 00000000  20000b4c  20000b4c  00020c0c  2**0
                  CONTENTS
  7 .scratch_x    00000000  20040000  20040000  00020c0c  2**0
                  CONTENTS
  8 .scratch_y    00000000  20041000  20041000  00020c0c  2**0
                  CONTENTS
  9 .bss          000002f0  20000b4c  20000b4c  00020b4c  2**2
                  ALLOC
 10 .heap         00000800  20000e3c  20000e3c  00020c0c  2**2
                  CONTENTS, READONLY
 11 .stack_dummy  00000800  20041000  20041000  00021420  2**5
                  CONTENTS, READONLY
 12 .ARM.attributes 00000028  00000000  00000000  00021c20  2**0
                  CONTENTS, READONLY
 13 .comment      00000079  00000000  00000000  00021c48  2**0
                  CONTENTS, READONLY
 14 .debug_frame  000002ac  00000000  00000000  00021cc4  2**2
                  CONTENTS, READONLY, DEBUGGING

flash_cache_perfctr.elf:     file format elf32-littlearm


Disassembly of section .text:

10000100 <__reset_start>:
10000100:	4827      	ldr	r0, [pc, #156]	; (100001a0 <__get_current_exception+0xa>)
10000102:	e000      	b.n	10000106 <__vector_entry>

10000104 <_entry_point>:
10000104:	2000      	movs	r0, #0

10000106 <__vector_entry>:
10000106:	4927      	ldr	r1, [pc, #156]	; (100001a4 <__get_current_exception+0xe>)
10000108:	6088      	str	r0, [r1, #8]
1000010a:	c806      	ldmia	r0!, {r1, r2}
1000010c:	f381 8808 	msr	MSP, r1
10000110:	4710      	bx	r2

10000112 <_reset_handler>:
10000112:	4825      	ldr	r0, [pc, #148]	; (100001a8 <__get_current_exception+0x12>)
10000114:	6800      	ldr	r0, [r0, #0]
10000116:	2800      	cmp	r0, #0
10000118:	d139      	bne.n	1000018e <wait_for_vector>
1000011a:	a412      	add	r4, pc, #72	; (adr r4, 10000164 <data_cpy_table>)
1000011c:	cc0e      	ldmia	r4!, {r1, r2, r3}
1000011e:	2900      	cmp	r1, #0
10000120:	d002      	beq.n	10000128 <_reset_handler+0x16>
10000122:	f000 f812 	bl	1000014a <data_cpy>
10000126:	e7f9      	b.n	1000011c <_reset_handler+0xa>
10000128:	4920      	ldr	r1, [pc, #128]	; (100001ac <__get_current_exception+0x16>)
1000012a:	4a21      	ldr	r2, [pc, #132]	; (100001b0 <__get_current_exception+0x1a>)
1000012c:	2000      	movs	r0, #0
1000012e:	e000      	b.n	10000132 <bss_fill_test>

10000130 <bss_fill_loop>:
10000130:	c101      	stmia	r1!, {r0}

10000132 <bss_fill_test>:
10000132:	4291      	cmp	r1, r2
10000134:	d1fc      	bne.n	10000130 <bss_fill_loop>

10000136 <platform_entry>:
10000136:	491f      	ldr	r1, [pc, #124]	; (100001b4 <__get_current_exception+0x1e>)
10000138:	4788      	blx	r1
1000013a:	491f      	ldr	r1, [pc, #124]	; (100001b8 <__get_current_exception+0x22>)
1000013c:	4788      	blx	r1
1000013e:	491f      	ldr	r1, [pc, #124]	; (100001bc <__get_current_exception+0x26>)
10000140:	4788      	blx	r1
10000142:	be00      	bkpt	0x0000
10000144:	e7fd      	b.n	10000142 <platform_entry+0xc>

10000146 <data_cpy_loop>:
10000146:	c901      	ldmia	r1!, {r0}
10000148:	c201      	stmia	r2!, {r0}

1000014a <data_cpy>:
1000014a:	429a      	cmp	r2, r3
1000014c:	d3fb      	bcc.n	10000146 <data_cpy_loop>
1000014e:	4770      	bx	lr

10000150 <binary_info_header>:
10000150:	7188ebf2 	.word	0x7188ebf2
10000154:	100050a4 	.word	0x100050a4
10000158:	100050c8 	.word	0x100050c8
1000015c:	10000164 	.word	0x10000164
10000160:	e71aa390 	.word	0xe71aa390

10000164 <data_cpy_table>:
10000164:	100050c8 	.word	0x100050c8
10000168:	200000c0 	.word	0x200000c0
1000016c:	20000b4c 	.word	0x20000b4c
10000170:	10005b54 	.word	0x10005b54
10000174:	20040000 	.word	0x20040000
10000178:	20040000 	.word	0x20040000
1000017c:	10005b54 	.word	0x10005b54
10000180:	20041000 	.word	0x20041000
10000184:	20041000 	.word	0x20041000
10000188:	00000000 	.word	0x00000000
1000018c:	4770      	bx	lr

1000018e <wait_for_vector>:
1000018e:	480c      	ldr	r0, [pc, #48]	; (100001c0 <__get_current_exception+0x2a>)
10000190:	f002 fe96 	bl	10002ec0 <rom_func_lookup>
10000194:	4700      	bx	r0

10000196 <__get_current_exception>:
10000196:	f3ef 8005 	mrs	r0, IPSR
1000019a:	b2c0      	uxtb	r0, r0
1000019c:	4770      	bx	lr
1000019e:	0000      	.short	0x0000
100001a0:	10000200 	.word	0x10000200
100001a4:	e000ed00 	.word	0xe000ed00
100001a8:	d0000000 	.word	0xd0000000
100001ac:	20000b4c 	.word	0x20000b4c
100001b0:	20000e3c 	.word	0x20000e3c
100001b4:	10001051 	.word	0x10001051
100001b8:	1000034d 	.word	0x1000034d
100001bc:	10001171 	.word	0x10001171
100001c0:	00005657 	.word	0x00005657

100001c4 <__bi_46>:
100001c4:	50520006 5360b3ab 1000500c              ..RP..`S.P..

100001d0 <__bi_34>:
100001d0:	50520006 02031c86 1000501c              ..RP.....P..

100001dc <__bi_26>:
100001dc:	50520006 9da22254 10005030              ..RPT"..0P..

100001e8 <__bi_18>:
100001e8:	50520005 68f465de 10005b54 00000000     ..RP.e.hT[......
	...

10000200 <__reset_end>:
10000200:	20042000 	.word	0x20042000
10000204:	10000113 	.word	0x10000113
10000208:	100002c3 	.word	0x100002c3
1000020c:	100002c5 	.word	0x100002c5
10000210:	100002c1 	.word	0x100002c1
10000214:	100002c1 	.word	0x100002c1
10000218:	100002c1 	.word	0x100002c1
1000021c:	100002c1 	.word	0x100002c1
10000220:	100002c1 	.word	0x100002c1
10000224:	100002c1 	.word	0x100002c1
10000228:	100002c1 	.word	0x100002c1
1000022c:	100002c7 	.word	0x100002c7
10000230:	100002c1 	.word	0x100002c1
10000234:	100002c1 	.word	0x100002c1
10000238:	100002c9 	.word	0x100002c9
1000023c:	100002cb 	.word	0x100002cb
10000240:	100002cd 	.word	0x100002cd
10000244:	100002cd 	.word	0x100002cd
10000248:	100002cd 	.word	0x100002cd
1000024c:	100002cd 	.word	0x100002cd
10000250:	100002cd 	.word	0x100002cd
10000254:	100002cd 	.word	0x100002cd
10000258:	100002cd 	.word	0x100002cd
1000025c:	100002cd 	.word	0x100002cd
10000260:	100002cd 	.word	0x100002cd
10000264:	100002cd 	.word	0x100002cd
10000268:	100002cd 	.word	0x100002cd
1000026c:	100002cd 	.word	0x100002cd
10000270:	100002cd 	.word	0x100002cd
10000274:	100002cd 	.word	0x100002cd
10000278:	100002cd 	.word	0x100002cd
1000027c:	100002cd 	.word	0x100002cd
10000280:	100002cd 	.word	0x100002cd
10000284:	100002cd 	.word	0x100002cd
10000288:	100002cd 	.word	0x100002cd
1000028c:	100002cd 	.word	0x100002cd
10000290:	100002cd 	.word	0x100002cd
10000294:	100002cd 	.word	0x100002cd
10000298:	100002cd 	.word	0x100002cd
1000029c:	100002cd 	.word	0x100002cd
100002a0:	100002cd 	.word	0x100002cd
100002a4:	100002cd 	.word	0x100002cd
100002a8:	100002cd 	.word	0x100002cd
100002ac:	100002cd 	.word	0x100002cd
100002b0:	100002cd 	.word	0x100002cd
100002b4:	100002cd 	.word	0x100002cd
100002b8:	100002cd 	.word	0x100002cd
100002bc:	100002cd 	.word	0x100002cd

100002c0 <isr_invalid>:
100002c0:	be00      	bkpt	0x0000

100002c2 <isr_nmi>:
100002c2:	be00      	bkpt	0x0000

100002c4 <isr_hardfault>:
100002c4:	be00      	bkpt	0x0000

100002c6 <isr_svcall>:
100002c6:	be00      	bkpt	0x0000

100002c8 <isr_pendsv>:
100002c8:	be00      	bkpt	0x0000

100002ca <isr_systick>:
100002ca:	be00      	bkpt	0x0000

100002cc <__unhandled_user_irq>:
100002cc:	f7ff ff63 	bl	10000196 <__get_current_exception>
100002d0:	3810      	subs	r0, #16

100002d2 <unhandled_user_irq_num_in_r0>:
100002d2:	be00      	bkpt	0x0000

100002d4 <_init>:
100002d4:	b5f8      	push	{r3, r4, r5, r6, r7, lr}
100002d6:	46c0      	nop			; (mov r8, r8)

100002d8 <__do_global_dtors_aux>:
100002d8:	b510      	push	{r4, lr}
100002da:	4c06      	ldr	r4, [pc, #24]	; (100002f4 <__do_global_dtors_aux+0x1c>)
100002dc:	7823      	ldrb	r3, [r4, #0]
100002de:	2b00      	cmp	r3, #0
100002e0:	d107      	bne.n	100002f2 <__do_global_dtors_aux+0x1a>
100002e2:	4b05      	ldr	r3, [pc, #20]	; (100002f8 <__do_global_dtors_aux+0x20>)
100002e4:	2b00      	cmp	r3, #0
100002e6:	d002      	beq.n	100002ee <__do_global_dtors_aux+0x16>
100002e8:	4804      	ldr	r0, [pc, #16]	; (100002fc <__do_global_dtors_aux+0x24>)
100002ea:	e000      	b.n	100002ee <__do_global_dtors_aux+0x16>
100002ec:	bf00      	nop
100002ee:	2301      	movs	r3, #1
100002f0:	7023      	strb	r3, [r4, #0]
100002f2:	bd10      	pop	{r4, pc}
100002f4:	20000b4c 	.word	0x20000b4c
100002f8:	00000000 	.word	0x00000000
100002fc:	10004b68 	.word	0x10004b68

10000300 <frame_dummy>:
10000300:	4b04      	ldr	r3, [pc, #16]	; (10000314 <frame_dummy+0x14>)
10000302:	b510      	push	{r4, lr}
10000304:	2b00      	cmp	r3, #0
10000306:	d003      	beq.n	10000310 <frame_dummy+0x10>
10000308:	4903      	ldr	r1, [pc, #12]	; (10000318 <frame_dummy+0x18>)
1000030a:	4804      	ldr	r0, [pc, #16]	; (1000031c <frame_dummy+0x1c>)
1000030c:	e000      	b.n	10000310 <frame_dummy+0x10>
1000030e:	bf00      	nop
10000310:	bd10      	pop	{r4, pc}
10000312:	46c0      	nop			; (mov r8, r8)
10000314:	00000000 	.word	0x00000000
10000318:	20000b50 	.word	0x20000b50
1000031c:	10004b68 	.word	0x10004b68

10000320 <recursive_fibonacci>:
10000320:	b570      	push	{r4, r5, r6, lr}
10000322:	2801      	cmp	r0, #1
10000324:	dd0f      	ble.n	10000346 <recursive_fibonacci+0x26>
10000326:	2301      	movs	r3, #1
10000328:	2500      	movs	r5, #0
1000032a:	1ec6      	subs	r6, r0, #3
1000032c:	1e44      	subs	r4, r0, #1
1000032e:	3802      	subs	r0, #2
10000330:	4398      	bics	r0, r3
10000332:	1a36      	subs	r6, r6, r0
10000334:	0020      	movs	r0, r4
10000336:	f7ff fff3 	bl	10000320 <recursive_fibonacci>
1000033a:	3c02      	subs	r4, #2
1000033c:	182d      	adds	r5, r5, r0
1000033e:	42b4      	cmp	r4, r6
10000340:	d1f8      	bne.n	10000334 <recursive_fibonacci+0x14>
10000342:	1c68      	adds	r0, r5, #1
10000344:	bd70      	pop	{r4, r5, r6, pc}
10000346:	2001      	movs	r0, #1
10000348:	e7fc      	b.n	10000344 <recursive_fibonacci+0x24>
1000034a:	46c0      	nop			; (mov r8, r8)

1000034c <main>:
1000034c:	b5f8      	push	{r3, r4, r5, r6, r7, lr}
1000034e:	46ce      	mov	lr, r9
10000350:	4647      	mov	r7, r8
10000352:	b580      	push	{r7, lr}
10000354:	f003 fef0 	bl	10004138 <stdio_init_all>
10000358:	23a0      	movs	r3, #160	; 0xa0
1000035a:	055b      	lsls	r3, r3, #21
1000035c:	68dc      	ldr	r4, [r3, #12]
1000035e:	691d      	ldr	r5, [r3, #16]
10000360:	2d00      	cmp	r5, #0
10000362:	d05d      	beq.n	10000420 <main+0xd4>
10000364:	002a      	movs	r2, r5
10000366:	0021      	movs	r1, r4
10000368:	482f      	ldr	r0, [pc, #188]	; (10000428 <main+0xdc>)
1000036a:	f003 fed9 	bl	10004120 <__wrap_printf>
1000036e:	0020      	movs	r0, r4
10000370:	f003 fc6c 	bl	10003c4c <__wrap___aeabi_ui2f>
10000374:	492d      	ldr	r1, [pc, #180]	; (1000042c <main+0xe0>)
10000376:	f003 fc63 	bl	10003c40 <__wrap___aeabi_fmul>
1000037a:	1c04      	adds	r4, r0, #0
1000037c:	0028      	movs	r0, r5
1000037e:	f003 fc65 	bl	10003c4c <__wrap___aeabi_ui2f>
10000382:	1c01      	adds	r1, r0, #0
10000384:	1c20      	adds	r0, r4, #0
10000386:	f003 fc58 	bl	10003c3a <__wrap___aeabi_fdiv>
1000038a:	f003 fc87 	bl	10003c9c <__wrap___aeabi_f2d>
1000038e:	0002      	movs	r2, r0
10000390:	000b      	movs	r3, r1
10000392:	4827      	ldr	r0, [pc, #156]	; (10000430 <main+0xe4>)
10000394:	f003 fec4 	bl	10004120 <__wrap_printf>
10000398:	2300      	movs	r3, #0
1000039a:	4698      	mov	r8, r3
1000039c:	3301      	adds	r3, #1
1000039e:	2418      	movs	r4, #24
100003a0:	4699      	mov	r9, r3
100003a2:	2c01      	cmp	r4, #1
100003a4:	d039      	beq.n	1000041a <main+0xce>
100003a6:	1ee7      	subs	r7, r4, #3
100003a8:	1e66      	subs	r6, r4, #1
100003aa:	3c02      	subs	r4, #2
100003ac:	0023      	movs	r3, r4
100003ae:	464a      	mov	r2, r9
100003b0:	2500      	movs	r5, #0
100003b2:	4393      	bics	r3, r2
100003b4:	1aff      	subs	r7, r7, r3
100003b6:	0030      	movs	r0, r6
100003b8:	f7ff ffb2 	bl	10000320 <recursive_fibonacci>
100003bc:	3e02      	subs	r6, #2
100003be:	182d      	adds	r5, r5, r0
100003c0:	42be      	cmp	r6, r7
100003c2:	d1f8      	bne.n	100003b6 <main+0x6a>
100003c4:	3501      	adds	r5, #1
100003c6:	44a8      	add	r8, r5
100003c8:	2c00      	cmp	r4, #0
100003ca:	d1ea      	bne.n	100003a2 <main+0x56>
100003cc:	4641      	mov	r1, r8
100003ce:	4819      	ldr	r0, [pc, #100]	; (10000434 <main+0xe8>)
100003d0:	3101      	adds	r1, #1
100003d2:	f003 fea5 	bl	10004120 <__wrap_printf>
100003d6:	23a0      	movs	r3, #160	; 0xa0
100003d8:	055b      	lsls	r3, r3, #21
100003da:	68d8      	ldr	r0, [r3, #12]
100003dc:	691d      	ldr	r5, [r3, #16]
100003de:	f003 fc35 	bl	10003c4c <__wrap___aeabi_ui2f>
100003e2:	4912      	ldr	r1, [pc, #72]	; (1000042c <main+0xe0>)
100003e4:	f003 fc2c 	bl	10003c40 <__wrap___aeabi_fmul>
100003e8:	1c04      	adds	r4, r0, #0
100003ea:	0028      	movs	r0, r5
100003ec:	f003 fc2e 	bl	10003c4c <__wrap___aeabi_ui2f>
100003f0:	1c01      	adds	r1, r0, #0
100003f2:	1c20      	adds	r0, r4, #0
100003f4:	f003 fc21 	bl	10003c3a <__wrap___aeabi_fdiv>
100003f8:	f003 fc50 	bl	10003c9c <__wrap___aeabi_f2d>
100003fc:	0002      	movs	r2, r0
100003fe:	000b      	movs	r3, r1
10000400:	480d      	ldr	r0, [pc, #52]	; (10000438 <main+0xec>)
10000402:	f003 fe8d 	bl	10004120 <__wrap_printf>
10000406:	f004 fb9f 	bl	10004b48 <__check_hit_miss_invalidate_veneer>
1000040a:	480c      	ldr	r0, [pc, #48]	; (1000043c <main+0xf0>)
1000040c:	f003 fdd8 	bl	10003fc0 <__wrap_puts>
10000410:	2000      	movs	r0, #0
10000412:	bc0c      	pop	{r2, r3}
10000414:	4690      	mov	r8, r2
10000416:	4699      	mov	r9, r3
10000418:	bdf8      	pop	{r3, r4, r5, r6, r7, pc}
1000041a:	2501      	movs	r5, #1
1000041c:	3c02      	subs	r4, #2
1000041e:	e7d2      	b.n	100003c6 <main+0x7a>
10000420:	4807      	ldr	r0, [pc, #28]	; (10000440 <main+0xf4>)
10000422:	f003 fdcd 	bl	10003fc0 <__wrap_puts>
10000426:	e79d      	b.n	10000364 <main+0x18>
10000428:	10004c58 	.word	0x10004c58
1000042c:	42c80000 	.word	0x42c80000
10000430:	10004c78 	.word	0x10004c78
10000434:	10004c94 	.word	0x10004c94
10000438:	10004cbc 	.word	0x10004cbc
1000043c:	10004cf0 	.word	0x10004cf0
10000440:	10004c04 	.word	0x10004c04

10000444 <gpio_set_function>:
10000444:	4a09      	ldr	r2, [pc, #36]	; (1000046c <gpio_set_function+0x28>)
10000446:	0083      	lsls	r3, r0, #2
10000448:	4694      	mov	ip, r2
1000044a:	2240      	movs	r2, #64	; 0x40
1000044c:	4463      	add	r3, ip
1000044e:	b510      	push	{r4, lr}
10000450:	681c      	ldr	r4, [r3, #0]
10000452:	00c0      	lsls	r0, r0, #3
10000454:	4062      	eors	r2, r4
10000456:	24c0      	movs	r4, #192	; 0xc0
10000458:	4014      	ands	r4, r2
1000045a:	2280      	movs	r2, #128	; 0x80
1000045c:	0152      	lsls	r2, r2, #5
1000045e:	4313      	orrs	r3, r2
10000460:	601c      	str	r4, [r3, #0]
10000462:	4b03      	ldr	r3, [pc, #12]	; (10000470 <gpio_set_function+0x2c>)
10000464:	469c      	mov	ip, r3
10000466:	4460      	add	r0, ip
10000468:	6041      	str	r1, [r0, #4]
1000046a:	bd10      	pop	{r4, pc}
1000046c:	4001c004 	.word	0x4001c004
10000470:	40014000 	.word	0x40014000

10000474 <hw_claim_or_assert>:
10000474:	b5f8      	push	{r3, r4, r5, r6, r7, lr}
10000476:	46ce      	mov	lr, r9
10000478:	4647      	mov	r7, r8
1000047a:	4691      	mov	r9, r2
1000047c:	b580      	push	{r7, lr}
1000047e:	f3ef 8710 	mrs	r7, PRIMASK
10000482:	b672      	cpsid	i
10000484:	4e12      	ldr	r6, [pc, #72]	; (100004d0 <hw_claim_or_assert+0x5c>)
10000486:	6833      	ldr	r3, [r6, #0]
10000488:	2b00      	cmp	r3, #0
1000048a:	d0fc      	beq.n	10000486 <hw_claim_or_assert+0x12>
1000048c:	f3bf 8f5f 	dmb	sy
10000490:	08cb      	lsrs	r3, r1, #3
10000492:	5cc5      	ldrb	r5, [r0, r3]
10000494:	2407      	movs	r4, #7
10000496:	18c2      	adds	r2, r0, r3
10000498:	0028      	movs	r0, r5
1000049a:	2301      	movs	r3, #1
1000049c:	400c      	ands	r4, r1
1000049e:	4694      	mov	ip, r2
100004a0:	40e0      	lsrs	r0, r4
100004a2:	001a      	movs	r2, r3
100004a4:	4002      	ands	r2, r0
100004a6:	4690      	mov	r8, r2
100004a8:	4203      	tst	r3, r0
100004aa:	d10d      	bne.n	100004c8 <hw_claim_or_assert+0x54>
100004ac:	40a3      	lsls	r3, r4
100004ae:	4662      	mov	r2, ip
100004b0:	432b      	orrs	r3, r5
100004b2:	7013      	strb	r3, [r2, #0]
100004b4:	f3bf 8f5f 	dmb	sy
100004b8:	4643      	mov	r3, r8
100004ba:	6033      	str	r3, [r6, #0]
100004bc:	f387 8810 	msr	PRIMASK, r7
100004c0:	bc0c      	pop	{r2, r3}
100004c2:	4690      	mov	r8, r2
100004c4:	4699      	mov	r9, r3
100004c6:	bdf8      	pop	{r3, r4, r5, r6, r7, pc}
100004c8:	4648      	mov	r0, r9
100004ca:	f000 fe53 	bl	10001174 <panic>
100004ce:	46c0      	nop			; (mov r8, r8)
100004d0:	d000012c 	.word	0xd000012c

100004d4 <spin_locks_reset>:
100004d4:	2100      	movs	r1, #0
100004d6:	4b04      	ldr	r3, [pc, #16]	; (100004e8 <spin_locks_reset+0x14>)
100004d8:	4a04      	ldr	r2, [pc, #16]	; (100004ec <spin_locks_reset+0x18>)
100004da:	f3bf 8f5f 	dmb	sy
100004de:	c302      	stmia	r3!, {r1}
100004e0:	4293      	cmp	r3, r2
100004e2:	d1fa      	bne.n	100004da <spin_locks_reset+0x6>
100004e4:	4770      	bx	lr
100004e6:	46c0      	nop			; (mov r8, r8)
100004e8:	d0000100 	.word	0xd0000100
100004ec:	d0000180 	.word	0xd0000180

100004f0 <next_striped_spin_lock_num>:
100004f0:	4a04      	ldr	r2, [pc, #16]	; (10000504 <next_striped_spin_lock_num+0x14>)
100004f2:	7810      	ldrb	r0, [r2, #0]
100004f4:	1c43      	adds	r3, r0, #1
100004f6:	b2db      	uxtb	r3, r3
100004f8:	2b17      	cmp	r3, #23
100004fa:	d900      	bls.n	100004fe <next_striped_spin_lock_num+0xe>
100004fc:	2310      	movs	r3, #16
100004fe:	7013      	strb	r3, [r2, #0]
10000500:	4770      	bx	lr
10000502:	46c0      	nop			; (mov r8, r8)
10000504:	20000268 	.word	0x20000268

10000508 <running_on_fpga>:
10000508:	4b02      	ldr	r3, [pc, #8]	; (10000514 <running_on_fpga+0xc>)
1000050a:	6818      	ldr	r0, [r3, #0]
1000050c:	0780      	lsls	r0, r0, #30
1000050e:	0fc0      	lsrs	r0, r0, #31
10000510:	4770      	bx	lr
10000512:	46c0      	nop			; (mov r8, r8)
10000514:	4006c000 	.word	0x4006c000

10000518 <uart_init>:
10000518:	b5f0      	push	{r4, r5, r6, r7, lr}
1000051a:	46c6      	mov	lr, r8
1000051c:	0005      	movs	r5, r0
1000051e:	b500      	push	{lr}
10000520:	2006      	movs	r0, #6
10000522:	000e      	movs	r6, r1
10000524:	f000 ffb4 	bl	10001490 <clock_get_hz>
10000528:	2800      	cmp	r0, #0
1000052a:	d04d      	beq.n	100005c8 <uart_init+0xb0>
1000052c:	4b29      	ldr	r3, [pc, #164]	; (100005d4 <uart_init+0xbc>)
1000052e:	492a      	ldr	r1, [pc, #168]	; (100005d8 <uart_init+0xc0>)
10000530:	18eb      	adds	r3, r5, r3
10000532:	425a      	negs	r2, r3
10000534:	4153      	adcs	r3, r2
10000536:	2280      	movs	r2, #128	; 0x80
10000538:	03d2      	lsls	r2, r2, #15
1000053a:	4694      	mov	ip, r2
1000053c:	425b      	negs	r3, r3
1000053e:	4013      	ands	r3, r2
10000540:	4a26      	ldr	r2, [pc, #152]	; (100005dc <uart_init+0xc4>)
10000542:	4463      	add	r3, ip
10000544:	6013      	str	r3, [r2, #0]
10000546:	4a26      	ldr	r2, [pc, #152]	; (100005e0 <uart_init+0xc8>)
10000548:	6013      	str	r3, [r2, #0]
1000054a:	001c      	movs	r4, r3
1000054c:	688a      	ldr	r2, [r1, #8]
1000054e:	4394      	bics	r4, r2
10000550:	d1fb      	bne.n	1000054a <uart_init+0x32>
10000552:	4b20      	ldr	r3, [pc, #128]	; (100005d4 <uart_init+0xbc>)
10000554:	2180      	movs	r1, #128	; 0x80
10000556:	18eb      	adds	r3, r5, r3
10000558:	425a      	negs	r2, r3
1000055a:	4153      	adcs	r3, r2
1000055c:	4a21      	ldr	r2, [pc, #132]	; (100005e4 <uart_init+0xcc>)
1000055e:	005b      	lsls	r3, r3, #1
10000560:	0049      	lsls	r1, r1, #1
10000562:	2006      	movs	r0, #6
10000564:	5299      	strh	r1, [r3, r2]
10000566:	f000 ff93 	bl	10001490 <clock_get_hz>
1000056a:	0031      	movs	r1, r6
1000056c:	00c0      	lsls	r0, r0, #3
1000056e:	f002 fd01 	bl	10002f74 <__wrap___aeabi_uidiv>
10000572:	267f      	movs	r6, #127	; 0x7f
10000574:	4b1c      	ldr	r3, [pc, #112]	; (100005e8 <uart_init+0xd0>)
10000576:	4006      	ands	r6, r0
10000578:	09c7      	lsrs	r7, r0, #7
1000057a:	3601      	adds	r6, #1
1000057c:	0876      	lsrs	r6, r6, #1
1000057e:	626f      	str	r7, [r5, #36]	; 0x24
10000580:	429f      	cmp	r7, r3
10000582:	d024      	beq.n	100005ce <uart_init+0xb6>
10000584:	62ae      	str	r6, [r5, #40]	; 0x28
10000586:	232c      	movs	r3, #44	; 0x2c
10000588:	4698      	mov	r8, r3
1000058a:	2480      	movs	r4, #128	; 0x80
1000058c:	44a8      	add	r8, r5
1000058e:	4643      	mov	r3, r8
10000590:	01a4      	lsls	r4, r4, #6
10000592:	431c      	orrs	r4, r3
10000594:	2300      	movs	r3, #0
10000596:	2006      	movs	r0, #6
10000598:	6023      	str	r3, [r4, #0]
1000059a:	f000 ff79 	bl	10001490 <clock_get_hz>
1000059e:	01b9      	lsls	r1, r7, #6
100005a0:	1989      	adds	r1, r1, r6
100005a2:	0080      	lsls	r0, r0, #2
100005a4:	f002 fce6 	bl	10002f74 <__wrap___aeabi_uidiv>
100005a8:	2360      	movs	r3, #96	; 0x60
100005aa:	6aea      	ldr	r2, [r5, #44]	; 0x2c
100005ac:	4641      	mov	r1, r8
100005ae:	4053      	eors	r3, r2
100005b0:	226e      	movs	r2, #110	; 0x6e
100005b2:	401a      	ands	r2, r3
100005b4:	2380      	movs	r3, #128	; 0x80
100005b6:	015b      	lsls	r3, r3, #5
100005b8:	430b      	orrs	r3, r1
100005ba:	601a      	str	r2, [r3, #0]
100005bc:	4b0b      	ldr	r3, [pc, #44]	; (100005ec <uart_init+0xd4>)
100005be:	632b      	str	r3, [r5, #48]	; 0x30
100005c0:	2310      	movs	r3, #16
100005c2:	6023      	str	r3, [r4, #0]
100005c4:	3b0d      	subs	r3, #13
100005c6:	64ab      	str	r3, [r5, #72]	; 0x48
100005c8:	bc04      	pop	{r2}
100005ca:	4690      	mov	r8, r2
100005cc:	bdf0      	pop	{r4, r5, r6, r7, pc}
100005ce:	62ac      	str	r4, [r5, #40]	; 0x28
100005d0:	e7d9      	b.n	10000586 <uart_init+0x6e>
100005d2:	46c0      	nop			; (mov r8, r8)
100005d4:	bffc8000 	.word	0xbffc8000
100005d8:	4000c000 	.word	0x4000c000
100005dc:	4000e000 	.word	0x4000e000
100005e0:	4000f000 	.word	0x4000f000
100005e4:	20000c0c 	.word	0x20000c0c
100005e8:	0000ffff 	.word	0x0000ffff
100005ec:	00000301 	.word	0x00000301

100005f0 <timer_pool_entry_comparator>:
100005f0:	6883      	ldr	r3, [r0, #8]
100005f2:	480b      	ldr	r0, [pc, #44]	; (10000620 <timer_pool_entry_comparator+0x30>)
100005f4:	b510      	push	{r4, lr}
100005f6:	4684      	mov	ip, r0
100005f8:	4461      	add	r1, ip
100005fa:	4462      	add	r2, ip
100005fc:	0109      	lsls	r1, r1, #4
100005fe:	0112      	lsls	r2, r2, #4
10000600:	189a      	adds	r2, r3, r2
10000602:	1859      	adds	r1, r3, r1
10000604:	6854      	ldr	r4, [r2, #4]
10000606:	684b      	ldr	r3, [r1, #4]
10000608:	2001      	movs	r0, #1
1000060a:	429c      	cmp	r4, r3
1000060c:	d801      	bhi.n	10000612 <timer_pool_entry_comparator+0x22>
1000060e:	d002      	beq.n	10000616 <timer_pool_entry_comparator+0x26>
10000610:	2000      	movs	r0, #0
10000612:	b2c0      	uxtb	r0, r0
10000614:	bd10      	pop	{r4, pc}
10000616:	6812      	ldr	r2, [r2, #0]
10000618:	680b      	ldr	r3, [r1, #0]
1000061a:	429a      	cmp	r2, r3
1000061c:	d8f9      	bhi.n	10000612 <timer_pool_entry_comparator+0x22>
1000061e:	e7f7      	b.n	10000610 <timer_pool_entry_comparator+0x20>
10000620:	0fffffff 	.word	0x0fffffff

10000624 <add_alarm_under_lock>:
10000624:	b5f0      	push	{r4, r5, r6, r7, lr}
10000626:	4657      	mov	r7, sl
10000628:	4645      	mov	r5, r8
1000062a:	46de      	mov	lr, fp
1000062c:	464e      	mov	r6, r9
1000062e:	b5e0      	push	{r5, r6, r7, lr}
10000630:	b083      	sub	sp, #12
10000632:	001f      	movs	r7, r3
10000634:	ab0f      	add	r3, sp, #60	; 0x3c
10000636:	781b      	ldrb	r3, [r3, #0]
10000638:	9c0e      	ldr	r4, [sp, #56]	; 0x38
1000063a:	0005      	movs	r5, r0
1000063c:	4692      	mov	sl, r2
1000063e:	9301      	str	r3, [sp, #4]
10000640:	2c00      	cmp	r4, #0
10000642:	d10d      	bne.n	10000660 <add_alarm_under_lock+0x3c>
10000644:	6802      	ldr	r2, [r0, #0]
10000646:	7b94      	ldrb	r4, [r2, #14]
10000648:	2c00      	cmp	r4, #0
1000064a:	d056      	beq.n	100006fa <add_alarm_under_lock+0xd6>
1000064c:	6811      	ldr	r1, [r2, #0]
1000064e:	0063      	lsls	r3, r4, #1
10000650:	468c      	mov	ip, r1
10000652:	191b      	adds	r3, r3, r4
10000654:	4463      	add	r3, ip
10000656:	3b03      	subs	r3, #3
10000658:	785b      	ldrb	r3, [r3, #1]
1000065a:	7393      	strb	r3, [r2, #14]
1000065c:	2b00      	cmp	r3, #0
1000065e:	d054      	beq.n	1000070a <add_alarm_under_lock+0xe6>
10000660:	68aa      	ldr	r2, [r5, #8]
10000662:	b2e3      	uxtb	r3, r4
10000664:	4694      	mov	ip, r2
10000666:	4652      	mov	r2, sl
10000668:	469b      	mov	fp, r3
1000066a:	4b38      	ldr	r3, [pc, #224]	; (1000074c <add_alarm_under_lock+0x128>)
1000066c:	682e      	ldr	r6, [r5, #0]
1000066e:	18e3      	adds	r3, r4, r3
10000670:	011b      	lsls	r3, r3, #4
10000672:	4463      	add	r3, ip
10000674:	601a      	str	r2, [r3, #0]
10000676:	9a0c      	ldr	r2, [sp, #48]	; 0x30
10000678:	605f      	str	r7, [r3, #4]
1000067a:	609a      	str	r2, [r3, #8]
1000067c:	9a0d      	ldr	r2, [sp, #52]	; 0x34
1000067e:	60da      	str	r2, [r3, #12]
10000680:	23d0      	movs	r3, #208	; 0xd0
10000682:	2280      	movs	r2, #128	; 0x80
10000684:	061b      	lsls	r3, r3, #24
10000686:	0312      	lsls	r2, r2, #12
10000688:	615a      	str	r2, [r3, #20]
1000068a:	0063      	lsls	r3, r4, #1
1000068c:	191b      	adds	r3, r3, r4
1000068e:	3b03      	subs	r3, #3
10000690:	4698      	mov	r8, r3
10000692:	2200      	movs	r2, #0
10000694:	6833      	ldr	r3, [r6, #0]
10000696:	4443      	add	r3, r8
10000698:	709a      	strb	r2, [r3, #2]
1000069a:	705a      	strb	r2, [r3, #1]
1000069c:	701a      	strb	r2, [r3, #0]
1000069e:	7b73      	ldrb	r3, [r6, #13]
100006a0:	4699      	mov	r9, r3
100006a2:	2b00      	cmp	r3, #0
100006a4:	d017      	beq.n	100006d6 <add_alarm_under_lock+0xb2>
100006a6:	465a      	mov	r2, fp
100006a8:	0019      	movs	r1, r3
100006aa:	68b0      	ldr	r0, [r6, #8]
100006ac:	6873      	ldr	r3, [r6, #4]
100006ae:	4798      	blx	r3
100006b0:	6832      	ldr	r2, [r6, #0]
100006b2:	2800      	cmp	r0, #0
100006b4:	d12b      	bne.n	1000070e <add_alarm_under_lock+0xea>
100006b6:	4643      	mov	r3, r8
100006b8:	18d1      	adds	r1, r2, r3
100006ba:	464b      	mov	r3, r9
100006bc:	4658      	mov	r0, fp
100006be:	005b      	lsls	r3, r3, #1
100006c0:	444b      	add	r3, r9
100006c2:	3b03      	subs	r3, #3
100006c4:	18d3      	adds	r3, r2, r3
100006c6:	7098      	strb	r0, [r3, #2]
100006c8:	4640      	mov	r0, r8
100006ca:	5c12      	ldrb	r2, [r2, r0]
100006cc:	2a00      	cmp	r2, #0
100006ce:	d000      	beq.n	100006d2 <add_alarm_under_lock+0xae>
100006d0:	705a      	strb	r2, [r3, #1]
100006d2:	464b      	mov	r3, r9
100006d4:	700b      	strb	r3, [r1, #0]
100006d6:	465b      	mov	r3, fp
100006d8:	7373      	strb	r3, [r6, #13]
100006da:	4652      	mov	r2, sl
100006dc:	003b      	movs	r3, r7
100006de:	7d28      	ldrb	r0, [r5, #20]
100006e0:	f000 fa1a 	bl	10000b18 <hardware_alarm_set_target>
100006e4:	1e06      	subs	r6, r0, #0
100006e6:	d002      	beq.n	100006ee <add_alarm_under_lock+0xca>
100006e8:	9b01      	ldr	r3, [sp, #4]
100006ea:	2b00      	cmp	r3, #0
100006ec:	d026      	beq.n	1000073c <add_alarm_under_lock+0x118>
100006ee:	9b10      	ldr	r3, [sp, #64]	; 0x40
100006f0:	2b00      	cmp	r3, #0
100006f2:	d028      	beq.n	10000746 <add_alarm_under_lock+0x122>
100006f4:	0020      	movs	r0, r4
100006f6:	701e      	strb	r6, [r3, #0]
100006f8:	e000      	b.n	100006fc <add_alarm_under_lock+0xd8>
100006fa:	2000      	movs	r0, #0
100006fc:	b003      	add	sp, #12
100006fe:	bc3c      	pop	{r2, r3, r4, r5}
10000700:	4690      	mov	r8, r2
10000702:	4699      	mov	r9, r3
10000704:	46a2      	mov	sl, r4
10000706:	46ab      	mov	fp, r5
10000708:	bdf0      	pop	{r4, r5, r6, r7, pc}
1000070a:	73d3      	strb	r3, [r2, #15]
1000070c:	e7a8      	b.n	10000660 <add_alarm_under_lock+0x3c>
1000070e:	464b      	mov	r3, r9
10000710:	005b      	lsls	r3, r3, #1
10000712:	444b      	add	r3, r9
10000714:	3b03      	subs	r3, #3
10000716:	18d1      	adds	r1, r2, r3
10000718:	468c      	mov	ip, r1
1000071a:	4641      	mov	r1, r8
1000071c:	4648      	mov	r0, r9
1000071e:	1851      	adds	r1, r2, r1
10000720:	7088      	strb	r0, [r1, #2]
10000722:	5cd3      	ldrb	r3, [r2, r3]
10000724:	2b00      	cmp	r3, #0
10000726:	d000      	beq.n	1000072a <add_alarm_under_lock+0x106>
10000728:	704b      	strb	r3, [r1, #1]
1000072a:	465b      	mov	r3, fp
1000072c:	4662      	mov	r2, ip
1000072e:	7013      	strb	r3, [r2, #0]
10000730:	464b      	mov	r3, r9
10000732:	0020      	movs	r0, r4
10000734:	7373      	strb	r3, [r6, #13]
10000736:	45a1      	cmp	r9, r4
10000738:	d1e0      	bne.n	100006fc <add_alarm_under_lock+0xd8>
1000073a:	e7ce      	b.n	100006da <add_alarm_under_lock+0xb6>
1000073c:	4659      	mov	r1, fp
1000073e:	6828      	ldr	r0, [r5, #0]
10000740:	f000 fc48 	bl	10000fd4 <ph_delete>
10000744:	e7d3      	b.n	100006ee <add_alarm_under_lock+0xca>
10000746:	0020      	movs	r0, r4
10000748:	e7d8      	b.n	100006fc <add_alarm_under_lock+0xd8>
1000074a:	46c0      	nop			; (mov r8, r8)
1000074c:	0fffffff 	.word	0x0fffffff

10000750 <alarm_pool_alarm_callback>:
10000750:	b5f0      	push	{r4, r5, r6, r7, lr}
10000752:	46de      	mov	lr, fp
10000754:	464e      	mov	r6, r9
10000756:	4657      	mov	r7, sl
10000758:	4645      	mov	r5, r8
1000075a:	2300      	movs	r3, #0
1000075c:	b5e0      	push	{r5, r6, r7, lr}
1000075e:	b08d      	sub	sp, #52	; 0x34
10000760:	930a      	str	r3, [sp, #40]	; 0x28
10000762:	4b71      	ldr	r3, [pc, #452]	; (10000928 <alarm_pool_alarm_callback+0x1d8>)
10000764:	0082      	lsls	r2, r0, #2
10000766:	58d3      	ldr	r3, [r2, r3]
10000768:	900b      	str	r0, [sp, #44]	; 0x2c
1000076a:	4699      	mov	r9, r3
1000076c:	2300      	movs	r3, #0
1000076e:	469b      	mov	fp, r3
10000770:	464b      	mov	r3, r9
10000772:	9307      	str	r3, [sp, #28]
10000774:	f000 f980 	bl	10000a78 <time_us_64>
10000778:	9c07      	ldr	r4, [sp, #28]
1000077a:	0006      	movs	r6, r0
1000077c:	000f      	movs	r7, r1
1000077e:	6862      	ldr	r2, [r4, #4]
10000780:	f3ef 8510 	mrs	r5, PRIMASK
10000784:	b672      	cpsid	i
10000786:	6813      	ldr	r3, [r2, #0]
10000788:	2b00      	cmp	r3, #0
1000078a:	d0fc      	beq.n	10000786 <alarm_pool_alarm_callback+0x36>
1000078c:	0022      	movs	r2, r4
1000078e:	9407      	str	r4, [sp, #28]
10000790:	f3bf 8f5f 	dmb	sy
10000794:	6824      	ldr	r4, [r4, #0]
10000796:	7b63      	ldrb	r3, [r4, #13]
10000798:	4699      	mov	r9, r3
1000079a:	2b00      	cmp	r3, #0
1000079c:	d100      	bne.n	100007a0 <alarm_pool_alarm_callback+0x50>
1000079e:	e070      	b.n	10000882 <alarm_pool_alarm_callback+0x132>
100007a0:	6892      	ldr	r2, [r2, #8]
100007a2:	4b62      	ldr	r3, [pc, #392]	; (1000092c <alarm_pool_alarm_callback+0x1dc>)
100007a4:	4690      	mov	r8, r2
100007a6:	444b      	add	r3, r9
100007a8:	011b      	lsls	r3, r3, #4
100007aa:	4498      	add	r8, r3
100007ac:	4643      	mov	r3, r8
100007ae:	681a      	ldr	r2, [r3, #0]
100007b0:	685b      	ldr	r3, [r3, #4]
100007b2:	0010      	movs	r0, r2
100007b4:	0019      	movs	r1, r3
100007b6:	1b80      	subs	r0, r0, r6
100007b8:	41b9      	sbcs	r1, r7
100007ba:	2900      	cmp	r1, #0
100007bc:	dd68      	ble.n	10000890 <alarm_pool_alarm_callback+0x140>
100007be:	980b      	ldr	r0, [sp, #44]	; 0x2c
100007c0:	f000 f9aa 	bl	10000b18 <hardware_alarm_set_target>
100007c4:	2300      	movs	r3, #0
100007c6:	2600      	movs	r6, #0
100007c8:	4698      	mov	r8, r3
100007ca:	2700      	movs	r7, #0
100007cc:	469a      	mov	sl, r3
100007ce:	9c07      	ldr	r4, [sp, #28]
100007d0:	6863      	ldr	r3, [r4, #4]
100007d2:	f3bf 8f5f 	dmb	sy
100007d6:	465a      	mov	r2, fp
100007d8:	601a      	str	r2, [r3, #0]
100007da:	f385 8810 	msr	PRIMASK, r5
100007de:	4653      	mov	r3, sl
100007e0:	2b00      	cmp	r3, #0
100007e2:	d108      	bne.n	100007f6 <alarm_pool_alarm_callback+0xa6>
100007e4:	2800      	cmp	r0, #0
100007e6:	d1c5      	bne.n	10000774 <alarm_pool_alarm_callback+0x24>
100007e8:	b00d      	add	sp, #52	; 0x34
100007ea:	bc3c      	pop	{r2, r3, r4, r5}
100007ec:	4690      	mov	r8, r2
100007ee:	4699      	mov	r9, r3
100007f0:	46a2      	mov	sl, r4
100007f2:	46ab      	mov	fp, r5
100007f4:	bdf0      	pop	{r4, r5, r6, r7, pc}
100007f6:	23d0      	movs	r3, #208	; 0xd0
100007f8:	2280      	movs	r2, #128	; 0x80
100007fa:	2180      	movs	r1, #128	; 0x80
100007fc:	061b      	lsls	r3, r3, #24
100007fe:	0392      	lsls	r2, r2, #14
10000800:	0309      	lsls	r1, r1, #12
10000802:	615a      	str	r2, [r3, #20]
10000804:	6199      	str	r1, [r3, #24]
10000806:	619a      	str	r2, [r3, #24]
10000808:	9b0a      	ldr	r3, [sp, #40]	; 0x28
1000080a:	4641      	mov	r1, r8
1000080c:	0218      	lsls	r0, r3, #8
1000080e:	464b      	mov	r3, r9
10000810:	4318      	orrs	r0, r3
10000812:	47d0      	blx	sl
10000814:	9008      	str	r0, [sp, #32]
10000816:	9109      	str	r1, [sp, #36]	; 0x24
10000818:	6862      	ldr	r2, [r4, #4]
1000081a:	f3ef 8510 	mrs	r5, PRIMASK
1000081e:	b672      	cpsid	i
10000820:	6813      	ldr	r3, [r2, #0]
10000822:	2b00      	cmp	r3, #0
10000824:	d0fc      	beq.n	10000820 <alarm_pool_alarm_callback+0xd0>
10000826:	9407      	str	r4, [sp, #28]
10000828:	f3bf 8f5f 	dmb	sy
1000082c:	9908      	ldr	r1, [sp, #32]
1000082e:	9a09      	ldr	r2, [sp, #36]	; 0x24
10000830:	2a00      	cmp	r2, #0
10000832:	db49      	blt.n	100008c8 <alarm_pool_alarm_callback+0x178>
10000834:	4311      	orrs	r1, r2
10000836:	d003      	beq.n	10000840 <alarm_pool_alarm_callback+0xf0>
10000838:	9b07      	ldr	r3, [sp, #28]
1000083a:	691b      	ldr	r3, [r3, #16]
1000083c:	2b00      	cmp	r3, #0
1000083e:	d15e      	bne.n	100008fe <alarm_pool_alarm_callback+0x1ae>
10000840:	9b07      	ldr	r3, [sp, #28]
10000842:	681b      	ldr	r3, [r3, #0]
10000844:	7bda      	ldrb	r2, [r3, #15]
10000846:	2a00      	cmp	r2, #0
10000848:	d007      	beq.n	1000085a <alarm_pool_alarm_callback+0x10a>
1000084a:	0051      	lsls	r1, r2, #1
1000084c:	188a      	adds	r2, r1, r2
1000084e:	6819      	ldr	r1, [r3, #0]
10000850:	468c      	mov	ip, r1
10000852:	4649      	mov	r1, r9
10000854:	4462      	add	r2, ip
10000856:	3a03      	subs	r2, #3
10000858:	7051      	strb	r1, [r2, #1]
1000085a:	464a      	mov	r2, r9
1000085c:	73da      	strb	r2, [r3, #15]
1000085e:	464b      	mov	r3, r9
10000860:	9a07      	ldr	r2, [sp, #28]
10000862:	3b01      	subs	r3, #1
10000864:	68d1      	ldr	r1, [r2, #12]
10000866:	5cca      	ldrb	r2, [r1, r3]
10000868:	3201      	adds	r2, #1
1000086a:	54ca      	strb	r2, [r1, r3]
1000086c:	465b      	mov	r3, fp
1000086e:	9a07      	ldr	r2, [sp, #28]
10000870:	6113      	str	r3, [r2, #16]
10000872:	6853      	ldr	r3, [r2, #4]
10000874:	f3bf 8f5f 	dmb	sy
10000878:	465a      	mov	r2, fp
1000087a:	601a      	str	r2, [r3, #0]
1000087c:	f385 8810 	msr	PRIMASK, r5
10000880:	e778      	b.n	10000774 <alarm_pool_alarm_callback+0x24>
10000882:	2300      	movs	r3, #0
10000884:	2600      	movs	r6, #0
10000886:	4698      	mov	r8, r3
10000888:	2700      	movs	r7, #0
1000088a:	469a      	mov	sl, r3
1000088c:	2000      	movs	r0, #0
1000088e:	e79e      	b.n	100007ce <alarm_pool_alarm_callback+0x7e>
10000890:	2900      	cmp	r1, #0
10000892:	d102      	bne.n	1000089a <alarm_pool_alarm_callback+0x14a>
10000894:	2800      	cmp	r0, #0
10000896:	d000      	beq.n	1000089a <alarm_pool_alarm_callback+0x14a>
10000898:	e791      	b.n	100007be <alarm_pool_alarm_callback+0x6e>
1000089a:	2101      	movs	r1, #1
1000089c:	0020      	movs	r0, r4
1000089e:	f000 fafb 	bl	10000e98 <ph_remove_head_reserve>
100008a2:	4643      	mov	r3, r8
100008a4:	681e      	ldr	r6, [r3, #0]
100008a6:	685f      	ldr	r7, [r3, #4]
100008a8:	689b      	ldr	r3, [r3, #8]
100008aa:	9a07      	ldr	r2, [sp, #28]
100008ac:	469a      	mov	sl, r3
100008ae:	4643      	mov	r3, r8
100008b0:	68db      	ldr	r3, [r3, #12]
100008b2:	4698      	mov	r8, r3
100008b4:	68d3      	ldr	r3, [r2, #12]
100008b6:	444b      	add	r3, r9
100008b8:	3b01      	subs	r3, #1
100008ba:	781b      	ldrb	r3, [r3, #0]
100008bc:	930a      	str	r3, [sp, #40]	; 0x28
100008be:	021b      	lsls	r3, r3, #8
100008c0:	4303      	orrs	r3, r0
100008c2:	6113      	str	r3, [r2, #16]
100008c4:	2000      	movs	r0, #0
100008c6:	e782      	b.n	100007ce <alarm_pool_alarm_callback+0x7e>
100008c8:	6923      	ldr	r3, [r4, #16]
100008ca:	2b00      	cmp	r3, #0
100008cc:	d0b8      	beq.n	10000840 <alarm_pool_alarm_callback+0xf0>
100008ce:	0033      	movs	r3, r6
100008d0:	003c      	movs	r4, r7
100008d2:	1a5b      	subs	r3, r3, r1
100008d4:	4194      	sbcs	r4, r2
100008d6:	001a      	movs	r2, r3
100008d8:	0023      	movs	r3, r4
100008da:	42a7      	cmp	r7, r4
100008dc:	d819      	bhi.n	10000912 <alarm_pool_alarm_callback+0x1c2>
100008de:	429f      	cmp	r7, r3
100008e0:	d01b      	beq.n	1000091a <alarm_pool_alarm_callback+0x1ca>
100008e2:	4659      	mov	r1, fp
100008e4:	9104      	str	r1, [sp, #16]
100008e6:	2101      	movs	r1, #1
100008e8:	9103      	str	r1, [sp, #12]
100008ea:	4649      	mov	r1, r9
100008ec:	9102      	str	r1, [sp, #8]
100008ee:	4641      	mov	r1, r8
100008f0:	9101      	str	r1, [sp, #4]
100008f2:	4651      	mov	r1, sl
100008f4:	9807      	ldr	r0, [sp, #28]
100008f6:	9100      	str	r1, [sp, #0]
100008f8:	f7ff fe94 	bl	10000624 <add_alarm_under_lock>
100008fc:	e7b6      	b.n	1000086c <alarm_pool_alarm_callback+0x11c>
100008fe:	f000 f8bb 	bl	10000a78 <time_us_64>
10000902:	9a08      	ldr	r2, [sp, #32]
10000904:	9b09      	ldr	r3, [sp, #36]	; 0x24
10000906:	0006      	movs	r6, r0
10000908:	000f      	movs	r7, r1
1000090a:	1992      	adds	r2, r2, r6
1000090c:	417b      	adcs	r3, r7
1000090e:	4299      	cmp	r1, r3
10000910:	d9e5      	bls.n	100008de <alarm_pool_alarm_callback+0x18e>
10000912:	2201      	movs	r2, #1
10000914:	4252      	negs	r2, r2
10000916:	17d3      	asrs	r3, r2, #31
10000918:	e7e3      	b.n	100008e2 <alarm_pool_alarm_callback+0x192>
1000091a:	4296      	cmp	r6, r2
1000091c:	d9e1      	bls.n	100008e2 <alarm_pool_alarm_callback+0x192>
1000091e:	2201      	movs	r2, #1
10000920:	4252      	negs	r2, r2
10000922:	17d3      	asrs	r3, r2, #31
10000924:	e7dd      	b.n	100008e2 <alarm_pool_alarm_callback+0x192>
10000926:	46c0      	nop			; (mov r8, r8)
10000928:	20000be8 	.word	0x20000be8
1000092c:	0fffffff 	.word	0x0fffffff

10000930 <alarm_pool_init_default>:
10000930:	b570      	push	{r4, r5, r6, lr}
10000932:	4c18      	ldr	r4, [pc, #96]	; (10000994 <alarm_pool_init_default+0x64>)
10000934:	6823      	ldr	r3, [r4, #0]
10000936:	2b00      	cmp	r3, #0
10000938:	d000      	beq.n	1000093c <alarm_pool_init_default+0xc>
1000093a:	bd70      	pop	{r4, r5, r6, pc}
1000093c:	2003      	movs	r0, #3
1000093e:	f000 f88f 	bl	10000a60 <hardware_alarm_claim>
10000942:	2003      	movs	r0, #3
10000944:	f000 f94a 	bl	10000bdc <hardware_alarm_cancel>
10000948:	4913      	ldr	r1, [pc, #76]	; (10000998 <alarm_pool_init_default+0x68>)
1000094a:	2003      	movs	r0, #3
1000094c:	f000 f89e 	bl	10000a8c <hardware_alarm_set_callback>
10000950:	2018      	movs	r0, #24
10000952:	f003 fa0d 	bl	10003d70 <__wrap_malloc>
10000956:	0005      	movs	r5, r0
10000958:	f7ff fdca 	bl	100004f0 <next_striped_spin_lock_num>
1000095c:	4b0f      	ldr	r3, [pc, #60]	; (1000099c <alarm_pool_init_default+0x6c>)
1000095e:	002a      	movs	r2, r5
10000960:	469c      	mov	ip, r3
10000962:	4460      	add	r0, ip
10000964:	0080      	lsls	r0, r0, #2
10000966:	490e      	ldr	r1, [pc, #56]	; (100009a0 <alarm_pool_init_default+0x70>)
10000968:	6068      	str	r0, [r5, #4]
1000096a:	2010      	movs	r0, #16
1000096c:	f000 f99e 	bl	10000cac <ph_create>
10000970:	2110      	movs	r1, #16
10000972:	6028      	str	r0, [r5, #0]
10000974:	2010      	movs	r0, #16
10000976:	f003 f9ff 	bl	10003d78 <__wrap_calloc>
1000097a:	2101      	movs	r1, #1
1000097c:	60a8      	str	r0, [r5, #8]
1000097e:	2010      	movs	r0, #16
10000980:	f003 f9fa 	bl	10003d78 <__wrap_calloc>
10000984:	2303      	movs	r3, #3
10000986:	752b      	strb	r3, [r5, #20]
10000988:	4b06      	ldr	r3, [pc, #24]	; (100009a4 <alarm_pool_init_default+0x74>)
1000098a:	60e8      	str	r0, [r5, #12]
1000098c:	60dd      	str	r5, [r3, #12]
1000098e:	6025      	str	r5, [r4, #0]
10000990:	e7d3      	b.n	1000093a <alarm_pool_init_default+0xa>
10000992:	46c0      	nop			; (mov r8, r8)
10000994:	20000bd4 	.word	0x20000bd4
10000998:	10000751 	.word	0x10000751
1000099c:	34000040 	.word	0x34000040
100009a0:	100005f1 	.word	0x100005f1
100009a4:	20000be8 	.word	0x20000be8

100009a8 <hardware_alarm_irq_handler>:
100009a8:	b5f0      	push	{r4, r5, r6, r7, lr}
100009aa:	46d6      	mov	lr, sl
100009ac:	464f      	mov	r7, r9
100009ae:	4646      	mov	r6, r8
100009b0:	b5c0      	push	{r6, r7, lr}
100009b2:	f3ef 8305 	mrs	r3, IPSR
100009b6:	223f      	movs	r2, #63	; 0x3f
100009b8:	4013      	ands	r3, r2
100009ba:	0018      	movs	r0, r3
100009bc:	3810      	subs	r0, #16
100009be:	f3ef 8c10 	mrs	ip, PRIMASK
100009c2:	b672      	cpsid	i
100009c4:	4d20      	ldr	r5, [pc, #128]	; (10000a48 <hardware_alarm_irq_handler+0xa0>)
100009c6:	682a      	ldr	r2, [r5, #0]
100009c8:	2a00      	cmp	r2, #0
100009ca:	d0fc      	beq.n	100009c6 <hardware_alarm_irq_handler+0x1e>
100009cc:	f3bf 8f5f 	dmb	sy
100009d0:	2201      	movs	r2, #1
100009d2:	0011      	movs	r1, r2
100009d4:	4081      	lsls	r1, r0
100009d6:	4c1d      	ldr	r4, [pc, #116]	; (10000a4c <hardware_alarm_irq_handler+0xa4>)
100009d8:	4688      	mov	r8, r1
100009da:	6361      	str	r1, [r4, #52]	; 0x34
100009dc:	491c      	ldr	r1, [pc, #112]	; (10000a50 <hardware_alarm_irq_handler+0xa8>)
100009de:	0017      	movs	r7, r2
100009e0:	780e      	ldrb	r6, [r1, #0]
100009e2:	468a      	mov	sl, r1
100009e4:	0031      	movs	r1, r6
100009e6:	40c1      	lsrs	r1, r0
100009e8:	400f      	ands	r7, r1
100009ea:	420a      	tst	r2, r1
100009ec:	d015      	beq.n	10000a1a <hardware_alarm_irq_handler+0x72>
100009ee:	4919      	ldr	r1, [pc, #100]	; (10000a54 <hardware_alarm_irq_handler+0xac>)
100009f0:	0082      	lsls	r2, r0, #2
100009f2:	6a64      	ldr	r4, [r4, #36]	; 0x24
100009f4:	5851      	ldr	r1, [r2, r1]
100009f6:	428c      	cmp	r4, r1
100009f8:	d319      	bcc.n	10000a2e <hardware_alarm_irq_handler+0x86>
100009fa:	4b17      	ldr	r3, [pc, #92]	; (10000a58 <hardware_alarm_irq_handler+0xb0>)
100009fc:	58d2      	ldr	r2, [r2, r3]
100009fe:	4643      	mov	r3, r8
10000a00:	439e      	bics	r6, r3
10000a02:	4653      	mov	r3, sl
10000a04:	701e      	strb	r6, [r3, #0]
10000a06:	f3bf 8f5f 	dmb	sy
10000a0a:	2300      	movs	r3, #0
10000a0c:	602b      	str	r3, [r5, #0]
10000a0e:	f38c 8810 	msr	PRIMASK, ip
10000a12:	2a00      	cmp	r2, #0
10000a14:	d006      	beq.n	10000a24 <hardware_alarm_irq_handler+0x7c>
10000a16:	4790      	blx	r2
10000a18:	e004      	b.n	10000a24 <hardware_alarm_irq_handler+0x7c>
10000a1a:	f3bf 8f5f 	dmb	sy
10000a1e:	602f      	str	r7, [r5, #0]
10000a20:	f38c 8810 	msr	PRIMASK, ip
10000a24:	bc1c      	pop	{r2, r3, r4}
10000a26:	4690      	mov	r8, r2
10000a28:	4699      	mov	r9, r3
10000a2a:	46a2      	mov	sl, r4
10000a2c:	bdf0      	pop	{r4, r5, r6, r7, pc}
10000a2e:	4a0b      	ldr	r2, [pc, #44]	; (10000a5c <hardware_alarm_irq_handler+0xb4>)
10000a30:	009b      	lsls	r3, r3, #2
10000a32:	4690      	mov	r8, r2
10000a34:	4443      	add	r3, r8
10000a36:	681a      	ldr	r2, [r3, #0]
10000a38:	601a      	str	r2, [r3, #0]
10000a3a:	f3bf 8f5f 	dmb	sy
10000a3e:	2300      	movs	r3, #0
10000a40:	602b      	str	r3, [r5, #0]
10000a42:	f38c 8810 	msr	PRIMASK, ip
10000a46:	e7ed      	b.n	10000a24 <hardware_alarm_irq_handler+0x7c>
10000a48:	d0000128 	.word	0xd0000128
10000a4c:	40054000 	.word	0x40054000
10000a50:	20000c0a 	.word	0x20000c0a
10000a54:	20000bf8 	.word	0x20000bf8
10000a58:	20000b9c 	.word	0x20000b9c
10000a5c:	40053fd0 	.word	0x40053fd0

10000a60 <hardware_alarm_claim>:
10000a60:	b510      	push	{r4, lr}
10000a62:	0001      	movs	r1, r0
10000a64:	4a02      	ldr	r2, [pc, #8]	; (10000a70 <hardware_alarm_claim+0x10>)
10000a66:	4803      	ldr	r0, [pc, #12]	; (10000a74 <hardware_alarm_claim+0x14>)
10000a68:	f7ff fd04 	bl	10000474 <hw_claim_or_assert>
10000a6c:	bd10      	pop	{r4, pc}
10000a6e:	46c0      	nop			; (mov r8, r8)
10000a70:	10004d28 	.word	0x10004d28
10000a74:	20000c08 	.word	0x20000c08

10000a78 <time_us_64>:
10000a78:	4b03      	ldr	r3, [pc, #12]	; (10000a88 <time_us_64+0x10>)
10000a7a:	6a59      	ldr	r1, [r3, #36]	; 0x24
10000a7c:	000a      	movs	r2, r1
10000a7e:	6a98      	ldr	r0, [r3, #40]	; 0x28
10000a80:	6a59      	ldr	r1, [r3, #36]	; 0x24
10000a82:	428a      	cmp	r2, r1
10000a84:	d1fa      	bne.n	10000a7c <time_us_64+0x4>
10000a86:	4770      	bx	lr
10000a88:	40054000 	.word	0x40054000

10000a8c <hardware_alarm_set_callback>:
10000a8c:	b570      	push	{r4, r5, r6, lr}
10000a8e:	0004      	movs	r4, r0
10000a90:	000d      	movs	r5, r1
10000a92:	f3ef 8610 	mrs	r6, PRIMASK
10000a96:	b672      	cpsid	i
10000a98:	4a1a      	ldr	r2, [pc, #104]	; (10000b04 <hardware_alarm_set_callback+0x78>)
10000a9a:	6813      	ldr	r3, [r2, #0]
10000a9c:	2b00      	cmp	r3, #0
10000a9e:	d0fc      	beq.n	10000a9a <hardware_alarm_set_callback+0xe>
10000aa0:	f3bf 8f5f 	dmb	sy
10000aa4:	2d00      	cmp	r5, #0
10000aa6:	d01b      	beq.n	10000ae0 <hardware_alarm_set_callback+0x54>
10000aa8:	0020      	movs	r0, r4
10000aaa:	f000 fd4f 	bl	1000154c <irq_get_vtable_handler>
10000aae:	4916      	ldr	r1, [pc, #88]	; (10000b08 <hardware_alarm_set_callback+0x7c>)
10000ab0:	4281      	cmp	r1, r0
10000ab2:	d00a      	beq.n	10000aca <hardware_alarm_set_callback+0x3e>
10000ab4:	0020      	movs	r0, r4
10000ab6:	f000 fd51 	bl	1000155c <irq_set_exclusive_handler>
10000aba:	2101      	movs	r1, #1
10000abc:	0020      	movs	r0, r4
10000abe:	f000 fd33 	bl	10001528 <irq_set_enabled>
10000ac2:	2301      	movs	r3, #1
10000ac4:	40a3      	lsls	r3, r4
10000ac6:	4a11      	ldr	r2, [pc, #68]	; (10000b0c <hardware_alarm_set_callback+0x80>)
10000ac8:	6013      	str	r3, [r2, #0]
10000aca:	4b11      	ldr	r3, [pc, #68]	; (10000b10 <hardware_alarm_set_callback+0x84>)
10000acc:	00a4      	lsls	r4, r4, #2
10000ace:	50e5      	str	r5, [r4, r3]
10000ad0:	f3bf 8f5f 	dmb	sy
10000ad4:	2200      	movs	r2, #0
10000ad6:	4b0b      	ldr	r3, [pc, #44]	; (10000b04 <hardware_alarm_set_callback+0x78>)
10000ad8:	601a      	str	r2, [r3, #0]
10000ada:	f386 8810 	msr	PRIMASK, r6
10000ade:	bd70      	pop	{r4, r5, r6, pc}
10000ae0:	4b0b      	ldr	r3, [pc, #44]	; (10000b10 <hardware_alarm_set_callback+0x84>)
10000ae2:	00a2      	lsls	r2, r4, #2
10000ae4:	50d5      	str	r5, [r2, r3]
10000ae6:	2201      	movs	r2, #1
10000ae8:	40a2      	lsls	r2, r4
10000aea:	490a      	ldr	r1, [pc, #40]	; (10000b14 <hardware_alarm_set_callback+0x88>)
10000aec:	0020      	movs	r0, r4
10000aee:	780b      	ldrb	r3, [r1, #0]
10000af0:	4393      	bics	r3, r2
10000af2:	700b      	strb	r3, [r1, #0]
10000af4:	4904      	ldr	r1, [pc, #16]	; (10000b08 <hardware_alarm_set_callback+0x7c>)
10000af6:	f000 fd5b 	bl	100015b0 <irq_remove_handler>
10000afa:	2100      	movs	r1, #0
10000afc:	0020      	movs	r0, r4
10000afe:	f000 fd13 	bl	10001528 <irq_set_enabled>
10000b02:	e7e5      	b.n	10000ad0 <hardware_alarm_set_callback+0x44>
10000b04:	d0000128 	.word	0xd0000128
10000b08:	100009a9 	.word	0x100009a9
10000b0c:	40056038 	.word	0x40056038
10000b10:	20000b9c 	.word	0x20000b9c
10000b14:	20000c0a 	.word	0x20000c0a

10000b18 <hardware_alarm_set_target>:
10000b18:	b5f0      	push	{r4, r5, r6, r7, lr}
10000b1a:	46ce      	mov	lr, r9
10000b1c:	4647      	mov	r7, r8
10000b1e:	b580      	push	{r7, lr}
10000b20:	4c2a      	ldr	r4, [pc, #168]	; (10000bcc <hardware_alarm_set_target+0xb4>)
10000b22:	6a61      	ldr	r1, [r4, #36]	; 0x24
10000b24:	000d      	movs	r5, r1
10000b26:	6aa6      	ldr	r6, [r4, #40]	; 0x28
10000b28:	6a61      	ldr	r1, [r4, #36]	; 0x24
10000b2a:	42a9      	cmp	r1, r5
10000b2c:	d1fa      	bne.n	10000b24 <hardware_alarm_set_target+0xc>
10000b2e:	428b      	cmp	r3, r1
10000b30:	d807      	bhi.n	10000b42 <hardware_alarm_set_target+0x2a>
10000b32:	d004      	beq.n	10000b3e <hardware_alarm_set_target+0x26>
10000b34:	2001      	movs	r0, #1
10000b36:	bc0c      	pop	{r2, r3}
10000b38:	4690      	mov	r8, r2
10000b3a:	4699      	mov	r9, r3
10000b3c:	bdf0      	pop	{r4, r5, r6, r7, pc}
10000b3e:	42b2      	cmp	r2, r6
10000b40:	d9f8      	bls.n	10000b34 <hardware_alarm_set_target+0x1c>
10000b42:	f3ef 8810 	mrs	r8, PRIMASK
10000b46:	b672      	cpsid	i
10000b48:	4c21      	ldr	r4, [pc, #132]	; (10000bd0 <hardware_alarm_set_target+0xb8>)
10000b4a:	6821      	ldr	r1, [r4, #0]
10000b4c:	2900      	cmp	r1, #0
10000b4e:	d0fc      	beq.n	10000b4a <hardware_alarm_set_target+0x32>
10000b50:	f3bf 8f5f 	dmb	sy
10000b54:	2501      	movs	r5, #1
10000b56:	4085      	lsls	r5, r0
10000b58:	4c1c      	ldr	r4, [pc, #112]	; (10000bcc <hardware_alarm_set_target+0xb4>)
10000b5a:	4e1e      	ldr	r6, [pc, #120]	; (10000bd4 <hardware_alarm_set_target+0xbc>)
10000b5c:	6365      	str	r5, [r4, #52]	; 0x34
10000b5e:	b2e9      	uxtb	r1, r5
10000b60:	468c      	mov	ip, r1
10000b62:	7831      	ldrb	r1, [r6, #0]
10000b64:	4689      	mov	r9, r1
10000b66:	4661      	mov	r1, ip
10000b68:	464f      	mov	r7, r9
10000b6a:	4339      	orrs	r1, r7
10000b6c:	7031      	strb	r1, [r6, #0]
10000b6e:	1d01      	adds	r1, r0, #4
10000b70:	0089      	lsls	r1, r1, #2
10000b72:	510a      	str	r2, [r1, r4]
10000b74:	4918      	ldr	r1, [pc, #96]	; (10000bd8 <hardware_alarm_set_target+0xc0>)
10000b76:	0080      	lsls	r0, r0, #2
10000b78:	5043      	str	r3, [r0, r1]
10000b7a:	6a21      	ldr	r1, [r4, #32]
10000b7c:	2000      	movs	r0, #0
10000b7e:	4229      	tst	r1, r5
10000b80:	d00c      	beq.n	10000b9c <hardware_alarm_set_target+0x84>
10000b82:	0020      	movs	r0, r4
10000b84:	6a61      	ldr	r1, [r4, #36]	; 0x24
10000b86:	000c      	movs	r4, r1
10000b88:	6a87      	ldr	r7, [r0, #40]	; 0x28
10000b8a:	6a41      	ldr	r1, [r0, #36]	; 0x24
10000b8c:	42a1      	cmp	r1, r4
10000b8e:	d1fa      	bne.n	10000b86 <hardware_alarm_set_target+0x6e>
10000b90:	428b      	cmp	r3, r1
10000b92:	d802      	bhi.n	10000b9a <hardware_alarm_set_target+0x82>
10000b94:	d10a      	bne.n	10000bac <hardware_alarm_set_target+0x94>
10000b96:	42ba      	cmp	r2, r7
10000b98:	d908      	bls.n	10000bac <hardware_alarm_set_target+0x94>
10000b9a:	2000      	movs	r0, #0
10000b9c:	f3bf 8f5f 	dmb	sy
10000ba0:	2200      	movs	r2, #0
10000ba2:	4b0b      	ldr	r3, [pc, #44]	; (10000bd0 <hardware_alarm_set_target+0xb8>)
10000ba4:	601a      	str	r2, [r3, #0]
10000ba6:	f388 8810 	msr	PRIMASK, r8
10000baa:	e7c4      	b.n	10000b36 <hardware_alarm_set_target+0x1e>
10000bac:	4b07      	ldr	r3, [pc, #28]	; (10000bcc <hardware_alarm_set_target+0xb4>)
10000bae:	464f      	mov	r7, r9
10000bb0:	621d      	str	r5, [r3, #32]
10000bb2:	635d      	str	r5, [r3, #52]	; 0x34
10000bb4:	4663      	mov	r3, ip
10000bb6:	439f      	bics	r7, r3
10000bb8:	2001      	movs	r0, #1
10000bba:	7037      	strb	r7, [r6, #0]
10000bbc:	f3bf 8f5f 	dmb	sy
10000bc0:	2200      	movs	r2, #0
10000bc2:	4b03      	ldr	r3, [pc, #12]	; (10000bd0 <hardware_alarm_set_target+0xb8>)
10000bc4:	601a      	str	r2, [r3, #0]
10000bc6:	f388 8810 	msr	PRIMASK, r8
10000bca:	e7b4      	b.n	10000b36 <hardware_alarm_set_target+0x1e>
10000bcc:	40054000 	.word	0x40054000
10000bd0:	d0000128 	.word	0xd0000128
10000bd4:	20000c0a 	.word	0x20000c0a
10000bd8:	20000bf8 	.word	0x20000bf8

10000bdc <hardware_alarm_cancel>:
10000bdc:	b510      	push	{r4, lr}
10000bde:	f3ef 8410 	mrs	r4, PRIMASK
10000be2:	b672      	cpsid	i
10000be4:	490a      	ldr	r1, [pc, #40]	; (10000c10 <hardware_alarm_cancel+0x34>)
10000be6:	680b      	ldr	r3, [r1, #0]
10000be8:	2b00      	cmp	r3, #0
10000bea:	d0fc      	beq.n	10000be6 <hardware_alarm_cancel+0xa>
10000bec:	f3bf 8f5f 	dmb	sy
10000bf0:	2301      	movs	r3, #1
10000bf2:	4083      	lsls	r3, r0
10000bf4:	4a07      	ldr	r2, [pc, #28]	; (10000c14 <hardware_alarm_cancel+0x38>)
10000bf6:	4808      	ldr	r0, [pc, #32]	; (10000c18 <hardware_alarm_cancel+0x3c>)
10000bf8:	6213      	str	r3, [r2, #32]
10000bfa:	7802      	ldrb	r2, [r0, #0]
10000bfc:	439a      	bics	r2, r3
10000bfe:	7002      	strb	r2, [r0, #0]
10000c00:	f3bf 8f5f 	dmb	sy
10000c04:	2300      	movs	r3, #0
10000c06:	600b      	str	r3, [r1, #0]
10000c08:	f384 8810 	msr	PRIMASK, r4
10000c0c:	bd10      	pop	{r4, pc}
10000c0e:	46c0      	nop			; (mov r8, r8)
10000c10:	d0000128 	.word	0xd0000128
10000c14:	40054000 	.word	0x40054000
10000c18:	20000c0a 	.word	0x20000c0a

10000c1c <lock_init>:
10000c1c:	4b02      	ldr	r3, [pc, #8]	; (10000c28 <lock_init+0xc>)
10000c1e:	469c      	mov	ip, r3
10000c20:	4461      	add	r1, ip
10000c22:	0089      	lsls	r1, r1, #2
10000c24:	6001      	str	r1, [r0, #0]
10000c26:	4770      	bx	lr
10000c28:	34000040 	.word	0x34000040

10000c2c <mutex_init>:
10000c2c:	b510      	push	{r4, lr}
10000c2e:	0004      	movs	r4, r0
10000c30:	f7ff fc5e 	bl	100004f0 <next_striped_spin_lock_num>
10000c34:	0001      	movs	r1, r0
10000c36:	0020      	movs	r0, r4
10000c38:	f7ff fff0 	bl	10000c1c <lock_init>
10000c3c:	f3bf 8f5f 	dmb	sy
10000c40:	bd10      	pop	{r4, pc}
10000c42:	46c0      	nop			; (mov r8, r8)

10000c44 <ph_merge_nodes>:
10000c44:	b570      	push	{r4, r5, r6, lr}
10000c46:	0005      	movs	r5, r0
10000c48:	000e      	movs	r6, r1
10000c4a:	0014      	movs	r4, r2
10000c4c:	2900      	cmp	r1, #0
10000c4e:	d024      	beq.n	10000c9a <ph_merge_nodes+0x56>
10000c50:	2a00      	cmp	r2, #0
10000c52:	d024      	beq.n	10000c9e <ph_merge_nodes+0x5a>
10000c54:	6880      	ldr	r0, [r0, #8]
10000c56:	686b      	ldr	r3, [r5, #4]
10000c58:	4798      	blx	r3
10000c5a:	6829      	ldr	r1, [r5, #0]
10000c5c:	2800      	cmp	r0, #0
10000c5e:	d00e      	beq.n	10000c7e <ph_merge_nodes+0x3a>
10000c60:	0063      	lsls	r3, r4, #1
10000c62:	191b      	adds	r3, r3, r4
10000c64:	0072      	lsls	r2, r6, #1
10000c66:	3b03      	subs	r3, #3
10000c68:	1992      	adds	r2, r2, r6
10000c6a:	18cb      	adds	r3, r1, r3
10000c6c:	3a03      	subs	r2, #3
10000c6e:	709e      	strb	r6, [r3, #2]
10000c70:	1888      	adds	r0, r1, r2
10000c72:	5c8a      	ldrb	r2, [r1, r2]
10000c74:	2a00      	cmp	r2, #0
10000c76:	d114      	bne.n	10000ca2 <ph_merge_nodes+0x5e>
10000c78:	7004      	strb	r4, [r0, #0]
10000c7a:	0030      	movs	r0, r6
10000c7c:	e00e      	b.n	10000c9c <ph_merge_nodes+0x58>
10000c7e:	0073      	lsls	r3, r6, #1
10000c80:	199b      	adds	r3, r3, r6
10000c82:	0062      	lsls	r2, r4, #1
10000c84:	3b03      	subs	r3, #3
10000c86:	1912      	adds	r2, r2, r4
10000c88:	18cb      	adds	r3, r1, r3
10000c8a:	3a03      	subs	r2, #3
10000c8c:	709c      	strb	r4, [r3, #2]
10000c8e:	1888      	adds	r0, r1, r2
10000c90:	5c8a      	ldrb	r2, [r1, r2]
10000c92:	2a00      	cmp	r2, #0
10000c94:	d000      	beq.n	10000c98 <ph_merge_nodes+0x54>
10000c96:	705a      	strb	r2, [r3, #1]
10000c98:	7006      	strb	r6, [r0, #0]
10000c9a:	0020      	movs	r0, r4
10000c9c:	bd70      	pop	{r4, r5, r6, pc}
10000c9e:	0008      	movs	r0, r1
10000ca0:	e7fc      	b.n	10000c9c <ph_merge_nodes+0x58>
10000ca2:	705a      	strb	r2, [r3, #1]
10000ca4:	7004      	strb	r4, [r0, #0]
10000ca6:	0030      	movs	r0, r6
10000ca8:	e7f8      	b.n	10000c9c <ph_merge_nodes+0x58>
10000caa:	46c0      	nop			; (mov r8, r8)

10000cac <ph_create>:
10000cac:	b5f0      	push	{r4, r5, r6, r7, lr}
10000cae:	46c6      	mov	lr, r8
10000cb0:	0005      	movs	r5, r0
10000cb2:	000f      	movs	r7, r1
10000cb4:	b500      	push	{lr}
10000cb6:	2110      	movs	r1, #16
10000cb8:	2001      	movs	r0, #1
10000cba:	0016      	movs	r6, r2
10000cbc:	f003 f85c 	bl	10003d78 <__wrap_calloc>
10000cc0:	b2eb      	uxtb	r3, r5
10000cc2:	0004      	movs	r4, r0
10000cc4:	7303      	strb	r3, [r0, #12]
10000cc6:	2103      	movs	r1, #3
10000cc8:	6047      	str	r7, [r0, #4]
10000cca:	0028      	movs	r0, r5
10000ccc:	4698      	mov	r8, r3
10000cce:	f003 f853 	bl	10003d78 <__wrap_calloc>
10000cd2:	2300      	movs	r3, #0
10000cd4:	7363      	strb	r3, [r4, #13]
10000cd6:	3301      	adds	r3, #1
10000cd8:	73a3      	strb	r3, [r4, #14]
10000cda:	4643      	mov	r3, r8
10000cdc:	21ff      	movs	r1, #255	; 0xff
10000cde:	73e3      	strb	r3, [r4, #15]
10000ce0:	23fe      	movs	r3, #254	; 0xfe
10000ce2:	6020      	str	r0, [r4, #0]
10000ce4:	60a6      	str	r6, [r4, #8]
10000ce6:	4029      	ands	r1, r5
10000ce8:	422b      	tst	r3, r5
10000cea:	d006      	beq.n	10000cfa <ph_create+0x4e>
10000cec:	1c42      	adds	r2, r0, #1
10000cee:	3bfd      	subs	r3, #253	; 0xfd
10000cf0:	3301      	adds	r3, #1
10000cf2:	7013      	strb	r3, [r2, #0]
10000cf4:	3203      	adds	r2, #3
10000cf6:	428b      	cmp	r3, r1
10000cf8:	d3fa      	bcc.n	10000cf0 <ph_create+0x44>
10000cfa:	004b      	lsls	r3, r1, #1
10000cfc:	1859      	adds	r1, r3, r1
10000cfe:	2300      	movs	r3, #0
10000d00:	1840      	adds	r0, r0, r1
10000d02:	3803      	subs	r0, #3
10000d04:	7043      	strb	r3, [r0, #1]
10000d06:	0020      	movs	r0, r4
10000d08:	bc04      	pop	{r2}
10000d0a:	4690      	mov	r8, r2
10000d0c:	bdf0      	pop	{r4, r5, r6, r7, pc}
10000d0e:	46c0      	nop			; (mov r8, r8)

10000d10 <ph_merge_two_pass>:
10000d10:	b5f8      	push	{r3, r4, r5, r6, r7, lr}
10000d12:	46ce      	mov	lr, r9
10000d14:	4647      	mov	r7, r8
10000d16:	0006      	movs	r6, r0
10000d18:	000c      	movs	r4, r1
10000d1a:	b580      	push	{r7, lr}
10000d1c:	2900      	cmp	r1, #0
10000d1e:	d007      	beq.n	10000d30 <ph_merge_two_pass+0x20>
10000d20:	004d      	lsls	r5, r1, #1
10000d22:	6803      	ldr	r3, [r0, #0]
10000d24:	186d      	adds	r5, r5, r1
10000d26:	3d03      	subs	r5, #3
10000d28:	195a      	adds	r2, r3, r5
10000d2a:	7857      	ldrb	r7, [r2, #1]
10000d2c:	2f00      	cmp	r7, #0
10000d2e:	d104      	bne.n	10000d3a <ph_merge_two_pass+0x2a>
10000d30:	0020      	movs	r0, r4
10000d32:	bc0c      	pop	{r2, r3}
10000d34:	4690      	mov	r8, r2
10000d36:	4699      	mov	r9, r3
10000d38:	bdf8      	pop	{r3, r4, r5, r6, r7, pc}
10000d3a:	0079      	lsls	r1, r7, #1
10000d3c:	19c9      	adds	r1, r1, r7
10000d3e:	3903      	subs	r1, #3
10000d40:	4688      	mov	r8, r1
10000d42:	4443      	add	r3, r8
10000d44:	7859      	ldrb	r1, [r3, #1]
10000d46:	4689      	mov	r9, r1
10000d48:	2100      	movs	r1, #0
10000d4a:	7059      	strb	r1, [r3, #1]
10000d4c:	7051      	strb	r1, [r2, #1]
10000d4e:	6873      	ldr	r3, [r6, #4]
10000d50:	003a      	movs	r2, r7
10000d52:	0021      	movs	r1, r4
10000d54:	6880      	ldr	r0, [r0, #8]
10000d56:	4798      	blx	r3
10000d58:	6833      	ldr	r3, [r6, #0]
10000d5a:	2800      	cmp	r0, #0
10000d5c:	d014      	beq.n	10000d88 <ph_merge_two_pass+0x78>
10000d5e:	4642      	mov	r2, r8
10000d60:	189a      	adds	r2, r3, r2
10000d62:	7094      	strb	r4, [r2, #2]
10000d64:	1959      	adds	r1, r3, r5
10000d66:	5d5b      	ldrb	r3, [r3, r5]
10000d68:	2b00      	cmp	r3, #0
10000d6a:	d000      	beq.n	10000d6e <ph_merge_two_pass+0x5e>
10000d6c:	7053      	strb	r3, [r2, #1]
10000d6e:	700f      	strb	r7, [r1, #0]
10000d70:	0027      	movs	r7, r4
10000d72:	4649      	mov	r1, r9
10000d74:	0030      	movs	r0, r6
10000d76:	f7ff ffcb 	bl	10000d10 <ph_merge_two_pass>
10000d7a:	0039      	movs	r1, r7
10000d7c:	0002      	movs	r2, r0
10000d7e:	0030      	movs	r0, r6
10000d80:	f7ff ff60 	bl	10000c44 <ph_merge_nodes>
10000d84:	0004      	movs	r4, r0
10000d86:	e7d3      	b.n	10000d30 <ph_merge_two_pass+0x20>
10000d88:	4642      	mov	r2, r8
10000d8a:	4641      	mov	r1, r8
10000d8c:	195d      	adds	r5, r3, r5
10000d8e:	70af      	strb	r7, [r5, #2]
10000d90:	189a      	adds	r2, r3, r2
10000d92:	5c5b      	ldrb	r3, [r3, r1]
10000d94:	2b00      	cmp	r3, #0
10000d96:	d000      	beq.n	10000d9a <ph_merge_two_pass+0x8a>
10000d98:	706b      	strb	r3, [r5, #1]
10000d9a:	7014      	strb	r4, [r2, #0]
10000d9c:	e7e9      	b.n	10000d72 <ph_merge_two_pass+0x62>
10000d9e:	46c0      	nop			; (mov r8, r8)

10000da0 <ph_remove_any_head>:
10000da0:	b5f0      	push	{r4, r5, r6, r7, lr}
10000da2:	4657      	mov	r7, sl
10000da4:	4645      	mov	r5, r8
10000da6:	46de      	mov	lr, fp
10000da8:	464e      	mov	r6, r9
10000daa:	b5e0      	push	{r5, r6, r7, lr}
10000dac:	000d      	movs	r5, r1
10000dae:	006b      	lsls	r3, r5, #1
10000db0:	6801      	ldr	r1, [r0, #0]
10000db2:	195b      	adds	r3, r3, r5
10000db4:	1edf      	subs	r7, r3, #3
10000db6:	0004      	movs	r4, r0
10000db8:	5dc8      	ldrb	r0, [r1, r7]
10000dba:	b083      	sub	sp, #12
10000dbc:	9201      	str	r2, [sp, #4]
10000dbe:	19ca      	adds	r2, r1, r7
10000dc0:	2800      	cmp	r0, #0
10000dc2:	d04c      	beq.n	10000e5e <ph_remove_any_head+0xbe>
10000dc4:	0043      	lsls	r3, r0, #1
10000dc6:	181b      	adds	r3, r3, r0
10000dc8:	3b03      	subs	r3, #3
10000dca:	18cb      	adds	r3, r1, r3
10000dcc:	785e      	ldrb	r6, [r3, #1]
10000dce:	46b4      	mov	ip, r6
10000dd0:	2e00      	cmp	r6, #0
10000dd2:	d116      	bne.n	10000e02 <ph_remove_any_head+0x62>
10000dd4:	9e01      	ldr	r6, [sp, #4]
10000dd6:	2e00      	cmp	r6, #0
10000dd8:	d13e      	bne.n	10000e58 <ph_remove_any_head+0xb8>
10000dda:	7be6      	ldrb	r6, [r4, #15]
10000ddc:	2e00      	cmp	r6, #0
10000dde:	d004      	beq.n	10000dea <ph_remove_any_head+0x4a>
10000de0:	0073      	lsls	r3, r6, #1
10000de2:	199b      	adds	r3, r3, r6
10000de4:	18cb      	adds	r3, r1, r3
10000de6:	3b03      	subs	r3, #3
10000de8:	705d      	strb	r5, [r3, #1]
10000dea:	73e5      	strb	r5, [r4, #15]
10000dec:	2800      	cmp	r0, #0
10000dee:	d12f      	bne.n	10000e50 <ph_remove_any_head+0xb0>
10000df0:	2300      	movs	r3, #0
10000df2:	7053      	strb	r3, [r2, #1]
10000df4:	b003      	add	sp, #12
10000df6:	bc3c      	pop	{r2, r3, r4, r5}
10000df8:	4690      	mov	r8, r2
10000dfa:	4699      	mov	r9, r3
10000dfc:	46a2      	mov	sl, r4
10000dfe:	46ab      	mov	fp, r5
10000e00:	bdf0      	pop	{r4, r5, r6, r7, pc}
10000e02:	0072      	lsls	r2, r6, #1
10000e04:	4462      	add	r2, ip
10000e06:	3a03      	subs	r2, #3
10000e08:	1889      	adds	r1, r1, r2
10000e0a:	784a      	ldrb	r2, [r1, #1]
10000e0c:	4690      	mov	r8, r2
10000e0e:	2200      	movs	r2, #0
10000e10:	704a      	strb	r2, [r1, #1]
10000e12:	4691      	mov	r9, r2
10000e14:	705a      	strb	r2, [r3, #1]
10000e16:	0001      	movs	r1, r0
10000e18:	0032      	movs	r2, r6
10000e1a:	0020      	movs	r0, r4
10000e1c:	f7ff ff12 	bl	10000c44 <ph_merge_nodes>
10000e20:	4643      	mov	r3, r8
10000e22:	4682      	mov	sl, r0
10000e24:	2b00      	cmp	r3, #0
10000e26:	d007      	beq.n	10000e38 <ph_remove_any_head+0x98>
10000e28:	005b      	lsls	r3, r3, #1
10000e2a:	6821      	ldr	r1, [r4, #0]
10000e2c:	4443      	add	r3, r8
10000e2e:	3b03      	subs	r3, #3
10000e30:	18cb      	adds	r3, r1, r3
10000e32:	785a      	ldrb	r2, [r3, #1]
10000e34:	2a00      	cmp	r2, #0
10000e36:	d116      	bne.n	10000e66 <ph_remove_any_head+0xc6>
10000e38:	4642      	mov	r2, r8
10000e3a:	4651      	mov	r1, sl
10000e3c:	0020      	movs	r0, r4
10000e3e:	f7ff ff01 	bl	10000c44 <ph_merge_nodes>
10000e42:	6821      	ldr	r1, [r4, #0]
10000e44:	9b01      	ldr	r3, [sp, #4]
10000e46:	19ca      	adds	r2, r1, r7
10000e48:	2b00      	cmp	r3, #0
10000e4a:	d0c6      	beq.n	10000dda <ph_remove_any_head+0x3a>
10000e4c:	2800      	cmp	r0, #0
10000e4e:	d0cf      	beq.n	10000df0 <ph_remove_any_head+0x50>
10000e50:	0043      	lsls	r3, r0, #1
10000e52:	181b      	adds	r3, r3, r0
10000e54:	3b03      	subs	r3, #3
10000e56:	18cb      	adds	r3, r1, r3
10000e58:	2100      	movs	r1, #0
10000e5a:	7099      	strb	r1, [r3, #2]
10000e5c:	e7c8      	b.n	10000df0 <ph_remove_any_head+0x50>
10000e5e:	9b01      	ldr	r3, [sp, #4]
10000e60:	2b00      	cmp	r3, #0
10000e62:	d1c5      	bne.n	10000df0 <ph_remove_any_head+0x50>
10000e64:	e7b9      	b.n	10000dda <ph_remove_any_head+0x3a>
10000e66:	0050      	lsls	r0, r2, #1
10000e68:	1880      	adds	r0, r0, r2
10000e6a:	3803      	subs	r0, #3
10000e6c:	1809      	adds	r1, r1, r0
10000e6e:	7848      	ldrb	r0, [r1, #1]
10000e70:	4683      	mov	fp, r0
10000e72:	4648      	mov	r0, r9
10000e74:	7048      	strb	r0, [r1, #1]
10000e76:	7058      	strb	r0, [r3, #1]
10000e78:	4641      	mov	r1, r8
10000e7a:	0020      	movs	r0, r4
10000e7c:	f7ff fee2 	bl	10000c44 <ph_merge_nodes>
10000e80:	4659      	mov	r1, fp
10000e82:	4680      	mov	r8, r0
10000e84:	0020      	movs	r0, r4
10000e86:	f7ff ff43 	bl	10000d10 <ph_merge_two_pass>
10000e8a:	4641      	mov	r1, r8
10000e8c:	0002      	movs	r2, r0
10000e8e:	0020      	movs	r0, r4
10000e90:	f7ff fed8 	bl	10000c44 <ph_merge_nodes>
10000e94:	4680      	mov	r8, r0
10000e96:	e7cf      	b.n	10000e38 <ph_remove_any_head+0x98>

10000e98 <ph_remove_head_reserve>:
10000e98:	b5f0      	push	{r4, r5, r6, r7, lr}
10000e9a:	464e      	mov	r6, r9
10000e9c:	4645      	mov	r5, r8
10000e9e:	46de      	mov	lr, fp
10000ea0:	4657      	mov	r7, sl
10000ea2:	b5e0      	push	{r5, r6, r7, lr}
10000ea4:	7b46      	ldrb	r6, [r0, #13]
10000ea6:	0004      	movs	r4, r0
10000ea8:	0075      	lsls	r5, r6, #1
10000eaa:	6800      	ldr	r0, [r0, #0]
10000eac:	19ad      	adds	r5, r5, r6
10000eae:	3d03      	subs	r5, #3
10000eb0:	b083      	sub	sp, #12
10000eb2:	9101      	str	r1, [sp, #4]
10000eb4:	5d41      	ldrb	r1, [r0, r5]
10000eb6:	1942      	adds	r2, r0, r5
10000eb8:	2900      	cmp	r1, #0
10000eba:	d04e      	beq.n	10000f5a <ph_remove_head_reserve+0xc2>
10000ebc:	004b      	lsls	r3, r1, #1
10000ebe:	185b      	adds	r3, r3, r1
10000ec0:	3b03      	subs	r3, #3
10000ec2:	18c3      	adds	r3, r0, r3
10000ec4:	785f      	ldrb	r7, [r3, #1]
10000ec6:	46bc      	mov	ip, r7
10000ec8:	2f00      	cmp	r7, #0
10000eca:	d118      	bne.n	10000efe <ph_remove_head_reserve+0x66>
10000ecc:	9d01      	ldr	r5, [sp, #4]
10000ece:	2d00      	cmp	r5, #0
10000ed0:	d140      	bne.n	10000f54 <ph_remove_head_reserve+0xbc>
10000ed2:	7be5      	ldrb	r5, [r4, #15]
10000ed4:	2d00      	cmp	r5, #0
10000ed6:	d004      	beq.n	10000ee2 <ph_remove_head_reserve+0x4a>
10000ed8:	006b      	lsls	r3, r5, #1
10000eda:	195b      	adds	r3, r3, r5
10000edc:	18c3      	adds	r3, r0, r3
10000ede:	3b03      	subs	r3, #3
10000ee0:	705e      	strb	r6, [r3, #1]
10000ee2:	73e6      	strb	r6, [r4, #15]
10000ee4:	2900      	cmp	r1, #0
10000ee6:	d131      	bne.n	10000f4c <ph_remove_head_reserve+0xb4>
10000ee8:	2300      	movs	r3, #0
10000eea:	0030      	movs	r0, r6
10000eec:	7053      	strb	r3, [r2, #1]
10000eee:	7361      	strb	r1, [r4, #13]
10000ef0:	b003      	add	sp, #12
10000ef2:	bc3c      	pop	{r2, r3, r4, r5}
10000ef4:	4690      	mov	r8, r2
10000ef6:	4699      	mov	r9, r3
10000ef8:	46a2      	mov	sl, r4
10000efa:	46ab      	mov	fp, r5
10000efc:	bdf0      	pop	{r4, r5, r6, r7, pc}
10000efe:	007a      	lsls	r2, r7, #1
10000f00:	4462      	add	r2, ip
10000f02:	3a03      	subs	r2, #3
10000f04:	1880      	adds	r0, r0, r2
10000f06:	7842      	ldrb	r2, [r0, #1]
10000f08:	4693      	mov	fp, r2
10000f0a:	2200      	movs	r2, #0
10000f0c:	7042      	strb	r2, [r0, #1]
10000f0e:	4691      	mov	r9, r2
10000f10:	705a      	strb	r2, [r3, #1]
10000f12:	0020      	movs	r0, r4
10000f14:	003a      	movs	r2, r7
10000f16:	f7ff fe95 	bl	10000c44 <ph_merge_nodes>
10000f1a:	465b      	mov	r3, fp
10000f1c:	4680      	mov	r8, r0
10000f1e:	2b00      	cmp	r3, #0
10000f20:	d007      	beq.n	10000f32 <ph_remove_head_reserve+0x9a>
10000f22:	005b      	lsls	r3, r3, #1
10000f24:	6821      	ldr	r1, [r4, #0]
10000f26:	445b      	add	r3, fp
10000f28:	3b03      	subs	r3, #3
10000f2a:	18cb      	adds	r3, r1, r3
10000f2c:	785a      	ldrb	r2, [r3, #1]
10000f2e:	2a00      	cmp	r2, #0
10000f30:	d117      	bne.n	10000f62 <ph_remove_head_reserve+0xca>
10000f32:	465a      	mov	r2, fp
10000f34:	4641      	mov	r1, r8
10000f36:	0020      	movs	r0, r4
10000f38:	f7ff fe84 	bl	10000c44 <ph_merge_nodes>
10000f3c:	9b01      	ldr	r3, [sp, #4]
10000f3e:	0001      	movs	r1, r0
10000f40:	6820      	ldr	r0, [r4, #0]
10000f42:	1942      	adds	r2, r0, r5
10000f44:	2b00      	cmp	r3, #0
10000f46:	d0c4      	beq.n	10000ed2 <ph_remove_head_reserve+0x3a>
10000f48:	2900      	cmp	r1, #0
10000f4a:	d0cd      	beq.n	10000ee8 <ph_remove_head_reserve+0x50>
10000f4c:	004b      	lsls	r3, r1, #1
10000f4e:	185b      	adds	r3, r3, r1
10000f50:	3b03      	subs	r3, #3
10000f52:	18c3      	adds	r3, r0, r3
10000f54:	2000      	movs	r0, #0
10000f56:	7098      	strb	r0, [r3, #2]
10000f58:	e7c6      	b.n	10000ee8 <ph_remove_head_reserve+0x50>
10000f5a:	9b01      	ldr	r3, [sp, #4]
10000f5c:	2b00      	cmp	r3, #0
10000f5e:	d1c3      	bne.n	10000ee8 <ph_remove_head_reserve+0x50>
10000f60:	e7b7      	b.n	10000ed2 <ph_remove_head_reserve+0x3a>
10000f62:	0050      	lsls	r0, r2, #1
10000f64:	1880      	adds	r0, r0, r2
10000f66:	3803      	subs	r0, #3
10000f68:	1809      	adds	r1, r1, r0
10000f6a:	7848      	ldrb	r0, [r1, #1]
10000f6c:	4682      	mov	sl, r0
10000f6e:	4648      	mov	r0, r9
10000f70:	7048      	strb	r0, [r1, #1]
10000f72:	7058      	strb	r0, [r3, #1]
10000f74:	4659      	mov	r1, fp
10000f76:	0020      	movs	r0, r4
10000f78:	f7ff fe64 	bl	10000c44 <ph_merge_nodes>
10000f7c:	4653      	mov	r3, sl
10000f7e:	4683      	mov	fp, r0
10000f80:	2b00      	cmp	r3, #0
10000f82:	d007      	beq.n	10000f94 <ph_remove_head_reserve+0xfc>
10000f84:	005b      	lsls	r3, r3, #1
10000f86:	6821      	ldr	r1, [r4, #0]
10000f88:	4453      	add	r3, sl
10000f8a:	3b03      	subs	r3, #3
10000f8c:	18cb      	adds	r3, r1, r3
10000f8e:	785a      	ldrb	r2, [r3, #1]
10000f90:	2a00      	cmp	r2, #0
10000f92:	d106      	bne.n	10000fa2 <ph_remove_head_reserve+0x10a>
10000f94:	4659      	mov	r1, fp
10000f96:	4652      	mov	r2, sl
10000f98:	0020      	movs	r0, r4
10000f9a:	f7ff fe53 	bl	10000c44 <ph_merge_nodes>
10000f9e:	4683      	mov	fp, r0
10000fa0:	e7c7      	b.n	10000f32 <ph_remove_head_reserve+0x9a>
10000fa2:	0050      	lsls	r0, r2, #1
10000fa4:	1880      	adds	r0, r0, r2
10000fa6:	3803      	subs	r0, #3
10000fa8:	1809      	adds	r1, r1, r0
10000faa:	4648      	mov	r0, r9
10000fac:	784f      	ldrb	r7, [r1, #1]
10000fae:	7048      	strb	r0, [r1, #1]
10000fb0:	7058      	strb	r0, [r3, #1]
10000fb2:	4651      	mov	r1, sl
10000fb4:	0020      	movs	r0, r4
10000fb6:	f7ff fe45 	bl	10000c44 <ph_merge_nodes>
10000fba:	0039      	movs	r1, r7
10000fbc:	4681      	mov	r9, r0
10000fbe:	0020      	movs	r0, r4
10000fc0:	f7ff fea6 	bl	10000d10 <ph_merge_two_pass>
10000fc4:	4649      	mov	r1, r9
10000fc6:	0002      	movs	r2, r0
10000fc8:	0020      	movs	r0, r4
10000fca:	f7ff fe3b 	bl	10000c44 <ph_merge_nodes>
10000fce:	4682      	mov	sl, r0
10000fd0:	e7e0      	b.n	10000f94 <ph_remove_head_reserve+0xfc>
10000fd2:	46c0      	nop			; (mov r8, r8)

10000fd4 <ph_delete>:
10000fd4:	b570      	push	{r4, r5, r6, lr}
10000fd6:	0004      	movs	r4, r0
10000fd8:	2900      	cmp	r1, #0
10000fda:	d02c      	beq.n	10001036 <ph_delete+0x62>
10000fdc:	7b43      	ldrb	r3, [r0, #13]
10000fde:	428b      	cmp	r3, r1
10000fe0:	d02e      	beq.n	10001040 <ph_delete+0x6c>
10000fe2:	6805      	ldr	r5, [r0, #0]
10000fe4:	0048      	lsls	r0, r1, #1
10000fe6:	1840      	adds	r0, r0, r1
10000fe8:	3803      	subs	r0, #3
10000fea:	1828      	adds	r0, r5, r0
10000fec:	7882      	ldrb	r2, [r0, #2]
10000fee:	2a00      	cmp	r2, #0
10000ff0:	d021      	beq.n	10001036 <ph_delete+0x62>
10000ff2:	0053      	lsls	r3, r2, #1
10000ff4:	189b      	adds	r3, r3, r2
10000ff6:	3b03      	subs	r3, #3
10000ff8:	5cea      	ldrb	r2, [r5, r3]
10000ffa:	18ee      	adds	r6, r5, r3
10000ffc:	428a      	cmp	r2, r1
10000ffe:	d102      	bne.n	10001006 <ph_delete+0x32>
10001000:	e01b      	b.n	1000103a <ph_delete+0x66>
10001002:	2a00      	cmp	r2, #0
10001004:	d008      	beq.n	10001018 <ph_delete+0x44>
10001006:	0053      	lsls	r3, r2, #1
10001008:	189b      	adds	r3, r3, r2
1000100a:	3b03      	subs	r3, #3
1000100c:	18eb      	adds	r3, r5, r3
1000100e:	785a      	ldrb	r2, [r3, #1]
10001010:	428a      	cmp	r2, r1
10001012:	d1f6      	bne.n	10001002 <ph_delete+0x2e>
10001014:	7842      	ldrb	r2, [r0, #1]
10001016:	705a      	strb	r2, [r3, #1]
10001018:	2300      	movs	r3, #0
1000101a:	2200      	movs	r2, #0
1000101c:	7083      	strb	r3, [r0, #2]
1000101e:	7043      	strb	r3, [r0, #1]
10001020:	0020      	movs	r0, r4
10001022:	f7ff febd 	bl	10000da0 <ph_remove_any_head>
10001026:	7b61      	ldrb	r1, [r4, #13]
10001028:	0002      	movs	r2, r0
1000102a:	0020      	movs	r0, r4
1000102c:	f7ff fe0a 	bl	10000c44 <ph_merge_nodes>
10001030:	7360      	strb	r0, [r4, #13]
10001032:	2001      	movs	r0, #1
10001034:	e000      	b.n	10001038 <ph_delete+0x64>
10001036:	2000      	movs	r0, #0
10001038:	bd70      	pop	{r4, r5, r6, pc}
1000103a:	7843      	ldrb	r3, [r0, #1]
1000103c:	7033      	strb	r3, [r6, #0]
1000103e:	e7eb      	b.n	10001018 <ph_delete+0x44>
10001040:	2200      	movs	r2, #0
10001042:	0019      	movs	r1, r3
10001044:	f7ff feac 	bl	10000da0 <ph_remove_any_head>
10001048:	7360      	strb	r0, [r4, #13]
1000104a:	2001      	movs	r0, #1
1000104c:	e7f4      	b.n	10001038 <ph_delete+0x64>
1000104e:	46c0      	nop			; (mov r8, r8)

10001050 <runtime_init>:
10001050:	4b2b      	ldr	r3, [pc, #172]	; (10001100 <runtime_init+0xb0>)
10001052:	4a2c      	ldr	r2, [pc, #176]	; (10001104 <runtime_init+0xb4>)
10001054:	b570      	push	{r4, r5, r6, lr}
10001056:	601a      	str	r2, [r3, #0]
10001058:	4a2b      	ldr	r2, [pc, #172]	; (10001108 <runtime_init+0xb8>)
1000105a:	4b2c      	ldr	r3, [pc, #176]	; (1000110c <runtime_init+0xbc>)
1000105c:	492c      	ldr	r1, [pc, #176]	; (10001110 <runtime_init+0xc0>)
1000105e:	601a      	str	r2, [r3, #0]
10001060:	0010      	movs	r0, r2
10001062:	688b      	ldr	r3, [r1, #8]
10001064:	4398      	bics	r0, r3
10001066:	d1fb      	bne.n	10001060 <runtime_init+0x10>
10001068:	4c2a      	ldr	r4, [pc, #168]	; (10001114 <runtime_init+0xc4>)
1000106a:	4b2b      	ldr	r3, [pc, #172]	; (10001118 <runtime_init+0xc8>)
1000106c:	429c      	cmp	r4, r3
1000106e:	d209      	bcs.n	10001084 <runtime_init+0x34>
10001070:	3b01      	subs	r3, #1
10001072:	1b1d      	subs	r5, r3, r4
10001074:	08ad      	lsrs	r5, r5, #2
10001076:	3501      	adds	r5, #1
10001078:	00ad      	lsls	r5, r5, #2
1000107a:	192d      	adds	r5, r5, r4
1000107c:	cc08      	ldmia	r4!, {r3}
1000107e:	4798      	blx	r3
10001080:	42ac      	cmp	r4, r5
10001082:	d1fb      	bne.n	1000107c <runtime_init+0x2c>
10001084:	f000 f894 	bl	100011b0 <clocks_init>
10001088:	4a24      	ldr	r2, [pc, #144]	; (1000111c <runtime_init+0xcc>)
1000108a:	4b20      	ldr	r3, [pc, #128]	; (1000110c <runtime_init+0xbc>)
1000108c:	601a      	str	r2, [r3, #0]
1000108e:	4a20      	ldr	r2, [pc, #128]	; (10001110 <runtime_init+0xc0>)
10001090:	6893      	ldr	r3, [r2, #8]
10001092:	01db      	lsls	r3, r3, #7
10001094:	3380      	adds	r3, #128	; 0x80
10001096:	d1fb      	bne.n	10001090 <runtime_init+0x40>
10001098:	2240      	movs	r2, #64	; 0x40
1000109a:	4b21      	ldr	r3, [pc, #132]	; (10001120 <runtime_init+0xd0>)
1000109c:	4c21      	ldr	r4, [pc, #132]	; (10001124 <runtime_init+0xd4>)
1000109e:	679a      	str	r2, [r3, #120]	; 0x78
100010a0:	675a      	str	r2, [r3, #116]	; 0x74
100010a2:	671a      	str	r2, [r3, #112]	; 0x70
100010a4:	66da      	str	r2, [r3, #108]	; 0x6c
100010a6:	4b20      	ldr	r3, [pc, #128]	; (10001128 <runtime_init+0xd8>)
100010a8:	429c      	cmp	r4, r3
100010aa:	d20b      	bcs.n	100010c4 <runtime_init+0x74>
100010ac:	3b01      	subs	r3, #1
100010ae:	1b1d      	subs	r5, r3, r4
100010b0:	08ed      	lsrs	r5, r5, #3
100010b2:	3501      	adds	r5, #1
100010b4:	00ed      	lsls	r5, r5, #3
100010b6:	192d      	adds	r5, r5, r4
100010b8:	0020      	movs	r0, r4
100010ba:	3408      	adds	r4, #8
100010bc:	f7ff fdb6 	bl	10000c2c <mutex_init>
100010c0:	42ac      	cmp	r4, r5
100010c2:	d1f9      	bne.n	100010b8 <runtime_init+0x68>
100010c4:	4c19      	ldr	r4, [pc, #100]	; (1000112c <runtime_init+0xdc>)
100010c6:	4d1a      	ldr	r5, [pc, #104]	; (10001130 <runtime_init+0xe0>)
100010c8:	68a1      	ldr	r1, [r4, #8]
100010ca:	22c0      	movs	r2, #192	; 0xc0
100010cc:	0028      	movs	r0, r5
100010ce:	f002 fe65 	bl	10003d9c <__wrap___aeabi_memcpy>
100010d2:	60a5      	str	r5, [r4, #8]
100010d4:	f7ff f9fe 	bl	100004d4 <spin_locks_reset>
100010d8:	f000 fbaa 	bl	10001830 <irq_init_priorities>
100010dc:	f7ff fc28 	bl	10000930 <alarm_pool_init_default>
100010e0:	4c14      	ldr	r4, [pc, #80]	; (10001134 <runtime_init+0xe4>)
100010e2:	4b15      	ldr	r3, [pc, #84]	; (10001138 <runtime_init+0xe8>)
100010e4:	429c      	cmp	r4, r3
100010e6:	d209      	bcs.n	100010fc <runtime_init+0xac>
100010e8:	3b01      	subs	r3, #1
100010ea:	1b1d      	subs	r5, r3, r4
100010ec:	08ad      	lsrs	r5, r5, #2
100010ee:	3501      	adds	r5, #1
100010f0:	00ad      	lsls	r5, r5, #2
100010f2:	192d      	adds	r5, r5, r4
100010f4:	cc08      	ldmia	r4!, {r3}
100010f6:	4798      	blx	r3
100010f8:	42a5      	cmp	r5, r4
100010fa:	d1fb      	bne.n	100010f4 <runtime_init+0xa4>
100010fc:	bd70      	pop	{r4, r5, r6, pc}
100010fe:	46c0      	nop			; (mov r8, r8)
10001100:	4000e000 	.word	0x4000e000
10001104:	ffffcdbf 	.word	0xffffcdbf
10001108:	003c7ffe 	.word	0x003c7ffe
1000110c:	4000f000 	.word	0x4000f000
10001110:	4000c000 	.word	0x4000c000
10001114:	20000b38 	.word	0x20000b38
10001118:	20000b48 	.word	0x20000b48
1000111c:	01ffffff 	.word	0x01ffffff
10001120:	4001f000 	.word	0x4001f000
10001124:	20000b30 	.word	0x20000b30
10001128:	20000b38 	.word	0x20000b38
1000112c:	e000ed00 	.word	0xe000ed00
10001130:	20000000 	.word	0x20000000
10001134:	20000b48 	.word	0x20000b48
10001138:	20000b4c 	.word	0x20000b4c

1000113c <_sbrk>:
1000113c:	4a09      	ldr	r2, [pc, #36]	; (10001164 <_sbrk+0x28>)
1000113e:	0003      	movs	r3, r0
10001140:	6810      	ldr	r0, [r2, #0]
10001142:	2800      	cmp	r0, #0
10001144:	d005      	beq.n	10001152 <_sbrk+0x16>
10001146:	4908      	ldr	r1, [pc, #32]	; (10001168 <_sbrk+0x2c>)
10001148:	18c3      	adds	r3, r0, r3
1000114a:	428b      	cmp	r3, r1
1000114c:	d207      	bcs.n	1000115e <_sbrk+0x22>
1000114e:	6013      	str	r3, [r2, #0]
10001150:	4770      	bx	lr
10001152:	4806      	ldr	r0, [pc, #24]	; (1000116c <_sbrk+0x30>)
10001154:	4904      	ldr	r1, [pc, #16]	; (10001168 <_sbrk+0x2c>)
10001156:	18c3      	adds	r3, r0, r3
10001158:	6010      	str	r0, [r2, #0]
1000115a:	428b      	cmp	r3, r1
1000115c:	d3f7      	bcc.n	1000114e <_sbrk+0x12>
1000115e:	2001      	movs	r0, #1
10001160:	4240      	negs	r0, r0
10001162:	e7f5      	b.n	10001150 <_sbrk+0x14>
10001164:	20000be0 	.word	0x20000be0
10001168:	20040000 	.word	0x20040000
1000116c:	20000e3c 	.word	0x20000e3c

10001170 <exit>:
10001170:	be00      	bkpt	0x0000
10001172:	e7fd      	b.n	10001170 <exit>

10001174 <panic>:
10001174:	b40f      	push	{r0, r1, r2, r3}
10001176:	b500      	push	{lr}
10001178:	4808      	ldr	r0, [pc, #32]	; (1000119c <panic+0x28>)
1000117a:	b083      	sub	sp, #12
1000117c:	f002 ff20 	bl	10003fc0 <__wrap_puts>
10001180:	9b04      	ldr	r3, [sp, #16]
10001182:	2b00      	cmp	r3, #0
10001184:	d007      	beq.n	10001196 <panic+0x22>
10001186:	a905      	add	r1, sp, #20
10001188:	0018      	movs	r0, r3
1000118a:	9101      	str	r1, [sp, #4]
1000118c:	f001 fe78 	bl	10002e80 <weak_raw_vprintf>
10001190:	4803      	ldr	r0, [pc, #12]	; (100011a0 <panic+0x2c>)
10001192:	f002 ff15 	bl	10003fc0 <__wrap_puts>
10001196:	be00      	bkpt	0x0000
10001198:	e7fd      	b.n	10001196 <panic+0x22>
1000119a:	46c0      	nop			; (mov r8, r8)
1000119c:	10004d4c 	.word	0x10004d4c
100011a0:	10004d5c 	.word	0x10004d5c

100011a4 <hard_assertion_failure>:
100011a4:	b510      	push	{r4, lr}
100011a6:	4801      	ldr	r0, [pc, #4]	; (100011ac <hard_assertion_failure+0x8>)
100011a8:	f7ff ffe4 	bl	10001174 <panic>
100011ac:	10004d60 	.word	0x10004d60

100011b0 <clocks_init>:
100011b0:	b530      	push	{r4, r5, lr}
100011b2:	200c      	movs	r0, #12
100011b4:	b083      	sub	sp, #12
100011b6:	f000 f971 	bl	1000149c <watchdog_start_tick>
100011ba:	f7ff f9a5 	bl	10000508 <running_on_fpga>
100011be:	2800      	cmp	r0, #0
100011c0:	d00e      	beq.n	100011e0 <clocks_init+0x30>
100011c2:	4b9a      	ldr	r3, [pc, #616]	; (1000142c <clocks_init+0x27c>)
100011c4:	4a9a      	ldr	r2, [pc, #616]	; (10001430 <clocks_init+0x280>)
100011c6:	601a      	str	r2, [r3, #0]
100011c8:	605a      	str	r2, [r3, #4]
100011ca:	609a      	str	r2, [r3, #8]
100011cc:	60da      	str	r2, [r3, #12]
100011ce:	611a      	str	r2, [r3, #16]
100011d0:	615a      	str	r2, [r3, #20]
100011d2:	619a      	str	r2, [r3, #24]
100011d4:	61da      	str	r2, [r3, #28]
100011d6:	621a      	str	r2, [r3, #32]
100011d8:	4a96      	ldr	r2, [pc, #600]	; (10001434 <clocks_init+0x284>)
100011da:	625a      	str	r2, [r3, #36]	; 0x24
100011dc:	b003      	add	sp, #12
100011de:	bd30      	pop	{r4, r5, pc}
100011e0:	4c95      	ldr	r4, [pc, #596]	; (10001438 <clocks_init+0x288>)
100011e2:	67a0      	str	r0, [r4, #120]	; 0x78
100011e4:	f000 f962 	bl	100014ac <xosc_init>
100011e8:	2201      	movs	r2, #1
100011ea:	4b94      	ldr	r3, [pc, #592]	; (1000143c <clocks_init+0x28c>)
100011ec:	601a      	str	r2, [r3, #0]
100011ee:	6c63      	ldr	r3, [r4, #68]	; 0x44
100011f0:	2b01      	cmp	r3, #1
100011f2:	d1fc      	bne.n	100011ee <clocks_init+0x3e>
100011f4:	2203      	movs	r2, #3
100011f6:	4b92      	ldr	r3, [pc, #584]	; (10001440 <clocks_init+0x290>)
100011f8:	601a      	str	r2, [r3, #0]
100011fa:	4a8f      	ldr	r2, [pc, #572]	; (10001438 <clocks_init+0x288>)
100011fc:	6b93      	ldr	r3, [r2, #56]	; 0x38
100011fe:	2b01      	cmp	r3, #1
10001200:	d1fc      	bne.n	100011fc <clocks_init+0x4c>
10001202:	22c0      	movs	r2, #192	; 0xc0
10001204:	4b8f      	ldr	r3, [pc, #572]	; (10001444 <clocks_init+0x294>)
10001206:	0192      	lsls	r2, r2, #6
10001208:	601a      	str	r2, [r3, #0]
1000120a:	4b8f      	ldr	r3, [pc, #572]	; (10001448 <clocks_init+0x298>)
1000120c:	498f      	ldr	r1, [pc, #572]	; (1000144c <clocks_init+0x29c>)
1000120e:	601a      	str	r2, [r3, #0]
10001210:	0010      	movs	r0, r2
10001212:	688b      	ldr	r3, [r1, #8]
10001214:	4398      	bics	r0, r3
10001216:	1e03      	subs	r3, r0, #0
10001218:	d1fa      	bne.n	10001210 <clocks_init+0x60>
1000121a:	2402      	movs	r4, #2
1000121c:	2101      	movs	r1, #1
1000121e:	4a8c      	ldr	r2, [pc, #560]	; (10001450 <clocks_init+0x2a0>)
10001220:	488c      	ldr	r0, [pc, #560]	; (10001454 <clocks_init+0x2a4>)
10001222:	3306      	adds	r3, #6
10001224:	9400      	str	r4, [sp, #0]
10001226:	f000 f955 	bl	100014d4 <pll_init>
1000122a:	2305      	movs	r3, #5
1000122c:	4a8a      	ldr	r2, [pc, #552]	; (10001458 <clocks_init+0x2a8>)
1000122e:	2101      	movs	r1, #1
10001230:	488a      	ldr	r0, [pc, #552]	; (1000145c <clocks_init+0x2ac>)
10001232:	9400      	str	r4, [sp, #0]
10001234:	f000 f94e 	bl	100014d4 <pll_init>
10001238:	4b89      	ldr	r3, [pc, #548]	; (10001460 <clocks_init+0x2b0>)
1000123a:	685a      	ldr	r2, [r3, #4]
1000123c:	2aff      	cmp	r2, #255	; 0xff
1000123e:	d802      	bhi.n	10001246 <clocks_init+0x96>
10001240:	2280      	movs	r2, #128	; 0x80
10001242:	0052      	lsls	r2, r2, #1
10001244:	605a      	str	r2, [r3, #4]
10001246:	2280      	movs	r2, #128	; 0x80
10001248:	4c78      	ldr	r4, [pc, #480]	; (1000142c <clocks_init+0x27c>)
1000124a:	4b7d      	ldr	r3, [pc, #500]	; (10001440 <clocks_init+0x290>)
1000124c:	6921      	ldr	r1, [r4, #16]
1000124e:	0112      	lsls	r2, r2, #4
10001250:	4d83      	ldr	r5, [pc, #524]	; (10001460 <clocks_init+0x2b0>)
10001252:	601a      	str	r2, [r3, #0]
10001254:	2900      	cmp	r1, #0
10001256:	d005      	beq.n	10001264 <clocks_init+0xb4>
10001258:	6960      	ldr	r0, [r4, #20]
1000125a:	f001 fe8b 	bl	10002f74 <__wrap___aeabi_uidiv>
1000125e:	3001      	adds	r0, #1
10001260:	3801      	subs	r0, #1
10001262:	d1fd      	bne.n	10001260 <clocks_init+0xb0>
10001264:	21e0      	movs	r1, #224	; 0xe0
10001266:	4b7e      	ldr	r3, [pc, #504]	; (10001460 <clocks_init+0x2b0>)
10001268:	2002      	movs	r0, #2
1000126a:	681a      	ldr	r2, [r3, #0]
1000126c:	4011      	ands	r1, r2
1000126e:	2280      	movs	r2, #128	; 0x80
10001270:	0152      	lsls	r2, r2, #5
10001272:	432a      	orrs	r2, r5
10001274:	6011      	str	r1, [r2, #0]
10001276:	6819      	ldr	r1, [r3, #0]
10001278:	4048      	eors	r0, r1
1000127a:	2103      	movs	r1, #3
1000127c:	4001      	ands	r1, r0
1000127e:	6011      	str	r1, [r2, #0]
10001280:	2104      	movs	r1, #4
10001282:	689a      	ldr	r2, [r3, #8]
10001284:	4211      	tst	r1, r2
10001286:	d0fc      	beq.n	10001282 <clocks_init+0xd2>
10001288:	2280      	movs	r2, #128	; 0x80
1000128a:	2180      	movs	r1, #128	; 0x80
1000128c:	0192      	lsls	r2, r2, #6
1000128e:	432a      	orrs	r2, r5
10001290:	0109      	lsls	r1, r1, #4
10001292:	6011      	str	r1, [r2, #0]
10001294:	2280      	movs	r2, #128	; 0x80
10001296:	0052      	lsls	r2, r2, #1
10001298:	605a      	str	r2, [r3, #4]
1000129a:	4b72      	ldr	r3, [pc, #456]	; (10001464 <clocks_init+0x2b4>)
1000129c:	6123      	str	r3, [r4, #16]
1000129e:	4b72      	ldr	r3, [pc, #456]	; (10001468 <clocks_init+0x2b8>)
100012a0:	6859      	ldr	r1, [r3, #4]
100012a2:	29ff      	cmp	r1, #255	; 0xff
100012a4:	d800      	bhi.n	100012a8 <clocks_init+0xf8>
100012a6:	605a      	str	r2, [r3, #4]
100012a8:	2203      	movs	r2, #3
100012aa:	486f      	ldr	r0, [pc, #444]	; (10001468 <clocks_init+0x2b8>)
100012ac:	4b63      	ldr	r3, [pc, #396]	; (1000143c <clocks_init+0x28c>)
100012ae:	2101      	movs	r1, #1
100012b0:	601a      	str	r2, [r3, #0]
100012b2:	0002      	movs	r2, r0
100012b4:	6893      	ldr	r3, [r2, #8]
100012b6:	4219      	tst	r1, r3
100012b8:	d0fc      	beq.n	100012b4 <clocks_init+0x104>
100012ba:	25e0      	movs	r5, #224	; 0xe0
100012bc:	6813      	ldr	r3, [r2, #0]
100012be:	401d      	ands	r5, r3
100012c0:	2380      	movs	r3, #128	; 0x80
100012c2:	015b      	lsls	r3, r3, #5
100012c4:	4303      	orrs	r3, r0
100012c6:	601d      	str	r5, [r3, #0]
100012c8:	6812      	ldr	r2, [r2, #0]
100012ca:	404a      	eors	r2, r1
100012cc:	2103      	movs	r1, #3
100012ce:	4011      	ands	r1, r2
100012d0:	6019      	str	r1, [r3, #0]
100012d2:	2102      	movs	r1, #2
100012d4:	4a64      	ldr	r2, [pc, #400]	; (10001468 <clocks_init+0x2b8>)
100012d6:	6893      	ldr	r3, [r2, #8]
100012d8:	4219      	tst	r1, r3
100012da:	d0fc      	beq.n	100012d6 <clocks_init+0x126>
100012dc:	2380      	movs	r3, #128	; 0x80
100012de:	2180      	movs	r1, #128	; 0x80
100012e0:	019b      	lsls	r3, r3, #6
100012e2:	4303      	orrs	r3, r0
100012e4:	0109      	lsls	r1, r1, #4
100012e6:	6019      	str	r1, [r3, #0]
100012e8:	2180      	movs	r1, #128	; 0x80
100012ea:	4b60      	ldr	r3, [pc, #384]	; (1000146c <clocks_init+0x2bc>)
100012ec:	0049      	lsls	r1, r1, #1
100012ee:	6051      	str	r1, [r2, #4]
100012f0:	6163      	str	r3, [r4, #20]
100012f2:	4b5f      	ldr	r3, [pc, #380]	; (10001470 <clocks_init+0x2c0>)
100012f4:	685a      	ldr	r2, [r3, #4]
100012f6:	2aff      	cmp	r2, #255	; 0xff
100012f8:	d800      	bhi.n	100012fc <clocks_init+0x14c>
100012fa:	6059      	str	r1, [r3, #4]
100012fc:	2280      	movs	r2, #128	; 0x80
100012fe:	4b5d      	ldr	r3, [pc, #372]	; (10001474 <clocks_init+0x2c4>)
10001300:	69e1      	ldr	r1, [r4, #28]
10001302:	0112      	lsls	r2, r2, #4
10001304:	4d5a      	ldr	r5, [pc, #360]	; (10001470 <clocks_init+0x2c0>)
10001306:	601a      	str	r2, [r3, #0]
10001308:	2900      	cmp	r1, #0
1000130a:	d005      	beq.n	10001318 <clocks_init+0x168>
1000130c:	6960      	ldr	r0, [r4, #20]
1000130e:	f001 fe31 	bl	10002f74 <__wrap___aeabi_uidiv>
10001312:	3001      	adds	r0, #1
10001314:	3801      	subs	r0, #1
10001316:	d1fd      	bne.n	10001314 <clocks_init+0x164>
10001318:	22e0      	movs	r2, #224	; 0xe0
1000131a:	4955      	ldr	r1, [pc, #340]	; (10001470 <clocks_init+0x2c0>)
1000131c:	680b      	ldr	r3, [r1, #0]
1000131e:	401a      	ands	r2, r3
10001320:	2380      	movs	r3, #128	; 0x80
10001322:	015b      	lsls	r3, r3, #5
10001324:	432b      	orrs	r3, r5
10001326:	601a      	str	r2, [r3, #0]
10001328:	2380      	movs	r3, #128	; 0x80
1000132a:	2280      	movs	r2, #128	; 0x80
1000132c:	019b      	lsls	r3, r3, #6
1000132e:	432b      	orrs	r3, r5
10001330:	0112      	lsls	r2, r2, #4
10001332:	601a      	str	r2, [r3, #0]
10001334:	2280      	movs	r2, #128	; 0x80
10001336:	4b3e      	ldr	r3, [pc, #248]	; (10001430 <clocks_init+0x280>)
10001338:	0052      	lsls	r2, r2, #1
1000133a:	604a      	str	r2, [r1, #4]
1000133c:	61e3      	str	r3, [r4, #28]
1000133e:	4b4e      	ldr	r3, [pc, #312]	; (10001478 <clocks_init+0x2c8>)
10001340:	6859      	ldr	r1, [r3, #4]
10001342:	29ff      	cmp	r1, #255	; 0xff
10001344:	d800      	bhi.n	10001348 <clocks_init+0x198>
10001346:	605a      	str	r2, [r3, #4]
10001348:	2280      	movs	r2, #128	; 0x80
1000134a:	4b4c      	ldr	r3, [pc, #304]	; (1000147c <clocks_init+0x2cc>)
1000134c:	6a21      	ldr	r1, [r4, #32]
1000134e:	0112      	lsls	r2, r2, #4
10001350:	4d49      	ldr	r5, [pc, #292]	; (10001478 <clocks_init+0x2c8>)
10001352:	601a      	str	r2, [r3, #0]
10001354:	2900      	cmp	r1, #0
10001356:	d005      	beq.n	10001364 <clocks_init+0x1b4>
10001358:	6960      	ldr	r0, [r4, #20]
1000135a:	f001 fe0b 	bl	10002f74 <__wrap___aeabi_uidiv>
1000135e:	3001      	adds	r0, #1
10001360:	3801      	subs	r0, #1
10001362:	d1fd      	bne.n	10001360 <clocks_init+0x1b0>
10001364:	22e0      	movs	r2, #224	; 0xe0
10001366:	4944      	ldr	r1, [pc, #272]	; (10001478 <clocks_init+0x2c8>)
10001368:	680b      	ldr	r3, [r1, #0]
1000136a:	401a      	ands	r2, r3
1000136c:	2380      	movs	r3, #128	; 0x80
1000136e:	015b      	lsls	r3, r3, #5
10001370:	432b      	orrs	r3, r5
10001372:	601a      	str	r2, [r3, #0]
10001374:	2380      	movs	r3, #128	; 0x80
10001376:	2280      	movs	r2, #128	; 0x80
10001378:	019b      	lsls	r3, r3, #6
1000137a:	432b      	orrs	r3, r5
1000137c:	0112      	lsls	r2, r2, #4
1000137e:	601a      	str	r2, [r3, #0]
10001380:	2380      	movs	r3, #128	; 0x80
10001382:	2280      	movs	r2, #128	; 0x80
10001384:	005b      	lsls	r3, r3, #1
10001386:	604b      	str	r3, [r1, #4]
10001388:	4b29      	ldr	r3, [pc, #164]	; (10001430 <clocks_init+0x280>)
1000138a:	02d2      	lsls	r2, r2, #11
1000138c:	6223      	str	r3, [r4, #32]
1000138e:	4b3c      	ldr	r3, [pc, #240]	; (10001480 <clocks_init+0x2d0>)
10001390:	6859      	ldr	r1, [r3, #4]
10001392:	4291      	cmp	r1, r2
10001394:	d200      	bcs.n	10001398 <clocks_init+0x1e8>
10001396:	605a      	str	r2, [r3, #4]
10001398:	2280      	movs	r2, #128	; 0x80
1000139a:	4b3a      	ldr	r3, [pc, #232]	; (10001484 <clocks_init+0x2d4>)
1000139c:	6a61      	ldr	r1, [r4, #36]	; 0x24
1000139e:	0112      	lsls	r2, r2, #4
100013a0:	4d37      	ldr	r5, [pc, #220]	; (10001480 <clocks_init+0x2d0>)
100013a2:	601a      	str	r2, [r3, #0]
100013a4:	2900      	cmp	r1, #0
100013a6:	d005      	beq.n	100013b4 <clocks_init+0x204>
100013a8:	6960      	ldr	r0, [r4, #20]
100013aa:	f001 fde3 	bl	10002f74 <__wrap___aeabi_uidiv>
100013ae:	3001      	adds	r0, #1
100013b0:	3801      	subs	r0, #1
100013b2:	d1fd      	bne.n	100013b0 <clocks_init+0x200>
100013b4:	22e0      	movs	r2, #224	; 0xe0
100013b6:	4932      	ldr	r1, [pc, #200]	; (10001480 <clocks_init+0x2d0>)
100013b8:	680b      	ldr	r3, [r1, #0]
100013ba:	401a      	ands	r2, r3
100013bc:	2380      	movs	r3, #128	; 0x80
100013be:	015b      	lsls	r3, r3, #5
100013c0:	432b      	orrs	r3, r5
100013c2:	601a      	str	r2, [r3, #0]
100013c4:	2380      	movs	r3, #128	; 0x80
100013c6:	2280      	movs	r2, #128	; 0x80
100013c8:	019b      	lsls	r3, r3, #6
100013ca:	432b      	orrs	r3, r5
100013cc:	0112      	lsls	r2, r2, #4
100013ce:	601a      	str	r2, [r3, #0]
100013d0:	2380      	movs	r3, #128	; 0x80
100013d2:	02db      	lsls	r3, r3, #11
100013d4:	604b      	str	r3, [r1, #4]
100013d6:	4b17      	ldr	r3, [pc, #92]	; (10001434 <clocks_init+0x284>)
100013d8:	6263      	str	r3, [r4, #36]	; 0x24
100013da:	4b2b      	ldr	r3, [pc, #172]	; (10001488 <clocks_init+0x2d8>)
100013dc:	685a      	ldr	r2, [r3, #4]
100013de:	2aff      	cmp	r2, #255	; 0xff
100013e0:	d802      	bhi.n	100013e8 <clocks_init+0x238>
100013e2:	2280      	movs	r2, #128	; 0x80
100013e4:	0052      	lsls	r2, r2, #1
100013e6:	605a      	str	r2, [r3, #4]
100013e8:	2280      	movs	r2, #128	; 0x80
100013ea:	4b28      	ldr	r3, [pc, #160]	; (1000148c <clocks_init+0x2dc>)
100013ec:	69a1      	ldr	r1, [r4, #24]
100013ee:	0112      	lsls	r2, r2, #4
100013f0:	4d25      	ldr	r5, [pc, #148]	; (10001488 <clocks_init+0x2d8>)
100013f2:	601a      	str	r2, [r3, #0]
100013f4:	2900      	cmp	r1, #0
100013f6:	d005      	beq.n	10001404 <clocks_init+0x254>
100013f8:	6960      	ldr	r0, [r4, #20]
100013fa:	f001 fdbb 	bl	10002f74 <__wrap___aeabi_uidiv>
100013fe:	3001      	adds	r0, #1
10001400:	3801      	subs	r0, #1
10001402:	d1fd      	bne.n	10001400 <clocks_init+0x250>
10001404:	22e0      	movs	r2, #224	; 0xe0
10001406:	4920      	ldr	r1, [pc, #128]	; (10001488 <clocks_init+0x2d8>)
10001408:	680b      	ldr	r3, [r1, #0]
1000140a:	401a      	ands	r2, r3
1000140c:	2380      	movs	r3, #128	; 0x80
1000140e:	015b      	lsls	r3, r3, #5
10001410:	432b      	orrs	r3, r5
10001412:	601a      	str	r2, [r3, #0]
10001414:	2380      	movs	r3, #128	; 0x80
10001416:	2280      	movs	r2, #128	; 0x80
10001418:	019b      	lsls	r3, r3, #6
1000141a:	432b      	orrs	r3, r5
1000141c:	0112      	lsls	r2, r2, #4
1000141e:	601a      	str	r2, [r3, #0]
10001420:	2380      	movs	r3, #128	; 0x80
10001422:	005b      	lsls	r3, r3, #1
10001424:	604b      	str	r3, [r1, #4]
10001426:	4b11      	ldr	r3, [pc, #68]	; (1000146c <clocks_init+0x2bc>)
10001428:	61a3      	str	r3, [r4, #24]
1000142a:	e6d7      	b.n	100011dc <clocks_init+0x2c>
1000142c:	20000bac 	.word	0x20000bac
10001430:	02dc6c00 	.word	0x02dc6c00
10001434:	0000b71b 	.word	0x0000b71b
10001438:	40008000 	.word	0x40008000
1000143c:	4000b03c 	.word	0x4000b03c
10001440:	4000b030 	.word	0x4000b030
10001444:	4000e000 	.word	0x4000e000
10001448:	4000f000 	.word	0x4000f000
1000144c:	4000c000 	.word	0x4000c000
10001450:	59682f00 	.word	0x59682f00
10001454:	40028000 	.word	0x40028000
10001458:	1c9c3800 	.word	0x1c9c3800
1000145c:	4002c000 	.word	0x4002c000
10001460:	40008030 	.word	0x40008030
10001464:	00b71b00 	.word	0x00b71b00
10001468:	4000803c 	.word	0x4000803c
1000146c:	07735940 	.word	0x07735940
10001470:	40008054 	.word	0x40008054
10001474:	4000b054 	.word	0x4000b054
10001478:	40008060 	.word	0x40008060
1000147c:	4000b060 	.word	0x4000b060
10001480:	4000806c 	.word	0x4000806c
10001484:	4000b06c 	.word	0x4000b06c
10001488:	40008048 	.word	0x40008048
1000148c:	4000b048 	.word	0x4000b048

10001490 <clock_get_hz>:
10001490:	4b01      	ldr	r3, [pc, #4]	; (10001498 <clock_get_hz+0x8>)
10001492:	0080      	lsls	r0, r0, #2
10001494:	58c0      	ldr	r0, [r0, r3]
10001496:	4770      	bx	lr
10001498:	20000bac 	.word	0x20000bac

1000149c <watchdog_start_tick>:
1000149c:	2380      	movs	r3, #128	; 0x80
1000149e:	4a02      	ldr	r2, [pc, #8]	; (100014a8 <watchdog_start_tick+0xc>)
100014a0:	009b      	lsls	r3, r3, #2
100014a2:	4303      	orrs	r3, r0
100014a4:	62d3      	str	r3, [r2, #44]	; 0x2c
100014a6:	4770      	bx	lr
100014a8:	40058000 	.word	0x40058000

100014ac <xosc_init>:
100014ac:	23aa      	movs	r3, #170	; 0xaa
100014ae:	4a06      	ldr	r2, [pc, #24]	; (100014c8 <xosc_init+0x1c>)
100014b0:	011b      	lsls	r3, r3, #4
100014b2:	6013      	str	r3, [r2, #0]
100014b4:	232f      	movs	r3, #47	; 0x2f
100014b6:	4905      	ldr	r1, [pc, #20]	; (100014cc <xosc_init+0x20>)
100014b8:	60d3      	str	r3, [r2, #12]
100014ba:	4b05      	ldr	r3, [pc, #20]	; (100014d0 <xosc_init+0x24>)
100014bc:	6019      	str	r1, [r3, #0]
100014be:	6853      	ldr	r3, [r2, #4]
100014c0:	2b00      	cmp	r3, #0
100014c2:	dafc      	bge.n	100014be <xosc_init+0x12>
100014c4:	4770      	bx	lr
100014c6:	46c0      	nop			; (mov r8, r8)
100014c8:	40024000 	.word	0x40024000
100014cc:	00fab000 	.word	0x00fab000
100014d0:	40026000 	.word	0x40026000

100014d4 <pll_init>:
100014d4:	b5f8      	push	{r3, r4, r5, r6, r7, lr}
100014d6:	001d      	movs	r5, r3
100014d8:	ab06      	add	r3, sp, #24
100014da:	781e      	ldrb	r6, [r3, #0]
100014dc:	2301      	movs	r3, #1
100014de:	425b      	negs	r3, r3
100014e0:	6043      	str	r3, [r0, #4]
100014e2:	2300      	movs	r3, #0
100014e4:	0004      	movs	r4, r0
100014e6:	6083      	str	r3, [r0, #8]
100014e8:	6001      	str	r1, [r0, #0]
100014ea:	200c      	movs	r0, #12
100014ec:	0017      	movs	r7, r2
100014ee:	f001 fd41 	bl	10002f74 <__wrap___aeabi_uidiv>
100014f2:	0141      	lsls	r1, r0, #5
100014f4:	1a09      	subs	r1, r1, r0
100014f6:	018b      	lsls	r3, r1, #6
100014f8:	1a59      	subs	r1, r3, r1
100014fa:	00c9      	lsls	r1, r1, #3
100014fc:	1809      	adds	r1, r1, r0
100014fe:	0189      	lsls	r1, r1, #6
10001500:	0038      	movs	r0, r7
10001502:	f001 fd37 	bl	10002f74 <__wrap___aeabi_uidiv>
10001506:	21c0      	movs	r1, #192	; 0xc0
10001508:	1d23      	adds	r3, r4, #4
1000150a:	0189      	lsls	r1, r1, #6
1000150c:	4319      	orrs	r1, r3
1000150e:	2321      	movs	r3, #33	; 0x21
10001510:	60a0      	str	r0, [r4, #8]
10001512:	600b      	str	r3, [r1, #0]
10001514:	6822      	ldr	r2, [r4, #0]
10001516:	2a00      	cmp	r2, #0
10001518:	dafc      	bge.n	10001514 <pll_init+0x40>
1000151a:	2308      	movs	r3, #8
1000151c:	042d      	lsls	r5, r5, #16
1000151e:	0336      	lsls	r6, r6, #12
10001520:	432e      	orrs	r6, r5
10001522:	60e6      	str	r6, [r4, #12]
10001524:	600b      	str	r3, [r1, #0]
10001526:	bdf8      	pop	{r3, r4, r5, r6, r7, pc}

10001528 <irq_set_enabled>:
10001528:	2301      	movs	r3, #1
1000152a:	4083      	lsls	r3, r0
1000152c:	2900      	cmp	r1, #0
1000152e:	d004      	beq.n	1000153a <irq_set_enabled+0x12>
10001530:	4a03      	ldr	r2, [pc, #12]	; (10001540 <irq_set_enabled+0x18>)
10001532:	6013      	str	r3, [r2, #0]
10001534:	4a03      	ldr	r2, [pc, #12]	; (10001544 <irq_set_enabled+0x1c>)
10001536:	6013      	str	r3, [r2, #0]
10001538:	4770      	bx	lr
1000153a:	4a03      	ldr	r2, [pc, #12]	; (10001548 <irq_set_enabled+0x20>)
1000153c:	6013      	str	r3, [r2, #0]
1000153e:	e7fb      	b.n	10001538 <irq_set_enabled+0x10>
10001540:	e000e280 	.word	0xe000e280
10001544:	e000e100 	.word	0xe000e100
10001548:	e000e180 	.word	0xe000e180

1000154c <irq_get_vtable_handler>:
1000154c:	4b02      	ldr	r3, [pc, #8]	; (10001558 <irq_get_vtable_handler+0xc>)
1000154e:	3010      	adds	r0, #16
10001550:	689b      	ldr	r3, [r3, #8]
10001552:	0080      	lsls	r0, r0, #2
10001554:	58c0      	ldr	r0, [r0, r3]
10001556:	4770      	bx	lr
10001558:	e000ed00 	.word	0xe000ed00

1000155c <irq_set_exclusive_handler>:
1000155c:	b570      	push	{r4, r5, r6, lr}
1000155e:	000d      	movs	r5, r1
10001560:	f3ef 8610 	mrs	r6, PRIMASK
10001564:	b672      	cpsid	i
10001566:	4a0f      	ldr	r2, [pc, #60]	; (100015a4 <irq_set_exclusive_handler+0x48>)
10001568:	6813      	ldr	r3, [r2, #0]
1000156a:	2b00      	cmp	r3, #0
1000156c:	d0fc      	beq.n	10001568 <irq_set_exclusive_handler+0xc>
1000156e:	f3bf 8f5f 	dmb	sy
10001572:	4b0d      	ldr	r3, [pc, #52]	; (100015a8 <irq_set_exclusive_handler+0x4c>)
10001574:	3010      	adds	r0, #16
10001576:	689b      	ldr	r3, [r3, #8]
10001578:	0084      	lsls	r4, r0, #2
1000157a:	591b      	ldr	r3, [r3, r4]
1000157c:	4a0b      	ldr	r2, [pc, #44]	; (100015ac <irq_set_exclusive_handler+0x50>)
1000157e:	4293      	cmp	r3, r2
10001580:	d003      	beq.n	1000158a <irq_set_exclusive_handler+0x2e>
10001582:	429d      	cmp	r5, r3
10001584:	d001      	beq.n	1000158a <irq_set_exclusive_handler+0x2e>
10001586:	f7ff fe0d 	bl	100011a4 <hard_assertion_failure>
1000158a:	4b07      	ldr	r3, [pc, #28]	; (100015a8 <irq_set_exclusive_handler+0x4c>)
1000158c:	689b      	ldr	r3, [r3, #8]
1000158e:	511d      	str	r5, [r3, r4]
10001590:	f3bf 8f5f 	dmb	sy
10001594:	f3bf 8f5f 	dmb	sy
10001598:	2200      	movs	r2, #0
1000159a:	4b02      	ldr	r3, [pc, #8]	; (100015a4 <irq_set_exclusive_handler+0x48>)
1000159c:	601a      	str	r2, [r3, #0]
1000159e:	f386 8810 	msr	PRIMASK, r6
100015a2:	bd70      	pop	{r4, r5, r6, pc}
100015a4:	d0000124 	.word	0xd0000124
100015a8:	e000ed00 	.word	0xe000ed00
100015ac:	100002cd 	.word	0x100002cd

100015b0 <irq_remove_handler>:
100015b0:	b5f0      	push	{r4, r5, r6, r7, lr}
100015b2:	46de      	mov	lr, fp
100015b4:	4657      	mov	r7, sl
100015b6:	464e      	mov	r6, r9
100015b8:	4645      	mov	r5, r8
100015ba:	b5e0      	push	{r5, r6, r7, lr}
100015bc:	000c      	movs	r4, r1
100015be:	b083      	sub	sp, #12
100015c0:	f3ef 8a10 	mrs	sl, PRIMASK
100015c4:	b672      	cpsid	i
100015c6:	4a5f      	ldr	r2, [pc, #380]	; (10001744 <irq_remove_handler+0x194>)
100015c8:	6813      	ldr	r3, [r2, #0]
100015ca:	2b00      	cmp	r3, #0
100015cc:	d0fc      	beq.n	100015c8 <irq_remove_handler+0x18>
100015ce:	f3bf 8f5f 	dmb	sy
100015d2:	2210      	movs	r2, #16
100015d4:	4691      	mov	r9, r2
100015d6:	4481      	add	r9, r0
100015d8:	464a      	mov	r2, r9
100015da:	4b5b      	ldr	r3, [pc, #364]	; (10001748 <irq_remove_handler+0x198>)
100015dc:	0096      	lsls	r6, r2, #2
100015de:	689b      	ldr	r3, [r3, #8]
100015e0:	599d      	ldr	r5, [r3, r6]
100015e2:	4b5a      	ldr	r3, [pc, #360]	; (1000174c <irq_remove_handler+0x19c>)
100015e4:	4698      	mov	r8, r3
100015e6:	429d      	cmp	r5, r3
100015e8:	d005      	beq.n	100015f6 <irq_remove_handler+0x46>
100015ea:	42a5      	cmp	r5, r4
100015ec:	d016      	beq.n	1000161c <irq_remove_handler+0x6c>
100015ee:	4f58      	ldr	r7, [pc, #352]	; (10001750 <irq_remove_handler+0x1a0>)
100015f0:	1beb      	subs	r3, r5, r7
100015f2:	2b2f      	cmp	r3, #47	; 0x2f
100015f4:	d914      	bls.n	10001620 <irq_remove_handler+0x70>
100015f6:	4b54      	ldr	r3, [pc, #336]	; (10001748 <irq_remove_handler+0x198>)
100015f8:	689b      	ldr	r3, [r3, #8]
100015fa:	519d      	str	r5, [r3, r6]
100015fc:	f3bf 8f5f 	dmb	sy
10001600:	f3bf 8f5f 	dmb	sy
10001604:	2200      	movs	r2, #0
10001606:	4b4f      	ldr	r3, [pc, #316]	; (10001744 <irq_remove_handler+0x194>)
10001608:	601a      	str	r2, [r3, #0]
1000160a:	f38a 8810 	msr	PRIMASK, sl
1000160e:	b003      	add	sp, #12
10001610:	bc3c      	pop	{r2, r3, r4, r5}
10001612:	4690      	mov	r8, r2
10001614:	4699      	mov	r9, r3
10001616:	46a2      	mov	sl, r4
10001618:	46ab      	mov	fp, r5
1000161a:	bdf0      	pop	{r4, r5, r6, r7, pc}
1000161c:	001d      	movs	r5, r3
1000161e:	e7ea      	b.n	100015f6 <irq_remove_handler+0x46>
10001620:	2301      	movs	r3, #1
10001622:	4083      	lsls	r3, r0
10001624:	469b      	mov	fp, r3
10001626:	465a      	mov	r2, fp
10001628:	4b4a      	ldr	r3, [pc, #296]	; (10001754 <irq_remove_handler+0x1a4>)
1000162a:	681b      	ldr	r3, [r3, #0]
1000162c:	401a      	ands	r2, r3
1000162e:	9200      	str	r2, [sp, #0]
10001630:	465a      	mov	r2, fp
10001632:	4b49      	ldr	r3, [pc, #292]	; (10001758 <irq_remove_handler+0x1a8>)
10001634:	601a      	str	r2, [r3, #0]
10001636:	f3bf 8f5f 	dmb	sy
1000163a:	f7fe fdac 	bl	10000196 <__get_current_exception>
1000163e:	9001      	str	r0, [sp, #4]
10001640:	2800      	cmp	r0, #0
10001642:	d003      	beq.n	1000164c <irq_remove_handler+0x9c>
10001644:	4581      	cmp	r9, r0
10001646:	d001      	beq.n	1000164c <irq_remove_handler+0x9c>
10001648:	f7ff fdac 	bl	100011a4 <hard_assertion_failure>
1000164c:	2301      	movs	r3, #1
1000164e:	0029      	movs	r1, r5
10001650:	4399      	bics	r1, r3
10001652:	688b      	ldr	r3, [r1, #8]
10001654:	42a3      	cmp	r3, r4
10001656:	d069      	beq.n	1000172c <irq_remove_handler+0x17c>
10001658:	000a      	movs	r2, r1
1000165a:	e007      	b.n	1000166c <irq_remove_handler+0xbc>
1000165c:	0043      	lsls	r3, r0, #1
1000165e:	181b      	adds	r3, r3, r0
10001660:	009b      	lsls	r3, r3, #2
10001662:	18fb      	adds	r3, r7, r3
10001664:	6898      	ldr	r0, [r3, #8]
10001666:	42a0      	cmp	r0, r4
10001668:	d011      	beq.n	1000168e <irq_remove_handler+0xde>
1000166a:	001a      	movs	r2, r3
1000166c:	2006      	movs	r0, #6
1000166e:	5610      	ldrsb	r0, [r2, r0]
10001670:	2800      	cmp	r0, #0
10001672:	daf3      	bge.n	1000165c <irq_remove_handler+0xac>
10001674:	9b00      	ldr	r3, [sp, #0]
10001676:	2b00      	cmp	r3, #0
10001678:	d005      	beq.n	10001686 <irq_remove_handler+0xd6>
1000167a:	465a      	mov	r2, fp
1000167c:	4b37      	ldr	r3, [pc, #220]	; (1000175c <irq_remove_handler+0x1ac>)
1000167e:	601a      	str	r2, [r3, #0]
10001680:	4b34      	ldr	r3, [pc, #208]	; (10001754 <irq_remove_handler+0x1a4>)
10001682:	601a      	str	r2, [r3, #0]
10001684:	e7b7      	b.n	100015f6 <irq_remove_handler+0x46>
10001686:	465a      	mov	r2, fp
10001688:	4b33      	ldr	r3, [pc, #204]	; (10001758 <irq_remove_handler+0x1a8>)
1000168a:	601a      	str	r2, [r3, #0]
1000168c:	e7b3      	b.n	100015f6 <irq_remove_handler+0x46>
1000168e:	2006      	movs	r0, #6
10001690:	5618      	ldrsb	r0, [r3, r0]
10001692:	2800      	cmp	r0, #0
10001694:	db22      	blt.n	100016dc <irq_remove_handler+0x12c>
10001696:	0042      	lsls	r2, r0, #1
10001698:	1811      	adds	r1, r2, r0
1000169a:	0089      	lsls	r1, r1, #2
1000169c:	187c      	adds	r4, r7, r1
1000169e:	4688      	mov	r8, r1
100016a0:	68a1      	ldr	r1, [r4, #8]
100016a2:	6099      	str	r1, [r3, #8]
100016a4:	79e1      	ldrb	r1, [r4, #7]
100016a6:	71d9      	strb	r1, [r3, #7]
100016a8:	2106      	movs	r1, #6
100016aa:	5661      	ldrsb	r1, [r4, r1]
100016ac:	7199      	strb	r1, [r3, #6]
100016ae:	79a1      	ldrb	r1, [r4, #6]
100016b0:	297f      	cmp	r1, #127	; 0x7f
100016b2:	d82b      	bhi.n	1000170c <irq_remove_handler+0x15c>
100016b4:	88a4      	ldrh	r4, [r4, #4]
100016b6:	1af9      	subs	r1, r7, r3
100016b8:	0564      	lsls	r4, r4, #21
100016ba:	1524      	asrs	r4, r4, #20
100016bc:	4444      	add	r4, r8
100016be:	1909      	adds	r1, r1, r4
100016c0:	24e0      	movs	r4, #224	; 0xe0
100016c2:	0509      	lsls	r1, r1, #20
100016c4:	0d49      	lsrs	r1, r1, #21
100016c6:	0224      	lsls	r4, r4, #8
100016c8:	4321      	orrs	r1, r4
100016ca:	8099      	strh	r1, [r3, #4]
100016cc:	1812      	adds	r2, r2, r0
100016ce:	4b24      	ldr	r3, [pc, #144]	; (10001760 <irq_remove_handler+0x1b0>)
100016d0:	0092      	lsls	r2, r2, #2
100016d2:	18bf      	adds	r7, r7, r2
100016d4:	781a      	ldrb	r2, [r3, #0]
100016d6:	7018      	strb	r0, [r3, #0]
100016d8:	71ba      	strb	r2, [r7, #6]
100016da:	e7cb      	b.n	10001674 <irq_remove_handler+0xc4>
100016dc:	9801      	ldr	r0, [sp, #4]
100016de:	2800      	cmp	r0, #0
100016e0:	d117      	bne.n	10001712 <irq_remove_handler+0x162>
100016e2:	30ff      	adds	r0, #255	; 0xff
100016e4:	7190      	strb	r0, [r2, #6]
100016e6:	481f      	ldr	r0, [pc, #124]	; (10001764 <irq_remove_handler+0x1b4>)
100016e8:	8090      	strh	r0, [r2, #4]
100016ea:	4a1d      	ldr	r2, [pc, #116]	; (10001760 <irq_remove_handler+0x1b0>)
100016ec:	1bcf      	subs	r7, r1, r7
100016ee:	7810      	ldrb	r0, [r2, #0]
100016f0:	10bf      	asrs	r7, r7, #2
100016f2:	7198      	strb	r0, [r3, #6]
100016f4:	00bb      	lsls	r3, r7, #2
100016f6:	19db      	adds	r3, r3, r7
100016f8:	0119      	lsls	r1, r3, #4
100016fa:	185b      	adds	r3, r3, r1
100016fc:	0219      	lsls	r1, r3, #8
100016fe:	185b      	adds	r3, r3, r1
10001700:	0419      	lsls	r1, r3, #16
10001702:	185b      	adds	r3, r3, r1
10001704:	005b      	lsls	r3, r3, #1
10001706:	19db      	adds	r3, r3, r7
10001708:	7013      	strb	r3, [r2, #0]
1000170a:	e7b3      	b.n	10001674 <irq_remove_handler+0xc4>
1000170c:	21bd      	movs	r1, #189	; 0xbd
1000170e:	0209      	lsls	r1, r1, #8
10001710:	e7db      	b.n	100016ca <irq_remove_handler+0x11a>
10001712:	4a15      	ldr	r2, [pc, #84]	; (10001768 <irq_remove_handler+0x1b8>)
10001714:	4915      	ldr	r1, [pc, #84]	; (1000176c <irq_remove_handler+0x1bc>)
10001716:	1ad2      	subs	r2, r2, r3
10001718:	3a08      	subs	r2, #8
1000171a:	0250      	lsls	r0, r2, #9
1000171c:	0d40      	lsrs	r0, r0, #21
1000171e:	4301      	orrs	r1, r0
10001720:	8099      	strh	r1, [r3, #4]
10001722:	4913      	ldr	r1, [pc, #76]	; (10001770 <irq_remove_handler+0x1c0>)
10001724:	0852      	lsrs	r2, r2, #1
10001726:	430a      	orrs	r2, r1
10001728:	80da      	strh	r2, [r3, #6]
1000172a:	e7a3      	b.n	10001674 <irq_remove_handler+0xc4>
1000172c:	2006      	movs	r0, #6
1000172e:	5608      	ldrsb	r0, [r1, r0]
10001730:	000b      	movs	r3, r1
10001732:	2800      	cmp	r0, #0
10001734:	daaf      	bge.n	10001696 <irq_remove_handler+0xe6>
10001736:	9a01      	ldr	r2, [sp, #4]
10001738:	2a00      	cmp	r2, #0
1000173a:	d1ea      	bne.n	10001712 <irq_remove_handler+0x162>
1000173c:	000b      	movs	r3, r1
1000173e:	4645      	mov	r5, r8
10001740:	e7d3      	b.n	100016ea <irq_remove_handler+0x13a>
10001742:	46c0      	nop			; (mov r8, r8)
10001744:	d0000124 	.word	0xd0000124
10001748:	e000ed00 	.word	0xe000ed00
1000174c:	100002cd 	.word	0x100002cd
10001750:	2000026c 	.word	0x2000026c
10001754:	e000e100 	.word	0xe000e100
10001758:	e000e180 	.word	0xe000e180
1000175c:	e000e280 	.word	0xe000e280
10001760:	20000c09 	.word	0x20000c09
10001764:	ffffbd00 	.word	0xffffbd00
10001768:	200002a6 	.word	0x200002a6
1000176c:	fffff000 	.word	0xfffff000
10001770:	fffff800 	.word	0xfffff800

10001774 <irq_add_tail_to_free_list>:
10001774:	b5f8      	push	{r3, r4, r5, r6, r7, lr}
10001776:	2501      	movs	r5, #1
10001778:	0004      	movs	r4, r0
1000177a:	4305      	orrs	r5, r0
1000177c:	f7fe fd0b 	bl	10000196 <__get_current_exception>
10001780:	f3ef 8610 	mrs	r6, PRIMASK
10001784:	b672      	cpsid	i
10001786:	4a24      	ldr	r2, [pc, #144]	; (10001818 <irq_add_tail_to_free_list+0xa4>)
10001788:	6813      	ldr	r3, [r2, #0]
1000178a:	2b00      	cmp	r3, #0
1000178c:	d0fc      	beq.n	10001788 <irq_add_tail_to_free_list+0x14>
1000178e:	f3bf 8f5f 	dmb	sy
10001792:	4f22      	ldr	r7, [pc, #136]	; (1000181c <irq_add_tail_to_free_list+0xa8>)
10001794:	0080      	lsls	r0, r0, #2
10001796:	1be1      	subs	r1, r4, r7
10001798:	1089      	asrs	r1, r1, #2
1000179a:	008a      	lsls	r2, r1, #2
1000179c:	1852      	adds	r2, r2, r1
1000179e:	0113      	lsls	r3, r2, #4
100017a0:	18d2      	adds	r2, r2, r3
100017a2:	0213      	lsls	r3, r2, #8
100017a4:	18d2      	adds	r2, r2, r3
100017a6:	0413      	lsls	r3, r2, #16
100017a8:	18d3      	adds	r3, r2, r3
100017aa:	4a1d      	ldr	r2, [pc, #116]	; (10001820 <irq_add_tail_to_free_list+0xac>)
100017ac:	005b      	lsls	r3, r3, #1
100017ae:	185b      	adds	r3, r3, r1
100017b0:	6891      	ldr	r1, [r2, #8]
100017b2:	5809      	ldr	r1, [r1, r0]
100017b4:	42a9      	cmp	r1, r5
100017b6:	d01c      	beq.n	100017f2 <irq_add_tail_to_free_list+0x7e>
100017b8:	2206      	movs	r2, #6
100017ba:	56ba      	ldrsb	r2, [r7, r2]
100017bc:	4293      	cmp	r3, r2
100017be:	d01c      	beq.n	100017fa <irq_add_tail_to_free_list+0x86>
100017c0:	2212      	movs	r2, #18
100017c2:	56ba      	ldrsb	r2, [r7, r2]
100017c4:	4293      	cmp	r3, r2
100017c6:	d022      	beq.n	1000180e <irq_add_tail_to_free_list+0x9a>
100017c8:	221e      	movs	r2, #30
100017ca:	56ba      	ldrsb	r2, [r7, r2]
100017cc:	4293      	cmp	r3, r2
100017ce:	d020      	beq.n	10001812 <irq_add_tail_to_free_list+0x9e>
100017d0:	222a      	movs	r2, #42	; 0x2a
100017d2:	56ba      	ldrsb	r2, [r7, r2]
100017d4:	2103      	movs	r1, #3
100017d6:	429a      	cmp	r2, r3
100017d8:	d010      	beq.n	100017fc <irq_add_tail_to_free_list+0x88>
100017da:	4a12      	ldr	r2, [pc, #72]	; (10001824 <irq_add_tail_to_free_list+0xb0>)
100017dc:	7811      	ldrb	r1, [r2, #0]
100017de:	7013      	strb	r3, [r2, #0]
100017e0:	71a1      	strb	r1, [r4, #6]
100017e2:	f3bf 8f5f 	dmb	sy
100017e6:	2200      	movs	r2, #0
100017e8:	4b0b      	ldr	r3, [pc, #44]	; (10001818 <irq_add_tail_to_free_list+0xa4>)
100017ea:	601a      	str	r2, [r3, #0]
100017ec:	f386 8810 	msr	PRIMASK, r6
100017f0:	bdf8      	pop	{r3, r4, r5, r6, r7, pc}
100017f2:	6892      	ldr	r2, [r2, #8]
100017f4:	490c      	ldr	r1, [pc, #48]	; (10001828 <irq_add_tail_to_free_list+0xb4>)
100017f6:	5011      	str	r1, [r2, r0]
100017f8:	e7ef      	b.n	100017da <irq_add_tail_to_free_list+0x66>
100017fa:	2100      	movs	r1, #0
100017fc:	004a      	lsls	r2, r1, #1
100017fe:	1852      	adds	r2, r2, r1
10001800:	21ff      	movs	r1, #255	; 0xff
10001802:	0092      	lsls	r2, r2, #2
10001804:	18ba      	adds	r2, r7, r2
10001806:	7191      	strb	r1, [r2, #6]
10001808:	4908      	ldr	r1, [pc, #32]	; (1000182c <irq_add_tail_to_free_list+0xb8>)
1000180a:	8091      	strh	r1, [r2, #4]
1000180c:	e7e5      	b.n	100017da <irq_add_tail_to_free_list+0x66>
1000180e:	2101      	movs	r1, #1
10001810:	e7f4      	b.n	100017fc <irq_add_tail_to_free_list+0x88>
10001812:	2102      	movs	r1, #2
10001814:	e7f2      	b.n	100017fc <irq_add_tail_to_free_list+0x88>
10001816:	46c0      	nop			; (mov r8, r8)
10001818:	d0000124 	.word	0xd0000124
1000181c:	2000026c 	.word	0x2000026c
10001820:	e000ed00 	.word	0xe000ed00
10001824:	20000c09 	.word	0x20000c09
10001828:	100002cd 	.word	0x100002cd
1000182c:	ffffbd00 	.word	0xffffbd00

10001830 <irq_init_priorities>:
10001830:	b5f0      	push	{r4, r5, r6, r7, lr}
10001832:	2200      	movs	r2, #0
10001834:	2403      	movs	r4, #3
10001836:	27ff      	movs	r7, #255	; 0xff
10001838:	2680      	movs	r6, #128	; 0x80
1000183a:	0020      	movs	r0, r4
1000183c:	003d      	movs	r5, r7
1000183e:	4b09      	ldr	r3, [pc, #36]	; (10001864 <irq_init_priorities+0x34>)
10001840:	0011      	movs	r1, r2
10001842:	469c      	mov	ip, r3
10001844:	4010      	ands	r0, r2
10001846:	00c0      	lsls	r0, r0, #3
10001848:	4085      	lsls	r5, r0
1000184a:	43a1      	bics	r1, r4
1000184c:	4461      	add	r1, ip
1000184e:	680b      	ldr	r3, [r1, #0]
10001850:	3201      	adds	r2, #1
10001852:	43ab      	bics	r3, r5
10001854:	0035      	movs	r5, r6
10001856:	4085      	lsls	r5, r0
10001858:	432b      	orrs	r3, r5
1000185a:	600b      	str	r3, [r1, #0]
1000185c:	2a20      	cmp	r2, #32
1000185e:	d1ec      	bne.n	1000183a <irq_init_priorities+0xa>
10001860:	bdf0      	pop	{r4, r5, r6, r7, pc}
10001862:	46c0      	nop			; (mov r8, r8)
10001864:	e000e400 	.word	0xe000e400

10001868 <_out_null>:
10001868:	4770      	bx	lr
1000186a:	46c0      	nop			; (mov r8, r8)

1000186c <_out_rev>:
1000186c:	b5f8      	push	{r3, r4, r5, r6, r7, lr}
1000186e:	4657      	mov	r7, sl
10001870:	464e      	mov	r6, r9
10001872:	46de      	mov	lr, fp
10001874:	4645      	mov	r5, r8
10001876:	b5e0      	push	{r5, r6, r7, lr}
10001878:	001f      	movs	r7, r3
1000187a:	9b0a      	ldr	r3, [sp, #40]	; 0x28
1000187c:	0005      	movs	r5, r0
1000187e:	469b      	mov	fp, r3
10001880:	9b0d      	ldr	r3, [sp, #52]	; 0x34
10001882:	000e      	movs	r6, r1
10001884:	4691      	mov	r9, r2
10001886:	4692      	mov	sl, r2
10001888:	079b      	lsls	r3, r3, #30
1000188a:	d118      	bne.n	100018be <_out_rev+0x52>
1000188c:	9b0b      	ldr	r3, [sp, #44]	; 0x2c
1000188e:	9a0c      	ldr	r2, [sp, #48]	; 0x30
10001890:	4293      	cmp	r3, r2
10001892:	d214      	bcs.n	100018be <_out_rev+0x52>
10001894:	0013      	movs	r3, r2
10001896:	9a0b      	ldr	r2, [sp, #44]	; 0x2c
10001898:	46b8      	mov	r8, r7
1000189a:	1a9b      	subs	r3, r3, r2
1000189c:	444b      	add	r3, r9
1000189e:	464c      	mov	r4, r9
100018a0:	000f      	movs	r7, r1
100018a2:	0006      	movs	r6, r0
100018a4:	001d      	movs	r5, r3
100018a6:	0022      	movs	r2, r4
100018a8:	4643      	mov	r3, r8
100018aa:	3401      	adds	r4, #1
100018ac:	0039      	movs	r1, r7
100018ae:	2020      	movs	r0, #32
100018b0:	47b0      	blx	r6
100018b2:	42ac      	cmp	r4, r5
100018b4:	d1f7      	bne.n	100018a6 <_out_rev+0x3a>
100018b6:	46aa      	mov	sl, r5
100018b8:	0035      	movs	r5, r6
100018ba:	003e      	movs	r6, r7
100018bc:	4647      	mov	r7, r8
100018be:	9b0b      	ldr	r3, [sp, #44]	; 0x2c
100018c0:	2b00      	cmp	r3, #0
100018c2:	d038      	beq.n	10001936 <_out_rev+0xca>
100018c4:	449a      	add	sl, r3
100018c6:	001c      	movs	r4, r3
100018c8:	46d0      	mov	r8, sl
100018ca:	4653      	mov	r3, sl
100018cc:	1b1a      	subs	r2, r3, r4
100018ce:	465b      	mov	r3, fp
100018d0:	3c01      	subs	r4, #1
100018d2:	5d18      	ldrb	r0, [r3, r4]
100018d4:	0031      	movs	r1, r6
100018d6:	003b      	movs	r3, r7
100018d8:	47a8      	blx	r5
100018da:	2c00      	cmp	r4, #0
100018dc:	d1f5      	bne.n	100018ca <_out_rev+0x5e>
100018de:	9b0d      	ldr	r3, [sp, #52]	; 0x34
100018e0:	079b      	lsls	r3, r3, #30
100018e2:	d521      	bpl.n	10001928 <_out_rev+0xbc>
100018e4:	4643      	mov	r3, r8
100018e6:	464a      	mov	r2, r9
100018e8:	1a9c      	subs	r4, r3, r2
100018ea:	9b0c      	ldr	r3, [sp, #48]	; 0x30
100018ec:	42a3      	cmp	r3, r4
100018ee:	d91b      	bls.n	10001928 <_out_rev+0xbc>
100018f0:	003a      	movs	r2, r7
100018f2:	469a      	mov	sl, r3
100018f4:	464f      	mov	r7, r9
100018f6:	4691      	mov	r9, r2
100018f8:	19e2      	adds	r2, r4, r7
100018fa:	464b      	mov	r3, r9
100018fc:	0031      	movs	r1, r6
100018fe:	2020      	movs	r0, #32
10001900:	3401      	adds	r4, #1
10001902:	47a8      	blx	r5
10001904:	4554      	cmp	r4, sl
10001906:	d3f7      	bcc.n	100018f8 <_out_rev+0x8c>
10001908:	4643      	mov	r3, r8
1000190a:	990c      	ldr	r1, [sp, #48]	; 0x30
1000190c:	1bdb      	subs	r3, r3, r7
1000190e:	3301      	adds	r3, #1
10001910:	46b9      	mov	r9, r7
10001912:	2200      	movs	r2, #0
10001914:	4299      	cmp	r1, r3
10001916:	d303      	bcc.n	10001920 <_out_rev+0xb4>
10001918:	4643      	mov	r3, r8
1000191a:	1e4a      	subs	r2, r1, #1
1000191c:	444a      	add	r2, r9
1000191e:	1ad2      	subs	r2, r2, r3
10001920:	4643      	mov	r3, r8
10001922:	4690      	mov	r8, r2
10001924:	3301      	adds	r3, #1
10001926:	4498      	add	r8, r3
10001928:	4640      	mov	r0, r8
1000192a:	bc3c      	pop	{r2, r3, r4, r5}
1000192c:	4690      	mov	r8, r2
1000192e:	4699      	mov	r9, r3
10001930:	46a2      	mov	sl, r4
10001932:	46ab      	mov	fp, r5
10001934:	bdf8      	pop	{r3, r4, r5, r6, r7, pc}
10001936:	46d0      	mov	r8, sl
10001938:	e7d1      	b.n	100018de <_out_rev+0x72>
1000193a:	46c0      	nop			; (mov r8, r8)

1000193c <_ntoa_format>:
1000193c:	b5f0      	push	{r4, r5, r6, r7, lr}
1000193e:	464f      	mov	r7, r9
10001940:	4646      	mov	r6, r8
10001942:	46d6      	mov	lr, sl
10001944:	b5c0      	push	{r6, r7, lr}
10001946:	b084      	sub	sp, #16
10001948:	4698      	mov	r8, r3
1000194a:	ab0e      	add	r3, sp, #56	; 0x38
1000194c:	781b      	ldrb	r3, [r3, #0]
1000194e:	9f12      	ldr	r7, [sp, #72]	; 0x48
10001950:	4699      	mov	r9, r3
10001952:	4694      	mov	ip, r2
10001954:	9c0d      	ldr	r4, [sp, #52]	; 0x34
10001956:	9b10      	ldr	r3, [sp, #64]	; 0x40
10001958:	9e11      	ldr	r6, [sp, #68]	; 0x44
1000195a:	07ba      	lsls	r2, r7, #30
1000195c:	d425      	bmi.n	100019aa <_ntoa_format+0x6e>
1000195e:	2e00      	cmp	r6, #0
10001960:	d169      	bne.n	10001a36 <_ntoa_format+0xfa>
10001962:	429c      	cmp	r4, r3
10001964:	d300      	bcc.n	10001968 <_ntoa_format+0x2c>
10001966:	e0c2      	b.n	10001aee <_ntoa_format+0x1b2>
10001968:	2201      	movs	r2, #1
1000196a:	403a      	ands	r2, r7
1000196c:	4692      	mov	sl, r2
1000196e:	2c1f      	cmp	r4, #31
10001970:	d900      	bls.n	10001974 <_ntoa_format+0x38>
10001972:	e0bb      	b.n	10001aec <_ntoa_format+0x1b0>
10001974:	9a0c      	ldr	r2, [sp, #48]	; 0x30
10001976:	1e55      	subs	r5, r2, #1
10001978:	2230      	movs	r2, #48	; 0x30
1000197a:	e001      	b.n	10001980 <_ntoa_format+0x44>
1000197c:	2c20      	cmp	r4, #32
1000197e:	d003      	beq.n	10001988 <_ntoa_format+0x4c>
10001980:	3401      	adds	r4, #1
10001982:	552a      	strb	r2, [r5, r4]
10001984:	42a3      	cmp	r3, r4
10001986:	d8f9      	bhi.n	1000197c <_ntoa_format+0x40>
10001988:	4652      	mov	r2, sl
1000198a:	2a00      	cmp	r2, #0
1000198c:	d00d      	beq.n	100019aa <_ntoa_format+0x6e>
1000198e:	42b4      	cmp	r4, r6
10001990:	d20b      	bcs.n	100019aa <_ntoa_format+0x6e>
10001992:	2c1f      	cmp	r4, #31
10001994:	d862      	bhi.n	10001a5c <_ntoa_format+0x120>
10001996:	9a0c      	ldr	r2, [sp, #48]	; 0x30
10001998:	1e55      	subs	r5, r2, #1
1000199a:	2230      	movs	r2, #48	; 0x30
1000199c:	e001      	b.n	100019a2 <_ntoa_format+0x66>
1000199e:	2c20      	cmp	r4, #32
100019a0:	d05c      	beq.n	10001a5c <_ntoa_format+0x120>
100019a2:	3401      	adds	r4, #1
100019a4:	552a      	strb	r2, [r5, r4]
100019a6:	42b4      	cmp	r4, r6
100019a8:	d1f9      	bne.n	1000199e <_ntoa_format+0x62>
100019aa:	06fa      	lsls	r2, r7, #27
100019ac:	d535      	bpl.n	10001a1a <_ntoa_format+0xde>
100019ae:	057a      	lsls	r2, r7, #21
100019b0:	d45d      	bmi.n	10001a6e <_ntoa_format+0x132>
100019b2:	2c00      	cmp	r4, #0
100019b4:	d157      	bne.n	10001a66 <_ntoa_format+0x12a>
100019b6:	9b0f      	ldr	r3, [sp, #60]	; 0x3c
100019b8:	2b10      	cmp	r3, #16
100019ba:	d100      	bne.n	100019be <_ntoa_format+0x82>
100019bc:	e07c      	b.n	10001ab8 <_ntoa_format+0x17c>
100019be:	9b0f      	ldr	r3, [sp, #60]	; 0x3c
100019c0:	2b02      	cmp	r3, #2
100019c2:	d100      	bne.n	100019c6 <_ntoa_format+0x8a>
100019c4:	e08d      	b.n	10001ae2 <_ntoa_format+0x1a6>
100019c6:	2330      	movs	r3, #48	; 0x30
100019c8:	9a0c      	ldr	r2, [sp, #48]	; 0x30
100019ca:	2401      	movs	r4, #1
100019cc:	7013      	strb	r3, [r2, #0]
100019ce:	464b      	mov	r3, r9
100019d0:	2b00      	cmp	r3, #0
100019d2:	d027      	beq.n	10001a24 <_ntoa_format+0xe8>
100019d4:	232d      	movs	r3, #45	; 0x2d
100019d6:	9a0c      	ldr	r2, [sp, #48]	; 0x30
100019d8:	5513      	strb	r3, [r2, r4]
100019da:	3401      	adds	r4, #1
100019dc:	9b0c      	ldr	r3, [sp, #48]	; 0x30
100019de:	4662      	mov	r2, ip
100019e0:	9300      	str	r3, [sp, #0]
100019e2:	9703      	str	r7, [sp, #12]
100019e4:	4643      	mov	r3, r8
100019e6:	9602      	str	r6, [sp, #8]
100019e8:	9401      	str	r4, [sp, #4]
100019ea:	f7ff ff3f 	bl	1000186c <_out_rev>
100019ee:	b004      	add	sp, #16
100019f0:	bc1c      	pop	{r2, r3, r4}
100019f2:	4690      	mov	r8, r2
100019f4:	4699      	mov	r9, r3
100019f6:	46a2      	mov	sl, r4
100019f8:	bdf0      	pop	{r4, r5, r6, r7, pc}
100019fa:	06bb      	lsls	r3, r7, #26
100019fc:	d463      	bmi.n	10001ac6 <_ntoa_format+0x18a>
100019fe:	2c20      	cmp	r4, #32
10001a00:	d0ec      	beq.n	100019dc <_ntoa_format+0xa0>
10001a02:	9b0c      	ldr	r3, [sp, #48]	; 0x30
10001a04:	191a      	adds	r2, r3, r4
10001a06:	3401      	adds	r4, #1
10001a08:	2378      	movs	r3, #120	; 0x78
10001a0a:	7013      	strb	r3, [r2, #0]
10001a0c:	2c20      	cmp	r4, #32
10001a0e:	d0e5      	beq.n	100019dc <_ntoa_format+0xa0>
10001a10:	2230      	movs	r2, #48	; 0x30
10001a12:	9b0c      	ldr	r3, [sp, #48]	; 0x30
10001a14:	191b      	adds	r3, r3, r4
10001a16:	701a      	strb	r2, [r3, #0]
10001a18:	3401      	adds	r4, #1
10001a1a:	2c20      	cmp	r4, #32
10001a1c:	d0de      	beq.n	100019dc <_ntoa_format+0xa0>
10001a1e:	464b      	mov	r3, r9
10001a20:	2b00      	cmp	r3, #0
10001a22:	d1d7      	bne.n	100019d4 <_ntoa_format+0x98>
10001a24:	077b      	lsls	r3, r7, #29
10001a26:	d435      	bmi.n	10001a94 <_ntoa_format+0x158>
10001a28:	073b      	lsls	r3, r7, #28
10001a2a:	d5d7      	bpl.n	100019dc <_ntoa_format+0xa0>
10001a2c:	2320      	movs	r3, #32
10001a2e:	9a0c      	ldr	r2, [sp, #48]	; 0x30
10001a30:	5513      	strb	r3, [r2, r4]
10001a32:	3401      	adds	r4, #1
10001a34:	e7d2      	b.n	100019dc <_ntoa_format+0xa0>
10001a36:	2201      	movs	r2, #1
10001a38:	0015      	movs	r5, r2
10001a3a:	403d      	ands	r5, r7
10001a3c:	46aa      	mov	sl, r5
10001a3e:	423a      	tst	r2, r7
10001a40:	d020      	beq.n	10001a84 <_ntoa_format+0x148>
10001a42:	464a      	mov	r2, r9
10001a44:	2a00      	cmp	r2, #0
10001a46:	d12a      	bne.n	10001a9e <_ntoa_format+0x162>
10001a48:	320c      	adds	r2, #12
10001a4a:	423a      	tst	r2, r7
10001a4c:	d127      	bne.n	10001a9e <_ntoa_format+0x162>
10001a4e:	429c      	cmp	r4, r3
10001a50:	d29d      	bcs.n	1000198e <_ntoa_format+0x52>
10001a52:	2c1f      	cmp	r4, #31
10001a54:	d800      	bhi.n	10001a58 <_ntoa_format+0x11c>
10001a56:	e78d      	b.n	10001974 <_ntoa_format+0x38>
10001a58:	2e20      	cmp	r6, #32
10001a5a:	d919      	bls.n	10001a90 <_ntoa_format+0x154>
10001a5c:	2420      	movs	r4, #32
10001a5e:	06fa      	lsls	r2, r7, #27
10001a60:	d5bc      	bpl.n	100019dc <_ntoa_format+0xa0>
10001a62:	057a      	lsls	r2, r7, #21
10001a64:	d403      	bmi.n	10001a6e <_ntoa_format+0x132>
10001a66:	42a3      	cmp	r3, r4
10001a68:	d01b      	beq.n	10001aa2 <_ntoa_format+0x166>
10001a6a:	42a6      	cmp	r6, r4
10001a6c:	d019      	beq.n	10001aa2 <_ntoa_format+0x166>
10001a6e:	9b0f      	ldr	r3, [sp, #60]	; 0x3c
10001a70:	2b10      	cmp	r3, #16
10001a72:	d0c2      	beq.n	100019fa <_ntoa_format+0xbe>
10001a74:	2b02      	cmp	r3, #2
10001a76:	d1c9      	bne.n	10001a0c <_ntoa_format+0xd0>
10001a78:	2c20      	cmp	r4, #32
10001a7a:	d0af      	beq.n	100019dc <_ntoa_format+0xa0>
10001a7c:	9b0c      	ldr	r3, [sp, #48]	; 0x30
10001a7e:	191b      	adds	r3, r3, r4
10001a80:	3401      	adds	r4, #1
10001a82:	e040      	b.n	10001b06 <_ntoa_format+0x1ca>
10001a84:	429c      	cmp	r4, r3
10001a86:	d300      	bcc.n	10001a8a <_ntoa_format+0x14e>
10001a88:	e78f      	b.n	100019aa <_ntoa_format+0x6e>
10001a8a:	2c1f      	cmp	r4, #31
10001a8c:	d800      	bhi.n	10001a90 <_ntoa_format+0x154>
10001a8e:	e771      	b.n	10001974 <_ntoa_format+0x38>
10001a90:	2420      	movs	r4, #32
10001a92:	e78a      	b.n	100019aa <_ntoa_format+0x6e>
10001a94:	232b      	movs	r3, #43	; 0x2b
10001a96:	9a0c      	ldr	r2, [sp, #48]	; 0x30
10001a98:	5513      	strb	r3, [r2, r4]
10001a9a:	3401      	adds	r4, #1
10001a9c:	e79e      	b.n	100019dc <_ntoa_format+0xa0>
10001a9e:	3e01      	subs	r6, #1
10001aa0:	e7d5      	b.n	10001a4e <_ntoa_format+0x112>
10001aa2:	1e63      	subs	r3, r4, #1
10001aa4:	2c01      	cmp	r4, #1
10001aa6:	d100      	bne.n	10001aaa <_ntoa_format+0x16e>
10001aa8:	e785      	b.n	100019b6 <_ntoa_format+0x7a>
10001aaa:	9a0f      	ldr	r2, [sp, #60]	; 0x3c
10001aac:	2a10      	cmp	r2, #16
10001aae:	d020      	beq.n	10001af2 <_ntoa_format+0x1b6>
10001ab0:	2a02      	cmp	r2, #2
10001ab2:	d025      	beq.n	10001b00 <_ntoa_format+0x1c4>
10001ab4:	001c      	movs	r4, r3
10001ab6:	e7ab      	b.n	10001a10 <_ntoa_format+0xd4>
10001ab8:	06bb      	lsls	r3, r7, #26
10001aba:	d40d      	bmi.n	10001ad8 <_ntoa_format+0x19c>
10001abc:	2378      	movs	r3, #120	; 0x78
10001abe:	9a0c      	ldr	r2, [sp, #48]	; 0x30
10001ac0:	2401      	movs	r4, #1
10001ac2:	7013      	strb	r3, [r2, #0]
10001ac4:	e7a4      	b.n	10001a10 <_ntoa_format+0xd4>
10001ac6:	2c20      	cmp	r4, #32
10001ac8:	d100      	bne.n	10001acc <_ntoa_format+0x190>
10001aca:	e787      	b.n	100019dc <_ntoa_format+0xa0>
10001acc:	2258      	movs	r2, #88	; 0x58
10001ace:	9b0c      	ldr	r3, [sp, #48]	; 0x30
10001ad0:	191b      	adds	r3, r3, r4
10001ad2:	701a      	strb	r2, [r3, #0]
10001ad4:	3401      	adds	r4, #1
10001ad6:	e799      	b.n	10001a0c <_ntoa_format+0xd0>
10001ad8:	2358      	movs	r3, #88	; 0x58
10001ada:	9a0c      	ldr	r2, [sp, #48]	; 0x30
10001adc:	2401      	movs	r4, #1
10001ade:	7013      	strb	r3, [r2, #0]
10001ae0:	e796      	b.n	10001a10 <_ntoa_format+0xd4>
10001ae2:	9a0c      	ldr	r2, [sp, #48]	; 0x30
10001ae4:	3360      	adds	r3, #96	; 0x60
10001ae6:	2401      	movs	r4, #1
10001ae8:	7013      	strb	r3, [r2, #0]
10001aea:	e791      	b.n	10001a10 <_ntoa_format+0xd4>
10001aec:	2420      	movs	r4, #32
10001aee:	2600      	movs	r6, #0
10001af0:	e75b      	b.n	100019aa <_ntoa_format+0x6e>
10001af2:	3c02      	subs	r4, #2
10001af4:	06ba      	lsls	r2, r7, #26
10001af6:	d4e9      	bmi.n	10001acc <_ntoa_format+0x190>
10001af8:	9a0c      	ldr	r2, [sp, #48]	; 0x30
10001afa:	1912      	adds	r2, r2, r4
10001afc:	001c      	movs	r4, r3
10001afe:	e783      	b.n	10001a08 <_ntoa_format+0xcc>
10001b00:	9a0c      	ldr	r2, [sp, #48]	; 0x30
10001b02:	4692      	mov	sl, r2
10001b04:	4453      	add	r3, sl
10001b06:	2262      	movs	r2, #98	; 0x62
10001b08:	701a      	strb	r2, [r3, #0]
10001b0a:	e77f      	b.n	10001a0c <_ntoa_format+0xd0>

10001b0c <_out_char>:
10001b0c:	b510      	push	{r4, lr}
10001b0e:	2800      	cmp	r0, #0
10001b10:	d100      	bne.n	10001b14 <_out_char+0x8>
10001b12:	bd10      	pop	{r4, pc}
10001b14:	f002 fa46 	bl	10003fa4 <__wrap_putchar>
10001b18:	e7fb      	b.n	10001b12 <_out_char+0x6>
10001b1a:	46c0      	nop			; (mov r8, r8)

10001b1c <_out_fct>:
10001b1c:	000b      	movs	r3, r1
10001b1e:	b510      	push	{r4, lr}
10001b20:	2800      	cmp	r0, #0
10001b22:	d002      	beq.n	10001b2a <_out_fct+0xe>
10001b24:	6849      	ldr	r1, [r1, #4]
10001b26:	681b      	ldr	r3, [r3, #0]
10001b28:	4798      	blx	r3
10001b2a:	bd10      	pop	{r4, pc}

10001b2c <_etoa>:
10001b2c:	b5f0      	push	{r4, r5, r6, r7, lr}
10001b2e:	46de      	mov	lr, fp
10001b30:	4657      	mov	r7, sl
10001b32:	464e      	mov	r6, r9
10001b34:	4645      	mov	r5, r8
10001b36:	b5e0      	push	{r5, r6, r7, lr}
10001b38:	b09b      	sub	sp, #108	; 0x6c
10001b3a:	469a      	mov	sl, r3
10001b3c:	9b24      	ldr	r3, [sp, #144]	; 0x90
10001b3e:	468b      	mov	fp, r1
10001b40:	4699      	mov	r9, r3
10001b42:	9b25      	ldr	r3, [sp, #148]	; 0x94
10001b44:	900b      	str	r0, [sp, #44]	; 0x2c
10001b46:	4698      	mov	r8, r3
10001b48:	920c      	str	r2, [sp, #48]	; 0x30
10001b4a:	4643      	mov	r3, r8
10001b4c:	464a      	mov	r2, r9
10001b4e:	4648      	mov	r0, r9
10001b50:	4641      	mov	r1, r8
10001b52:	f001 fccc 	bl	100034ee <__wrap___aeabi_dcmpun>
10001b56:	2800      	cmp	r0, #0
10001b58:	d000      	beq.n	10001b5c <_etoa+0x30>
10001b5a:	e1a3      	b.n	10001ea4 <_etoa+0x378>
10001b5c:	2201      	movs	r2, #1
10001b5e:	4648      	mov	r0, r9
10001b60:	4641      	mov	r1, r8
10001b62:	4be2      	ldr	r3, [pc, #904]	; (10001eec <_etoa+0x3c0>)
10001b64:	4252      	negs	r2, r2
10001b66:	f001 fcbd 	bl	100034e4 <__wrap___aeabi_dcmpgt>
10001b6a:	2800      	cmp	r0, #0
10001b6c:	d000      	beq.n	10001b70 <_etoa+0x44>
10001b6e:	e199      	b.n	10001ea4 <_etoa+0x378>
10001b70:	2201      	movs	r2, #1
10001b72:	4648      	mov	r0, r9
10001b74:	4641      	mov	r1, r8
10001b76:	4bde      	ldr	r3, [pc, #888]	; (10001ef0 <_etoa+0x3c4>)
10001b78:	4252      	negs	r2, r2
10001b7a:	f001 fc9d 	bl	100034b8 <__wrap___aeabi_dcmplt>
10001b7e:	2800      	cmp	r0, #0
10001b80:	d000      	beq.n	10001b84 <_etoa+0x58>
10001b82:	e18f      	b.n	10001ea4 <_etoa+0x378>
10001b84:	2200      	movs	r2, #0
10001b86:	2300      	movs	r3, #0
10001b88:	4648      	mov	r0, r9
10001b8a:	4641      	mov	r1, r8
10001b8c:	f001 fc94 	bl	100034b8 <__wrap___aeabi_dcmplt>
10001b90:	2800      	cmp	r0, #0
10001b92:	d000      	beq.n	10001b96 <_etoa+0x6a>
10001b94:	e1de      	b.n	10001f54 <_etoa+0x428>
10001b96:	464a      	mov	r2, r9
10001b98:	4643      	mov	r3, r8
10001b9a:	920a      	str	r2, [sp, #40]	; 0x28
10001b9c:	9309      	str	r3, [sp, #36]	; 0x24
10001b9e:	2380      	movs	r3, #128	; 0x80
10001ba0:	9a28      	ldr	r2, [sp, #160]	; 0xa0
10001ba2:	00db      	lsls	r3, r3, #3
10001ba4:	401a      	ands	r2, r3
10001ba6:	9211      	str	r2, [sp, #68]	; 0x44
10001ba8:	9a28      	ldr	r2, [sp, #160]	; 0xa0
10001baa:	421a      	tst	r2, r3
10001bac:	d101      	bne.n	10001bb2 <_etoa+0x86>
10001bae:	2306      	movs	r3, #6
10001bb0:	9326      	str	r3, [sp, #152]	; 0x98
10001bb2:	4bd0      	ldr	r3, [pc, #832]	; (10001ef4 <_etoa+0x3c8>)
10001bb4:	9f09      	ldr	r7, [sp, #36]	; 0x24
10001bb6:	469c      	mov	ip, r3
10001bb8:	0078      	lsls	r0, r7, #1
10001bba:	0d40      	lsrs	r0, r0, #21
10001bbc:	4460      	add	r0, ip
10001bbe:	f001 fca9 	bl	10003514 <__wrap___aeabi_i2d>
10001bc2:	4acd      	ldr	r2, [pc, #820]	; (10001ef8 <_etoa+0x3cc>)
10001bc4:	4bcd      	ldr	r3, [pc, #820]	; (10001efc <_etoa+0x3d0>)
10001bc6:	f001 fc35 	bl	10003434 <__wrap___aeabi_dmul>
10001bca:	4acd      	ldr	r2, [pc, #820]	; (10001f00 <_etoa+0x3d4>)
10001bcc:	4bcd      	ldr	r3, [pc, #820]	; (10001f04 <_etoa+0x3d8>)
10001bce:	f001 fc1f 	bl	10003410 <__wrap___aeabi_dadd>
10001bd2:	033b      	lsls	r3, r7, #12
10001bd4:	4acc      	ldr	r2, [pc, #816]	; (10001f08 <_etoa+0x3dc>)
10001bd6:	9e0a      	ldr	r6, [sp, #40]	; 0x28
10001bd8:	0b1b      	lsrs	r3, r3, #12
10001bda:	431a      	orrs	r2, r3
10001bdc:	0004      	movs	r4, r0
10001bde:	000d      	movs	r5, r1
10001be0:	0030      	movs	r0, r6
10001be2:	0011      	movs	r1, r2
10001be4:	4bc9      	ldr	r3, [pc, #804]	; (10001f0c <_etoa+0x3e0>)
10001be6:	2200      	movs	r2, #0
10001be8:	9709      	str	r7, [sp, #36]	; 0x24
10001bea:	f001 fc08 	bl	100033fe <__wrap___aeabi_dsub>
10001bee:	4ac8      	ldr	r2, [pc, #800]	; (10001f10 <_etoa+0x3e4>)
10001bf0:	4bc8      	ldr	r3, [pc, #800]	; (10001f14 <_etoa+0x3e8>)
10001bf2:	f001 fc1f 	bl	10003434 <__wrap___aeabi_dmul>
10001bf6:	0002      	movs	r2, r0
10001bf8:	000b      	movs	r3, r1
10001bfa:	0020      	movs	r0, r4
10001bfc:	0029      	movs	r1, r5
10001bfe:	f001 fc07 	bl	10003410 <__wrap___aeabi_dadd>
10001c02:	f001 fc9f 	bl	10003544 <__wrap___aeabi_d2iz>
10001c06:	900d      	str	r0, [sp, #52]	; 0x34
10001c08:	f001 fc84 	bl	10003514 <__wrap___aeabi_i2d>
10001c0c:	4ac2      	ldr	r2, [pc, #776]	; (10001f18 <_etoa+0x3ec>)
10001c0e:	4bc3      	ldr	r3, [pc, #780]	; (10001f1c <_etoa+0x3f0>)
10001c10:	0004      	movs	r4, r0
10001c12:	000d      	movs	r5, r1
10001c14:	f001 fc0e 	bl	10003434 <__wrap___aeabi_dmul>
10001c18:	2200      	movs	r2, #0
10001c1a:	4bc1      	ldr	r3, [pc, #772]	; (10001f20 <_etoa+0x3f4>)
10001c1c:	f001 fbf8 	bl	10003410 <__wrap___aeabi_dadd>
10001c20:	f001 fc90 	bl	10003544 <__wrap___aeabi_d2iz>
10001c24:	4abf      	ldr	r2, [pc, #764]	; (10001f24 <_etoa+0x3f8>)
10001c26:	0006      	movs	r6, r0
10001c28:	4bbf      	ldr	r3, [pc, #764]	; (10001f28 <_etoa+0x3fc>)
10001c2a:	0020      	movs	r0, r4
10001c2c:	0029      	movs	r1, r5
10001c2e:	f001 fc01 	bl	10003434 <__wrap___aeabi_dmul>
10001c32:	0004      	movs	r4, r0
10001c34:	0030      	movs	r0, r6
10001c36:	000d      	movs	r5, r1
10001c38:	9610      	str	r6, [sp, #64]	; 0x40
10001c3a:	f001 fc6b 	bl	10003514 <__wrap___aeabi_i2d>
10001c3e:	4abb      	ldr	r2, [pc, #748]	; (10001f2c <_etoa+0x400>)
10001c40:	4bbb      	ldr	r3, [pc, #748]	; (10001f30 <_etoa+0x404>)
10001c42:	f001 fbf7 	bl	10003434 <__wrap___aeabi_dmul>
10001c46:	0002      	movs	r2, r0
10001c48:	000b      	movs	r3, r1
10001c4a:	0020      	movs	r0, r4
10001c4c:	0029      	movs	r1, r5
10001c4e:	f001 fbd6 	bl	100033fe <__wrap___aeabi_dsub>
10001c52:	0002      	movs	r2, r0
10001c54:	000b      	movs	r3, r1
10001c56:	0006      	movs	r6, r0
10001c58:	000f      	movs	r7, r1
10001c5a:	f001 fbeb 	bl	10003434 <__wrap___aeabi_dmul>
10001c5e:	0032      	movs	r2, r6
10001c60:	0004      	movs	r4, r0
10001c62:	000d      	movs	r5, r1
10001c64:	003b      	movs	r3, r7
10001c66:	0030      	movs	r0, r6
10001c68:	0039      	movs	r1, r7
10001c6a:	f001 fbd1 	bl	10003410 <__wrap___aeabi_dadd>
10001c6e:	2200      	movs	r2, #0
10001c70:	900e      	str	r0, [sp, #56]	; 0x38
10001c72:	910f      	str	r1, [sp, #60]	; 0x3c
10001c74:	4baf      	ldr	r3, [pc, #700]	; (10001f34 <_etoa+0x408>)
10001c76:	0020      	movs	r0, r4
10001c78:	0029      	movs	r1, r5
10001c7a:	f001 fbd2 	bl	10003422 <__wrap___aeabi_ddiv>
10001c7e:	2200      	movs	r2, #0
10001c80:	4bad      	ldr	r3, [pc, #692]	; (10001f38 <_etoa+0x40c>)
10001c82:	f001 fbc5 	bl	10003410 <__wrap___aeabi_dadd>
10001c86:	0002      	movs	r2, r0
10001c88:	000b      	movs	r3, r1
10001c8a:	0020      	movs	r0, r4
10001c8c:	0029      	movs	r1, r5
10001c8e:	f001 fbc8 	bl	10003422 <__wrap___aeabi_ddiv>
10001c92:	2200      	movs	r2, #0
10001c94:	4ba9      	ldr	r3, [pc, #676]	; (10001f3c <_etoa+0x410>)
10001c96:	f001 fbbb 	bl	10003410 <__wrap___aeabi_dadd>
10001c9a:	0002      	movs	r2, r0
10001c9c:	000b      	movs	r3, r1
10001c9e:	0020      	movs	r0, r4
10001ca0:	0029      	movs	r1, r5
10001ca2:	f001 fbbe 	bl	10003422 <__wrap___aeabi_ddiv>
10001ca6:	000d      	movs	r5, r1
10001ca8:	2180      	movs	r1, #128	; 0x80
10001caa:	0004      	movs	r4, r0
10001cac:	0032      	movs	r2, r6
10001cae:	003b      	movs	r3, r7
10001cb0:	2000      	movs	r0, #0
10001cb2:	05c9      	lsls	r1, r1, #23
10001cb4:	f001 fba3 	bl	100033fe <__wrap___aeabi_dsub>
10001cb8:	0002      	movs	r2, r0
10001cba:	000b      	movs	r3, r1
10001cbc:	0020      	movs	r0, r4
10001cbe:	0029      	movs	r1, r5
10001cc0:	f001 fba6 	bl	10003410 <__wrap___aeabi_dadd>
10001cc4:	0002      	movs	r2, r0
10001cc6:	000b      	movs	r3, r1
10001cc8:	980e      	ldr	r0, [sp, #56]	; 0x38
10001cca:	990f      	ldr	r1, [sp, #60]	; 0x3c
10001ccc:	f001 fba9 	bl	10003422 <__wrap___aeabi_ddiv>
10001cd0:	2200      	movs	r2, #0
10001cd2:	4b8d      	ldr	r3, [pc, #564]	; (10001f08 <_etoa+0x3dc>)
10001cd4:	f001 fb9c 	bl	10003410 <__wrap___aeabi_dadd>
10001cd8:	9b10      	ldr	r3, [sp, #64]	; 0x40
10001cda:	4a99      	ldr	r2, [pc, #612]	; (10001f40 <_etoa+0x414>)
10001cdc:	001c      	movs	r4, r3
10001cde:	4694      	mov	ip, r2
10001ce0:	4464      	add	r4, ip
10001ce2:	2200      	movs	r2, #0
10001ce4:	0523      	lsls	r3, r4, #20
10001ce6:	f001 fba5 	bl	10003434 <__wrap___aeabi_dmul>
10001cea:	0006      	movs	r6, r0
10001cec:	000f      	movs	r7, r1
10001cee:	0002      	movs	r2, r0
10001cf0:	000b      	movs	r3, r1
10001cf2:	980a      	ldr	r0, [sp, #40]	; 0x28
10001cf4:	9909      	ldr	r1, [sp, #36]	; 0x24
10001cf6:	f001 fbdf 	bl	100034b8 <__wrap___aeabi_dcmplt>
10001cfa:	2800      	cmp	r0, #0
10001cfc:	d00a      	beq.n	10001d14 <_etoa+0x1e8>
10001cfe:	9b0d      	ldr	r3, [sp, #52]	; 0x34
10001d00:	0030      	movs	r0, r6
10001d02:	3b01      	subs	r3, #1
10001d04:	0039      	movs	r1, r7
10001d06:	930d      	str	r3, [sp, #52]	; 0x34
10001d08:	2200      	movs	r2, #0
10001d0a:	4b8b      	ldr	r3, [pc, #556]	; (10001f38 <_etoa+0x40c>)
10001d0c:	f001 fb89 	bl	10003422 <__wrap___aeabi_ddiv>
10001d10:	0006      	movs	r6, r0
10001d12:	000f      	movs	r7, r1
10001d14:	9d0d      	ldr	r5, [sp, #52]	; 0x34
10001d16:	24c6      	movs	r4, #198	; 0xc6
10001d18:	002b      	movs	r3, r5
10001d1a:	3363      	adds	r3, #99	; 0x63
10001d1c:	429c      	cmp	r4, r3
10001d1e:	41a4      	sbcs	r4, r4
10001d20:	9b28      	ldr	r3, [sp, #160]	; 0xa0
10001d22:	4264      	negs	r4, r4
10001d24:	3404      	adds	r4, #4
10001d26:	051b      	lsls	r3, r3, #20
10001d28:	d51f      	bpl.n	10001d6a <_etoa+0x23e>
10001d2a:	4a86      	ldr	r2, [pc, #536]	; (10001f44 <_etoa+0x418>)
10001d2c:	4b86      	ldr	r3, [pc, #536]	; (10001f48 <_etoa+0x41c>)
10001d2e:	980a      	ldr	r0, [sp, #40]	; 0x28
10001d30:	9909      	ldr	r1, [sp, #36]	; 0x24
10001d32:	f001 fbcf 	bl	100034d4 <__wrap___aeabi_dcmpge>
10001d36:	2800      	cmp	r0, #0
10001d38:	d100      	bne.n	10001d3c <_etoa+0x210>
10001d3a:	e0cc      	b.n	10001ed6 <_etoa+0x3aa>
10001d3c:	2200      	movs	r2, #0
10001d3e:	4b83      	ldr	r3, [pc, #524]	; (10001f4c <_etoa+0x420>)
10001d40:	980a      	ldr	r0, [sp, #40]	; 0x28
10001d42:	9909      	ldr	r1, [sp, #36]	; 0x24
10001d44:	f001 fbb8 	bl	100034b8 <__wrap___aeabi_dcmplt>
10001d48:	2800      	cmp	r0, #0
10001d4a:	d100      	bne.n	10001d4e <_etoa+0x222>
10001d4c:	e0c3      	b.n	10001ed6 <_etoa+0x3aa>
10001d4e:	9a26      	ldr	r2, [sp, #152]	; 0x98
10001d50:	4295      	cmp	r5, r2
10001d52:	da00      	bge.n	10001d56 <_etoa+0x22a>
10001d54:	e10b      	b.n	10001f6e <_etoa+0x442>
10001d56:	2300      	movs	r3, #0
10001d58:	9326      	str	r3, [sp, #152]	; 0x98
10001d5a:	2380      	movs	r3, #128	; 0x80
10001d5c:	9a28      	ldr	r2, [sp, #160]	; 0xa0
10001d5e:	00db      	lsls	r3, r3, #3
10001d60:	431a      	orrs	r2, r3
10001d62:	2300      	movs	r3, #0
10001d64:	2400      	movs	r4, #0
10001d66:	9228      	str	r2, [sp, #160]	; 0xa0
10001d68:	930d      	str	r3, [sp, #52]	; 0x34
10001d6a:	9b27      	ldr	r3, [sp, #156]	; 0x9c
10001d6c:	2500      	movs	r5, #0
10001d6e:	42a3      	cmp	r3, r4
10001d70:	d900      	bls.n	10001d74 <_etoa+0x248>
10001d72:	1b1d      	subs	r5, r3, r4
10001d74:	2302      	movs	r3, #2
10001d76:	9a28      	ldr	r2, [sp, #160]	; 0xa0
10001d78:	401a      	ands	r2, r3
10001d7a:	9210      	str	r2, [sp, #64]	; 0x40
10001d7c:	9a28      	ldr	r2, [sp, #160]	; 0xa0
10001d7e:	4213      	tst	r3, r2
10001d80:	d003      	beq.n	10001d8a <_etoa+0x25e>
10001d82:	4263      	negs	r3, r4
10001d84:	4163      	adcs	r3, r4
10001d86:	425b      	negs	r3, r3
10001d88:	401d      	ands	r5, r3
10001d8a:	9b0d      	ldr	r3, [sp, #52]	; 0x34
10001d8c:	2b00      	cmp	r3, #0
10001d8e:	d007      	beq.n	10001da0 <_etoa+0x274>
10001d90:	980a      	ldr	r0, [sp, #40]	; 0x28
10001d92:	9909      	ldr	r1, [sp, #36]	; 0x24
10001d94:	0032      	movs	r2, r6
10001d96:	003b      	movs	r3, r7
10001d98:	f001 fb43 	bl	10003422 <__wrap___aeabi_ddiv>
10001d9c:	900a      	str	r0, [sp, #40]	; 0x28
10001d9e:	9109      	str	r1, [sp, #36]	; 0x24
10001da0:	2200      	movs	r2, #0
10001da2:	2300      	movs	r3, #0
10001da4:	4648      	mov	r0, r9
10001da6:	4641      	mov	r1, r8
10001da8:	f001 fb86 	bl	100034b8 <__wrap___aeabi_dcmplt>
10001dac:	2800      	cmp	r0, #0
10001dae:	d005      	beq.n	10001dbc <_etoa+0x290>
10001db0:	2080      	movs	r0, #128	; 0x80
10001db2:	0600      	lsls	r0, r0, #24
10001db4:	4684      	mov	ip, r0
10001db6:	9909      	ldr	r1, [sp, #36]	; 0x24
10001db8:	4461      	add	r1, ip
10001dba:	9109      	str	r1, [sp, #36]	; 0x24
10001dbc:	9a28      	ldr	r2, [sp, #160]	; 0xa0
10001dbe:	4b64      	ldr	r3, [pc, #400]	; (10001f50 <_etoa+0x424>)
10001dc0:	9e0b      	ldr	r6, [sp, #44]	; 0x2c
10001dc2:	4013      	ands	r3, r2
10001dc4:	9304      	str	r3, [sp, #16]
10001dc6:	9b26      	ldr	r3, [sp, #152]	; 0x98
10001dc8:	9a0a      	ldr	r2, [sp, #40]	; 0x28
10001dca:	9302      	str	r3, [sp, #8]
10001dcc:	9b09      	ldr	r3, [sp, #36]	; 0x24
10001dce:	9503      	str	r5, [sp, #12]
10001dd0:	9200      	str	r2, [sp, #0]
10001dd2:	9301      	str	r3, [sp, #4]
10001dd4:	4659      	mov	r1, fp
10001dd6:	4653      	mov	r3, sl
10001dd8:	0030      	movs	r0, r6
10001dda:	9a0c      	ldr	r2, [sp, #48]	; 0x30
10001ddc:	f000 f8cc 	bl	10001f78 <_ftoa>
10001de0:	0005      	movs	r5, r0
10001de2:	2c00      	cmp	r4, #0
10001de4:	d06f      	beq.n	10001ec6 <_etoa+0x39a>
10001de6:	9b28      	ldr	r3, [sp, #160]	; 0xa0
10001de8:	002a      	movs	r2, r5
10001dea:	0698      	lsls	r0, r3, #26
10001dec:	231f      	movs	r3, #31
10001dee:	17c0      	asrs	r0, r0, #31
10001df0:	4398      	bics	r0, r3
10001df2:	1c6b      	adds	r3, r5, #1
10001df4:	4698      	mov	r8, r3
10001df6:	4659      	mov	r1, fp
10001df8:	4653      	mov	r3, sl
10001dfa:	3065      	adds	r0, #101	; 0x65
10001dfc:	47b0      	blx	r6
10001dfe:	9b0d      	ldr	r3, [sp, #52]	; 0x34
10001e00:	2600      	movs	r6, #0
10001e02:	17da      	asrs	r2, r3, #31
10001e04:	189d      	adds	r5, r3, r2
10001e06:	0fdb      	lsrs	r3, r3, #31
10001e08:	4699      	mov	r9, r3
10001e0a:	4055      	eors	r5, r2
10001e0c:	3c01      	subs	r4, #1
10001e0e:	e001      	b.n	10001e14 <_etoa+0x2e8>
10001e10:	2e20      	cmp	r6, #32
10001e12:	d013      	beq.n	10001e3c <_etoa+0x310>
10001e14:	aa0a      	add	r2, sp, #40	; 0x28
10001e16:	4694      	mov	ip, r2
10001e18:	231f      	movs	r3, #31
10001e1a:	0028      	movs	r0, r5
10001e1c:	4463      	add	r3, ip
10001e1e:	210a      	movs	r1, #10
10001e20:	3601      	adds	r6, #1
10001e22:	199f      	adds	r7, r3, r6
10001e24:	f001 f8a6 	bl	10002f74 <__wrap___aeabi_uidiv>
10001e28:	3130      	adds	r1, #48	; 0x30
10001e2a:	7039      	strb	r1, [r7, #0]
10001e2c:	0028      	movs	r0, r5
10001e2e:	210a      	movs	r1, #10
10001e30:	f001 f8a0 	bl	10002f74 <__wrap___aeabi_uidiv>
10001e34:	002f      	movs	r7, r5
10001e36:	0005      	movs	r5, r0
10001e38:	2f09      	cmp	r7, #9
10001e3a:	d8e9      	bhi.n	10001e10 <_etoa+0x2e4>
10001e3c:	2305      	movs	r3, #5
10001e3e:	9306      	str	r3, [sp, #24]
10001e40:	2300      	movs	r3, #0
10001e42:	9304      	str	r3, [sp, #16]
10001e44:	330a      	adds	r3, #10
10001e46:	9303      	str	r3, [sp, #12]
10001e48:	464b      	mov	r3, r9
10001e4a:	9601      	str	r6, [sp, #4]
10001e4c:	9e0b      	ldr	r6, [sp, #44]	; 0x2c
10001e4e:	9302      	str	r3, [sp, #8]
10001e50:	ab12      	add	r3, sp, #72	; 0x48
10001e52:	9300      	str	r3, [sp, #0]
10001e54:	4642      	mov	r2, r8
10001e56:	4653      	mov	r3, sl
10001e58:	4659      	mov	r1, fp
10001e5a:	0030      	movs	r0, r6
10001e5c:	9405      	str	r4, [sp, #20]
10001e5e:	f7ff fd6d 	bl	1000193c <_ntoa_format>
10001e62:	9b10      	ldr	r3, [sp, #64]	; 0x40
10001e64:	0005      	movs	r5, r0
10001e66:	2b00      	cmp	r3, #0
10001e68:	d02d      	beq.n	10001ec6 <_etoa+0x39a>
10001e6a:	9b0c      	ldr	r3, [sp, #48]	; 0x30
10001e6c:	9a27      	ldr	r2, [sp, #156]	; 0x9c
10001e6e:	1ac4      	subs	r4, r0, r3
10001e70:	42a2      	cmp	r2, r4
10001e72:	d928      	bls.n	10001ec6 <_etoa+0x39a>
10001e74:	4681      	mov	r9, r0
10001e76:	465d      	mov	r5, fp
10001e78:	4698      	mov	r8, r3
10001e7a:	0017      	movs	r7, r2
10001e7c:	4643      	mov	r3, r8
10001e7e:	0029      	movs	r1, r5
10001e80:	191a      	adds	r2, r3, r4
10001e82:	2020      	movs	r0, #32
10001e84:	4653      	mov	r3, sl
10001e86:	3401      	adds	r4, #1
10001e88:	47b0      	blx	r6
10001e8a:	42a7      	cmp	r7, r4
10001e8c:	d8f6      	bhi.n	10001e7c <_etoa+0x350>
10001e8e:	464d      	mov	r5, r9
10001e90:	990c      	ldr	r1, [sp, #48]	; 0x30
10001e92:	9827      	ldr	r0, [sp, #156]	; 0x9c
10001e94:	1a6b      	subs	r3, r5, r1
10001e96:	3301      	adds	r3, #1
10001e98:	2200      	movs	r2, #0
10001e9a:	4298      	cmp	r0, r3
10001e9c:	d261      	bcs.n	10001f62 <_etoa+0x436>
10001e9e:	3501      	adds	r5, #1
10001ea0:	1955      	adds	r5, r2, r5
10001ea2:	e010      	b.n	10001ec6 <_etoa+0x39a>
10001ea4:	9b28      	ldr	r3, [sp, #160]	; 0xa0
10001ea6:	464a      	mov	r2, r9
10001ea8:	9304      	str	r3, [sp, #16]
10001eaa:	9b27      	ldr	r3, [sp, #156]	; 0x9c
10001eac:	4659      	mov	r1, fp
10001eae:	9303      	str	r3, [sp, #12]
10001eb0:	9b26      	ldr	r3, [sp, #152]	; 0x98
10001eb2:	980b      	ldr	r0, [sp, #44]	; 0x2c
10001eb4:	9302      	str	r3, [sp, #8]
10001eb6:	4643      	mov	r3, r8
10001eb8:	9200      	str	r2, [sp, #0]
10001eba:	9301      	str	r3, [sp, #4]
10001ebc:	4653      	mov	r3, sl
10001ebe:	9a0c      	ldr	r2, [sp, #48]	; 0x30
10001ec0:	f000 f85a 	bl	10001f78 <_ftoa>
10001ec4:	0005      	movs	r5, r0
10001ec6:	0028      	movs	r0, r5
10001ec8:	b01b      	add	sp, #108	; 0x6c
10001eca:	bc3c      	pop	{r2, r3, r4, r5}
10001ecc:	4690      	mov	r8, r2
10001ece:	4699      	mov	r9, r3
10001ed0:	46a2      	mov	sl, r4
10001ed2:	46ab      	mov	fp, r5
10001ed4:	bdf0      	pop	{r4, r5, r6, r7, pc}
10001ed6:	9b26      	ldr	r3, [sp, #152]	; 0x98
10001ed8:	2b00      	cmp	r3, #0
10001eda:	d100      	bne.n	10001ede <_etoa+0x3b2>
10001edc:	e745      	b.n	10001d6a <_etoa+0x23e>
10001ede:	9b11      	ldr	r3, [sp, #68]	; 0x44
10001ee0:	1e5a      	subs	r2, r3, #1
10001ee2:	4193      	sbcs	r3, r2
10001ee4:	9a26      	ldr	r2, [sp, #152]	; 0x98
10001ee6:	1ad3      	subs	r3, r2, r3
10001ee8:	9326      	str	r3, [sp, #152]	; 0x98
10001eea:	e73e      	b.n	10001d6a <_etoa+0x23e>
10001eec:	7fefffff 	.word	0x7fefffff
10001ef0:	ffefffff 	.word	0xffefffff
10001ef4:	fffffc01 	.word	0xfffffc01
10001ef8:	509f79fb 	.word	0x509f79fb
10001efc:	3fd34413 	.word	0x3fd34413
10001f00:	8b60c8b3 	.word	0x8b60c8b3
10001f04:	3fc68a28 	.word	0x3fc68a28
10001f08:	3ff00000 	.word	0x3ff00000
10001f0c:	3ff80000 	.word	0x3ff80000
10001f10:	636f4361 	.word	0x636f4361
10001f14:	3fd287a7 	.word	0x3fd287a7
10001f18:	0979a371 	.word	0x0979a371
10001f1c:	400a934f 	.word	0x400a934f
10001f20:	3fe00000 	.word	0x3fe00000
10001f24:	bbb55516 	.word	0xbbb55516
10001f28:	40026bb1 	.word	0x40026bb1
10001f2c:	fefa39ef 	.word	0xfefa39ef
10001f30:	3fe62e42 	.word	0x3fe62e42
10001f34:	402c0000 	.word	0x402c0000
10001f38:	40240000 	.word	0x40240000
10001f3c:	40180000 	.word	0x40180000
10001f40:	000003ff 	.word	0x000003ff
10001f44:	eb1c432d 	.word	0xeb1c432d
10001f48:	3f1a36e2 	.word	0x3f1a36e2
10001f4c:	412e8480 	.word	0x412e8480
10001f50:	fffff7ff 	.word	0xfffff7ff
10001f54:	464b      	mov	r3, r9
10001f56:	930a      	str	r3, [sp, #40]	; 0x28
10001f58:	2380      	movs	r3, #128	; 0x80
10001f5a:	061b      	lsls	r3, r3, #24
10001f5c:	4443      	add	r3, r8
10001f5e:	9309      	str	r3, [sp, #36]	; 0x24
10001f60:	e61d      	b.n	10001b9e <_etoa+0x72>
10001f62:	000a      	movs	r2, r1
10001f64:	4684      	mov	ip, r0
10001f66:	3a01      	subs	r2, #1
10001f68:	4462      	add	r2, ip
10001f6a:	1b52      	subs	r2, r2, r5
10001f6c:	e797      	b.n	10001e9e <_etoa+0x372>
10001f6e:	1b50      	subs	r0, r2, r5
10001f70:	1e43      	subs	r3, r0, #1
10001f72:	9326      	str	r3, [sp, #152]	; 0x98
10001f74:	e6f1      	b.n	10001d5a <_etoa+0x22e>
10001f76:	46c0      	nop			; (mov r8, r8)

10001f78 <_ftoa>:
10001f78:	b5f0      	push	{r4, r5, r6, r7, lr}
10001f7a:	464e      	mov	r6, r9
10001f7c:	46de      	mov	lr, fp
10001f7e:	4657      	mov	r7, sl
10001f80:	4645      	mov	r5, r8
10001f82:	b5e0      	push	{r5, r6, r7, lr}
10001f84:	b097      	sub	sp, #92	; 0x5c
10001f86:	4699      	mov	r9, r3
10001f88:	9e20      	ldr	r6, [sp, #128]	; 0x80
10001f8a:	9f21      	ldr	r7, [sp, #132]	; 0x84
10001f8c:	9b22      	ldr	r3, [sp, #136]	; 0x88
10001f8e:	4683      	mov	fp, r0
10001f90:	4698      	mov	r8, r3
10001f92:	9107      	str	r1, [sp, #28]
10001f94:	920c      	str	r2, [sp, #48]	; 0x30
10001f96:	003b      	movs	r3, r7
10001f98:	0032      	movs	r2, r6
10001f9a:	0030      	movs	r0, r6
10001f9c:	0039      	movs	r1, r7
10001f9e:	f001 faa6 	bl	100034ee <__wrap___aeabi_dcmpun>
10001fa2:	2800      	cmp	r0, #0
10001fa4:	d000      	beq.n	10001fa8 <_ftoa+0x30>
10001fa6:	e1c1      	b.n	1000232c <_ftoa+0x3b4>
10001fa8:	2201      	movs	r2, #1
10001faa:	0030      	movs	r0, r6
10001fac:	0039      	movs	r1, r7
10001fae:	4bca      	ldr	r3, [pc, #808]	; (100022d8 <_ftoa+0x360>)
10001fb0:	4252      	negs	r2, r2
10001fb2:	f001 fa81 	bl	100034b8 <__wrap___aeabi_dcmplt>
10001fb6:	2800      	cmp	r0, #0
10001fb8:	d000      	beq.n	10001fbc <_ftoa+0x44>
10001fba:	e0e0      	b.n	1000217e <_ftoa+0x206>
10001fbc:	2201      	movs	r2, #1
10001fbe:	0030      	movs	r0, r6
10001fc0:	0039      	movs	r1, r7
10001fc2:	4bc6      	ldr	r3, [pc, #792]	; (100022dc <_ftoa+0x364>)
10001fc4:	4252      	negs	r2, r2
10001fc6:	f001 fa8d 	bl	100034e4 <__wrap___aeabi_dcmpgt>
10001fca:	2800      	cmp	r0, #0
10001fcc:	d000      	beq.n	10001fd0 <_ftoa+0x58>
10001fce:	e0b6      	b.n	1000213e <_ftoa+0x1c6>
10001fd0:	2200      	movs	r2, #0
10001fd2:	0030      	movs	r0, r6
10001fd4:	0039      	movs	r1, r7
10001fd6:	4bc2      	ldr	r3, [pc, #776]	; (100022e0 <_ftoa+0x368>)
10001fd8:	f001 fa84 	bl	100034e4 <__wrap___aeabi_dcmpgt>
10001fdc:	2800      	cmp	r0, #0
10001fde:	d000      	beq.n	10001fe2 <_ftoa+0x6a>
10001fe0:	e098      	b.n	10002114 <_ftoa+0x19c>
10001fe2:	2200      	movs	r2, #0
10001fe4:	0030      	movs	r0, r6
10001fe6:	0039      	movs	r1, r7
10001fe8:	4bbe      	ldr	r3, [pc, #760]	; (100022e4 <_ftoa+0x36c>)
10001fea:	f001 fa65 	bl	100034b8 <__wrap___aeabi_dcmplt>
10001fee:	2800      	cmp	r0, #0
10001ff0:	d000      	beq.n	10001ff4 <_ftoa+0x7c>
10001ff2:	e08f      	b.n	10002114 <_ftoa+0x19c>
10001ff4:	2200      	movs	r2, #0
10001ff6:	2300      	movs	r3, #0
10001ff8:	0030      	movs	r0, r6
10001ffa:	0039      	movs	r1, r7
10001ffc:	f001 fa5c 	bl	100034b8 <__wrap___aeabi_dcmplt>
10002000:	2800      	cmp	r0, #0
10002002:	d000      	beq.n	10002006 <_ftoa+0x8e>
10002004:	e0b0      	b.n	10002168 <_ftoa+0x1f0>
10002006:	2300      	movs	r3, #0
10002008:	930d      	str	r3, [sp, #52]	; 0x34
1000200a:	9b24      	ldr	r3, [sp, #144]	; 0x90
1000200c:	055b      	lsls	r3, r3, #21
1000200e:	d401      	bmi.n	10002014 <_ftoa+0x9c>
10002010:	2306      	movs	r3, #6
10002012:	4698      	mov	r8, r3
10002014:	ab08      	add	r3, sp, #32
10002016:	469c      	mov	ip, r3
10002018:	2217      	movs	r2, #23
1000201a:	2400      	movs	r4, #0
1000201c:	2330      	movs	r3, #48	; 0x30
1000201e:	4641      	mov	r1, r8
10002020:	4462      	add	r2, ip
10002022:	e004      	b.n	1000202e <_ftoa+0xb6>
10002024:	3401      	adds	r4, #1
10002026:	5513      	strb	r3, [r2, r4]
10002028:	3901      	subs	r1, #1
1000202a:	2c20      	cmp	r4, #32
1000202c:	d001      	beq.n	10002032 <_ftoa+0xba>
1000202e:	2909      	cmp	r1, #9
10002030:	d8f8      	bhi.n	10002024 <_ftoa+0xac>
10002032:	4688      	mov	r8, r1
10002034:	0030      	movs	r0, r6
10002036:	0039      	movs	r1, r7
10002038:	f001 fa84 	bl	10003544 <__wrap___aeabi_d2iz>
1000203c:	4643      	mov	r3, r8
1000203e:	00da      	lsls	r2, r3, #3
10002040:	4ba9      	ldr	r3, [pc, #676]	; (100022e8 <_ftoa+0x370>)
10002042:	0005      	movs	r5, r0
10002044:	189b      	adds	r3, r3, r2
10002046:	681a      	ldr	r2, [r3, #0]
10002048:	685b      	ldr	r3, [r3, #4]
1000204a:	9208      	str	r2, [sp, #32]
1000204c:	9309      	str	r3, [sp, #36]	; 0x24
1000204e:	f001 fa61 	bl	10003514 <__wrap___aeabi_i2d>
10002052:	0002      	movs	r2, r0
10002054:	000b      	movs	r3, r1
10002056:	0030      	movs	r0, r6
10002058:	0039      	movs	r1, r7
1000205a:	f001 f9d0 	bl	100033fe <__wrap___aeabi_dsub>
1000205e:	9a08      	ldr	r2, [sp, #32]
10002060:	9b09      	ldr	r3, [sp, #36]	; 0x24
10002062:	f001 f9e7 	bl	10003434 <__wrap___aeabi_dmul>
10002066:	900a      	str	r0, [sp, #40]	; 0x28
10002068:	910b      	str	r1, [sp, #44]	; 0x2c
1000206a:	f001 fa8f 	bl	1000358c <__wrap___aeabi_d2uiz>
1000206e:	4682      	mov	sl, r0
10002070:	f001 fa4c 	bl	1000350c <__wrap___aeabi_ui2d>
10002074:	0002      	movs	r2, r0
10002076:	000b      	movs	r3, r1
10002078:	980a      	ldr	r0, [sp, #40]	; 0x28
1000207a:	990b      	ldr	r1, [sp, #44]	; 0x2c
1000207c:	f001 f9bf 	bl	100033fe <__wrap___aeabi_dsub>
10002080:	2200      	movs	r2, #0
10002082:	4b9a      	ldr	r3, [pc, #616]	; (100022ec <_ftoa+0x374>)
10002084:	900a      	str	r0, [sp, #40]	; 0x28
10002086:	910b      	str	r1, [sp, #44]	; 0x2c
10002088:	f001 fa2c 	bl	100034e4 <__wrap___aeabi_dcmpgt>
1000208c:	2800      	cmp	r0, #0
1000208e:	d100      	bne.n	10002092 <_ftoa+0x11a>
10002090:	e0c0      	b.n	10002214 <_ftoa+0x29c>
10002092:	2301      	movs	r3, #1
10002094:	469c      	mov	ip, r3
10002096:	44e2      	add	sl, ip
10002098:	4650      	mov	r0, sl
1000209a:	f001 fa37 	bl	1000350c <__wrap___aeabi_ui2d>
1000209e:	0002      	movs	r2, r0
100020a0:	000b      	movs	r3, r1
100020a2:	9808      	ldr	r0, [sp, #32]
100020a4:	9909      	ldr	r1, [sp, #36]	; 0x24
100020a6:	f001 fa0d 	bl	100034c4 <__wrap___aeabi_dcmple>
100020aa:	2800      	cmp	r0, #0
100020ac:	d002      	beq.n	100020b4 <_ftoa+0x13c>
100020ae:	2300      	movs	r3, #0
100020b0:	469a      	mov	sl, r3
100020b2:	3501      	adds	r5, #1
100020b4:	4643      	mov	r3, r8
100020b6:	2b00      	cmp	r3, #0
100020b8:	d069      	beq.n	1000218e <_ftoa+0x216>
100020ba:	ab08      	add	r3, sp, #32
100020bc:	2617      	movs	r6, #23
100020be:	469c      	mov	ip, r3
100020c0:	9508      	str	r5, [sp, #32]
100020c2:	4466      	add	r6, ip
100020c4:	4655      	mov	r5, sl
100020c6:	e014      	b.n	100020f2 <_ftoa+0x17a>
100020c8:	2301      	movs	r3, #1
100020ca:	425b      	negs	r3, r3
100020cc:	4443      	add	r3, r8
100020ce:	210a      	movs	r1, #10
100020d0:	0028      	movs	r0, r5
100020d2:	469a      	mov	sl, r3
100020d4:	f000 ff4e 	bl	10002f74 <__wrap___aeabi_uidiv>
100020d8:	3401      	adds	r4, #1
100020da:	3130      	adds	r1, #48	; 0x30
100020dc:	1937      	adds	r7, r6, r4
100020de:	7039      	strb	r1, [r7, #0]
100020e0:	0028      	movs	r0, r5
100020e2:	210a      	movs	r1, #10
100020e4:	f000 ff46 	bl	10002f74 <__wrap___aeabi_uidiv>
100020e8:	2d09      	cmp	r5, #9
100020ea:	d800      	bhi.n	100020ee <_ftoa+0x176>
100020ec:	e0d5      	b.n	1000229a <_ftoa+0x322>
100020ee:	46d0      	mov	r8, sl
100020f0:	0005      	movs	r5, r0
100020f2:	2c20      	cmp	r4, #32
100020f4:	d1e8      	bne.n	100020c8 <_ftoa+0x150>
100020f6:	2303      	movs	r3, #3
100020f8:	9a24      	ldr	r2, [sp, #144]	; 0x90
100020fa:	4013      	ands	r3, r2
100020fc:	2b01      	cmp	r3, #1
100020fe:	d100      	bne.n	10002102 <_ftoa+0x18a>
10002100:	e100      	b.n	10002304 <_ftoa+0x38c>
10002102:	ab0e      	add	r3, sp, #56	; 0x38
10002104:	4698      	mov	r8, r3
10002106:	9b24      	ldr	r3, [sp, #144]	; 0x90
10002108:	9401      	str	r4, [sp, #4]
1000210a:	9303      	str	r3, [sp, #12]
1000210c:	9b23      	ldr	r3, [sp, #140]	; 0x8c
1000210e:	9302      	str	r3, [sp, #8]
10002110:	4643      	mov	r3, r8
10002112:	e01e      	b.n	10002152 <_ftoa+0x1da>
10002114:	9b24      	ldr	r3, [sp, #144]	; 0x90
10002116:	4658      	mov	r0, fp
10002118:	9304      	str	r3, [sp, #16]
1000211a:	9b23      	ldr	r3, [sp, #140]	; 0x8c
1000211c:	9600      	str	r6, [sp, #0]
1000211e:	9701      	str	r7, [sp, #4]
10002120:	9303      	str	r3, [sp, #12]
10002122:	4643      	mov	r3, r8
10002124:	9a0c      	ldr	r2, [sp, #48]	; 0x30
10002126:	9302      	str	r3, [sp, #8]
10002128:	9907      	ldr	r1, [sp, #28]
1000212a:	464b      	mov	r3, r9
1000212c:	f7ff fcfe 	bl	10001b2c <_etoa>
10002130:	b017      	add	sp, #92	; 0x5c
10002132:	bc3c      	pop	{r2, r3, r4, r5}
10002134:	4690      	mov	r8, r2
10002136:	4699      	mov	r9, r3
10002138:	46a2      	mov	sl, r4
1000213a:	46ab      	mov	fp, r5
1000213c:	bdf0      	pop	{r4, r5, r6, r7, pc}
1000213e:	9b24      	ldr	r3, [sp, #144]	; 0x90
10002140:	075b      	lsls	r3, r3, #29
10002142:	d40e      	bmi.n	10002162 <_ftoa+0x1ea>
10002144:	2203      	movs	r2, #3
10002146:	4b6a      	ldr	r3, [pc, #424]	; (100022f0 <_ftoa+0x378>)
10002148:	9924      	ldr	r1, [sp, #144]	; 0x90
1000214a:	9201      	str	r2, [sp, #4]
1000214c:	9103      	str	r1, [sp, #12]
1000214e:	9923      	ldr	r1, [sp, #140]	; 0x8c
10002150:	9102      	str	r1, [sp, #8]
10002152:	9300      	str	r3, [sp, #0]
10002154:	4658      	mov	r0, fp
10002156:	464b      	mov	r3, r9
10002158:	9a0c      	ldr	r2, [sp, #48]	; 0x30
1000215a:	9907      	ldr	r1, [sp, #28]
1000215c:	f7ff fb86 	bl	1000186c <_out_rev>
10002160:	e7e6      	b.n	10002130 <_ftoa+0x1b8>
10002162:	2204      	movs	r2, #4
10002164:	4b63      	ldr	r3, [pc, #396]	; (100022f4 <_ftoa+0x37c>)
10002166:	e7ef      	b.n	10002148 <_ftoa+0x1d0>
10002168:	003b      	movs	r3, r7
1000216a:	0032      	movs	r2, r6
1000216c:	2000      	movs	r0, #0
1000216e:	2100      	movs	r1, #0
10002170:	f001 f945 	bl	100033fe <__wrap___aeabi_dsub>
10002174:	2301      	movs	r3, #1
10002176:	0006      	movs	r6, r0
10002178:	000f      	movs	r7, r1
1000217a:	930d      	str	r3, [sp, #52]	; 0x34
1000217c:	e745      	b.n	1000200a <_ftoa+0x92>
1000217e:	9b24      	ldr	r3, [sp, #144]	; 0x90
10002180:	9303      	str	r3, [sp, #12]
10002182:	9b23      	ldr	r3, [sp, #140]	; 0x8c
10002184:	9302      	str	r3, [sp, #8]
10002186:	2304      	movs	r3, #4
10002188:	9301      	str	r3, [sp, #4]
1000218a:	4b5b      	ldr	r3, [pc, #364]	; (100022f8 <_ftoa+0x380>)
1000218c:	e7e1      	b.n	10002152 <_ftoa+0x1da>
1000218e:	0028      	movs	r0, r5
10002190:	f001 f9c0 	bl	10003514 <__wrap___aeabi_i2d>
10002194:	0002      	movs	r2, r0
10002196:	000b      	movs	r3, r1
10002198:	0030      	movs	r0, r6
1000219a:	0039      	movs	r1, r7
1000219c:	f001 f92f 	bl	100033fe <__wrap___aeabi_dsub>
100021a0:	4b52      	ldr	r3, [pc, #328]	; (100022ec <_ftoa+0x374>)
100021a2:	2200      	movs	r2, #0
100021a4:	0006      	movs	r6, r0
100021a6:	000f      	movs	r7, r1
100021a8:	f001 f986 	bl	100034b8 <__wrap___aeabi_dcmplt>
100021ac:	ab0e      	add	r3, sp, #56	; 0x38
100021ae:	4698      	mov	r8, r3
100021b0:	2800      	cmp	r0, #0
100021b2:	d10a      	bne.n	100021ca <_ftoa+0x252>
100021b4:	2200      	movs	r2, #0
100021b6:	0030      	movs	r0, r6
100021b8:	0039      	movs	r1, r7
100021ba:	4b4c      	ldr	r3, [pc, #304]	; (100022ec <_ftoa+0x374>)
100021bc:	f001 f992 	bl	100034e4 <__wrap___aeabi_dcmpgt>
100021c0:	2800      	cmp	r0, #0
100021c2:	d102      	bne.n	100021ca <_ftoa+0x252>
100021c4:	07eb      	lsls	r3, r5, #31
100021c6:	d500      	bpl.n	100021ca <_ftoa+0x252>
100021c8:	3501      	adds	r5, #1
100021ca:	2c20      	cmp	r4, #32
100021cc:	d032      	beq.n	10002234 <_ftoa+0x2bc>
100021ce:	aa08      	add	r2, sp, #32
100021d0:	4694      	mov	ip, r2
100021d2:	2317      	movs	r3, #23
100021d4:	0028      	movs	r0, r5
100021d6:	4463      	add	r3, ip
100021d8:	210a      	movs	r1, #10
100021da:	3401      	adds	r4, #1
100021dc:	191e      	adds	r6, r3, r4
100021de:	f000 fe9d 	bl	10002f1c <__wrap___aeabi_idiv>
100021e2:	3130      	adds	r1, #48	; 0x30
100021e4:	0028      	movs	r0, r5
100021e6:	7031      	strb	r1, [r6, #0]
100021e8:	210a      	movs	r1, #10
100021ea:	f000 fe97 	bl	10002f1c <__wrap___aeabi_idiv>
100021ee:	1e05      	subs	r5, r0, #0
100021f0:	d1eb      	bne.n	100021ca <_ftoa+0x252>
100021f2:	2303      	movs	r3, #3
100021f4:	9a24      	ldr	r2, [sp, #144]	; 0x90
100021f6:	4013      	ands	r3, r2
100021f8:	2b01      	cmp	r3, #1
100021fa:	d100      	bne.n	100021fe <_ftoa+0x286>
100021fc:	e091      	b.n	10002322 <_ftoa+0x3aa>
100021fe:	2c1f      	cmp	r4, #31
10002200:	d900      	bls.n	10002204 <_ftoa+0x28c>
10002202:	e780      	b.n	10002106 <_ftoa+0x18e>
10002204:	9b0d      	ldr	r3, [sp, #52]	; 0x34
10002206:	2b00      	cmp	r3, #0
10002208:	d03b      	beq.n	10002282 <_ftoa+0x30a>
1000220a:	232d      	movs	r3, #45	; 0x2d
1000220c:	4642      	mov	r2, r8
1000220e:	5513      	strb	r3, [r2, r4]
10002210:	3401      	adds	r4, #1
10002212:	e778      	b.n	10002106 <_ftoa+0x18e>
10002214:	2200      	movs	r2, #0
10002216:	980a      	ldr	r0, [sp, #40]	; 0x28
10002218:	990b      	ldr	r1, [sp, #44]	; 0x2c
1000221a:	4b34      	ldr	r3, [pc, #208]	; (100022ec <_ftoa+0x374>)
1000221c:	f001 f94c 	bl	100034b8 <__wrap___aeabi_dcmplt>
10002220:	2800      	cmp	r0, #0
10002222:	d000      	beq.n	10002226 <_ftoa+0x2ae>
10002224:	e746      	b.n	100020b4 <_ftoa+0x13c>
10002226:	4653      	mov	r3, sl
10002228:	2b00      	cmp	r3, #0
1000222a:	d167      	bne.n	100022fc <_ftoa+0x384>
1000222c:	2301      	movs	r3, #1
1000222e:	469c      	mov	ip, r3
10002230:	44e2      	add	sl, ip
10002232:	e73f      	b.n	100020b4 <_ftoa+0x13c>
10002234:	2303      	movs	r3, #3
10002236:	9a24      	ldr	r2, [sp, #144]	; 0x90
10002238:	4013      	ands	r3, r2
1000223a:	2b01      	cmp	r3, #1
1000223c:	d000      	beq.n	10002240 <_ftoa+0x2c8>
1000223e:	e762      	b.n	10002106 <_ftoa+0x18e>
10002240:	9b23      	ldr	r3, [sp, #140]	; 0x8c
10002242:	2b00      	cmp	r3, #0
10002244:	d100      	bne.n	10002248 <_ftoa+0x2d0>
10002246:	e75e      	b.n	10002106 <_ftoa+0x18e>
10002248:	9b0d      	ldr	r3, [sp, #52]	; 0x34
1000224a:	2b00      	cmp	r3, #0
1000224c:	d103      	bne.n	10002256 <_ftoa+0x2de>
1000224e:	9a24      	ldr	r2, [sp, #144]	; 0x90
10002250:	330c      	adds	r3, #12
10002252:	4213      	tst	r3, r2
10002254:	d002      	beq.n	1000225c <_ftoa+0x2e4>
10002256:	9b23      	ldr	r3, [sp, #140]	; 0x8c
10002258:	3b01      	subs	r3, #1
1000225a:	9323      	str	r3, [sp, #140]	; 0x8c
1000225c:	9b23      	ldr	r3, [sp, #140]	; 0x8c
1000225e:	429c      	cmp	r4, r3
10002260:	d2cd      	bcs.n	100021fe <_ftoa+0x286>
10002262:	ab08      	add	r3, sp, #32
10002264:	469c      	mov	ip, r3
10002266:	2217      	movs	r2, #23
10002268:	2330      	movs	r3, #48	; 0x30
1000226a:	4462      	add	r2, ip
1000226c:	2c1f      	cmp	r4, #31
1000226e:	d806      	bhi.n	1000227e <_ftoa+0x306>
10002270:	9923      	ldr	r1, [sp, #140]	; 0x8c
10002272:	3401      	adds	r4, #1
10002274:	5513      	strb	r3, [r2, r4]
10002276:	428c      	cmp	r4, r1
10002278:	d0c1      	beq.n	100021fe <_ftoa+0x286>
1000227a:	2c20      	cmp	r4, #32
1000227c:	d1f8      	bne.n	10002270 <_ftoa+0x2f8>
1000227e:	2420      	movs	r4, #32
10002280:	e741      	b.n	10002106 <_ftoa+0x18e>
10002282:	9b24      	ldr	r3, [sp, #144]	; 0x90
10002284:	075b      	lsls	r3, r3, #29
10002286:	d421      	bmi.n	100022cc <_ftoa+0x354>
10002288:	9b24      	ldr	r3, [sp, #144]	; 0x90
1000228a:	071b      	lsls	r3, r3, #28
1000228c:	d400      	bmi.n	10002290 <_ftoa+0x318>
1000228e:	e73a      	b.n	10002106 <_ftoa+0x18e>
10002290:	2320      	movs	r3, #32
10002292:	4642      	mov	r2, r8
10002294:	5513      	strb	r3, [r2, r4]
10002296:	3401      	adds	r4, #1
10002298:	e735      	b.n	10002106 <_ftoa+0x18e>
1000229a:	4657      	mov	r7, sl
1000229c:	9d08      	ldr	r5, [sp, #32]
1000229e:	2c20      	cmp	r4, #32
100022a0:	d037      	beq.n	10002312 <_ftoa+0x39a>
100022a2:	0022      	movs	r2, r4
100022a4:	2130      	movs	r1, #48	; 0x30
100022a6:	4640      	mov	r0, r8
100022a8:	2f00      	cmp	r7, #0
100022aa:	d008      	beq.n	100022be <_ftoa+0x346>
100022ac:	3201      	adds	r2, #1
100022ae:	54b1      	strb	r1, [r6, r2]
100022b0:	2a20      	cmp	r2, #32
100022b2:	d043      	beq.n	1000233c <_ftoa+0x3c4>
100022b4:	43d3      	mvns	r3, r2
100022b6:	191b      	adds	r3, r3, r4
100022b8:	181b      	adds	r3, r3, r0
100022ba:	2b00      	cmp	r3, #0
100022bc:	d1f6      	bne.n	100022ac <_ftoa+0x334>
100022be:	ab0e      	add	r3, sp, #56	; 0x38
100022c0:	4698      	mov	r8, r3
100022c2:	232e      	movs	r3, #46	; 0x2e
100022c4:	4641      	mov	r1, r8
100022c6:	1c54      	adds	r4, r2, #1
100022c8:	548b      	strb	r3, [r1, r2]
100022ca:	e77e      	b.n	100021ca <_ftoa+0x252>
100022cc:	232b      	movs	r3, #43	; 0x2b
100022ce:	4642      	mov	r2, r8
100022d0:	5513      	strb	r3, [r2, r4]
100022d2:	3401      	adds	r4, #1
100022d4:	e717      	b.n	10002106 <_ftoa+0x18e>
100022d6:	46c0      	nop			; (mov r8, r8)
100022d8:	ffefffff 	.word	0xffefffff
100022dc:	7fefffff 	.word	0x7fefffff
100022e0:	41cdcd65 	.word	0x41cdcd65
100022e4:	c1cdcd65 	.word	0xc1cdcd65
100022e8:	10004f68 	.word	0x10004f68
100022ec:	3fe00000 	.word	0x3fe00000
100022f0:	10004d6c 	.word	0x10004d6c
100022f4:	10004d70 	.word	0x10004d70
100022f8:	10004d7c 	.word	0x10004d7c
100022fc:	07db      	lsls	r3, r3, #31
100022fe:	d400      	bmi.n	10002302 <_ftoa+0x38a>
10002300:	e6d8      	b.n	100020b4 <_ftoa+0x13c>
10002302:	e793      	b.n	1000222c <_ftoa+0x2b4>
10002304:	9b23      	ldr	r3, [sp, #140]	; 0x8c
10002306:	2b00      	cmp	r3, #0
10002308:	d100      	bne.n	1000230c <_ftoa+0x394>
1000230a:	e6fa      	b.n	10002102 <_ftoa+0x18a>
1000230c:	ab0e      	add	r3, sp, #56	; 0x38
1000230e:	4698      	mov	r8, r3
10002310:	e79a      	b.n	10002248 <_ftoa+0x2d0>
10002312:	2303      	movs	r3, #3
10002314:	9a24      	ldr	r2, [sp, #144]	; 0x90
10002316:	4013      	ands	r3, r2
10002318:	2b01      	cmp	r3, #1
1000231a:	d000      	beq.n	1000231e <_ftoa+0x3a6>
1000231c:	e6f1      	b.n	10002102 <_ftoa+0x18a>
1000231e:	ab0e      	add	r3, sp, #56	; 0x38
10002320:	4698      	mov	r8, r3
10002322:	9b23      	ldr	r3, [sp, #140]	; 0x8c
10002324:	2b00      	cmp	r3, #0
10002326:	d100      	bne.n	1000232a <_ftoa+0x3b2>
10002328:	e769      	b.n	100021fe <_ftoa+0x286>
1000232a:	e78d      	b.n	10002248 <_ftoa+0x2d0>
1000232c:	9b24      	ldr	r3, [sp, #144]	; 0x90
1000232e:	9303      	str	r3, [sp, #12]
10002330:	9b23      	ldr	r3, [sp, #140]	; 0x8c
10002332:	9302      	str	r3, [sp, #8]
10002334:	2303      	movs	r3, #3
10002336:	9301      	str	r3, [sp, #4]
10002338:	4b06      	ldr	r3, [pc, #24]	; (10002354 <_ftoa+0x3dc>)
1000233a:	e70a      	b.n	10002152 <_ftoa+0x1da>
1000233c:	2303      	movs	r3, #3
1000233e:	9a24      	ldr	r2, [sp, #144]	; 0x90
10002340:	2420      	movs	r4, #32
10002342:	4013      	ands	r3, r2
10002344:	2b01      	cmp	r3, #1
10002346:	d000      	beq.n	1000234a <_ftoa+0x3d2>
10002348:	e6db      	b.n	10002102 <_ftoa+0x18a>
1000234a:	9b23      	ldr	r3, [sp, #140]	; 0x8c
1000234c:	2420      	movs	r4, #32
1000234e:	2b00      	cmp	r3, #0
10002350:	d1dc      	bne.n	1000230c <_ftoa+0x394>
10002352:	e6d6      	b.n	10002102 <_ftoa+0x18a>
10002354:	10004d78 	.word	0x10004d78

10002358 <_vsnprintf>:
10002358:	b5f0      	push	{r4, r5, r6, r7, lr}
1000235a:	46de      	mov	lr, fp
1000235c:	464e      	mov	r6, r9
1000235e:	4657      	mov	r7, sl
10002360:	4645      	mov	r5, r8
10002362:	b5e0      	push	{r5, r6, r7, lr}
10002364:	b09f      	sub	sp, #124	; 0x7c
10002366:	001c      	movs	r4, r3
10002368:	9b28      	ldr	r3, [sp, #160]	; 0xa0
1000236a:	4693      	mov	fp, r2
1000236c:	9309      	str	r3, [sp, #36]	; 0x24
1000236e:	4acf      	ldr	r2, [pc, #828]	; (100026ac <_vsnprintf+0x354>)
10002370:	4bcf      	ldr	r3, [pc, #828]	; (100026b0 <_vsnprintf+0x358>)
10002372:	4689      	mov	r9, r1
10002374:	9008      	str	r0, [sp, #32]
10002376:	601a      	str	r2, [r3, #0]
10002378:	2900      	cmp	r1, #0
1000237a:	d100      	bne.n	1000237e <_vsnprintf+0x26>
1000237c:	e216      	b.n	100027ac <_vsnprintf+0x454>
1000237e:	2300      	movs	r3, #0
10002380:	7820      	ldrb	r0, [r4, #0]
10002382:	469a      	mov	sl, r3
10002384:	2800      	cmp	r0, #0
10002386:	d100      	bne.n	1000238a <_vsnprintf+0x32>
10002388:	e218      	b.n	100027bc <_vsnprintf+0x464>
1000238a:	0026      	movs	r6, r4
1000238c:	001d      	movs	r5, r3
1000238e:	464c      	mov	r4, r9
10002390:	e00a      	b.n	100023a8 <_vsnprintf+0x50>
10002392:	002a      	movs	r2, r5
10002394:	1c6f      	adds	r7, r5, #1
10002396:	465b      	mov	r3, fp
10002398:	9d08      	ldr	r5, [sp, #32]
1000239a:	0021      	movs	r1, r4
1000239c:	47a8      	blx	r5
1000239e:	003d      	movs	r5, r7
100023a0:	3601      	adds	r6, #1
100023a2:	7830      	ldrb	r0, [r6, #0]
100023a4:	2800      	cmp	r0, #0
100023a6:	d07a      	beq.n	1000249e <_vsnprintf+0x146>
100023a8:	2825      	cmp	r0, #37	; 0x25
100023aa:	d1f2      	bne.n	10002392 <_vsnprintf+0x3a>
100023ac:	2310      	movs	r3, #16
100023ae:	469a      	mov	sl, r3
100023b0:	3b08      	subs	r3, #8
100023b2:	4699      	mov	r9, r3
100023b4:	3b04      	subs	r3, #4
100023b6:	4698      	mov	r8, r3
100023b8:	3b02      	subs	r3, #2
100023ba:	2100      	movs	r1, #0
100023bc:	469c      	mov	ip, r3
100023be:	1c72      	adds	r2, r6, #1
100023c0:	7810      	ldrb	r0, [r2, #0]
100023c2:	0016      	movs	r6, r2
100023c4:	0003      	movs	r3, r0
100023c6:	3b20      	subs	r3, #32
100023c8:	b2db      	uxtb	r3, r3
100023ca:	2b10      	cmp	r3, #16
100023cc:	d803      	bhi.n	100023d6 <_vsnprintf+0x7e>
100023ce:	4fb9      	ldr	r7, [pc, #740]	; (100026b4 <_vsnprintf+0x35c>)
100023d0:	009b      	lsls	r3, r3, #2
100023d2:	58fb      	ldr	r3, [r7, r3]
100023d4:	469f      	mov	pc, r3
100023d6:	0003      	movs	r3, r0
100023d8:	3b30      	subs	r3, #48	; 0x30
100023da:	2b09      	cmp	r3, #9
100023dc:	d93c      	bls.n	10002458 <_vsnprintf+0x100>
100023de:	2300      	movs	r3, #0
100023e0:	930a      	str	r3, [sp, #40]	; 0x28
100023e2:	282a      	cmp	r0, #42	; 0x2a
100023e4:	d100      	bne.n	100023e8 <_vsnprintf+0x90>
100023e6:	e071      	b.n	100024cc <_vsnprintf+0x174>
100023e8:	2300      	movs	r3, #0
100023ea:	4698      	mov	r8, r3
100023ec:	282e      	cmp	r0, #46	; 0x2e
100023ee:	d047      	beq.n	10002480 <_vsnprintf+0x128>
100023f0:	0003      	movs	r3, r0
100023f2:	3b68      	subs	r3, #104	; 0x68
100023f4:	b2db      	uxtb	r3, r3
100023f6:	2b12      	cmp	r3, #18
100023f8:	d81f      	bhi.n	1000243a <_vsnprintf+0xe2>
100023fa:	4aaf      	ldr	r2, [pc, #700]	; (100026b8 <_vsnprintf+0x360>)
100023fc:	009b      	lsls	r3, r3, #2
100023fe:	58d3      	ldr	r3, [r2, r3]
10002400:	469f      	mov	pc, r3
10002402:	2301      	movs	r3, #1
10002404:	3201      	adds	r2, #1
10002406:	4319      	orrs	r1, r3
10002408:	e7da      	b.n	100023c0 <_vsnprintf+0x68>
1000240a:	4663      	mov	r3, ip
1000240c:	3201      	adds	r2, #1
1000240e:	4319      	orrs	r1, r3
10002410:	e7d6      	b.n	100023c0 <_vsnprintf+0x68>
10002412:	4643      	mov	r3, r8
10002414:	3201      	adds	r2, #1
10002416:	4319      	orrs	r1, r3
10002418:	e7d2      	b.n	100023c0 <_vsnprintf+0x68>
1000241a:	4653      	mov	r3, sl
1000241c:	3201      	adds	r2, #1
1000241e:	4319      	orrs	r1, r3
10002420:	e7ce      	b.n	100023c0 <_vsnprintf+0x68>
10002422:	464b      	mov	r3, r9
10002424:	3201      	adds	r2, #1
10002426:	4319      	orrs	r1, r3
10002428:	e7ca      	b.n	100023c0 <_vsnprintf+0x68>
1000242a:	7870      	ldrb	r0, [r6, #1]
1000242c:	286c      	cmp	r0, #108	; 0x6c
1000242e:	d100      	bne.n	10002432 <_vsnprintf+0xda>
10002430:	e2bf      	b.n	100029b2 <_vsnprintf+0x65a>
10002432:	2380      	movs	r3, #128	; 0x80
10002434:	005b      	lsls	r3, r3, #1
10002436:	4319      	orrs	r1, r3
10002438:	3601      	adds	r6, #1
1000243a:	0003      	movs	r3, r0
1000243c:	3b25      	subs	r3, #37	; 0x25
1000243e:	b2db      	uxtb	r3, r3
10002440:	2b53      	cmp	r3, #83	; 0x53
10002442:	d8a6      	bhi.n	10002392 <_vsnprintf+0x3a>
10002444:	4a9d      	ldr	r2, [pc, #628]	; (100026bc <_vsnprintf+0x364>)
10002446:	009b      	lsls	r3, r3, #2
10002448:	58d3      	ldr	r3, [r2, r3]
1000244a:	469f      	mov	pc, r3
1000244c:	2380      	movs	r3, #128	; 0x80
1000244e:	005b      	lsls	r3, r3, #1
10002450:	7870      	ldrb	r0, [r6, #1]
10002452:	4319      	orrs	r1, r3
10002454:	3601      	adds	r6, #1
10002456:	e7f0      	b.n	1000243a <_vsnprintf+0xe2>
10002458:	2700      	movs	r7, #0
1000245a:	0003      	movs	r3, r0
1000245c:	00b8      	lsls	r0, r7, #2
1000245e:	19c0      	adds	r0, r0, r7
10002460:	3601      	adds	r6, #1
10002462:	0040      	lsls	r0, r0, #1
10002464:	18c0      	adds	r0, r0, r3
10002466:	7833      	ldrb	r3, [r6, #0]
10002468:	3830      	subs	r0, #48	; 0x30
1000246a:	001a      	movs	r2, r3
1000246c:	3a30      	subs	r2, #48	; 0x30
1000246e:	0007      	movs	r7, r0
10002470:	2a09      	cmp	r2, #9
10002472:	d9f3      	bls.n	1000245c <_vsnprintf+0x104>
10002474:	900a      	str	r0, [sp, #40]	; 0x28
10002476:	0018      	movs	r0, r3
10002478:	2300      	movs	r3, #0
1000247a:	4698      	mov	r8, r3
1000247c:	282e      	cmp	r0, #46	; 0x2e
1000247e:	d1b7      	bne.n	100023f0 <_vsnprintf+0x98>
10002480:	2380      	movs	r3, #128	; 0x80
10002482:	7870      	ldrb	r0, [r6, #1]
10002484:	00db      	lsls	r3, r3, #3
10002486:	4319      	orrs	r1, r3
10002488:	0003      	movs	r3, r0
1000248a:	3b30      	subs	r3, #48	; 0x30
1000248c:	1c72      	adds	r2, r6, #1
1000248e:	2b09      	cmp	r3, #9
10002490:	d800      	bhi.n	10002494 <_vsnprintf+0x13c>
10002492:	e195      	b.n	100027c0 <_vsnprintf+0x468>
10002494:	282a      	cmp	r0, #42	; 0x2a
10002496:	d100      	bne.n	1000249a <_vsnprintf+0x142>
10002498:	e1a6      	b.n	100027e8 <_vsnprintf+0x490>
1000249a:	0016      	movs	r6, r2
1000249c:	e7a8      	b.n	100023f0 <_vsnprintf+0x98>
1000249e:	46a1      	mov	r9, r4
100024a0:	46aa      	mov	sl, r5
100024a2:	002c      	movs	r4, r5
100024a4:	45d3      	cmp	fp, sl
100024a6:	d803      	bhi.n	100024b0 <_vsnprintf+0x158>
100024a8:	2301      	movs	r3, #1
100024aa:	425b      	negs	r3, r3
100024ac:	445b      	add	r3, fp
100024ae:	469a      	mov	sl, r3
100024b0:	465b      	mov	r3, fp
100024b2:	4652      	mov	r2, sl
100024b4:	4649      	mov	r1, r9
100024b6:	2000      	movs	r0, #0
100024b8:	9d08      	ldr	r5, [sp, #32]
100024ba:	47a8      	blx	r5
100024bc:	0020      	movs	r0, r4
100024be:	b01f      	add	sp, #124	; 0x7c
100024c0:	bc3c      	pop	{r2, r3, r4, r5}
100024c2:	4690      	mov	r8, r2
100024c4:	4699      	mov	r9, r3
100024c6:	46a2      	mov	sl, r4
100024c8:	46ab      	mov	fp, r5
100024ca:	bdf0      	pop	{r4, r5, r6, r7, pc}
100024cc:	9b09      	ldr	r3, [sp, #36]	; 0x24
100024ce:	cb40      	ldmia	r3!, {r6}
100024d0:	960a      	str	r6, [sp, #40]	; 0x28
100024d2:	2e00      	cmp	r6, #0
100024d4:	db03      	blt.n	100024de <_vsnprintf+0x186>
100024d6:	7850      	ldrb	r0, [r2, #1]
100024d8:	9309      	str	r3, [sp, #36]	; 0x24
100024da:	1c56      	adds	r6, r2, #1
100024dc:	e784      	b.n	100023e8 <_vsnprintf+0x90>
100024de:	3828      	subs	r0, #40	; 0x28
100024e0:	4301      	orrs	r1, r0
100024e2:	4270      	negs	r0, r6
100024e4:	900a      	str	r0, [sp, #40]	; 0x28
100024e6:	9309      	str	r3, [sp, #36]	; 0x24
100024e8:	7850      	ldrb	r0, [r2, #1]
100024ea:	1c56      	adds	r6, r2, #1
100024ec:	e77c      	b.n	100023e8 <_vsnprintf+0x90>
100024ee:	2878      	cmp	r0, #120	; 0x78
100024f0:	d100      	bne.n	100024f4 <_vsnprintf+0x19c>
100024f2:	e1d4      	b.n	1000289e <_vsnprintf+0x546>
100024f4:	2858      	cmp	r0, #88	; 0x58
100024f6:	d100      	bne.n	100024fa <_vsnprintf+0x1a2>
100024f8:	e268      	b.n	100029cc <_vsnprintf+0x674>
100024fa:	286f      	cmp	r0, #111	; 0x6f
100024fc:	d100      	bne.n	10002500 <_vsnprintf+0x1a8>
100024fe:	e352      	b.n	10002ba6 <_vsnprintf+0x84e>
10002500:	2862      	cmp	r0, #98	; 0x62
10002502:	d100      	bne.n	10002506 <_vsnprintf+0x1ae>
10002504:	e1d8      	b.n	100028b8 <_vsnprintf+0x560>
10002506:	2310      	movs	r3, #16
10002508:	000a      	movs	r2, r1
1000250a:	439a      	bics	r2, r3
1000250c:	920b      	str	r2, [sp, #44]	; 0x2c
1000250e:	2869      	cmp	r0, #105	; 0x69
10002510:	d001      	beq.n	10002516 <_vsnprintf+0x1be>
10002512:	f000 fca2 	bl	10002e5a <_vsnprintf+0xb02>
10002516:	230a      	movs	r3, #10
10002518:	930c      	str	r3, [sp, #48]	; 0x30
1000251a:	054b      	lsls	r3, r1, #21
1000251c:	d400      	bmi.n	10002520 <_vsnprintf+0x1c8>
1000251e:	e1d5      	b.n	100028cc <_vsnprintf+0x574>
10002520:	2301      	movs	r3, #1
10002522:	9a0b      	ldr	r2, [sp, #44]	; 0x2c
10002524:	439a      	bics	r2, r3
10002526:	920b      	str	r2, [sp, #44]	; 0x2c
10002528:	2869      	cmp	r0, #105	; 0x69
1000252a:	d100      	bne.n	1000252e <_vsnprintf+0x1d6>
1000252c:	e1ce      	b.n	100028cc <_vsnprintf+0x574>
1000252e:	2864      	cmp	r0, #100	; 0x64
10002530:	d100      	bne.n	10002534 <_vsnprintf+0x1dc>
10002532:	e1cb      	b.n	100028cc <_vsnprintf+0x574>
10002534:	9a0b      	ldr	r2, [sp, #44]	; 0x2c
10002536:	2380      	movs	r3, #128	; 0x80
10002538:	0011      	movs	r1, r2
1000253a:	009b      	lsls	r3, r3, #2
1000253c:	4019      	ands	r1, r3
1000253e:	468a      	mov	sl, r1
10002540:	421a      	tst	r2, r3
10002542:	d000      	beq.n	10002546 <_vsnprintf+0x1ee>
10002544:	e332      	b.n	10002bac <_vsnprintf+0x854>
10002546:	2380      	movs	r3, #128	; 0x80
10002548:	0011      	movs	r1, r2
1000254a:	005b      	lsls	r3, r3, #1
1000254c:	4019      	ands	r1, r3
1000254e:	4689      	mov	r9, r1
10002550:	421a      	tst	r2, r3
10002552:	d001      	beq.n	10002558 <_vsnprintf+0x200>
10002554:	f000 fc02 	bl	10002d5c <_vsnprintf+0xa04>
10002558:	0013      	movs	r3, r2
1000255a:	065b      	lsls	r3, r3, #25
1000255c:	d500      	bpl.n	10002560 <_vsnprintf+0x208>
1000255e:	e310      	b.n	10002b82 <_vsnprintf+0x82a>
10002560:	9b0b      	ldr	r3, [sp, #44]	; 0x2c
10002562:	061b      	lsls	r3, r3, #24
10002564:	d401      	bmi.n	1000256a <_vsnprintf+0x212>
10002566:	f000 fc6e 	bl	10002e46 <_vsnprintf+0xaee>
1000256a:	9b09      	ldr	r3, [sp, #36]	; 0x24
1000256c:	cb04      	ldmia	r3!, {r2}
1000256e:	0412      	lsls	r2, r2, #16
10002570:	0c12      	lsrs	r2, r2, #16
10002572:	4692      	mov	sl, r2
10002574:	9309      	str	r3, [sp, #36]	; 0x24
10002576:	4653      	mov	r3, sl
10002578:	2b00      	cmp	r3, #0
1000257a:	d000      	beq.n	1000257e <_vsnprintf+0x226>
1000257c:	e364      	b.n	10002c48 <_vsnprintf+0x8f0>
1000257e:	9a0b      	ldr	r2, [sp, #44]	; 0x2c
10002580:	3310      	adds	r3, #16
10002582:	0011      	movs	r1, r2
10002584:	4399      	bics	r1, r3
10002586:	910b      	str	r1, [sp, #44]	; 0x2c
10002588:	0552      	lsls	r2, r2, #21
1000258a:	d400      	bmi.n	1000258e <_vsnprintf+0x236>
1000258c:	e35c      	b.n	10002c48 <_vsnprintf+0x8f0>
1000258e:	2300      	movs	r3, #0
10002590:	4699      	mov	r9, r3
10002592:	9b0b      	ldr	r3, [sp, #44]	; 0x2c
10002594:	9306      	str	r3, [sp, #24]
10002596:	9b0a      	ldr	r3, [sp, #40]	; 0x28
10002598:	9305      	str	r3, [sp, #20]
1000259a:	4643      	mov	r3, r8
1000259c:	9304      	str	r3, [sp, #16]
1000259e:	9b0c      	ldr	r3, [sp, #48]	; 0x30
100025a0:	9303      	str	r3, [sp, #12]
100025a2:	2300      	movs	r3, #0
100025a4:	e2de      	b.n	10002b64 <_vsnprintf+0x80c>
100025a6:	7870      	ldrb	r0, [r6, #1]
100025a8:	2868      	cmp	r0, #104	; 0x68
100025aa:	d100      	bne.n	100025ae <_vsnprintf+0x256>
100025ac:	e207      	b.n	100029be <_vsnprintf+0x666>
100025ae:	2380      	movs	r3, #128	; 0x80
100025b0:	3601      	adds	r6, #1
100025b2:	4319      	orrs	r1, r3
100025b4:	e741      	b.n	1000243a <_vsnprintf+0xe2>
100025b6:	2380      	movs	r3, #128	; 0x80
100025b8:	009b      	lsls	r3, r3, #2
100025ba:	7870      	ldrb	r0, [r6, #1]
100025bc:	4319      	orrs	r1, r3
100025be:	3601      	adds	r6, #1
100025c0:	e73b      	b.n	1000243a <_vsnprintf+0xe2>
100025c2:	2846      	cmp	r0, #70	; 0x46
100025c4:	d100      	bne.n	100025c8 <_vsnprintf+0x270>
100025c6:	e174      	b.n	100028b2 <_vsnprintf+0x55a>
100025c8:	2207      	movs	r2, #7
100025ca:	9b09      	ldr	r3, [sp, #36]	; 0x24
100025cc:	9104      	str	r1, [sp, #16]
100025ce:	3307      	adds	r3, #7
100025d0:	4393      	bics	r3, r2
100025d2:	9a0a      	ldr	r2, [sp, #40]	; 0x28
100025d4:	0019      	movs	r1, r3
100025d6:	9203      	str	r2, [sp, #12]
100025d8:	4642      	mov	r2, r8
100025da:	9202      	str	r2, [sp, #8]
100025dc:	c90c      	ldmia	r1!, {r2, r3}
100025de:	9808      	ldr	r0, [sp, #32]
100025e0:	9200      	str	r2, [sp, #0]
100025e2:	9301      	str	r3, [sp, #4]
100025e4:	9109      	str	r1, [sp, #36]	; 0x24
100025e6:	002a      	movs	r2, r5
100025e8:	465b      	mov	r3, fp
100025ea:	0021      	movs	r1, r4
100025ec:	f7ff fcc4 	bl	10001f78 <_ftoa>
100025f0:	3601      	adds	r6, #1
100025f2:	0005      	movs	r5, r0
100025f4:	e6d5      	b.n	100023a2 <_vsnprintf+0x4a>
100025f6:	9b09      	ldr	r3, [sp, #36]	; 0x24
100025f8:	001a      	movs	r2, r3
100025fa:	ca08      	ldmia	r2!, {r3}
100025fc:	4691      	mov	r9, r2
100025fe:	2b00      	cmp	r3, #0
10002600:	d100      	bne.n	10002604 <_vsnprintf+0x2ac>
10002602:	e105      	b.n	10002810 <_vsnprintf+0x4b8>
10002604:	2221      	movs	r2, #33	; 0x21
10002606:	4311      	orrs	r1, r2
10002608:	468a      	mov	sl, r1
1000260a:	a80e      	add	r0, sp, #56	; 0x38
1000260c:	4684      	mov	ip, r0
1000260e:	211f      	movs	r1, #31
10002610:	4461      	add	r1, ip
10002612:	9509      	str	r5, [sp, #36]	; 0x24
10002614:	2200      	movs	r2, #0
10002616:	270f      	movs	r7, #15
10002618:	46a4      	mov	ip, r4
1000261a:	000d      	movs	r5, r1
1000261c:	e002      	b.n	10002624 <_vsnprintf+0x2cc>
1000261e:	2a20      	cmp	r2, #32
10002620:	d00c      	beq.n	1000263c <_vsnprintf+0x2e4>
10002622:	000b      	movs	r3, r1
10002624:	003c      	movs	r4, r7
10002626:	401c      	ands	r4, r3
10002628:	0020      	movs	r0, r4
1000262a:	3037      	adds	r0, #55	; 0x37
1000262c:	2c09      	cmp	r4, #9
1000262e:	d800      	bhi.n	10002632 <_vsnprintf+0x2da>
10002630:	3807      	subs	r0, #7
10002632:	3201      	adds	r2, #1
10002634:	54a8      	strb	r0, [r5, r2]
10002636:	0919      	lsrs	r1, r3, #4
10002638:	2b0f      	cmp	r3, #15
1000263a:	d8f0      	bhi.n	1000261e <_vsnprintf+0x2c6>
1000263c:	4664      	mov	r4, ip
1000263e:	9d09      	ldr	r5, [sp, #36]	; 0x24
10002640:	e0f0      	b.n	10002824 <_vsnprintf+0x4cc>
10002642:	078b      	lsls	r3, r1, #30
10002644:	d400      	bmi.n	10002648 <_vsnprintf+0x2f0>
10002646:	e1d1      	b.n	100029ec <_vsnprintf+0x694>
10002648:	9b09      	ldr	r3, [sp, #36]	; 0x24
1000264a:	002a      	movs	r2, r5
1000264c:	4699      	mov	r9, r3
1000264e:	1c6b      	adds	r3, r5, #1
10002650:	4698      	mov	r8, r3
10002652:	464b      	mov	r3, r9
10002654:	cb01      	ldmia	r3!, {r0}
10002656:	0021      	movs	r1, r4
10002658:	4699      	mov	r9, r3
1000265a:	9f08      	ldr	r7, [sp, #32]
1000265c:	465b      	mov	r3, fp
1000265e:	b2c0      	uxtb	r0, r0
10002660:	47b8      	blx	r7
10002662:	9b0a      	ldr	r3, [sp, #40]	; 0x28
10002664:	469c      	mov	ip, r3
10002666:	4465      	add	r5, ip
10002668:	2b01      	cmp	r3, #1
1000266a:	d800      	bhi.n	1000266e <_vsnprintf+0x316>
1000266c:	e290      	b.n	10002b90 <_vsnprintf+0x838>
1000266e:	46b2      	mov	sl, r6
10002670:	465e      	mov	r6, fp
10002672:	4647      	mov	r7, r8
10002674:	46a8      	mov	r8, r5
10002676:	9d08      	ldr	r5, [sp, #32]
10002678:	003a      	movs	r2, r7
1000267a:	0033      	movs	r3, r6
1000267c:	3701      	adds	r7, #1
1000267e:	0021      	movs	r1, r4
10002680:	2020      	movs	r0, #32
10002682:	47a8      	blx	r5
10002684:	4547      	cmp	r7, r8
10002686:	d1f7      	bne.n	10002678 <_vsnprintf+0x320>
10002688:	46b3      	mov	fp, r6
1000268a:	464b      	mov	r3, r9
1000268c:	4656      	mov	r6, sl
1000268e:	003d      	movs	r5, r7
10002690:	9309      	str	r3, [sp, #36]	; 0x24
10002692:	3601      	adds	r6, #1
10002694:	e685      	b.n	100023a2 <_vsnprintf+0x4a>
10002696:	002a      	movs	r2, r5
10002698:	1c6f      	adds	r7, r5, #1
1000269a:	465b      	mov	r3, fp
1000269c:	9d08      	ldr	r5, [sp, #32]
1000269e:	0021      	movs	r1, r4
100026a0:	2025      	movs	r0, #37	; 0x25
100026a2:	47a8      	blx	r5
100026a4:	3601      	adds	r6, #1
100026a6:	003d      	movs	r5, r7
100026a8:	e67b      	b.n	100023a2 <_vsnprintf+0x4a>
100026aa:	46c0      	nop			; (mov r8, r8)
100026ac:	10002359 	.word	0x10002359
100026b0:	20000be4 	.word	0x20000be4
100026b4:	10004d84 	.word	0x10004d84
100026b8:	10004dc8 	.word	0x10004dc8
100026bc:	10004e14 	.word	0x10004e14
100026c0:	9b09      	ldr	r3, [sp, #36]	; 0x24
100026c2:	cb04      	ldmia	r3!, {r2}
100026c4:	4699      	mov	r9, r3
100026c6:	4643      	mov	r3, r8
100026c8:	9209      	str	r2, [sp, #36]	; 0x24
100026ca:	2b00      	cmp	r3, #0
100026cc:	d000      	beq.n	100026d0 <_vsnprintf+0x378>
100026ce:	e097      	b.n	10002800 <_vsnprintf+0x4a8>
100026d0:	7813      	ldrb	r3, [r2, #0]
100026d2:	469c      	mov	ip, r3
100026d4:	2b00      	cmp	r3, #0
100026d6:	d100      	bne.n	100026da <_vsnprintf+0x382>
100026d8:	e3b3      	b.n	10002e42 <_vsnprintf+0xaea>
100026da:	2302      	movs	r3, #2
100026dc:	425b      	negs	r3, r3
100026de:	1c5a      	adds	r2, r3, #1
100026e0:	9b09      	ldr	r3, [sp, #36]	; 0x24
100026e2:	4692      	mov	sl, r2
100026e4:	0018      	movs	r0, r3
100026e6:	9f0a      	ldr	r7, [sp, #40]	; 0x28
100026e8:	920b      	str	r2, [sp, #44]	; 0x2c
100026ea:	4450      	add	r0, sl
100026ec:	e002      	b.n	100026f4 <_vsnprintf+0x39c>
100026ee:	4283      	cmp	r3, r0
100026f0:	d100      	bne.n	100026f4 <_vsnprintf+0x39c>
100026f2:	e169      	b.n	100029c8 <_vsnprintf+0x670>
100026f4:	785a      	ldrb	r2, [r3, #1]
100026f6:	3301      	adds	r3, #1
100026f8:	2a00      	cmp	r2, #0
100026fa:	d1f8      	bne.n	100026ee <_vsnprintf+0x396>
100026fc:	9a09      	ldr	r2, [sp, #36]	; 0x24
100026fe:	970a      	str	r7, [sp, #40]	; 0x28
10002700:	1a9b      	subs	r3, r3, r2
10002702:	930b      	str	r3, [sp, #44]	; 0x2c
10002704:	2380      	movs	r3, #128	; 0x80
10002706:	000a      	movs	r2, r1
10002708:	00db      	lsls	r3, r3, #3
1000270a:	401a      	ands	r2, r3
1000270c:	920c      	str	r2, [sp, #48]	; 0x30
1000270e:	4219      	tst	r1, r3
10002710:	d004      	beq.n	1000271c <_vsnprintf+0x3c4>
10002712:	9b0b      	ldr	r3, [sp, #44]	; 0x2c
10002714:	4543      	cmp	r3, r8
10002716:	d901      	bls.n	1000271c <_vsnprintf+0x3c4>
10002718:	4643      	mov	r3, r8
1000271a:	930b      	str	r3, [sp, #44]	; 0x2c
1000271c:	2302      	movs	r3, #2
1000271e:	001a      	movs	r2, r3
10002720:	400a      	ands	r2, r1
10002722:	920d      	str	r2, [sp, #52]	; 0x34
10002724:	420b      	tst	r3, r1
10002726:	d100      	bne.n	1000272a <_vsnprintf+0x3d2>
10002728:	e184      	b.n	10002a34 <_vsnprintf+0x6dc>
1000272a:	4660      	mov	r0, ip
1000272c:	2800      	cmp	r0, #0
1000272e:	d023      	beq.n	10002778 <_vsnprintf+0x420>
10002730:	9b0c      	ldr	r3, [sp, #48]	; 0x30
10002732:	2b00      	cmp	r3, #0
10002734:	d100      	bne.n	10002738 <_vsnprintf+0x3e0>
10002736:	e124      	b.n	10002982 <_vsnprintf+0x62a>
10002738:	44a8      	add	r8, r5
1000273a:	46c2      	mov	sl, r8
1000273c:	9b09      	ldr	r3, [sp, #36]	; 0x24
1000273e:	4657      	mov	r7, sl
10002740:	1b5b      	subs	r3, r3, r5
10002742:	4698      	mov	r8, r3
10002744:	9b08      	ldr	r3, [sp, #32]
10002746:	46b2      	mov	sl, r6
10002748:	002a      	movs	r2, r5
1000274a:	0026      	movs	r6, r4
1000274c:	465c      	mov	r4, fp
1000274e:	469b      	mov	fp, r3
10002750:	e009      	b.n	10002766 <_vsnprintf+0x40e>
10002752:	0023      	movs	r3, r4
10002754:	0031      	movs	r1, r6
10002756:	1c55      	adds	r5, r2, #1
10002758:	47d8      	blx	fp
1000275a:	4643      	mov	r3, r8
1000275c:	5d58      	ldrb	r0, [r3, r5]
1000275e:	2800      	cmp	r0, #0
10002760:	d100      	bne.n	10002764 <_vsnprintf+0x40c>
10002762:	e13f      	b.n	100029e4 <_vsnprintf+0x68c>
10002764:	002a      	movs	r2, r5
10002766:	4297      	cmp	r7, r2
10002768:	d1f3      	bne.n	10002752 <_vsnprintf+0x3fa>
1000276a:	46a3      	mov	fp, r4
1000276c:	003d      	movs	r5, r7
1000276e:	0034      	movs	r4, r6
10002770:	4656      	mov	r6, sl
10002772:	9b0d      	ldr	r3, [sp, #52]	; 0x34
10002774:	2b00      	cmp	r3, #0
10002776:	d069      	beq.n	1000284c <_vsnprintf+0x4f4>
10002778:	9b0b      	ldr	r3, [sp, #44]	; 0x2c
1000277a:	990a      	ldr	r1, [sp, #40]	; 0x28
1000277c:	46a8      	mov	r8, r5
1000277e:	4299      	cmp	r1, r3
10002780:	d964      	bls.n	1000284c <_vsnprintf+0x4f4>
10002782:	468c      	mov	ip, r1
10002784:	4465      	add	r5, ip
10002786:	1aed      	subs	r5, r5, r3
10002788:	9b08      	ldr	r3, [sp, #32]
1000278a:	4647      	mov	r7, r8
1000278c:	469a      	mov	sl, r3
1000278e:	46b0      	mov	r8, r6
10002790:	0026      	movs	r6, r4
10002792:	465c      	mov	r4, fp
10002794:	003a      	movs	r2, r7
10002796:	0023      	movs	r3, r4
10002798:	3701      	adds	r7, #1
1000279a:	0031      	movs	r1, r6
1000279c:	2020      	movs	r0, #32
1000279e:	47d0      	blx	sl
100027a0:	42af      	cmp	r7, r5
100027a2:	d1f7      	bne.n	10002794 <_vsnprintf+0x43c>
100027a4:	46a3      	mov	fp, r4
100027a6:	0034      	movs	r4, r6
100027a8:	4646      	mov	r6, r8
100027aa:	e04f      	b.n	1000284c <_vsnprintf+0x4f4>
100027ac:	4bd2      	ldr	r3, [pc, #840]	; (10002af8 <_vsnprintf+0x7a0>)
100027ae:	7820      	ldrb	r0, [r4, #0]
100027b0:	9308      	str	r3, [sp, #32]
100027b2:	2300      	movs	r3, #0
100027b4:	469a      	mov	sl, r3
100027b6:	2800      	cmp	r0, #0
100027b8:	d000      	beq.n	100027bc <_vsnprintf+0x464>
100027ba:	e5e6      	b.n	1000238a <_vsnprintf+0x32>
100027bc:	2400      	movs	r4, #0
100027be:	e671      	b.n	100024a4 <_vsnprintf+0x14c>
100027c0:	4643      	mov	r3, r8
100027c2:	0006      	movs	r6, r0
100027c4:	9f0a      	ldr	r7, [sp, #40]	; 0x28
100027c6:	0098      	lsls	r0, r3, #2
100027c8:	18c0      	adds	r0, r0, r3
100027ca:	3201      	adds	r2, #1
100027cc:	0040      	lsls	r0, r0, #1
100027ce:	1980      	adds	r0, r0, r6
100027d0:	7816      	ldrb	r6, [r2, #0]
100027d2:	0003      	movs	r3, r0
100027d4:	0030      	movs	r0, r6
100027d6:	3830      	subs	r0, #48	; 0x30
100027d8:	3b30      	subs	r3, #48	; 0x30
100027da:	2809      	cmp	r0, #9
100027dc:	d9f3      	bls.n	100027c6 <_vsnprintf+0x46e>
100027de:	0030      	movs	r0, r6
100027e0:	4698      	mov	r8, r3
100027e2:	0016      	movs	r6, r2
100027e4:	970a      	str	r7, [sp, #40]	; 0x28
100027e6:	e603      	b.n	100023f0 <_vsnprintf+0x98>
100027e8:	9b09      	ldr	r3, [sp, #36]	; 0x24
100027ea:	3602      	adds	r6, #2
100027ec:	cb04      	ldmia	r3!, {r2}
100027ee:	4690      	mov	r8, r2
100027f0:	43d2      	mvns	r2, r2
100027f2:	4640      	mov	r0, r8
100027f4:	17d2      	asrs	r2, r2, #31
100027f6:	4010      	ands	r0, r2
100027f8:	4680      	mov	r8, r0
100027fa:	9309      	str	r3, [sp, #36]	; 0x24
100027fc:	7830      	ldrb	r0, [r6, #0]
100027fe:	e5f7      	b.n	100023f0 <_vsnprintf+0x98>
10002800:	7813      	ldrb	r3, [r2, #0]
10002802:	469c      	mov	ip, r3
10002804:	2b00      	cmp	r3, #0
10002806:	d100      	bne.n	1000280a <_vsnprintf+0x4b2>
10002808:	e31a      	b.n	10002e40 <_vsnprintf+0xae8>
1000280a:	4643      	mov	r3, r8
1000280c:	3b01      	subs	r3, #1
1000280e:	e766      	b.n	100026de <_vsnprintf+0x386>
10002810:	2210      	movs	r2, #16
10002812:	0008      	movs	r0, r1
10002814:	4390      	bics	r0, r2
10002816:	3211      	adds	r2, #17
10002818:	4310      	orrs	r0, r2
1000281a:	4682      	mov	sl, r0
1000281c:	2200      	movs	r2, #0
1000281e:	0549      	lsls	r1, r1, #21
10002820:	d400      	bmi.n	10002824 <_vsnprintf+0x4cc>
10002822:	e6f2      	b.n	1000260a <_vsnprintf+0x2b2>
10002824:	4653      	mov	r3, sl
10002826:	9306      	str	r3, [sp, #24]
10002828:	2308      	movs	r3, #8
1000282a:	9305      	str	r3, [sp, #20]
1000282c:	4643      	mov	r3, r8
1000282e:	9304      	str	r3, [sp, #16]
10002830:	2310      	movs	r3, #16
10002832:	9303      	str	r3, [sp, #12]
10002834:	2300      	movs	r3, #0
10002836:	9302      	str	r3, [sp, #8]
10002838:	ab16      	add	r3, sp, #88	; 0x58
1000283a:	9201      	str	r2, [sp, #4]
1000283c:	9300      	str	r3, [sp, #0]
1000283e:	002a      	movs	r2, r5
10002840:	465b      	mov	r3, fp
10002842:	0021      	movs	r1, r4
10002844:	9808      	ldr	r0, [sp, #32]
10002846:	f7ff f879 	bl	1000193c <_ntoa_format>
1000284a:	0005      	movs	r5, r0
1000284c:	464b      	mov	r3, r9
1000284e:	3601      	adds	r6, #1
10002850:	9309      	str	r3, [sp, #36]	; 0x24
10002852:	e5a6      	b.n	100023a2 <_vsnprintf+0x4a>
10002854:	2320      	movs	r3, #32
10002856:	0002      	movs	r2, r0
10002858:	439a      	bics	r2, r3
1000285a:	2a47      	cmp	r2, #71	; 0x47
1000285c:	d104      	bne.n	10002868 <_vsnprintf+0x510>
1000285e:	2380      	movs	r3, #128	; 0x80
10002860:	011b      	lsls	r3, r3, #4
10002862:	4319      	orrs	r1, r3
10002864:	2302      	movs	r3, #2
10002866:	4398      	bics	r0, r3
10002868:	2845      	cmp	r0, #69	; 0x45
1000286a:	d101      	bne.n	10002870 <_vsnprintf+0x518>
1000286c:	2320      	movs	r3, #32
1000286e:	4319      	orrs	r1, r3
10002870:	2207      	movs	r2, #7
10002872:	9b09      	ldr	r3, [sp, #36]	; 0x24
10002874:	9104      	str	r1, [sp, #16]
10002876:	3307      	adds	r3, #7
10002878:	4393      	bics	r3, r2
1000287a:	9a0a      	ldr	r2, [sp, #40]	; 0x28
1000287c:	0019      	movs	r1, r3
1000287e:	9203      	str	r2, [sp, #12]
10002880:	4642      	mov	r2, r8
10002882:	9202      	str	r2, [sp, #8]
10002884:	c90c      	ldmia	r1!, {r2, r3}
10002886:	9808      	ldr	r0, [sp, #32]
10002888:	9200      	str	r2, [sp, #0]
1000288a:	9301      	str	r3, [sp, #4]
1000288c:	9109      	str	r1, [sp, #36]	; 0x24
1000288e:	002a      	movs	r2, r5
10002890:	465b      	mov	r3, fp
10002892:	0021      	movs	r1, r4
10002894:	f7ff f94a 	bl	10001b2c <_etoa>
10002898:	3601      	adds	r6, #1
1000289a:	0005      	movs	r5, r0
1000289c:	e581      	b.n	100023a2 <_vsnprintf+0x4a>
1000289e:	2310      	movs	r3, #16
100028a0:	930c      	str	r3, [sp, #48]	; 0x30
100028a2:	230c      	movs	r3, #12
100028a4:	000a      	movs	r2, r1
100028a6:	439a      	bics	r2, r3
100028a8:	920b      	str	r2, [sp, #44]	; 0x2c
100028aa:	054b      	lsls	r3, r1, #21
100028ac:	d400      	bmi.n	100028b0 <_vsnprintf+0x558>
100028ae:	e63b      	b.n	10002528 <_vsnprintf+0x1d0>
100028b0:	e636      	b.n	10002520 <_vsnprintf+0x1c8>
100028b2:	2320      	movs	r3, #32
100028b4:	4319      	orrs	r1, r3
100028b6:	e687      	b.n	100025c8 <_vsnprintf+0x270>
100028b8:	2302      	movs	r3, #2
100028ba:	930c      	str	r3, [sp, #48]	; 0x30
100028bc:	910b      	str	r1, [sp, #44]	; 0x2c
100028be:	990b      	ldr	r1, [sp, #44]	; 0x2c
100028c0:	2864      	cmp	r0, #100	; 0x64
100028c2:	d1ee      	bne.n	100028a2 <_vsnprintf+0x54a>
100028c4:	9b0b      	ldr	r3, [sp, #44]	; 0x2c
100028c6:	055b      	lsls	r3, r3, #21
100028c8:	d500      	bpl.n	100028cc <_vsnprintf+0x574>
100028ca:	e629      	b.n	10002520 <_vsnprintf+0x1c8>
100028cc:	9a0b      	ldr	r2, [sp, #44]	; 0x2c
100028ce:	2380      	movs	r3, #128	; 0x80
100028d0:	0011      	movs	r1, r2
100028d2:	009b      	lsls	r3, r3, #2
100028d4:	4019      	ands	r1, r3
100028d6:	468a      	mov	sl, r1
100028d8:	421a      	tst	r2, r3
100028da:	d000      	beq.n	100028de <_vsnprintf+0x586>
100028dc:	e0ce      	b.n	10002a7c <_vsnprintf+0x724>
100028de:	2380      	movs	r3, #128	; 0x80
100028e0:	0011      	movs	r1, r2
100028e2:	005b      	lsls	r3, r3, #1
100028e4:	4019      	ands	r1, r3
100028e6:	4689      	mov	r9, r1
100028e8:	421a      	tst	r2, r3
100028ea:	d000      	beq.n	100028ee <_vsnprintf+0x596>
100028ec:	e1db      	b.n	10002ca6 <_vsnprintf+0x94e>
100028ee:	0013      	movs	r3, r2
100028f0:	065b      	lsls	r3, r3, #25
100028f2:	d500      	bpl.n	100028f6 <_vsnprintf+0x59e>
100028f4:	e11d      	b.n	10002b32 <_vsnprintf+0x7da>
100028f6:	9b0b      	ldr	r3, [sp, #44]	; 0x2c
100028f8:	9909      	ldr	r1, [sp, #36]	; 0x24
100028fa:	061b      	lsls	r3, r3, #24
100028fc:	d400      	bmi.n	10002900 <_vsnprintf+0x5a8>
100028fe:	e299      	b.n	10002e34 <_vsnprintf+0xadc>
10002900:	c908      	ldmia	r1!, {r3}
10002902:	b21b      	sxth	r3, r3
10002904:	17d8      	asrs	r0, r3, #31
10002906:	181a      	adds	r2, r3, r0
10002908:	4042      	eors	r2, r0
1000290a:	b292      	uxth	r2, r2
1000290c:	9109      	str	r1, [sp, #36]	; 0x24
1000290e:	4692      	mov	sl, r2
10002910:	0fda      	lsrs	r2, r3, #31
10002912:	9212      	str	r2, [sp, #72]	; 0x48
10002914:	2b00      	cmp	r3, #0
10002916:	d109      	bne.n	1000292c <_vsnprintf+0x5d4>
10002918:	2380      	movs	r3, #128	; 0x80
1000291a:	2210      	movs	r2, #16
1000291c:	990b      	ldr	r1, [sp, #44]	; 0x2c
1000291e:	00db      	lsls	r3, r3, #3
10002920:	400b      	ands	r3, r1
10002922:	4391      	bics	r1, r2
10002924:	910b      	str	r1, [sp, #44]	; 0x2c
10002926:	2b00      	cmp	r3, #0
10002928:	d000      	beq.n	1000292c <_vsnprintf+0x5d4>
1000292a:	e112      	b.n	10002b52 <_vsnprintf+0x7fa>
1000292c:	9a0b      	ldr	r2, [sp, #44]	; 0x2c
1000292e:	2361      	movs	r3, #97	; 0x61
10002930:	0692      	lsls	r2, r2, #26
10002932:	d500      	bpl.n	10002936 <_vsnprintf+0x5de>
10002934:	2341      	movs	r3, #65	; 0x41
10002936:	a90e      	add	r1, sp, #56	; 0x38
10002938:	221f      	movs	r2, #31
1000293a:	468c      	mov	ip, r1
1000293c:	b2db      	uxtb	r3, r3
1000293e:	4462      	add	r2, ip
10002940:	3b0a      	subs	r3, #10
10002942:	4657      	mov	r7, sl
10002944:	9513      	str	r5, [sp, #76]	; 0x4c
10002946:	46a2      	mov	sl, r4
10002948:	464d      	mov	r5, r9
1000294a:	9c0c      	ldr	r4, [sp, #48]	; 0x30
1000294c:	46b1      	mov	r9, r6
1000294e:	930d      	str	r3, [sp, #52]	; 0x34
10002950:	0016      	movs	r6, r2
10002952:	e00a      	b.n	1000296a <_vsnprintf+0x612>
10002954:	3330      	adds	r3, #48	; 0x30
10002956:	b2db      	uxtb	r3, r3
10002958:	3501      	adds	r5, #1
1000295a:	5573      	strb	r3, [r6, r5]
1000295c:	42a7      	cmp	r7, r4
1000295e:	d200      	bcs.n	10002962 <_vsnprintf+0x60a>
10002960:	e11c      	b.n	10002b9c <_vsnprintf+0x844>
10002962:	2d20      	cmp	r5, #32
10002964:	d100      	bne.n	10002968 <_vsnprintf+0x610>
10002966:	e119      	b.n	10002b9c <_vsnprintf+0x844>
10002968:	0007      	movs	r7, r0
1000296a:	0021      	movs	r1, r4
1000296c:	0038      	movs	r0, r7
1000296e:	f000 fb01 	bl	10002f74 <__wrap___aeabi_uidiv>
10002972:	b2cb      	uxtb	r3, r1
10002974:	2909      	cmp	r1, #9
10002976:	d9ed      	bls.n	10002954 <_vsnprintf+0x5fc>
10002978:	9a0d      	ldr	r2, [sp, #52]	; 0x34
1000297a:	4694      	mov	ip, r2
1000297c:	4463      	add	r3, ip
1000297e:	b2db      	uxtb	r3, r3
10002980:	e7ea      	b.n	10002958 <_vsnprintf+0x600>
10002982:	9b09      	ldr	r3, [sp, #36]	; 0x24
10002984:	465f      	mov	r7, fp
10002986:	1b5b      	subs	r3, r3, r5
10002988:	4698      	mov	r8, r3
1000298a:	9b0a      	ldr	r3, [sp, #40]	; 0x28
1000298c:	46b3      	mov	fp, r6
1000298e:	469a      	mov	sl, r3
10002990:	0026      	movs	r6, r4
10002992:	9c08      	ldr	r4, [sp, #32]
10002994:	002a      	movs	r2, r5
10002996:	003b      	movs	r3, r7
10002998:	0031      	movs	r1, r6
1000299a:	47a0      	blx	r4
1000299c:	4643      	mov	r3, r8
1000299e:	3501      	adds	r5, #1
100029a0:	5d58      	ldrb	r0, [r3, r5]
100029a2:	2800      	cmp	r0, #0
100029a4:	d1f6      	bne.n	10002994 <_vsnprintf+0x63c>
100029a6:	4653      	mov	r3, sl
100029a8:	0034      	movs	r4, r6
100029aa:	930a      	str	r3, [sp, #40]	; 0x28
100029ac:	465e      	mov	r6, fp
100029ae:	46bb      	mov	fp, r7
100029b0:	e6df      	b.n	10002772 <_vsnprintf+0x41a>
100029b2:	23c0      	movs	r3, #192	; 0xc0
100029b4:	009b      	lsls	r3, r3, #2
100029b6:	78b0      	ldrb	r0, [r6, #2]
100029b8:	4319      	orrs	r1, r3
100029ba:	3602      	adds	r6, #2
100029bc:	e53d      	b.n	1000243a <_vsnprintf+0xe2>
100029be:	23c0      	movs	r3, #192	; 0xc0
100029c0:	78b0      	ldrb	r0, [r6, #2]
100029c2:	4319      	orrs	r1, r3
100029c4:	3602      	adds	r6, #2
100029c6:	e538      	b.n	1000243a <_vsnprintf+0xe2>
100029c8:	970a      	str	r7, [sp, #40]	; 0x28
100029ca:	e69b      	b.n	10002704 <_vsnprintf+0x3ac>
100029cc:	230c      	movs	r3, #12
100029ce:	000a      	movs	r2, r1
100029d0:	439a      	bics	r2, r3
100029d2:	3314      	adds	r3, #20
100029d4:	431a      	orrs	r2, r3
100029d6:	2310      	movs	r3, #16
100029d8:	920b      	str	r2, [sp, #44]	; 0x2c
100029da:	930c      	str	r3, [sp, #48]	; 0x30
100029dc:	054b      	lsls	r3, r1, #21
100029de:	d400      	bmi.n	100029e2 <_vsnprintf+0x68a>
100029e0:	e5a8      	b.n	10002534 <_vsnprintf+0x1dc>
100029e2:	e59d      	b.n	10002520 <_vsnprintf+0x1c8>
100029e4:	46a3      	mov	fp, r4
100029e6:	0034      	movs	r4, r6
100029e8:	4656      	mov	r6, sl
100029ea:	e6c2      	b.n	10002772 <_vsnprintf+0x41a>
100029ec:	9a0a      	ldr	r2, [sp, #40]	; 0x28
100029ee:	2a01      	cmp	r2, #1
100029f0:	d800      	bhi.n	100029f4 <_vsnprintf+0x69c>
100029f2:	e22e      	b.n	10002e52 <_vsnprintf+0xafa>
100029f4:	1e6b      	subs	r3, r5, #1
100029f6:	189f      	adds	r7, r3, r2
100029f8:	9b08      	ldr	r3, [sp, #32]
100029fa:	46b0      	mov	r8, r6
100029fc:	4699      	mov	r9, r3
100029fe:	0026      	movs	r6, r4
10002a00:	465c      	mov	r4, fp
10002a02:	002a      	movs	r2, r5
10002a04:	0023      	movs	r3, r4
10002a06:	3501      	adds	r5, #1
10002a08:	0031      	movs	r1, r6
10002a0a:	2020      	movs	r0, #32
10002a0c:	47c8      	blx	r9
10002a0e:	42bd      	cmp	r5, r7
10002a10:	d1f7      	bne.n	10002a02 <_vsnprintf+0x6aa>
10002a12:	46a3      	mov	fp, r4
10002a14:	0034      	movs	r4, r6
10002a16:	4646      	mov	r6, r8
10002a18:	9b09      	ldr	r3, [sp, #36]	; 0x24
10002a1a:	003a      	movs	r2, r7
10002a1c:	cb01      	ldmia	r3!, {r0}
10002a1e:	0021      	movs	r1, r4
10002a20:	4698      	mov	r8, r3
10002a22:	1c7d      	adds	r5, r7, #1
10002a24:	465b      	mov	r3, fp
10002a26:	9f08      	ldr	r7, [sp, #32]
10002a28:	b2c0      	uxtb	r0, r0
10002a2a:	47b8      	blx	r7
10002a2c:	4643      	mov	r3, r8
10002a2e:	3601      	adds	r6, #1
10002a30:	9309      	str	r3, [sp, #36]	; 0x24
10002a32:	e4b6      	b.n	100023a2 <_vsnprintf+0x4a>
10002a34:	9a0b      	ldr	r2, [sp, #44]	; 0x2c
10002a36:	980a      	ldr	r0, [sp, #40]	; 0x28
10002a38:	1c53      	adds	r3, r2, #1
10002a3a:	4290      	cmp	r0, r2
10002a3c:	d800      	bhi.n	10002a40 <_vsnprintf+0x6e8>
10002a3e:	e20a      	b.n	10002e56 <_vsnprintf+0xafe>
10002a40:	1943      	adds	r3, r0, r5
10002a42:	1a9b      	subs	r3, r3, r2
10002a44:	001f      	movs	r7, r3
10002a46:	9b08      	ldr	r3, [sp, #32]
10002a48:	46b2      	mov	sl, r6
10002a4a:	0026      	movs	r6, r4
10002a4c:	465c      	mov	r4, fp
10002a4e:	469b      	mov	fp, r3
10002a50:	002a      	movs	r2, r5
10002a52:	0023      	movs	r3, r4
10002a54:	3501      	adds	r5, #1
10002a56:	0031      	movs	r1, r6
10002a58:	2020      	movs	r0, #32
10002a5a:	47d8      	blx	fp
10002a5c:	42bd      	cmp	r5, r7
10002a5e:	d1f7      	bne.n	10002a50 <_vsnprintf+0x6f8>
10002a60:	9b0a      	ldr	r3, [sp, #40]	; 0x28
10002a62:	46a3      	mov	fp, r4
10002a64:	3301      	adds	r3, #1
10002a66:	930b      	str	r3, [sp, #44]	; 0x2c
10002a68:	9b09      	ldr	r3, [sp, #36]	; 0x24
10002a6a:	0034      	movs	r4, r6
10002a6c:	781b      	ldrb	r3, [r3, #0]
10002a6e:	4656      	mov	r6, sl
10002a70:	469c      	mov	ip, r3
10002a72:	4660      	mov	r0, ip
10002a74:	2800      	cmp	r0, #0
10002a76:	d000      	beq.n	10002a7a <_vsnprintf+0x722>
10002a78:	e65a      	b.n	10002730 <_vsnprintf+0x3d8>
10002a7a:	e6e7      	b.n	1000284c <_vsnprintf+0x4f4>
10002a7c:	2207      	movs	r2, #7
10002a7e:	9b09      	ldr	r3, [sp, #36]	; 0x24
10002a80:	3307      	adds	r3, #7
10002a82:	4393      	bics	r3, r2
10002a84:	3201      	adds	r2, #1
10002a86:	4694      	mov	ip, r2
10002a88:	449c      	add	ip, r3
10002a8a:	4662      	mov	r2, ip
10002a8c:	685f      	ldr	r7, [r3, #4]
10002a8e:	9209      	str	r2, [sp, #36]	; 0x24
10002a90:	681a      	ldr	r2, [r3, #0]
10002a92:	17fb      	asrs	r3, r7, #31
10002a94:	9310      	str	r3, [sp, #64]	; 0x40
10002a96:	9311      	str	r3, [sp, #68]	; 0x44
10002a98:	9810      	ldr	r0, [sp, #64]	; 0x40
10002a9a:	9911      	ldr	r1, [sp, #68]	; 0x44
10002a9c:	0003      	movs	r3, r0
10002a9e:	4053      	eors	r3, r2
10002aa0:	930e      	str	r3, [sp, #56]	; 0x38
10002aa2:	000b      	movs	r3, r1
10002aa4:	407b      	eors	r3, r7
10002aa6:	930f      	str	r3, [sp, #60]	; 0x3c
10002aa8:	4694      	mov	ip, r2
10002aaa:	9a0e      	ldr	r2, [sp, #56]	; 0x38
10002aac:	9b0f      	ldr	r3, [sp, #60]	; 0x3c
10002aae:	1a12      	subs	r2, r2, r0
10002ab0:	418b      	sbcs	r3, r1
10002ab2:	920e      	str	r2, [sp, #56]	; 0x38
10002ab4:	930f      	str	r3, [sp, #60]	; 0x3c
10002ab6:	0ffb      	lsrs	r3, r7, #31
10002ab8:	4662      	mov	r2, ip
10002aba:	9312      	str	r3, [sp, #72]	; 0x48
10002abc:	2300      	movs	r3, #0
10002abe:	433a      	orrs	r2, r7
10002ac0:	469a      	mov	sl, r3
10002ac2:	d03d      	beq.n	10002b40 <_vsnprintf+0x7e8>
10002ac4:	9a0b      	ldr	r2, [sp, #44]	; 0x2c
10002ac6:	2361      	movs	r3, #97	; 0x61
10002ac8:	0692      	lsls	r2, r2, #26
10002aca:	d500      	bpl.n	10002ace <_vsnprintf+0x776>
10002acc:	2341      	movs	r3, #65	; 0x41
10002ace:	2200      	movs	r2, #0
10002ad0:	b2db      	uxtb	r3, r3
10002ad2:	a90e      	add	r1, sp, #56	; 0x38
10002ad4:	3b0a      	subs	r3, #10
10002ad6:	468c      	mov	ip, r1
10002ad8:	4691      	mov	r9, r2
10002ada:	930d      	str	r3, [sp, #52]	; 0x34
10002adc:	4643      	mov	r3, r8
10002ade:	321f      	adds	r2, #31
10002ae0:	4462      	add	r2, ip
10002ae2:	9513      	str	r5, [sp, #76]	; 0x4c
10002ae4:	9615      	str	r6, [sp, #84]	; 0x54
10002ae6:	464d      	mov	r5, r9
10002ae8:	9e0e      	ldr	r6, [sp, #56]	; 0x38
10002aea:	9f0f      	ldr	r7, [sp, #60]	; 0x3c
10002aec:	46a1      	mov	r9, r4
10002aee:	4690      	mov	r8, r2
10002af0:	9c0c      	ldr	r4, [sp, #48]	; 0x30
10002af2:	9314      	str	r3, [sp, #80]	; 0x50
10002af4:	e00f      	b.n	10002b16 <_vsnprintf+0x7be>
10002af6:	46c0      	nop			; (mov r8, r8)
10002af8:	10001869 	.word	0x10001869
10002afc:	3230      	adds	r2, #48	; 0x30
10002afe:	b2d2      	uxtb	r2, r2
10002b00:	4643      	mov	r3, r8
10002b02:	3501      	adds	r5, #1
10002b04:	555a      	strb	r2, [r3, r5]
10002b06:	45ba      	cmp	sl, r7
10002b08:	d100      	bne.n	10002b0c <_vsnprintf+0x7b4>
10002b0a:	e17c      	b.n	10002e06 <_vsnprintf+0xaae>
10002b0c:	2d20      	cmp	r5, #32
10002b0e:	d100      	bne.n	10002b12 <_vsnprintf+0x7ba>
10002b10:	e17c      	b.n	10002e0c <_vsnprintf+0xab4>
10002b12:	0006      	movs	r6, r0
10002b14:	000f      	movs	r7, r1
10002b16:	0022      	movs	r2, r4
10002b18:	2300      	movs	r3, #0
10002b1a:	0030      	movs	r0, r6
10002b1c:	0039      	movs	r1, r7
10002b1e:	f000 fa6f 	bl	10003000 <__wrap___aeabi_uldivmod>
10002b22:	b2d2      	uxtb	r2, r2
10002b24:	2a09      	cmp	r2, #9
10002b26:	d9e9      	bls.n	10002afc <_vsnprintf+0x7a4>
10002b28:	9b0d      	ldr	r3, [sp, #52]	; 0x34
10002b2a:	469c      	mov	ip, r3
10002b2c:	4462      	add	r2, ip
10002b2e:	b2d2      	uxtb	r2, r2
10002b30:	e7e6      	b.n	10002b00 <_vsnprintf+0x7a8>
10002b32:	23ff      	movs	r3, #255	; 0xff
10002b34:	9909      	ldr	r1, [sp, #36]	; 0x24
10002b36:	c904      	ldmia	r1!, {r2}
10002b38:	4013      	ands	r3, r2
10002b3a:	001a      	movs	r2, r3
10002b3c:	9109      	str	r1, [sp, #36]	; 0x24
10002b3e:	e6e6      	b.n	1000290e <_vsnprintf+0x5b6>
10002b40:	9a0b      	ldr	r2, [sp, #44]	; 0x2c
10002b42:	3310      	adds	r3, #16
10002b44:	0011      	movs	r1, r2
10002b46:	4399      	bics	r1, r3
10002b48:	910b      	str	r1, [sp, #44]	; 0x2c
10002b4a:	0552      	lsls	r2, r2, #21
10002b4c:	d5ba      	bpl.n	10002ac4 <_vsnprintf+0x76c>
10002b4e:	2300      	movs	r3, #0
10002b50:	4699      	mov	r9, r3
10002b52:	9b0b      	ldr	r3, [sp, #44]	; 0x2c
10002b54:	9306      	str	r3, [sp, #24]
10002b56:	9b0a      	ldr	r3, [sp, #40]	; 0x28
10002b58:	9305      	str	r3, [sp, #20]
10002b5a:	4643      	mov	r3, r8
10002b5c:	9304      	str	r3, [sp, #16]
10002b5e:	9b0c      	ldr	r3, [sp, #48]	; 0x30
10002b60:	9303      	str	r3, [sp, #12]
10002b62:	9b12      	ldr	r3, [sp, #72]	; 0x48
10002b64:	9302      	str	r3, [sp, #8]
10002b66:	464b      	mov	r3, r9
10002b68:	9301      	str	r3, [sp, #4]
10002b6a:	ab16      	add	r3, sp, #88	; 0x58
10002b6c:	002a      	movs	r2, r5
10002b6e:	9300      	str	r3, [sp, #0]
10002b70:	0021      	movs	r1, r4
10002b72:	465b      	mov	r3, fp
10002b74:	9808      	ldr	r0, [sp, #32]
10002b76:	f7fe fee1 	bl	1000193c <_ntoa_format>
10002b7a:	3601      	adds	r6, #1
10002b7c:	0005      	movs	r5, r0
10002b7e:	f7ff fc10 	bl	100023a2 <_vsnprintf+0x4a>
10002b82:	22ff      	movs	r2, #255	; 0xff
10002b84:	9b09      	ldr	r3, [sp, #36]	; 0x24
10002b86:	cb02      	ldmia	r3!, {r1}
10002b88:	4011      	ands	r1, r2
10002b8a:	468a      	mov	sl, r1
10002b8c:	9309      	str	r3, [sp, #36]	; 0x24
10002b8e:	e4f2      	b.n	10002576 <_vsnprintf+0x21e>
10002b90:	464b      	mov	r3, r9
10002b92:	4645      	mov	r5, r8
10002b94:	9309      	str	r3, [sp, #36]	; 0x24
10002b96:	3601      	adds	r6, #1
10002b98:	f7ff fc03 	bl	100023a2 <_vsnprintf+0x4a>
10002b9c:	464e      	mov	r6, r9
10002b9e:	4654      	mov	r4, sl
10002ba0:	46a9      	mov	r9, r5
10002ba2:	9d13      	ldr	r5, [sp, #76]	; 0x4c
10002ba4:	e7d5      	b.n	10002b52 <_vsnprintf+0x7fa>
10002ba6:	2308      	movs	r3, #8
10002ba8:	930c      	str	r3, [sp, #48]	; 0x30
10002baa:	e687      	b.n	100028bc <_vsnprintf+0x564>
10002bac:	2207      	movs	r2, #7
10002bae:	9b09      	ldr	r3, [sp, #36]	; 0x24
10002bb0:	3307      	adds	r3, #7
10002bb2:	4393      	bics	r3, r2
10002bb4:	3201      	adds	r2, #1
10002bb6:	4694      	mov	ip, r2
10002bb8:	449c      	add	ip, r3
10002bba:	4662      	mov	r2, ip
10002bbc:	9209      	str	r2, [sp, #36]	; 0x24
10002bbe:	681a      	ldr	r2, [r3, #0]
10002bc0:	685b      	ldr	r3, [r3, #4]
10002bc2:	0010      	movs	r0, r2
10002bc4:	469a      	mov	sl, r3
10002bc6:	0013      	movs	r3, r2
10002bc8:	4652      	mov	r2, sl
10002bca:	4313      	orrs	r3, r2
10002bcc:	d107      	bne.n	10002bde <_vsnprintf+0x886>
10002bce:	9a0b      	ldr	r2, [sp, #44]	; 0x2c
10002bd0:	3310      	adds	r3, #16
10002bd2:	0011      	movs	r1, r2
10002bd4:	4399      	bics	r1, r3
10002bd6:	910b      	str	r1, [sp, #44]	; 0x2c
10002bd8:	0552      	lsls	r2, r2, #21
10002bda:	d500      	bpl.n	10002bde <_vsnprintf+0x886>
10002bdc:	e4d7      	b.n	1000258e <_vsnprintf+0x236>
10002bde:	9a0b      	ldr	r2, [sp, #44]	; 0x2c
10002be0:	2361      	movs	r3, #97	; 0x61
10002be2:	0692      	lsls	r2, r2, #26
10002be4:	d500      	bpl.n	10002be8 <_vsnprintf+0x890>
10002be6:	2341      	movs	r3, #65	; 0x41
10002be8:	2200      	movs	r2, #0
10002bea:	b2db      	uxtb	r3, r3
10002bec:	a90e      	add	r1, sp, #56	; 0x38
10002bee:	3b0a      	subs	r3, #10
10002bf0:	468c      	mov	ip, r1
10002bf2:	4691      	mov	r9, r2
10002bf4:	930d      	str	r3, [sp, #52]	; 0x34
10002bf6:	4643      	mov	r3, r8
10002bf8:	321f      	adds	r2, #31
10002bfa:	4462      	add	r2, ip
10002bfc:	4657      	mov	r7, sl
10002bfe:	9512      	str	r5, [sp, #72]	; 0x48
10002c00:	46a2      	mov	sl, r4
10002c02:	464d      	mov	r5, r9
10002c04:	0004      	movs	r4, r0
10002c06:	46b1      	mov	r9, r6
10002c08:	4690      	mov	r8, r2
10002c0a:	9e0c      	ldr	r6, [sp, #48]	; 0x30
10002c0c:	9313      	str	r3, [sp, #76]	; 0x4c
10002c0e:	e00d      	b.n	10002c2c <_vsnprintf+0x8d4>
10002c10:	3230      	adds	r2, #48	; 0x30
10002c12:	b2d2      	uxtb	r2, r2
10002c14:	4643      	mov	r3, r8
10002c16:	3501      	adds	r5, #1
10002c18:	555a      	strb	r2, [r3, r5]
10002c1a:	2300      	movs	r3, #0
10002c1c:	42bb      	cmp	r3, r7
10002c1e:	d100      	bne.n	10002c22 <_vsnprintf+0x8ca>
10002c20:	e0fd      	b.n	10002e1e <_vsnprintf+0xac6>
10002c22:	2d20      	cmp	r5, #32
10002c24:	d100      	bne.n	10002c28 <_vsnprintf+0x8d0>
10002c26:	e0fd      	b.n	10002e24 <_vsnprintf+0xacc>
10002c28:	0004      	movs	r4, r0
10002c2a:	000f      	movs	r7, r1
10002c2c:	0032      	movs	r2, r6
10002c2e:	2300      	movs	r3, #0
10002c30:	0020      	movs	r0, r4
10002c32:	0039      	movs	r1, r7
10002c34:	f000 f9e4 	bl	10003000 <__wrap___aeabi_uldivmod>
10002c38:	b2d2      	uxtb	r2, r2
10002c3a:	2a09      	cmp	r2, #9
10002c3c:	d9e8      	bls.n	10002c10 <_vsnprintf+0x8b8>
10002c3e:	9b0d      	ldr	r3, [sp, #52]	; 0x34
10002c40:	469c      	mov	ip, r3
10002c42:	4462      	add	r2, ip
10002c44:	b2d2      	uxtb	r2, r2
10002c46:	e7e5      	b.n	10002c14 <_vsnprintf+0x8bc>
10002c48:	9a0b      	ldr	r2, [sp, #44]	; 0x2c
10002c4a:	2361      	movs	r3, #97	; 0x61
10002c4c:	0692      	lsls	r2, r2, #26
10002c4e:	d500      	bpl.n	10002c52 <_vsnprintf+0x8fa>
10002c50:	2341      	movs	r3, #65	; 0x41
10002c52:	b2db      	uxtb	r3, r3
10002c54:	a90e      	add	r1, sp, #56	; 0x38
10002c56:	3b0a      	subs	r3, #10
10002c58:	221f      	movs	r2, #31
10002c5a:	468c      	mov	ip, r1
10002c5c:	930d      	str	r3, [sp, #52]	; 0x34
10002c5e:	0023      	movs	r3, r4
10002c60:	4462      	add	r2, ip
10002c62:	4654      	mov	r4, sl
10002c64:	9512      	str	r5, [sp, #72]	; 0x48
10002c66:	0017      	movs	r7, r2
10002c68:	464d      	mov	r5, r9
10002c6a:	469a      	mov	sl, r3
10002c6c:	46b1      	mov	r9, r6
10002c6e:	9e0c      	ldr	r6, [sp, #48]	; 0x30
10002c70:	e008      	b.n	10002c84 <_vsnprintf+0x92c>
10002c72:	3330      	adds	r3, #48	; 0x30
10002c74:	b2db      	uxtb	r3, r3
10002c76:	3501      	adds	r5, #1
10002c78:	557b      	strb	r3, [r7, r5]
10002c7a:	42b4      	cmp	r4, r6
10002c7c:	d30e      	bcc.n	10002c9c <_vsnprintf+0x944>
10002c7e:	2d20      	cmp	r5, #32
10002c80:	d00c      	beq.n	10002c9c <_vsnprintf+0x944>
10002c82:	0004      	movs	r4, r0
10002c84:	0031      	movs	r1, r6
10002c86:	0020      	movs	r0, r4
10002c88:	f000 f974 	bl	10002f74 <__wrap___aeabi_uidiv>
10002c8c:	b2cb      	uxtb	r3, r1
10002c8e:	2909      	cmp	r1, #9
10002c90:	d9ef      	bls.n	10002c72 <_vsnprintf+0x91a>
10002c92:	9a0d      	ldr	r2, [sp, #52]	; 0x34
10002c94:	4694      	mov	ip, r2
10002c96:	4463      	add	r3, ip
10002c98:	b2db      	uxtb	r3, r3
10002c9a:	e7ec      	b.n	10002c76 <_vsnprintf+0x91e>
10002c9c:	464e      	mov	r6, r9
10002c9e:	4654      	mov	r4, sl
10002ca0:	46a9      	mov	r9, r5
10002ca2:	9d12      	ldr	r5, [sp, #72]	; 0x48
10002ca4:	e475      	b.n	10002592 <_vsnprintf+0x23a>
10002ca6:	9b09      	ldr	r3, [sp, #36]	; 0x24
10002ca8:	001a      	movs	r2, r3
10002caa:	ca08      	ldmia	r2!, {r3}
10002cac:	17d9      	asrs	r1, r3, #31
10002cae:	9213      	str	r2, [sp, #76]	; 0x4c
10002cb0:	185a      	adds	r2, r3, r1
10002cb2:	404a      	eors	r2, r1
10002cb4:	4691      	mov	r9, r2
10002cb6:	0fda      	lsrs	r2, r3, #31
10002cb8:	9212      	str	r2, [sp, #72]	; 0x48
10002cba:	2b00      	cmp	r3, #0
10002cbc:	d108      	bne.n	10002cd0 <_vsnprintf+0x978>
10002cbe:	2380      	movs	r3, #128	; 0x80
10002cc0:	2210      	movs	r2, #16
10002cc2:	990b      	ldr	r1, [sp, #44]	; 0x2c
10002cc4:	00db      	lsls	r3, r3, #3
10002cc6:	400b      	ands	r3, r1
10002cc8:	4391      	bics	r1, r2
10002cca:	910b      	str	r1, [sp, #44]	; 0x2c
10002ccc:	2b00      	cmp	r3, #0
10002cce:	d12b      	bne.n	10002d28 <_vsnprintf+0x9d0>
10002cd0:	9a0b      	ldr	r2, [sp, #44]	; 0x2c
10002cd2:	2361      	movs	r3, #97	; 0x61
10002cd4:	0692      	lsls	r2, r2, #26
10002cd6:	d500      	bpl.n	10002cda <_vsnprintf+0x982>
10002cd8:	2341      	movs	r3, #65	; 0x41
10002cda:	aa0e      	add	r2, sp, #56	; 0x38
10002cdc:	271f      	movs	r7, #31
10002cde:	4694      	mov	ip, r2
10002ce0:	b2db      	uxtb	r3, r3
10002ce2:	3b0a      	subs	r3, #10
10002ce4:	950d      	str	r5, [sp, #52]	; 0x34
10002ce6:	4467      	add	r7, ip
10002ce8:	4655      	mov	r5, sl
10002cea:	9309      	str	r3, [sp, #36]	; 0x24
10002cec:	46a2      	mov	sl, r4
10002cee:	464c      	mov	r4, r9
10002cf0:	46b1      	mov	r9, r6
10002cf2:	9e0c      	ldr	r6, [sp, #48]	; 0x30
10002cf4:	e008      	b.n	10002d08 <_vsnprintf+0x9b0>
10002cf6:	3330      	adds	r3, #48	; 0x30
10002cf8:	b2db      	uxtb	r3, r3
10002cfa:	3501      	adds	r5, #1
10002cfc:	557b      	strb	r3, [r7, r5]
10002cfe:	42b4      	cmp	r4, r6
10002d00:	d30e      	bcc.n	10002d20 <_vsnprintf+0x9c8>
10002d02:	2d20      	cmp	r5, #32
10002d04:	d00c      	beq.n	10002d20 <_vsnprintf+0x9c8>
10002d06:	0004      	movs	r4, r0
10002d08:	0031      	movs	r1, r6
10002d0a:	0020      	movs	r0, r4
10002d0c:	f000 f932 	bl	10002f74 <__wrap___aeabi_uidiv>
10002d10:	b2cb      	uxtb	r3, r1
10002d12:	2909      	cmp	r1, #9
10002d14:	d9ef      	bls.n	10002cf6 <_vsnprintf+0x99e>
10002d16:	9a09      	ldr	r2, [sp, #36]	; 0x24
10002d18:	4694      	mov	ip, r2
10002d1a:	4463      	add	r3, ip
10002d1c:	b2db      	uxtb	r3, r3
10002d1e:	e7ec      	b.n	10002cfa <_vsnprintf+0x9a2>
10002d20:	464e      	mov	r6, r9
10002d22:	4654      	mov	r4, sl
10002d24:	46aa      	mov	sl, r5
10002d26:	9d0d      	ldr	r5, [sp, #52]	; 0x34
10002d28:	9b0b      	ldr	r3, [sp, #44]	; 0x2c
10002d2a:	002a      	movs	r2, r5
10002d2c:	9306      	str	r3, [sp, #24]
10002d2e:	9b0a      	ldr	r3, [sp, #40]	; 0x28
10002d30:	0021      	movs	r1, r4
10002d32:	9305      	str	r3, [sp, #20]
10002d34:	4643      	mov	r3, r8
10002d36:	9304      	str	r3, [sp, #16]
10002d38:	9b0c      	ldr	r3, [sp, #48]	; 0x30
10002d3a:	9808      	ldr	r0, [sp, #32]
10002d3c:	9303      	str	r3, [sp, #12]
10002d3e:	9b12      	ldr	r3, [sp, #72]	; 0x48
10002d40:	3601      	adds	r6, #1
10002d42:	9302      	str	r3, [sp, #8]
10002d44:	4653      	mov	r3, sl
10002d46:	9301      	str	r3, [sp, #4]
10002d48:	ab16      	add	r3, sp, #88	; 0x58
10002d4a:	9300      	str	r3, [sp, #0]
10002d4c:	465b      	mov	r3, fp
10002d4e:	f7fe fdf5 	bl	1000193c <_ntoa_format>
10002d52:	9b13      	ldr	r3, [sp, #76]	; 0x4c
10002d54:	0005      	movs	r5, r0
10002d56:	9309      	str	r3, [sp, #36]	; 0x24
10002d58:	f7ff fb23 	bl	100023a2 <_vsnprintf+0x4a>
10002d5c:	9b09      	ldr	r3, [sp, #36]	; 0x24
10002d5e:	cb04      	ldmia	r3!, {r2}
10002d60:	4691      	mov	r9, r2
10002d62:	9312      	str	r3, [sp, #72]	; 0x48
10002d64:	2a00      	cmp	r2, #0
10002d66:	d108      	bne.n	10002d7a <_vsnprintf+0xa22>
10002d68:	2380      	movs	r3, #128	; 0x80
10002d6a:	2210      	movs	r2, #16
10002d6c:	990b      	ldr	r1, [sp, #44]	; 0x2c
10002d6e:	00db      	lsls	r3, r3, #3
10002d70:	400b      	ands	r3, r1
10002d72:	4391      	bics	r1, r2
10002d74:	910b      	str	r1, [sp, #44]	; 0x2c
10002d76:	2b00      	cmp	r3, #0
10002d78:	d12b      	bne.n	10002dd2 <_vsnprintf+0xa7a>
10002d7a:	9a0b      	ldr	r2, [sp, #44]	; 0x2c
10002d7c:	2361      	movs	r3, #97	; 0x61
10002d7e:	0692      	lsls	r2, r2, #26
10002d80:	d500      	bpl.n	10002d84 <_vsnprintf+0xa2c>
10002d82:	2341      	movs	r3, #65	; 0x41
10002d84:	aa0e      	add	r2, sp, #56	; 0x38
10002d86:	271f      	movs	r7, #31
10002d88:	4694      	mov	ip, r2
10002d8a:	b2db      	uxtb	r3, r3
10002d8c:	3b0a      	subs	r3, #10
10002d8e:	950d      	str	r5, [sp, #52]	; 0x34
10002d90:	4467      	add	r7, ip
10002d92:	4655      	mov	r5, sl
10002d94:	9309      	str	r3, [sp, #36]	; 0x24
10002d96:	46a2      	mov	sl, r4
10002d98:	464c      	mov	r4, r9
10002d9a:	46b1      	mov	r9, r6
10002d9c:	9e0c      	ldr	r6, [sp, #48]	; 0x30
10002d9e:	e008      	b.n	10002db2 <_vsnprintf+0xa5a>
10002da0:	3330      	adds	r3, #48	; 0x30
10002da2:	b2db      	uxtb	r3, r3
10002da4:	3501      	adds	r5, #1
10002da6:	557b      	strb	r3, [r7, r5]
10002da8:	42b4      	cmp	r4, r6
10002daa:	d30e      	bcc.n	10002dca <_vsnprintf+0xa72>
10002dac:	2d20      	cmp	r5, #32
10002dae:	d00c      	beq.n	10002dca <_vsnprintf+0xa72>
10002db0:	0004      	movs	r4, r0
10002db2:	0031      	movs	r1, r6
10002db4:	0020      	movs	r0, r4
10002db6:	f000 f8dd 	bl	10002f74 <__wrap___aeabi_uidiv>
10002dba:	b2cb      	uxtb	r3, r1
10002dbc:	2909      	cmp	r1, #9
10002dbe:	d9ef      	bls.n	10002da0 <_vsnprintf+0xa48>
10002dc0:	9a09      	ldr	r2, [sp, #36]	; 0x24
10002dc2:	4694      	mov	ip, r2
10002dc4:	4463      	add	r3, ip
10002dc6:	b2db      	uxtb	r3, r3
10002dc8:	e7ec      	b.n	10002da4 <_vsnprintf+0xa4c>
10002dca:	464e      	mov	r6, r9
10002dcc:	4654      	mov	r4, sl
10002dce:	46aa      	mov	sl, r5
10002dd0:	9d0d      	ldr	r5, [sp, #52]	; 0x34
10002dd2:	9b0b      	ldr	r3, [sp, #44]	; 0x2c
10002dd4:	002a      	movs	r2, r5
10002dd6:	9306      	str	r3, [sp, #24]
10002dd8:	9b0a      	ldr	r3, [sp, #40]	; 0x28
10002dda:	0021      	movs	r1, r4
10002ddc:	9305      	str	r3, [sp, #20]
10002dde:	4643      	mov	r3, r8
10002de0:	9304      	str	r3, [sp, #16]
10002de2:	9b0c      	ldr	r3, [sp, #48]	; 0x30
10002de4:	9808      	ldr	r0, [sp, #32]
10002de6:	9303      	str	r3, [sp, #12]
10002de8:	2300      	movs	r3, #0
10002dea:	9302      	str	r3, [sp, #8]
10002dec:	4653      	mov	r3, sl
10002dee:	9301      	str	r3, [sp, #4]
10002df0:	ab16      	add	r3, sp, #88	; 0x58
10002df2:	9300      	str	r3, [sp, #0]
10002df4:	465b      	mov	r3, fp
10002df6:	f7fe fda1 	bl	1000193c <_ntoa_format>
10002dfa:	9b12      	ldr	r3, [sp, #72]	; 0x48
10002dfc:	0005      	movs	r5, r0
10002dfe:	9309      	str	r3, [sp, #36]	; 0x24
10002e00:	3601      	adds	r6, #1
10002e02:	f7ff face 	bl	100023a2 <_vsnprintf+0x4a>
10002e06:	42b4      	cmp	r4, r6
10002e08:	d800      	bhi.n	10002e0c <_vsnprintf+0xab4>
10002e0a:	e67f      	b.n	10002b0c <_vsnprintf+0x7b4>
10002e0c:	9b14      	ldr	r3, [sp, #80]	; 0x50
10002e0e:	464c      	mov	r4, r9
10002e10:	960e      	str	r6, [sp, #56]	; 0x38
10002e12:	970f      	str	r7, [sp, #60]	; 0x3c
10002e14:	46a9      	mov	r9, r5
10002e16:	4698      	mov	r8, r3
10002e18:	9e15      	ldr	r6, [sp, #84]	; 0x54
10002e1a:	9d13      	ldr	r5, [sp, #76]	; 0x4c
10002e1c:	e699      	b.n	10002b52 <_vsnprintf+0x7fa>
10002e1e:	42a6      	cmp	r6, r4
10002e20:	d800      	bhi.n	10002e24 <_vsnprintf+0xacc>
10002e22:	e6fe      	b.n	10002c22 <_vsnprintf+0x8ca>
10002e24:	9b13      	ldr	r3, [sp, #76]	; 0x4c
10002e26:	464e      	mov	r6, r9
10002e28:	4698      	mov	r8, r3
10002e2a:	46a9      	mov	r9, r5
10002e2c:	4654      	mov	r4, sl
10002e2e:	9d12      	ldr	r5, [sp, #72]	; 0x48
10002e30:	f7ff fbaf 	bl	10002592 <_vsnprintf+0x23a>
10002e34:	c908      	ldmia	r1!, {r3}
10002e36:	17d8      	asrs	r0, r3, #31
10002e38:	181a      	adds	r2, r3, r0
10002e3a:	4042      	eors	r2, r0
10002e3c:	9109      	str	r1, [sp, #36]	; 0x24
10002e3e:	e566      	b.n	1000290e <_vsnprintf+0x5b6>
10002e40:	2300      	movs	r3, #0
10002e42:	930b      	str	r3, [sp, #44]	; 0x2c
10002e44:	e45e      	b.n	10002704 <_vsnprintf+0x3ac>
10002e46:	9b09      	ldr	r3, [sp, #36]	; 0x24
10002e48:	cb04      	ldmia	r3!, {r2}
10002e4a:	4692      	mov	sl, r2
10002e4c:	9309      	str	r3, [sp, #36]	; 0x24
10002e4e:	f7ff fb92 	bl	10002576 <_vsnprintf+0x21e>
10002e52:	002f      	movs	r7, r5
10002e54:	e5e0      	b.n	10002a18 <_vsnprintf+0x6c0>
10002e56:	930b      	str	r3, [sp, #44]	; 0x2c
10002e58:	e60b      	b.n	10002a72 <_vsnprintf+0x71a>
10002e5a:	3b06      	subs	r3, #6
10002e5c:	930c      	str	r3, [sp, #48]	; 0x30
10002e5e:	e52e      	b.n	100028be <_vsnprintf+0x566>

10002e60 <vfctprintf>:
10002e60:	b500      	push	{lr}
10002e62:	b085      	sub	sp, #20
10002e64:	9103      	str	r1, [sp, #12]
10002e66:	2101      	movs	r1, #1
10002e68:	9002      	str	r0, [sp, #8]
10002e6a:	9300      	str	r3, [sp, #0]
10002e6c:	4803      	ldr	r0, [pc, #12]	; (10002e7c <vfctprintf+0x1c>)
10002e6e:	0013      	movs	r3, r2
10002e70:	424a      	negs	r2, r1
10002e72:	a902      	add	r1, sp, #8
10002e74:	f7ff fa70 	bl	10002358 <_vsnprintf>
10002e78:	b005      	add	sp, #20
10002e7a:	bd00      	pop	{pc}
10002e7c:	10001b1d 	.word	0x10001b1d

10002e80 <weak_raw_vprintf>:
10002e80:	b510      	push	{r4, lr}
10002e82:	4a09      	ldr	r2, [pc, #36]	; (10002ea8 <weak_raw_vprintf+0x28>)
10002e84:	0003      	movs	r3, r0
10002e86:	6814      	ldr	r4, [r2, #0]
10002e88:	b084      	sub	sp, #16
10002e8a:	2c00      	cmp	r4, #0
10002e8c:	d008      	beq.n	10002ea0 <weak_raw_vprintf+0x20>
10002e8e:	2201      	movs	r2, #1
10002e90:	9100      	str	r1, [sp, #0]
10002e92:	4806      	ldr	r0, [pc, #24]	; (10002eac <weak_raw_vprintf+0x2c>)
10002e94:	4252      	negs	r2, r2
10002e96:	a903      	add	r1, sp, #12
10002e98:	47a0      	blx	r4
10002e9a:	2001      	movs	r0, #1
10002e9c:	b004      	add	sp, #16
10002e9e:	bd10      	pop	{r4, pc}
10002ea0:	f001 f88e 	bl	10003fc0 <__wrap_puts>
10002ea4:	2000      	movs	r0, #0
10002ea6:	e7f9      	b.n	10002e9c <weak_raw_vprintf+0x1c>
10002ea8:	20000be4 	.word	0x20000be4
10002eac:	10001b0d 	.word	0x10001b0d

10002eb0 <__aeabi_bits_init>:
10002eb0:	4801      	ldr	r0, [pc, #4]	; (10002eb8 <__aeabi_bits_init+0x8>)
10002eb2:	2104      	movs	r1, #4
10002eb4:	4b01      	ldr	r3, [pc, #4]	; (10002ebc <__aeabi_bits_init+0xc>)
10002eb6:	4718      	bx	r3
10002eb8:	200002c0 	.word	0x200002c0
10002ebc:	10002ee1 	.word	0x10002ee1

10002ec0 <rom_func_lookup>:
10002ec0:	2314      	movs	r3, #20
10002ec2:	b510      	push	{r4, lr}
10002ec4:	0001      	movs	r1, r0
10002ec6:	8818      	ldrh	r0, [r3, #0]
10002ec8:	3304      	adds	r3, #4
10002eca:	881b      	ldrh	r3, [r3, #0]
10002ecc:	4798      	blx	r3
10002ece:	bd10      	pop	{r4, pc}

10002ed0 <rom_data_lookup>:
10002ed0:	2316      	movs	r3, #22
10002ed2:	b510      	push	{r4, lr}
10002ed4:	0001      	movs	r1, r0
10002ed6:	8818      	ldrh	r0, [r3, #0]
10002ed8:	3302      	adds	r3, #2
10002eda:	881b      	ldrh	r3, [r3, #0]
10002edc:	4798      	blx	r3
10002ede:	bd10      	pop	{r4, pc}

10002ee0 <rom_funcs_lookup>:
10002ee0:	b5f0      	push	{r4, r5, r6, r7, lr}
10002ee2:	46c6      	mov	lr, r8
10002ee4:	b500      	push	{lr}
10002ee6:	2900      	cmp	r1, #0
10002ee8:	d016      	beq.n	10002f18 <rom_funcs_lookup+0x38>
10002eea:	2314      	movs	r3, #20
10002eec:	0004      	movs	r4, r0
10002eee:	2501      	movs	r5, #1
10002ef0:	4698      	mov	r8, r3
10002ef2:	2718      	movs	r7, #24
10002ef4:	0089      	lsls	r1, r1, #2
10002ef6:	1846      	adds	r6, r0, r1
10002ef8:	4643      	mov	r3, r8
10002efa:	6821      	ldr	r1, [r4, #0]
10002efc:	8818      	ldrh	r0, [r3, #0]
10002efe:	883b      	ldrh	r3, [r7, #0]
10002f00:	4798      	blx	r3
10002f02:	c401      	stmia	r4!, {r0}
10002f04:	1e43      	subs	r3, r0, #1
10002f06:	4198      	sbcs	r0, r3
10002f08:	4240      	negs	r0, r0
10002f0a:	4005      	ands	r5, r0
10002f0c:	42a6      	cmp	r6, r4
10002f0e:	d1f3      	bne.n	10002ef8 <rom_funcs_lookup+0x18>
10002f10:	0028      	movs	r0, r5
10002f12:	bc04      	pop	{r2}
10002f14:	4690      	mov	r8, r2
10002f16:	bdf0      	pop	{r4, r5, r6, r7, pc}
10002f18:	2501      	movs	r5, #1
10002f1a:	e7f9      	b.n	10002f10 <rom_funcs_lookup+0x30>

10002f1c <__wrap___aeabi_idiv>:
10002f1c:	4a14      	ldr	r2, [pc, #80]	; (10002f70 <divmod_s32s32_savestate+0x20>)
10002f1e:	6f93      	ldr	r3, [r2, #120]	; 0x78
10002f20:	089b      	lsrs	r3, r3, #2
10002f22:	d215      	bcs.n	10002f50 <divmod_s32s32_savestate>

10002f24 <divmod_s32s32_unsafe>:
10002f24:	6690      	str	r0, [r2, #104]	; 0x68
10002f26:	66d1      	str	r1, [r2, #108]	; 0x6c
10002f28:	2900      	cmp	r1, #0
10002f2a:	d005      	beq.n	10002f38 <divmod_s32s32_unsafe+0x14>
10002f2c:	e7ff      	b.n	10002f2e <divmod_s32s32_unsafe+0xa>
10002f2e:	e7ff      	b.n	10002f30 <divmod_s32s32_unsafe+0xc>
10002f30:	e7ff      	b.n	10002f32 <divmod_s32s32_unsafe+0xe>
10002f32:	6f51      	ldr	r1, [r2, #116]	; 0x74
10002f34:	6f10      	ldr	r0, [r2, #112]	; 0x70
10002f36:	4770      	bx	lr
10002f38:	b504      	push	{r2, lr}
10002f3a:	2180      	movs	r1, #128	; 0x80
10002f3c:	0609      	lsls	r1, r1, #24
10002f3e:	17c2      	asrs	r2, r0, #31
10002f40:	4051      	eors	r1, r2
10002f42:	2800      	cmp	r0, #0
10002f44:	d000      	beq.n	10002f48 <divmod_s32s32_unsafe+0x24>
10002f46:	43c8      	mvns	r0, r1
10002f48:	f001 fdee 	bl	10004b28 <____aeabi_idiv0_veneer>
10002f4c:	2100      	movs	r1, #0
10002f4e:	bd04      	pop	{r2, pc}

10002f50 <divmod_s32s32_savestate>:
10002f50:	6f93      	ldr	r3, [r2, #120]	; 0x78
10002f52:	085b      	lsrs	r3, r3, #1
10002f54:	d3fd      	bcc.n	10002f52 <divmod_s32s32_savestate+0x2>
10002f56:	b5f0      	push	{r4, r5, r6, r7, lr}
10002f58:	6e94      	ldr	r4, [r2, #104]	; 0x68
10002f5a:	6ed5      	ldr	r5, [r2, #108]	; 0x6c
10002f5c:	6f57      	ldr	r7, [r2, #116]	; 0x74
10002f5e:	6f16      	ldr	r6, [r2, #112]	; 0x70
10002f60:	f7ff ffe0 	bl	10002f24 <divmod_s32s32_unsafe>
10002f64:	6694      	str	r4, [r2, #104]	; 0x68
10002f66:	66d5      	str	r5, [r2, #108]	; 0x6c
10002f68:	6757      	str	r7, [r2, #116]	; 0x74
10002f6a:	6716      	str	r6, [r2, #112]	; 0x70
10002f6c:	bdf0      	pop	{r4, r5, r6, r7, pc}
10002f6e:	0000      	.short	0x0000
10002f70:	d0000000 	.word	0xd0000000

10002f74 <__wrap___aeabi_uidiv>:
10002f74:	4a13      	ldr	r2, [pc, #76]	; (10002fc4 <divmod_u32u32_savestate+0x20>)
10002f76:	6f93      	ldr	r3, [r2, #120]	; 0x78
10002f78:	089b      	lsrs	r3, r3, #2
10002f7a:	d213      	bcs.n	10002fa4 <divmod_u32u32_savestate>

10002f7c <divmod_u32u32_unsafe>:
10002f7c:	6610      	str	r0, [r2, #96]	; 0x60
10002f7e:	6651      	str	r1, [r2, #100]	; 0x64
10002f80:	2900      	cmp	r1, #0
10002f82:	d005      	beq.n	10002f90 <divmod_u32u32_unsafe+0x14>
10002f84:	e7ff      	b.n	10002f86 <divmod_u32u32_unsafe+0xa>
10002f86:	e7ff      	b.n	10002f88 <divmod_u32u32_unsafe+0xc>
10002f88:	e7ff      	b.n	10002f8a <divmod_u32u32_unsafe+0xe>
10002f8a:	6f51      	ldr	r1, [r2, #116]	; 0x74
10002f8c:	6f10      	ldr	r0, [r2, #112]	; 0x70
10002f8e:	4770      	bx	lr
10002f90:	b504      	push	{r2, lr}
10002f92:	2800      	cmp	r0, #0
10002f94:	d001      	beq.n	10002f9a <divmod_u32u32_unsafe+0x1e>
10002f96:	2000      	movs	r0, #0
10002f98:	43c0      	mvns	r0, r0
10002f9a:	f001 fdc5 	bl	10004b28 <____aeabi_idiv0_veneer>
10002f9e:	2100      	movs	r1, #0
10002fa0:	bd04      	pop	{r2, pc}
10002fa2:	46c0      	nop			; (mov r8, r8)

10002fa4 <divmod_u32u32_savestate>:
10002fa4:	6f93      	ldr	r3, [r2, #120]	; 0x78
10002fa6:	085b      	lsrs	r3, r3, #1
10002fa8:	d3fd      	bcc.n	10002fa6 <divmod_u32u32_savestate+0x2>
10002faa:	b5f0      	push	{r4, r5, r6, r7, lr}
10002fac:	6e94      	ldr	r4, [r2, #104]	; 0x68
10002fae:	6ed5      	ldr	r5, [r2, #108]	; 0x6c
10002fb0:	6f57      	ldr	r7, [r2, #116]	; 0x74
10002fb2:	6f16      	ldr	r6, [r2, #112]	; 0x70
10002fb4:	f7ff ffe2 	bl	10002f7c <divmod_u32u32_unsafe>
10002fb8:	6694      	str	r4, [r2, #104]	; 0x68
10002fba:	66d5      	str	r5, [r2, #108]	; 0x6c
10002fbc:	6757      	str	r7, [r2, #116]	; 0x74
10002fbe:	6716      	str	r6, [r2, #112]	; 0x70
10002fc0:	bdf0      	pop	{r4, r5, r6, r7, pc}
10002fc2:	0000      	.short	0x0000
10002fc4:	d0000000 	.word	0xd0000000

10002fc8 <__wrap___aeabi_ldivmod>:
10002fc8:	4694      	mov	ip, r2
10002fca:	4a4e      	ldr	r2, [pc, #312]	; (10003104 <udiv0+0x1a>)
10002fcc:	6f92      	ldr	r2, [r2, #120]	; 0x78
10002fce:	0892      	lsrs	r2, r2, #2
10002fd0:	4662      	mov	r2, ip
10002fd2:	d201      	bcs.n	10002fd8 <divmod_s64s64_savestate>
10002fd4:	e030      	b.n	10003038 <divmod_s64s64_unsafe>
10002fd6:	46c0      	nop			; (mov r8, r8)

10002fd8 <divmod_s64s64_savestate>:
10002fd8:	b5f0      	push	{r4, r5, r6, r7, lr}
10002fda:	4e4a      	ldr	r6, [pc, #296]	; (10003104 <udiv0+0x1a>)
10002fdc:	6fb5      	ldr	r5, [r6, #120]	; 0x78
10002fde:	086d      	lsrs	r5, r5, #1
10002fe0:	d3fc      	bcc.n	10002fdc <divmod_s64s64_savestate+0x4>
10002fe2:	6e34      	ldr	r4, [r6, #96]	; 0x60
10002fe4:	6e75      	ldr	r5, [r6, #100]	; 0x64
10002fe6:	6f77      	ldr	r7, [r6, #116]	; 0x74
10002fe8:	6f36      	ldr	r6, [r6, #112]	; 0x70
10002fea:	f000 f825 	bl	10003038 <divmod_s64s64_unsafe>
10002fee:	4694      	mov	ip, r2
10002ff0:	4a44      	ldr	r2, [pc, #272]	; (10003104 <udiv0+0x1a>)
10002ff2:	6614      	str	r4, [r2, #96]	; 0x60
10002ff4:	6655      	str	r5, [r2, #100]	; 0x64
10002ff6:	6757      	str	r7, [r2, #116]	; 0x74
10002ff8:	6716      	str	r6, [r2, #112]	; 0x70
10002ffa:	4662      	mov	r2, ip
10002ffc:	bdf0      	pop	{r4, r5, r6, r7, pc}
10002ffe:	46c0      	nop			; (mov r8, r8)

10003000 <__wrap___aeabi_uldivmod>:
10003000:	4694      	mov	ip, r2
10003002:	4a40      	ldr	r2, [pc, #256]	; (10003104 <udiv0+0x1a>)
10003004:	6f92      	ldr	r2, [r2, #120]	; 0x78
10003006:	0892      	lsrs	r2, r2, #2
10003008:	4662      	mov	r2, ip
1000300a:	d201      	bcs.n	10003010 <divmod_u64u64_savestate>
1000300c:	e058      	b.n	100030c0 <divmod_u64u64_unsafe>
1000300e:	46c0      	nop			; (mov r8, r8)

10003010 <divmod_u64u64_savestate>:
10003010:	b5f0      	push	{r4, r5, r6, r7, lr}
10003012:	4e3c      	ldr	r6, [pc, #240]	; (10003104 <udiv0+0x1a>)
10003014:	6fb5      	ldr	r5, [r6, #120]	; 0x78
10003016:	086d      	lsrs	r5, r5, #1
10003018:	d3fc      	bcc.n	10003014 <divmod_u64u64_savestate+0x4>
1000301a:	6e34      	ldr	r4, [r6, #96]	; 0x60
1000301c:	6e75      	ldr	r5, [r6, #100]	; 0x64
1000301e:	6f77      	ldr	r7, [r6, #116]	; 0x74
10003020:	6f36      	ldr	r6, [r6, #112]	; 0x70
10003022:	f000 f84d 	bl	100030c0 <divmod_u64u64_unsafe>
10003026:	4694      	mov	ip, r2
10003028:	4a36      	ldr	r2, [pc, #216]	; (10003104 <udiv0+0x1a>)
1000302a:	6614      	str	r4, [r2, #96]	; 0x60
1000302c:	6655      	str	r5, [r2, #100]	; 0x64
1000302e:	6757      	str	r7, [r2, #116]	; 0x74
10003030:	6716      	str	r6, [r2, #112]	; 0x70
10003032:	4662      	mov	r2, ip
10003034:	bdf0      	pop	{r4, r5, r6, r7, pc}
10003036:	46c0      	nop			; (mov r8, r8)

10003038 <divmod_s64s64_unsafe>:
10003038:	2b00      	cmp	r3, #0
1000303a:	db24      	blt.n	10003086 <l41_1+0x26>
1000303c:	d011      	beq.n	10003062 <l41_1+0x2>
1000303e:	2900      	cmp	r1, #0
10003040:	da3e      	bge.n	100030c0 <divmod_u64u64_unsafe>
10003042:	b500      	push	{lr}
10003044:	43c9      	mvns	r1, r1
10003046:	4240      	negs	r0, r0
10003048:	d100      	bne.n	1000304c <l39_1>
1000304a:	3101      	adds	r1, #1

1000304c <l39_1>:
1000304c:	f000 f838 	bl	100030c0 <divmod_u64u64_unsafe>
10003050:	43c9      	mvns	r1, r1
10003052:	4240      	negs	r0, r0
10003054:	d100      	bne.n	10003058 <l40_1>
10003056:	3101      	adds	r1, #1

10003058 <l40_1>:
10003058:	43db      	mvns	r3, r3
1000305a:	4252      	negs	r2, r2
1000305c:	d100      	bne.n	10003060 <l41_1>
1000305e:	3301      	adds	r3, #1

10003060 <l41_1>:
10003060:	bd00      	pop	{pc}
10003062:	2a00      	cmp	r2, #0
10003064:	d1eb      	bne.n	1000303e <divmod_s64s64_unsafe+0x6>
10003066:	2800      	cmp	r0, #0
10003068:	d101      	bne.n	1000306e <l41_1+0xe>
1000306a:	2900      	cmp	r1, #0
1000306c:	d005      	beq.n	1000307a <l41_1+0x1a>
1000306e:	2000      	movs	r0, #0
10003070:	0fc9      	lsrs	r1, r1, #31
10003072:	07c9      	lsls	r1, r1, #31
10003074:	d101      	bne.n	1000307a <l41_1+0x1a>
10003076:	43c0      	mvns	r0, r0
10003078:	0841      	lsrs	r1, r0, #1
1000307a:	b500      	push	{lr}
1000307c:	f001 fd4c 	bl	10004b18 <____aeabi_ldiv0_veneer>
10003080:	2200      	movs	r2, #0
10003082:	2300      	movs	r3, #0
10003084:	bd00      	pop	{pc}
10003086:	b500      	push	{lr}
10003088:	2900      	cmp	r1, #0
1000308a:	db0a      	blt.n	100030a2 <l43_1+0x2>
1000308c:	43db      	mvns	r3, r3
1000308e:	4252      	negs	r2, r2
10003090:	d100      	bne.n	10003094 <l42_1>
10003092:	3301      	adds	r3, #1

10003094 <l42_1>:
10003094:	f000 f814 	bl	100030c0 <divmod_u64u64_unsafe>
10003098:	43c9      	mvns	r1, r1
1000309a:	4240      	negs	r0, r0
1000309c:	d100      	bne.n	100030a0 <l43_1>
1000309e:	3101      	adds	r1, #1

100030a0 <l43_1>:
100030a0:	bd00      	pop	{pc}
100030a2:	43c9      	mvns	r1, r1
100030a4:	4240      	negs	r0, r0
100030a6:	d100      	bne.n	100030aa <l44_1>
100030a8:	3101      	adds	r1, #1

100030aa <l44_1>:
100030aa:	43db      	mvns	r3, r3
100030ac:	4252      	negs	r2, r2
100030ae:	d100      	bne.n	100030b2 <l45_1>
100030b0:	3301      	adds	r3, #1

100030b2 <l45_1>:
100030b2:	f000 f805 	bl	100030c0 <divmod_u64u64_unsafe>
100030b6:	43db      	mvns	r3, r3
100030b8:	4252      	negs	r2, r2
100030ba:	d100      	bne.n	100030be <l46_1>
100030bc:	3301      	adds	r3, #1

100030be <l46_1>:
100030be:	bd00      	pop	{pc}

100030c0 <divmod_u64u64_unsafe>:
100030c0:	2900      	cmp	r1, #0
100030c2:	d123      	bne.n	1000310c <y64>
100030c4:	2b00      	cmp	r3, #0
100030c6:	d118      	bne.n	100030fa <udiv0+0x10>
100030c8:	2a00      	cmp	r2, #0
100030ca:	d00c      	beq.n	100030e6 <divmod_u64u64_unsafe+0x26>
100030cc:	46bc      	mov	ip, r7
100030ce:	4f0d      	ldr	r7, [pc, #52]	; (10003104 <udiv0+0x1a>)
100030d0:	6638      	str	r0, [r7, #96]	; 0x60
100030d2:	667a      	str	r2, [r7, #100]	; 0x64
100030d4:	2100      	movs	r1, #0
100030d6:	2300      	movs	r3, #0
100030d8:	e7ff      	b.n	100030da <divmod_u64u64_unsafe+0x1a>
100030da:	e7ff      	b.n	100030dc <divmod_u64u64_unsafe+0x1c>
100030dc:	e7ff      	b.n	100030de <divmod_u64u64_unsafe+0x1e>
100030de:	6f7a      	ldr	r2, [r7, #116]	; 0x74
100030e0:	6f38      	ldr	r0, [r7, #112]	; 0x70
100030e2:	4667      	mov	r7, ip
100030e4:	4770      	bx	lr
100030e6:	2800      	cmp	r0, #0
100030e8:	d001      	beq.n	100030ee <udiv0+0x4>

100030ea <udiv0>:
100030ea:	4807      	ldr	r0, [pc, #28]	; (10003108 <udiv0+0x1e>)
100030ec:	0001      	movs	r1, r0
100030ee:	b500      	push	{lr}
100030f0:	f001 fd12 	bl	10004b18 <____aeabi_ldiv0_veneer>
100030f4:	2200      	movs	r2, #0
100030f6:	2300      	movs	r3, #0
100030f8:	bd00      	pop	{pc}
100030fa:	0002      	movs	r2, r0
100030fc:	000b      	movs	r3, r1
100030fe:	2000      	movs	r0, #0
10003100:	2100      	movs	r1, #0
10003102:	4770      	bx	lr
10003104:	d0000000 	.word	0xd0000000
10003108:	ffffffff 	.word	0xffffffff

1000310c <y64>:
1000310c:	2b00      	cmp	r3, #0
1000310e:	d000      	beq.n	10003112 <y64+0x6>
10003110:	e0bd      	b.n	1000328e <y64_x48>
10003112:	0c13      	lsrs	r3, r2, #16
10003114:	d126      	bne.n	10003164 <y64_x32>
10003116:	2a00      	cmp	r2, #0
10003118:	d0e7      	beq.n	100030ea <udiv0>
1000311a:	b480      	push	{r7}
1000311c:	4f10      	ldr	r7, [pc, #64]	; (10003160 <y64+0x54>)
1000311e:	6639      	str	r1, [r7, #96]	; 0x60
10003120:	667a      	str	r2, [r7, #100]	; 0x64
10003122:	e7ff      	b.n	10003124 <y64+0x18>
10003124:	e7ff      	b.n	10003126 <y64+0x1a>
10003126:	b430      	push	{r4, r5}
10003128:	0c04      	lsrs	r4, r0, #16
1000312a:	6f7b      	ldr	r3, [r7, #116]	; 0x74
1000312c:	6f39      	ldr	r1, [r7, #112]	; 0x70
1000312e:	041b      	lsls	r3, r3, #16
10003130:	4323      	orrs	r3, r4
10003132:	663b      	str	r3, [r7, #96]	; 0x60
10003134:	e7ff      	b.n	10003136 <y64+0x2a>
10003136:	e7ff      	b.n	10003138 <y64+0x2c>
10003138:	e7ff      	b.n	1000313a <y64+0x2e>
1000313a:	46c0      	nop			; (mov r8, r8)
1000313c:	b284      	uxth	r4, r0
1000313e:	6f7b      	ldr	r3, [r7, #116]	; 0x74
10003140:	6f3d      	ldr	r5, [r7, #112]	; 0x70
10003142:	041b      	lsls	r3, r3, #16
10003144:	4323      	orrs	r3, r4
10003146:	663b      	str	r3, [r7, #96]	; 0x60
10003148:	e7ff      	b.n	1000314a <y64+0x3e>
1000314a:	e7ff      	b.n	1000314c <y64+0x40>
1000314c:	46c0      	nop			; (mov r8, r8)
1000314e:	2300      	movs	r3, #0
10003150:	042c      	lsls	r4, r5, #16
10003152:	0c2d      	lsrs	r5, r5, #16
10003154:	6f7a      	ldr	r2, [r7, #116]	; 0x74
10003156:	6f38      	ldr	r0, [r7, #112]	; 0x70
10003158:	1900      	adds	r0, r0, r4
1000315a:	4169      	adcs	r1, r5
1000315c:	bcb0      	pop	{r4, r5, r7}
1000315e:	4770      	bx	lr
10003160:	d0000000 	.word	0xd0000000

10003164 <y64_x32>:
10003164:	b5f0      	push	{r4, r5, r6, r7, lr}
10003166:	4694      	mov	ip, r2
10003168:	2500      	movs	r5, #0
1000316a:	0e14      	lsrs	r4, r2, #24
1000316c:	d101      	bne.n	10003172 <y64_x32+0xe>
1000316e:	0212      	lsls	r2, r2, #8
10003170:	3508      	adds	r5, #8
10003172:	0f14      	lsrs	r4, r2, #28
10003174:	d101      	bne.n	1000317a <y64_x32+0x16>
10003176:	0112      	lsls	r2, r2, #4
10003178:	3504      	adds	r5, #4
1000317a:	0f94      	lsrs	r4, r2, #30
1000317c:	d101      	bne.n	10003182 <y64_x32+0x1e>
1000317e:	0092      	lsls	r2, r2, #2
10003180:	3502      	adds	r5, #2
10003182:	0fd4      	lsrs	r4, r2, #31
10003184:	d101      	bne.n	1000318a <y64_x32+0x26>
10003186:	0052      	lsls	r2, r2, #1
10003188:	3501      	adds	r5, #1
1000318a:	0bd4      	lsrs	r4, r2, #15
1000318c:	3401      	adds	r4, #1
1000318e:	4f25      	ldr	r7, [pc, #148]	; (10003224 <y64_x32+0xc0>)
10003190:	667c      	str	r4, [r7, #100]	; 0x64
10003192:	4c25      	ldr	r4, [pc, #148]	; (10003228 <y64_x32+0xc4>)
10003194:	663c      	str	r4, [r7, #96]	; 0x60
10003196:	0c0e      	lsrs	r6, r1, #16
10003198:	b293      	uxth	r3, r2
1000319a:	e7ff      	b.n	1000319c <y64_x32+0x38>
1000319c:	e7ff      	b.n	1000319e <y64_x32+0x3a>
1000319e:	e7ff      	b.n	100031a0 <y64_x32+0x3c>
100031a0:	6f3c      	ldr	r4, [r7, #112]	; 0x70
100031a2:	4366      	muls	r6, r4
100031a4:	0c36      	lsrs	r6, r6, #16
100031a6:	0377      	lsls	r7, r6, #13
100031a8:	46be      	mov	lr, r7
100031aa:	4373      	muls	r3, r6
100031ac:	0bdf      	lsrs	r7, r3, #15
100031ae:	045b      	lsls	r3, r3, #17
100031b0:	1ac0      	subs	r0, r0, r3
100031b2:	41b9      	sbcs	r1, r7
100031b4:	0c13      	lsrs	r3, r2, #16
100031b6:	4373      	muls	r3, r6
100031b8:	18db      	adds	r3, r3, r3
100031ba:	1ac9      	subs	r1, r1, r3
100031bc:	08ce      	lsrs	r6, r1, #3
100031be:	4366      	muls	r6, r4
100031c0:	0c36      	lsrs	r6, r6, #16
100031c2:	44b6      	add	lr, r6
100031c4:	b293      	uxth	r3, r2
100031c6:	4373      	muls	r3, r6
100031c8:	0f1f      	lsrs	r7, r3, #28
100031ca:	011b      	lsls	r3, r3, #4
100031cc:	1ac0      	subs	r0, r0, r3
100031ce:	41b9      	sbcs	r1, r7
100031d0:	0c13      	lsrs	r3, r2, #16
100031d2:	4373      	muls	r3, r6
100031d4:	0b1f      	lsrs	r7, r3, #12
100031d6:	051b      	lsls	r3, r3, #20
100031d8:	1ac0      	subs	r0, r0, r3
100031da:	41b9      	sbcs	r1, r7
100031dc:	0d86      	lsrs	r6, r0, #22
100031de:	028f      	lsls	r7, r1, #10
100031e0:	433e      	orrs	r6, r7
100031e2:	4366      	muls	r6, r4
100031e4:	0c36      	lsrs	r6, r6, #16
100031e6:	2d09      	cmp	r5, #9
100031e8:	db24      	blt.n	10003234 <last0>
100031ea:	0a52      	lsrs	r2, r2, #9
100031ec:	4372      	muls	r2, r6
100031ee:	1a80      	subs	r0, r0, r2
100031f0:	0377      	lsls	r7, r6, #13
100031f2:	0a46      	lsrs	r6, r0, #9
100031f4:	4366      	muls	r6, r4
100031f6:	0c36      	lsrs	r6, r6, #16
100031f8:	2316      	movs	r3, #22
100031fa:	1b5b      	subs	r3, r3, r5
100031fc:	40de      	lsrs	r6, r3
100031fe:	40df      	lsrs	r7, r3
10003200:	19bf      	adds	r7, r7, r6
10003202:	4664      	mov	r4, ip
10003204:	4366      	muls	r6, r4
10003206:	1b82      	subs	r2, r0, r6
10003208:	4670      	mov	r0, lr
1000320a:	3504      	adds	r5, #4
1000320c:	3306      	adds	r3, #6
1000320e:	0001      	movs	r1, r0
10003210:	40d9      	lsrs	r1, r3
10003212:	40a8      	lsls	r0, r5
10003214:	19c0      	adds	r0, r0, r7
10003216:	d300      	bcc.n	1000321a <y64_x32+0xb6>
10003218:	3101      	adds	r1, #1
1000321a:	42a2      	cmp	r2, r4
1000321c:	d206      	bcs.n	1000322c <y64_x32+0xc8>
1000321e:	2300      	movs	r3, #0
10003220:	bdf0      	pop	{r4, r5, r6, r7, pc}
10003222:	0000      	.short	0x0000
10003224:	d0000000 	.word	0xd0000000
10003228:	ffffffff 	.word	0xffffffff
1000322c:	1b12      	subs	r2, r2, r4
1000322e:	3001      	adds	r0, #1
10003230:	d3f3      	bcc.n	1000321a <y64_x32+0xb6>
10003232:	e7f1      	b.n	10003218 <y64_x32+0xb4>

10003234 <last0>:
10003234:	2709      	movs	r7, #9
10003236:	1b7f      	subs	r7, r7, r5
10003238:	40fe      	lsrs	r6, r7
1000323a:	4664      	mov	r4, ip
1000323c:	b2a2      	uxth	r2, r4
1000323e:	4372      	muls	r2, r6
10003240:	1a80      	subs	r0, r0, r2
10003242:	d200      	bcs.n	10003246 <last0+0x12>
10003244:	3901      	subs	r1, #1
10003246:	0c22      	lsrs	r2, r4, #16
10003248:	4372      	muls	r2, r6
1000324a:	0c13      	lsrs	r3, r2, #16
1000324c:	0412      	lsls	r2, r2, #16
1000324e:	1a82      	subs	r2, r0, r2
10003250:	4199      	sbcs	r1, r3
10003252:	000b      	movs	r3, r1
10003254:	4670      	mov	r0, lr
10003256:	3504      	adds	r5, #4
10003258:	3713      	adds	r7, #19
1000325a:	0001      	movs	r1, r0
1000325c:	40f9      	lsrs	r1, r7
1000325e:	40a8      	lsls	r0, r5
10003260:	1980      	adds	r0, r0, r6
10003262:	d300      	bcc.n	10003266 <last0+0x32>
10003264:	3101      	adds	r1, #1
10003266:	2b00      	cmp	r3, #0
10003268:	d102      	bne.n	10003270 <last0+0x3c>
1000326a:	42a2      	cmp	r2, r4
1000326c:	d20a      	bcs.n	10003284 <last0+0x50>
1000326e:	bdf0      	pop	{r4, r5, r6, r7, pc}
10003270:	3001      	adds	r0, #1
10003272:	d300      	bcc.n	10003276 <last0+0x42>
10003274:	3101      	adds	r1, #1
10003276:	1b12      	subs	r2, r2, r4
10003278:	d2fa      	bcs.n	10003270 <last0+0x3c>
1000327a:	3b01      	subs	r3, #1
1000327c:	d1f8      	bne.n	10003270 <last0+0x3c>
1000327e:	42a2      	cmp	r2, r4
10003280:	d200      	bcs.n	10003284 <last0+0x50>
10003282:	bdf0      	pop	{r4, r5, r6, r7, pc}
10003284:	3001      	adds	r0, #1
10003286:	d300      	bcc.n	1000328a <last0+0x56>
10003288:	3101      	adds	r1, #1
1000328a:	1b12      	subs	r2, r2, r4
1000328c:	e7f7      	b.n	1000327e <last0+0x4a>

1000328e <y64_x48>:
1000328e:	b5f0      	push	{r4, r5, r6, r7, lr}
10003290:	0c1c      	lsrs	r4, r3, #16
10003292:	d000      	beq.n	10003296 <y64_x48+0x8>
10003294:	e080      	b.n	10003398 <y64_x64>
10003296:	b40c      	push	{r2, r3}
10003298:	2500      	movs	r5, #0
1000329a:	0a1c      	lsrs	r4, r3, #8
1000329c:	d104      	bne.n	100032a8 <y64_x48+0x1a>
1000329e:	021b      	lsls	r3, r3, #8
100032a0:	0e16      	lsrs	r6, r2, #24
100032a2:	4333      	orrs	r3, r6
100032a4:	0212      	lsls	r2, r2, #8
100032a6:	3508      	adds	r5, #8
100032a8:	0b1c      	lsrs	r4, r3, #12
100032aa:	d104      	bne.n	100032b6 <y64_x48+0x28>
100032ac:	011b      	lsls	r3, r3, #4
100032ae:	0f16      	lsrs	r6, r2, #28
100032b0:	4333      	orrs	r3, r6
100032b2:	0112      	lsls	r2, r2, #4
100032b4:	3504      	adds	r5, #4
100032b6:	0b9c      	lsrs	r4, r3, #14
100032b8:	d104      	bne.n	100032c4 <y64_x48+0x36>
100032ba:	009b      	lsls	r3, r3, #2
100032bc:	0f96      	lsrs	r6, r2, #30
100032be:	4333      	orrs	r3, r6
100032c0:	0092      	lsls	r2, r2, #2
100032c2:	3502      	adds	r5, #2
100032c4:	0bdc      	lsrs	r4, r3, #15
100032c6:	d102      	bne.n	100032ce <y64_x48+0x40>
100032c8:	1892      	adds	r2, r2, r2
100032ca:	415b      	adcs	r3, r3
100032cc:	3501      	adds	r5, #1
100032ce:	001c      	movs	r4, r3
100032d0:	1897      	adds	r7, r2, r2
100032d2:	4164      	adcs	r4, r4
100032d4:	3401      	adds	r4, #1
100032d6:	4f46      	ldr	r7, [pc, #280]	; (100033f0 <y64_x64+0x58>)
100032d8:	667c      	str	r4, [r7, #100]	; 0x64
100032da:	4c46      	ldr	r4, [pc, #280]	; (100033f4 <y64_x64+0x5c>)
100032dc:	663c      	str	r4, [r7, #96]	; 0x60
100032de:	0c0e      	lsrs	r6, r1, #16
100032e0:	e7ff      	b.n	100032e2 <y64_x48+0x54>
100032e2:	e7ff      	b.n	100032e4 <y64_x48+0x56>
100032e4:	e7ff      	b.n	100032e6 <y64_x48+0x58>
100032e6:	46c0      	nop			; (mov r8, r8)
100032e8:	6f3c      	ldr	r4, [r7, #112]	; 0x70
100032ea:	4366      	muls	r6, r4
100032ec:	0c36      	lsrs	r6, r6, #16
100032ee:	0377      	lsls	r7, r6, #13
100032f0:	46be      	mov	lr, r7
100032f2:	b297      	uxth	r7, r2
100032f4:	4377      	muls	r7, r6
100032f6:	1bc0      	subs	r0, r0, r7
100032f8:	d200      	bcs.n	100032fc <y64_x48+0x6e>
100032fa:	3901      	subs	r1, #1
100032fc:	1bc0      	subs	r0, r0, r7
100032fe:	d200      	bcs.n	10003302 <y64_x48+0x74>
10003300:	3901      	subs	r1, #1
10003302:	b29f      	uxth	r7, r3
10003304:	4377      	muls	r7, r6
10003306:	1bc9      	subs	r1, r1, r7
10003308:	1bc9      	subs	r1, r1, r7
1000330a:	0c17      	lsrs	r7, r2, #16
1000330c:	4377      	muls	r7, r6
1000330e:	047e      	lsls	r6, r7, #17
10003310:	0bff      	lsrs	r7, r7, #15
10003312:	1b80      	subs	r0, r0, r6
10003314:	41b9      	sbcs	r1, r7
10003316:	08ce      	lsrs	r6, r1, #3
10003318:	4366      	muls	r6, r4
1000331a:	0c36      	lsrs	r6, r6, #16
1000331c:	2d0c      	cmp	r5, #12
1000331e:	db33      	blt.n	10003388 <last1>
10003320:	44b6      	add	lr, r6
10003322:	0b12      	lsrs	r2, r2, #12
10003324:	051f      	lsls	r7, r3, #20
10003326:	433a      	orrs	r2, r7
10003328:	0b1b      	lsrs	r3, r3, #12
1000332a:	b297      	uxth	r7, r2
1000332c:	4377      	muls	r7, r6
1000332e:	1bc0      	subs	r0, r0, r7
10003330:	d200      	bcs.n	10003334 <y64_x48+0xa6>
10003332:	3901      	subs	r1, #1
10003334:	b29f      	uxth	r7, r3
10003336:	4377      	muls	r7, r6
10003338:	1bc9      	subs	r1, r1, r7
1000333a:	0c17      	lsrs	r7, r2, #16
1000333c:	4377      	muls	r7, r6
1000333e:	043e      	lsls	r6, r7, #16
10003340:	0c3f      	lsrs	r7, r7, #16
10003342:	1b80      	subs	r0, r0, r6
10003344:	41b9      	sbcs	r1, r7
10003346:	0d86      	lsrs	r6, r0, #22
10003348:	028f      	lsls	r7, r1, #10
1000334a:	433e      	orrs	r6, r7
1000334c:	4366      	muls	r6, r4
1000334e:	2729      	movs	r7, #41	; 0x29
10003350:	1b7f      	subs	r7, r7, r5
10003352:	40fe      	lsrs	r6, r7
10003354:	3d0c      	subs	r5, #12
10003356:	4677      	mov	r7, lr
10003358:	40af      	lsls	r7, r5
1000335a:	19bf      	adds	r7, r7, r6
1000335c:	bc30      	pop	{r4, r5}
1000335e:	b2a2      	uxth	r2, r4
10003360:	b2ab      	uxth	r3, r5
10003362:	4372      	muls	r2, r6
10003364:	4373      	muls	r3, r6
10003366:	1a80      	subs	r0, r0, r2
10003368:	4199      	sbcs	r1, r3
1000336a:	0c22      	lsrs	r2, r4, #16
1000336c:	4372      	muls	r2, r6
1000336e:	0c13      	lsrs	r3, r2, #16
10003370:	0412      	lsls	r2, r2, #16
10003372:	1a80      	subs	r0, r0, r2
10003374:	4199      	sbcs	r1, r3
10003376:	0002      	movs	r2, r0
10003378:	000b      	movs	r3, r1
1000337a:	3701      	adds	r7, #1
1000337c:	1b00      	subs	r0, r0, r4
1000337e:	41a9      	sbcs	r1, r5
10003380:	d2f9      	bcs.n	10003376 <y64_x48+0xe8>
10003382:	1e78      	subs	r0, r7, #1
10003384:	2100      	movs	r1, #0
10003386:	bdf0      	pop	{r4, r5, r6, r7, pc}

10003388 <last1>:
10003388:	270c      	movs	r7, #12
1000338a:	1b7f      	subs	r7, r7, r5
1000338c:	40fe      	lsrs	r6, r7
1000338e:	4677      	mov	r7, lr
10003390:	0b7f      	lsrs	r7, r7, #13
10003392:	40af      	lsls	r7, r5
10003394:	19ff      	adds	r7, r7, r7
10003396:	e7e0      	b.n	1000335a <y64_x48+0xcc>

10003398 <y64_x64>:
10003398:	2400      	movs	r4, #0
1000339a:	1c5d      	adds	r5, r3, #1
1000339c:	d007      	beq.n	100033ae <y64_x64+0x16>
1000339e:	4f14      	ldr	r7, [pc, #80]	; (100033f0 <y64_x64+0x58>)
100033a0:	667d      	str	r5, [r7, #100]	; 0x64
100033a2:	6639      	str	r1, [r7, #96]	; 0x60
100033a4:	e7ff      	b.n	100033a6 <y64_x64+0xe>
100033a6:	e7ff      	b.n	100033a8 <y64_x64+0x10>
100033a8:	e7ff      	b.n	100033aa <y64_x64+0x12>
100033aa:	e7ff      	b.n	100033ac <y64_x64+0x14>
100033ac:	6f3c      	ldr	r4, [r7, #112]	; 0x70
100033ae:	b295      	uxth	r5, r2
100033b0:	b29e      	uxth	r6, r3
100033b2:	4365      	muls	r5, r4
100033b4:	4366      	muls	r6, r4
100033b6:	1b40      	subs	r0, r0, r5
100033b8:	41b1      	sbcs	r1, r6
100033ba:	0c15      	lsrs	r5, r2, #16
100033bc:	0c1e      	lsrs	r6, r3, #16
100033be:	4365      	muls	r5, r4
100033c0:	4366      	muls	r6, r4
100033c2:	0436      	lsls	r6, r6, #16
100033c4:	0c2f      	lsrs	r7, r5, #16
100033c6:	433e      	orrs	r6, r7
100033c8:	042d      	lsls	r5, r5, #16
100033ca:	1b40      	subs	r0, r0, r5
100033cc:	41b1      	sbcs	r1, r6
100033ce:	4299      	cmp	r1, r3
100033d0:	d204      	bcs.n	100033dc <y64_x64+0x44>
100033d2:	0002      	movs	r2, r0
100033d4:	000b      	movs	r3, r1
100033d6:	0020      	movs	r0, r4
100033d8:	2100      	movs	r1, #0
100033da:	bdf0      	pop	{r4, r5, r6, r7, pc}
100033dc:	d101      	bne.n	100033e2 <y64_x64+0x4a>
100033de:	4290      	cmp	r0, r2
100033e0:	d3f7      	bcc.n	100033d2 <y64_x64+0x3a>
100033e2:	1a80      	subs	r0, r0, r2
100033e4:	4199      	sbcs	r1, r3
100033e6:	3401      	adds	r4, #1
100033e8:	4299      	cmp	r1, r3
100033ea:	d3f2      	bcc.n	100033d2 <y64_x64+0x3a>
100033ec:	e7f6      	b.n	100033dc <y64_x64+0x44>
100033ee:	0000      	.short	0x0000
100033f0:	d0000000 	.word	0xd0000000
100033f4:	ffffffff 	.word	0xffffffff

100033f8 <__wrap___aeabi_drsub>:
100033f8:	4048      	eors	r0, r1
100033fa:	4041      	eors	r1, r0
100033fc:	4048      	eors	r0, r1

100033fe <__wrap___aeabi_dsub>:
100033fe:	b418      	push	{r3, r4}
10003400:	4b11      	ldr	r3, [pc, #68]	; (10003448 <__wrap___aeabi_dmul+0x14>)
10003402:	685b      	ldr	r3, [r3, #4]
10003404:	46fc      	mov	ip, pc
10003406:	9301      	str	r3, [sp, #4]
10003408:	bd08      	pop	{r3, pc}
1000340a:	df04      	.short	0xdf04
1000340c:	10003683 	.word	0x10003683

10003410 <__wrap___aeabi_dadd>:
10003410:	b418      	push	{r3, r4}
10003412:	4b0d      	ldr	r3, [pc, #52]	; (10003448 <__wrap___aeabi_dmul+0x14>)
10003414:	681b      	ldr	r3, [r3, #0]
10003416:	46fc      	mov	ip, pc
10003418:	9301      	str	r3, [sp, #4]
1000341a:	bd08      	pop	{r3, pc}
1000341c:	368ddf00 	.word	0x368ddf00
10003420:	1000      	.short	0x1000

10003422 <__wrap___aeabi_ddiv>:
10003422:	b418      	push	{r3, r4}
10003424:	4b08      	ldr	r3, [pc, #32]	; (10003448 <__wrap___aeabi_dmul+0x14>)
10003426:	68db      	ldr	r3, [r3, #12]
10003428:	46fc      	mov	ip, pc
1000342a:	9301      	str	r3, [sp, #4]
1000342c:	bd08      	pop	{r3, pc}
1000342e:	df0c      	.short	0xdf0c
10003430:	10003945 	.word	0x10003945

10003434 <__wrap___aeabi_dmul>:
10003434:	b418      	push	{r3, r4}
10003436:	4b04      	ldr	r3, [pc, #16]	; (10003448 <__wrap___aeabi_dmul+0x14>)
10003438:	689b      	ldr	r3, [r3, #8]
1000343a:	46fc      	mov	ip, pc
1000343c:	9301      	str	r3, [sp, #4]
1000343e:	bd08      	pop	{r3, pc}
10003440:	37e9df08 	.word	0x37e9df08
10003444:	00001000 	.word	0x00001000
10003448:	20000c10 	.word	0x20000c10

1000344c <__wrap___aeabi_cdrcmple>:
1000344c:	b5ff      	push	{r0, r1, r2, r3, r4, r5, r6, r7, lr}
1000344e:	4050      	eors	r0, r2
10003450:	4042      	eors	r2, r0
10003452:	4050      	eors	r0, r2
10003454:	4059      	eors	r1, r3
10003456:	404b      	eors	r3, r1
10003458:	4059      	eors	r1, r3
1000345a:	e000      	b.n	1000345e <__aeabi_dfcmple_guts>

1000345c <__wrap___aeabi_cdcmpeq>:
1000345c:	b5ff      	push	{r0, r1, r2, r3, r4, r5, r6, r7, lr}

1000345e <__aeabi_dfcmple_guts>:
1000345e:	4f15      	ldr	r7, [pc, #84]	; (100034b4 <__aeabi_dfcmple_guts+0x56>)
10003460:	004c      	lsls	r4, r1, #1
10003462:	0d64      	lsrs	r4, r4, #21
10003464:	d003      	beq.n	1000346e <__aeabi_dfcmple_guts+0x10>
10003466:	42bc      	cmp	r4, r7
10003468:	d104      	bne.n	10003474 <__aeabi_dfcmple_guts+0x16>
1000346a:	030c      	lsls	r4, r1, #12
1000346c:	d814      	bhi.n	10003498 <__aeabi_dfcmple_guts+0x3a>
1000346e:	2000      	movs	r0, #0
10003470:	0d09      	lsrs	r1, r1, #20
10003472:	0509      	lsls	r1, r1, #20
10003474:	005c      	lsls	r4, r3, #1
10003476:	0d64      	lsrs	r4, r4, #21
10003478:	d003      	beq.n	10003482 <__aeabi_dfcmple_guts+0x24>
1000347a:	42bc      	cmp	r4, r7
1000347c:	d104      	bne.n	10003488 <__aeabi_dfcmple_guts+0x2a>
1000347e:	031c      	lsls	r4, r3, #12
10003480:	d80a      	bhi.n	10003498 <__aeabi_dfcmple_guts+0x3a>
10003482:	2200      	movs	r2, #0
10003484:	0d1b      	lsrs	r3, r3, #20
10003486:	051b      	lsls	r3, r3, #20
10003488:	2601      	movs	r6, #1
1000348a:	404b      	eors	r3, r1
1000348c:	d409      	bmi.n	100034a2 <__aeabi_dfcmple_guts+0x44>
1000348e:	404b      	eors	r3, r1
10003490:	d503      	bpl.n	1000349a <__aeabi_dfcmple_guts+0x3c>
10003492:	428b      	cmp	r3, r1
10003494:	d100      	bne.n	10003498 <__aeabi_dfcmple_guts+0x3a>
10003496:	4282      	cmp	r2, r0
10003498:	bdff      	pop	{r0, r1, r2, r3, r4, r5, r6, r7, pc}
1000349a:	4299      	cmp	r1, r3
1000349c:	d1fc      	bne.n	10003498 <__aeabi_dfcmple_guts+0x3a>
1000349e:	4290      	cmp	r0, r2
100034a0:	bdff      	pop	{r0, r1, r2, r3, r4, r5, r6, r7, pc}
100034a2:	430b      	orrs	r3, r1
100034a4:	18db      	adds	r3, r3, r3
100034a6:	4303      	orrs	r3, r0
100034a8:	4313      	orrs	r3, r2
100034aa:	d0f5      	beq.n	10003498 <__aeabi_dfcmple_guts+0x3a>
100034ac:	43c9      	mvns	r1, r1
100034ae:	1849      	adds	r1, r1, r1
100034b0:	bdff      	pop	{r0, r1, r2, r3, r4, r5, r6, r7, pc}
100034b2:	0000      	.short	0x0000
100034b4:	000007ff 	.word	0x000007ff

100034b8 <__wrap___aeabi_dcmplt>:
100034b8:	b500      	push	{lr}
100034ba:	f7ff ffcf 	bl	1000345c <__wrap___aeabi_cdcmpeq>
100034be:	4180      	sbcs	r0, r0
100034c0:	bd00      	pop	{pc}
100034c2:	46c0      	nop			; (mov r8, r8)

100034c4 <__wrap___aeabi_dcmple>:
100034c4:	b500      	push	{lr}
100034c6:	f7ff ffc9 	bl	1000345c <__wrap___aeabi_cdcmpeq>
100034ca:	d901      	bls.n	100034d0 <__wrap___aeabi_dcmple+0xc>
100034cc:	2000      	movs	r0, #0
100034ce:	bd00      	pop	{pc}
100034d0:	2001      	movs	r0, #1
100034d2:	bd00      	pop	{pc}

100034d4 <__wrap___aeabi_dcmpge>:
100034d4:	b500      	push	{lr}
100034d6:	f7ff ffb9 	bl	1000344c <__wrap___aeabi_cdrcmple>
100034da:	d901      	bls.n	100034e0 <__wrap___aeabi_dcmpge+0xc>
100034dc:	2000      	movs	r0, #0
100034de:	bd00      	pop	{pc}
100034e0:	2001      	movs	r0, #1
100034e2:	bd00      	pop	{pc}

100034e4 <__wrap___aeabi_dcmpgt>:
100034e4:	b500      	push	{lr}
100034e6:	f7ff ffb1 	bl	1000344c <__wrap___aeabi_cdrcmple>
100034ea:	4180      	sbcs	r0, r0
100034ec:	bd00      	pop	{pc}

100034ee <__wrap___aeabi_dcmpun>:
100034ee:	2001      	movs	r0, #1
100034f0:	0540      	lsls	r0, r0, #21
100034f2:	004a      	lsls	r2, r1, #1
100034f4:	1812      	adds	r2, r2, r0
100034f6:	d804      	bhi.n	10003502 <__wrap___aeabi_dcmpun+0x14>
100034f8:	005a      	lsls	r2, r3, #1
100034fa:	1812      	adds	r2, r2, r0
100034fc:	d801      	bhi.n	10003502 <__wrap___aeabi_dcmpun+0x14>
100034fe:	2000      	movs	r0, #0
10003500:	4770      	bx	lr
10003502:	2001      	movs	r0, #1
10003504:	4770      	bx	lr
10003506:	2000      	movs	r0, #0
10003508:	4770      	bx	lr
	...

1000350c <__wrap___aeabi_ui2d>:
1000350c:	2100      	movs	r1, #0
1000350e:	2800      	cmp	r0, #0
10003510:	d105      	bne.n	1000351e <__wrap___aeabi_i2d+0xa>
10003512:	4770      	bx	lr

10003514 <__wrap___aeabi_i2d>:
10003514:	17c1      	asrs	r1, r0, #31
10003516:	4048      	eors	r0, r1
10003518:	1a40      	subs	r0, r0, r1
1000351a:	d0fa      	beq.n	10003512 <__wrap___aeabi_ui2d+0x6>
1000351c:	07c9      	lsls	r1, r1, #31
1000351e:	b513      	push	{r0, r1, r4, lr}
10003520:	4b06      	ldr	r3, [pc, #24]	; (1000353c <__wrap___aeabi_i2d+0x28>)
10003522:	681b      	ldr	r3, [r3, #0]
10003524:	4798      	blx	r3
10003526:	bc0c      	pop	{r2, r3}
10003528:	1c44      	adds	r4, r0, #1
1000352a:	40a2      	lsls	r2, r4
1000352c:	0510      	lsls	r0, r2, #20
1000352e:	0b12      	lsrs	r2, r2, #12
10003530:	4903      	ldr	r1, [pc, #12]	; (10003540 <__wrap___aeabi_i2d+0x2c>)
10003532:	1b09      	subs	r1, r1, r4
10003534:	0509      	lsls	r1, r1, #20
10003536:	4319      	orrs	r1, r3
10003538:	4311      	orrs	r1, r2
1000353a:	bd10      	pop	{r4, pc}
1000353c:	20000e10 	.word	0x20000e10
10003540:	0000041f 	.word	0x0000041f

10003544 <__wrap___aeabi_d2iz>:
10003544:	b510      	push	{r4, lr}
10003546:	004c      	lsls	r4, r1, #1
10003548:	0d62      	lsrs	r2, r4, #21
1000354a:	2380      	movs	r3, #128	; 0x80
1000354c:	18d2      	adds	r2, r2, r3
1000354e:	00db      	lsls	r3, r3, #3
10003550:	1ad2      	subs	r2, r2, r3
10003552:	055b      	lsls	r3, r3, #21
10003554:	2a7e      	cmp	r2, #126	; 0x7e
10003556:	dd10      	ble.n	1000357a <__wrap___aeabi_d2iz+0x36>
10003558:	3a9e      	subs	r2, #158	; 0x9e
1000355a:	da13      	bge.n	10003584 <__wrap___aeabi_d2iz+0x40>
1000355c:	17cc      	asrs	r4, r1, #31
1000355e:	0309      	lsls	r1, r1, #12
10003560:	0849      	lsrs	r1, r1, #1
10003562:	4319      	orrs	r1, r3
10003564:	4252      	negs	r2, r2
10003566:	40d1      	lsrs	r1, r2
10003568:	0064      	lsls	r4, r4, #1
1000356a:	3401      	adds	r4, #1
1000356c:	3215      	adds	r2, #21
1000356e:	2a20      	cmp	r2, #32
10003570:	da05      	bge.n	1000357e <__wrap___aeabi_d2iz+0x3a>
10003572:	40d0      	lsrs	r0, r2
10003574:	4308      	orrs	r0, r1
10003576:	4360      	muls	r0, r4
10003578:	bd10      	pop	{r4, pc}
1000357a:	2000      	movs	r0, #0
1000357c:	bd10      	pop	{r4, pc}
1000357e:	4608      	mov	r0, r1
10003580:	4360      	muls	r0, r4
10003582:	bd10      	pop	{r4, pc}
10003584:	0fc8      	lsrs	r0, r1, #31
10003586:	18c0      	adds	r0, r0, r3
10003588:	3801      	subs	r0, #1
1000358a:	bd10      	pop	{r4, pc}

1000358c <__wrap___aeabi_d2uiz>:
1000358c:	b418      	push	{r3, r4}
1000358e:	4b04      	ldr	r3, [pc, #16]	; (100035a0 <__wrap___aeabi_d2uiz+0x14>)
10003590:	6a5b      	ldr	r3, [r3, #36]	; 0x24
10003592:	46fc      	mov	ip, pc
10003594:	9301      	str	r3, [sp, #4]
10003596:	bd08      	pop	{r3, pc}
10003598:	3b71df24 	.word	0x3b71df24
1000359c:	00001000 	.word	0x00001000
100035a0:	20000c10 	.word	0x20000c10

100035a4 <__aeabi_double_init>:
100035a4:	2313      	movs	r3, #19
100035a6:	b570      	push	{r4, r5, r6, lr}
100035a8:	781d      	ldrb	r5, [r3, #0]
100035aa:	2d01      	cmp	r5, #1
100035ac:	d010      	beq.n	100035d0 <__aeabi_double_init+0x2c>
100035ae:	dd0b      	ble.n	100035c8 <__aeabi_double_init+0x24>
100035b0:	4824      	ldr	r0, [pc, #144]	; (10003644 <__aeabi_double_init+0xa0>)
100035b2:	f7ff fc8d 	bl	10002ed0 <rom_data_lookup>
100035b6:	4c24      	ldr	r4, [pc, #144]	; (10003648 <__aeabi_double_init+0xa4>)
100035b8:	0001      	movs	r1, r0
100035ba:	2280      	movs	r2, #128	; 0x80
100035bc:	0020      	movs	r0, r4
100035be:	f000 fbed 	bl	10003d9c <__wrap___aeabi_memcpy>
100035c2:	2d02      	cmp	r5, #2
100035c4:	d001      	beq.n	100035ca <__aeabi_double_init+0x26>
100035c6:	bd70      	pop	{r4, r5, r6, pc}
100035c8:	4c1f      	ldr	r4, [pc, #124]	; (10003648 <__aeabi_double_init+0xa4>)
100035ca:	4a20      	ldr	r2, [pc, #128]	; (1000364c <__aeabi_double_init+0xa8>)
100035cc:	64a2      	str	r2, [r4, #72]	; 0x48
100035ce:	e7fa      	b.n	100035c6 <__aeabi_double_init+0x22>
100035d0:	002e      	movs	r6, r5
100035d2:	4c1d      	ldr	r4, [pc, #116]	; (10003648 <__aeabi_double_init+0xa4>)
100035d4:	4a1d      	ldr	r2, [pc, #116]	; (1000364c <__aeabi_double_init+0xa8>)
100035d6:	08a3      	lsrs	r3, r4, #2
100035d8:	425b      	negs	r3, r3
100035da:	401e      	ands	r6, r3
100035dc:	421d      	tst	r5, r3
100035de:	d02f      	beq.n	10003640 <__aeabi_double_init+0x9c>
100035e0:	0033      	movs	r3, r6
100035e2:	6022      	str	r2, [r4, #0]
100035e4:	2020      	movs	r0, #32
100035e6:	00b1      	lsls	r1, r6, #2
100035e8:	1861      	adds	r1, r4, r1
100035ea:	1b80      	subs	r0, r0, r6
100035ec:	600a      	str	r2, [r1, #0]
100035ee:	604a      	str	r2, [r1, #4]
100035f0:	608a      	str	r2, [r1, #8]
100035f2:	60ca      	str	r2, [r1, #12]
100035f4:	610a      	str	r2, [r1, #16]
100035f6:	614a      	str	r2, [r1, #20]
100035f8:	618a      	str	r2, [r1, #24]
100035fa:	61ca      	str	r2, [r1, #28]
100035fc:	620a      	str	r2, [r1, #32]
100035fe:	624a      	str	r2, [r1, #36]	; 0x24
10003600:	628a      	str	r2, [r1, #40]	; 0x28
10003602:	62ca      	str	r2, [r1, #44]	; 0x2c
10003604:	630a      	str	r2, [r1, #48]	; 0x30
10003606:	634a      	str	r2, [r1, #52]	; 0x34
10003608:	638a      	str	r2, [r1, #56]	; 0x38
1000360a:	63ca      	str	r2, [r1, #60]	; 0x3c
1000360c:	640a      	str	r2, [r1, #64]	; 0x40
1000360e:	644a      	str	r2, [r1, #68]	; 0x44
10003610:	648a      	str	r2, [r1, #72]	; 0x48
10003612:	64ca      	str	r2, [r1, #76]	; 0x4c
10003614:	650a      	str	r2, [r1, #80]	; 0x50
10003616:	654a      	str	r2, [r1, #84]	; 0x54
10003618:	658a      	str	r2, [r1, #88]	; 0x58
1000361a:	65ca      	str	r2, [r1, #92]	; 0x5c
1000361c:	660a      	str	r2, [r1, #96]	; 0x60
1000361e:	664a      	str	r2, [r1, #100]	; 0x64
10003620:	668a      	str	r2, [r1, #104]	; 0x68
10003622:	66ca      	str	r2, [r1, #108]	; 0x6c
10003624:	670a      	str	r2, [r1, #112]	; 0x70
10003626:	674a      	str	r2, [r1, #116]	; 0x74
10003628:	0840      	lsrs	r0, r0, #1
1000362a:	2810      	cmp	r0, #16
1000362c:	d103      	bne.n	10003636 <__aeabi_double_init+0x92>
1000362e:	678a      	str	r2, [r1, #120]	; 0x78
10003630:	67ca      	str	r2, [r1, #124]	; 0x7c
10003632:	64a2      	str	r2, [r4, #72]	; 0x48
10003634:	e7c7      	b.n	100035c6 <__aeabi_double_init+0x22>
10003636:	331e      	adds	r3, #30
10003638:	009b      	lsls	r3, r3, #2
1000363a:	50e2      	str	r2, [r4, r3]
1000363c:	64a2      	str	r2, [r4, #72]	; 0x48
1000363e:	e7c2      	b.n	100035c6 <__aeabi_double_init+0x22>
10003640:	2300      	movs	r3, #0
10003642:	e7cf      	b.n	100035e4 <__aeabi_double_init+0x40>
10003644:	00004453 	.word	0x00004453
10003648:	20000c10 	.word	0x20000c10
1000364c:	10003651 	.word	0x10003651

10003650 <double_table_shim_on_use_helper>:
10003650:	b507      	push	{r0, r1, r2, lr}
10003652:	4660      	mov	r0, ip
10003654:	8801      	ldrh	r1, [r0, #0]
10003656:	0a0a      	lsrs	r2, r1, #8
10003658:	3002      	adds	r0, #2
1000365a:	2adf      	cmp	r2, #223	; 0xdf
1000365c:	d1fa      	bne.n	10003654 <double_table_shim_on_use_helper+0x4>
1000365e:	b2c9      	uxtb	r1, r1
10003660:	0882      	lsrs	r2, r0, #2
10003662:	d304      	bcc.n	1000366e <double_table_shim_on_use_helper+0x1e>
10003664:	8802      	ldrh	r2, [r0, #0]
10003666:	8840      	ldrh	r0, [r0, #2]
10003668:	0400      	lsls	r0, r0, #16
1000366a:	4310      	orrs	r0, r2
1000366c:	e000      	b.n	10003670 <double_table_shim_on_use_helper+0x20>
1000366e:	6800      	ldr	r0, [r0, #0]
10003670:	4a01      	ldr	r2, [pc, #4]	; (10003678 <double_table_shim_on_use_helper+0x28>)
10003672:	5050      	str	r0, [r2, r1]
10003674:	9003      	str	r0, [sp, #12]
10003676:	bd07      	pop	{r0, r1, r2, pc}
10003678:	20000c10 	.word	0x20000c10

1000367c <drsub_shim>:
1000367c:	b40f      	push	{r0, r1, r2, r3}
1000367e:	bc03      	pop	{r0, r1}
10003680:	bc0c      	pop	{r2, r3}

10003682 <dsub_shim>:
10003682:	b5f0      	push	{r4, r5, r6, r7, lr}
10003684:	2401      	movs	r4, #1
10003686:	07e4      	lsls	r4, r4, #31
10003688:	4063      	eors	r3, r4
1000368a:	e000      	b.n	1000368e <da_entry>

1000368c <dadd_shim>:
1000368c:	b5f0      	push	{r4, r5, r6, r7, lr}

1000368e <da_entry>:
1000368e:	0d0c      	lsrs	r4, r1, #20
10003690:	0fcf      	lsrs	r7, r1, #31
10003692:	1e66      	subs	r6, r4, #1
10003694:	0536      	lsls	r6, r6, #20
10003696:	1b89      	subs	r1, r1, r6
10003698:	0564      	lsls	r4, r4, #21
1000369a:	d303      	bcc.n	100036a4 <l7_1>
1000369c:	43c9      	mvns	r1, r1
1000369e:	4240      	negs	r0, r0
100036a0:	d300      	bcc.n	100036a4 <l7_1>
100036a2:	3101      	adds	r1, #1

100036a4 <l7_1>:
100036a4:	0d64      	lsrs	r4, r4, #21
100036a6:	d003      	beq.n	100036b0 <l7_2>
100036a8:	1c66      	adds	r6, r4, #1
100036aa:	0af6      	lsrs	r6, r6, #11
100036ac:	d007      	beq.n	100036be <l7_3>
100036ae:	1be4      	subs	r4, r4, r7

100036b0 <l7_2>:
100036b0:	2000      	movs	r0, #0
100036b2:	007f      	lsls	r7, r7, #1
100036b4:	1c79      	adds	r1, r7, #1
100036b6:	0789      	lsls	r1, r1, #30
100036b8:	1289      	asrs	r1, r1, #10
100036ba:	3c80      	subs	r4, #128	; 0x80
100036bc:	0324      	lsls	r4, r4, #12

100036be <l7_3>:
100036be:	0d1d      	lsrs	r5, r3, #20
100036c0:	0fdf      	lsrs	r7, r3, #31
100036c2:	1e6e      	subs	r6, r5, #1
100036c4:	0536      	lsls	r6, r6, #20
100036c6:	1b9b      	subs	r3, r3, r6
100036c8:	056d      	lsls	r5, r5, #21
100036ca:	d303      	bcc.n	100036d4 <l8_1>
100036cc:	43db      	mvns	r3, r3
100036ce:	4252      	negs	r2, r2
100036d0:	d300      	bcc.n	100036d4 <l8_1>
100036d2:	3301      	adds	r3, #1

100036d4 <l8_1>:
100036d4:	0d6d      	lsrs	r5, r5, #21
100036d6:	d003      	beq.n	100036e0 <l8_2>
100036d8:	1c6e      	adds	r6, r5, #1
100036da:	0af6      	lsrs	r6, r6, #11
100036dc:	d007      	beq.n	100036ee <l8_3>
100036de:	1bed      	subs	r5, r5, r7

100036e0 <l8_2>:
100036e0:	2200      	movs	r2, #0
100036e2:	007f      	lsls	r7, r7, #1
100036e4:	1c7b      	adds	r3, r7, #1
100036e6:	079b      	lsls	r3, r3, #30
100036e8:	129b      	asrs	r3, r3, #10
100036ea:	3d80      	subs	r5, #128	; 0x80
100036ec:	032d      	lsls	r5, r5, #12

100036ee <l8_3>:
100036ee:	1b2f      	subs	r7, r5, r4
100036f0:	1b66      	subs	r6, r4, r5
100036f2:	d458      	bmi.n	100037a6 <da_ygtx>
100036f4:	46a4      	mov	ip, r4
100036f6:	2e20      	cmp	r6, #32
100036f8:	da46      	bge.n	10003788 <da_xrgty>
100036fa:	3720      	adds	r7, #32
100036fc:	0014      	movs	r4, r2
100036fe:	40bc      	lsls	r4, r7

10003700 <da_xgty0>:
10003700:	001d      	movs	r5, r3
10003702:	40bd      	lsls	r5, r7
10003704:	40f2      	lsrs	r2, r6
10003706:	4133      	asrs	r3, r6
10003708:	432a      	orrs	r2, r5

1000370a <da_add>:
1000370a:	1880      	adds	r0, r0, r2
1000370c:	4159      	adcs	r1, r3

1000370e <da_pack>:
1000370e:	0fcb      	lsrs	r3, r1, #31
10003710:	d005      	beq.n	1000371e <da_pack+0x10>
10003712:	43c9      	mvns	r1, r1
10003714:	43c0      	mvns	r0, r0
10003716:	2200      	movs	r2, #0
10003718:	4264      	negs	r4, r4
1000371a:	4150      	adcs	r0, r2
1000371c:	4151      	adcs	r1, r2
1000371e:	4662      	mov	r2, ip
10003720:	0d4d      	lsrs	r5, r1, #21
10003722:	d128      	bne.n	10003776 <da_0>
10003724:	0d0d      	lsrs	r5, r1, #20
10003726:	d107      	bne.n	10003738 <da_1>
10003728:	2800      	cmp	r0, #0
1000372a:	d01f      	beq.n	1000376c <da_5>

1000372c <da_2>:
1000372c:	1924      	adds	r4, r4, r4
1000372e:	4140      	adcs	r0, r0
10003730:	4149      	adcs	r1, r1
10003732:	3a01      	subs	r2, #1
10003734:	0d0d      	lsrs	r5, r1, #20
10003736:	d0f9      	beq.n	1000372c <da_2>

10003738 <da_1>:
10003738:	0064      	lsls	r4, r4, #1
1000373a:	d306      	bcc.n	1000374a <da_3>

1000373c <da_4>:
1000373c:	3001      	adds	r0, #1
1000373e:	d300      	bcc.n	10003742 <da_4+0x6>
10003740:	3101      	adds	r1, #1
10003742:	2c00      	cmp	r4, #0
10003744:	d101      	bne.n	1000374a <da_3>
10003746:	0840      	lsrs	r0, r0, #1
10003748:	0040      	lsls	r0, r0, #1

1000374a <da_3>:
1000374a:	3a01      	subs	r2, #1
1000374c:	d40b      	bmi.n	10003766 <da_6>
1000374e:	1c94      	adds	r4, r2, #2
10003750:	0ae4      	lsrs	r4, r4, #11
10003752:	d104      	bne.n	1000375e <da_7>
10003754:	0512      	lsls	r2, r2, #20
10003756:	4411      	add	r1, r2
10003758:	07db      	lsls	r3, r3, #31
1000375a:	4419      	add	r1, r3
1000375c:	bdf0      	pop	{r4, r5, r6, r7, pc}

1000375e <da_7>:
1000375e:	07d9      	lsls	r1, r3, #31
10003760:	4b20      	ldr	r3, [pc, #128]	; (100037e4 <da_xmgty+0x4>)
10003762:	4319      	orrs	r1, r3
10003764:	e000      	b.n	10003768 <da_6+0x2>

10003766 <da_6>:
10003766:	07d9      	lsls	r1, r3, #31
10003768:	2000      	movs	r0, #0
1000376a:	bdf0      	pop	{r4, r5, r6, r7, pc}

1000376c <da_5>:
1000376c:	2900      	cmp	r1, #0
1000376e:	d1dd      	bne.n	1000372c <da_2>
10003770:	2c00      	cmp	r4, #0
10003772:	d1db      	bne.n	1000372c <da_2>
10003774:	bdf0      	pop	{r4, r5, r6, r7, pc}

10003776 <da_0>:
10003776:	3201      	adds	r2, #1
10003778:	07c6      	lsls	r6, r0, #31
1000377a:	0840      	lsrs	r0, r0, #1
1000377c:	07cd      	lsls	r5, r1, #31
1000377e:	4328      	orrs	r0, r5
10003780:	0849      	lsrs	r1, r1, #1
10003782:	2e00      	cmp	r6, #0
10003784:	d0e1      	beq.n	1000374a <da_3>
10003786:	e7d9      	b.n	1000373c <da_4>

10003788 <da_xrgty>:
10003788:	2e3c      	cmp	r6, #60	; 0x3c
1000378a:	da29      	bge.n	100037e0 <da_xmgty>
1000378c:	3e20      	subs	r6, #32
1000378e:	3740      	adds	r7, #64	; 0x40
10003790:	0014      	movs	r4, r2
10003792:	40bc      	lsls	r4, r7
10003794:	d000      	beq.n	10003798 <da_xrgty+0x10>
10003796:	2401      	movs	r4, #1
10003798:	40f2      	lsrs	r2, r6
1000379a:	4314      	orrs	r4, r2
1000379c:	001a      	movs	r2, r3
1000379e:	40bb      	lsls	r3, r7
100037a0:	431c      	orrs	r4, r3
100037a2:	17d3      	asrs	r3, r2, #31
100037a4:	e7ac      	b.n	10003700 <da_xgty0>

100037a6 <da_ygtx>:
100037a6:	46ac      	mov	ip, r5
100037a8:	2f20      	cmp	r7, #32
100037aa:	da08      	bge.n	100037be <da_yrgtx>
100037ac:	3620      	adds	r6, #32
100037ae:	0004      	movs	r4, r0
100037b0:	40b4      	lsls	r4, r6

100037b2 <da_ygtx0>:
100037b2:	000d      	movs	r5, r1
100037b4:	40b5      	lsls	r5, r6
100037b6:	40f8      	lsrs	r0, r7
100037b8:	4139      	asrs	r1, r7
100037ba:	4328      	orrs	r0, r5
100037bc:	e7a5      	b.n	1000370a <da_add>

100037be <da_yrgtx>:
100037be:	2f3c      	cmp	r7, #60	; 0x3c
100037c0:	da0c      	bge.n	100037dc <da_ymgtx>
100037c2:	3f20      	subs	r7, #32
100037c4:	3640      	adds	r6, #64	; 0x40
100037c6:	0004      	movs	r4, r0
100037c8:	40b4      	lsls	r4, r6
100037ca:	d000      	beq.n	100037ce <da_yrgtx+0x10>
100037cc:	2401      	movs	r4, #1
100037ce:	40f8      	lsrs	r0, r7
100037d0:	4304      	orrs	r4, r0
100037d2:	0008      	movs	r0, r1
100037d4:	40b1      	lsls	r1, r6
100037d6:	430c      	orrs	r4, r1
100037d8:	17c1      	asrs	r1, r0, #31
100037da:	e7ea      	b.n	100037b2 <da_ygtx0>

100037dc <da_ymgtx>:
100037dc:	0010      	movs	r0, r2
100037de:	0019      	movs	r1, r3

100037e0 <da_xmgty>:
100037e0:	2400      	movs	r4, #0
100037e2:	e794      	b.n	1000370e <da_pack>
100037e4:	7ff00000 	.word	0x7ff00000

100037e8 <dmul_shim>:
100037e8:	b5f0      	push	{r4, r5, r6, r7, lr}
100037ea:	0d0c      	lsrs	r4, r1, #20
100037ec:	1e66      	subs	r6, r4, #1
100037ee:	0536      	lsls	r6, r6, #20
100037f0:	1b89      	subs	r1, r1, r6
100037f2:	0ae6      	lsrs	r6, r4, #11
100037f4:	0564      	lsls	r4, r4, #21
100037f6:	0d64      	lsrs	r4, r4, #21
100037f8:	d002      	beq.n	10003800 <l11_1>
100037fa:	1c65      	adds	r5, r4, #1
100037fc:	0aed      	lsrs	r5, r5, #11
100037fe:	d004      	beq.n	1000380a <l11_2>

10003800 <l11_1>:
10003800:	2000      	movs	r0, #0
10003802:	2101      	movs	r1, #1
10003804:	0509      	lsls	r1, r1, #20
10003806:	3c80      	subs	r4, #128	; 0x80
10003808:	0324      	lsls	r4, r4, #12

1000380a <l11_2>:
1000380a:	46a4      	mov	ip, r4
1000380c:	0d1c      	lsrs	r4, r3, #20
1000380e:	1e67      	subs	r7, r4, #1
10003810:	053f      	lsls	r7, r7, #20
10003812:	1bdb      	subs	r3, r3, r7
10003814:	0ae7      	lsrs	r7, r4, #11
10003816:	0564      	lsls	r4, r4, #21
10003818:	0d64      	lsrs	r4, r4, #21
1000381a:	d002      	beq.n	10003822 <l12_1>
1000381c:	1c65      	adds	r5, r4, #1
1000381e:	0aed      	lsrs	r5, r5, #11
10003820:	d004      	beq.n	1000382c <l12_2>

10003822 <l12_1>:
10003822:	2200      	movs	r2, #0
10003824:	2301      	movs	r3, #1
10003826:	051b      	lsls	r3, r3, #20
10003828:	3c80      	subs	r4, #128	; 0x80
1000382a:	0324      	lsls	r4, r4, #12

1000382c <l12_2>:
1000382c:	4077      	eors	r7, r6
1000382e:	4464      	add	r4, ip
10003830:	b497      	push	{r0, r1, r2, r4, r7}
10003832:	b284      	uxth	r4, r0
10003834:	b296      	uxth	r6, r2
10003836:	4374      	muls	r4, r6
10003838:	0c07      	lsrs	r7, r0, #16
1000383a:	437e      	muls	r6, r7
1000383c:	0c15      	lsrs	r5, r2, #16
1000383e:	436f      	muls	r7, r5
10003840:	b280      	uxth	r0, r0
10003842:	4368      	muls	r0, r5
10003844:	1836      	adds	r6, r6, r0
10003846:	d302      	bcc.n	1000384e <l13_1>
10003848:	2001      	movs	r0, #1
1000384a:	0400      	lsls	r0, r0, #16
1000384c:	183f      	adds	r7, r7, r0

1000384e <l13_1>:
1000384e:	0430      	lsls	r0, r6, #16
10003850:	0c35      	lsrs	r5, r6, #16
10003852:	1900      	adds	r0, r0, r4
10003854:	417d      	adcs	r5, r7
10003856:	4684      	mov	ip, r0
10003858:	b288      	uxth	r0, r1
1000385a:	b29a      	uxth	r2, r3
1000385c:	4350      	muls	r0, r2
1000385e:	0c0c      	lsrs	r4, r1, #16
10003860:	4362      	muls	r2, r4
10003862:	0c1f      	lsrs	r7, r3, #16
10003864:	437c      	muls	r4, r7
10003866:	b28e      	uxth	r6, r1
10003868:	437e      	muls	r6, r7
1000386a:	1992      	adds	r2, r2, r6
1000386c:	d302      	bcc.n	10003874 <l14_1>
1000386e:	2601      	movs	r6, #1
10003870:	0436      	lsls	r6, r6, #16
10003872:	19a4      	adds	r4, r4, r6

10003874 <l14_1>:
10003874:	0416      	lsls	r6, r2, #16
10003876:	0c17      	lsrs	r7, r2, #16
10003878:	1836      	adds	r6, r6, r0
1000387a:	4167      	adcs	r7, r4
1000387c:	bc01      	pop	{r0}
1000387e:	b281      	uxth	r1, r0
10003880:	b29a      	uxth	r2, r3
10003882:	4351      	muls	r1, r2
10003884:	0c04      	lsrs	r4, r0, #16
10003886:	4362      	muls	r2, r4
10003888:	0c1b      	lsrs	r3, r3, #16
1000388a:	435c      	muls	r4, r3
1000388c:	b280      	uxth	r0, r0
1000388e:	4358      	muls	r0, r3
10003890:	1812      	adds	r2, r2, r0
10003892:	d302      	bcc.n	1000389a <l15_1>
10003894:	2001      	movs	r0, #1
10003896:	0400      	lsls	r0, r0, #16
10003898:	1824      	adds	r4, r4, r0

1000389a <l15_1>:
1000389a:	0410      	lsls	r0, r2, #16
1000389c:	0c13      	lsrs	r3, r2, #16
1000389e:	1840      	adds	r0, r0, r1
100038a0:	4163      	adcs	r3, r4
100038a2:	182d      	adds	r5, r5, r0
100038a4:	415e      	adcs	r6, r3
100038a6:	2000      	movs	r0, #0
100038a8:	4147      	adcs	r7, r0
100038aa:	bc06      	pop	{r1, r2}
100038ac:	b288      	uxth	r0, r1
100038ae:	b293      	uxth	r3, r2
100038b0:	4358      	muls	r0, r3
100038b2:	0c0c      	lsrs	r4, r1, #16
100038b4:	4363      	muls	r3, r4
100038b6:	0c12      	lsrs	r2, r2, #16
100038b8:	4354      	muls	r4, r2
100038ba:	b289      	uxth	r1, r1
100038bc:	4351      	muls	r1, r2
100038be:	185b      	adds	r3, r3, r1
100038c0:	d302      	bcc.n	100038c8 <l16_1>
100038c2:	2101      	movs	r1, #1
100038c4:	0409      	lsls	r1, r1, #16
100038c6:	1864      	adds	r4, r4, r1

100038c8 <l16_1>:
100038c8:	0419      	lsls	r1, r3, #16
100038ca:	0c1a      	lsrs	r2, r3, #16
100038cc:	1809      	adds	r1, r1, r0
100038ce:	4162      	adcs	r2, r4
100038d0:	186d      	adds	r5, r5, r1
100038d2:	4156      	adcs	r6, r2
100038d4:	2000      	movs	r0, #0
100038d6:	4147      	adcs	r7, r0
100038d8:	bc18      	pop	{r3, r4}
100038da:	02f9      	lsls	r1, r7, #11
100038dc:	0d72      	lsrs	r2, r6, #21
100038de:	4311      	orrs	r1, r2
100038e0:	02f0      	lsls	r0, r6, #11
100038e2:	0d6a      	lsrs	r2, r5, #21
100038e4:	4310      	orrs	r0, r2
100038e6:	02ed      	lsls	r5, r5, #11
100038e8:	0d0a      	lsrs	r2, r1, #20
100038ea:	d103      	bne.n	100038f4 <l16_1+0x2c>
100038ec:	196d      	adds	r5, r5, r5
100038ee:	4140      	adcs	r0, r0
100038f0:	4149      	adcs	r1, r1
100038f2:	3b01      	subs	r3, #1
100038f4:	4e12      	ldr	r6, [pc, #72]	; (10003940 <dm_1+0xa>)
100038f6:	1b9b      	subs	r3, r3, r6
100038f8:	0076      	lsls	r6, r6, #1
100038fa:	42b3      	cmp	r3, r6
100038fc:	d20e      	bcs.n	1000391c <dm_0>
100038fe:	006d      	lsls	r5, r5, #1
10003900:	d307      	bcc.n	10003912 <l16_1+0x4a>
10003902:	3001      	adds	r0, #1
10003904:	2600      	movs	r6, #0
10003906:	4171      	adcs	r1, r6
10003908:	4666      	mov	r6, ip
1000390a:	4335      	orrs	r5, r6
1000390c:	d101      	bne.n	10003912 <l16_1+0x4a>
1000390e:	0840      	lsrs	r0, r0, #1
10003910:	0040      	lsls	r0, r0, #1
10003912:	051b      	lsls	r3, r3, #20
10003914:	18c9      	adds	r1, r1, r3

10003916 <dm_2>:
10003916:	07e4      	lsls	r4, r4, #31
10003918:	4421      	add	r1, r4
1000391a:	bdf0      	pop	{r4, r5, r6, r7, pc}

1000391c <dm_0>:
1000391c:	da0b      	bge.n	10003936 <dm_1>
1000391e:	3301      	adds	r3, #1
10003920:	d106      	bne.n	10003930 <dm_0+0x14>
10003922:	3001      	adds	r0, #1
10003924:	d104      	bne.n	10003930 <dm_0+0x14>
10003926:	3101      	adds	r1, #1
10003928:	0d4f      	lsrs	r7, r1, #21
1000392a:	d001      	beq.n	10003930 <dm_0+0x14>
1000392c:	0849      	lsrs	r1, r1, #1
1000392e:	e7f2      	b.n	10003916 <dm_2>
10003930:	07e1      	lsls	r1, r4, #31
10003932:	2000      	movs	r0, #0
10003934:	bdf0      	pop	{r4, r5, r6, r7, pc}

10003936 <dm_1>:
10003936:	3601      	adds	r6, #1
10003938:	0531      	lsls	r1, r6, #20
1000393a:	2000      	movs	r0, #0
1000393c:	e7eb      	b.n	10003916 <dm_2>
1000393e:	0000      	.short	0x0000
10003940:	000003ff 	.word	0x000003ff

10003944 <ddiv_shim>:
10003944:	b5f0      	push	{r4, r5, r6, r7, lr}

10003946 <ddiv0>:
10003946:	0d1c      	lsrs	r4, r3, #20
10003948:	1e67      	subs	r7, r4, #1
1000394a:	053f      	lsls	r7, r7, #20
1000394c:	1bdb      	subs	r3, r3, r7
1000394e:	0ae7      	lsrs	r7, r4, #11
10003950:	0564      	lsls	r4, r4, #21
10003952:	0d64      	lsrs	r4, r4, #21
10003954:	d002      	beq.n	1000395c <l19_1>
10003956:	1c66      	adds	r6, r4, #1
10003958:	0af6      	lsrs	r6, r6, #11
1000395a:	d004      	beq.n	10003966 <l19_2>

1000395c <l19_1>:
1000395c:	2200      	movs	r2, #0
1000395e:	2301      	movs	r3, #1
10003960:	051b      	lsls	r3, r3, #20
10003962:	3c80      	subs	r4, #128	; 0x80
10003964:	0324      	lsls	r4, r4, #12

10003966 <l19_2>:
10003966:	25d0      	movs	r5, #208	; 0xd0
10003968:	062d      	lsls	r5, r5, #24
1000396a:	2600      	movs	r6, #0
1000396c:	43f6      	mvns	r6, r6
1000396e:	662e      	str	r6, [r5, #96]	; 0x60
10003970:	091e      	lsrs	r6, r3, #4
10003972:	666e      	str	r6, [r5, #100]	; 0x64
10003974:	0fce      	lsrs	r6, r1, #31
10003976:	19f6      	adds	r6, r6, r7
10003978:	46b4      	mov	ip, r6
1000397a:	0049      	lsls	r1, r1, #1
1000397c:	0d4f      	lsrs	r7, r1, #21
1000397e:	d002      	beq.n	10003986 <l19_2+0x20>
10003980:	1c7e      	adds	r6, r7, #1
10003982:	0af6      	lsrs	r6, r6, #11
10003984:	d003      	beq.n	1000398e <l19_2+0x28>
10003986:	2000      	movs	r0, #0
10003988:	2100      	movs	r1, #0
1000398a:	3f40      	subs	r7, #64	; 0x40
1000398c:	033f      	lsls	r7, r7, #12
1000398e:	1b3e      	subs	r6, r7, r4
10003990:	00b6      	lsls	r6, r6, #2
10003992:	44b4      	add	ip, r6
10003994:	3f01      	subs	r7, #1
10003996:	057f      	lsls	r7, r7, #21
10003998:	1bc9      	subs	r1, r1, r7
1000399a:	0849      	lsrs	r1, r1, #1
1000399c:	6f2e      	ldr	r6, [r5, #112]	; 0x70
1000399e:	3601      	adds	r6, #1
100039a0:	0876      	lsrs	r6, r6, #1
100039a2:	029c      	lsls	r4, r3, #10
100039a4:	0d95      	lsrs	r5, r2, #22
100039a6:	4325      	orrs	r5, r4
100039a8:	4375      	muls	r5, r6
100039aa:	13ed      	asrs	r5, r5, #15
100039ac:	4375      	muls	r5, r6
100039ae:	13ad      	asrs	r5, r5, #14
100039b0:	3501      	adds	r5, #1
100039b2:	106d      	asrs	r5, r5, #1
100039b4:	03f6      	lsls	r6, r6, #15
100039b6:	1b76      	subs	r6, r6, r5
100039b8:	b40c      	push	{r2, r3}
100039ba:	02cc      	lsls	r4, r1, #11
100039bc:	0d45      	lsrs	r5, r0, #21
100039be:	432c      	orrs	r4, r5
100039c0:	b2a2      	uxth	r2, r4
100039c2:	b2b3      	uxth	r3, r6
100039c4:	435a      	muls	r2, r3
100039c6:	0c27      	lsrs	r7, r4, #16
100039c8:	437b      	muls	r3, r7
100039ca:	0c35      	lsrs	r5, r6, #16
100039cc:	436f      	muls	r7, r5
100039ce:	b2a4      	uxth	r4, r4
100039d0:	436c      	muls	r4, r5
100039d2:	191b      	adds	r3, r3, r4
100039d4:	d302      	bcc.n	100039dc <l20_1>
100039d6:	2401      	movs	r4, #1
100039d8:	0424      	lsls	r4, r4, #16
100039da:	193f      	adds	r7, r7, r4

100039dc <l20_1>:
100039dc:	041c      	lsls	r4, r3, #16
100039de:	0c1d      	lsrs	r5, r3, #16
100039e0:	18a4      	adds	r4, r4, r2
100039e2:	417d      	adcs	r5, r7
100039e4:	1924      	adds	r4, r4, r4
100039e6:	416d      	adcs	r5, r5
100039e8:	9a00      	ldr	r2, [sp, #0]
100039ea:	b291      	uxth	r1, r2
100039ec:	b2ac      	uxth	r4, r5
100039ee:	4361      	muls	r1, r4
100039f0:	0c17      	lsrs	r7, r2, #16
100039f2:	437c      	muls	r4, r7
100039f4:	0c2b      	lsrs	r3, r5, #16
100039f6:	435f      	muls	r7, r3
100039f8:	b292      	uxth	r2, r2
100039fa:	435a      	muls	r2, r3
100039fc:	18a4      	adds	r4, r4, r2
100039fe:	d302      	bcc.n	10003a06 <l21_1>
10003a00:	2201      	movs	r2, #1
10003a02:	0412      	lsls	r2, r2, #16
10003a04:	18bf      	adds	r7, r7, r2

10003a06 <l21_1>:
10003a06:	0422      	lsls	r2, r4, #16
10003a08:	0c23      	lsrs	r3, r4, #16
10003a0a:	1852      	adds	r2, r2, r1
10003a0c:	417b      	adcs	r3, r7
10003a0e:	9c01      	ldr	r4, [sp, #4]
10003a10:	436c      	muls	r4, r5
10003a12:	191b      	adds	r3, r3, r4
10003a14:	0e52      	lsrs	r2, r2, #25
10003a16:	01d9      	lsls	r1, r3, #7
10003a18:	430a      	orrs	r2, r1
10003a1a:	0144      	lsls	r4, r0, #5
10003a1c:	1aa0      	subs	r0, r4, r2
10003a1e:	b281      	uxth	r1, r0
10003a20:	b2b2      	uxth	r2, r6
10003a22:	4351      	muls	r1, r2
10003a24:	1403      	asrs	r3, r0, #16
10003a26:	435a      	muls	r2, r3
10003a28:	0c36      	lsrs	r6, r6, #16
10003a2a:	4373      	muls	r3, r6
10003a2c:	b287      	uxth	r7, r0
10003a2e:	4377      	muls	r7, r6
10003a30:	17d6      	asrs	r6, r2, #31
10003a32:	19d2      	adds	r2, r2, r7
10003a34:	2700      	movs	r7, #0
10003a36:	417e      	adcs	r6, r7
10003a38:	0436      	lsls	r6, r6, #16
10003a3a:	199b      	adds	r3, r3, r6
10003a3c:	0417      	lsls	r7, r2, #16
10003a3e:	0c16      	lsrs	r6, r2, #16
10003a40:	187f      	adds	r7, r7, r1
10003a42:	415e      	adcs	r6, r3
10003a44:	1673      	asrs	r3, r6, #25
10003a46:	18ed      	adds	r5, r5, r3
10003a48:	01f3      	lsls	r3, r6, #7
10003a4a:	2600      	movs	r6, #0
10003a4c:	3380      	adds	r3, #128	; 0x80
10003a4e:	4175      	adcs	r5, r6
10003a50:	0fa9      	lsrs	r1, r5, #30
10003a52:	d106      	bne.n	10003a62 <dd_0>
10003a54:	0064      	lsls	r4, r4, #1
10003a56:	0a69      	lsrs	r1, r5, #9
10003a58:	05e8      	lsls	r0, r5, #23
10003a5a:	0a5b      	lsrs	r3, r3, #9
10003a5c:	4318      	orrs	r0, r3
10003a5e:	d209      	bcs.n	10003a74 <dd_1>
10003a60:	e02f      	b.n	10003ac2 <dd_2>

10003a62 <dd_0>:
10003a62:	2204      	movs	r2, #4
10003a64:	4494      	add	ip, r2
10003a66:	3380      	adds	r3, #128	; 0x80
10003a68:	4175      	adcs	r5, r6
10003a6a:	0aa9      	lsrs	r1, r5, #10
10003a6c:	05a8      	lsls	r0, r5, #22
10003a6e:	0a9b      	lsrs	r3, r3, #10
10003a70:	4318      	orrs	r0, r3
10003a72:	d326      	bcc.n	10003ac2 <dd_2>

10003a74 <dd_1>:
10003a74:	4140      	adcs	r0, r0
10003a76:	4149      	adcs	r1, r1
10003a78:	0424      	lsls	r4, r4, #16
10003a7a:	9a00      	ldr	r2, [sp, #0]
10003a7c:	9b01      	ldr	r3, [sp, #4]
10003a7e:	000d      	movs	r5, r1
10003a80:	4355      	muls	r5, r2
10003a82:	1b64      	subs	r4, r4, r5
10003a84:	4343      	muls	r3, r0
10003a86:	1ae4      	subs	r4, r4, r3
10003a88:	b295      	uxth	r5, r2
10003a8a:	b286      	uxth	r6, r0
10003a8c:	4375      	muls	r5, r6
10003a8e:	0c17      	lsrs	r7, r2, #16
10003a90:	437e      	muls	r6, r7
10003a92:	0c03      	lsrs	r3, r0, #16
10003a94:	435f      	muls	r7, r3
10003a96:	b292      	uxth	r2, r2
10003a98:	435a      	muls	r2, r3
10003a9a:	18b6      	adds	r6, r6, r2
10003a9c:	d302      	bcc.n	10003aa4 <l23_1>
10003a9e:	2201      	movs	r2, #1
10003aa0:	0412      	lsls	r2, r2, #16
10003aa2:	18bf      	adds	r7, r7, r2

10003aa4 <l23_1>:
10003aa4:	0432      	lsls	r2, r6, #16
10003aa6:	0c33      	lsrs	r3, r6, #16
10003aa8:	1952      	adds	r2, r2, r5
10003aaa:	417b      	adcs	r3, r7
10003aac:	4252      	negs	r2, r2
10003aae:	419c      	sbcs	r4, r3
10003ab0:	2c00      	cmp	r4, #0
10003ab2:	d402      	bmi.n	10003aba <l23_1+0x16>
10003ab4:	2200      	movs	r2, #0
10003ab6:	3001      	adds	r0, #1
10003ab8:	4151      	adcs	r1, r2
10003aba:	0840      	lsrs	r0, r0, #1
10003abc:	07ca      	lsls	r2, r1, #31
10003abe:	4310      	orrs	r0, r2
10003ac0:	0849      	lsrs	r1, r1, #1

10003ac2 <dd_2>:
10003ac2:	b002      	add	sp, #8
10003ac4:	4662      	mov	r2, ip
10003ac6:	07d7      	lsls	r7, r2, #31
10003ac8:	1092      	asrs	r2, r2, #2
10003aca:	4b08      	ldr	r3, [pc, #32]	; (10003aec <dd_4+0x6>)
10003acc:	18d2      	adds	r2, r2, r3
10003ace:	4b08      	ldr	r3, [pc, #32]	; (10003af0 <dd_4+0xa>)
10003ad0:	429a      	cmp	r2, r3
10003ad2:	d203      	bcs.n	10003adc <dd_3>
10003ad4:	0512      	lsls	r2, r2, #20
10003ad6:	1889      	adds	r1, r1, r2

10003ad8 <dd_5>:
10003ad8:	19c9      	adds	r1, r1, r7
10003ada:	bdf0      	pop	{r4, r5, r6, r7, pc}

10003adc <dd_3>:
10003adc:	2000      	movs	r0, #0
10003ade:	2a00      	cmp	r2, #0
10003ae0:	dc01      	bgt.n	10003ae6 <dd_4>
10003ae2:	0039      	movs	r1, r7
10003ae4:	bdf0      	pop	{r4, r5, r6, r7, pc}

10003ae6 <dd_4>:
10003ae6:	3301      	adds	r3, #1
10003ae8:	0519      	lsls	r1, r3, #20
10003aea:	e7f5      	b.n	10003ad8 <dd_5>
10003aec:	000003fd 	.word	0x000003fd
10003af0:	000007fe 	.word	0x000007fe

10003af4 <dcordic_rot_step>:
10003af4:	4662      	mov	r2, ip
10003af6:	ca18      	ldmia	r2!, {r3, r4}
10003af8:	4694      	mov	ip, r2
10003afa:	2900      	cmp	r1, #0
10003afc:	da1a      	bge.n	10003b34 <dcordic_rot_step+0x40>
10003afe:	18c0      	adds	r0, r0, r3
10003b00:	4161      	adcs	r1, r4
10003b02:	465b      	mov	r3, fp
10003b04:	413b      	asrs	r3, r7
10003b06:	465c      	mov	r4, fp
10003b08:	40b4      	lsls	r4, r6
10003b0a:	4652      	mov	r2, sl
10003b0c:	40fa      	lsrs	r2, r7
10003b0e:	4322      	orrs	r2, r4
10003b10:	4644      	mov	r4, r8
10003b12:	464d      	mov	r5, r9
10003b14:	4162      	adcs	r2, r4
10003b16:	416b      	adcs	r3, r5
10003b18:	4690      	mov	r8, r2
10003b1a:	4699      	mov	r9, r3
10003b1c:	462b      	mov	r3, r5
10003b1e:	40b3      	lsls	r3, r6
10003b20:	413d      	asrs	r5, r7
10003b22:	40fc      	lsrs	r4, r7
10003b24:	431c      	orrs	r4, r3
10003b26:	4652      	mov	r2, sl
10003b28:	465b      	mov	r3, fp
10003b2a:	41a2      	sbcs	r2, r4
10003b2c:	41ab      	sbcs	r3, r5
10003b2e:	4692      	mov	sl, r2
10003b30:	469b      	mov	fp, r3
10003b32:	4770      	bx	lr
10003b34:	1ac0      	subs	r0, r0, r3
10003b36:	41a1      	sbcs	r1, r4
10003b38:	464b      	mov	r3, r9
10003b3a:	413b      	asrs	r3, r7
10003b3c:	464c      	mov	r4, r9
10003b3e:	40b4      	lsls	r4, r6
10003b40:	4642      	mov	r2, r8
10003b42:	40fa      	lsrs	r2, r7
10003b44:	4322      	orrs	r2, r4
10003b46:	4654      	mov	r4, sl
10003b48:	465d      	mov	r5, fp
10003b4a:	4162      	adcs	r2, r4
10003b4c:	416b      	adcs	r3, r5
10003b4e:	4692      	mov	sl, r2
10003b50:	469b      	mov	fp, r3
10003b52:	462b      	mov	r3, r5
10003b54:	40b3      	lsls	r3, r6
10003b56:	413d      	asrs	r5, r7
10003b58:	40fc      	lsrs	r4, r7
10003b5a:	431c      	orrs	r4, r3
10003b5c:	4642      	mov	r2, r8
10003b5e:	464b      	mov	r3, r9
10003b60:	41a2      	sbcs	r2, r4
10003b62:	41ab      	sbcs	r3, r5
10003b64:	4690      	mov	r8, r2
10003b66:	4699      	mov	r9, r3
10003b68:	4770      	bx	lr

10003b6a <ret_dzero>:
10003b6a:	2000      	movs	r0, #0
10003b6c:	2100      	movs	r1, #0
10003b6e:	4770      	bx	lr

10003b70 <double2uint_shim>:
10003b70:	2200      	movs	r2, #0

10003b72 <double2ufix_shim>:
10003b72:	b500      	push	{lr}
10003b74:	3220      	adds	r2, #32
10003b76:	f000 f804 	bl	10003b82 <double2ufix64_shim>
10003b7a:	0008      	movs	r0, r1
10003b7c:	bd00      	pop	{pc}
	...

10003b80 <double2uint64_shim>:
10003b80:	2200      	movs	r2, #0

10003b82 <double2ufix64_shim>:
10003b82:	150b      	asrs	r3, r1, #20
10003b84:	d4f1      	bmi.n	10003b6a <ret_dzero>

10003b86 <d2fix>:
10003b86:	b510      	push	{r4, lr}
10003b88:	4694      	mov	ip, r2
10003b8a:	f000 f82f 	bl	10003bec <dunpacks>
10003b8e:	1414      	asrs	r4, r2, #16
10003b90:	3401      	adds	r4, #1
10003b92:	da00      	bge.n	10003b96 <d2fix+0x10>
10003b94:	2100      	movs	r1, #0
10003b96:	17cb      	asrs	r3, r1, #31
10003b98:	4c13      	ldr	r4, [pc, #76]	; (10003be8 <d2fix_a+0x4c>)
10003b9a:	4720      	bx	r4

10003b9c <d2fix_a>:
10003b9c:	4462      	add	r2, ip
10003b9e:	3a34      	subs	r2, #52	; 0x34
10003ba0:	d40c      	bmi.n	10003bbc <d2fix_a+0x20>
10003ba2:	2a0c      	cmp	r2, #12
10003ba4:	da07      	bge.n	10003bb6 <d2fix_a+0x1a>
10003ba6:	0004      	movs	r4, r0
10003ba8:	4091      	lsls	r1, r2
10003baa:	4090      	lsls	r0, r2
10003bac:	4252      	negs	r2, r2
10003bae:	3220      	adds	r2, #32
10003bb0:	40d4      	lsrs	r4, r2
10003bb2:	4321      	orrs	r1, r4
10003bb4:	bd10      	pop	{r4, pc}
10003bb6:	43d8      	mvns	r0, r3
10003bb8:	43d9      	mvns	r1, r3
10003bba:	bd10      	pop	{r4, pc}
10003bbc:	3220      	adds	r2, #32
10003bbe:	d407      	bmi.n	10003bd0 <d2fix_a+0x34>
10003bc0:	460c      	mov	r4, r1
10003bc2:	4094      	lsls	r4, r2
10003bc4:	4252      	negs	r2, r2
10003bc6:	3220      	adds	r2, #32
10003bc8:	4111      	asrs	r1, r2
10003bca:	40d0      	lsrs	r0, r2
10003bcc:	4320      	orrs	r0, r4
10003bce:	bd10      	pop	{r4, pc}
10003bd0:	0008      	movs	r0, r1
10003bd2:	17c9      	asrs	r1, r1, #31
10003bd4:	3220      	adds	r2, #32
10003bd6:	d403      	bmi.n	10003be0 <d2fix_a+0x44>
10003bd8:	4252      	negs	r2, r2
10003bda:	3220      	adds	r2, #32
10003bdc:	4110      	asrs	r0, r2
10003bde:	bd10      	pop	{r4, pc}
10003be0:	0018      	movs	r0, r3
10003be2:	0019      	movs	r1, r3
10003be4:	bd10      	pop	{r4, pc}
10003be6:	0000      	.short	0x0000
10003be8:	10003b9d 	.word	0x10003b9d

10003bec <dunpacks>:
10003bec:	0d0a      	lsrs	r2, r1, #20
10003bee:	0fcc      	lsrs	r4, r1, #31
10003bf0:	1e53      	subs	r3, r2, #1
10003bf2:	051b      	lsls	r3, r3, #20
10003bf4:	1ac9      	subs	r1, r1, r3
10003bf6:	0552      	lsls	r2, r2, #21
10003bf8:	d303      	bcc.n	10003c02 <l60_1>
10003bfa:	43c9      	mvns	r1, r1
10003bfc:	4240      	negs	r0, r0
10003bfe:	d300      	bcc.n	10003c02 <l60_1>
10003c00:	3101      	adds	r1, #1

10003c02 <l60_1>:
10003c02:	0d52      	lsrs	r2, r2, #21
10003c04:	d003      	beq.n	10003c0e <l60_2>
10003c06:	1c53      	adds	r3, r2, #1
10003c08:	0adb      	lsrs	r3, r3, #11
10003c0a:	d007      	beq.n	10003c1c <l60_3>
10003c0c:	1b12      	subs	r2, r2, r4

10003c0e <l60_2>:
10003c0e:	2000      	movs	r0, #0
10003c10:	0064      	lsls	r4, r4, #1
10003c12:	1c61      	adds	r1, r4, #1
10003c14:	0789      	lsls	r1, r1, #30
10003c16:	1289      	asrs	r1, r1, #10
10003c18:	3a80      	subs	r2, #128	; 0x80
10003c1a:	0312      	lsls	r2, r2, #12

10003c1c <l60_3>:
10003c1c:	4b01      	ldr	r3, [pc, #4]	; (10003c24 <l60_3+0x8>)
10003c1e:	1ad2      	subs	r2, r2, r3
10003c20:	4770      	bx	lr
10003c22:	0000      	.short	0x0000
10003c24:	000003ff 	.word	0x000003ff

10003c28 <__wrap___aeabi_frsub>:
10003c28:	4048      	eors	r0, r1
10003c2a:	4041      	eors	r1, r0
10003c2c:	4048      	eors	r0, r1

10003c2e <__wrap___aeabi_fsub>:
10003c2e:	4b06      	ldr	r3, [pc, #24]	; (10003c48 <__wrap___aeabi_fmul+0x8>)
10003c30:	685b      	ldr	r3, [r3, #4]
10003c32:	4718      	bx	r3

10003c34 <__wrap___aeabi_fadd>:
10003c34:	4b04      	ldr	r3, [pc, #16]	; (10003c48 <__wrap___aeabi_fmul+0x8>)
10003c36:	681b      	ldr	r3, [r3, #0]
10003c38:	4718      	bx	r3

10003c3a <__wrap___aeabi_fdiv>:
10003c3a:	4b03      	ldr	r3, [pc, #12]	; (10003c48 <__wrap___aeabi_fmul+0x8>)
10003c3c:	68db      	ldr	r3, [r3, #12]
10003c3e:	4718      	bx	r3

10003c40 <__wrap___aeabi_fmul>:
10003c40:	4b01      	ldr	r3, [pc, #4]	; (10003c48 <__wrap___aeabi_fmul+0x8>)
10003c42:	689b      	ldr	r3, [r3, #8]
10003c44:	4718      	bx	r3
10003c46:	0000      	.short	0x0000
10003c48:	20000d10 	.word	0x20000d10

10003c4c <__wrap___aeabi_ui2f>:
10003c4c:	1a49      	subs	r1, r1, r1
10003c4e:	2800      	cmp	r0, #0
10003c50:	d108      	bne.n	10003c64 <__aeabi_i2f_main>
10003c52:	4608      	mov	r0, r1
10003c54:	4770      	bx	lr
	...

10003c58 <__wrap___aeabi_i2f>:
10003c58:	0fc1      	lsrs	r1, r0, #31
10003c5a:	07c9      	lsls	r1, r1, #31
10003c5c:	d500      	bpl.n	10003c60 <__wrap___aeabi_i2f+0x8>
10003c5e:	4240      	negs	r0, r0
10003c60:	2800      	cmp	r0, #0
10003c62:	d017      	beq.n	10003c94 <__aeabi_i2f_main+0x30>

10003c64 <__aeabi_i2f_main>:
10003c64:	46f4      	mov	ip, lr
10003c66:	b403      	push	{r0, r1}
10003c68:	4b0b      	ldr	r3, [pc, #44]	; (10003c98 <__aeabi_i2f_main+0x34>)
10003c6a:	681b      	ldr	r3, [r3, #0]
10003c6c:	4798      	blx	r3
10003c6e:	bc06      	pop	{r1, r2}
10003c70:	4081      	lsls	r1, r0
10003c72:	389e      	subs	r0, #158	; 0x9e
10003c74:	4240      	negs	r0, r0
10003c76:	3180      	adds	r1, #128	; 0x80
10003c78:	d207      	bcs.n	10003c8a <__aeabi_i2f_main+0x26>
10003c7a:	060b      	lsls	r3, r1, #24
10003c7c:	d007      	beq.n	10003c8e <__aeabi_i2f_main+0x2a>
10003c7e:	0049      	lsls	r1, r1, #1
10003c80:	0a49      	lsrs	r1, r1, #9
10003c82:	05c0      	lsls	r0, r0, #23
10003c84:	4310      	orrs	r0, r2
10003c86:	4308      	orrs	r0, r1
10003c88:	4760      	bx	ip
10003c8a:	3001      	adds	r0, #1
10003c8c:	e7f8      	b.n	10003c80 <__aeabi_i2f_main+0x1c>
10003c8e:	0a49      	lsrs	r1, r1, #9
10003c90:	0289      	lsls	r1, r1, #10
10003c92:	e7f5      	b.n	10003c80 <__aeabi_i2f_main+0x1c>
10003c94:	4770      	bx	lr
10003c96:	0000      	.short	0x0000
10003c98:	20000e10 	.word	0x20000e10

10003c9c <__wrap___aeabi_f2d>:
10003c9c:	4b03      	ldr	r3, [pc, #12]	; (10003cac <__wrap___aeabi_f2d+0x10>)
10003c9e:	6fdb      	ldr	r3, [r3, #124]	; 0x7c
10003ca0:	46fc      	mov	ip, pc
10003ca2:	4718      	bx	r3
10003ca4:	3d41df7c 	.word	0x3d41df7c
10003ca8:	00001000 	.word	0x00001000
10003cac:	20000d10 	.word	0x20000d10

10003cb0 <__aeabi_float_init>:
10003cb0:	2313      	movs	r3, #19
10003cb2:	b510      	push	{r4, lr}
10003cb4:	4812      	ldr	r0, [pc, #72]	; (10003d00 <__aeabi_float_init+0x50>)
10003cb6:	781c      	ldrb	r4, [r3, #0]
10003cb8:	f7ff f90a 	bl	10002ed0 <rom_data_lookup>
10003cbc:	0001      	movs	r1, r0
10003cbe:	2c01      	cmp	r4, #1
10003cc0:	d00a      	beq.n	10003cd8 <__aeabi_float_init+0x28>
10003cc2:	dd03      	ble.n	10003ccc <__aeabi_float_init+0x1c>
10003cc4:	2280      	movs	r2, #128	; 0x80
10003cc6:	480f      	ldr	r0, [pc, #60]	; (10003d04 <__aeabi_float_init+0x54>)
10003cc8:	f000 f868 	bl	10003d9c <__wrap___aeabi_memcpy>
10003ccc:	480e      	ldr	r0, [pc, #56]	; (10003d08 <__aeabi_float_init+0x58>)
10003cce:	f7ff f8f7 	bl	10002ec0 <rom_func_lookup>
10003cd2:	4b0e      	ldr	r3, [pc, #56]	; (10003d0c <__aeabi_float_init+0x5c>)
10003cd4:	6018      	str	r0, [r3, #0]
10003cd6:	bd10      	pop	{r4, pc}
10003cd8:	4c0a      	ldr	r4, [pc, #40]	; (10003d04 <__aeabi_float_init+0x54>)
10003cda:	2254      	movs	r2, #84	; 0x54
10003cdc:	0020      	movs	r0, r4
10003cde:	f000 f85d 	bl	10003d9c <__wrap___aeabi_memcpy>
10003ce2:	4b0b      	ldr	r3, [pc, #44]	; (10003d10 <__aeabi_float_init+0x60>)
10003ce4:	6563      	str	r3, [r4, #84]	; 0x54
10003ce6:	65a3      	str	r3, [r4, #88]	; 0x58
10003ce8:	65e3      	str	r3, [r4, #92]	; 0x5c
10003cea:	6623      	str	r3, [r4, #96]	; 0x60
10003cec:	6663      	str	r3, [r4, #100]	; 0x64
10003cee:	66a3      	str	r3, [r4, #104]	; 0x68
10003cf0:	66e3      	str	r3, [r4, #108]	; 0x6c
10003cf2:	6723      	str	r3, [r4, #112]	; 0x70
10003cf4:	6763      	str	r3, [r4, #116]	; 0x74
10003cf6:	67a3      	str	r3, [r4, #120]	; 0x78
10003cf8:	67e3      	str	r3, [r4, #124]	; 0x7c
10003cfa:	6223      	str	r3, [r4, #32]
10003cfc:	61e3      	str	r3, [r4, #28]
10003cfe:	e7e5      	b.n	10003ccc <__aeabi_float_init+0x1c>
10003d00:	00004653 	.word	0x00004653
10003d04:	20000d10 	.word	0x20000d10
10003d08:	0000334c 	.word	0x0000334c
10003d0c:	20000e10 	.word	0x20000e10
10003d10:	10003d15 	.word	0x10003d15

10003d14 <float_table_shim_on_use_helper>:
10003d14:	b507      	push	{r0, r1, r2, lr}
10003d16:	4660      	mov	r0, ip
10003d18:	8801      	ldrh	r1, [r0, #0]
10003d1a:	0a0a      	lsrs	r2, r1, #8
10003d1c:	3002      	adds	r0, #2
10003d1e:	2adf      	cmp	r2, #223	; 0xdf
10003d20:	d1fa      	bne.n	10003d18 <float_table_shim_on_use_helper+0x4>
10003d22:	b2c9      	uxtb	r1, r1
10003d24:	0882      	lsrs	r2, r0, #2
10003d26:	d304      	bcc.n	10003d32 <float_table_shim_on_use_helper+0x1e>
10003d28:	8802      	ldrh	r2, [r0, #0]
10003d2a:	8840      	ldrh	r0, [r0, #2]
10003d2c:	0400      	lsls	r0, r0, #16
10003d2e:	4310      	orrs	r0, r2
10003d30:	e000      	b.n	10003d34 <float_table_shim_on_use_helper+0x20>
10003d32:	6800      	ldr	r0, [r0, #0]
10003d34:	4a01      	ldr	r2, [pc, #4]	; (10003d3c <float_table_shim_on_use_helper+0x28>)
10003d36:	5050      	str	r0, [r2, r1]
10003d38:	9003      	str	r0, [sp, #12]
10003d3a:	bd07      	pop	{r0, r1, r2, pc}
10003d3c:	20000d10 	.word	0x20000d10

10003d40 <float2double_shim>:
10003d40:	0fc3      	lsrs	r3, r0, #31
10003d42:	07db      	lsls	r3, r3, #31
10003d44:	0041      	lsls	r1, r0, #1
10003d46:	0e0a      	lsrs	r2, r1, #24
10003d48:	d007      	beq.n	10003d5a <float2double_shim+0x1a>
10003d4a:	2aff      	cmp	r2, #255	; 0xff
10003d4c:	d008      	beq.n	10003d60 <float2double_shim+0x20>
10003d4e:	0909      	lsrs	r1, r1, #4
10003d50:	4a05      	ldr	r2, [pc, #20]	; (10003d68 <float2double_shim+0x28>)
10003d52:	1889      	adds	r1, r1, r2
10003d54:	4319      	orrs	r1, r3
10003d56:	0740      	lsls	r0, r0, #29
10003d58:	4770      	bx	lr
10003d5a:	0019      	movs	r1, r3
10003d5c:	2000      	movs	r0, #0
10003d5e:	4770      	bx	lr
10003d60:	4902      	ldr	r1, [pc, #8]	; (10003d6c <float2double_shim+0x2c>)
10003d62:	18c9      	adds	r1, r1, r3
10003d64:	e7fa      	b.n	10003d5c <float2double_shim+0x1c>
10003d66:	0000      	.short	0x0000
10003d68:	38000000 	.word	0x38000000
10003d6c:	7ff00000 	.word	0x7ff00000

10003d70 <__wrap_malloc>:
10003d70:	b510      	push	{r4, lr}
10003d72:	f000 fa79 	bl	10004268 <malloc>
10003d76:	bd10      	pop	{r4, pc}

10003d78 <__wrap_calloc>:
10003d78:	b510      	push	{r4, lr}
10003d7a:	f000 fa3b 	bl	100041f4 <calloc>
10003d7e:	bd10      	pop	{r4, pc}

10003d80 <__aeabi_mem_init>:
10003d80:	4801      	ldr	r0, [pc, #4]	; (10003d88 <__aeabi_mem_init+0x8>)
10003d82:	2104      	movs	r1, #4
10003d84:	4b01      	ldr	r3, [pc, #4]	; (10003d8c <__aeabi_mem_init+0xc>)
10003d86:	4718      	bx	r3
10003d88:	200002d0 	.word	0x200002d0
10003d8c:	10002ee1 	.word	0x10002ee1

10003d90 <__wrap_memset>:
10003d90:	4b01      	ldr	r3, [pc, #4]	; (10003d98 <__wrap_memset+0x8>)
10003d92:	681b      	ldr	r3, [r3, #0]
10003d94:	4718      	bx	r3
10003d96:	0000      	.short	0x0000
10003d98:	200002d0 	.word	0x200002d0

10003d9c <__wrap___aeabi_memcpy>:
10003d9c:	4b01      	ldr	r3, [pc, #4]	; (10003da4 <__wrap___aeabi_memcpy+0x8>)
10003d9e:	685b      	ldr	r3, [r3, #4]
10003da0:	4718      	bx	r3
10003da2:	0000      	.short	0x0000
10003da4:	200002d0 	.word	0x200002d0

10003da8 <stdio_out_chars_crlf.part.0>:
10003da8:	b5f8      	push	{r3, r4, r5, r6, r7, lr}
10003daa:	4647      	mov	r7, r8
10003dac:	46ce      	mov	lr, r9
10003dae:	000d      	movs	r5, r1
10003db0:	b580      	push	{r7, lr}
10003db2:	0016      	movs	r6, r2
10003db4:	0007      	movs	r7, r0
10003db6:	2a00      	cmp	r2, #0
10003db8:	dd20      	ble.n	10003dfc <stdio_out_chars_crlf.part.0+0x54>
10003dba:	1e4b      	subs	r3, r1, #1
10003dbc:	4698      	mov	r8, r3
10003dbe:	4b1a      	ldr	r3, [pc, #104]	; (10003e28 <stdio_out_chars_crlf.part.0+0x80>)
10003dc0:	2400      	movs	r4, #0
10003dc2:	2000      	movs	r0, #0
10003dc4:	4699      	mov	r9, r3
10003dc6:	2c00      	cmp	r4, #0
10003dc8:	d02b      	beq.n	10003e22 <stdio_out_chars_crlf.part.0+0x7a>
10003dca:	4643      	mov	r3, r8
10003dcc:	5d1b      	ldrb	r3, [r3, r4]
10003dce:	3b0d      	subs	r3, #13
10003dd0:	425a      	negs	r2, r3
10003dd2:	4153      	adcs	r3, r2
10003dd4:	b2db      	uxtb	r3, r3
10003dd6:	5d2a      	ldrb	r2, [r5, r4]
10003dd8:	2a0a      	cmp	r2, #10
10003dda:	d013      	beq.n	10003e04 <stdio_out_chars_crlf.part.0+0x5c>
10003ddc:	3401      	adds	r4, #1
10003dde:	42a6      	cmp	r6, r4
10003de0:	dcf1      	bgt.n	10003dc6 <stdio_out_chars_crlf.part.0+0x1e>
10003de2:	4286      	cmp	r6, r0
10003de4:	dd03      	ble.n	10003dee <stdio_out_chars_crlf.part.0+0x46>
10003de6:	1a31      	subs	r1, r6, r0
10003de8:	683b      	ldr	r3, [r7, #0]
10003dea:	1828      	adds	r0, r5, r0
10003dec:	4798      	blx	r3
10003dee:	19ad      	adds	r5, r5, r6
10003df0:	3d01      	subs	r5, #1
10003df2:	782b      	ldrb	r3, [r5, #0]
10003df4:	3b0d      	subs	r3, #13
10003df6:	425a      	negs	r2, r3
10003df8:	4153      	adcs	r3, r2
10003dfa:	743b      	strb	r3, [r7, #16]
10003dfc:	bc0c      	pop	{r2, r3}
10003dfe:	4690      	mov	r8, r2
10003e00:	4699      	mov	r9, r3
10003e02:	bdf8      	pop	{r3, r4, r5, r6, r7, pc}
10003e04:	2b00      	cmp	r3, #0
10003e06:	d1e9      	bne.n	10003ddc <stdio_out_chars_crlf.part.0+0x34>
10003e08:	42a0      	cmp	r0, r4
10003e0a:	da03      	bge.n	10003e14 <stdio_out_chars_crlf.part.0+0x6c>
10003e0c:	1a21      	subs	r1, r4, r0
10003e0e:	683b      	ldr	r3, [r7, #0]
10003e10:	1828      	adds	r0, r5, r0
10003e12:	4798      	blx	r3
10003e14:	4648      	mov	r0, r9
10003e16:	2102      	movs	r1, #2
10003e18:	683b      	ldr	r3, [r7, #0]
10003e1a:	3401      	adds	r4, #1
10003e1c:	4798      	blx	r3
10003e1e:	0020      	movs	r0, r4
10003e20:	e7dd      	b.n	10003dde <stdio_out_chars_crlf.part.0+0x36>
10003e22:	7c3b      	ldrb	r3, [r7, #16]
10003e24:	e7d7      	b.n	10003dd6 <stdio_out_chars_crlf.part.0+0x2e>
10003e26:	46c0      	nop			; (mov r8, r8)
10003e28:	10005060 	.word	0x10005060

10003e2c <stdio_buffered_printer>:
10003e2c:	b5f8      	push	{r3, r4, r5, r6, r7, lr}
10003e2e:	4647      	mov	r7, r8
10003e30:	46ce      	mov	lr, r9
10003e32:	000c      	movs	r4, r1
10003e34:	6809      	ldr	r1, [r1, #0]
10003e36:	b580      	push	{r7, lr}
10003e38:	0007      	movs	r7, r0
10003e3a:	2980      	cmp	r1, #128	; 0x80
10003e3c:	d007      	beq.n	10003e4e <stdio_buffered_printer+0x22>
10003e3e:	1c4b      	adds	r3, r1, #1
10003e40:	6023      	str	r3, [r4, #0]
10003e42:	1864      	adds	r4, r4, r1
10003e44:	7127      	strb	r7, [r4, #4]
10003e46:	bc0c      	pop	{r2, r3}
10003e48:	4690      	mov	r8, r2
10003e4a:	4699      	mov	r9, r3
10003e4c:	bdf8      	pop	{r3, r4, r5, r6, r7, pc}
10003e4e:	4b13      	ldr	r3, [pc, #76]	; (10003e9c <stdio_buffered_printer+0x70>)
10003e50:	681d      	ldr	r5, [r3, #0]
10003e52:	2d00      	cmp	r5, #0
10003e54:	d01b      	beq.n	10003e8e <stdio_buffered_printer+0x62>
10003e56:	4b12      	ldr	r3, [pc, #72]	; (10003ea0 <stdio_buffered_printer+0x74>)
10003e58:	4698      	mov	r8, r3
10003e5a:	1d23      	adds	r3, r4, #4
10003e5c:	4699      	mov	r9, r3
10003e5e:	e002      	b.n	10003e66 <stdio_buffered_printer+0x3a>
10003e60:	68ed      	ldr	r5, [r5, #12]
10003e62:	2d00      	cmp	r5, #0
10003e64:	d013      	beq.n	10003e8e <stdio_buffered_printer+0x62>
10003e66:	682e      	ldr	r6, [r5, #0]
10003e68:	2e00      	cmp	r6, #0
10003e6a:	d0f9      	beq.n	10003e60 <stdio_buffered_printer+0x34>
10003e6c:	4643      	mov	r3, r8
10003e6e:	681b      	ldr	r3, [r3, #0]
10003e70:	2b00      	cmp	r3, #0
10003e72:	d001      	beq.n	10003e78 <stdio_buffered_printer+0x4c>
10003e74:	429d      	cmp	r5, r3
10003e76:	d1f3      	bne.n	10003e60 <stdio_buffered_printer+0x34>
10003e78:	7c6b      	ldrb	r3, [r5, #17]
10003e7a:	6822      	ldr	r2, [r4, #0]
10003e7c:	2b00      	cmp	r3, #0
10003e7e:	d009      	beq.n	10003e94 <stdio_buffered_printer+0x68>
10003e80:	0028      	movs	r0, r5
10003e82:	4649      	mov	r1, r9
10003e84:	f7ff ff90 	bl	10003da8 <stdio_out_chars_crlf.part.0>
10003e88:	68ed      	ldr	r5, [r5, #12]
10003e8a:	2d00      	cmp	r5, #0
10003e8c:	d1eb      	bne.n	10003e66 <stdio_buffered_printer+0x3a>
10003e8e:	2301      	movs	r3, #1
10003e90:	2100      	movs	r1, #0
10003e92:	e7d5      	b.n	10003e40 <stdio_buffered_printer+0x14>
10003e94:	0011      	movs	r1, r2
10003e96:	4648      	mov	r0, r9
10003e98:	47b0      	blx	r6
10003e9a:	e7e1      	b.n	10003e60 <stdio_buffered_printer+0x34>
10003e9c:	20000bd8 	.word	0x20000bd8
10003ea0:	20000bdc 	.word	0x20000bdc

10003ea4 <stdio_put_string>:
10003ea4:	b5f0      	push	{r4, r5, r6, r7, lr}
10003ea6:	4657      	mov	r7, sl
10003ea8:	4645      	mov	r5, r8
10003eaa:	46de      	mov	lr, fp
10003eac:	464e      	mov	r6, r9
10003eae:	23d0      	movs	r3, #208	; 0xd0
10003eb0:	b5e0      	push	{r5, r6, r7, lr}
10003eb2:	061b      	lsls	r3, r3, #24
10003eb4:	681c      	ldr	r4, [r3, #0]
10003eb6:	4b37      	ldr	r3, [pc, #220]	; (10003f94 <stdio_put_string+0xf0>)
10003eb8:	b083      	sub	sp, #12
10003eba:	0007      	movs	r7, r0
10003ebc:	000d      	movs	r5, r1
10003ebe:	0018      	movs	r0, r3
10003ec0:	a901      	add	r1, sp, #4
10003ec2:	4690      	mov	r8, r2
10003ec4:	469a      	mov	sl, r3
10003ec6:	f000 fe37 	bl	10004b38 <__mutex_try_enter_veneer>
10003eca:	4681      	mov	r9, r0
10003ecc:	2800      	cmp	r0, #0
10003ece:	d107      	bne.n	10003ee0 <stdio_put_string+0x3c>
10003ed0:	9b01      	ldr	r3, [sp, #4]
10003ed2:	429c      	cmp	r4, r3
10003ed4:	d004      	beq.n	10003ee0 <stdio_put_string+0x3c>
10003ed6:	4650      	mov	r0, sl
10003ed8:	f000 fe3e 	bl	10004b58 <__mutex_enter_blocking_veneer>
10003edc:	2301      	movs	r3, #1
10003ede:	4699      	mov	r9, r3
10003ee0:	1c6b      	adds	r3, r5, #1
10003ee2:	d103      	bne.n	10003eec <stdio_put_string+0x48>
10003ee4:	0038      	movs	r0, r7
10003ee6:	f000 fcab 	bl	10004840 <strlen>
10003eea:	0005      	movs	r5, r0
10003eec:	4b2a      	ldr	r3, [pc, #168]	; (10003f98 <stdio_put_string+0xf4>)
10003eee:	681c      	ldr	r4, [r3, #0]
10003ef0:	2c00      	cmp	r4, #0
10003ef2:	d02f      	beq.n	10003f54 <stdio_put_string+0xb0>
10003ef4:	230a      	movs	r3, #10
10003ef6:	4e29      	ldr	r6, [pc, #164]	; (10003f9c <stdio_put_string+0xf8>)
10003ef8:	469b      	mov	fp, r3
10003efa:	e002      	b.n	10003f02 <stdio_put_string+0x5e>
10003efc:	68e4      	ldr	r4, [r4, #12]
10003efe:	2c00      	cmp	r4, #0
10003f00:	d028      	beq.n	10003f54 <stdio_put_string+0xb0>
10003f02:	6822      	ldr	r2, [r4, #0]
10003f04:	2a00      	cmp	r2, #0
10003f06:	d0f9      	beq.n	10003efc <stdio_put_string+0x58>
10003f08:	6833      	ldr	r3, [r6, #0]
10003f0a:	2b00      	cmp	r3, #0
10003f0c:	d001      	beq.n	10003f12 <stdio_put_string+0x6e>
10003f0e:	42a3      	cmp	r3, r4
10003f10:	d1f4      	bne.n	10003efc <stdio_put_string+0x58>
10003f12:	7c63      	ldrb	r3, [r4, #17]
10003f14:	2b00      	cmp	r3, #0
10003f16:	d02a      	beq.n	10003f6e <stdio_put_string+0xca>
10003f18:	002a      	movs	r2, r5
10003f1a:	0039      	movs	r1, r7
10003f1c:	0020      	movs	r0, r4
10003f1e:	f7ff ff43 	bl	10003da8 <stdio_out_chars_crlf.part.0>
10003f22:	4643      	mov	r3, r8
10003f24:	2b00      	cmp	r3, #0
10003f26:	d0e9      	beq.n	10003efc <stdio_put_string+0x58>
10003f28:	466b      	mov	r3, sp
10003f2a:	465a      	mov	r2, fp
10003f2c:	711a      	strb	r2, [r3, #4]
10003f2e:	7c63      	ldrb	r3, [r4, #17]
10003f30:	2b00      	cmp	r3, #0
10003f32:	d020      	beq.n	10003f76 <stdio_put_string+0xd2>
10003f34:	7c23      	ldrb	r3, [r4, #16]
10003f36:	2b00      	cmp	r3, #0
10003f38:	d026      	beq.n	10003f88 <stdio_put_string+0xe4>
10003f3a:	2101      	movs	r1, #1
10003f3c:	6823      	ldr	r3, [r4, #0]
10003f3e:	a801      	add	r0, sp, #4
10003f40:	4798      	blx	r3
10003f42:	466b      	mov	r3, sp
10003f44:	791b      	ldrb	r3, [r3, #4]
10003f46:	3b0d      	subs	r3, #13
10003f48:	425a      	negs	r2, r3
10003f4a:	4153      	adcs	r3, r2
10003f4c:	7423      	strb	r3, [r4, #16]
10003f4e:	68e4      	ldr	r4, [r4, #12]
10003f50:	2c00      	cmp	r4, #0
10003f52:	d1d6      	bne.n	10003f02 <stdio_put_string+0x5e>
10003f54:	464b      	mov	r3, r9
10003f56:	2b00      	cmp	r3, #0
10003f58:	d112      	bne.n	10003f80 <stdio_put_string+0xdc>
10003f5a:	1e68      	subs	r0, r5, #1
10003f5c:	4185      	sbcs	r5, r0
10003f5e:	b2e8      	uxtb	r0, r5
10003f60:	b003      	add	sp, #12
10003f62:	bc3c      	pop	{r2, r3, r4, r5}
10003f64:	4690      	mov	r8, r2
10003f66:	4699      	mov	r9, r3
10003f68:	46a2      	mov	sl, r4
10003f6a:	46ab      	mov	fp, r5
10003f6c:	bdf0      	pop	{r4, r5, r6, r7, pc}
10003f6e:	0029      	movs	r1, r5
10003f70:	0038      	movs	r0, r7
10003f72:	4790      	blx	r2
10003f74:	e7d5      	b.n	10003f22 <stdio_put_string+0x7e>
10003f76:	2101      	movs	r1, #1
10003f78:	6823      	ldr	r3, [r4, #0]
10003f7a:	a801      	add	r0, sp, #4
10003f7c:	4798      	blx	r3
10003f7e:	e7bd      	b.n	10003efc <stdio_put_string+0x58>
10003f80:	4650      	mov	r0, sl
10003f82:	f000 fdc1 	bl	10004b08 <__mutex_exit_veneer>
10003f86:	e7e8      	b.n	10003f5a <stdio_put_string+0xb6>
10003f88:	2102      	movs	r1, #2
10003f8a:	4805      	ldr	r0, [pc, #20]	; (10003fa0 <stdio_put_string+0xfc>)
10003f8c:	6823      	ldr	r3, [r4, #0]
10003f8e:	4798      	blx	r3
10003f90:	e7d7      	b.n	10003f42 <stdio_put_string+0x9e>
10003f92:	46c0      	nop			; (mov r8, r8)
10003f94:	20000b30 	.word	0x20000b30
10003f98:	20000bd8 	.word	0x20000bd8
10003f9c:	20000bdc 	.word	0x20000bdc
10003fa0:	10005060 	.word	0x10005060

10003fa4 <__wrap_putchar>:
10003fa4:	b510      	push	{r4, lr}
10003fa6:	b082      	sub	sp, #8
10003fa8:	466b      	mov	r3, sp
10003faa:	0004      	movs	r4, r0
10003fac:	2200      	movs	r2, #0
10003fae:	1dd8      	adds	r0, r3, #7
10003fb0:	2101      	movs	r1, #1
10003fb2:	7004      	strb	r4, [r0, #0]
10003fb4:	f7ff ff76 	bl	10003ea4 <stdio_put_string>
10003fb8:	0020      	movs	r0, r4
10003fba:	b002      	add	sp, #8
10003fbc:	bd10      	pop	{r4, pc}
10003fbe:	46c0      	nop			; (mov r8, r8)

10003fc0 <__wrap_puts>:
10003fc0:	b570      	push	{r4, r5, r6, lr}
10003fc2:	0004      	movs	r4, r0
10003fc4:	f000 fc3c 	bl	10004840 <strlen>
10003fc8:	2201      	movs	r2, #1
10003fca:	0001      	movs	r1, r0
10003fcc:	0005      	movs	r5, r0
10003fce:	0020      	movs	r0, r4
10003fd0:	f7ff ff68 	bl	10003ea4 <stdio_put_string>
10003fd4:	4b08      	ldr	r3, [pc, #32]	; (10003ff8 <__wrap_puts+0x38>)
10003fd6:	681c      	ldr	r4, [r3, #0]
10003fd8:	2c00      	cmp	r4, #0
10003fda:	d006      	beq.n	10003fea <__wrap_puts+0x2a>
10003fdc:	6863      	ldr	r3, [r4, #4]
10003fde:	2b00      	cmp	r3, #0
10003fe0:	d005      	beq.n	10003fee <__wrap_puts+0x2e>
10003fe2:	4798      	blx	r3
10003fe4:	68e4      	ldr	r4, [r4, #12]
10003fe6:	2c00      	cmp	r4, #0
10003fe8:	d1f8      	bne.n	10003fdc <__wrap_puts+0x1c>
10003fea:	0028      	movs	r0, r5
10003fec:	bd70      	pop	{r4, r5, r6, pc}
10003fee:	68e4      	ldr	r4, [r4, #12]
10003ff0:	2c00      	cmp	r4, #0
10003ff2:	d1f3      	bne.n	10003fdc <__wrap_puts+0x1c>
10003ff4:	e7f9      	b.n	10003fea <__wrap_puts+0x2a>
10003ff6:	46c0      	nop			; (mov r8, r8)
10003ff8:	20000bd8 	.word	0x20000bd8

10003ffc <stdio_set_driver_enabled>:
10003ffc:	4a0d      	ldr	r2, [pc, #52]	; (10004034 <stdio_set_driver_enabled+0x38>)
10003ffe:	6813      	ldr	r3, [r2, #0]
10004000:	2b00      	cmp	r3, #0
10004002:	d013      	beq.n	1000402c <stdio_set_driver_enabled+0x30>
10004004:	4283      	cmp	r3, r0
10004006:	d102      	bne.n	1000400e <stdio_set_driver_enabled+0x12>
10004008:	e009      	b.n	1000401e <stdio_set_driver_enabled+0x22>
1000400a:	4298      	cmp	r0, r3
1000400c:	d008      	beq.n	10004020 <stdio_set_driver_enabled+0x24>
1000400e:	001a      	movs	r2, r3
10004010:	68db      	ldr	r3, [r3, #12]
10004012:	2b00      	cmp	r3, #0
10004014:	d1f9      	bne.n	1000400a <stdio_set_driver_enabled+0xe>
10004016:	2900      	cmp	r1, #0
10004018:	d000      	beq.n	1000401c <stdio_set_driver_enabled+0x20>
1000401a:	60d0      	str	r0, [r2, #12]
1000401c:	4770      	bx	lr
1000401e:	001a      	movs	r2, r3
10004020:	2900      	cmp	r1, #0
10004022:	d1fb      	bne.n	1000401c <stdio_set_driver_enabled+0x20>
10004024:	68db      	ldr	r3, [r3, #12]
10004026:	60d3      	str	r3, [r2, #12]
10004028:	60c1      	str	r1, [r0, #12]
1000402a:	e7f7      	b.n	1000401c <stdio_set_driver_enabled+0x20>
1000402c:	2900      	cmp	r1, #0
1000402e:	d0f5      	beq.n	1000401c <stdio_set_driver_enabled+0x20>
10004030:	6010      	str	r0, [r2, #0]
10004032:	e7f3      	b.n	1000401c <stdio_set_driver_enabled+0x20>
10004034:	20000bd8 	.word	0x20000bd8

10004038 <__wrap_vprintf>:
10004038:	b5f0      	push	{r4, r5, r6, r7, lr}
1000403a:	4646      	mov	r6, r8
1000403c:	46d6      	mov	lr, sl
1000403e:	464f      	mov	r7, r9
10004040:	23d0      	movs	r3, #208	; 0xd0
10004042:	b5c0      	push	{r6, r7, lr}
10004044:	061b      	lsls	r3, r3, #24
10004046:	681f      	ldr	r7, [r3, #0]
10004048:	4b31      	ldr	r3, [pc, #196]	; (10004110 <__wrap_vprintf+0xd8>)
1000404a:	b0a2      	sub	sp, #136	; 0x88
1000404c:	0004      	movs	r4, r0
1000404e:	000d      	movs	r5, r1
10004050:	0018      	movs	r0, r3
10004052:	a901      	add	r1, sp, #4
10004054:	4698      	mov	r8, r3
10004056:	f000 fd6f 	bl	10004b38 <__mutex_try_enter_veneer>
1000405a:	1e06      	subs	r6, r0, #0
1000405c:	d106      	bne.n	1000406c <__wrap_vprintf+0x34>
1000405e:	9b01      	ldr	r3, [sp, #4]
10004060:	429f      	cmp	r7, r3
10004062:	d003      	beq.n	1000406c <__wrap_vprintf+0x34>
10004064:	4640      	mov	r0, r8
10004066:	f000 fd77 	bl	10004b58 <__mutex_enter_blocking_veneer>
1000406a:	3601      	adds	r6, #1
1000406c:	2284      	movs	r2, #132	; 0x84
1000406e:	2100      	movs	r1, #0
10004070:	a801      	add	r0, sp, #4
10004072:	f7ff fe8d 	bl	10003d90 <__wrap_memset>
10004076:	002b      	movs	r3, r5
10004078:	0022      	movs	r2, r4
1000407a:	4826      	ldr	r0, [pc, #152]	; (10004114 <__wrap_vprintf+0xdc>)
1000407c:	a901      	add	r1, sp, #4
1000407e:	f7fe feef 	bl	10002e60 <vfctprintf>
10004082:	9b01      	ldr	r3, [sp, #4]
10004084:	0007      	movs	r7, r0
10004086:	2b00      	cmp	r3, #0
10004088:	d115      	bne.n	100040b6 <__wrap_vprintf+0x7e>
1000408a:	4b23      	ldr	r3, [pc, #140]	; (10004118 <__wrap_vprintf+0xe0>)
1000408c:	681c      	ldr	r4, [r3, #0]
1000408e:	2c00      	cmp	r4, #0
10004090:	d006      	beq.n	100040a0 <__wrap_vprintf+0x68>
10004092:	6863      	ldr	r3, [r4, #4]
10004094:	2b00      	cmp	r3, #0
10004096:	d00c      	beq.n	100040b2 <__wrap_vprintf+0x7a>
10004098:	4798      	blx	r3
1000409a:	68e4      	ldr	r4, [r4, #12]
1000409c:	2c00      	cmp	r4, #0
1000409e:	d1f8      	bne.n	10004092 <__wrap_vprintf+0x5a>
100040a0:	2e00      	cmp	r6, #0
100040a2:	d12f      	bne.n	10004104 <__wrap_vprintf+0xcc>
100040a4:	0038      	movs	r0, r7
100040a6:	b022      	add	sp, #136	; 0x88
100040a8:	bc1c      	pop	{r2, r3, r4}
100040aa:	4690      	mov	r8, r2
100040ac:	4699      	mov	r9, r3
100040ae:	46a2      	mov	sl, r4
100040b0:	bdf0      	pop	{r4, r5, r6, r7, pc}
100040b2:	68e4      	ldr	r4, [r4, #12]
100040b4:	e7eb      	b.n	1000408e <__wrap_vprintf+0x56>
100040b6:	4b18      	ldr	r3, [pc, #96]	; (10004118 <__wrap_vprintf+0xe0>)
100040b8:	681d      	ldr	r5, [r3, #0]
100040ba:	469a      	mov	sl, r3
100040bc:	2d00      	cmp	r5, #0
100040be:	d025      	beq.n	1000410c <__wrap_vprintf+0xd4>
100040c0:	4b16      	ldr	r3, [pc, #88]	; (1000411c <__wrap_vprintf+0xe4>)
100040c2:	4699      	mov	r9, r3
100040c4:	e002      	b.n	100040cc <__wrap_vprintf+0x94>
100040c6:	68ed      	ldr	r5, [r5, #12]
100040c8:	2d00      	cmp	r5, #0
100040ca:	d013      	beq.n	100040f4 <__wrap_vprintf+0xbc>
100040cc:	682c      	ldr	r4, [r5, #0]
100040ce:	2c00      	cmp	r4, #0
100040d0:	d0f9      	beq.n	100040c6 <__wrap_vprintf+0x8e>
100040d2:	464b      	mov	r3, r9
100040d4:	681b      	ldr	r3, [r3, #0]
100040d6:	2b00      	cmp	r3, #0
100040d8:	d001      	beq.n	100040de <__wrap_vprintf+0xa6>
100040da:	429d      	cmp	r5, r3
100040dc:	d1f3      	bne.n	100040c6 <__wrap_vprintf+0x8e>
100040de:	7c6b      	ldrb	r3, [r5, #17]
100040e0:	9a01      	ldr	r2, [sp, #4]
100040e2:	2b00      	cmp	r3, #0
100040e4:	d00a      	beq.n	100040fc <__wrap_vprintf+0xc4>
100040e6:	0028      	movs	r0, r5
100040e8:	a902      	add	r1, sp, #8
100040ea:	f7ff fe5d 	bl	10003da8 <stdio_out_chars_crlf.part.0>
100040ee:	68ed      	ldr	r5, [r5, #12]
100040f0:	2d00      	cmp	r5, #0
100040f2:	d1eb      	bne.n	100040cc <__wrap_vprintf+0x94>
100040f4:	4653      	mov	r3, sl
100040f6:	9501      	str	r5, [sp, #4]
100040f8:	681c      	ldr	r4, [r3, #0]
100040fa:	e7c8      	b.n	1000408e <__wrap_vprintf+0x56>
100040fc:	0011      	movs	r1, r2
100040fe:	a802      	add	r0, sp, #8
10004100:	47a0      	blx	r4
10004102:	e7e0      	b.n	100040c6 <__wrap_vprintf+0x8e>
10004104:	4640      	mov	r0, r8
10004106:	f000 fcff 	bl	10004b08 <__mutex_exit_veneer>
1000410a:	e7cb      	b.n	100040a4 <__wrap_vprintf+0x6c>
1000410c:	9501      	str	r5, [sp, #4]
1000410e:	e7c7      	b.n	100040a0 <__wrap_vprintf+0x68>
10004110:	20000b30 	.word	0x20000b30
10004114:	10003e2d 	.word	0x10003e2d
10004118:	20000bd8 	.word	0x20000bd8
1000411c:	20000bdc 	.word	0x20000bdc

10004120 <__wrap_printf>:
10004120:	b40f      	push	{r0, r1, r2, r3}
10004122:	b500      	push	{lr}
10004124:	b083      	sub	sp, #12
10004126:	a904      	add	r1, sp, #16
10004128:	c901      	ldmia	r1!, {r0}
1000412a:	9101      	str	r1, [sp, #4]
1000412c:	f7ff ff84 	bl	10004038 <__wrap_vprintf>
10004130:	b003      	add	sp, #12
10004132:	bc08      	pop	{r3}
10004134:	b004      	add	sp, #16
10004136:	4718      	bx	r3

10004138 <stdio_init_all>:
10004138:	b510      	push	{r4, lr}
1000413a:	f000 f83b 	bl	100041b4 <stdio_uart_init>
1000413e:	bd10      	pop	{r4, pc}

10004140 <stdio_uart_out_chars>:
10004140:	b5f0      	push	{r4, r5, r6, r7, lr}
10004142:	2900      	cmp	r1, #0
10004144:	d010      	beq.n	10004168 <stdio_uart_out_chars+0x28>
10004146:	1845      	adds	r5, r0, r1
10004148:	270d      	movs	r7, #13
1000414a:	2120      	movs	r1, #32
1000414c:	4b09      	ldr	r3, [pc, #36]	; (10004174 <stdio_uart_out_chars+0x34>)
1000414e:	4a0a      	ldr	r2, [pc, #40]	; (10004178 <stdio_uart_out_chars+0x38>)
10004150:	2600      	movs	r6, #0
10004152:	5f9e      	ldrsh	r6, [r3, r6]
10004154:	7804      	ldrb	r4, [r0, #0]
10004156:	42a6      	cmp	r6, r4
10004158:	d007      	beq.n	1000416a <stdio_uart_out_chars+0x2a>
1000415a:	6993      	ldr	r3, [r2, #24]
1000415c:	4219      	tst	r1, r3
1000415e:	d1fc      	bne.n	1000415a <stdio_uart_out_chars+0x1a>
10004160:	3001      	adds	r0, #1
10004162:	6014      	str	r4, [r2, #0]
10004164:	42a8      	cmp	r0, r5
10004166:	d1f5      	bne.n	10004154 <stdio_uart_out_chars+0x14>
10004168:	bdf0      	pop	{r4, r5, r6, r7, pc}
1000416a:	6993      	ldr	r3, [r2, #24]
1000416c:	4219      	tst	r1, r3
1000416e:	d1fc      	bne.n	1000416a <stdio_uart_out_chars+0x2a>
10004170:	6017      	str	r7, [r2, #0]
10004172:	e7f2      	b.n	1000415a <stdio_uart_out_chars+0x1a>
10004174:	20000c0c 	.word	0x20000c0c
10004178:	40034000 	.word	0x40034000

1000417c <stdio_uart_in_chars>:
1000417c:	b530      	push	{r4, r5, lr}
1000417e:	0005      	movs	r5, r0
10004180:	2000      	movs	r0, #0
10004182:	2900      	cmp	r1, #0
10004184:	dd10      	ble.n	100041a8 <stdio_uart_in_chars+0x2c>
10004186:	2410      	movs	r4, #16
10004188:	4a09      	ldr	r2, [pc, #36]	; (100041b0 <stdio_uart_in_chars+0x34>)
1000418a:	3d01      	subs	r5, #1
1000418c:	6993      	ldr	r3, [r2, #24]
1000418e:	421c      	tst	r4, r3
10004190:	d108      	bne.n	100041a4 <stdio_uart_in_chars+0x28>
10004192:	3001      	adds	r0, #1
10004194:	6993      	ldr	r3, [r2, #24]
10004196:	421c      	tst	r4, r3
10004198:	d1fc      	bne.n	10004194 <stdio_uart_in_chars+0x18>
1000419a:	6813      	ldr	r3, [r2, #0]
1000419c:	542b      	strb	r3, [r5, r0]
1000419e:	4281      	cmp	r1, r0
100041a0:	d1f4      	bne.n	1000418c <stdio_uart_in_chars+0x10>
100041a2:	bd30      	pop	{r4, r5, pc}
100041a4:	2800      	cmp	r0, #0
100041a6:	d1fc      	bne.n	100041a2 <stdio_uart_in_chars+0x26>
100041a8:	2003      	movs	r0, #3
100041aa:	4240      	negs	r0, r0
100041ac:	e7f9      	b.n	100041a2 <stdio_uart_in_chars+0x26>
100041ae:	46c0      	nop			; (mov r8, r8)
100041b0:	40034000 	.word	0x40034000

100041b4 <stdio_uart_init>:
100041b4:	21e1      	movs	r1, #225	; 0xe1
100041b6:	b510      	push	{r4, lr}
100041b8:	4b0a      	ldr	r3, [pc, #40]	; (100041e4 <stdio_uart_init+0x30>)
100041ba:	0249      	lsls	r1, r1, #9
100041bc:	781b      	ldrb	r3, [r3, #0]
100041be:	4b0a      	ldr	r3, [pc, #40]	; (100041e8 <stdio_uart_init+0x34>)
100041c0:	480a      	ldr	r0, [pc, #40]	; (100041ec <stdio_uart_init+0x38>)
100041c2:	781b      	ldrb	r3, [r3, #0]
100041c4:	f7fc f9a8 	bl	10000518 <uart_init>
100041c8:	2102      	movs	r1, #2
100041ca:	2000      	movs	r0, #0
100041cc:	f7fc f93a 	bl	10000444 <gpio_set_function>
100041d0:	2102      	movs	r1, #2
100041d2:	2001      	movs	r0, #1
100041d4:	f7fc f936 	bl	10000444 <gpio_set_function>
100041d8:	2101      	movs	r1, #1
100041da:	4805      	ldr	r0, [pc, #20]	; (100041f0 <stdio_uart_init+0x3c>)
100041dc:	f7ff ff0e 	bl	10003ffc <stdio_set_driver_enabled>
100041e0:	bd10      	pop	{r4, pc}
100041e2:	46c0      	nop			; (mov r8, r8)
100041e4:	100050c0 	.word	0x100050c0
100041e8:	100050c4 	.word	0x100050c4
100041ec:	40034000 	.word	0x40034000
100041f0:	200002e0 	.word	0x200002e0

100041f4 <calloc>:
100041f4:	0003      	movs	r3, r0
100041f6:	b510      	push	{r4, lr}
100041f8:	000a      	movs	r2, r1
100041fa:	4903      	ldr	r1, [pc, #12]	; (10004208 <calloc+0x14>)
100041fc:	6808      	ldr	r0, [r1, #0]
100041fe:	0019      	movs	r1, r3
10004200:	f000 f804 	bl	1000420c <_calloc_r>
10004204:	bd10      	pop	{r4, pc}
10004206:	46c0      	nop			; (mov r8, r8)
10004208:	200002f4 	.word	0x200002f4

1000420c <_calloc_r>:
1000420c:	b510      	push	{r4, lr}
1000420e:	4351      	muls	r1, r2
10004210:	f000 f834 	bl	1000427c <_malloc_r>
10004214:	1e04      	subs	r4, r0, #0
10004216:	d00e      	beq.n	10004236 <_calloc_r+0x2a>
10004218:	0003      	movs	r3, r0
1000421a:	3b08      	subs	r3, #8
1000421c:	685a      	ldr	r2, [r3, #4]
1000421e:	2303      	movs	r3, #3
10004220:	439a      	bics	r2, r3
10004222:	3a04      	subs	r2, #4
10004224:	2a24      	cmp	r2, #36	; 0x24
10004226:	d815      	bhi.n	10004254 <_calloc_r+0x48>
10004228:	0003      	movs	r3, r0
1000422a:	2a13      	cmp	r2, #19
1000422c:	d805      	bhi.n	1000423a <_calloc_r+0x2e>
1000422e:	2200      	movs	r2, #0
10004230:	601a      	str	r2, [r3, #0]
10004232:	605a      	str	r2, [r3, #4]
10004234:	609a      	str	r2, [r3, #8]
10004236:	0020      	movs	r0, r4
10004238:	bd10      	pop	{r4, pc}
1000423a:	2100      	movs	r1, #0
1000423c:	3308      	adds	r3, #8
1000423e:	6001      	str	r1, [r0, #0]
10004240:	6041      	str	r1, [r0, #4]
10004242:	2a1b      	cmp	r2, #27
10004244:	d9f3      	bls.n	1000422e <_calloc_r+0x22>
10004246:	6081      	str	r1, [r0, #8]
10004248:	60c1      	str	r1, [r0, #12]
1000424a:	2a24      	cmp	r2, #36	; 0x24
1000424c:	d006      	beq.n	1000425c <_calloc_r+0x50>
1000424e:	0003      	movs	r3, r0
10004250:	3310      	adds	r3, #16
10004252:	e7ec      	b.n	1000422e <_calloc_r+0x22>
10004254:	2100      	movs	r1, #0
10004256:	f7ff fd9b 	bl	10003d90 <__wrap_memset>
1000425a:	e7ec      	b.n	10004236 <_calloc_r+0x2a>
1000425c:	0003      	movs	r3, r0
1000425e:	6101      	str	r1, [r0, #16]
10004260:	3318      	adds	r3, #24
10004262:	6141      	str	r1, [r0, #20]
10004264:	e7e3      	b.n	1000422e <_calloc_r+0x22>
10004266:	46c0      	nop			; (mov r8, r8)

10004268 <malloc>:
10004268:	b510      	push	{r4, lr}
1000426a:	4b03      	ldr	r3, [pc, #12]	; (10004278 <malloc+0x10>)
1000426c:	0001      	movs	r1, r0
1000426e:	6818      	ldr	r0, [r3, #0]
10004270:	f000 f804 	bl	1000427c <_malloc_r>
10004274:	bd10      	pop	{r4, pc}
10004276:	46c0      	nop			; (mov r8, r8)
10004278:	200002f4 	.word	0x200002f4

1000427c <_malloc_r>:
1000427c:	b5f0      	push	{r4, r5, r6, r7, lr}
1000427e:	464e      	mov	r6, r9
10004280:	4645      	mov	r5, r8
10004282:	46de      	mov	lr, fp
10004284:	4657      	mov	r7, sl
10004286:	b5e0      	push	{r5, r6, r7, lr}
10004288:	000d      	movs	r5, r1
1000428a:	350b      	adds	r5, #11
1000428c:	0006      	movs	r6, r0
1000428e:	b083      	sub	sp, #12
10004290:	2d16      	cmp	r5, #22
10004292:	d822      	bhi.n	100042da <_malloc_r+0x5e>
10004294:	2910      	cmp	r1, #16
10004296:	d900      	bls.n	1000429a <_malloc_r+0x1e>
10004298:	e0b2      	b.n	10004400 <_malloc_r+0x184>
1000429a:	f000 faaf 	bl	100047fc <__malloc_lock>
1000429e:	2510      	movs	r5, #16
100042a0:	2002      	movs	r0, #2
100042a2:	2318      	movs	r3, #24
100042a4:	4fcb      	ldr	r7, [pc, #812]	; (100045d4 <_malloc_r+0x358>)
100042a6:	18fb      	adds	r3, r7, r3
100042a8:	001a      	movs	r2, r3
100042aa:	685c      	ldr	r4, [r3, #4]
100042ac:	3a08      	subs	r2, #8
100042ae:	4294      	cmp	r4, r2
100042b0:	d100      	bne.n	100042b4 <_malloc_r+0x38>
100042b2:	e0b5      	b.n	10004420 <_malloc_r+0x1a4>
100042b4:	2303      	movs	r3, #3
100042b6:	6862      	ldr	r2, [r4, #4]
100042b8:	439a      	bics	r2, r3
100042ba:	0013      	movs	r3, r2
100042bc:	68e2      	ldr	r2, [r4, #12]
100042be:	68a1      	ldr	r1, [r4, #8]
100042c0:	60ca      	str	r2, [r1, #12]
100042c2:	6091      	str	r1, [r2, #8]
100042c4:	2201      	movs	r2, #1
100042c6:	18e3      	adds	r3, r4, r3
100042c8:	6859      	ldr	r1, [r3, #4]
100042ca:	0030      	movs	r0, r6
100042cc:	430a      	orrs	r2, r1
100042ce:	605a      	str	r2, [r3, #4]
100042d0:	f000 fa9c 	bl	1000480c <__malloc_unlock>
100042d4:	0020      	movs	r0, r4
100042d6:	3008      	adds	r0, #8
100042d8:	e095      	b.n	10004406 <_malloc_r+0x18a>
100042da:	2307      	movs	r3, #7
100042dc:	439d      	bics	r5, r3
100042de:	d500      	bpl.n	100042e2 <_malloc_r+0x66>
100042e0:	e08e      	b.n	10004400 <_malloc_r+0x184>
100042e2:	42a9      	cmp	r1, r5
100042e4:	d900      	bls.n	100042e8 <_malloc_r+0x6c>
100042e6:	e08b      	b.n	10004400 <_malloc_r+0x184>
100042e8:	f000 fa88 	bl	100047fc <__malloc_lock>
100042ec:	23fc      	movs	r3, #252	; 0xfc
100042ee:	005b      	lsls	r3, r3, #1
100042f0:	429d      	cmp	r5, r3
100042f2:	d200      	bcs.n	100042f6 <_malloc_r+0x7a>
100042f4:	e1a5      	b.n	10004642 <_malloc_r+0x3c6>
100042f6:	0a68      	lsrs	r0, r5, #9
100042f8:	d100      	bne.n	100042fc <_malloc_r+0x80>
100042fa:	e08b      	b.n	10004414 <_malloc_r+0x198>
100042fc:	2804      	cmp	r0, #4
100042fe:	d900      	bls.n	10004302 <_malloc_r+0x86>
10004300:	e178      	b.n	100045f4 <_malloc_r+0x378>
10004302:	2338      	movs	r3, #56	; 0x38
10004304:	4698      	mov	r8, r3
10004306:	09a8      	lsrs	r0, r5, #6
10004308:	4480      	add	r8, r0
1000430a:	3039      	adds	r0, #57	; 0x39
1000430c:	00c1      	lsls	r1, r0, #3
1000430e:	4fb1      	ldr	r7, [pc, #708]	; (100045d4 <_malloc_r+0x358>)
10004310:	1879      	adds	r1, r7, r1
10004312:	684c      	ldr	r4, [r1, #4]
10004314:	3908      	subs	r1, #8
10004316:	42a1      	cmp	r1, r4
10004318:	d00e      	beq.n	10004338 <_malloc_r+0xbc>
1000431a:	2303      	movs	r3, #3
1000431c:	469c      	mov	ip, r3
1000431e:	e004      	b.n	1000432a <_malloc_r+0xae>
10004320:	2a00      	cmp	r2, #0
10004322:	dacb      	bge.n	100042bc <_malloc_r+0x40>
10004324:	68e4      	ldr	r4, [r4, #12]
10004326:	42a1      	cmp	r1, r4
10004328:	d006      	beq.n	10004338 <_malloc_r+0xbc>
1000432a:	4662      	mov	r2, ip
1000432c:	6863      	ldr	r3, [r4, #4]
1000432e:	4393      	bics	r3, r2
10004330:	1b5a      	subs	r2, r3, r5
10004332:	2a0f      	cmp	r2, #15
10004334:	ddf4      	ble.n	10004320 <_malloc_r+0xa4>
10004336:	4640      	mov	r0, r8
10004338:	003a      	movs	r2, r7
1000433a:	693c      	ldr	r4, [r7, #16]
1000433c:	3208      	adds	r2, #8
1000433e:	4294      	cmp	r4, r2
10004340:	d100      	bne.n	10004344 <_malloc_r+0xc8>
10004342:	e078      	b.n	10004436 <_malloc_r+0x1ba>
10004344:	2303      	movs	r3, #3
10004346:	6861      	ldr	r1, [r4, #4]
10004348:	4399      	bics	r1, r3
1000434a:	4689      	mov	r9, r1
1000434c:	000b      	movs	r3, r1
1000434e:	1b49      	subs	r1, r1, r5
10004350:	290f      	cmp	r1, #15
10004352:	dd00      	ble.n	10004356 <_malloc_r+0xda>
10004354:	e179      	b.n	1000464a <_malloc_r+0x3ce>
10004356:	617a      	str	r2, [r7, #20]
10004358:	613a      	str	r2, [r7, #16]
1000435a:	2900      	cmp	r1, #0
1000435c:	dab2      	bge.n	100042c4 <_malloc_r+0x48>
1000435e:	2280      	movs	r2, #128	; 0x80
10004360:	0092      	lsls	r2, r2, #2
10004362:	4591      	cmp	r9, r2
10004364:	d300      	bcc.n	10004368 <_malloc_r+0xec>
10004366:	e10e      	b.n	10004586 <_malloc_r+0x30a>
10004368:	0959      	lsrs	r1, r3, #5
1000436a:	08da      	lsrs	r2, r3, #3
1000436c:	2301      	movs	r3, #1
1000436e:	408b      	lsls	r3, r1
10004370:	00d2      	lsls	r2, r2, #3
10004372:	6879      	ldr	r1, [r7, #4]
10004374:	19d2      	adds	r2, r2, r7
10004376:	430b      	orrs	r3, r1
10004378:	6891      	ldr	r1, [r2, #8]
1000437a:	607b      	str	r3, [r7, #4]
1000437c:	60e2      	str	r2, [r4, #12]
1000437e:	60a1      	str	r1, [r4, #8]
10004380:	6094      	str	r4, [r2, #8]
10004382:	60cc      	str	r4, [r1, #12]
10004384:	2101      	movs	r1, #1
10004386:	1082      	asrs	r2, r0, #2
10004388:	4091      	lsls	r1, r2
1000438a:	4299      	cmp	r1, r3
1000438c:	d859      	bhi.n	10004442 <_malloc_r+0x1c6>
1000438e:	420b      	tst	r3, r1
10004390:	d105      	bne.n	1000439e <_malloc_r+0x122>
10004392:	2203      	movs	r2, #3
10004394:	4390      	bics	r0, r2
10004396:	0049      	lsls	r1, r1, #1
10004398:	3004      	adds	r0, #4
1000439a:	420b      	tst	r3, r1
1000439c:	d0fb      	beq.n	10004396 <_malloc_r+0x11a>
1000439e:	2303      	movs	r3, #3
100043a0:	4698      	mov	r8, r3
100043a2:	00c3      	lsls	r3, r0, #3
100043a4:	4699      	mov	r9, r3
100043a6:	44b9      	add	r9, r7
100043a8:	46cc      	mov	ip, r9
100043aa:	4682      	mov	sl, r0
100043ac:	4663      	mov	r3, ip
100043ae:	68dc      	ldr	r4, [r3, #12]
100043b0:	45a4      	cmp	ip, r4
100043b2:	d107      	bne.n	100043c4 <_malloc_r+0x148>
100043b4:	e12a      	b.n	1000460c <_malloc_r+0x390>
100043b6:	2a00      	cmp	r2, #0
100043b8:	db00      	blt.n	100043bc <_malloc_r+0x140>
100043ba:	e133      	b.n	10004624 <_malloc_r+0x3a8>
100043bc:	68e4      	ldr	r4, [r4, #12]
100043be:	45a4      	cmp	ip, r4
100043c0:	d100      	bne.n	100043c4 <_malloc_r+0x148>
100043c2:	e123      	b.n	1000460c <_malloc_r+0x390>
100043c4:	4642      	mov	r2, r8
100043c6:	6863      	ldr	r3, [r4, #4]
100043c8:	4393      	bics	r3, r2
100043ca:	1b5a      	subs	r2, r3, r5
100043cc:	2a0f      	cmp	r2, #15
100043ce:	ddf2      	ble.n	100043b6 <_malloc_r+0x13a>
100043d0:	2001      	movs	r0, #1
100043d2:	4680      	mov	r8, r0
100043d4:	1961      	adds	r1, r4, r5
100043d6:	4305      	orrs	r5, r0
100043d8:	6065      	str	r5, [r4, #4]
100043da:	68a0      	ldr	r0, [r4, #8]
100043dc:	68e5      	ldr	r5, [r4, #12]
100043de:	3708      	adds	r7, #8
100043e0:	60c5      	str	r5, [r0, #12]
100043e2:	60a8      	str	r0, [r5, #8]
100043e4:	4640      	mov	r0, r8
100043e6:	4310      	orrs	r0, r2
100043e8:	60f9      	str	r1, [r7, #12]
100043ea:	60b9      	str	r1, [r7, #8]
100043ec:	6048      	str	r0, [r1, #4]
100043ee:	60cf      	str	r7, [r1, #12]
100043f0:	0030      	movs	r0, r6
100043f2:	608f      	str	r7, [r1, #8]
100043f4:	50e2      	str	r2, [r4, r3]
100043f6:	f000 fa09 	bl	1000480c <__malloc_unlock>
100043fa:	0020      	movs	r0, r4
100043fc:	3008      	adds	r0, #8
100043fe:	e002      	b.n	10004406 <_malloc_r+0x18a>
10004400:	230c      	movs	r3, #12
10004402:	2000      	movs	r0, #0
10004404:	6033      	str	r3, [r6, #0]
10004406:	b003      	add	sp, #12
10004408:	bc3c      	pop	{r2, r3, r4, r5}
1000440a:	4690      	mov	r8, r2
1000440c:	4699      	mov	r9, r3
1000440e:	46a2      	mov	sl, r4
10004410:	46ab      	mov	fp, r5
10004412:	bdf0      	pop	{r4, r5, r6, r7, pc}
10004414:	2180      	movs	r1, #128	; 0x80
10004416:	233f      	movs	r3, #63	; 0x3f
10004418:	2040      	movs	r0, #64	; 0x40
1000441a:	4698      	mov	r8, r3
1000441c:	0089      	lsls	r1, r1, #2
1000441e:	e776      	b.n	1000430e <_malloc_r+0x92>
10004420:	68dc      	ldr	r4, [r3, #12]
10004422:	3002      	adds	r0, #2
10004424:	42a3      	cmp	r3, r4
10004426:	d000      	beq.n	1000442a <_malloc_r+0x1ae>
10004428:	e744      	b.n	100042b4 <_malloc_r+0x38>
1000442a:	003a      	movs	r2, r7
1000442c:	693c      	ldr	r4, [r7, #16]
1000442e:	3208      	adds	r2, #8
10004430:	4294      	cmp	r4, r2
10004432:	d000      	beq.n	10004436 <_malloc_r+0x1ba>
10004434:	e786      	b.n	10004344 <_malloc_r+0xc8>
10004436:	2101      	movs	r1, #1
10004438:	687b      	ldr	r3, [r7, #4]
1000443a:	1082      	asrs	r2, r0, #2
1000443c:	4091      	lsls	r1, r2
1000443e:	4299      	cmp	r1, r3
10004440:	d9a5      	bls.n	1000438e <_malloc_r+0x112>
10004442:	2303      	movs	r3, #3
10004444:	68bc      	ldr	r4, [r7, #8]
10004446:	6862      	ldr	r2, [r4, #4]
10004448:	439a      	bics	r2, r3
1000444a:	4691      	mov	r9, r2
1000444c:	4295      	cmp	r5, r2
1000444e:	d803      	bhi.n	10004458 <_malloc_r+0x1dc>
10004450:	1b53      	subs	r3, r2, r5
10004452:	2b0f      	cmp	r3, #15
10004454:	dd00      	ble.n	10004458 <_malloc_r+0x1dc>
10004456:	e088      	b.n	1000456a <_malloc_r+0x2ee>
10004458:	0023      	movs	r3, r4
1000445a:	444b      	add	r3, r9
1000445c:	4a5e      	ldr	r2, [pc, #376]	; (100045d8 <_malloc_r+0x35c>)
1000445e:	9301      	str	r3, [sp, #4]
10004460:	4b5e      	ldr	r3, [pc, #376]	; (100045dc <_malloc_r+0x360>)
10004462:	4693      	mov	fp, r2
10004464:	681b      	ldr	r3, [r3, #0]
10004466:	6812      	ldr	r2, [r2, #0]
10004468:	18eb      	adds	r3, r5, r3
1000446a:	3201      	adds	r2, #1
1000446c:	d100      	bne.n	10004470 <_malloc_r+0x1f4>
1000446e:	e13b      	b.n	100046e8 <_malloc_r+0x46c>
10004470:	4a5b      	ldr	r2, [pc, #364]	; (100045e0 <_malloc_r+0x364>)
10004472:	4694      	mov	ip, r2
10004474:	4463      	add	r3, ip
10004476:	0b1b      	lsrs	r3, r3, #12
10004478:	031b      	lsls	r3, r3, #12
1000447a:	9300      	str	r3, [sp, #0]
1000447c:	0030      	movs	r0, r6
1000447e:	9900      	ldr	r1, [sp, #0]
10004480:	f000 f9cc 	bl	1000481c <_sbrk_r>
10004484:	0003      	movs	r3, r0
10004486:	4680      	mov	r8, r0
10004488:	3301      	adds	r3, #1
1000448a:	d100      	bne.n	1000448e <_malloc_r+0x212>
1000448c:	e0f8      	b.n	10004680 <_malloc_r+0x404>
1000448e:	9b01      	ldr	r3, [sp, #4]
10004490:	4283      	cmp	r3, r0
10004492:	d900      	bls.n	10004496 <_malloc_r+0x21a>
10004494:	e0f2      	b.n	1000467c <_malloc_r+0x400>
10004496:	4b53      	ldr	r3, [pc, #332]	; (100045e4 <_malloc_r+0x368>)
10004498:	0019      	movs	r1, r3
1000449a:	469a      	mov	sl, r3
1000449c:	6809      	ldr	r1, [r1, #0]
1000449e:	9b00      	ldr	r3, [sp, #0]
100044a0:	468c      	mov	ip, r1
100044a2:	4651      	mov	r1, sl
100044a4:	4463      	add	r3, ip
100044a6:	600b      	str	r3, [r1, #0]
100044a8:	9901      	ldr	r1, [sp, #4]
100044aa:	001a      	movs	r2, r3
100044ac:	4281      	cmp	r1, r0
100044ae:	d100      	bne.n	100044b2 <_malloc_r+0x236>
100044b0:	e150      	b.n	10004754 <_malloc_r+0x4d8>
100044b2:	465b      	mov	r3, fp
100044b4:	681b      	ldr	r3, [r3, #0]
100044b6:	3301      	adds	r3, #1
100044b8:	d100      	bne.n	100044bc <_malloc_r+0x240>
100044ba:	e155      	b.n	10004768 <_malloc_r+0x4ec>
100044bc:	4643      	mov	r3, r8
100044be:	9901      	ldr	r1, [sp, #4]
100044c0:	1a5b      	subs	r3, r3, r1
100044c2:	189a      	adds	r2, r3, r2
100044c4:	4653      	mov	r3, sl
100044c6:	601a      	str	r2, [r3, #0]
100044c8:	2307      	movs	r3, #7
100044ca:	4642      	mov	r2, r8
100044cc:	4641      	mov	r1, r8
100044ce:	401a      	ands	r2, r3
100044d0:	9201      	str	r2, [sp, #4]
100044d2:	4219      	tst	r1, r3
100044d4:	d100      	bne.n	100044d8 <_malloc_r+0x25c>
100044d6:	e111      	b.n	100046fc <_malloc_r+0x480>
100044d8:	2308      	movs	r3, #8
100044da:	4698      	mov	r8, r3
100044dc:	1a88      	subs	r0, r1, r2
100044de:	4b42      	ldr	r3, [pc, #264]	; (100045e8 <_malloc_r+0x36c>)
100044e0:	9900      	ldr	r1, [sp, #0]
100044e2:	4480      	add	r8, r0
100044e4:	4441      	add	r1, r8
100044e6:	1a9b      	subs	r3, r3, r2
100044e8:	1a5b      	subs	r3, r3, r1
100044ea:	051b      	lsls	r3, r3, #20
100044ec:	0d1b      	lsrs	r3, r3, #20
100044ee:	9100      	str	r1, [sp, #0]
100044f0:	0030      	movs	r0, r6
100044f2:	0019      	movs	r1, r3
100044f4:	469b      	mov	fp, r3
100044f6:	f000 f991 	bl	1000481c <_sbrk_r>
100044fa:	1c43      	adds	r3, r0, #1
100044fc:	d100      	bne.n	10004500 <_malloc_r+0x284>
100044fe:	e14f      	b.n	100047a0 <_malloc_r+0x524>
10004500:	4643      	mov	r3, r8
10004502:	1ac0      	subs	r0, r0, r3
10004504:	0003      	movs	r3, r0
10004506:	445b      	add	r3, fp
10004508:	9300      	str	r3, [sp, #0]
1000450a:	4653      	mov	r3, sl
1000450c:	4652      	mov	r2, sl
1000450e:	681b      	ldr	r3, [r3, #0]
10004510:	2101      	movs	r1, #1
10004512:	445b      	add	r3, fp
10004514:	6013      	str	r3, [r2, #0]
10004516:	4642      	mov	r2, r8
10004518:	4640      	mov	r0, r8
1000451a:	60ba      	str	r2, [r7, #8]
1000451c:	9a00      	ldr	r2, [sp, #0]
1000451e:	430a      	orrs	r2, r1
10004520:	6042      	str	r2, [r0, #4]
10004522:	42bc      	cmp	r4, r7
10004524:	d100      	bne.n	10004528 <_malloc_r+0x2ac>
10004526:	e123      	b.n	10004770 <_malloc_r+0x4f4>
10004528:	464a      	mov	r2, r9
1000452a:	2a0f      	cmp	r2, #15
1000452c:	d800      	bhi.n	10004530 <_malloc_r+0x2b4>
1000452e:	e121      	b.n	10004774 <_malloc_r+0x4f8>
10004530:	2007      	movs	r0, #7
10004532:	3a0c      	subs	r2, #12
10004534:	4382      	bics	r2, r0
10004536:	6860      	ldr	r0, [r4, #4]
10004538:	4001      	ands	r1, r0
1000453a:	2005      	movs	r0, #5
1000453c:	4311      	orrs	r1, r2
1000453e:	6061      	str	r1, [r4, #4]
10004540:	18a1      	adds	r1, r4, r2
10004542:	6048      	str	r0, [r1, #4]
10004544:	6088      	str	r0, [r1, #8]
10004546:	2a0f      	cmp	r2, #15
10004548:	d900      	bls.n	1000454c <_malloc_r+0x2d0>
1000454a:	e134      	b.n	100047b6 <_malloc_r+0x53a>
1000454c:	4642      	mov	r2, r8
1000454e:	4644      	mov	r4, r8
10004550:	6852      	ldr	r2, [r2, #4]
10004552:	4926      	ldr	r1, [pc, #152]	; (100045ec <_malloc_r+0x370>)
10004554:	6808      	ldr	r0, [r1, #0]
10004556:	4298      	cmp	r0, r3
10004558:	d200      	bcs.n	1000455c <_malloc_r+0x2e0>
1000455a:	600b      	str	r3, [r1, #0]
1000455c:	4924      	ldr	r1, [pc, #144]	; (100045f0 <_malloc_r+0x374>)
1000455e:	6808      	ldr	r0, [r1, #0]
10004560:	4298      	cmp	r0, r3
10004562:	d300      	bcc.n	10004566 <_malloc_r+0x2ea>
10004564:	e08e      	b.n	10004684 <_malloc_r+0x408>
10004566:	600b      	str	r3, [r1, #0]
10004568:	e08c      	b.n	10004684 <_malloc_r+0x408>
1000456a:	2201      	movs	r2, #1
1000456c:	0029      	movs	r1, r5
1000456e:	4313      	orrs	r3, r2
10004570:	4311      	orrs	r1, r2
10004572:	1965      	adds	r5, r4, r5
10004574:	6061      	str	r1, [r4, #4]
10004576:	0030      	movs	r0, r6
10004578:	60bd      	str	r5, [r7, #8]
1000457a:	606b      	str	r3, [r5, #4]
1000457c:	f000 f946 	bl	1000480c <__malloc_unlock>
10004580:	0020      	movs	r0, r4
10004582:	3008      	adds	r0, #8
10004584:	e73f      	b.n	10004406 <_malloc_r+0x18a>
10004586:	0a5a      	lsrs	r2, r3, #9
10004588:	2a04      	cmp	r2, #4
1000458a:	d971      	bls.n	10004670 <_malloc_r+0x3f4>
1000458c:	2a14      	cmp	r2, #20
1000458e:	d900      	bls.n	10004592 <_malloc_r+0x316>
10004590:	e0c4      	b.n	1000471c <_malloc_r+0x4a0>
10004592:	0011      	movs	r1, r2
10004594:	325c      	adds	r2, #92	; 0x5c
10004596:	315b      	adds	r1, #91	; 0x5b
10004598:	00d2      	lsls	r2, r2, #3
1000459a:	2308      	movs	r3, #8
1000459c:	425b      	negs	r3, r3
1000459e:	469c      	mov	ip, r3
100045a0:	18ba      	adds	r2, r7, r2
100045a2:	4494      	add	ip, r2
100045a4:	4663      	mov	r3, ip
100045a6:	689a      	ldr	r2, [r3, #8]
100045a8:	2303      	movs	r3, #3
100045aa:	4698      	mov	r8, r3
100045ac:	4594      	cmp	ip, r2
100045ae:	d100      	bne.n	100045b2 <_malloc_r+0x336>
100045b0:	e09d      	b.n	100046ee <_malloc_r+0x472>
100045b2:	4643      	mov	r3, r8
100045b4:	6851      	ldr	r1, [r2, #4]
100045b6:	4399      	bics	r1, r3
100045b8:	4549      	cmp	r1, r9
100045ba:	d902      	bls.n	100045c2 <_malloc_r+0x346>
100045bc:	6892      	ldr	r2, [r2, #8]
100045be:	4594      	cmp	ip, r2
100045c0:	d1f7      	bne.n	100045b2 <_malloc_r+0x336>
100045c2:	68d3      	ldr	r3, [r2, #12]
100045c4:	469c      	mov	ip, r3
100045c6:	687b      	ldr	r3, [r7, #4]
100045c8:	4661      	mov	r1, ip
100045ca:	60a2      	str	r2, [r4, #8]
100045cc:	60e1      	str	r1, [r4, #12]
100045ce:	608c      	str	r4, [r1, #8]
100045d0:	60d4      	str	r4, [r2, #12]
100045d2:	e6d7      	b.n	10004384 <_malloc_r+0x108>
100045d4:	20000720 	.word	0x20000720
100045d8:	20000b28 	.word	0x20000b28
100045dc:	20000b98 	.word	0x20000b98
100045e0:	0000100f 	.word	0x0000100f
100045e4:	20000b68 	.word	0x20000b68
100045e8:	00001008 	.word	0x00001008
100045ec:	20000b90 	.word	0x20000b90
100045f0:	20000b94 	.word	0x20000b94
100045f4:	2814      	cmp	r0, #20
100045f6:	d952      	bls.n	1000469e <_malloc_r+0x422>
100045f8:	2854      	cmp	r0, #84	; 0x54
100045fa:	d900      	bls.n	100045fe <_malloc_r+0x382>
100045fc:	e096      	b.n	1000472c <_malloc_r+0x4b0>
100045fe:	236e      	movs	r3, #110	; 0x6e
10004600:	4698      	mov	r8, r3
10004602:	0b28      	lsrs	r0, r5, #12
10004604:	4480      	add	r8, r0
10004606:	306f      	adds	r0, #111	; 0x6f
10004608:	00c1      	lsls	r1, r0, #3
1000460a:	e680      	b.n	1000430e <_malloc_r+0x92>
1000460c:	2308      	movs	r3, #8
1000460e:	469b      	mov	fp, r3
10004610:	3b07      	subs	r3, #7
10004612:	44dc      	add	ip, fp
10004614:	469b      	mov	fp, r3
10004616:	44da      	add	sl, fp
10004618:	4643      	mov	r3, r8
1000461a:	4652      	mov	r2, sl
1000461c:	4213      	tst	r3, r2
1000461e:	d000      	beq.n	10004622 <_malloc_r+0x3a6>
10004620:	e6c4      	b.n	100043ac <_malloc_r+0x130>
10004622:	e04c      	b.n	100046be <_malloc_r+0x442>
10004624:	2201      	movs	r2, #1
10004626:	18e3      	adds	r3, r4, r3
10004628:	6859      	ldr	r1, [r3, #4]
1000462a:	0030      	movs	r0, r6
1000462c:	430a      	orrs	r2, r1
1000462e:	605a      	str	r2, [r3, #4]
10004630:	68e3      	ldr	r3, [r4, #12]
10004632:	68a2      	ldr	r2, [r4, #8]
10004634:	60d3      	str	r3, [r2, #12]
10004636:	609a      	str	r2, [r3, #8]
10004638:	f000 f8e8 	bl	1000480c <__malloc_unlock>
1000463c:	0020      	movs	r0, r4
1000463e:	3008      	adds	r0, #8
10004640:	e6e1      	b.n	10004406 <_malloc_r+0x18a>
10004642:	002b      	movs	r3, r5
10004644:	08e8      	lsrs	r0, r5, #3
10004646:	3308      	adds	r3, #8
10004648:	e62c      	b.n	100042a4 <_malloc_r+0x28>
1000464a:	2301      	movs	r3, #1
1000464c:	1960      	adds	r0, r4, r5
1000464e:	431d      	orrs	r5, r3
10004650:	6065      	str	r5, [r4, #4]
10004652:	6178      	str	r0, [r7, #20]
10004654:	6138      	str	r0, [r7, #16]
10004656:	60c2      	str	r2, [r0, #12]
10004658:	6082      	str	r2, [r0, #8]
1000465a:	001a      	movs	r2, r3
1000465c:	464b      	mov	r3, r9
1000465e:	430a      	orrs	r2, r1
10004660:	6042      	str	r2, [r0, #4]
10004662:	0030      	movs	r0, r6
10004664:	50e1      	str	r1, [r4, r3]
10004666:	f000 f8d1 	bl	1000480c <__malloc_unlock>
1000466a:	0020      	movs	r0, r4
1000466c:	3008      	adds	r0, #8
1000466e:	e6ca      	b.n	10004406 <_malloc_r+0x18a>
10004670:	099a      	lsrs	r2, r3, #6
10004672:	0011      	movs	r1, r2
10004674:	3239      	adds	r2, #57	; 0x39
10004676:	3138      	adds	r1, #56	; 0x38
10004678:	00d2      	lsls	r2, r2, #3
1000467a:	e78e      	b.n	1000459a <_malloc_r+0x31e>
1000467c:	42bc      	cmp	r4, r7
1000467e:	d060      	beq.n	10004742 <_malloc_r+0x4c6>
10004680:	68bc      	ldr	r4, [r7, #8]
10004682:	6862      	ldr	r2, [r4, #4]
10004684:	2303      	movs	r3, #3
10004686:	439a      	bics	r2, r3
10004688:	1b53      	subs	r3, r2, r5
1000468a:	4295      	cmp	r5, r2
1000468c:	d802      	bhi.n	10004694 <_malloc_r+0x418>
1000468e:	2b0f      	cmp	r3, #15
10004690:	dd00      	ble.n	10004694 <_malloc_r+0x418>
10004692:	e76a      	b.n	1000456a <_malloc_r+0x2ee>
10004694:	0030      	movs	r0, r6
10004696:	f000 f8b9 	bl	1000480c <__malloc_unlock>
1000469a:	2000      	movs	r0, #0
1000469c:	e6b3      	b.n	10004406 <_malloc_r+0x18a>
1000469e:	235b      	movs	r3, #91	; 0x5b
100046a0:	4698      	mov	r8, r3
100046a2:	4480      	add	r8, r0
100046a4:	305c      	adds	r0, #92	; 0x5c
100046a6:	00c1      	lsls	r1, r0, #3
100046a8:	e631      	b.n	1000430e <_malloc_r+0x92>
100046aa:	2308      	movs	r3, #8
100046ac:	425b      	negs	r3, r3
100046ae:	469c      	mov	ip, r3
100046b0:	44e1      	add	r9, ip
100046b2:	464b      	mov	r3, r9
100046b4:	689b      	ldr	r3, [r3, #8]
100046b6:	3801      	subs	r0, #1
100046b8:	454b      	cmp	r3, r9
100046ba:	d000      	beq.n	100046be <_malloc_r+0x442>
100046bc:	e098      	b.n	100047f0 <_malloc_r+0x574>
100046be:	4643      	mov	r3, r8
100046c0:	4203      	tst	r3, r0
100046c2:	d1f2      	bne.n	100046aa <_malloc_r+0x42e>
100046c4:	687b      	ldr	r3, [r7, #4]
100046c6:	438b      	bics	r3, r1
100046c8:	607b      	str	r3, [r7, #4]
100046ca:	0049      	lsls	r1, r1, #1
100046cc:	4299      	cmp	r1, r3
100046ce:	d900      	bls.n	100046d2 <_malloc_r+0x456>
100046d0:	e6b7      	b.n	10004442 <_malloc_r+0x1c6>
100046d2:	2900      	cmp	r1, #0
100046d4:	d104      	bne.n	100046e0 <_malloc_r+0x464>
100046d6:	e6b4      	b.n	10004442 <_malloc_r+0x1c6>
100046d8:	2204      	movs	r2, #4
100046da:	4694      	mov	ip, r2
100046dc:	0049      	lsls	r1, r1, #1
100046de:	44e2      	add	sl, ip
100046e0:	420b      	tst	r3, r1
100046e2:	d0f9      	beq.n	100046d8 <_malloc_r+0x45c>
100046e4:	4650      	mov	r0, sl
100046e6:	e65c      	b.n	100043a2 <_malloc_r+0x126>
100046e8:	3310      	adds	r3, #16
100046ea:	9300      	str	r3, [sp, #0]
100046ec:	e6c6      	b.n	1000447c <_malloc_r+0x200>
100046ee:	1089      	asrs	r1, r1, #2
100046f0:	3b02      	subs	r3, #2
100046f2:	408b      	lsls	r3, r1
100046f4:	6879      	ldr	r1, [r7, #4]
100046f6:	430b      	orrs	r3, r1
100046f8:	607b      	str	r3, [r7, #4]
100046fa:	e765      	b.n	100045c8 <_malloc_r+0x34c>
100046fc:	9b00      	ldr	r3, [sp, #0]
100046fe:	0030      	movs	r0, r6
10004700:	4443      	add	r3, r8
10004702:	425b      	negs	r3, r3
10004704:	051b      	lsls	r3, r3, #20
10004706:	0d1b      	lsrs	r3, r3, #20
10004708:	0019      	movs	r1, r3
1000470a:	469b      	mov	fp, r3
1000470c:	f000 f886 	bl	1000481c <_sbrk_r>
10004710:	1c43      	adds	r3, r0, #1
10004712:	d000      	beq.n	10004716 <_malloc_r+0x49a>
10004714:	e6f4      	b.n	10004500 <_malloc_r+0x284>
10004716:	2300      	movs	r3, #0
10004718:	469b      	mov	fp, r3
1000471a:	e6f6      	b.n	1000450a <_malloc_r+0x28e>
1000471c:	2a54      	cmp	r2, #84	; 0x54
1000471e:	d82b      	bhi.n	10004778 <_malloc_r+0x4fc>
10004720:	0b1a      	lsrs	r2, r3, #12
10004722:	0011      	movs	r1, r2
10004724:	326f      	adds	r2, #111	; 0x6f
10004726:	316e      	adds	r1, #110	; 0x6e
10004728:	00d2      	lsls	r2, r2, #3
1000472a:	e736      	b.n	1000459a <_malloc_r+0x31e>
1000472c:	23aa      	movs	r3, #170	; 0xaa
1000472e:	005b      	lsls	r3, r3, #1
10004730:	4298      	cmp	r0, r3
10004732:	d82b      	bhi.n	1000478c <_malloc_r+0x510>
10004734:	3bdd      	subs	r3, #221	; 0xdd
10004736:	4698      	mov	r8, r3
10004738:	0be8      	lsrs	r0, r5, #15
1000473a:	4480      	add	r8, r0
1000473c:	3078      	adds	r0, #120	; 0x78
1000473e:	00c1      	lsls	r1, r0, #3
10004740:	e5e5      	b.n	1000430e <_malloc_r+0x92>
10004742:	4b2c      	ldr	r3, [pc, #176]	; (100047f4 <_malloc_r+0x578>)
10004744:	9a00      	ldr	r2, [sp, #0]
10004746:	469a      	mov	sl, r3
10004748:	681b      	ldr	r3, [r3, #0]
1000474a:	469c      	mov	ip, r3
1000474c:	4653      	mov	r3, sl
1000474e:	4462      	add	r2, ip
10004750:	601a      	str	r2, [r3, #0]
10004752:	e6ae      	b.n	100044b2 <_malloc_r+0x236>
10004754:	0509      	lsls	r1, r1, #20
10004756:	d000      	beq.n	1000475a <_malloc_r+0x4de>
10004758:	e6ab      	b.n	100044b2 <_malloc_r+0x236>
1000475a:	9a00      	ldr	r2, [sp, #0]
1000475c:	68bc      	ldr	r4, [r7, #8]
1000475e:	444a      	add	r2, r9
10004760:	3101      	adds	r1, #1
10004762:	430a      	orrs	r2, r1
10004764:	6062      	str	r2, [r4, #4]
10004766:	e6f4      	b.n	10004552 <_malloc_r+0x2d6>
10004768:	465b      	mov	r3, fp
1000476a:	4642      	mov	r2, r8
1000476c:	601a      	str	r2, [r3, #0]
1000476e:	e6ab      	b.n	100044c8 <_malloc_r+0x24c>
10004770:	4644      	mov	r4, r8
10004772:	e6ee      	b.n	10004552 <_malloc_r+0x2d6>
10004774:	6041      	str	r1, [r0, #4]
10004776:	e78d      	b.n	10004694 <_malloc_r+0x418>
10004778:	21aa      	movs	r1, #170	; 0xaa
1000477a:	0049      	lsls	r1, r1, #1
1000477c:	428a      	cmp	r2, r1
1000477e:	d824      	bhi.n	100047ca <_malloc_r+0x54e>
10004780:	0bda      	lsrs	r2, r3, #15
10004782:	0011      	movs	r1, r2
10004784:	3278      	adds	r2, #120	; 0x78
10004786:	3177      	adds	r1, #119	; 0x77
10004788:	00d2      	lsls	r2, r2, #3
1000478a:	e706      	b.n	1000459a <_malloc_r+0x31e>
1000478c:	4b1a      	ldr	r3, [pc, #104]	; (100047f8 <_malloc_r+0x57c>)
1000478e:	4298      	cmp	r0, r3
10004790:	d824      	bhi.n	100047dc <_malloc_r+0x560>
10004792:	237c      	movs	r3, #124	; 0x7c
10004794:	4698      	mov	r8, r3
10004796:	0ca8      	lsrs	r0, r5, #18
10004798:	4480      	add	r8, r0
1000479a:	307d      	adds	r0, #125	; 0x7d
1000479c:	00c1      	lsls	r1, r0, #3
1000479e:	e5b6      	b.n	1000430e <_malloc_r+0x92>
100047a0:	9a00      	ldr	r2, [sp, #0]
100047a2:	9b01      	ldr	r3, [sp, #4]
100047a4:	4694      	mov	ip, r2
100047a6:	4642      	mov	r2, r8
100047a8:	3b08      	subs	r3, #8
100047aa:	4463      	add	r3, ip
100047ac:	1a9b      	subs	r3, r3, r2
100047ae:	9300      	str	r3, [sp, #0]
100047b0:	2300      	movs	r3, #0
100047b2:	469b      	mov	fp, r3
100047b4:	e6a9      	b.n	1000450a <_malloc_r+0x28e>
100047b6:	0021      	movs	r1, r4
100047b8:	0030      	movs	r0, r6
100047ba:	3108      	adds	r1, #8
100047bc:	f000 f8bc 	bl	10004938 <_free_r>
100047c0:	4653      	mov	r3, sl
100047c2:	68bc      	ldr	r4, [r7, #8]
100047c4:	681b      	ldr	r3, [r3, #0]
100047c6:	6862      	ldr	r2, [r4, #4]
100047c8:	e6c3      	b.n	10004552 <_malloc_r+0x2d6>
100047ca:	490b      	ldr	r1, [pc, #44]	; (100047f8 <_malloc_r+0x57c>)
100047cc:	428a      	cmp	r2, r1
100047ce:	d80b      	bhi.n	100047e8 <_malloc_r+0x56c>
100047d0:	0c9a      	lsrs	r2, r3, #18
100047d2:	0011      	movs	r1, r2
100047d4:	327d      	adds	r2, #125	; 0x7d
100047d6:	317c      	adds	r1, #124	; 0x7c
100047d8:	00d2      	lsls	r2, r2, #3
100047da:	e6de      	b.n	1000459a <_malloc_r+0x31e>
100047dc:	21fe      	movs	r1, #254	; 0xfe
100047de:	237e      	movs	r3, #126	; 0x7e
100047e0:	207f      	movs	r0, #127	; 0x7f
100047e2:	4698      	mov	r8, r3
100047e4:	0089      	lsls	r1, r1, #2
100047e6:	e592      	b.n	1000430e <_malloc_r+0x92>
100047e8:	22fe      	movs	r2, #254	; 0xfe
100047ea:	217e      	movs	r1, #126	; 0x7e
100047ec:	0092      	lsls	r2, r2, #2
100047ee:	e6d4      	b.n	1000459a <_malloc_r+0x31e>
100047f0:	687b      	ldr	r3, [r7, #4]
100047f2:	e76a      	b.n	100046ca <_malloc_r+0x44e>
100047f4:	20000b68 	.word	0x20000b68
100047f8:	00000554 	.word	0x00000554

100047fc <__malloc_lock>:
100047fc:	b510      	push	{r4, lr}
100047fe:	4802      	ldr	r0, [pc, #8]	; (10004808 <__malloc_lock+0xc>)
10004800:	f000 f97c 	bl	10004afc <__retarget_lock_acquire_recursive>
10004804:	bd10      	pop	{r4, pc}
10004806:	46c0      	nop			; (mov r8, r8)
10004808:	20000e24 	.word	0x20000e24

1000480c <__malloc_unlock>:
1000480c:	b510      	push	{r4, lr}
1000480e:	4802      	ldr	r0, [pc, #8]	; (10004818 <__malloc_unlock+0xc>)
10004810:	f000 f976 	bl	10004b00 <__retarget_lock_release_recursive>
10004814:	bd10      	pop	{r4, pc}
10004816:	46c0      	nop			; (mov r8, r8)
10004818:	20000e24 	.word	0x20000e24

1000481c <_sbrk_r>:
1000481c:	2300      	movs	r3, #0
1000481e:	b570      	push	{r4, r5, r6, lr}
10004820:	4d06      	ldr	r5, [pc, #24]	; (1000483c <_sbrk_r+0x20>)
10004822:	0004      	movs	r4, r0
10004824:	0008      	movs	r0, r1
10004826:	602b      	str	r3, [r5, #0]
10004828:	f7fc fc88 	bl	1000113c <_sbrk>
1000482c:	1c43      	adds	r3, r0, #1
1000482e:	d000      	beq.n	10004832 <_sbrk_r+0x16>
10004830:	bd70      	pop	{r4, r5, r6, pc}
10004832:	682b      	ldr	r3, [r5, #0]
10004834:	2b00      	cmp	r3, #0
10004836:	d0fb      	beq.n	10004830 <_sbrk_r+0x14>
10004838:	6023      	str	r3, [r4, #0]
1000483a:	e7f9      	b.n	10004830 <_sbrk_r+0x14>
1000483c:	20000e38 	.word	0x20000e38

10004840 <strlen>:
10004840:	b510      	push	{r4, lr}
10004842:	0783      	lsls	r3, r0, #30
10004844:	d00a      	beq.n	1000485c <strlen+0x1c>
10004846:	0003      	movs	r3, r0
10004848:	2103      	movs	r1, #3
1000484a:	e002      	b.n	10004852 <strlen+0x12>
1000484c:	3301      	adds	r3, #1
1000484e:	420b      	tst	r3, r1
10004850:	d005      	beq.n	1000485e <strlen+0x1e>
10004852:	781a      	ldrb	r2, [r3, #0]
10004854:	2a00      	cmp	r2, #0
10004856:	d1f9      	bne.n	1000484c <strlen+0xc>
10004858:	1a18      	subs	r0, r3, r0
1000485a:	bd10      	pop	{r4, pc}
1000485c:	0003      	movs	r3, r0
1000485e:	6819      	ldr	r1, [r3, #0]
10004860:	4a0c      	ldr	r2, [pc, #48]	; (10004894 <strlen+0x54>)
10004862:	4c0d      	ldr	r4, [pc, #52]	; (10004898 <strlen+0x58>)
10004864:	188a      	adds	r2, r1, r2
10004866:	438a      	bics	r2, r1
10004868:	4222      	tst	r2, r4
1000486a:	d10f      	bne.n	1000488c <strlen+0x4c>
1000486c:	6859      	ldr	r1, [r3, #4]
1000486e:	4a09      	ldr	r2, [pc, #36]	; (10004894 <strlen+0x54>)
10004870:	3304      	adds	r3, #4
10004872:	188a      	adds	r2, r1, r2
10004874:	438a      	bics	r2, r1
10004876:	4222      	tst	r2, r4
10004878:	d108      	bne.n	1000488c <strlen+0x4c>
1000487a:	6859      	ldr	r1, [r3, #4]
1000487c:	4a05      	ldr	r2, [pc, #20]	; (10004894 <strlen+0x54>)
1000487e:	3304      	adds	r3, #4
10004880:	188a      	adds	r2, r1, r2
10004882:	438a      	bics	r2, r1
10004884:	4222      	tst	r2, r4
10004886:	d0f1      	beq.n	1000486c <strlen+0x2c>
10004888:	e000      	b.n	1000488c <strlen+0x4c>
1000488a:	3301      	adds	r3, #1
1000488c:	781a      	ldrb	r2, [r3, #0]
1000488e:	2a00      	cmp	r2, #0
10004890:	d1fb      	bne.n	1000488a <strlen+0x4a>
10004892:	e7e1      	b.n	10004858 <strlen+0x18>
10004894:	fefefeff 	.word	0xfefefeff
10004898:	80808080 	.word	0x80808080

1000489c <_malloc_trim_r>:
1000489c:	b5f8      	push	{r3, r4, r5, r6, r7, lr}
1000489e:	000c      	movs	r4, r1
100048a0:	0005      	movs	r5, r0
100048a2:	f7ff ffab 	bl	100047fc <__malloc_lock>
100048a6:	4f20      	ldr	r7, [pc, #128]	; (10004928 <_malloc_trim_r+0x8c>)
100048a8:	68bb      	ldr	r3, [r7, #8]
100048aa:	685e      	ldr	r6, [r3, #4]
100048ac:	2303      	movs	r3, #3
100048ae:	439e      	bics	r6, r3
100048b0:	4b1e      	ldr	r3, [pc, #120]	; (1000492c <_malloc_trim_r+0x90>)
100048b2:	1b34      	subs	r4, r6, r4
100048b4:	469c      	mov	ip, r3
100048b6:	4464      	add	r4, ip
100048b8:	0b24      	lsrs	r4, r4, #12
100048ba:	3c01      	subs	r4, #1
100048bc:	3311      	adds	r3, #17
100048be:	0324      	lsls	r4, r4, #12
100048c0:	429c      	cmp	r4, r3
100048c2:	db07      	blt.n	100048d4 <_malloc_trim_r+0x38>
100048c4:	2100      	movs	r1, #0
100048c6:	0028      	movs	r0, r5
100048c8:	f7ff ffa8 	bl	1000481c <_sbrk_r>
100048cc:	68bb      	ldr	r3, [r7, #8]
100048ce:	199b      	adds	r3, r3, r6
100048d0:	4298      	cmp	r0, r3
100048d2:	d004      	beq.n	100048de <_malloc_trim_r+0x42>
100048d4:	0028      	movs	r0, r5
100048d6:	f7ff ff99 	bl	1000480c <__malloc_unlock>
100048da:	2000      	movs	r0, #0
100048dc:	bdf8      	pop	{r3, r4, r5, r6, r7, pc}
100048de:	0028      	movs	r0, r5
100048e0:	4261      	negs	r1, r4
100048e2:	f7ff ff9b 	bl	1000481c <_sbrk_r>
100048e6:	1c43      	adds	r3, r0, #1
100048e8:	d00d      	beq.n	10004906 <_malloc_trim_r+0x6a>
100048ea:	2201      	movs	r2, #1
100048ec:	68bb      	ldr	r3, [r7, #8]
100048ee:	1b36      	subs	r6, r6, r4
100048f0:	4316      	orrs	r6, r2
100048f2:	605e      	str	r6, [r3, #4]
100048f4:	4b0e      	ldr	r3, [pc, #56]	; (10004930 <_malloc_trim_r+0x94>)
100048f6:	0028      	movs	r0, r5
100048f8:	681a      	ldr	r2, [r3, #0]
100048fa:	1b14      	subs	r4, r2, r4
100048fc:	601c      	str	r4, [r3, #0]
100048fe:	f7ff ff85 	bl	1000480c <__malloc_unlock>
10004902:	2001      	movs	r0, #1
10004904:	e7ea      	b.n	100048dc <_malloc_trim_r+0x40>
10004906:	2100      	movs	r1, #0
10004908:	0028      	movs	r0, r5
1000490a:	f7ff ff87 	bl	1000481c <_sbrk_r>
1000490e:	68ba      	ldr	r2, [r7, #8]
10004910:	1a83      	subs	r3, r0, r2
10004912:	2b0f      	cmp	r3, #15
10004914:	ddde      	ble.n	100048d4 <_malloc_trim_r+0x38>
10004916:	4907      	ldr	r1, [pc, #28]	; (10004934 <_malloc_trim_r+0x98>)
10004918:	6809      	ldr	r1, [r1, #0]
1000491a:	1a40      	subs	r0, r0, r1
1000491c:	4904      	ldr	r1, [pc, #16]	; (10004930 <_malloc_trim_r+0x94>)
1000491e:	6008      	str	r0, [r1, #0]
10004920:	2101      	movs	r1, #1
10004922:	430b      	orrs	r3, r1
10004924:	6053      	str	r3, [r2, #4]
10004926:	e7d5      	b.n	100048d4 <_malloc_trim_r+0x38>
10004928:	20000720 	.word	0x20000720
1000492c:	00000fef 	.word	0x00000fef
10004930:	20000b68 	.word	0x20000b68
10004934:	20000b28 	.word	0x20000b28

10004938 <_free_r>:
10004938:	b5f0      	push	{r4, r5, r6, r7, lr}
1000493a:	46c6      	mov	lr, r8
1000493c:	0005      	movs	r5, r0
1000493e:	000c      	movs	r4, r1
10004940:	b500      	push	{lr}
10004942:	2900      	cmp	r1, #0
10004944:	d04f      	beq.n	100049e6 <_free_r+0xae>
10004946:	f7ff ff59 	bl	100047fc <__malloc_lock>
1000494a:	0021      	movs	r1, r4
1000494c:	3908      	subs	r1, #8
1000494e:	684c      	ldr	r4, [r1, #4]
10004950:	2601      	movs	r6, #1
10004952:	0022      	movs	r2, r4
10004954:	2003      	movs	r0, #3
10004956:	43b2      	bics	r2, r6
10004958:	188f      	adds	r7, r1, r2
1000495a:	687b      	ldr	r3, [r7, #4]
1000495c:	4383      	bics	r3, r0
1000495e:	4862      	ldr	r0, [pc, #392]	; (10004ae8 <_free_r+0x1b0>)
10004960:	4698      	mov	r8, r3
10004962:	6883      	ldr	r3, [r0, #8]
10004964:	42bb      	cmp	r3, r7
10004966:	d06b      	beq.n	10004a40 <_free_r+0x108>
10004968:	4643      	mov	r3, r8
1000496a:	607b      	str	r3, [r7, #4]
1000496c:	4226      	tst	r6, r4
1000496e:	d11e      	bne.n	100049ae <_free_r+0x76>
10004970:	2308      	movs	r3, #8
10004972:	469c      	mov	ip, r3
10004974:	680c      	ldr	r4, [r1, #0]
10004976:	4484      	add	ip, r0
10004978:	1b09      	subs	r1, r1, r4
1000497a:	1912      	adds	r2, r2, r4
1000497c:	688c      	ldr	r4, [r1, #8]
1000497e:	4564      	cmp	r4, ip
10004980:	d04f      	beq.n	10004a22 <_free_r+0xea>
10004982:	68cb      	ldr	r3, [r1, #12]
10004984:	60e3      	str	r3, [r4, #12]
10004986:	609c      	str	r4, [r3, #8]
10004988:	4643      	mov	r3, r8
1000498a:	18fc      	adds	r4, r7, r3
1000498c:	6864      	ldr	r4, [r4, #4]
1000498e:	4234      	tst	r4, r6
10004990:	d111      	bne.n	100049b6 <_free_r+0x7e>
10004992:	68bb      	ldr	r3, [r7, #8]
10004994:	4c55      	ldr	r4, [pc, #340]	; (10004aec <_free_r+0x1b4>)
10004996:	4442      	add	r2, r8
10004998:	42a3      	cmp	r3, r4
1000499a:	d100      	bne.n	1000499e <_free_r+0x66>
1000499c:	e07f      	b.n	10004a9e <_free_r+0x166>
1000499e:	68fc      	ldr	r4, [r7, #12]
100049a0:	60dc      	str	r4, [r3, #12]
100049a2:	60a3      	str	r3, [r4, #8]
100049a4:	2301      	movs	r3, #1
100049a6:	4313      	orrs	r3, r2
100049a8:	604b      	str	r3, [r1, #4]
100049aa:	508a      	str	r2, [r1, r2]
100049ac:	e006      	b.n	100049bc <_free_r+0x84>
100049ae:	18fc      	adds	r4, r7, r3
100049b0:	6864      	ldr	r4, [r4, #4]
100049b2:	4234      	tst	r4, r6
100049b4:	d0ed      	beq.n	10004992 <_free_r+0x5a>
100049b6:	4316      	orrs	r6, r2
100049b8:	604e      	str	r6, [r1, #4]
100049ba:	603a      	str	r2, [r7, #0]
100049bc:	2380      	movs	r3, #128	; 0x80
100049be:	009b      	lsls	r3, r3, #2
100049c0:	429a      	cmp	r2, r3
100049c2:	d213      	bcs.n	100049ec <_free_r+0xb4>
100049c4:	0954      	lsrs	r4, r2, #5
100049c6:	08d3      	lsrs	r3, r2, #3
100049c8:	2201      	movs	r2, #1
100049ca:	40a2      	lsls	r2, r4
100049cc:	6844      	ldr	r4, [r0, #4]
100049ce:	00db      	lsls	r3, r3, #3
100049d0:	4322      	orrs	r2, r4
100049d2:	6042      	str	r2, [r0, #4]
100049d4:	1818      	adds	r0, r3, r0
100049d6:	6883      	ldr	r3, [r0, #8]
100049d8:	60c8      	str	r0, [r1, #12]
100049da:	608b      	str	r3, [r1, #8]
100049dc:	6081      	str	r1, [r0, #8]
100049de:	60d9      	str	r1, [r3, #12]
100049e0:	0028      	movs	r0, r5
100049e2:	f7ff ff13 	bl	1000480c <__malloc_unlock>
100049e6:	bc04      	pop	{r2}
100049e8:	4690      	mov	r8, r2
100049ea:	bdf0      	pop	{r4, r5, r6, r7, pc}
100049ec:	0a53      	lsrs	r3, r2, #9
100049ee:	2b04      	cmp	r3, #4
100049f0:	d83f      	bhi.n	10004a72 <_free_r+0x13a>
100049f2:	0994      	lsrs	r4, r2, #6
100049f4:	0026      	movs	r6, r4
100049f6:	3439      	adds	r4, #57	; 0x39
100049f8:	3638      	adds	r6, #56	; 0x38
100049fa:	00e4      	lsls	r4, r4, #3
100049fc:	1904      	adds	r4, r0, r4
100049fe:	6823      	ldr	r3, [r4, #0]
10004a00:	3c08      	subs	r4, #8
10004a02:	2703      	movs	r7, #3
10004a04:	429c      	cmp	r4, r3
10004a06:	d043      	beq.n	10004a90 <_free_r+0x158>
10004a08:	6858      	ldr	r0, [r3, #4]
10004a0a:	43b8      	bics	r0, r7
10004a0c:	4290      	cmp	r0, r2
10004a0e:	d902      	bls.n	10004a16 <_free_r+0xde>
10004a10:	689b      	ldr	r3, [r3, #8]
10004a12:	429c      	cmp	r4, r3
10004a14:	d1f8      	bne.n	10004a08 <_free_r+0xd0>
10004a16:	68dc      	ldr	r4, [r3, #12]
10004a18:	60cc      	str	r4, [r1, #12]
10004a1a:	608b      	str	r3, [r1, #8]
10004a1c:	60a1      	str	r1, [r4, #8]
10004a1e:	60d9      	str	r1, [r3, #12]
10004a20:	e7de      	b.n	100049e0 <_free_r+0xa8>
10004a22:	4643      	mov	r3, r8
10004a24:	18f8      	adds	r0, r7, r3
10004a26:	6840      	ldr	r0, [r0, #4]
10004a28:	4230      	tst	r0, r6
10004a2a:	d158      	bne.n	10004ade <_free_r+0x1a6>
10004a2c:	0013      	movs	r3, r2
10004a2e:	68b8      	ldr	r0, [r7, #8]
10004a30:	68fa      	ldr	r2, [r7, #12]
10004a32:	4443      	add	r3, r8
10004a34:	431e      	orrs	r6, r3
10004a36:	60c2      	str	r2, [r0, #12]
10004a38:	6090      	str	r0, [r2, #8]
10004a3a:	604e      	str	r6, [r1, #4]
10004a3c:	50cb      	str	r3, [r1, r3]
10004a3e:	e7cf      	b.n	100049e0 <_free_r+0xa8>
10004a40:	0013      	movs	r3, r2
10004a42:	4443      	add	r3, r8
10004a44:	4226      	tst	r6, r4
10004a46:	d106      	bne.n	10004a56 <_free_r+0x11e>
10004a48:	680a      	ldr	r2, [r1, #0]
10004a4a:	1a89      	subs	r1, r1, r2
10004a4c:	688c      	ldr	r4, [r1, #8]
10004a4e:	189b      	adds	r3, r3, r2
10004a50:	68ca      	ldr	r2, [r1, #12]
10004a52:	60e2      	str	r2, [r4, #12]
10004a54:	6094      	str	r4, [r2, #8]
10004a56:	2201      	movs	r2, #1
10004a58:	431a      	orrs	r2, r3
10004a5a:	604a      	str	r2, [r1, #4]
10004a5c:	4a24      	ldr	r2, [pc, #144]	; (10004af0 <_free_r+0x1b8>)
10004a5e:	6081      	str	r1, [r0, #8]
10004a60:	6812      	ldr	r2, [r2, #0]
10004a62:	429a      	cmp	r2, r3
10004a64:	d8bc      	bhi.n	100049e0 <_free_r+0xa8>
10004a66:	4b23      	ldr	r3, [pc, #140]	; (10004af4 <_free_r+0x1bc>)
10004a68:	0028      	movs	r0, r5
10004a6a:	6819      	ldr	r1, [r3, #0]
10004a6c:	f7ff ff16 	bl	1000489c <_malloc_trim_r>
10004a70:	e7b6      	b.n	100049e0 <_free_r+0xa8>
10004a72:	2b14      	cmp	r3, #20
10004a74:	d907      	bls.n	10004a86 <_free_r+0x14e>
10004a76:	2b54      	cmp	r3, #84	; 0x54
10004a78:	d81a      	bhi.n	10004ab0 <_free_r+0x178>
10004a7a:	0b14      	lsrs	r4, r2, #12
10004a7c:	0026      	movs	r6, r4
10004a7e:	346f      	adds	r4, #111	; 0x6f
10004a80:	366e      	adds	r6, #110	; 0x6e
10004a82:	00e4      	lsls	r4, r4, #3
10004a84:	e7ba      	b.n	100049fc <_free_r+0xc4>
10004a86:	001e      	movs	r6, r3
10004a88:	335c      	adds	r3, #92	; 0x5c
10004a8a:	365b      	adds	r6, #91	; 0x5b
10004a8c:	00dc      	lsls	r4, r3, #3
10004a8e:	e7b5      	b.n	100049fc <_free_r+0xc4>
10004a90:	2201      	movs	r2, #1
10004a92:	10b6      	asrs	r6, r6, #2
10004a94:	40b2      	lsls	r2, r6
10004a96:	6846      	ldr	r6, [r0, #4]
10004a98:	4332      	orrs	r2, r6
10004a9a:	6042      	str	r2, [r0, #4]
10004a9c:	e7bc      	b.n	10004a18 <_free_r+0xe0>
10004a9e:	60d9      	str	r1, [r3, #12]
10004aa0:	6099      	str	r1, [r3, #8]
10004aa2:	60cb      	str	r3, [r1, #12]
10004aa4:	608b      	str	r3, [r1, #8]
10004aa6:	2301      	movs	r3, #1
10004aa8:	4313      	orrs	r3, r2
10004aaa:	604b      	str	r3, [r1, #4]
10004aac:	508a      	str	r2, [r1, r2]
10004aae:	e797      	b.n	100049e0 <_free_r+0xa8>
10004ab0:	24aa      	movs	r4, #170	; 0xaa
10004ab2:	0064      	lsls	r4, r4, #1
10004ab4:	42a3      	cmp	r3, r4
10004ab6:	d805      	bhi.n	10004ac4 <_free_r+0x18c>
10004ab8:	0bd4      	lsrs	r4, r2, #15
10004aba:	0026      	movs	r6, r4
10004abc:	3478      	adds	r4, #120	; 0x78
10004abe:	3677      	adds	r6, #119	; 0x77
10004ac0:	00e4      	lsls	r4, r4, #3
10004ac2:	e79b      	b.n	100049fc <_free_r+0xc4>
10004ac4:	4c0c      	ldr	r4, [pc, #48]	; (10004af8 <_free_r+0x1c0>)
10004ac6:	42a3      	cmp	r3, r4
10004ac8:	d805      	bhi.n	10004ad6 <_free_r+0x19e>
10004aca:	0c94      	lsrs	r4, r2, #18
10004acc:	0026      	movs	r6, r4
10004ace:	347d      	adds	r4, #125	; 0x7d
10004ad0:	367c      	adds	r6, #124	; 0x7c
10004ad2:	00e4      	lsls	r4, r4, #3
10004ad4:	e792      	b.n	100049fc <_free_r+0xc4>
10004ad6:	24fe      	movs	r4, #254	; 0xfe
10004ad8:	267e      	movs	r6, #126	; 0x7e
10004ada:	00a4      	lsls	r4, r4, #2
10004adc:	e78e      	b.n	100049fc <_free_r+0xc4>
10004ade:	0033      	movs	r3, r6
10004ae0:	4313      	orrs	r3, r2
10004ae2:	604b      	str	r3, [r1, #4]
10004ae4:	603a      	str	r2, [r7, #0]
10004ae6:	e77b      	b.n	100049e0 <_free_r+0xa8>
10004ae8:	20000720 	.word	0x20000720
10004aec:	20000728 	.word	0x20000728
10004af0:	20000b2c 	.word	0x20000b2c
10004af4:	20000b98 	.word	0x20000b98
10004af8:	00000554 	.word	0x00000554

10004afc <__retarget_lock_acquire_recursive>:
10004afc:	4770      	bx	lr
10004afe:	46c0      	nop			; (mov r8, r8)

10004b00 <__retarget_lock_release_recursive>:
10004b00:	4770      	bx	lr
10004b02:	46c0      	nop			; (mov r8, r8)

10004b04 <_fini>:
10004b04:	b5f8      	push	{r3, r4, r5, r6, r7, lr}
10004b06:	46c0      	nop			; (mov r8, r8)

10004b08 <__mutex_exit_veneer>:
10004b08:	b401      	push	{r0}
10004b0a:	4802      	ldr	r0, [pc, #8]	; (10004b14 <__mutex_exit_veneer+0xc>)
10004b0c:	4684      	mov	ip, r0
10004b0e:	bc01      	pop	{r0}
10004b10:	4760      	bx	ip
10004b12:	bf00      	nop
10004b14:	2000021d 	.word	0x2000021d

10004b18 <____aeabi_ldiv0_veneer>:
10004b18:	b401      	push	{r0}
10004b1a:	4802      	ldr	r0, [pc, #8]	; (10004b24 <____aeabi_ldiv0_veneer+0xc>)
10004b1c:	4684      	mov	ip, r0
10004b1e:	bc01      	pop	{r0}
10004b20:	4760      	bx	ip
10004b22:	bf00      	nop
10004b24:	20000245 	.word	0x20000245

10004b28 <____aeabi_idiv0_veneer>:
10004b28:	b401      	push	{r0}
10004b2a:	4802      	ldr	r0, [pc, #8]	; (10004b34 <____aeabi_idiv0_veneer+0xc>)
10004b2c:	4684      	mov	ip, r0
10004b2e:	bc01      	pop	{r0}
10004b30:	4760      	bx	ip
10004b32:	bf00      	nop
10004b34:	20000245 	.word	0x20000245

10004b38 <__mutex_try_enter_veneer>:
10004b38:	b401      	push	{r0}
10004b3a:	4802      	ldr	r0, [pc, #8]	; (10004b44 <__mutex_try_enter_veneer+0xc>)
10004b3c:	4684      	mov	ip, r0
10004b3e:	bc01      	pop	{r0}
10004b40:	4760      	bx	ip
10004b42:	bf00      	nop
10004b44:	200001d1 	.word	0x200001d1

10004b48 <__check_hit_miss_invalidate_veneer>:
10004b48:	b401      	push	{r0}
10004b4a:	4802      	ldr	r0, [pc, #8]	; (10004b54 <__check_hit_miss_invalidate_veneer+0xc>)
10004b4c:	4684      	mov	ip, r0
10004b4e:	bc01      	pop	{r0}
10004b50:	4760      	bx	ip
10004b52:	bf00      	nop
10004b54:	200000d9 	.word	0x200000d9

10004b58 <__mutex_enter_blocking_veneer>:
10004b58:	b401      	push	{r0}
10004b5a:	4802      	ldr	r0, [pc, #8]	; (10004b64 <__mutex_enter_blocking_veneer+0xc>)
10004b5c:	4684      	mov	ip, r0
10004b5e:	bc01      	pop	{r0}
10004b60:	4760      	bx	ip
10004b62:	bf00      	nop
10004b64:	20000181 	.word	0x20000181

Disassembly of section .data:

200000c0 <check>:
200000c0:	b510      	push	{r4, lr}
200000c2:	2800      	cmp	r0, #0
200000c4:	d000      	beq.n	200000c8 <check+0x8>
200000c6:	bd10      	pop	{r4, pc}
200000c8:	0008      	movs	r0, r1
200000ca:	f000 f8c5 	bl	20000258 <____wrap_puts_veneer>
200000ce:	2001      	movs	r0, #1
200000d0:	4240      	negs	r0, r0
200000d2:	f000 f8b9 	bl	20000248 <__exit_veneer>
200000d6:	46c0      	nop			; (mov r8, r8)

200000d8 <check_hit_miss_invalidate>:
200000d8:	22a0      	movs	r2, #160	; 0xa0
200000da:	2301      	movs	r3, #1
200000dc:	2101      	movs	r1, #1
200000de:	0552      	lsls	r2, r2, #21
200000e0:	b510      	push	{r4, lr}
200000e2:	6053      	str	r3, [r2, #4]
200000e4:	6893      	ldr	r3, [r2, #8]
200000e6:	4219      	tst	r1, r3
200000e8:	d0fc      	beq.n	200000e4 <check_hit_miss_invalidate+0xc>
200000ea:	4c20      	ldr	r4, [pc, #128]	; (2000016c <check_hit_miss_invalidate+0x94>)
200000ec:	6111      	str	r1, [r2, #16]
200000ee:	60d1      	str	r1, [r2, #12]
200000f0:	6823      	ldr	r3, [r4, #0]
200000f2:	68d3      	ldr	r3, [r2, #12]
200000f4:	2000      	movs	r0, #0
200000f6:	2b00      	cmp	r3, #0
200000f8:	d104      	bne.n	20000104 <check_hit_miss_invalidate+0x2c>
200000fa:	6910      	ldr	r0, [r2, #16]
200000fc:	3801      	subs	r0, #1
200000fe:	4243      	negs	r3, r0
20000100:	4158      	adcs	r0, r3
20000102:	b2c0      	uxtb	r0, r0
20000104:	491a      	ldr	r1, [pc, #104]	; (20000170 <check_hit_miss_invalidate+0x98>)
20000106:	f7ff ffdb 	bl	200000c0 <check>
2000010a:	6823      	ldr	r3, [r4, #0]
2000010c:	23a0      	movs	r3, #160	; 0xa0
2000010e:	055b      	lsls	r3, r3, #21
20000110:	68da      	ldr	r2, [r3, #12]
20000112:	2000      	movs	r0, #0
20000114:	2a01      	cmp	r2, #1
20000116:	d104      	bne.n	20000122 <check_hit_miss_invalidate+0x4a>
20000118:	6918      	ldr	r0, [r3, #16]
2000011a:	3802      	subs	r0, #2
2000011c:	4243      	negs	r3, r0
2000011e:	4158      	adcs	r0, r3
20000120:	b2c0      	uxtb	r0, r0
20000122:	4914      	ldr	r1, [pc, #80]	; (20000174 <check_hit_miss_invalidate+0x9c>)
20000124:	f7ff ffcc 	bl	200000c0 <check>
20000128:	2300      	movs	r3, #0
2000012a:	6023      	str	r3, [r4, #0]
2000012c:	6823      	ldr	r3, [r4, #0]
2000012e:	23a0      	movs	r3, #160	; 0xa0
20000130:	055b      	lsls	r3, r3, #21
20000132:	68da      	ldr	r2, [r3, #12]
20000134:	2000      	movs	r0, #0
20000136:	2a01      	cmp	r2, #1
20000138:	d104      	bne.n	20000144 <check_hit_miss_invalidate+0x6c>
2000013a:	6918      	ldr	r0, [r3, #16]
2000013c:	3803      	subs	r0, #3
2000013e:	4243      	negs	r3, r0
20000140:	4158      	adcs	r0, r3
20000142:	b2c0      	uxtb	r0, r0
20000144:	490c      	ldr	r1, [pc, #48]	; (20000178 <check_hit_miss_invalidate+0xa0>)
20000146:	f7ff ffbb 	bl	200000c0 <check>
2000014a:	6823      	ldr	r3, [r4, #0]
2000014c:	23a0      	movs	r3, #160	; 0xa0
2000014e:	055b      	lsls	r3, r3, #21
20000150:	68da      	ldr	r2, [r3, #12]
20000152:	2000      	movs	r0, #0
20000154:	2a02      	cmp	r2, #2
20000156:	d104      	bne.n	20000162 <check_hit_miss_invalidate+0x8a>
20000158:	6918      	ldr	r0, [r3, #16]
2000015a:	3804      	subs	r0, #4
2000015c:	4243      	negs	r3, r0
2000015e:	4158      	adcs	r0, r3
20000160:	b2c0      	uxtb	r0, r0
20000162:	4906      	ldr	r1, [pc, #24]	; (2000017c <check_hit_miss_invalidate+0xa4>)
20000164:	f7ff ffac 	bl	200000c0 <check>
20000168:	bd10      	pop	{r4, pc}
2000016a:	46c0      	nop			; (mov r8, r8)
2000016c:	10004d08 	.word	0x10004d08
20000170:	10004b68 	.word	0x10004b68
20000174:	10004b8c 	.word	0x10004b8c
20000178:	10004bb0 	.word	0x10004bb0
2000017c:	10004bd0 	.word	0x10004bd0

20000180 <mutex_enter_blocking>:
20000180:	b510      	push	{r4, lr}
20000182:	6802      	ldr	r2, [r0, #0]
20000184:	2400      	movs	r4, #0
20000186:	f3ef 8110 	mrs	r1, PRIMASK
2000018a:	b672      	cpsid	i
2000018c:	6813      	ldr	r3, [r2, #0]
2000018e:	2b00      	cmp	r3, #0
20000190:	d0fc      	beq.n	2000018c <mutex_enter_blocking+0xc>
20000192:	f3bf 8f5f 	dmb	sy
20000196:	7903      	ldrb	r3, [r0, #4]
20000198:	2b00      	cmp	r3, #0
2000019a:	d00b      	beq.n	200001b4 <mutex_enter_blocking+0x34>
2000019c:	6803      	ldr	r3, [r0, #0]
2000019e:	f3bf 8f5f 	dmb	sy
200001a2:	601c      	str	r4, [r3, #0]
200001a4:	f381 8810 	msr	PRIMASK, r1
200001a8:	bf20      	wfe
200001aa:	6802      	ldr	r2, [r0, #0]
200001ac:	f3ef 8110 	mrs	r1, PRIMASK
200001b0:	b672      	cpsid	i
200001b2:	e7eb      	b.n	2000018c <mutex_enter_blocking+0xc>
200001b4:	2201      	movs	r2, #1
200001b6:	7102      	strb	r2, [r0, #4]
200001b8:	22d0      	movs	r2, #208	; 0xd0
200001ba:	0612      	lsls	r2, r2, #24
200001bc:	6812      	ldr	r2, [r2, #0]
200001be:	7142      	strb	r2, [r0, #5]
200001c0:	6802      	ldr	r2, [r0, #0]
200001c2:	f3bf 8f5f 	dmb	sy
200001c6:	6013      	str	r3, [r2, #0]
200001c8:	f381 8810 	msr	PRIMASK, r1
200001cc:	bd10      	pop	{r4, pc}
200001ce:	46c0      	nop			; (mov r8, r8)

200001d0 <mutex_try_enter>:
200001d0:	0003      	movs	r3, r0
200001d2:	b510      	push	{r4, lr}
200001d4:	6800      	ldr	r0, [r0, #0]
200001d6:	f3ef 8410 	mrs	r4, PRIMASK
200001da:	b672      	cpsid	i
200001dc:	6802      	ldr	r2, [r0, #0]
200001de:	2a00      	cmp	r2, #0
200001e0:	d0fc      	beq.n	200001dc <mutex_try_enter+0xc>
200001e2:	f3bf 8f5f 	dmb	sy
200001e6:	791a      	ldrb	r2, [r3, #4]
200001e8:	2a00      	cmp	r2, #0
200001ea:	d00d      	beq.n	20000208 <mutex_try_enter+0x38>
200001ec:	2900      	cmp	r1, #0
200001ee:	d013      	beq.n	20000218 <mutex_try_enter+0x48>
200001f0:	2205      	movs	r2, #5
200001f2:	2000      	movs	r0, #0
200001f4:	569a      	ldrsb	r2, [r3, r2]
200001f6:	600a      	str	r2, [r1, #0]
200001f8:	681b      	ldr	r3, [r3, #0]
200001fa:	f3bf 8f5f 	dmb	sy
200001fe:	2200      	movs	r2, #0
20000200:	601a      	str	r2, [r3, #0]
20000202:	f384 8810 	msr	PRIMASK, r4
20000206:	bd10      	pop	{r4, pc}
20000208:	3201      	adds	r2, #1
2000020a:	711a      	strb	r2, [r3, #4]
2000020c:	22d0      	movs	r2, #208	; 0xd0
2000020e:	0612      	lsls	r2, r2, #24
20000210:	6812      	ldr	r2, [r2, #0]
20000212:	2001      	movs	r0, #1
20000214:	715a      	strb	r2, [r3, #5]
20000216:	e7ef      	b.n	200001f8 <mutex_try_enter+0x28>
20000218:	2000      	movs	r0, #0
2000021a:	e7ed      	b.n	200001f8 <mutex_try_enter+0x28>

2000021c <mutex_exit>:
2000021c:	6802      	ldr	r2, [r0, #0]
2000021e:	f3ef 8110 	mrs	r1, PRIMASK
20000222:	b672      	cpsid	i
20000224:	6813      	ldr	r3, [r2, #0]
20000226:	2b00      	cmp	r3, #0
20000228:	d0fc      	beq.n	20000224 <mutex_exit+0x8>
2000022a:	f3bf 8f5f 	dmb	sy
2000022e:	2300      	movs	r3, #0
20000230:	7103      	strb	r3, [r0, #4]
20000232:	bf40      	sev
20000234:	6802      	ldr	r2, [r0, #0]
20000236:	f3bf 8f5f 	dmb	sy
2000023a:	6013      	str	r3, [r2, #0]
2000023c:	f381 8810 	msr	PRIMASK, r1
20000240:	4770      	bx	lr
20000242:	46c0      	nop			; (mov r8, r8)

20000244 <__aeabi_idiv0>:
20000244:	4770      	bx	lr
20000246:	46c0      	nop			; (mov r8, r8)

20000248 <__exit_veneer>:
20000248:	b401      	push	{r0}
2000024a:	4802      	ldr	r0, [pc, #8]	; (20000254 <__exit_veneer+0xc>)
2000024c:	4684      	mov	ip, r0
2000024e:	bc01      	pop	{r0}
20000250:	4760      	bx	ip
20000252:	bf00      	nop
20000254:	10001171 	.word	0x10001171

20000258 <____wrap_puts_veneer>:
20000258:	b401      	push	{r0}
2000025a:	4802      	ldr	r0, [pc, #8]	; (20000264 <____wrap_puts_veneer+0xc>)
2000025c:	4684      	mov	ip, r0
2000025e:	bc01      	pop	{r0}
20000260:	4760      	bx	ip
20000262:	bf00      	nop
20000264:	10003fc1 	.word	0x10003fc1

20000268 <striped_spin_lock_num>:
20000268:	00000010                                ....

2000026c <irq_handler_chain_slots>:
2000026c:	00000000 	.word	0x00000000
20000270:	00010000 	.word	0x00010000
	...
2000027c:	00020000 	.word	0x00020000
	...
20000288:	00030000 	.word	0x00030000
	...
20000294:	00ff0000 	.word	0x00ff0000
20000298:	00000000 	.word	0x00000000

2000029c <irq_handler_chain_first_slot>:
2000029c:	b500      	push	{lr}
2000029e:	6848      	ldr	r0, [r1, #4]
200002a0:	3101      	adds	r1, #1
200002a2:	468e      	mov	lr, r1
200002a4:	4700      	bx	r0

200002a6 <irq_handler_chain_remove_tail>:
200002a6:	4670      	mov	r0, lr
200002a8:	3809      	subs	r0, #9
200002aa:	4901      	ldr	r1, [pc, #4]	; (200002b0 <irq_handler_chain_remove_tail+0xa>)
200002ac:	4788      	blx	r1
200002ae:	bd00      	pop	{pc}
200002b0:	10001775 	.word	0x10001775
	...

200002c0 <aeabi_bits_funcs>:
200002c0:	00003350 	.word	0x00003350
200002c4:	0000334c 	.word	0x0000334c
200002c8:	00003354 	.word	0x00003354
200002cc:	00003352 	.word	0x00003352

200002d0 <aeabi_bits_funcs_end>:
200002d0:	0000534d 	.word	0x0000534d
200002d4:	0000434d 	.word	0x0000434d
200002d8:	00003453 	.word	0x00003453
200002dc:	00003443 	.word	0x00003443

200002e0 <stdio_uart>:
200002e0:	10004141 00000000 1000417d 00000000     AA......}A......
200002f0:	00000100                                ....

200002f4 <_impure_ptr>:
200002f4:	200002f8                                ... 

200002f8 <impure_data>:
200002f8:	00000000 200005e4 2000064c 200006b4     ....... L.. ... 
	...
200003a0:	00000001 00000000 abcd330e e66d1234     .........3..4.m.
200003b0:	0005deec 0000000b 00000000 00000000     ................
	...

20000720 <__malloc_av_>:
	...
20000728:	20000720 20000720 20000728 20000728      ..  .. (.. (.. 
20000738:	20000730 20000730 20000738 20000738     0.. 0.. 8.. 8.. 
20000748:	20000740 20000740 20000748 20000748     @.. @.. H.. H.. 
20000758:	20000750 20000750 20000758 20000758     P.. P.. X.. X.. 
20000768:	20000760 20000760 20000768 20000768     `.. `.. h.. h.. 
20000778:	20000770 20000770 20000778 20000778     p.. p.. x.. x.. 
20000788:	20000780 20000780 20000788 20000788     ... ... ... ... 
20000798:	20000790 20000790 20000798 20000798     ... ... ... ... 
200007a8:	200007a0 200007a0 200007a8 200007a8     ... ... ... ... 
200007b8:	200007b0 200007b0 200007b8 200007b8     ... ... ... ... 
200007c8:	200007c0 200007c0 200007c8 200007c8     ... ... ... ... 
200007d8:	200007d0 200007d0 200007d8 200007d8     ... ... ... ... 
200007e8:	200007e0 200007e0 200007e8 200007e8     ... ... ... ... 
200007f8:	200007f0 200007f0 200007f8 200007f8     ... ... ... ... 
20000808:	20000800 20000800 20000808 20000808     ... ... ... ... 
20000818:	20000810 20000810 20000818 20000818     ... ... ... ... 
20000828:	20000820 20000820 20000828 20000828      ..  .. (.. (.. 
20000838:	20000830 20000830 20000838 20000838     0.. 0.. 8.. 8.. 
20000848:	20000840 20000840 20000848 20000848     @.. @.. H.. H.. 
20000858:	20000850 20000850 20000858 20000858     P.. P.. X.. X.. 
20000868:	20000860 20000860 20000868 20000868     `.. `.. h.. h.. 
20000878:	20000870 20000870 20000878 20000878     p.. p.. x.. x.. 
20000888:	20000880 20000880 20000888 20000888     ... ... ... ... 
20000898:	20000890 20000890 20000898 20000898     ... ... ... ... 
200008a8:	200008a0 200008a0 200008a8 200008a8     ... ... ... ... 
200008b8:	200008b0 200008b0 200008b8 200008b8     ... ... ... ... 
200008c8:	200008c0 200008c0 200008c8 200008c8     ... ... ... ... 
200008d8:	200008d0 200008d0 200008d8 200008d8     ... ... ... ... 
200008e8:	200008e0 200008e0 200008e8 200008e8     ... ... ... ... 
200008f8:	200008f0 200008f0 200008f8 200008f8     ... ... ... ... 
20000908:	20000900 20000900 20000908 20000908     ... ... ... ... 
20000918:	20000910 20000910 20000918 20000918     ... ... ... ... 
20000928:	20000920 20000920 20000928 20000928      ..  .. (.. (.. 
20000938:	20000930 20000930 20000938 20000938     0.. 0.. 8.. 8.. 
20000948:	20000940 20000940 20000948 20000948     @.. @.. H.. H.. 
20000958:	20000950 20000950 20000958 20000958     P.. P.. X.. X.. 
20000968:	20000960 20000960 20000968 20000968     `.. `.. h.. h.. 
20000978:	20000970 20000970 20000978 20000978     p.. p.. x.. x.. 
20000988:	20000980 20000980 20000988 20000988     ... ... ... ... 
20000998:	20000990 20000990 20000998 20000998     ... ... ... ... 
200009a8:	200009a0 200009a0 200009a8 200009a8     ... ... ... ... 
200009b8:	200009b0 200009b0 200009b8 200009b8     ... ... ... ... 
200009c8:	200009c0 200009c0 200009c8 200009c8     ... ... ... ... 
200009d8:	200009d0 200009d0 200009d8 200009d8     ... ... ... ... 
200009e8:	200009e0 200009e0 200009e8 200009e8     ... ... ... ... 
200009f8:	200009f0 200009f0 200009f8 200009f8     ... ... ... ... 
20000a08:	20000a00 20000a00 20000a08 20000a08     ... ... ... ... 
20000a18:	20000a10 20000a10 20000a18 20000a18     ... ... ... ... 
20000a28:	20000a20 20000a20 20000a28 20000a28      ..  .. (.. (.. 
20000a38:	20000a30 20000a30 20000a38 20000a38     0.. 0.. 8.. 8.. 
20000a48:	20000a40 20000a40 20000a48 20000a48     @.. @.. H.. H.. 
20000a58:	20000a50 20000a50 20000a58 20000a58     P.. P.. X.. X.. 
20000a68:	20000a60 20000a60 20000a68 20000a68     `.. `.. h.. h.. 
20000a78:	20000a70 20000a70 20000a78 20000a78     p.. p.. x.. x.. 
20000a88:	20000a80 20000a80 20000a88 20000a88     ... ... ... ... 
20000a98:	20000a90 20000a90 20000a98 20000a98     ... ... ... ... 
20000aa8:	20000aa0 20000aa0 20000aa8 20000aa8     ... ... ... ... 
20000ab8:	20000ab0 20000ab0 20000ab8 20000ab8     ... ... ... ... 
20000ac8:	20000ac0 20000ac0 20000ac8 20000ac8     ... ... ... ... 
20000ad8:	20000ad0 20000ad0 20000ad8 20000ad8     ... ... ... ... 
20000ae8:	20000ae0 20000ae0 20000ae8 20000ae8     ... ... ... ... 
20000af8:	20000af0 20000af0 20000af8 20000af8     ... ... ... ... 
20000b08:	20000b00 20000b00 20000b08 20000b08     ... ... ... ... 
20000b18:	20000b10 20000b10 20000b18 20000b18     ... ... ... ... 

20000b28 <__malloc_sbrk_base>:
20000b28:	ffffffff                                ....

20000b2c <__malloc_trim_threshold>:
20000b2c:	00020000                                ....

20000b30 <print_mutex>:
	...

20000b38 <__mutex_array_end>:
20000b38:	10003d81 	.word	0x10003d81
20000b3c:	10002eb1 	.word	0x10002eb1
20000b40:	100035a5 	.word	0x100035a5
20000b44:	10003cb1 	.word	0x10003cb1

20000b48 <__frame_dummy_init_array_entry>:
20000b48:	10000301                                ....
