
hello_interp.elf:     file format elf32-littlearm

Sections:
Idx Name          Size      VMA       LMA       File off  Algn
  0 .boot2        00000100  10000000  10000000  00010000  2**0
                  CONTENTS, ALLOC, LOAD, READONLY, DATA
  1 .text         00004c98  10000100  10000100  00010100  2**3
                  CONTENTS, ALLOC, LOAD, READONLY, CODE
  2 .rodata       00000508  10004d98  10004d98  00014d98  2**3
                  CONTENTS, ALLOC, LOAD, READONLY, DATA
  3 .binary_info  00000024  100052a0  100052a0  000152a0  2**2
                  CONTENTS, ALLOC, LOAD, DATA
  4 .ram_vector_table 000000c0  20000000  20000000  00020a6c  2**2
                  CONTENTS
  5 .data         000009ac  200000c0  100052c4  000200c0  2**4
                  CONTENTS, ALLOC, LOAD, CODE
  6 .uninitialized_data 00000000  20000a6c  20000a6c  00020b2c  2**0
                  CONTENTS
  7 .scratch_x    00000000  20040000  20040000  00020b2c  2**0
                  CONTENTS
  8 .scratch_y    00000000  20041000  20041000  00020b2c  2**0
                  CONTENTS
  9 .bss          000002f0  20000a6c  20000a6c  00020a6c  2**2
                  ALLOC
 10 .heap         00000800  20000d5c  20000d5c  00020b2c  2**2
                  CONTENTS, READONLY
 11 .stack_dummy  00000800  20041000  20041000  00021340  2**5
                  CONTENTS, READONLY
 12 .ARM.attributes 00000028  00000000  00000000  00021b40  2**0
                  CONTENTS, READONLY
 13 .comment      00000079  00000000  00000000  00021b68  2**0
                  CONTENTS, READONLY
 14 .debug_frame  000002ac  00000000  00000000  00021be4  2**2
                  CONTENTS, READONLY, DEBUGGING

hello_interp.elf:     file format elf32-littlearm


Disassembly of section .text:

10000100 <__reset_start>:
10000100:	4827      	ldr	r0, [pc, #156]	; (100001a0 <__get_current_exception+0xa>)
10000102:	e000      	b.n	10000106 <__vector_entry>

10000104 <_entry_point>:
10000104:	2000      	movs	r0, #0

10000106 <__vector_entry>:
10000106:	4927      	ldr	r1, [pc, #156]	; (100001a4 <__get_current_exception+0xe>)
10000108:	6088      	str	r0, [r1, #8]
1000010a:	c806      	ldmia	r0!, {r1, r2}
1000010c:	f381 8808 	msr	MSP, r1
10000110:	4710      	bx	r2

10000112 <_reset_handler>:
10000112:	4825      	ldr	r0, [pc, #148]	; (100001a8 <__get_current_exception+0x12>)
10000114:	6800      	ldr	r0, [r0, #0]
10000116:	2800      	cmp	r0, #0
10000118:	d139      	bne.n	1000018e <wait_for_vector>
1000011a:	a412      	add	r4, pc, #72	; (adr r4, 10000164 <data_cpy_table>)
1000011c:	cc0e      	ldmia	r4!, {r1, r2, r3}
1000011e:	2900      	cmp	r1, #0
10000120:	d002      	beq.n	10000128 <_reset_handler+0x16>
10000122:	f000 f812 	bl	1000014a <data_cpy>
10000126:	e7f9      	b.n	1000011c <_reset_handler+0xa>
10000128:	4920      	ldr	r1, [pc, #128]	; (100001ac <__get_current_exception+0x16>)
1000012a:	4a21      	ldr	r2, [pc, #132]	; (100001b0 <__get_current_exception+0x1a>)
1000012c:	2000      	movs	r0, #0
1000012e:	e000      	b.n	10000132 <bss_fill_test>

10000130 <bss_fill_loop>:
10000130:	c101      	stmia	r1!, {r0}

10000132 <bss_fill_test>:
10000132:	4291      	cmp	r1, r2
10000134:	d1fc      	bne.n	10000130 <bss_fill_loop>

10000136 <platform_entry>:
10000136:	491f      	ldr	r1, [pc, #124]	; (100001b4 <__get_current_exception+0x1e>)
10000138:	4788      	blx	r1
1000013a:	491f      	ldr	r1, [pc, #124]	; (100001b8 <__get_current_exception+0x22>)
1000013c:	4788      	blx	r1
1000013e:	491f      	ldr	r1, [pc, #124]	; (100001bc <__get_current_exception+0x26>)
10000140:	4788      	blx	r1
10000142:	be00      	bkpt	0x0000
10000144:	e7fd      	b.n	10000142 <platform_entry+0xc>

10000146 <data_cpy_loop>:
10000146:	c901      	ldmia	r1!, {r0}
10000148:	c201      	stmia	r2!, {r0}

1000014a <data_cpy>:
1000014a:	429a      	cmp	r2, r3
1000014c:	d3fb      	bcc.n	10000146 <data_cpy_loop>
1000014e:	4770      	bx	lr

10000150 <binary_info_header>:
10000150:	7188ebf2 	.word	0x7188ebf2
10000154:	100052a0 	.word	0x100052a0
10000158:	100052c4 	.word	0x100052c4
1000015c:	10000164 	.word	0x10000164
10000160:	e71aa390 	.word	0xe71aa390

10000164 <data_cpy_table>:
10000164:	100052c4 	.word	0x100052c4
10000168:	200000c0 	.word	0x200000c0
1000016c:	20000a6c 	.word	0x20000a6c
10000170:	10005c70 	.word	0x10005c70
10000174:	20040000 	.word	0x20040000
10000178:	20040000 	.word	0x20040000
1000017c:	10005c70 	.word	0x10005c70
10000180:	20041000 	.word	0x20041000
10000184:	20041000 	.word	0x20041000
10000188:	00000000 	.word	0x00000000
1000018c:	4770      	bx	lr

1000018e <wait_for_vector>:
1000018e:	480c      	ldr	r0, [pc, #48]	; (100001c0 <__get_current_exception+0x2a>)
10000190:	f003 f812 	bl	100031b8 <rom_func_lookup>
10000194:	4700      	bx	r0

10000196 <__get_current_exception>:
10000196:	f3ef 8005 	mrs	r0, IPSR
1000019a:	b2c0      	uxtb	r0, r0
1000019c:	4770      	bx	lr
1000019e:	0000      	.short	0x0000
100001a0:	10000200 	.word	0x10000200
100001a4:	e000ed00 	.word	0xe000ed00
100001a8:	d0000000 	.word	0xd0000000
100001ac:	20000a6c 	.word	0x20000a6c
100001b0:	20000d5c 	.word	0x20000d5c
100001b4:	10001349 	.word	0x10001349
100001b8:	10000705 	.word	0x10000705
100001bc:	10001469 	.word	0x10001469
100001c0:	00005657 	.word	0x00005657

100001c4 <__bi_46>:
100001c4:	50520006 5360b3ab 1000520c              ..RP..`S.R..

100001d0 <__bi_34>:
100001d0:	50520006 02031c86 1000521c              ..RP.....R..

100001dc <__bi_26>:
100001dc:	50520006 9da22254 1000522c              ..RPT"..,R..

100001e8 <__bi_18>:
100001e8:	50520005 68f465de 10005c70 00000000     ..RP.e.hp\......
	...

10000200 <__reset_end>:
10000200:	20042000 	.word	0x20042000
10000204:	10000113 	.word	0x10000113
10000208:	100002c3 	.word	0x100002c3
1000020c:	100002c5 	.word	0x100002c5
10000210:	100002c1 	.word	0x100002c1
10000214:	100002c1 	.word	0x100002c1
10000218:	100002c1 	.word	0x100002c1
1000021c:	100002c1 	.word	0x100002c1
10000220:	100002c1 	.word	0x100002c1
10000224:	100002c1 	.word	0x100002c1
10000228:	100002c1 	.word	0x100002c1
1000022c:	100002c7 	.word	0x100002c7
10000230:	100002c1 	.word	0x100002c1
10000234:	100002c1 	.word	0x100002c1
10000238:	100002c9 	.word	0x100002c9
1000023c:	100002cb 	.word	0x100002cb
10000240:	100002cd 	.word	0x100002cd
10000244:	100002cd 	.word	0x100002cd
10000248:	100002cd 	.word	0x100002cd
1000024c:	100002cd 	.word	0x100002cd
10000250:	100002cd 	.word	0x100002cd
10000254:	100002cd 	.word	0x100002cd
10000258:	100002cd 	.word	0x100002cd
1000025c:	100002cd 	.word	0x100002cd
10000260:	100002cd 	.word	0x100002cd
10000264:	100002cd 	.word	0x100002cd
10000268:	100002cd 	.word	0x100002cd
1000026c:	100002cd 	.word	0x100002cd
10000270:	100002cd 	.word	0x100002cd
10000274:	100002cd 	.word	0x100002cd
10000278:	100002cd 	.word	0x100002cd
1000027c:	100002cd 	.word	0x100002cd
10000280:	100002cd 	.word	0x100002cd
10000284:	100002cd 	.word	0x100002cd
10000288:	100002cd 	.word	0x100002cd
1000028c:	100002cd 	.word	0x100002cd
10000290:	100002cd 	.word	0x100002cd
10000294:	100002cd 	.word	0x100002cd
10000298:	100002cd 	.word	0x100002cd
1000029c:	100002cd 	.word	0x100002cd
100002a0:	100002cd 	.word	0x100002cd
100002a4:	100002cd 	.word	0x100002cd
100002a8:	100002cd 	.word	0x100002cd
100002ac:	100002cd 	.word	0x100002cd
100002b0:	100002cd 	.word	0x100002cd
100002b4:	100002cd 	.word	0x100002cd
100002b8:	100002cd 	.word	0x100002cd
100002bc:	100002cd 	.word	0x100002cd

100002c0 <isr_invalid>:
100002c0:	be00      	bkpt	0x0000

100002c2 <isr_nmi>:
100002c2:	be00      	bkpt	0x0000

100002c4 <isr_hardfault>:
100002c4:	be00      	bkpt	0x0000

100002c6 <isr_svcall>:
100002c6:	be00      	bkpt	0x0000

100002c8 <isr_pendsv>:
100002c8:	be00      	bkpt	0x0000

100002ca <isr_systick>:
100002ca:	be00      	bkpt	0x0000

100002cc <__unhandled_user_irq>:
100002cc:	f7ff ff63 	bl	10000196 <__get_current_exception>
100002d0:	3810      	subs	r0, #16

100002d2 <unhandled_user_irq_num_in_r0>:
100002d2:	be00      	bkpt	0x0000

100002d4 <_init>:
100002d4:	b5f8      	push	{r3, r4, r5, r6, r7, lr}
100002d6:	46c0      	nop			; (mov r8, r8)

100002d8 <__do_global_dtors_aux>:
100002d8:	b510      	push	{r4, lr}
100002da:	4c06      	ldr	r4, [pc, #24]	; (100002f4 <__do_global_dtors_aux+0x1c>)
100002dc:	7823      	ldrb	r3, [r4, #0]
100002de:	2b00      	cmp	r3, #0
100002e0:	d107      	bne.n	100002f2 <__do_global_dtors_aux+0x1a>
100002e2:	4b05      	ldr	r3, [pc, #20]	; (100002f8 <__do_global_dtors_aux+0x20>)
100002e4:	2b00      	cmp	r3, #0
100002e6:	d002      	beq.n	100002ee <__do_global_dtors_aux+0x16>
100002e8:	4804      	ldr	r0, [pc, #16]	; (100002fc <__do_global_dtors_aux+0x24>)
100002ea:	e000      	b.n	100002ee <__do_global_dtors_aux+0x16>
100002ec:	bf00      	nop
100002ee:	2301      	movs	r3, #1
100002f0:	7023      	strb	r3, [r4, #0]
100002f2:	bd10      	pop	{r4, pc}
100002f4:	20000a6c 	.word	0x20000a6c
100002f8:	00000000 	.word	0x00000000
100002fc:	10004d98 	.word	0x10004d98

10000300 <frame_dummy>:
10000300:	4b04      	ldr	r3, [pc, #16]	; (10000314 <frame_dummy+0x14>)
10000302:	b510      	push	{r4, lr}
10000304:	2b00      	cmp	r3, #0
10000306:	d003      	beq.n	10000310 <frame_dummy+0x10>
10000308:	4903      	ldr	r1, [pc, #12]	; (10000318 <frame_dummy+0x18>)
1000030a:	4804      	ldr	r0, [pc, #16]	; (1000031c <frame_dummy+0x1c>)
1000030c:	e000      	b.n	10000310 <frame_dummy+0x10>
1000030e:	bf00      	nop
10000310:	bd10      	pop	{r4, pc}
10000312:	46c0      	nop			; (mov r8, r8)
10000314:	00000000 	.word	0x00000000
10000318:	20000a70 	.word	0x20000a70
1000031c:	10004d98 	.word	0x10004d98

10000320 <times_table>:
10000320:	b570      	push	{r4, r5, r6, lr}
10000322:	480a      	ldr	r0, [pc, #40]	; (1000034c <times_table+0x2c>)
10000324:	f003 ff6c 	bl	10004200 <__wrap_puts>
10000328:	23f8      	movs	r3, #248	; 0xf8
1000032a:	4d09      	ldr	r5, [pc, #36]	; (10000350 <times_table+0x30>)
1000032c:	01db      	lsls	r3, r3, #7
1000032e:	62eb      	str	r3, [r5, #44]	; 0x2c
10000330:	2300      	movs	r3, #0
10000332:	240a      	movs	r4, #10
10000334:	602b      	str	r3, [r5, #0]
10000336:	4e07      	ldr	r6, [pc, #28]	; (10000354 <times_table+0x34>)
10000338:	3309      	adds	r3, #9
1000033a:	60ab      	str	r3, [r5, #8]
1000033c:	0030      	movs	r0, r6
1000033e:	6969      	ldr	r1, [r5, #20]
10000340:	3c01      	subs	r4, #1
10000342:	f004 f80d 	bl	10004360 <__wrap_printf>
10000346:	2c00      	cmp	r4, #0
10000348:	d1f8      	bne.n	1000033c <times_table+0x1c>
1000034a:	bd70      	pop	{r4, r5, r6, pc}
1000034c:	10004d98 	.word	0x10004d98
10000350:	d0000080 	.word	0xd0000080
10000354:	10004da8 	.word	0x10004da8

10000358 <moving_mask>:
10000358:	b5f8      	push	{r3, r4, r5, r6, r7, lr}
1000035a:	2400      	movs	r4, #0
1000035c:	4b19      	ldr	r3, [pc, #100]	; (100003c4 <moving_mask+0x6c>)
1000035e:	4e1a      	ldr	r6, [pc, #104]	; (100003c8 <moving_mask+0x70>)
10000360:	481a      	ldr	r0, [pc, #104]	; (100003cc <moving_mask+0x74>)
10000362:	6033      	str	r3, [r6, #0]
10000364:	f003 ff4c 	bl	10004200 <__wrap_puts>
10000368:	6831      	ldr	r1, [r6, #0]
1000036a:	4819      	ldr	r0, [pc, #100]	; (100003d0 <moving_mask+0x78>)
1000036c:	f003 fff8 	bl	10004360 <__wrap_printf>
10000370:	4d18      	ldr	r5, [pc, #96]	; (100003d4 <moving_mask+0x7c>)
10000372:	22c0      	movs	r2, #192	; 0xc0
10000374:	0112      	lsls	r2, r2, #4
10000376:	4694      	mov	ip, r2
10000378:	0323      	lsls	r3, r4, #12
1000037a:	01e2      	lsls	r2, r4, #7
1000037c:	4463      	add	r3, ip
1000037e:	4313      	orrs	r3, r2
10000380:	62f3      	str	r3, [r6, #44]	; 0x2c
10000382:	0021      	movs	r1, r4
10000384:	0028      	movs	r0, r5
10000386:	6b72      	ldr	r2, [r6, #52]	; 0x34
10000388:	3401      	adds	r4, #1
1000038a:	f003 ffe9 	bl	10004360 <__wrap_printf>
1000038e:	2c08      	cmp	r4, #8
10000390:	d1ef      	bne.n	10000372 <moving_mask+0x1a>
10000392:	2780      	movs	r7, #128	; 0x80
10000394:	4810      	ldr	r0, [pc, #64]	; (100003d8 <moving_mask+0x80>)
10000396:	f003 ff33 	bl	10004200 <__wrap_puts>
1000039a:	2400      	movs	r4, #0
1000039c:	4e0a      	ldr	r6, [pc, #40]	; (100003c8 <moving_mask+0x70>)
1000039e:	023f      	lsls	r7, r7, #8
100003a0:	22c0      	movs	r2, #192	; 0xc0
100003a2:	0112      	lsls	r2, r2, #4
100003a4:	4694      	mov	ip, r2
100003a6:	0323      	lsls	r3, r4, #12
100003a8:	01e2      	lsls	r2, r4, #7
100003aa:	4463      	add	r3, ip
100003ac:	4313      	orrs	r3, r2
100003ae:	433b      	orrs	r3, r7
100003b0:	62f3      	str	r3, [r6, #44]	; 0x2c
100003b2:	0021      	movs	r1, r4
100003b4:	0028      	movs	r0, r5
100003b6:	6b72      	ldr	r2, [r6, #52]	; 0x34
100003b8:	3401      	adds	r4, #1
100003ba:	f003 ffd1 	bl	10004360 <__wrap_printf>
100003be:	2c08      	cmp	r4, #8
100003c0:	d1ee      	bne.n	100003a0 <moving_mask+0x48>
100003c2:	bdf8      	pop	{r3, r4, r5, r6, r7, pc}
100003c4:	1234abcd 	.word	0x1234abcd
100003c8:	d0000080 	.word	0xd0000080
100003cc:	10004dac 	.word	0x10004dac
100003d0:	10004db8 	.word	0x10004db8
100003d4:	10004dc8 	.word	0x10004dc8
100003d8:	10004ddc 	.word	0x10004ddc

100003dc <cross_lanes>:
100003dc:	239f      	movs	r3, #159	; 0x9f
100003de:	b570      	push	{r4, r5, r6, lr}
100003e0:	4d0d      	ldr	r5, [pc, #52]	; (10000418 <cross_lanes+0x3c>)
100003e2:	029b      	lsls	r3, r3, #10
100003e4:	62eb      	str	r3, [r5, #44]	; 0x2c
100003e6:	632b      	str	r3, [r5, #48]	; 0x30
100003e8:	237b      	movs	r3, #123	; 0x7b
100003ea:	602b      	str	r3, [r5, #0]
100003ec:	334e      	adds	r3, #78	; 0x4e
100003ee:	33ff      	adds	r3, #255	; 0xff
100003f0:	606b      	str	r3, [r5, #4]
100003f2:	3bc8      	subs	r3, #200	; 0xc8
100003f4:	3bff      	subs	r3, #255	; 0xff
100003f6:	60ab      	str	r3, [r5, #8]
100003f8:	2300      	movs	r3, #0
100003fa:	240a      	movs	r4, #10
100003fc:	4807      	ldr	r0, [pc, #28]	; (1000041c <cross_lanes+0x40>)
100003fe:	60eb      	str	r3, [r5, #12]
10000400:	f003 fefe 	bl	10004200 <__wrap_puts>
10000404:	4e06      	ldr	r6, [pc, #24]	; (10000420 <cross_lanes+0x44>)
10000406:	6a29      	ldr	r1, [r5, #32]
10000408:	0030      	movs	r0, r6
1000040a:	69aa      	ldr	r2, [r5, #24]
1000040c:	3c01      	subs	r4, #1
1000040e:	f003 ffa7 	bl	10004360 <__wrap_printf>
10000412:	2c00      	cmp	r4, #0
10000414:	d1f7      	bne.n	10000406 <cross_lanes+0x2a>
10000416:	bd70      	pop	{r4, r5, r6, pc}
10000418:	d0000080 	.word	0xd0000080
1000041c:	10004dfc 	.word	0x10004dfc
10000420:	10004e14 	.word	0x10004e14

10000424 <simple_blend1>:
10000424:	b5f8      	push	{r3, r4, r5, r6, r7, lr}
10000426:	480f      	ldr	r0, [pc, #60]	; (10000464 <simple_blend1+0x40>)
10000428:	f003 feea 	bl	10004200 <__wrap_puts>
1000042c:	4d0e      	ldr	r5, [pc, #56]	; (10000468 <simple_blend1+0x44>)
1000042e:	4b0f      	ldr	r3, [pc, #60]	; (1000046c <simple_blend1+0x48>)
10000430:	2400      	movs	r4, #0
10000432:	62eb      	str	r3, [r5, #44]	; 0x2c
10000434:	23f8      	movs	r3, #248	; 0xf8
10000436:	01db      	lsls	r3, r3, #7
10000438:	632b      	str	r3, [r5, #48]	; 0x30
1000043a:	23fa      	movs	r3, #250	; 0xfa
1000043c:	005b      	lsls	r3, r3, #1
1000043e:	60ab      	str	r3, [r5, #8]
10000440:	4f0b      	ldr	r7, [pc, #44]	; (10000470 <simple_blend1+0x4c>)
10000442:	18db      	adds	r3, r3, r3
10000444:	4e0b      	ldr	r6, [pc, #44]	; (10000474 <simple_blend1+0x50>)
10000446:	60eb      	str	r3, [r5, #12]
10000448:	2106      	movs	r1, #6
1000044a:	0020      	movs	r0, r4
1000044c:	f002 fee2 	bl	10003214 <__wrap___aeabi_idiv>
10000450:	6068      	str	r0, [r5, #4]
10000452:	6a69      	ldr	r1, [r5, #36]	; 0x24
10000454:	0038      	movs	r0, r7
10000456:	34ff      	adds	r4, #255	; 0xff
10000458:	f003 ff82 	bl	10004360 <__wrap_printf>
1000045c:	42b4      	cmp	r4, r6
1000045e:	d1f3      	bne.n	10000448 <simple_blend1+0x24>
10000460:	bdf8      	pop	{r3, r4, r5, r6, r7, pc}
10000462:	46c0      	nop			; (mov r8, r8)
10000464:	10004e2c 	.word	0x10004e2c
10000468:	d0000080 	.word	0xd0000080
1000046c:	00207c00 	.word	0x00207c00
10000470:	10004da8 	.word	0x10004da8
10000474:	000006f9 	.word	0x000006f9

10000478 <simple_blend2>:
10000478:	b5f8      	push	{r3, r4, r5, r6, r7, lr}
1000047a:	481b      	ldr	r0, [pc, #108]	; (100004e8 <simple_blend2+0x70>)
1000047c:	f003 fec0 	bl	10004200 <__wrap_puts>
10000480:	4c1a      	ldr	r4, [pc, #104]	; (100004ec <simple_blend2+0x74>)
10000482:	4b1b      	ldr	r3, [pc, #108]	; (100004f0 <simple_blend2+0x78>)
10000484:	481b      	ldr	r0, [pc, #108]	; (100004f4 <simple_blend2+0x7c>)
10000486:	62e3      	str	r3, [r4, #44]	; 0x2c
10000488:	4b1b      	ldr	r3, [pc, #108]	; (100004f8 <simple_blend2+0x80>)
1000048a:	2500      	movs	r5, #0
1000048c:	60a3      	str	r3, [r4, #8]
1000048e:	23fa      	movs	r3, #250	; 0xfa
10000490:	009b      	lsls	r3, r3, #2
10000492:	60e3      	str	r3, [r4, #12]
10000494:	f003 feb4 	bl	10004200 <__wrap_puts>
10000498:	23fc      	movs	r3, #252	; 0xfc
1000049a:	4f18      	ldr	r7, [pc, #96]	; (100004fc <simple_blend2+0x84>)
1000049c:	021b      	lsls	r3, r3, #8
1000049e:	4e18      	ldr	r6, [pc, #96]	; (10000500 <simple_blend2+0x88>)
100004a0:	6323      	str	r3, [r4, #48]	; 0x30
100004a2:	2106      	movs	r1, #6
100004a4:	0028      	movs	r0, r5
100004a6:	f002 feb5 	bl	10003214 <__wrap___aeabi_idiv>
100004aa:	6060      	str	r0, [r4, #4]
100004ac:	6a61      	ldr	r1, [r4, #36]	; 0x24
100004ae:	0038      	movs	r0, r7
100004b0:	35ff      	adds	r5, #255	; 0xff
100004b2:	f003 ff55 	bl	10004360 <__wrap_printf>
100004b6:	42b5      	cmp	r5, r6
100004b8:	d1f3      	bne.n	100004a2 <simple_blend2+0x2a>
100004ba:	4812      	ldr	r0, [pc, #72]	; (10000504 <simple_blend2+0x8c>)
100004bc:	f003 fea0 	bl	10004200 <__wrap_puts>
100004c0:	23f8      	movs	r3, #248	; 0xf8
100004c2:	01db      	lsls	r3, r3, #7
100004c4:	6323      	str	r3, [r4, #48]	; 0x30
100004c6:	2400      	movs	r4, #0
100004c8:	4f0f      	ldr	r7, [pc, #60]	; (10000508 <simple_blend2+0x90>)
100004ca:	4d08      	ldr	r5, [pc, #32]	; (100004ec <simple_blend2+0x74>)
100004cc:	4e0c      	ldr	r6, [pc, #48]	; (10000500 <simple_blend2+0x88>)
100004ce:	2106      	movs	r1, #6
100004d0:	0020      	movs	r0, r4
100004d2:	f002 fe9f 	bl	10003214 <__wrap___aeabi_idiv>
100004d6:	6068      	str	r0, [r5, #4]
100004d8:	6a69      	ldr	r1, [r5, #36]	; 0x24
100004da:	0038      	movs	r0, r7
100004dc:	34ff      	adds	r4, #255	; 0xff
100004de:	f003 ff3f 	bl	10004360 <__wrap_printf>
100004e2:	42b4      	cmp	r4, r6
100004e4:	d1f3      	bne.n	100004ce <simple_blend2+0x56>
100004e6:	bdf8      	pop	{r3, r4, r5, r6, r7, pc}
100004e8:	10004e44 	.word	0x10004e44
100004ec:	d0000080 	.word	0xd0000080
100004f0:	00207c00 	.word	0x00207c00
100004f4:	10004e54 	.word	0x10004e54
100004f8:	fffffc18 	.word	0xfffffc18
100004fc:	10004da8 	.word	0x10004da8
10000500:	000006f9 	.word	0x000006f9
10000504:	10004e5c 	.word	0x10004e5c
10000508:	10004e3c 	.word	0x10004e3c

1000050c <simple_blend3>:
1000050c:	b570      	push	{r4, r5, r6, lr}
1000050e:	4810      	ldr	r0, [pc, #64]	; (10000550 <simple_blend3+0x44>)
10000510:	4c10      	ldr	r4, [pc, #64]	; (10000554 <simple_blend3+0x48>)
10000512:	f003 fe75 	bl	10004200 <__wrap_puts>
10000516:	4b10      	ldr	r3, [pc, #64]	; (10000558 <simple_blend3+0x4c>)
10000518:	4d10      	ldr	r5, [pc, #64]	; (1000055c <simple_blend3+0x50>)
1000051a:	62e3      	str	r3, [r4, #44]	; 0x2c
1000051c:	23f8      	movs	r3, #248	; 0xf8
1000051e:	01db      	lsls	r3, r3, #7
10000520:	6323      	str	r3, [r4, #48]	; 0x30
10000522:	2380      	movs	r3, #128	; 0x80
10000524:	6063      	str	r3, [r4, #4]
10000526:	4b0e      	ldr	r3, [pc, #56]	; (10000560 <simple_blend3+0x54>)
10000528:	4e0e      	ldr	r6, [pc, #56]	; (10000564 <simple_blend3+0x58>)
1000052a:	63e3      	str	r3, [r4, #60]	; 0x3c
1000052c:	0028      	movs	r0, r5
1000052e:	6a61      	ldr	r1, [r4, #36]	; 0x24
10000530:	f003 ff16 	bl	10004360 <__wrap_printf>
10000534:	63e6      	str	r6, [r4, #60]	; 0x3c
10000536:	0028      	movs	r0, r5
10000538:	6a61      	ldr	r1, [r4, #36]	; 0x24
1000053a:	f003 ff11 	bl	10004360 <__wrap_printf>
1000053e:	23fc      	movs	r3, #252	; 0xfc
10000540:	021b      	lsls	r3, r3, #8
10000542:	6323      	str	r3, [r4, #48]	; 0x30
10000544:	63e6      	str	r6, [r4, #60]	; 0x3c
10000546:	0028      	movs	r0, r5
10000548:	6a61      	ldr	r1, [r4, #36]	; 0x24
1000054a:	f003 ff09 	bl	10004360 <__wrap_printf>
1000054e:	bd70      	pop	{r4, r5, r6, pc}
10000550:	10004e68 	.word	0x10004e68
10000554:	d0000080 	.word	0xd0000080
10000558:	00207c00 	.word	0x00207c00
1000055c:	10004e3c 	.word	0x10004e3c
10000560:	30005000 	.word	0x30005000
10000564:	e000f000 	.word	0xe000f000

10000568 <linear_interpolation>:
10000568:	b5f0      	push	{r4, r5, r6, r7, lr}
1000056a:	46de      	mov	lr, fp
1000056c:	4645      	mov	r5, r8
1000056e:	4657      	mov	r7, sl
10000570:	464e      	mov	r6, r9
10000572:	b5e0      	push	{r5, r6, r7, lr}
10000574:	481f      	ldr	r0, [pc, #124]	; (100005f4 <linear_interpolation+0x8c>)
10000576:	b087      	sub	sp, #28
10000578:	f003 fe42 	bl	10004200 <__wrap_puts>
1000057c:	aa03      	add	r2, sp, #12
1000057e:	0011      	movs	r1, r2
10000580:	4c1d      	ldr	r4, [pc, #116]	; (100005f8 <linear_interpolation+0x90>)
10000582:	4b1e      	ldr	r3, [pc, #120]	; (100005fc <linear_interpolation+0x94>)
10000584:	62e3      	str	r3, [r4, #44]	; 0x2c
10000586:	4b1e      	ldr	r3, [pc, #120]	; (10000600 <linear_interpolation+0x98>)
10000588:	6323      	str	r3, [r4, #48]	; 0x30
1000058a:	4b1e      	ldr	r3, [pc, #120]	; (10000604 <linear_interpolation+0x9c>)
1000058c:	cb21      	ldmia	r3!, {r0, r5}
1000058e:	c121      	stmia	r1!, {r0, r5}
10000590:	881b      	ldrh	r3, [r3, #0]
10000592:	2510      	movs	r5, #16
10000594:	800b      	strh	r3, [r1, #0]
10000596:	2300      	movs	r3, #0
10000598:	6023      	str	r3, [r4, #0]
1000059a:	4b1b      	ldr	r3, [pc, #108]	; (10000608 <linear_interpolation+0xa0>)
1000059c:	6122      	str	r2, [r4, #16]
1000059e:	469b      	mov	fp, r3
100005a0:	23ff      	movs	r3, #255	; 0xff
100005a2:	469a      	mov	sl, r3
100005a4:	3b9b      	subs	r3, #155	; 0x9b
100005a6:	4699      	mov	r9, r3
100005a8:	6aa3      	ldr	r3, [r4, #40]	; 0x28
100005aa:	21ff      	movs	r1, #255	; 0xff
100005ac:	2200      	movs	r2, #0
100005ae:	5e9e      	ldrsh	r6, [r3, r2]
100005b0:	2702      	movs	r7, #2
100005b2:	5fdf      	ldrsh	r7, [r3, r7]
100005b4:	60a6      	str	r6, [r4, #8]
100005b6:	60e7      	str	r7, [r4, #12]
100005b8:	6a63      	ldr	r3, [r4, #36]	; 0x24
100005ba:	6ba0      	ldr	r0, [r4, #56]	; 0x38
100005bc:	4698      	mov	r8, r3
100005be:	4653      	mov	r3, sl
100005c0:	4018      	ands	r0, r3
100005c2:	464b      	mov	r3, r9
100005c4:	4358      	muls	r0, r3
100005c6:	f002 fe51 	bl	1000326c <__wrap___aeabi_uidiv>
100005ca:	0033      	movs	r3, r6
100005cc:	0002      	movs	r2, r0
100005ce:	4641      	mov	r1, r8
100005d0:	4658      	mov	r0, fp
100005d2:	9700      	str	r7, [sp, #0]
100005d4:	f003 fec4 	bl	10004360 <__wrap_printf>
100005d8:	2380      	movs	r3, #128	; 0x80
100005da:	3d01      	subs	r5, #1
100005dc:	00db      	lsls	r3, r3, #3
100005de:	6363      	str	r3, [r4, #52]	; 0x34
100005e0:	2d00      	cmp	r5, #0
100005e2:	d1e1      	bne.n	100005a8 <linear_interpolation+0x40>
100005e4:	b007      	add	sp, #28
100005e6:	bc3c      	pop	{r2, r3, r4, r5}
100005e8:	4690      	mov	r8, r2
100005ea:	4699      	mov	r9, r3
100005ec:	46a2      	mov	sl, r4
100005ee:	46ab      	mov	fp, r5
100005f0:	bdf0      	pop	{r4, r5, r6, r7, pc}
100005f2:	46c0      	nop			; (mov r8, r8)
100005f4:	10004e78 	.word	0x10004e78
100005f8:	d0000080 	.word	0xd0000080
100005fc:	0020502b 	.word	0x0020502b
10000600:	0001fc04 	.word	0x0001fc04
10000604:	10004f0c 	.word	0x10004f0c
10000608:	10004e90 	.word	0x10004e90

1000060c <clamp>:
1000060c:	b5f8      	push	{r3, r4, r5, r6, r7, lr}
1000060e:	480c      	ldr	r0, [pc, #48]	; (10000640 <clamp+0x34>)
10000610:	f003 fdf6 	bl	10004200 <__wrap_puts>
10000614:	4d0b      	ldr	r5, [pc, #44]	; (10000644 <clamp+0x38>)
10000616:	4b0c      	ldr	r3, [pc, #48]	; (10000648 <clamp+0x3c>)
10000618:	26a0      	movs	r6, #160	; 0xa0
1000061a:	62eb      	str	r3, [r5, #44]	; 0x2c
1000061c:	2300      	movs	r3, #0
1000061e:	4c0b      	ldr	r4, [pc, #44]	; (1000064c <clamp+0x40>)
10000620:	60ab      	str	r3, [r5, #8]
10000622:	4f0b      	ldr	r7, [pc, #44]	; (10000650 <clamp+0x44>)
10000624:	33ff      	adds	r3, #255	; 0xff
10000626:	60eb      	str	r3, [r5, #12]
10000628:	00f6      	lsls	r6, r6, #3
1000062a:	602c      	str	r4, [r5, #0]
1000062c:	0021      	movs	r1, r4
1000062e:	3401      	adds	r4, #1
10000630:	0038      	movs	r0, r7
10000632:	6a2a      	ldr	r2, [r5, #32]
10000634:	34ff      	adds	r4, #255	; 0xff
10000636:	f003 fe93 	bl	10004360 <__wrap_printf>
1000063a:	42b4      	cmp	r4, r6
1000063c:	d1f5      	bne.n	1000062a <clamp+0x1e>
1000063e:	bdf8      	pop	{r3, r4, r5, r6, r7, pc}
10000640:	10004eb0 	.word	0x10004eb0
10000644:	d00000c0 	.word	0xd00000c0
10000648:	0040f402 	.word	0x0040f402
1000064c:	fffffc00 	.word	0xfffffc00
10000650:	10004eb8 	.word	0x10004eb8

10000654 <texture_mapping>:
10000654:	b570      	push	{r4, r5, r6, lr}
10000656:	b088      	sub	sp, #32
10000658:	ad04      	add	r5, sp, #16
1000065a:	4823      	ldr	r0, [pc, #140]	; (100006e8 <texture_mapping+0x94>)
1000065c:	f003 fdd0 	bl	10004200 <__wrap_puts>
10000660:	002a      	movs	r2, r5
10000662:	4b22      	ldr	r3, [pc, #136]	; (100006ec <texture_mapping+0x98>)
10000664:	330c      	adds	r3, #12
10000666:	cb13      	ldmia	r3!, {r0, r1, r4}
10000668:	c213      	stmia	r2!, {r0, r1, r4}
1000066a:	681b      	ldr	r3, [r3, #0]
1000066c:	2180      	movs	r1, #128	; 0x80
1000066e:	6013      	str	r3, [r2, #0]
10000670:	4b1f      	ldr	r3, [pc, #124]	; (100006f0 <texture_mapping+0x9c>)
10000672:	4a20      	ldr	r2, [pc, #128]	; (100006f4 <texture_mapping+0xa0>)
10000674:	0209      	lsls	r1, r1, #8
10000676:	62da      	str	r2, [r3, #44]	; 0x2c
10000678:	4a1f      	ldr	r2, [pc, #124]	; (100006f8 <texture_mapping+0xa4>)
1000067a:	ac01      	add	r4, sp, #4
1000067c:	631a      	str	r2, [r3, #48]	; 0x30
1000067e:	2200      	movs	r2, #0
10000680:	611d      	str	r5, [r3, #16]
10000682:	601a      	str	r2, [r3, #0]
10000684:	6099      	str	r1, [r3, #8]
10000686:	605a      	str	r2, [r3, #4]
10000688:	4a1c      	ldr	r2, [pc, #112]	; (100006fc <texture_mapping+0xa8>)
1000068a:	60da      	str	r2, [r3, #12]
1000068c:	69da      	ldr	r2, [r3, #28]
1000068e:	7812      	ldrb	r2, [r2, #0]
10000690:	7022      	strb	r2, [r4, #0]
10000692:	69da      	ldr	r2, [r3, #28]
10000694:	7812      	ldrb	r2, [r2, #0]
10000696:	7062      	strb	r2, [r4, #1]
10000698:	69da      	ldr	r2, [r3, #28]
1000069a:	7812      	ldrb	r2, [r2, #0]
1000069c:	70a2      	strb	r2, [r4, #2]
1000069e:	69da      	ldr	r2, [r3, #28]
100006a0:	7812      	ldrb	r2, [r2, #0]
100006a2:	70e2      	strb	r2, [r4, #3]
100006a4:	69da      	ldr	r2, [r3, #28]
100006a6:	7812      	ldrb	r2, [r2, #0]
100006a8:	7122      	strb	r2, [r4, #4]
100006aa:	69da      	ldr	r2, [r3, #28]
100006ac:	7812      	ldrb	r2, [r2, #0]
100006ae:	4e14      	ldr	r6, [pc, #80]	; (10000700 <texture_mapping+0xac>)
100006b0:	7162      	strb	r2, [r4, #5]
100006b2:	69da      	ldr	r2, [r3, #28]
100006b4:	7812      	ldrb	r2, [r2, #0]
100006b6:	71a2      	strb	r2, [r4, #6]
100006b8:	69da      	ldr	r2, [r3, #28]
100006ba:	7812      	ldrb	r2, [r2, #0]
100006bc:	71e2      	strb	r2, [r4, #7]
100006be:	69da      	ldr	r2, [r3, #28]
100006c0:	7812      	ldrb	r2, [r2, #0]
100006c2:	7222      	strb	r2, [r4, #8]
100006c4:	69da      	ldr	r2, [r3, #28]
100006c6:	7812      	ldrb	r2, [r2, #0]
100006c8:	7262      	strb	r2, [r4, #9]
100006ca:	69da      	ldr	r2, [r3, #28]
100006cc:	7812      	ldrb	r2, [r2, #0]
100006ce:	72a2      	strb	r2, [r4, #10]
100006d0:	69db      	ldr	r3, [r3, #28]
100006d2:	781b      	ldrb	r3, [r3, #0]
100006d4:	72e3      	strb	r3, [r4, #11]
100006d6:	7821      	ldrb	r1, [r4, #0]
100006d8:	0030      	movs	r0, r6
100006da:	3401      	adds	r4, #1
100006dc:	f003 fe40 	bl	10004360 <__wrap_printf>
100006e0:	42a5      	cmp	r5, r4
100006e2:	d1f8      	bne.n	100006d6 <texture_mapping+0x82>
100006e4:	b008      	add	sp, #32
100006e6:	bd70      	pop	{r4, r5, r6, pc}
100006e8:	10004ec0 	.word	0x10004ec0
100006ec:	10004f0c 	.word	0x10004f0c
100006f0:	d0000080 	.word	0xd0000080
100006f4:	00040410 	.word	0x00040410
100006f8:	00040c4e 	.word	0x00040c4e
100006fc:	00005555 	.word	0x00005555
10000700:	10004eec 	.word	0x10004eec

10000704 <main>:
10000704:	b510      	push	{r4, lr}
10000706:	f003 fe37 	bl	10004378 <stdio_init_all>
1000070a:	480b      	ldr	r0, [pc, #44]	; (10000738 <main+0x34>)
1000070c:	f003 fd78 	bl	10004200 <__wrap_puts>
10000710:	f7ff fe06 	bl	10000320 <times_table>
10000714:	f7ff fe20 	bl	10000358 <moving_mask>
10000718:	f7ff fe60 	bl	100003dc <cross_lanes>
1000071c:	f7ff fe82 	bl	10000424 <simple_blend1>
10000720:	f7ff feaa 	bl	10000478 <simple_blend2>
10000724:	f7ff fef2 	bl	1000050c <simple_blend3>
10000728:	f7ff ff70 	bl	1000060c <clamp>
1000072c:	f7ff ff1c 	bl	10000568 <linear_interpolation>
10000730:	f7ff ff90 	bl	10000654 <texture_mapping>
10000734:	2000      	movs	r0, #0
10000736:	bd10      	pop	{r4, pc}
10000738:	10004ef4 	.word	0x10004ef4

1000073c <gpio_set_function>:
1000073c:	4a09      	ldr	r2, [pc, #36]	; (10000764 <gpio_set_function+0x28>)
1000073e:	0083      	lsls	r3, r0, #2
10000740:	4694      	mov	ip, r2
10000742:	2240      	movs	r2, #64	; 0x40
10000744:	4463      	add	r3, ip
10000746:	b510      	push	{r4, lr}
10000748:	681c      	ldr	r4, [r3, #0]
1000074a:	00c0      	lsls	r0, r0, #3
1000074c:	4062      	eors	r2, r4
1000074e:	24c0      	movs	r4, #192	; 0xc0
10000750:	4014      	ands	r4, r2
10000752:	2280      	movs	r2, #128	; 0x80
10000754:	0152      	lsls	r2, r2, #5
10000756:	4313      	orrs	r3, r2
10000758:	601c      	str	r4, [r3, #0]
1000075a:	4b03      	ldr	r3, [pc, #12]	; (10000768 <gpio_set_function+0x2c>)
1000075c:	469c      	mov	ip, r3
1000075e:	4460      	add	r0, ip
10000760:	6041      	str	r1, [r0, #4]
10000762:	bd10      	pop	{r4, pc}
10000764:	4001c004 	.word	0x4001c004
10000768:	40014000 	.word	0x40014000

1000076c <hw_claim_or_assert>:
1000076c:	b5f8      	push	{r3, r4, r5, r6, r7, lr}
1000076e:	46ce      	mov	lr, r9
10000770:	4647      	mov	r7, r8
10000772:	4691      	mov	r9, r2
10000774:	b580      	push	{r7, lr}
10000776:	f3ef 8710 	mrs	r7, PRIMASK
1000077a:	b672      	cpsid	i
1000077c:	4e12      	ldr	r6, [pc, #72]	; (100007c8 <hw_claim_or_assert+0x5c>)
1000077e:	6833      	ldr	r3, [r6, #0]
10000780:	2b00      	cmp	r3, #0
10000782:	d0fc      	beq.n	1000077e <hw_claim_or_assert+0x12>
10000784:	f3bf 8f5f 	dmb	sy
10000788:	08cb      	lsrs	r3, r1, #3
1000078a:	5cc5      	ldrb	r5, [r0, r3]
1000078c:	2407      	movs	r4, #7
1000078e:	18c2      	adds	r2, r0, r3
10000790:	0028      	movs	r0, r5
10000792:	2301      	movs	r3, #1
10000794:	400c      	ands	r4, r1
10000796:	4694      	mov	ip, r2
10000798:	40e0      	lsrs	r0, r4
1000079a:	001a      	movs	r2, r3
1000079c:	4002      	ands	r2, r0
1000079e:	4690      	mov	r8, r2
100007a0:	4203      	tst	r3, r0
100007a2:	d10d      	bne.n	100007c0 <hw_claim_or_assert+0x54>
100007a4:	40a3      	lsls	r3, r4
100007a6:	4662      	mov	r2, ip
100007a8:	432b      	orrs	r3, r5
100007aa:	7013      	strb	r3, [r2, #0]
100007ac:	f3bf 8f5f 	dmb	sy
100007b0:	4643      	mov	r3, r8
100007b2:	6033      	str	r3, [r6, #0]
100007b4:	f387 8810 	msr	PRIMASK, r7
100007b8:	bc0c      	pop	{r2, r3}
100007ba:	4690      	mov	r8, r2
100007bc:	4699      	mov	r9, r3
100007be:	bdf8      	pop	{r3, r4, r5, r6, r7, pc}
100007c0:	4648      	mov	r0, r9
100007c2:	f000 fe53 	bl	1000146c <panic>
100007c6:	46c0      	nop			; (mov r8, r8)
100007c8:	d000012c 	.word	0xd000012c

100007cc <spin_locks_reset>:
100007cc:	2100      	movs	r1, #0
100007ce:	4b04      	ldr	r3, [pc, #16]	; (100007e0 <spin_locks_reset+0x14>)
100007d0:	4a04      	ldr	r2, [pc, #16]	; (100007e4 <spin_locks_reset+0x18>)
100007d2:	f3bf 8f5f 	dmb	sy
100007d6:	c302      	stmia	r3!, {r1}
100007d8:	4293      	cmp	r3, r2
100007da:	d1fa      	bne.n	100007d2 <spin_locks_reset+0x6>
100007dc:	4770      	bx	lr
100007de:	46c0      	nop			; (mov r8, r8)
100007e0:	d0000100 	.word	0xd0000100
100007e4:	d0000180 	.word	0xd0000180

100007e8 <next_striped_spin_lock_num>:
100007e8:	4a04      	ldr	r2, [pc, #16]	; (100007fc <next_striped_spin_lock_num+0x14>)
100007ea:	7810      	ldrb	r0, [r2, #0]
100007ec:	1c43      	adds	r3, r0, #1
100007ee:	b2db      	uxtb	r3, r3
100007f0:	2b17      	cmp	r3, #23
100007f2:	d900      	bls.n	100007f6 <next_striped_spin_lock_num+0xe>
100007f4:	2310      	movs	r3, #16
100007f6:	7013      	strb	r3, [r2, #0]
100007f8:	4770      	bx	lr
100007fa:	46c0      	nop			; (mov r8, r8)
100007fc:	20000188 	.word	0x20000188

10000800 <running_on_fpga>:
10000800:	4b02      	ldr	r3, [pc, #8]	; (1000080c <running_on_fpga+0xc>)
10000802:	6818      	ldr	r0, [r3, #0]
10000804:	0780      	lsls	r0, r0, #30
10000806:	0fc0      	lsrs	r0, r0, #31
10000808:	4770      	bx	lr
1000080a:	46c0      	nop			; (mov r8, r8)
1000080c:	4006c000 	.word	0x4006c000

10000810 <uart_init>:
10000810:	b5f0      	push	{r4, r5, r6, r7, lr}
10000812:	46c6      	mov	lr, r8
10000814:	0005      	movs	r5, r0
10000816:	b500      	push	{lr}
10000818:	2006      	movs	r0, #6
1000081a:	000e      	movs	r6, r1
1000081c:	f000 ffb4 	bl	10001788 <clock_get_hz>
10000820:	2800      	cmp	r0, #0
10000822:	d04d      	beq.n	100008c0 <uart_init+0xb0>
10000824:	4b29      	ldr	r3, [pc, #164]	; (100008cc <uart_init+0xbc>)
10000826:	492a      	ldr	r1, [pc, #168]	; (100008d0 <uart_init+0xc0>)
10000828:	18eb      	adds	r3, r5, r3
1000082a:	425a      	negs	r2, r3
1000082c:	4153      	adcs	r3, r2
1000082e:	2280      	movs	r2, #128	; 0x80
10000830:	03d2      	lsls	r2, r2, #15
10000832:	4694      	mov	ip, r2
10000834:	425b      	negs	r3, r3
10000836:	4013      	ands	r3, r2
10000838:	4a26      	ldr	r2, [pc, #152]	; (100008d4 <uart_init+0xc4>)
1000083a:	4463      	add	r3, ip
1000083c:	6013      	str	r3, [r2, #0]
1000083e:	4a26      	ldr	r2, [pc, #152]	; (100008d8 <uart_init+0xc8>)
10000840:	6013      	str	r3, [r2, #0]
10000842:	001c      	movs	r4, r3
10000844:	688a      	ldr	r2, [r1, #8]
10000846:	4394      	bics	r4, r2
10000848:	d1fb      	bne.n	10000842 <uart_init+0x32>
1000084a:	4b20      	ldr	r3, [pc, #128]	; (100008cc <uart_init+0xbc>)
1000084c:	2180      	movs	r1, #128	; 0x80
1000084e:	18eb      	adds	r3, r5, r3
10000850:	425a      	negs	r2, r3
10000852:	4153      	adcs	r3, r2
10000854:	4a21      	ldr	r2, [pc, #132]	; (100008dc <uart_init+0xcc>)
10000856:	005b      	lsls	r3, r3, #1
10000858:	0049      	lsls	r1, r1, #1
1000085a:	2006      	movs	r0, #6
1000085c:	5299      	strh	r1, [r3, r2]
1000085e:	f000 ff93 	bl	10001788 <clock_get_hz>
10000862:	0031      	movs	r1, r6
10000864:	00c0      	lsls	r0, r0, #3
10000866:	f002 fd01 	bl	1000326c <__wrap___aeabi_uidiv>
1000086a:	267f      	movs	r6, #127	; 0x7f
1000086c:	4b1c      	ldr	r3, [pc, #112]	; (100008e0 <uart_init+0xd0>)
1000086e:	4006      	ands	r6, r0
10000870:	09c7      	lsrs	r7, r0, #7
10000872:	3601      	adds	r6, #1
10000874:	0876      	lsrs	r6, r6, #1
10000876:	626f      	str	r7, [r5, #36]	; 0x24
10000878:	429f      	cmp	r7, r3
1000087a:	d024      	beq.n	100008c6 <uart_init+0xb6>
1000087c:	62ae      	str	r6, [r5, #40]	; 0x28
1000087e:	232c      	movs	r3, #44	; 0x2c
10000880:	4698      	mov	r8, r3
10000882:	2480      	movs	r4, #128	; 0x80
10000884:	44a8      	add	r8, r5
10000886:	4643      	mov	r3, r8
10000888:	01a4      	lsls	r4, r4, #6
1000088a:	431c      	orrs	r4, r3
1000088c:	2300      	movs	r3, #0
1000088e:	2006      	movs	r0, #6
10000890:	6023      	str	r3, [r4, #0]
10000892:	f000 ff79 	bl	10001788 <clock_get_hz>
10000896:	01b9      	lsls	r1, r7, #6
10000898:	1989      	adds	r1, r1, r6
1000089a:	0080      	lsls	r0, r0, #2
1000089c:	f002 fce6 	bl	1000326c <__wrap___aeabi_uidiv>
100008a0:	2360      	movs	r3, #96	; 0x60
100008a2:	6aea      	ldr	r2, [r5, #44]	; 0x2c
100008a4:	4641      	mov	r1, r8
100008a6:	4053      	eors	r3, r2
100008a8:	226e      	movs	r2, #110	; 0x6e
100008aa:	401a      	ands	r2, r3
100008ac:	2380      	movs	r3, #128	; 0x80
100008ae:	015b      	lsls	r3, r3, #5
100008b0:	430b      	orrs	r3, r1
100008b2:	601a      	str	r2, [r3, #0]
100008b4:	4b0b      	ldr	r3, [pc, #44]	; (100008e4 <uart_init+0xd4>)
100008b6:	632b      	str	r3, [r5, #48]	; 0x30
100008b8:	2310      	movs	r3, #16
100008ba:	6023      	str	r3, [r4, #0]
100008bc:	3b0d      	subs	r3, #13
100008be:	64ab      	str	r3, [r5, #72]	; 0x48
100008c0:	bc04      	pop	{r2}
100008c2:	4690      	mov	r8, r2
100008c4:	bdf0      	pop	{r4, r5, r6, r7, pc}
100008c6:	62ac      	str	r4, [r5, #40]	; 0x28
100008c8:	e7d9      	b.n	1000087e <uart_init+0x6e>
100008ca:	46c0      	nop			; (mov r8, r8)
100008cc:	bffc8000 	.word	0xbffc8000
100008d0:	4000c000 	.word	0x4000c000
100008d4:	4000e000 	.word	0x4000e000
100008d8:	4000f000 	.word	0x4000f000
100008dc:	20000b2c 	.word	0x20000b2c
100008e0:	0000ffff 	.word	0x0000ffff
100008e4:	00000301 	.word	0x00000301

100008e8 <timer_pool_entry_comparator>:
100008e8:	6883      	ldr	r3, [r0, #8]
100008ea:	480b      	ldr	r0, [pc, #44]	; (10000918 <timer_pool_entry_comparator+0x30>)
100008ec:	b510      	push	{r4, lr}
100008ee:	4684      	mov	ip, r0
100008f0:	4461      	add	r1, ip
100008f2:	4462      	add	r2, ip
100008f4:	0109      	lsls	r1, r1, #4
100008f6:	0112      	lsls	r2, r2, #4
100008f8:	189a      	adds	r2, r3, r2
100008fa:	1859      	adds	r1, r3, r1
100008fc:	6854      	ldr	r4, [r2, #4]
100008fe:	684b      	ldr	r3, [r1, #4]
10000900:	2001      	movs	r0, #1
10000902:	429c      	cmp	r4, r3
10000904:	d801      	bhi.n	1000090a <timer_pool_entry_comparator+0x22>
10000906:	d002      	beq.n	1000090e <timer_pool_entry_comparator+0x26>
10000908:	2000      	movs	r0, #0
1000090a:	b2c0      	uxtb	r0, r0
1000090c:	bd10      	pop	{r4, pc}
1000090e:	6812      	ldr	r2, [r2, #0]
10000910:	680b      	ldr	r3, [r1, #0]
10000912:	429a      	cmp	r2, r3
10000914:	d8f9      	bhi.n	1000090a <timer_pool_entry_comparator+0x22>
10000916:	e7f7      	b.n	10000908 <timer_pool_entry_comparator+0x20>
10000918:	0fffffff 	.word	0x0fffffff

1000091c <add_alarm_under_lock>:
1000091c:	b5f0      	push	{r4, r5, r6, r7, lr}
1000091e:	4657      	mov	r7, sl
10000920:	4645      	mov	r5, r8
10000922:	46de      	mov	lr, fp
10000924:	464e      	mov	r6, r9
10000926:	b5e0      	push	{r5, r6, r7, lr}
10000928:	b083      	sub	sp, #12
1000092a:	001f      	movs	r7, r3
1000092c:	ab0f      	add	r3, sp, #60	; 0x3c
1000092e:	781b      	ldrb	r3, [r3, #0]
10000930:	9c0e      	ldr	r4, [sp, #56]	; 0x38
10000932:	0005      	movs	r5, r0
10000934:	4692      	mov	sl, r2
10000936:	9301      	str	r3, [sp, #4]
10000938:	2c00      	cmp	r4, #0
1000093a:	d10d      	bne.n	10000958 <add_alarm_under_lock+0x3c>
1000093c:	6802      	ldr	r2, [r0, #0]
1000093e:	7b94      	ldrb	r4, [r2, #14]
10000940:	2c00      	cmp	r4, #0
10000942:	d056      	beq.n	100009f2 <add_alarm_under_lock+0xd6>
10000944:	6811      	ldr	r1, [r2, #0]
10000946:	0063      	lsls	r3, r4, #1
10000948:	468c      	mov	ip, r1
1000094a:	191b      	adds	r3, r3, r4
1000094c:	4463      	add	r3, ip
1000094e:	3b03      	subs	r3, #3
10000950:	785b      	ldrb	r3, [r3, #1]
10000952:	7393      	strb	r3, [r2, #14]
10000954:	2b00      	cmp	r3, #0
10000956:	d054      	beq.n	10000a02 <add_alarm_under_lock+0xe6>
10000958:	68aa      	ldr	r2, [r5, #8]
1000095a:	b2e3      	uxtb	r3, r4
1000095c:	4694      	mov	ip, r2
1000095e:	4652      	mov	r2, sl
10000960:	469b      	mov	fp, r3
10000962:	4b38      	ldr	r3, [pc, #224]	; (10000a44 <add_alarm_under_lock+0x128>)
10000964:	682e      	ldr	r6, [r5, #0]
10000966:	18e3      	adds	r3, r4, r3
10000968:	011b      	lsls	r3, r3, #4
1000096a:	4463      	add	r3, ip
1000096c:	601a      	str	r2, [r3, #0]
1000096e:	9a0c      	ldr	r2, [sp, #48]	; 0x30
10000970:	605f      	str	r7, [r3, #4]
10000972:	609a      	str	r2, [r3, #8]
10000974:	9a0d      	ldr	r2, [sp, #52]	; 0x34
10000976:	60da      	str	r2, [r3, #12]
10000978:	23d0      	movs	r3, #208	; 0xd0
1000097a:	2280      	movs	r2, #128	; 0x80
1000097c:	061b      	lsls	r3, r3, #24
1000097e:	0312      	lsls	r2, r2, #12
10000980:	615a      	str	r2, [r3, #20]
10000982:	0063      	lsls	r3, r4, #1
10000984:	191b      	adds	r3, r3, r4
10000986:	3b03      	subs	r3, #3
10000988:	4698      	mov	r8, r3
1000098a:	2200      	movs	r2, #0
1000098c:	6833      	ldr	r3, [r6, #0]
1000098e:	4443      	add	r3, r8
10000990:	709a      	strb	r2, [r3, #2]
10000992:	705a      	strb	r2, [r3, #1]
10000994:	701a      	strb	r2, [r3, #0]
10000996:	7b73      	ldrb	r3, [r6, #13]
10000998:	4699      	mov	r9, r3
1000099a:	2b00      	cmp	r3, #0
1000099c:	d017      	beq.n	100009ce <add_alarm_under_lock+0xb2>
1000099e:	465a      	mov	r2, fp
100009a0:	0019      	movs	r1, r3
100009a2:	68b0      	ldr	r0, [r6, #8]
100009a4:	6873      	ldr	r3, [r6, #4]
100009a6:	4798      	blx	r3
100009a8:	6832      	ldr	r2, [r6, #0]
100009aa:	2800      	cmp	r0, #0
100009ac:	d12b      	bne.n	10000a06 <add_alarm_under_lock+0xea>
100009ae:	4643      	mov	r3, r8
100009b0:	18d1      	adds	r1, r2, r3
100009b2:	464b      	mov	r3, r9
100009b4:	4658      	mov	r0, fp
100009b6:	005b      	lsls	r3, r3, #1
100009b8:	444b      	add	r3, r9
100009ba:	3b03      	subs	r3, #3
100009bc:	18d3      	adds	r3, r2, r3
100009be:	7098      	strb	r0, [r3, #2]
100009c0:	4640      	mov	r0, r8
100009c2:	5c12      	ldrb	r2, [r2, r0]
100009c4:	2a00      	cmp	r2, #0
100009c6:	d000      	beq.n	100009ca <add_alarm_under_lock+0xae>
100009c8:	705a      	strb	r2, [r3, #1]
100009ca:	464b      	mov	r3, r9
100009cc:	700b      	strb	r3, [r1, #0]
100009ce:	465b      	mov	r3, fp
100009d0:	7373      	strb	r3, [r6, #13]
100009d2:	4652      	mov	r2, sl
100009d4:	003b      	movs	r3, r7
100009d6:	7d28      	ldrb	r0, [r5, #20]
100009d8:	f000 fa1a 	bl	10000e10 <hardware_alarm_set_target>
100009dc:	1e06      	subs	r6, r0, #0
100009de:	d002      	beq.n	100009e6 <add_alarm_under_lock+0xca>
100009e0:	9b01      	ldr	r3, [sp, #4]
100009e2:	2b00      	cmp	r3, #0
100009e4:	d026      	beq.n	10000a34 <add_alarm_under_lock+0x118>
100009e6:	9b10      	ldr	r3, [sp, #64]	; 0x40
100009e8:	2b00      	cmp	r3, #0
100009ea:	d028      	beq.n	10000a3e <add_alarm_under_lock+0x122>
100009ec:	0020      	movs	r0, r4
100009ee:	701e      	strb	r6, [r3, #0]
100009f0:	e000      	b.n	100009f4 <add_alarm_under_lock+0xd8>
100009f2:	2000      	movs	r0, #0
100009f4:	b003      	add	sp, #12
100009f6:	bc3c      	pop	{r2, r3, r4, r5}
100009f8:	4690      	mov	r8, r2
100009fa:	4699      	mov	r9, r3
100009fc:	46a2      	mov	sl, r4
100009fe:	46ab      	mov	fp, r5
10000a00:	bdf0      	pop	{r4, r5, r6, r7, pc}
10000a02:	73d3      	strb	r3, [r2, #15]
10000a04:	e7a8      	b.n	10000958 <add_alarm_under_lock+0x3c>
10000a06:	464b      	mov	r3, r9
10000a08:	005b      	lsls	r3, r3, #1
10000a0a:	444b      	add	r3, r9
10000a0c:	3b03      	subs	r3, #3
10000a0e:	18d1      	adds	r1, r2, r3
10000a10:	468c      	mov	ip, r1
10000a12:	4641      	mov	r1, r8
10000a14:	4648      	mov	r0, r9
10000a16:	1851      	adds	r1, r2, r1
10000a18:	7088      	strb	r0, [r1, #2]
10000a1a:	5cd3      	ldrb	r3, [r2, r3]
10000a1c:	2b00      	cmp	r3, #0
10000a1e:	d000      	beq.n	10000a22 <add_alarm_under_lock+0x106>
10000a20:	704b      	strb	r3, [r1, #1]
10000a22:	465b      	mov	r3, fp
10000a24:	4662      	mov	r2, ip
10000a26:	7013      	strb	r3, [r2, #0]
10000a28:	464b      	mov	r3, r9
10000a2a:	0020      	movs	r0, r4
10000a2c:	7373      	strb	r3, [r6, #13]
10000a2e:	45a1      	cmp	r9, r4
10000a30:	d1e0      	bne.n	100009f4 <add_alarm_under_lock+0xd8>
10000a32:	e7ce      	b.n	100009d2 <add_alarm_under_lock+0xb6>
10000a34:	4659      	mov	r1, fp
10000a36:	6828      	ldr	r0, [r5, #0]
10000a38:	f000 fc48 	bl	100012cc <ph_delete>
10000a3c:	e7d3      	b.n	100009e6 <add_alarm_under_lock+0xca>
10000a3e:	0020      	movs	r0, r4
10000a40:	e7d8      	b.n	100009f4 <add_alarm_under_lock+0xd8>
10000a42:	46c0      	nop			; (mov r8, r8)
10000a44:	0fffffff 	.word	0x0fffffff

10000a48 <alarm_pool_alarm_callback>:
10000a48:	b5f0      	push	{r4, r5, r6, r7, lr}
10000a4a:	46de      	mov	lr, fp
10000a4c:	464e      	mov	r6, r9
10000a4e:	4657      	mov	r7, sl
10000a50:	4645      	mov	r5, r8
10000a52:	2300      	movs	r3, #0
10000a54:	b5e0      	push	{r5, r6, r7, lr}
10000a56:	b08d      	sub	sp, #52	; 0x34
10000a58:	930a      	str	r3, [sp, #40]	; 0x28
10000a5a:	4b71      	ldr	r3, [pc, #452]	; (10000c20 <alarm_pool_alarm_callback+0x1d8>)
10000a5c:	0082      	lsls	r2, r0, #2
10000a5e:	58d3      	ldr	r3, [r2, r3]
10000a60:	900b      	str	r0, [sp, #44]	; 0x2c
10000a62:	4699      	mov	r9, r3
10000a64:	2300      	movs	r3, #0
10000a66:	469b      	mov	fp, r3
10000a68:	464b      	mov	r3, r9
10000a6a:	9307      	str	r3, [sp, #28]
10000a6c:	f000 f980 	bl	10000d70 <time_us_64>
10000a70:	9c07      	ldr	r4, [sp, #28]
10000a72:	0006      	movs	r6, r0
10000a74:	000f      	movs	r7, r1
10000a76:	6862      	ldr	r2, [r4, #4]
10000a78:	f3ef 8510 	mrs	r5, PRIMASK
10000a7c:	b672      	cpsid	i
10000a7e:	6813      	ldr	r3, [r2, #0]
10000a80:	2b00      	cmp	r3, #0
10000a82:	d0fc      	beq.n	10000a7e <alarm_pool_alarm_callback+0x36>
10000a84:	0022      	movs	r2, r4
10000a86:	9407      	str	r4, [sp, #28]
10000a88:	f3bf 8f5f 	dmb	sy
10000a8c:	6824      	ldr	r4, [r4, #0]
10000a8e:	7b63      	ldrb	r3, [r4, #13]
10000a90:	4699      	mov	r9, r3
10000a92:	2b00      	cmp	r3, #0
10000a94:	d100      	bne.n	10000a98 <alarm_pool_alarm_callback+0x50>
10000a96:	e070      	b.n	10000b7a <alarm_pool_alarm_callback+0x132>
10000a98:	6892      	ldr	r2, [r2, #8]
10000a9a:	4b62      	ldr	r3, [pc, #392]	; (10000c24 <alarm_pool_alarm_callback+0x1dc>)
10000a9c:	4690      	mov	r8, r2
10000a9e:	444b      	add	r3, r9
10000aa0:	011b      	lsls	r3, r3, #4
10000aa2:	4498      	add	r8, r3
10000aa4:	4643      	mov	r3, r8
10000aa6:	681a      	ldr	r2, [r3, #0]
10000aa8:	685b      	ldr	r3, [r3, #4]
10000aaa:	0010      	movs	r0, r2
10000aac:	0019      	movs	r1, r3
10000aae:	1b80      	subs	r0, r0, r6
10000ab0:	41b9      	sbcs	r1, r7
10000ab2:	2900      	cmp	r1, #0
10000ab4:	dd68      	ble.n	10000b88 <alarm_pool_alarm_callback+0x140>
10000ab6:	980b      	ldr	r0, [sp, #44]	; 0x2c
10000ab8:	f000 f9aa 	bl	10000e10 <hardware_alarm_set_target>
10000abc:	2300      	movs	r3, #0
10000abe:	2600      	movs	r6, #0
10000ac0:	4698      	mov	r8, r3
10000ac2:	2700      	movs	r7, #0
10000ac4:	469a      	mov	sl, r3
10000ac6:	9c07      	ldr	r4, [sp, #28]
10000ac8:	6863      	ldr	r3, [r4, #4]
10000aca:	f3bf 8f5f 	dmb	sy
10000ace:	465a      	mov	r2, fp
10000ad0:	601a      	str	r2, [r3, #0]
10000ad2:	f385 8810 	msr	PRIMASK, r5
10000ad6:	4653      	mov	r3, sl
10000ad8:	2b00      	cmp	r3, #0
10000ada:	d108      	bne.n	10000aee <alarm_pool_alarm_callback+0xa6>
10000adc:	2800      	cmp	r0, #0
10000ade:	d1c5      	bne.n	10000a6c <alarm_pool_alarm_callback+0x24>
10000ae0:	b00d      	add	sp, #52	; 0x34
10000ae2:	bc3c      	pop	{r2, r3, r4, r5}
10000ae4:	4690      	mov	r8, r2
10000ae6:	4699      	mov	r9, r3
10000ae8:	46a2      	mov	sl, r4
10000aea:	46ab      	mov	fp, r5
10000aec:	bdf0      	pop	{r4, r5, r6, r7, pc}
10000aee:	23d0      	movs	r3, #208	; 0xd0
10000af0:	2280      	movs	r2, #128	; 0x80
10000af2:	2180      	movs	r1, #128	; 0x80
10000af4:	061b      	lsls	r3, r3, #24
10000af6:	0392      	lsls	r2, r2, #14
10000af8:	0309      	lsls	r1, r1, #12
10000afa:	615a      	str	r2, [r3, #20]
10000afc:	6199      	str	r1, [r3, #24]
10000afe:	619a      	str	r2, [r3, #24]
10000b00:	9b0a      	ldr	r3, [sp, #40]	; 0x28
10000b02:	4641      	mov	r1, r8
10000b04:	0218      	lsls	r0, r3, #8
10000b06:	464b      	mov	r3, r9
10000b08:	4318      	orrs	r0, r3
10000b0a:	47d0      	blx	sl
10000b0c:	9008      	str	r0, [sp, #32]
10000b0e:	9109      	str	r1, [sp, #36]	; 0x24
10000b10:	6862      	ldr	r2, [r4, #4]
10000b12:	f3ef 8510 	mrs	r5, PRIMASK
10000b16:	b672      	cpsid	i
10000b18:	6813      	ldr	r3, [r2, #0]
10000b1a:	2b00      	cmp	r3, #0
10000b1c:	d0fc      	beq.n	10000b18 <alarm_pool_alarm_callback+0xd0>
10000b1e:	9407      	str	r4, [sp, #28]
10000b20:	f3bf 8f5f 	dmb	sy
10000b24:	9908      	ldr	r1, [sp, #32]
10000b26:	9a09      	ldr	r2, [sp, #36]	; 0x24
10000b28:	2a00      	cmp	r2, #0
10000b2a:	db49      	blt.n	10000bc0 <alarm_pool_alarm_callback+0x178>
10000b2c:	4311      	orrs	r1, r2
10000b2e:	d003      	beq.n	10000b38 <alarm_pool_alarm_callback+0xf0>
10000b30:	9b07      	ldr	r3, [sp, #28]
10000b32:	691b      	ldr	r3, [r3, #16]
10000b34:	2b00      	cmp	r3, #0
10000b36:	d15e      	bne.n	10000bf6 <alarm_pool_alarm_callback+0x1ae>
10000b38:	9b07      	ldr	r3, [sp, #28]
10000b3a:	681b      	ldr	r3, [r3, #0]
10000b3c:	7bda      	ldrb	r2, [r3, #15]
10000b3e:	2a00      	cmp	r2, #0
10000b40:	d007      	beq.n	10000b52 <alarm_pool_alarm_callback+0x10a>
10000b42:	0051      	lsls	r1, r2, #1
10000b44:	188a      	adds	r2, r1, r2
10000b46:	6819      	ldr	r1, [r3, #0]
10000b48:	468c      	mov	ip, r1
10000b4a:	4649      	mov	r1, r9
10000b4c:	4462      	add	r2, ip
10000b4e:	3a03      	subs	r2, #3
10000b50:	7051      	strb	r1, [r2, #1]
10000b52:	464a      	mov	r2, r9
10000b54:	73da      	strb	r2, [r3, #15]
10000b56:	464b      	mov	r3, r9
10000b58:	9a07      	ldr	r2, [sp, #28]
10000b5a:	3b01      	subs	r3, #1
10000b5c:	68d1      	ldr	r1, [r2, #12]
10000b5e:	5cca      	ldrb	r2, [r1, r3]
10000b60:	3201      	adds	r2, #1
10000b62:	54ca      	strb	r2, [r1, r3]
10000b64:	465b      	mov	r3, fp
10000b66:	9a07      	ldr	r2, [sp, #28]
10000b68:	6113      	str	r3, [r2, #16]
10000b6a:	6853      	ldr	r3, [r2, #4]
10000b6c:	f3bf 8f5f 	dmb	sy
10000b70:	465a      	mov	r2, fp
10000b72:	601a      	str	r2, [r3, #0]
10000b74:	f385 8810 	msr	PRIMASK, r5
10000b78:	e778      	b.n	10000a6c <alarm_pool_alarm_callback+0x24>
10000b7a:	2300      	movs	r3, #0
10000b7c:	2600      	movs	r6, #0
10000b7e:	4698      	mov	r8, r3
10000b80:	2700      	movs	r7, #0
10000b82:	469a      	mov	sl, r3
10000b84:	2000      	movs	r0, #0
10000b86:	e79e      	b.n	10000ac6 <alarm_pool_alarm_callback+0x7e>
10000b88:	2900      	cmp	r1, #0
10000b8a:	d102      	bne.n	10000b92 <alarm_pool_alarm_callback+0x14a>
10000b8c:	2800      	cmp	r0, #0
10000b8e:	d000      	beq.n	10000b92 <alarm_pool_alarm_callback+0x14a>
10000b90:	e791      	b.n	10000ab6 <alarm_pool_alarm_callback+0x6e>
10000b92:	2101      	movs	r1, #1
10000b94:	0020      	movs	r0, r4
10000b96:	f000 fafb 	bl	10001190 <ph_remove_head_reserve>
10000b9a:	4643      	mov	r3, r8
10000b9c:	681e      	ldr	r6, [r3, #0]
10000b9e:	685f      	ldr	r7, [r3, #4]
10000ba0:	689b      	ldr	r3, [r3, #8]
10000ba2:	9a07      	ldr	r2, [sp, #28]
10000ba4:	469a      	mov	sl, r3
10000ba6:	4643      	mov	r3, r8
10000ba8:	68db      	ldr	r3, [r3, #12]
10000baa:	4698      	mov	r8, r3
10000bac:	68d3      	ldr	r3, [r2, #12]
10000bae:	444b      	add	r3, r9
10000bb0:	3b01      	subs	r3, #1
10000bb2:	781b      	ldrb	r3, [r3, #0]
10000bb4:	930a      	str	r3, [sp, #40]	; 0x28
10000bb6:	021b      	lsls	r3, r3, #8
10000bb8:	4303      	orrs	r3, r0
10000bba:	6113      	str	r3, [r2, #16]
10000bbc:	2000      	movs	r0, #0
10000bbe:	e782      	b.n	10000ac6 <alarm_pool_alarm_callback+0x7e>
10000bc0:	6923      	ldr	r3, [r4, #16]
10000bc2:	2b00      	cmp	r3, #0
10000bc4:	d0b8      	beq.n	10000b38 <alarm_pool_alarm_callback+0xf0>
10000bc6:	0033      	movs	r3, r6
10000bc8:	003c      	movs	r4, r7
10000bca:	1a5b      	subs	r3, r3, r1
10000bcc:	4194      	sbcs	r4, r2
10000bce:	001a      	movs	r2, r3
10000bd0:	0023      	movs	r3, r4
10000bd2:	42a7      	cmp	r7, r4
10000bd4:	d819      	bhi.n	10000c0a <alarm_pool_alarm_callback+0x1c2>
10000bd6:	429f      	cmp	r7, r3
10000bd8:	d01b      	beq.n	10000c12 <alarm_pool_alarm_callback+0x1ca>
10000bda:	4659      	mov	r1, fp
10000bdc:	9104      	str	r1, [sp, #16]
10000bde:	2101      	movs	r1, #1
10000be0:	9103      	str	r1, [sp, #12]
10000be2:	4649      	mov	r1, r9
10000be4:	9102      	str	r1, [sp, #8]
10000be6:	4641      	mov	r1, r8
10000be8:	9101      	str	r1, [sp, #4]
10000bea:	4651      	mov	r1, sl
10000bec:	9807      	ldr	r0, [sp, #28]
10000bee:	9100      	str	r1, [sp, #0]
10000bf0:	f7ff fe94 	bl	1000091c <add_alarm_under_lock>
10000bf4:	e7b6      	b.n	10000b64 <alarm_pool_alarm_callback+0x11c>
10000bf6:	f000 f8bb 	bl	10000d70 <time_us_64>
10000bfa:	9a08      	ldr	r2, [sp, #32]
10000bfc:	9b09      	ldr	r3, [sp, #36]	; 0x24
10000bfe:	0006      	movs	r6, r0
10000c00:	000f      	movs	r7, r1
10000c02:	1992      	adds	r2, r2, r6
10000c04:	417b      	adcs	r3, r7
10000c06:	4299      	cmp	r1, r3
10000c08:	d9e5      	bls.n	10000bd6 <alarm_pool_alarm_callback+0x18e>
10000c0a:	2201      	movs	r2, #1
10000c0c:	4252      	negs	r2, r2
10000c0e:	17d3      	asrs	r3, r2, #31
10000c10:	e7e3      	b.n	10000bda <alarm_pool_alarm_callback+0x192>
10000c12:	4296      	cmp	r6, r2
10000c14:	d9e1      	bls.n	10000bda <alarm_pool_alarm_callback+0x192>
10000c16:	2201      	movs	r2, #1
10000c18:	4252      	negs	r2, r2
10000c1a:	17d3      	asrs	r3, r2, #31
10000c1c:	e7dd      	b.n	10000bda <alarm_pool_alarm_callback+0x192>
10000c1e:	46c0      	nop			; (mov r8, r8)
10000c20:	20000b08 	.word	0x20000b08
10000c24:	0fffffff 	.word	0x0fffffff

10000c28 <alarm_pool_init_default>:
10000c28:	b570      	push	{r4, r5, r6, lr}
10000c2a:	4c18      	ldr	r4, [pc, #96]	; (10000c8c <alarm_pool_init_default+0x64>)
10000c2c:	6823      	ldr	r3, [r4, #0]
10000c2e:	2b00      	cmp	r3, #0
10000c30:	d000      	beq.n	10000c34 <alarm_pool_init_default+0xc>
10000c32:	bd70      	pop	{r4, r5, r6, pc}
10000c34:	2003      	movs	r0, #3
10000c36:	f000 f88f 	bl	10000d58 <hardware_alarm_claim>
10000c3a:	2003      	movs	r0, #3
10000c3c:	f000 f94a 	bl	10000ed4 <hardware_alarm_cancel>
10000c40:	4913      	ldr	r1, [pc, #76]	; (10000c90 <alarm_pool_init_default+0x68>)
10000c42:	2003      	movs	r0, #3
10000c44:	f000 f89e 	bl	10000d84 <hardware_alarm_set_callback>
10000c48:	2018      	movs	r0, #24
10000c4a:	f003 f9b1 	bl	10003fb0 <__wrap_malloc>
10000c4e:	0005      	movs	r5, r0
10000c50:	f7ff fdca 	bl	100007e8 <next_striped_spin_lock_num>
10000c54:	4b0f      	ldr	r3, [pc, #60]	; (10000c94 <alarm_pool_init_default+0x6c>)
10000c56:	002a      	movs	r2, r5
10000c58:	469c      	mov	ip, r3
10000c5a:	4460      	add	r0, ip
10000c5c:	0080      	lsls	r0, r0, #2
10000c5e:	490e      	ldr	r1, [pc, #56]	; (10000c98 <alarm_pool_init_default+0x70>)
10000c60:	6068      	str	r0, [r5, #4]
10000c62:	2010      	movs	r0, #16
10000c64:	f000 f99e 	bl	10000fa4 <ph_create>
10000c68:	2110      	movs	r1, #16
10000c6a:	6028      	str	r0, [r5, #0]
10000c6c:	2010      	movs	r0, #16
10000c6e:	f003 f9a3 	bl	10003fb8 <__wrap_calloc>
10000c72:	2101      	movs	r1, #1
10000c74:	60a8      	str	r0, [r5, #8]
10000c76:	2010      	movs	r0, #16
10000c78:	f003 f99e 	bl	10003fb8 <__wrap_calloc>
10000c7c:	2303      	movs	r3, #3
10000c7e:	752b      	strb	r3, [r5, #20]
10000c80:	4b06      	ldr	r3, [pc, #24]	; (10000c9c <alarm_pool_init_default+0x74>)
10000c82:	60e8      	str	r0, [r5, #12]
10000c84:	60dd      	str	r5, [r3, #12]
10000c86:	6025      	str	r5, [r4, #0]
10000c88:	e7d3      	b.n	10000c32 <alarm_pool_init_default+0xa>
10000c8a:	46c0      	nop			; (mov r8, r8)
10000c8c:	20000af4 	.word	0x20000af4
10000c90:	10000a49 	.word	0x10000a49
10000c94:	34000040 	.word	0x34000040
10000c98:	100008e9 	.word	0x100008e9
10000c9c:	20000b08 	.word	0x20000b08

10000ca0 <hardware_alarm_irq_handler>:
10000ca0:	b5f0      	push	{r4, r5, r6, r7, lr}
10000ca2:	46d6      	mov	lr, sl
10000ca4:	464f      	mov	r7, r9
10000ca6:	4646      	mov	r6, r8
10000ca8:	b5c0      	push	{r6, r7, lr}
10000caa:	f3ef 8305 	mrs	r3, IPSR
10000cae:	223f      	movs	r2, #63	; 0x3f
10000cb0:	4013      	ands	r3, r2
10000cb2:	0018      	movs	r0, r3
10000cb4:	3810      	subs	r0, #16
10000cb6:	f3ef 8c10 	mrs	ip, PRIMASK
10000cba:	b672      	cpsid	i
10000cbc:	4d20      	ldr	r5, [pc, #128]	; (10000d40 <hardware_alarm_irq_handler+0xa0>)
10000cbe:	682a      	ldr	r2, [r5, #0]
10000cc0:	2a00      	cmp	r2, #0
10000cc2:	d0fc      	beq.n	10000cbe <hardware_alarm_irq_handler+0x1e>
10000cc4:	f3bf 8f5f 	dmb	sy
10000cc8:	2201      	movs	r2, #1
10000cca:	0011      	movs	r1, r2
10000ccc:	4081      	lsls	r1, r0
10000cce:	4c1d      	ldr	r4, [pc, #116]	; (10000d44 <hardware_alarm_irq_handler+0xa4>)
10000cd0:	4688      	mov	r8, r1
10000cd2:	6361      	str	r1, [r4, #52]	; 0x34
10000cd4:	491c      	ldr	r1, [pc, #112]	; (10000d48 <hardware_alarm_irq_handler+0xa8>)
10000cd6:	0017      	movs	r7, r2
10000cd8:	780e      	ldrb	r6, [r1, #0]
10000cda:	468a      	mov	sl, r1
10000cdc:	0031      	movs	r1, r6
10000cde:	40c1      	lsrs	r1, r0
10000ce0:	400f      	ands	r7, r1
10000ce2:	420a      	tst	r2, r1
10000ce4:	d015      	beq.n	10000d12 <hardware_alarm_irq_handler+0x72>
10000ce6:	4919      	ldr	r1, [pc, #100]	; (10000d4c <hardware_alarm_irq_handler+0xac>)
10000ce8:	0082      	lsls	r2, r0, #2
10000cea:	6a64      	ldr	r4, [r4, #36]	; 0x24
10000cec:	5851      	ldr	r1, [r2, r1]
10000cee:	428c      	cmp	r4, r1
10000cf0:	d319      	bcc.n	10000d26 <hardware_alarm_irq_handler+0x86>
10000cf2:	4b17      	ldr	r3, [pc, #92]	; (10000d50 <hardware_alarm_irq_handler+0xb0>)
10000cf4:	58d2      	ldr	r2, [r2, r3]
10000cf6:	4643      	mov	r3, r8
10000cf8:	439e      	bics	r6, r3
10000cfa:	4653      	mov	r3, sl
10000cfc:	701e      	strb	r6, [r3, #0]
10000cfe:	f3bf 8f5f 	dmb	sy
10000d02:	2300      	movs	r3, #0
10000d04:	602b      	str	r3, [r5, #0]
10000d06:	f38c 8810 	msr	PRIMASK, ip
10000d0a:	2a00      	cmp	r2, #0
10000d0c:	d006      	beq.n	10000d1c <hardware_alarm_irq_handler+0x7c>
10000d0e:	4790      	blx	r2
10000d10:	e004      	b.n	10000d1c <hardware_alarm_irq_handler+0x7c>
10000d12:	f3bf 8f5f 	dmb	sy
10000d16:	602f      	str	r7, [r5, #0]
10000d18:	f38c 8810 	msr	PRIMASK, ip
10000d1c:	bc1c      	pop	{r2, r3, r4}
10000d1e:	4690      	mov	r8, r2
10000d20:	4699      	mov	r9, r3
10000d22:	46a2      	mov	sl, r4
10000d24:	bdf0      	pop	{r4, r5, r6, r7, pc}
10000d26:	4a0b      	ldr	r2, [pc, #44]	; (10000d54 <hardware_alarm_irq_handler+0xb4>)
10000d28:	009b      	lsls	r3, r3, #2
10000d2a:	4690      	mov	r8, r2
10000d2c:	4443      	add	r3, r8
10000d2e:	681a      	ldr	r2, [r3, #0]
10000d30:	601a      	str	r2, [r3, #0]
10000d32:	f3bf 8f5f 	dmb	sy
10000d36:	2300      	movs	r3, #0
10000d38:	602b      	str	r3, [r5, #0]
10000d3a:	f38c 8810 	msr	PRIMASK, ip
10000d3e:	e7ed      	b.n	10000d1c <hardware_alarm_irq_handler+0x7c>
10000d40:	d0000128 	.word	0xd0000128
10000d44:	40054000 	.word	0x40054000
10000d48:	20000b2a 	.word	0x20000b2a
10000d4c:	20000b18 	.word	0x20000b18
10000d50:	20000abc 	.word	0x20000abc
10000d54:	40053fd0 	.word	0x40053fd0

10000d58 <hardware_alarm_claim>:
10000d58:	b510      	push	{r4, lr}
10000d5a:	0001      	movs	r1, r0
10000d5c:	4a02      	ldr	r2, [pc, #8]	; (10000d68 <hardware_alarm_claim+0x10>)
10000d5e:	4803      	ldr	r0, [pc, #12]	; (10000d6c <hardware_alarm_claim+0x14>)
10000d60:	f7ff fd04 	bl	1000076c <hw_claim_or_assert>
10000d64:	bd10      	pop	{r4, pc}
10000d66:	46c0      	nop			; (mov r8, r8)
10000d68:	10004f28 	.word	0x10004f28
10000d6c:	20000b28 	.word	0x20000b28

10000d70 <time_us_64>:
10000d70:	4b03      	ldr	r3, [pc, #12]	; (10000d80 <time_us_64+0x10>)
10000d72:	6a59      	ldr	r1, [r3, #36]	; 0x24
10000d74:	000a      	movs	r2, r1
10000d76:	6a98      	ldr	r0, [r3, #40]	; 0x28
10000d78:	6a59      	ldr	r1, [r3, #36]	; 0x24
10000d7a:	428a      	cmp	r2, r1
10000d7c:	d1fa      	bne.n	10000d74 <time_us_64+0x4>
10000d7e:	4770      	bx	lr
10000d80:	40054000 	.word	0x40054000

10000d84 <hardware_alarm_set_callback>:
10000d84:	b570      	push	{r4, r5, r6, lr}
10000d86:	0004      	movs	r4, r0
10000d88:	000d      	movs	r5, r1
10000d8a:	f3ef 8610 	mrs	r6, PRIMASK
10000d8e:	b672      	cpsid	i
10000d90:	4a1a      	ldr	r2, [pc, #104]	; (10000dfc <hardware_alarm_set_callback+0x78>)
10000d92:	6813      	ldr	r3, [r2, #0]
10000d94:	2b00      	cmp	r3, #0
10000d96:	d0fc      	beq.n	10000d92 <hardware_alarm_set_callback+0xe>
10000d98:	f3bf 8f5f 	dmb	sy
10000d9c:	2d00      	cmp	r5, #0
10000d9e:	d01b      	beq.n	10000dd8 <hardware_alarm_set_callback+0x54>
10000da0:	0020      	movs	r0, r4
10000da2:	f000 fd4f 	bl	10001844 <irq_get_vtable_handler>
10000da6:	4916      	ldr	r1, [pc, #88]	; (10000e00 <hardware_alarm_set_callback+0x7c>)
10000da8:	4281      	cmp	r1, r0
10000daa:	d00a      	beq.n	10000dc2 <hardware_alarm_set_callback+0x3e>
10000dac:	0020      	movs	r0, r4
10000dae:	f000 fd51 	bl	10001854 <irq_set_exclusive_handler>
10000db2:	2101      	movs	r1, #1
10000db4:	0020      	movs	r0, r4
10000db6:	f000 fd33 	bl	10001820 <irq_set_enabled>
10000dba:	2301      	movs	r3, #1
10000dbc:	40a3      	lsls	r3, r4
10000dbe:	4a11      	ldr	r2, [pc, #68]	; (10000e04 <hardware_alarm_set_callback+0x80>)
10000dc0:	6013      	str	r3, [r2, #0]
10000dc2:	4b11      	ldr	r3, [pc, #68]	; (10000e08 <hardware_alarm_set_callback+0x84>)
10000dc4:	00a4      	lsls	r4, r4, #2
10000dc6:	50e5      	str	r5, [r4, r3]
10000dc8:	f3bf 8f5f 	dmb	sy
10000dcc:	2200      	movs	r2, #0
10000dce:	4b0b      	ldr	r3, [pc, #44]	; (10000dfc <hardware_alarm_set_callback+0x78>)
10000dd0:	601a      	str	r2, [r3, #0]
10000dd2:	f386 8810 	msr	PRIMASK, r6
10000dd6:	bd70      	pop	{r4, r5, r6, pc}
10000dd8:	4b0b      	ldr	r3, [pc, #44]	; (10000e08 <hardware_alarm_set_callback+0x84>)
10000dda:	00a2      	lsls	r2, r4, #2
10000ddc:	50d5      	str	r5, [r2, r3]
10000dde:	2201      	movs	r2, #1
10000de0:	40a2      	lsls	r2, r4
10000de2:	490a      	ldr	r1, [pc, #40]	; (10000e0c <hardware_alarm_set_callback+0x88>)
10000de4:	0020      	movs	r0, r4
10000de6:	780b      	ldrb	r3, [r1, #0]
10000de8:	4393      	bics	r3, r2
10000dea:	700b      	strb	r3, [r1, #0]
10000dec:	4904      	ldr	r1, [pc, #16]	; (10000e00 <hardware_alarm_set_callback+0x7c>)
10000dee:	f000 fd5b 	bl	100018a8 <irq_remove_handler>
10000df2:	2100      	movs	r1, #0
10000df4:	0020      	movs	r0, r4
10000df6:	f000 fd13 	bl	10001820 <irq_set_enabled>
10000dfa:	e7e5      	b.n	10000dc8 <hardware_alarm_set_callback+0x44>
10000dfc:	d0000128 	.word	0xd0000128
10000e00:	10000ca1 	.word	0x10000ca1
10000e04:	40056038 	.word	0x40056038
10000e08:	20000abc 	.word	0x20000abc
10000e0c:	20000b2a 	.word	0x20000b2a

10000e10 <hardware_alarm_set_target>:
10000e10:	b5f0      	push	{r4, r5, r6, r7, lr}
10000e12:	46ce      	mov	lr, r9
10000e14:	4647      	mov	r7, r8
10000e16:	b580      	push	{r7, lr}
10000e18:	4c2a      	ldr	r4, [pc, #168]	; (10000ec4 <hardware_alarm_set_target+0xb4>)
10000e1a:	6a61      	ldr	r1, [r4, #36]	; 0x24
10000e1c:	000d      	movs	r5, r1
10000e1e:	6aa6      	ldr	r6, [r4, #40]	; 0x28
10000e20:	6a61      	ldr	r1, [r4, #36]	; 0x24
10000e22:	42a9      	cmp	r1, r5
10000e24:	d1fa      	bne.n	10000e1c <hardware_alarm_set_target+0xc>
10000e26:	428b      	cmp	r3, r1
10000e28:	d807      	bhi.n	10000e3a <hardware_alarm_set_target+0x2a>
10000e2a:	d004      	beq.n	10000e36 <hardware_alarm_set_target+0x26>
10000e2c:	2001      	movs	r0, #1
10000e2e:	bc0c      	pop	{r2, r3}
10000e30:	4690      	mov	r8, r2
10000e32:	4699      	mov	r9, r3
10000e34:	bdf0      	pop	{r4, r5, r6, r7, pc}
10000e36:	42b2      	cmp	r2, r6
10000e38:	d9f8      	bls.n	10000e2c <hardware_alarm_set_target+0x1c>
10000e3a:	f3ef 8810 	mrs	r8, PRIMASK
10000e3e:	b672      	cpsid	i
10000e40:	4c21      	ldr	r4, [pc, #132]	; (10000ec8 <hardware_alarm_set_target+0xb8>)
10000e42:	6821      	ldr	r1, [r4, #0]
10000e44:	2900      	cmp	r1, #0
10000e46:	d0fc      	beq.n	10000e42 <hardware_alarm_set_target+0x32>
10000e48:	f3bf 8f5f 	dmb	sy
10000e4c:	2501      	movs	r5, #1
10000e4e:	4085      	lsls	r5, r0
10000e50:	4c1c      	ldr	r4, [pc, #112]	; (10000ec4 <hardware_alarm_set_target+0xb4>)
10000e52:	4e1e      	ldr	r6, [pc, #120]	; (10000ecc <hardware_alarm_set_target+0xbc>)
10000e54:	6365      	str	r5, [r4, #52]	; 0x34
10000e56:	b2e9      	uxtb	r1, r5
10000e58:	468c      	mov	ip, r1
10000e5a:	7831      	ldrb	r1, [r6, #0]
10000e5c:	4689      	mov	r9, r1
10000e5e:	4661      	mov	r1, ip
10000e60:	464f      	mov	r7, r9
10000e62:	4339      	orrs	r1, r7
10000e64:	7031      	strb	r1, [r6, #0]
10000e66:	1d01      	adds	r1, r0, #4
10000e68:	0089      	lsls	r1, r1, #2
10000e6a:	510a      	str	r2, [r1, r4]
10000e6c:	4918      	ldr	r1, [pc, #96]	; (10000ed0 <hardware_alarm_set_target+0xc0>)
10000e6e:	0080      	lsls	r0, r0, #2
10000e70:	5043      	str	r3, [r0, r1]
10000e72:	6a21      	ldr	r1, [r4, #32]
10000e74:	2000      	movs	r0, #0
10000e76:	4229      	tst	r1, r5
10000e78:	d00c      	beq.n	10000e94 <hardware_alarm_set_target+0x84>
10000e7a:	0020      	movs	r0, r4
10000e7c:	6a61      	ldr	r1, [r4, #36]	; 0x24
10000e7e:	000c      	movs	r4, r1
10000e80:	6a87      	ldr	r7, [r0, #40]	; 0x28
10000e82:	6a41      	ldr	r1, [r0, #36]	; 0x24
10000e84:	42a1      	cmp	r1, r4
10000e86:	d1fa      	bne.n	10000e7e <hardware_alarm_set_target+0x6e>
10000e88:	428b      	cmp	r3, r1
10000e8a:	d802      	bhi.n	10000e92 <hardware_alarm_set_target+0x82>
10000e8c:	d10a      	bne.n	10000ea4 <hardware_alarm_set_target+0x94>
10000e8e:	42ba      	cmp	r2, r7
10000e90:	d908      	bls.n	10000ea4 <hardware_alarm_set_target+0x94>
10000e92:	2000      	movs	r0, #0
10000e94:	f3bf 8f5f 	dmb	sy
10000e98:	2200      	movs	r2, #0
10000e9a:	4b0b      	ldr	r3, [pc, #44]	; (10000ec8 <hardware_alarm_set_target+0xb8>)
10000e9c:	601a      	str	r2, [r3, #0]
10000e9e:	f388 8810 	msr	PRIMASK, r8
10000ea2:	e7c4      	b.n	10000e2e <hardware_alarm_set_target+0x1e>
10000ea4:	4b07      	ldr	r3, [pc, #28]	; (10000ec4 <hardware_alarm_set_target+0xb4>)
10000ea6:	464f      	mov	r7, r9
10000ea8:	621d      	str	r5, [r3, #32]
10000eaa:	635d      	str	r5, [r3, #52]	; 0x34
10000eac:	4663      	mov	r3, ip
10000eae:	439f      	bics	r7, r3
10000eb0:	2001      	movs	r0, #1
10000eb2:	7037      	strb	r7, [r6, #0]
10000eb4:	f3bf 8f5f 	dmb	sy
10000eb8:	2200      	movs	r2, #0
10000eba:	4b03      	ldr	r3, [pc, #12]	; (10000ec8 <hardware_alarm_set_target+0xb8>)
10000ebc:	601a      	str	r2, [r3, #0]
10000ebe:	f388 8810 	msr	PRIMASK, r8
10000ec2:	e7b4      	b.n	10000e2e <hardware_alarm_set_target+0x1e>
10000ec4:	40054000 	.word	0x40054000
10000ec8:	d0000128 	.word	0xd0000128
10000ecc:	20000b2a 	.word	0x20000b2a
10000ed0:	20000b18 	.word	0x20000b18

10000ed4 <hardware_alarm_cancel>:
10000ed4:	b510      	push	{r4, lr}
10000ed6:	f3ef 8410 	mrs	r4, PRIMASK
10000eda:	b672      	cpsid	i
10000edc:	490a      	ldr	r1, [pc, #40]	; (10000f08 <hardware_alarm_cancel+0x34>)
10000ede:	680b      	ldr	r3, [r1, #0]
10000ee0:	2b00      	cmp	r3, #0
10000ee2:	d0fc      	beq.n	10000ede <hardware_alarm_cancel+0xa>
10000ee4:	f3bf 8f5f 	dmb	sy
10000ee8:	2301      	movs	r3, #1
10000eea:	4083      	lsls	r3, r0
10000eec:	4a07      	ldr	r2, [pc, #28]	; (10000f0c <hardware_alarm_cancel+0x38>)
10000eee:	4808      	ldr	r0, [pc, #32]	; (10000f10 <hardware_alarm_cancel+0x3c>)
10000ef0:	6213      	str	r3, [r2, #32]
10000ef2:	7802      	ldrb	r2, [r0, #0]
10000ef4:	439a      	bics	r2, r3
10000ef6:	7002      	strb	r2, [r0, #0]
10000ef8:	f3bf 8f5f 	dmb	sy
10000efc:	2300      	movs	r3, #0
10000efe:	600b      	str	r3, [r1, #0]
10000f00:	f384 8810 	msr	PRIMASK, r4
10000f04:	bd10      	pop	{r4, pc}
10000f06:	46c0      	nop			; (mov r8, r8)
10000f08:	d0000128 	.word	0xd0000128
10000f0c:	40054000 	.word	0x40054000
10000f10:	20000b2a 	.word	0x20000b2a

10000f14 <lock_init>:
10000f14:	4b02      	ldr	r3, [pc, #8]	; (10000f20 <lock_init+0xc>)
10000f16:	469c      	mov	ip, r3
10000f18:	4461      	add	r1, ip
10000f1a:	0089      	lsls	r1, r1, #2
10000f1c:	6001      	str	r1, [r0, #0]
10000f1e:	4770      	bx	lr
10000f20:	34000040 	.word	0x34000040

10000f24 <mutex_init>:
10000f24:	b510      	push	{r4, lr}
10000f26:	0004      	movs	r4, r0
10000f28:	f7ff fc5e 	bl	100007e8 <next_striped_spin_lock_num>
10000f2c:	0001      	movs	r1, r0
10000f2e:	0020      	movs	r0, r4
10000f30:	f7ff fff0 	bl	10000f14 <lock_init>
10000f34:	f3bf 8f5f 	dmb	sy
10000f38:	bd10      	pop	{r4, pc}
10000f3a:	46c0      	nop			; (mov r8, r8)

10000f3c <ph_merge_nodes>:
10000f3c:	b570      	push	{r4, r5, r6, lr}
10000f3e:	0005      	movs	r5, r0
10000f40:	000e      	movs	r6, r1
10000f42:	0014      	movs	r4, r2
10000f44:	2900      	cmp	r1, #0
10000f46:	d024      	beq.n	10000f92 <ph_merge_nodes+0x56>
10000f48:	2a00      	cmp	r2, #0
10000f4a:	d024      	beq.n	10000f96 <ph_merge_nodes+0x5a>
10000f4c:	6880      	ldr	r0, [r0, #8]
10000f4e:	686b      	ldr	r3, [r5, #4]
10000f50:	4798      	blx	r3
10000f52:	6829      	ldr	r1, [r5, #0]
10000f54:	2800      	cmp	r0, #0
10000f56:	d00e      	beq.n	10000f76 <ph_merge_nodes+0x3a>
10000f58:	0063      	lsls	r3, r4, #1
10000f5a:	191b      	adds	r3, r3, r4
10000f5c:	0072      	lsls	r2, r6, #1
10000f5e:	3b03      	subs	r3, #3
10000f60:	1992      	adds	r2, r2, r6
10000f62:	18cb      	adds	r3, r1, r3
10000f64:	3a03      	subs	r2, #3
10000f66:	709e      	strb	r6, [r3, #2]
10000f68:	1888      	adds	r0, r1, r2
10000f6a:	5c8a      	ldrb	r2, [r1, r2]
10000f6c:	2a00      	cmp	r2, #0
10000f6e:	d114      	bne.n	10000f9a <ph_merge_nodes+0x5e>
10000f70:	7004      	strb	r4, [r0, #0]
10000f72:	0030      	movs	r0, r6
10000f74:	e00e      	b.n	10000f94 <ph_merge_nodes+0x58>
10000f76:	0073      	lsls	r3, r6, #1
10000f78:	199b      	adds	r3, r3, r6
10000f7a:	0062      	lsls	r2, r4, #1
10000f7c:	3b03      	subs	r3, #3
10000f7e:	1912      	adds	r2, r2, r4
10000f80:	18cb      	adds	r3, r1, r3
10000f82:	3a03      	subs	r2, #3
10000f84:	709c      	strb	r4, [r3, #2]
10000f86:	1888      	adds	r0, r1, r2
10000f88:	5c8a      	ldrb	r2, [r1, r2]
10000f8a:	2a00      	cmp	r2, #0
10000f8c:	d000      	beq.n	10000f90 <ph_merge_nodes+0x54>
10000f8e:	705a      	strb	r2, [r3, #1]
10000f90:	7006      	strb	r6, [r0, #0]
10000f92:	0020      	movs	r0, r4
10000f94:	bd70      	pop	{r4, r5, r6, pc}
10000f96:	0008      	movs	r0, r1
10000f98:	e7fc      	b.n	10000f94 <ph_merge_nodes+0x58>
10000f9a:	705a      	strb	r2, [r3, #1]
10000f9c:	7004      	strb	r4, [r0, #0]
10000f9e:	0030      	movs	r0, r6
10000fa0:	e7f8      	b.n	10000f94 <ph_merge_nodes+0x58>
10000fa2:	46c0      	nop			; (mov r8, r8)

10000fa4 <ph_create>:
10000fa4:	b5f0      	push	{r4, r5, r6, r7, lr}
10000fa6:	46c6      	mov	lr, r8
10000fa8:	0005      	movs	r5, r0
10000faa:	000f      	movs	r7, r1
10000fac:	b500      	push	{lr}
10000fae:	2110      	movs	r1, #16
10000fb0:	2001      	movs	r0, #1
10000fb2:	0016      	movs	r6, r2
10000fb4:	f003 f800 	bl	10003fb8 <__wrap_calloc>
10000fb8:	b2eb      	uxtb	r3, r5
10000fba:	0004      	movs	r4, r0
10000fbc:	7303      	strb	r3, [r0, #12]
10000fbe:	2103      	movs	r1, #3
10000fc0:	6047      	str	r7, [r0, #4]
10000fc2:	0028      	movs	r0, r5
10000fc4:	4698      	mov	r8, r3
10000fc6:	f002 fff7 	bl	10003fb8 <__wrap_calloc>
10000fca:	2300      	movs	r3, #0
10000fcc:	7363      	strb	r3, [r4, #13]
10000fce:	3301      	adds	r3, #1
10000fd0:	73a3      	strb	r3, [r4, #14]
10000fd2:	4643      	mov	r3, r8
10000fd4:	21ff      	movs	r1, #255	; 0xff
10000fd6:	73e3      	strb	r3, [r4, #15]
10000fd8:	23fe      	movs	r3, #254	; 0xfe
10000fda:	6020      	str	r0, [r4, #0]
10000fdc:	60a6      	str	r6, [r4, #8]
10000fde:	4029      	ands	r1, r5
10000fe0:	422b      	tst	r3, r5
10000fe2:	d006      	beq.n	10000ff2 <ph_create+0x4e>
10000fe4:	1c42      	adds	r2, r0, #1
10000fe6:	3bfd      	subs	r3, #253	; 0xfd
10000fe8:	3301      	adds	r3, #1
10000fea:	7013      	strb	r3, [r2, #0]
10000fec:	3203      	adds	r2, #3
10000fee:	428b      	cmp	r3, r1
10000ff0:	d3fa      	bcc.n	10000fe8 <ph_create+0x44>
10000ff2:	004b      	lsls	r3, r1, #1
10000ff4:	1859      	adds	r1, r3, r1
10000ff6:	2300      	movs	r3, #0
10000ff8:	1840      	adds	r0, r0, r1
10000ffa:	3803      	subs	r0, #3
10000ffc:	7043      	strb	r3, [r0, #1]
10000ffe:	0020      	movs	r0, r4
10001000:	bc04      	pop	{r2}
10001002:	4690      	mov	r8, r2
10001004:	bdf0      	pop	{r4, r5, r6, r7, pc}
10001006:	46c0      	nop			; (mov r8, r8)

10001008 <ph_merge_two_pass>:
10001008:	b5f8      	push	{r3, r4, r5, r6, r7, lr}
1000100a:	46ce      	mov	lr, r9
1000100c:	4647      	mov	r7, r8
1000100e:	0006      	movs	r6, r0
10001010:	000c      	movs	r4, r1
10001012:	b580      	push	{r7, lr}
10001014:	2900      	cmp	r1, #0
10001016:	d007      	beq.n	10001028 <ph_merge_two_pass+0x20>
10001018:	004d      	lsls	r5, r1, #1
1000101a:	6803      	ldr	r3, [r0, #0]
1000101c:	186d      	adds	r5, r5, r1
1000101e:	3d03      	subs	r5, #3
10001020:	195a      	adds	r2, r3, r5
10001022:	7857      	ldrb	r7, [r2, #1]
10001024:	2f00      	cmp	r7, #0
10001026:	d104      	bne.n	10001032 <ph_merge_two_pass+0x2a>
10001028:	0020      	movs	r0, r4
1000102a:	bc0c      	pop	{r2, r3}
1000102c:	4690      	mov	r8, r2
1000102e:	4699      	mov	r9, r3
10001030:	bdf8      	pop	{r3, r4, r5, r6, r7, pc}
10001032:	0079      	lsls	r1, r7, #1
10001034:	19c9      	adds	r1, r1, r7
10001036:	3903      	subs	r1, #3
10001038:	4688      	mov	r8, r1
1000103a:	4443      	add	r3, r8
1000103c:	7859      	ldrb	r1, [r3, #1]
1000103e:	4689      	mov	r9, r1
10001040:	2100      	movs	r1, #0
10001042:	7059      	strb	r1, [r3, #1]
10001044:	7051      	strb	r1, [r2, #1]
10001046:	6873      	ldr	r3, [r6, #4]
10001048:	003a      	movs	r2, r7
1000104a:	0021      	movs	r1, r4
1000104c:	6880      	ldr	r0, [r0, #8]
1000104e:	4798      	blx	r3
10001050:	6833      	ldr	r3, [r6, #0]
10001052:	2800      	cmp	r0, #0
10001054:	d014      	beq.n	10001080 <ph_merge_two_pass+0x78>
10001056:	4642      	mov	r2, r8
10001058:	189a      	adds	r2, r3, r2
1000105a:	7094      	strb	r4, [r2, #2]
1000105c:	1959      	adds	r1, r3, r5
1000105e:	5d5b      	ldrb	r3, [r3, r5]
10001060:	2b00      	cmp	r3, #0
10001062:	d000      	beq.n	10001066 <ph_merge_two_pass+0x5e>
10001064:	7053      	strb	r3, [r2, #1]
10001066:	700f      	strb	r7, [r1, #0]
10001068:	0027      	movs	r7, r4
1000106a:	4649      	mov	r1, r9
1000106c:	0030      	movs	r0, r6
1000106e:	f7ff ffcb 	bl	10001008 <ph_merge_two_pass>
10001072:	0039      	movs	r1, r7
10001074:	0002      	movs	r2, r0
10001076:	0030      	movs	r0, r6
10001078:	f7ff ff60 	bl	10000f3c <ph_merge_nodes>
1000107c:	0004      	movs	r4, r0
1000107e:	e7d3      	b.n	10001028 <ph_merge_two_pass+0x20>
10001080:	4642      	mov	r2, r8
10001082:	4641      	mov	r1, r8
10001084:	195d      	adds	r5, r3, r5
10001086:	70af      	strb	r7, [r5, #2]
10001088:	189a      	adds	r2, r3, r2
1000108a:	5c5b      	ldrb	r3, [r3, r1]
1000108c:	2b00      	cmp	r3, #0
1000108e:	d000      	beq.n	10001092 <ph_merge_two_pass+0x8a>
10001090:	706b      	strb	r3, [r5, #1]
10001092:	7014      	strb	r4, [r2, #0]
10001094:	e7e9      	b.n	1000106a <ph_merge_two_pass+0x62>
10001096:	46c0      	nop			; (mov r8, r8)

10001098 <ph_remove_any_head>:
10001098:	b5f0      	push	{r4, r5, r6, r7, lr}
1000109a:	4657      	mov	r7, sl
1000109c:	4645      	mov	r5, r8
1000109e:	46de      	mov	lr, fp
100010a0:	464e      	mov	r6, r9
100010a2:	b5e0      	push	{r5, r6, r7, lr}
100010a4:	000d      	movs	r5, r1
100010a6:	006b      	lsls	r3, r5, #1
100010a8:	6801      	ldr	r1, [r0, #0]
100010aa:	195b      	adds	r3, r3, r5
100010ac:	1edf      	subs	r7, r3, #3
100010ae:	0004      	movs	r4, r0
100010b0:	5dc8      	ldrb	r0, [r1, r7]
100010b2:	b083      	sub	sp, #12
100010b4:	9201      	str	r2, [sp, #4]
100010b6:	19ca      	adds	r2, r1, r7
100010b8:	2800      	cmp	r0, #0
100010ba:	d04c      	beq.n	10001156 <ph_remove_any_head+0xbe>
100010bc:	0043      	lsls	r3, r0, #1
100010be:	181b      	adds	r3, r3, r0
100010c0:	3b03      	subs	r3, #3
100010c2:	18cb      	adds	r3, r1, r3
100010c4:	785e      	ldrb	r6, [r3, #1]
100010c6:	46b4      	mov	ip, r6
100010c8:	2e00      	cmp	r6, #0
100010ca:	d116      	bne.n	100010fa <ph_remove_any_head+0x62>
100010cc:	9e01      	ldr	r6, [sp, #4]
100010ce:	2e00      	cmp	r6, #0
100010d0:	d13e      	bne.n	10001150 <ph_remove_any_head+0xb8>
100010d2:	7be6      	ldrb	r6, [r4, #15]
100010d4:	2e00      	cmp	r6, #0
100010d6:	d004      	beq.n	100010e2 <ph_remove_any_head+0x4a>
100010d8:	0073      	lsls	r3, r6, #1
100010da:	199b      	adds	r3, r3, r6
100010dc:	18cb      	adds	r3, r1, r3
100010de:	3b03      	subs	r3, #3
100010e0:	705d      	strb	r5, [r3, #1]
100010e2:	73e5      	strb	r5, [r4, #15]
100010e4:	2800      	cmp	r0, #0
100010e6:	d12f      	bne.n	10001148 <ph_remove_any_head+0xb0>
100010e8:	2300      	movs	r3, #0
100010ea:	7053      	strb	r3, [r2, #1]
100010ec:	b003      	add	sp, #12
100010ee:	bc3c      	pop	{r2, r3, r4, r5}
100010f0:	4690      	mov	r8, r2
100010f2:	4699      	mov	r9, r3
100010f4:	46a2      	mov	sl, r4
100010f6:	46ab      	mov	fp, r5
100010f8:	bdf0      	pop	{r4, r5, r6, r7, pc}
100010fa:	0072      	lsls	r2, r6, #1
100010fc:	4462      	add	r2, ip
100010fe:	3a03      	subs	r2, #3
10001100:	1889      	adds	r1, r1, r2
10001102:	784a      	ldrb	r2, [r1, #1]
10001104:	4690      	mov	r8, r2
10001106:	2200      	movs	r2, #0
10001108:	704a      	strb	r2, [r1, #1]
1000110a:	4691      	mov	r9, r2
1000110c:	705a      	strb	r2, [r3, #1]
1000110e:	0001      	movs	r1, r0
10001110:	0032      	movs	r2, r6
10001112:	0020      	movs	r0, r4
10001114:	f7ff ff12 	bl	10000f3c <ph_merge_nodes>
10001118:	4643      	mov	r3, r8
1000111a:	4682      	mov	sl, r0
1000111c:	2b00      	cmp	r3, #0
1000111e:	d007      	beq.n	10001130 <ph_remove_any_head+0x98>
10001120:	005b      	lsls	r3, r3, #1
10001122:	6821      	ldr	r1, [r4, #0]
10001124:	4443      	add	r3, r8
10001126:	3b03      	subs	r3, #3
10001128:	18cb      	adds	r3, r1, r3
1000112a:	785a      	ldrb	r2, [r3, #1]
1000112c:	2a00      	cmp	r2, #0
1000112e:	d116      	bne.n	1000115e <ph_remove_any_head+0xc6>
10001130:	4642      	mov	r2, r8
10001132:	4651      	mov	r1, sl
10001134:	0020      	movs	r0, r4
10001136:	f7ff ff01 	bl	10000f3c <ph_merge_nodes>
1000113a:	6821      	ldr	r1, [r4, #0]
1000113c:	9b01      	ldr	r3, [sp, #4]
1000113e:	19ca      	adds	r2, r1, r7
10001140:	2b00      	cmp	r3, #0
10001142:	d0c6      	beq.n	100010d2 <ph_remove_any_head+0x3a>
10001144:	2800      	cmp	r0, #0
10001146:	d0cf      	beq.n	100010e8 <ph_remove_any_head+0x50>
10001148:	0043      	lsls	r3, r0, #1
1000114a:	181b      	adds	r3, r3, r0
1000114c:	3b03      	subs	r3, #3
1000114e:	18cb      	adds	r3, r1, r3
10001150:	2100      	movs	r1, #0
10001152:	7099      	strb	r1, [r3, #2]
10001154:	e7c8      	b.n	100010e8 <ph_remove_any_head+0x50>
10001156:	9b01      	ldr	r3, [sp, #4]
10001158:	2b00      	cmp	r3, #0
1000115a:	d1c5      	bne.n	100010e8 <ph_remove_any_head+0x50>
1000115c:	e7b9      	b.n	100010d2 <ph_remove_any_head+0x3a>
1000115e:	0050      	lsls	r0, r2, #1
10001160:	1880      	adds	r0, r0, r2
10001162:	3803      	subs	r0, #3
10001164:	1809      	adds	r1, r1, r0
10001166:	7848      	ldrb	r0, [r1, #1]
10001168:	4683      	mov	fp, r0
1000116a:	4648      	mov	r0, r9
1000116c:	7048      	strb	r0, [r1, #1]
1000116e:	7058      	strb	r0, [r3, #1]
10001170:	4641      	mov	r1, r8
10001172:	0020      	movs	r0, r4
10001174:	f7ff fee2 	bl	10000f3c <ph_merge_nodes>
10001178:	4659      	mov	r1, fp
1000117a:	4680      	mov	r8, r0
1000117c:	0020      	movs	r0, r4
1000117e:	f7ff ff43 	bl	10001008 <ph_merge_two_pass>
10001182:	4641      	mov	r1, r8
10001184:	0002      	movs	r2, r0
10001186:	0020      	movs	r0, r4
10001188:	f7ff fed8 	bl	10000f3c <ph_merge_nodes>
1000118c:	4680      	mov	r8, r0
1000118e:	e7cf      	b.n	10001130 <ph_remove_any_head+0x98>

10001190 <ph_remove_head_reserve>:
10001190:	b5f0      	push	{r4, r5, r6, r7, lr}
10001192:	464e      	mov	r6, r9
10001194:	4645      	mov	r5, r8
10001196:	46de      	mov	lr, fp
10001198:	4657      	mov	r7, sl
1000119a:	b5e0      	push	{r5, r6, r7, lr}
1000119c:	7b46      	ldrb	r6, [r0, #13]
1000119e:	0004      	movs	r4, r0
100011a0:	0075      	lsls	r5, r6, #1
100011a2:	6800      	ldr	r0, [r0, #0]
100011a4:	19ad      	adds	r5, r5, r6
100011a6:	3d03      	subs	r5, #3
100011a8:	b083      	sub	sp, #12
100011aa:	9101      	str	r1, [sp, #4]
100011ac:	5d41      	ldrb	r1, [r0, r5]
100011ae:	1942      	adds	r2, r0, r5
100011b0:	2900      	cmp	r1, #0
100011b2:	d04e      	beq.n	10001252 <ph_remove_head_reserve+0xc2>
100011b4:	004b      	lsls	r3, r1, #1
100011b6:	185b      	adds	r3, r3, r1
100011b8:	3b03      	subs	r3, #3
100011ba:	18c3      	adds	r3, r0, r3
100011bc:	785f      	ldrb	r7, [r3, #1]
100011be:	46bc      	mov	ip, r7
100011c0:	2f00      	cmp	r7, #0
100011c2:	d118      	bne.n	100011f6 <ph_remove_head_reserve+0x66>
100011c4:	9d01      	ldr	r5, [sp, #4]
100011c6:	2d00      	cmp	r5, #0
100011c8:	d140      	bne.n	1000124c <ph_remove_head_reserve+0xbc>
100011ca:	7be5      	ldrb	r5, [r4, #15]
100011cc:	2d00      	cmp	r5, #0
100011ce:	d004      	beq.n	100011da <ph_remove_head_reserve+0x4a>
100011d0:	006b      	lsls	r3, r5, #1
100011d2:	195b      	adds	r3, r3, r5
100011d4:	18c3      	adds	r3, r0, r3
100011d6:	3b03      	subs	r3, #3
100011d8:	705e      	strb	r6, [r3, #1]
100011da:	73e6      	strb	r6, [r4, #15]
100011dc:	2900      	cmp	r1, #0
100011de:	d131      	bne.n	10001244 <ph_remove_head_reserve+0xb4>
100011e0:	2300      	movs	r3, #0
100011e2:	0030      	movs	r0, r6
100011e4:	7053      	strb	r3, [r2, #1]
100011e6:	7361      	strb	r1, [r4, #13]
100011e8:	b003      	add	sp, #12
100011ea:	bc3c      	pop	{r2, r3, r4, r5}
100011ec:	4690      	mov	r8, r2
100011ee:	4699      	mov	r9, r3
100011f0:	46a2      	mov	sl, r4
100011f2:	46ab      	mov	fp, r5
100011f4:	bdf0      	pop	{r4, r5, r6, r7, pc}
100011f6:	007a      	lsls	r2, r7, #1
100011f8:	4462      	add	r2, ip
100011fa:	3a03      	subs	r2, #3
100011fc:	1880      	adds	r0, r0, r2
100011fe:	7842      	ldrb	r2, [r0, #1]
10001200:	4693      	mov	fp, r2
10001202:	2200      	movs	r2, #0
10001204:	7042      	strb	r2, [r0, #1]
10001206:	4691      	mov	r9, r2
10001208:	705a      	strb	r2, [r3, #1]
1000120a:	0020      	movs	r0, r4
1000120c:	003a      	movs	r2, r7
1000120e:	f7ff fe95 	bl	10000f3c <ph_merge_nodes>
10001212:	465b      	mov	r3, fp
10001214:	4680      	mov	r8, r0
10001216:	2b00      	cmp	r3, #0
10001218:	d007      	beq.n	1000122a <ph_remove_head_reserve+0x9a>
1000121a:	005b      	lsls	r3, r3, #1
1000121c:	6821      	ldr	r1, [r4, #0]
1000121e:	445b      	add	r3, fp
10001220:	3b03      	subs	r3, #3
10001222:	18cb      	adds	r3, r1, r3
10001224:	785a      	ldrb	r2, [r3, #1]
10001226:	2a00      	cmp	r2, #0
10001228:	d117      	bne.n	1000125a <ph_remove_head_reserve+0xca>
1000122a:	465a      	mov	r2, fp
1000122c:	4641      	mov	r1, r8
1000122e:	0020      	movs	r0, r4
10001230:	f7ff fe84 	bl	10000f3c <ph_merge_nodes>
10001234:	9b01      	ldr	r3, [sp, #4]
10001236:	0001      	movs	r1, r0
10001238:	6820      	ldr	r0, [r4, #0]
1000123a:	1942      	adds	r2, r0, r5
1000123c:	2b00      	cmp	r3, #0
1000123e:	d0c4      	beq.n	100011ca <ph_remove_head_reserve+0x3a>
10001240:	2900      	cmp	r1, #0
10001242:	d0cd      	beq.n	100011e0 <ph_remove_head_reserve+0x50>
10001244:	004b      	lsls	r3, r1, #1
10001246:	185b      	adds	r3, r3, r1
10001248:	3b03      	subs	r3, #3
1000124a:	18c3      	adds	r3, r0, r3
1000124c:	2000      	movs	r0, #0
1000124e:	7098      	strb	r0, [r3, #2]
10001250:	e7c6      	b.n	100011e0 <ph_remove_head_reserve+0x50>
10001252:	9b01      	ldr	r3, [sp, #4]
10001254:	2b00      	cmp	r3, #0
10001256:	d1c3      	bne.n	100011e0 <ph_remove_head_reserve+0x50>
10001258:	e7b7      	b.n	100011ca <ph_remove_head_reserve+0x3a>
1000125a:	0050      	lsls	r0, r2, #1
1000125c:	1880      	adds	r0, r0, r2
1000125e:	3803      	subs	r0, #3
10001260:	1809      	adds	r1, r1, r0
10001262:	7848      	ldrb	r0, [r1, #1]
10001264:	4682      	mov	sl, r0
10001266:	4648      	mov	r0, r9
10001268:	7048      	strb	r0, [r1, #1]
1000126a:	7058      	strb	r0, [r3, #1]
1000126c:	4659      	mov	r1, fp
1000126e:	0020      	movs	r0, r4
10001270:	f7ff fe64 	bl	10000f3c <ph_merge_nodes>
10001274:	4653      	mov	r3, sl
10001276:	4683      	mov	fp, r0
10001278:	2b00      	cmp	r3, #0
1000127a:	d007      	beq.n	1000128c <ph_remove_head_reserve+0xfc>
1000127c:	005b      	lsls	r3, r3, #1
1000127e:	6821      	ldr	r1, [r4, #0]
10001280:	4453      	add	r3, sl
10001282:	3b03      	subs	r3, #3
10001284:	18cb      	adds	r3, r1, r3
10001286:	785a      	ldrb	r2, [r3, #1]
10001288:	2a00      	cmp	r2, #0
1000128a:	d106      	bne.n	1000129a <ph_remove_head_reserve+0x10a>
1000128c:	4659      	mov	r1, fp
1000128e:	4652      	mov	r2, sl
10001290:	0020      	movs	r0, r4
10001292:	f7ff fe53 	bl	10000f3c <ph_merge_nodes>
10001296:	4683      	mov	fp, r0
10001298:	e7c7      	b.n	1000122a <ph_remove_head_reserve+0x9a>
1000129a:	0050      	lsls	r0, r2, #1
1000129c:	1880      	adds	r0, r0, r2
1000129e:	3803      	subs	r0, #3
100012a0:	1809      	adds	r1, r1, r0
100012a2:	4648      	mov	r0, r9
100012a4:	784f      	ldrb	r7, [r1, #1]
100012a6:	7048      	strb	r0, [r1, #1]
100012a8:	7058      	strb	r0, [r3, #1]
100012aa:	4651      	mov	r1, sl
100012ac:	0020      	movs	r0, r4
100012ae:	f7ff fe45 	bl	10000f3c <ph_merge_nodes>
100012b2:	0039      	movs	r1, r7
100012b4:	4681      	mov	r9, r0
100012b6:	0020      	movs	r0, r4
100012b8:	f7ff fea6 	bl	10001008 <ph_merge_two_pass>
100012bc:	4649      	mov	r1, r9
100012be:	0002      	movs	r2, r0
100012c0:	0020      	movs	r0, r4
100012c2:	f7ff fe3b 	bl	10000f3c <ph_merge_nodes>
100012c6:	4682      	mov	sl, r0
100012c8:	e7e0      	b.n	1000128c <ph_remove_head_reserve+0xfc>
100012ca:	46c0      	nop			; (mov r8, r8)

100012cc <ph_delete>:
100012cc:	b570      	push	{r4, r5, r6, lr}
100012ce:	0004      	movs	r4, r0
100012d0:	2900      	cmp	r1, #0
100012d2:	d02c      	beq.n	1000132e <ph_delete+0x62>
100012d4:	7b43      	ldrb	r3, [r0, #13]
100012d6:	428b      	cmp	r3, r1
100012d8:	d02e      	beq.n	10001338 <ph_delete+0x6c>
100012da:	6805      	ldr	r5, [r0, #0]
100012dc:	0048      	lsls	r0, r1, #1
100012de:	1840      	adds	r0, r0, r1
100012e0:	3803      	subs	r0, #3
100012e2:	1828      	adds	r0, r5, r0
100012e4:	7882      	ldrb	r2, [r0, #2]
100012e6:	2a00      	cmp	r2, #0
100012e8:	d021      	beq.n	1000132e <ph_delete+0x62>
100012ea:	0053      	lsls	r3, r2, #1
100012ec:	189b      	adds	r3, r3, r2
100012ee:	3b03      	subs	r3, #3
100012f0:	5cea      	ldrb	r2, [r5, r3]
100012f2:	18ee      	adds	r6, r5, r3
100012f4:	428a      	cmp	r2, r1
100012f6:	d102      	bne.n	100012fe <ph_delete+0x32>
100012f8:	e01b      	b.n	10001332 <ph_delete+0x66>
100012fa:	2a00      	cmp	r2, #0
100012fc:	d008      	beq.n	10001310 <ph_delete+0x44>
100012fe:	0053      	lsls	r3, r2, #1
10001300:	189b      	adds	r3, r3, r2
10001302:	3b03      	subs	r3, #3
10001304:	18eb      	adds	r3, r5, r3
10001306:	785a      	ldrb	r2, [r3, #1]
10001308:	428a      	cmp	r2, r1
1000130a:	d1f6      	bne.n	100012fa <ph_delete+0x2e>
1000130c:	7842      	ldrb	r2, [r0, #1]
1000130e:	705a      	strb	r2, [r3, #1]
10001310:	2300      	movs	r3, #0
10001312:	2200      	movs	r2, #0
10001314:	7083      	strb	r3, [r0, #2]
10001316:	7043      	strb	r3, [r0, #1]
10001318:	0020      	movs	r0, r4
1000131a:	f7ff febd 	bl	10001098 <ph_remove_any_head>
1000131e:	7b61      	ldrb	r1, [r4, #13]
10001320:	0002      	movs	r2, r0
10001322:	0020      	movs	r0, r4
10001324:	f7ff fe0a 	bl	10000f3c <ph_merge_nodes>
10001328:	7360      	strb	r0, [r4, #13]
1000132a:	2001      	movs	r0, #1
1000132c:	e000      	b.n	10001330 <ph_delete+0x64>
1000132e:	2000      	movs	r0, #0
10001330:	bd70      	pop	{r4, r5, r6, pc}
10001332:	7843      	ldrb	r3, [r0, #1]
10001334:	7033      	strb	r3, [r6, #0]
10001336:	e7eb      	b.n	10001310 <ph_delete+0x44>
10001338:	2200      	movs	r2, #0
1000133a:	0019      	movs	r1, r3
1000133c:	f7ff feac 	bl	10001098 <ph_remove_any_head>
10001340:	7360      	strb	r0, [r4, #13]
10001342:	2001      	movs	r0, #1
10001344:	e7f4      	b.n	10001330 <ph_delete+0x64>
10001346:	46c0      	nop			; (mov r8, r8)

10001348 <runtime_init>:
10001348:	4b2b      	ldr	r3, [pc, #172]	; (100013f8 <runtime_init+0xb0>)
1000134a:	4a2c      	ldr	r2, [pc, #176]	; (100013fc <runtime_init+0xb4>)
1000134c:	b570      	push	{r4, r5, r6, lr}
1000134e:	601a      	str	r2, [r3, #0]
10001350:	4a2b      	ldr	r2, [pc, #172]	; (10001400 <runtime_init+0xb8>)
10001352:	4b2c      	ldr	r3, [pc, #176]	; (10001404 <runtime_init+0xbc>)
10001354:	492c      	ldr	r1, [pc, #176]	; (10001408 <runtime_init+0xc0>)
10001356:	601a      	str	r2, [r3, #0]
10001358:	0010      	movs	r0, r2
1000135a:	688b      	ldr	r3, [r1, #8]
1000135c:	4398      	bics	r0, r3
1000135e:	d1fb      	bne.n	10001358 <runtime_init+0x10>
10001360:	4c2a      	ldr	r4, [pc, #168]	; (1000140c <runtime_init+0xc4>)
10001362:	4b2b      	ldr	r3, [pc, #172]	; (10001410 <runtime_init+0xc8>)
10001364:	429c      	cmp	r4, r3
10001366:	d209      	bcs.n	1000137c <runtime_init+0x34>
10001368:	3b01      	subs	r3, #1
1000136a:	1b1d      	subs	r5, r3, r4
1000136c:	08ad      	lsrs	r5, r5, #2
1000136e:	3501      	adds	r5, #1
10001370:	00ad      	lsls	r5, r5, #2
10001372:	192d      	adds	r5, r5, r4
10001374:	cc08      	ldmia	r4!, {r3}
10001376:	4798      	blx	r3
10001378:	42ac      	cmp	r4, r5
1000137a:	d1fb      	bne.n	10001374 <runtime_init+0x2c>
1000137c:	f000 f894 	bl	100014a8 <clocks_init>
10001380:	4a24      	ldr	r2, [pc, #144]	; (10001414 <runtime_init+0xcc>)
10001382:	4b20      	ldr	r3, [pc, #128]	; (10001404 <runtime_init+0xbc>)
10001384:	601a      	str	r2, [r3, #0]
10001386:	4a20      	ldr	r2, [pc, #128]	; (10001408 <runtime_init+0xc0>)
10001388:	6893      	ldr	r3, [r2, #8]
1000138a:	01db      	lsls	r3, r3, #7
1000138c:	3380      	adds	r3, #128	; 0x80
1000138e:	d1fb      	bne.n	10001388 <runtime_init+0x40>
10001390:	2240      	movs	r2, #64	; 0x40
10001392:	4b21      	ldr	r3, [pc, #132]	; (10001418 <runtime_init+0xd0>)
10001394:	4c21      	ldr	r4, [pc, #132]	; (1000141c <runtime_init+0xd4>)
10001396:	679a      	str	r2, [r3, #120]	; 0x78
10001398:	675a      	str	r2, [r3, #116]	; 0x74
1000139a:	671a      	str	r2, [r3, #112]	; 0x70
1000139c:	66da      	str	r2, [r3, #108]	; 0x6c
1000139e:	4b20      	ldr	r3, [pc, #128]	; (10001420 <runtime_init+0xd8>)
100013a0:	429c      	cmp	r4, r3
100013a2:	d20b      	bcs.n	100013bc <runtime_init+0x74>
100013a4:	3b01      	subs	r3, #1
100013a6:	1b1d      	subs	r5, r3, r4
100013a8:	08ed      	lsrs	r5, r5, #3
100013aa:	3501      	adds	r5, #1
100013ac:	00ed      	lsls	r5, r5, #3
100013ae:	192d      	adds	r5, r5, r4
100013b0:	0020      	movs	r0, r4
100013b2:	3408      	adds	r4, #8
100013b4:	f7ff fdb6 	bl	10000f24 <mutex_init>
100013b8:	42ac      	cmp	r4, r5
100013ba:	d1f9      	bne.n	100013b0 <runtime_init+0x68>
100013bc:	4c19      	ldr	r4, [pc, #100]	; (10001424 <runtime_init+0xdc>)
100013be:	4d1a      	ldr	r5, [pc, #104]	; (10001428 <runtime_init+0xe0>)
100013c0:	68a1      	ldr	r1, [r4, #8]
100013c2:	22c0      	movs	r2, #192	; 0xc0
100013c4:	0028      	movs	r0, r5
100013c6:	f002 fe09 	bl	10003fdc <__wrap___aeabi_memcpy>
100013ca:	60a5      	str	r5, [r4, #8]
100013cc:	f7ff f9fe 	bl	100007cc <spin_locks_reset>
100013d0:	f000 fbaa 	bl	10001b28 <irq_init_priorities>
100013d4:	f7ff fc28 	bl	10000c28 <alarm_pool_init_default>
100013d8:	4c14      	ldr	r4, [pc, #80]	; (1000142c <runtime_init+0xe4>)
100013da:	4b15      	ldr	r3, [pc, #84]	; (10001430 <runtime_init+0xe8>)
100013dc:	429c      	cmp	r4, r3
100013de:	d209      	bcs.n	100013f4 <runtime_init+0xac>
100013e0:	3b01      	subs	r3, #1
100013e2:	1b1d      	subs	r5, r3, r4
100013e4:	08ad      	lsrs	r5, r5, #2
100013e6:	3501      	adds	r5, #1
100013e8:	00ad      	lsls	r5, r5, #2
100013ea:	192d      	adds	r5, r5, r4
100013ec:	cc08      	ldmia	r4!, {r3}
100013ee:	4798      	blx	r3
100013f0:	42a5      	cmp	r5, r4
100013f2:	d1fb      	bne.n	100013ec <runtime_init+0xa4>
100013f4:	bd70      	pop	{r4, r5, r6, pc}
100013f6:	46c0      	nop			; (mov r8, r8)
100013f8:	4000e000 	.word	0x4000e000
100013fc:	ffffcdbf 	.word	0xffffcdbf
10001400:	003c7ffe 	.word	0x003c7ffe
10001404:	4000f000 	.word	0x4000f000
10001408:	4000c000 	.word	0x4000c000
1000140c:	20000a58 	.word	0x20000a58
10001410:	20000a68 	.word	0x20000a68
10001414:	01ffffff 	.word	0x01ffffff
10001418:	4001f000 	.word	0x4001f000
1000141c:	20000a50 	.word	0x20000a50
10001420:	20000a58 	.word	0x20000a58
10001424:	e000ed00 	.word	0xe000ed00
10001428:	20000000 	.word	0x20000000
1000142c:	20000a68 	.word	0x20000a68
10001430:	20000a6c 	.word	0x20000a6c

10001434 <_sbrk>:
10001434:	4a09      	ldr	r2, [pc, #36]	; (1000145c <_sbrk+0x28>)
10001436:	0003      	movs	r3, r0
10001438:	6810      	ldr	r0, [r2, #0]
1000143a:	2800      	cmp	r0, #0
1000143c:	d005      	beq.n	1000144a <_sbrk+0x16>
1000143e:	4908      	ldr	r1, [pc, #32]	; (10001460 <_sbrk+0x2c>)
10001440:	18c3      	adds	r3, r0, r3
10001442:	428b      	cmp	r3, r1
10001444:	d207      	bcs.n	10001456 <_sbrk+0x22>
10001446:	6013      	str	r3, [r2, #0]
10001448:	4770      	bx	lr
1000144a:	4806      	ldr	r0, [pc, #24]	; (10001464 <_sbrk+0x30>)
1000144c:	4904      	ldr	r1, [pc, #16]	; (10001460 <_sbrk+0x2c>)
1000144e:	18c3      	adds	r3, r0, r3
10001450:	6010      	str	r0, [r2, #0]
10001452:	428b      	cmp	r3, r1
10001454:	d3f7      	bcc.n	10001446 <_sbrk+0x12>
10001456:	2001      	movs	r0, #1
10001458:	4240      	negs	r0, r0
1000145a:	e7f5      	b.n	10001448 <_sbrk+0x14>
1000145c:	20000b00 	.word	0x20000b00
10001460:	20040000 	.word	0x20040000
10001464:	20000d5c 	.word	0x20000d5c

10001468 <exit>:
10001468:	be00      	bkpt	0x0000
1000146a:	e7fd      	b.n	10001468 <exit>

1000146c <panic>:
1000146c:	b40f      	push	{r0, r1, r2, r3}
1000146e:	b500      	push	{lr}
10001470:	4808      	ldr	r0, [pc, #32]	; (10001494 <panic+0x28>)
10001472:	b083      	sub	sp, #12
10001474:	f002 fec4 	bl	10004200 <__wrap_puts>
10001478:	9b04      	ldr	r3, [sp, #16]
1000147a:	2b00      	cmp	r3, #0
1000147c:	d007      	beq.n	1000148e <panic+0x22>
1000147e:	a905      	add	r1, sp, #20
10001480:	0018      	movs	r0, r3
10001482:	9101      	str	r1, [sp, #4]
10001484:	f001 fe78 	bl	10003178 <weak_raw_vprintf>
10001488:	4803      	ldr	r0, [pc, #12]	; (10001498 <panic+0x2c>)
1000148a:	f002 feb9 	bl	10004200 <__wrap_puts>
1000148e:	be00      	bkpt	0x0000
10001490:	e7fd      	b.n	1000148e <panic+0x22>
10001492:	46c0      	nop			; (mov r8, r8)
10001494:	10004f4c 	.word	0x10004f4c
10001498:	10004f5c 	.word	0x10004f5c

1000149c <hard_assertion_failure>:
1000149c:	b510      	push	{r4, lr}
1000149e:	4801      	ldr	r0, [pc, #4]	; (100014a4 <hard_assertion_failure+0x8>)
100014a0:	f7ff ffe4 	bl	1000146c <panic>
100014a4:	10004f60 	.word	0x10004f60

100014a8 <clocks_init>:
100014a8:	b530      	push	{r4, r5, lr}
100014aa:	200c      	movs	r0, #12
100014ac:	b083      	sub	sp, #12
100014ae:	f000 f971 	bl	10001794 <watchdog_start_tick>
100014b2:	f7ff f9a5 	bl	10000800 <running_on_fpga>
100014b6:	2800      	cmp	r0, #0
100014b8:	d00e      	beq.n	100014d8 <clocks_init+0x30>
100014ba:	4b9a      	ldr	r3, [pc, #616]	; (10001724 <clocks_init+0x27c>)
100014bc:	4a9a      	ldr	r2, [pc, #616]	; (10001728 <clocks_init+0x280>)
100014be:	601a      	str	r2, [r3, #0]
100014c0:	605a      	str	r2, [r3, #4]
100014c2:	609a      	str	r2, [r3, #8]
100014c4:	60da      	str	r2, [r3, #12]
100014c6:	611a      	str	r2, [r3, #16]
100014c8:	615a      	str	r2, [r3, #20]
100014ca:	619a      	str	r2, [r3, #24]
100014cc:	61da      	str	r2, [r3, #28]
100014ce:	621a      	str	r2, [r3, #32]
100014d0:	4a96      	ldr	r2, [pc, #600]	; (1000172c <clocks_init+0x284>)
100014d2:	625a      	str	r2, [r3, #36]	; 0x24
100014d4:	b003      	add	sp, #12
100014d6:	bd30      	pop	{r4, r5, pc}
100014d8:	4c95      	ldr	r4, [pc, #596]	; (10001730 <clocks_init+0x288>)
100014da:	67a0      	str	r0, [r4, #120]	; 0x78
100014dc:	f000 f962 	bl	100017a4 <xosc_init>
100014e0:	2201      	movs	r2, #1
100014e2:	4b94      	ldr	r3, [pc, #592]	; (10001734 <clocks_init+0x28c>)
100014e4:	601a      	str	r2, [r3, #0]
100014e6:	6c63      	ldr	r3, [r4, #68]	; 0x44
100014e8:	2b01      	cmp	r3, #1
100014ea:	d1fc      	bne.n	100014e6 <clocks_init+0x3e>
100014ec:	2203      	movs	r2, #3
100014ee:	4b92      	ldr	r3, [pc, #584]	; (10001738 <clocks_init+0x290>)
100014f0:	601a      	str	r2, [r3, #0]
100014f2:	4a8f      	ldr	r2, [pc, #572]	; (10001730 <clocks_init+0x288>)
100014f4:	6b93      	ldr	r3, [r2, #56]	; 0x38
100014f6:	2b01      	cmp	r3, #1
100014f8:	d1fc      	bne.n	100014f4 <clocks_init+0x4c>
100014fa:	22c0      	movs	r2, #192	; 0xc0
100014fc:	4b8f      	ldr	r3, [pc, #572]	; (1000173c <clocks_init+0x294>)
100014fe:	0192      	lsls	r2, r2, #6
10001500:	601a      	str	r2, [r3, #0]
10001502:	4b8f      	ldr	r3, [pc, #572]	; (10001740 <clocks_init+0x298>)
10001504:	498f      	ldr	r1, [pc, #572]	; (10001744 <clocks_init+0x29c>)
10001506:	601a      	str	r2, [r3, #0]
10001508:	0010      	movs	r0, r2
1000150a:	688b      	ldr	r3, [r1, #8]
1000150c:	4398      	bics	r0, r3
1000150e:	1e03      	subs	r3, r0, #0
10001510:	d1fa      	bne.n	10001508 <clocks_init+0x60>
10001512:	2402      	movs	r4, #2
10001514:	2101      	movs	r1, #1
10001516:	4a8c      	ldr	r2, [pc, #560]	; (10001748 <clocks_init+0x2a0>)
10001518:	488c      	ldr	r0, [pc, #560]	; (1000174c <clocks_init+0x2a4>)
1000151a:	3306      	adds	r3, #6
1000151c:	9400      	str	r4, [sp, #0]
1000151e:	f000 f955 	bl	100017cc <pll_init>
10001522:	2305      	movs	r3, #5
10001524:	4a8a      	ldr	r2, [pc, #552]	; (10001750 <clocks_init+0x2a8>)
10001526:	2101      	movs	r1, #1
10001528:	488a      	ldr	r0, [pc, #552]	; (10001754 <clocks_init+0x2ac>)
1000152a:	9400      	str	r4, [sp, #0]
1000152c:	f000 f94e 	bl	100017cc <pll_init>
10001530:	4b89      	ldr	r3, [pc, #548]	; (10001758 <clocks_init+0x2b0>)
10001532:	685a      	ldr	r2, [r3, #4]
10001534:	2aff      	cmp	r2, #255	; 0xff
10001536:	d802      	bhi.n	1000153e <clocks_init+0x96>
10001538:	2280      	movs	r2, #128	; 0x80
1000153a:	0052      	lsls	r2, r2, #1
1000153c:	605a      	str	r2, [r3, #4]
1000153e:	2280      	movs	r2, #128	; 0x80
10001540:	4c78      	ldr	r4, [pc, #480]	; (10001724 <clocks_init+0x27c>)
10001542:	4b7d      	ldr	r3, [pc, #500]	; (10001738 <clocks_init+0x290>)
10001544:	6921      	ldr	r1, [r4, #16]
10001546:	0112      	lsls	r2, r2, #4
10001548:	4d83      	ldr	r5, [pc, #524]	; (10001758 <clocks_init+0x2b0>)
1000154a:	601a      	str	r2, [r3, #0]
1000154c:	2900      	cmp	r1, #0
1000154e:	d005      	beq.n	1000155c <clocks_init+0xb4>
10001550:	6960      	ldr	r0, [r4, #20]
10001552:	f001 fe8b 	bl	1000326c <__wrap___aeabi_uidiv>
10001556:	3001      	adds	r0, #1
10001558:	3801      	subs	r0, #1
1000155a:	d1fd      	bne.n	10001558 <clocks_init+0xb0>
1000155c:	21e0      	movs	r1, #224	; 0xe0
1000155e:	4b7e      	ldr	r3, [pc, #504]	; (10001758 <clocks_init+0x2b0>)
10001560:	2002      	movs	r0, #2
10001562:	681a      	ldr	r2, [r3, #0]
10001564:	4011      	ands	r1, r2
10001566:	2280      	movs	r2, #128	; 0x80
10001568:	0152      	lsls	r2, r2, #5
1000156a:	432a      	orrs	r2, r5
1000156c:	6011      	str	r1, [r2, #0]
1000156e:	6819      	ldr	r1, [r3, #0]
10001570:	4048      	eors	r0, r1
10001572:	2103      	movs	r1, #3
10001574:	4001      	ands	r1, r0
10001576:	6011      	str	r1, [r2, #0]
10001578:	2104      	movs	r1, #4
1000157a:	689a      	ldr	r2, [r3, #8]
1000157c:	4211      	tst	r1, r2
1000157e:	d0fc      	beq.n	1000157a <clocks_init+0xd2>
10001580:	2280      	movs	r2, #128	; 0x80
10001582:	2180      	movs	r1, #128	; 0x80
10001584:	0192      	lsls	r2, r2, #6
10001586:	432a      	orrs	r2, r5
10001588:	0109      	lsls	r1, r1, #4
1000158a:	6011      	str	r1, [r2, #0]
1000158c:	2280      	movs	r2, #128	; 0x80
1000158e:	0052      	lsls	r2, r2, #1
10001590:	605a      	str	r2, [r3, #4]
10001592:	4b72      	ldr	r3, [pc, #456]	; (1000175c <clocks_init+0x2b4>)
10001594:	6123      	str	r3, [r4, #16]
10001596:	4b72      	ldr	r3, [pc, #456]	; (10001760 <clocks_init+0x2b8>)
10001598:	6859      	ldr	r1, [r3, #4]
1000159a:	29ff      	cmp	r1, #255	; 0xff
1000159c:	d800      	bhi.n	100015a0 <clocks_init+0xf8>
1000159e:	605a      	str	r2, [r3, #4]
100015a0:	2203      	movs	r2, #3
100015a2:	486f      	ldr	r0, [pc, #444]	; (10001760 <clocks_init+0x2b8>)
100015a4:	4b63      	ldr	r3, [pc, #396]	; (10001734 <clocks_init+0x28c>)
100015a6:	2101      	movs	r1, #1
100015a8:	601a      	str	r2, [r3, #0]
100015aa:	0002      	movs	r2, r0
100015ac:	6893      	ldr	r3, [r2, #8]
100015ae:	4219      	tst	r1, r3
100015b0:	d0fc      	beq.n	100015ac <clocks_init+0x104>
100015b2:	25e0      	movs	r5, #224	; 0xe0
100015b4:	6813      	ldr	r3, [r2, #0]
100015b6:	401d      	ands	r5, r3
100015b8:	2380      	movs	r3, #128	; 0x80
100015ba:	015b      	lsls	r3, r3, #5
100015bc:	4303      	orrs	r3, r0
100015be:	601d      	str	r5, [r3, #0]
100015c0:	6812      	ldr	r2, [r2, #0]
100015c2:	404a      	eors	r2, r1
100015c4:	2103      	movs	r1, #3
100015c6:	4011      	ands	r1, r2
100015c8:	6019      	str	r1, [r3, #0]
100015ca:	2102      	movs	r1, #2
100015cc:	4a64      	ldr	r2, [pc, #400]	; (10001760 <clocks_init+0x2b8>)
100015ce:	6893      	ldr	r3, [r2, #8]
100015d0:	4219      	tst	r1, r3
100015d2:	d0fc      	beq.n	100015ce <clocks_init+0x126>
100015d4:	2380      	movs	r3, #128	; 0x80
100015d6:	2180      	movs	r1, #128	; 0x80
100015d8:	019b      	lsls	r3, r3, #6
100015da:	4303      	orrs	r3, r0
100015dc:	0109      	lsls	r1, r1, #4
100015de:	6019      	str	r1, [r3, #0]
100015e0:	2180      	movs	r1, #128	; 0x80
100015e2:	4b60      	ldr	r3, [pc, #384]	; (10001764 <clocks_init+0x2bc>)
100015e4:	0049      	lsls	r1, r1, #1
100015e6:	6051      	str	r1, [r2, #4]
100015e8:	6163      	str	r3, [r4, #20]
100015ea:	4b5f      	ldr	r3, [pc, #380]	; (10001768 <clocks_init+0x2c0>)
100015ec:	685a      	ldr	r2, [r3, #4]
100015ee:	2aff      	cmp	r2, #255	; 0xff
100015f0:	d800      	bhi.n	100015f4 <clocks_init+0x14c>
100015f2:	6059      	str	r1, [r3, #4]
100015f4:	2280      	movs	r2, #128	; 0x80
100015f6:	4b5d      	ldr	r3, [pc, #372]	; (1000176c <clocks_init+0x2c4>)
100015f8:	69e1      	ldr	r1, [r4, #28]
100015fa:	0112      	lsls	r2, r2, #4
100015fc:	4d5a      	ldr	r5, [pc, #360]	; (10001768 <clocks_init+0x2c0>)
100015fe:	601a      	str	r2, [r3, #0]
10001600:	2900      	cmp	r1, #0
10001602:	d005      	beq.n	10001610 <clocks_init+0x168>
10001604:	6960      	ldr	r0, [r4, #20]
10001606:	f001 fe31 	bl	1000326c <__wrap___aeabi_uidiv>
1000160a:	3001      	adds	r0, #1
1000160c:	3801      	subs	r0, #1
1000160e:	d1fd      	bne.n	1000160c <clocks_init+0x164>
10001610:	22e0      	movs	r2, #224	; 0xe0
10001612:	4955      	ldr	r1, [pc, #340]	; (10001768 <clocks_init+0x2c0>)
10001614:	680b      	ldr	r3, [r1, #0]
10001616:	401a      	ands	r2, r3
10001618:	2380      	movs	r3, #128	; 0x80
1000161a:	015b      	lsls	r3, r3, #5
1000161c:	432b      	orrs	r3, r5
1000161e:	601a      	str	r2, [r3, #0]
10001620:	2380      	movs	r3, #128	; 0x80
10001622:	2280      	movs	r2, #128	; 0x80
10001624:	019b      	lsls	r3, r3, #6
10001626:	432b      	orrs	r3, r5
10001628:	0112      	lsls	r2, r2, #4
1000162a:	601a      	str	r2, [r3, #0]
1000162c:	2280      	movs	r2, #128	; 0x80
1000162e:	4b3e      	ldr	r3, [pc, #248]	; (10001728 <clocks_init+0x280>)
10001630:	0052      	lsls	r2, r2, #1
10001632:	604a      	str	r2, [r1, #4]
10001634:	61e3      	str	r3, [r4, #28]
10001636:	4b4e      	ldr	r3, [pc, #312]	; (10001770 <clocks_init+0x2c8>)
10001638:	6859      	ldr	r1, [r3, #4]
1000163a:	29ff      	cmp	r1, #255	; 0xff
1000163c:	d800      	bhi.n	10001640 <clocks_init+0x198>
1000163e:	605a      	str	r2, [r3, #4]
10001640:	2280      	movs	r2, #128	; 0x80
10001642:	4b4c      	ldr	r3, [pc, #304]	; (10001774 <clocks_init+0x2cc>)
10001644:	6a21      	ldr	r1, [r4, #32]
10001646:	0112      	lsls	r2, r2, #4
10001648:	4d49      	ldr	r5, [pc, #292]	; (10001770 <clocks_init+0x2c8>)
1000164a:	601a      	str	r2, [r3, #0]
1000164c:	2900      	cmp	r1, #0
1000164e:	d005      	beq.n	1000165c <clocks_init+0x1b4>
10001650:	6960      	ldr	r0, [r4, #20]
10001652:	f001 fe0b 	bl	1000326c <__wrap___aeabi_uidiv>
10001656:	3001      	adds	r0, #1
10001658:	3801      	subs	r0, #1
1000165a:	d1fd      	bne.n	10001658 <clocks_init+0x1b0>
1000165c:	22e0      	movs	r2, #224	; 0xe0
1000165e:	4944      	ldr	r1, [pc, #272]	; (10001770 <clocks_init+0x2c8>)
10001660:	680b      	ldr	r3, [r1, #0]
10001662:	401a      	ands	r2, r3
10001664:	2380      	movs	r3, #128	; 0x80
10001666:	015b      	lsls	r3, r3, #5
10001668:	432b      	orrs	r3, r5
1000166a:	601a      	str	r2, [r3, #0]
1000166c:	2380      	movs	r3, #128	; 0x80
1000166e:	2280      	movs	r2, #128	; 0x80
10001670:	019b      	lsls	r3, r3, #6
10001672:	432b      	orrs	r3, r5
10001674:	0112      	lsls	r2, r2, #4
10001676:	601a      	str	r2, [r3, #0]
10001678:	2380      	movs	r3, #128	; 0x80
1000167a:	2280      	movs	r2, #128	; 0x80
1000167c:	005b      	lsls	r3, r3, #1
1000167e:	604b      	str	r3, [r1, #4]
10001680:	4b29      	ldr	r3, [pc, #164]	; (10001728 <clocks_init+0x280>)
10001682:	02d2      	lsls	r2, r2, #11
10001684:	6223      	str	r3, [r4, #32]
10001686:	4b3c      	ldr	r3, [pc, #240]	; (10001778 <clocks_init+0x2d0>)
10001688:	6859      	ldr	r1, [r3, #4]
1000168a:	4291      	cmp	r1, r2
1000168c:	d200      	bcs.n	10001690 <clocks_init+0x1e8>
1000168e:	605a      	str	r2, [r3, #4]
10001690:	2280      	movs	r2, #128	; 0x80
10001692:	4b3a      	ldr	r3, [pc, #232]	; (1000177c <clocks_init+0x2d4>)
10001694:	6a61      	ldr	r1, [r4, #36]	; 0x24
10001696:	0112      	lsls	r2, r2, #4
10001698:	4d37      	ldr	r5, [pc, #220]	; (10001778 <clocks_init+0x2d0>)
1000169a:	601a      	str	r2, [r3, #0]
1000169c:	2900      	cmp	r1, #0
1000169e:	d005      	beq.n	100016ac <clocks_init+0x204>
100016a0:	6960      	ldr	r0, [r4, #20]
100016a2:	f001 fde3 	bl	1000326c <__wrap___aeabi_uidiv>
100016a6:	3001      	adds	r0, #1
100016a8:	3801      	subs	r0, #1
100016aa:	d1fd      	bne.n	100016a8 <clocks_init+0x200>
100016ac:	22e0      	movs	r2, #224	; 0xe0
100016ae:	4932      	ldr	r1, [pc, #200]	; (10001778 <clocks_init+0x2d0>)
100016b0:	680b      	ldr	r3, [r1, #0]
100016b2:	401a      	ands	r2, r3
100016b4:	2380      	movs	r3, #128	; 0x80
100016b6:	015b      	lsls	r3, r3, #5
100016b8:	432b      	orrs	r3, r5
100016ba:	601a      	str	r2, [r3, #0]
100016bc:	2380      	movs	r3, #128	; 0x80
100016be:	2280      	movs	r2, #128	; 0x80
100016c0:	019b      	lsls	r3, r3, #6
100016c2:	432b      	orrs	r3, r5
100016c4:	0112      	lsls	r2, r2, #4
100016c6:	601a      	str	r2, [r3, #0]
100016c8:	2380      	movs	r3, #128	; 0x80
100016ca:	02db      	lsls	r3, r3, #11
100016cc:	604b      	str	r3, [r1, #4]
100016ce:	4b17      	ldr	r3, [pc, #92]	; (1000172c <clocks_init+0x284>)
100016d0:	6263      	str	r3, [r4, #36]	; 0x24
100016d2:	4b2b      	ldr	r3, [pc, #172]	; (10001780 <clocks_init+0x2d8>)
100016d4:	685a      	ldr	r2, [r3, #4]
100016d6:	2aff      	cmp	r2, #255	; 0xff
100016d8:	d802      	bhi.n	100016e0 <clocks_init+0x238>
100016da:	2280      	movs	r2, #128	; 0x80
100016dc:	0052      	lsls	r2, r2, #1
100016de:	605a      	str	r2, [r3, #4]
100016e0:	2280      	movs	r2, #128	; 0x80
100016e2:	4b28      	ldr	r3, [pc, #160]	; (10001784 <clocks_init+0x2dc>)
100016e4:	69a1      	ldr	r1, [r4, #24]
100016e6:	0112      	lsls	r2, r2, #4
100016e8:	4d25      	ldr	r5, [pc, #148]	; (10001780 <clocks_init+0x2d8>)
100016ea:	601a      	str	r2, [r3, #0]
100016ec:	2900      	cmp	r1, #0
100016ee:	d005      	beq.n	100016fc <clocks_init+0x254>
100016f0:	6960      	ldr	r0, [r4, #20]
100016f2:	f001 fdbb 	bl	1000326c <__wrap___aeabi_uidiv>
100016f6:	3001      	adds	r0, #1
100016f8:	3801      	subs	r0, #1
100016fa:	d1fd      	bne.n	100016f8 <clocks_init+0x250>
100016fc:	22e0      	movs	r2, #224	; 0xe0
100016fe:	4920      	ldr	r1, [pc, #128]	; (10001780 <clocks_init+0x2d8>)
10001700:	680b      	ldr	r3, [r1, #0]
10001702:	401a      	ands	r2, r3
10001704:	2380      	movs	r3, #128	; 0x80
10001706:	015b      	lsls	r3, r3, #5
10001708:	432b      	orrs	r3, r5
1000170a:	601a      	str	r2, [r3, #0]
1000170c:	2380      	movs	r3, #128	; 0x80
1000170e:	2280      	movs	r2, #128	; 0x80
10001710:	019b      	lsls	r3, r3, #6
10001712:	432b      	orrs	r3, r5
10001714:	0112      	lsls	r2, r2, #4
10001716:	601a      	str	r2, [r3, #0]
10001718:	2380      	movs	r3, #128	; 0x80
1000171a:	005b      	lsls	r3, r3, #1
1000171c:	604b      	str	r3, [r1, #4]
1000171e:	4b11      	ldr	r3, [pc, #68]	; (10001764 <clocks_init+0x2bc>)
10001720:	61a3      	str	r3, [r4, #24]
10001722:	e6d7      	b.n	100014d4 <clocks_init+0x2c>
10001724:	20000acc 	.word	0x20000acc
10001728:	02dc6c00 	.word	0x02dc6c00
1000172c:	0000b71b 	.word	0x0000b71b
10001730:	40008000 	.word	0x40008000
10001734:	4000b03c 	.word	0x4000b03c
10001738:	4000b030 	.word	0x4000b030
1000173c:	4000e000 	.word	0x4000e000
10001740:	4000f000 	.word	0x4000f000
10001744:	4000c000 	.word	0x4000c000
10001748:	59682f00 	.word	0x59682f00
1000174c:	40028000 	.word	0x40028000
10001750:	1c9c3800 	.word	0x1c9c3800
10001754:	4002c000 	.word	0x4002c000
10001758:	40008030 	.word	0x40008030
1000175c:	00b71b00 	.word	0x00b71b00
10001760:	4000803c 	.word	0x4000803c
10001764:	07735940 	.word	0x07735940
10001768:	40008054 	.word	0x40008054
1000176c:	4000b054 	.word	0x4000b054
10001770:	40008060 	.word	0x40008060
10001774:	4000b060 	.word	0x4000b060
10001778:	4000806c 	.word	0x4000806c
1000177c:	4000b06c 	.word	0x4000b06c
10001780:	40008048 	.word	0x40008048
10001784:	4000b048 	.word	0x4000b048

10001788 <clock_get_hz>:
10001788:	4b01      	ldr	r3, [pc, #4]	; (10001790 <clock_get_hz+0x8>)
1000178a:	0080      	lsls	r0, r0, #2
1000178c:	58c0      	ldr	r0, [r0, r3]
1000178e:	4770      	bx	lr
10001790:	20000acc 	.word	0x20000acc

10001794 <watchdog_start_tick>:
10001794:	2380      	movs	r3, #128	; 0x80
10001796:	4a02      	ldr	r2, [pc, #8]	; (100017a0 <watchdog_start_tick+0xc>)
10001798:	009b      	lsls	r3, r3, #2
1000179a:	4303      	orrs	r3, r0
1000179c:	62d3      	str	r3, [r2, #44]	; 0x2c
1000179e:	4770      	bx	lr
100017a0:	40058000 	.word	0x40058000

100017a4 <xosc_init>:
100017a4:	23aa      	movs	r3, #170	; 0xaa
100017a6:	4a06      	ldr	r2, [pc, #24]	; (100017c0 <xosc_init+0x1c>)
100017a8:	011b      	lsls	r3, r3, #4
100017aa:	6013      	str	r3, [r2, #0]
100017ac:	232f      	movs	r3, #47	; 0x2f
100017ae:	4905      	ldr	r1, [pc, #20]	; (100017c4 <xosc_init+0x20>)
100017b0:	60d3      	str	r3, [r2, #12]
100017b2:	4b05      	ldr	r3, [pc, #20]	; (100017c8 <xosc_init+0x24>)
100017b4:	6019      	str	r1, [r3, #0]
100017b6:	6853      	ldr	r3, [r2, #4]
100017b8:	2b00      	cmp	r3, #0
100017ba:	dafc      	bge.n	100017b6 <xosc_init+0x12>
100017bc:	4770      	bx	lr
100017be:	46c0      	nop			; (mov r8, r8)
100017c0:	40024000 	.word	0x40024000
100017c4:	00fab000 	.word	0x00fab000
100017c8:	40026000 	.word	0x40026000

100017cc <pll_init>:
100017cc:	b5f8      	push	{r3, r4, r5, r6, r7, lr}
100017ce:	001d      	movs	r5, r3
100017d0:	ab06      	add	r3, sp, #24
100017d2:	781e      	ldrb	r6, [r3, #0]
100017d4:	2301      	movs	r3, #1
100017d6:	425b      	negs	r3, r3
100017d8:	6043      	str	r3, [r0, #4]
100017da:	2300      	movs	r3, #0
100017dc:	0004      	movs	r4, r0
100017de:	6083      	str	r3, [r0, #8]
100017e0:	6001      	str	r1, [r0, #0]
100017e2:	200c      	movs	r0, #12
100017e4:	0017      	movs	r7, r2
100017e6:	f001 fd41 	bl	1000326c <__wrap___aeabi_uidiv>
100017ea:	0141      	lsls	r1, r0, #5
100017ec:	1a09      	subs	r1, r1, r0
100017ee:	018b      	lsls	r3, r1, #6
100017f0:	1a59      	subs	r1, r3, r1
100017f2:	00c9      	lsls	r1, r1, #3
100017f4:	1809      	adds	r1, r1, r0
100017f6:	0189      	lsls	r1, r1, #6
100017f8:	0038      	movs	r0, r7
100017fa:	f001 fd37 	bl	1000326c <__wrap___aeabi_uidiv>
100017fe:	21c0      	movs	r1, #192	; 0xc0
10001800:	1d23      	adds	r3, r4, #4
10001802:	0189      	lsls	r1, r1, #6
10001804:	4319      	orrs	r1, r3
10001806:	2321      	movs	r3, #33	; 0x21
10001808:	60a0      	str	r0, [r4, #8]
1000180a:	600b      	str	r3, [r1, #0]
1000180c:	6822      	ldr	r2, [r4, #0]
1000180e:	2a00      	cmp	r2, #0
10001810:	dafc      	bge.n	1000180c <pll_init+0x40>
10001812:	2308      	movs	r3, #8
10001814:	042d      	lsls	r5, r5, #16
10001816:	0336      	lsls	r6, r6, #12
10001818:	432e      	orrs	r6, r5
1000181a:	60e6      	str	r6, [r4, #12]
1000181c:	600b      	str	r3, [r1, #0]
1000181e:	bdf8      	pop	{r3, r4, r5, r6, r7, pc}

10001820 <irq_set_enabled>:
10001820:	2301      	movs	r3, #1
10001822:	4083      	lsls	r3, r0
10001824:	2900      	cmp	r1, #0
10001826:	d004      	beq.n	10001832 <irq_set_enabled+0x12>
10001828:	4a03      	ldr	r2, [pc, #12]	; (10001838 <irq_set_enabled+0x18>)
1000182a:	6013      	str	r3, [r2, #0]
1000182c:	4a03      	ldr	r2, [pc, #12]	; (1000183c <irq_set_enabled+0x1c>)
1000182e:	6013      	str	r3, [r2, #0]
10001830:	4770      	bx	lr
10001832:	4a03      	ldr	r2, [pc, #12]	; (10001840 <irq_set_enabled+0x20>)
10001834:	6013      	str	r3, [r2, #0]
10001836:	e7fb      	b.n	10001830 <irq_set_enabled+0x10>
10001838:	e000e280 	.word	0xe000e280
1000183c:	e000e100 	.word	0xe000e100
10001840:	e000e180 	.word	0xe000e180

10001844 <irq_get_vtable_handler>:
10001844:	4b02      	ldr	r3, [pc, #8]	; (10001850 <irq_get_vtable_handler+0xc>)
10001846:	3010      	adds	r0, #16
10001848:	689b      	ldr	r3, [r3, #8]
1000184a:	0080      	lsls	r0, r0, #2
1000184c:	58c0      	ldr	r0, [r0, r3]
1000184e:	4770      	bx	lr
10001850:	e000ed00 	.word	0xe000ed00

10001854 <irq_set_exclusive_handler>:
10001854:	b570      	push	{r4, r5, r6, lr}
10001856:	000d      	movs	r5, r1
10001858:	f3ef 8610 	mrs	r6, PRIMASK
1000185c:	b672      	cpsid	i
1000185e:	4a0f      	ldr	r2, [pc, #60]	; (1000189c <irq_set_exclusive_handler+0x48>)
10001860:	6813      	ldr	r3, [r2, #0]
10001862:	2b00      	cmp	r3, #0
10001864:	d0fc      	beq.n	10001860 <irq_set_exclusive_handler+0xc>
10001866:	f3bf 8f5f 	dmb	sy
1000186a:	4b0d      	ldr	r3, [pc, #52]	; (100018a0 <irq_set_exclusive_handler+0x4c>)
1000186c:	3010      	adds	r0, #16
1000186e:	689b      	ldr	r3, [r3, #8]
10001870:	0084      	lsls	r4, r0, #2
10001872:	591b      	ldr	r3, [r3, r4]
10001874:	4a0b      	ldr	r2, [pc, #44]	; (100018a4 <irq_set_exclusive_handler+0x50>)
10001876:	4293      	cmp	r3, r2
10001878:	d003      	beq.n	10001882 <irq_set_exclusive_handler+0x2e>
1000187a:	429d      	cmp	r5, r3
1000187c:	d001      	beq.n	10001882 <irq_set_exclusive_handler+0x2e>
1000187e:	f7ff fe0d 	bl	1000149c <hard_assertion_failure>
10001882:	4b07      	ldr	r3, [pc, #28]	; (100018a0 <irq_set_exclusive_handler+0x4c>)
10001884:	689b      	ldr	r3, [r3, #8]
10001886:	511d      	str	r5, [r3, r4]
10001888:	f3bf 8f5f 	dmb	sy
1000188c:	f3bf 8f5f 	dmb	sy
10001890:	2200      	movs	r2, #0
10001892:	4b02      	ldr	r3, [pc, #8]	; (1000189c <irq_set_exclusive_handler+0x48>)
10001894:	601a      	str	r2, [r3, #0]
10001896:	f386 8810 	msr	PRIMASK, r6
1000189a:	bd70      	pop	{r4, r5, r6, pc}
1000189c:	d0000124 	.word	0xd0000124
100018a0:	e000ed00 	.word	0xe000ed00
100018a4:	100002cd 	.word	0x100002cd

100018a8 <irq_remove_handler>:
100018a8:	b5f0      	push	{r4, r5, r6, r7, lr}
100018aa:	46de      	mov	lr, fp
100018ac:	4657      	mov	r7, sl
100018ae:	464e      	mov	r6, r9
100018b0:	4645      	mov	r5, r8
100018b2:	b5e0      	push	{r5, r6, r7, lr}
100018b4:	000c      	movs	r4, r1
100018b6:	b083      	sub	sp, #12
100018b8:	f3ef 8a10 	mrs	sl, PRIMASK
100018bc:	b672      	cpsid	i
100018be:	4a5f      	ldr	r2, [pc, #380]	; (10001a3c <irq_remove_handler+0x194>)
100018c0:	6813      	ldr	r3, [r2, #0]
100018c2:	2b00      	cmp	r3, #0
100018c4:	d0fc      	beq.n	100018c0 <irq_remove_handler+0x18>
100018c6:	f3bf 8f5f 	dmb	sy
100018ca:	2210      	movs	r2, #16
100018cc:	4691      	mov	r9, r2
100018ce:	4481      	add	r9, r0
100018d0:	464a      	mov	r2, r9
100018d2:	4b5b      	ldr	r3, [pc, #364]	; (10001a40 <irq_remove_handler+0x198>)
100018d4:	0096      	lsls	r6, r2, #2
100018d6:	689b      	ldr	r3, [r3, #8]
100018d8:	599d      	ldr	r5, [r3, r6]
100018da:	4b5a      	ldr	r3, [pc, #360]	; (10001a44 <irq_remove_handler+0x19c>)
100018dc:	4698      	mov	r8, r3
100018de:	429d      	cmp	r5, r3
100018e0:	d005      	beq.n	100018ee <irq_remove_handler+0x46>
100018e2:	42a5      	cmp	r5, r4
100018e4:	d016      	beq.n	10001914 <irq_remove_handler+0x6c>
100018e6:	4f58      	ldr	r7, [pc, #352]	; (10001a48 <irq_remove_handler+0x1a0>)
100018e8:	1beb      	subs	r3, r5, r7
100018ea:	2b2f      	cmp	r3, #47	; 0x2f
100018ec:	d914      	bls.n	10001918 <irq_remove_handler+0x70>
100018ee:	4b54      	ldr	r3, [pc, #336]	; (10001a40 <irq_remove_handler+0x198>)
100018f0:	689b      	ldr	r3, [r3, #8]
100018f2:	519d      	str	r5, [r3, r6]
100018f4:	f3bf 8f5f 	dmb	sy
100018f8:	f3bf 8f5f 	dmb	sy
100018fc:	2200      	movs	r2, #0
100018fe:	4b4f      	ldr	r3, [pc, #316]	; (10001a3c <irq_remove_handler+0x194>)
10001900:	601a      	str	r2, [r3, #0]
10001902:	f38a 8810 	msr	PRIMASK, sl
10001906:	b003      	add	sp, #12
10001908:	bc3c      	pop	{r2, r3, r4, r5}
1000190a:	4690      	mov	r8, r2
1000190c:	4699      	mov	r9, r3
1000190e:	46a2      	mov	sl, r4
10001910:	46ab      	mov	fp, r5
10001912:	bdf0      	pop	{r4, r5, r6, r7, pc}
10001914:	001d      	movs	r5, r3
10001916:	e7ea      	b.n	100018ee <irq_remove_handler+0x46>
10001918:	2301      	movs	r3, #1
1000191a:	4083      	lsls	r3, r0
1000191c:	469b      	mov	fp, r3
1000191e:	465a      	mov	r2, fp
10001920:	4b4a      	ldr	r3, [pc, #296]	; (10001a4c <irq_remove_handler+0x1a4>)
10001922:	681b      	ldr	r3, [r3, #0]
10001924:	401a      	ands	r2, r3
10001926:	9200      	str	r2, [sp, #0]
10001928:	465a      	mov	r2, fp
1000192a:	4b49      	ldr	r3, [pc, #292]	; (10001a50 <irq_remove_handler+0x1a8>)
1000192c:	601a      	str	r2, [r3, #0]
1000192e:	f3bf 8f5f 	dmb	sy
10001932:	f7fe fc30 	bl	10000196 <__get_current_exception>
10001936:	9001      	str	r0, [sp, #4]
10001938:	2800      	cmp	r0, #0
1000193a:	d003      	beq.n	10001944 <irq_remove_handler+0x9c>
1000193c:	4581      	cmp	r9, r0
1000193e:	d001      	beq.n	10001944 <irq_remove_handler+0x9c>
10001940:	f7ff fdac 	bl	1000149c <hard_assertion_failure>
10001944:	2301      	movs	r3, #1
10001946:	0029      	movs	r1, r5
10001948:	4399      	bics	r1, r3
1000194a:	688b      	ldr	r3, [r1, #8]
1000194c:	42a3      	cmp	r3, r4
1000194e:	d069      	beq.n	10001a24 <irq_remove_handler+0x17c>
10001950:	000a      	movs	r2, r1
10001952:	e007      	b.n	10001964 <irq_remove_handler+0xbc>
10001954:	0043      	lsls	r3, r0, #1
10001956:	181b      	adds	r3, r3, r0
10001958:	009b      	lsls	r3, r3, #2
1000195a:	18fb      	adds	r3, r7, r3
1000195c:	6898      	ldr	r0, [r3, #8]
1000195e:	42a0      	cmp	r0, r4
10001960:	d011      	beq.n	10001986 <irq_remove_handler+0xde>
10001962:	001a      	movs	r2, r3
10001964:	2006      	movs	r0, #6
10001966:	5610      	ldrsb	r0, [r2, r0]
10001968:	2800      	cmp	r0, #0
1000196a:	daf3      	bge.n	10001954 <irq_remove_handler+0xac>
1000196c:	9b00      	ldr	r3, [sp, #0]
1000196e:	2b00      	cmp	r3, #0
10001970:	d005      	beq.n	1000197e <irq_remove_handler+0xd6>
10001972:	465a      	mov	r2, fp
10001974:	4b37      	ldr	r3, [pc, #220]	; (10001a54 <irq_remove_handler+0x1ac>)
10001976:	601a      	str	r2, [r3, #0]
10001978:	4b34      	ldr	r3, [pc, #208]	; (10001a4c <irq_remove_handler+0x1a4>)
1000197a:	601a      	str	r2, [r3, #0]
1000197c:	e7b7      	b.n	100018ee <irq_remove_handler+0x46>
1000197e:	465a      	mov	r2, fp
10001980:	4b33      	ldr	r3, [pc, #204]	; (10001a50 <irq_remove_handler+0x1a8>)
10001982:	601a      	str	r2, [r3, #0]
10001984:	e7b3      	b.n	100018ee <irq_remove_handler+0x46>
10001986:	2006      	movs	r0, #6
10001988:	5618      	ldrsb	r0, [r3, r0]
1000198a:	2800      	cmp	r0, #0
1000198c:	db22      	blt.n	100019d4 <irq_remove_handler+0x12c>
1000198e:	0042      	lsls	r2, r0, #1
10001990:	1811      	adds	r1, r2, r0
10001992:	0089      	lsls	r1, r1, #2
10001994:	187c      	adds	r4, r7, r1
10001996:	4688      	mov	r8, r1
10001998:	68a1      	ldr	r1, [r4, #8]
1000199a:	6099      	str	r1, [r3, #8]
1000199c:	79e1      	ldrb	r1, [r4, #7]
1000199e:	71d9      	strb	r1, [r3, #7]
100019a0:	2106      	movs	r1, #6
100019a2:	5661      	ldrsb	r1, [r4, r1]
100019a4:	7199      	strb	r1, [r3, #6]
100019a6:	79a1      	ldrb	r1, [r4, #6]
100019a8:	297f      	cmp	r1, #127	; 0x7f
100019aa:	d82b      	bhi.n	10001a04 <irq_remove_handler+0x15c>
100019ac:	88a4      	ldrh	r4, [r4, #4]
100019ae:	1af9      	subs	r1, r7, r3
100019b0:	0564      	lsls	r4, r4, #21
100019b2:	1524      	asrs	r4, r4, #20
100019b4:	4444      	add	r4, r8
100019b6:	1909      	adds	r1, r1, r4
100019b8:	24e0      	movs	r4, #224	; 0xe0
100019ba:	0509      	lsls	r1, r1, #20
100019bc:	0d49      	lsrs	r1, r1, #21
100019be:	0224      	lsls	r4, r4, #8
100019c0:	4321      	orrs	r1, r4
100019c2:	8099      	strh	r1, [r3, #4]
100019c4:	1812      	adds	r2, r2, r0
100019c6:	4b24      	ldr	r3, [pc, #144]	; (10001a58 <irq_remove_handler+0x1b0>)
100019c8:	0092      	lsls	r2, r2, #2
100019ca:	18bf      	adds	r7, r7, r2
100019cc:	781a      	ldrb	r2, [r3, #0]
100019ce:	7018      	strb	r0, [r3, #0]
100019d0:	71ba      	strb	r2, [r7, #6]
100019d2:	e7cb      	b.n	1000196c <irq_remove_handler+0xc4>
100019d4:	9801      	ldr	r0, [sp, #4]
100019d6:	2800      	cmp	r0, #0
100019d8:	d117      	bne.n	10001a0a <irq_remove_handler+0x162>
100019da:	30ff      	adds	r0, #255	; 0xff
100019dc:	7190      	strb	r0, [r2, #6]
100019de:	481f      	ldr	r0, [pc, #124]	; (10001a5c <irq_remove_handler+0x1b4>)
100019e0:	8090      	strh	r0, [r2, #4]
100019e2:	4a1d      	ldr	r2, [pc, #116]	; (10001a58 <irq_remove_handler+0x1b0>)
100019e4:	1bcf      	subs	r7, r1, r7
100019e6:	7810      	ldrb	r0, [r2, #0]
100019e8:	10bf      	asrs	r7, r7, #2
100019ea:	7198      	strb	r0, [r3, #6]
100019ec:	00bb      	lsls	r3, r7, #2
100019ee:	19db      	adds	r3, r3, r7
100019f0:	0119      	lsls	r1, r3, #4
100019f2:	185b      	adds	r3, r3, r1
100019f4:	0219      	lsls	r1, r3, #8
100019f6:	185b      	adds	r3, r3, r1
100019f8:	0419      	lsls	r1, r3, #16
100019fa:	185b      	adds	r3, r3, r1
100019fc:	005b      	lsls	r3, r3, #1
100019fe:	19db      	adds	r3, r3, r7
10001a00:	7013      	strb	r3, [r2, #0]
10001a02:	e7b3      	b.n	1000196c <irq_remove_handler+0xc4>
10001a04:	21bd      	movs	r1, #189	; 0xbd
10001a06:	0209      	lsls	r1, r1, #8
10001a08:	e7db      	b.n	100019c2 <irq_remove_handler+0x11a>
10001a0a:	4a15      	ldr	r2, [pc, #84]	; (10001a60 <irq_remove_handler+0x1b8>)
10001a0c:	4915      	ldr	r1, [pc, #84]	; (10001a64 <irq_remove_handler+0x1bc>)
10001a0e:	1ad2      	subs	r2, r2, r3
10001a10:	3a08      	subs	r2, #8
10001a12:	0250      	lsls	r0, r2, #9
10001a14:	0d40      	lsrs	r0, r0, #21
10001a16:	4301      	orrs	r1, r0
10001a18:	8099      	strh	r1, [r3, #4]
10001a1a:	4913      	ldr	r1, [pc, #76]	; (10001a68 <irq_remove_handler+0x1c0>)
10001a1c:	0852      	lsrs	r2, r2, #1
10001a1e:	430a      	orrs	r2, r1
10001a20:	80da      	strh	r2, [r3, #6]
10001a22:	e7a3      	b.n	1000196c <irq_remove_handler+0xc4>
10001a24:	2006      	movs	r0, #6
10001a26:	5608      	ldrsb	r0, [r1, r0]
10001a28:	000b      	movs	r3, r1
10001a2a:	2800      	cmp	r0, #0
10001a2c:	daaf      	bge.n	1000198e <irq_remove_handler+0xe6>
10001a2e:	9a01      	ldr	r2, [sp, #4]
10001a30:	2a00      	cmp	r2, #0
10001a32:	d1ea      	bne.n	10001a0a <irq_remove_handler+0x162>
10001a34:	000b      	movs	r3, r1
10001a36:	4645      	mov	r5, r8
10001a38:	e7d3      	b.n	100019e2 <irq_remove_handler+0x13a>
10001a3a:	46c0      	nop			; (mov r8, r8)
10001a3c:	d0000124 	.word	0xd0000124
10001a40:	e000ed00 	.word	0xe000ed00
10001a44:	100002cd 	.word	0x100002cd
10001a48:	2000018c 	.word	0x2000018c
10001a4c:	e000e100 	.word	0xe000e100
10001a50:	e000e180 	.word	0xe000e180
10001a54:	e000e280 	.word	0xe000e280
10001a58:	20000b29 	.word	0x20000b29
10001a5c:	ffffbd00 	.word	0xffffbd00
10001a60:	200001c6 	.word	0x200001c6
10001a64:	fffff000 	.word	0xfffff000
10001a68:	fffff800 	.word	0xfffff800

10001a6c <irq_add_tail_to_free_list>:
10001a6c:	b5f8      	push	{r3, r4, r5, r6, r7, lr}
10001a6e:	2501      	movs	r5, #1
10001a70:	0004      	movs	r4, r0
10001a72:	4305      	orrs	r5, r0
10001a74:	f7fe fb8f 	bl	10000196 <__get_current_exception>
10001a78:	f3ef 8610 	mrs	r6, PRIMASK
10001a7c:	b672      	cpsid	i
10001a7e:	4a24      	ldr	r2, [pc, #144]	; (10001b10 <irq_add_tail_to_free_list+0xa4>)
10001a80:	6813      	ldr	r3, [r2, #0]
10001a82:	2b00      	cmp	r3, #0
10001a84:	d0fc      	beq.n	10001a80 <irq_add_tail_to_free_list+0x14>
10001a86:	f3bf 8f5f 	dmb	sy
10001a8a:	4f22      	ldr	r7, [pc, #136]	; (10001b14 <irq_add_tail_to_free_list+0xa8>)
10001a8c:	0080      	lsls	r0, r0, #2
10001a8e:	1be1      	subs	r1, r4, r7
10001a90:	1089      	asrs	r1, r1, #2
10001a92:	008a      	lsls	r2, r1, #2
10001a94:	1852      	adds	r2, r2, r1
10001a96:	0113      	lsls	r3, r2, #4
10001a98:	18d2      	adds	r2, r2, r3
10001a9a:	0213      	lsls	r3, r2, #8
10001a9c:	18d2      	adds	r2, r2, r3
10001a9e:	0413      	lsls	r3, r2, #16
10001aa0:	18d3      	adds	r3, r2, r3
10001aa2:	4a1d      	ldr	r2, [pc, #116]	; (10001b18 <irq_add_tail_to_free_list+0xac>)
10001aa4:	005b      	lsls	r3, r3, #1
10001aa6:	185b      	adds	r3, r3, r1
10001aa8:	6891      	ldr	r1, [r2, #8]
10001aaa:	5809      	ldr	r1, [r1, r0]
10001aac:	42a9      	cmp	r1, r5
10001aae:	d01c      	beq.n	10001aea <irq_add_tail_to_free_list+0x7e>
10001ab0:	2206      	movs	r2, #6
10001ab2:	56ba      	ldrsb	r2, [r7, r2]
10001ab4:	4293      	cmp	r3, r2
10001ab6:	d01c      	beq.n	10001af2 <irq_add_tail_to_free_list+0x86>
10001ab8:	2212      	movs	r2, #18
10001aba:	56ba      	ldrsb	r2, [r7, r2]
10001abc:	4293      	cmp	r3, r2
10001abe:	d022      	beq.n	10001b06 <irq_add_tail_to_free_list+0x9a>
10001ac0:	221e      	movs	r2, #30
10001ac2:	56ba      	ldrsb	r2, [r7, r2]
10001ac4:	4293      	cmp	r3, r2
10001ac6:	d020      	beq.n	10001b0a <irq_add_tail_to_free_list+0x9e>
10001ac8:	222a      	movs	r2, #42	; 0x2a
10001aca:	56ba      	ldrsb	r2, [r7, r2]
10001acc:	2103      	movs	r1, #3
10001ace:	429a      	cmp	r2, r3
10001ad0:	d010      	beq.n	10001af4 <irq_add_tail_to_free_list+0x88>
10001ad2:	4a12      	ldr	r2, [pc, #72]	; (10001b1c <irq_add_tail_to_free_list+0xb0>)
10001ad4:	7811      	ldrb	r1, [r2, #0]
10001ad6:	7013      	strb	r3, [r2, #0]
10001ad8:	71a1      	strb	r1, [r4, #6]
10001ada:	f3bf 8f5f 	dmb	sy
10001ade:	2200      	movs	r2, #0
10001ae0:	4b0b      	ldr	r3, [pc, #44]	; (10001b10 <irq_add_tail_to_free_list+0xa4>)
10001ae2:	601a      	str	r2, [r3, #0]
10001ae4:	f386 8810 	msr	PRIMASK, r6
10001ae8:	bdf8      	pop	{r3, r4, r5, r6, r7, pc}
10001aea:	6892      	ldr	r2, [r2, #8]
10001aec:	490c      	ldr	r1, [pc, #48]	; (10001b20 <irq_add_tail_to_free_list+0xb4>)
10001aee:	5011      	str	r1, [r2, r0]
10001af0:	e7ef      	b.n	10001ad2 <irq_add_tail_to_free_list+0x66>
10001af2:	2100      	movs	r1, #0
10001af4:	004a      	lsls	r2, r1, #1
10001af6:	1852      	adds	r2, r2, r1
10001af8:	21ff      	movs	r1, #255	; 0xff
10001afa:	0092      	lsls	r2, r2, #2
10001afc:	18ba      	adds	r2, r7, r2
10001afe:	7191      	strb	r1, [r2, #6]
10001b00:	4908      	ldr	r1, [pc, #32]	; (10001b24 <irq_add_tail_to_free_list+0xb8>)
10001b02:	8091      	strh	r1, [r2, #4]
10001b04:	e7e5      	b.n	10001ad2 <irq_add_tail_to_free_list+0x66>
10001b06:	2101      	movs	r1, #1
10001b08:	e7f4      	b.n	10001af4 <irq_add_tail_to_free_list+0x88>
10001b0a:	2102      	movs	r1, #2
10001b0c:	e7f2      	b.n	10001af4 <irq_add_tail_to_free_list+0x88>
10001b0e:	46c0      	nop			; (mov r8, r8)
10001b10:	d0000124 	.word	0xd0000124
10001b14:	2000018c 	.word	0x2000018c
10001b18:	e000ed00 	.word	0xe000ed00
10001b1c:	20000b29 	.word	0x20000b29
10001b20:	100002cd 	.word	0x100002cd
10001b24:	ffffbd00 	.word	0xffffbd00

10001b28 <irq_init_priorities>:
10001b28:	b5f0      	push	{r4, r5, r6, r7, lr}
10001b2a:	2200      	movs	r2, #0
10001b2c:	2403      	movs	r4, #3
10001b2e:	27ff      	movs	r7, #255	; 0xff
10001b30:	2680      	movs	r6, #128	; 0x80
10001b32:	0020      	movs	r0, r4
10001b34:	003d      	movs	r5, r7
10001b36:	4b09      	ldr	r3, [pc, #36]	; (10001b5c <irq_init_priorities+0x34>)
10001b38:	0011      	movs	r1, r2
10001b3a:	469c      	mov	ip, r3
10001b3c:	4010      	ands	r0, r2
10001b3e:	00c0      	lsls	r0, r0, #3
10001b40:	4085      	lsls	r5, r0
10001b42:	43a1      	bics	r1, r4
10001b44:	4461      	add	r1, ip
10001b46:	680b      	ldr	r3, [r1, #0]
10001b48:	3201      	adds	r2, #1
10001b4a:	43ab      	bics	r3, r5
10001b4c:	0035      	movs	r5, r6
10001b4e:	4085      	lsls	r5, r0
10001b50:	432b      	orrs	r3, r5
10001b52:	600b      	str	r3, [r1, #0]
10001b54:	2a20      	cmp	r2, #32
10001b56:	d1ec      	bne.n	10001b32 <irq_init_priorities+0xa>
10001b58:	bdf0      	pop	{r4, r5, r6, r7, pc}
10001b5a:	46c0      	nop			; (mov r8, r8)
10001b5c:	e000e400 	.word	0xe000e400

10001b60 <_out_null>:
10001b60:	4770      	bx	lr
10001b62:	46c0      	nop			; (mov r8, r8)

10001b64 <_out_rev>:
10001b64:	b5f8      	push	{r3, r4, r5, r6, r7, lr}
10001b66:	4657      	mov	r7, sl
10001b68:	464e      	mov	r6, r9
10001b6a:	46de      	mov	lr, fp
10001b6c:	4645      	mov	r5, r8
10001b6e:	b5e0      	push	{r5, r6, r7, lr}
10001b70:	001f      	movs	r7, r3
10001b72:	9b0a      	ldr	r3, [sp, #40]	; 0x28
10001b74:	0005      	movs	r5, r0
10001b76:	469b      	mov	fp, r3
10001b78:	9b0d      	ldr	r3, [sp, #52]	; 0x34
10001b7a:	000e      	movs	r6, r1
10001b7c:	4691      	mov	r9, r2
10001b7e:	4692      	mov	sl, r2
10001b80:	079b      	lsls	r3, r3, #30
10001b82:	d118      	bne.n	10001bb6 <_out_rev+0x52>
10001b84:	9b0b      	ldr	r3, [sp, #44]	; 0x2c
10001b86:	9a0c      	ldr	r2, [sp, #48]	; 0x30
10001b88:	4293      	cmp	r3, r2
10001b8a:	d214      	bcs.n	10001bb6 <_out_rev+0x52>
10001b8c:	0013      	movs	r3, r2
10001b8e:	9a0b      	ldr	r2, [sp, #44]	; 0x2c
10001b90:	46b8      	mov	r8, r7
10001b92:	1a9b      	subs	r3, r3, r2
10001b94:	444b      	add	r3, r9
10001b96:	464c      	mov	r4, r9
10001b98:	000f      	movs	r7, r1
10001b9a:	0006      	movs	r6, r0
10001b9c:	001d      	movs	r5, r3
10001b9e:	0022      	movs	r2, r4
10001ba0:	4643      	mov	r3, r8
10001ba2:	3401      	adds	r4, #1
10001ba4:	0039      	movs	r1, r7
10001ba6:	2020      	movs	r0, #32
10001ba8:	47b0      	blx	r6
10001baa:	42ac      	cmp	r4, r5
10001bac:	d1f7      	bne.n	10001b9e <_out_rev+0x3a>
10001bae:	46aa      	mov	sl, r5
10001bb0:	0035      	movs	r5, r6
10001bb2:	003e      	movs	r6, r7
10001bb4:	4647      	mov	r7, r8
10001bb6:	9b0b      	ldr	r3, [sp, #44]	; 0x2c
10001bb8:	2b00      	cmp	r3, #0
10001bba:	d038      	beq.n	10001c2e <_out_rev+0xca>
10001bbc:	449a      	add	sl, r3
10001bbe:	001c      	movs	r4, r3
10001bc0:	46d0      	mov	r8, sl
10001bc2:	4653      	mov	r3, sl
10001bc4:	1b1a      	subs	r2, r3, r4
10001bc6:	465b      	mov	r3, fp
10001bc8:	3c01      	subs	r4, #1
10001bca:	5d18      	ldrb	r0, [r3, r4]
10001bcc:	0031      	movs	r1, r6
10001bce:	003b      	movs	r3, r7
10001bd0:	47a8      	blx	r5
10001bd2:	2c00      	cmp	r4, #0
10001bd4:	d1f5      	bne.n	10001bc2 <_out_rev+0x5e>
10001bd6:	9b0d      	ldr	r3, [sp, #52]	; 0x34
10001bd8:	079b      	lsls	r3, r3, #30
10001bda:	d521      	bpl.n	10001c20 <_out_rev+0xbc>
10001bdc:	4643      	mov	r3, r8
10001bde:	464a      	mov	r2, r9
10001be0:	1a9c      	subs	r4, r3, r2
10001be2:	9b0c      	ldr	r3, [sp, #48]	; 0x30
10001be4:	42a3      	cmp	r3, r4
10001be6:	d91b      	bls.n	10001c20 <_out_rev+0xbc>
10001be8:	003a      	movs	r2, r7
10001bea:	469a      	mov	sl, r3
10001bec:	464f      	mov	r7, r9
10001bee:	4691      	mov	r9, r2
10001bf0:	19e2      	adds	r2, r4, r7
10001bf2:	464b      	mov	r3, r9
10001bf4:	0031      	movs	r1, r6
10001bf6:	2020      	movs	r0, #32
10001bf8:	3401      	adds	r4, #1
10001bfa:	47a8      	blx	r5
10001bfc:	4554      	cmp	r4, sl
10001bfe:	d3f7      	bcc.n	10001bf0 <_out_rev+0x8c>
10001c00:	4643      	mov	r3, r8
10001c02:	990c      	ldr	r1, [sp, #48]	; 0x30
10001c04:	1bdb      	subs	r3, r3, r7
10001c06:	3301      	adds	r3, #1
10001c08:	46b9      	mov	r9, r7
10001c0a:	2200      	movs	r2, #0
10001c0c:	4299      	cmp	r1, r3
10001c0e:	d303      	bcc.n	10001c18 <_out_rev+0xb4>
10001c10:	4643      	mov	r3, r8
10001c12:	1e4a      	subs	r2, r1, #1
10001c14:	444a      	add	r2, r9
10001c16:	1ad2      	subs	r2, r2, r3
10001c18:	4643      	mov	r3, r8
10001c1a:	4690      	mov	r8, r2
10001c1c:	3301      	adds	r3, #1
10001c1e:	4498      	add	r8, r3
10001c20:	4640      	mov	r0, r8
10001c22:	bc3c      	pop	{r2, r3, r4, r5}
10001c24:	4690      	mov	r8, r2
10001c26:	4699      	mov	r9, r3
10001c28:	46a2      	mov	sl, r4
10001c2a:	46ab      	mov	fp, r5
10001c2c:	bdf8      	pop	{r3, r4, r5, r6, r7, pc}
10001c2e:	46d0      	mov	r8, sl
10001c30:	e7d1      	b.n	10001bd6 <_out_rev+0x72>
10001c32:	46c0      	nop			; (mov r8, r8)

10001c34 <_ntoa_format>:
10001c34:	b5f0      	push	{r4, r5, r6, r7, lr}
10001c36:	464f      	mov	r7, r9
10001c38:	4646      	mov	r6, r8
10001c3a:	46d6      	mov	lr, sl
10001c3c:	b5c0      	push	{r6, r7, lr}
10001c3e:	b084      	sub	sp, #16
10001c40:	4698      	mov	r8, r3
10001c42:	ab0e      	add	r3, sp, #56	; 0x38
10001c44:	781b      	ldrb	r3, [r3, #0]
10001c46:	9f12      	ldr	r7, [sp, #72]	; 0x48
10001c48:	4699      	mov	r9, r3
10001c4a:	4694      	mov	ip, r2
10001c4c:	9c0d      	ldr	r4, [sp, #52]	; 0x34
10001c4e:	9b10      	ldr	r3, [sp, #64]	; 0x40
10001c50:	9e11      	ldr	r6, [sp, #68]	; 0x44
10001c52:	07ba      	lsls	r2, r7, #30
10001c54:	d425      	bmi.n	10001ca2 <_ntoa_format+0x6e>
10001c56:	2e00      	cmp	r6, #0
10001c58:	d169      	bne.n	10001d2e <_ntoa_format+0xfa>
10001c5a:	429c      	cmp	r4, r3
10001c5c:	d300      	bcc.n	10001c60 <_ntoa_format+0x2c>
10001c5e:	e0c2      	b.n	10001de6 <_ntoa_format+0x1b2>
10001c60:	2201      	movs	r2, #1
10001c62:	403a      	ands	r2, r7
10001c64:	4692      	mov	sl, r2
10001c66:	2c1f      	cmp	r4, #31
10001c68:	d900      	bls.n	10001c6c <_ntoa_format+0x38>
10001c6a:	e0bb      	b.n	10001de4 <_ntoa_format+0x1b0>
10001c6c:	9a0c      	ldr	r2, [sp, #48]	; 0x30
10001c6e:	1e55      	subs	r5, r2, #1
10001c70:	2230      	movs	r2, #48	; 0x30
10001c72:	e001      	b.n	10001c78 <_ntoa_format+0x44>
10001c74:	2c20      	cmp	r4, #32
10001c76:	d003      	beq.n	10001c80 <_ntoa_format+0x4c>
10001c78:	3401      	adds	r4, #1
10001c7a:	552a      	strb	r2, [r5, r4]
10001c7c:	42a3      	cmp	r3, r4
10001c7e:	d8f9      	bhi.n	10001c74 <_ntoa_format+0x40>
10001c80:	4652      	mov	r2, sl
10001c82:	2a00      	cmp	r2, #0
10001c84:	d00d      	beq.n	10001ca2 <_ntoa_format+0x6e>
10001c86:	42b4      	cmp	r4, r6
10001c88:	d20b      	bcs.n	10001ca2 <_ntoa_format+0x6e>
10001c8a:	2c1f      	cmp	r4, #31
10001c8c:	d862      	bhi.n	10001d54 <_ntoa_format+0x120>
10001c8e:	9a0c      	ldr	r2, [sp, #48]	; 0x30
10001c90:	1e55      	subs	r5, r2, #1
10001c92:	2230      	movs	r2, #48	; 0x30
10001c94:	e001      	b.n	10001c9a <_ntoa_format+0x66>
10001c96:	2c20      	cmp	r4, #32
10001c98:	d05c      	beq.n	10001d54 <_ntoa_format+0x120>
10001c9a:	3401      	adds	r4, #1
10001c9c:	552a      	strb	r2, [r5, r4]
10001c9e:	42b4      	cmp	r4, r6
10001ca0:	d1f9      	bne.n	10001c96 <_ntoa_format+0x62>
10001ca2:	06fa      	lsls	r2, r7, #27
10001ca4:	d535      	bpl.n	10001d12 <_ntoa_format+0xde>
10001ca6:	057a      	lsls	r2, r7, #21
10001ca8:	d45d      	bmi.n	10001d66 <_ntoa_format+0x132>
10001caa:	2c00      	cmp	r4, #0
10001cac:	d157      	bne.n	10001d5e <_ntoa_format+0x12a>
10001cae:	9b0f      	ldr	r3, [sp, #60]	; 0x3c
10001cb0:	2b10      	cmp	r3, #16
10001cb2:	d100      	bne.n	10001cb6 <_ntoa_format+0x82>
10001cb4:	e07c      	b.n	10001db0 <_ntoa_format+0x17c>
10001cb6:	9b0f      	ldr	r3, [sp, #60]	; 0x3c
10001cb8:	2b02      	cmp	r3, #2
10001cba:	d100      	bne.n	10001cbe <_ntoa_format+0x8a>
10001cbc:	e08d      	b.n	10001dda <_ntoa_format+0x1a6>
10001cbe:	2330      	movs	r3, #48	; 0x30
10001cc0:	9a0c      	ldr	r2, [sp, #48]	; 0x30
10001cc2:	2401      	movs	r4, #1
10001cc4:	7013      	strb	r3, [r2, #0]
10001cc6:	464b      	mov	r3, r9
10001cc8:	2b00      	cmp	r3, #0
10001cca:	d027      	beq.n	10001d1c <_ntoa_format+0xe8>
10001ccc:	232d      	movs	r3, #45	; 0x2d
10001cce:	9a0c      	ldr	r2, [sp, #48]	; 0x30
10001cd0:	5513      	strb	r3, [r2, r4]
10001cd2:	3401      	adds	r4, #1
10001cd4:	9b0c      	ldr	r3, [sp, #48]	; 0x30
10001cd6:	4662      	mov	r2, ip
10001cd8:	9300      	str	r3, [sp, #0]
10001cda:	9703      	str	r7, [sp, #12]
10001cdc:	4643      	mov	r3, r8
10001cde:	9602      	str	r6, [sp, #8]
10001ce0:	9401      	str	r4, [sp, #4]
10001ce2:	f7ff ff3f 	bl	10001b64 <_out_rev>
10001ce6:	b004      	add	sp, #16
10001ce8:	bc1c      	pop	{r2, r3, r4}
10001cea:	4690      	mov	r8, r2
10001cec:	4699      	mov	r9, r3
10001cee:	46a2      	mov	sl, r4
10001cf0:	bdf0      	pop	{r4, r5, r6, r7, pc}
10001cf2:	06bb      	lsls	r3, r7, #26
10001cf4:	d463      	bmi.n	10001dbe <_ntoa_format+0x18a>
10001cf6:	2c20      	cmp	r4, #32
10001cf8:	d0ec      	beq.n	10001cd4 <_ntoa_format+0xa0>
10001cfa:	9b0c      	ldr	r3, [sp, #48]	; 0x30
10001cfc:	191a      	adds	r2, r3, r4
10001cfe:	3401      	adds	r4, #1
10001d00:	2378      	movs	r3, #120	; 0x78
10001d02:	7013      	strb	r3, [r2, #0]
10001d04:	2c20      	cmp	r4, #32
10001d06:	d0e5      	beq.n	10001cd4 <_ntoa_format+0xa0>
10001d08:	2230      	movs	r2, #48	; 0x30
10001d0a:	9b0c      	ldr	r3, [sp, #48]	; 0x30
10001d0c:	191b      	adds	r3, r3, r4
10001d0e:	701a      	strb	r2, [r3, #0]
10001d10:	3401      	adds	r4, #1
10001d12:	2c20      	cmp	r4, #32
10001d14:	d0de      	beq.n	10001cd4 <_ntoa_format+0xa0>
10001d16:	464b      	mov	r3, r9
10001d18:	2b00      	cmp	r3, #0
10001d1a:	d1d7      	bne.n	10001ccc <_ntoa_format+0x98>
10001d1c:	077b      	lsls	r3, r7, #29
10001d1e:	d435      	bmi.n	10001d8c <_ntoa_format+0x158>
10001d20:	073b      	lsls	r3, r7, #28
10001d22:	d5d7      	bpl.n	10001cd4 <_ntoa_format+0xa0>
10001d24:	2320      	movs	r3, #32
10001d26:	9a0c      	ldr	r2, [sp, #48]	; 0x30
10001d28:	5513      	strb	r3, [r2, r4]
10001d2a:	3401      	adds	r4, #1
10001d2c:	e7d2      	b.n	10001cd4 <_ntoa_format+0xa0>
10001d2e:	2201      	movs	r2, #1
10001d30:	0015      	movs	r5, r2
10001d32:	403d      	ands	r5, r7
10001d34:	46aa      	mov	sl, r5
10001d36:	423a      	tst	r2, r7
10001d38:	d020      	beq.n	10001d7c <_ntoa_format+0x148>
10001d3a:	464a      	mov	r2, r9
10001d3c:	2a00      	cmp	r2, #0
10001d3e:	d12a      	bne.n	10001d96 <_ntoa_format+0x162>
10001d40:	320c      	adds	r2, #12
10001d42:	423a      	tst	r2, r7
10001d44:	d127      	bne.n	10001d96 <_ntoa_format+0x162>
10001d46:	429c      	cmp	r4, r3
10001d48:	d29d      	bcs.n	10001c86 <_ntoa_format+0x52>
10001d4a:	2c1f      	cmp	r4, #31
10001d4c:	d800      	bhi.n	10001d50 <_ntoa_format+0x11c>
10001d4e:	e78d      	b.n	10001c6c <_ntoa_format+0x38>
10001d50:	2e20      	cmp	r6, #32
10001d52:	d919      	bls.n	10001d88 <_ntoa_format+0x154>
10001d54:	2420      	movs	r4, #32
10001d56:	06fa      	lsls	r2, r7, #27
10001d58:	d5bc      	bpl.n	10001cd4 <_ntoa_format+0xa0>
10001d5a:	057a      	lsls	r2, r7, #21
10001d5c:	d403      	bmi.n	10001d66 <_ntoa_format+0x132>
10001d5e:	42a3      	cmp	r3, r4
10001d60:	d01b      	beq.n	10001d9a <_ntoa_format+0x166>
10001d62:	42a6      	cmp	r6, r4
10001d64:	d019      	beq.n	10001d9a <_ntoa_format+0x166>
10001d66:	9b0f      	ldr	r3, [sp, #60]	; 0x3c
10001d68:	2b10      	cmp	r3, #16
10001d6a:	d0c2      	beq.n	10001cf2 <_ntoa_format+0xbe>
10001d6c:	2b02      	cmp	r3, #2
10001d6e:	d1c9      	bne.n	10001d04 <_ntoa_format+0xd0>
10001d70:	2c20      	cmp	r4, #32
10001d72:	d0af      	beq.n	10001cd4 <_ntoa_format+0xa0>
10001d74:	9b0c      	ldr	r3, [sp, #48]	; 0x30
10001d76:	191b      	adds	r3, r3, r4
10001d78:	3401      	adds	r4, #1
10001d7a:	e040      	b.n	10001dfe <_ntoa_format+0x1ca>
10001d7c:	429c      	cmp	r4, r3
10001d7e:	d300      	bcc.n	10001d82 <_ntoa_format+0x14e>
10001d80:	e78f      	b.n	10001ca2 <_ntoa_format+0x6e>
10001d82:	2c1f      	cmp	r4, #31
10001d84:	d800      	bhi.n	10001d88 <_ntoa_format+0x154>
10001d86:	e771      	b.n	10001c6c <_ntoa_format+0x38>
10001d88:	2420      	movs	r4, #32
10001d8a:	e78a      	b.n	10001ca2 <_ntoa_format+0x6e>
10001d8c:	232b      	movs	r3, #43	; 0x2b
10001d8e:	9a0c      	ldr	r2, [sp, #48]	; 0x30
10001d90:	5513      	strb	r3, [r2, r4]
10001d92:	3401      	adds	r4, #1
10001d94:	e79e      	b.n	10001cd4 <_ntoa_format+0xa0>
10001d96:	3e01      	subs	r6, #1
10001d98:	e7d5      	b.n	10001d46 <_ntoa_format+0x112>
10001d9a:	1e63      	subs	r3, r4, #1
10001d9c:	2c01      	cmp	r4, #1
10001d9e:	d100      	bne.n	10001da2 <_ntoa_format+0x16e>
10001da0:	e785      	b.n	10001cae <_ntoa_format+0x7a>
10001da2:	9a0f      	ldr	r2, [sp, #60]	; 0x3c
10001da4:	2a10      	cmp	r2, #16
10001da6:	d020      	beq.n	10001dea <_ntoa_format+0x1b6>
10001da8:	2a02      	cmp	r2, #2
10001daa:	d025      	beq.n	10001df8 <_ntoa_format+0x1c4>
10001dac:	001c      	movs	r4, r3
10001dae:	e7ab      	b.n	10001d08 <_ntoa_format+0xd4>
10001db0:	06bb      	lsls	r3, r7, #26
10001db2:	d40d      	bmi.n	10001dd0 <_ntoa_format+0x19c>
10001db4:	2378      	movs	r3, #120	; 0x78
10001db6:	9a0c      	ldr	r2, [sp, #48]	; 0x30
10001db8:	2401      	movs	r4, #1
10001dba:	7013      	strb	r3, [r2, #0]
10001dbc:	e7a4      	b.n	10001d08 <_ntoa_format+0xd4>
10001dbe:	2c20      	cmp	r4, #32
10001dc0:	d100      	bne.n	10001dc4 <_ntoa_format+0x190>
10001dc2:	e787      	b.n	10001cd4 <_ntoa_format+0xa0>
10001dc4:	2258      	movs	r2, #88	; 0x58
10001dc6:	9b0c      	ldr	r3, [sp, #48]	; 0x30
10001dc8:	191b      	adds	r3, r3, r4
10001dca:	701a      	strb	r2, [r3, #0]
10001dcc:	3401      	adds	r4, #1
10001dce:	e799      	b.n	10001d04 <_ntoa_format+0xd0>
10001dd0:	2358      	movs	r3, #88	; 0x58
10001dd2:	9a0c      	ldr	r2, [sp, #48]	; 0x30
10001dd4:	2401      	movs	r4, #1
10001dd6:	7013      	strb	r3, [r2, #0]
10001dd8:	e796      	b.n	10001d08 <_ntoa_format+0xd4>
10001dda:	9a0c      	ldr	r2, [sp, #48]	; 0x30
10001ddc:	3360      	adds	r3, #96	; 0x60
10001dde:	2401      	movs	r4, #1
10001de0:	7013      	strb	r3, [r2, #0]
10001de2:	e791      	b.n	10001d08 <_ntoa_format+0xd4>
10001de4:	2420      	movs	r4, #32
10001de6:	2600      	movs	r6, #0
10001de8:	e75b      	b.n	10001ca2 <_ntoa_format+0x6e>
10001dea:	3c02      	subs	r4, #2
10001dec:	06ba      	lsls	r2, r7, #26
10001dee:	d4e9      	bmi.n	10001dc4 <_ntoa_format+0x190>
10001df0:	9a0c      	ldr	r2, [sp, #48]	; 0x30
10001df2:	1912      	adds	r2, r2, r4
10001df4:	001c      	movs	r4, r3
10001df6:	e783      	b.n	10001d00 <_ntoa_format+0xcc>
10001df8:	9a0c      	ldr	r2, [sp, #48]	; 0x30
10001dfa:	4692      	mov	sl, r2
10001dfc:	4453      	add	r3, sl
10001dfe:	2262      	movs	r2, #98	; 0x62
10001e00:	701a      	strb	r2, [r3, #0]
10001e02:	e77f      	b.n	10001d04 <_ntoa_format+0xd0>

10001e04 <_out_char>:
10001e04:	b510      	push	{r4, lr}
10001e06:	2800      	cmp	r0, #0
10001e08:	d100      	bne.n	10001e0c <_out_char+0x8>
10001e0a:	bd10      	pop	{r4, pc}
10001e0c:	f002 f9ea 	bl	100041e4 <__wrap_putchar>
10001e10:	e7fb      	b.n	10001e0a <_out_char+0x6>
10001e12:	46c0      	nop			; (mov r8, r8)

10001e14 <_out_fct>:
10001e14:	000b      	movs	r3, r1
10001e16:	b510      	push	{r4, lr}
10001e18:	2800      	cmp	r0, #0
10001e1a:	d002      	beq.n	10001e22 <_out_fct+0xe>
10001e1c:	6849      	ldr	r1, [r1, #4]
10001e1e:	681b      	ldr	r3, [r3, #0]
10001e20:	4798      	blx	r3
10001e22:	bd10      	pop	{r4, pc}

10001e24 <_etoa>:
10001e24:	b5f0      	push	{r4, r5, r6, r7, lr}
10001e26:	46de      	mov	lr, fp
10001e28:	4657      	mov	r7, sl
10001e2a:	464e      	mov	r6, r9
10001e2c:	4645      	mov	r5, r8
10001e2e:	b5e0      	push	{r5, r6, r7, lr}
10001e30:	b09b      	sub	sp, #108	; 0x6c
10001e32:	469a      	mov	sl, r3
10001e34:	9b24      	ldr	r3, [sp, #144]	; 0x90
10001e36:	468b      	mov	fp, r1
10001e38:	4699      	mov	r9, r3
10001e3a:	9b25      	ldr	r3, [sp, #148]	; 0x94
10001e3c:	900b      	str	r0, [sp, #44]	; 0x2c
10001e3e:	4698      	mov	r8, r3
10001e40:	920c      	str	r2, [sp, #48]	; 0x30
10001e42:	4643      	mov	r3, r8
10001e44:	464a      	mov	r2, r9
10001e46:	4648      	mov	r0, r9
10001e48:	4641      	mov	r1, r8
10001e4a:	f001 fccc 	bl	100037e6 <__wrap___aeabi_dcmpun>
10001e4e:	2800      	cmp	r0, #0
10001e50:	d000      	beq.n	10001e54 <_etoa+0x30>
10001e52:	e1a3      	b.n	1000219c <_etoa+0x378>
10001e54:	2201      	movs	r2, #1
10001e56:	4648      	mov	r0, r9
10001e58:	4641      	mov	r1, r8
10001e5a:	4be2      	ldr	r3, [pc, #904]	; (100021e4 <_etoa+0x3c0>)
10001e5c:	4252      	negs	r2, r2
10001e5e:	f001 fcbd 	bl	100037dc <__wrap___aeabi_dcmpgt>
10001e62:	2800      	cmp	r0, #0
10001e64:	d000      	beq.n	10001e68 <_etoa+0x44>
10001e66:	e199      	b.n	1000219c <_etoa+0x378>
10001e68:	2201      	movs	r2, #1
10001e6a:	4648      	mov	r0, r9
10001e6c:	4641      	mov	r1, r8
10001e6e:	4bde      	ldr	r3, [pc, #888]	; (100021e8 <_etoa+0x3c4>)
10001e70:	4252      	negs	r2, r2
10001e72:	f001 fc9d 	bl	100037b0 <__wrap___aeabi_dcmplt>
10001e76:	2800      	cmp	r0, #0
10001e78:	d000      	beq.n	10001e7c <_etoa+0x58>
10001e7a:	e18f      	b.n	1000219c <_etoa+0x378>
10001e7c:	2200      	movs	r2, #0
10001e7e:	2300      	movs	r3, #0
10001e80:	4648      	mov	r0, r9
10001e82:	4641      	mov	r1, r8
10001e84:	f001 fc94 	bl	100037b0 <__wrap___aeabi_dcmplt>
10001e88:	2800      	cmp	r0, #0
10001e8a:	d000      	beq.n	10001e8e <_etoa+0x6a>
10001e8c:	e1de      	b.n	1000224c <_etoa+0x428>
10001e8e:	464a      	mov	r2, r9
10001e90:	4643      	mov	r3, r8
10001e92:	920a      	str	r2, [sp, #40]	; 0x28
10001e94:	9309      	str	r3, [sp, #36]	; 0x24
10001e96:	2380      	movs	r3, #128	; 0x80
10001e98:	9a28      	ldr	r2, [sp, #160]	; 0xa0
10001e9a:	00db      	lsls	r3, r3, #3
10001e9c:	401a      	ands	r2, r3
10001e9e:	9211      	str	r2, [sp, #68]	; 0x44
10001ea0:	9a28      	ldr	r2, [sp, #160]	; 0xa0
10001ea2:	421a      	tst	r2, r3
10001ea4:	d101      	bne.n	10001eaa <_etoa+0x86>
10001ea6:	2306      	movs	r3, #6
10001ea8:	9326      	str	r3, [sp, #152]	; 0x98
10001eaa:	4bd0      	ldr	r3, [pc, #832]	; (100021ec <_etoa+0x3c8>)
10001eac:	9f09      	ldr	r7, [sp, #36]	; 0x24
10001eae:	469c      	mov	ip, r3
10001eb0:	0078      	lsls	r0, r7, #1
10001eb2:	0d40      	lsrs	r0, r0, #21
10001eb4:	4460      	add	r0, ip
10001eb6:	f001 fca9 	bl	1000380c <__wrap___aeabi_i2d>
10001eba:	4acd      	ldr	r2, [pc, #820]	; (100021f0 <_etoa+0x3cc>)
10001ebc:	4bcd      	ldr	r3, [pc, #820]	; (100021f4 <_etoa+0x3d0>)
10001ebe:	f001 fc35 	bl	1000372c <__wrap___aeabi_dmul>
10001ec2:	4acd      	ldr	r2, [pc, #820]	; (100021f8 <_etoa+0x3d4>)
10001ec4:	4bcd      	ldr	r3, [pc, #820]	; (100021fc <_etoa+0x3d8>)
10001ec6:	f001 fc1f 	bl	10003708 <__wrap___aeabi_dadd>
10001eca:	033b      	lsls	r3, r7, #12
10001ecc:	4acc      	ldr	r2, [pc, #816]	; (10002200 <_etoa+0x3dc>)
10001ece:	9e0a      	ldr	r6, [sp, #40]	; 0x28
10001ed0:	0b1b      	lsrs	r3, r3, #12
10001ed2:	431a      	orrs	r2, r3
10001ed4:	0004      	movs	r4, r0
10001ed6:	000d      	movs	r5, r1
10001ed8:	0030      	movs	r0, r6
10001eda:	0011      	movs	r1, r2
10001edc:	4bc9      	ldr	r3, [pc, #804]	; (10002204 <_etoa+0x3e0>)
10001ede:	2200      	movs	r2, #0
10001ee0:	9709      	str	r7, [sp, #36]	; 0x24
10001ee2:	f001 fc08 	bl	100036f6 <__wrap___aeabi_dsub>
10001ee6:	4ac8      	ldr	r2, [pc, #800]	; (10002208 <_etoa+0x3e4>)
10001ee8:	4bc8      	ldr	r3, [pc, #800]	; (1000220c <_etoa+0x3e8>)
10001eea:	f001 fc1f 	bl	1000372c <__wrap___aeabi_dmul>
10001eee:	0002      	movs	r2, r0
10001ef0:	000b      	movs	r3, r1
10001ef2:	0020      	movs	r0, r4
10001ef4:	0029      	movs	r1, r5
10001ef6:	f001 fc07 	bl	10003708 <__wrap___aeabi_dadd>
10001efa:	f001 fc9f 	bl	1000383c <__wrap___aeabi_d2iz>
10001efe:	900d      	str	r0, [sp, #52]	; 0x34
10001f00:	f001 fc84 	bl	1000380c <__wrap___aeabi_i2d>
10001f04:	4ac2      	ldr	r2, [pc, #776]	; (10002210 <_etoa+0x3ec>)
10001f06:	4bc3      	ldr	r3, [pc, #780]	; (10002214 <_etoa+0x3f0>)
10001f08:	0004      	movs	r4, r0
10001f0a:	000d      	movs	r5, r1
10001f0c:	f001 fc0e 	bl	1000372c <__wrap___aeabi_dmul>
10001f10:	2200      	movs	r2, #0
10001f12:	4bc1      	ldr	r3, [pc, #772]	; (10002218 <_etoa+0x3f4>)
10001f14:	f001 fbf8 	bl	10003708 <__wrap___aeabi_dadd>
10001f18:	f001 fc90 	bl	1000383c <__wrap___aeabi_d2iz>
10001f1c:	4abf      	ldr	r2, [pc, #764]	; (1000221c <_etoa+0x3f8>)
10001f1e:	0006      	movs	r6, r0
10001f20:	4bbf      	ldr	r3, [pc, #764]	; (10002220 <_etoa+0x3fc>)
10001f22:	0020      	movs	r0, r4
10001f24:	0029      	movs	r1, r5
10001f26:	f001 fc01 	bl	1000372c <__wrap___aeabi_dmul>
10001f2a:	0004      	movs	r4, r0
10001f2c:	0030      	movs	r0, r6
10001f2e:	000d      	movs	r5, r1
10001f30:	9610      	str	r6, [sp, #64]	; 0x40
10001f32:	f001 fc6b 	bl	1000380c <__wrap___aeabi_i2d>
10001f36:	4abb      	ldr	r2, [pc, #748]	; (10002224 <_etoa+0x400>)
10001f38:	4bbb      	ldr	r3, [pc, #748]	; (10002228 <_etoa+0x404>)
10001f3a:	f001 fbf7 	bl	1000372c <__wrap___aeabi_dmul>
10001f3e:	0002      	movs	r2, r0
10001f40:	000b      	movs	r3, r1
10001f42:	0020      	movs	r0, r4
10001f44:	0029      	movs	r1, r5
10001f46:	f001 fbd6 	bl	100036f6 <__wrap___aeabi_dsub>
10001f4a:	0002      	movs	r2, r0
10001f4c:	000b      	movs	r3, r1
10001f4e:	0006      	movs	r6, r0
10001f50:	000f      	movs	r7, r1
10001f52:	f001 fbeb 	bl	1000372c <__wrap___aeabi_dmul>
10001f56:	0032      	movs	r2, r6
10001f58:	0004      	movs	r4, r0
10001f5a:	000d      	movs	r5, r1
10001f5c:	003b      	movs	r3, r7
10001f5e:	0030      	movs	r0, r6
10001f60:	0039      	movs	r1, r7
10001f62:	f001 fbd1 	bl	10003708 <__wrap___aeabi_dadd>
10001f66:	2200      	movs	r2, #0
10001f68:	900e      	str	r0, [sp, #56]	; 0x38
10001f6a:	910f      	str	r1, [sp, #60]	; 0x3c
10001f6c:	4baf      	ldr	r3, [pc, #700]	; (1000222c <_etoa+0x408>)
10001f6e:	0020      	movs	r0, r4
10001f70:	0029      	movs	r1, r5
10001f72:	f001 fbd2 	bl	1000371a <__wrap___aeabi_ddiv>
10001f76:	2200      	movs	r2, #0
10001f78:	4bad      	ldr	r3, [pc, #692]	; (10002230 <_etoa+0x40c>)
10001f7a:	f001 fbc5 	bl	10003708 <__wrap___aeabi_dadd>
10001f7e:	0002      	movs	r2, r0
10001f80:	000b      	movs	r3, r1
10001f82:	0020      	movs	r0, r4
10001f84:	0029      	movs	r1, r5
10001f86:	f001 fbc8 	bl	1000371a <__wrap___aeabi_ddiv>
10001f8a:	2200      	movs	r2, #0
10001f8c:	4ba9      	ldr	r3, [pc, #676]	; (10002234 <_etoa+0x410>)
10001f8e:	f001 fbbb 	bl	10003708 <__wrap___aeabi_dadd>
10001f92:	0002      	movs	r2, r0
10001f94:	000b      	movs	r3, r1
10001f96:	0020      	movs	r0, r4
10001f98:	0029      	movs	r1, r5
10001f9a:	f001 fbbe 	bl	1000371a <__wrap___aeabi_ddiv>
10001f9e:	000d      	movs	r5, r1
10001fa0:	2180      	movs	r1, #128	; 0x80
10001fa2:	0004      	movs	r4, r0
10001fa4:	0032      	movs	r2, r6
10001fa6:	003b      	movs	r3, r7
10001fa8:	2000      	movs	r0, #0
10001faa:	05c9      	lsls	r1, r1, #23
10001fac:	f001 fba3 	bl	100036f6 <__wrap___aeabi_dsub>
10001fb0:	0002      	movs	r2, r0
10001fb2:	000b      	movs	r3, r1
10001fb4:	0020      	movs	r0, r4
10001fb6:	0029      	movs	r1, r5
10001fb8:	f001 fba6 	bl	10003708 <__wrap___aeabi_dadd>
10001fbc:	0002      	movs	r2, r0
10001fbe:	000b      	movs	r3, r1
10001fc0:	980e      	ldr	r0, [sp, #56]	; 0x38
10001fc2:	990f      	ldr	r1, [sp, #60]	; 0x3c
10001fc4:	f001 fba9 	bl	1000371a <__wrap___aeabi_ddiv>
10001fc8:	2200      	movs	r2, #0
10001fca:	4b8d      	ldr	r3, [pc, #564]	; (10002200 <_etoa+0x3dc>)
10001fcc:	f001 fb9c 	bl	10003708 <__wrap___aeabi_dadd>
10001fd0:	9b10      	ldr	r3, [sp, #64]	; 0x40
10001fd2:	4a99      	ldr	r2, [pc, #612]	; (10002238 <_etoa+0x414>)
10001fd4:	001c      	movs	r4, r3
10001fd6:	4694      	mov	ip, r2
10001fd8:	4464      	add	r4, ip
10001fda:	2200      	movs	r2, #0
10001fdc:	0523      	lsls	r3, r4, #20
10001fde:	f001 fba5 	bl	1000372c <__wrap___aeabi_dmul>
10001fe2:	0006      	movs	r6, r0
10001fe4:	000f      	movs	r7, r1
10001fe6:	0002      	movs	r2, r0
10001fe8:	000b      	movs	r3, r1
10001fea:	980a      	ldr	r0, [sp, #40]	; 0x28
10001fec:	9909      	ldr	r1, [sp, #36]	; 0x24
10001fee:	f001 fbdf 	bl	100037b0 <__wrap___aeabi_dcmplt>
10001ff2:	2800      	cmp	r0, #0
10001ff4:	d00a      	beq.n	1000200c <_etoa+0x1e8>
10001ff6:	9b0d      	ldr	r3, [sp, #52]	; 0x34
10001ff8:	0030      	movs	r0, r6
10001ffa:	3b01      	subs	r3, #1
10001ffc:	0039      	movs	r1, r7
10001ffe:	930d      	str	r3, [sp, #52]	; 0x34
10002000:	2200      	movs	r2, #0
10002002:	4b8b      	ldr	r3, [pc, #556]	; (10002230 <_etoa+0x40c>)
10002004:	f001 fb89 	bl	1000371a <__wrap___aeabi_ddiv>
10002008:	0006      	movs	r6, r0
1000200a:	000f      	movs	r7, r1
1000200c:	9d0d      	ldr	r5, [sp, #52]	; 0x34
1000200e:	24c6      	movs	r4, #198	; 0xc6
10002010:	002b      	movs	r3, r5
10002012:	3363      	adds	r3, #99	; 0x63
10002014:	429c      	cmp	r4, r3
10002016:	41a4      	sbcs	r4, r4
10002018:	9b28      	ldr	r3, [sp, #160]	; 0xa0
1000201a:	4264      	negs	r4, r4
1000201c:	3404      	adds	r4, #4
1000201e:	051b      	lsls	r3, r3, #20
10002020:	d51f      	bpl.n	10002062 <_etoa+0x23e>
10002022:	4a86      	ldr	r2, [pc, #536]	; (1000223c <_etoa+0x418>)
10002024:	4b86      	ldr	r3, [pc, #536]	; (10002240 <_etoa+0x41c>)
10002026:	980a      	ldr	r0, [sp, #40]	; 0x28
10002028:	9909      	ldr	r1, [sp, #36]	; 0x24
1000202a:	f001 fbcf 	bl	100037cc <__wrap___aeabi_dcmpge>
1000202e:	2800      	cmp	r0, #0
10002030:	d100      	bne.n	10002034 <_etoa+0x210>
10002032:	e0cc      	b.n	100021ce <_etoa+0x3aa>
10002034:	2200      	movs	r2, #0
10002036:	4b83      	ldr	r3, [pc, #524]	; (10002244 <_etoa+0x420>)
10002038:	980a      	ldr	r0, [sp, #40]	; 0x28
1000203a:	9909      	ldr	r1, [sp, #36]	; 0x24
1000203c:	f001 fbb8 	bl	100037b0 <__wrap___aeabi_dcmplt>
10002040:	2800      	cmp	r0, #0
10002042:	d100      	bne.n	10002046 <_etoa+0x222>
10002044:	e0c3      	b.n	100021ce <_etoa+0x3aa>
10002046:	9a26      	ldr	r2, [sp, #152]	; 0x98
10002048:	4295      	cmp	r5, r2
1000204a:	da00      	bge.n	1000204e <_etoa+0x22a>
1000204c:	e10b      	b.n	10002266 <_etoa+0x442>
1000204e:	2300      	movs	r3, #0
10002050:	9326      	str	r3, [sp, #152]	; 0x98
10002052:	2380      	movs	r3, #128	; 0x80
10002054:	9a28      	ldr	r2, [sp, #160]	; 0xa0
10002056:	00db      	lsls	r3, r3, #3
10002058:	431a      	orrs	r2, r3
1000205a:	2300      	movs	r3, #0
1000205c:	2400      	movs	r4, #0
1000205e:	9228      	str	r2, [sp, #160]	; 0xa0
10002060:	930d      	str	r3, [sp, #52]	; 0x34
10002062:	9b27      	ldr	r3, [sp, #156]	; 0x9c
10002064:	2500      	movs	r5, #0
10002066:	42a3      	cmp	r3, r4
10002068:	d900      	bls.n	1000206c <_etoa+0x248>
1000206a:	1b1d      	subs	r5, r3, r4
1000206c:	2302      	movs	r3, #2
1000206e:	9a28      	ldr	r2, [sp, #160]	; 0xa0
10002070:	401a      	ands	r2, r3
10002072:	9210      	str	r2, [sp, #64]	; 0x40
10002074:	9a28      	ldr	r2, [sp, #160]	; 0xa0
10002076:	4213      	tst	r3, r2
10002078:	d003      	beq.n	10002082 <_etoa+0x25e>
1000207a:	4263      	negs	r3, r4
1000207c:	4163      	adcs	r3, r4
1000207e:	425b      	negs	r3, r3
10002080:	401d      	ands	r5, r3
10002082:	9b0d      	ldr	r3, [sp, #52]	; 0x34
10002084:	2b00      	cmp	r3, #0
10002086:	d007      	beq.n	10002098 <_etoa+0x274>
10002088:	980a      	ldr	r0, [sp, #40]	; 0x28
1000208a:	9909      	ldr	r1, [sp, #36]	; 0x24
1000208c:	0032      	movs	r2, r6
1000208e:	003b      	movs	r3, r7
10002090:	f001 fb43 	bl	1000371a <__wrap___aeabi_ddiv>
10002094:	900a      	str	r0, [sp, #40]	; 0x28
10002096:	9109      	str	r1, [sp, #36]	; 0x24
10002098:	2200      	movs	r2, #0
1000209a:	2300      	movs	r3, #0
1000209c:	4648      	mov	r0, r9
1000209e:	4641      	mov	r1, r8
100020a0:	f001 fb86 	bl	100037b0 <__wrap___aeabi_dcmplt>
100020a4:	2800      	cmp	r0, #0
100020a6:	d005      	beq.n	100020b4 <_etoa+0x290>
100020a8:	2080      	movs	r0, #128	; 0x80
100020aa:	0600      	lsls	r0, r0, #24
100020ac:	4684      	mov	ip, r0
100020ae:	9909      	ldr	r1, [sp, #36]	; 0x24
100020b0:	4461      	add	r1, ip
100020b2:	9109      	str	r1, [sp, #36]	; 0x24
100020b4:	9a28      	ldr	r2, [sp, #160]	; 0xa0
100020b6:	4b64      	ldr	r3, [pc, #400]	; (10002248 <_etoa+0x424>)
100020b8:	9e0b      	ldr	r6, [sp, #44]	; 0x2c
100020ba:	4013      	ands	r3, r2
100020bc:	9304      	str	r3, [sp, #16]
100020be:	9b26      	ldr	r3, [sp, #152]	; 0x98
100020c0:	9a0a      	ldr	r2, [sp, #40]	; 0x28
100020c2:	9302      	str	r3, [sp, #8]
100020c4:	9b09      	ldr	r3, [sp, #36]	; 0x24
100020c6:	9503      	str	r5, [sp, #12]
100020c8:	9200      	str	r2, [sp, #0]
100020ca:	9301      	str	r3, [sp, #4]
100020cc:	4659      	mov	r1, fp
100020ce:	4653      	mov	r3, sl
100020d0:	0030      	movs	r0, r6
100020d2:	9a0c      	ldr	r2, [sp, #48]	; 0x30
100020d4:	f000 f8cc 	bl	10002270 <_ftoa>
100020d8:	0005      	movs	r5, r0
100020da:	2c00      	cmp	r4, #0
100020dc:	d06f      	beq.n	100021be <_etoa+0x39a>
100020de:	9b28      	ldr	r3, [sp, #160]	; 0xa0
100020e0:	002a      	movs	r2, r5
100020e2:	0698      	lsls	r0, r3, #26
100020e4:	231f      	movs	r3, #31
100020e6:	17c0      	asrs	r0, r0, #31
100020e8:	4398      	bics	r0, r3
100020ea:	1c6b      	adds	r3, r5, #1
100020ec:	4698      	mov	r8, r3
100020ee:	4659      	mov	r1, fp
100020f0:	4653      	mov	r3, sl
100020f2:	3065      	adds	r0, #101	; 0x65
100020f4:	47b0      	blx	r6
100020f6:	9b0d      	ldr	r3, [sp, #52]	; 0x34
100020f8:	2600      	movs	r6, #0
100020fa:	17da      	asrs	r2, r3, #31
100020fc:	189d      	adds	r5, r3, r2
100020fe:	0fdb      	lsrs	r3, r3, #31
10002100:	4699      	mov	r9, r3
10002102:	4055      	eors	r5, r2
10002104:	3c01      	subs	r4, #1
10002106:	e001      	b.n	1000210c <_etoa+0x2e8>
10002108:	2e20      	cmp	r6, #32
1000210a:	d013      	beq.n	10002134 <_etoa+0x310>
1000210c:	aa0a      	add	r2, sp, #40	; 0x28
1000210e:	4694      	mov	ip, r2
10002110:	231f      	movs	r3, #31
10002112:	0028      	movs	r0, r5
10002114:	4463      	add	r3, ip
10002116:	210a      	movs	r1, #10
10002118:	3601      	adds	r6, #1
1000211a:	199f      	adds	r7, r3, r6
1000211c:	f001 f8a6 	bl	1000326c <__wrap___aeabi_uidiv>
10002120:	3130      	adds	r1, #48	; 0x30
10002122:	7039      	strb	r1, [r7, #0]
10002124:	0028      	movs	r0, r5
10002126:	210a      	movs	r1, #10
10002128:	f001 f8a0 	bl	1000326c <__wrap___aeabi_uidiv>
1000212c:	002f      	movs	r7, r5
1000212e:	0005      	movs	r5, r0
10002130:	2f09      	cmp	r7, #9
10002132:	d8e9      	bhi.n	10002108 <_etoa+0x2e4>
10002134:	2305      	movs	r3, #5
10002136:	9306      	str	r3, [sp, #24]
10002138:	2300      	movs	r3, #0
1000213a:	9304      	str	r3, [sp, #16]
1000213c:	330a      	adds	r3, #10
1000213e:	9303      	str	r3, [sp, #12]
10002140:	464b      	mov	r3, r9
10002142:	9601      	str	r6, [sp, #4]
10002144:	9e0b      	ldr	r6, [sp, #44]	; 0x2c
10002146:	9302      	str	r3, [sp, #8]
10002148:	ab12      	add	r3, sp, #72	; 0x48
1000214a:	9300      	str	r3, [sp, #0]
1000214c:	4642      	mov	r2, r8
1000214e:	4653      	mov	r3, sl
10002150:	4659      	mov	r1, fp
10002152:	0030      	movs	r0, r6
10002154:	9405      	str	r4, [sp, #20]
10002156:	f7ff fd6d 	bl	10001c34 <_ntoa_format>
1000215a:	9b10      	ldr	r3, [sp, #64]	; 0x40
1000215c:	0005      	movs	r5, r0
1000215e:	2b00      	cmp	r3, #0
10002160:	d02d      	beq.n	100021be <_etoa+0x39a>
10002162:	9b0c      	ldr	r3, [sp, #48]	; 0x30
10002164:	9a27      	ldr	r2, [sp, #156]	; 0x9c
10002166:	1ac4      	subs	r4, r0, r3
10002168:	42a2      	cmp	r2, r4
1000216a:	d928      	bls.n	100021be <_etoa+0x39a>
1000216c:	4681      	mov	r9, r0
1000216e:	465d      	mov	r5, fp
10002170:	4698      	mov	r8, r3
10002172:	0017      	movs	r7, r2
10002174:	4643      	mov	r3, r8
10002176:	0029      	movs	r1, r5
10002178:	191a      	adds	r2, r3, r4
1000217a:	2020      	movs	r0, #32
1000217c:	4653      	mov	r3, sl
1000217e:	3401      	adds	r4, #1
10002180:	47b0      	blx	r6
10002182:	42a7      	cmp	r7, r4
10002184:	d8f6      	bhi.n	10002174 <_etoa+0x350>
10002186:	464d      	mov	r5, r9
10002188:	990c      	ldr	r1, [sp, #48]	; 0x30
1000218a:	9827      	ldr	r0, [sp, #156]	; 0x9c
1000218c:	1a6b      	subs	r3, r5, r1
1000218e:	3301      	adds	r3, #1
10002190:	2200      	movs	r2, #0
10002192:	4298      	cmp	r0, r3
10002194:	d261      	bcs.n	1000225a <_etoa+0x436>
10002196:	3501      	adds	r5, #1
10002198:	1955      	adds	r5, r2, r5
1000219a:	e010      	b.n	100021be <_etoa+0x39a>
1000219c:	9b28      	ldr	r3, [sp, #160]	; 0xa0
1000219e:	464a      	mov	r2, r9
100021a0:	9304      	str	r3, [sp, #16]
100021a2:	9b27      	ldr	r3, [sp, #156]	; 0x9c
100021a4:	4659      	mov	r1, fp
100021a6:	9303      	str	r3, [sp, #12]
100021a8:	9b26      	ldr	r3, [sp, #152]	; 0x98
100021aa:	980b      	ldr	r0, [sp, #44]	; 0x2c
100021ac:	9302      	str	r3, [sp, #8]
100021ae:	4643      	mov	r3, r8
100021b0:	9200      	str	r2, [sp, #0]
100021b2:	9301      	str	r3, [sp, #4]
100021b4:	4653      	mov	r3, sl
100021b6:	9a0c      	ldr	r2, [sp, #48]	; 0x30
100021b8:	f000 f85a 	bl	10002270 <_ftoa>
100021bc:	0005      	movs	r5, r0
100021be:	0028      	movs	r0, r5
100021c0:	b01b      	add	sp, #108	; 0x6c
100021c2:	bc3c      	pop	{r2, r3, r4, r5}
100021c4:	4690      	mov	r8, r2
100021c6:	4699      	mov	r9, r3
100021c8:	46a2      	mov	sl, r4
100021ca:	46ab      	mov	fp, r5
100021cc:	bdf0      	pop	{r4, r5, r6, r7, pc}
100021ce:	9b26      	ldr	r3, [sp, #152]	; 0x98
100021d0:	2b00      	cmp	r3, #0
100021d2:	d100      	bne.n	100021d6 <_etoa+0x3b2>
100021d4:	e745      	b.n	10002062 <_etoa+0x23e>
100021d6:	9b11      	ldr	r3, [sp, #68]	; 0x44
100021d8:	1e5a      	subs	r2, r3, #1
100021da:	4193      	sbcs	r3, r2
100021dc:	9a26      	ldr	r2, [sp, #152]	; 0x98
100021de:	1ad3      	subs	r3, r2, r3
100021e0:	9326      	str	r3, [sp, #152]	; 0x98
100021e2:	e73e      	b.n	10002062 <_etoa+0x23e>
100021e4:	7fefffff 	.word	0x7fefffff
100021e8:	ffefffff 	.word	0xffefffff
100021ec:	fffffc01 	.word	0xfffffc01
100021f0:	509f79fb 	.word	0x509f79fb
100021f4:	3fd34413 	.word	0x3fd34413
100021f8:	8b60c8b3 	.word	0x8b60c8b3
100021fc:	3fc68a28 	.word	0x3fc68a28
10002200:	3ff00000 	.word	0x3ff00000
10002204:	3ff80000 	.word	0x3ff80000
10002208:	636f4361 	.word	0x636f4361
1000220c:	3fd287a7 	.word	0x3fd287a7
10002210:	0979a371 	.word	0x0979a371
10002214:	400a934f 	.word	0x400a934f
10002218:	3fe00000 	.word	0x3fe00000
1000221c:	bbb55516 	.word	0xbbb55516
10002220:	40026bb1 	.word	0x40026bb1
10002224:	fefa39ef 	.word	0xfefa39ef
10002228:	3fe62e42 	.word	0x3fe62e42
1000222c:	402c0000 	.word	0x402c0000
10002230:	40240000 	.word	0x40240000
10002234:	40180000 	.word	0x40180000
10002238:	000003ff 	.word	0x000003ff
1000223c:	eb1c432d 	.word	0xeb1c432d
10002240:	3f1a36e2 	.word	0x3f1a36e2
10002244:	412e8480 	.word	0x412e8480
10002248:	fffff7ff 	.word	0xfffff7ff
1000224c:	464b      	mov	r3, r9
1000224e:	930a      	str	r3, [sp, #40]	; 0x28
10002250:	2380      	movs	r3, #128	; 0x80
10002252:	061b      	lsls	r3, r3, #24
10002254:	4443      	add	r3, r8
10002256:	9309      	str	r3, [sp, #36]	; 0x24
10002258:	e61d      	b.n	10001e96 <_etoa+0x72>
1000225a:	000a      	movs	r2, r1
1000225c:	4684      	mov	ip, r0
1000225e:	3a01      	subs	r2, #1
10002260:	4462      	add	r2, ip
10002262:	1b52      	subs	r2, r2, r5
10002264:	e797      	b.n	10002196 <_etoa+0x372>
10002266:	1b50      	subs	r0, r2, r5
10002268:	1e43      	subs	r3, r0, #1
1000226a:	9326      	str	r3, [sp, #152]	; 0x98
1000226c:	e6f1      	b.n	10002052 <_etoa+0x22e>
1000226e:	46c0      	nop			; (mov r8, r8)

10002270 <_ftoa>:
10002270:	b5f0      	push	{r4, r5, r6, r7, lr}
10002272:	464e      	mov	r6, r9
10002274:	46de      	mov	lr, fp
10002276:	4657      	mov	r7, sl
10002278:	4645      	mov	r5, r8
1000227a:	b5e0      	push	{r5, r6, r7, lr}
1000227c:	b097      	sub	sp, #92	; 0x5c
1000227e:	4699      	mov	r9, r3
10002280:	9e20      	ldr	r6, [sp, #128]	; 0x80
10002282:	9f21      	ldr	r7, [sp, #132]	; 0x84
10002284:	9b22      	ldr	r3, [sp, #136]	; 0x88
10002286:	4683      	mov	fp, r0
10002288:	4698      	mov	r8, r3
1000228a:	9107      	str	r1, [sp, #28]
1000228c:	920c      	str	r2, [sp, #48]	; 0x30
1000228e:	003b      	movs	r3, r7
10002290:	0032      	movs	r2, r6
10002292:	0030      	movs	r0, r6
10002294:	0039      	movs	r1, r7
10002296:	f001 faa6 	bl	100037e6 <__wrap___aeabi_dcmpun>
1000229a:	2800      	cmp	r0, #0
1000229c:	d000      	beq.n	100022a0 <_ftoa+0x30>
1000229e:	e1c1      	b.n	10002624 <_ftoa+0x3b4>
100022a0:	2201      	movs	r2, #1
100022a2:	0030      	movs	r0, r6
100022a4:	0039      	movs	r1, r7
100022a6:	4bca      	ldr	r3, [pc, #808]	; (100025d0 <_ftoa+0x360>)
100022a8:	4252      	negs	r2, r2
100022aa:	f001 fa81 	bl	100037b0 <__wrap___aeabi_dcmplt>
100022ae:	2800      	cmp	r0, #0
100022b0:	d000      	beq.n	100022b4 <_ftoa+0x44>
100022b2:	e0e0      	b.n	10002476 <_ftoa+0x206>
100022b4:	2201      	movs	r2, #1
100022b6:	0030      	movs	r0, r6
100022b8:	0039      	movs	r1, r7
100022ba:	4bc6      	ldr	r3, [pc, #792]	; (100025d4 <_ftoa+0x364>)
100022bc:	4252      	negs	r2, r2
100022be:	f001 fa8d 	bl	100037dc <__wrap___aeabi_dcmpgt>
100022c2:	2800      	cmp	r0, #0
100022c4:	d000      	beq.n	100022c8 <_ftoa+0x58>
100022c6:	e0b6      	b.n	10002436 <_ftoa+0x1c6>
100022c8:	2200      	movs	r2, #0
100022ca:	0030      	movs	r0, r6
100022cc:	0039      	movs	r1, r7
100022ce:	4bc2      	ldr	r3, [pc, #776]	; (100025d8 <_ftoa+0x368>)
100022d0:	f001 fa84 	bl	100037dc <__wrap___aeabi_dcmpgt>
100022d4:	2800      	cmp	r0, #0
100022d6:	d000      	beq.n	100022da <_ftoa+0x6a>
100022d8:	e098      	b.n	1000240c <_ftoa+0x19c>
100022da:	2200      	movs	r2, #0
100022dc:	0030      	movs	r0, r6
100022de:	0039      	movs	r1, r7
100022e0:	4bbe      	ldr	r3, [pc, #760]	; (100025dc <_ftoa+0x36c>)
100022e2:	f001 fa65 	bl	100037b0 <__wrap___aeabi_dcmplt>
100022e6:	2800      	cmp	r0, #0
100022e8:	d000      	beq.n	100022ec <_ftoa+0x7c>
100022ea:	e08f      	b.n	1000240c <_ftoa+0x19c>
100022ec:	2200      	movs	r2, #0
100022ee:	2300      	movs	r3, #0
100022f0:	0030      	movs	r0, r6
100022f2:	0039      	movs	r1, r7
100022f4:	f001 fa5c 	bl	100037b0 <__wrap___aeabi_dcmplt>
100022f8:	2800      	cmp	r0, #0
100022fa:	d000      	beq.n	100022fe <_ftoa+0x8e>
100022fc:	e0b0      	b.n	10002460 <_ftoa+0x1f0>
100022fe:	2300      	movs	r3, #0
10002300:	930d      	str	r3, [sp, #52]	; 0x34
10002302:	9b24      	ldr	r3, [sp, #144]	; 0x90
10002304:	055b      	lsls	r3, r3, #21
10002306:	d401      	bmi.n	1000230c <_ftoa+0x9c>
10002308:	2306      	movs	r3, #6
1000230a:	4698      	mov	r8, r3
1000230c:	ab08      	add	r3, sp, #32
1000230e:	469c      	mov	ip, r3
10002310:	2217      	movs	r2, #23
10002312:	2400      	movs	r4, #0
10002314:	2330      	movs	r3, #48	; 0x30
10002316:	4641      	mov	r1, r8
10002318:	4462      	add	r2, ip
1000231a:	e004      	b.n	10002326 <_ftoa+0xb6>
1000231c:	3401      	adds	r4, #1
1000231e:	5513      	strb	r3, [r2, r4]
10002320:	3901      	subs	r1, #1
10002322:	2c20      	cmp	r4, #32
10002324:	d001      	beq.n	1000232a <_ftoa+0xba>
10002326:	2909      	cmp	r1, #9
10002328:	d8f8      	bhi.n	1000231c <_ftoa+0xac>
1000232a:	4688      	mov	r8, r1
1000232c:	0030      	movs	r0, r6
1000232e:	0039      	movs	r1, r7
10002330:	f001 fa84 	bl	1000383c <__wrap___aeabi_d2iz>
10002334:	4643      	mov	r3, r8
10002336:	00da      	lsls	r2, r3, #3
10002338:	4ba9      	ldr	r3, [pc, #676]	; (100025e0 <_ftoa+0x370>)
1000233a:	0005      	movs	r5, r0
1000233c:	189b      	adds	r3, r3, r2
1000233e:	681a      	ldr	r2, [r3, #0]
10002340:	685b      	ldr	r3, [r3, #4]
10002342:	9208      	str	r2, [sp, #32]
10002344:	9309      	str	r3, [sp, #36]	; 0x24
10002346:	f001 fa61 	bl	1000380c <__wrap___aeabi_i2d>
1000234a:	0002      	movs	r2, r0
1000234c:	000b      	movs	r3, r1
1000234e:	0030      	movs	r0, r6
10002350:	0039      	movs	r1, r7
10002352:	f001 f9d0 	bl	100036f6 <__wrap___aeabi_dsub>
10002356:	9a08      	ldr	r2, [sp, #32]
10002358:	9b09      	ldr	r3, [sp, #36]	; 0x24
1000235a:	f001 f9e7 	bl	1000372c <__wrap___aeabi_dmul>
1000235e:	900a      	str	r0, [sp, #40]	; 0x28
10002360:	910b      	str	r1, [sp, #44]	; 0x2c
10002362:	f001 fa8f 	bl	10003884 <__wrap___aeabi_d2uiz>
10002366:	4682      	mov	sl, r0
10002368:	f001 fa4c 	bl	10003804 <__wrap___aeabi_ui2d>
1000236c:	0002      	movs	r2, r0
1000236e:	000b      	movs	r3, r1
10002370:	980a      	ldr	r0, [sp, #40]	; 0x28
10002372:	990b      	ldr	r1, [sp, #44]	; 0x2c
10002374:	f001 f9bf 	bl	100036f6 <__wrap___aeabi_dsub>
10002378:	2200      	movs	r2, #0
1000237a:	4b9a      	ldr	r3, [pc, #616]	; (100025e4 <_ftoa+0x374>)
1000237c:	900a      	str	r0, [sp, #40]	; 0x28
1000237e:	910b      	str	r1, [sp, #44]	; 0x2c
10002380:	f001 fa2c 	bl	100037dc <__wrap___aeabi_dcmpgt>
10002384:	2800      	cmp	r0, #0
10002386:	d100      	bne.n	1000238a <_ftoa+0x11a>
10002388:	e0c0      	b.n	1000250c <_ftoa+0x29c>
1000238a:	2301      	movs	r3, #1
1000238c:	469c      	mov	ip, r3
1000238e:	44e2      	add	sl, ip
10002390:	4650      	mov	r0, sl
10002392:	f001 fa37 	bl	10003804 <__wrap___aeabi_ui2d>
10002396:	0002      	movs	r2, r0
10002398:	000b      	movs	r3, r1
1000239a:	9808      	ldr	r0, [sp, #32]
1000239c:	9909      	ldr	r1, [sp, #36]	; 0x24
1000239e:	f001 fa0d 	bl	100037bc <__wrap___aeabi_dcmple>
100023a2:	2800      	cmp	r0, #0
100023a4:	d002      	beq.n	100023ac <_ftoa+0x13c>
100023a6:	2300      	movs	r3, #0
100023a8:	469a      	mov	sl, r3
100023aa:	3501      	adds	r5, #1
100023ac:	4643      	mov	r3, r8
100023ae:	2b00      	cmp	r3, #0
100023b0:	d069      	beq.n	10002486 <_ftoa+0x216>
100023b2:	ab08      	add	r3, sp, #32
100023b4:	2617      	movs	r6, #23
100023b6:	469c      	mov	ip, r3
100023b8:	9508      	str	r5, [sp, #32]
100023ba:	4466      	add	r6, ip
100023bc:	4655      	mov	r5, sl
100023be:	e014      	b.n	100023ea <_ftoa+0x17a>
100023c0:	2301      	movs	r3, #1
100023c2:	425b      	negs	r3, r3
100023c4:	4443      	add	r3, r8
100023c6:	210a      	movs	r1, #10
100023c8:	0028      	movs	r0, r5
100023ca:	469a      	mov	sl, r3
100023cc:	f000 ff4e 	bl	1000326c <__wrap___aeabi_uidiv>
100023d0:	3401      	adds	r4, #1
100023d2:	3130      	adds	r1, #48	; 0x30
100023d4:	1937      	adds	r7, r6, r4
100023d6:	7039      	strb	r1, [r7, #0]
100023d8:	0028      	movs	r0, r5
100023da:	210a      	movs	r1, #10
100023dc:	f000 ff46 	bl	1000326c <__wrap___aeabi_uidiv>
100023e0:	2d09      	cmp	r5, #9
100023e2:	d800      	bhi.n	100023e6 <_ftoa+0x176>
100023e4:	e0d5      	b.n	10002592 <_ftoa+0x322>
100023e6:	46d0      	mov	r8, sl
100023e8:	0005      	movs	r5, r0
100023ea:	2c20      	cmp	r4, #32
100023ec:	d1e8      	bne.n	100023c0 <_ftoa+0x150>
100023ee:	2303      	movs	r3, #3
100023f0:	9a24      	ldr	r2, [sp, #144]	; 0x90
100023f2:	4013      	ands	r3, r2
100023f4:	2b01      	cmp	r3, #1
100023f6:	d100      	bne.n	100023fa <_ftoa+0x18a>
100023f8:	e100      	b.n	100025fc <_ftoa+0x38c>
100023fa:	ab0e      	add	r3, sp, #56	; 0x38
100023fc:	4698      	mov	r8, r3
100023fe:	9b24      	ldr	r3, [sp, #144]	; 0x90
10002400:	9401      	str	r4, [sp, #4]
10002402:	9303      	str	r3, [sp, #12]
10002404:	9b23      	ldr	r3, [sp, #140]	; 0x8c
10002406:	9302      	str	r3, [sp, #8]
10002408:	4643      	mov	r3, r8
1000240a:	e01e      	b.n	1000244a <_ftoa+0x1da>
1000240c:	9b24      	ldr	r3, [sp, #144]	; 0x90
1000240e:	4658      	mov	r0, fp
10002410:	9304      	str	r3, [sp, #16]
10002412:	9b23      	ldr	r3, [sp, #140]	; 0x8c
10002414:	9600      	str	r6, [sp, #0]
10002416:	9701      	str	r7, [sp, #4]
10002418:	9303      	str	r3, [sp, #12]
1000241a:	4643      	mov	r3, r8
1000241c:	9a0c      	ldr	r2, [sp, #48]	; 0x30
1000241e:	9302      	str	r3, [sp, #8]
10002420:	9907      	ldr	r1, [sp, #28]
10002422:	464b      	mov	r3, r9
10002424:	f7ff fcfe 	bl	10001e24 <_etoa>
10002428:	b017      	add	sp, #92	; 0x5c
1000242a:	bc3c      	pop	{r2, r3, r4, r5}
1000242c:	4690      	mov	r8, r2
1000242e:	4699      	mov	r9, r3
10002430:	46a2      	mov	sl, r4
10002432:	46ab      	mov	fp, r5
10002434:	bdf0      	pop	{r4, r5, r6, r7, pc}
10002436:	9b24      	ldr	r3, [sp, #144]	; 0x90
10002438:	075b      	lsls	r3, r3, #29
1000243a:	d40e      	bmi.n	1000245a <_ftoa+0x1ea>
1000243c:	2203      	movs	r2, #3
1000243e:	4b6a      	ldr	r3, [pc, #424]	; (100025e8 <_ftoa+0x378>)
10002440:	9924      	ldr	r1, [sp, #144]	; 0x90
10002442:	9201      	str	r2, [sp, #4]
10002444:	9103      	str	r1, [sp, #12]
10002446:	9923      	ldr	r1, [sp, #140]	; 0x8c
10002448:	9102      	str	r1, [sp, #8]
1000244a:	9300      	str	r3, [sp, #0]
1000244c:	4658      	mov	r0, fp
1000244e:	464b      	mov	r3, r9
10002450:	9a0c      	ldr	r2, [sp, #48]	; 0x30
10002452:	9907      	ldr	r1, [sp, #28]
10002454:	f7ff fb86 	bl	10001b64 <_out_rev>
10002458:	e7e6      	b.n	10002428 <_ftoa+0x1b8>
1000245a:	2204      	movs	r2, #4
1000245c:	4b63      	ldr	r3, [pc, #396]	; (100025ec <_ftoa+0x37c>)
1000245e:	e7ef      	b.n	10002440 <_ftoa+0x1d0>
10002460:	003b      	movs	r3, r7
10002462:	0032      	movs	r2, r6
10002464:	2000      	movs	r0, #0
10002466:	2100      	movs	r1, #0
10002468:	f001 f945 	bl	100036f6 <__wrap___aeabi_dsub>
1000246c:	2301      	movs	r3, #1
1000246e:	0006      	movs	r6, r0
10002470:	000f      	movs	r7, r1
10002472:	930d      	str	r3, [sp, #52]	; 0x34
10002474:	e745      	b.n	10002302 <_ftoa+0x92>
10002476:	9b24      	ldr	r3, [sp, #144]	; 0x90
10002478:	9303      	str	r3, [sp, #12]
1000247a:	9b23      	ldr	r3, [sp, #140]	; 0x8c
1000247c:	9302      	str	r3, [sp, #8]
1000247e:	2304      	movs	r3, #4
10002480:	9301      	str	r3, [sp, #4]
10002482:	4b5b      	ldr	r3, [pc, #364]	; (100025f0 <_ftoa+0x380>)
10002484:	e7e1      	b.n	1000244a <_ftoa+0x1da>
10002486:	0028      	movs	r0, r5
10002488:	f001 f9c0 	bl	1000380c <__wrap___aeabi_i2d>
1000248c:	0002      	movs	r2, r0
1000248e:	000b      	movs	r3, r1
10002490:	0030      	movs	r0, r6
10002492:	0039      	movs	r1, r7
10002494:	f001 f92f 	bl	100036f6 <__wrap___aeabi_dsub>
10002498:	4b52      	ldr	r3, [pc, #328]	; (100025e4 <_ftoa+0x374>)
1000249a:	2200      	movs	r2, #0
1000249c:	0006      	movs	r6, r0
1000249e:	000f      	movs	r7, r1
100024a0:	f001 f986 	bl	100037b0 <__wrap___aeabi_dcmplt>
100024a4:	ab0e      	add	r3, sp, #56	; 0x38
100024a6:	4698      	mov	r8, r3
100024a8:	2800      	cmp	r0, #0
100024aa:	d10a      	bne.n	100024c2 <_ftoa+0x252>
100024ac:	2200      	movs	r2, #0
100024ae:	0030      	movs	r0, r6
100024b0:	0039      	movs	r1, r7
100024b2:	4b4c      	ldr	r3, [pc, #304]	; (100025e4 <_ftoa+0x374>)
100024b4:	f001 f992 	bl	100037dc <__wrap___aeabi_dcmpgt>
100024b8:	2800      	cmp	r0, #0
100024ba:	d102      	bne.n	100024c2 <_ftoa+0x252>
100024bc:	07eb      	lsls	r3, r5, #31
100024be:	d500      	bpl.n	100024c2 <_ftoa+0x252>
100024c0:	3501      	adds	r5, #1
100024c2:	2c20      	cmp	r4, #32
100024c4:	d032      	beq.n	1000252c <_ftoa+0x2bc>
100024c6:	aa08      	add	r2, sp, #32
100024c8:	4694      	mov	ip, r2
100024ca:	2317      	movs	r3, #23
100024cc:	0028      	movs	r0, r5
100024ce:	4463      	add	r3, ip
100024d0:	210a      	movs	r1, #10
100024d2:	3401      	adds	r4, #1
100024d4:	191e      	adds	r6, r3, r4
100024d6:	f000 fe9d 	bl	10003214 <__wrap___aeabi_idiv>
100024da:	3130      	adds	r1, #48	; 0x30
100024dc:	0028      	movs	r0, r5
100024de:	7031      	strb	r1, [r6, #0]
100024e0:	210a      	movs	r1, #10
100024e2:	f000 fe97 	bl	10003214 <__wrap___aeabi_idiv>
100024e6:	1e05      	subs	r5, r0, #0
100024e8:	d1eb      	bne.n	100024c2 <_ftoa+0x252>
100024ea:	2303      	movs	r3, #3
100024ec:	9a24      	ldr	r2, [sp, #144]	; 0x90
100024ee:	4013      	ands	r3, r2
100024f0:	2b01      	cmp	r3, #1
100024f2:	d100      	bne.n	100024f6 <_ftoa+0x286>
100024f4:	e091      	b.n	1000261a <_ftoa+0x3aa>
100024f6:	2c1f      	cmp	r4, #31
100024f8:	d900      	bls.n	100024fc <_ftoa+0x28c>
100024fa:	e780      	b.n	100023fe <_ftoa+0x18e>
100024fc:	9b0d      	ldr	r3, [sp, #52]	; 0x34
100024fe:	2b00      	cmp	r3, #0
10002500:	d03b      	beq.n	1000257a <_ftoa+0x30a>
10002502:	232d      	movs	r3, #45	; 0x2d
10002504:	4642      	mov	r2, r8
10002506:	5513      	strb	r3, [r2, r4]
10002508:	3401      	adds	r4, #1
1000250a:	e778      	b.n	100023fe <_ftoa+0x18e>
1000250c:	2200      	movs	r2, #0
1000250e:	980a      	ldr	r0, [sp, #40]	; 0x28
10002510:	990b      	ldr	r1, [sp, #44]	; 0x2c
10002512:	4b34      	ldr	r3, [pc, #208]	; (100025e4 <_ftoa+0x374>)
10002514:	f001 f94c 	bl	100037b0 <__wrap___aeabi_dcmplt>
10002518:	2800      	cmp	r0, #0
1000251a:	d000      	beq.n	1000251e <_ftoa+0x2ae>
1000251c:	e746      	b.n	100023ac <_ftoa+0x13c>
1000251e:	4653      	mov	r3, sl
10002520:	2b00      	cmp	r3, #0
10002522:	d167      	bne.n	100025f4 <_ftoa+0x384>
10002524:	2301      	movs	r3, #1
10002526:	469c      	mov	ip, r3
10002528:	44e2      	add	sl, ip
1000252a:	e73f      	b.n	100023ac <_ftoa+0x13c>
1000252c:	2303      	movs	r3, #3
1000252e:	9a24      	ldr	r2, [sp, #144]	; 0x90
10002530:	4013      	ands	r3, r2
10002532:	2b01      	cmp	r3, #1
10002534:	d000      	beq.n	10002538 <_ftoa+0x2c8>
10002536:	e762      	b.n	100023fe <_ftoa+0x18e>
10002538:	9b23      	ldr	r3, [sp, #140]	; 0x8c
1000253a:	2b00      	cmp	r3, #0
1000253c:	d100      	bne.n	10002540 <_ftoa+0x2d0>
1000253e:	e75e      	b.n	100023fe <_ftoa+0x18e>
10002540:	9b0d      	ldr	r3, [sp, #52]	; 0x34
10002542:	2b00      	cmp	r3, #0
10002544:	d103      	bne.n	1000254e <_ftoa+0x2de>
10002546:	9a24      	ldr	r2, [sp, #144]	; 0x90
10002548:	330c      	adds	r3, #12
1000254a:	4213      	tst	r3, r2
1000254c:	d002      	beq.n	10002554 <_ftoa+0x2e4>
1000254e:	9b23      	ldr	r3, [sp, #140]	; 0x8c
10002550:	3b01      	subs	r3, #1
10002552:	9323      	str	r3, [sp, #140]	; 0x8c
10002554:	9b23      	ldr	r3, [sp, #140]	; 0x8c
10002556:	429c      	cmp	r4, r3
10002558:	d2cd      	bcs.n	100024f6 <_ftoa+0x286>
1000255a:	ab08      	add	r3, sp, #32
1000255c:	469c      	mov	ip, r3
1000255e:	2217      	movs	r2, #23
10002560:	2330      	movs	r3, #48	; 0x30
10002562:	4462      	add	r2, ip
10002564:	2c1f      	cmp	r4, #31
10002566:	d806      	bhi.n	10002576 <_ftoa+0x306>
10002568:	9923      	ldr	r1, [sp, #140]	; 0x8c
1000256a:	3401      	adds	r4, #1
1000256c:	5513      	strb	r3, [r2, r4]
1000256e:	428c      	cmp	r4, r1
10002570:	d0c1      	beq.n	100024f6 <_ftoa+0x286>
10002572:	2c20      	cmp	r4, #32
10002574:	d1f8      	bne.n	10002568 <_ftoa+0x2f8>
10002576:	2420      	movs	r4, #32
10002578:	e741      	b.n	100023fe <_ftoa+0x18e>
1000257a:	9b24      	ldr	r3, [sp, #144]	; 0x90
1000257c:	075b      	lsls	r3, r3, #29
1000257e:	d421      	bmi.n	100025c4 <_ftoa+0x354>
10002580:	9b24      	ldr	r3, [sp, #144]	; 0x90
10002582:	071b      	lsls	r3, r3, #28
10002584:	d400      	bmi.n	10002588 <_ftoa+0x318>
10002586:	e73a      	b.n	100023fe <_ftoa+0x18e>
10002588:	2320      	movs	r3, #32
1000258a:	4642      	mov	r2, r8
1000258c:	5513      	strb	r3, [r2, r4]
1000258e:	3401      	adds	r4, #1
10002590:	e735      	b.n	100023fe <_ftoa+0x18e>
10002592:	4657      	mov	r7, sl
10002594:	9d08      	ldr	r5, [sp, #32]
10002596:	2c20      	cmp	r4, #32
10002598:	d037      	beq.n	1000260a <_ftoa+0x39a>
1000259a:	0022      	movs	r2, r4
1000259c:	2130      	movs	r1, #48	; 0x30
1000259e:	4640      	mov	r0, r8
100025a0:	2f00      	cmp	r7, #0
100025a2:	d008      	beq.n	100025b6 <_ftoa+0x346>
100025a4:	3201      	adds	r2, #1
100025a6:	54b1      	strb	r1, [r6, r2]
100025a8:	2a20      	cmp	r2, #32
100025aa:	d043      	beq.n	10002634 <_ftoa+0x3c4>
100025ac:	43d3      	mvns	r3, r2
100025ae:	191b      	adds	r3, r3, r4
100025b0:	181b      	adds	r3, r3, r0
100025b2:	2b00      	cmp	r3, #0
100025b4:	d1f6      	bne.n	100025a4 <_ftoa+0x334>
100025b6:	ab0e      	add	r3, sp, #56	; 0x38
100025b8:	4698      	mov	r8, r3
100025ba:	232e      	movs	r3, #46	; 0x2e
100025bc:	4641      	mov	r1, r8
100025be:	1c54      	adds	r4, r2, #1
100025c0:	548b      	strb	r3, [r1, r2]
100025c2:	e77e      	b.n	100024c2 <_ftoa+0x252>
100025c4:	232b      	movs	r3, #43	; 0x2b
100025c6:	4642      	mov	r2, r8
100025c8:	5513      	strb	r3, [r2, r4]
100025ca:	3401      	adds	r4, #1
100025cc:	e717      	b.n	100023fe <_ftoa+0x18e>
100025ce:	46c0      	nop			; (mov r8, r8)
100025d0:	ffefffff 	.word	0xffefffff
100025d4:	7fefffff 	.word	0x7fefffff
100025d8:	41cdcd65 	.word	0x41cdcd65
100025dc:	c1cdcd65 	.word	0xc1cdcd65
100025e0:	10005168 	.word	0x10005168
100025e4:	3fe00000 	.word	0x3fe00000
100025e8:	10004f6c 	.word	0x10004f6c
100025ec:	10004f70 	.word	0x10004f70
100025f0:	10004f7c 	.word	0x10004f7c
100025f4:	07db      	lsls	r3, r3, #31
100025f6:	d400      	bmi.n	100025fa <_ftoa+0x38a>
100025f8:	e6d8      	b.n	100023ac <_ftoa+0x13c>
100025fa:	e793      	b.n	10002524 <_ftoa+0x2b4>
100025fc:	9b23      	ldr	r3, [sp, #140]	; 0x8c
100025fe:	2b00      	cmp	r3, #0
10002600:	d100      	bne.n	10002604 <_ftoa+0x394>
10002602:	e6fa      	b.n	100023fa <_ftoa+0x18a>
10002604:	ab0e      	add	r3, sp, #56	; 0x38
10002606:	4698      	mov	r8, r3
10002608:	e79a      	b.n	10002540 <_ftoa+0x2d0>
1000260a:	2303      	movs	r3, #3
1000260c:	9a24      	ldr	r2, [sp, #144]	; 0x90
1000260e:	4013      	ands	r3, r2
10002610:	2b01      	cmp	r3, #1
10002612:	d000      	beq.n	10002616 <_ftoa+0x3a6>
10002614:	e6f1      	b.n	100023fa <_ftoa+0x18a>
10002616:	ab0e      	add	r3, sp, #56	; 0x38
10002618:	4698      	mov	r8, r3
1000261a:	9b23      	ldr	r3, [sp, #140]	; 0x8c
1000261c:	2b00      	cmp	r3, #0
1000261e:	d100      	bne.n	10002622 <_ftoa+0x3b2>
10002620:	e769      	b.n	100024f6 <_ftoa+0x286>
10002622:	e78d      	b.n	10002540 <_ftoa+0x2d0>
10002624:	9b24      	ldr	r3, [sp, #144]	; 0x90
10002626:	9303      	str	r3, [sp, #12]
10002628:	9b23      	ldr	r3, [sp, #140]	; 0x8c
1000262a:	9302      	str	r3, [sp, #8]
1000262c:	2303      	movs	r3, #3
1000262e:	9301      	str	r3, [sp, #4]
10002630:	4b06      	ldr	r3, [pc, #24]	; (1000264c <_ftoa+0x3dc>)
10002632:	e70a      	b.n	1000244a <_ftoa+0x1da>
10002634:	2303      	movs	r3, #3
10002636:	9a24      	ldr	r2, [sp, #144]	; 0x90
10002638:	2420      	movs	r4, #32
1000263a:	4013      	ands	r3, r2
1000263c:	2b01      	cmp	r3, #1
1000263e:	d000      	beq.n	10002642 <_ftoa+0x3d2>
10002640:	e6db      	b.n	100023fa <_ftoa+0x18a>
10002642:	9b23      	ldr	r3, [sp, #140]	; 0x8c
10002644:	2420      	movs	r4, #32
10002646:	2b00      	cmp	r3, #0
10002648:	d1dc      	bne.n	10002604 <_ftoa+0x394>
1000264a:	e6d6      	b.n	100023fa <_ftoa+0x18a>
1000264c:	10004f78 	.word	0x10004f78

10002650 <_vsnprintf>:
10002650:	b5f0      	push	{r4, r5, r6, r7, lr}
10002652:	46de      	mov	lr, fp
10002654:	464e      	mov	r6, r9
10002656:	4657      	mov	r7, sl
10002658:	4645      	mov	r5, r8
1000265a:	b5e0      	push	{r5, r6, r7, lr}
1000265c:	b09f      	sub	sp, #124	; 0x7c
1000265e:	001c      	movs	r4, r3
10002660:	9b28      	ldr	r3, [sp, #160]	; 0xa0
10002662:	4693      	mov	fp, r2
10002664:	9309      	str	r3, [sp, #36]	; 0x24
10002666:	4acf      	ldr	r2, [pc, #828]	; (100029a4 <_vsnprintf+0x354>)
10002668:	4bcf      	ldr	r3, [pc, #828]	; (100029a8 <_vsnprintf+0x358>)
1000266a:	4689      	mov	r9, r1
1000266c:	9008      	str	r0, [sp, #32]
1000266e:	601a      	str	r2, [r3, #0]
10002670:	2900      	cmp	r1, #0
10002672:	d100      	bne.n	10002676 <_vsnprintf+0x26>
10002674:	e216      	b.n	10002aa4 <_vsnprintf+0x454>
10002676:	2300      	movs	r3, #0
10002678:	7820      	ldrb	r0, [r4, #0]
1000267a:	469a      	mov	sl, r3
1000267c:	2800      	cmp	r0, #0
1000267e:	d100      	bne.n	10002682 <_vsnprintf+0x32>
10002680:	e218      	b.n	10002ab4 <_vsnprintf+0x464>
10002682:	0026      	movs	r6, r4
10002684:	001d      	movs	r5, r3
10002686:	464c      	mov	r4, r9
10002688:	e00a      	b.n	100026a0 <_vsnprintf+0x50>
1000268a:	002a      	movs	r2, r5
1000268c:	1c6f      	adds	r7, r5, #1
1000268e:	465b      	mov	r3, fp
10002690:	9d08      	ldr	r5, [sp, #32]
10002692:	0021      	movs	r1, r4
10002694:	47a8      	blx	r5
10002696:	003d      	movs	r5, r7
10002698:	3601      	adds	r6, #1
1000269a:	7830      	ldrb	r0, [r6, #0]
1000269c:	2800      	cmp	r0, #0
1000269e:	d07a      	beq.n	10002796 <_vsnprintf+0x146>
100026a0:	2825      	cmp	r0, #37	; 0x25
100026a2:	d1f2      	bne.n	1000268a <_vsnprintf+0x3a>
100026a4:	2310      	movs	r3, #16
100026a6:	469a      	mov	sl, r3
100026a8:	3b08      	subs	r3, #8
100026aa:	4699      	mov	r9, r3
100026ac:	3b04      	subs	r3, #4
100026ae:	4698      	mov	r8, r3
100026b0:	3b02      	subs	r3, #2
100026b2:	2100      	movs	r1, #0
100026b4:	469c      	mov	ip, r3
100026b6:	1c72      	adds	r2, r6, #1
100026b8:	7810      	ldrb	r0, [r2, #0]
100026ba:	0016      	movs	r6, r2
100026bc:	0003      	movs	r3, r0
100026be:	3b20      	subs	r3, #32
100026c0:	b2db      	uxtb	r3, r3
100026c2:	2b10      	cmp	r3, #16
100026c4:	d803      	bhi.n	100026ce <_vsnprintf+0x7e>
100026c6:	4fb9      	ldr	r7, [pc, #740]	; (100029ac <_vsnprintf+0x35c>)
100026c8:	009b      	lsls	r3, r3, #2
100026ca:	58fb      	ldr	r3, [r7, r3]
100026cc:	469f      	mov	pc, r3
100026ce:	0003      	movs	r3, r0
100026d0:	3b30      	subs	r3, #48	; 0x30
100026d2:	2b09      	cmp	r3, #9
100026d4:	d93c      	bls.n	10002750 <_vsnprintf+0x100>
100026d6:	2300      	movs	r3, #0
100026d8:	930a      	str	r3, [sp, #40]	; 0x28
100026da:	282a      	cmp	r0, #42	; 0x2a
100026dc:	d100      	bne.n	100026e0 <_vsnprintf+0x90>
100026de:	e071      	b.n	100027c4 <_vsnprintf+0x174>
100026e0:	2300      	movs	r3, #0
100026e2:	4698      	mov	r8, r3
100026e4:	282e      	cmp	r0, #46	; 0x2e
100026e6:	d047      	beq.n	10002778 <_vsnprintf+0x128>
100026e8:	0003      	movs	r3, r0
100026ea:	3b68      	subs	r3, #104	; 0x68
100026ec:	b2db      	uxtb	r3, r3
100026ee:	2b12      	cmp	r3, #18
100026f0:	d81f      	bhi.n	10002732 <_vsnprintf+0xe2>
100026f2:	4aaf      	ldr	r2, [pc, #700]	; (100029b0 <_vsnprintf+0x360>)
100026f4:	009b      	lsls	r3, r3, #2
100026f6:	58d3      	ldr	r3, [r2, r3]
100026f8:	469f      	mov	pc, r3
100026fa:	2301      	movs	r3, #1
100026fc:	3201      	adds	r2, #1
100026fe:	4319      	orrs	r1, r3
10002700:	e7da      	b.n	100026b8 <_vsnprintf+0x68>
10002702:	4663      	mov	r3, ip
10002704:	3201      	adds	r2, #1
10002706:	4319      	orrs	r1, r3
10002708:	e7d6      	b.n	100026b8 <_vsnprintf+0x68>
1000270a:	4643      	mov	r3, r8
1000270c:	3201      	adds	r2, #1
1000270e:	4319      	orrs	r1, r3
10002710:	e7d2      	b.n	100026b8 <_vsnprintf+0x68>
10002712:	4653      	mov	r3, sl
10002714:	3201      	adds	r2, #1
10002716:	4319      	orrs	r1, r3
10002718:	e7ce      	b.n	100026b8 <_vsnprintf+0x68>
1000271a:	464b      	mov	r3, r9
1000271c:	3201      	adds	r2, #1
1000271e:	4319      	orrs	r1, r3
10002720:	e7ca      	b.n	100026b8 <_vsnprintf+0x68>
10002722:	7870      	ldrb	r0, [r6, #1]
10002724:	286c      	cmp	r0, #108	; 0x6c
10002726:	d100      	bne.n	1000272a <_vsnprintf+0xda>
10002728:	e2bf      	b.n	10002caa <_vsnprintf+0x65a>
1000272a:	2380      	movs	r3, #128	; 0x80
1000272c:	005b      	lsls	r3, r3, #1
1000272e:	4319      	orrs	r1, r3
10002730:	3601      	adds	r6, #1
10002732:	0003      	movs	r3, r0
10002734:	3b25      	subs	r3, #37	; 0x25
10002736:	b2db      	uxtb	r3, r3
10002738:	2b53      	cmp	r3, #83	; 0x53
1000273a:	d8a6      	bhi.n	1000268a <_vsnprintf+0x3a>
1000273c:	4a9d      	ldr	r2, [pc, #628]	; (100029b4 <_vsnprintf+0x364>)
1000273e:	009b      	lsls	r3, r3, #2
10002740:	58d3      	ldr	r3, [r2, r3]
10002742:	469f      	mov	pc, r3
10002744:	2380      	movs	r3, #128	; 0x80
10002746:	005b      	lsls	r3, r3, #1
10002748:	7870      	ldrb	r0, [r6, #1]
1000274a:	4319      	orrs	r1, r3
1000274c:	3601      	adds	r6, #1
1000274e:	e7f0      	b.n	10002732 <_vsnprintf+0xe2>
10002750:	2700      	movs	r7, #0
10002752:	0003      	movs	r3, r0
10002754:	00b8      	lsls	r0, r7, #2
10002756:	19c0      	adds	r0, r0, r7
10002758:	3601      	adds	r6, #1
1000275a:	0040      	lsls	r0, r0, #1
1000275c:	18c0      	adds	r0, r0, r3
1000275e:	7833      	ldrb	r3, [r6, #0]
10002760:	3830      	subs	r0, #48	; 0x30
10002762:	001a      	movs	r2, r3
10002764:	3a30      	subs	r2, #48	; 0x30
10002766:	0007      	movs	r7, r0
10002768:	2a09      	cmp	r2, #9
1000276a:	d9f3      	bls.n	10002754 <_vsnprintf+0x104>
1000276c:	900a      	str	r0, [sp, #40]	; 0x28
1000276e:	0018      	movs	r0, r3
10002770:	2300      	movs	r3, #0
10002772:	4698      	mov	r8, r3
10002774:	282e      	cmp	r0, #46	; 0x2e
10002776:	d1b7      	bne.n	100026e8 <_vsnprintf+0x98>
10002778:	2380      	movs	r3, #128	; 0x80
1000277a:	7870      	ldrb	r0, [r6, #1]
1000277c:	00db      	lsls	r3, r3, #3
1000277e:	4319      	orrs	r1, r3
10002780:	0003      	movs	r3, r0
10002782:	3b30      	subs	r3, #48	; 0x30
10002784:	1c72      	adds	r2, r6, #1
10002786:	2b09      	cmp	r3, #9
10002788:	d800      	bhi.n	1000278c <_vsnprintf+0x13c>
1000278a:	e195      	b.n	10002ab8 <_vsnprintf+0x468>
1000278c:	282a      	cmp	r0, #42	; 0x2a
1000278e:	d100      	bne.n	10002792 <_vsnprintf+0x142>
10002790:	e1a6      	b.n	10002ae0 <_vsnprintf+0x490>
10002792:	0016      	movs	r6, r2
10002794:	e7a8      	b.n	100026e8 <_vsnprintf+0x98>
10002796:	46a1      	mov	r9, r4
10002798:	46aa      	mov	sl, r5
1000279a:	002c      	movs	r4, r5
1000279c:	45d3      	cmp	fp, sl
1000279e:	d803      	bhi.n	100027a8 <_vsnprintf+0x158>
100027a0:	2301      	movs	r3, #1
100027a2:	425b      	negs	r3, r3
100027a4:	445b      	add	r3, fp
100027a6:	469a      	mov	sl, r3
100027a8:	465b      	mov	r3, fp
100027aa:	4652      	mov	r2, sl
100027ac:	4649      	mov	r1, r9
100027ae:	2000      	movs	r0, #0
100027b0:	9d08      	ldr	r5, [sp, #32]
100027b2:	47a8      	blx	r5
100027b4:	0020      	movs	r0, r4
100027b6:	b01f      	add	sp, #124	; 0x7c
100027b8:	bc3c      	pop	{r2, r3, r4, r5}
100027ba:	4690      	mov	r8, r2
100027bc:	4699      	mov	r9, r3
100027be:	46a2      	mov	sl, r4
100027c0:	46ab      	mov	fp, r5
100027c2:	bdf0      	pop	{r4, r5, r6, r7, pc}
100027c4:	9b09      	ldr	r3, [sp, #36]	; 0x24
100027c6:	cb40      	ldmia	r3!, {r6}
100027c8:	960a      	str	r6, [sp, #40]	; 0x28
100027ca:	2e00      	cmp	r6, #0
100027cc:	db03      	blt.n	100027d6 <_vsnprintf+0x186>
100027ce:	7850      	ldrb	r0, [r2, #1]
100027d0:	9309      	str	r3, [sp, #36]	; 0x24
100027d2:	1c56      	adds	r6, r2, #1
100027d4:	e784      	b.n	100026e0 <_vsnprintf+0x90>
100027d6:	3828      	subs	r0, #40	; 0x28
100027d8:	4301      	orrs	r1, r0
100027da:	4270      	negs	r0, r6
100027dc:	900a      	str	r0, [sp, #40]	; 0x28
100027de:	9309      	str	r3, [sp, #36]	; 0x24
100027e0:	7850      	ldrb	r0, [r2, #1]
100027e2:	1c56      	adds	r6, r2, #1
100027e4:	e77c      	b.n	100026e0 <_vsnprintf+0x90>
100027e6:	2878      	cmp	r0, #120	; 0x78
100027e8:	d100      	bne.n	100027ec <_vsnprintf+0x19c>
100027ea:	e1d4      	b.n	10002b96 <_vsnprintf+0x546>
100027ec:	2858      	cmp	r0, #88	; 0x58
100027ee:	d100      	bne.n	100027f2 <_vsnprintf+0x1a2>
100027f0:	e268      	b.n	10002cc4 <_vsnprintf+0x674>
100027f2:	286f      	cmp	r0, #111	; 0x6f
100027f4:	d100      	bne.n	100027f8 <_vsnprintf+0x1a8>
100027f6:	e352      	b.n	10002e9e <_vsnprintf+0x84e>
100027f8:	2862      	cmp	r0, #98	; 0x62
100027fa:	d100      	bne.n	100027fe <_vsnprintf+0x1ae>
100027fc:	e1d8      	b.n	10002bb0 <_vsnprintf+0x560>
100027fe:	2310      	movs	r3, #16
10002800:	000a      	movs	r2, r1
10002802:	439a      	bics	r2, r3
10002804:	920b      	str	r2, [sp, #44]	; 0x2c
10002806:	2869      	cmp	r0, #105	; 0x69
10002808:	d001      	beq.n	1000280e <_vsnprintf+0x1be>
1000280a:	f000 fca2 	bl	10003152 <_vsnprintf+0xb02>
1000280e:	230a      	movs	r3, #10
10002810:	930c      	str	r3, [sp, #48]	; 0x30
10002812:	054b      	lsls	r3, r1, #21
10002814:	d400      	bmi.n	10002818 <_vsnprintf+0x1c8>
10002816:	e1d5      	b.n	10002bc4 <_vsnprintf+0x574>
10002818:	2301      	movs	r3, #1
1000281a:	9a0b      	ldr	r2, [sp, #44]	; 0x2c
1000281c:	439a      	bics	r2, r3
1000281e:	920b      	str	r2, [sp, #44]	; 0x2c
10002820:	2869      	cmp	r0, #105	; 0x69
10002822:	d100      	bne.n	10002826 <_vsnprintf+0x1d6>
10002824:	e1ce      	b.n	10002bc4 <_vsnprintf+0x574>
10002826:	2864      	cmp	r0, #100	; 0x64
10002828:	d100      	bne.n	1000282c <_vsnprintf+0x1dc>
1000282a:	e1cb      	b.n	10002bc4 <_vsnprintf+0x574>
1000282c:	9a0b      	ldr	r2, [sp, #44]	; 0x2c
1000282e:	2380      	movs	r3, #128	; 0x80
10002830:	0011      	movs	r1, r2
10002832:	009b      	lsls	r3, r3, #2
10002834:	4019      	ands	r1, r3
10002836:	468a      	mov	sl, r1
10002838:	421a      	tst	r2, r3
1000283a:	d000      	beq.n	1000283e <_vsnprintf+0x1ee>
1000283c:	e332      	b.n	10002ea4 <_vsnprintf+0x854>
1000283e:	2380      	movs	r3, #128	; 0x80
10002840:	0011      	movs	r1, r2
10002842:	005b      	lsls	r3, r3, #1
10002844:	4019      	ands	r1, r3
10002846:	4689      	mov	r9, r1
10002848:	421a      	tst	r2, r3
1000284a:	d001      	beq.n	10002850 <_vsnprintf+0x200>
1000284c:	f000 fc02 	bl	10003054 <_vsnprintf+0xa04>
10002850:	0013      	movs	r3, r2
10002852:	065b      	lsls	r3, r3, #25
10002854:	d500      	bpl.n	10002858 <_vsnprintf+0x208>
10002856:	e310      	b.n	10002e7a <_vsnprintf+0x82a>
10002858:	9b0b      	ldr	r3, [sp, #44]	; 0x2c
1000285a:	061b      	lsls	r3, r3, #24
1000285c:	d401      	bmi.n	10002862 <_vsnprintf+0x212>
1000285e:	f000 fc6e 	bl	1000313e <_vsnprintf+0xaee>
10002862:	9b09      	ldr	r3, [sp, #36]	; 0x24
10002864:	cb04      	ldmia	r3!, {r2}
10002866:	0412      	lsls	r2, r2, #16
10002868:	0c12      	lsrs	r2, r2, #16
1000286a:	4692      	mov	sl, r2
1000286c:	9309      	str	r3, [sp, #36]	; 0x24
1000286e:	4653      	mov	r3, sl
10002870:	2b00      	cmp	r3, #0
10002872:	d000      	beq.n	10002876 <_vsnprintf+0x226>
10002874:	e364      	b.n	10002f40 <_vsnprintf+0x8f0>
10002876:	9a0b      	ldr	r2, [sp, #44]	; 0x2c
10002878:	3310      	adds	r3, #16
1000287a:	0011      	movs	r1, r2
1000287c:	4399      	bics	r1, r3
1000287e:	910b      	str	r1, [sp, #44]	; 0x2c
10002880:	0552      	lsls	r2, r2, #21
10002882:	d400      	bmi.n	10002886 <_vsnprintf+0x236>
10002884:	e35c      	b.n	10002f40 <_vsnprintf+0x8f0>
10002886:	2300      	movs	r3, #0
10002888:	4699      	mov	r9, r3
1000288a:	9b0b      	ldr	r3, [sp, #44]	; 0x2c
1000288c:	9306      	str	r3, [sp, #24]
1000288e:	9b0a      	ldr	r3, [sp, #40]	; 0x28
10002890:	9305      	str	r3, [sp, #20]
10002892:	4643      	mov	r3, r8
10002894:	9304      	str	r3, [sp, #16]
10002896:	9b0c      	ldr	r3, [sp, #48]	; 0x30
10002898:	9303      	str	r3, [sp, #12]
1000289a:	2300      	movs	r3, #0
1000289c:	e2de      	b.n	10002e5c <_vsnprintf+0x80c>
1000289e:	7870      	ldrb	r0, [r6, #1]
100028a0:	2868      	cmp	r0, #104	; 0x68
100028a2:	d100      	bne.n	100028a6 <_vsnprintf+0x256>
100028a4:	e207      	b.n	10002cb6 <_vsnprintf+0x666>
100028a6:	2380      	movs	r3, #128	; 0x80
100028a8:	3601      	adds	r6, #1
100028aa:	4319      	orrs	r1, r3
100028ac:	e741      	b.n	10002732 <_vsnprintf+0xe2>
100028ae:	2380      	movs	r3, #128	; 0x80
100028b0:	009b      	lsls	r3, r3, #2
100028b2:	7870      	ldrb	r0, [r6, #1]
100028b4:	4319      	orrs	r1, r3
100028b6:	3601      	adds	r6, #1
100028b8:	e73b      	b.n	10002732 <_vsnprintf+0xe2>
100028ba:	2846      	cmp	r0, #70	; 0x46
100028bc:	d100      	bne.n	100028c0 <_vsnprintf+0x270>
100028be:	e174      	b.n	10002baa <_vsnprintf+0x55a>
100028c0:	2207      	movs	r2, #7
100028c2:	9b09      	ldr	r3, [sp, #36]	; 0x24
100028c4:	9104      	str	r1, [sp, #16]
100028c6:	3307      	adds	r3, #7
100028c8:	4393      	bics	r3, r2
100028ca:	9a0a      	ldr	r2, [sp, #40]	; 0x28
100028cc:	0019      	movs	r1, r3
100028ce:	9203      	str	r2, [sp, #12]
100028d0:	4642      	mov	r2, r8
100028d2:	9202      	str	r2, [sp, #8]
100028d4:	c90c      	ldmia	r1!, {r2, r3}
100028d6:	9808      	ldr	r0, [sp, #32]
100028d8:	9200      	str	r2, [sp, #0]
100028da:	9301      	str	r3, [sp, #4]
100028dc:	9109      	str	r1, [sp, #36]	; 0x24
100028de:	002a      	movs	r2, r5
100028e0:	465b      	mov	r3, fp
100028e2:	0021      	movs	r1, r4
100028e4:	f7ff fcc4 	bl	10002270 <_ftoa>
100028e8:	3601      	adds	r6, #1
100028ea:	0005      	movs	r5, r0
100028ec:	e6d5      	b.n	1000269a <_vsnprintf+0x4a>
100028ee:	9b09      	ldr	r3, [sp, #36]	; 0x24
100028f0:	001a      	movs	r2, r3
100028f2:	ca08      	ldmia	r2!, {r3}
100028f4:	4691      	mov	r9, r2
100028f6:	2b00      	cmp	r3, #0
100028f8:	d100      	bne.n	100028fc <_vsnprintf+0x2ac>
100028fa:	e105      	b.n	10002b08 <_vsnprintf+0x4b8>
100028fc:	2221      	movs	r2, #33	; 0x21
100028fe:	4311      	orrs	r1, r2
10002900:	468a      	mov	sl, r1
10002902:	a80e      	add	r0, sp, #56	; 0x38
10002904:	4684      	mov	ip, r0
10002906:	211f      	movs	r1, #31
10002908:	4461      	add	r1, ip
1000290a:	9509      	str	r5, [sp, #36]	; 0x24
1000290c:	2200      	movs	r2, #0
1000290e:	270f      	movs	r7, #15
10002910:	46a4      	mov	ip, r4
10002912:	000d      	movs	r5, r1
10002914:	e002      	b.n	1000291c <_vsnprintf+0x2cc>
10002916:	2a20      	cmp	r2, #32
10002918:	d00c      	beq.n	10002934 <_vsnprintf+0x2e4>
1000291a:	000b      	movs	r3, r1
1000291c:	003c      	movs	r4, r7
1000291e:	401c      	ands	r4, r3
10002920:	0020      	movs	r0, r4
10002922:	3037      	adds	r0, #55	; 0x37
10002924:	2c09      	cmp	r4, #9
10002926:	d800      	bhi.n	1000292a <_vsnprintf+0x2da>
10002928:	3807      	subs	r0, #7
1000292a:	3201      	adds	r2, #1
1000292c:	54a8      	strb	r0, [r5, r2]
1000292e:	0919      	lsrs	r1, r3, #4
10002930:	2b0f      	cmp	r3, #15
10002932:	d8f0      	bhi.n	10002916 <_vsnprintf+0x2c6>
10002934:	4664      	mov	r4, ip
10002936:	9d09      	ldr	r5, [sp, #36]	; 0x24
10002938:	e0f0      	b.n	10002b1c <_vsnprintf+0x4cc>
1000293a:	078b      	lsls	r3, r1, #30
1000293c:	d400      	bmi.n	10002940 <_vsnprintf+0x2f0>
1000293e:	e1d1      	b.n	10002ce4 <_vsnprintf+0x694>
10002940:	9b09      	ldr	r3, [sp, #36]	; 0x24
10002942:	002a      	movs	r2, r5
10002944:	4699      	mov	r9, r3
10002946:	1c6b      	adds	r3, r5, #1
10002948:	4698      	mov	r8, r3
1000294a:	464b      	mov	r3, r9
1000294c:	cb01      	ldmia	r3!, {r0}
1000294e:	0021      	movs	r1, r4
10002950:	4699      	mov	r9, r3
10002952:	9f08      	ldr	r7, [sp, #32]
10002954:	465b      	mov	r3, fp
10002956:	b2c0      	uxtb	r0, r0
10002958:	47b8      	blx	r7
1000295a:	9b0a      	ldr	r3, [sp, #40]	; 0x28
1000295c:	469c      	mov	ip, r3
1000295e:	4465      	add	r5, ip
10002960:	2b01      	cmp	r3, #1
10002962:	d800      	bhi.n	10002966 <_vsnprintf+0x316>
10002964:	e290      	b.n	10002e88 <_vsnprintf+0x838>
10002966:	46b2      	mov	sl, r6
10002968:	465e      	mov	r6, fp
1000296a:	4647      	mov	r7, r8
1000296c:	46a8      	mov	r8, r5
1000296e:	9d08      	ldr	r5, [sp, #32]
10002970:	003a      	movs	r2, r7
10002972:	0033      	movs	r3, r6
10002974:	3701      	adds	r7, #1
10002976:	0021      	movs	r1, r4
10002978:	2020      	movs	r0, #32
1000297a:	47a8      	blx	r5
1000297c:	4547      	cmp	r7, r8
1000297e:	d1f7      	bne.n	10002970 <_vsnprintf+0x320>
10002980:	46b3      	mov	fp, r6
10002982:	464b      	mov	r3, r9
10002984:	4656      	mov	r6, sl
10002986:	003d      	movs	r5, r7
10002988:	9309      	str	r3, [sp, #36]	; 0x24
1000298a:	3601      	adds	r6, #1
1000298c:	e685      	b.n	1000269a <_vsnprintf+0x4a>
1000298e:	002a      	movs	r2, r5
10002990:	1c6f      	adds	r7, r5, #1
10002992:	465b      	mov	r3, fp
10002994:	9d08      	ldr	r5, [sp, #32]
10002996:	0021      	movs	r1, r4
10002998:	2025      	movs	r0, #37	; 0x25
1000299a:	47a8      	blx	r5
1000299c:	3601      	adds	r6, #1
1000299e:	003d      	movs	r5, r7
100029a0:	e67b      	b.n	1000269a <_vsnprintf+0x4a>
100029a2:	46c0      	nop			; (mov r8, r8)
100029a4:	10002651 	.word	0x10002651
100029a8:	20000b04 	.word	0x20000b04
100029ac:	10004f84 	.word	0x10004f84
100029b0:	10004fc8 	.word	0x10004fc8
100029b4:	10005014 	.word	0x10005014
100029b8:	9b09      	ldr	r3, [sp, #36]	; 0x24
100029ba:	cb04      	ldmia	r3!, {r2}
100029bc:	4699      	mov	r9, r3
100029be:	4643      	mov	r3, r8
100029c0:	9209      	str	r2, [sp, #36]	; 0x24
100029c2:	2b00      	cmp	r3, #0
100029c4:	d000      	beq.n	100029c8 <_vsnprintf+0x378>
100029c6:	e097      	b.n	10002af8 <_vsnprintf+0x4a8>
100029c8:	7813      	ldrb	r3, [r2, #0]
100029ca:	469c      	mov	ip, r3
100029cc:	2b00      	cmp	r3, #0
100029ce:	d100      	bne.n	100029d2 <_vsnprintf+0x382>
100029d0:	e3b3      	b.n	1000313a <_vsnprintf+0xaea>
100029d2:	2302      	movs	r3, #2
100029d4:	425b      	negs	r3, r3
100029d6:	1c5a      	adds	r2, r3, #1
100029d8:	9b09      	ldr	r3, [sp, #36]	; 0x24
100029da:	4692      	mov	sl, r2
100029dc:	0018      	movs	r0, r3
100029de:	9f0a      	ldr	r7, [sp, #40]	; 0x28
100029e0:	920b      	str	r2, [sp, #44]	; 0x2c
100029e2:	4450      	add	r0, sl
100029e4:	e002      	b.n	100029ec <_vsnprintf+0x39c>
100029e6:	4283      	cmp	r3, r0
100029e8:	d100      	bne.n	100029ec <_vsnprintf+0x39c>
100029ea:	e169      	b.n	10002cc0 <_vsnprintf+0x670>
100029ec:	785a      	ldrb	r2, [r3, #1]
100029ee:	3301      	adds	r3, #1
100029f0:	2a00      	cmp	r2, #0
100029f2:	d1f8      	bne.n	100029e6 <_vsnprintf+0x396>
100029f4:	9a09      	ldr	r2, [sp, #36]	; 0x24
100029f6:	970a      	str	r7, [sp, #40]	; 0x28
100029f8:	1a9b      	subs	r3, r3, r2
100029fa:	930b      	str	r3, [sp, #44]	; 0x2c
100029fc:	2380      	movs	r3, #128	; 0x80
100029fe:	000a      	movs	r2, r1
10002a00:	00db      	lsls	r3, r3, #3
10002a02:	401a      	ands	r2, r3
10002a04:	920c      	str	r2, [sp, #48]	; 0x30
10002a06:	4219      	tst	r1, r3
10002a08:	d004      	beq.n	10002a14 <_vsnprintf+0x3c4>
10002a0a:	9b0b      	ldr	r3, [sp, #44]	; 0x2c
10002a0c:	4543      	cmp	r3, r8
10002a0e:	d901      	bls.n	10002a14 <_vsnprintf+0x3c4>
10002a10:	4643      	mov	r3, r8
10002a12:	930b      	str	r3, [sp, #44]	; 0x2c
10002a14:	2302      	movs	r3, #2
10002a16:	001a      	movs	r2, r3
10002a18:	400a      	ands	r2, r1
10002a1a:	920d      	str	r2, [sp, #52]	; 0x34
10002a1c:	420b      	tst	r3, r1
10002a1e:	d100      	bne.n	10002a22 <_vsnprintf+0x3d2>
10002a20:	e184      	b.n	10002d2c <_vsnprintf+0x6dc>
10002a22:	4660      	mov	r0, ip
10002a24:	2800      	cmp	r0, #0
10002a26:	d023      	beq.n	10002a70 <_vsnprintf+0x420>
10002a28:	9b0c      	ldr	r3, [sp, #48]	; 0x30
10002a2a:	2b00      	cmp	r3, #0
10002a2c:	d100      	bne.n	10002a30 <_vsnprintf+0x3e0>
10002a2e:	e124      	b.n	10002c7a <_vsnprintf+0x62a>
10002a30:	44a8      	add	r8, r5
10002a32:	46c2      	mov	sl, r8
10002a34:	9b09      	ldr	r3, [sp, #36]	; 0x24
10002a36:	4657      	mov	r7, sl
10002a38:	1b5b      	subs	r3, r3, r5
10002a3a:	4698      	mov	r8, r3
10002a3c:	9b08      	ldr	r3, [sp, #32]
10002a3e:	46b2      	mov	sl, r6
10002a40:	002a      	movs	r2, r5
10002a42:	0026      	movs	r6, r4
10002a44:	465c      	mov	r4, fp
10002a46:	469b      	mov	fp, r3
10002a48:	e009      	b.n	10002a5e <_vsnprintf+0x40e>
10002a4a:	0023      	movs	r3, r4
10002a4c:	0031      	movs	r1, r6
10002a4e:	1c55      	adds	r5, r2, #1
10002a50:	47d8      	blx	fp
10002a52:	4643      	mov	r3, r8
10002a54:	5d58      	ldrb	r0, [r3, r5]
10002a56:	2800      	cmp	r0, #0
10002a58:	d100      	bne.n	10002a5c <_vsnprintf+0x40c>
10002a5a:	e13f      	b.n	10002cdc <_vsnprintf+0x68c>
10002a5c:	002a      	movs	r2, r5
10002a5e:	4297      	cmp	r7, r2
10002a60:	d1f3      	bne.n	10002a4a <_vsnprintf+0x3fa>
10002a62:	46a3      	mov	fp, r4
10002a64:	003d      	movs	r5, r7
10002a66:	0034      	movs	r4, r6
10002a68:	4656      	mov	r6, sl
10002a6a:	9b0d      	ldr	r3, [sp, #52]	; 0x34
10002a6c:	2b00      	cmp	r3, #0
10002a6e:	d069      	beq.n	10002b44 <_vsnprintf+0x4f4>
10002a70:	9b0b      	ldr	r3, [sp, #44]	; 0x2c
10002a72:	990a      	ldr	r1, [sp, #40]	; 0x28
10002a74:	46a8      	mov	r8, r5
10002a76:	4299      	cmp	r1, r3
10002a78:	d964      	bls.n	10002b44 <_vsnprintf+0x4f4>
10002a7a:	468c      	mov	ip, r1
10002a7c:	4465      	add	r5, ip
10002a7e:	1aed      	subs	r5, r5, r3
10002a80:	9b08      	ldr	r3, [sp, #32]
10002a82:	4647      	mov	r7, r8
10002a84:	469a      	mov	sl, r3
10002a86:	46b0      	mov	r8, r6
10002a88:	0026      	movs	r6, r4
10002a8a:	465c      	mov	r4, fp
10002a8c:	003a      	movs	r2, r7
10002a8e:	0023      	movs	r3, r4
10002a90:	3701      	adds	r7, #1
10002a92:	0031      	movs	r1, r6
10002a94:	2020      	movs	r0, #32
10002a96:	47d0      	blx	sl
10002a98:	42af      	cmp	r7, r5
10002a9a:	d1f7      	bne.n	10002a8c <_vsnprintf+0x43c>
10002a9c:	46a3      	mov	fp, r4
10002a9e:	0034      	movs	r4, r6
10002aa0:	4646      	mov	r6, r8
10002aa2:	e04f      	b.n	10002b44 <_vsnprintf+0x4f4>
10002aa4:	4bd2      	ldr	r3, [pc, #840]	; (10002df0 <_vsnprintf+0x7a0>)
10002aa6:	7820      	ldrb	r0, [r4, #0]
10002aa8:	9308      	str	r3, [sp, #32]
10002aaa:	2300      	movs	r3, #0
10002aac:	469a      	mov	sl, r3
10002aae:	2800      	cmp	r0, #0
10002ab0:	d000      	beq.n	10002ab4 <_vsnprintf+0x464>
10002ab2:	e5e6      	b.n	10002682 <_vsnprintf+0x32>
10002ab4:	2400      	movs	r4, #0
10002ab6:	e671      	b.n	1000279c <_vsnprintf+0x14c>
10002ab8:	4643      	mov	r3, r8
10002aba:	0006      	movs	r6, r0
10002abc:	9f0a      	ldr	r7, [sp, #40]	; 0x28
10002abe:	0098      	lsls	r0, r3, #2
10002ac0:	18c0      	adds	r0, r0, r3
10002ac2:	3201      	adds	r2, #1
10002ac4:	0040      	lsls	r0, r0, #1
10002ac6:	1980      	adds	r0, r0, r6
10002ac8:	7816      	ldrb	r6, [r2, #0]
10002aca:	0003      	movs	r3, r0
10002acc:	0030      	movs	r0, r6
10002ace:	3830      	subs	r0, #48	; 0x30
10002ad0:	3b30      	subs	r3, #48	; 0x30
10002ad2:	2809      	cmp	r0, #9
10002ad4:	d9f3      	bls.n	10002abe <_vsnprintf+0x46e>
10002ad6:	0030      	movs	r0, r6
10002ad8:	4698      	mov	r8, r3
10002ada:	0016      	movs	r6, r2
10002adc:	970a      	str	r7, [sp, #40]	; 0x28
10002ade:	e603      	b.n	100026e8 <_vsnprintf+0x98>
10002ae0:	9b09      	ldr	r3, [sp, #36]	; 0x24
10002ae2:	3602      	adds	r6, #2
10002ae4:	cb04      	ldmia	r3!, {r2}
10002ae6:	4690      	mov	r8, r2
10002ae8:	43d2      	mvns	r2, r2
10002aea:	4640      	mov	r0, r8
10002aec:	17d2      	asrs	r2, r2, #31
10002aee:	4010      	ands	r0, r2
10002af0:	4680      	mov	r8, r0
10002af2:	9309      	str	r3, [sp, #36]	; 0x24
10002af4:	7830      	ldrb	r0, [r6, #0]
10002af6:	e5f7      	b.n	100026e8 <_vsnprintf+0x98>
10002af8:	7813      	ldrb	r3, [r2, #0]
10002afa:	469c      	mov	ip, r3
10002afc:	2b00      	cmp	r3, #0
10002afe:	d100      	bne.n	10002b02 <_vsnprintf+0x4b2>
10002b00:	e31a      	b.n	10003138 <_vsnprintf+0xae8>
10002b02:	4643      	mov	r3, r8
10002b04:	3b01      	subs	r3, #1
10002b06:	e766      	b.n	100029d6 <_vsnprintf+0x386>
10002b08:	2210      	movs	r2, #16
10002b0a:	0008      	movs	r0, r1
10002b0c:	4390      	bics	r0, r2
10002b0e:	3211      	adds	r2, #17
10002b10:	4310      	orrs	r0, r2
10002b12:	4682      	mov	sl, r0
10002b14:	2200      	movs	r2, #0
10002b16:	0549      	lsls	r1, r1, #21
10002b18:	d400      	bmi.n	10002b1c <_vsnprintf+0x4cc>
10002b1a:	e6f2      	b.n	10002902 <_vsnprintf+0x2b2>
10002b1c:	4653      	mov	r3, sl
10002b1e:	9306      	str	r3, [sp, #24]
10002b20:	2308      	movs	r3, #8
10002b22:	9305      	str	r3, [sp, #20]
10002b24:	4643      	mov	r3, r8
10002b26:	9304      	str	r3, [sp, #16]
10002b28:	2310      	movs	r3, #16
10002b2a:	9303      	str	r3, [sp, #12]
10002b2c:	2300      	movs	r3, #0
10002b2e:	9302      	str	r3, [sp, #8]
10002b30:	ab16      	add	r3, sp, #88	; 0x58
10002b32:	9201      	str	r2, [sp, #4]
10002b34:	9300      	str	r3, [sp, #0]
10002b36:	002a      	movs	r2, r5
10002b38:	465b      	mov	r3, fp
10002b3a:	0021      	movs	r1, r4
10002b3c:	9808      	ldr	r0, [sp, #32]
10002b3e:	f7ff f879 	bl	10001c34 <_ntoa_format>
10002b42:	0005      	movs	r5, r0
10002b44:	464b      	mov	r3, r9
10002b46:	3601      	adds	r6, #1
10002b48:	9309      	str	r3, [sp, #36]	; 0x24
10002b4a:	e5a6      	b.n	1000269a <_vsnprintf+0x4a>
10002b4c:	2320      	movs	r3, #32
10002b4e:	0002      	movs	r2, r0
10002b50:	439a      	bics	r2, r3
10002b52:	2a47      	cmp	r2, #71	; 0x47
10002b54:	d104      	bne.n	10002b60 <_vsnprintf+0x510>
10002b56:	2380      	movs	r3, #128	; 0x80
10002b58:	011b      	lsls	r3, r3, #4
10002b5a:	4319      	orrs	r1, r3
10002b5c:	2302      	movs	r3, #2
10002b5e:	4398      	bics	r0, r3
10002b60:	2845      	cmp	r0, #69	; 0x45
10002b62:	d101      	bne.n	10002b68 <_vsnprintf+0x518>
10002b64:	2320      	movs	r3, #32
10002b66:	4319      	orrs	r1, r3
10002b68:	2207      	movs	r2, #7
10002b6a:	9b09      	ldr	r3, [sp, #36]	; 0x24
10002b6c:	9104      	str	r1, [sp, #16]
10002b6e:	3307      	adds	r3, #7
10002b70:	4393      	bics	r3, r2
10002b72:	9a0a      	ldr	r2, [sp, #40]	; 0x28
10002b74:	0019      	movs	r1, r3
10002b76:	9203      	str	r2, [sp, #12]
10002b78:	4642      	mov	r2, r8
10002b7a:	9202      	str	r2, [sp, #8]
10002b7c:	c90c      	ldmia	r1!, {r2, r3}
10002b7e:	9808      	ldr	r0, [sp, #32]
10002b80:	9200      	str	r2, [sp, #0]
10002b82:	9301      	str	r3, [sp, #4]
10002b84:	9109      	str	r1, [sp, #36]	; 0x24
10002b86:	002a      	movs	r2, r5
10002b88:	465b      	mov	r3, fp
10002b8a:	0021      	movs	r1, r4
10002b8c:	f7ff f94a 	bl	10001e24 <_etoa>
10002b90:	3601      	adds	r6, #1
10002b92:	0005      	movs	r5, r0
10002b94:	e581      	b.n	1000269a <_vsnprintf+0x4a>
10002b96:	2310      	movs	r3, #16
10002b98:	930c      	str	r3, [sp, #48]	; 0x30
10002b9a:	230c      	movs	r3, #12
10002b9c:	000a      	movs	r2, r1
10002b9e:	439a      	bics	r2, r3
10002ba0:	920b      	str	r2, [sp, #44]	; 0x2c
10002ba2:	054b      	lsls	r3, r1, #21
10002ba4:	d400      	bmi.n	10002ba8 <_vsnprintf+0x558>
10002ba6:	e63b      	b.n	10002820 <_vsnprintf+0x1d0>
10002ba8:	e636      	b.n	10002818 <_vsnprintf+0x1c8>
10002baa:	2320      	movs	r3, #32
10002bac:	4319      	orrs	r1, r3
10002bae:	e687      	b.n	100028c0 <_vsnprintf+0x270>
10002bb0:	2302      	movs	r3, #2
10002bb2:	930c      	str	r3, [sp, #48]	; 0x30
10002bb4:	910b      	str	r1, [sp, #44]	; 0x2c
10002bb6:	990b      	ldr	r1, [sp, #44]	; 0x2c
10002bb8:	2864      	cmp	r0, #100	; 0x64
10002bba:	d1ee      	bne.n	10002b9a <_vsnprintf+0x54a>
10002bbc:	9b0b      	ldr	r3, [sp, #44]	; 0x2c
10002bbe:	055b      	lsls	r3, r3, #21
10002bc0:	d500      	bpl.n	10002bc4 <_vsnprintf+0x574>
10002bc2:	e629      	b.n	10002818 <_vsnprintf+0x1c8>
10002bc4:	9a0b      	ldr	r2, [sp, #44]	; 0x2c
10002bc6:	2380      	movs	r3, #128	; 0x80
10002bc8:	0011      	movs	r1, r2
10002bca:	009b      	lsls	r3, r3, #2
10002bcc:	4019      	ands	r1, r3
10002bce:	468a      	mov	sl, r1
10002bd0:	421a      	tst	r2, r3
10002bd2:	d000      	beq.n	10002bd6 <_vsnprintf+0x586>
10002bd4:	e0ce      	b.n	10002d74 <_vsnprintf+0x724>
10002bd6:	2380      	movs	r3, #128	; 0x80
10002bd8:	0011      	movs	r1, r2
10002bda:	005b      	lsls	r3, r3, #1
10002bdc:	4019      	ands	r1, r3
10002bde:	4689      	mov	r9, r1
10002be0:	421a      	tst	r2, r3
10002be2:	d000      	beq.n	10002be6 <_vsnprintf+0x596>
10002be4:	e1db      	b.n	10002f9e <_vsnprintf+0x94e>
10002be6:	0013      	movs	r3, r2
10002be8:	065b      	lsls	r3, r3, #25
10002bea:	d500      	bpl.n	10002bee <_vsnprintf+0x59e>
10002bec:	e11d      	b.n	10002e2a <_vsnprintf+0x7da>
10002bee:	9b0b      	ldr	r3, [sp, #44]	; 0x2c
10002bf0:	9909      	ldr	r1, [sp, #36]	; 0x24
10002bf2:	061b      	lsls	r3, r3, #24
10002bf4:	d400      	bmi.n	10002bf8 <_vsnprintf+0x5a8>
10002bf6:	e299      	b.n	1000312c <_vsnprintf+0xadc>
10002bf8:	c908      	ldmia	r1!, {r3}
10002bfa:	b21b      	sxth	r3, r3
10002bfc:	17d8      	asrs	r0, r3, #31
10002bfe:	181a      	adds	r2, r3, r0
10002c00:	4042      	eors	r2, r0
10002c02:	b292      	uxth	r2, r2
10002c04:	9109      	str	r1, [sp, #36]	; 0x24
10002c06:	4692      	mov	sl, r2
10002c08:	0fda      	lsrs	r2, r3, #31
10002c0a:	9212      	str	r2, [sp, #72]	; 0x48
10002c0c:	2b00      	cmp	r3, #0
10002c0e:	d109      	bne.n	10002c24 <_vsnprintf+0x5d4>
10002c10:	2380      	movs	r3, #128	; 0x80
10002c12:	2210      	movs	r2, #16
10002c14:	990b      	ldr	r1, [sp, #44]	; 0x2c
10002c16:	00db      	lsls	r3, r3, #3
10002c18:	400b      	ands	r3, r1
10002c1a:	4391      	bics	r1, r2
10002c1c:	910b      	str	r1, [sp, #44]	; 0x2c
10002c1e:	2b00      	cmp	r3, #0
10002c20:	d000      	beq.n	10002c24 <_vsnprintf+0x5d4>
10002c22:	e112      	b.n	10002e4a <_vsnprintf+0x7fa>
10002c24:	9a0b      	ldr	r2, [sp, #44]	; 0x2c
10002c26:	2361      	movs	r3, #97	; 0x61
10002c28:	0692      	lsls	r2, r2, #26
10002c2a:	d500      	bpl.n	10002c2e <_vsnprintf+0x5de>
10002c2c:	2341      	movs	r3, #65	; 0x41
10002c2e:	a90e      	add	r1, sp, #56	; 0x38
10002c30:	221f      	movs	r2, #31
10002c32:	468c      	mov	ip, r1
10002c34:	b2db      	uxtb	r3, r3
10002c36:	4462      	add	r2, ip
10002c38:	3b0a      	subs	r3, #10
10002c3a:	4657      	mov	r7, sl
10002c3c:	9513      	str	r5, [sp, #76]	; 0x4c
10002c3e:	46a2      	mov	sl, r4
10002c40:	464d      	mov	r5, r9
10002c42:	9c0c      	ldr	r4, [sp, #48]	; 0x30
10002c44:	46b1      	mov	r9, r6
10002c46:	930d      	str	r3, [sp, #52]	; 0x34
10002c48:	0016      	movs	r6, r2
10002c4a:	e00a      	b.n	10002c62 <_vsnprintf+0x612>
10002c4c:	3330      	adds	r3, #48	; 0x30
10002c4e:	b2db      	uxtb	r3, r3
10002c50:	3501      	adds	r5, #1
10002c52:	5573      	strb	r3, [r6, r5]
10002c54:	42a7      	cmp	r7, r4
10002c56:	d200      	bcs.n	10002c5a <_vsnprintf+0x60a>
10002c58:	e11c      	b.n	10002e94 <_vsnprintf+0x844>
10002c5a:	2d20      	cmp	r5, #32
10002c5c:	d100      	bne.n	10002c60 <_vsnprintf+0x610>
10002c5e:	e119      	b.n	10002e94 <_vsnprintf+0x844>
10002c60:	0007      	movs	r7, r0
10002c62:	0021      	movs	r1, r4
10002c64:	0038      	movs	r0, r7
10002c66:	f000 fb01 	bl	1000326c <__wrap___aeabi_uidiv>
10002c6a:	b2cb      	uxtb	r3, r1
10002c6c:	2909      	cmp	r1, #9
10002c6e:	d9ed      	bls.n	10002c4c <_vsnprintf+0x5fc>
10002c70:	9a0d      	ldr	r2, [sp, #52]	; 0x34
10002c72:	4694      	mov	ip, r2
10002c74:	4463      	add	r3, ip
10002c76:	b2db      	uxtb	r3, r3
10002c78:	e7ea      	b.n	10002c50 <_vsnprintf+0x600>
10002c7a:	9b09      	ldr	r3, [sp, #36]	; 0x24
10002c7c:	465f      	mov	r7, fp
10002c7e:	1b5b      	subs	r3, r3, r5
10002c80:	4698      	mov	r8, r3
10002c82:	9b0a      	ldr	r3, [sp, #40]	; 0x28
10002c84:	46b3      	mov	fp, r6
10002c86:	469a      	mov	sl, r3
10002c88:	0026      	movs	r6, r4
10002c8a:	9c08      	ldr	r4, [sp, #32]
10002c8c:	002a      	movs	r2, r5
10002c8e:	003b      	movs	r3, r7
10002c90:	0031      	movs	r1, r6
10002c92:	47a0      	blx	r4
10002c94:	4643      	mov	r3, r8
10002c96:	3501      	adds	r5, #1
10002c98:	5d58      	ldrb	r0, [r3, r5]
10002c9a:	2800      	cmp	r0, #0
10002c9c:	d1f6      	bne.n	10002c8c <_vsnprintf+0x63c>
10002c9e:	4653      	mov	r3, sl
10002ca0:	0034      	movs	r4, r6
10002ca2:	930a      	str	r3, [sp, #40]	; 0x28
10002ca4:	465e      	mov	r6, fp
10002ca6:	46bb      	mov	fp, r7
10002ca8:	e6df      	b.n	10002a6a <_vsnprintf+0x41a>
10002caa:	23c0      	movs	r3, #192	; 0xc0
10002cac:	009b      	lsls	r3, r3, #2
10002cae:	78b0      	ldrb	r0, [r6, #2]
10002cb0:	4319      	orrs	r1, r3
10002cb2:	3602      	adds	r6, #2
10002cb4:	e53d      	b.n	10002732 <_vsnprintf+0xe2>
10002cb6:	23c0      	movs	r3, #192	; 0xc0
10002cb8:	78b0      	ldrb	r0, [r6, #2]
10002cba:	4319      	orrs	r1, r3
10002cbc:	3602      	adds	r6, #2
10002cbe:	e538      	b.n	10002732 <_vsnprintf+0xe2>
10002cc0:	970a      	str	r7, [sp, #40]	; 0x28
10002cc2:	e69b      	b.n	100029fc <_vsnprintf+0x3ac>
10002cc4:	230c      	movs	r3, #12
10002cc6:	000a      	movs	r2, r1
10002cc8:	439a      	bics	r2, r3
10002cca:	3314      	adds	r3, #20
10002ccc:	431a      	orrs	r2, r3
10002cce:	2310      	movs	r3, #16
10002cd0:	920b      	str	r2, [sp, #44]	; 0x2c
10002cd2:	930c      	str	r3, [sp, #48]	; 0x30
10002cd4:	054b      	lsls	r3, r1, #21
10002cd6:	d400      	bmi.n	10002cda <_vsnprintf+0x68a>
10002cd8:	e5a8      	b.n	1000282c <_vsnprintf+0x1dc>
10002cda:	e59d      	b.n	10002818 <_vsnprintf+0x1c8>
10002cdc:	46a3      	mov	fp, r4
10002cde:	0034      	movs	r4, r6
10002ce0:	4656      	mov	r6, sl
10002ce2:	e6c2      	b.n	10002a6a <_vsnprintf+0x41a>
10002ce4:	9a0a      	ldr	r2, [sp, #40]	; 0x28
10002ce6:	2a01      	cmp	r2, #1
10002ce8:	d800      	bhi.n	10002cec <_vsnprintf+0x69c>
10002cea:	e22e      	b.n	1000314a <_vsnprintf+0xafa>
10002cec:	1e6b      	subs	r3, r5, #1
10002cee:	189f      	adds	r7, r3, r2
10002cf0:	9b08      	ldr	r3, [sp, #32]
10002cf2:	46b0      	mov	r8, r6
10002cf4:	4699      	mov	r9, r3
10002cf6:	0026      	movs	r6, r4
10002cf8:	465c      	mov	r4, fp
10002cfa:	002a      	movs	r2, r5
10002cfc:	0023      	movs	r3, r4
10002cfe:	3501      	adds	r5, #1
10002d00:	0031      	movs	r1, r6
10002d02:	2020      	movs	r0, #32
10002d04:	47c8      	blx	r9
10002d06:	42bd      	cmp	r5, r7
10002d08:	d1f7      	bne.n	10002cfa <_vsnprintf+0x6aa>
10002d0a:	46a3      	mov	fp, r4
10002d0c:	0034      	movs	r4, r6
10002d0e:	4646      	mov	r6, r8
10002d10:	9b09      	ldr	r3, [sp, #36]	; 0x24
10002d12:	003a      	movs	r2, r7
10002d14:	cb01      	ldmia	r3!, {r0}
10002d16:	0021      	movs	r1, r4
10002d18:	4698      	mov	r8, r3
10002d1a:	1c7d      	adds	r5, r7, #1
10002d1c:	465b      	mov	r3, fp
10002d1e:	9f08      	ldr	r7, [sp, #32]
10002d20:	b2c0      	uxtb	r0, r0
10002d22:	47b8      	blx	r7
10002d24:	4643      	mov	r3, r8
10002d26:	3601      	adds	r6, #1
10002d28:	9309      	str	r3, [sp, #36]	; 0x24
10002d2a:	e4b6      	b.n	1000269a <_vsnprintf+0x4a>
10002d2c:	9a0b      	ldr	r2, [sp, #44]	; 0x2c
10002d2e:	980a      	ldr	r0, [sp, #40]	; 0x28
10002d30:	1c53      	adds	r3, r2, #1
10002d32:	4290      	cmp	r0, r2
10002d34:	d800      	bhi.n	10002d38 <_vsnprintf+0x6e8>
10002d36:	e20a      	b.n	1000314e <_vsnprintf+0xafe>
10002d38:	1943      	adds	r3, r0, r5
10002d3a:	1a9b      	subs	r3, r3, r2
10002d3c:	001f      	movs	r7, r3
10002d3e:	9b08      	ldr	r3, [sp, #32]
10002d40:	46b2      	mov	sl, r6
10002d42:	0026      	movs	r6, r4
10002d44:	465c      	mov	r4, fp
10002d46:	469b      	mov	fp, r3
10002d48:	002a      	movs	r2, r5
10002d4a:	0023      	movs	r3, r4
10002d4c:	3501      	adds	r5, #1
10002d4e:	0031      	movs	r1, r6
10002d50:	2020      	movs	r0, #32
10002d52:	47d8      	blx	fp
10002d54:	42bd      	cmp	r5, r7
10002d56:	d1f7      	bne.n	10002d48 <_vsnprintf+0x6f8>
10002d58:	9b0a      	ldr	r3, [sp, #40]	; 0x28
10002d5a:	46a3      	mov	fp, r4
10002d5c:	3301      	adds	r3, #1
10002d5e:	930b      	str	r3, [sp, #44]	; 0x2c
10002d60:	9b09      	ldr	r3, [sp, #36]	; 0x24
10002d62:	0034      	movs	r4, r6
10002d64:	781b      	ldrb	r3, [r3, #0]
10002d66:	4656      	mov	r6, sl
10002d68:	469c      	mov	ip, r3
10002d6a:	4660      	mov	r0, ip
10002d6c:	2800      	cmp	r0, #0
10002d6e:	d000      	beq.n	10002d72 <_vsnprintf+0x722>
10002d70:	e65a      	b.n	10002a28 <_vsnprintf+0x3d8>
10002d72:	e6e7      	b.n	10002b44 <_vsnprintf+0x4f4>
10002d74:	2207      	movs	r2, #7
10002d76:	9b09      	ldr	r3, [sp, #36]	; 0x24
10002d78:	3307      	adds	r3, #7
10002d7a:	4393      	bics	r3, r2
10002d7c:	3201      	adds	r2, #1
10002d7e:	4694      	mov	ip, r2
10002d80:	449c      	add	ip, r3
10002d82:	4662      	mov	r2, ip
10002d84:	685f      	ldr	r7, [r3, #4]
10002d86:	9209      	str	r2, [sp, #36]	; 0x24
10002d88:	681a      	ldr	r2, [r3, #0]
10002d8a:	17fb      	asrs	r3, r7, #31
10002d8c:	9310      	str	r3, [sp, #64]	; 0x40
10002d8e:	9311      	str	r3, [sp, #68]	; 0x44
10002d90:	9810      	ldr	r0, [sp, #64]	; 0x40
10002d92:	9911      	ldr	r1, [sp, #68]	; 0x44
10002d94:	0003      	movs	r3, r0
10002d96:	4053      	eors	r3, r2
10002d98:	930e      	str	r3, [sp, #56]	; 0x38
10002d9a:	000b      	movs	r3, r1
10002d9c:	407b      	eors	r3, r7
10002d9e:	930f      	str	r3, [sp, #60]	; 0x3c
10002da0:	4694      	mov	ip, r2
10002da2:	9a0e      	ldr	r2, [sp, #56]	; 0x38
10002da4:	9b0f      	ldr	r3, [sp, #60]	; 0x3c
10002da6:	1a12      	subs	r2, r2, r0
10002da8:	418b      	sbcs	r3, r1
10002daa:	920e      	str	r2, [sp, #56]	; 0x38
10002dac:	930f      	str	r3, [sp, #60]	; 0x3c
10002dae:	0ffb      	lsrs	r3, r7, #31
10002db0:	4662      	mov	r2, ip
10002db2:	9312      	str	r3, [sp, #72]	; 0x48
10002db4:	2300      	movs	r3, #0
10002db6:	433a      	orrs	r2, r7
10002db8:	469a      	mov	sl, r3
10002dba:	d03d      	beq.n	10002e38 <_vsnprintf+0x7e8>
10002dbc:	9a0b      	ldr	r2, [sp, #44]	; 0x2c
10002dbe:	2361      	movs	r3, #97	; 0x61
10002dc0:	0692      	lsls	r2, r2, #26
10002dc2:	d500      	bpl.n	10002dc6 <_vsnprintf+0x776>
10002dc4:	2341      	movs	r3, #65	; 0x41
10002dc6:	2200      	movs	r2, #0
10002dc8:	b2db      	uxtb	r3, r3
10002dca:	a90e      	add	r1, sp, #56	; 0x38
10002dcc:	3b0a      	subs	r3, #10
10002dce:	468c      	mov	ip, r1
10002dd0:	4691      	mov	r9, r2
10002dd2:	930d      	str	r3, [sp, #52]	; 0x34
10002dd4:	4643      	mov	r3, r8
10002dd6:	321f      	adds	r2, #31
10002dd8:	4462      	add	r2, ip
10002dda:	9513      	str	r5, [sp, #76]	; 0x4c
10002ddc:	9615      	str	r6, [sp, #84]	; 0x54
10002dde:	464d      	mov	r5, r9
10002de0:	9e0e      	ldr	r6, [sp, #56]	; 0x38
10002de2:	9f0f      	ldr	r7, [sp, #60]	; 0x3c
10002de4:	46a1      	mov	r9, r4
10002de6:	4690      	mov	r8, r2
10002de8:	9c0c      	ldr	r4, [sp, #48]	; 0x30
10002dea:	9314      	str	r3, [sp, #80]	; 0x50
10002dec:	e00f      	b.n	10002e0e <_vsnprintf+0x7be>
10002dee:	46c0      	nop			; (mov r8, r8)
10002df0:	10001b61 	.word	0x10001b61
10002df4:	3230      	adds	r2, #48	; 0x30
10002df6:	b2d2      	uxtb	r2, r2
10002df8:	4643      	mov	r3, r8
10002dfa:	3501      	adds	r5, #1
10002dfc:	555a      	strb	r2, [r3, r5]
10002dfe:	45ba      	cmp	sl, r7
10002e00:	d100      	bne.n	10002e04 <_vsnprintf+0x7b4>
10002e02:	e17c      	b.n	100030fe <_vsnprintf+0xaae>
10002e04:	2d20      	cmp	r5, #32
10002e06:	d100      	bne.n	10002e0a <_vsnprintf+0x7ba>
10002e08:	e17c      	b.n	10003104 <_vsnprintf+0xab4>
10002e0a:	0006      	movs	r6, r0
10002e0c:	000f      	movs	r7, r1
10002e0e:	0022      	movs	r2, r4
10002e10:	2300      	movs	r3, #0
10002e12:	0030      	movs	r0, r6
10002e14:	0039      	movs	r1, r7
10002e16:	f000 fa6f 	bl	100032f8 <__wrap___aeabi_uldivmod>
10002e1a:	b2d2      	uxtb	r2, r2
10002e1c:	2a09      	cmp	r2, #9
10002e1e:	d9e9      	bls.n	10002df4 <_vsnprintf+0x7a4>
10002e20:	9b0d      	ldr	r3, [sp, #52]	; 0x34
10002e22:	469c      	mov	ip, r3
10002e24:	4462      	add	r2, ip
10002e26:	b2d2      	uxtb	r2, r2
10002e28:	e7e6      	b.n	10002df8 <_vsnprintf+0x7a8>
10002e2a:	23ff      	movs	r3, #255	; 0xff
10002e2c:	9909      	ldr	r1, [sp, #36]	; 0x24
10002e2e:	c904      	ldmia	r1!, {r2}
10002e30:	4013      	ands	r3, r2
10002e32:	001a      	movs	r2, r3
10002e34:	9109      	str	r1, [sp, #36]	; 0x24
10002e36:	e6e6      	b.n	10002c06 <_vsnprintf+0x5b6>
10002e38:	9a0b      	ldr	r2, [sp, #44]	; 0x2c
10002e3a:	3310      	adds	r3, #16
10002e3c:	0011      	movs	r1, r2
10002e3e:	4399      	bics	r1, r3
10002e40:	910b      	str	r1, [sp, #44]	; 0x2c
10002e42:	0552      	lsls	r2, r2, #21
10002e44:	d5ba      	bpl.n	10002dbc <_vsnprintf+0x76c>
10002e46:	2300      	movs	r3, #0
10002e48:	4699      	mov	r9, r3
10002e4a:	9b0b      	ldr	r3, [sp, #44]	; 0x2c
10002e4c:	9306      	str	r3, [sp, #24]
10002e4e:	9b0a      	ldr	r3, [sp, #40]	; 0x28
10002e50:	9305      	str	r3, [sp, #20]
10002e52:	4643      	mov	r3, r8
10002e54:	9304      	str	r3, [sp, #16]
10002e56:	9b0c      	ldr	r3, [sp, #48]	; 0x30
10002e58:	9303      	str	r3, [sp, #12]
10002e5a:	9b12      	ldr	r3, [sp, #72]	; 0x48
10002e5c:	9302      	str	r3, [sp, #8]
10002e5e:	464b      	mov	r3, r9
10002e60:	9301      	str	r3, [sp, #4]
10002e62:	ab16      	add	r3, sp, #88	; 0x58
10002e64:	002a      	movs	r2, r5
10002e66:	9300      	str	r3, [sp, #0]
10002e68:	0021      	movs	r1, r4
10002e6a:	465b      	mov	r3, fp
10002e6c:	9808      	ldr	r0, [sp, #32]
10002e6e:	f7fe fee1 	bl	10001c34 <_ntoa_format>
10002e72:	3601      	adds	r6, #1
10002e74:	0005      	movs	r5, r0
10002e76:	f7ff fc10 	bl	1000269a <_vsnprintf+0x4a>
10002e7a:	22ff      	movs	r2, #255	; 0xff
10002e7c:	9b09      	ldr	r3, [sp, #36]	; 0x24
10002e7e:	cb02      	ldmia	r3!, {r1}
10002e80:	4011      	ands	r1, r2
10002e82:	468a      	mov	sl, r1
10002e84:	9309      	str	r3, [sp, #36]	; 0x24
10002e86:	e4f2      	b.n	1000286e <_vsnprintf+0x21e>
10002e88:	464b      	mov	r3, r9
10002e8a:	4645      	mov	r5, r8
10002e8c:	9309      	str	r3, [sp, #36]	; 0x24
10002e8e:	3601      	adds	r6, #1
10002e90:	f7ff fc03 	bl	1000269a <_vsnprintf+0x4a>
10002e94:	464e      	mov	r6, r9
10002e96:	4654      	mov	r4, sl
10002e98:	46a9      	mov	r9, r5
10002e9a:	9d13      	ldr	r5, [sp, #76]	; 0x4c
10002e9c:	e7d5      	b.n	10002e4a <_vsnprintf+0x7fa>
10002e9e:	2308      	movs	r3, #8
10002ea0:	930c      	str	r3, [sp, #48]	; 0x30
10002ea2:	e687      	b.n	10002bb4 <_vsnprintf+0x564>
10002ea4:	2207      	movs	r2, #7
10002ea6:	9b09      	ldr	r3, [sp, #36]	; 0x24
10002ea8:	3307      	adds	r3, #7
10002eaa:	4393      	bics	r3, r2
10002eac:	3201      	adds	r2, #1
10002eae:	4694      	mov	ip, r2
10002eb0:	449c      	add	ip, r3
10002eb2:	4662      	mov	r2, ip
10002eb4:	9209      	str	r2, [sp, #36]	; 0x24
10002eb6:	681a      	ldr	r2, [r3, #0]
10002eb8:	685b      	ldr	r3, [r3, #4]
10002eba:	0010      	movs	r0, r2
10002ebc:	469a      	mov	sl, r3
10002ebe:	0013      	movs	r3, r2
10002ec0:	4652      	mov	r2, sl
10002ec2:	4313      	orrs	r3, r2
10002ec4:	d107      	bne.n	10002ed6 <_vsnprintf+0x886>
10002ec6:	9a0b      	ldr	r2, [sp, #44]	; 0x2c
10002ec8:	3310      	adds	r3, #16
10002eca:	0011      	movs	r1, r2
10002ecc:	4399      	bics	r1, r3
10002ece:	910b      	str	r1, [sp, #44]	; 0x2c
10002ed0:	0552      	lsls	r2, r2, #21
10002ed2:	d500      	bpl.n	10002ed6 <_vsnprintf+0x886>
10002ed4:	e4d7      	b.n	10002886 <_vsnprintf+0x236>
10002ed6:	9a0b      	ldr	r2, [sp, #44]	; 0x2c
10002ed8:	2361      	movs	r3, #97	; 0x61
10002eda:	0692      	lsls	r2, r2, #26
10002edc:	d500      	bpl.n	10002ee0 <_vsnprintf+0x890>
10002ede:	2341      	movs	r3, #65	; 0x41
10002ee0:	2200      	movs	r2, #0
10002ee2:	b2db      	uxtb	r3, r3
10002ee4:	a90e      	add	r1, sp, #56	; 0x38
10002ee6:	3b0a      	subs	r3, #10
10002ee8:	468c      	mov	ip, r1
10002eea:	4691      	mov	r9, r2
10002eec:	930d      	str	r3, [sp, #52]	; 0x34
10002eee:	4643      	mov	r3, r8
10002ef0:	321f      	adds	r2, #31
10002ef2:	4462      	add	r2, ip
10002ef4:	4657      	mov	r7, sl
10002ef6:	9512      	str	r5, [sp, #72]	; 0x48
10002ef8:	46a2      	mov	sl, r4
10002efa:	464d      	mov	r5, r9
10002efc:	0004      	movs	r4, r0
10002efe:	46b1      	mov	r9, r6
10002f00:	4690      	mov	r8, r2
10002f02:	9e0c      	ldr	r6, [sp, #48]	; 0x30
10002f04:	9313      	str	r3, [sp, #76]	; 0x4c
10002f06:	e00d      	b.n	10002f24 <_vsnprintf+0x8d4>
10002f08:	3230      	adds	r2, #48	; 0x30
10002f0a:	b2d2      	uxtb	r2, r2
10002f0c:	4643      	mov	r3, r8
10002f0e:	3501      	adds	r5, #1
10002f10:	555a      	strb	r2, [r3, r5]
10002f12:	2300      	movs	r3, #0
10002f14:	42bb      	cmp	r3, r7
10002f16:	d100      	bne.n	10002f1a <_vsnprintf+0x8ca>
10002f18:	e0fd      	b.n	10003116 <_vsnprintf+0xac6>
10002f1a:	2d20      	cmp	r5, #32
10002f1c:	d100      	bne.n	10002f20 <_vsnprintf+0x8d0>
10002f1e:	e0fd      	b.n	1000311c <_vsnprintf+0xacc>
10002f20:	0004      	movs	r4, r0
10002f22:	000f      	movs	r7, r1
10002f24:	0032      	movs	r2, r6
10002f26:	2300      	movs	r3, #0
10002f28:	0020      	movs	r0, r4
10002f2a:	0039      	movs	r1, r7
10002f2c:	f000 f9e4 	bl	100032f8 <__wrap___aeabi_uldivmod>
10002f30:	b2d2      	uxtb	r2, r2
10002f32:	2a09      	cmp	r2, #9
10002f34:	d9e8      	bls.n	10002f08 <_vsnprintf+0x8b8>
10002f36:	9b0d      	ldr	r3, [sp, #52]	; 0x34
10002f38:	469c      	mov	ip, r3
10002f3a:	4462      	add	r2, ip
10002f3c:	b2d2      	uxtb	r2, r2
10002f3e:	e7e5      	b.n	10002f0c <_vsnprintf+0x8bc>
10002f40:	9a0b      	ldr	r2, [sp, #44]	; 0x2c
10002f42:	2361      	movs	r3, #97	; 0x61
10002f44:	0692      	lsls	r2, r2, #26
10002f46:	d500      	bpl.n	10002f4a <_vsnprintf+0x8fa>
10002f48:	2341      	movs	r3, #65	; 0x41
10002f4a:	b2db      	uxtb	r3, r3
10002f4c:	a90e      	add	r1, sp, #56	; 0x38
10002f4e:	3b0a      	subs	r3, #10
10002f50:	221f      	movs	r2, #31
10002f52:	468c      	mov	ip, r1
10002f54:	930d      	str	r3, [sp, #52]	; 0x34
10002f56:	0023      	movs	r3, r4
10002f58:	4462      	add	r2, ip
10002f5a:	4654      	mov	r4, sl
10002f5c:	9512      	str	r5, [sp, #72]	; 0x48
10002f5e:	0017      	movs	r7, r2
10002f60:	464d      	mov	r5, r9
10002f62:	469a      	mov	sl, r3
10002f64:	46b1      	mov	r9, r6
10002f66:	9e0c      	ldr	r6, [sp, #48]	; 0x30
10002f68:	e008      	b.n	10002f7c <_vsnprintf+0x92c>
10002f6a:	3330      	adds	r3, #48	; 0x30
10002f6c:	b2db      	uxtb	r3, r3
10002f6e:	3501      	adds	r5, #1
10002f70:	557b      	strb	r3, [r7, r5]
10002f72:	42b4      	cmp	r4, r6
10002f74:	d30e      	bcc.n	10002f94 <_vsnprintf+0x944>
10002f76:	2d20      	cmp	r5, #32
10002f78:	d00c      	beq.n	10002f94 <_vsnprintf+0x944>
10002f7a:	0004      	movs	r4, r0
10002f7c:	0031      	movs	r1, r6
10002f7e:	0020      	movs	r0, r4
10002f80:	f000 f974 	bl	1000326c <__wrap___aeabi_uidiv>
10002f84:	b2cb      	uxtb	r3, r1
10002f86:	2909      	cmp	r1, #9
10002f88:	d9ef      	bls.n	10002f6a <_vsnprintf+0x91a>
10002f8a:	9a0d      	ldr	r2, [sp, #52]	; 0x34
10002f8c:	4694      	mov	ip, r2
10002f8e:	4463      	add	r3, ip
10002f90:	b2db      	uxtb	r3, r3
10002f92:	e7ec      	b.n	10002f6e <_vsnprintf+0x91e>
10002f94:	464e      	mov	r6, r9
10002f96:	4654      	mov	r4, sl
10002f98:	46a9      	mov	r9, r5
10002f9a:	9d12      	ldr	r5, [sp, #72]	; 0x48
10002f9c:	e475      	b.n	1000288a <_vsnprintf+0x23a>
10002f9e:	9b09      	ldr	r3, [sp, #36]	; 0x24
10002fa0:	001a      	movs	r2, r3
10002fa2:	ca08      	ldmia	r2!, {r3}
10002fa4:	17d9      	asrs	r1, r3, #31
10002fa6:	9213      	str	r2, [sp, #76]	; 0x4c
10002fa8:	185a      	adds	r2, r3, r1
10002faa:	404a      	eors	r2, r1
10002fac:	4691      	mov	r9, r2
10002fae:	0fda      	lsrs	r2, r3, #31
10002fb0:	9212      	str	r2, [sp, #72]	; 0x48
10002fb2:	2b00      	cmp	r3, #0
10002fb4:	d108      	bne.n	10002fc8 <_vsnprintf+0x978>
10002fb6:	2380      	movs	r3, #128	; 0x80
10002fb8:	2210      	movs	r2, #16
10002fba:	990b      	ldr	r1, [sp, #44]	; 0x2c
10002fbc:	00db      	lsls	r3, r3, #3
10002fbe:	400b      	ands	r3, r1
10002fc0:	4391      	bics	r1, r2
10002fc2:	910b      	str	r1, [sp, #44]	; 0x2c
10002fc4:	2b00      	cmp	r3, #0
10002fc6:	d12b      	bne.n	10003020 <_vsnprintf+0x9d0>
10002fc8:	9a0b      	ldr	r2, [sp, #44]	; 0x2c
10002fca:	2361      	movs	r3, #97	; 0x61
10002fcc:	0692      	lsls	r2, r2, #26
10002fce:	d500      	bpl.n	10002fd2 <_vsnprintf+0x982>
10002fd0:	2341      	movs	r3, #65	; 0x41
10002fd2:	aa0e      	add	r2, sp, #56	; 0x38
10002fd4:	271f      	movs	r7, #31
10002fd6:	4694      	mov	ip, r2
10002fd8:	b2db      	uxtb	r3, r3
10002fda:	3b0a      	subs	r3, #10
10002fdc:	950d      	str	r5, [sp, #52]	; 0x34
10002fde:	4467      	add	r7, ip
10002fe0:	4655      	mov	r5, sl
10002fe2:	9309      	str	r3, [sp, #36]	; 0x24
10002fe4:	46a2      	mov	sl, r4
10002fe6:	464c      	mov	r4, r9
10002fe8:	46b1      	mov	r9, r6
10002fea:	9e0c      	ldr	r6, [sp, #48]	; 0x30
10002fec:	e008      	b.n	10003000 <_vsnprintf+0x9b0>
10002fee:	3330      	adds	r3, #48	; 0x30
10002ff0:	b2db      	uxtb	r3, r3
10002ff2:	3501      	adds	r5, #1
10002ff4:	557b      	strb	r3, [r7, r5]
10002ff6:	42b4      	cmp	r4, r6
10002ff8:	d30e      	bcc.n	10003018 <_vsnprintf+0x9c8>
10002ffa:	2d20      	cmp	r5, #32
10002ffc:	d00c      	beq.n	10003018 <_vsnprintf+0x9c8>
10002ffe:	0004      	movs	r4, r0
10003000:	0031      	movs	r1, r6
10003002:	0020      	movs	r0, r4
10003004:	f000 f932 	bl	1000326c <__wrap___aeabi_uidiv>
10003008:	b2cb      	uxtb	r3, r1
1000300a:	2909      	cmp	r1, #9
1000300c:	d9ef      	bls.n	10002fee <_vsnprintf+0x99e>
1000300e:	9a09      	ldr	r2, [sp, #36]	; 0x24
10003010:	4694      	mov	ip, r2
10003012:	4463      	add	r3, ip
10003014:	b2db      	uxtb	r3, r3
10003016:	e7ec      	b.n	10002ff2 <_vsnprintf+0x9a2>
10003018:	464e      	mov	r6, r9
1000301a:	4654      	mov	r4, sl
1000301c:	46aa      	mov	sl, r5
1000301e:	9d0d      	ldr	r5, [sp, #52]	; 0x34
10003020:	9b0b      	ldr	r3, [sp, #44]	; 0x2c
10003022:	002a      	movs	r2, r5
10003024:	9306      	str	r3, [sp, #24]
10003026:	9b0a      	ldr	r3, [sp, #40]	; 0x28
10003028:	0021      	movs	r1, r4
1000302a:	9305      	str	r3, [sp, #20]
1000302c:	4643      	mov	r3, r8
1000302e:	9304      	str	r3, [sp, #16]
10003030:	9b0c      	ldr	r3, [sp, #48]	; 0x30
10003032:	9808      	ldr	r0, [sp, #32]
10003034:	9303      	str	r3, [sp, #12]
10003036:	9b12      	ldr	r3, [sp, #72]	; 0x48
10003038:	3601      	adds	r6, #1
1000303a:	9302      	str	r3, [sp, #8]
1000303c:	4653      	mov	r3, sl
1000303e:	9301      	str	r3, [sp, #4]
10003040:	ab16      	add	r3, sp, #88	; 0x58
10003042:	9300      	str	r3, [sp, #0]
10003044:	465b      	mov	r3, fp
10003046:	f7fe fdf5 	bl	10001c34 <_ntoa_format>
1000304a:	9b13      	ldr	r3, [sp, #76]	; 0x4c
1000304c:	0005      	movs	r5, r0
1000304e:	9309      	str	r3, [sp, #36]	; 0x24
10003050:	f7ff fb23 	bl	1000269a <_vsnprintf+0x4a>
10003054:	9b09      	ldr	r3, [sp, #36]	; 0x24
10003056:	cb04      	ldmia	r3!, {r2}
10003058:	4691      	mov	r9, r2
1000305a:	9312      	str	r3, [sp, #72]	; 0x48
1000305c:	2a00      	cmp	r2, #0
1000305e:	d108      	bne.n	10003072 <_vsnprintf+0xa22>
10003060:	2380      	movs	r3, #128	; 0x80
10003062:	2210      	movs	r2, #16
10003064:	990b      	ldr	r1, [sp, #44]	; 0x2c
10003066:	00db      	lsls	r3, r3, #3
10003068:	400b      	ands	r3, r1
1000306a:	4391      	bics	r1, r2
1000306c:	910b      	str	r1, [sp, #44]	; 0x2c
1000306e:	2b00      	cmp	r3, #0
10003070:	d12b      	bne.n	100030ca <_vsnprintf+0xa7a>
10003072:	9a0b      	ldr	r2, [sp, #44]	; 0x2c
10003074:	2361      	movs	r3, #97	; 0x61
10003076:	0692      	lsls	r2, r2, #26
10003078:	d500      	bpl.n	1000307c <_vsnprintf+0xa2c>
1000307a:	2341      	movs	r3, #65	; 0x41
1000307c:	aa0e      	add	r2, sp, #56	; 0x38
1000307e:	271f      	movs	r7, #31
10003080:	4694      	mov	ip, r2
10003082:	b2db      	uxtb	r3, r3
10003084:	3b0a      	subs	r3, #10
10003086:	950d      	str	r5, [sp, #52]	; 0x34
10003088:	4467      	add	r7, ip
1000308a:	4655      	mov	r5, sl
1000308c:	9309      	str	r3, [sp, #36]	; 0x24
1000308e:	46a2      	mov	sl, r4
10003090:	464c      	mov	r4, r9
10003092:	46b1      	mov	r9, r6
10003094:	9e0c      	ldr	r6, [sp, #48]	; 0x30
10003096:	e008      	b.n	100030aa <_vsnprintf+0xa5a>
10003098:	3330      	adds	r3, #48	; 0x30
1000309a:	b2db      	uxtb	r3, r3
1000309c:	3501      	adds	r5, #1
1000309e:	557b      	strb	r3, [r7, r5]
100030a0:	42b4      	cmp	r4, r6
100030a2:	d30e      	bcc.n	100030c2 <_vsnprintf+0xa72>
100030a4:	2d20      	cmp	r5, #32
100030a6:	d00c      	beq.n	100030c2 <_vsnprintf+0xa72>
100030a8:	0004      	movs	r4, r0
100030aa:	0031      	movs	r1, r6
100030ac:	0020      	movs	r0, r4
100030ae:	f000 f8dd 	bl	1000326c <__wrap___aeabi_uidiv>
100030b2:	b2cb      	uxtb	r3, r1
100030b4:	2909      	cmp	r1, #9
100030b6:	d9ef      	bls.n	10003098 <_vsnprintf+0xa48>
100030b8:	9a09      	ldr	r2, [sp, #36]	; 0x24
100030ba:	4694      	mov	ip, r2
100030bc:	4463      	add	r3, ip
100030be:	b2db      	uxtb	r3, r3
100030c0:	e7ec      	b.n	1000309c <_vsnprintf+0xa4c>
100030c2:	464e      	mov	r6, r9
100030c4:	4654      	mov	r4, sl
100030c6:	46aa      	mov	sl, r5
100030c8:	9d0d      	ldr	r5, [sp, #52]	; 0x34
100030ca:	9b0b      	ldr	r3, [sp, #44]	; 0x2c
100030cc:	002a      	movs	r2, r5
100030ce:	9306      	str	r3, [sp, #24]
100030d0:	9b0a      	ldr	r3, [sp, #40]	; 0x28
100030d2:	0021      	movs	r1, r4
100030d4:	9305      	str	r3, [sp, #20]
100030d6:	4643      	mov	r3, r8
100030d8:	9304      	str	r3, [sp, #16]
100030da:	9b0c      	ldr	r3, [sp, #48]	; 0x30
100030dc:	9808      	ldr	r0, [sp, #32]
100030de:	9303      	str	r3, [sp, #12]
100030e0:	2300      	movs	r3, #0
100030e2:	9302      	str	r3, [sp, #8]
100030e4:	4653      	mov	r3, sl
100030e6:	9301      	str	r3, [sp, #4]
100030e8:	ab16      	add	r3, sp, #88	; 0x58
100030ea:	9300      	str	r3, [sp, #0]
100030ec:	465b      	mov	r3, fp
100030ee:	f7fe fda1 	bl	10001c34 <_ntoa_format>
100030f2:	9b12      	ldr	r3, [sp, #72]	; 0x48
100030f4:	0005      	movs	r5, r0
100030f6:	9309      	str	r3, [sp, #36]	; 0x24
100030f8:	3601      	adds	r6, #1
100030fa:	f7ff face 	bl	1000269a <_vsnprintf+0x4a>
100030fe:	42b4      	cmp	r4, r6
10003100:	d800      	bhi.n	10003104 <_vsnprintf+0xab4>
10003102:	e67f      	b.n	10002e04 <_vsnprintf+0x7b4>
10003104:	9b14      	ldr	r3, [sp, #80]	; 0x50
10003106:	464c      	mov	r4, r9
10003108:	960e      	str	r6, [sp, #56]	; 0x38
1000310a:	970f      	str	r7, [sp, #60]	; 0x3c
1000310c:	46a9      	mov	r9, r5
1000310e:	4698      	mov	r8, r3
10003110:	9e15      	ldr	r6, [sp, #84]	; 0x54
10003112:	9d13      	ldr	r5, [sp, #76]	; 0x4c
10003114:	e699      	b.n	10002e4a <_vsnprintf+0x7fa>
10003116:	42a6      	cmp	r6, r4
10003118:	d800      	bhi.n	1000311c <_vsnprintf+0xacc>
1000311a:	e6fe      	b.n	10002f1a <_vsnprintf+0x8ca>
1000311c:	9b13      	ldr	r3, [sp, #76]	; 0x4c
1000311e:	464e      	mov	r6, r9
10003120:	4698      	mov	r8, r3
10003122:	46a9      	mov	r9, r5
10003124:	4654      	mov	r4, sl
10003126:	9d12      	ldr	r5, [sp, #72]	; 0x48
10003128:	f7ff fbaf 	bl	1000288a <_vsnprintf+0x23a>
1000312c:	c908      	ldmia	r1!, {r3}
1000312e:	17d8      	asrs	r0, r3, #31
10003130:	181a      	adds	r2, r3, r0
10003132:	4042      	eors	r2, r0
10003134:	9109      	str	r1, [sp, #36]	; 0x24
10003136:	e566      	b.n	10002c06 <_vsnprintf+0x5b6>
10003138:	2300      	movs	r3, #0
1000313a:	930b      	str	r3, [sp, #44]	; 0x2c
1000313c:	e45e      	b.n	100029fc <_vsnprintf+0x3ac>
1000313e:	9b09      	ldr	r3, [sp, #36]	; 0x24
10003140:	cb04      	ldmia	r3!, {r2}
10003142:	4692      	mov	sl, r2
10003144:	9309      	str	r3, [sp, #36]	; 0x24
10003146:	f7ff fb92 	bl	1000286e <_vsnprintf+0x21e>
1000314a:	002f      	movs	r7, r5
1000314c:	e5e0      	b.n	10002d10 <_vsnprintf+0x6c0>
1000314e:	930b      	str	r3, [sp, #44]	; 0x2c
10003150:	e60b      	b.n	10002d6a <_vsnprintf+0x71a>
10003152:	3b06      	subs	r3, #6
10003154:	930c      	str	r3, [sp, #48]	; 0x30
10003156:	e52e      	b.n	10002bb6 <_vsnprintf+0x566>

10003158 <vfctprintf>:
10003158:	b500      	push	{lr}
1000315a:	b085      	sub	sp, #20
1000315c:	9103      	str	r1, [sp, #12]
1000315e:	2101      	movs	r1, #1
10003160:	9002      	str	r0, [sp, #8]
10003162:	9300      	str	r3, [sp, #0]
10003164:	4803      	ldr	r0, [pc, #12]	; (10003174 <vfctprintf+0x1c>)
10003166:	0013      	movs	r3, r2
10003168:	424a      	negs	r2, r1
1000316a:	a902      	add	r1, sp, #8
1000316c:	f7ff fa70 	bl	10002650 <_vsnprintf>
10003170:	b005      	add	sp, #20
10003172:	bd00      	pop	{pc}
10003174:	10001e15 	.word	0x10001e15

10003178 <weak_raw_vprintf>:
10003178:	b510      	push	{r4, lr}
1000317a:	4a09      	ldr	r2, [pc, #36]	; (100031a0 <weak_raw_vprintf+0x28>)
1000317c:	0003      	movs	r3, r0
1000317e:	6814      	ldr	r4, [r2, #0]
10003180:	b084      	sub	sp, #16
10003182:	2c00      	cmp	r4, #0
10003184:	d008      	beq.n	10003198 <weak_raw_vprintf+0x20>
10003186:	2201      	movs	r2, #1
10003188:	9100      	str	r1, [sp, #0]
1000318a:	4806      	ldr	r0, [pc, #24]	; (100031a4 <weak_raw_vprintf+0x2c>)
1000318c:	4252      	negs	r2, r2
1000318e:	a903      	add	r1, sp, #12
10003190:	47a0      	blx	r4
10003192:	2001      	movs	r0, #1
10003194:	b004      	add	sp, #16
10003196:	bd10      	pop	{r4, pc}
10003198:	f001 f832 	bl	10004200 <__wrap_puts>
1000319c:	2000      	movs	r0, #0
1000319e:	e7f9      	b.n	10003194 <weak_raw_vprintf+0x1c>
100031a0:	20000b04 	.word	0x20000b04
100031a4:	10001e05 	.word	0x10001e05

100031a8 <__aeabi_bits_init>:
100031a8:	4801      	ldr	r0, [pc, #4]	; (100031b0 <__aeabi_bits_init+0x8>)
100031aa:	2104      	movs	r1, #4
100031ac:	4b01      	ldr	r3, [pc, #4]	; (100031b4 <__aeabi_bits_init+0xc>)
100031ae:	4718      	bx	r3
100031b0:	200001e0 	.word	0x200001e0
100031b4:	100031d9 	.word	0x100031d9

100031b8 <rom_func_lookup>:
100031b8:	2314      	movs	r3, #20
100031ba:	b510      	push	{r4, lr}
100031bc:	0001      	movs	r1, r0
100031be:	8818      	ldrh	r0, [r3, #0]
100031c0:	3304      	adds	r3, #4
100031c2:	881b      	ldrh	r3, [r3, #0]
100031c4:	4798      	blx	r3
100031c6:	bd10      	pop	{r4, pc}

100031c8 <rom_data_lookup>:
100031c8:	2316      	movs	r3, #22
100031ca:	b510      	push	{r4, lr}
100031cc:	0001      	movs	r1, r0
100031ce:	8818      	ldrh	r0, [r3, #0]
100031d0:	3302      	adds	r3, #2
100031d2:	881b      	ldrh	r3, [r3, #0]
100031d4:	4798      	blx	r3
100031d6:	bd10      	pop	{r4, pc}

100031d8 <rom_funcs_lookup>:
100031d8:	b5f0      	push	{r4, r5, r6, r7, lr}
100031da:	46c6      	mov	lr, r8
100031dc:	b500      	push	{lr}
100031de:	2900      	cmp	r1, #0
100031e0:	d016      	beq.n	10003210 <rom_funcs_lookup+0x38>
100031e2:	2314      	movs	r3, #20
100031e4:	0004      	movs	r4, r0
100031e6:	2501      	movs	r5, #1
100031e8:	4698      	mov	r8, r3
100031ea:	2718      	movs	r7, #24
100031ec:	0089      	lsls	r1, r1, #2
100031ee:	1846      	adds	r6, r0, r1
100031f0:	4643      	mov	r3, r8
100031f2:	6821      	ldr	r1, [r4, #0]
100031f4:	8818      	ldrh	r0, [r3, #0]
100031f6:	883b      	ldrh	r3, [r7, #0]
100031f8:	4798      	blx	r3
100031fa:	c401      	stmia	r4!, {r0}
100031fc:	1e43      	subs	r3, r0, #1
100031fe:	4198      	sbcs	r0, r3
10003200:	4240      	negs	r0, r0
10003202:	4005      	ands	r5, r0
10003204:	42a6      	cmp	r6, r4
10003206:	d1f3      	bne.n	100031f0 <rom_funcs_lookup+0x18>
10003208:	0028      	movs	r0, r5
1000320a:	bc04      	pop	{r2}
1000320c:	4690      	mov	r8, r2
1000320e:	bdf0      	pop	{r4, r5, r6, r7, pc}
10003210:	2501      	movs	r5, #1
10003212:	e7f9      	b.n	10003208 <rom_funcs_lookup+0x30>

10003214 <__wrap___aeabi_idiv>:
10003214:	4a14      	ldr	r2, [pc, #80]	; (10003268 <divmod_s32s32_savestate+0x20>)
10003216:	6f93      	ldr	r3, [r2, #120]	; 0x78
10003218:	089b      	lsrs	r3, r3, #2
1000321a:	d215      	bcs.n	10003248 <divmod_s32s32_savestate>

1000321c <divmod_s32s32_unsafe>:
1000321c:	6690      	str	r0, [r2, #104]	; 0x68
1000321e:	66d1      	str	r1, [r2, #108]	; 0x6c
10003220:	2900      	cmp	r1, #0
10003222:	d005      	beq.n	10003230 <divmod_s32s32_unsafe+0x14>
10003224:	e7ff      	b.n	10003226 <divmod_s32s32_unsafe+0xa>
10003226:	e7ff      	b.n	10003228 <divmod_s32s32_unsafe+0xc>
10003228:	e7ff      	b.n	1000322a <divmod_s32s32_unsafe+0xe>
1000322a:	6f51      	ldr	r1, [r2, #116]	; 0x74
1000322c:	6f10      	ldr	r0, [r2, #112]	; 0x70
1000322e:	4770      	bx	lr
10003230:	b504      	push	{r2, lr}
10003232:	2180      	movs	r1, #128	; 0x80
10003234:	0609      	lsls	r1, r1, #24
10003236:	17c2      	asrs	r2, r0, #31
10003238:	4051      	eors	r1, r2
1000323a:	2800      	cmp	r0, #0
1000323c:	d000      	beq.n	10003240 <divmod_s32s32_unsafe+0x24>
1000323e:	43c8      	mvns	r0, r1
10003240:	f001 fd92 	bl	10004d68 <____aeabi_idiv0_veneer>
10003244:	2100      	movs	r1, #0
10003246:	bd04      	pop	{r2, pc}

10003248 <divmod_s32s32_savestate>:
10003248:	6f93      	ldr	r3, [r2, #120]	; 0x78
1000324a:	085b      	lsrs	r3, r3, #1
1000324c:	d3fd      	bcc.n	1000324a <divmod_s32s32_savestate+0x2>
1000324e:	b5f0      	push	{r4, r5, r6, r7, lr}
10003250:	6e94      	ldr	r4, [r2, #104]	; 0x68
10003252:	6ed5      	ldr	r5, [r2, #108]	; 0x6c
10003254:	6f57      	ldr	r7, [r2, #116]	; 0x74
10003256:	6f16      	ldr	r6, [r2, #112]	; 0x70
10003258:	f7ff ffe0 	bl	1000321c <divmod_s32s32_unsafe>
1000325c:	6694      	str	r4, [r2, #104]	; 0x68
1000325e:	66d5      	str	r5, [r2, #108]	; 0x6c
10003260:	6757      	str	r7, [r2, #116]	; 0x74
10003262:	6716      	str	r6, [r2, #112]	; 0x70
10003264:	bdf0      	pop	{r4, r5, r6, r7, pc}
10003266:	0000      	.short	0x0000
10003268:	d0000000 	.word	0xd0000000

1000326c <__wrap___aeabi_uidiv>:
1000326c:	4a13      	ldr	r2, [pc, #76]	; (100032bc <divmod_u32u32_savestate+0x20>)
1000326e:	6f93      	ldr	r3, [r2, #120]	; 0x78
10003270:	089b      	lsrs	r3, r3, #2
10003272:	d213      	bcs.n	1000329c <divmod_u32u32_savestate>

10003274 <divmod_u32u32_unsafe>:
10003274:	6610      	str	r0, [r2, #96]	; 0x60
10003276:	6651      	str	r1, [r2, #100]	; 0x64
10003278:	2900      	cmp	r1, #0
1000327a:	d005      	beq.n	10003288 <divmod_u32u32_unsafe+0x14>
1000327c:	e7ff      	b.n	1000327e <divmod_u32u32_unsafe+0xa>
1000327e:	e7ff      	b.n	10003280 <divmod_u32u32_unsafe+0xc>
10003280:	e7ff      	b.n	10003282 <divmod_u32u32_unsafe+0xe>
10003282:	6f51      	ldr	r1, [r2, #116]	; 0x74
10003284:	6f10      	ldr	r0, [r2, #112]	; 0x70
10003286:	4770      	bx	lr
10003288:	b504      	push	{r2, lr}
1000328a:	2800      	cmp	r0, #0
1000328c:	d001      	beq.n	10003292 <divmod_u32u32_unsafe+0x1e>
1000328e:	2000      	movs	r0, #0
10003290:	43c0      	mvns	r0, r0
10003292:	f001 fd69 	bl	10004d68 <____aeabi_idiv0_veneer>
10003296:	2100      	movs	r1, #0
10003298:	bd04      	pop	{r2, pc}
1000329a:	46c0      	nop			; (mov r8, r8)

1000329c <divmod_u32u32_savestate>:
1000329c:	6f93      	ldr	r3, [r2, #120]	; 0x78
1000329e:	085b      	lsrs	r3, r3, #1
100032a0:	d3fd      	bcc.n	1000329e <divmod_u32u32_savestate+0x2>
100032a2:	b5f0      	push	{r4, r5, r6, r7, lr}
100032a4:	6e94      	ldr	r4, [r2, #104]	; 0x68
100032a6:	6ed5      	ldr	r5, [r2, #108]	; 0x6c
100032a8:	6f57      	ldr	r7, [r2, #116]	; 0x74
100032aa:	6f16      	ldr	r6, [r2, #112]	; 0x70
100032ac:	f7ff ffe2 	bl	10003274 <divmod_u32u32_unsafe>
100032b0:	6694      	str	r4, [r2, #104]	; 0x68
100032b2:	66d5      	str	r5, [r2, #108]	; 0x6c
100032b4:	6757      	str	r7, [r2, #116]	; 0x74
100032b6:	6716      	str	r6, [r2, #112]	; 0x70
100032b8:	bdf0      	pop	{r4, r5, r6, r7, pc}
100032ba:	0000      	.short	0x0000
100032bc:	d0000000 	.word	0xd0000000

100032c0 <__wrap___aeabi_ldivmod>:
100032c0:	4694      	mov	ip, r2
100032c2:	4a4e      	ldr	r2, [pc, #312]	; (100033fc <udiv0+0x1a>)
100032c4:	6f92      	ldr	r2, [r2, #120]	; 0x78
100032c6:	0892      	lsrs	r2, r2, #2
100032c8:	4662      	mov	r2, ip
100032ca:	d201      	bcs.n	100032d0 <divmod_s64s64_savestate>
100032cc:	e030      	b.n	10003330 <divmod_s64s64_unsafe>
100032ce:	46c0      	nop			; (mov r8, r8)

100032d0 <divmod_s64s64_savestate>:
100032d0:	b5f0      	push	{r4, r5, r6, r7, lr}
100032d2:	4e4a      	ldr	r6, [pc, #296]	; (100033fc <udiv0+0x1a>)
100032d4:	6fb5      	ldr	r5, [r6, #120]	; 0x78
100032d6:	086d      	lsrs	r5, r5, #1
100032d8:	d3fc      	bcc.n	100032d4 <divmod_s64s64_savestate+0x4>
100032da:	6e34      	ldr	r4, [r6, #96]	; 0x60
100032dc:	6e75      	ldr	r5, [r6, #100]	; 0x64
100032de:	6f77      	ldr	r7, [r6, #116]	; 0x74
100032e0:	6f36      	ldr	r6, [r6, #112]	; 0x70
100032e2:	f000 f825 	bl	10003330 <divmod_s64s64_unsafe>
100032e6:	4694      	mov	ip, r2
100032e8:	4a44      	ldr	r2, [pc, #272]	; (100033fc <udiv0+0x1a>)
100032ea:	6614      	str	r4, [r2, #96]	; 0x60
100032ec:	6655      	str	r5, [r2, #100]	; 0x64
100032ee:	6757      	str	r7, [r2, #116]	; 0x74
100032f0:	6716      	str	r6, [r2, #112]	; 0x70
100032f2:	4662      	mov	r2, ip
100032f4:	bdf0      	pop	{r4, r5, r6, r7, pc}
100032f6:	46c0      	nop			; (mov r8, r8)

100032f8 <__wrap___aeabi_uldivmod>:
100032f8:	4694      	mov	ip, r2
100032fa:	4a40      	ldr	r2, [pc, #256]	; (100033fc <udiv0+0x1a>)
100032fc:	6f92      	ldr	r2, [r2, #120]	; 0x78
100032fe:	0892      	lsrs	r2, r2, #2
10003300:	4662      	mov	r2, ip
10003302:	d201      	bcs.n	10003308 <divmod_u64u64_savestate>
10003304:	e058      	b.n	100033b8 <divmod_u64u64_unsafe>
10003306:	46c0      	nop			; (mov r8, r8)

10003308 <divmod_u64u64_savestate>:
10003308:	b5f0      	push	{r4, r5, r6, r7, lr}
1000330a:	4e3c      	ldr	r6, [pc, #240]	; (100033fc <udiv0+0x1a>)
1000330c:	6fb5      	ldr	r5, [r6, #120]	; 0x78
1000330e:	086d      	lsrs	r5, r5, #1
10003310:	d3fc      	bcc.n	1000330c <divmod_u64u64_savestate+0x4>
10003312:	6e34      	ldr	r4, [r6, #96]	; 0x60
10003314:	6e75      	ldr	r5, [r6, #100]	; 0x64
10003316:	6f77      	ldr	r7, [r6, #116]	; 0x74
10003318:	6f36      	ldr	r6, [r6, #112]	; 0x70
1000331a:	f000 f84d 	bl	100033b8 <divmod_u64u64_unsafe>
1000331e:	4694      	mov	ip, r2
10003320:	4a36      	ldr	r2, [pc, #216]	; (100033fc <udiv0+0x1a>)
10003322:	6614      	str	r4, [r2, #96]	; 0x60
10003324:	6655      	str	r5, [r2, #100]	; 0x64
10003326:	6757      	str	r7, [r2, #116]	; 0x74
10003328:	6716      	str	r6, [r2, #112]	; 0x70
1000332a:	4662      	mov	r2, ip
1000332c:	bdf0      	pop	{r4, r5, r6, r7, pc}
1000332e:	46c0      	nop			; (mov r8, r8)

10003330 <divmod_s64s64_unsafe>:
10003330:	2b00      	cmp	r3, #0
10003332:	db24      	blt.n	1000337e <l41_1+0x26>
10003334:	d011      	beq.n	1000335a <l41_1+0x2>
10003336:	2900      	cmp	r1, #0
10003338:	da3e      	bge.n	100033b8 <divmod_u64u64_unsafe>
1000333a:	b500      	push	{lr}
1000333c:	43c9      	mvns	r1, r1
1000333e:	4240      	negs	r0, r0
10003340:	d100      	bne.n	10003344 <l39_1>
10003342:	3101      	adds	r1, #1

10003344 <l39_1>:
10003344:	f000 f838 	bl	100033b8 <divmod_u64u64_unsafe>
10003348:	43c9      	mvns	r1, r1
1000334a:	4240      	negs	r0, r0
1000334c:	d100      	bne.n	10003350 <l40_1>
1000334e:	3101      	adds	r1, #1

10003350 <l40_1>:
10003350:	43db      	mvns	r3, r3
10003352:	4252      	negs	r2, r2
10003354:	d100      	bne.n	10003358 <l41_1>
10003356:	3301      	adds	r3, #1

10003358 <l41_1>:
10003358:	bd00      	pop	{pc}
1000335a:	2a00      	cmp	r2, #0
1000335c:	d1eb      	bne.n	10003336 <divmod_s64s64_unsafe+0x6>
1000335e:	2800      	cmp	r0, #0
10003360:	d101      	bne.n	10003366 <l41_1+0xe>
10003362:	2900      	cmp	r1, #0
10003364:	d005      	beq.n	10003372 <l41_1+0x1a>
10003366:	2000      	movs	r0, #0
10003368:	0fc9      	lsrs	r1, r1, #31
1000336a:	07c9      	lsls	r1, r1, #31
1000336c:	d101      	bne.n	10003372 <l41_1+0x1a>
1000336e:	43c0      	mvns	r0, r0
10003370:	0841      	lsrs	r1, r0, #1
10003372:	b500      	push	{lr}
10003374:	f001 fcf0 	bl	10004d58 <____aeabi_ldiv0_veneer>
10003378:	2200      	movs	r2, #0
1000337a:	2300      	movs	r3, #0
1000337c:	bd00      	pop	{pc}
1000337e:	b500      	push	{lr}
10003380:	2900      	cmp	r1, #0
10003382:	db0a      	blt.n	1000339a <l43_1+0x2>
10003384:	43db      	mvns	r3, r3
10003386:	4252      	negs	r2, r2
10003388:	d100      	bne.n	1000338c <l42_1>
1000338a:	3301      	adds	r3, #1

1000338c <l42_1>:
1000338c:	f000 f814 	bl	100033b8 <divmod_u64u64_unsafe>
10003390:	43c9      	mvns	r1, r1
10003392:	4240      	negs	r0, r0
10003394:	d100      	bne.n	10003398 <l43_1>
10003396:	3101      	adds	r1, #1

10003398 <l43_1>:
10003398:	bd00      	pop	{pc}
1000339a:	43c9      	mvns	r1, r1
1000339c:	4240      	negs	r0, r0
1000339e:	d100      	bne.n	100033a2 <l44_1>
100033a0:	3101      	adds	r1, #1

100033a2 <l44_1>:
100033a2:	43db      	mvns	r3, r3
100033a4:	4252      	negs	r2, r2
100033a6:	d100      	bne.n	100033aa <l45_1>
100033a8:	3301      	adds	r3, #1

100033aa <l45_1>:
100033aa:	f000 f805 	bl	100033b8 <divmod_u64u64_unsafe>
100033ae:	43db      	mvns	r3, r3
100033b0:	4252      	negs	r2, r2
100033b2:	d100      	bne.n	100033b6 <l46_1>
100033b4:	3301      	adds	r3, #1

100033b6 <l46_1>:
100033b6:	bd00      	pop	{pc}

100033b8 <divmod_u64u64_unsafe>:
100033b8:	2900      	cmp	r1, #0
100033ba:	d123      	bne.n	10003404 <y64>
100033bc:	2b00      	cmp	r3, #0
100033be:	d118      	bne.n	100033f2 <udiv0+0x10>
100033c0:	2a00      	cmp	r2, #0
100033c2:	d00c      	beq.n	100033de <divmod_u64u64_unsafe+0x26>
100033c4:	46bc      	mov	ip, r7
100033c6:	4f0d      	ldr	r7, [pc, #52]	; (100033fc <udiv0+0x1a>)
100033c8:	6638      	str	r0, [r7, #96]	; 0x60
100033ca:	667a      	str	r2, [r7, #100]	; 0x64
100033cc:	2100      	movs	r1, #0
100033ce:	2300      	movs	r3, #0
100033d0:	e7ff      	b.n	100033d2 <divmod_u64u64_unsafe+0x1a>
100033d2:	e7ff      	b.n	100033d4 <divmod_u64u64_unsafe+0x1c>
100033d4:	e7ff      	b.n	100033d6 <divmod_u64u64_unsafe+0x1e>
100033d6:	6f7a      	ldr	r2, [r7, #116]	; 0x74
100033d8:	6f38      	ldr	r0, [r7, #112]	; 0x70
100033da:	4667      	mov	r7, ip
100033dc:	4770      	bx	lr
100033de:	2800      	cmp	r0, #0
100033e0:	d001      	beq.n	100033e6 <udiv0+0x4>

100033e2 <udiv0>:
100033e2:	4807      	ldr	r0, [pc, #28]	; (10003400 <udiv0+0x1e>)
100033e4:	0001      	movs	r1, r0
100033e6:	b500      	push	{lr}
100033e8:	f001 fcb6 	bl	10004d58 <____aeabi_ldiv0_veneer>
100033ec:	2200      	movs	r2, #0
100033ee:	2300      	movs	r3, #0
100033f0:	bd00      	pop	{pc}
100033f2:	0002      	movs	r2, r0
100033f4:	000b      	movs	r3, r1
100033f6:	2000      	movs	r0, #0
100033f8:	2100      	movs	r1, #0
100033fa:	4770      	bx	lr
100033fc:	d0000000 	.word	0xd0000000
10003400:	ffffffff 	.word	0xffffffff

10003404 <y64>:
10003404:	2b00      	cmp	r3, #0
10003406:	d000      	beq.n	1000340a <y64+0x6>
10003408:	e0bd      	b.n	10003586 <y64_x48>
1000340a:	0c13      	lsrs	r3, r2, #16
1000340c:	d126      	bne.n	1000345c <y64_x32>
1000340e:	2a00      	cmp	r2, #0
10003410:	d0e7      	beq.n	100033e2 <udiv0>
10003412:	b480      	push	{r7}
10003414:	4f10      	ldr	r7, [pc, #64]	; (10003458 <y64+0x54>)
10003416:	6639      	str	r1, [r7, #96]	; 0x60
10003418:	667a      	str	r2, [r7, #100]	; 0x64
1000341a:	e7ff      	b.n	1000341c <y64+0x18>
1000341c:	e7ff      	b.n	1000341e <y64+0x1a>
1000341e:	b430      	push	{r4, r5}
10003420:	0c04      	lsrs	r4, r0, #16
10003422:	6f7b      	ldr	r3, [r7, #116]	; 0x74
10003424:	6f39      	ldr	r1, [r7, #112]	; 0x70
10003426:	041b      	lsls	r3, r3, #16
10003428:	4323      	orrs	r3, r4
1000342a:	663b      	str	r3, [r7, #96]	; 0x60
1000342c:	e7ff      	b.n	1000342e <y64+0x2a>
1000342e:	e7ff      	b.n	10003430 <y64+0x2c>
10003430:	e7ff      	b.n	10003432 <y64+0x2e>
10003432:	46c0      	nop			; (mov r8, r8)
10003434:	b284      	uxth	r4, r0
10003436:	6f7b      	ldr	r3, [r7, #116]	; 0x74
10003438:	6f3d      	ldr	r5, [r7, #112]	; 0x70
1000343a:	041b      	lsls	r3, r3, #16
1000343c:	4323      	orrs	r3, r4
1000343e:	663b      	str	r3, [r7, #96]	; 0x60
10003440:	e7ff      	b.n	10003442 <y64+0x3e>
10003442:	e7ff      	b.n	10003444 <y64+0x40>
10003444:	46c0      	nop			; (mov r8, r8)
10003446:	2300      	movs	r3, #0
10003448:	042c      	lsls	r4, r5, #16
1000344a:	0c2d      	lsrs	r5, r5, #16
1000344c:	6f7a      	ldr	r2, [r7, #116]	; 0x74
1000344e:	6f38      	ldr	r0, [r7, #112]	; 0x70
10003450:	1900      	adds	r0, r0, r4
10003452:	4169      	adcs	r1, r5
10003454:	bcb0      	pop	{r4, r5, r7}
10003456:	4770      	bx	lr
10003458:	d0000000 	.word	0xd0000000

1000345c <y64_x32>:
1000345c:	b5f0      	push	{r4, r5, r6, r7, lr}
1000345e:	4694      	mov	ip, r2
10003460:	2500      	movs	r5, #0
10003462:	0e14      	lsrs	r4, r2, #24
10003464:	d101      	bne.n	1000346a <y64_x32+0xe>
10003466:	0212      	lsls	r2, r2, #8
10003468:	3508      	adds	r5, #8
1000346a:	0f14      	lsrs	r4, r2, #28
1000346c:	d101      	bne.n	10003472 <y64_x32+0x16>
1000346e:	0112      	lsls	r2, r2, #4
10003470:	3504      	adds	r5, #4
10003472:	0f94      	lsrs	r4, r2, #30
10003474:	d101      	bne.n	1000347a <y64_x32+0x1e>
10003476:	0092      	lsls	r2, r2, #2
10003478:	3502      	adds	r5, #2
1000347a:	0fd4      	lsrs	r4, r2, #31
1000347c:	d101      	bne.n	10003482 <y64_x32+0x26>
1000347e:	0052      	lsls	r2, r2, #1
10003480:	3501      	adds	r5, #1
10003482:	0bd4      	lsrs	r4, r2, #15
10003484:	3401      	adds	r4, #1
10003486:	4f25      	ldr	r7, [pc, #148]	; (1000351c <y64_x32+0xc0>)
10003488:	667c      	str	r4, [r7, #100]	; 0x64
1000348a:	4c25      	ldr	r4, [pc, #148]	; (10003520 <y64_x32+0xc4>)
1000348c:	663c      	str	r4, [r7, #96]	; 0x60
1000348e:	0c0e      	lsrs	r6, r1, #16
10003490:	b293      	uxth	r3, r2
10003492:	e7ff      	b.n	10003494 <y64_x32+0x38>
10003494:	e7ff      	b.n	10003496 <y64_x32+0x3a>
10003496:	e7ff      	b.n	10003498 <y64_x32+0x3c>
10003498:	6f3c      	ldr	r4, [r7, #112]	; 0x70
1000349a:	4366      	muls	r6, r4
1000349c:	0c36      	lsrs	r6, r6, #16
1000349e:	0377      	lsls	r7, r6, #13
100034a0:	46be      	mov	lr, r7
100034a2:	4373      	muls	r3, r6
100034a4:	0bdf      	lsrs	r7, r3, #15
100034a6:	045b      	lsls	r3, r3, #17
100034a8:	1ac0      	subs	r0, r0, r3
100034aa:	41b9      	sbcs	r1, r7
100034ac:	0c13      	lsrs	r3, r2, #16
100034ae:	4373      	muls	r3, r6
100034b0:	18db      	adds	r3, r3, r3
100034b2:	1ac9      	subs	r1, r1, r3
100034b4:	08ce      	lsrs	r6, r1, #3
100034b6:	4366      	muls	r6, r4
100034b8:	0c36      	lsrs	r6, r6, #16
100034ba:	44b6      	add	lr, r6
100034bc:	b293      	uxth	r3, r2
100034be:	4373      	muls	r3, r6
100034c0:	0f1f      	lsrs	r7, r3, #28
100034c2:	011b      	lsls	r3, r3, #4
100034c4:	1ac0      	subs	r0, r0, r3
100034c6:	41b9      	sbcs	r1, r7
100034c8:	0c13      	lsrs	r3, r2, #16
100034ca:	4373      	muls	r3, r6
100034cc:	0b1f      	lsrs	r7, r3, #12
100034ce:	051b      	lsls	r3, r3, #20
100034d0:	1ac0      	subs	r0, r0, r3
100034d2:	41b9      	sbcs	r1, r7
100034d4:	0d86      	lsrs	r6, r0, #22
100034d6:	028f      	lsls	r7, r1, #10
100034d8:	433e      	orrs	r6, r7
100034da:	4366      	muls	r6, r4
100034dc:	0c36      	lsrs	r6, r6, #16
100034de:	2d09      	cmp	r5, #9
100034e0:	db24      	blt.n	1000352c <last0>
100034e2:	0a52      	lsrs	r2, r2, #9
100034e4:	4372      	muls	r2, r6
100034e6:	1a80      	subs	r0, r0, r2
100034e8:	0377      	lsls	r7, r6, #13
100034ea:	0a46      	lsrs	r6, r0, #9
100034ec:	4366      	muls	r6, r4
100034ee:	0c36      	lsrs	r6, r6, #16
100034f0:	2316      	movs	r3, #22
100034f2:	1b5b      	subs	r3, r3, r5
100034f4:	40de      	lsrs	r6, r3
100034f6:	40df      	lsrs	r7, r3
100034f8:	19bf      	adds	r7, r7, r6
100034fa:	4664      	mov	r4, ip
100034fc:	4366      	muls	r6, r4
100034fe:	1b82      	subs	r2, r0, r6
10003500:	4670      	mov	r0, lr
10003502:	3504      	adds	r5, #4
10003504:	3306      	adds	r3, #6
10003506:	0001      	movs	r1, r0
10003508:	40d9      	lsrs	r1, r3
1000350a:	40a8      	lsls	r0, r5
1000350c:	19c0      	adds	r0, r0, r7
1000350e:	d300      	bcc.n	10003512 <y64_x32+0xb6>
10003510:	3101      	adds	r1, #1
10003512:	42a2      	cmp	r2, r4
10003514:	d206      	bcs.n	10003524 <y64_x32+0xc8>
10003516:	2300      	movs	r3, #0
10003518:	bdf0      	pop	{r4, r5, r6, r7, pc}
1000351a:	0000      	.short	0x0000
1000351c:	d0000000 	.word	0xd0000000
10003520:	ffffffff 	.word	0xffffffff
10003524:	1b12      	subs	r2, r2, r4
10003526:	3001      	adds	r0, #1
10003528:	d3f3      	bcc.n	10003512 <y64_x32+0xb6>
1000352a:	e7f1      	b.n	10003510 <y64_x32+0xb4>

1000352c <last0>:
1000352c:	2709      	movs	r7, #9
1000352e:	1b7f      	subs	r7, r7, r5
10003530:	40fe      	lsrs	r6, r7
10003532:	4664      	mov	r4, ip
10003534:	b2a2      	uxth	r2, r4
10003536:	4372      	muls	r2, r6
10003538:	1a80      	subs	r0, r0, r2
1000353a:	d200      	bcs.n	1000353e <last0+0x12>
1000353c:	3901      	subs	r1, #1
1000353e:	0c22      	lsrs	r2, r4, #16
10003540:	4372      	muls	r2, r6
10003542:	0c13      	lsrs	r3, r2, #16
10003544:	0412      	lsls	r2, r2, #16
10003546:	1a82      	subs	r2, r0, r2
10003548:	4199      	sbcs	r1, r3
1000354a:	000b      	movs	r3, r1
1000354c:	4670      	mov	r0, lr
1000354e:	3504      	adds	r5, #4
10003550:	3713      	adds	r7, #19
10003552:	0001      	movs	r1, r0
10003554:	40f9      	lsrs	r1, r7
10003556:	40a8      	lsls	r0, r5
10003558:	1980      	adds	r0, r0, r6
1000355a:	d300      	bcc.n	1000355e <last0+0x32>
1000355c:	3101      	adds	r1, #1
1000355e:	2b00      	cmp	r3, #0
10003560:	d102      	bne.n	10003568 <last0+0x3c>
10003562:	42a2      	cmp	r2, r4
10003564:	d20a      	bcs.n	1000357c <last0+0x50>
10003566:	bdf0      	pop	{r4, r5, r6, r7, pc}
10003568:	3001      	adds	r0, #1
1000356a:	d300      	bcc.n	1000356e <last0+0x42>
1000356c:	3101      	adds	r1, #1
1000356e:	1b12      	subs	r2, r2, r4
10003570:	d2fa      	bcs.n	10003568 <last0+0x3c>
10003572:	3b01      	subs	r3, #1
10003574:	d1f8      	bne.n	10003568 <last0+0x3c>
10003576:	42a2      	cmp	r2, r4
10003578:	d200      	bcs.n	1000357c <last0+0x50>
1000357a:	bdf0      	pop	{r4, r5, r6, r7, pc}
1000357c:	3001      	adds	r0, #1
1000357e:	d300      	bcc.n	10003582 <last0+0x56>
10003580:	3101      	adds	r1, #1
10003582:	1b12      	subs	r2, r2, r4
10003584:	e7f7      	b.n	10003576 <last0+0x4a>

10003586 <y64_x48>:
10003586:	b5f0      	push	{r4, r5, r6, r7, lr}
10003588:	0c1c      	lsrs	r4, r3, #16
1000358a:	d000      	beq.n	1000358e <y64_x48+0x8>
1000358c:	e080      	b.n	10003690 <y64_x64>
1000358e:	b40c      	push	{r2, r3}
10003590:	2500      	movs	r5, #0
10003592:	0a1c      	lsrs	r4, r3, #8
10003594:	d104      	bne.n	100035a0 <y64_x48+0x1a>
10003596:	021b      	lsls	r3, r3, #8
10003598:	0e16      	lsrs	r6, r2, #24
1000359a:	4333      	orrs	r3, r6
1000359c:	0212      	lsls	r2, r2, #8
1000359e:	3508      	adds	r5, #8
100035a0:	0b1c      	lsrs	r4, r3, #12
100035a2:	d104      	bne.n	100035ae <y64_x48+0x28>
100035a4:	011b      	lsls	r3, r3, #4
100035a6:	0f16      	lsrs	r6, r2, #28
100035a8:	4333      	orrs	r3, r6
100035aa:	0112      	lsls	r2, r2, #4
100035ac:	3504      	adds	r5, #4
100035ae:	0b9c      	lsrs	r4, r3, #14
100035b0:	d104      	bne.n	100035bc <y64_x48+0x36>
100035b2:	009b      	lsls	r3, r3, #2
100035b4:	0f96      	lsrs	r6, r2, #30
100035b6:	4333      	orrs	r3, r6
100035b8:	0092      	lsls	r2, r2, #2
100035ba:	3502      	adds	r5, #2
100035bc:	0bdc      	lsrs	r4, r3, #15
100035be:	d102      	bne.n	100035c6 <y64_x48+0x40>
100035c0:	1892      	adds	r2, r2, r2
100035c2:	415b      	adcs	r3, r3
100035c4:	3501      	adds	r5, #1
100035c6:	001c      	movs	r4, r3
100035c8:	1897      	adds	r7, r2, r2
100035ca:	4164      	adcs	r4, r4
100035cc:	3401      	adds	r4, #1
100035ce:	4f46      	ldr	r7, [pc, #280]	; (100036e8 <y64_x64+0x58>)
100035d0:	667c      	str	r4, [r7, #100]	; 0x64
100035d2:	4c46      	ldr	r4, [pc, #280]	; (100036ec <y64_x64+0x5c>)
100035d4:	663c      	str	r4, [r7, #96]	; 0x60
100035d6:	0c0e      	lsrs	r6, r1, #16
100035d8:	e7ff      	b.n	100035da <y64_x48+0x54>
100035da:	e7ff      	b.n	100035dc <y64_x48+0x56>
100035dc:	e7ff      	b.n	100035de <y64_x48+0x58>
100035de:	46c0      	nop			; (mov r8, r8)
100035e0:	6f3c      	ldr	r4, [r7, #112]	; 0x70
100035e2:	4366      	muls	r6, r4
100035e4:	0c36      	lsrs	r6, r6, #16
100035e6:	0377      	lsls	r7, r6, #13
100035e8:	46be      	mov	lr, r7
100035ea:	b297      	uxth	r7, r2
100035ec:	4377      	muls	r7, r6
100035ee:	1bc0      	subs	r0, r0, r7
100035f0:	d200      	bcs.n	100035f4 <y64_x48+0x6e>
100035f2:	3901      	subs	r1, #1
100035f4:	1bc0      	subs	r0, r0, r7
100035f6:	d200      	bcs.n	100035fa <y64_x48+0x74>
100035f8:	3901      	subs	r1, #1
100035fa:	b29f      	uxth	r7, r3
100035fc:	4377      	muls	r7, r6
100035fe:	1bc9      	subs	r1, r1, r7
10003600:	1bc9      	subs	r1, r1, r7
10003602:	0c17      	lsrs	r7, r2, #16
10003604:	4377      	muls	r7, r6
10003606:	047e      	lsls	r6, r7, #17
10003608:	0bff      	lsrs	r7, r7, #15
1000360a:	1b80      	subs	r0, r0, r6
1000360c:	41b9      	sbcs	r1, r7
1000360e:	08ce      	lsrs	r6, r1, #3
10003610:	4366      	muls	r6, r4
10003612:	0c36      	lsrs	r6, r6, #16
10003614:	2d0c      	cmp	r5, #12
10003616:	db33      	blt.n	10003680 <last1>
10003618:	44b6      	add	lr, r6
1000361a:	0b12      	lsrs	r2, r2, #12
1000361c:	051f      	lsls	r7, r3, #20
1000361e:	433a      	orrs	r2, r7
10003620:	0b1b      	lsrs	r3, r3, #12
10003622:	b297      	uxth	r7, r2
10003624:	4377      	muls	r7, r6
10003626:	1bc0      	subs	r0, r0, r7
10003628:	d200      	bcs.n	1000362c <y64_x48+0xa6>
1000362a:	3901      	subs	r1, #1
1000362c:	b29f      	uxth	r7, r3
1000362e:	4377      	muls	r7, r6
10003630:	1bc9      	subs	r1, r1, r7
10003632:	0c17      	lsrs	r7, r2, #16
10003634:	4377      	muls	r7, r6
10003636:	043e      	lsls	r6, r7, #16
10003638:	0c3f      	lsrs	r7, r7, #16
1000363a:	1b80      	subs	r0, r0, r6
1000363c:	41b9      	sbcs	r1, r7
1000363e:	0d86      	lsrs	r6, r0, #22
10003640:	028f      	lsls	r7, r1, #10
10003642:	433e      	orrs	r6, r7
10003644:	4366      	muls	r6, r4
10003646:	2729      	movs	r7, #41	; 0x29
10003648:	1b7f      	subs	r7, r7, r5
1000364a:	40fe      	lsrs	r6, r7
1000364c:	3d0c      	subs	r5, #12
1000364e:	4677      	mov	r7, lr
10003650:	40af      	lsls	r7, r5
10003652:	19bf      	adds	r7, r7, r6
10003654:	bc30      	pop	{r4, r5}
10003656:	b2a2      	uxth	r2, r4
10003658:	b2ab      	uxth	r3, r5
1000365a:	4372      	muls	r2, r6
1000365c:	4373      	muls	r3, r6
1000365e:	1a80      	subs	r0, r0, r2
10003660:	4199      	sbcs	r1, r3
10003662:	0c22      	lsrs	r2, r4, #16
10003664:	4372      	muls	r2, r6
10003666:	0c13      	lsrs	r3, r2, #16
10003668:	0412      	lsls	r2, r2, #16
1000366a:	1a80      	subs	r0, r0, r2
1000366c:	4199      	sbcs	r1, r3
1000366e:	0002      	movs	r2, r0
10003670:	000b      	movs	r3, r1
10003672:	3701      	adds	r7, #1
10003674:	1b00      	subs	r0, r0, r4
10003676:	41a9      	sbcs	r1, r5
10003678:	d2f9      	bcs.n	1000366e <y64_x48+0xe8>
1000367a:	1e78      	subs	r0, r7, #1
1000367c:	2100      	movs	r1, #0
1000367e:	bdf0      	pop	{r4, r5, r6, r7, pc}

10003680 <last1>:
10003680:	270c      	movs	r7, #12
10003682:	1b7f      	subs	r7, r7, r5
10003684:	40fe      	lsrs	r6, r7
10003686:	4677      	mov	r7, lr
10003688:	0b7f      	lsrs	r7, r7, #13
1000368a:	40af      	lsls	r7, r5
1000368c:	19ff      	adds	r7, r7, r7
1000368e:	e7e0      	b.n	10003652 <y64_x48+0xcc>

10003690 <y64_x64>:
10003690:	2400      	movs	r4, #0
10003692:	1c5d      	adds	r5, r3, #1
10003694:	d007      	beq.n	100036a6 <y64_x64+0x16>
10003696:	4f14      	ldr	r7, [pc, #80]	; (100036e8 <y64_x64+0x58>)
10003698:	667d      	str	r5, [r7, #100]	; 0x64
1000369a:	6639      	str	r1, [r7, #96]	; 0x60
1000369c:	e7ff      	b.n	1000369e <y64_x64+0xe>
1000369e:	e7ff      	b.n	100036a0 <y64_x64+0x10>
100036a0:	e7ff      	b.n	100036a2 <y64_x64+0x12>
100036a2:	e7ff      	b.n	100036a4 <y64_x64+0x14>
100036a4:	6f3c      	ldr	r4, [r7, #112]	; 0x70
100036a6:	b295      	uxth	r5, r2
100036a8:	b29e      	uxth	r6, r3
100036aa:	4365      	muls	r5, r4
100036ac:	4366      	muls	r6, r4
100036ae:	1b40      	subs	r0, r0, r5
100036b0:	41b1      	sbcs	r1, r6
100036b2:	0c15      	lsrs	r5, r2, #16
100036b4:	0c1e      	lsrs	r6, r3, #16
100036b6:	4365      	muls	r5, r4
100036b8:	4366      	muls	r6, r4
100036ba:	0436      	lsls	r6, r6, #16
100036bc:	0c2f      	lsrs	r7, r5, #16
100036be:	433e      	orrs	r6, r7
100036c0:	042d      	lsls	r5, r5, #16
100036c2:	1b40      	subs	r0, r0, r5
100036c4:	41b1      	sbcs	r1, r6
100036c6:	4299      	cmp	r1, r3
100036c8:	d204      	bcs.n	100036d4 <y64_x64+0x44>
100036ca:	0002      	movs	r2, r0
100036cc:	000b      	movs	r3, r1
100036ce:	0020      	movs	r0, r4
100036d0:	2100      	movs	r1, #0
100036d2:	bdf0      	pop	{r4, r5, r6, r7, pc}
100036d4:	d101      	bne.n	100036da <y64_x64+0x4a>
100036d6:	4290      	cmp	r0, r2
100036d8:	d3f7      	bcc.n	100036ca <y64_x64+0x3a>
100036da:	1a80      	subs	r0, r0, r2
100036dc:	4199      	sbcs	r1, r3
100036de:	3401      	adds	r4, #1
100036e0:	4299      	cmp	r1, r3
100036e2:	d3f2      	bcc.n	100036ca <y64_x64+0x3a>
100036e4:	e7f6      	b.n	100036d4 <y64_x64+0x44>
100036e6:	0000      	.short	0x0000
100036e8:	d0000000 	.word	0xd0000000
100036ec:	ffffffff 	.word	0xffffffff

100036f0 <__wrap___aeabi_drsub>:
100036f0:	4048      	eors	r0, r1
100036f2:	4041      	eors	r1, r0
100036f4:	4048      	eors	r0, r1

100036f6 <__wrap___aeabi_dsub>:
100036f6:	b418      	push	{r3, r4}
100036f8:	4b11      	ldr	r3, [pc, #68]	; (10003740 <__wrap___aeabi_dmul+0x14>)
100036fa:	685b      	ldr	r3, [r3, #4]
100036fc:	46fc      	mov	ip, pc
100036fe:	9301      	str	r3, [sp, #4]
10003700:	bd08      	pop	{r3, pc}
10003702:	df04      	.short	0xdf04
10003704:	1000397b 	.word	0x1000397b

10003708 <__wrap___aeabi_dadd>:
10003708:	b418      	push	{r3, r4}
1000370a:	4b0d      	ldr	r3, [pc, #52]	; (10003740 <__wrap___aeabi_dmul+0x14>)
1000370c:	681b      	ldr	r3, [r3, #0]
1000370e:	46fc      	mov	ip, pc
10003710:	9301      	str	r3, [sp, #4]
10003712:	bd08      	pop	{r3, pc}
10003714:	3985df00 	.word	0x3985df00
10003718:	1000      	.short	0x1000

1000371a <__wrap___aeabi_ddiv>:
1000371a:	b418      	push	{r3, r4}
1000371c:	4b08      	ldr	r3, [pc, #32]	; (10003740 <__wrap___aeabi_dmul+0x14>)
1000371e:	68db      	ldr	r3, [r3, #12]
10003720:	46fc      	mov	ip, pc
10003722:	9301      	str	r3, [sp, #4]
10003724:	bd08      	pop	{r3, pc}
10003726:	df0c      	.short	0xdf0c
10003728:	10003c3d 	.word	0x10003c3d

1000372c <__wrap___aeabi_dmul>:
1000372c:	b418      	push	{r3, r4}
1000372e:	4b04      	ldr	r3, [pc, #16]	; (10003740 <__wrap___aeabi_dmul+0x14>)
10003730:	689b      	ldr	r3, [r3, #8]
10003732:	46fc      	mov	ip, pc
10003734:	9301      	str	r3, [sp, #4]
10003736:	bd08      	pop	{r3, pc}
10003738:	3ae1df08 	.word	0x3ae1df08
1000373c:	00001000 	.word	0x00001000
10003740:	20000b30 	.word	0x20000b30

10003744 <__wrap___aeabi_cdrcmple>:
10003744:	b5ff      	push	{r0, r1, r2, r3, r4, r5, r6, r7, lr}
10003746:	4050      	eors	r0, r2
10003748:	4042      	eors	r2, r0
1000374a:	4050      	eors	r0, r2
1000374c:	4059      	eors	r1, r3
1000374e:	404b      	eors	r3, r1
10003750:	4059      	eors	r1, r3
10003752:	e000      	b.n	10003756 <__aeabi_dfcmple_guts>

10003754 <__wrap___aeabi_cdcmpeq>:
10003754:	b5ff      	push	{r0, r1, r2, r3, r4, r5, r6, r7, lr}

10003756 <__aeabi_dfcmple_guts>:
10003756:	4f15      	ldr	r7, [pc, #84]	; (100037ac <__aeabi_dfcmple_guts+0x56>)
10003758:	004c      	lsls	r4, r1, #1
1000375a:	0d64      	lsrs	r4, r4, #21
1000375c:	d003      	beq.n	10003766 <__aeabi_dfcmple_guts+0x10>
1000375e:	42bc      	cmp	r4, r7
10003760:	d104      	bne.n	1000376c <__aeabi_dfcmple_guts+0x16>
10003762:	030c      	lsls	r4, r1, #12
10003764:	d814      	bhi.n	10003790 <__aeabi_dfcmple_guts+0x3a>
10003766:	2000      	movs	r0, #0
10003768:	0d09      	lsrs	r1, r1, #20
1000376a:	0509      	lsls	r1, r1, #20
1000376c:	005c      	lsls	r4, r3, #1
1000376e:	0d64      	lsrs	r4, r4, #21
10003770:	d003      	beq.n	1000377a <__aeabi_dfcmple_guts+0x24>
10003772:	42bc      	cmp	r4, r7
10003774:	d104      	bne.n	10003780 <__aeabi_dfcmple_guts+0x2a>
10003776:	031c      	lsls	r4, r3, #12
10003778:	d80a      	bhi.n	10003790 <__aeabi_dfcmple_guts+0x3a>
1000377a:	2200      	movs	r2, #0
1000377c:	0d1b      	lsrs	r3, r3, #20
1000377e:	051b      	lsls	r3, r3, #20
10003780:	2601      	movs	r6, #1
10003782:	404b      	eors	r3, r1
10003784:	d409      	bmi.n	1000379a <__aeabi_dfcmple_guts+0x44>
10003786:	404b      	eors	r3, r1
10003788:	d503      	bpl.n	10003792 <__aeabi_dfcmple_guts+0x3c>
1000378a:	428b      	cmp	r3, r1
1000378c:	d100      	bne.n	10003790 <__aeabi_dfcmple_guts+0x3a>
1000378e:	4282      	cmp	r2, r0
10003790:	bdff      	pop	{r0, r1, r2, r3, r4, r5, r6, r7, pc}
10003792:	4299      	cmp	r1, r3
10003794:	d1fc      	bne.n	10003790 <__aeabi_dfcmple_guts+0x3a>
10003796:	4290      	cmp	r0, r2
10003798:	bdff      	pop	{r0, r1, r2, r3, r4, r5, r6, r7, pc}
1000379a:	430b      	orrs	r3, r1
1000379c:	18db      	adds	r3, r3, r3
1000379e:	4303      	orrs	r3, r0
100037a0:	4313      	orrs	r3, r2
100037a2:	d0f5      	beq.n	10003790 <__aeabi_dfcmple_guts+0x3a>
100037a4:	43c9      	mvns	r1, r1
100037a6:	1849      	adds	r1, r1, r1
100037a8:	bdff      	pop	{r0, r1, r2, r3, r4, r5, r6, r7, pc}
100037aa:	0000      	.short	0x0000
100037ac:	000007ff 	.word	0x000007ff

100037b0 <__wrap___aeabi_dcmplt>:
100037b0:	b500      	push	{lr}
100037b2:	f7ff ffcf 	bl	10003754 <__wrap___aeabi_cdcmpeq>
100037b6:	4180      	sbcs	r0, r0
100037b8:	bd00      	pop	{pc}
100037ba:	46c0      	nop			; (mov r8, r8)

100037bc <__wrap___aeabi_dcmple>:
100037bc:	b500      	push	{lr}
100037be:	f7ff ffc9 	bl	10003754 <__wrap___aeabi_cdcmpeq>
100037c2:	d901      	bls.n	100037c8 <__wrap___aeabi_dcmple+0xc>
100037c4:	2000      	movs	r0, #0
100037c6:	bd00      	pop	{pc}
100037c8:	2001      	movs	r0, #1
100037ca:	bd00      	pop	{pc}

100037cc <__wrap___aeabi_dcmpge>:
100037cc:	b500      	push	{lr}
100037ce:	f7ff ffb9 	bl	10003744 <__wrap___aeabi_cdrcmple>
100037d2:	d901      	bls.n	100037d8 <__wrap___aeabi_dcmpge+0xc>
100037d4:	2000      	movs	r0, #0
100037d6:	bd00      	pop	{pc}
100037d8:	2001      	movs	r0, #1
100037da:	bd00      	pop	{pc}

100037dc <__wrap___aeabi_dcmpgt>:
100037dc:	b500      	push	{lr}
100037de:	f7ff ffb1 	bl	10003744 <__wrap___aeabi_cdrcmple>
100037e2:	4180      	sbcs	r0, r0
100037e4:	bd00      	pop	{pc}

100037e6 <__wrap___aeabi_dcmpun>:
100037e6:	2001      	movs	r0, #1
100037e8:	0540      	lsls	r0, r0, #21
100037ea:	004a      	lsls	r2, r1, #1
100037ec:	1812      	adds	r2, r2, r0
100037ee:	d804      	bhi.n	100037fa <__wrap___aeabi_dcmpun+0x14>
100037f0:	005a      	lsls	r2, r3, #1
100037f2:	1812      	adds	r2, r2, r0
100037f4:	d801      	bhi.n	100037fa <__wrap___aeabi_dcmpun+0x14>
100037f6:	2000      	movs	r0, #0
100037f8:	4770      	bx	lr
100037fa:	2001      	movs	r0, #1
100037fc:	4770      	bx	lr
100037fe:	2000      	movs	r0, #0
10003800:	4770      	bx	lr
	...

10003804 <__wrap___aeabi_ui2d>:
10003804:	2100      	movs	r1, #0
10003806:	2800      	cmp	r0, #0
10003808:	d105      	bne.n	10003816 <__wrap___aeabi_i2d+0xa>
1000380a:	4770      	bx	lr

1000380c <__wrap___aeabi_i2d>:
1000380c:	17c1      	asrs	r1, r0, #31
1000380e:	4048      	eors	r0, r1
10003810:	1a40      	subs	r0, r0, r1
10003812:	d0fa      	beq.n	1000380a <__wrap___aeabi_ui2d+0x6>
10003814:	07c9      	lsls	r1, r1, #31
10003816:	b513      	push	{r0, r1, r4, lr}
10003818:	4b06      	ldr	r3, [pc, #24]	; (10003834 <__wrap___aeabi_i2d+0x28>)
1000381a:	681b      	ldr	r3, [r3, #0]
1000381c:	4798      	blx	r3
1000381e:	bc0c      	pop	{r2, r3}
10003820:	1c44      	adds	r4, r0, #1
10003822:	40a2      	lsls	r2, r4
10003824:	0510      	lsls	r0, r2, #20
10003826:	0b12      	lsrs	r2, r2, #12
10003828:	4903      	ldr	r1, [pc, #12]	; (10003838 <__wrap___aeabi_i2d+0x2c>)
1000382a:	1b09      	subs	r1, r1, r4
1000382c:	0509      	lsls	r1, r1, #20
1000382e:	4319      	orrs	r1, r3
10003830:	4311      	orrs	r1, r2
10003832:	bd10      	pop	{r4, pc}
10003834:	20000d30 	.word	0x20000d30
10003838:	0000041f 	.word	0x0000041f

1000383c <__wrap___aeabi_d2iz>:
1000383c:	b510      	push	{r4, lr}
1000383e:	004c      	lsls	r4, r1, #1
10003840:	0d62      	lsrs	r2, r4, #21
10003842:	2380      	movs	r3, #128	; 0x80
10003844:	18d2      	adds	r2, r2, r3
10003846:	00db      	lsls	r3, r3, #3
10003848:	1ad2      	subs	r2, r2, r3
1000384a:	055b      	lsls	r3, r3, #21
1000384c:	2a7e      	cmp	r2, #126	; 0x7e
1000384e:	dd10      	ble.n	10003872 <__wrap___aeabi_d2iz+0x36>
10003850:	3a9e      	subs	r2, #158	; 0x9e
10003852:	da13      	bge.n	1000387c <__wrap___aeabi_d2iz+0x40>
10003854:	17cc      	asrs	r4, r1, #31
10003856:	0309      	lsls	r1, r1, #12
10003858:	0849      	lsrs	r1, r1, #1
1000385a:	4319      	orrs	r1, r3
1000385c:	4252      	negs	r2, r2
1000385e:	40d1      	lsrs	r1, r2
10003860:	0064      	lsls	r4, r4, #1
10003862:	3401      	adds	r4, #1
10003864:	3215      	adds	r2, #21
10003866:	2a20      	cmp	r2, #32
10003868:	da05      	bge.n	10003876 <__wrap___aeabi_d2iz+0x3a>
1000386a:	40d0      	lsrs	r0, r2
1000386c:	4308      	orrs	r0, r1
1000386e:	4360      	muls	r0, r4
10003870:	bd10      	pop	{r4, pc}
10003872:	2000      	movs	r0, #0
10003874:	bd10      	pop	{r4, pc}
10003876:	4608      	mov	r0, r1
10003878:	4360      	muls	r0, r4
1000387a:	bd10      	pop	{r4, pc}
1000387c:	0fc8      	lsrs	r0, r1, #31
1000387e:	18c0      	adds	r0, r0, r3
10003880:	3801      	subs	r0, #1
10003882:	bd10      	pop	{r4, pc}

10003884 <__wrap___aeabi_d2uiz>:
10003884:	b418      	push	{r3, r4}
10003886:	4b04      	ldr	r3, [pc, #16]	; (10003898 <__wrap___aeabi_d2uiz+0x14>)
10003888:	6a5b      	ldr	r3, [r3, #36]	; 0x24
1000388a:	46fc      	mov	ip, pc
1000388c:	9301      	str	r3, [sp, #4]
1000388e:	bd08      	pop	{r3, pc}
10003890:	3e69df24 	.word	0x3e69df24
10003894:	00001000 	.word	0x00001000
10003898:	20000b30 	.word	0x20000b30

1000389c <__aeabi_double_init>:
1000389c:	2313      	movs	r3, #19
1000389e:	b570      	push	{r4, r5, r6, lr}
100038a0:	781d      	ldrb	r5, [r3, #0]
100038a2:	2d01      	cmp	r5, #1
100038a4:	d010      	beq.n	100038c8 <__aeabi_double_init+0x2c>
100038a6:	dd0b      	ble.n	100038c0 <__aeabi_double_init+0x24>
100038a8:	4824      	ldr	r0, [pc, #144]	; (1000393c <__aeabi_double_init+0xa0>)
100038aa:	f7ff fc8d 	bl	100031c8 <rom_data_lookup>
100038ae:	4c24      	ldr	r4, [pc, #144]	; (10003940 <__aeabi_double_init+0xa4>)
100038b0:	0001      	movs	r1, r0
100038b2:	2280      	movs	r2, #128	; 0x80
100038b4:	0020      	movs	r0, r4
100038b6:	f000 fb91 	bl	10003fdc <__wrap___aeabi_memcpy>
100038ba:	2d02      	cmp	r5, #2
100038bc:	d001      	beq.n	100038c2 <__aeabi_double_init+0x26>
100038be:	bd70      	pop	{r4, r5, r6, pc}
100038c0:	4c1f      	ldr	r4, [pc, #124]	; (10003940 <__aeabi_double_init+0xa4>)
100038c2:	4a20      	ldr	r2, [pc, #128]	; (10003944 <__aeabi_double_init+0xa8>)
100038c4:	64a2      	str	r2, [r4, #72]	; 0x48
100038c6:	e7fa      	b.n	100038be <__aeabi_double_init+0x22>
100038c8:	002e      	movs	r6, r5
100038ca:	4c1d      	ldr	r4, [pc, #116]	; (10003940 <__aeabi_double_init+0xa4>)
100038cc:	4a1d      	ldr	r2, [pc, #116]	; (10003944 <__aeabi_double_init+0xa8>)
100038ce:	08a3      	lsrs	r3, r4, #2
100038d0:	425b      	negs	r3, r3
100038d2:	401e      	ands	r6, r3
100038d4:	421d      	tst	r5, r3
100038d6:	d02f      	beq.n	10003938 <__aeabi_double_init+0x9c>
100038d8:	0033      	movs	r3, r6
100038da:	6022      	str	r2, [r4, #0]
100038dc:	2020      	movs	r0, #32
100038de:	00b1      	lsls	r1, r6, #2
100038e0:	1861      	adds	r1, r4, r1
100038e2:	1b80      	subs	r0, r0, r6
100038e4:	600a      	str	r2, [r1, #0]
100038e6:	604a      	str	r2, [r1, #4]
100038e8:	608a      	str	r2, [r1, #8]
100038ea:	60ca      	str	r2, [r1, #12]
100038ec:	610a      	str	r2, [r1, #16]
100038ee:	614a      	str	r2, [r1, #20]
100038f0:	618a      	str	r2, [r1, #24]
100038f2:	61ca      	str	r2, [r1, #28]
100038f4:	620a      	str	r2, [r1, #32]
100038f6:	624a      	str	r2, [r1, #36]	; 0x24
100038f8:	628a      	str	r2, [r1, #40]	; 0x28
100038fa:	62ca      	str	r2, [r1, #44]	; 0x2c
100038fc:	630a      	str	r2, [r1, #48]	; 0x30
100038fe:	634a      	str	r2, [r1, #52]	; 0x34
10003900:	638a      	str	r2, [r1, #56]	; 0x38
10003902:	63ca      	str	r2, [r1, #60]	; 0x3c
10003904:	640a      	str	r2, [r1, #64]	; 0x40
10003906:	644a      	str	r2, [r1, #68]	; 0x44
10003908:	648a      	str	r2, [r1, #72]	; 0x48
1000390a:	64ca      	str	r2, [r1, #76]	; 0x4c
1000390c:	650a      	str	r2, [r1, #80]	; 0x50
1000390e:	654a      	str	r2, [r1, #84]	; 0x54
10003910:	658a      	str	r2, [r1, #88]	; 0x58
10003912:	65ca      	str	r2, [r1, #92]	; 0x5c
10003914:	660a      	str	r2, [r1, #96]	; 0x60
10003916:	664a      	str	r2, [r1, #100]	; 0x64
10003918:	668a      	str	r2, [r1, #104]	; 0x68
1000391a:	66ca      	str	r2, [r1, #108]	; 0x6c
1000391c:	670a      	str	r2, [r1, #112]	; 0x70
1000391e:	674a      	str	r2, [r1, #116]	; 0x74
10003920:	0840      	lsrs	r0, r0, #1
10003922:	2810      	cmp	r0, #16
10003924:	d103      	bne.n	1000392e <__aeabi_double_init+0x92>
10003926:	678a      	str	r2, [r1, #120]	; 0x78
10003928:	67ca      	str	r2, [r1, #124]	; 0x7c
1000392a:	64a2      	str	r2, [r4, #72]	; 0x48
1000392c:	e7c7      	b.n	100038be <__aeabi_double_init+0x22>
1000392e:	331e      	adds	r3, #30
10003930:	009b      	lsls	r3, r3, #2
10003932:	50e2      	str	r2, [r4, r3]
10003934:	64a2      	str	r2, [r4, #72]	; 0x48
10003936:	e7c2      	b.n	100038be <__aeabi_double_init+0x22>
10003938:	2300      	movs	r3, #0
1000393a:	e7cf      	b.n	100038dc <__aeabi_double_init+0x40>
1000393c:	00004453 	.word	0x00004453
10003940:	20000b30 	.word	0x20000b30
10003944:	10003949 	.word	0x10003949

10003948 <double_table_shim_on_use_helper>:
10003948:	b507      	push	{r0, r1, r2, lr}
1000394a:	4660      	mov	r0, ip
1000394c:	8801      	ldrh	r1, [r0, #0]
1000394e:	0a0a      	lsrs	r2, r1, #8
10003950:	3002      	adds	r0, #2
10003952:	2adf      	cmp	r2, #223	; 0xdf
10003954:	d1fa      	bne.n	1000394c <double_table_shim_on_use_helper+0x4>
10003956:	b2c9      	uxtb	r1, r1
10003958:	0882      	lsrs	r2, r0, #2
1000395a:	d304      	bcc.n	10003966 <double_table_shim_on_use_helper+0x1e>
1000395c:	8802      	ldrh	r2, [r0, #0]
1000395e:	8840      	ldrh	r0, [r0, #2]
10003960:	0400      	lsls	r0, r0, #16
10003962:	4310      	orrs	r0, r2
10003964:	e000      	b.n	10003968 <double_table_shim_on_use_helper+0x20>
10003966:	6800      	ldr	r0, [r0, #0]
10003968:	4a01      	ldr	r2, [pc, #4]	; (10003970 <double_table_shim_on_use_helper+0x28>)
1000396a:	5050      	str	r0, [r2, r1]
1000396c:	9003      	str	r0, [sp, #12]
1000396e:	bd07      	pop	{r0, r1, r2, pc}
10003970:	20000b30 	.word	0x20000b30

10003974 <drsub_shim>:
10003974:	b40f      	push	{r0, r1, r2, r3}
10003976:	bc03      	pop	{r0, r1}
10003978:	bc0c      	pop	{r2, r3}

1000397a <dsub_shim>:
1000397a:	b5f0      	push	{r4, r5, r6, r7, lr}
1000397c:	2401      	movs	r4, #1
1000397e:	07e4      	lsls	r4, r4, #31
10003980:	4063      	eors	r3, r4
10003982:	e000      	b.n	10003986 <da_entry>

10003984 <dadd_shim>:
10003984:	b5f0      	push	{r4, r5, r6, r7, lr}

10003986 <da_entry>:
10003986:	0d0c      	lsrs	r4, r1, #20
10003988:	0fcf      	lsrs	r7, r1, #31
1000398a:	1e66      	subs	r6, r4, #1
1000398c:	0536      	lsls	r6, r6, #20
1000398e:	1b89      	subs	r1, r1, r6
10003990:	0564      	lsls	r4, r4, #21
10003992:	d303      	bcc.n	1000399c <l7_1>
10003994:	43c9      	mvns	r1, r1
10003996:	4240      	negs	r0, r0
10003998:	d300      	bcc.n	1000399c <l7_1>
1000399a:	3101      	adds	r1, #1

1000399c <l7_1>:
1000399c:	0d64      	lsrs	r4, r4, #21
1000399e:	d003      	beq.n	100039a8 <l7_2>
100039a0:	1c66      	adds	r6, r4, #1
100039a2:	0af6      	lsrs	r6, r6, #11
100039a4:	d007      	beq.n	100039b6 <l7_3>
100039a6:	1be4      	subs	r4, r4, r7

100039a8 <l7_2>:
100039a8:	2000      	movs	r0, #0
100039aa:	007f      	lsls	r7, r7, #1
100039ac:	1c79      	adds	r1, r7, #1
100039ae:	0789      	lsls	r1, r1, #30
100039b0:	1289      	asrs	r1, r1, #10
100039b2:	3c80      	subs	r4, #128	; 0x80
100039b4:	0324      	lsls	r4, r4, #12

100039b6 <l7_3>:
100039b6:	0d1d      	lsrs	r5, r3, #20
100039b8:	0fdf      	lsrs	r7, r3, #31
100039ba:	1e6e      	subs	r6, r5, #1
100039bc:	0536      	lsls	r6, r6, #20
100039be:	1b9b      	subs	r3, r3, r6
100039c0:	056d      	lsls	r5, r5, #21
100039c2:	d303      	bcc.n	100039cc <l8_1>
100039c4:	43db      	mvns	r3, r3
100039c6:	4252      	negs	r2, r2
100039c8:	d300      	bcc.n	100039cc <l8_1>
100039ca:	3301      	adds	r3, #1

100039cc <l8_1>:
100039cc:	0d6d      	lsrs	r5, r5, #21
100039ce:	d003      	beq.n	100039d8 <l8_2>
100039d0:	1c6e      	adds	r6, r5, #1
100039d2:	0af6      	lsrs	r6, r6, #11
100039d4:	d007      	beq.n	100039e6 <l8_3>
100039d6:	1bed      	subs	r5, r5, r7

100039d8 <l8_2>:
100039d8:	2200      	movs	r2, #0
100039da:	007f      	lsls	r7, r7, #1
100039dc:	1c7b      	adds	r3, r7, #1
100039de:	079b      	lsls	r3, r3, #30
100039e0:	129b      	asrs	r3, r3, #10
100039e2:	3d80      	subs	r5, #128	; 0x80
100039e4:	032d      	lsls	r5, r5, #12

100039e6 <l8_3>:
100039e6:	1b2f      	subs	r7, r5, r4
100039e8:	1b66      	subs	r6, r4, r5
100039ea:	d458      	bmi.n	10003a9e <da_ygtx>
100039ec:	46a4      	mov	ip, r4
100039ee:	2e20      	cmp	r6, #32
100039f0:	da46      	bge.n	10003a80 <da_xrgty>
100039f2:	3720      	adds	r7, #32
100039f4:	0014      	movs	r4, r2
100039f6:	40bc      	lsls	r4, r7

100039f8 <da_xgty0>:
100039f8:	001d      	movs	r5, r3
100039fa:	40bd      	lsls	r5, r7
100039fc:	40f2      	lsrs	r2, r6
100039fe:	4133      	asrs	r3, r6
10003a00:	432a      	orrs	r2, r5

10003a02 <da_add>:
10003a02:	1880      	adds	r0, r0, r2
10003a04:	4159      	adcs	r1, r3

10003a06 <da_pack>:
10003a06:	0fcb      	lsrs	r3, r1, #31
10003a08:	d005      	beq.n	10003a16 <da_pack+0x10>
10003a0a:	43c9      	mvns	r1, r1
10003a0c:	43c0      	mvns	r0, r0
10003a0e:	2200      	movs	r2, #0
10003a10:	4264      	negs	r4, r4
10003a12:	4150      	adcs	r0, r2
10003a14:	4151      	adcs	r1, r2
10003a16:	4662      	mov	r2, ip
10003a18:	0d4d      	lsrs	r5, r1, #21
10003a1a:	d128      	bne.n	10003a6e <da_0>
10003a1c:	0d0d      	lsrs	r5, r1, #20
10003a1e:	d107      	bne.n	10003a30 <da_1>
10003a20:	2800      	cmp	r0, #0
10003a22:	d01f      	beq.n	10003a64 <da_5>

10003a24 <da_2>:
10003a24:	1924      	adds	r4, r4, r4
10003a26:	4140      	adcs	r0, r0
10003a28:	4149      	adcs	r1, r1
10003a2a:	3a01      	subs	r2, #1
10003a2c:	0d0d      	lsrs	r5, r1, #20
10003a2e:	d0f9      	beq.n	10003a24 <da_2>

10003a30 <da_1>:
10003a30:	0064      	lsls	r4, r4, #1
10003a32:	d306      	bcc.n	10003a42 <da_3>

10003a34 <da_4>:
10003a34:	3001      	adds	r0, #1
10003a36:	d300      	bcc.n	10003a3a <da_4+0x6>
10003a38:	3101      	adds	r1, #1
10003a3a:	2c00      	cmp	r4, #0
10003a3c:	d101      	bne.n	10003a42 <da_3>
10003a3e:	0840      	lsrs	r0, r0, #1
10003a40:	0040      	lsls	r0, r0, #1

10003a42 <da_3>:
10003a42:	3a01      	subs	r2, #1
10003a44:	d40b      	bmi.n	10003a5e <da_6>
10003a46:	1c94      	adds	r4, r2, #2
10003a48:	0ae4      	lsrs	r4, r4, #11
10003a4a:	d104      	bne.n	10003a56 <da_7>
10003a4c:	0512      	lsls	r2, r2, #20
10003a4e:	4411      	add	r1, r2
10003a50:	07db      	lsls	r3, r3, #31
10003a52:	4419      	add	r1, r3
10003a54:	bdf0      	pop	{r4, r5, r6, r7, pc}

10003a56 <da_7>:
10003a56:	07d9      	lsls	r1, r3, #31
10003a58:	4b20      	ldr	r3, [pc, #128]	; (10003adc <da_xmgty+0x4>)
10003a5a:	4319      	orrs	r1, r3
10003a5c:	e000      	b.n	10003a60 <da_6+0x2>

10003a5e <da_6>:
10003a5e:	07d9      	lsls	r1, r3, #31
10003a60:	2000      	movs	r0, #0
10003a62:	bdf0      	pop	{r4, r5, r6, r7, pc}

10003a64 <da_5>:
10003a64:	2900      	cmp	r1, #0
10003a66:	d1dd      	bne.n	10003a24 <da_2>
10003a68:	2c00      	cmp	r4, #0
10003a6a:	d1db      	bne.n	10003a24 <da_2>
10003a6c:	bdf0      	pop	{r4, r5, r6, r7, pc}

10003a6e <da_0>:
10003a6e:	3201      	adds	r2, #1
10003a70:	07c6      	lsls	r6, r0, #31
10003a72:	0840      	lsrs	r0, r0, #1
10003a74:	07cd      	lsls	r5, r1, #31
10003a76:	4328      	orrs	r0, r5
10003a78:	0849      	lsrs	r1, r1, #1
10003a7a:	2e00      	cmp	r6, #0
10003a7c:	d0e1      	beq.n	10003a42 <da_3>
10003a7e:	e7d9      	b.n	10003a34 <da_4>

10003a80 <da_xrgty>:
10003a80:	2e3c      	cmp	r6, #60	; 0x3c
10003a82:	da29      	bge.n	10003ad8 <da_xmgty>
10003a84:	3e20      	subs	r6, #32
10003a86:	3740      	adds	r7, #64	; 0x40
10003a88:	0014      	movs	r4, r2
10003a8a:	40bc      	lsls	r4, r7
10003a8c:	d000      	beq.n	10003a90 <da_xrgty+0x10>
10003a8e:	2401      	movs	r4, #1
10003a90:	40f2      	lsrs	r2, r6
10003a92:	4314      	orrs	r4, r2
10003a94:	001a      	movs	r2, r3
10003a96:	40bb      	lsls	r3, r7
10003a98:	431c      	orrs	r4, r3
10003a9a:	17d3      	asrs	r3, r2, #31
10003a9c:	e7ac      	b.n	100039f8 <da_xgty0>

10003a9e <da_ygtx>:
10003a9e:	46ac      	mov	ip, r5
10003aa0:	2f20      	cmp	r7, #32
10003aa2:	da08      	bge.n	10003ab6 <da_yrgtx>
10003aa4:	3620      	adds	r6, #32
10003aa6:	0004      	movs	r4, r0
10003aa8:	40b4      	lsls	r4, r6

10003aaa <da_ygtx0>:
10003aaa:	000d      	movs	r5, r1
10003aac:	40b5      	lsls	r5, r6
10003aae:	40f8      	lsrs	r0, r7
10003ab0:	4139      	asrs	r1, r7
10003ab2:	4328      	orrs	r0, r5
10003ab4:	e7a5      	b.n	10003a02 <da_add>

10003ab6 <da_yrgtx>:
10003ab6:	2f3c      	cmp	r7, #60	; 0x3c
10003ab8:	da0c      	bge.n	10003ad4 <da_ymgtx>
10003aba:	3f20      	subs	r7, #32
10003abc:	3640      	adds	r6, #64	; 0x40
10003abe:	0004      	movs	r4, r0
10003ac0:	40b4      	lsls	r4, r6
10003ac2:	d000      	beq.n	10003ac6 <da_yrgtx+0x10>
10003ac4:	2401      	movs	r4, #1
10003ac6:	40f8      	lsrs	r0, r7
10003ac8:	4304      	orrs	r4, r0
10003aca:	0008      	movs	r0, r1
10003acc:	40b1      	lsls	r1, r6
10003ace:	430c      	orrs	r4, r1
10003ad0:	17c1      	asrs	r1, r0, #31
10003ad2:	e7ea      	b.n	10003aaa <da_ygtx0>

10003ad4 <da_ymgtx>:
10003ad4:	0010      	movs	r0, r2
10003ad6:	0019      	movs	r1, r3

10003ad8 <da_xmgty>:
10003ad8:	2400      	movs	r4, #0
10003ada:	e794      	b.n	10003a06 <da_pack>
10003adc:	7ff00000 	.word	0x7ff00000

10003ae0 <dmul_shim>:
10003ae0:	b5f0      	push	{r4, r5, r6, r7, lr}
10003ae2:	0d0c      	lsrs	r4, r1, #20
10003ae4:	1e66      	subs	r6, r4, #1
10003ae6:	0536      	lsls	r6, r6, #20
10003ae8:	1b89      	subs	r1, r1, r6
10003aea:	0ae6      	lsrs	r6, r4, #11
10003aec:	0564      	lsls	r4, r4, #21
10003aee:	0d64      	lsrs	r4, r4, #21
10003af0:	d002      	beq.n	10003af8 <l11_1>
10003af2:	1c65      	adds	r5, r4, #1
10003af4:	0aed      	lsrs	r5, r5, #11
10003af6:	d004      	beq.n	10003b02 <l11_2>

10003af8 <l11_1>:
10003af8:	2000      	movs	r0, #0
10003afa:	2101      	movs	r1, #1
10003afc:	0509      	lsls	r1, r1, #20
10003afe:	3c80      	subs	r4, #128	; 0x80
10003b00:	0324      	lsls	r4, r4, #12

10003b02 <l11_2>:
10003b02:	46a4      	mov	ip, r4
10003b04:	0d1c      	lsrs	r4, r3, #20
10003b06:	1e67      	subs	r7, r4, #1
10003b08:	053f      	lsls	r7, r7, #20
10003b0a:	1bdb      	subs	r3, r3, r7
10003b0c:	0ae7      	lsrs	r7, r4, #11
10003b0e:	0564      	lsls	r4, r4, #21
10003b10:	0d64      	lsrs	r4, r4, #21
10003b12:	d002      	beq.n	10003b1a <l12_1>
10003b14:	1c65      	adds	r5, r4, #1
10003b16:	0aed      	lsrs	r5, r5, #11
10003b18:	d004      	beq.n	10003b24 <l12_2>

10003b1a <l12_1>:
10003b1a:	2200      	movs	r2, #0
10003b1c:	2301      	movs	r3, #1
10003b1e:	051b      	lsls	r3, r3, #20
10003b20:	3c80      	subs	r4, #128	; 0x80
10003b22:	0324      	lsls	r4, r4, #12

10003b24 <l12_2>:
10003b24:	4077      	eors	r7, r6
10003b26:	4464      	add	r4, ip
10003b28:	b497      	push	{r0, r1, r2, r4, r7}
10003b2a:	b284      	uxth	r4, r0
10003b2c:	b296      	uxth	r6, r2
10003b2e:	4374      	muls	r4, r6
10003b30:	0c07      	lsrs	r7, r0, #16
10003b32:	437e      	muls	r6, r7
10003b34:	0c15      	lsrs	r5, r2, #16
10003b36:	436f      	muls	r7, r5
10003b38:	b280      	uxth	r0, r0
10003b3a:	4368      	muls	r0, r5
10003b3c:	1836      	adds	r6, r6, r0
10003b3e:	d302      	bcc.n	10003b46 <l13_1>
10003b40:	2001      	movs	r0, #1
10003b42:	0400      	lsls	r0, r0, #16
10003b44:	183f      	adds	r7, r7, r0

10003b46 <l13_1>:
10003b46:	0430      	lsls	r0, r6, #16
10003b48:	0c35      	lsrs	r5, r6, #16
10003b4a:	1900      	adds	r0, r0, r4
10003b4c:	417d      	adcs	r5, r7
10003b4e:	4684      	mov	ip, r0
10003b50:	b288      	uxth	r0, r1
10003b52:	b29a      	uxth	r2, r3
10003b54:	4350      	muls	r0, r2
10003b56:	0c0c      	lsrs	r4, r1, #16
10003b58:	4362      	muls	r2, r4
10003b5a:	0c1f      	lsrs	r7, r3, #16
10003b5c:	437c      	muls	r4, r7
10003b5e:	b28e      	uxth	r6, r1
10003b60:	437e      	muls	r6, r7
10003b62:	1992      	adds	r2, r2, r6
10003b64:	d302      	bcc.n	10003b6c <l14_1>
10003b66:	2601      	movs	r6, #1
10003b68:	0436      	lsls	r6, r6, #16
10003b6a:	19a4      	adds	r4, r4, r6

10003b6c <l14_1>:
10003b6c:	0416      	lsls	r6, r2, #16
10003b6e:	0c17      	lsrs	r7, r2, #16
10003b70:	1836      	adds	r6, r6, r0
10003b72:	4167      	adcs	r7, r4
10003b74:	bc01      	pop	{r0}
10003b76:	b281      	uxth	r1, r0
10003b78:	b29a      	uxth	r2, r3
10003b7a:	4351      	muls	r1, r2
10003b7c:	0c04      	lsrs	r4, r0, #16
10003b7e:	4362      	muls	r2, r4
10003b80:	0c1b      	lsrs	r3, r3, #16
10003b82:	435c      	muls	r4, r3
10003b84:	b280      	uxth	r0, r0
10003b86:	4358      	muls	r0, r3
10003b88:	1812      	adds	r2, r2, r0
10003b8a:	d302      	bcc.n	10003b92 <l15_1>
10003b8c:	2001      	movs	r0, #1
10003b8e:	0400      	lsls	r0, r0, #16
10003b90:	1824      	adds	r4, r4, r0

10003b92 <l15_1>:
10003b92:	0410      	lsls	r0, r2, #16
10003b94:	0c13      	lsrs	r3, r2, #16
10003b96:	1840      	adds	r0, r0, r1
10003b98:	4163      	adcs	r3, r4
10003b9a:	182d      	adds	r5, r5, r0
10003b9c:	415e      	adcs	r6, r3
10003b9e:	2000      	movs	r0, #0
10003ba0:	4147      	adcs	r7, r0
10003ba2:	bc06      	pop	{r1, r2}
10003ba4:	b288      	uxth	r0, r1
10003ba6:	b293      	uxth	r3, r2
10003ba8:	4358      	muls	r0, r3
10003baa:	0c0c      	lsrs	r4, r1, #16
10003bac:	4363      	muls	r3, r4
10003bae:	0c12      	lsrs	r2, r2, #16
10003bb0:	4354      	muls	r4, r2
10003bb2:	b289      	uxth	r1, r1
10003bb4:	4351      	muls	r1, r2
10003bb6:	185b      	adds	r3, r3, r1
10003bb8:	d302      	bcc.n	10003bc0 <l16_1>
10003bba:	2101      	movs	r1, #1
10003bbc:	0409      	lsls	r1, r1, #16
10003bbe:	1864      	adds	r4, r4, r1

10003bc0 <l16_1>:
10003bc0:	0419      	lsls	r1, r3, #16
10003bc2:	0c1a      	lsrs	r2, r3, #16
10003bc4:	1809      	adds	r1, r1, r0
10003bc6:	4162      	adcs	r2, r4
10003bc8:	186d      	adds	r5, r5, r1
10003bca:	4156      	adcs	r6, r2
10003bcc:	2000      	movs	r0, #0
10003bce:	4147      	adcs	r7, r0
10003bd0:	bc18      	pop	{r3, r4}
10003bd2:	02f9      	lsls	r1, r7, #11
10003bd4:	0d72      	lsrs	r2, r6, #21
10003bd6:	4311      	orrs	r1, r2
10003bd8:	02f0      	lsls	r0, r6, #11
10003bda:	0d6a      	lsrs	r2, r5, #21
10003bdc:	4310      	orrs	r0, r2
10003bde:	02ed      	lsls	r5, r5, #11
10003be0:	0d0a      	lsrs	r2, r1, #20
10003be2:	d103      	bne.n	10003bec <l16_1+0x2c>
10003be4:	196d      	adds	r5, r5, r5
10003be6:	4140      	adcs	r0, r0
10003be8:	4149      	adcs	r1, r1
10003bea:	3b01      	subs	r3, #1
10003bec:	4e12      	ldr	r6, [pc, #72]	; (10003c38 <dm_1+0xa>)
10003bee:	1b9b      	subs	r3, r3, r6
10003bf0:	0076      	lsls	r6, r6, #1
10003bf2:	42b3      	cmp	r3, r6
10003bf4:	d20e      	bcs.n	10003c14 <dm_0>
10003bf6:	006d      	lsls	r5, r5, #1
10003bf8:	d307      	bcc.n	10003c0a <l16_1+0x4a>
10003bfa:	3001      	adds	r0, #1
10003bfc:	2600      	movs	r6, #0
10003bfe:	4171      	adcs	r1, r6
10003c00:	4666      	mov	r6, ip
10003c02:	4335      	orrs	r5, r6
10003c04:	d101      	bne.n	10003c0a <l16_1+0x4a>
10003c06:	0840      	lsrs	r0, r0, #1
10003c08:	0040      	lsls	r0, r0, #1
10003c0a:	051b      	lsls	r3, r3, #20
10003c0c:	18c9      	adds	r1, r1, r3

10003c0e <dm_2>:
10003c0e:	07e4      	lsls	r4, r4, #31
10003c10:	4421      	add	r1, r4
10003c12:	bdf0      	pop	{r4, r5, r6, r7, pc}

10003c14 <dm_0>:
10003c14:	da0b      	bge.n	10003c2e <dm_1>
10003c16:	3301      	adds	r3, #1
10003c18:	d106      	bne.n	10003c28 <dm_0+0x14>
10003c1a:	3001      	adds	r0, #1
10003c1c:	d104      	bne.n	10003c28 <dm_0+0x14>
10003c1e:	3101      	adds	r1, #1
10003c20:	0d4f      	lsrs	r7, r1, #21
10003c22:	d001      	beq.n	10003c28 <dm_0+0x14>
10003c24:	0849      	lsrs	r1, r1, #1
10003c26:	e7f2      	b.n	10003c0e <dm_2>
10003c28:	07e1      	lsls	r1, r4, #31
10003c2a:	2000      	movs	r0, #0
10003c2c:	bdf0      	pop	{r4, r5, r6, r7, pc}

10003c2e <dm_1>:
10003c2e:	3601      	adds	r6, #1
10003c30:	0531      	lsls	r1, r6, #20
10003c32:	2000      	movs	r0, #0
10003c34:	e7eb      	b.n	10003c0e <dm_2>
10003c36:	0000      	.short	0x0000
10003c38:	000003ff 	.word	0x000003ff

10003c3c <ddiv_shim>:
10003c3c:	b5f0      	push	{r4, r5, r6, r7, lr}

10003c3e <ddiv0>:
10003c3e:	0d1c      	lsrs	r4, r3, #20
10003c40:	1e67      	subs	r7, r4, #1
10003c42:	053f      	lsls	r7, r7, #20
10003c44:	1bdb      	subs	r3, r3, r7
10003c46:	0ae7      	lsrs	r7, r4, #11
10003c48:	0564      	lsls	r4, r4, #21
10003c4a:	0d64      	lsrs	r4, r4, #21
10003c4c:	d002      	beq.n	10003c54 <l19_1>
10003c4e:	1c66      	adds	r6, r4, #1
10003c50:	0af6      	lsrs	r6, r6, #11
10003c52:	d004      	beq.n	10003c5e <l19_2>

10003c54 <l19_1>:
10003c54:	2200      	movs	r2, #0
10003c56:	2301      	movs	r3, #1
10003c58:	051b      	lsls	r3, r3, #20
10003c5a:	3c80      	subs	r4, #128	; 0x80
10003c5c:	0324      	lsls	r4, r4, #12

10003c5e <l19_2>:
10003c5e:	25d0      	movs	r5, #208	; 0xd0
10003c60:	062d      	lsls	r5, r5, #24
10003c62:	2600      	movs	r6, #0
10003c64:	43f6      	mvns	r6, r6
10003c66:	662e      	str	r6, [r5, #96]	; 0x60
10003c68:	091e      	lsrs	r6, r3, #4
10003c6a:	666e      	str	r6, [r5, #100]	; 0x64
10003c6c:	0fce      	lsrs	r6, r1, #31
10003c6e:	19f6      	adds	r6, r6, r7
10003c70:	46b4      	mov	ip, r6
10003c72:	0049      	lsls	r1, r1, #1
10003c74:	0d4f      	lsrs	r7, r1, #21
10003c76:	d002      	beq.n	10003c7e <l19_2+0x20>
10003c78:	1c7e      	adds	r6, r7, #1
10003c7a:	0af6      	lsrs	r6, r6, #11
10003c7c:	d003      	beq.n	10003c86 <l19_2+0x28>
10003c7e:	2000      	movs	r0, #0
10003c80:	2100      	movs	r1, #0
10003c82:	3f40      	subs	r7, #64	; 0x40
10003c84:	033f      	lsls	r7, r7, #12
10003c86:	1b3e      	subs	r6, r7, r4
10003c88:	00b6      	lsls	r6, r6, #2
10003c8a:	44b4      	add	ip, r6
10003c8c:	3f01      	subs	r7, #1
10003c8e:	057f      	lsls	r7, r7, #21
10003c90:	1bc9      	subs	r1, r1, r7
10003c92:	0849      	lsrs	r1, r1, #1
10003c94:	6f2e      	ldr	r6, [r5, #112]	; 0x70
10003c96:	3601      	adds	r6, #1
10003c98:	0876      	lsrs	r6, r6, #1
10003c9a:	029c      	lsls	r4, r3, #10
10003c9c:	0d95      	lsrs	r5, r2, #22
10003c9e:	4325      	orrs	r5, r4
10003ca0:	4375      	muls	r5, r6
10003ca2:	13ed      	asrs	r5, r5, #15
10003ca4:	4375      	muls	r5, r6
10003ca6:	13ad      	asrs	r5, r5, #14
10003ca8:	3501      	adds	r5, #1
10003caa:	106d      	asrs	r5, r5, #1
10003cac:	03f6      	lsls	r6, r6, #15
10003cae:	1b76      	subs	r6, r6, r5
10003cb0:	b40c      	push	{r2, r3}
10003cb2:	02cc      	lsls	r4, r1, #11
10003cb4:	0d45      	lsrs	r5, r0, #21
10003cb6:	432c      	orrs	r4, r5
10003cb8:	b2a2      	uxth	r2, r4
10003cba:	b2b3      	uxth	r3, r6
10003cbc:	435a      	muls	r2, r3
10003cbe:	0c27      	lsrs	r7, r4, #16
10003cc0:	437b      	muls	r3, r7
10003cc2:	0c35      	lsrs	r5, r6, #16
10003cc4:	436f      	muls	r7, r5
10003cc6:	b2a4      	uxth	r4, r4
10003cc8:	436c      	muls	r4, r5
10003cca:	191b      	adds	r3, r3, r4
10003ccc:	d302      	bcc.n	10003cd4 <l20_1>
10003cce:	2401      	movs	r4, #1
10003cd0:	0424      	lsls	r4, r4, #16
10003cd2:	193f      	adds	r7, r7, r4

10003cd4 <l20_1>:
10003cd4:	041c      	lsls	r4, r3, #16
10003cd6:	0c1d      	lsrs	r5, r3, #16
10003cd8:	18a4      	adds	r4, r4, r2
10003cda:	417d      	adcs	r5, r7
10003cdc:	1924      	adds	r4, r4, r4
10003cde:	416d      	adcs	r5, r5
10003ce0:	9a00      	ldr	r2, [sp, #0]
10003ce2:	b291      	uxth	r1, r2
10003ce4:	b2ac      	uxth	r4, r5
10003ce6:	4361      	muls	r1, r4
10003ce8:	0c17      	lsrs	r7, r2, #16
10003cea:	437c      	muls	r4, r7
10003cec:	0c2b      	lsrs	r3, r5, #16
10003cee:	435f      	muls	r7, r3
10003cf0:	b292      	uxth	r2, r2
10003cf2:	435a      	muls	r2, r3
10003cf4:	18a4      	adds	r4, r4, r2
10003cf6:	d302      	bcc.n	10003cfe <l21_1>
10003cf8:	2201      	movs	r2, #1
10003cfa:	0412      	lsls	r2, r2, #16
10003cfc:	18bf      	adds	r7, r7, r2

10003cfe <l21_1>:
10003cfe:	0422      	lsls	r2, r4, #16
10003d00:	0c23      	lsrs	r3, r4, #16
10003d02:	1852      	adds	r2, r2, r1
10003d04:	417b      	adcs	r3, r7
10003d06:	9c01      	ldr	r4, [sp, #4]
10003d08:	436c      	muls	r4, r5
10003d0a:	191b      	adds	r3, r3, r4
10003d0c:	0e52      	lsrs	r2, r2, #25
10003d0e:	01d9      	lsls	r1, r3, #7
10003d10:	430a      	orrs	r2, r1
10003d12:	0144      	lsls	r4, r0, #5
10003d14:	1aa0      	subs	r0, r4, r2
10003d16:	b281      	uxth	r1, r0
10003d18:	b2b2      	uxth	r2, r6
10003d1a:	4351      	muls	r1, r2
10003d1c:	1403      	asrs	r3, r0, #16
10003d1e:	435a      	muls	r2, r3
10003d20:	0c36      	lsrs	r6, r6, #16
10003d22:	4373      	muls	r3, r6
10003d24:	b287      	uxth	r7, r0
10003d26:	4377      	muls	r7, r6
10003d28:	17d6      	asrs	r6, r2, #31
10003d2a:	19d2      	adds	r2, r2, r7
10003d2c:	2700      	movs	r7, #0
10003d2e:	417e      	adcs	r6, r7
10003d30:	0436      	lsls	r6, r6, #16
10003d32:	199b      	adds	r3, r3, r6
10003d34:	0417      	lsls	r7, r2, #16
10003d36:	0c16      	lsrs	r6, r2, #16
10003d38:	187f      	adds	r7, r7, r1
10003d3a:	415e      	adcs	r6, r3
10003d3c:	1673      	asrs	r3, r6, #25
10003d3e:	18ed      	adds	r5, r5, r3
10003d40:	01f3      	lsls	r3, r6, #7
10003d42:	2600      	movs	r6, #0
10003d44:	3380      	adds	r3, #128	; 0x80
10003d46:	4175      	adcs	r5, r6
10003d48:	0fa9      	lsrs	r1, r5, #30
10003d4a:	d106      	bne.n	10003d5a <dd_0>
10003d4c:	0064      	lsls	r4, r4, #1
10003d4e:	0a69      	lsrs	r1, r5, #9
10003d50:	05e8      	lsls	r0, r5, #23
10003d52:	0a5b      	lsrs	r3, r3, #9
10003d54:	4318      	orrs	r0, r3
10003d56:	d209      	bcs.n	10003d6c <dd_1>
10003d58:	e02f      	b.n	10003dba <dd_2>

10003d5a <dd_0>:
10003d5a:	2204      	movs	r2, #4
10003d5c:	4494      	add	ip, r2
10003d5e:	3380      	adds	r3, #128	; 0x80
10003d60:	4175      	adcs	r5, r6
10003d62:	0aa9      	lsrs	r1, r5, #10
10003d64:	05a8      	lsls	r0, r5, #22
10003d66:	0a9b      	lsrs	r3, r3, #10
10003d68:	4318      	orrs	r0, r3
10003d6a:	d326      	bcc.n	10003dba <dd_2>

10003d6c <dd_1>:
10003d6c:	4140      	adcs	r0, r0
10003d6e:	4149      	adcs	r1, r1
10003d70:	0424      	lsls	r4, r4, #16
10003d72:	9a00      	ldr	r2, [sp, #0]
10003d74:	9b01      	ldr	r3, [sp, #4]
10003d76:	000d      	movs	r5, r1
10003d78:	4355      	muls	r5, r2
10003d7a:	1b64      	subs	r4, r4, r5
10003d7c:	4343      	muls	r3, r0
10003d7e:	1ae4      	subs	r4, r4, r3
10003d80:	b295      	uxth	r5, r2
10003d82:	b286      	uxth	r6, r0
10003d84:	4375      	muls	r5, r6
10003d86:	0c17      	lsrs	r7, r2, #16
10003d88:	437e      	muls	r6, r7
10003d8a:	0c03      	lsrs	r3, r0, #16
10003d8c:	435f      	muls	r7, r3
10003d8e:	b292      	uxth	r2, r2
10003d90:	435a      	muls	r2, r3
10003d92:	18b6      	adds	r6, r6, r2
10003d94:	d302      	bcc.n	10003d9c <l23_1>
10003d96:	2201      	movs	r2, #1
10003d98:	0412      	lsls	r2, r2, #16
10003d9a:	18bf      	adds	r7, r7, r2

10003d9c <l23_1>:
10003d9c:	0432      	lsls	r2, r6, #16
10003d9e:	0c33      	lsrs	r3, r6, #16
10003da0:	1952      	adds	r2, r2, r5
10003da2:	417b      	adcs	r3, r7
10003da4:	4252      	negs	r2, r2
10003da6:	419c      	sbcs	r4, r3
10003da8:	2c00      	cmp	r4, #0
10003daa:	d402      	bmi.n	10003db2 <l23_1+0x16>
10003dac:	2200      	movs	r2, #0
10003dae:	3001      	adds	r0, #1
10003db0:	4151      	adcs	r1, r2
10003db2:	0840      	lsrs	r0, r0, #1
10003db4:	07ca      	lsls	r2, r1, #31
10003db6:	4310      	orrs	r0, r2
10003db8:	0849      	lsrs	r1, r1, #1

10003dba <dd_2>:
10003dba:	b002      	add	sp, #8
10003dbc:	4662      	mov	r2, ip
10003dbe:	07d7      	lsls	r7, r2, #31
10003dc0:	1092      	asrs	r2, r2, #2
10003dc2:	4b08      	ldr	r3, [pc, #32]	; (10003de4 <dd_4+0x6>)
10003dc4:	18d2      	adds	r2, r2, r3
10003dc6:	4b08      	ldr	r3, [pc, #32]	; (10003de8 <dd_4+0xa>)
10003dc8:	429a      	cmp	r2, r3
10003dca:	d203      	bcs.n	10003dd4 <dd_3>
10003dcc:	0512      	lsls	r2, r2, #20
10003dce:	1889      	adds	r1, r1, r2

10003dd0 <dd_5>:
10003dd0:	19c9      	adds	r1, r1, r7
10003dd2:	bdf0      	pop	{r4, r5, r6, r7, pc}

10003dd4 <dd_3>:
10003dd4:	2000      	movs	r0, #0
10003dd6:	2a00      	cmp	r2, #0
10003dd8:	dc01      	bgt.n	10003dde <dd_4>
10003dda:	0039      	movs	r1, r7
10003ddc:	bdf0      	pop	{r4, r5, r6, r7, pc}

10003dde <dd_4>:
10003dde:	3301      	adds	r3, #1
10003de0:	0519      	lsls	r1, r3, #20
10003de2:	e7f5      	b.n	10003dd0 <dd_5>
10003de4:	000003fd 	.word	0x000003fd
10003de8:	000007fe 	.word	0x000007fe

10003dec <dcordic_rot_step>:
10003dec:	4662      	mov	r2, ip
10003dee:	ca18      	ldmia	r2!, {r3, r4}
10003df0:	4694      	mov	ip, r2
10003df2:	2900      	cmp	r1, #0
10003df4:	da1a      	bge.n	10003e2c <dcordic_rot_step+0x40>
10003df6:	18c0      	adds	r0, r0, r3
10003df8:	4161      	adcs	r1, r4
10003dfa:	465b      	mov	r3, fp
10003dfc:	413b      	asrs	r3, r7
10003dfe:	465c      	mov	r4, fp
10003e00:	40b4      	lsls	r4, r6
10003e02:	4652      	mov	r2, sl
10003e04:	40fa      	lsrs	r2, r7
10003e06:	4322      	orrs	r2, r4
10003e08:	4644      	mov	r4, r8
10003e0a:	464d      	mov	r5, r9
10003e0c:	4162      	adcs	r2, r4
10003e0e:	416b      	adcs	r3, r5
10003e10:	4690      	mov	r8, r2
10003e12:	4699      	mov	r9, r3
10003e14:	462b      	mov	r3, r5
10003e16:	40b3      	lsls	r3, r6
10003e18:	413d      	asrs	r5, r7
10003e1a:	40fc      	lsrs	r4, r7
10003e1c:	431c      	orrs	r4, r3
10003e1e:	4652      	mov	r2, sl
10003e20:	465b      	mov	r3, fp
10003e22:	41a2      	sbcs	r2, r4
10003e24:	41ab      	sbcs	r3, r5
10003e26:	4692      	mov	sl, r2
10003e28:	469b      	mov	fp, r3
10003e2a:	4770      	bx	lr
10003e2c:	1ac0      	subs	r0, r0, r3
10003e2e:	41a1      	sbcs	r1, r4
10003e30:	464b      	mov	r3, r9
10003e32:	413b      	asrs	r3, r7
10003e34:	464c      	mov	r4, r9
10003e36:	40b4      	lsls	r4, r6
10003e38:	4642      	mov	r2, r8
10003e3a:	40fa      	lsrs	r2, r7
10003e3c:	4322      	orrs	r2, r4
10003e3e:	4654      	mov	r4, sl
10003e40:	465d      	mov	r5, fp
10003e42:	4162      	adcs	r2, r4
10003e44:	416b      	adcs	r3, r5
10003e46:	4692      	mov	sl, r2
10003e48:	469b      	mov	fp, r3
10003e4a:	462b      	mov	r3, r5
10003e4c:	40b3      	lsls	r3, r6
10003e4e:	413d      	asrs	r5, r7
10003e50:	40fc      	lsrs	r4, r7
10003e52:	431c      	orrs	r4, r3
10003e54:	4642      	mov	r2, r8
10003e56:	464b      	mov	r3, r9
10003e58:	41a2      	sbcs	r2, r4
10003e5a:	41ab      	sbcs	r3, r5
10003e5c:	4690      	mov	r8, r2
10003e5e:	4699      	mov	r9, r3
10003e60:	4770      	bx	lr

10003e62 <ret_dzero>:
10003e62:	2000      	movs	r0, #0
10003e64:	2100      	movs	r1, #0
10003e66:	4770      	bx	lr

10003e68 <double2uint_shim>:
10003e68:	2200      	movs	r2, #0

10003e6a <double2ufix_shim>:
10003e6a:	b500      	push	{lr}
10003e6c:	3220      	adds	r2, #32
10003e6e:	f000 f804 	bl	10003e7a <double2ufix64_shim>
10003e72:	0008      	movs	r0, r1
10003e74:	bd00      	pop	{pc}
	...

10003e78 <double2uint64_shim>:
10003e78:	2200      	movs	r2, #0

10003e7a <double2ufix64_shim>:
10003e7a:	150b      	asrs	r3, r1, #20
10003e7c:	d4f1      	bmi.n	10003e62 <ret_dzero>

10003e7e <d2fix>:
10003e7e:	b510      	push	{r4, lr}
10003e80:	4694      	mov	ip, r2
10003e82:	f000 f82f 	bl	10003ee4 <dunpacks>
10003e86:	1414      	asrs	r4, r2, #16
10003e88:	3401      	adds	r4, #1
10003e8a:	da00      	bge.n	10003e8e <d2fix+0x10>
10003e8c:	2100      	movs	r1, #0
10003e8e:	17cb      	asrs	r3, r1, #31
10003e90:	4c13      	ldr	r4, [pc, #76]	; (10003ee0 <d2fix_a+0x4c>)
10003e92:	4720      	bx	r4

10003e94 <d2fix_a>:
10003e94:	4462      	add	r2, ip
10003e96:	3a34      	subs	r2, #52	; 0x34
10003e98:	d40c      	bmi.n	10003eb4 <d2fix_a+0x20>
10003e9a:	2a0c      	cmp	r2, #12
10003e9c:	da07      	bge.n	10003eae <d2fix_a+0x1a>
10003e9e:	0004      	movs	r4, r0
10003ea0:	4091      	lsls	r1, r2
10003ea2:	4090      	lsls	r0, r2
10003ea4:	4252      	negs	r2, r2
10003ea6:	3220      	adds	r2, #32
10003ea8:	40d4      	lsrs	r4, r2
10003eaa:	4321      	orrs	r1, r4
10003eac:	bd10      	pop	{r4, pc}
10003eae:	43d8      	mvns	r0, r3
10003eb0:	43d9      	mvns	r1, r3
10003eb2:	bd10      	pop	{r4, pc}
10003eb4:	3220      	adds	r2, #32
10003eb6:	d407      	bmi.n	10003ec8 <d2fix_a+0x34>
10003eb8:	460c      	mov	r4, r1
10003eba:	4094      	lsls	r4, r2
10003ebc:	4252      	negs	r2, r2
10003ebe:	3220      	adds	r2, #32
10003ec0:	4111      	asrs	r1, r2
10003ec2:	40d0      	lsrs	r0, r2
10003ec4:	4320      	orrs	r0, r4
10003ec6:	bd10      	pop	{r4, pc}
10003ec8:	0008      	movs	r0, r1
10003eca:	17c9      	asrs	r1, r1, #31
10003ecc:	3220      	adds	r2, #32
10003ece:	d403      	bmi.n	10003ed8 <d2fix_a+0x44>
10003ed0:	4252      	negs	r2, r2
10003ed2:	3220      	adds	r2, #32
10003ed4:	4110      	asrs	r0, r2
10003ed6:	bd10      	pop	{r4, pc}
10003ed8:	0018      	movs	r0, r3
10003eda:	0019      	movs	r1, r3
10003edc:	bd10      	pop	{r4, pc}
10003ede:	0000      	.short	0x0000
10003ee0:	10003e95 	.word	0x10003e95

10003ee4 <dunpacks>:
10003ee4:	0d0a      	lsrs	r2, r1, #20
10003ee6:	0fcc      	lsrs	r4, r1, #31
10003ee8:	1e53      	subs	r3, r2, #1
10003eea:	051b      	lsls	r3, r3, #20
10003eec:	1ac9      	subs	r1, r1, r3
10003eee:	0552      	lsls	r2, r2, #21
10003ef0:	d303      	bcc.n	10003efa <l60_1>
10003ef2:	43c9      	mvns	r1, r1
10003ef4:	4240      	negs	r0, r0
10003ef6:	d300      	bcc.n	10003efa <l60_1>
10003ef8:	3101      	adds	r1, #1

10003efa <l60_1>:
10003efa:	0d52      	lsrs	r2, r2, #21
10003efc:	d003      	beq.n	10003f06 <l60_2>
10003efe:	1c53      	adds	r3, r2, #1
10003f00:	0adb      	lsrs	r3, r3, #11
10003f02:	d007      	beq.n	10003f14 <l60_3>
10003f04:	1b12      	subs	r2, r2, r4

10003f06 <l60_2>:
10003f06:	2000      	movs	r0, #0
10003f08:	0064      	lsls	r4, r4, #1
10003f0a:	1c61      	adds	r1, r4, #1
10003f0c:	0789      	lsls	r1, r1, #30
10003f0e:	1289      	asrs	r1, r1, #10
10003f10:	3a80      	subs	r2, #128	; 0x80
10003f12:	0312      	lsls	r2, r2, #12

10003f14 <l60_3>:
10003f14:	4b01      	ldr	r3, [pc, #4]	; (10003f1c <l60_3+0x8>)
10003f16:	1ad2      	subs	r2, r2, r3
10003f18:	4770      	bx	lr
10003f1a:	0000      	.short	0x0000
10003f1c:	000003ff 	.word	0x000003ff

10003f20 <__aeabi_float_init>:
10003f20:	2313      	movs	r3, #19
10003f22:	b510      	push	{r4, lr}
10003f24:	4812      	ldr	r0, [pc, #72]	; (10003f70 <__aeabi_float_init+0x50>)
10003f26:	781c      	ldrb	r4, [r3, #0]
10003f28:	f7ff f94e 	bl	100031c8 <rom_data_lookup>
10003f2c:	0001      	movs	r1, r0
10003f2e:	2c01      	cmp	r4, #1
10003f30:	d00a      	beq.n	10003f48 <__aeabi_float_init+0x28>
10003f32:	dd03      	ble.n	10003f3c <__aeabi_float_init+0x1c>
10003f34:	2280      	movs	r2, #128	; 0x80
10003f36:	480f      	ldr	r0, [pc, #60]	; (10003f74 <__aeabi_float_init+0x54>)
10003f38:	f000 f850 	bl	10003fdc <__wrap___aeabi_memcpy>
10003f3c:	480e      	ldr	r0, [pc, #56]	; (10003f78 <__aeabi_float_init+0x58>)
10003f3e:	f7ff f93b 	bl	100031b8 <rom_func_lookup>
10003f42:	4b0e      	ldr	r3, [pc, #56]	; (10003f7c <__aeabi_float_init+0x5c>)
10003f44:	6018      	str	r0, [r3, #0]
10003f46:	bd10      	pop	{r4, pc}
10003f48:	4c0a      	ldr	r4, [pc, #40]	; (10003f74 <__aeabi_float_init+0x54>)
10003f4a:	2254      	movs	r2, #84	; 0x54
10003f4c:	0020      	movs	r0, r4
10003f4e:	f000 f845 	bl	10003fdc <__wrap___aeabi_memcpy>
10003f52:	4b0b      	ldr	r3, [pc, #44]	; (10003f80 <__aeabi_float_init+0x60>)
10003f54:	6563      	str	r3, [r4, #84]	; 0x54
10003f56:	65a3      	str	r3, [r4, #88]	; 0x58
10003f58:	65e3      	str	r3, [r4, #92]	; 0x5c
10003f5a:	6623      	str	r3, [r4, #96]	; 0x60
10003f5c:	6663      	str	r3, [r4, #100]	; 0x64
10003f5e:	66a3      	str	r3, [r4, #104]	; 0x68
10003f60:	66e3      	str	r3, [r4, #108]	; 0x6c
10003f62:	6723      	str	r3, [r4, #112]	; 0x70
10003f64:	6763      	str	r3, [r4, #116]	; 0x74
10003f66:	67a3      	str	r3, [r4, #120]	; 0x78
10003f68:	67e3      	str	r3, [r4, #124]	; 0x7c
10003f6a:	6223      	str	r3, [r4, #32]
10003f6c:	61e3      	str	r3, [r4, #28]
10003f6e:	e7e5      	b.n	10003f3c <__aeabi_float_init+0x1c>
10003f70:	00004653 	.word	0x00004653
10003f74:	20000c30 	.word	0x20000c30
10003f78:	0000334c 	.word	0x0000334c
10003f7c:	20000d30 	.word	0x20000d30
10003f80:	10003f85 	.word	0x10003f85

10003f84 <float_table_shim_on_use_helper>:
10003f84:	b507      	push	{r0, r1, r2, lr}
10003f86:	4660      	mov	r0, ip
10003f88:	8801      	ldrh	r1, [r0, #0]
10003f8a:	0a0a      	lsrs	r2, r1, #8
10003f8c:	3002      	adds	r0, #2
10003f8e:	2adf      	cmp	r2, #223	; 0xdf
10003f90:	d1fa      	bne.n	10003f88 <float_table_shim_on_use_helper+0x4>
10003f92:	b2c9      	uxtb	r1, r1
10003f94:	0882      	lsrs	r2, r0, #2
10003f96:	d304      	bcc.n	10003fa2 <float_table_shim_on_use_helper+0x1e>
10003f98:	8802      	ldrh	r2, [r0, #0]
10003f9a:	8840      	ldrh	r0, [r0, #2]
10003f9c:	0400      	lsls	r0, r0, #16
10003f9e:	4310      	orrs	r0, r2
10003fa0:	e000      	b.n	10003fa4 <float_table_shim_on_use_helper+0x20>
10003fa2:	6800      	ldr	r0, [r0, #0]
10003fa4:	4a01      	ldr	r2, [pc, #4]	; (10003fac <float_table_shim_on_use_helper+0x28>)
10003fa6:	5050      	str	r0, [r2, r1]
10003fa8:	9003      	str	r0, [sp, #12]
10003faa:	bd07      	pop	{r0, r1, r2, pc}
10003fac:	20000c30 	.word	0x20000c30

10003fb0 <__wrap_malloc>:
10003fb0:	b510      	push	{r4, lr}
10003fb2:	f000 fa79 	bl	100044a8 <malloc>
10003fb6:	bd10      	pop	{r4, pc}

10003fb8 <__wrap_calloc>:
10003fb8:	b510      	push	{r4, lr}
10003fba:	f000 fa3b 	bl	10004434 <calloc>
10003fbe:	bd10      	pop	{r4, pc}

10003fc0 <__aeabi_mem_init>:
10003fc0:	4801      	ldr	r0, [pc, #4]	; (10003fc8 <__aeabi_mem_init+0x8>)
10003fc2:	2104      	movs	r1, #4
10003fc4:	4b01      	ldr	r3, [pc, #4]	; (10003fcc <__aeabi_mem_init+0xc>)
10003fc6:	4718      	bx	r3
10003fc8:	200001f0 	.word	0x200001f0
10003fcc:	100031d9 	.word	0x100031d9

10003fd0 <__wrap_memset>:
10003fd0:	4b01      	ldr	r3, [pc, #4]	; (10003fd8 <__wrap_memset+0x8>)
10003fd2:	681b      	ldr	r3, [r3, #0]
10003fd4:	4718      	bx	r3
10003fd6:	0000      	.short	0x0000
10003fd8:	200001f0 	.word	0x200001f0

10003fdc <__wrap___aeabi_memcpy>:
10003fdc:	4b01      	ldr	r3, [pc, #4]	; (10003fe4 <__wrap___aeabi_memcpy+0x8>)
10003fde:	685b      	ldr	r3, [r3, #4]
10003fe0:	4718      	bx	r3
10003fe2:	0000      	.short	0x0000
10003fe4:	200001f0 	.word	0x200001f0

10003fe8 <stdio_out_chars_crlf.part.0>:
10003fe8:	b5f8      	push	{r3, r4, r5, r6, r7, lr}
10003fea:	4647      	mov	r7, r8
10003fec:	46ce      	mov	lr, r9
10003fee:	000d      	movs	r5, r1
10003ff0:	b580      	push	{r7, lr}
10003ff2:	0016      	movs	r6, r2
10003ff4:	0007      	movs	r7, r0
10003ff6:	2a00      	cmp	r2, #0
10003ff8:	dd20      	ble.n	1000403c <stdio_out_chars_crlf.part.0+0x54>
10003ffa:	1e4b      	subs	r3, r1, #1
10003ffc:	4698      	mov	r8, r3
10003ffe:	4b1a      	ldr	r3, [pc, #104]	; (10004068 <stdio_out_chars_crlf.part.0+0x80>)
10004000:	2400      	movs	r4, #0
10004002:	2000      	movs	r0, #0
10004004:	4699      	mov	r9, r3
10004006:	2c00      	cmp	r4, #0
10004008:	d02b      	beq.n	10004062 <stdio_out_chars_crlf.part.0+0x7a>
1000400a:	4643      	mov	r3, r8
1000400c:	5d1b      	ldrb	r3, [r3, r4]
1000400e:	3b0d      	subs	r3, #13
10004010:	425a      	negs	r2, r3
10004012:	4153      	adcs	r3, r2
10004014:	b2db      	uxtb	r3, r3
10004016:	5d2a      	ldrb	r2, [r5, r4]
10004018:	2a0a      	cmp	r2, #10
1000401a:	d013      	beq.n	10004044 <stdio_out_chars_crlf.part.0+0x5c>
1000401c:	3401      	adds	r4, #1
1000401e:	42a6      	cmp	r6, r4
10004020:	dcf1      	bgt.n	10004006 <stdio_out_chars_crlf.part.0+0x1e>
10004022:	4286      	cmp	r6, r0
10004024:	dd03      	ble.n	1000402e <stdio_out_chars_crlf.part.0+0x46>
10004026:	1a31      	subs	r1, r6, r0
10004028:	683b      	ldr	r3, [r7, #0]
1000402a:	1828      	adds	r0, r5, r0
1000402c:	4798      	blx	r3
1000402e:	19ad      	adds	r5, r5, r6
10004030:	3d01      	subs	r5, #1
10004032:	782b      	ldrb	r3, [r5, #0]
10004034:	3b0d      	subs	r3, #13
10004036:	425a      	negs	r2, r3
10004038:	4153      	adcs	r3, r2
1000403a:	743b      	strb	r3, [r7, #16]
1000403c:	bc0c      	pop	{r2, r3}
1000403e:	4690      	mov	r8, r2
10004040:	4699      	mov	r9, r3
10004042:	bdf8      	pop	{r3, r4, r5, r6, r7, pc}
10004044:	2b00      	cmp	r3, #0
10004046:	d1e9      	bne.n	1000401c <stdio_out_chars_crlf.part.0+0x34>
10004048:	42a0      	cmp	r0, r4
1000404a:	da03      	bge.n	10004054 <stdio_out_chars_crlf.part.0+0x6c>
1000404c:	1a21      	subs	r1, r4, r0
1000404e:	683b      	ldr	r3, [r7, #0]
10004050:	1828      	adds	r0, r5, r0
10004052:	4798      	blx	r3
10004054:	4648      	mov	r0, r9
10004056:	2102      	movs	r1, #2
10004058:	683b      	ldr	r3, [r7, #0]
1000405a:	3401      	adds	r4, #1
1000405c:	4798      	blx	r3
1000405e:	0020      	movs	r0, r4
10004060:	e7dd      	b.n	1000401e <stdio_out_chars_crlf.part.0+0x36>
10004062:	7c3b      	ldrb	r3, [r7, #16]
10004064:	e7d7      	b.n	10004016 <stdio_out_chars_crlf.part.0+0x2e>
10004066:	46c0      	nop			; (mov r8, r8)
10004068:	1000525c 	.word	0x1000525c

1000406c <stdio_buffered_printer>:
1000406c:	b5f8      	push	{r3, r4, r5, r6, r7, lr}
1000406e:	4647      	mov	r7, r8
10004070:	46ce      	mov	lr, r9
10004072:	000c      	movs	r4, r1
10004074:	6809      	ldr	r1, [r1, #0]
10004076:	b580      	push	{r7, lr}
10004078:	0007      	movs	r7, r0
1000407a:	2980      	cmp	r1, #128	; 0x80
1000407c:	d007      	beq.n	1000408e <stdio_buffered_printer+0x22>
1000407e:	1c4b      	adds	r3, r1, #1
10004080:	6023      	str	r3, [r4, #0]
10004082:	1864      	adds	r4, r4, r1
10004084:	7127      	strb	r7, [r4, #4]
10004086:	bc0c      	pop	{r2, r3}
10004088:	4690      	mov	r8, r2
1000408a:	4699      	mov	r9, r3
1000408c:	bdf8      	pop	{r3, r4, r5, r6, r7, pc}
1000408e:	4b13      	ldr	r3, [pc, #76]	; (100040dc <stdio_buffered_printer+0x70>)
10004090:	681d      	ldr	r5, [r3, #0]
10004092:	2d00      	cmp	r5, #0
10004094:	d01b      	beq.n	100040ce <stdio_buffered_printer+0x62>
10004096:	4b12      	ldr	r3, [pc, #72]	; (100040e0 <stdio_buffered_printer+0x74>)
10004098:	4698      	mov	r8, r3
1000409a:	1d23      	adds	r3, r4, #4
1000409c:	4699      	mov	r9, r3
1000409e:	e002      	b.n	100040a6 <stdio_buffered_printer+0x3a>
100040a0:	68ed      	ldr	r5, [r5, #12]
100040a2:	2d00      	cmp	r5, #0
100040a4:	d013      	beq.n	100040ce <stdio_buffered_printer+0x62>
100040a6:	682e      	ldr	r6, [r5, #0]
100040a8:	2e00      	cmp	r6, #0
100040aa:	d0f9      	beq.n	100040a0 <stdio_buffered_printer+0x34>
100040ac:	4643      	mov	r3, r8
100040ae:	681b      	ldr	r3, [r3, #0]
100040b0:	2b00      	cmp	r3, #0
100040b2:	d001      	beq.n	100040b8 <stdio_buffered_printer+0x4c>
100040b4:	429d      	cmp	r5, r3
100040b6:	d1f3      	bne.n	100040a0 <stdio_buffered_printer+0x34>
100040b8:	7c6b      	ldrb	r3, [r5, #17]
100040ba:	6822      	ldr	r2, [r4, #0]
100040bc:	2b00      	cmp	r3, #0
100040be:	d009      	beq.n	100040d4 <stdio_buffered_printer+0x68>
100040c0:	0028      	movs	r0, r5
100040c2:	4649      	mov	r1, r9
100040c4:	f7ff ff90 	bl	10003fe8 <stdio_out_chars_crlf.part.0>
100040c8:	68ed      	ldr	r5, [r5, #12]
100040ca:	2d00      	cmp	r5, #0
100040cc:	d1eb      	bne.n	100040a6 <stdio_buffered_printer+0x3a>
100040ce:	2301      	movs	r3, #1
100040d0:	2100      	movs	r1, #0
100040d2:	e7d5      	b.n	10004080 <stdio_buffered_printer+0x14>
100040d4:	0011      	movs	r1, r2
100040d6:	4648      	mov	r0, r9
100040d8:	47b0      	blx	r6
100040da:	e7e1      	b.n	100040a0 <stdio_buffered_printer+0x34>
100040dc:	20000af8 	.word	0x20000af8
100040e0:	20000afc 	.word	0x20000afc

100040e4 <stdio_put_string>:
100040e4:	b5f0      	push	{r4, r5, r6, r7, lr}
100040e6:	4657      	mov	r7, sl
100040e8:	4645      	mov	r5, r8
100040ea:	46de      	mov	lr, fp
100040ec:	464e      	mov	r6, r9
100040ee:	23d0      	movs	r3, #208	; 0xd0
100040f0:	b5e0      	push	{r5, r6, r7, lr}
100040f2:	061b      	lsls	r3, r3, #24
100040f4:	681c      	ldr	r4, [r3, #0]
100040f6:	4b37      	ldr	r3, [pc, #220]	; (100041d4 <stdio_put_string+0xf0>)
100040f8:	b083      	sub	sp, #12
100040fa:	0007      	movs	r7, r0
100040fc:	000d      	movs	r5, r1
100040fe:	0018      	movs	r0, r3
10004100:	a901      	add	r1, sp, #4
10004102:	4690      	mov	r8, r2
10004104:	469a      	mov	sl, r3
10004106:	f000 fe37 	bl	10004d78 <__mutex_try_enter_veneer>
1000410a:	4681      	mov	r9, r0
1000410c:	2800      	cmp	r0, #0
1000410e:	d107      	bne.n	10004120 <stdio_put_string+0x3c>
10004110:	9b01      	ldr	r3, [sp, #4]
10004112:	429c      	cmp	r4, r3
10004114:	d004      	beq.n	10004120 <stdio_put_string+0x3c>
10004116:	4650      	mov	r0, sl
10004118:	f000 fe36 	bl	10004d88 <__mutex_enter_blocking_veneer>
1000411c:	2301      	movs	r3, #1
1000411e:	4699      	mov	r9, r3
10004120:	1c6b      	adds	r3, r5, #1
10004122:	d103      	bne.n	1000412c <stdio_put_string+0x48>
10004124:	0038      	movs	r0, r7
10004126:	f000 fcab 	bl	10004a80 <strlen>
1000412a:	0005      	movs	r5, r0
1000412c:	4b2a      	ldr	r3, [pc, #168]	; (100041d8 <stdio_put_string+0xf4>)
1000412e:	681c      	ldr	r4, [r3, #0]
10004130:	2c00      	cmp	r4, #0
10004132:	d02f      	beq.n	10004194 <stdio_put_string+0xb0>
10004134:	230a      	movs	r3, #10
10004136:	4e29      	ldr	r6, [pc, #164]	; (100041dc <stdio_put_string+0xf8>)
10004138:	469b      	mov	fp, r3
1000413a:	e002      	b.n	10004142 <stdio_put_string+0x5e>
1000413c:	68e4      	ldr	r4, [r4, #12]
1000413e:	2c00      	cmp	r4, #0
10004140:	d028      	beq.n	10004194 <stdio_put_string+0xb0>
10004142:	6822      	ldr	r2, [r4, #0]
10004144:	2a00      	cmp	r2, #0
10004146:	d0f9      	beq.n	1000413c <stdio_put_string+0x58>
10004148:	6833      	ldr	r3, [r6, #0]
1000414a:	2b00      	cmp	r3, #0
1000414c:	d001      	beq.n	10004152 <stdio_put_string+0x6e>
1000414e:	42a3      	cmp	r3, r4
10004150:	d1f4      	bne.n	1000413c <stdio_put_string+0x58>
10004152:	7c63      	ldrb	r3, [r4, #17]
10004154:	2b00      	cmp	r3, #0
10004156:	d02a      	beq.n	100041ae <stdio_put_string+0xca>
10004158:	002a      	movs	r2, r5
1000415a:	0039      	movs	r1, r7
1000415c:	0020      	movs	r0, r4
1000415e:	f7ff ff43 	bl	10003fe8 <stdio_out_chars_crlf.part.0>
10004162:	4643      	mov	r3, r8
10004164:	2b00      	cmp	r3, #0
10004166:	d0e9      	beq.n	1000413c <stdio_put_string+0x58>
10004168:	466b      	mov	r3, sp
1000416a:	465a      	mov	r2, fp
1000416c:	711a      	strb	r2, [r3, #4]
1000416e:	7c63      	ldrb	r3, [r4, #17]
10004170:	2b00      	cmp	r3, #0
10004172:	d020      	beq.n	100041b6 <stdio_put_string+0xd2>
10004174:	7c23      	ldrb	r3, [r4, #16]
10004176:	2b00      	cmp	r3, #0
10004178:	d026      	beq.n	100041c8 <stdio_put_string+0xe4>
1000417a:	2101      	movs	r1, #1
1000417c:	6823      	ldr	r3, [r4, #0]
1000417e:	a801      	add	r0, sp, #4
10004180:	4798      	blx	r3
10004182:	466b      	mov	r3, sp
10004184:	791b      	ldrb	r3, [r3, #4]
10004186:	3b0d      	subs	r3, #13
10004188:	425a      	negs	r2, r3
1000418a:	4153      	adcs	r3, r2
1000418c:	7423      	strb	r3, [r4, #16]
1000418e:	68e4      	ldr	r4, [r4, #12]
10004190:	2c00      	cmp	r4, #0
10004192:	d1d6      	bne.n	10004142 <stdio_put_string+0x5e>
10004194:	464b      	mov	r3, r9
10004196:	2b00      	cmp	r3, #0
10004198:	d112      	bne.n	100041c0 <stdio_put_string+0xdc>
1000419a:	1e68      	subs	r0, r5, #1
1000419c:	4185      	sbcs	r5, r0
1000419e:	b2e8      	uxtb	r0, r5
100041a0:	b003      	add	sp, #12
100041a2:	bc3c      	pop	{r2, r3, r4, r5}
100041a4:	4690      	mov	r8, r2
100041a6:	4699      	mov	r9, r3
100041a8:	46a2      	mov	sl, r4
100041aa:	46ab      	mov	fp, r5
100041ac:	bdf0      	pop	{r4, r5, r6, r7, pc}
100041ae:	0029      	movs	r1, r5
100041b0:	0038      	movs	r0, r7
100041b2:	4790      	blx	r2
100041b4:	e7d5      	b.n	10004162 <stdio_put_string+0x7e>
100041b6:	2101      	movs	r1, #1
100041b8:	6823      	ldr	r3, [r4, #0]
100041ba:	a801      	add	r0, sp, #4
100041bc:	4798      	blx	r3
100041be:	e7bd      	b.n	1000413c <stdio_put_string+0x58>
100041c0:	4650      	mov	r0, sl
100041c2:	f000 fdc1 	bl	10004d48 <__mutex_exit_veneer>
100041c6:	e7e8      	b.n	1000419a <stdio_put_string+0xb6>
100041c8:	2102      	movs	r1, #2
100041ca:	4805      	ldr	r0, [pc, #20]	; (100041e0 <stdio_put_string+0xfc>)
100041cc:	6823      	ldr	r3, [r4, #0]
100041ce:	4798      	blx	r3
100041d0:	e7d7      	b.n	10004182 <stdio_put_string+0x9e>
100041d2:	46c0      	nop			; (mov r8, r8)
100041d4:	20000a50 	.word	0x20000a50
100041d8:	20000af8 	.word	0x20000af8
100041dc:	20000afc 	.word	0x20000afc
100041e0:	1000525c 	.word	0x1000525c

100041e4 <__wrap_putchar>:
100041e4:	b510      	push	{r4, lr}
100041e6:	b082      	sub	sp, #8
100041e8:	466b      	mov	r3, sp
100041ea:	0004      	movs	r4, r0
100041ec:	2200      	movs	r2, #0
100041ee:	1dd8      	adds	r0, r3, #7
100041f0:	2101      	movs	r1, #1
100041f2:	7004      	strb	r4, [r0, #0]
100041f4:	f7ff ff76 	bl	100040e4 <stdio_put_string>
100041f8:	0020      	movs	r0, r4
100041fa:	b002      	add	sp, #8
100041fc:	bd10      	pop	{r4, pc}
100041fe:	46c0      	nop			; (mov r8, r8)

10004200 <__wrap_puts>:
10004200:	b570      	push	{r4, r5, r6, lr}
10004202:	0004      	movs	r4, r0
10004204:	f000 fc3c 	bl	10004a80 <strlen>
10004208:	2201      	movs	r2, #1
1000420a:	0001      	movs	r1, r0
1000420c:	0005      	movs	r5, r0
1000420e:	0020      	movs	r0, r4
10004210:	f7ff ff68 	bl	100040e4 <stdio_put_string>
10004214:	4b08      	ldr	r3, [pc, #32]	; (10004238 <__wrap_puts+0x38>)
10004216:	681c      	ldr	r4, [r3, #0]
10004218:	2c00      	cmp	r4, #0
1000421a:	d006      	beq.n	1000422a <__wrap_puts+0x2a>
1000421c:	6863      	ldr	r3, [r4, #4]
1000421e:	2b00      	cmp	r3, #0
10004220:	d005      	beq.n	1000422e <__wrap_puts+0x2e>
10004222:	4798      	blx	r3
10004224:	68e4      	ldr	r4, [r4, #12]
10004226:	2c00      	cmp	r4, #0
10004228:	d1f8      	bne.n	1000421c <__wrap_puts+0x1c>
1000422a:	0028      	movs	r0, r5
1000422c:	bd70      	pop	{r4, r5, r6, pc}
1000422e:	68e4      	ldr	r4, [r4, #12]
10004230:	2c00      	cmp	r4, #0
10004232:	d1f3      	bne.n	1000421c <__wrap_puts+0x1c>
10004234:	e7f9      	b.n	1000422a <__wrap_puts+0x2a>
10004236:	46c0      	nop			; (mov r8, r8)
10004238:	20000af8 	.word	0x20000af8

1000423c <stdio_set_driver_enabled>:
1000423c:	4a0d      	ldr	r2, [pc, #52]	; (10004274 <stdio_set_driver_enabled+0x38>)
1000423e:	6813      	ldr	r3, [r2, #0]
10004240:	2b00      	cmp	r3, #0
10004242:	d013      	beq.n	1000426c <stdio_set_driver_enabled+0x30>
10004244:	4283      	cmp	r3, r0
10004246:	d102      	bne.n	1000424e <stdio_set_driver_enabled+0x12>
10004248:	e009      	b.n	1000425e <stdio_set_driver_enabled+0x22>
1000424a:	4298      	cmp	r0, r3
1000424c:	d008      	beq.n	10004260 <stdio_set_driver_enabled+0x24>
1000424e:	001a      	movs	r2, r3
10004250:	68db      	ldr	r3, [r3, #12]
10004252:	2b00      	cmp	r3, #0
10004254:	d1f9      	bne.n	1000424a <stdio_set_driver_enabled+0xe>
10004256:	2900      	cmp	r1, #0
10004258:	d000      	beq.n	1000425c <stdio_set_driver_enabled+0x20>
1000425a:	60d0      	str	r0, [r2, #12]
1000425c:	4770      	bx	lr
1000425e:	001a      	movs	r2, r3
10004260:	2900      	cmp	r1, #0
10004262:	d1fb      	bne.n	1000425c <stdio_set_driver_enabled+0x20>
10004264:	68db      	ldr	r3, [r3, #12]
10004266:	60d3      	str	r3, [r2, #12]
10004268:	60c1      	str	r1, [r0, #12]
1000426a:	e7f7      	b.n	1000425c <stdio_set_driver_enabled+0x20>
1000426c:	2900      	cmp	r1, #0
1000426e:	d0f5      	beq.n	1000425c <stdio_set_driver_enabled+0x20>
10004270:	6010      	str	r0, [r2, #0]
10004272:	e7f3      	b.n	1000425c <stdio_set_driver_enabled+0x20>
10004274:	20000af8 	.word	0x20000af8

10004278 <__wrap_vprintf>:
10004278:	b5f0      	push	{r4, r5, r6, r7, lr}
1000427a:	4646      	mov	r6, r8
1000427c:	46d6      	mov	lr, sl
1000427e:	464f      	mov	r7, r9
10004280:	23d0      	movs	r3, #208	; 0xd0
10004282:	b5c0      	push	{r6, r7, lr}
10004284:	061b      	lsls	r3, r3, #24
10004286:	681f      	ldr	r7, [r3, #0]
10004288:	4b31      	ldr	r3, [pc, #196]	; (10004350 <__wrap_vprintf+0xd8>)
1000428a:	b0a2      	sub	sp, #136	; 0x88
1000428c:	0004      	movs	r4, r0
1000428e:	000d      	movs	r5, r1
10004290:	0018      	movs	r0, r3
10004292:	a901      	add	r1, sp, #4
10004294:	4698      	mov	r8, r3
10004296:	f000 fd6f 	bl	10004d78 <__mutex_try_enter_veneer>
1000429a:	1e06      	subs	r6, r0, #0
1000429c:	d106      	bne.n	100042ac <__wrap_vprintf+0x34>
1000429e:	9b01      	ldr	r3, [sp, #4]
100042a0:	429f      	cmp	r7, r3
100042a2:	d003      	beq.n	100042ac <__wrap_vprintf+0x34>
100042a4:	4640      	mov	r0, r8
100042a6:	f000 fd6f 	bl	10004d88 <__mutex_enter_blocking_veneer>
100042aa:	3601      	adds	r6, #1
100042ac:	2284      	movs	r2, #132	; 0x84
100042ae:	2100      	movs	r1, #0
100042b0:	a801      	add	r0, sp, #4
100042b2:	f7ff fe8d 	bl	10003fd0 <__wrap_memset>
100042b6:	002b      	movs	r3, r5
100042b8:	0022      	movs	r2, r4
100042ba:	4826      	ldr	r0, [pc, #152]	; (10004354 <__wrap_vprintf+0xdc>)
100042bc:	a901      	add	r1, sp, #4
100042be:	f7fe ff4b 	bl	10003158 <vfctprintf>
100042c2:	9b01      	ldr	r3, [sp, #4]
100042c4:	0007      	movs	r7, r0
100042c6:	2b00      	cmp	r3, #0
100042c8:	d115      	bne.n	100042f6 <__wrap_vprintf+0x7e>
100042ca:	4b23      	ldr	r3, [pc, #140]	; (10004358 <__wrap_vprintf+0xe0>)
100042cc:	681c      	ldr	r4, [r3, #0]
100042ce:	2c00      	cmp	r4, #0
100042d0:	d006      	beq.n	100042e0 <__wrap_vprintf+0x68>
100042d2:	6863      	ldr	r3, [r4, #4]
100042d4:	2b00      	cmp	r3, #0
100042d6:	d00c      	beq.n	100042f2 <__wrap_vprintf+0x7a>
100042d8:	4798      	blx	r3
100042da:	68e4      	ldr	r4, [r4, #12]
100042dc:	2c00      	cmp	r4, #0
100042de:	d1f8      	bne.n	100042d2 <__wrap_vprintf+0x5a>
100042e0:	2e00      	cmp	r6, #0
100042e2:	d12f      	bne.n	10004344 <__wrap_vprintf+0xcc>
100042e4:	0038      	movs	r0, r7
100042e6:	b022      	add	sp, #136	; 0x88
100042e8:	bc1c      	pop	{r2, r3, r4}
100042ea:	4690      	mov	r8, r2
100042ec:	4699      	mov	r9, r3
100042ee:	46a2      	mov	sl, r4
100042f0:	bdf0      	pop	{r4, r5, r6, r7, pc}
100042f2:	68e4      	ldr	r4, [r4, #12]
100042f4:	e7eb      	b.n	100042ce <__wrap_vprintf+0x56>
100042f6:	4b18      	ldr	r3, [pc, #96]	; (10004358 <__wrap_vprintf+0xe0>)
100042f8:	681d      	ldr	r5, [r3, #0]
100042fa:	469a      	mov	sl, r3
100042fc:	2d00      	cmp	r5, #0
100042fe:	d025      	beq.n	1000434c <__wrap_vprintf+0xd4>
10004300:	4b16      	ldr	r3, [pc, #88]	; (1000435c <__wrap_vprintf+0xe4>)
10004302:	4699      	mov	r9, r3
10004304:	e002      	b.n	1000430c <__wrap_vprintf+0x94>
10004306:	68ed      	ldr	r5, [r5, #12]
10004308:	2d00      	cmp	r5, #0
1000430a:	d013      	beq.n	10004334 <__wrap_vprintf+0xbc>
1000430c:	682c      	ldr	r4, [r5, #0]
1000430e:	2c00      	cmp	r4, #0
10004310:	d0f9      	beq.n	10004306 <__wrap_vprintf+0x8e>
10004312:	464b      	mov	r3, r9
10004314:	681b      	ldr	r3, [r3, #0]
10004316:	2b00      	cmp	r3, #0
10004318:	d001      	beq.n	1000431e <__wrap_vprintf+0xa6>
1000431a:	429d      	cmp	r5, r3
1000431c:	d1f3      	bne.n	10004306 <__wrap_vprintf+0x8e>
1000431e:	7c6b      	ldrb	r3, [r5, #17]
10004320:	9a01      	ldr	r2, [sp, #4]
10004322:	2b00      	cmp	r3, #0
10004324:	d00a      	beq.n	1000433c <__wrap_vprintf+0xc4>
10004326:	0028      	movs	r0, r5
10004328:	a902      	add	r1, sp, #8
1000432a:	f7ff fe5d 	bl	10003fe8 <stdio_out_chars_crlf.part.0>
1000432e:	68ed      	ldr	r5, [r5, #12]
10004330:	2d00      	cmp	r5, #0
10004332:	d1eb      	bne.n	1000430c <__wrap_vprintf+0x94>
10004334:	4653      	mov	r3, sl
10004336:	9501      	str	r5, [sp, #4]
10004338:	681c      	ldr	r4, [r3, #0]
1000433a:	e7c8      	b.n	100042ce <__wrap_vprintf+0x56>
1000433c:	0011      	movs	r1, r2
1000433e:	a802      	add	r0, sp, #8
10004340:	47a0      	blx	r4
10004342:	e7e0      	b.n	10004306 <__wrap_vprintf+0x8e>
10004344:	4640      	mov	r0, r8
10004346:	f000 fcff 	bl	10004d48 <__mutex_exit_veneer>
1000434a:	e7cb      	b.n	100042e4 <__wrap_vprintf+0x6c>
1000434c:	9501      	str	r5, [sp, #4]
1000434e:	e7c7      	b.n	100042e0 <__wrap_vprintf+0x68>
10004350:	20000a50 	.word	0x20000a50
10004354:	1000406d 	.word	0x1000406d
10004358:	20000af8 	.word	0x20000af8
1000435c:	20000afc 	.word	0x20000afc

10004360 <__wrap_printf>:
10004360:	b40f      	push	{r0, r1, r2, r3}
10004362:	b500      	push	{lr}
10004364:	b083      	sub	sp, #12
10004366:	a904      	add	r1, sp, #16
10004368:	c901      	ldmia	r1!, {r0}
1000436a:	9101      	str	r1, [sp, #4]
1000436c:	f7ff ff84 	bl	10004278 <__wrap_vprintf>
10004370:	b003      	add	sp, #12
10004372:	bc08      	pop	{r3}
10004374:	b004      	add	sp, #16
10004376:	4718      	bx	r3

10004378 <stdio_init_all>:
10004378:	b510      	push	{r4, lr}
1000437a:	f000 f83b 	bl	100043f4 <stdio_uart_init>
1000437e:	bd10      	pop	{r4, pc}

10004380 <stdio_uart_out_chars>:
10004380:	b5f0      	push	{r4, r5, r6, r7, lr}
10004382:	2900      	cmp	r1, #0
10004384:	d010      	beq.n	100043a8 <stdio_uart_out_chars+0x28>
10004386:	1845      	adds	r5, r0, r1
10004388:	270d      	movs	r7, #13
1000438a:	2120      	movs	r1, #32
1000438c:	4b09      	ldr	r3, [pc, #36]	; (100043b4 <stdio_uart_out_chars+0x34>)
1000438e:	4a0a      	ldr	r2, [pc, #40]	; (100043b8 <stdio_uart_out_chars+0x38>)
10004390:	2600      	movs	r6, #0
10004392:	5f9e      	ldrsh	r6, [r3, r6]
10004394:	7804      	ldrb	r4, [r0, #0]
10004396:	42a6      	cmp	r6, r4
10004398:	d007      	beq.n	100043aa <stdio_uart_out_chars+0x2a>
1000439a:	6993      	ldr	r3, [r2, #24]
1000439c:	4219      	tst	r1, r3
1000439e:	d1fc      	bne.n	1000439a <stdio_uart_out_chars+0x1a>
100043a0:	3001      	adds	r0, #1
100043a2:	6014      	str	r4, [r2, #0]
100043a4:	42a8      	cmp	r0, r5
100043a6:	d1f5      	bne.n	10004394 <stdio_uart_out_chars+0x14>
100043a8:	bdf0      	pop	{r4, r5, r6, r7, pc}
100043aa:	6993      	ldr	r3, [r2, #24]
100043ac:	4219      	tst	r1, r3
100043ae:	d1fc      	bne.n	100043aa <stdio_uart_out_chars+0x2a>
100043b0:	6017      	str	r7, [r2, #0]
100043b2:	e7f2      	b.n	1000439a <stdio_uart_out_chars+0x1a>
100043b4:	20000b2c 	.word	0x20000b2c
100043b8:	40034000 	.word	0x40034000

100043bc <stdio_uart_in_chars>:
100043bc:	b530      	push	{r4, r5, lr}
100043be:	0005      	movs	r5, r0
100043c0:	2000      	movs	r0, #0
100043c2:	2900      	cmp	r1, #0
100043c4:	dd10      	ble.n	100043e8 <stdio_uart_in_chars+0x2c>
100043c6:	2410      	movs	r4, #16
100043c8:	4a09      	ldr	r2, [pc, #36]	; (100043f0 <stdio_uart_in_chars+0x34>)
100043ca:	3d01      	subs	r5, #1
100043cc:	6993      	ldr	r3, [r2, #24]
100043ce:	421c      	tst	r4, r3
100043d0:	d108      	bne.n	100043e4 <stdio_uart_in_chars+0x28>
100043d2:	3001      	adds	r0, #1
100043d4:	6993      	ldr	r3, [r2, #24]
100043d6:	421c      	tst	r4, r3
100043d8:	d1fc      	bne.n	100043d4 <stdio_uart_in_chars+0x18>
100043da:	6813      	ldr	r3, [r2, #0]
100043dc:	542b      	strb	r3, [r5, r0]
100043de:	4281      	cmp	r1, r0
100043e0:	d1f4      	bne.n	100043cc <stdio_uart_in_chars+0x10>
100043e2:	bd30      	pop	{r4, r5, pc}
100043e4:	2800      	cmp	r0, #0
100043e6:	d1fc      	bne.n	100043e2 <stdio_uart_in_chars+0x26>
100043e8:	2003      	movs	r0, #3
100043ea:	4240      	negs	r0, r0
100043ec:	e7f9      	b.n	100043e2 <stdio_uart_in_chars+0x26>
100043ee:	46c0      	nop			; (mov r8, r8)
100043f0:	40034000 	.word	0x40034000

100043f4 <stdio_uart_init>:
100043f4:	21e1      	movs	r1, #225	; 0xe1
100043f6:	b510      	push	{r4, lr}
100043f8:	4b0a      	ldr	r3, [pc, #40]	; (10004424 <stdio_uart_init+0x30>)
100043fa:	0249      	lsls	r1, r1, #9
100043fc:	781b      	ldrb	r3, [r3, #0]
100043fe:	4b0a      	ldr	r3, [pc, #40]	; (10004428 <stdio_uart_init+0x34>)
10004400:	480a      	ldr	r0, [pc, #40]	; (1000442c <stdio_uart_init+0x38>)
10004402:	781b      	ldrb	r3, [r3, #0]
10004404:	f7fc fa04 	bl	10000810 <uart_init>
10004408:	2102      	movs	r1, #2
1000440a:	2000      	movs	r0, #0
1000440c:	f7fc f996 	bl	1000073c <gpio_set_function>
10004410:	2102      	movs	r1, #2
10004412:	2001      	movs	r0, #1
10004414:	f7fc f992 	bl	1000073c <gpio_set_function>
10004418:	2101      	movs	r1, #1
1000441a:	4805      	ldr	r0, [pc, #20]	; (10004430 <stdio_uart_init+0x3c>)
1000441c:	f7ff ff0e 	bl	1000423c <stdio_set_driver_enabled>
10004420:	bd10      	pop	{r4, pc}
10004422:	46c0      	nop			; (mov r8, r8)
10004424:	100052bc 	.word	0x100052bc
10004428:	100052c0 	.word	0x100052c0
1000442c:	40034000 	.word	0x40034000
10004430:	20000200 	.word	0x20000200

10004434 <calloc>:
10004434:	0003      	movs	r3, r0
10004436:	b510      	push	{r4, lr}
10004438:	000a      	movs	r2, r1
1000443a:	4903      	ldr	r1, [pc, #12]	; (10004448 <calloc+0x14>)
1000443c:	6808      	ldr	r0, [r1, #0]
1000443e:	0019      	movs	r1, r3
10004440:	f000 f804 	bl	1000444c <_calloc_r>
10004444:	bd10      	pop	{r4, pc}
10004446:	46c0      	nop			; (mov r8, r8)
10004448:	20000214 	.word	0x20000214

1000444c <_calloc_r>:
1000444c:	b510      	push	{r4, lr}
1000444e:	4351      	muls	r1, r2
10004450:	f000 f834 	bl	100044bc <_malloc_r>
10004454:	1e04      	subs	r4, r0, #0
10004456:	d00e      	beq.n	10004476 <_calloc_r+0x2a>
10004458:	0003      	movs	r3, r0
1000445a:	3b08      	subs	r3, #8
1000445c:	685a      	ldr	r2, [r3, #4]
1000445e:	2303      	movs	r3, #3
10004460:	439a      	bics	r2, r3
10004462:	3a04      	subs	r2, #4
10004464:	2a24      	cmp	r2, #36	; 0x24
10004466:	d815      	bhi.n	10004494 <_calloc_r+0x48>
10004468:	0003      	movs	r3, r0
1000446a:	2a13      	cmp	r2, #19
1000446c:	d805      	bhi.n	1000447a <_calloc_r+0x2e>
1000446e:	2200      	movs	r2, #0
10004470:	601a      	str	r2, [r3, #0]
10004472:	605a      	str	r2, [r3, #4]
10004474:	609a      	str	r2, [r3, #8]
10004476:	0020      	movs	r0, r4
10004478:	bd10      	pop	{r4, pc}
1000447a:	2100      	movs	r1, #0
1000447c:	3308      	adds	r3, #8
1000447e:	6001      	str	r1, [r0, #0]
10004480:	6041      	str	r1, [r0, #4]
10004482:	2a1b      	cmp	r2, #27
10004484:	d9f3      	bls.n	1000446e <_calloc_r+0x22>
10004486:	6081      	str	r1, [r0, #8]
10004488:	60c1      	str	r1, [r0, #12]
1000448a:	2a24      	cmp	r2, #36	; 0x24
1000448c:	d006      	beq.n	1000449c <_calloc_r+0x50>
1000448e:	0003      	movs	r3, r0
10004490:	3310      	adds	r3, #16
10004492:	e7ec      	b.n	1000446e <_calloc_r+0x22>
10004494:	2100      	movs	r1, #0
10004496:	f7ff fd9b 	bl	10003fd0 <__wrap_memset>
1000449a:	e7ec      	b.n	10004476 <_calloc_r+0x2a>
1000449c:	0003      	movs	r3, r0
1000449e:	6101      	str	r1, [r0, #16]
100044a0:	3318      	adds	r3, #24
100044a2:	6141      	str	r1, [r0, #20]
100044a4:	e7e3      	b.n	1000446e <_calloc_r+0x22>
100044a6:	46c0      	nop			; (mov r8, r8)

100044a8 <malloc>:
100044a8:	b510      	push	{r4, lr}
100044aa:	4b03      	ldr	r3, [pc, #12]	; (100044b8 <malloc+0x10>)
100044ac:	0001      	movs	r1, r0
100044ae:	6818      	ldr	r0, [r3, #0]
100044b0:	f000 f804 	bl	100044bc <_malloc_r>
100044b4:	bd10      	pop	{r4, pc}
100044b6:	46c0      	nop			; (mov r8, r8)
100044b8:	20000214 	.word	0x20000214

100044bc <_malloc_r>:
100044bc:	b5f0      	push	{r4, r5, r6, r7, lr}
100044be:	464e      	mov	r6, r9
100044c0:	4645      	mov	r5, r8
100044c2:	46de      	mov	lr, fp
100044c4:	4657      	mov	r7, sl
100044c6:	b5e0      	push	{r5, r6, r7, lr}
100044c8:	000d      	movs	r5, r1
100044ca:	350b      	adds	r5, #11
100044cc:	0006      	movs	r6, r0
100044ce:	b083      	sub	sp, #12
100044d0:	2d16      	cmp	r5, #22
100044d2:	d822      	bhi.n	1000451a <_malloc_r+0x5e>
100044d4:	2910      	cmp	r1, #16
100044d6:	d900      	bls.n	100044da <_malloc_r+0x1e>
100044d8:	e0b2      	b.n	10004640 <_malloc_r+0x184>
100044da:	f000 faaf 	bl	10004a3c <__malloc_lock>
100044de:	2510      	movs	r5, #16
100044e0:	2002      	movs	r0, #2
100044e2:	2318      	movs	r3, #24
100044e4:	4fcb      	ldr	r7, [pc, #812]	; (10004814 <_malloc_r+0x358>)
100044e6:	18fb      	adds	r3, r7, r3
100044e8:	001a      	movs	r2, r3
100044ea:	685c      	ldr	r4, [r3, #4]
100044ec:	3a08      	subs	r2, #8
100044ee:	4294      	cmp	r4, r2
100044f0:	d100      	bne.n	100044f4 <_malloc_r+0x38>
100044f2:	e0b5      	b.n	10004660 <_malloc_r+0x1a4>
100044f4:	2303      	movs	r3, #3
100044f6:	6862      	ldr	r2, [r4, #4]
100044f8:	439a      	bics	r2, r3
100044fa:	0013      	movs	r3, r2
100044fc:	68e2      	ldr	r2, [r4, #12]
100044fe:	68a1      	ldr	r1, [r4, #8]
10004500:	60ca      	str	r2, [r1, #12]
10004502:	6091      	str	r1, [r2, #8]
10004504:	2201      	movs	r2, #1
10004506:	18e3      	adds	r3, r4, r3
10004508:	6859      	ldr	r1, [r3, #4]
1000450a:	0030      	movs	r0, r6
1000450c:	430a      	orrs	r2, r1
1000450e:	605a      	str	r2, [r3, #4]
10004510:	f000 fa9c 	bl	10004a4c <__malloc_unlock>
10004514:	0020      	movs	r0, r4
10004516:	3008      	adds	r0, #8
10004518:	e095      	b.n	10004646 <_malloc_r+0x18a>
1000451a:	2307      	movs	r3, #7
1000451c:	439d      	bics	r5, r3
1000451e:	d500      	bpl.n	10004522 <_malloc_r+0x66>
10004520:	e08e      	b.n	10004640 <_malloc_r+0x184>
10004522:	42a9      	cmp	r1, r5
10004524:	d900      	bls.n	10004528 <_malloc_r+0x6c>
10004526:	e08b      	b.n	10004640 <_malloc_r+0x184>
10004528:	f000 fa88 	bl	10004a3c <__malloc_lock>
1000452c:	23fc      	movs	r3, #252	; 0xfc
1000452e:	005b      	lsls	r3, r3, #1
10004530:	429d      	cmp	r5, r3
10004532:	d200      	bcs.n	10004536 <_malloc_r+0x7a>
10004534:	e1a5      	b.n	10004882 <_malloc_r+0x3c6>
10004536:	0a68      	lsrs	r0, r5, #9
10004538:	d100      	bne.n	1000453c <_malloc_r+0x80>
1000453a:	e08b      	b.n	10004654 <_malloc_r+0x198>
1000453c:	2804      	cmp	r0, #4
1000453e:	d900      	bls.n	10004542 <_malloc_r+0x86>
10004540:	e178      	b.n	10004834 <_malloc_r+0x378>
10004542:	2338      	movs	r3, #56	; 0x38
10004544:	4698      	mov	r8, r3
10004546:	09a8      	lsrs	r0, r5, #6
10004548:	4480      	add	r8, r0
1000454a:	3039      	adds	r0, #57	; 0x39
1000454c:	00c1      	lsls	r1, r0, #3
1000454e:	4fb1      	ldr	r7, [pc, #708]	; (10004814 <_malloc_r+0x358>)
10004550:	1879      	adds	r1, r7, r1
10004552:	684c      	ldr	r4, [r1, #4]
10004554:	3908      	subs	r1, #8
10004556:	42a1      	cmp	r1, r4
10004558:	d00e      	beq.n	10004578 <_malloc_r+0xbc>
1000455a:	2303      	movs	r3, #3
1000455c:	469c      	mov	ip, r3
1000455e:	e004      	b.n	1000456a <_malloc_r+0xae>
10004560:	2a00      	cmp	r2, #0
10004562:	dacb      	bge.n	100044fc <_malloc_r+0x40>
10004564:	68e4      	ldr	r4, [r4, #12]
10004566:	42a1      	cmp	r1, r4
10004568:	d006      	beq.n	10004578 <_malloc_r+0xbc>
1000456a:	4662      	mov	r2, ip
1000456c:	6863      	ldr	r3, [r4, #4]
1000456e:	4393      	bics	r3, r2
10004570:	1b5a      	subs	r2, r3, r5
10004572:	2a0f      	cmp	r2, #15
10004574:	ddf4      	ble.n	10004560 <_malloc_r+0xa4>
10004576:	4640      	mov	r0, r8
10004578:	003a      	movs	r2, r7
1000457a:	693c      	ldr	r4, [r7, #16]
1000457c:	3208      	adds	r2, #8
1000457e:	4294      	cmp	r4, r2
10004580:	d100      	bne.n	10004584 <_malloc_r+0xc8>
10004582:	e078      	b.n	10004676 <_malloc_r+0x1ba>
10004584:	2303      	movs	r3, #3
10004586:	6861      	ldr	r1, [r4, #4]
10004588:	4399      	bics	r1, r3
1000458a:	4689      	mov	r9, r1
1000458c:	000b      	movs	r3, r1
1000458e:	1b49      	subs	r1, r1, r5
10004590:	290f      	cmp	r1, #15
10004592:	dd00      	ble.n	10004596 <_malloc_r+0xda>
10004594:	e179      	b.n	1000488a <_malloc_r+0x3ce>
10004596:	617a      	str	r2, [r7, #20]
10004598:	613a      	str	r2, [r7, #16]
1000459a:	2900      	cmp	r1, #0
1000459c:	dab2      	bge.n	10004504 <_malloc_r+0x48>
1000459e:	2280      	movs	r2, #128	; 0x80
100045a0:	0092      	lsls	r2, r2, #2
100045a2:	4591      	cmp	r9, r2
100045a4:	d300      	bcc.n	100045a8 <_malloc_r+0xec>
100045a6:	e10e      	b.n	100047c6 <_malloc_r+0x30a>
100045a8:	0959      	lsrs	r1, r3, #5
100045aa:	08da      	lsrs	r2, r3, #3
100045ac:	2301      	movs	r3, #1
100045ae:	408b      	lsls	r3, r1
100045b0:	00d2      	lsls	r2, r2, #3
100045b2:	6879      	ldr	r1, [r7, #4]
100045b4:	19d2      	adds	r2, r2, r7
100045b6:	430b      	orrs	r3, r1
100045b8:	6891      	ldr	r1, [r2, #8]
100045ba:	607b      	str	r3, [r7, #4]
100045bc:	60e2      	str	r2, [r4, #12]
100045be:	60a1      	str	r1, [r4, #8]
100045c0:	6094      	str	r4, [r2, #8]
100045c2:	60cc      	str	r4, [r1, #12]
100045c4:	2101      	movs	r1, #1
100045c6:	1082      	asrs	r2, r0, #2
100045c8:	4091      	lsls	r1, r2
100045ca:	4299      	cmp	r1, r3
100045cc:	d859      	bhi.n	10004682 <_malloc_r+0x1c6>
100045ce:	420b      	tst	r3, r1
100045d0:	d105      	bne.n	100045de <_malloc_r+0x122>
100045d2:	2203      	movs	r2, #3
100045d4:	4390      	bics	r0, r2
100045d6:	0049      	lsls	r1, r1, #1
100045d8:	3004      	adds	r0, #4
100045da:	420b      	tst	r3, r1
100045dc:	d0fb      	beq.n	100045d6 <_malloc_r+0x11a>
100045de:	2303      	movs	r3, #3
100045e0:	4698      	mov	r8, r3
100045e2:	00c3      	lsls	r3, r0, #3
100045e4:	4699      	mov	r9, r3
100045e6:	44b9      	add	r9, r7
100045e8:	46cc      	mov	ip, r9
100045ea:	4682      	mov	sl, r0
100045ec:	4663      	mov	r3, ip
100045ee:	68dc      	ldr	r4, [r3, #12]
100045f0:	45a4      	cmp	ip, r4
100045f2:	d107      	bne.n	10004604 <_malloc_r+0x148>
100045f4:	e12a      	b.n	1000484c <_malloc_r+0x390>
100045f6:	2a00      	cmp	r2, #0
100045f8:	db00      	blt.n	100045fc <_malloc_r+0x140>
100045fa:	e133      	b.n	10004864 <_malloc_r+0x3a8>
100045fc:	68e4      	ldr	r4, [r4, #12]
100045fe:	45a4      	cmp	ip, r4
10004600:	d100      	bne.n	10004604 <_malloc_r+0x148>
10004602:	e123      	b.n	1000484c <_malloc_r+0x390>
10004604:	4642      	mov	r2, r8
10004606:	6863      	ldr	r3, [r4, #4]
10004608:	4393      	bics	r3, r2
1000460a:	1b5a      	subs	r2, r3, r5
1000460c:	2a0f      	cmp	r2, #15
1000460e:	ddf2      	ble.n	100045f6 <_malloc_r+0x13a>
10004610:	2001      	movs	r0, #1
10004612:	4680      	mov	r8, r0
10004614:	1961      	adds	r1, r4, r5
10004616:	4305      	orrs	r5, r0
10004618:	6065      	str	r5, [r4, #4]
1000461a:	68a0      	ldr	r0, [r4, #8]
1000461c:	68e5      	ldr	r5, [r4, #12]
1000461e:	3708      	adds	r7, #8
10004620:	60c5      	str	r5, [r0, #12]
10004622:	60a8      	str	r0, [r5, #8]
10004624:	4640      	mov	r0, r8
10004626:	4310      	orrs	r0, r2
10004628:	60f9      	str	r1, [r7, #12]
1000462a:	60b9      	str	r1, [r7, #8]
1000462c:	6048      	str	r0, [r1, #4]
1000462e:	60cf      	str	r7, [r1, #12]
10004630:	0030      	movs	r0, r6
10004632:	608f      	str	r7, [r1, #8]
10004634:	50e2      	str	r2, [r4, r3]
10004636:	f000 fa09 	bl	10004a4c <__malloc_unlock>
1000463a:	0020      	movs	r0, r4
1000463c:	3008      	adds	r0, #8
1000463e:	e002      	b.n	10004646 <_malloc_r+0x18a>
10004640:	230c      	movs	r3, #12
10004642:	2000      	movs	r0, #0
10004644:	6033      	str	r3, [r6, #0]
10004646:	b003      	add	sp, #12
10004648:	bc3c      	pop	{r2, r3, r4, r5}
1000464a:	4690      	mov	r8, r2
1000464c:	4699      	mov	r9, r3
1000464e:	46a2      	mov	sl, r4
10004650:	46ab      	mov	fp, r5
10004652:	bdf0      	pop	{r4, r5, r6, r7, pc}
10004654:	2180      	movs	r1, #128	; 0x80
10004656:	233f      	movs	r3, #63	; 0x3f
10004658:	2040      	movs	r0, #64	; 0x40
1000465a:	4698      	mov	r8, r3
1000465c:	0089      	lsls	r1, r1, #2
1000465e:	e776      	b.n	1000454e <_malloc_r+0x92>
10004660:	68dc      	ldr	r4, [r3, #12]
10004662:	3002      	adds	r0, #2
10004664:	42a3      	cmp	r3, r4
10004666:	d000      	beq.n	1000466a <_malloc_r+0x1ae>
10004668:	e744      	b.n	100044f4 <_malloc_r+0x38>
1000466a:	003a      	movs	r2, r7
1000466c:	693c      	ldr	r4, [r7, #16]
1000466e:	3208      	adds	r2, #8
10004670:	4294      	cmp	r4, r2
10004672:	d000      	beq.n	10004676 <_malloc_r+0x1ba>
10004674:	e786      	b.n	10004584 <_malloc_r+0xc8>
10004676:	2101      	movs	r1, #1
10004678:	687b      	ldr	r3, [r7, #4]
1000467a:	1082      	asrs	r2, r0, #2
1000467c:	4091      	lsls	r1, r2
1000467e:	4299      	cmp	r1, r3
10004680:	d9a5      	bls.n	100045ce <_malloc_r+0x112>
10004682:	2303      	movs	r3, #3
10004684:	68bc      	ldr	r4, [r7, #8]
10004686:	6862      	ldr	r2, [r4, #4]
10004688:	439a      	bics	r2, r3
1000468a:	4691      	mov	r9, r2
1000468c:	4295      	cmp	r5, r2
1000468e:	d803      	bhi.n	10004698 <_malloc_r+0x1dc>
10004690:	1b53      	subs	r3, r2, r5
10004692:	2b0f      	cmp	r3, #15
10004694:	dd00      	ble.n	10004698 <_malloc_r+0x1dc>
10004696:	e088      	b.n	100047aa <_malloc_r+0x2ee>
10004698:	0023      	movs	r3, r4
1000469a:	444b      	add	r3, r9
1000469c:	4a5e      	ldr	r2, [pc, #376]	; (10004818 <_malloc_r+0x35c>)
1000469e:	9301      	str	r3, [sp, #4]
100046a0:	4b5e      	ldr	r3, [pc, #376]	; (1000481c <_malloc_r+0x360>)
100046a2:	4693      	mov	fp, r2
100046a4:	681b      	ldr	r3, [r3, #0]
100046a6:	6812      	ldr	r2, [r2, #0]
100046a8:	18eb      	adds	r3, r5, r3
100046aa:	3201      	adds	r2, #1
100046ac:	d100      	bne.n	100046b0 <_malloc_r+0x1f4>
100046ae:	e13b      	b.n	10004928 <_malloc_r+0x46c>
100046b0:	4a5b      	ldr	r2, [pc, #364]	; (10004820 <_malloc_r+0x364>)
100046b2:	4694      	mov	ip, r2
100046b4:	4463      	add	r3, ip
100046b6:	0b1b      	lsrs	r3, r3, #12
100046b8:	031b      	lsls	r3, r3, #12
100046ba:	9300      	str	r3, [sp, #0]
100046bc:	0030      	movs	r0, r6
100046be:	9900      	ldr	r1, [sp, #0]
100046c0:	f000 f9cc 	bl	10004a5c <_sbrk_r>
100046c4:	0003      	movs	r3, r0
100046c6:	4680      	mov	r8, r0
100046c8:	3301      	adds	r3, #1
100046ca:	d100      	bne.n	100046ce <_malloc_r+0x212>
100046cc:	e0f8      	b.n	100048c0 <_malloc_r+0x404>
100046ce:	9b01      	ldr	r3, [sp, #4]
100046d0:	4283      	cmp	r3, r0
100046d2:	d900      	bls.n	100046d6 <_malloc_r+0x21a>
100046d4:	e0f2      	b.n	100048bc <_malloc_r+0x400>
100046d6:	4b53      	ldr	r3, [pc, #332]	; (10004824 <_malloc_r+0x368>)
100046d8:	0019      	movs	r1, r3
100046da:	469a      	mov	sl, r3
100046dc:	6809      	ldr	r1, [r1, #0]
100046de:	9b00      	ldr	r3, [sp, #0]
100046e0:	468c      	mov	ip, r1
100046e2:	4651      	mov	r1, sl
100046e4:	4463      	add	r3, ip
100046e6:	600b      	str	r3, [r1, #0]
100046e8:	9901      	ldr	r1, [sp, #4]
100046ea:	001a      	movs	r2, r3
100046ec:	4281      	cmp	r1, r0
100046ee:	d100      	bne.n	100046f2 <_malloc_r+0x236>
100046f0:	e150      	b.n	10004994 <_malloc_r+0x4d8>
100046f2:	465b      	mov	r3, fp
100046f4:	681b      	ldr	r3, [r3, #0]
100046f6:	3301      	adds	r3, #1
100046f8:	d100      	bne.n	100046fc <_malloc_r+0x240>
100046fa:	e155      	b.n	100049a8 <_malloc_r+0x4ec>
100046fc:	4643      	mov	r3, r8
100046fe:	9901      	ldr	r1, [sp, #4]
10004700:	1a5b      	subs	r3, r3, r1
10004702:	189a      	adds	r2, r3, r2
10004704:	4653      	mov	r3, sl
10004706:	601a      	str	r2, [r3, #0]
10004708:	2307      	movs	r3, #7
1000470a:	4642      	mov	r2, r8
1000470c:	4641      	mov	r1, r8
1000470e:	401a      	ands	r2, r3
10004710:	9201      	str	r2, [sp, #4]
10004712:	4219      	tst	r1, r3
10004714:	d100      	bne.n	10004718 <_malloc_r+0x25c>
10004716:	e111      	b.n	1000493c <_malloc_r+0x480>
10004718:	2308      	movs	r3, #8
1000471a:	4698      	mov	r8, r3
1000471c:	1a88      	subs	r0, r1, r2
1000471e:	4b42      	ldr	r3, [pc, #264]	; (10004828 <_malloc_r+0x36c>)
10004720:	9900      	ldr	r1, [sp, #0]
10004722:	4480      	add	r8, r0
10004724:	4441      	add	r1, r8
10004726:	1a9b      	subs	r3, r3, r2
10004728:	1a5b      	subs	r3, r3, r1
1000472a:	051b      	lsls	r3, r3, #20
1000472c:	0d1b      	lsrs	r3, r3, #20
1000472e:	9100      	str	r1, [sp, #0]
10004730:	0030      	movs	r0, r6
10004732:	0019      	movs	r1, r3
10004734:	469b      	mov	fp, r3
10004736:	f000 f991 	bl	10004a5c <_sbrk_r>
1000473a:	1c43      	adds	r3, r0, #1
1000473c:	d100      	bne.n	10004740 <_malloc_r+0x284>
1000473e:	e14f      	b.n	100049e0 <_malloc_r+0x524>
10004740:	4643      	mov	r3, r8
10004742:	1ac0      	subs	r0, r0, r3
10004744:	0003      	movs	r3, r0
10004746:	445b      	add	r3, fp
10004748:	9300      	str	r3, [sp, #0]
1000474a:	4653      	mov	r3, sl
1000474c:	4652      	mov	r2, sl
1000474e:	681b      	ldr	r3, [r3, #0]
10004750:	2101      	movs	r1, #1
10004752:	445b      	add	r3, fp
10004754:	6013      	str	r3, [r2, #0]
10004756:	4642      	mov	r2, r8
10004758:	4640      	mov	r0, r8
1000475a:	60ba      	str	r2, [r7, #8]
1000475c:	9a00      	ldr	r2, [sp, #0]
1000475e:	430a      	orrs	r2, r1
10004760:	6042      	str	r2, [r0, #4]
10004762:	42bc      	cmp	r4, r7
10004764:	d100      	bne.n	10004768 <_malloc_r+0x2ac>
10004766:	e123      	b.n	100049b0 <_malloc_r+0x4f4>
10004768:	464a      	mov	r2, r9
1000476a:	2a0f      	cmp	r2, #15
1000476c:	d800      	bhi.n	10004770 <_malloc_r+0x2b4>
1000476e:	e121      	b.n	100049b4 <_malloc_r+0x4f8>
10004770:	2007      	movs	r0, #7
10004772:	3a0c      	subs	r2, #12
10004774:	4382      	bics	r2, r0
10004776:	6860      	ldr	r0, [r4, #4]
10004778:	4001      	ands	r1, r0
1000477a:	2005      	movs	r0, #5
1000477c:	4311      	orrs	r1, r2
1000477e:	6061      	str	r1, [r4, #4]
10004780:	18a1      	adds	r1, r4, r2
10004782:	6048      	str	r0, [r1, #4]
10004784:	6088      	str	r0, [r1, #8]
10004786:	2a0f      	cmp	r2, #15
10004788:	d900      	bls.n	1000478c <_malloc_r+0x2d0>
1000478a:	e134      	b.n	100049f6 <_malloc_r+0x53a>
1000478c:	4642      	mov	r2, r8
1000478e:	4644      	mov	r4, r8
10004790:	6852      	ldr	r2, [r2, #4]
10004792:	4926      	ldr	r1, [pc, #152]	; (1000482c <_malloc_r+0x370>)
10004794:	6808      	ldr	r0, [r1, #0]
10004796:	4298      	cmp	r0, r3
10004798:	d200      	bcs.n	1000479c <_malloc_r+0x2e0>
1000479a:	600b      	str	r3, [r1, #0]
1000479c:	4924      	ldr	r1, [pc, #144]	; (10004830 <_malloc_r+0x374>)
1000479e:	6808      	ldr	r0, [r1, #0]
100047a0:	4298      	cmp	r0, r3
100047a2:	d300      	bcc.n	100047a6 <_malloc_r+0x2ea>
100047a4:	e08e      	b.n	100048c4 <_malloc_r+0x408>
100047a6:	600b      	str	r3, [r1, #0]
100047a8:	e08c      	b.n	100048c4 <_malloc_r+0x408>
100047aa:	2201      	movs	r2, #1
100047ac:	0029      	movs	r1, r5
100047ae:	4313      	orrs	r3, r2
100047b0:	4311      	orrs	r1, r2
100047b2:	1965      	adds	r5, r4, r5
100047b4:	6061      	str	r1, [r4, #4]
100047b6:	0030      	movs	r0, r6
100047b8:	60bd      	str	r5, [r7, #8]
100047ba:	606b      	str	r3, [r5, #4]
100047bc:	f000 f946 	bl	10004a4c <__malloc_unlock>
100047c0:	0020      	movs	r0, r4
100047c2:	3008      	adds	r0, #8
100047c4:	e73f      	b.n	10004646 <_malloc_r+0x18a>
100047c6:	0a5a      	lsrs	r2, r3, #9
100047c8:	2a04      	cmp	r2, #4
100047ca:	d971      	bls.n	100048b0 <_malloc_r+0x3f4>
100047cc:	2a14      	cmp	r2, #20
100047ce:	d900      	bls.n	100047d2 <_malloc_r+0x316>
100047d0:	e0c4      	b.n	1000495c <_malloc_r+0x4a0>
100047d2:	0011      	movs	r1, r2
100047d4:	325c      	adds	r2, #92	; 0x5c
100047d6:	315b      	adds	r1, #91	; 0x5b
100047d8:	00d2      	lsls	r2, r2, #3
100047da:	2308      	movs	r3, #8
100047dc:	425b      	negs	r3, r3
100047de:	469c      	mov	ip, r3
100047e0:	18ba      	adds	r2, r7, r2
100047e2:	4494      	add	ip, r2
100047e4:	4663      	mov	r3, ip
100047e6:	689a      	ldr	r2, [r3, #8]
100047e8:	2303      	movs	r3, #3
100047ea:	4698      	mov	r8, r3
100047ec:	4594      	cmp	ip, r2
100047ee:	d100      	bne.n	100047f2 <_malloc_r+0x336>
100047f0:	e09d      	b.n	1000492e <_malloc_r+0x472>
100047f2:	4643      	mov	r3, r8
100047f4:	6851      	ldr	r1, [r2, #4]
100047f6:	4399      	bics	r1, r3
100047f8:	4549      	cmp	r1, r9
100047fa:	d902      	bls.n	10004802 <_malloc_r+0x346>
100047fc:	6892      	ldr	r2, [r2, #8]
100047fe:	4594      	cmp	ip, r2
10004800:	d1f7      	bne.n	100047f2 <_malloc_r+0x336>
10004802:	68d3      	ldr	r3, [r2, #12]
10004804:	469c      	mov	ip, r3
10004806:	687b      	ldr	r3, [r7, #4]
10004808:	4661      	mov	r1, ip
1000480a:	60a2      	str	r2, [r4, #8]
1000480c:	60e1      	str	r1, [r4, #12]
1000480e:	608c      	str	r4, [r1, #8]
10004810:	60d4      	str	r4, [r2, #12]
10004812:	e6d7      	b.n	100045c4 <_malloc_r+0x108>
10004814:	20000640 	.word	0x20000640
10004818:	20000a48 	.word	0x20000a48
1000481c:	20000ab8 	.word	0x20000ab8
10004820:	0000100f 	.word	0x0000100f
10004824:	20000a88 	.word	0x20000a88
10004828:	00001008 	.word	0x00001008
1000482c:	20000ab0 	.word	0x20000ab0
10004830:	20000ab4 	.word	0x20000ab4
10004834:	2814      	cmp	r0, #20
10004836:	d952      	bls.n	100048de <_malloc_r+0x422>
10004838:	2854      	cmp	r0, #84	; 0x54
1000483a:	d900      	bls.n	1000483e <_malloc_r+0x382>
1000483c:	e096      	b.n	1000496c <_malloc_r+0x4b0>
1000483e:	236e      	movs	r3, #110	; 0x6e
10004840:	4698      	mov	r8, r3
10004842:	0b28      	lsrs	r0, r5, #12
10004844:	4480      	add	r8, r0
10004846:	306f      	adds	r0, #111	; 0x6f
10004848:	00c1      	lsls	r1, r0, #3
1000484a:	e680      	b.n	1000454e <_malloc_r+0x92>
1000484c:	2308      	movs	r3, #8
1000484e:	469b      	mov	fp, r3
10004850:	3b07      	subs	r3, #7
10004852:	44dc      	add	ip, fp
10004854:	469b      	mov	fp, r3
10004856:	44da      	add	sl, fp
10004858:	4643      	mov	r3, r8
1000485a:	4652      	mov	r2, sl
1000485c:	4213      	tst	r3, r2
1000485e:	d000      	beq.n	10004862 <_malloc_r+0x3a6>
10004860:	e6c4      	b.n	100045ec <_malloc_r+0x130>
10004862:	e04c      	b.n	100048fe <_malloc_r+0x442>
10004864:	2201      	movs	r2, #1
10004866:	18e3      	adds	r3, r4, r3
10004868:	6859      	ldr	r1, [r3, #4]
1000486a:	0030      	movs	r0, r6
1000486c:	430a      	orrs	r2, r1
1000486e:	605a      	str	r2, [r3, #4]
10004870:	68e3      	ldr	r3, [r4, #12]
10004872:	68a2      	ldr	r2, [r4, #8]
10004874:	60d3      	str	r3, [r2, #12]
10004876:	609a      	str	r2, [r3, #8]
10004878:	f000 f8e8 	bl	10004a4c <__malloc_unlock>
1000487c:	0020      	movs	r0, r4
1000487e:	3008      	adds	r0, #8
10004880:	e6e1      	b.n	10004646 <_malloc_r+0x18a>
10004882:	002b      	movs	r3, r5
10004884:	08e8      	lsrs	r0, r5, #3
10004886:	3308      	adds	r3, #8
10004888:	e62c      	b.n	100044e4 <_malloc_r+0x28>
1000488a:	2301      	movs	r3, #1
1000488c:	1960      	adds	r0, r4, r5
1000488e:	431d      	orrs	r5, r3
10004890:	6065      	str	r5, [r4, #4]
10004892:	6178      	str	r0, [r7, #20]
10004894:	6138      	str	r0, [r7, #16]
10004896:	60c2      	str	r2, [r0, #12]
10004898:	6082      	str	r2, [r0, #8]
1000489a:	001a      	movs	r2, r3
1000489c:	464b      	mov	r3, r9
1000489e:	430a      	orrs	r2, r1
100048a0:	6042      	str	r2, [r0, #4]
100048a2:	0030      	movs	r0, r6
100048a4:	50e1      	str	r1, [r4, r3]
100048a6:	f000 f8d1 	bl	10004a4c <__malloc_unlock>
100048aa:	0020      	movs	r0, r4
100048ac:	3008      	adds	r0, #8
100048ae:	e6ca      	b.n	10004646 <_malloc_r+0x18a>
100048b0:	099a      	lsrs	r2, r3, #6
100048b2:	0011      	movs	r1, r2
100048b4:	3239      	adds	r2, #57	; 0x39
100048b6:	3138      	adds	r1, #56	; 0x38
100048b8:	00d2      	lsls	r2, r2, #3
100048ba:	e78e      	b.n	100047da <_malloc_r+0x31e>
100048bc:	42bc      	cmp	r4, r7
100048be:	d060      	beq.n	10004982 <_malloc_r+0x4c6>
100048c0:	68bc      	ldr	r4, [r7, #8]
100048c2:	6862      	ldr	r2, [r4, #4]
100048c4:	2303      	movs	r3, #3
100048c6:	439a      	bics	r2, r3
100048c8:	1b53      	subs	r3, r2, r5
100048ca:	4295      	cmp	r5, r2
100048cc:	d802      	bhi.n	100048d4 <_malloc_r+0x418>
100048ce:	2b0f      	cmp	r3, #15
100048d0:	dd00      	ble.n	100048d4 <_malloc_r+0x418>
100048d2:	e76a      	b.n	100047aa <_malloc_r+0x2ee>
100048d4:	0030      	movs	r0, r6
100048d6:	f000 f8b9 	bl	10004a4c <__malloc_unlock>
100048da:	2000      	movs	r0, #0
100048dc:	e6b3      	b.n	10004646 <_malloc_r+0x18a>
100048de:	235b      	movs	r3, #91	; 0x5b
100048e0:	4698      	mov	r8, r3
100048e2:	4480      	add	r8, r0
100048e4:	305c      	adds	r0, #92	; 0x5c
100048e6:	00c1      	lsls	r1, r0, #3
100048e8:	e631      	b.n	1000454e <_malloc_r+0x92>
100048ea:	2308      	movs	r3, #8
100048ec:	425b      	negs	r3, r3
100048ee:	469c      	mov	ip, r3
100048f0:	44e1      	add	r9, ip
100048f2:	464b      	mov	r3, r9
100048f4:	689b      	ldr	r3, [r3, #8]
100048f6:	3801      	subs	r0, #1
100048f8:	454b      	cmp	r3, r9
100048fa:	d000      	beq.n	100048fe <_malloc_r+0x442>
100048fc:	e098      	b.n	10004a30 <_malloc_r+0x574>
100048fe:	4643      	mov	r3, r8
10004900:	4203      	tst	r3, r0
10004902:	d1f2      	bne.n	100048ea <_malloc_r+0x42e>
10004904:	687b      	ldr	r3, [r7, #4]
10004906:	438b      	bics	r3, r1
10004908:	607b      	str	r3, [r7, #4]
1000490a:	0049      	lsls	r1, r1, #1
1000490c:	4299      	cmp	r1, r3
1000490e:	d900      	bls.n	10004912 <_malloc_r+0x456>
10004910:	e6b7      	b.n	10004682 <_malloc_r+0x1c6>
10004912:	2900      	cmp	r1, #0
10004914:	d104      	bne.n	10004920 <_malloc_r+0x464>
10004916:	e6b4      	b.n	10004682 <_malloc_r+0x1c6>
10004918:	2204      	movs	r2, #4
1000491a:	4694      	mov	ip, r2
1000491c:	0049      	lsls	r1, r1, #1
1000491e:	44e2      	add	sl, ip
10004920:	420b      	tst	r3, r1
10004922:	d0f9      	beq.n	10004918 <_malloc_r+0x45c>
10004924:	4650      	mov	r0, sl
10004926:	e65c      	b.n	100045e2 <_malloc_r+0x126>
10004928:	3310      	adds	r3, #16
1000492a:	9300      	str	r3, [sp, #0]
1000492c:	e6c6      	b.n	100046bc <_malloc_r+0x200>
1000492e:	1089      	asrs	r1, r1, #2
10004930:	3b02      	subs	r3, #2
10004932:	408b      	lsls	r3, r1
10004934:	6879      	ldr	r1, [r7, #4]
10004936:	430b      	orrs	r3, r1
10004938:	607b      	str	r3, [r7, #4]
1000493a:	e765      	b.n	10004808 <_malloc_r+0x34c>
1000493c:	9b00      	ldr	r3, [sp, #0]
1000493e:	0030      	movs	r0, r6
10004940:	4443      	add	r3, r8
10004942:	425b      	negs	r3, r3
10004944:	051b      	lsls	r3, r3, #20
10004946:	0d1b      	lsrs	r3, r3, #20
10004948:	0019      	movs	r1, r3
1000494a:	469b      	mov	fp, r3
1000494c:	f000 f886 	bl	10004a5c <_sbrk_r>
10004950:	1c43      	adds	r3, r0, #1
10004952:	d000      	beq.n	10004956 <_malloc_r+0x49a>
10004954:	e6f4      	b.n	10004740 <_malloc_r+0x284>
10004956:	2300      	movs	r3, #0
10004958:	469b      	mov	fp, r3
1000495a:	e6f6      	b.n	1000474a <_malloc_r+0x28e>
1000495c:	2a54      	cmp	r2, #84	; 0x54
1000495e:	d82b      	bhi.n	100049b8 <_malloc_r+0x4fc>
10004960:	0b1a      	lsrs	r2, r3, #12
10004962:	0011      	movs	r1, r2
10004964:	326f      	adds	r2, #111	; 0x6f
10004966:	316e      	adds	r1, #110	; 0x6e
10004968:	00d2      	lsls	r2, r2, #3
1000496a:	e736      	b.n	100047da <_malloc_r+0x31e>
1000496c:	23aa      	movs	r3, #170	; 0xaa
1000496e:	005b      	lsls	r3, r3, #1
10004970:	4298      	cmp	r0, r3
10004972:	d82b      	bhi.n	100049cc <_malloc_r+0x510>
10004974:	3bdd      	subs	r3, #221	; 0xdd
10004976:	4698      	mov	r8, r3
10004978:	0be8      	lsrs	r0, r5, #15
1000497a:	4480      	add	r8, r0
1000497c:	3078      	adds	r0, #120	; 0x78
1000497e:	00c1      	lsls	r1, r0, #3
10004980:	e5e5      	b.n	1000454e <_malloc_r+0x92>
10004982:	4b2c      	ldr	r3, [pc, #176]	; (10004a34 <_malloc_r+0x578>)
10004984:	9a00      	ldr	r2, [sp, #0]
10004986:	469a      	mov	sl, r3
10004988:	681b      	ldr	r3, [r3, #0]
1000498a:	469c      	mov	ip, r3
1000498c:	4653      	mov	r3, sl
1000498e:	4462      	add	r2, ip
10004990:	601a      	str	r2, [r3, #0]
10004992:	e6ae      	b.n	100046f2 <_malloc_r+0x236>
10004994:	0509      	lsls	r1, r1, #20
10004996:	d000      	beq.n	1000499a <_malloc_r+0x4de>
10004998:	e6ab      	b.n	100046f2 <_malloc_r+0x236>
1000499a:	9a00      	ldr	r2, [sp, #0]
1000499c:	68bc      	ldr	r4, [r7, #8]
1000499e:	444a      	add	r2, r9
100049a0:	3101      	adds	r1, #1
100049a2:	430a      	orrs	r2, r1
100049a4:	6062      	str	r2, [r4, #4]
100049a6:	e6f4      	b.n	10004792 <_malloc_r+0x2d6>
100049a8:	465b      	mov	r3, fp
100049aa:	4642      	mov	r2, r8
100049ac:	601a      	str	r2, [r3, #0]
100049ae:	e6ab      	b.n	10004708 <_malloc_r+0x24c>
100049b0:	4644      	mov	r4, r8
100049b2:	e6ee      	b.n	10004792 <_malloc_r+0x2d6>
100049b4:	6041      	str	r1, [r0, #4]
100049b6:	e78d      	b.n	100048d4 <_malloc_r+0x418>
100049b8:	21aa      	movs	r1, #170	; 0xaa
100049ba:	0049      	lsls	r1, r1, #1
100049bc:	428a      	cmp	r2, r1
100049be:	d824      	bhi.n	10004a0a <_malloc_r+0x54e>
100049c0:	0bda      	lsrs	r2, r3, #15
100049c2:	0011      	movs	r1, r2
100049c4:	3278      	adds	r2, #120	; 0x78
100049c6:	3177      	adds	r1, #119	; 0x77
100049c8:	00d2      	lsls	r2, r2, #3
100049ca:	e706      	b.n	100047da <_malloc_r+0x31e>
100049cc:	4b1a      	ldr	r3, [pc, #104]	; (10004a38 <_malloc_r+0x57c>)
100049ce:	4298      	cmp	r0, r3
100049d0:	d824      	bhi.n	10004a1c <_malloc_r+0x560>
100049d2:	237c      	movs	r3, #124	; 0x7c
100049d4:	4698      	mov	r8, r3
100049d6:	0ca8      	lsrs	r0, r5, #18
100049d8:	4480      	add	r8, r0
100049da:	307d      	adds	r0, #125	; 0x7d
100049dc:	00c1      	lsls	r1, r0, #3
100049de:	e5b6      	b.n	1000454e <_malloc_r+0x92>
100049e0:	9a00      	ldr	r2, [sp, #0]
100049e2:	9b01      	ldr	r3, [sp, #4]
100049e4:	4694      	mov	ip, r2
100049e6:	4642      	mov	r2, r8
100049e8:	3b08      	subs	r3, #8
100049ea:	4463      	add	r3, ip
100049ec:	1a9b      	subs	r3, r3, r2
100049ee:	9300      	str	r3, [sp, #0]
100049f0:	2300      	movs	r3, #0
100049f2:	469b      	mov	fp, r3
100049f4:	e6a9      	b.n	1000474a <_malloc_r+0x28e>
100049f6:	0021      	movs	r1, r4
100049f8:	0030      	movs	r0, r6
100049fa:	3108      	adds	r1, #8
100049fc:	f000 f8bc 	bl	10004b78 <_free_r>
10004a00:	4653      	mov	r3, sl
10004a02:	68bc      	ldr	r4, [r7, #8]
10004a04:	681b      	ldr	r3, [r3, #0]
10004a06:	6862      	ldr	r2, [r4, #4]
10004a08:	e6c3      	b.n	10004792 <_malloc_r+0x2d6>
10004a0a:	490b      	ldr	r1, [pc, #44]	; (10004a38 <_malloc_r+0x57c>)
10004a0c:	428a      	cmp	r2, r1
10004a0e:	d80b      	bhi.n	10004a28 <_malloc_r+0x56c>
10004a10:	0c9a      	lsrs	r2, r3, #18
10004a12:	0011      	movs	r1, r2
10004a14:	327d      	adds	r2, #125	; 0x7d
10004a16:	317c      	adds	r1, #124	; 0x7c
10004a18:	00d2      	lsls	r2, r2, #3
10004a1a:	e6de      	b.n	100047da <_malloc_r+0x31e>
10004a1c:	21fe      	movs	r1, #254	; 0xfe
10004a1e:	237e      	movs	r3, #126	; 0x7e
10004a20:	207f      	movs	r0, #127	; 0x7f
10004a22:	4698      	mov	r8, r3
10004a24:	0089      	lsls	r1, r1, #2
10004a26:	e592      	b.n	1000454e <_malloc_r+0x92>
10004a28:	22fe      	movs	r2, #254	; 0xfe
10004a2a:	217e      	movs	r1, #126	; 0x7e
10004a2c:	0092      	lsls	r2, r2, #2
10004a2e:	e6d4      	b.n	100047da <_malloc_r+0x31e>
10004a30:	687b      	ldr	r3, [r7, #4]
10004a32:	e76a      	b.n	1000490a <_malloc_r+0x44e>
10004a34:	20000a88 	.word	0x20000a88
10004a38:	00000554 	.word	0x00000554

10004a3c <__malloc_lock>:
10004a3c:	b510      	push	{r4, lr}
10004a3e:	4802      	ldr	r0, [pc, #8]	; (10004a48 <__malloc_lock+0xc>)
10004a40:	f000 f97c 	bl	10004d3c <__retarget_lock_acquire_recursive>
10004a44:	bd10      	pop	{r4, pc}
10004a46:	46c0      	nop			; (mov r8, r8)
10004a48:	20000d44 	.word	0x20000d44

10004a4c <__malloc_unlock>:
10004a4c:	b510      	push	{r4, lr}
10004a4e:	4802      	ldr	r0, [pc, #8]	; (10004a58 <__malloc_unlock+0xc>)
10004a50:	f000 f976 	bl	10004d40 <__retarget_lock_release_recursive>
10004a54:	bd10      	pop	{r4, pc}
10004a56:	46c0      	nop			; (mov r8, r8)
10004a58:	20000d44 	.word	0x20000d44

10004a5c <_sbrk_r>:
10004a5c:	2300      	movs	r3, #0
10004a5e:	b570      	push	{r4, r5, r6, lr}
10004a60:	4d06      	ldr	r5, [pc, #24]	; (10004a7c <_sbrk_r+0x20>)
10004a62:	0004      	movs	r4, r0
10004a64:	0008      	movs	r0, r1
10004a66:	602b      	str	r3, [r5, #0]
10004a68:	f7fc fce4 	bl	10001434 <_sbrk>
10004a6c:	1c43      	adds	r3, r0, #1
10004a6e:	d000      	beq.n	10004a72 <_sbrk_r+0x16>
10004a70:	bd70      	pop	{r4, r5, r6, pc}
10004a72:	682b      	ldr	r3, [r5, #0]
10004a74:	2b00      	cmp	r3, #0
10004a76:	d0fb      	beq.n	10004a70 <_sbrk_r+0x14>
10004a78:	6023      	str	r3, [r4, #0]
10004a7a:	e7f9      	b.n	10004a70 <_sbrk_r+0x14>
10004a7c:	20000d58 	.word	0x20000d58

10004a80 <strlen>:
10004a80:	b510      	push	{r4, lr}
10004a82:	0783      	lsls	r3, r0, #30
10004a84:	d00a      	beq.n	10004a9c <strlen+0x1c>
10004a86:	0003      	movs	r3, r0
10004a88:	2103      	movs	r1, #3
10004a8a:	e002      	b.n	10004a92 <strlen+0x12>
10004a8c:	3301      	adds	r3, #1
10004a8e:	420b      	tst	r3, r1
10004a90:	d005      	beq.n	10004a9e <strlen+0x1e>
10004a92:	781a      	ldrb	r2, [r3, #0]
10004a94:	2a00      	cmp	r2, #0
10004a96:	d1f9      	bne.n	10004a8c <strlen+0xc>
10004a98:	1a18      	subs	r0, r3, r0
10004a9a:	bd10      	pop	{r4, pc}
10004a9c:	0003      	movs	r3, r0
10004a9e:	6819      	ldr	r1, [r3, #0]
10004aa0:	4a0c      	ldr	r2, [pc, #48]	; (10004ad4 <strlen+0x54>)
10004aa2:	4c0d      	ldr	r4, [pc, #52]	; (10004ad8 <strlen+0x58>)
10004aa4:	188a      	adds	r2, r1, r2
10004aa6:	438a      	bics	r2, r1
10004aa8:	4222      	tst	r2, r4
10004aaa:	d10f      	bne.n	10004acc <strlen+0x4c>
10004aac:	6859      	ldr	r1, [r3, #4]
10004aae:	4a09      	ldr	r2, [pc, #36]	; (10004ad4 <strlen+0x54>)
10004ab0:	3304      	adds	r3, #4
10004ab2:	188a      	adds	r2, r1, r2
10004ab4:	438a      	bics	r2, r1
10004ab6:	4222      	tst	r2, r4
10004ab8:	d108      	bne.n	10004acc <strlen+0x4c>
10004aba:	6859      	ldr	r1, [r3, #4]
10004abc:	4a05      	ldr	r2, [pc, #20]	; (10004ad4 <strlen+0x54>)
10004abe:	3304      	adds	r3, #4
10004ac0:	188a      	adds	r2, r1, r2
10004ac2:	438a      	bics	r2, r1
10004ac4:	4222      	tst	r2, r4
10004ac6:	d0f1      	beq.n	10004aac <strlen+0x2c>
10004ac8:	e000      	b.n	10004acc <strlen+0x4c>
10004aca:	3301      	adds	r3, #1
10004acc:	781a      	ldrb	r2, [r3, #0]
10004ace:	2a00      	cmp	r2, #0
10004ad0:	d1fb      	bne.n	10004aca <strlen+0x4a>
10004ad2:	e7e1      	b.n	10004a98 <strlen+0x18>
10004ad4:	fefefeff 	.word	0xfefefeff
10004ad8:	80808080 	.word	0x80808080

10004adc <_malloc_trim_r>:
10004adc:	b5f8      	push	{r3, r4, r5, r6, r7, lr}
10004ade:	000c      	movs	r4, r1
10004ae0:	0005      	movs	r5, r0
10004ae2:	f7ff ffab 	bl	10004a3c <__malloc_lock>
10004ae6:	4f20      	ldr	r7, [pc, #128]	; (10004b68 <_malloc_trim_r+0x8c>)
10004ae8:	68bb      	ldr	r3, [r7, #8]
10004aea:	685e      	ldr	r6, [r3, #4]
10004aec:	2303      	movs	r3, #3
10004aee:	439e      	bics	r6, r3
10004af0:	4b1e      	ldr	r3, [pc, #120]	; (10004b6c <_malloc_trim_r+0x90>)
10004af2:	1b34      	subs	r4, r6, r4
10004af4:	469c      	mov	ip, r3
10004af6:	4464      	add	r4, ip
10004af8:	0b24      	lsrs	r4, r4, #12
10004afa:	3c01      	subs	r4, #1
10004afc:	3311      	adds	r3, #17
10004afe:	0324      	lsls	r4, r4, #12
10004b00:	429c      	cmp	r4, r3
10004b02:	db07      	blt.n	10004b14 <_malloc_trim_r+0x38>
10004b04:	2100      	movs	r1, #0
10004b06:	0028      	movs	r0, r5
10004b08:	f7ff ffa8 	bl	10004a5c <_sbrk_r>
10004b0c:	68bb      	ldr	r3, [r7, #8]
10004b0e:	199b      	adds	r3, r3, r6
10004b10:	4298      	cmp	r0, r3
10004b12:	d004      	beq.n	10004b1e <_malloc_trim_r+0x42>
10004b14:	0028      	movs	r0, r5
10004b16:	f7ff ff99 	bl	10004a4c <__malloc_unlock>
10004b1a:	2000      	movs	r0, #0
10004b1c:	bdf8      	pop	{r3, r4, r5, r6, r7, pc}
10004b1e:	0028      	movs	r0, r5
10004b20:	4261      	negs	r1, r4
10004b22:	f7ff ff9b 	bl	10004a5c <_sbrk_r>
10004b26:	1c43      	adds	r3, r0, #1
10004b28:	d00d      	beq.n	10004b46 <_malloc_trim_r+0x6a>
10004b2a:	2201      	movs	r2, #1
10004b2c:	68bb      	ldr	r3, [r7, #8]
10004b2e:	1b36      	subs	r6, r6, r4
10004b30:	4316      	orrs	r6, r2
10004b32:	605e      	str	r6, [r3, #4]
10004b34:	4b0e      	ldr	r3, [pc, #56]	; (10004b70 <_malloc_trim_r+0x94>)
10004b36:	0028      	movs	r0, r5
10004b38:	681a      	ldr	r2, [r3, #0]
10004b3a:	1b14      	subs	r4, r2, r4
10004b3c:	601c      	str	r4, [r3, #0]
10004b3e:	f7ff ff85 	bl	10004a4c <__malloc_unlock>
10004b42:	2001      	movs	r0, #1
10004b44:	e7ea      	b.n	10004b1c <_malloc_trim_r+0x40>
10004b46:	2100      	movs	r1, #0
10004b48:	0028      	movs	r0, r5
10004b4a:	f7ff ff87 	bl	10004a5c <_sbrk_r>
10004b4e:	68ba      	ldr	r2, [r7, #8]
10004b50:	1a83      	subs	r3, r0, r2
10004b52:	2b0f      	cmp	r3, #15
10004b54:	ddde      	ble.n	10004b14 <_malloc_trim_r+0x38>
10004b56:	4907      	ldr	r1, [pc, #28]	; (10004b74 <_malloc_trim_r+0x98>)
10004b58:	6809      	ldr	r1, [r1, #0]
10004b5a:	1a40      	subs	r0, r0, r1
10004b5c:	4904      	ldr	r1, [pc, #16]	; (10004b70 <_malloc_trim_r+0x94>)
10004b5e:	6008      	str	r0, [r1, #0]
10004b60:	2101      	movs	r1, #1
10004b62:	430b      	orrs	r3, r1
10004b64:	6053      	str	r3, [r2, #4]
10004b66:	e7d5      	b.n	10004b14 <_malloc_trim_r+0x38>
10004b68:	20000640 	.word	0x20000640
10004b6c:	00000fef 	.word	0x00000fef
10004b70:	20000a88 	.word	0x20000a88
10004b74:	20000a48 	.word	0x20000a48

10004b78 <_free_r>:
10004b78:	b5f0      	push	{r4, r5, r6, r7, lr}
10004b7a:	46c6      	mov	lr, r8
10004b7c:	0005      	movs	r5, r0
10004b7e:	000c      	movs	r4, r1
10004b80:	b500      	push	{lr}
10004b82:	2900      	cmp	r1, #0
10004b84:	d04f      	beq.n	10004c26 <_free_r+0xae>
10004b86:	f7ff ff59 	bl	10004a3c <__malloc_lock>
10004b8a:	0021      	movs	r1, r4
10004b8c:	3908      	subs	r1, #8
10004b8e:	684c      	ldr	r4, [r1, #4]
10004b90:	2601      	movs	r6, #1
10004b92:	0022      	movs	r2, r4
10004b94:	2003      	movs	r0, #3
10004b96:	43b2      	bics	r2, r6
10004b98:	188f      	adds	r7, r1, r2
10004b9a:	687b      	ldr	r3, [r7, #4]
10004b9c:	4383      	bics	r3, r0
10004b9e:	4862      	ldr	r0, [pc, #392]	; (10004d28 <_free_r+0x1b0>)
10004ba0:	4698      	mov	r8, r3
10004ba2:	6883      	ldr	r3, [r0, #8]
10004ba4:	42bb      	cmp	r3, r7
10004ba6:	d06b      	beq.n	10004c80 <_free_r+0x108>
10004ba8:	4643      	mov	r3, r8
10004baa:	607b      	str	r3, [r7, #4]
10004bac:	4226      	tst	r6, r4
10004bae:	d11e      	bne.n	10004bee <_free_r+0x76>
10004bb0:	2308      	movs	r3, #8
10004bb2:	469c      	mov	ip, r3
10004bb4:	680c      	ldr	r4, [r1, #0]
10004bb6:	4484      	add	ip, r0
10004bb8:	1b09      	subs	r1, r1, r4
10004bba:	1912      	adds	r2, r2, r4
10004bbc:	688c      	ldr	r4, [r1, #8]
10004bbe:	4564      	cmp	r4, ip
10004bc0:	d04f      	beq.n	10004c62 <_free_r+0xea>
10004bc2:	68cb      	ldr	r3, [r1, #12]
10004bc4:	60e3      	str	r3, [r4, #12]
10004bc6:	609c      	str	r4, [r3, #8]
10004bc8:	4643      	mov	r3, r8
10004bca:	18fc      	adds	r4, r7, r3
10004bcc:	6864      	ldr	r4, [r4, #4]
10004bce:	4234      	tst	r4, r6
10004bd0:	d111      	bne.n	10004bf6 <_free_r+0x7e>
10004bd2:	68bb      	ldr	r3, [r7, #8]
10004bd4:	4c55      	ldr	r4, [pc, #340]	; (10004d2c <_free_r+0x1b4>)
10004bd6:	4442      	add	r2, r8
10004bd8:	42a3      	cmp	r3, r4
10004bda:	d100      	bne.n	10004bde <_free_r+0x66>
10004bdc:	e07f      	b.n	10004cde <_free_r+0x166>
10004bde:	68fc      	ldr	r4, [r7, #12]
10004be0:	60dc      	str	r4, [r3, #12]
10004be2:	60a3      	str	r3, [r4, #8]
10004be4:	2301      	movs	r3, #1
10004be6:	4313      	orrs	r3, r2
10004be8:	604b      	str	r3, [r1, #4]
10004bea:	508a      	str	r2, [r1, r2]
10004bec:	e006      	b.n	10004bfc <_free_r+0x84>
10004bee:	18fc      	adds	r4, r7, r3
10004bf0:	6864      	ldr	r4, [r4, #4]
10004bf2:	4234      	tst	r4, r6
10004bf4:	d0ed      	beq.n	10004bd2 <_free_r+0x5a>
10004bf6:	4316      	orrs	r6, r2
10004bf8:	604e      	str	r6, [r1, #4]
10004bfa:	603a      	str	r2, [r7, #0]
10004bfc:	2380      	movs	r3, #128	; 0x80
10004bfe:	009b      	lsls	r3, r3, #2
10004c00:	429a      	cmp	r2, r3
10004c02:	d213      	bcs.n	10004c2c <_free_r+0xb4>
10004c04:	0954      	lsrs	r4, r2, #5
10004c06:	08d3      	lsrs	r3, r2, #3
10004c08:	2201      	movs	r2, #1
10004c0a:	40a2      	lsls	r2, r4
10004c0c:	6844      	ldr	r4, [r0, #4]
10004c0e:	00db      	lsls	r3, r3, #3
10004c10:	4322      	orrs	r2, r4
10004c12:	6042      	str	r2, [r0, #4]
10004c14:	1818      	adds	r0, r3, r0
10004c16:	6883      	ldr	r3, [r0, #8]
10004c18:	60c8      	str	r0, [r1, #12]
10004c1a:	608b      	str	r3, [r1, #8]
10004c1c:	6081      	str	r1, [r0, #8]
10004c1e:	60d9      	str	r1, [r3, #12]
10004c20:	0028      	movs	r0, r5
10004c22:	f7ff ff13 	bl	10004a4c <__malloc_unlock>
10004c26:	bc04      	pop	{r2}
10004c28:	4690      	mov	r8, r2
10004c2a:	bdf0      	pop	{r4, r5, r6, r7, pc}
10004c2c:	0a53      	lsrs	r3, r2, #9
10004c2e:	2b04      	cmp	r3, #4
10004c30:	d83f      	bhi.n	10004cb2 <_free_r+0x13a>
10004c32:	0994      	lsrs	r4, r2, #6
10004c34:	0026      	movs	r6, r4
10004c36:	3439      	adds	r4, #57	; 0x39
10004c38:	3638      	adds	r6, #56	; 0x38
10004c3a:	00e4      	lsls	r4, r4, #3
10004c3c:	1904      	adds	r4, r0, r4
10004c3e:	6823      	ldr	r3, [r4, #0]
10004c40:	3c08      	subs	r4, #8
10004c42:	2703      	movs	r7, #3
10004c44:	429c      	cmp	r4, r3
10004c46:	d043      	beq.n	10004cd0 <_free_r+0x158>
10004c48:	6858      	ldr	r0, [r3, #4]
10004c4a:	43b8      	bics	r0, r7
10004c4c:	4290      	cmp	r0, r2
10004c4e:	d902      	bls.n	10004c56 <_free_r+0xde>
10004c50:	689b      	ldr	r3, [r3, #8]
10004c52:	429c      	cmp	r4, r3
10004c54:	d1f8      	bne.n	10004c48 <_free_r+0xd0>
10004c56:	68dc      	ldr	r4, [r3, #12]
10004c58:	60cc      	str	r4, [r1, #12]
10004c5a:	608b      	str	r3, [r1, #8]
10004c5c:	60a1      	str	r1, [r4, #8]
10004c5e:	60d9      	str	r1, [r3, #12]
10004c60:	e7de      	b.n	10004c20 <_free_r+0xa8>
10004c62:	4643      	mov	r3, r8
10004c64:	18f8      	adds	r0, r7, r3
10004c66:	6840      	ldr	r0, [r0, #4]
10004c68:	4230      	tst	r0, r6
10004c6a:	d158      	bne.n	10004d1e <_free_r+0x1a6>
10004c6c:	0013      	movs	r3, r2
10004c6e:	68b8      	ldr	r0, [r7, #8]
10004c70:	68fa      	ldr	r2, [r7, #12]
10004c72:	4443      	add	r3, r8
10004c74:	431e      	orrs	r6, r3
10004c76:	60c2      	str	r2, [r0, #12]
10004c78:	6090      	str	r0, [r2, #8]
10004c7a:	604e      	str	r6, [r1, #4]
10004c7c:	50cb      	str	r3, [r1, r3]
10004c7e:	e7cf      	b.n	10004c20 <_free_r+0xa8>
10004c80:	0013      	movs	r3, r2
10004c82:	4443      	add	r3, r8
10004c84:	4226      	tst	r6, r4
10004c86:	d106      	bne.n	10004c96 <_free_r+0x11e>
10004c88:	680a      	ldr	r2, [r1, #0]
10004c8a:	1a89      	subs	r1, r1, r2
10004c8c:	688c      	ldr	r4, [r1, #8]
10004c8e:	189b      	adds	r3, r3, r2
10004c90:	68ca      	ldr	r2, [r1, #12]
10004c92:	60e2      	str	r2, [r4, #12]
10004c94:	6094      	str	r4, [r2, #8]
10004c96:	2201      	movs	r2, #1
10004c98:	431a      	orrs	r2, r3
10004c9a:	604a      	str	r2, [r1, #4]
10004c9c:	4a24      	ldr	r2, [pc, #144]	; (10004d30 <_free_r+0x1b8>)
10004c9e:	6081      	str	r1, [r0, #8]
10004ca0:	6812      	ldr	r2, [r2, #0]
10004ca2:	429a      	cmp	r2, r3
10004ca4:	d8bc      	bhi.n	10004c20 <_free_r+0xa8>
10004ca6:	4b23      	ldr	r3, [pc, #140]	; (10004d34 <_free_r+0x1bc>)
10004ca8:	0028      	movs	r0, r5
10004caa:	6819      	ldr	r1, [r3, #0]
10004cac:	f7ff ff16 	bl	10004adc <_malloc_trim_r>
10004cb0:	e7b6      	b.n	10004c20 <_free_r+0xa8>
10004cb2:	2b14      	cmp	r3, #20
10004cb4:	d907      	bls.n	10004cc6 <_free_r+0x14e>
10004cb6:	2b54      	cmp	r3, #84	; 0x54
10004cb8:	d81a      	bhi.n	10004cf0 <_free_r+0x178>
10004cba:	0b14      	lsrs	r4, r2, #12
10004cbc:	0026      	movs	r6, r4
10004cbe:	346f      	adds	r4, #111	; 0x6f
10004cc0:	366e      	adds	r6, #110	; 0x6e
10004cc2:	00e4      	lsls	r4, r4, #3
10004cc4:	e7ba      	b.n	10004c3c <_free_r+0xc4>
10004cc6:	001e      	movs	r6, r3
10004cc8:	335c      	adds	r3, #92	; 0x5c
10004cca:	365b      	adds	r6, #91	; 0x5b
10004ccc:	00dc      	lsls	r4, r3, #3
10004cce:	e7b5      	b.n	10004c3c <_free_r+0xc4>
10004cd0:	2201      	movs	r2, #1
10004cd2:	10b6      	asrs	r6, r6, #2
10004cd4:	40b2      	lsls	r2, r6
10004cd6:	6846      	ldr	r6, [r0, #4]
10004cd8:	4332      	orrs	r2, r6
10004cda:	6042      	str	r2, [r0, #4]
10004cdc:	e7bc      	b.n	10004c58 <_free_r+0xe0>
10004cde:	60d9      	str	r1, [r3, #12]
10004ce0:	6099      	str	r1, [r3, #8]
10004ce2:	60cb      	str	r3, [r1, #12]
10004ce4:	608b      	str	r3, [r1, #8]
10004ce6:	2301      	movs	r3, #1
10004ce8:	4313      	orrs	r3, r2
10004cea:	604b      	str	r3, [r1, #4]
10004cec:	508a      	str	r2, [r1, r2]
10004cee:	e797      	b.n	10004c20 <_free_r+0xa8>
10004cf0:	24aa      	movs	r4, #170	; 0xaa
10004cf2:	0064      	lsls	r4, r4, #1
10004cf4:	42a3      	cmp	r3, r4
10004cf6:	d805      	bhi.n	10004d04 <_free_r+0x18c>
10004cf8:	0bd4      	lsrs	r4, r2, #15
10004cfa:	0026      	movs	r6, r4
10004cfc:	3478      	adds	r4, #120	; 0x78
10004cfe:	3677      	adds	r6, #119	; 0x77
10004d00:	00e4      	lsls	r4, r4, #3
10004d02:	e79b      	b.n	10004c3c <_free_r+0xc4>
10004d04:	4c0c      	ldr	r4, [pc, #48]	; (10004d38 <_free_r+0x1c0>)
10004d06:	42a3      	cmp	r3, r4
10004d08:	d805      	bhi.n	10004d16 <_free_r+0x19e>
10004d0a:	0c94      	lsrs	r4, r2, #18
10004d0c:	0026      	movs	r6, r4
10004d0e:	347d      	adds	r4, #125	; 0x7d
10004d10:	367c      	adds	r6, #124	; 0x7c
10004d12:	00e4      	lsls	r4, r4, #3
10004d14:	e792      	b.n	10004c3c <_free_r+0xc4>
10004d16:	24fe      	movs	r4, #254	; 0xfe
10004d18:	267e      	movs	r6, #126	; 0x7e
10004d1a:	00a4      	lsls	r4, r4, #2
10004d1c:	e78e      	b.n	10004c3c <_free_r+0xc4>
10004d1e:	0033      	movs	r3, r6
10004d20:	4313      	orrs	r3, r2
10004d22:	604b      	str	r3, [r1, #4]
10004d24:	603a      	str	r2, [r7, #0]
10004d26:	e77b      	b.n	10004c20 <_free_r+0xa8>
10004d28:	20000640 	.word	0x20000640
10004d2c:	20000648 	.word	0x20000648
10004d30:	20000a4c 	.word	0x20000a4c
10004d34:	20000ab8 	.word	0x20000ab8
10004d38:	00000554 	.word	0x00000554

10004d3c <__retarget_lock_acquire_recursive>:
10004d3c:	4770      	bx	lr
10004d3e:	46c0      	nop			; (mov r8, r8)

10004d40 <__retarget_lock_release_recursive>:
10004d40:	4770      	bx	lr
10004d42:	46c0      	nop			; (mov r8, r8)

10004d44 <_fini>:
10004d44:	b5f8      	push	{r3, r4, r5, r6, r7, lr}
10004d46:	46c0      	nop			; (mov r8, r8)

10004d48 <__mutex_exit_veneer>:
10004d48:	b401      	push	{r0}
10004d4a:	4802      	ldr	r0, [pc, #8]	; (10004d54 <__mutex_exit_veneer+0xc>)
10004d4c:	4684      	mov	ip, r0
10004d4e:	bc01      	pop	{r0}
10004d50:	4760      	bx	ip
10004d52:	bf00      	nop
10004d54:	2000015d 	.word	0x2000015d

10004d58 <____aeabi_ldiv0_veneer>:
10004d58:	b401      	push	{r0}
10004d5a:	4802      	ldr	r0, [pc, #8]	; (10004d64 <____aeabi_ldiv0_veneer+0xc>)
10004d5c:	4684      	mov	ip, r0
10004d5e:	bc01      	pop	{r0}
10004d60:	4760      	bx	ip
10004d62:	bf00      	nop
10004d64:	20000185 	.word	0x20000185

10004d68 <____aeabi_idiv0_veneer>:
10004d68:	b401      	push	{r0}
10004d6a:	4802      	ldr	r0, [pc, #8]	; (10004d74 <____aeabi_idiv0_veneer+0xc>)
10004d6c:	4684      	mov	ip, r0
10004d6e:	bc01      	pop	{r0}
10004d70:	4760      	bx	ip
10004d72:	bf00      	nop
10004d74:	20000185 	.word	0x20000185

10004d78 <__mutex_try_enter_veneer>:
10004d78:	b401      	push	{r0}
10004d7a:	4802      	ldr	r0, [pc, #8]	; (10004d84 <__mutex_try_enter_veneer+0xc>)
10004d7c:	4684      	mov	ip, r0
10004d7e:	bc01      	pop	{r0}
10004d80:	4760      	bx	ip
10004d82:	bf00      	nop
10004d84:	20000111 	.word	0x20000111

10004d88 <__mutex_enter_blocking_veneer>:
10004d88:	b401      	push	{r0}
10004d8a:	4802      	ldr	r0, [pc, #8]	; (10004d94 <__mutex_enter_blocking_veneer+0xc>)
10004d8c:	4684      	mov	ip, r0
10004d8e:	bc01      	pop	{r0}
10004d90:	4760      	bx	ip
10004d92:	bf00      	nop
10004d94:	200000c1 	.word	0x200000c1

Disassembly of section .data:

200000c0 <mutex_enter_blocking>:
200000c0:	b510      	push	{r4, lr}
200000c2:	6802      	ldr	r2, [r0, #0]
200000c4:	2400      	movs	r4, #0
200000c6:	f3ef 8110 	mrs	r1, PRIMASK
200000ca:	b672      	cpsid	i
200000cc:	6813      	ldr	r3, [r2, #0]
200000ce:	2b00      	cmp	r3, #0
200000d0:	d0fc      	beq.n	200000cc <mutex_enter_blocking+0xc>
200000d2:	f3bf 8f5f 	dmb	sy
200000d6:	7903      	ldrb	r3, [r0, #4]
200000d8:	2b00      	cmp	r3, #0
200000da:	d00b      	beq.n	200000f4 <mutex_enter_blocking+0x34>
200000dc:	6803      	ldr	r3, [r0, #0]
200000de:	f3bf 8f5f 	dmb	sy
200000e2:	601c      	str	r4, [r3, #0]
200000e4:	f381 8810 	msr	PRIMASK, r1
200000e8:	bf20      	wfe
200000ea:	6802      	ldr	r2, [r0, #0]
200000ec:	f3ef 8110 	mrs	r1, PRIMASK
200000f0:	b672      	cpsid	i
200000f2:	e7eb      	b.n	200000cc <mutex_enter_blocking+0xc>
200000f4:	2201      	movs	r2, #1
200000f6:	7102      	strb	r2, [r0, #4]
200000f8:	22d0      	movs	r2, #208	; 0xd0
200000fa:	0612      	lsls	r2, r2, #24
200000fc:	6812      	ldr	r2, [r2, #0]
200000fe:	7142      	strb	r2, [r0, #5]
20000100:	6802      	ldr	r2, [r0, #0]
20000102:	f3bf 8f5f 	dmb	sy
20000106:	6013      	str	r3, [r2, #0]
20000108:	f381 8810 	msr	PRIMASK, r1
2000010c:	bd10      	pop	{r4, pc}
2000010e:	46c0      	nop			; (mov r8, r8)

20000110 <mutex_try_enter>:
20000110:	0003      	movs	r3, r0
20000112:	b510      	push	{r4, lr}
20000114:	6800      	ldr	r0, [r0, #0]
20000116:	f3ef 8410 	mrs	r4, PRIMASK
2000011a:	b672      	cpsid	i
2000011c:	6802      	ldr	r2, [r0, #0]
2000011e:	2a00      	cmp	r2, #0
20000120:	d0fc      	beq.n	2000011c <mutex_try_enter+0xc>
20000122:	f3bf 8f5f 	dmb	sy
20000126:	791a      	ldrb	r2, [r3, #4]
20000128:	2a00      	cmp	r2, #0
2000012a:	d00d      	beq.n	20000148 <mutex_try_enter+0x38>
2000012c:	2900      	cmp	r1, #0
2000012e:	d013      	beq.n	20000158 <mutex_try_enter+0x48>
20000130:	2205      	movs	r2, #5
20000132:	2000      	movs	r0, #0
20000134:	569a      	ldrsb	r2, [r3, r2]
20000136:	600a      	str	r2, [r1, #0]
20000138:	681b      	ldr	r3, [r3, #0]
2000013a:	f3bf 8f5f 	dmb	sy
2000013e:	2200      	movs	r2, #0
20000140:	601a      	str	r2, [r3, #0]
20000142:	f384 8810 	msr	PRIMASK, r4
20000146:	bd10      	pop	{r4, pc}
20000148:	3201      	adds	r2, #1
2000014a:	711a      	strb	r2, [r3, #4]
2000014c:	22d0      	movs	r2, #208	; 0xd0
2000014e:	0612      	lsls	r2, r2, #24
20000150:	6812      	ldr	r2, [r2, #0]
20000152:	2001      	movs	r0, #1
20000154:	715a      	strb	r2, [r3, #5]
20000156:	e7ef      	b.n	20000138 <mutex_try_enter+0x28>
20000158:	2000      	movs	r0, #0
2000015a:	e7ed      	b.n	20000138 <mutex_try_enter+0x28>

2000015c <mutex_exit>:
2000015c:	6802      	ldr	r2, [r0, #0]
2000015e:	f3ef 8110 	mrs	r1, PRIMASK
20000162:	b672      	cpsid	i
20000164:	6813      	ldr	r3, [r2, #0]
20000166:	2b00      	cmp	r3, #0
20000168:	d0fc      	beq.n	20000164 <mutex_exit+0x8>
2000016a:	f3bf 8f5f 	dmb	sy
2000016e:	2300      	movs	r3, #0
20000170:	7103      	strb	r3, [r0, #4]
20000172:	bf40      	sev
20000174:	6802      	ldr	r2, [r0, #0]
20000176:	f3bf 8f5f 	dmb	sy
2000017a:	6013      	str	r3, [r2, #0]
2000017c:	f381 8810 	msr	PRIMASK, r1
20000180:	4770      	bx	lr
20000182:	46c0      	nop			; (mov r8, r8)

20000184 <__aeabi_idiv0>:
20000184:	4770      	bx	lr
20000186:	46c0      	nop			; (mov r8, r8)

20000188 <striped_spin_lock_num>:
20000188:	0010 0000                                   ....

2000018c <irq_handler_chain_slots>:
2000018c:	00000000 	.word	0x00000000
20000190:	00010000 	.word	0x00010000
	...
2000019c:	00020000 	.word	0x00020000
	...
200001a8:	00030000 	.word	0x00030000
	...
200001b4:	00ff0000 	.word	0x00ff0000
200001b8:	00000000 	.word	0x00000000

200001bc <irq_handler_chain_first_slot>:
200001bc:	b500      	push	{lr}
200001be:	6848      	ldr	r0, [r1, #4]
200001c0:	3101      	adds	r1, #1
200001c2:	468e      	mov	lr, r1
200001c4:	4700      	bx	r0

200001c6 <irq_handler_chain_remove_tail>:
200001c6:	4670      	mov	r0, lr
200001c8:	3809      	subs	r0, #9
200001ca:	4901      	ldr	r1, [pc, #4]	; (200001d0 <irq_handler_chain_remove_tail+0xa>)
200001cc:	4788      	blx	r1
200001ce:	bd00      	pop	{pc}
200001d0:	10001a6d 	.word	0x10001a6d
	...

200001e0 <aeabi_bits_funcs>:
200001e0:	00003350 	.word	0x00003350
200001e4:	0000334c 	.word	0x0000334c
200001e8:	00003354 	.word	0x00003354
200001ec:	00003352 	.word	0x00003352

200001f0 <aeabi_bits_funcs_end>:
200001f0:	0000534d 	.word	0x0000534d
200001f4:	0000434d 	.word	0x0000434d
200001f8:	00003453 	.word	0x00003453
200001fc:	00003443 	.word	0x00003443

20000200 <stdio_uart>:
20000200:	10004381 00000000 100043bd 00000000     .C.......C......
20000210:	00000100                                ....

20000214 <_impure_ptr>:
20000214:	20000218                                ... 

20000218 <impure_data>:
20000218:	00000000 20000504 2000056c 200005d4     ....... l.. ... 
	...
200002c0:	00000001 00000000 abcd330e e66d1234     .........3..4.m.
200002d0:	0005deec 0000000b 00000000 00000000     ................
	...

20000640 <__malloc_av_>:
	...
20000648:	20000640 20000640 20000648 20000648     @.. @.. H.. H.. 
20000658:	20000650 20000650 20000658 20000658     P.. P.. X.. X.. 
20000668:	20000660 20000660 20000668 20000668     `.. `.. h.. h.. 
20000678:	20000670 20000670 20000678 20000678     p.. p.. x.. x.. 
20000688:	20000680 20000680 20000688 20000688     ... ... ... ... 
20000698:	20000690 20000690 20000698 20000698     ... ... ... ... 
200006a8:	200006a0 200006a0 200006a8 200006a8     ... ... ... ... 
200006b8:	200006b0 200006b0 200006b8 200006b8     ... ... ... ... 
200006c8:	200006c0 200006c0 200006c8 200006c8     ... ... ... ... 
200006d8:	200006d0 200006d0 200006d8 200006d8     ... ... ... ... 
200006e8:	200006e0 200006e0 200006e8 200006e8     ... ... ... ... 
200006f8:	200006f0 200006f0 200006f8 200006f8     ... ... ... ... 
20000708:	20000700 20000700 20000708 20000708     ... ... ... ... 
20000718:	20000710 20000710 20000718 20000718     ... ... ... ... 
20000728:	20000720 20000720 20000728 20000728      ..  .. (.. (.. 
20000738:	20000730 20000730 20000738 20000738     0.. 0.. 8.. 8.. 
20000748:	20000740 20000740 20000748 20000748     @.. @.. H.. H.. 
20000758:	20000750 20000750 20000758 20000758     P.. P.. X.. X.. 
20000768:	20000760 20000760 20000768 20000768     `.. `.. h.. h.. 
20000778:	20000770 20000770 20000778 20000778     p.. p.. x.. x.. 
20000788:	20000780 20000780 20000788 20000788     ... ... ... ... 
20000798:	20000790 20000790 20000798 20000798     ... ... ... ... 
200007a8:	200007a0 200007a0 200007a8 200007a8     ... ... ... ... 
200007b8:	200007b0 200007b0 200007b8 200007b8     ... ... ... ... 
200007c8:	200007c0 200007c0 200007c8 200007c8     ... ... ... ... 
200007d8:	200007d0 200007d0 200007d8 200007d8     ... ... ... ... 
200007e8:	200007e0 200007e0 200007e8 200007e8     ... ... ... ... 
200007f8:	200007f0 200007f0 200007f8 200007f8     ... ... ... ... 
20000808:	20000800 20000800 20000808 20000808     ... ... ... ... 
20000818:	20000810 20000810 20000818 20000818     ... ... ... ... 
20000828:	20000820 20000820 20000828 20000828      ..  .. (.. (.. 
20000838:	20000830 20000830 20000838 20000838     0.. 0.. 8.. 8.. 
20000848:	20000840 20000840 20000848 20000848     @.. @.. H.. H.. 
20000858:	20000850 20000850 20000858 20000858     P.. P.. X.. X.. 
20000868:	20000860 20000860 20000868 20000868     `.. `.. h.. h.. 
20000878:	20000870 20000870 20000878 20000878     p.. p.. x.. x.. 
20000888:	20000880 20000880 20000888 20000888     ... ... ... ... 
20000898:	20000890 20000890 20000898 20000898     ... ... ... ... 
200008a8:	200008a0 200008a0 200008a8 200008a8     ... ... ... ... 
200008b8:	200008b0 200008b0 200008b8 200008b8     ... ... ... ... 
200008c8:	200008c0 200008c0 200008c8 200008c8     ... ... ... ... 
200008d8:	200008d0 200008d0 200008d8 200008d8     ... ... ... ... 
200008e8:	200008e0 200008e0 200008e8 200008e8     ... ... ... ... 
200008f8:	200008f0 200008f0 200008f8 200008f8     ... ... ... ... 
20000908:	20000900 20000900 20000908 20000908     ... ... ... ... 
20000918:	20000910 20000910 20000918 20000918     ... ... ... ... 
20000928:	20000920 20000920 20000928 20000928      ..  .. (.. (.. 
20000938:	20000930 20000930 20000938 20000938     0.. 0.. 8.. 8.. 
20000948:	20000940 20000940 20000948 20000948     @.. @.. H.. H.. 
20000958:	20000950 20000950 20000958 20000958     P.. P.. X.. X.. 
20000968:	20000960 20000960 20000968 20000968     `.. `.. h.. h.. 
20000978:	20000970 20000970 20000978 20000978     p.. p.. x.. x.. 
20000988:	20000980 20000980 20000988 20000988     ... ... ... ... 
20000998:	20000990 20000990 20000998 20000998     ... ... ... ... 
200009a8:	200009a0 200009a0 200009a8 200009a8     ... ... ... ... 
200009b8:	200009b0 200009b0 200009b8 200009b8     ... ... ... ... 
200009c8:	200009c0 200009c0 200009c8 200009c8     ... ... ... ... 
200009d8:	200009d0 200009d0 200009d8 200009d8     ... ... ... ... 
200009e8:	200009e0 200009e0 200009e8 200009e8     ... ... ... ... 
200009f8:	200009f0 200009f0 200009f8 200009f8     ... ... ... ... 
20000a08:	20000a00 20000a00 20000a08 20000a08     ... ... ... ... 
20000a18:	20000a10 20000a10 20000a18 20000a18     ... ... ... ... 
20000a28:	20000a20 20000a20 20000a28 20000a28      ..  .. (.. (.. 
20000a38:	20000a30 20000a30 20000a38 20000a38     0.. 0.. 8.. 8.. 

20000a48 <__malloc_sbrk_base>:
20000a48:	ffffffff                                ....

20000a4c <__malloc_trim_threshold>:
20000a4c:	00020000                                ....

20000a50 <print_mutex>:
	...

20000a58 <__mutex_array_end>:
20000a58:	10003fc1 	.word	0x10003fc1
20000a5c:	100031a9 	.word	0x100031a9
20000a60:	1000389d 	.word	0x1000389d
20000a64:	10003f21 	.word	0x10003f21

20000a68 <__frame_dummy_init_array_entry>:
20000a68:	10000301                                ....
