
dev_lowlevel.elf:     file format elf32-littlearm

Sections:
Idx Name          Size      VMA       LMA       File off  Algn
  0 .boot2        00000100  10000000  10000000  00010000  2**0
                  CONTENTS, ALLOC, LOAD, READONLY, DATA
  1 .text         00005c80  10000100  10000100  00010100  2**3
                  CONTENTS, ALLOC, LOAD, READONLY, CODE
  2 .rodata       000005a4  10005d80  10005d80  00015d80  2**3
                  CONTENTS, ALLOC, LOAD, READONLY, DATA
  3 .binary_info  00000024  10006324  10006324  00016324  2**2
                  CONTENTS, ALLOC, LOAD, DATA
  4 .ram_vector_table 000000c0  20000000  20000000  00020bfc  2**2
                  CONTENTS
  5 .data         00000b3c  200000c0  10006348  000200c0  2**4
                  CONTENTS, ALLOC, LOAD, CODE
  6 .uninitialized_data 00000000  20000bfc  20000bfc  00020cbc  2**0
                  CONTENTS
  7 .scratch_x    00000000  20040000  20040000  00020cbc  2**0
                  CONTENTS
  8 .scratch_y    00000000  20041000  20041000  00020cbc  2**0
                  CONTENTS
  9 .bss          00000334  20000bfc  20000bfc  00020bfc  2**2
                  ALLOC
 10 .heap         00000800  20000f30  20000f30  00020cbc  2**2
                  CONTENTS, READONLY
 11 .stack_dummy  00000800  20041000  20041000  000214c0  2**5
                  CONTENTS, READONLY
 12 .ARM.attributes 00000028  00000000  00000000  00021cc0  2**0
                  CONTENTS, READONLY
 13 .comment      00000079  00000000  00000000  00021ce8  2**0
                  CONTENTS, READONLY
 14 .debug_frame  000002ac  00000000  00000000  00021d64  2**2
                  CONTENTS, READONLY, DEBUGGING

dev_lowlevel.elf:     file format elf32-littlearm


Disassembly of section .text:

10000100 <__reset_start>:
10000100:	4827      	ldr	r0, [pc, #156]	; (100001a0 <__get_current_exception+0xa>)
10000102:	e000      	b.n	10000106 <__vector_entry>

10000104 <_entry_point>:
10000104:	2000      	movs	r0, #0

10000106 <__vector_entry>:
10000106:	4927      	ldr	r1, [pc, #156]	; (100001a4 <__get_current_exception+0xe>)
10000108:	6088      	str	r0, [r1, #8]
1000010a:	c806      	ldmia	r0!, {r1, r2}
1000010c:	f381 8808 	msr	MSP, r1
10000110:	4710      	bx	r2

10000112 <_reset_handler>:
10000112:	4825      	ldr	r0, [pc, #148]	; (100001a8 <__get_current_exception+0x12>)
10000114:	6800      	ldr	r0, [r0, #0]
10000116:	2800      	cmp	r0, #0
10000118:	d139      	bne.n	1000018e <wait_for_vector>
1000011a:	a412      	add	r4, pc, #72	; (adr r4, 10000164 <data_cpy_table>)
1000011c:	cc0e      	ldmia	r4!, {r1, r2, r3}
1000011e:	2900      	cmp	r1, #0
10000120:	d002      	beq.n	10000128 <_reset_handler+0x16>
10000122:	f000 f812 	bl	1000014a <data_cpy>
10000126:	e7f9      	b.n	1000011c <_reset_handler+0xa>
10000128:	4920      	ldr	r1, [pc, #128]	; (100001ac <__get_current_exception+0x16>)
1000012a:	4a21      	ldr	r2, [pc, #132]	; (100001b0 <__get_current_exception+0x1a>)
1000012c:	2000      	movs	r0, #0
1000012e:	e000      	b.n	10000132 <bss_fill_test>

10000130 <bss_fill_loop>:
10000130:	c101      	stmia	r1!, {r0}

10000132 <bss_fill_test>:
10000132:	4291      	cmp	r1, r2
10000134:	d1fc      	bne.n	10000130 <bss_fill_loop>

10000136 <platform_entry>:
10000136:	491f      	ldr	r1, [pc, #124]	; (100001b4 <__get_current_exception+0x1e>)
10000138:	4788      	blx	r1
1000013a:	491f      	ldr	r1, [pc, #124]	; (100001b8 <__get_current_exception+0x22>)
1000013c:	4788      	blx	r1
1000013e:	491f      	ldr	r1, [pc, #124]	; (100001bc <__get_current_exception+0x26>)
10000140:	4788      	blx	r1
10000142:	be00      	bkpt	0x0000
10000144:	e7fd      	b.n	10000142 <platform_entry+0xc>

10000146 <data_cpy_loop>:
10000146:	c901      	ldmia	r1!, {r0}
10000148:	c201      	stmia	r2!, {r0}

1000014a <data_cpy>:
1000014a:	429a      	cmp	r2, r3
1000014c:	d3fb      	bcc.n	10000146 <data_cpy_loop>
1000014e:	4770      	bx	lr

10000150 <binary_info_header>:
10000150:	7188ebf2 	.word	0x7188ebf2
10000154:	10006324 	.word	0x10006324
10000158:	10006348 	.word	0x10006348
1000015c:	10000164 	.word	0x10000164
10000160:	e71aa390 	.word	0xe71aa390

10000164 <data_cpy_table>:
10000164:	10006348 	.word	0x10006348
10000168:	200000c0 	.word	0x200000c0
1000016c:	20000bfc 	.word	0x20000bfc
10000170:	10006e84 	.word	0x10006e84
10000174:	20040000 	.word	0x20040000
10000178:	20040000 	.word	0x20040000
1000017c:	10006e84 	.word	0x10006e84
10000180:	20041000 	.word	0x20041000
10000184:	20041000 	.word	0x20041000
10000188:	00000000 	.word	0x00000000
1000018c:	4770      	bx	lr

1000018e <wait_for_vector>:
1000018e:	480c      	ldr	r0, [pc, #48]	; (100001c0 <__get_current_exception+0x2a>)
10000190:	f004 f804 	bl	1000419c <rom_func_lookup>
10000194:	4700      	bx	r0

10000196 <__get_current_exception>:
10000196:	f3ef 8005 	mrs	r0, IPSR
1000019a:	b2c0      	uxtb	r0, r0
1000019c:	4770      	bx	lr
1000019e:	0000      	.short	0x0000
100001a0:	10000200 	.word	0x10000200
100001a4:	e000ed00 	.word	0xe000ed00
100001a8:	d0000000 	.word	0xd0000000
100001ac:	20000bfc 	.word	0x20000bfc
100001b0:	20000f30 	.word	0x20000f30
100001b4:	1000232d 	.word	0x1000232d
100001b8:	10001589 	.word	0x10001589
100001bc:	1000244d 	.word	0x1000244d
100001c0:	00005657 	.word	0x00005657

100001c4 <__bi_46>:
100001c4:	50520006 5360b3ab 10006290              ..RP..`S.b..

100001d0 <__bi_34>:
100001d0:	50520006 02031c86 100062a0              ..RP.....b..

100001dc <__bi_26>:
100001dc:	50520006 9da22254 100062b0              ..RPT"...b..

100001e8 <__bi_18>:
100001e8:	50520005 68f465de 10006e84 00000000     ..RP.e.h.n......
	...

10000200 <__reset_end>:
10000200:	20042000 	.word	0x20042000
10000204:	10000113 	.word	0x10000113
10000208:	100002c3 	.word	0x100002c3
1000020c:	100002c5 	.word	0x100002c5
10000210:	100002c1 	.word	0x100002c1
10000214:	100002c1 	.word	0x100002c1
10000218:	100002c1 	.word	0x100002c1
1000021c:	100002c1 	.word	0x100002c1
10000220:	100002c1 	.word	0x100002c1
10000224:	100002c1 	.word	0x100002c1
10000228:	100002c1 	.word	0x100002c1
1000022c:	100002c7 	.word	0x100002c7
10000230:	100002c1 	.word	0x100002c1
10000234:	100002c1 	.word	0x100002c1
10000238:	100002c9 	.word	0x100002c9
1000023c:	100002cb 	.word	0x100002cb
10000240:	100002cd 	.word	0x100002cd
10000244:	100002cd 	.word	0x100002cd
10000248:	100002cd 	.word	0x100002cd
1000024c:	100002cd 	.word	0x100002cd
10000250:	100002cd 	.word	0x100002cd
10000254:	1000142d 	.word	0x1000142d
10000258:	100002cd 	.word	0x100002cd
1000025c:	100002cd 	.word	0x100002cd
10000260:	100002cd 	.word	0x100002cd
10000264:	100002cd 	.word	0x100002cd
10000268:	100002cd 	.word	0x100002cd
1000026c:	100002cd 	.word	0x100002cd
10000270:	100002cd 	.word	0x100002cd
10000274:	100002cd 	.word	0x100002cd
10000278:	100002cd 	.word	0x100002cd
1000027c:	100002cd 	.word	0x100002cd
10000280:	100002cd 	.word	0x100002cd
10000284:	100002cd 	.word	0x100002cd
10000288:	100002cd 	.word	0x100002cd
1000028c:	100002cd 	.word	0x100002cd
10000290:	100002cd 	.word	0x100002cd
10000294:	100002cd 	.word	0x100002cd
10000298:	100002cd 	.word	0x100002cd
1000029c:	100002cd 	.word	0x100002cd
100002a0:	100002cd 	.word	0x100002cd
100002a4:	100002cd 	.word	0x100002cd
100002a8:	100002cd 	.word	0x100002cd
100002ac:	100002cd 	.word	0x100002cd
100002b0:	100002cd 	.word	0x100002cd
100002b4:	100002cd 	.word	0x100002cd
100002b8:	100002cd 	.word	0x100002cd
100002bc:	100002cd 	.word	0x100002cd

100002c0 <isr_invalid>:
100002c0:	be00      	bkpt	0x0000

100002c2 <isr_nmi>:
100002c2:	be00      	bkpt	0x0000

100002c4 <isr_hardfault>:
100002c4:	be00      	bkpt	0x0000

100002c6 <isr_svcall>:
100002c6:	be00      	bkpt	0x0000

100002c8 <isr_pendsv>:
100002c8:	be00      	bkpt	0x0000

100002ca <isr_systick>:
100002ca:	be00      	bkpt	0x0000

100002cc <__unhandled_user_irq>:
100002cc:	f7ff ff63 	bl	10000196 <__get_current_exception>
100002d0:	3810      	subs	r0, #16

100002d2 <unhandled_user_irq_num_in_r0>:
100002d2:	be00      	bkpt	0x0000

100002d4 <_init>:
100002d4:	b5f8      	push	{r3, r4, r5, r6, r7, lr}
100002d6:	46c0      	nop			; (mov r8, r8)

100002d8 <__do_global_dtors_aux>:
100002d8:	b510      	push	{r4, lr}
100002da:	4c06      	ldr	r4, [pc, #24]	; (100002f4 <__do_global_dtors_aux+0x1c>)
100002dc:	7823      	ldrb	r3, [r4, #0]
100002de:	2b00      	cmp	r3, #0
100002e0:	d107      	bne.n	100002f2 <__do_global_dtors_aux+0x1a>
100002e2:	4b05      	ldr	r3, [pc, #20]	; (100002f8 <__do_global_dtors_aux+0x20>)
100002e4:	2b00      	cmp	r3, #0
100002e6:	d002      	beq.n	100002ee <__do_global_dtors_aux+0x16>
100002e8:	4804      	ldr	r0, [pc, #16]	; (100002fc <__do_global_dtors_aux+0x24>)
100002ea:	e000      	b.n	100002ee <__do_global_dtors_aux+0x16>
100002ec:	bf00      	nop
100002ee:	2301      	movs	r3, #1
100002f0:	7023      	strb	r3, [r4, #0]
100002f2:	bd10      	pop	{r4, pc}
100002f4:	20000bfc 	.word	0x20000bfc
100002f8:	00000000 	.word	0x00000000
100002fc:	10005d80 	.word	0x10005d80

10000300 <frame_dummy>:
10000300:	4b04      	ldr	r3, [pc, #16]	; (10000314 <frame_dummy+0x14>)
10000302:	b510      	push	{r4, lr}
10000304:	2b00      	cmp	r3, #0
10000306:	d003      	beq.n	10000310 <frame_dummy+0x10>
10000308:	4903      	ldr	r1, [pc, #12]	; (10000318 <frame_dummy+0x18>)
1000030a:	4804      	ldr	r0, [pc, #16]	; (1000031c <frame_dummy+0x1c>)
1000030c:	e000      	b.n	10000310 <frame_dummy+0x10>
1000030e:	bf00      	nop
10000310:	bd10      	pop	{r4, pc}
10000312:	46c0      	nop			; (mov r8, r8)
10000314:	00000000 	.word	0x00000000
10000318:	20000c00 	.word	0x20000c00
1000031c:	10005d80 	.word	0x10005d80

10000320 <ep0_out_handler>:
10000320:	4770      	bx	lr
10000322:	46c0      	nop			; (mov r8, r8)

10000324 <ep2_in_handler>:
10000324:	b510      	push	{r4, lr}
10000326:	4862      	ldr	r0, [pc, #392]	; (100004b0 <ep2_in_handler+0x18c>)
10000328:	f005 f80c 	bl	10005344 <__wrap_printf>
1000032c:	4c61      	ldr	r4, [pc, #388]	; (100004b4 <ep2_in_handler+0x190>)
1000032e:	6962      	ldr	r2, [r4, #20]
10000330:	2a00      	cmp	r2, #0
10000332:	d003      	beq.n	1000033c <ep2_in_handler+0x18>
10000334:	7892      	ldrb	r2, [r2, #2]
10000336:	2a01      	cmp	r2, #1
10000338:	d100      	bne.n	1000033c <ep2_in_handler+0x18>
1000033a:	e0a5      	b.n	10000488 <ep2_in_handler+0x164>
1000033c:	6ae2      	ldr	r2, [r4, #44]	; 0x2c
1000033e:	2a00      	cmp	r2, #0
10000340:	d003      	beq.n	1000034a <ep2_in_handler+0x26>
10000342:	7892      	ldrb	r2, [r2, #2]
10000344:	2a01      	cmp	r2, #1
10000346:	d100      	bne.n	1000034a <ep2_in_handler+0x26>
10000348:	e0a0      	b.n	1000048c <ep2_in_handler+0x168>
1000034a:	6c62      	ldr	r2, [r4, #68]	; 0x44
1000034c:	2a00      	cmp	r2, #0
1000034e:	d003      	beq.n	10000358 <ep2_in_handler+0x34>
10000350:	7892      	ldrb	r2, [r2, #2]
10000352:	2a01      	cmp	r2, #1
10000354:	d100      	bne.n	10000358 <ep2_in_handler+0x34>
10000356:	e09b      	b.n	10000490 <ep2_in_handler+0x16c>
10000358:	6de2      	ldr	r2, [r4, #92]	; 0x5c
1000035a:	2a00      	cmp	r2, #0
1000035c:	d003      	beq.n	10000366 <ep2_in_handler+0x42>
1000035e:	7892      	ldrb	r2, [r2, #2]
10000360:	2a01      	cmp	r2, #1
10000362:	d100      	bne.n	10000366 <ep2_in_handler+0x42>
10000364:	e096      	b.n	10000494 <ep2_in_handler+0x170>
10000366:	6f62      	ldr	r2, [r4, #116]	; 0x74
10000368:	2a00      	cmp	r2, #0
1000036a:	d003      	beq.n	10000374 <ep2_in_handler+0x50>
1000036c:	7892      	ldrb	r2, [r2, #2]
1000036e:	2a01      	cmp	r2, #1
10000370:	d100      	bne.n	10000374 <ep2_in_handler+0x50>
10000372:	e091      	b.n	10000498 <ep2_in_handler+0x174>
10000374:	228c      	movs	r2, #140	; 0x8c
10000376:	58a2      	ldr	r2, [r4, r2]
10000378:	2a00      	cmp	r2, #0
1000037a:	d003      	beq.n	10000384 <ep2_in_handler+0x60>
1000037c:	7892      	ldrb	r2, [r2, #2]
1000037e:	2a01      	cmp	r2, #1
10000380:	d100      	bne.n	10000384 <ep2_in_handler+0x60>
10000382:	e08b      	b.n	1000049c <ep2_in_handler+0x178>
10000384:	22a4      	movs	r2, #164	; 0xa4
10000386:	58a2      	ldr	r2, [r4, r2]
10000388:	2a00      	cmp	r2, #0
1000038a:	d003      	beq.n	10000394 <ep2_in_handler+0x70>
1000038c:	7892      	ldrb	r2, [r2, #2]
1000038e:	2a01      	cmp	r2, #1
10000390:	d100      	bne.n	10000394 <ep2_in_handler+0x70>
10000392:	e085      	b.n	100004a0 <ep2_in_handler+0x17c>
10000394:	22bc      	movs	r2, #188	; 0xbc
10000396:	58a2      	ldr	r2, [r4, r2]
10000398:	2a00      	cmp	r2, #0
1000039a:	d003      	beq.n	100003a4 <ep2_in_handler+0x80>
1000039c:	7892      	ldrb	r2, [r2, #2]
1000039e:	2a01      	cmp	r2, #1
100003a0:	d100      	bne.n	100003a4 <ep2_in_handler+0x80>
100003a2:	e07f      	b.n	100004a4 <ep2_in_handler+0x180>
100003a4:	22d4      	movs	r2, #212	; 0xd4
100003a6:	58a2      	ldr	r2, [r4, r2]
100003a8:	2a00      	cmp	r2, #0
100003aa:	d002      	beq.n	100003b2 <ep2_in_handler+0x8e>
100003ac:	7892      	ldrb	r2, [r2, #2]
100003ae:	2a01      	cmp	r2, #1
100003b0:	d057      	beq.n	10000462 <ep2_in_handler+0x13e>
100003b2:	22ec      	movs	r2, #236	; 0xec
100003b4:	58a2      	ldr	r2, [r4, r2]
100003b6:	2a00      	cmp	r2, #0
100003b8:	d002      	beq.n	100003c0 <ep2_in_handler+0x9c>
100003ba:	7892      	ldrb	r2, [r2, #2]
100003bc:	2a01      	cmp	r2, #1
100003be:	d052      	beq.n	10000466 <ep2_in_handler+0x142>
100003c0:	2282      	movs	r2, #130	; 0x82
100003c2:	0052      	lsls	r2, r2, #1
100003c4:	58a2      	ldr	r2, [r4, r2]
100003c6:	2a00      	cmp	r2, #0
100003c8:	d002      	beq.n	100003d0 <ep2_in_handler+0xac>
100003ca:	7892      	ldrb	r2, [r2, #2]
100003cc:	2a01      	cmp	r2, #1
100003ce:	d04c      	beq.n	1000046a <ep2_in_handler+0x146>
100003d0:	228e      	movs	r2, #142	; 0x8e
100003d2:	0052      	lsls	r2, r2, #1
100003d4:	58a2      	ldr	r2, [r4, r2]
100003d6:	2a00      	cmp	r2, #0
100003d8:	d002      	beq.n	100003e0 <ep2_in_handler+0xbc>
100003da:	7892      	ldrb	r2, [r2, #2]
100003dc:	2a01      	cmp	r2, #1
100003de:	d047      	beq.n	10000470 <ep2_in_handler+0x14c>
100003e0:	229a      	movs	r2, #154	; 0x9a
100003e2:	0052      	lsls	r2, r2, #1
100003e4:	58a2      	ldr	r2, [r4, r2]
100003e6:	2a00      	cmp	r2, #0
100003e8:	d002      	beq.n	100003f0 <ep2_in_handler+0xcc>
100003ea:	7892      	ldrb	r2, [r2, #2]
100003ec:	2a01      	cmp	r2, #1
100003ee:	d042      	beq.n	10000476 <ep2_in_handler+0x152>
100003f0:	22a6      	movs	r2, #166	; 0xa6
100003f2:	0052      	lsls	r2, r2, #1
100003f4:	58a2      	ldr	r2, [r4, r2]
100003f6:	2a00      	cmp	r2, #0
100003f8:	d002      	beq.n	10000400 <ep2_in_handler+0xdc>
100003fa:	7892      	ldrb	r2, [r2, #2]
100003fc:	2a01      	cmp	r2, #1
100003fe:	d03d      	beq.n	1000047c <ep2_in_handler+0x158>
10000400:	22b2      	movs	r2, #178	; 0xb2
10000402:	0052      	lsls	r2, r2, #1
10000404:	58a2      	ldr	r2, [r4, r2]
10000406:	2a00      	cmp	r2, #0
10000408:	d002      	beq.n	10000410 <ep2_in_handler+0xec>
1000040a:	7892      	ldrb	r2, [r2, #2]
1000040c:	2a01      	cmp	r2, #1
1000040e:	d038      	beq.n	10000482 <ep2_in_handler+0x15e>
10000410:	22be      	movs	r2, #190	; 0xbe
10000412:	0052      	lsls	r2, r2, #1
10000414:	58a2      	ldr	r2, [r4, r2]
10000416:	2a00      	cmp	r2, #0
10000418:	d046      	beq.n	100004a8 <ep2_in_handler+0x184>
1000041a:	7892      	ldrb	r2, [r2, #2]
1000041c:	347d      	adds	r4, #125	; 0x7d
1000041e:	34ff      	adds	r4, #255	; 0xff
10000420:	2a01      	cmp	r2, #1
10000422:	d141      	bne.n	100004a8 <ep2_in_handler+0x184>
10000424:	2201      	movs	r2, #1
10000426:	2140      	movs	r1, #64	; 0x40
10000428:	4823      	ldr	r0, [pc, #140]	; (100004b8 <ep2_in_handler+0x194>)
1000042a:	f004 ff8b 	bl	10005344 <__wrap_printf>
1000042e:	6823      	ldr	r3, [r4, #0]
10000430:	789b      	ldrb	r3, [r3, #2]
10000432:	2b7f      	cmp	r3, #127	; 0x7f
10000434:	d80d      	bhi.n	10000452 <ep2_in_handler+0x12e>
10000436:	2291      	movs	r2, #145	; 0x91
10000438:	2188      	movs	r1, #136	; 0x88
1000043a:	0192      	lsls	r2, r2, #6
1000043c:	00c9      	lsls	r1, r1, #3
1000043e:	7d23      	ldrb	r3, [r4, #20]
10000440:	2b00      	cmp	r3, #0
10000442:	d100      	bne.n	10000446 <ep2_in_handler+0x122>
10000444:	000a      	movs	r2, r1
10000446:	2101      	movs	r1, #1
10000448:	404b      	eors	r3, r1
1000044a:	7523      	strb	r3, [r4, #20]
1000044c:	68e3      	ldr	r3, [r4, #12]
1000044e:	601a      	str	r2, [r3, #0]
10000450:	bd10      	pop	{r4, pc}
10000452:	2240      	movs	r2, #64	; 0x40
10000454:	2100      	movs	r1, #0
10000456:	6920      	ldr	r0, [r4, #16]
10000458:	f004 fdb2 	bl	10004fc0 <__wrap___aeabi_memcpy>
1000045c:	4a17      	ldr	r2, [pc, #92]	; (100004bc <ep2_in_handler+0x198>)
1000045e:	4918      	ldr	r1, [pc, #96]	; (100004c0 <ep2_in_handler+0x19c>)
10000460:	e7ed      	b.n	1000043e <ep2_in_handler+0x11a>
10000462:	34d4      	adds	r4, #212	; 0xd4
10000464:	e7de      	b.n	10000424 <ep2_in_handler+0x100>
10000466:	34ec      	adds	r4, #236	; 0xec
10000468:	e7dc      	b.n	10000424 <ep2_in_handler+0x100>
1000046a:	3405      	adds	r4, #5
1000046c:	34ff      	adds	r4, #255	; 0xff
1000046e:	e7d9      	b.n	10000424 <ep2_in_handler+0x100>
10000470:	341d      	adds	r4, #29
10000472:	34ff      	adds	r4, #255	; 0xff
10000474:	e7d6      	b.n	10000424 <ep2_in_handler+0x100>
10000476:	3435      	adds	r4, #53	; 0x35
10000478:	34ff      	adds	r4, #255	; 0xff
1000047a:	e7d3      	b.n	10000424 <ep2_in_handler+0x100>
1000047c:	344d      	adds	r4, #77	; 0x4d
1000047e:	34ff      	adds	r4, #255	; 0xff
10000480:	e7d0      	b.n	10000424 <ep2_in_handler+0x100>
10000482:	3465      	adds	r4, #101	; 0x65
10000484:	34ff      	adds	r4, #255	; 0xff
10000486:	e7cd      	b.n	10000424 <ep2_in_handler+0x100>
10000488:	3414      	adds	r4, #20
1000048a:	e7cb      	b.n	10000424 <ep2_in_handler+0x100>
1000048c:	342c      	adds	r4, #44	; 0x2c
1000048e:	e7c9      	b.n	10000424 <ep2_in_handler+0x100>
10000490:	3444      	adds	r4, #68	; 0x44
10000492:	e7c7      	b.n	10000424 <ep2_in_handler+0x100>
10000494:	345c      	adds	r4, #92	; 0x5c
10000496:	e7c5      	b.n	10000424 <ep2_in_handler+0x100>
10000498:	3474      	adds	r4, #116	; 0x74
1000049a:	e7c3      	b.n	10000424 <ep2_in_handler+0x100>
1000049c:	348c      	adds	r4, #140	; 0x8c
1000049e:	e7c1      	b.n	10000424 <ep2_in_handler+0x100>
100004a0:	34a4      	adds	r4, #164	; 0xa4
100004a2:	e7bf      	b.n	10000424 <ep2_in_handler+0x100>
100004a4:	34bc      	adds	r4, #188	; 0xbc
100004a6:	e7bd      	b.n	10000424 <ep2_in_handler+0x100>
100004a8:	2300      	movs	r3, #0
100004aa:	681b      	ldr	r3, [r3, #0]
100004ac:	deff      	udf	#255	; 0xff
100004ae:	46c0      	nop			; (mov r8, r8)
100004b0:	10005d80 	.word	0x10005d80
100004b4:	20000190 	.word	0x20000190
100004b8:	10005d98 	.word	0x10005d98
100004bc:	0000a440 	.word	0x0000a440
100004c0:	00008440 	.word	0x00008440

100004c4 <ep1_out_handler>:
100004c4:	b570      	push	{r4, r5, r6, lr}
100004c6:	0006      	movs	r6, r0
100004c8:	4863      	ldr	r0, [pc, #396]	; (10000658 <ep1_out_handler+0x194>)
100004ca:	000d      	movs	r5, r1
100004cc:	f004 ff3a 	bl	10005344 <__wrap_printf>
100004d0:	4c62      	ldr	r4, [pc, #392]	; (1000065c <ep1_out_handler+0x198>)
100004d2:	6962      	ldr	r2, [r4, #20]
100004d4:	2a00      	cmp	r2, #0
100004d6:	d003      	beq.n	100004e0 <ep1_out_handler+0x1c>
100004d8:	7892      	ldrb	r2, [r2, #2]
100004da:	2a82      	cmp	r2, #130	; 0x82
100004dc:	d100      	bne.n	100004e0 <ep1_out_handler+0x1c>
100004de:	e0a7      	b.n	10000630 <ep1_out_handler+0x16c>
100004e0:	6ae2      	ldr	r2, [r4, #44]	; 0x2c
100004e2:	2a00      	cmp	r2, #0
100004e4:	d003      	beq.n	100004ee <ep1_out_handler+0x2a>
100004e6:	7892      	ldrb	r2, [r2, #2]
100004e8:	2a82      	cmp	r2, #130	; 0x82
100004ea:	d100      	bne.n	100004ee <ep1_out_handler+0x2a>
100004ec:	e0a2      	b.n	10000634 <ep1_out_handler+0x170>
100004ee:	6c62      	ldr	r2, [r4, #68]	; 0x44
100004f0:	2a00      	cmp	r2, #0
100004f2:	d003      	beq.n	100004fc <ep1_out_handler+0x38>
100004f4:	7892      	ldrb	r2, [r2, #2]
100004f6:	2a82      	cmp	r2, #130	; 0x82
100004f8:	d100      	bne.n	100004fc <ep1_out_handler+0x38>
100004fa:	e09d      	b.n	10000638 <ep1_out_handler+0x174>
100004fc:	6de2      	ldr	r2, [r4, #92]	; 0x5c
100004fe:	2a00      	cmp	r2, #0
10000500:	d003      	beq.n	1000050a <ep1_out_handler+0x46>
10000502:	7892      	ldrb	r2, [r2, #2]
10000504:	2a82      	cmp	r2, #130	; 0x82
10000506:	d100      	bne.n	1000050a <ep1_out_handler+0x46>
10000508:	e098      	b.n	1000063c <ep1_out_handler+0x178>
1000050a:	6f62      	ldr	r2, [r4, #116]	; 0x74
1000050c:	2a00      	cmp	r2, #0
1000050e:	d003      	beq.n	10000518 <ep1_out_handler+0x54>
10000510:	7892      	ldrb	r2, [r2, #2]
10000512:	2a82      	cmp	r2, #130	; 0x82
10000514:	d100      	bne.n	10000518 <ep1_out_handler+0x54>
10000516:	e093      	b.n	10000640 <ep1_out_handler+0x17c>
10000518:	228c      	movs	r2, #140	; 0x8c
1000051a:	58a2      	ldr	r2, [r4, r2]
1000051c:	2a00      	cmp	r2, #0
1000051e:	d003      	beq.n	10000528 <ep1_out_handler+0x64>
10000520:	7892      	ldrb	r2, [r2, #2]
10000522:	2a82      	cmp	r2, #130	; 0x82
10000524:	d100      	bne.n	10000528 <ep1_out_handler+0x64>
10000526:	e08d      	b.n	10000644 <ep1_out_handler+0x180>
10000528:	22a4      	movs	r2, #164	; 0xa4
1000052a:	58a2      	ldr	r2, [r4, r2]
1000052c:	2a00      	cmp	r2, #0
1000052e:	d003      	beq.n	10000538 <ep1_out_handler+0x74>
10000530:	7892      	ldrb	r2, [r2, #2]
10000532:	2a82      	cmp	r2, #130	; 0x82
10000534:	d100      	bne.n	10000538 <ep1_out_handler+0x74>
10000536:	e087      	b.n	10000648 <ep1_out_handler+0x184>
10000538:	22bc      	movs	r2, #188	; 0xbc
1000053a:	58a2      	ldr	r2, [r4, r2]
1000053c:	2a00      	cmp	r2, #0
1000053e:	d003      	beq.n	10000548 <ep1_out_handler+0x84>
10000540:	7892      	ldrb	r2, [r2, #2]
10000542:	2a82      	cmp	r2, #130	; 0x82
10000544:	d100      	bne.n	10000548 <ep1_out_handler+0x84>
10000546:	e081      	b.n	1000064c <ep1_out_handler+0x188>
10000548:	22d4      	movs	r2, #212	; 0xd4
1000054a:	58a2      	ldr	r2, [r4, r2]
1000054c:	2a00      	cmp	r2, #0
1000054e:	d002      	beq.n	10000556 <ep1_out_handler+0x92>
10000550:	7892      	ldrb	r2, [r2, #2]
10000552:	2a82      	cmp	r2, #130	; 0x82
10000554:	d059      	beq.n	1000060a <ep1_out_handler+0x146>
10000556:	22ec      	movs	r2, #236	; 0xec
10000558:	58a2      	ldr	r2, [r4, r2]
1000055a:	2a00      	cmp	r2, #0
1000055c:	d002      	beq.n	10000564 <ep1_out_handler+0xa0>
1000055e:	7892      	ldrb	r2, [r2, #2]
10000560:	2a82      	cmp	r2, #130	; 0x82
10000562:	d054      	beq.n	1000060e <ep1_out_handler+0x14a>
10000564:	2282      	movs	r2, #130	; 0x82
10000566:	0052      	lsls	r2, r2, #1
10000568:	58a2      	ldr	r2, [r4, r2]
1000056a:	2a00      	cmp	r2, #0
1000056c:	d002      	beq.n	10000574 <ep1_out_handler+0xb0>
1000056e:	7892      	ldrb	r2, [r2, #2]
10000570:	2a82      	cmp	r2, #130	; 0x82
10000572:	d04e      	beq.n	10000612 <ep1_out_handler+0x14e>
10000574:	228e      	movs	r2, #142	; 0x8e
10000576:	0052      	lsls	r2, r2, #1
10000578:	58a2      	ldr	r2, [r4, r2]
1000057a:	2a00      	cmp	r2, #0
1000057c:	d002      	beq.n	10000584 <ep1_out_handler+0xc0>
1000057e:	7892      	ldrb	r2, [r2, #2]
10000580:	2a82      	cmp	r2, #130	; 0x82
10000582:	d049      	beq.n	10000618 <ep1_out_handler+0x154>
10000584:	229a      	movs	r2, #154	; 0x9a
10000586:	0052      	lsls	r2, r2, #1
10000588:	58a2      	ldr	r2, [r4, r2]
1000058a:	2a00      	cmp	r2, #0
1000058c:	d002      	beq.n	10000594 <ep1_out_handler+0xd0>
1000058e:	7892      	ldrb	r2, [r2, #2]
10000590:	2a82      	cmp	r2, #130	; 0x82
10000592:	d044      	beq.n	1000061e <ep1_out_handler+0x15a>
10000594:	22a6      	movs	r2, #166	; 0xa6
10000596:	0052      	lsls	r2, r2, #1
10000598:	58a2      	ldr	r2, [r4, r2]
1000059a:	2a00      	cmp	r2, #0
1000059c:	d002      	beq.n	100005a4 <ep1_out_handler+0xe0>
1000059e:	7892      	ldrb	r2, [r2, #2]
100005a0:	2a82      	cmp	r2, #130	; 0x82
100005a2:	d03f      	beq.n	10000624 <ep1_out_handler+0x160>
100005a4:	22b2      	movs	r2, #178	; 0xb2
100005a6:	0052      	lsls	r2, r2, #1
100005a8:	58a2      	ldr	r2, [r4, r2]
100005aa:	2a00      	cmp	r2, #0
100005ac:	d002      	beq.n	100005b4 <ep1_out_handler+0xf0>
100005ae:	7892      	ldrb	r2, [r2, #2]
100005b0:	2a82      	cmp	r2, #130	; 0x82
100005b2:	d03a      	beq.n	1000062a <ep1_out_handler+0x166>
100005b4:	22be      	movs	r2, #190	; 0xbe
100005b6:	0052      	lsls	r2, r2, #1
100005b8:	58a2      	ldr	r2, [r4, r2]
100005ba:	2a00      	cmp	r2, #0
100005bc:	d048      	beq.n	10000650 <ep1_out_handler+0x18c>
100005be:	7892      	ldrb	r2, [r2, #2]
100005c0:	347d      	adds	r4, #125	; 0x7d
100005c2:	34ff      	adds	r4, #255	; 0xff
100005c4:	2a82      	cmp	r2, #130	; 0x82
100005c6:	d143      	bne.n	10000650 <ep1_out_handler+0x18c>
100005c8:	2282      	movs	r2, #130	; 0x82
100005ca:	0029      	movs	r1, r5
100005cc:	4824      	ldr	r0, [pc, #144]	; (10000660 <ep1_out_handler+0x19c>)
100005ce:	f004 feb9 	bl	10005344 <__wrap_printf>
100005d2:	6823      	ldr	r3, [r4, #0]
100005d4:	789b      	ldrb	r3, [r3, #2]
100005d6:	2b7f      	cmp	r3, #127	; 0x7f
100005d8:	d80e      	bhi.n	100005f8 <ep1_out_handler+0x134>
100005da:	2180      	movs	r1, #128	; 0x80
100005dc:	00c9      	lsls	r1, r1, #3
100005de:	4329      	orrs	r1, r5
100005e0:	7d23      	ldrb	r3, [r4, #20]
100005e2:	2b00      	cmp	r3, #0
100005e4:	d002      	beq.n	100005ec <ep1_out_handler+0x128>
100005e6:	2280      	movs	r2, #128	; 0x80
100005e8:	0192      	lsls	r2, r2, #6
100005ea:	4311      	orrs	r1, r2
100005ec:	2201      	movs	r2, #1
100005ee:	4053      	eors	r3, r2
100005f0:	7523      	strb	r3, [r4, #20]
100005f2:	68e3      	ldr	r3, [r4, #12]
100005f4:	6019      	str	r1, [r3, #0]
100005f6:	bd70      	pop	{r4, r5, r6, pc}
100005f8:	0031      	movs	r1, r6
100005fa:	002a      	movs	r2, r5
100005fc:	6920      	ldr	r0, [r4, #16]
100005fe:	f004 fcdf 	bl	10004fc0 <__wrap___aeabi_memcpy>
10000602:	2184      	movs	r1, #132	; 0x84
10000604:	0209      	lsls	r1, r1, #8
10000606:	4329      	orrs	r1, r5
10000608:	e7ea      	b.n	100005e0 <ep1_out_handler+0x11c>
1000060a:	34d4      	adds	r4, #212	; 0xd4
1000060c:	e7dc      	b.n	100005c8 <ep1_out_handler+0x104>
1000060e:	34ec      	adds	r4, #236	; 0xec
10000610:	e7da      	b.n	100005c8 <ep1_out_handler+0x104>
10000612:	3405      	adds	r4, #5
10000614:	34ff      	adds	r4, #255	; 0xff
10000616:	e7d7      	b.n	100005c8 <ep1_out_handler+0x104>
10000618:	341d      	adds	r4, #29
1000061a:	34ff      	adds	r4, #255	; 0xff
1000061c:	e7d4      	b.n	100005c8 <ep1_out_handler+0x104>
1000061e:	3435      	adds	r4, #53	; 0x35
10000620:	34ff      	adds	r4, #255	; 0xff
10000622:	e7d1      	b.n	100005c8 <ep1_out_handler+0x104>
10000624:	344d      	adds	r4, #77	; 0x4d
10000626:	34ff      	adds	r4, #255	; 0xff
10000628:	e7ce      	b.n	100005c8 <ep1_out_handler+0x104>
1000062a:	3465      	adds	r4, #101	; 0x65
1000062c:	34ff      	adds	r4, #255	; 0xff
1000062e:	e7cb      	b.n	100005c8 <ep1_out_handler+0x104>
10000630:	3414      	adds	r4, #20
10000632:	e7c9      	b.n	100005c8 <ep1_out_handler+0x104>
10000634:	342c      	adds	r4, #44	; 0x2c
10000636:	e7c7      	b.n	100005c8 <ep1_out_handler+0x104>
10000638:	3444      	adds	r4, #68	; 0x44
1000063a:	e7c5      	b.n	100005c8 <ep1_out_handler+0x104>
1000063c:	345c      	adds	r4, #92	; 0x5c
1000063e:	e7c3      	b.n	100005c8 <ep1_out_handler+0x104>
10000640:	3474      	adds	r4, #116	; 0x74
10000642:	e7c1      	b.n	100005c8 <ep1_out_handler+0x104>
10000644:	348c      	adds	r4, #140	; 0x8c
10000646:	e7bf      	b.n	100005c8 <ep1_out_handler+0x104>
10000648:	34a4      	adds	r4, #164	; 0xa4
1000064a:	e7bd      	b.n	100005c8 <ep1_out_handler+0x104>
1000064c:	34bc      	adds	r4, #188	; 0xbc
1000064e:	e7bb      	b.n	100005c8 <ep1_out_handler+0x104>
10000650:	2300      	movs	r3, #0
10000652:	681b      	ldr	r3, [r3, #0]
10000654:	deff      	udf	#255	; 0xff
10000656:	46c0      	nop			; (mov r8, r8)
10000658:	10005dc4 	.word	0x10005dc4
1000065c:	20000190 	.word	0x20000190
10000660:	10005d98 	.word	0x10005d98

10000664 <ep0_in_handler>:
10000664:	4b62      	ldr	r3, [pc, #392]	; (100007f0 <ep0_in_handler+0x18c>)
10000666:	b510      	push	{r4, lr}
10000668:	781a      	ldrb	r2, [r3, #0]
1000066a:	2a00      	cmp	r2, #0
1000066c:	d006      	beq.n	1000067c <ep0_in_handler+0x18>
1000066e:	4a61      	ldr	r2, [pc, #388]	; (100007f4 <ep0_in_handler+0x190>)
10000670:	7811      	ldrb	r1, [r2, #0]
10000672:	4a61      	ldr	r2, [pc, #388]	; (100007f8 <ep0_in_handler+0x194>)
10000674:	6011      	str	r1, [r2, #0]
10000676:	2200      	movs	r2, #0
10000678:	701a      	strb	r2, [r3, #0]
1000067a:	bd10      	pop	{r4, pc}
1000067c:	4c5f      	ldr	r4, [pc, #380]	; (100007fc <ep0_in_handler+0x198>)
1000067e:	6962      	ldr	r2, [r4, #20]
10000680:	2a00      	cmp	r2, #0
10000682:	d003      	beq.n	1000068c <ep0_in_handler+0x28>
10000684:	7892      	ldrb	r2, [r2, #2]
10000686:	2a00      	cmp	r2, #0
10000688:	d100      	bne.n	1000068c <ep0_in_handler+0x28>
1000068a:	e091      	b.n	100007b0 <ep0_in_handler+0x14c>
1000068c:	6ae2      	ldr	r2, [r4, #44]	; 0x2c
1000068e:	2a00      	cmp	r2, #0
10000690:	d003      	beq.n	1000069a <ep0_in_handler+0x36>
10000692:	7892      	ldrb	r2, [r2, #2]
10000694:	2a00      	cmp	r2, #0
10000696:	d100      	bne.n	1000069a <ep0_in_handler+0x36>
10000698:	e08c      	b.n	100007b4 <ep0_in_handler+0x150>
1000069a:	6c62      	ldr	r2, [r4, #68]	; 0x44
1000069c:	2a00      	cmp	r2, #0
1000069e:	d003      	beq.n	100006a8 <ep0_in_handler+0x44>
100006a0:	7892      	ldrb	r2, [r2, #2]
100006a2:	2a00      	cmp	r2, #0
100006a4:	d100      	bne.n	100006a8 <ep0_in_handler+0x44>
100006a6:	e087      	b.n	100007b8 <ep0_in_handler+0x154>
100006a8:	6de2      	ldr	r2, [r4, #92]	; 0x5c
100006aa:	2a00      	cmp	r2, #0
100006ac:	d003      	beq.n	100006b6 <ep0_in_handler+0x52>
100006ae:	7892      	ldrb	r2, [r2, #2]
100006b0:	2a00      	cmp	r2, #0
100006b2:	d100      	bne.n	100006b6 <ep0_in_handler+0x52>
100006b4:	e082      	b.n	100007bc <ep0_in_handler+0x158>
100006b6:	6f62      	ldr	r2, [r4, #116]	; 0x74
100006b8:	2a00      	cmp	r2, #0
100006ba:	d002      	beq.n	100006c2 <ep0_in_handler+0x5e>
100006bc:	7892      	ldrb	r2, [r2, #2]
100006be:	2a00      	cmp	r2, #0
100006c0:	d07e      	beq.n	100007c0 <ep0_in_handler+0x15c>
100006c2:	228c      	movs	r2, #140	; 0x8c
100006c4:	58a2      	ldr	r2, [r4, r2]
100006c6:	2a00      	cmp	r2, #0
100006c8:	d002      	beq.n	100006d0 <ep0_in_handler+0x6c>
100006ca:	7892      	ldrb	r2, [r2, #2]
100006cc:	2a00      	cmp	r2, #0
100006ce:	d079      	beq.n	100007c4 <ep0_in_handler+0x160>
100006d0:	22a4      	movs	r2, #164	; 0xa4
100006d2:	58a2      	ldr	r2, [r4, r2]
100006d4:	2a00      	cmp	r2, #0
100006d6:	d002      	beq.n	100006de <ep0_in_handler+0x7a>
100006d8:	7892      	ldrb	r2, [r2, #2]
100006da:	2a00      	cmp	r2, #0
100006dc:	d074      	beq.n	100007c8 <ep0_in_handler+0x164>
100006de:	22bc      	movs	r2, #188	; 0xbc
100006e0:	58a2      	ldr	r2, [r4, r2]
100006e2:	2a00      	cmp	r2, #0
100006e4:	d002      	beq.n	100006ec <ep0_in_handler+0x88>
100006e6:	7892      	ldrb	r2, [r2, #2]
100006e8:	2a00      	cmp	r2, #0
100006ea:	d06f      	beq.n	100007cc <ep0_in_handler+0x168>
100006ec:	22d4      	movs	r2, #212	; 0xd4
100006ee:	58a2      	ldr	r2, [r4, r2]
100006f0:	2a00      	cmp	r2, #0
100006f2:	d002      	beq.n	100006fa <ep0_in_handler+0x96>
100006f4:	7892      	ldrb	r2, [r2, #2]
100006f6:	2a00      	cmp	r2, #0
100006f8:	d06a      	beq.n	100007d0 <ep0_in_handler+0x16c>
100006fa:	22ec      	movs	r2, #236	; 0xec
100006fc:	58a2      	ldr	r2, [r4, r2]
100006fe:	2a00      	cmp	r2, #0
10000700:	d002      	beq.n	10000708 <ep0_in_handler+0xa4>
10000702:	7892      	ldrb	r2, [r2, #2]
10000704:	2a00      	cmp	r2, #0
10000706:	d065      	beq.n	100007d4 <ep0_in_handler+0x170>
10000708:	2282      	movs	r2, #130	; 0x82
1000070a:	0052      	lsls	r2, r2, #1
1000070c:	58a2      	ldr	r2, [r4, r2]
1000070e:	2a00      	cmp	r2, #0
10000710:	d002      	beq.n	10000718 <ep0_in_handler+0xb4>
10000712:	7892      	ldrb	r2, [r2, #2]
10000714:	2a00      	cmp	r2, #0
10000716:	d05f      	beq.n	100007d8 <ep0_in_handler+0x174>
10000718:	228e      	movs	r2, #142	; 0x8e
1000071a:	0052      	lsls	r2, r2, #1
1000071c:	58a2      	ldr	r2, [r4, r2]
1000071e:	2a00      	cmp	r2, #0
10000720:	d002      	beq.n	10000728 <ep0_in_handler+0xc4>
10000722:	7892      	ldrb	r2, [r2, #2]
10000724:	2a00      	cmp	r2, #0
10000726:	d05a      	beq.n	100007de <ep0_in_handler+0x17a>
10000728:	229a      	movs	r2, #154	; 0x9a
1000072a:	0052      	lsls	r2, r2, #1
1000072c:	58a2      	ldr	r2, [r4, r2]
1000072e:	2a00      	cmp	r2, #0
10000730:	d002      	beq.n	10000738 <ep0_in_handler+0xd4>
10000732:	7892      	ldrb	r2, [r2, #2]
10000734:	2a00      	cmp	r2, #0
10000736:	d055      	beq.n	100007e4 <ep0_in_handler+0x180>
10000738:	22a6      	movs	r2, #166	; 0xa6
1000073a:	0052      	lsls	r2, r2, #1
1000073c:	58a2      	ldr	r2, [r4, r2]
1000073e:	2a00      	cmp	r2, #0
10000740:	d002      	beq.n	10000748 <ep0_in_handler+0xe4>
10000742:	7892      	ldrb	r2, [r2, #2]
10000744:	2a00      	cmp	r2, #0
10000746:	d028      	beq.n	1000079a <ep0_in_handler+0x136>
10000748:	22b2      	movs	r2, #178	; 0xb2
1000074a:	0052      	lsls	r2, r2, #1
1000074c:	58a2      	ldr	r2, [r4, r2]
1000074e:	2a00      	cmp	r2, #0
10000750:	d002      	beq.n	10000758 <ep0_in_handler+0xf4>
10000752:	7892      	ldrb	r2, [r2, #2]
10000754:	2a00      	cmp	r2, #0
10000756:	d023      	beq.n	100007a0 <ep0_in_handler+0x13c>
10000758:	22be      	movs	r2, #190	; 0xbe
1000075a:	0052      	lsls	r2, r2, #1
1000075c:	58a2      	ldr	r2, [r4, r2]
1000075e:	2a00      	cmp	r2, #0
10000760:	d043      	beq.n	100007ea <ep0_in_handler+0x186>
10000762:	7892      	ldrb	r2, [r2, #2]
10000764:	347d      	adds	r4, #125	; 0x7d
10000766:	34ff      	adds	r4, #255	; 0xff
10000768:	2a00      	cmp	r2, #0
1000076a:	d13e      	bne.n	100007ea <ep0_in_handler+0x186>
1000076c:	2200      	movs	r2, #0
1000076e:	2100      	movs	r1, #0
10000770:	4823      	ldr	r0, [pc, #140]	; (10000800 <ep0_in_handler+0x19c>)
10000772:	f004 fde7 	bl	10005344 <__wrap_printf>
10000776:	6823      	ldr	r3, [r4, #0]
10000778:	789b      	ldrb	r3, [r3, #2]
1000077a:	2b7f      	cmp	r3, #127	; 0x7f
1000077c:	d813      	bhi.n	100007a6 <ep0_in_handler+0x142>
1000077e:	2190      	movs	r1, #144	; 0x90
10000780:	2280      	movs	r2, #128	; 0x80
10000782:	0189      	lsls	r1, r1, #6
10000784:	00d2      	lsls	r2, r2, #3
10000786:	7d23      	ldrb	r3, [r4, #20]
10000788:	2b00      	cmp	r3, #0
1000078a:	d100      	bne.n	1000078e <ep0_in_handler+0x12a>
1000078c:	0011      	movs	r1, r2
1000078e:	2201      	movs	r2, #1
10000790:	4053      	eors	r3, r2
10000792:	7523      	strb	r3, [r4, #20]
10000794:	68e3      	ldr	r3, [r4, #12]
10000796:	6019      	str	r1, [r3, #0]
10000798:	e76f      	b.n	1000067a <ep0_in_handler+0x16>
1000079a:	344d      	adds	r4, #77	; 0x4d
1000079c:	34ff      	adds	r4, #255	; 0xff
1000079e:	e7e5      	b.n	1000076c <ep0_in_handler+0x108>
100007a0:	3465      	adds	r4, #101	; 0x65
100007a2:	34ff      	adds	r4, #255	; 0xff
100007a4:	e7e2      	b.n	1000076c <ep0_in_handler+0x108>
100007a6:	21a4      	movs	r1, #164	; 0xa4
100007a8:	2284      	movs	r2, #132	; 0x84
100007aa:	0209      	lsls	r1, r1, #8
100007ac:	0212      	lsls	r2, r2, #8
100007ae:	e7ea      	b.n	10000786 <ep0_in_handler+0x122>
100007b0:	3414      	adds	r4, #20
100007b2:	e7db      	b.n	1000076c <ep0_in_handler+0x108>
100007b4:	342c      	adds	r4, #44	; 0x2c
100007b6:	e7d9      	b.n	1000076c <ep0_in_handler+0x108>
100007b8:	3444      	adds	r4, #68	; 0x44
100007ba:	e7d7      	b.n	1000076c <ep0_in_handler+0x108>
100007bc:	345c      	adds	r4, #92	; 0x5c
100007be:	e7d5      	b.n	1000076c <ep0_in_handler+0x108>
100007c0:	3474      	adds	r4, #116	; 0x74
100007c2:	e7d3      	b.n	1000076c <ep0_in_handler+0x108>
100007c4:	348c      	adds	r4, #140	; 0x8c
100007c6:	e7d1      	b.n	1000076c <ep0_in_handler+0x108>
100007c8:	34a4      	adds	r4, #164	; 0xa4
100007ca:	e7cf      	b.n	1000076c <ep0_in_handler+0x108>
100007cc:	34bc      	adds	r4, #188	; 0xbc
100007ce:	e7cd      	b.n	1000076c <ep0_in_handler+0x108>
100007d0:	34d4      	adds	r4, #212	; 0xd4
100007d2:	e7cb      	b.n	1000076c <ep0_in_handler+0x108>
100007d4:	34ec      	adds	r4, #236	; 0xec
100007d6:	e7c9      	b.n	1000076c <ep0_in_handler+0x108>
100007d8:	3405      	adds	r4, #5
100007da:	34ff      	adds	r4, #255	; 0xff
100007dc:	e7c6      	b.n	1000076c <ep0_in_handler+0x108>
100007de:	341d      	adds	r4, #29
100007e0:	34ff      	adds	r4, #255	; 0xff
100007e2:	e7c3      	b.n	1000076c <ep0_in_handler+0x108>
100007e4:	3435      	adds	r4, #53	; 0x35
100007e6:	34ff      	adds	r4, #255	; 0xff
100007e8:	e7c0      	b.n	1000076c <ep0_in_handler+0x108>
100007ea:	2300      	movs	r3, #0
100007ec:	681b      	ldr	r3, [r3, #0]
100007ee:	deff      	udf	#255	; 0xff
100007f0:	20000cfc 	.word	0x20000cfc
100007f4:	20000cfa 	.word	0x20000cfa
100007f8:	50110000 	.word	0x50110000
100007fc:	20000190 	.word	0x20000190
10000800:	10005d98 	.word	0x10005d98

10000804 <usb_device_init>:
10000804:	2280      	movs	r2, #128	; 0x80
10000806:	b5f0      	push	{r4, r5, r6, r7, lr}
10000808:	46c6      	mov	lr, r8
1000080a:	4b26      	ldr	r3, [pc, #152]	; (100008a4 <usb_device_init+0xa0>)
1000080c:	0452      	lsls	r2, r2, #17
1000080e:	b500      	push	{lr}
10000810:	601a      	str	r2, [r3, #0]
10000812:	4b25      	ldr	r3, [pc, #148]	; (100008a8 <usb_device_init+0xa4>)
10000814:	4925      	ldr	r1, [pc, #148]	; (100008ac <usb_device_init+0xa8>)
10000816:	601a      	str	r2, [r3, #0]
10000818:	0010      	movs	r0, r2
1000081a:	688b      	ldr	r3, [r1, #8]
1000081c:	4398      	bics	r0, r3
1000081e:	d1fb      	bne.n	10000818 <usb_device_init+0x14>
10000820:	2280      	movs	r2, #128	; 0x80
10000822:	2100      	movs	r1, #0
10000824:	0152      	lsls	r2, r2, #5
10000826:	4822      	ldr	r0, [pc, #136]	; (100008b0 <usb_device_init+0xac>)
10000828:	f004 fbc4 	bl	10004fb4 <__wrap_memset>
1000082c:	2101      	movs	r1, #1
1000082e:	2005      	movs	r0, #5
10000830:	f001 ffe8 	bl	10002804 <irq_set_enabled>
10000834:	2209      	movs	r2, #9
10000836:	4b1f      	ldr	r3, [pc, #124]	; (100008b4 <usb_device_init+0xb0>)
10000838:	491f      	ldr	r1, [pc, #124]	; (100008b8 <usb_device_init+0xb4>)
1000083a:	675a      	str	r2, [r3, #116]	; 0x74
1000083c:	3203      	adds	r2, #3
1000083e:	679a      	str	r2, [r3, #120]	; 0x78
10000840:	3a0b      	subs	r2, #11
10000842:	641a      	str	r2, [r3, #64]	; 0x40
10000844:	2280      	movs	r2, #128	; 0x80
10000846:	0592      	lsls	r2, r2, #22
10000848:	64da      	str	r2, [r3, #76]	; 0x4c
1000084a:	2290      	movs	r2, #144	; 0x90
1000084c:	4c1b      	ldr	r4, [pc, #108]	; (100008bc <usb_device_init+0xb8>)
1000084e:	5099      	str	r1, [r3, r2]
10000850:	0025      	movs	r5, r4
10000852:	4b17      	ldr	r3, [pc, #92]	; (100008b0 <usb_device_init+0xac>)
10000854:	27a0      	movs	r7, #160	; 0xa0
10000856:	4698      	mov	r8, r3
10000858:	3581      	adds	r5, #129	; 0x81
1000085a:	4e19      	ldr	r6, [pc, #100]	; (100008c0 <usb_device_init+0xbc>)
1000085c:	35ff      	adds	r5, #255	; 0xff
1000085e:	063f      	lsls	r7, r7, #24
10000860:	6963      	ldr	r3, [r4, #20]
10000862:	2b00      	cmp	r3, #0
10000864:	d013      	beq.n	1000088e <usb_device_init+0x8a>
10000866:	69a2      	ldr	r2, [r4, #24]
10000868:	2a00      	cmp	r2, #0
1000086a:	d010      	beq.n	1000088e <usb_device_init+0x8a>
1000086c:	7899      	ldrb	r1, [r3, #2]
1000086e:	0030      	movs	r0, r6
10000870:	6a62      	ldr	r2, [r4, #36]	; 0x24
10000872:	f004 fd67 	bl	10005344 <__wrap_printf>
10000876:	69e1      	ldr	r1, [r4, #28]
10000878:	2900      	cmp	r1, #0
1000087a:	d008      	beq.n	1000088e <usb_device_init+0x8a>
1000087c:	4642      	mov	r2, r8
1000087e:	6963      	ldr	r3, [r4, #20]
10000880:	6a60      	ldr	r0, [r4, #36]	; 0x24
10000882:	78db      	ldrb	r3, [r3, #3]
10000884:	4042      	eors	r2, r0
10000886:	069b      	lsls	r3, r3, #26
10000888:	4313      	orrs	r3, r2
1000088a:	433b      	orrs	r3, r7
1000088c:	600b      	str	r3, [r1, #0]
1000088e:	3418      	adds	r4, #24
10000890:	42ac      	cmp	r4, r5
10000892:	d1e5      	bne.n	10000860 <usb_device_init+0x5c>
10000894:	2280      	movs	r2, #128	; 0x80
10000896:	4b0b      	ldr	r3, [pc, #44]	; (100008c4 <usb_device_init+0xc0>)
10000898:	0252      	lsls	r2, r2, #9
1000089a:	64da      	str	r2, [r3, #76]	; 0x4c
1000089c:	bc04      	pop	{r2}
1000089e:	4690      	mov	r8, r2
100008a0:	bdf0      	pop	{r4, r5, r6, r7, pc}
100008a2:	46c0      	nop			; (mov r8, r8)
100008a4:	4000e000 	.word	0x4000e000
100008a8:	4000f000 	.word	0x4000f000
100008ac:	4000c000 	.word	0x4000c000
100008b0:	50100000 	.word	0x50100000
100008b4:	50110000 	.word	0x50110000
100008b8:	00011010 	.word	0x00011010
100008bc:	20000190 	.word	0x20000190
100008c0:	10005ddc 	.word	0x10005ddc
100008c4:	50112000 	.word	0x50112000

100008c8 <usb_start_transfer>:
100008c8:	b570      	push	{r4, r5, r6, lr}
100008ca:	0014      	movs	r4, r2
100008cc:	0005      	movs	r5, r0
100008ce:	6803      	ldr	r3, [r0, #0]
100008d0:	000e      	movs	r6, r1
100008d2:	789a      	ldrb	r2, [r3, #2]
100008d4:	0021      	movs	r1, r4
100008d6:	480f      	ldr	r0, [pc, #60]	; (10000914 <usb_start_transfer+0x4c>)
100008d8:	f004 fd34 	bl	10005344 <__wrap_printf>
100008dc:	682b      	ldr	r3, [r5, #0]
100008de:	789b      	ldrb	r3, [r3, #2]
100008e0:	2b7f      	cmp	r3, #127	; 0x7f
100008e2:	d80e      	bhi.n	10000902 <usb_start_transfer+0x3a>
100008e4:	2280      	movs	r2, #128	; 0x80
100008e6:	00d2      	lsls	r2, r2, #3
100008e8:	4314      	orrs	r4, r2
100008ea:	7d2b      	ldrb	r3, [r5, #20]
100008ec:	2b00      	cmp	r3, #0
100008ee:	d002      	beq.n	100008f6 <usb_start_transfer+0x2e>
100008f0:	2280      	movs	r2, #128	; 0x80
100008f2:	0192      	lsls	r2, r2, #6
100008f4:	4314      	orrs	r4, r2
100008f6:	2201      	movs	r2, #1
100008f8:	4053      	eors	r3, r2
100008fa:	752b      	strb	r3, [r5, #20]
100008fc:	68eb      	ldr	r3, [r5, #12]
100008fe:	601c      	str	r4, [r3, #0]
10000900:	bd70      	pop	{r4, r5, r6, pc}
10000902:	0022      	movs	r2, r4
10000904:	0031      	movs	r1, r6
10000906:	6928      	ldr	r0, [r5, #16]
10000908:	f004 fb5a 	bl	10004fc0 <__wrap___aeabi_memcpy>
1000090c:	2284      	movs	r2, #132	; 0x84
1000090e:	0212      	lsls	r2, r2, #8
10000910:	4314      	orrs	r4, r2
10000912:	e7ea      	b.n	100008ea <usb_start_transfer+0x22>
10000914:	10005d98 	.word	0x10005d98

10000918 <usb_handle_device_descriptor>:
10000918:	4b68      	ldr	r3, [pc, #416]	; (10000abc <usb_handle_device_descriptor+0x1a4>)
1000091a:	b570      	push	{r4, r5, r6, lr}
1000091c:	695a      	ldr	r2, [r3, #20]
1000091e:	2a00      	cmp	r2, #0
10000920:	d003      	beq.n	1000092a <usb_handle_device_descriptor+0x12>
10000922:	7892      	ldrb	r2, [r2, #2]
10000924:	2a80      	cmp	r2, #128	; 0x80
10000926:	d100      	bne.n	1000092a <usb_handle_device_descriptor+0x12>
10000928:	e0ad      	b.n	10000a86 <usb_handle_device_descriptor+0x16e>
1000092a:	6ada      	ldr	r2, [r3, #44]	; 0x2c
1000092c:	2a00      	cmp	r2, #0
1000092e:	d003      	beq.n	10000938 <usb_handle_device_descriptor+0x20>
10000930:	7892      	ldrb	r2, [r2, #2]
10000932:	2a80      	cmp	r2, #128	; 0x80
10000934:	d100      	bne.n	10000938 <usb_handle_device_descriptor+0x20>
10000936:	e0a9      	b.n	10000a8c <usb_handle_device_descriptor+0x174>
10000938:	6c5a      	ldr	r2, [r3, #68]	; 0x44
1000093a:	2a00      	cmp	r2, #0
1000093c:	d003      	beq.n	10000946 <usb_handle_device_descriptor+0x2e>
1000093e:	7892      	ldrb	r2, [r2, #2]
10000940:	2a80      	cmp	r2, #128	; 0x80
10000942:	d100      	bne.n	10000946 <usb_handle_device_descriptor+0x2e>
10000944:	e0a5      	b.n	10000a92 <usb_handle_device_descriptor+0x17a>
10000946:	6dda      	ldr	r2, [r3, #92]	; 0x5c
10000948:	2a00      	cmp	r2, #0
1000094a:	d003      	beq.n	10000954 <usb_handle_device_descriptor+0x3c>
1000094c:	7892      	ldrb	r2, [r2, #2]
1000094e:	2a80      	cmp	r2, #128	; 0x80
10000950:	d100      	bne.n	10000954 <usb_handle_device_descriptor+0x3c>
10000952:	e0a1      	b.n	10000a98 <usb_handle_device_descriptor+0x180>
10000954:	6f5a      	ldr	r2, [r3, #116]	; 0x74
10000956:	2a00      	cmp	r2, #0
10000958:	d003      	beq.n	10000962 <usb_handle_device_descriptor+0x4a>
1000095a:	7892      	ldrb	r2, [r2, #2]
1000095c:	2a80      	cmp	r2, #128	; 0x80
1000095e:	d100      	bne.n	10000962 <usb_handle_device_descriptor+0x4a>
10000960:	e09d      	b.n	10000a9e <usb_handle_device_descriptor+0x186>
10000962:	228c      	movs	r2, #140	; 0x8c
10000964:	589a      	ldr	r2, [r3, r2]
10000966:	2a00      	cmp	r2, #0
10000968:	d003      	beq.n	10000972 <usb_handle_device_descriptor+0x5a>
1000096a:	7892      	ldrb	r2, [r2, #2]
1000096c:	2a80      	cmp	r2, #128	; 0x80
1000096e:	d100      	bne.n	10000972 <usb_handle_device_descriptor+0x5a>
10000970:	e098      	b.n	10000aa4 <usb_handle_device_descriptor+0x18c>
10000972:	22a4      	movs	r2, #164	; 0xa4
10000974:	589a      	ldr	r2, [r3, r2]
10000976:	2a00      	cmp	r2, #0
10000978:	d003      	beq.n	10000982 <usb_handle_device_descriptor+0x6a>
1000097a:	7892      	ldrb	r2, [r2, #2]
1000097c:	2a80      	cmp	r2, #128	; 0x80
1000097e:	d100      	bne.n	10000982 <usb_handle_device_descriptor+0x6a>
10000980:	e093      	b.n	10000aaa <usb_handle_device_descriptor+0x192>
10000982:	22bc      	movs	r2, #188	; 0xbc
10000984:	589a      	ldr	r2, [r3, r2]
10000986:	2a00      	cmp	r2, #0
10000988:	d003      	beq.n	10000992 <usb_handle_device_descriptor+0x7a>
1000098a:	7892      	ldrb	r2, [r2, #2]
1000098c:	2a80      	cmp	r2, #128	; 0x80
1000098e:	d100      	bne.n	10000992 <usb_handle_device_descriptor+0x7a>
10000990:	e08e      	b.n	10000ab0 <usb_handle_device_descriptor+0x198>
10000992:	22d4      	movs	r2, #212	; 0xd4
10000994:	589a      	ldr	r2, [r3, r2]
10000996:	2a00      	cmp	r2, #0
10000998:	d002      	beq.n	100009a0 <usb_handle_device_descriptor+0x88>
1000099a:	7892      	ldrb	r2, [r2, #2]
1000099c:	2a80      	cmp	r2, #128	; 0x80
1000099e:	d059      	beq.n	10000a54 <usb_handle_device_descriptor+0x13c>
100009a0:	22ec      	movs	r2, #236	; 0xec
100009a2:	589a      	ldr	r2, [r3, r2]
100009a4:	2a00      	cmp	r2, #0
100009a6:	d002      	beq.n	100009ae <usb_handle_device_descriptor+0x96>
100009a8:	7892      	ldrb	r2, [r2, #2]
100009aa:	2a80      	cmp	r2, #128	; 0x80
100009ac:	d055      	beq.n	10000a5a <usb_handle_device_descriptor+0x142>
100009ae:	2282      	movs	r2, #130	; 0x82
100009b0:	0052      	lsls	r2, r2, #1
100009b2:	589a      	ldr	r2, [r3, r2]
100009b4:	2a00      	cmp	r2, #0
100009b6:	d002      	beq.n	100009be <usb_handle_device_descriptor+0xa6>
100009b8:	7892      	ldrb	r2, [r2, #2]
100009ba:	2a80      	cmp	r2, #128	; 0x80
100009bc:	d050      	beq.n	10000a60 <usb_handle_device_descriptor+0x148>
100009be:	228e      	movs	r2, #142	; 0x8e
100009c0:	0052      	lsls	r2, r2, #1
100009c2:	589a      	ldr	r2, [r3, r2]
100009c4:	2a00      	cmp	r2, #0
100009c6:	d002      	beq.n	100009ce <usb_handle_device_descriptor+0xb6>
100009c8:	7892      	ldrb	r2, [r2, #2]
100009ca:	2a80      	cmp	r2, #128	; 0x80
100009cc:	d04b      	beq.n	10000a66 <usb_handle_device_descriptor+0x14e>
100009ce:	229a      	movs	r2, #154	; 0x9a
100009d0:	0052      	lsls	r2, r2, #1
100009d2:	589a      	ldr	r2, [r3, r2]
100009d4:	2a00      	cmp	r2, #0
100009d6:	d002      	beq.n	100009de <usb_handle_device_descriptor+0xc6>
100009d8:	7892      	ldrb	r2, [r2, #2]
100009da:	2a80      	cmp	r2, #128	; 0x80
100009dc:	d047      	beq.n	10000a6e <usb_handle_device_descriptor+0x156>
100009de:	22a6      	movs	r2, #166	; 0xa6
100009e0:	0052      	lsls	r2, r2, #1
100009e2:	589a      	ldr	r2, [r3, r2]
100009e4:	2a00      	cmp	r2, #0
100009e6:	d002      	beq.n	100009ee <usb_handle_device_descriptor+0xd6>
100009e8:	7892      	ldrb	r2, [r2, #2]
100009ea:	2a80      	cmp	r2, #128	; 0x80
100009ec:	d043      	beq.n	10000a76 <usb_handle_device_descriptor+0x15e>
100009ee:	22b2      	movs	r2, #178	; 0xb2
100009f0:	0052      	lsls	r2, r2, #1
100009f2:	589a      	ldr	r2, [r3, r2]
100009f4:	2a00      	cmp	r2, #0
100009f6:	d002      	beq.n	100009fe <usb_handle_device_descriptor+0xe6>
100009f8:	7892      	ldrb	r2, [r2, #2]
100009fa:	2a80      	cmp	r2, #128	; 0x80
100009fc:	d03f      	beq.n	10000a7e <usb_handle_device_descriptor+0x166>
100009fe:	22be      	movs	r2, #190	; 0xbe
10000a00:	0052      	lsls	r2, r2, #1
10000a02:	589a      	ldr	r2, [r3, r2]
10000a04:	2a00      	cmp	r2, #0
10000a06:	d056      	beq.n	10000ab6 <usb_handle_device_descriptor+0x19e>
10000a08:	001c      	movs	r4, r3
10000a0a:	7892      	ldrb	r2, [r2, #2]
10000a0c:	347d      	adds	r4, #125	; 0x7d
10000a0e:	34ff      	adds	r4, #255	; 0xff
10000a10:	2a80      	cmp	r2, #128	; 0x80
10000a12:	d150      	bne.n	10000ab6 <usb_handle_device_descriptor+0x19e>
10000a14:	681d      	ldr	r5, [r3, #0]
10000a16:	2301      	movs	r3, #1
10000a18:	2280      	movs	r2, #128	; 0x80
10000a1a:	7523      	strb	r3, [r4, #20]
10000a1c:	2112      	movs	r1, #18
10000a1e:	4828      	ldr	r0, [pc, #160]	; (10000ac0 <usb_handle_device_descriptor+0x1a8>)
10000a20:	f004 fc90 	bl	10005344 <__wrap_printf>
10000a24:	6823      	ldr	r3, [r4, #0]
10000a26:	789b      	ldrb	r3, [r3, #2]
10000a28:	2b7f      	cmp	r3, #127	; 0x7f
10000a2a:	d80b      	bhi.n	10000a44 <usb_handle_device_descriptor+0x12c>
10000a2c:	4a25      	ldr	r2, [pc, #148]	; (10000ac4 <usb_handle_device_descriptor+0x1ac>)
10000a2e:	4926      	ldr	r1, [pc, #152]	; (10000ac8 <usb_handle_device_descriptor+0x1b0>)
10000a30:	7d23      	ldrb	r3, [r4, #20]
10000a32:	2b00      	cmp	r3, #0
10000a34:	d100      	bne.n	10000a38 <usb_handle_device_descriptor+0x120>
10000a36:	000a      	movs	r2, r1
10000a38:	2101      	movs	r1, #1
10000a3a:	404b      	eors	r3, r1
10000a3c:	7523      	strb	r3, [r4, #20]
10000a3e:	68e3      	ldr	r3, [r4, #12]
10000a40:	601a      	str	r2, [r3, #0]
10000a42:	bd70      	pop	{r4, r5, r6, pc}
10000a44:	2212      	movs	r2, #18
10000a46:	0029      	movs	r1, r5
10000a48:	6920      	ldr	r0, [r4, #16]
10000a4a:	f004 fab9 	bl	10004fc0 <__wrap___aeabi_memcpy>
10000a4e:	4a1f      	ldr	r2, [pc, #124]	; (10000acc <usb_handle_device_descriptor+0x1b4>)
10000a50:	491f      	ldr	r1, [pc, #124]	; (10000ad0 <usb_handle_device_descriptor+0x1b8>)
10000a52:	e7ed      	b.n	10000a30 <usb_handle_device_descriptor+0x118>
10000a54:	001c      	movs	r4, r3
10000a56:	34d4      	adds	r4, #212	; 0xd4
10000a58:	e7dc      	b.n	10000a14 <usb_handle_device_descriptor+0xfc>
10000a5a:	001c      	movs	r4, r3
10000a5c:	34ec      	adds	r4, #236	; 0xec
10000a5e:	e7d9      	b.n	10000a14 <usb_handle_device_descriptor+0xfc>
10000a60:	1d5c      	adds	r4, r3, #5
10000a62:	34ff      	adds	r4, #255	; 0xff
10000a64:	e7d6      	b.n	10000a14 <usb_handle_device_descriptor+0xfc>
10000a66:	001c      	movs	r4, r3
10000a68:	341d      	adds	r4, #29
10000a6a:	34ff      	adds	r4, #255	; 0xff
10000a6c:	e7d2      	b.n	10000a14 <usb_handle_device_descriptor+0xfc>
10000a6e:	001c      	movs	r4, r3
10000a70:	3435      	adds	r4, #53	; 0x35
10000a72:	34ff      	adds	r4, #255	; 0xff
10000a74:	e7ce      	b.n	10000a14 <usb_handle_device_descriptor+0xfc>
10000a76:	001c      	movs	r4, r3
10000a78:	344d      	adds	r4, #77	; 0x4d
10000a7a:	34ff      	adds	r4, #255	; 0xff
10000a7c:	e7ca      	b.n	10000a14 <usb_handle_device_descriptor+0xfc>
10000a7e:	001c      	movs	r4, r3
10000a80:	3465      	adds	r4, #101	; 0x65
10000a82:	34ff      	adds	r4, #255	; 0xff
10000a84:	e7c6      	b.n	10000a14 <usb_handle_device_descriptor+0xfc>
10000a86:	001c      	movs	r4, r3
10000a88:	3414      	adds	r4, #20
10000a8a:	e7c3      	b.n	10000a14 <usb_handle_device_descriptor+0xfc>
10000a8c:	001c      	movs	r4, r3
10000a8e:	342c      	adds	r4, #44	; 0x2c
10000a90:	e7c0      	b.n	10000a14 <usb_handle_device_descriptor+0xfc>
10000a92:	001c      	movs	r4, r3
10000a94:	3444      	adds	r4, #68	; 0x44
10000a96:	e7bd      	b.n	10000a14 <usb_handle_device_descriptor+0xfc>
10000a98:	001c      	movs	r4, r3
10000a9a:	345c      	adds	r4, #92	; 0x5c
10000a9c:	e7ba      	b.n	10000a14 <usb_handle_device_descriptor+0xfc>
10000a9e:	001c      	movs	r4, r3
10000aa0:	3474      	adds	r4, #116	; 0x74
10000aa2:	e7b7      	b.n	10000a14 <usb_handle_device_descriptor+0xfc>
10000aa4:	001c      	movs	r4, r3
10000aa6:	348c      	adds	r4, #140	; 0x8c
10000aa8:	e7b4      	b.n	10000a14 <usb_handle_device_descriptor+0xfc>
10000aaa:	001c      	movs	r4, r3
10000aac:	34a4      	adds	r4, #164	; 0xa4
10000aae:	e7b1      	b.n	10000a14 <usb_handle_device_descriptor+0xfc>
10000ab0:	001c      	movs	r4, r3
10000ab2:	34bc      	adds	r4, #188	; 0xbc
10000ab4:	e7ae      	b.n	10000a14 <usb_handle_device_descriptor+0xfc>
10000ab6:	2300      	movs	r3, #0
10000ab8:	751b      	strb	r3, [r3, #20]
10000aba:	deff      	udf	#255	; 0xff
10000abc:	20000190 	.word	0x20000190
10000ac0:	10005d98 	.word	0x10005d98
10000ac4:	00002412 	.word	0x00002412
10000ac8:	00000412 	.word	0x00000412
10000acc:	0000a412 	.word	0x0000a412
10000ad0:	00008412 	.word	0x00008412

10000ad4 <usb_handle_config_descriptor>:
10000ad4:	b5f0      	push	{r4, r5, r6, r7, lr}
10000ad6:	46c6      	mov	lr, r8
10000ad8:	0005      	movs	r5, r0
10000ada:	4c7c      	ldr	r4, [pc, #496]	; (10000ccc <usb_handle_config_descriptor+0x1f8>)
10000adc:	4f7c      	ldr	r7, [pc, #496]	; (10000cd0 <usb_handle_config_descriptor+0x1fc>)
10000ade:	68a6      	ldr	r6, [r4, #8]
10000ae0:	2209      	movs	r2, #9
10000ae2:	0031      	movs	r1, r6
10000ae4:	0038      	movs	r0, r7
10000ae6:	b500      	push	{lr}
10000ae8:	f004 fa6a 	bl	10004fc0 <__wrap___aeabi_memcpy>
10000aec:	79ab      	ldrb	r3, [r5, #6]
10000aee:	79ea      	ldrb	r2, [r5, #7]
10000af0:	78b1      	ldrb	r1, [r6, #2]
10000af2:	0212      	lsls	r2, r2, #8
10000af4:	431a      	orrs	r2, r3
10000af6:	78f3      	ldrb	r3, [r6, #3]
10000af8:	003e      	movs	r6, r7
10000afa:	021b      	lsls	r3, r3, #8
10000afc:	430b      	orrs	r3, r1
10000afe:	3609      	adds	r6, #9
10000b00:	429a      	cmp	r2, r3
10000b02:	d300      	bcc.n	10000b06 <usb_handle_config_descriptor+0x32>
10000b04:	e09a      	b.n	10000c3c <usb_handle_config_descriptor+0x168>
10000b06:	6963      	ldr	r3, [r4, #20]
10000b08:	2b00      	cmp	r3, #0
10000b0a:	d003      	beq.n	10000b14 <usb_handle_config_descriptor+0x40>
10000b0c:	789b      	ldrb	r3, [r3, #2]
10000b0e:	2b80      	cmp	r3, #128	; 0x80
10000b10:	d100      	bne.n	10000b14 <usb_handle_config_descriptor+0x40>
10000b12:	e0c7      	b.n	10000ca4 <usb_handle_config_descriptor+0x1d0>
10000b14:	6ae3      	ldr	r3, [r4, #44]	; 0x2c
10000b16:	2b00      	cmp	r3, #0
10000b18:	d003      	beq.n	10000b22 <usb_handle_config_descriptor+0x4e>
10000b1a:	789b      	ldrb	r3, [r3, #2]
10000b1c:	2b80      	cmp	r3, #128	; 0x80
10000b1e:	d100      	bne.n	10000b22 <usb_handle_config_descriptor+0x4e>
10000b20:	e0c2      	b.n	10000ca8 <usb_handle_config_descriptor+0x1d4>
10000b22:	6c63      	ldr	r3, [r4, #68]	; 0x44
10000b24:	2b00      	cmp	r3, #0
10000b26:	d003      	beq.n	10000b30 <usb_handle_config_descriptor+0x5c>
10000b28:	789b      	ldrb	r3, [r3, #2]
10000b2a:	2b80      	cmp	r3, #128	; 0x80
10000b2c:	d100      	bne.n	10000b30 <usb_handle_config_descriptor+0x5c>
10000b2e:	e0bd      	b.n	10000cac <usb_handle_config_descriptor+0x1d8>
10000b30:	6de3      	ldr	r3, [r4, #92]	; 0x5c
10000b32:	2b00      	cmp	r3, #0
10000b34:	d003      	beq.n	10000b3e <usb_handle_config_descriptor+0x6a>
10000b36:	789b      	ldrb	r3, [r3, #2]
10000b38:	2b80      	cmp	r3, #128	; 0x80
10000b3a:	d100      	bne.n	10000b3e <usb_handle_config_descriptor+0x6a>
10000b3c:	e0b8      	b.n	10000cb0 <usb_handle_config_descriptor+0x1dc>
10000b3e:	6f63      	ldr	r3, [r4, #116]	; 0x74
10000b40:	2b00      	cmp	r3, #0
10000b42:	d003      	beq.n	10000b4c <usb_handle_config_descriptor+0x78>
10000b44:	789b      	ldrb	r3, [r3, #2]
10000b46:	2b80      	cmp	r3, #128	; 0x80
10000b48:	d100      	bne.n	10000b4c <usb_handle_config_descriptor+0x78>
10000b4a:	e0b3      	b.n	10000cb4 <usb_handle_config_descriptor+0x1e0>
10000b4c:	238c      	movs	r3, #140	; 0x8c
10000b4e:	58e3      	ldr	r3, [r4, r3]
10000b50:	2b00      	cmp	r3, #0
10000b52:	d003      	beq.n	10000b5c <usb_handle_config_descriptor+0x88>
10000b54:	789b      	ldrb	r3, [r3, #2]
10000b56:	2b80      	cmp	r3, #128	; 0x80
10000b58:	d100      	bne.n	10000b5c <usb_handle_config_descriptor+0x88>
10000b5a:	e0ad      	b.n	10000cb8 <usb_handle_config_descriptor+0x1e4>
10000b5c:	23a4      	movs	r3, #164	; 0xa4
10000b5e:	58e3      	ldr	r3, [r4, r3]
10000b60:	2b00      	cmp	r3, #0
10000b62:	d003      	beq.n	10000b6c <usb_handle_config_descriptor+0x98>
10000b64:	789b      	ldrb	r3, [r3, #2]
10000b66:	2b80      	cmp	r3, #128	; 0x80
10000b68:	d100      	bne.n	10000b6c <usb_handle_config_descriptor+0x98>
10000b6a:	e0a7      	b.n	10000cbc <usb_handle_config_descriptor+0x1e8>
10000b6c:	23bc      	movs	r3, #188	; 0xbc
10000b6e:	58e3      	ldr	r3, [r4, r3]
10000b70:	2b00      	cmp	r3, #0
10000b72:	d003      	beq.n	10000b7c <usb_handle_config_descriptor+0xa8>
10000b74:	789b      	ldrb	r3, [r3, #2]
10000b76:	2b80      	cmp	r3, #128	; 0x80
10000b78:	d100      	bne.n	10000b7c <usb_handle_config_descriptor+0xa8>
10000b7a:	e0a1      	b.n	10000cc0 <usb_handle_config_descriptor+0x1ec>
10000b7c:	23d4      	movs	r3, #212	; 0xd4
10000b7e:	58e3      	ldr	r3, [r4, r3]
10000b80:	2b00      	cmp	r3, #0
10000b82:	d003      	beq.n	10000b8c <usb_handle_config_descriptor+0xb8>
10000b84:	789b      	ldrb	r3, [r3, #2]
10000b86:	2b80      	cmp	r3, #128	; 0x80
10000b88:	d100      	bne.n	10000b8c <usb_handle_config_descriptor+0xb8>
10000b8a:	e078      	b.n	10000c7e <usb_handle_config_descriptor+0x1aa>
10000b8c:	23ec      	movs	r3, #236	; 0xec
10000b8e:	58e3      	ldr	r3, [r4, r3]
10000b90:	2b00      	cmp	r3, #0
10000b92:	d003      	beq.n	10000b9c <usb_handle_config_descriptor+0xc8>
10000b94:	789b      	ldrb	r3, [r3, #2]
10000b96:	2b80      	cmp	r3, #128	; 0x80
10000b98:	d100      	bne.n	10000b9c <usb_handle_config_descriptor+0xc8>
10000b9a:	e072      	b.n	10000c82 <usb_handle_config_descriptor+0x1ae>
10000b9c:	2382      	movs	r3, #130	; 0x82
10000b9e:	005b      	lsls	r3, r3, #1
10000ba0:	58e3      	ldr	r3, [r4, r3]
10000ba2:	2b00      	cmp	r3, #0
10000ba4:	d002      	beq.n	10000bac <usb_handle_config_descriptor+0xd8>
10000ba6:	789b      	ldrb	r3, [r3, #2]
10000ba8:	2b80      	cmp	r3, #128	; 0x80
10000baa:	d06c      	beq.n	10000c86 <usb_handle_config_descriptor+0x1b2>
10000bac:	238e      	movs	r3, #142	; 0x8e
10000bae:	005b      	lsls	r3, r3, #1
10000bb0:	58e3      	ldr	r3, [r4, r3]
10000bb2:	2b00      	cmp	r3, #0
10000bb4:	d002      	beq.n	10000bbc <usb_handle_config_descriptor+0xe8>
10000bb6:	789b      	ldrb	r3, [r3, #2]
10000bb8:	2b80      	cmp	r3, #128	; 0x80
10000bba:	d067      	beq.n	10000c8c <usb_handle_config_descriptor+0x1b8>
10000bbc:	239a      	movs	r3, #154	; 0x9a
10000bbe:	005b      	lsls	r3, r3, #1
10000bc0:	58e3      	ldr	r3, [r4, r3]
10000bc2:	2b00      	cmp	r3, #0
10000bc4:	d002      	beq.n	10000bcc <usb_handle_config_descriptor+0xf8>
10000bc6:	789b      	ldrb	r3, [r3, #2]
10000bc8:	2b80      	cmp	r3, #128	; 0x80
10000bca:	d062      	beq.n	10000c92 <usb_handle_config_descriptor+0x1be>
10000bcc:	23a6      	movs	r3, #166	; 0xa6
10000bce:	005b      	lsls	r3, r3, #1
10000bd0:	58e3      	ldr	r3, [r4, r3]
10000bd2:	2b00      	cmp	r3, #0
10000bd4:	d002      	beq.n	10000bdc <usb_handle_config_descriptor+0x108>
10000bd6:	789b      	ldrb	r3, [r3, #2]
10000bd8:	2b80      	cmp	r3, #128	; 0x80
10000bda:	d05d      	beq.n	10000c98 <usb_handle_config_descriptor+0x1c4>
10000bdc:	23b2      	movs	r3, #178	; 0xb2
10000bde:	005b      	lsls	r3, r3, #1
10000be0:	58e3      	ldr	r3, [r4, r3]
10000be2:	2b00      	cmp	r3, #0
10000be4:	d002      	beq.n	10000bec <usb_handle_config_descriptor+0x118>
10000be6:	789b      	ldrb	r3, [r3, #2]
10000be8:	2b80      	cmp	r3, #128	; 0x80
10000bea:	d058      	beq.n	10000c9e <usb_handle_config_descriptor+0x1ca>
10000bec:	23be      	movs	r3, #190	; 0xbe
10000bee:	005b      	lsls	r3, r3, #1
10000bf0:	58e3      	ldr	r3, [r4, r3]
10000bf2:	2b00      	cmp	r3, #0
10000bf4:	d066      	beq.n	10000cc4 <usb_handle_config_descriptor+0x1f0>
10000bf6:	789b      	ldrb	r3, [r3, #2]
10000bf8:	347d      	adds	r4, #125	; 0x7d
10000bfa:	34ff      	adds	r4, #255	; 0xff
10000bfc:	2b80      	cmp	r3, #128	; 0x80
10000bfe:	d161      	bne.n	10000cc4 <usb_handle_config_descriptor+0x1f0>
10000c00:	1bf6      	subs	r6, r6, r7
10000c02:	b2b5      	uxth	r5, r6
10000c04:	0436      	lsls	r6, r6, #16
10000c06:	0c36      	lsrs	r6, r6, #16
10000c08:	2280      	movs	r2, #128	; 0x80
10000c0a:	0031      	movs	r1, r6
10000c0c:	4831      	ldr	r0, [pc, #196]	; (10000cd4 <usb_handle_config_descriptor+0x200>)
10000c0e:	f004 fb99 	bl	10005344 <__wrap_printf>
10000c12:	6823      	ldr	r3, [r4, #0]
10000c14:	789b      	ldrb	r3, [r3, #2]
10000c16:	2b7f      	cmp	r3, #127	; 0x7f
10000c18:	d828      	bhi.n	10000c6c <usb_handle_config_descriptor+0x198>
10000c1a:	2280      	movs	r2, #128	; 0x80
10000c1c:	00d2      	lsls	r2, r2, #3
10000c1e:	432a      	orrs	r2, r5
10000c20:	7d23      	ldrb	r3, [r4, #20]
10000c22:	2b00      	cmp	r3, #0
10000c24:	d002      	beq.n	10000c2c <usb_handle_config_descriptor+0x158>
10000c26:	2180      	movs	r1, #128	; 0x80
10000c28:	0189      	lsls	r1, r1, #6
10000c2a:	430a      	orrs	r2, r1
10000c2c:	2101      	movs	r1, #1
10000c2e:	404b      	eors	r3, r1
10000c30:	7523      	strb	r3, [r4, #20]
10000c32:	68e3      	ldr	r3, [r4, #12]
10000c34:	601a      	str	r2, [r3, #0]
10000c36:	bc04      	pop	{r2}
10000c38:	4690      	mov	r8, r2
10000c3a:	bdf0      	pop	{r4, r5, r6, r7, pc}
10000c3c:	0030      	movs	r0, r6
10000c3e:	2209      	movs	r2, #9
10000c40:	6861      	ldr	r1, [r4, #4]
10000c42:	f004 f9bd 	bl	10004fc0 <__wrap___aeabi_memcpy>
10000c46:	23a8      	movs	r3, #168	; 0xa8
10000c48:	005b      	lsls	r3, r3, #1
10000c4a:	4698      	mov	r8, r3
10000c4c:	003e      	movs	r6, r7
10000c4e:	0025      	movs	r5, r4
10000c50:	44a0      	add	r8, r4
10000c52:	3612      	adds	r6, #18
10000c54:	6c69      	ldr	r1, [r5, #68]	; 0x44
10000c56:	2900      	cmp	r1, #0
10000c58:	d004      	beq.n	10000c64 <usb_handle_config_descriptor+0x190>
10000c5a:	0030      	movs	r0, r6
10000c5c:	2207      	movs	r2, #7
10000c5e:	f004 f9af 	bl	10004fc0 <__wrap___aeabi_memcpy>
10000c62:	3607      	adds	r6, #7
10000c64:	3518      	adds	r5, #24
10000c66:	4545      	cmp	r5, r8
10000c68:	d1f4      	bne.n	10000c54 <usb_handle_config_descriptor+0x180>
10000c6a:	e74c      	b.n	10000b06 <usb_handle_config_descriptor+0x32>
10000c6c:	0032      	movs	r2, r6
10000c6e:	0039      	movs	r1, r7
10000c70:	6920      	ldr	r0, [r4, #16]
10000c72:	f004 f9a5 	bl	10004fc0 <__wrap___aeabi_memcpy>
10000c76:	2284      	movs	r2, #132	; 0x84
10000c78:	0212      	lsls	r2, r2, #8
10000c7a:	432a      	orrs	r2, r5
10000c7c:	e7d0      	b.n	10000c20 <usb_handle_config_descriptor+0x14c>
10000c7e:	34d4      	adds	r4, #212	; 0xd4
10000c80:	e7be      	b.n	10000c00 <usb_handle_config_descriptor+0x12c>
10000c82:	34ec      	adds	r4, #236	; 0xec
10000c84:	e7bc      	b.n	10000c00 <usb_handle_config_descriptor+0x12c>
10000c86:	3405      	adds	r4, #5
10000c88:	34ff      	adds	r4, #255	; 0xff
10000c8a:	e7b9      	b.n	10000c00 <usb_handle_config_descriptor+0x12c>
10000c8c:	341d      	adds	r4, #29
10000c8e:	34ff      	adds	r4, #255	; 0xff
10000c90:	e7b6      	b.n	10000c00 <usb_handle_config_descriptor+0x12c>
10000c92:	3435      	adds	r4, #53	; 0x35
10000c94:	34ff      	adds	r4, #255	; 0xff
10000c96:	e7b3      	b.n	10000c00 <usb_handle_config_descriptor+0x12c>
10000c98:	344d      	adds	r4, #77	; 0x4d
10000c9a:	34ff      	adds	r4, #255	; 0xff
10000c9c:	e7b0      	b.n	10000c00 <usb_handle_config_descriptor+0x12c>
10000c9e:	3465      	adds	r4, #101	; 0x65
10000ca0:	34ff      	adds	r4, #255	; 0xff
10000ca2:	e7ad      	b.n	10000c00 <usb_handle_config_descriptor+0x12c>
10000ca4:	3414      	adds	r4, #20
10000ca6:	e7ab      	b.n	10000c00 <usb_handle_config_descriptor+0x12c>
10000ca8:	342c      	adds	r4, #44	; 0x2c
10000caa:	e7a9      	b.n	10000c00 <usb_handle_config_descriptor+0x12c>
10000cac:	3444      	adds	r4, #68	; 0x44
10000cae:	e7a7      	b.n	10000c00 <usb_handle_config_descriptor+0x12c>
10000cb0:	345c      	adds	r4, #92	; 0x5c
10000cb2:	e7a5      	b.n	10000c00 <usb_handle_config_descriptor+0x12c>
10000cb4:	3474      	adds	r4, #116	; 0x74
10000cb6:	e7a3      	b.n	10000c00 <usb_handle_config_descriptor+0x12c>
10000cb8:	348c      	adds	r4, #140	; 0x8c
10000cba:	e7a1      	b.n	10000c00 <usb_handle_config_descriptor+0x12c>
10000cbc:	34a4      	adds	r4, #164	; 0xa4
10000cbe:	e79f      	b.n	10000c00 <usb_handle_config_descriptor+0x12c>
10000cc0:	34bc      	adds	r4, #188	; 0xbc
10000cc2:	e79d      	b.n	10000c00 <usb_handle_config_descriptor+0x12c>
10000cc4:	2300      	movs	r3, #0
10000cc6:	681b      	ldr	r3, [r3, #0]
10000cc8:	deff      	udf	#255	; 0xff
10000cca:	46c0      	nop			; (mov r8, r8)
10000ccc:	20000190 	.word	0x20000190
10000cd0:	20000c8c 	.word	0x20000c8c
10000cd4:	10005d98 	.word	0x10005d98

10000cd8 <usb_handle_string_descriptor>:
10000cd8:	b5f8      	push	{r3, r4, r5, r6, r7, lr}
10000cda:	7883      	ldrb	r3, [r0, #2]
10000cdc:	78c2      	ldrb	r2, [r0, #3]
10000cde:	2b00      	cmp	r3, #0
10000ce0:	d000      	beq.n	10000ce4 <usb_handle_string_descriptor+0xc>
10000ce2:	e09e      	b.n	10000e22 <usb_handle_string_descriptor+0x14a>
10000ce4:	4f74      	ldr	r7, [pc, #464]	; (10000eb8 <usb_handle_string_descriptor+0x1e0>)
10000ce6:	4c75      	ldr	r4, [pc, #468]	; (10000ebc <usb_handle_string_descriptor+0x1e4>)
10000ce8:	2204      	movs	r2, #4
10000cea:	0038      	movs	r0, r7
10000cec:	68e1      	ldr	r1, [r4, #12]
10000cee:	f004 f967 	bl	10004fc0 <__wrap___aeabi_memcpy>
10000cf2:	2604      	movs	r6, #4
10000cf4:	6963      	ldr	r3, [r4, #20]
10000cf6:	2b00      	cmp	r3, #0
10000cf8:	d003      	beq.n	10000d02 <usb_handle_string_descriptor+0x2a>
10000cfa:	789b      	ldrb	r3, [r3, #2]
10000cfc:	2b80      	cmp	r3, #128	; 0x80
10000cfe:	d100      	bne.n	10000d02 <usb_handle_string_descriptor+0x2a>
10000d00:	e0c7      	b.n	10000e92 <usb_handle_string_descriptor+0x1ba>
10000d02:	6ae3      	ldr	r3, [r4, #44]	; 0x2c
10000d04:	2b00      	cmp	r3, #0
10000d06:	d003      	beq.n	10000d10 <usb_handle_string_descriptor+0x38>
10000d08:	789b      	ldrb	r3, [r3, #2]
10000d0a:	2b80      	cmp	r3, #128	; 0x80
10000d0c:	d100      	bne.n	10000d10 <usb_handle_string_descriptor+0x38>
10000d0e:	e0c2      	b.n	10000e96 <usb_handle_string_descriptor+0x1be>
10000d10:	6c63      	ldr	r3, [r4, #68]	; 0x44
10000d12:	2b00      	cmp	r3, #0
10000d14:	d003      	beq.n	10000d1e <usb_handle_string_descriptor+0x46>
10000d16:	789b      	ldrb	r3, [r3, #2]
10000d18:	2b80      	cmp	r3, #128	; 0x80
10000d1a:	d100      	bne.n	10000d1e <usb_handle_string_descriptor+0x46>
10000d1c:	e0bd      	b.n	10000e9a <usb_handle_string_descriptor+0x1c2>
10000d1e:	6de3      	ldr	r3, [r4, #92]	; 0x5c
10000d20:	2b00      	cmp	r3, #0
10000d22:	d003      	beq.n	10000d2c <usb_handle_string_descriptor+0x54>
10000d24:	789b      	ldrb	r3, [r3, #2]
10000d26:	2b80      	cmp	r3, #128	; 0x80
10000d28:	d100      	bne.n	10000d2c <usb_handle_string_descriptor+0x54>
10000d2a:	e0b8      	b.n	10000e9e <usb_handle_string_descriptor+0x1c6>
10000d2c:	6f63      	ldr	r3, [r4, #116]	; 0x74
10000d2e:	2b00      	cmp	r3, #0
10000d30:	d003      	beq.n	10000d3a <usb_handle_string_descriptor+0x62>
10000d32:	789b      	ldrb	r3, [r3, #2]
10000d34:	2b80      	cmp	r3, #128	; 0x80
10000d36:	d100      	bne.n	10000d3a <usb_handle_string_descriptor+0x62>
10000d38:	e0b3      	b.n	10000ea2 <usb_handle_string_descriptor+0x1ca>
10000d3a:	238c      	movs	r3, #140	; 0x8c
10000d3c:	58e3      	ldr	r3, [r4, r3]
10000d3e:	2b00      	cmp	r3, #0
10000d40:	d003      	beq.n	10000d4a <usb_handle_string_descriptor+0x72>
10000d42:	789b      	ldrb	r3, [r3, #2]
10000d44:	2b80      	cmp	r3, #128	; 0x80
10000d46:	d100      	bne.n	10000d4a <usb_handle_string_descriptor+0x72>
10000d48:	e0ad      	b.n	10000ea6 <usb_handle_string_descriptor+0x1ce>
10000d4a:	23a4      	movs	r3, #164	; 0xa4
10000d4c:	58e3      	ldr	r3, [r4, r3]
10000d4e:	2b00      	cmp	r3, #0
10000d50:	d003      	beq.n	10000d5a <usb_handle_string_descriptor+0x82>
10000d52:	789b      	ldrb	r3, [r3, #2]
10000d54:	2b80      	cmp	r3, #128	; 0x80
10000d56:	d100      	bne.n	10000d5a <usb_handle_string_descriptor+0x82>
10000d58:	e0a7      	b.n	10000eaa <usb_handle_string_descriptor+0x1d2>
10000d5a:	23bc      	movs	r3, #188	; 0xbc
10000d5c:	58e3      	ldr	r3, [r4, r3]
10000d5e:	2b00      	cmp	r3, #0
10000d60:	d003      	beq.n	10000d6a <usb_handle_string_descriptor+0x92>
10000d62:	789b      	ldrb	r3, [r3, #2]
10000d64:	2b80      	cmp	r3, #128	; 0x80
10000d66:	d100      	bne.n	10000d6a <usb_handle_string_descriptor+0x92>
10000d68:	e0a1      	b.n	10000eae <usb_handle_string_descriptor+0x1d6>
10000d6a:	23d4      	movs	r3, #212	; 0xd4
10000d6c:	58e3      	ldr	r3, [r4, r3]
10000d6e:	2b00      	cmp	r3, #0
10000d70:	d003      	beq.n	10000d7a <usb_handle_string_descriptor+0xa2>
10000d72:	789b      	ldrb	r3, [r3, #2]
10000d74:	2b80      	cmp	r3, #128	; 0x80
10000d76:	d100      	bne.n	10000d7a <usb_handle_string_descriptor+0xa2>
10000d78:	e078      	b.n	10000e6c <usb_handle_string_descriptor+0x194>
10000d7a:	23ec      	movs	r3, #236	; 0xec
10000d7c:	58e3      	ldr	r3, [r4, r3]
10000d7e:	2b00      	cmp	r3, #0
10000d80:	d003      	beq.n	10000d8a <usb_handle_string_descriptor+0xb2>
10000d82:	789b      	ldrb	r3, [r3, #2]
10000d84:	2b80      	cmp	r3, #128	; 0x80
10000d86:	d100      	bne.n	10000d8a <usb_handle_string_descriptor+0xb2>
10000d88:	e072      	b.n	10000e70 <usb_handle_string_descriptor+0x198>
10000d8a:	2382      	movs	r3, #130	; 0x82
10000d8c:	005b      	lsls	r3, r3, #1
10000d8e:	58e3      	ldr	r3, [r4, r3]
10000d90:	2b00      	cmp	r3, #0
10000d92:	d003      	beq.n	10000d9c <usb_handle_string_descriptor+0xc4>
10000d94:	789b      	ldrb	r3, [r3, #2]
10000d96:	2b80      	cmp	r3, #128	; 0x80
10000d98:	d100      	bne.n	10000d9c <usb_handle_string_descriptor+0xc4>
10000d9a:	e06b      	b.n	10000e74 <usb_handle_string_descriptor+0x19c>
10000d9c:	238e      	movs	r3, #142	; 0x8e
10000d9e:	005b      	lsls	r3, r3, #1
10000da0:	58e3      	ldr	r3, [r4, r3]
10000da2:	2b00      	cmp	r3, #0
10000da4:	d002      	beq.n	10000dac <usb_handle_string_descriptor+0xd4>
10000da6:	789b      	ldrb	r3, [r3, #2]
10000da8:	2b80      	cmp	r3, #128	; 0x80
10000daa:	d066      	beq.n	10000e7a <usb_handle_string_descriptor+0x1a2>
10000dac:	239a      	movs	r3, #154	; 0x9a
10000dae:	005b      	lsls	r3, r3, #1
10000db0:	58e3      	ldr	r3, [r4, r3]
10000db2:	2b00      	cmp	r3, #0
10000db4:	d002      	beq.n	10000dbc <usb_handle_string_descriptor+0xe4>
10000db6:	789b      	ldrb	r3, [r3, #2]
10000db8:	2b80      	cmp	r3, #128	; 0x80
10000dba:	d061      	beq.n	10000e80 <usb_handle_string_descriptor+0x1a8>
10000dbc:	23a6      	movs	r3, #166	; 0xa6
10000dbe:	005b      	lsls	r3, r3, #1
10000dc0:	58e3      	ldr	r3, [r4, r3]
10000dc2:	2b00      	cmp	r3, #0
10000dc4:	d002      	beq.n	10000dcc <usb_handle_string_descriptor+0xf4>
10000dc6:	789b      	ldrb	r3, [r3, #2]
10000dc8:	2b80      	cmp	r3, #128	; 0x80
10000dca:	d05c      	beq.n	10000e86 <usb_handle_string_descriptor+0x1ae>
10000dcc:	23b2      	movs	r3, #178	; 0xb2
10000dce:	005b      	lsls	r3, r3, #1
10000dd0:	58e3      	ldr	r3, [r4, r3]
10000dd2:	2b00      	cmp	r3, #0
10000dd4:	d002      	beq.n	10000ddc <usb_handle_string_descriptor+0x104>
10000dd6:	789b      	ldrb	r3, [r3, #2]
10000dd8:	2b80      	cmp	r3, #128	; 0x80
10000dda:	d057      	beq.n	10000e8c <usb_handle_string_descriptor+0x1b4>
10000ddc:	23be      	movs	r3, #190	; 0xbe
10000dde:	005b      	lsls	r3, r3, #1
10000de0:	58e3      	ldr	r3, [r4, r3]
10000de2:	2b00      	cmp	r3, #0
10000de4:	d065      	beq.n	10000eb2 <usb_handle_string_descriptor+0x1da>
10000de6:	789b      	ldrb	r3, [r3, #2]
10000de8:	347d      	adds	r4, #125	; 0x7d
10000dea:	34ff      	adds	r4, #255	; 0xff
10000dec:	2b80      	cmp	r3, #128	; 0x80
10000dee:	d160      	bne.n	10000eb2 <usb_handle_string_descriptor+0x1da>
10000df0:	2280      	movs	r2, #128	; 0x80
10000df2:	0031      	movs	r1, r6
10000df4:	4832      	ldr	r0, [pc, #200]	; (10000ec0 <usb_handle_string_descriptor+0x1e8>)
10000df6:	f004 faa5 	bl	10005344 <__wrap_printf>
10000dfa:	6823      	ldr	r3, [r4, #0]
10000dfc:	b2b5      	uxth	r5, r6
10000dfe:	789b      	ldrb	r3, [r3, #2]
10000e00:	2b7f      	cmp	r3, #127	; 0x7f
10000e02:	d82a      	bhi.n	10000e5a <usb_handle_string_descriptor+0x182>
10000e04:	2280      	movs	r2, #128	; 0x80
10000e06:	00d2      	lsls	r2, r2, #3
10000e08:	432a      	orrs	r2, r5
10000e0a:	7d23      	ldrb	r3, [r4, #20]
10000e0c:	2b00      	cmp	r3, #0
10000e0e:	d002      	beq.n	10000e16 <usb_handle_string_descriptor+0x13e>
10000e10:	2180      	movs	r1, #128	; 0x80
10000e12:	0189      	lsls	r1, r1, #6
10000e14:	430a      	orrs	r2, r1
10000e16:	2101      	movs	r1, #1
10000e18:	404b      	eors	r3, r1
10000e1a:	7523      	strb	r3, [r4, #20]
10000e1c:	68e3      	ldr	r3, [r4, #12]
10000e1e:	601a      	str	r2, [r3, #0]
10000e20:	bdf8      	pop	{r3, r4, r5, r6, r7, pc}
10000e22:	4a28      	ldr	r2, [pc, #160]	; (10000ec4 <usb_handle_string_descriptor+0x1ec>)
10000e24:	4c25      	ldr	r4, [pc, #148]	; (10000ebc <usb_handle_string_descriptor+0x1e4>)
10000e26:	4694      	mov	ip, r2
10000e28:	6922      	ldr	r2, [r4, #16]
10000e2a:	4463      	add	r3, ip
10000e2c:	009b      	lsls	r3, r3, #2
10000e2e:	589d      	ldr	r5, [r3, r2]
10000e30:	0028      	movs	r0, r5
10000e32:	f004 fe17 	bl	10005a64 <strlen>
10000e36:	2303      	movs	r3, #3
10000e38:	1c46      	adds	r6, r0, #1
10000e3a:	0028      	movs	r0, r5
10000e3c:	2500      	movs	r5, #0
10000e3e:	4f1e      	ldr	r7, [pc, #120]	; (10000eb8 <usb_handle_string_descriptor+0x1e0>)
10000e40:	0076      	lsls	r6, r6, #1
10000e42:	b2f6      	uxtb	r6, r6
10000e44:	703e      	strb	r6, [r7, #0]
10000e46:	707b      	strb	r3, [r7, #1]
10000e48:	1cbb      	adds	r3, r7, #2
10000e4a:	7801      	ldrb	r1, [r0, #0]
10000e4c:	3001      	adds	r0, #1
10000e4e:	7019      	strb	r1, [r3, #0]
10000e50:	705d      	strb	r5, [r3, #1]
10000e52:	3302      	adds	r3, #2
10000e54:	2900      	cmp	r1, #0
10000e56:	d1f8      	bne.n	10000e4a <usb_handle_string_descriptor+0x172>
10000e58:	e74c      	b.n	10000cf4 <usb_handle_string_descriptor+0x1c>
10000e5a:	0032      	movs	r2, r6
10000e5c:	0039      	movs	r1, r7
10000e5e:	6920      	ldr	r0, [r4, #16]
10000e60:	f004 f8ae 	bl	10004fc0 <__wrap___aeabi_memcpy>
10000e64:	2284      	movs	r2, #132	; 0x84
10000e66:	0212      	lsls	r2, r2, #8
10000e68:	432a      	orrs	r2, r5
10000e6a:	e7ce      	b.n	10000e0a <usb_handle_string_descriptor+0x132>
10000e6c:	34d4      	adds	r4, #212	; 0xd4
10000e6e:	e7bf      	b.n	10000df0 <usb_handle_string_descriptor+0x118>
10000e70:	34ec      	adds	r4, #236	; 0xec
10000e72:	e7bd      	b.n	10000df0 <usb_handle_string_descriptor+0x118>
10000e74:	3405      	adds	r4, #5
10000e76:	34ff      	adds	r4, #255	; 0xff
10000e78:	e7ba      	b.n	10000df0 <usb_handle_string_descriptor+0x118>
10000e7a:	341d      	adds	r4, #29
10000e7c:	34ff      	adds	r4, #255	; 0xff
10000e7e:	e7b7      	b.n	10000df0 <usb_handle_string_descriptor+0x118>
10000e80:	3435      	adds	r4, #53	; 0x35
10000e82:	34ff      	adds	r4, #255	; 0xff
10000e84:	e7b4      	b.n	10000df0 <usb_handle_string_descriptor+0x118>
10000e86:	344d      	adds	r4, #77	; 0x4d
10000e88:	34ff      	adds	r4, #255	; 0xff
10000e8a:	e7b1      	b.n	10000df0 <usb_handle_string_descriptor+0x118>
10000e8c:	3465      	adds	r4, #101	; 0x65
10000e8e:	34ff      	adds	r4, #255	; 0xff
10000e90:	e7ae      	b.n	10000df0 <usb_handle_string_descriptor+0x118>
10000e92:	3414      	adds	r4, #20
10000e94:	e7ac      	b.n	10000df0 <usb_handle_string_descriptor+0x118>
10000e96:	342c      	adds	r4, #44	; 0x2c
10000e98:	e7aa      	b.n	10000df0 <usb_handle_string_descriptor+0x118>
10000e9a:	3444      	adds	r4, #68	; 0x44
10000e9c:	e7a8      	b.n	10000df0 <usb_handle_string_descriptor+0x118>
10000e9e:	345c      	adds	r4, #92	; 0x5c
10000ea0:	e7a6      	b.n	10000df0 <usb_handle_string_descriptor+0x118>
10000ea2:	3474      	adds	r4, #116	; 0x74
10000ea4:	e7a4      	b.n	10000df0 <usb_handle_string_descriptor+0x118>
10000ea6:	348c      	adds	r4, #140	; 0x8c
10000ea8:	e7a2      	b.n	10000df0 <usb_handle_string_descriptor+0x118>
10000eaa:	34a4      	adds	r4, #164	; 0xa4
10000eac:	e7a0      	b.n	10000df0 <usb_handle_string_descriptor+0x118>
10000eae:	34bc      	adds	r4, #188	; 0xbc
10000eb0:	e79e      	b.n	10000df0 <usb_handle_string_descriptor+0x118>
10000eb2:	2300      	movs	r3, #0
10000eb4:	681b      	ldr	r3, [r3, #0]
10000eb6:	deff      	udf	#255	; 0xff
10000eb8:	20000c8c 	.word	0x20000c8c
10000ebc:	20000190 	.word	0x20000190
10000ec0:	10005d98 	.word	0x10005d98
10000ec4:	3fffffff 	.word	0x3fffffff

10000ec8 <usb_handle_setup_packet>:
10000ec8:	b570      	push	{r4, r5, r6, lr}
10000eca:	4ba9      	ldr	r3, [pc, #676]	; (10001170 <usb_handle_setup_packet+0x2a8>)
10000ecc:	4ca9      	ldr	r4, [pc, #676]	; (10001174 <usb_handle_setup_packet+0x2ac>)
10000ece:	7819      	ldrb	r1, [r3, #0]
10000ed0:	6962      	ldr	r2, [r4, #20]
10000ed2:	785b      	ldrb	r3, [r3, #1]
10000ed4:	b2c9      	uxtb	r1, r1
10000ed6:	b2db      	uxtb	r3, r3
10000ed8:	2a00      	cmp	r2, #0
10000eda:	d003      	beq.n	10000ee4 <usb_handle_setup_packet+0x1c>
10000edc:	7892      	ldrb	r2, [r2, #2]
10000ede:	2a80      	cmp	r2, #128	; 0x80
10000ee0:	d100      	bne.n	10000ee4 <usb_handle_setup_packet+0x1c>
10000ee2:	e22b      	b.n	1000133c <usb_handle_setup_packet+0x474>
10000ee4:	6ae2      	ldr	r2, [r4, #44]	; 0x2c
10000ee6:	2a00      	cmp	r2, #0
10000ee8:	d003      	beq.n	10000ef2 <usb_handle_setup_packet+0x2a>
10000eea:	7892      	ldrb	r2, [r2, #2]
10000eec:	2a80      	cmp	r2, #128	; 0x80
10000eee:	d100      	bne.n	10000ef2 <usb_handle_setup_packet+0x2a>
10000ef0:	e227      	b.n	10001342 <usb_handle_setup_packet+0x47a>
10000ef2:	6c62      	ldr	r2, [r4, #68]	; 0x44
10000ef4:	2a00      	cmp	r2, #0
10000ef6:	d003      	beq.n	10000f00 <usb_handle_setup_packet+0x38>
10000ef8:	7892      	ldrb	r2, [r2, #2]
10000efa:	2a80      	cmp	r2, #128	; 0x80
10000efc:	d100      	bne.n	10000f00 <usb_handle_setup_packet+0x38>
10000efe:	e223      	b.n	10001348 <usb_handle_setup_packet+0x480>
10000f00:	6de2      	ldr	r2, [r4, #92]	; 0x5c
10000f02:	2a00      	cmp	r2, #0
10000f04:	d003      	beq.n	10000f0e <usb_handle_setup_packet+0x46>
10000f06:	7892      	ldrb	r2, [r2, #2]
10000f08:	2a80      	cmp	r2, #128	; 0x80
10000f0a:	d100      	bne.n	10000f0e <usb_handle_setup_packet+0x46>
10000f0c:	e21f      	b.n	1000134e <usb_handle_setup_packet+0x486>
10000f0e:	6f62      	ldr	r2, [r4, #116]	; 0x74
10000f10:	2a00      	cmp	r2, #0
10000f12:	d003      	beq.n	10000f1c <usb_handle_setup_packet+0x54>
10000f14:	7892      	ldrb	r2, [r2, #2]
10000f16:	2a80      	cmp	r2, #128	; 0x80
10000f18:	d100      	bne.n	10000f1c <usb_handle_setup_packet+0x54>
10000f1a:	e21b      	b.n	10001354 <usb_handle_setup_packet+0x48c>
10000f1c:	228c      	movs	r2, #140	; 0x8c
10000f1e:	58a2      	ldr	r2, [r4, r2]
10000f20:	2a00      	cmp	r2, #0
10000f22:	d003      	beq.n	10000f2c <usb_handle_setup_packet+0x64>
10000f24:	7892      	ldrb	r2, [r2, #2]
10000f26:	2a80      	cmp	r2, #128	; 0x80
10000f28:	d100      	bne.n	10000f2c <usb_handle_setup_packet+0x64>
10000f2a:	e216      	b.n	1000135a <usb_handle_setup_packet+0x492>
10000f2c:	22a4      	movs	r2, #164	; 0xa4
10000f2e:	58a2      	ldr	r2, [r4, r2]
10000f30:	2a00      	cmp	r2, #0
10000f32:	d003      	beq.n	10000f3c <usb_handle_setup_packet+0x74>
10000f34:	7892      	ldrb	r2, [r2, #2]
10000f36:	2a80      	cmp	r2, #128	; 0x80
10000f38:	d100      	bne.n	10000f3c <usb_handle_setup_packet+0x74>
10000f3a:	e211      	b.n	10001360 <usb_handle_setup_packet+0x498>
10000f3c:	22bc      	movs	r2, #188	; 0xbc
10000f3e:	58a2      	ldr	r2, [r4, r2]
10000f40:	2a00      	cmp	r2, #0
10000f42:	d003      	beq.n	10000f4c <usb_handle_setup_packet+0x84>
10000f44:	7892      	ldrb	r2, [r2, #2]
10000f46:	2a80      	cmp	r2, #128	; 0x80
10000f48:	d100      	bne.n	10000f4c <usb_handle_setup_packet+0x84>
10000f4a:	e20c      	b.n	10001366 <usb_handle_setup_packet+0x49e>
10000f4c:	22d4      	movs	r2, #212	; 0xd4
10000f4e:	58a2      	ldr	r2, [r4, r2]
10000f50:	2a00      	cmp	r2, #0
10000f52:	d003      	beq.n	10000f5c <usb_handle_setup_packet+0x94>
10000f54:	7892      	ldrb	r2, [r2, #2]
10000f56:	2a80      	cmp	r2, #128	; 0x80
10000f58:	d100      	bne.n	10000f5c <usb_handle_setup_packet+0x94>
10000f5a:	e1cf      	b.n	100012fc <usb_handle_setup_packet+0x434>
10000f5c:	22ec      	movs	r2, #236	; 0xec
10000f5e:	58a2      	ldr	r2, [r4, r2]
10000f60:	2a00      	cmp	r2, #0
10000f62:	d003      	beq.n	10000f6c <usb_handle_setup_packet+0xa4>
10000f64:	7892      	ldrb	r2, [r2, #2]
10000f66:	2a80      	cmp	r2, #128	; 0x80
10000f68:	d100      	bne.n	10000f6c <usb_handle_setup_packet+0xa4>
10000f6a:	e1ca      	b.n	10001302 <usb_handle_setup_packet+0x43a>
10000f6c:	2282      	movs	r2, #130	; 0x82
10000f6e:	0052      	lsls	r2, r2, #1
10000f70:	58a2      	ldr	r2, [r4, r2]
10000f72:	2a00      	cmp	r2, #0
10000f74:	d003      	beq.n	10000f7e <usb_handle_setup_packet+0xb6>
10000f76:	7892      	ldrb	r2, [r2, #2]
10000f78:	2a80      	cmp	r2, #128	; 0x80
10000f7a:	d100      	bne.n	10000f7e <usb_handle_setup_packet+0xb6>
10000f7c:	e1c4      	b.n	10001308 <usb_handle_setup_packet+0x440>
10000f7e:	228e      	movs	r2, #142	; 0x8e
10000f80:	0052      	lsls	r2, r2, #1
10000f82:	58a2      	ldr	r2, [r4, r2]
10000f84:	2a00      	cmp	r2, #0
10000f86:	d003      	beq.n	10000f90 <usb_handle_setup_packet+0xc8>
10000f88:	7892      	ldrb	r2, [r2, #2]
10000f8a:	2a80      	cmp	r2, #128	; 0x80
10000f8c:	d100      	bne.n	10000f90 <usb_handle_setup_packet+0xc8>
10000f8e:	e1be      	b.n	1000130e <usb_handle_setup_packet+0x446>
10000f90:	229a      	movs	r2, #154	; 0x9a
10000f92:	0052      	lsls	r2, r2, #1
10000f94:	58a2      	ldr	r2, [r4, r2]
10000f96:	2a00      	cmp	r2, #0
10000f98:	d003      	beq.n	10000fa2 <usb_handle_setup_packet+0xda>
10000f9a:	7892      	ldrb	r2, [r2, #2]
10000f9c:	2a80      	cmp	r2, #128	; 0x80
10000f9e:	d100      	bne.n	10000fa2 <usb_handle_setup_packet+0xda>
10000fa0:	e1b9      	b.n	10001316 <usb_handle_setup_packet+0x44e>
10000fa2:	22a6      	movs	r2, #166	; 0xa6
10000fa4:	0052      	lsls	r2, r2, #1
10000fa6:	58a2      	ldr	r2, [r4, r2]
10000fa8:	2a00      	cmp	r2, #0
10000faa:	d003      	beq.n	10000fb4 <usb_handle_setup_packet+0xec>
10000fac:	7892      	ldrb	r2, [r2, #2]
10000fae:	2a80      	cmp	r2, #128	; 0x80
10000fb0:	d100      	bne.n	10000fb4 <usb_handle_setup_packet+0xec>
10000fb2:	e1b4      	b.n	1000131e <usb_handle_setup_packet+0x456>
10000fb4:	22b2      	movs	r2, #178	; 0xb2
10000fb6:	0052      	lsls	r2, r2, #1
10000fb8:	58a2      	ldr	r2, [r4, r2]
10000fba:	2a00      	cmp	r2, #0
10000fbc:	d003      	beq.n	10000fc6 <usb_handle_setup_packet+0xfe>
10000fbe:	7892      	ldrb	r2, [r2, #2]
10000fc0:	2a80      	cmp	r2, #128	; 0x80
10000fc2:	d100      	bne.n	10000fc6 <usb_handle_setup_packet+0xfe>
10000fc4:	e1af      	b.n	10001326 <usb_handle_setup_packet+0x45e>
10000fc6:	22be      	movs	r2, #190	; 0xbe
10000fc8:	0052      	lsls	r2, r2, #1
10000fca:	58a2      	ldr	r2, [r4, r2]
10000fcc:	2a00      	cmp	r2, #0
10000fce:	d100      	bne.n	10000fd2 <usb_handle_setup_packet+0x10a>
10000fd0:	e216      	b.n	10001400 <usb_handle_setup_packet+0x538>
10000fd2:	7890      	ldrb	r0, [r2, #2]
10000fd4:	0022      	movs	r2, r4
10000fd6:	327d      	adds	r2, #125	; 0x7d
10000fd8:	32ff      	adds	r2, #255	; 0xff
10000fda:	2880      	cmp	r0, #128	; 0x80
10000fdc:	d000      	beq.n	10000fe0 <usb_handle_setup_packet+0x118>
10000fde:	e20f      	b.n	10001400 <usb_handle_setup_packet+0x538>
10000fe0:	2501      	movs	r5, #1
10000fe2:	7515      	strb	r5, [r2, #20]
10000fe4:	2900      	cmp	r1, #0
10000fe6:	d10b      	bne.n	10001000 <usb_handle_setup_packet+0x138>
10000fe8:	2b05      	cmp	r3, #5
10000fea:	d100      	bne.n	10000fee <usb_handle_setup_packet+0x126>
10000fec:	e0ce      	b.n	1000118c <usb_handle_setup_packet+0x2c4>
10000fee:	2b09      	cmp	r3, #9
10000ff0:	d01c      	beq.n	1000102c <usb_handle_setup_packet+0x164>
10000ff2:	4b5f      	ldr	r3, [pc, #380]	; (10001170 <usb_handle_setup_packet+0x2a8>)
10000ff4:	4860      	ldr	r0, [pc, #384]	; (10001178 <usb_handle_setup_packet+0x2b0>)
10000ff6:	7859      	ldrb	r1, [r3, #1]
10000ff8:	b2c9      	uxtb	r1, r1
10000ffa:	f004 f9a3 	bl	10005344 <__wrap_printf>
10000ffe:	e001      	b.n	10001004 <usb_handle_setup_packet+0x13c>
10001000:	2980      	cmp	r1, #128	; 0x80
10001002:	d000      	beq.n	10001006 <usb_handle_setup_packet+0x13e>
10001004:	bd70      	pop	{r4, r5, r6, pc}
10001006:	2b06      	cmp	r3, #6
10001008:	d000      	beq.n	1000100c <usb_handle_setup_packet+0x144>
1000100a:	e170      	b.n	100012ee <usb_handle_setup_packet+0x426>
1000100c:	4858      	ldr	r0, [pc, #352]	; (10001170 <usb_handle_setup_packet+0x2a8>)
1000100e:	8841      	ldrh	r1, [r0, #2]
10001010:	0a09      	lsrs	r1, r1, #8
10001012:	2902      	cmp	r1, #2
10001014:	d100      	bne.n	10001018 <usb_handle_setup_packet+0x150>
10001016:	e1af      	b.n	10001378 <usb_handle_setup_packet+0x4b0>
10001018:	2903      	cmp	r1, #3
1000101a:	d100      	bne.n	1000101e <usb_handle_setup_packet+0x156>
1000101c:	e1a6      	b.n	1000136c <usb_handle_setup_packet+0x4a4>
1000101e:	2901      	cmp	r1, #1
10001020:	d100      	bne.n	10001024 <usb_handle_setup_packet+0x15c>
10001022:	e1af      	b.n	10001384 <usb_handle_setup_packet+0x4bc>
10001024:	4855      	ldr	r0, [pc, #340]	; (1000117c <usb_handle_setup_packet+0x2b4>)
10001026:	f004 f98d 	bl	10005344 <__wrap_printf>
1000102a:	e7eb      	b.n	10001004 <usb_handle_setup_packet+0x13c>
1000102c:	4854      	ldr	r0, [pc, #336]	; (10001180 <usb_handle_setup_packet+0x2b8>)
1000102e:	f004 f8d9 	bl	100051e4 <__wrap_puts>
10001032:	6963      	ldr	r3, [r4, #20]
10001034:	2b00      	cmp	r3, #0
10001036:	d003      	beq.n	10001040 <usb_handle_setup_packet+0x178>
10001038:	789b      	ldrb	r3, [r3, #2]
1000103a:	2b80      	cmp	r3, #128	; 0x80
1000103c:	d100      	bne.n	10001040 <usb_handle_setup_packet+0x178>
1000103e:	e1ac      	b.n	1000139a <usb_handle_setup_packet+0x4d2>
10001040:	6ae3      	ldr	r3, [r4, #44]	; 0x2c
10001042:	2b00      	cmp	r3, #0
10001044:	d003      	beq.n	1000104e <usb_handle_setup_packet+0x186>
10001046:	789b      	ldrb	r3, [r3, #2]
10001048:	2b80      	cmp	r3, #128	; 0x80
1000104a:	d100      	bne.n	1000104e <usb_handle_setup_packet+0x186>
1000104c:	e1a9      	b.n	100013a2 <usb_handle_setup_packet+0x4da>
1000104e:	6c63      	ldr	r3, [r4, #68]	; 0x44
10001050:	2b00      	cmp	r3, #0
10001052:	d003      	beq.n	1000105c <usb_handle_setup_packet+0x194>
10001054:	789b      	ldrb	r3, [r3, #2]
10001056:	2b80      	cmp	r3, #128	; 0x80
10001058:	d100      	bne.n	1000105c <usb_handle_setup_packet+0x194>
1000105a:	e1a0      	b.n	1000139e <usb_handle_setup_packet+0x4d6>
1000105c:	6de3      	ldr	r3, [r4, #92]	; 0x5c
1000105e:	2b00      	cmp	r3, #0
10001060:	d003      	beq.n	1000106a <usb_handle_setup_packet+0x1a2>
10001062:	789b      	ldrb	r3, [r3, #2]
10001064:	2b80      	cmp	r3, #128	; 0x80
10001066:	d100      	bne.n	1000106a <usb_handle_setup_packet+0x1a2>
10001068:	e1a5      	b.n	100013b6 <usb_handle_setup_packet+0x4ee>
1000106a:	6f63      	ldr	r3, [r4, #116]	; 0x74
1000106c:	2b00      	cmp	r3, #0
1000106e:	d003      	beq.n	10001078 <usb_handle_setup_packet+0x1b0>
10001070:	789b      	ldrb	r3, [r3, #2]
10001072:	2b80      	cmp	r3, #128	; 0x80
10001074:	d100      	bne.n	10001078 <usb_handle_setup_packet+0x1b0>
10001076:	e19c      	b.n	100013b2 <usb_handle_setup_packet+0x4ea>
10001078:	238c      	movs	r3, #140	; 0x8c
1000107a:	58e3      	ldr	r3, [r4, r3]
1000107c:	2b00      	cmp	r3, #0
1000107e:	d003      	beq.n	10001088 <usb_handle_setup_packet+0x1c0>
10001080:	789b      	ldrb	r3, [r3, #2]
10001082:	2b80      	cmp	r3, #128	; 0x80
10001084:	d100      	bne.n	10001088 <usb_handle_setup_packet+0x1c0>
10001086:	e192      	b.n	100013ae <usb_handle_setup_packet+0x4e6>
10001088:	23a4      	movs	r3, #164	; 0xa4
1000108a:	58e3      	ldr	r3, [r4, r3]
1000108c:	2b00      	cmp	r3, #0
1000108e:	d003      	beq.n	10001098 <usb_handle_setup_packet+0x1d0>
10001090:	789b      	ldrb	r3, [r3, #2]
10001092:	2b80      	cmp	r3, #128	; 0x80
10001094:	d100      	bne.n	10001098 <usb_handle_setup_packet+0x1d0>
10001096:	e188      	b.n	100013aa <usb_handle_setup_packet+0x4e2>
10001098:	23bc      	movs	r3, #188	; 0xbc
1000109a:	58e3      	ldr	r3, [r4, r3]
1000109c:	2b00      	cmp	r3, #0
1000109e:	d003      	beq.n	100010a8 <usb_handle_setup_packet+0x1e0>
100010a0:	789b      	ldrb	r3, [r3, #2]
100010a2:	2b80      	cmp	r3, #128	; 0x80
100010a4:	d100      	bne.n	100010a8 <usb_handle_setup_packet+0x1e0>
100010a6:	e18c      	b.n	100013c2 <usb_handle_setup_packet+0x4fa>
100010a8:	23d4      	movs	r3, #212	; 0xd4
100010aa:	58e3      	ldr	r3, [r4, r3]
100010ac:	2b00      	cmp	r3, #0
100010ae:	d003      	beq.n	100010b8 <usb_handle_setup_packet+0x1f0>
100010b0:	789b      	ldrb	r3, [r3, #2]
100010b2:	2b80      	cmp	r3, #128	; 0x80
100010b4:	d100      	bne.n	100010b8 <usb_handle_setup_packet+0x1f0>
100010b6:	e182      	b.n	100013be <usb_handle_setup_packet+0x4f6>
100010b8:	23ec      	movs	r3, #236	; 0xec
100010ba:	58e3      	ldr	r3, [r4, r3]
100010bc:	2b00      	cmp	r3, #0
100010be:	d003      	beq.n	100010c8 <usb_handle_setup_packet+0x200>
100010c0:	789b      	ldrb	r3, [r3, #2]
100010c2:	2b80      	cmp	r3, #128	; 0x80
100010c4:	d100      	bne.n	100010c8 <usb_handle_setup_packet+0x200>
100010c6:	e181      	b.n	100013cc <usb_handle_setup_packet+0x504>
100010c8:	2382      	movs	r3, #130	; 0x82
100010ca:	005b      	lsls	r3, r3, #1
100010cc:	58e3      	ldr	r3, [r4, r3]
100010ce:	2b00      	cmp	r3, #0
100010d0:	d003      	beq.n	100010da <usb_handle_setup_packet+0x212>
100010d2:	789b      	ldrb	r3, [r3, #2]
100010d4:	2b80      	cmp	r3, #128	; 0x80
100010d6:	d100      	bne.n	100010da <usb_handle_setup_packet+0x212>
100010d8:	e175      	b.n	100013c6 <usb_handle_setup_packet+0x4fe>
100010da:	238e      	movs	r3, #142	; 0x8e
100010dc:	005b      	lsls	r3, r3, #1
100010de:	58e3      	ldr	r3, [r4, r3]
100010e0:	2b00      	cmp	r3, #0
100010e2:	d003      	beq.n	100010ec <usb_handle_setup_packet+0x224>
100010e4:	789b      	ldrb	r3, [r3, #2]
100010e6:	2b80      	cmp	r3, #128	; 0x80
100010e8:	d100      	bne.n	100010ec <usb_handle_setup_packet+0x224>
100010ea:	e17a      	b.n	100013e2 <usb_handle_setup_packet+0x51a>
100010ec:	239a      	movs	r3, #154	; 0x9a
100010ee:	005b      	lsls	r3, r3, #1
100010f0:	58e3      	ldr	r3, [r4, r3]
100010f2:	2b00      	cmp	r3, #0
100010f4:	d003      	beq.n	100010fe <usb_handle_setup_packet+0x236>
100010f6:	789b      	ldrb	r3, [r3, #2]
100010f8:	2b80      	cmp	r3, #128	; 0x80
100010fa:	d100      	bne.n	100010fe <usb_handle_setup_packet+0x236>
100010fc:	e16e      	b.n	100013dc <usb_handle_setup_packet+0x514>
100010fe:	23a6      	movs	r3, #166	; 0xa6
10001100:	005b      	lsls	r3, r3, #1
10001102:	58e3      	ldr	r3, [r4, r3]
10001104:	2b00      	cmp	r3, #0
10001106:	d003      	beq.n	10001110 <usb_handle_setup_packet+0x248>
10001108:	789b      	ldrb	r3, [r3, #2]
1000110a:	2b80      	cmp	r3, #128	; 0x80
1000110c:	d100      	bne.n	10001110 <usb_handle_setup_packet+0x248>
1000110e:	e162      	b.n	100013d6 <usb_handle_setup_packet+0x50e>
10001110:	23b2      	movs	r3, #178	; 0xb2
10001112:	005b      	lsls	r3, r3, #1
10001114:	58e3      	ldr	r3, [r4, r3]
10001116:	2b00      	cmp	r3, #0
10001118:	d003      	beq.n	10001122 <usb_handle_setup_packet+0x25a>
1000111a:	789b      	ldrb	r3, [r3, #2]
1000111c:	2b80      	cmp	r3, #128	; 0x80
1000111e:	d100      	bne.n	10001122 <usb_handle_setup_packet+0x25a>
10001120:	e156      	b.n	100013d0 <usb_handle_setup_packet+0x508>
10001122:	23be      	movs	r3, #190	; 0xbe
10001124:	005b      	lsls	r3, r3, #1
10001126:	58e3      	ldr	r3, [r4, r3]
10001128:	2b00      	cmp	r3, #0
1000112a:	d100      	bne.n	1000112e <usb_handle_setup_packet+0x266>
1000112c:	e0dc      	b.n	100012e8 <usb_handle_setup_packet+0x420>
1000112e:	789b      	ldrb	r3, [r3, #2]
10001130:	347d      	adds	r4, #125	; 0x7d
10001132:	34ff      	adds	r4, #255	; 0xff
10001134:	2b80      	cmp	r3, #128	; 0x80
10001136:	d000      	beq.n	1000113a <usb_handle_setup_packet+0x272>
10001138:	e0d6      	b.n	100012e8 <usb_handle_setup_packet+0x420>
1000113a:	2280      	movs	r2, #128	; 0x80
1000113c:	2100      	movs	r1, #0
1000113e:	4811      	ldr	r0, [pc, #68]	; (10001184 <usb_handle_setup_packet+0x2bc>)
10001140:	f004 f900 	bl	10005344 <__wrap_printf>
10001144:	6823      	ldr	r3, [r4, #0]
10001146:	789b      	ldrb	r3, [r3, #2]
10001148:	2b7f      	cmp	r3, #127	; 0x7f
1000114a:	d900      	bls.n	1000114e <usb_handle_setup_packet+0x286>
1000114c:	e0ef      	b.n	1000132e <usb_handle_setup_packet+0x466>
1000114e:	2190      	movs	r1, #144	; 0x90
10001150:	2280      	movs	r2, #128	; 0x80
10001152:	0189      	lsls	r1, r1, #6
10001154:	00d2      	lsls	r2, r2, #3
10001156:	7d23      	ldrb	r3, [r4, #20]
10001158:	2b00      	cmp	r3, #0
1000115a:	d100      	bne.n	1000115e <usb_handle_setup_packet+0x296>
1000115c:	0011      	movs	r1, r2
1000115e:	2201      	movs	r2, #1
10001160:	4053      	eors	r3, r2
10001162:	2201      	movs	r2, #1
10001164:	7523      	strb	r3, [r4, #20]
10001166:	68e3      	ldr	r3, [r4, #12]
10001168:	6019      	str	r1, [r3, #0]
1000116a:	4b07      	ldr	r3, [pc, #28]	; (10001188 <usb_handle_setup_packet+0x2c0>)
1000116c:	701a      	strb	r2, [r3, #0]
1000116e:	e749      	b.n	10001004 <usb_handle_setup_packet+0x13c>
10001170:	50100000 	.word	0x50100000
10001174:	20000190 	.word	0x20000190
10001178:	10005e34 	.word	0x10005e34
1000117c:	10005e98 	.word	0x10005e98
10001180:	10005e20 	.word	0x10005e20
10001184:	10005d98 	.word	0x10005d98
10001188:	20000cf9 	.word	0x20000cf9
1000118c:	4b9e      	ldr	r3, [pc, #632]	; (10001408 <usb_handle_setup_packet+0x540>)
1000118e:	489f      	ldr	r0, [pc, #636]	; (1000140c <usb_handle_setup_packet+0x544>)
10001190:	8859      	ldrh	r1, [r3, #2]
10001192:	4b9f      	ldr	r3, [pc, #636]	; (10001410 <usb_handle_setup_packet+0x548>)
10001194:	b2c9      	uxtb	r1, r1
10001196:	7019      	strb	r1, [r3, #0]
10001198:	f004 f8d4 	bl	10005344 <__wrap_printf>
1000119c:	4b9d      	ldr	r3, [pc, #628]	; (10001414 <usb_handle_setup_packet+0x54c>)
1000119e:	701d      	strb	r5, [r3, #0]
100011a0:	6963      	ldr	r3, [r4, #20]
100011a2:	2b00      	cmp	r3, #0
100011a4:	d003      	beq.n	100011ae <usb_handle_setup_packet+0x2e6>
100011a6:	789b      	ldrb	r3, [r3, #2]
100011a8:	2b80      	cmp	r3, #128	; 0x80
100011aa:	d100      	bne.n	100011ae <usb_handle_setup_packet+0x2e6>
100011ac:	e0fb      	b.n	100013a6 <usb_handle_setup_packet+0x4de>
100011ae:	6ae3      	ldr	r3, [r4, #44]	; 0x2c
100011b0:	2b00      	cmp	r3, #0
100011b2:	d003      	beq.n	100011bc <usb_handle_setup_packet+0x2f4>
100011b4:	789b      	ldrb	r3, [r3, #2]
100011b6:	2b80      	cmp	r3, #128	; 0x80
100011b8:	d100      	bne.n	100011bc <usb_handle_setup_packet+0x2f4>
100011ba:	e0fe      	b.n	100013ba <usb_handle_setup_packet+0x4f2>
100011bc:	6c63      	ldr	r3, [r4, #68]	; 0x44
100011be:	2b00      	cmp	r3, #0
100011c0:	d003      	beq.n	100011ca <usb_handle_setup_packet+0x302>
100011c2:	789b      	ldrb	r3, [r3, #2]
100011c4:	2b80      	cmp	r3, #128	; 0x80
100011c6:	d100      	bne.n	100011ca <usb_handle_setup_packet+0x302>
100011c8:	e110      	b.n	100013ec <usb_handle_setup_packet+0x524>
100011ca:	6de3      	ldr	r3, [r4, #92]	; 0x5c
100011cc:	2b00      	cmp	r3, #0
100011ce:	d003      	beq.n	100011d8 <usb_handle_setup_packet+0x310>
100011d0:	789b      	ldrb	r3, [r3, #2]
100011d2:	2b80      	cmp	r3, #128	; 0x80
100011d4:	d100      	bne.n	100011d8 <usb_handle_setup_packet+0x310>
100011d6:	e10d      	b.n	100013f4 <usb_handle_setup_packet+0x52c>
100011d8:	6f63      	ldr	r3, [r4, #116]	; 0x74
100011da:	2b00      	cmp	r3, #0
100011dc:	d003      	beq.n	100011e6 <usb_handle_setup_packet+0x31e>
100011de:	789b      	ldrb	r3, [r3, #2]
100011e0:	2b80      	cmp	r3, #128	; 0x80
100011e2:	d100      	bne.n	100011e6 <usb_handle_setup_packet+0x31e>
100011e4:	e104      	b.n	100013f0 <usb_handle_setup_packet+0x528>
100011e6:	238c      	movs	r3, #140	; 0x8c
100011e8:	58e3      	ldr	r3, [r4, r3]
100011ea:	2b00      	cmp	r3, #0
100011ec:	d003      	beq.n	100011f6 <usb_handle_setup_packet+0x32e>
100011ee:	789b      	ldrb	r3, [r3, #2]
100011f0:	2b80      	cmp	r3, #128	; 0x80
100011f2:	d100      	bne.n	100011f6 <usb_handle_setup_packet+0x32e>
100011f4:	e102      	b.n	100013fc <usb_handle_setup_packet+0x534>
100011f6:	23a4      	movs	r3, #164	; 0xa4
100011f8:	58e3      	ldr	r3, [r4, r3]
100011fa:	2b00      	cmp	r3, #0
100011fc:	d003      	beq.n	10001206 <usb_handle_setup_packet+0x33e>
100011fe:	789b      	ldrb	r3, [r3, #2]
10001200:	2b80      	cmp	r3, #128	; 0x80
10001202:	d100      	bne.n	10001206 <usb_handle_setup_packet+0x33e>
10001204:	e0f8      	b.n	100013f8 <usb_handle_setup_packet+0x530>
10001206:	23bc      	movs	r3, #188	; 0xbc
10001208:	58e3      	ldr	r3, [r4, r3]
1000120a:	2b00      	cmp	r3, #0
1000120c:	d003      	beq.n	10001216 <usb_handle_setup_packet+0x34e>
1000120e:	789b      	ldrb	r3, [r3, #2]
10001210:	2b80      	cmp	r3, #128	; 0x80
10001212:	d100      	bne.n	10001216 <usb_handle_setup_packet+0x34e>
10001214:	e0e8      	b.n	100013e8 <usb_handle_setup_packet+0x520>
10001216:	23d4      	movs	r3, #212	; 0xd4
10001218:	58e3      	ldr	r3, [r4, r3]
1000121a:	2b00      	cmp	r3, #0
1000121c:	d003      	beq.n	10001226 <usb_handle_setup_packet+0x35e>
1000121e:	789b      	ldrb	r3, [r3, #2]
10001220:	2b80      	cmp	r3, #128	; 0x80
10001222:	d100      	bne.n	10001226 <usb_handle_setup_packet+0x35e>
10001224:	e088      	b.n	10001338 <usb_handle_setup_packet+0x470>
10001226:	23ec      	movs	r3, #236	; 0xec
10001228:	58e3      	ldr	r3, [r4, r3]
1000122a:	2b00      	cmp	r3, #0
1000122c:	d01b      	beq.n	10001266 <usb_handle_setup_packet+0x39e>
1000122e:	789b      	ldrb	r3, [r3, #2]
10001230:	2b80      	cmp	r3, #128	; 0x80
10001232:	d118      	bne.n	10001266 <usb_handle_setup_packet+0x39e>
10001234:	34ec      	adds	r4, #236	; 0xec
10001236:	2280      	movs	r2, #128	; 0x80
10001238:	2100      	movs	r1, #0
1000123a:	4877      	ldr	r0, [pc, #476]	; (10001418 <usb_handle_setup_packet+0x550>)
1000123c:	f004 f882 	bl	10005344 <__wrap_printf>
10001240:	6823      	ldr	r3, [r4, #0]
10001242:	789b      	ldrb	r3, [r3, #2]
10001244:	2b7f      	cmp	r3, #127	; 0x7f
10001246:	d900      	bls.n	1000124a <usb_handle_setup_packet+0x382>
10001248:	e0a2      	b.n	10001390 <usb_handle_setup_packet+0x4c8>
1000124a:	2190      	movs	r1, #144	; 0x90
1000124c:	2280      	movs	r2, #128	; 0x80
1000124e:	0189      	lsls	r1, r1, #6
10001250:	00d2      	lsls	r2, r2, #3
10001252:	7d23      	ldrb	r3, [r4, #20]
10001254:	2b00      	cmp	r3, #0
10001256:	d100      	bne.n	1000125a <usb_handle_setup_packet+0x392>
10001258:	0011      	movs	r1, r2
1000125a:	2201      	movs	r2, #1
1000125c:	4053      	eors	r3, r2
1000125e:	7523      	strb	r3, [r4, #20]
10001260:	68e3      	ldr	r3, [r4, #12]
10001262:	6019      	str	r1, [r3, #0]
10001264:	e6ce      	b.n	10001004 <usb_handle_setup_packet+0x13c>
10001266:	2382      	movs	r3, #130	; 0x82
10001268:	005b      	lsls	r3, r3, #1
1000126a:	58e3      	ldr	r3, [r4, r3]
1000126c:	2b00      	cmp	r3, #0
1000126e:	d005      	beq.n	1000127c <usb_handle_setup_packet+0x3b4>
10001270:	789b      	ldrb	r3, [r3, #2]
10001272:	2b80      	cmp	r3, #128	; 0x80
10001274:	d102      	bne.n	1000127c <usb_handle_setup_packet+0x3b4>
10001276:	3405      	adds	r4, #5
10001278:	34ff      	adds	r4, #255	; 0xff
1000127a:	e7dc      	b.n	10001236 <usb_handle_setup_packet+0x36e>
1000127c:	238e      	movs	r3, #142	; 0x8e
1000127e:	005b      	lsls	r3, r3, #1
10001280:	58e3      	ldr	r3, [r4, r3]
10001282:	2b00      	cmp	r3, #0
10001284:	d005      	beq.n	10001292 <usb_handle_setup_packet+0x3ca>
10001286:	789b      	ldrb	r3, [r3, #2]
10001288:	2b80      	cmp	r3, #128	; 0x80
1000128a:	d102      	bne.n	10001292 <usb_handle_setup_packet+0x3ca>
1000128c:	341d      	adds	r4, #29
1000128e:	34ff      	adds	r4, #255	; 0xff
10001290:	e7d1      	b.n	10001236 <usb_handle_setup_packet+0x36e>
10001292:	239a      	movs	r3, #154	; 0x9a
10001294:	005b      	lsls	r3, r3, #1
10001296:	58e3      	ldr	r3, [r4, r3]
10001298:	2b00      	cmp	r3, #0
1000129a:	d005      	beq.n	100012a8 <usb_handle_setup_packet+0x3e0>
1000129c:	789b      	ldrb	r3, [r3, #2]
1000129e:	2b80      	cmp	r3, #128	; 0x80
100012a0:	d102      	bne.n	100012a8 <usb_handle_setup_packet+0x3e0>
100012a2:	3435      	adds	r4, #53	; 0x35
100012a4:	34ff      	adds	r4, #255	; 0xff
100012a6:	e7c6      	b.n	10001236 <usb_handle_setup_packet+0x36e>
100012a8:	23a6      	movs	r3, #166	; 0xa6
100012aa:	005b      	lsls	r3, r3, #1
100012ac:	58e3      	ldr	r3, [r4, r3]
100012ae:	2b00      	cmp	r3, #0
100012b0:	d005      	beq.n	100012be <usb_handle_setup_packet+0x3f6>
100012b2:	789b      	ldrb	r3, [r3, #2]
100012b4:	2b80      	cmp	r3, #128	; 0x80
100012b6:	d102      	bne.n	100012be <usb_handle_setup_packet+0x3f6>
100012b8:	344d      	adds	r4, #77	; 0x4d
100012ba:	34ff      	adds	r4, #255	; 0xff
100012bc:	e7bb      	b.n	10001236 <usb_handle_setup_packet+0x36e>
100012be:	23b2      	movs	r3, #178	; 0xb2
100012c0:	005b      	lsls	r3, r3, #1
100012c2:	58e3      	ldr	r3, [r4, r3]
100012c4:	2b00      	cmp	r3, #0
100012c6:	d005      	beq.n	100012d4 <usb_handle_setup_packet+0x40c>
100012c8:	789b      	ldrb	r3, [r3, #2]
100012ca:	2b80      	cmp	r3, #128	; 0x80
100012cc:	d102      	bne.n	100012d4 <usb_handle_setup_packet+0x40c>
100012ce:	3465      	adds	r4, #101	; 0x65
100012d0:	34ff      	adds	r4, #255	; 0xff
100012d2:	e7b0      	b.n	10001236 <usb_handle_setup_packet+0x36e>
100012d4:	23be      	movs	r3, #190	; 0xbe
100012d6:	005b      	lsls	r3, r3, #1
100012d8:	58e3      	ldr	r3, [r4, r3]
100012da:	2b00      	cmp	r3, #0
100012dc:	d004      	beq.n	100012e8 <usb_handle_setup_packet+0x420>
100012de:	789b      	ldrb	r3, [r3, #2]
100012e0:	347d      	adds	r4, #125	; 0x7d
100012e2:	34ff      	adds	r4, #255	; 0xff
100012e4:	2b80      	cmp	r3, #128	; 0x80
100012e6:	d0a6      	beq.n	10001236 <usb_handle_setup_packet+0x36e>
100012e8:	2300      	movs	r3, #0
100012ea:	681b      	ldr	r3, [r3, #0]
100012ec:	deff      	udf	#255	; 0xff
100012ee:	4b46      	ldr	r3, [pc, #280]	; (10001408 <usb_handle_setup_packet+0x540>)
100012f0:	484a      	ldr	r0, [pc, #296]	; (1000141c <usb_handle_setup_packet+0x554>)
100012f2:	7859      	ldrb	r1, [r3, #1]
100012f4:	b2c9      	uxtb	r1, r1
100012f6:	f004 f825 	bl	10005344 <__wrap_printf>
100012fa:	e683      	b.n	10001004 <usb_handle_setup_packet+0x13c>
100012fc:	0022      	movs	r2, r4
100012fe:	32d4      	adds	r2, #212	; 0xd4
10001300:	e66e      	b.n	10000fe0 <usb_handle_setup_packet+0x118>
10001302:	0022      	movs	r2, r4
10001304:	32ec      	adds	r2, #236	; 0xec
10001306:	e66b      	b.n	10000fe0 <usb_handle_setup_packet+0x118>
10001308:	1d62      	adds	r2, r4, #5
1000130a:	32ff      	adds	r2, #255	; 0xff
1000130c:	e668      	b.n	10000fe0 <usb_handle_setup_packet+0x118>
1000130e:	0022      	movs	r2, r4
10001310:	321d      	adds	r2, #29
10001312:	32ff      	adds	r2, #255	; 0xff
10001314:	e664      	b.n	10000fe0 <usb_handle_setup_packet+0x118>
10001316:	0022      	movs	r2, r4
10001318:	3235      	adds	r2, #53	; 0x35
1000131a:	32ff      	adds	r2, #255	; 0xff
1000131c:	e660      	b.n	10000fe0 <usb_handle_setup_packet+0x118>
1000131e:	0022      	movs	r2, r4
10001320:	324d      	adds	r2, #77	; 0x4d
10001322:	32ff      	adds	r2, #255	; 0xff
10001324:	e65c      	b.n	10000fe0 <usb_handle_setup_packet+0x118>
10001326:	0022      	movs	r2, r4
10001328:	3265      	adds	r2, #101	; 0x65
1000132a:	32ff      	adds	r2, #255	; 0xff
1000132c:	e658      	b.n	10000fe0 <usb_handle_setup_packet+0x118>
1000132e:	21a4      	movs	r1, #164	; 0xa4
10001330:	2284      	movs	r2, #132	; 0x84
10001332:	0209      	lsls	r1, r1, #8
10001334:	0212      	lsls	r2, r2, #8
10001336:	e70e      	b.n	10001156 <usb_handle_setup_packet+0x28e>
10001338:	34d4      	adds	r4, #212	; 0xd4
1000133a:	e77c      	b.n	10001236 <usb_handle_setup_packet+0x36e>
1000133c:	0022      	movs	r2, r4
1000133e:	3214      	adds	r2, #20
10001340:	e64e      	b.n	10000fe0 <usb_handle_setup_packet+0x118>
10001342:	0022      	movs	r2, r4
10001344:	322c      	adds	r2, #44	; 0x2c
10001346:	e64b      	b.n	10000fe0 <usb_handle_setup_packet+0x118>
10001348:	0022      	movs	r2, r4
1000134a:	3244      	adds	r2, #68	; 0x44
1000134c:	e648      	b.n	10000fe0 <usb_handle_setup_packet+0x118>
1000134e:	0022      	movs	r2, r4
10001350:	325c      	adds	r2, #92	; 0x5c
10001352:	e645      	b.n	10000fe0 <usb_handle_setup_packet+0x118>
10001354:	0022      	movs	r2, r4
10001356:	3274      	adds	r2, #116	; 0x74
10001358:	e642      	b.n	10000fe0 <usb_handle_setup_packet+0x118>
1000135a:	0022      	movs	r2, r4
1000135c:	328c      	adds	r2, #140	; 0x8c
1000135e:	e63f      	b.n	10000fe0 <usb_handle_setup_packet+0x118>
10001360:	0022      	movs	r2, r4
10001362:	32a4      	adds	r2, #164	; 0xa4
10001364:	e63c      	b.n	10000fe0 <usb_handle_setup_packet+0x118>
10001366:	0022      	movs	r2, r4
10001368:	32bc      	adds	r2, #188	; 0xbc
1000136a:	e639      	b.n	10000fe0 <usb_handle_setup_packet+0x118>
1000136c:	f7ff fcb4 	bl	10000cd8 <usb_handle_string_descriptor>
10001370:	482b      	ldr	r0, [pc, #172]	; (10001420 <usb_handle_setup_packet+0x558>)
10001372:	f003 ff37 	bl	100051e4 <__wrap_puts>
10001376:	e645      	b.n	10001004 <usb_handle_setup_packet+0x13c>
10001378:	f7ff fbac 	bl	10000ad4 <usb_handle_config_descriptor>
1000137c:	4829      	ldr	r0, [pc, #164]	; (10001424 <usb_handle_setup_packet+0x55c>)
1000137e:	f003 ff31 	bl	100051e4 <__wrap_puts>
10001382:	e63f      	b.n	10001004 <usb_handle_setup_packet+0x13c>
10001384:	f7ff fac8 	bl	10000918 <usb_handle_device_descriptor>
10001388:	4827      	ldr	r0, [pc, #156]	; (10001428 <usb_handle_setup_packet+0x560>)
1000138a:	f003 ff2b 	bl	100051e4 <__wrap_puts>
1000138e:	e639      	b.n	10001004 <usb_handle_setup_packet+0x13c>
10001390:	21a4      	movs	r1, #164	; 0xa4
10001392:	2284      	movs	r2, #132	; 0x84
10001394:	0209      	lsls	r1, r1, #8
10001396:	0212      	lsls	r2, r2, #8
10001398:	e75b      	b.n	10001252 <usb_handle_setup_packet+0x38a>
1000139a:	3414      	adds	r4, #20
1000139c:	e6cd      	b.n	1000113a <usb_handle_setup_packet+0x272>
1000139e:	3444      	adds	r4, #68	; 0x44
100013a0:	e6cb      	b.n	1000113a <usb_handle_setup_packet+0x272>
100013a2:	342c      	adds	r4, #44	; 0x2c
100013a4:	e6c9      	b.n	1000113a <usb_handle_setup_packet+0x272>
100013a6:	3414      	adds	r4, #20
100013a8:	e745      	b.n	10001236 <usb_handle_setup_packet+0x36e>
100013aa:	34a4      	adds	r4, #164	; 0xa4
100013ac:	e6c5      	b.n	1000113a <usb_handle_setup_packet+0x272>
100013ae:	348c      	adds	r4, #140	; 0x8c
100013b0:	e6c3      	b.n	1000113a <usb_handle_setup_packet+0x272>
100013b2:	3474      	adds	r4, #116	; 0x74
100013b4:	e6c1      	b.n	1000113a <usb_handle_setup_packet+0x272>
100013b6:	345c      	adds	r4, #92	; 0x5c
100013b8:	e6bf      	b.n	1000113a <usb_handle_setup_packet+0x272>
100013ba:	342c      	adds	r4, #44	; 0x2c
100013bc:	e73b      	b.n	10001236 <usb_handle_setup_packet+0x36e>
100013be:	34d4      	adds	r4, #212	; 0xd4
100013c0:	e6bb      	b.n	1000113a <usb_handle_setup_packet+0x272>
100013c2:	34bc      	adds	r4, #188	; 0xbc
100013c4:	e6b9      	b.n	1000113a <usb_handle_setup_packet+0x272>
100013c6:	3405      	adds	r4, #5
100013c8:	34ff      	adds	r4, #255	; 0xff
100013ca:	e6b6      	b.n	1000113a <usb_handle_setup_packet+0x272>
100013cc:	34ec      	adds	r4, #236	; 0xec
100013ce:	e6b4      	b.n	1000113a <usb_handle_setup_packet+0x272>
100013d0:	3465      	adds	r4, #101	; 0x65
100013d2:	34ff      	adds	r4, #255	; 0xff
100013d4:	e6b1      	b.n	1000113a <usb_handle_setup_packet+0x272>
100013d6:	344d      	adds	r4, #77	; 0x4d
100013d8:	34ff      	adds	r4, #255	; 0xff
100013da:	e6ae      	b.n	1000113a <usb_handle_setup_packet+0x272>
100013dc:	3435      	adds	r4, #53	; 0x35
100013de:	34ff      	adds	r4, #255	; 0xff
100013e0:	e6ab      	b.n	1000113a <usb_handle_setup_packet+0x272>
100013e2:	341d      	adds	r4, #29
100013e4:	34ff      	adds	r4, #255	; 0xff
100013e6:	e6a8      	b.n	1000113a <usb_handle_setup_packet+0x272>
100013e8:	34bc      	adds	r4, #188	; 0xbc
100013ea:	e724      	b.n	10001236 <usb_handle_setup_packet+0x36e>
100013ec:	3444      	adds	r4, #68	; 0x44
100013ee:	e722      	b.n	10001236 <usb_handle_setup_packet+0x36e>
100013f0:	3474      	adds	r4, #116	; 0x74
100013f2:	e720      	b.n	10001236 <usb_handle_setup_packet+0x36e>
100013f4:	345c      	adds	r4, #92	; 0x5c
100013f6:	e71e      	b.n	10001236 <usb_handle_setup_packet+0x36e>
100013f8:	34a4      	adds	r4, #164	; 0xa4
100013fa:	e71c      	b.n	10001236 <usb_handle_setup_packet+0x36e>
100013fc:	348c      	adds	r4, #140	; 0x8c
100013fe:	e71a      	b.n	10001236 <usb_handle_setup_packet+0x36e>
10001400:	2300      	movs	r3, #0
10001402:	751b      	strb	r3, [r3, #20]
10001404:	deff      	udf	#255	; 0xff
10001406:	46c0      	nop			; (mov r8, r8)
10001408:	50100000 	.word	0x50100000
1000140c:	10005e0c 	.word	0x10005e0c
10001410:	20000cfa 	.word	0x20000cfa
10001414:	20000cfc 	.word	0x20000cfc
10001418:	10005d98 	.word	0x10005d98
1000141c:	10005ec0 	.word	0x10005ec0
10001420:	10005e80 	.word	0x10005e80
10001424:	10005e68 	.word	0x10005e68
10001428:	10005e50 	.word	0x10005e50

1000142c <isr_irq5>:
1000142c:	b5f8      	push	{r3, r4, r5, r6, r7, lr}
1000142e:	464e      	mov	r6, r9
10001430:	4645      	mov	r5, r8
10001432:	2398      	movs	r3, #152	; 0x98
10001434:	46de      	mov	lr, fp
10001436:	4657      	mov	r7, sl
10001438:	4a48      	ldr	r2, [pc, #288]	; (1000155c <isr_irq5+0x130>)
1000143a:	b5e0      	push	{r5, r6, r7, lr}
1000143c:	58d6      	ldr	r6, [r2, r3]
1000143e:	2480      	movs	r4, #128	; 0x80
10001440:	0035      	movs	r5, r6
10001442:	0264      	lsls	r4, r4, #9
10001444:	3b88      	subs	r3, #136	; 0x88
10001446:	4699      	mov	r9, r3
10001448:	4025      	ands	r5, r4
1000144a:	4226      	tst	r6, r4
1000144c:	d10e      	bne.n	1000146c <isr_irq5+0x40>
1000144e:	06f3      	lsls	r3, r6, #27
10001450:	d417      	bmi.n	10001482 <isr_irq5+0x56>
10001452:	2480      	movs	r4, #128	; 0x80
10001454:	0164      	lsls	r4, r4, #5
10001456:	4226      	tst	r6, r4
10001458:	d151      	bne.n	100014fe <isr_irq5+0xd2>
1000145a:	42b5      	cmp	r5, r6
1000145c:	d000      	beq.n	10001460 <isr_irq5+0x34>
1000145e:	e078      	b.n	10001552 <isr_irq5+0x126>
10001460:	bc3c      	pop	{r2, r3, r4, r5}
10001462:	4690      	mov	r8, r2
10001464:	4699      	mov	r9, r3
10001466:	46a2      	mov	sl, r4
10001468:	46ab      	mov	fp, r5
1000146a:	bdf8      	pop	{r3, r4, r5, r6, r7, pc}
1000146c:	2280      	movs	r2, #128	; 0x80
1000146e:	4b3c      	ldr	r3, [pc, #240]	; (10001560 <isr_irq5+0x134>)
10001470:	0292      	lsls	r2, r2, #10
10001472:	651a      	str	r2, [r3, #80]	; 0x50
10001474:	f7ff fd28 	bl	10000ec8 <usb_handle_setup_packet>
10001478:	4b3a      	ldr	r3, [pc, #232]	; (10001564 <isr_irq5+0x138>)
1000147a:	0025      	movs	r5, r4
1000147c:	4699      	mov	r9, r3
1000147e:	06f3      	lsls	r3, r6, #27
10001480:	d5e7      	bpl.n	10001452 <isr_irq5+0x26>
10001482:	4b36      	ldr	r3, [pc, #216]	; (1000155c <isr_irq5+0x130>)
10001484:	6d9b      	ldr	r3, [r3, #88]	; 0x58
10001486:	4698      	mov	r8, r3
10001488:	2b00      	cmp	r3, #0
1000148a:	d033      	beq.n	100014f4 <isr_irq5+0xc8>
1000148c:	2701      	movs	r7, #1
1000148e:	4b34      	ldr	r3, [pc, #208]	; (10001560 <isr_irq5+0x134>)
10001490:	2501      	movs	r5, #1
10001492:	469b      	mov	fp, r3
10001494:	4b34      	ldr	r3, [pc, #208]	; (10001568 <isr_irq5+0x13c>)
10001496:	427f      	negs	r7, r7
10001498:	469a      	mov	sl, r3
1000149a:	e004      	b.n	100014a6 <isr_irq5+0x7a>
1000149c:	006d      	lsls	r5, r5, #1
1000149e:	3f01      	subs	r7, #1
100014a0:	003b      	movs	r3, r7
100014a2:	3321      	adds	r3, #33	; 0x21
100014a4:	d026      	beq.n	100014f4 <isr_irq5+0xc8>
100014a6:	4643      	mov	r3, r8
100014a8:	43f9      	mvns	r1, r7
100014aa:	422b      	tst	r3, r5
100014ac:	d0f6      	beq.n	1000149c <isr_irq5+0x70>
100014ae:	2401      	movs	r4, #1
100014b0:	0022      	movs	r2, r4
100014b2:	465b      	mov	r3, fp
100014b4:	403a      	ands	r2, r7
100014b6:	659d      	str	r5, [r3, #88]	; 0x58
100014b8:	4253      	negs	r3, r2
100014ba:	401c      	ands	r4, r3
100014bc:	0849      	lsrs	r1, r1, #1
100014be:	4650      	mov	r0, sl
100014c0:	01e4      	lsls	r4, r4, #7
100014c2:	430c      	orrs	r4, r1
100014c4:	f003 ff3e 	bl	10005344 <__wrap_printf>
100014c8:	2300      	movs	r3, #0
100014ca:	4928      	ldr	r1, [pc, #160]	; (1000156c <isr_irq5+0x140>)
100014cc:	b2e4      	uxtb	r4, r4
100014ce:	6808      	ldr	r0, [r1, #0]
100014d0:	2800      	cmp	r0, #0
100014d2:	d005      	beq.n	100014e0 <isr_irq5+0xb4>
100014d4:	684a      	ldr	r2, [r1, #4]
100014d6:	2a00      	cmp	r2, #0
100014d8:	d002      	beq.n	100014e0 <isr_irq5+0xb4>
100014da:	7880      	ldrb	r0, [r0, #2]
100014dc:	42a0      	cmp	r0, r4
100014de:	d020      	beq.n	10001522 <isr_irq5+0xf6>
100014e0:	3301      	adds	r3, #1
100014e2:	3118      	adds	r1, #24
100014e4:	2b10      	cmp	r3, #16
100014e6:	d1f2      	bne.n	100014ce <isr_irq5+0xa2>
100014e8:	4643      	mov	r3, r8
100014ea:	43ab      	bics	r3, r5
100014ec:	4698      	mov	r8, r3
100014ee:	006d      	lsls	r5, r5, #1
100014f0:	2b00      	cmp	r3, #0
100014f2:	d1d4      	bne.n	1000149e <isr_irq5+0x72>
100014f4:	2480      	movs	r4, #128	; 0x80
100014f6:	0164      	lsls	r4, r4, #5
100014f8:	464d      	mov	r5, r9
100014fa:	4226      	tst	r6, r4
100014fc:	d0ad      	beq.n	1000145a <isr_irq5+0x2e>
100014fe:	481c      	ldr	r0, [pc, #112]	; (10001570 <isr_irq5+0x144>)
10001500:	f003 fe70 	bl	100051e4 <__wrap_puts>
10001504:	2280      	movs	r2, #128	; 0x80
10001506:	4b16      	ldr	r3, [pc, #88]	; (10001560 <isr_irq5+0x134>)
10001508:	0312      	lsls	r2, r2, #12
1000150a:	651a      	str	r2, [r3, #80]	; 0x50
1000150c:	2300      	movs	r3, #0
1000150e:	4a19      	ldr	r2, [pc, #100]	; (10001574 <isr_irq5+0x148>)
10001510:	4325      	orrs	r5, r4
10001512:	7013      	strb	r3, [r2, #0]
10001514:	4a18      	ldr	r2, [pc, #96]	; (10001578 <isr_irq5+0x14c>)
10001516:	7013      	strb	r3, [r2, #0]
10001518:	4a10      	ldr	r2, [pc, #64]	; (1000155c <isr_irq5+0x130>)
1000151a:	6013      	str	r3, [r2, #0]
1000151c:	4a17      	ldr	r2, [pc, #92]	; (1000157c <isr_irq5+0x150>)
1000151e:	7013      	strb	r3, [r2, #0]
10001520:	e79b      	b.n	1000145a <isr_irq5+0x2e>
10001522:	1c58      	adds	r0, r3, #1
10001524:	0041      	lsls	r1, r0, #1
10001526:	1809      	adds	r1, r1, r0
10001528:	4815      	ldr	r0, [pc, #84]	; (10001580 <isr_irq5+0x154>)
1000152a:	00c9      	lsls	r1, r1, #3
1000152c:	4684      	mov	ip, r0
1000152e:	4461      	add	r1, ip
10001530:	6889      	ldr	r1, [r1, #8]
10001532:	0058      	lsls	r0, r3, #1
10001534:	6809      	ldr	r1, [r1, #0]
10001536:	18c3      	adds	r3, r0, r3
10001538:	00db      	lsls	r3, r3, #3
1000153a:	4463      	add	r3, ip
1000153c:	0589      	lsls	r1, r1, #22
1000153e:	6a58      	ldr	r0, [r3, #36]	; 0x24
10001540:	0d89      	lsrs	r1, r1, #22
10001542:	4790      	blx	r2
10001544:	4643      	mov	r3, r8
10001546:	43ab      	bics	r3, r5
10001548:	4698      	mov	r8, r3
1000154a:	006d      	lsls	r5, r5, #1
1000154c:	2b00      	cmp	r3, #0
1000154e:	d1a6      	bne.n	1000149e <isr_irq5+0x72>
10001550:	e7d0      	b.n	100014f4 <isr_irq5+0xc8>
10001552:	0029      	movs	r1, r5
10001554:	480b      	ldr	r0, [pc, #44]	; (10001584 <isr_irq5+0x158>)
10001556:	4071      	eors	r1, r6
10001558:	f000 ff7a 	bl	10002450 <panic>
1000155c:	50110000 	.word	0x50110000
10001560:	50113000 	.word	0x50113000
10001564:	00010010 	.word	0x00010010
10001568:	10005edc 	.word	0x10005edc
1000156c:	200001a4 	.word	0x200001a4
10001570:	10005ef4 	.word	0x10005ef4
10001574:	20000cfa 	.word	0x20000cfa
10001578:	20000cfc 	.word	0x20000cfc
1000157c:	20000cf9 	.word	0x20000cf9
10001580:	20000190 	.word	0x20000190
10001584:	10005f00 	.word	0x10005f00

10001588 <main>:
10001588:	b510      	push	{r4, lr}
1000158a:	f003 fee7 	bl	1000535c <stdio_init_all>
1000158e:	4851      	ldr	r0, [pc, #324]	; (100016d4 <main+0x14c>)
10001590:	f003 fe28 	bl	100051e4 <__wrap_puts>
10001594:	f7ff f936 	bl	10000804 <usb_device_init>
10001598:	4b4f      	ldr	r3, [pc, #316]	; (100016d8 <main+0x150>)
1000159a:	781a      	ldrb	r2, [r3, #0]
1000159c:	2a00      	cmp	r2, #0
1000159e:	d0fc      	beq.n	1000159a <main+0x12>
100015a0:	4b4e      	ldr	r3, [pc, #312]	; (100016dc <main+0x154>)
100015a2:	695a      	ldr	r2, [r3, #20]
100015a4:	2a00      	cmp	r2, #0
100015a6:	d002      	beq.n	100015ae <main+0x26>
100015a8:	7892      	ldrb	r2, [r2, #2]
100015aa:	2a01      	cmp	r2, #1
100015ac:	d072      	beq.n	10001694 <main+0x10c>
100015ae:	6ada      	ldr	r2, [r3, #44]	; 0x2c
100015b0:	2a00      	cmp	r2, #0
100015b2:	d003      	beq.n	100015bc <main+0x34>
100015b4:	7892      	ldrb	r2, [r2, #2]
100015b6:	2a01      	cmp	r2, #1
100015b8:	d100      	bne.n	100015bc <main+0x34>
100015ba:	e089      	b.n	100016d0 <main+0x148>
100015bc:	6c5a      	ldr	r2, [r3, #68]	; 0x44
100015be:	2a00      	cmp	r2, #0
100015c0:	d003      	beq.n	100015ca <main+0x42>
100015c2:	7892      	ldrb	r2, [r2, #2]
100015c4:	2a01      	cmp	r2, #1
100015c6:	d100      	bne.n	100015ca <main+0x42>
100015c8:	e080      	b.n	100016cc <main+0x144>
100015ca:	6dda      	ldr	r2, [r3, #92]	; 0x5c
100015cc:	2a00      	cmp	r2, #0
100015ce:	d002      	beq.n	100015d6 <main+0x4e>
100015d0:	7892      	ldrb	r2, [r2, #2]
100015d2:	2a01      	cmp	r2, #1
100015d4:	d078      	beq.n	100016c8 <main+0x140>
100015d6:	6f5a      	ldr	r2, [r3, #116]	; 0x74
100015d8:	2a00      	cmp	r2, #0
100015da:	d002      	beq.n	100015e2 <main+0x5a>
100015dc:	7892      	ldrb	r2, [r2, #2]
100015de:	2a01      	cmp	r2, #1
100015e0:	d070      	beq.n	100016c4 <main+0x13c>
100015e2:	228c      	movs	r2, #140	; 0x8c
100015e4:	589a      	ldr	r2, [r3, r2]
100015e6:	2a00      	cmp	r2, #0
100015e8:	d002      	beq.n	100015f0 <main+0x68>
100015ea:	7892      	ldrb	r2, [r2, #2]
100015ec:	2a01      	cmp	r2, #1
100015ee:	d067      	beq.n	100016c0 <main+0x138>
100015f0:	22a4      	movs	r2, #164	; 0xa4
100015f2:	589a      	ldr	r2, [r3, r2]
100015f4:	2a00      	cmp	r2, #0
100015f6:	d002      	beq.n	100015fe <main+0x76>
100015f8:	7892      	ldrb	r2, [r2, #2]
100015fa:	2a01      	cmp	r2, #1
100015fc:	d05e      	beq.n	100016bc <main+0x134>
100015fe:	22bc      	movs	r2, #188	; 0xbc
10001600:	589a      	ldr	r2, [r3, r2]
10001602:	2a00      	cmp	r2, #0
10001604:	d002      	beq.n	1000160c <main+0x84>
10001606:	7892      	ldrb	r2, [r2, #2]
10001608:	2a01      	cmp	r2, #1
1000160a:	d055      	beq.n	100016b8 <main+0x130>
1000160c:	22d4      	movs	r2, #212	; 0xd4
1000160e:	589a      	ldr	r2, [r3, r2]
10001610:	2a00      	cmp	r2, #0
10001612:	d002      	beq.n	1000161a <main+0x92>
10001614:	7892      	ldrb	r2, [r2, #2]
10001616:	2a01      	cmp	r2, #1
10001618:	d04c      	beq.n	100016b4 <main+0x12c>
1000161a:	22ec      	movs	r2, #236	; 0xec
1000161c:	589a      	ldr	r2, [r3, r2]
1000161e:	2a00      	cmp	r2, #0
10001620:	d002      	beq.n	10001628 <main+0xa0>
10001622:	7892      	ldrb	r2, [r2, #2]
10001624:	2a01      	cmp	r2, #1
10001626:	d043      	beq.n	100016b0 <main+0x128>
10001628:	2282      	movs	r2, #130	; 0x82
1000162a:	0052      	lsls	r2, r2, #1
1000162c:	589a      	ldr	r2, [r3, r2]
1000162e:	2a00      	cmp	r2, #0
10001630:	d002      	beq.n	10001638 <main+0xb0>
10001632:	7892      	ldrb	r2, [r2, #2]
10001634:	2a01      	cmp	r2, #1
10001636:	d039      	beq.n	100016ac <main+0x124>
10001638:	228e      	movs	r2, #142	; 0x8e
1000163a:	0052      	lsls	r2, r2, #1
1000163c:	589a      	ldr	r2, [r3, r2]
1000163e:	2a00      	cmp	r2, #0
10001640:	d002      	beq.n	10001648 <main+0xc0>
10001642:	7892      	ldrb	r2, [r2, #2]
10001644:	2a01      	cmp	r2, #1
10001646:	d02f      	beq.n	100016a8 <main+0x120>
10001648:	229a      	movs	r2, #154	; 0x9a
1000164a:	0052      	lsls	r2, r2, #1
1000164c:	589a      	ldr	r2, [r3, r2]
1000164e:	2a00      	cmp	r2, #0
10001650:	d002      	beq.n	10001658 <main+0xd0>
10001652:	7892      	ldrb	r2, [r2, #2]
10001654:	2a01      	cmp	r2, #1
10001656:	d025      	beq.n	100016a4 <main+0x11c>
10001658:	22a6      	movs	r2, #166	; 0xa6
1000165a:	0052      	lsls	r2, r2, #1
1000165c:	589a      	ldr	r2, [r3, r2]
1000165e:	2a00      	cmp	r2, #0
10001660:	d002      	beq.n	10001668 <main+0xe0>
10001662:	7892      	ldrb	r2, [r2, #2]
10001664:	2a01      	cmp	r2, #1
10001666:	d01b      	beq.n	100016a0 <main+0x118>
10001668:	22b2      	movs	r2, #178	; 0xb2
1000166a:	0052      	lsls	r2, r2, #1
1000166c:	589a      	ldr	r2, [r3, r2]
1000166e:	2a00      	cmp	r2, #0
10001670:	d002      	beq.n	10001678 <main+0xf0>
10001672:	7892      	ldrb	r2, [r2, #2]
10001674:	2a01      	cmp	r2, #1
10001676:	d011      	beq.n	1000169c <main+0x114>
10001678:	22be      	movs	r2, #190	; 0xbe
1000167a:	0052      	lsls	r2, r2, #1
1000167c:	5898      	ldr	r0, [r3, r2]
1000167e:	2800      	cmp	r0, #0
10001680:	d003      	beq.n	1000168a <main+0x102>
10001682:	7883      	ldrb	r3, [r0, #2]
10001684:	2000      	movs	r0, #0
10001686:	2b01      	cmp	r3, #1
10001688:	d006      	beq.n	10001698 <main+0x110>
1000168a:	2240      	movs	r2, #64	; 0x40
1000168c:	2100      	movs	r1, #0
1000168e:	f7ff f91b 	bl	100008c8 <usb_start_transfer>
10001692:	e7fe      	b.n	10001692 <main+0x10a>
10001694:	4812      	ldr	r0, [pc, #72]	; (100016e0 <main+0x158>)
10001696:	e7f8      	b.n	1000168a <main+0x102>
10001698:	4812      	ldr	r0, [pc, #72]	; (100016e4 <main+0x15c>)
1000169a:	e7f6      	b.n	1000168a <main+0x102>
1000169c:	4812      	ldr	r0, [pc, #72]	; (100016e8 <main+0x160>)
1000169e:	e7f4      	b.n	1000168a <main+0x102>
100016a0:	4812      	ldr	r0, [pc, #72]	; (100016ec <main+0x164>)
100016a2:	e7f2      	b.n	1000168a <main+0x102>
100016a4:	4812      	ldr	r0, [pc, #72]	; (100016f0 <main+0x168>)
100016a6:	e7f0      	b.n	1000168a <main+0x102>
100016a8:	4812      	ldr	r0, [pc, #72]	; (100016f4 <main+0x16c>)
100016aa:	e7ee      	b.n	1000168a <main+0x102>
100016ac:	4812      	ldr	r0, [pc, #72]	; (100016f8 <main+0x170>)
100016ae:	e7ec      	b.n	1000168a <main+0x102>
100016b0:	4812      	ldr	r0, [pc, #72]	; (100016fc <main+0x174>)
100016b2:	e7ea      	b.n	1000168a <main+0x102>
100016b4:	4812      	ldr	r0, [pc, #72]	; (10001700 <main+0x178>)
100016b6:	e7e8      	b.n	1000168a <main+0x102>
100016b8:	4812      	ldr	r0, [pc, #72]	; (10001704 <main+0x17c>)
100016ba:	e7e6      	b.n	1000168a <main+0x102>
100016bc:	4812      	ldr	r0, [pc, #72]	; (10001708 <main+0x180>)
100016be:	e7e4      	b.n	1000168a <main+0x102>
100016c0:	4812      	ldr	r0, [pc, #72]	; (1000170c <main+0x184>)
100016c2:	e7e2      	b.n	1000168a <main+0x102>
100016c4:	4812      	ldr	r0, [pc, #72]	; (10001710 <main+0x188>)
100016c6:	e7e0      	b.n	1000168a <main+0x102>
100016c8:	4812      	ldr	r0, [pc, #72]	; (10001714 <main+0x18c>)
100016ca:	e7de      	b.n	1000168a <main+0x102>
100016cc:	4812      	ldr	r0, [pc, #72]	; (10001718 <main+0x190>)
100016ce:	e7dc      	b.n	1000168a <main+0x102>
100016d0:	4812      	ldr	r0, [pc, #72]	; (1000171c <main+0x194>)
100016d2:	e7da      	b.n	1000168a <main+0x102>
100016d4:	10005f14 	.word	0x10005f14
100016d8:	20000cf9 	.word	0x20000cf9
100016dc:	20000190 	.word	0x20000190
100016e0:	200001a4 	.word	0x200001a4
100016e4:	2000030c 	.word	0x2000030c
100016e8:	200002f4 	.word	0x200002f4
100016ec:	200002dc 	.word	0x200002dc
100016f0:	200002c4 	.word	0x200002c4
100016f4:	200002ac 	.word	0x200002ac
100016f8:	20000294 	.word	0x20000294
100016fc:	2000027c 	.word	0x2000027c
10001700:	20000264 	.word	0x20000264
10001704:	2000024c 	.word	0x2000024c
10001708:	20000234 	.word	0x20000234
1000170c:	2000021c 	.word	0x2000021c
10001710:	20000204 	.word	0x20000204
10001714:	200001ec 	.word	0x200001ec
10001718:	200001d4 	.word	0x200001d4
1000171c:	200001bc 	.word	0x200001bc

10001720 <gpio_set_function>:
10001720:	4a09      	ldr	r2, [pc, #36]	; (10001748 <gpio_set_function+0x28>)
10001722:	0083      	lsls	r3, r0, #2
10001724:	4694      	mov	ip, r2
10001726:	2240      	movs	r2, #64	; 0x40
10001728:	4463      	add	r3, ip
1000172a:	b510      	push	{r4, lr}
1000172c:	681c      	ldr	r4, [r3, #0]
1000172e:	00c0      	lsls	r0, r0, #3
10001730:	4062      	eors	r2, r4
10001732:	24c0      	movs	r4, #192	; 0xc0
10001734:	4014      	ands	r4, r2
10001736:	2280      	movs	r2, #128	; 0x80
10001738:	0152      	lsls	r2, r2, #5
1000173a:	4313      	orrs	r3, r2
1000173c:	601c      	str	r4, [r3, #0]
1000173e:	4b03      	ldr	r3, [pc, #12]	; (1000174c <gpio_set_function+0x2c>)
10001740:	469c      	mov	ip, r3
10001742:	4460      	add	r0, ip
10001744:	6041      	str	r1, [r0, #4]
10001746:	bd10      	pop	{r4, pc}
10001748:	4001c004 	.word	0x4001c004
1000174c:	40014000 	.word	0x40014000

10001750 <hw_claim_or_assert>:
10001750:	b5f8      	push	{r3, r4, r5, r6, r7, lr}
10001752:	46ce      	mov	lr, r9
10001754:	4647      	mov	r7, r8
10001756:	4691      	mov	r9, r2
10001758:	b580      	push	{r7, lr}
1000175a:	f3ef 8710 	mrs	r7, PRIMASK
1000175e:	b672      	cpsid	i
10001760:	4e12      	ldr	r6, [pc, #72]	; (100017ac <hw_claim_or_assert+0x5c>)
10001762:	6833      	ldr	r3, [r6, #0]
10001764:	2b00      	cmp	r3, #0
10001766:	d0fc      	beq.n	10001762 <hw_claim_or_assert+0x12>
10001768:	f3bf 8f5f 	dmb	sy
1000176c:	08cb      	lsrs	r3, r1, #3
1000176e:	5cc5      	ldrb	r5, [r0, r3]
10001770:	2407      	movs	r4, #7
10001772:	18c2      	adds	r2, r0, r3
10001774:	0028      	movs	r0, r5
10001776:	2301      	movs	r3, #1
10001778:	400c      	ands	r4, r1
1000177a:	4694      	mov	ip, r2
1000177c:	40e0      	lsrs	r0, r4
1000177e:	001a      	movs	r2, r3
10001780:	4002      	ands	r2, r0
10001782:	4690      	mov	r8, r2
10001784:	4203      	tst	r3, r0
10001786:	d10d      	bne.n	100017a4 <hw_claim_or_assert+0x54>
10001788:	40a3      	lsls	r3, r4
1000178a:	4662      	mov	r2, ip
1000178c:	432b      	orrs	r3, r5
1000178e:	7013      	strb	r3, [r2, #0]
10001790:	f3bf 8f5f 	dmb	sy
10001794:	4643      	mov	r3, r8
10001796:	6033      	str	r3, [r6, #0]
10001798:	f387 8810 	msr	PRIMASK, r7
1000179c:	bc0c      	pop	{r2, r3}
1000179e:	4690      	mov	r8, r2
100017a0:	4699      	mov	r9, r3
100017a2:	bdf8      	pop	{r3, r4, r5, r6, r7, pc}
100017a4:	4648      	mov	r0, r9
100017a6:	f000 fe53 	bl	10002450 <panic>
100017aa:	46c0      	nop			; (mov r8, r8)
100017ac:	d000012c 	.word	0xd000012c

100017b0 <spin_locks_reset>:
100017b0:	2100      	movs	r1, #0
100017b2:	4b04      	ldr	r3, [pc, #16]	; (100017c4 <spin_locks_reset+0x14>)
100017b4:	4a04      	ldr	r2, [pc, #16]	; (100017c8 <spin_locks_reset+0x18>)
100017b6:	f3bf 8f5f 	dmb	sy
100017ba:	c302      	stmia	r3!, {r1}
100017bc:	4293      	cmp	r3, r2
100017be:	d1fa      	bne.n	100017b6 <spin_locks_reset+0x6>
100017c0:	4770      	bx	lr
100017c2:	46c0      	nop			; (mov r8, r8)
100017c4:	d0000100 	.word	0xd0000100
100017c8:	d0000180 	.word	0xd0000180

100017cc <next_striped_spin_lock_num>:
100017cc:	4a04      	ldr	r2, [pc, #16]	; (100017e0 <next_striped_spin_lock_num+0x14>)
100017ce:	7810      	ldrb	r0, [r2, #0]
100017d0:	1c43      	adds	r3, r0, #1
100017d2:	b2db      	uxtb	r3, r3
100017d4:	2b17      	cmp	r3, #23
100017d6:	d900      	bls.n	100017da <next_striped_spin_lock_num+0xe>
100017d8:	2310      	movs	r3, #16
100017da:	7013      	strb	r3, [r2, #0]
100017dc:	4770      	bx	lr
100017de:	46c0      	nop			; (mov r8, r8)
100017e0:	20000324 	.word	0x20000324

100017e4 <running_on_fpga>:
100017e4:	4b02      	ldr	r3, [pc, #8]	; (100017f0 <running_on_fpga+0xc>)
100017e6:	6818      	ldr	r0, [r3, #0]
100017e8:	0780      	lsls	r0, r0, #30
100017ea:	0fc0      	lsrs	r0, r0, #31
100017ec:	4770      	bx	lr
100017ee:	46c0      	nop			; (mov r8, r8)
100017f0:	4006c000 	.word	0x4006c000

100017f4 <uart_init>:
100017f4:	b5f0      	push	{r4, r5, r6, r7, lr}
100017f6:	46c6      	mov	lr, r8
100017f8:	0005      	movs	r5, r0
100017fa:	b500      	push	{lr}
100017fc:	2006      	movs	r0, #6
100017fe:	000e      	movs	r6, r1
10001800:	f000 ffb4 	bl	1000276c <clock_get_hz>
10001804:	2800      	cmp	r0, #0
10001806:	d04d      	beq.n	100018a4 <uart_init+0xb0>
10001808:	4b29      	ldr	r3, [pc, #164]	; (100018b0 <uart_init+0xbc>)
1000180a:	492a      	ldr	r1, [pc, #168]	; (100018b4 <uart_init+0xc0>)
1000180c:	18eb      	adds	r3, r5, r3
1000180e:	425a      	negs	r2, r3
10001810:	4153      	adcs	r3, r2
10001812:	2280      	movs	r2, #128	; 0x80
10001814:	03d2      	lsls	r2, r2, #15
10001816:	4694      	mov	ip, r2
10001818:	425b      	negs	r3, r3
1000181a:	4013      	ands	r3, r2
1000181c:	4a26      	ldr	r2, [pc, #152]	; (100018b8 <uart_init+0xc4>)
1000181e:	4463      	add	r3, ip
10001820:	6013      	str	r3, [r2, #0]
10001822:	4a26      	ldr	r2, [pc, #152]	; (100018bc <uart_init+0xc8>)
10001824:	6013      	str	r3, [r2, #0]
10001826:	001c      	movs	r4, r3
10001828:	688a      	ldr	r2, [r1, #8]
1000182a:	4394      	bics	r4, r2
1000182c:	d1fb      	bne.n	10001826 <uart_init+0x32>
1000182e:	4b20      	ldr	r3, [pc, #128]	; (100018b0 <uart_init+0xbc>)
10001830:	2180      	movs	r1, #128	; 0x80
10001832:	18eb      	adds	r3, r5, r3
10001834:	425a      	negs	r2, r3
10001836:	4153      	adcs	r3, r2
10001838:	4a21      	ldr	r2, [pc, #132]	; (100018c0 <uart_init+0xcc>)
1000183a:	005b      	lsls	r3, r3, #1
1000183c:	0049      	lsls	r1, r1, #1
1000183e:	2006      	movs	r0, #6
10001840:	5299      	strh	r1, [r3, r2]
10001842:	f000 ff93 	bl	1000276c <clock_get_hz>
10001846:	0031      	movs	r1, r6
10001848:	00c0      	lsls	r0, r0, #3
1000184a:	f002 fd01 	bl	10004250 <__wrap___aeabi_uidiv>
1000184e:	267f      	movs	r6, #127	; 0x7f
10001850:	4b1c      	ldr	r3, [pc, #112]	; (100018c4 <uart_init+0xd0>)
10001852:	4006      	ands	r6, r0
10001854:	09c7      	lsrs	r7, r0, #7
10001856:	3601      	adds	r6, #1
10001858:	0876      	lsrs	r6, r6, #1
1000185a:	626f      	str	r7, [r5, #36]	; 0x24
1000185c:	429f      	cmp	r7, r3
1000185e:	d024      	beq.n	100018aa <uart_init+0xb6>
10001860:	62ae      	str	r6, [r5, #40]	; 0x28
10001862:	232c      	movs	r3, #44	; 0x2c
10001864:	4698      	mov	r8, r3
10001866:	2480      	movs	r4, #128	; 0x80
10001868:	44a8      	add	r8, r5
1000186a:	4643      	mov	r3, r8
1000186c:	01a4      	lsls	r4, r4, #6
1000186e:	431c      	orrs	r4, r3
10001870:	2300      	movs	r3, #0
10001872:	2006      	movs	r0, #6
10001874:	6023      	str	r3, [r4, #0]
10001876:	f000 ff79 	bl	1000276c <clock_get_hz>
1000187a:	01b9      	lsls	r1, r7, #6
1000187c:	1989      	adds	r1, r1, r6
1000187e:	0080      	lsls	r0, r0, #2
10001880:	f002 fce6 	bl	10004250 <__wrap___aeabi_uidiv>
10001884:	2360      	movs	r3, #96	; 0x60
10001886:	6aea      	ldr	r2, [r5, #44]	; 0x2c
10001888:	4641      	mov	r1, r8
1000188a:	4053      	eors	r3, r2
1000188c:	226e      	movs	r2, #110	; 0x6e
1000188e:	401a      	ands	r2, r3
10001890:	2380      	movs	r3, #128	; 0x80
10001892:	015b      	lsls	r3, r3, #5
10001894:	430b      	orrs	r3, r1
10001896:	601a      	str	r2, [r3, #0]
10001898:	4b0b      	ldr	r3, [pc, #44]	; (100018c8 <uart_init+0xd4>)
1000189a:	632b      	str	r3, [r5, #48]	; 0x30
1000189c:	2310      	movs	r3, #16
1000189e:	6023      	str	r3, [r4, #0]
100018a0:	3b0d      	subs	r3, #13
100018a2:	64ab      	str	r3, [r5, #72]	; 0x48
100018a4:	bc04      	pop	{r2}
100018a6:	4690      	mov	r8, r2
100018a8:	bdf0      	pop	{r4, r5, r6, r7, pc}
100018aa:	62ac      	str	r4, [r5, #40]	; 0x28
100018ac:	e7d9      	b.n	10001862 <uart_init+0x6e>
100018ae:	46c0      	nop			; (mov r8, r8)
100018b0:	bffc8000 	.word	0xbffc8000
100018b4:	4000c000 	.word	0x4000c000
100018b8:	4000e000 	.word	0x4000e000
100018bc:	4000f000 	.word	0x4000f000
100018c0:	20000d00 	.word	0x20000d00
100018c4:	0000ffff 	.word	0x0000ffff
100018c8:	00000301 	.word	0x00000301

100018cc <timer_pool_entry_comparator>:
100018cc:	6883      	ldr	r3, [r0, #8]
100018ce:	480b      	ldr	r0, [pc, #44]	; (100018fc <timer_pool_entry_comparator+0x30>)
100018d0:	b510      	push	{r4, lr}
100018d2:	4684      	mov	ip, r0
100018d4:	4461      	add	r1, ip
100018d6:	4462      	add	r2, ip
100018d8:	0109      	lsls	r1, r1, #4
100018da:	0112      	lsls	r2, r2, #4
100018dc:	189a      	adds	r2, r3, r2
100018de:	1859      	adds	r1, r3, r1
100018e0:	6854      	ldr	r4, [r2, #4]
100018e2:	684b      	ldr	r3, [r1, #4]
100018e4:	2001      	movs	r0, #1
100018e6:	429c      	cmp	r4, r3
100018e8:	d801      	bhi.n	100018ee <timer_pool_entry_comparator+0x22>
100018ea:	d002      	beq.n	100018f2 <timer_pool_entry_comparator+0x26>
100018ec:	2000      	movs	r0, #0
100018ee:	b2c0      	uxtb	r0, r0
100018f0:	bd10      	pop	{r4, pc}
100018f2:	6812      	ldr	r2, [r2, #0]
100018f4:	680b      	ldr	r3, [r1, #0]
100018f6:	429a      	cmp	r2, r3
100018f8:	d8f9      	bhi.n	100018ee <timer_pool_entry_comparator+0x22>
100018fa:	e7f7      	b.n	100018ec <timer_pool_entry_comparator+0x20>
100018fc:	0fffffff 	.word	0x0fffffff

10001900 <add_alarm_under_lock>:
10001900:	b5f0      	push	{r4, r5, r6, r7, lr}
10001902:	4657      	mov	r7, sl
10001904:	4645      	mov	r5, r8
10001906:	46de      	mov	lr, fp
10001908:	464e      	mov	r6, r9
1000190a:	b5e0      	push	{r5, r6, r7, lr}
1000190c:	b083      	sub	sp, #12
1000190e:	001f      	movs	r7, r3
10001910:	ab0f      	add	r3, sp, #60	; 0x3c
10001912:	781b      	ldrb	r3, [r3, #0]
10001914:	9c0e      	ldr	r4, [sp, #56]	; 0x38
10001916:	0005      	movs	r5, r0
10001918:	4692      	mov	sl, r2
1000191a:	9301      	str	r3, [sp, #4]
1000191c:	2c00      	cmp	r4, #0
1000191e:	d10d      	bne.n	1000193c <add_alarm_under_lock+0x3c>
10001920:	6802      	ldr	r2, [r0, #0]
10001922:	7b94      	ldrb	r4, [r2, #14]
10001924:	2c00      	cmp	r4, #0
10001926:	d056      	beq.n	100019d6 <add_alarm_under_lock+0xd6>
10001928:	6811      	ldr	r1, [r2, #0]
1000192a:	0063      	lsls	r3, r4, #1
1000192c:	468c      	mov	ip, r1
1000192e:	191b      	adds	r3, r3, r4
10001930:	4463      	add	r3, ip
10001932:	3b03      	subs	r3, #3
10001934:	785b      	ldrb	r3, [r3, #1]
10001936:	7393      	strb	r3, [r2, #14]
10001938:	2b00      	cmp	r3, #0
1000193a:	d054      	beq.n	100019e6 <add_alarm_under_lock+0xe6>
1000193c:	68aa      	ldr	r2, [r5, #8]
1000193e:	b2e3      	uxtb	r3, r4
10001940:	4694      	mov	ip, r2
10001942:	4652      	mov	r2, sl
10001944:	469b      	mov	fp, r3
10001946:	4b38      	ldr	r3, [pc, #224]	; (10001a28 <add_alarm_under_lock+0x128>)
10001948:	682e      	ldr	r6, [r5, #0]
1000194a:	18e3      	adds	r3, r4, r3
1000194c:	011b      	lsls	r3, r3, #4
1000194e:	4463      	add	r3, ip
10001950:	601a      	str	r2, [r3, #0]
10001952:	9a0c      	ldr	r2, [sp, #48]	; 0x30
10001954:	605f      	str	r7, [r3, #4]
10001956:	609a      	str	r2, [r3, #8]
10001958:	9a0d      	ldr	r2, [sp, #52]	; 0x34
1000195a:	60da      	str	r2, [r3, #12]
1000195c:	23d0      	movs	r3, #208	; 0xd0
1000195e:	2280      	movs	r2, #128	; 0x80
10001960:	061b      	lsls	r3, r3, #24
10001962:	0312      	lsls	r2, r2, #12
10001964:	615a      	str	r2, [r3, #20]
10001966:	0063      	lsls	r3, r4, #1
10001968:	191b      	adds	r3, r3, r4
1000196a:	3b03      	subs	r3, #3
1000196c:	4698      	mov	r8, r3
1000196e:	2200      	movs	r2, #0
10001970:	6833      	ldr	r3, [r6, #0]
10001972:	4443      	add	r3, r8
10001974:	709a      	strb	r2, [r3, #2]
10001976:	705a      	strb	r2, [r3, #1]
10001978:	701a      	strb	r2, [r3, #0]
1000197a:	7b73      	ldrb	r3, [r6, #13]
1000197c:	4699      	mov	r9, r3
1000197e:	2b00      	cmp	r3, #0
10001980:	d017      	beq.n	100019b2 <add_alarm_under_lock+0xb2>
10001982:	465a      	mov	r2, fp
10001984:	0019      	movs	r1, r3
10001986:	68b0      	ldr	r0, [r6, #8]
10001988:	6873      	ldr	r3, [r6, #4]
1000198a:	4798      	blx	r3
1000198c:	6832      	ldr	r2, [r6, #0]
1000198e:	2800      	cmp	r0, #0
10001990:	d12b      	bne.n	100019ea <add_alarm_under_lock+0xea>
10001992:	4643      	mov	r3, r8
10001994:	18d1      	adds	r1, r2, r3
10001996:	464b      	mov	r3, r9
10001998:	4658      	mov	r0, fp
1000199a:	005b      	lsls	r3, r3, #1
1000199c:	444b      	add	r3, r9
1000199e:	3b03      	subs	r3, #3
100019a0:	18d3      	adds	r3, r2, r3
100019a2:	7098      	strb	r0, [r3, #2]
100019a4:	4640      	mov	r0, r8
100019a6:	5c12      	ldrb	r2, [r2, r0]
100019a8:	2a00      	cmp	r2, #0
100019aa:	d000      	beq.n	100019ae <add_alarm_under_lock+0xae>
100019ac:	705a      	strb	r2, [r3, #1]
100019ae:	464b      	mov	r3, r9
100019b0:	700b      	strb	r3, [r1, #0]
100019b2:	465b      	mov	r3, fp
100019b4:	7373      	strb	r3, [r6, #13]
100019b6:	4652      	mov	r2, sl
100019b8:	003b      	movs	r3, r7
100019ba:	7d28      	ldrb	r0, [r5, #20]
100019bc:	f000 fa1a 	bl	10001df4 <hardware_alarm_set_target>
100019c0:	1e06      	subs	r6, r0, #0
100019c2:	d002      	beq.n	100019ca <add_alarm_under_lock+0xca>
100019c4:	9b01      	ldr	r3, [sp, #4]
100019c6:	2b00      	cmp	r3, #0
100019c8:	d026      	beq.n	10001a18 <add_alarm_under_lock+0x118>
100019ca:	9b10      	ldr	r3, [sp, #64]	; 0x40
100019cc:	2b00      	cmp	r3, #0
100019ce:	d028      	beq.n	10001a22 <add_alarm_under_lock+0x122>
100019d0:	0020      	movs	r0, r4
100019d2:	701e      	strb	r6, [r3, #0]
100019d4:	e000      	b.n	100019d8 <add_alarm_under_lock+0xd8>
100019d6:	2000      	movs	r0, #0
100019d8:	b003      	add	sp, #12
100019da:	bc3c      	pop	{r2, r3, r4, r5}
100019dc:	4690      	mov	r8, r2
100019de:	4699      	mov	r9, r3
100019e0:	46a2      	mov	sl, r4
100019e2:	46ab      	mov	fp, r5
100019e4:	bdf0      	pop	{r4, r5, r6, r7, pc}
100019e6:	73d3      	strb	r3, [r2, #15]
100019e8:	e7a8      	b.n	1000193c <add_alarm_under_lock+0x3c>
100019ea:	464b      	mov	r3, r9
100019ec:	005b      	lsls	r3, r3, #1
100019ee:	444b      	add	r3, r9
100019f0:	3b03      	subs	r3, #3
100019f2:	18d1      	adds	r1, r2, r3
100019f4:	468c      	mov	ip, r1
100019f6:	4641      	mov	r1, r8
100019f8:	4648      	mov	r0, r9
100019fa:	1851      	adds	r1, r2, r1
100019fc:	7088      	strb	r0, [r1, #2]
100019fe:	5cd3      	ldrb	r3, [r2, r3]
10001a00:	2b00      	cmp	r3, #0
10001a02:	d000      	beq.n	10001a06 <add_alarm_under_lock+0x106>
10001a04:	704b      	strb	r3, [r1, #1]
10001a06:	465b      	mov	r3, fp
10001a08:	4662      	mov	r2, ip
10001a0a:	7013      	strb	r3, [r2, #0]
10001a0c:	464b      	mov	r3, r9
10001a0e:	0020      	movs	r0, r4
10001a10:	7373      	strb	r3, [r6, #13]
10001a12:	45a1      	cmp	r9, r4
10001a14:	d1e0      	bne.n	100019d8 <add_alarm_under_lock+0xd8>
10001a16:	e7ce      	b.n	100019b6 <add_alarm_under_lock+0xb6>
10001a18:	4659      	mov	r1, fp
10001a1a:	6828      	ldr	r0, [r5, #0]
10001a1c:	f000 fc48 	bl	100022b0 <ph_delete>
10001a20:	e7d3      	b.n	100019ca <add_alarm_under_lock+0xca>
10001a22:	0020      	movs	r0, r4
10001a24:	e7d8      	b.n	100019d8 <add_alarm_under_lock+0xd8>
10001a26:	46c0      	nop			; (mov r8, r8)
10001a28:	0fffffff 	.word	0x0fffffff

10001a2c <alarm_pool_alarm_callback>:
10001a2c:	b5f0      	push	{r4, r5, r6, r7, lr}
10001a2e:	46de      	mov	lr, fp
10001a30:	464e      	mov	r6, r9
10001a32:	4657      	mov	r7, sl
10001a34:	4645      	mov	r5, r8
10001a36:	2300      	movs	r3, #0
10001a38:	b5e0      	push	{r5, r6, r7, lr}
10001a3a:	b08d      	sub	sp, #52	; 0x34
10001a3c:	930a      	str	r3, [sp, #40]	; 0x28
10001a3e:	4b71      	ldr	r3, [pc, #452]	; (10001c04 <alarm_pool_alarm_callback+0x1d8>)
10001a40:	0082      	lsls	r2, r0, #2
10001a42:	58d3      	ldr	r3, [r2, r3]
10001a44:	900b      	str	r0, [sp, #44]	; 0x2c
10001a46:	4699      	mov	r9, r3
10001a48:	2300      	movs	r3, #0
10001a4a:	469b      	mov	fp, r3
10001a4c:	464b      	mov	r3, r9
10001a4e:	9307      	str	r3, [sp, #28]
10001a50:	f000 f980 	bl	10001d54 <time_us_64>
10001a54:	9c07      	ldr	r4, [sp, #28]
10001a56:	0006      	movs	r6, r0
10001a58:	000f      	movs	r7, r1
10001a5a:	6862      	ldr	r2, [r4, #4]
10001a5c:	f3ef 8510 	mrs	r5, PRIMASK
10001a60:	b672      	cpsid	i
10001a62:	6813      	ldr	r3, [r2, #0]
10001a64:	2b00      	cmp	r3, #0
10001a66:	d0fc      	beq.n	10001a62 <alarm_pool_alarm_callback+0x36>
10001a68:	0022      	movs	r2, r4
10001a6a:	9407      	str	r4, [sp, #28]
10001a6c:	f3bf 8f5f 	dmb	sy
10001a70:	6824      	ldr	r4, [r4, #0]
10001a72:	7b63      	ldrb	r3, [r4, #13]
10001a74:	4699      	mov	r9, r3
10001a76:	2b00      	cmp	r3, #0
10001a78:	d100      	bne.n	10001a7c <alarm_pool_alarm_callback+0x50>
10001a7a:	e070      	b.n	10001b5e <alarm_pool_alarm_callback+0x132>
10001a7c:	6892      	ldr	r2, [r2, #8]
10001a7e:	4b62      	ldr	r3, [pc, #392]	; (10001c08 <alarm_pool_alarm_callback+0x1dc>)
10001a80:	4690      	mov	r8, r2
10001a82:	444b      	add	r3, r9
10001a84:	011b      	lsls	r3, r3, #4
10001a86:	4498      	add	r8, r3
10001a88:	4643      	mov	r3, r8
10001a8a:	681a      	ldr	r2, [r3, #0]
10001a8c:	685b      	ldr	r3, [r3, #4]
10001a8e:	0010      	movs	r0, r2
10001a90:	0019      	movs	r1, r3
10001a92:	1b80      	subs	r0, r0, r6
10001a94:	41b9      	sbcs	r1, r7
10001a96:	2900      	cmp	r1, #0
10001a98:	dd68      	ble.n	10001b6c <alarm_pool_alarm_callback+0x140>
10001a9a:	980b      	ldr	r0, [sp, #44]	; 0x2c
10001a9c:	f000 f9aa 	bl	10001df4 <hardware_alarm_set_target>
10001aa0:	2300      	movs	r3, #0
10001aa2:	2600      	movs	r6, #0
10001aa4:	4698      	mov	r8, r3
10001aa6:	2700      	movs	r7, #0
10001aa8:	469a      	mov	sl, r3
10001aaa:	9c07      	ldr	r4, [sp, #28]
10001aac:	6863      	ldr	r3, [r4, #4]
10001aae:	f3bf 8f5f 	dmb	sy
10001ab2:	465a      	mov	r2, fp
10001ab4:	601a      	str	r2, [r3, #0]
10001ab6:	f385 8810 	msr	PRIMASK, r5
10001aba:	4653      	mov	r3, sl
10001abc:	2b00      	cmp	r3, #0
10001abe:	d108      	bne.n	10001ad2 <alarm_pool_alarm_callback+0xa6>
10001ac0:	2800      	cmp	r0, #0
10001ac2:	d1c5      	bne.n	10001a50 <alarm_pool_alarm_callback+0x24>
10001ac4:	b00d      	add	sp, #52	; 0x34
10001ac6:	bc3c      	pop	{r2, r3, r4, r5}
10001ac8:	4690      	mov	r8, r2
10001aca:	4699      	mov	r9, r3
10001acc:	46a2      	mov	sl, r4
10001ace:	46ab      	mov	fp, r5
10001ad0:	bdf0      	pop	{r4, r5, r6, r7, pc}
10001ad2:	23d0      	movs	r3, #208	; 0xd0
10001ad4:	2280      	movs	r2, #128	; 0x80
10001ad6:	2180      	movs	r1, #128	; 0x80
10001ad8:	061b      	lsls	r3, r3, #24
10001ada:	0392      	lsls	r2, r2, #14
10001adc:	0309      	lsls	r1, r1, #12
10001ade:	615a      	str	r2, [r3, #20]
10001ae0:	6199      	str	r1, [r3, #24]
10001ae2:	619a      	str	r2, [r3, #24]
10001ae4:	9b0a      	ldr	r3, [sp, #40]	; 0x28
10001ae6:	4641      	mov	r1, r8
10001ae8:	0218      	lsls	r0, r3, #8
10001aea:	464b      	mov	r3, r9
10001aec:	4318      	orrs	r0, r3
10001aee:	47d0      	blx	sl
10001af0:	9008      	str	r0, [sp, #32]
10001af2:	9109      	str	r1, [sp, #36]	; 0x24
10001af4:	6862      	ldr	r2, [r4, #4]
10001af6:	f3ef 8510 	mrs	r5, PRIMASK
10001afa:	b672      	cpsid	i
10001afc:	6813      	ldr	r3, [r2, #0]
10001afe:	2b00      	cmp	r3, #0
10001b00:	d0fc      	beq.n	10001afc <alarm_pool_alarm_callback+0xd0>
10001b02:	9407      	str	r4, [sp, #28]
10001b04:	f3bf 8f5f 	dmb	sy
10001b08:	9908      	ldr	r1, [sp, #32]
10001b0a:	9a09      	ldr	r2, [sp, #36]	; 0x24
10001b0c:	2a00      	cmp	r2, #0
10001b0e:	db49      	blt.n	10001ba4 <alarm_pool_alarm_callback+0x178>
10001b10:	4311      	orrs	r1, r2
10001b12:	d003      	beq.n	10001b1c <alarm_pool_alarm_callback+0xf0>
10001b14:	9b07      	ldr	r3, [sp, #28]
10001b16:	691b      	ldr	r3, [r3, #16]
10001b18:	2b00      	cmp	r3, #0
10001b1a:	d15e      	bne.n	10001bda <alarm_pool_alarm_callback+0x1ae>
10001b1c:	9b07      	ldr	r3, [sp, #28]
10001b1e:	681b      	ldr	r3, [r3, #0]
10001b20:	7bda      	ldrb	r2, [r3, #15]
10001b22:	2a00      	cmp	r2, #0
10001b24:	d007      	beq.n	10001b36 <alarm_pool_alarm_callback+0x10a>
10001b26:	0051      	lsls	r1, r2, #1
10001b28:	188a      	adds	r2, r1, r2
10001b2a:	6819      	ldr	r1, [r3, #0]
10001b2c:	468c      	mov	ip, r1
10001b2e:	4649      	mov	r1, r9
10001b30:	4462      	add	r2, ip
10001b32:	3a03      	subs	r2, #3
10001b34:	7051      	strb	r1, [r2, #1]
10001b36:	464a      	mov	r2, r9
10001b38:	73da      	strb	r2, [r3, #15]
10001b3a:	464b      	mov	r3, r9
10001b3c:	9a07      	ldr	r2, [sp, #28]
10001b3e:	3b01      	subs	r3, #1
10001b40:	68d1      	ldr	r1, [r2, #12]
10001b42:	5cca      	ldrb	r2, [r1, r3]
10001b44:	3201      	adds	r2, #1
10001b46:	54ca      	strb	r2, [r1, r3]
10001b48:	465b      	mov	r3, fp
10001b4a:	9a07      	ldr	r2, [sp, #28]
10001b4c:	6113      	str	r3, [r2, #16]
10001b4e:	6853      	ldr	r3, [r2, #4]
10001b50:	f3bf 8f5f 	dmb	sy
10001b54:	465a      	mov	r2, fp
10001b56:	601a      	str	r2, [r3, #0]
10001b58:	f385 8810 	msr	PRIMASK, r5
10001b5c:	e778      	b.n	10001a50 <alarm_pool_alarm_callback+0x24>
10001b5e:	2300      	movs	r3, #0
10001b60:	2600      	movs	r6, #0
10001b62:	4698      	mov	r8, r3
10001b64:	2700      	movs	r7, #0
10001b66:	469a      	mov	sl, r3
10001b68:	2000      	movs	r0, #0
10001b6a:	e79e      	b.n	10001aaa <alarm_pool_alarm_callback+0x7e>
10001b6c:	2900      	cmp	r1, #0
10001b6e:	d102      	bne.n	10001b76 <alarm_pool_alarm_callback+0x14a>
10001b70:	2800      	cmp	r0, #0
10001b72:	d000      	beq.n	10001b76 <alarm_pool_alarm_callback+0x14a>
10001b74:	e791      	b.n	10001a9a <alarm_pool_alarm_callback+0x6e>
10001b76:	2101      	movs	r1, #1
10001b78:	0020      	movs	r0, r4
10001b7a:	f000 fafb 	bl	10002174 <ph_remove_head_reserve>
10001b7e:	4643      	mov	r3, r8
10001b80:	681e      	ldr	r6, [r3, #0]
10001b82:	685f      	ldr	r7, [r3, #4]
10001b84:	689b      	ldr	r3, [r3, #8]
10001b86:	9a07      	ldr	r2, [sp, #28]
10001b88:	469a      	mov	sl, r3
10001b8a:	4643      	mov	r3, r8
10001b8c:	68db      	ldr	r3, [r3, #12]
10001b8e:	4698      	mov	r8, r3
10001b90:	68d3      	ldr	r3, [r2, #12]
10001b92:	444b      	add	r3, r9
10001b94:	3b01      	subs	r3, #1
10001b96:	781b      	ldrb	r3, [r3, #0]
10001b98:	930a      	str	r3, [sp, #40]	; 0x28
10001b9a:	021b      	lsls	r3, r3, #8
10001b9c:	4303      	orrs	r3, r0
10001b9e:	6113      	str	r3, [r2, #16]
10001ba0:	2000      	movs	r0, #0
10001ba2:	e782      	b.n	10001aaa <alarm_pool_alarm_callback+0x7e>
10001ba4:	6923      	ldr	r3, [r4, #16]
10001ba6:	2b00      	cmp	r3, #0
10001ba8:	d0b8      	beq.n	10001b1c <alarm_pool_alarm_callback+0xf0>
10001baa:	0033      	movs	r3, r6
10001bac:	003c      	movs	r4, r7
10001bae:	1a5b      	subs	r3, r3, r1
10001bb0:	4194      	sbcs	r4, r2
10001bb2:	001a      	movs	r2, r3
10001bb4:	0023      	movs	r3, r4
10001bb6:	42a7      	cmp	r7, r4
10001bb8:	d819      	bhi.n	10001bee <alarm_pool_alarm_callback+0x1c2>
10001bba:	429f      	cmp	r7, r3
10001bbc:	d01b      	beq.n	10001bf6 <alarm_pool_alarm_callback+0x1ca>
10001bbe:	4659      	mov	r1, fp
10001bc0:	9104      	str	r1, [sp, #16]
10001bc2:	2101      	movs	r1, #1
10001bc4:	9103      	str	r1, [sp, #12]
10001bc6:	4649      	mov	r1, r9
10001bc8:	9102      	str	r1, [sp, #8]
10001bca:	4641      	mov	r1, r8
10001bcc:	9101      	str	r1, [sp, #4]
10001bce:	4651      	mov	r1, sl
10001bd0:	9807      	ldr	r0, [sp, #28]
10001bd2:	9100      	str	r1, [sp, #0]
10001bd4:	f7ff fe94 	bl	10001900 <add_alarm_under_lock>
10001bd8:	e7b6      	b.n	10001b48 <alarm_pool_alarm_callback+0x11c>
10001bda:	f000 f8bb 	bl	10001d54 <time_us_64>
10001bde:	9a08      	ldr	r2, [sp, #32]
10001be0:	9b09      	ldr	r3, [sp, #36]	; 0x24
10001be2:	0006      	movs	r6, r0
10001be4:	000f      	movs	r7, r1
10001be6:	1992      	adds	r2, r2, r6
10001be8:	417b      	adcs	r3, r7
10001bea:	4299      	cmp	r1, r3
10001bec:	d9e5      	bls.n	10001bba <alarm_pool_alarm_callback+0x18e>
10001bee:	2201      	movs	r2, #1
10001bf0:	4252      	negs	r2, r2
10001bf2:	17d3      	asrs	r3, r2, #31
10001bf4:	e7e3      	b.n	10001bbe <alarm_pool_alarm_callback+0x192>
10001bf6:	4296      	cmp	r6, r2
10001bf8:	d9e1      	bls.n	10001bbe <alarm_pool_alarm_callback+0x192>
10001bfa:	2201      	movs	r2, #1
10001bfc:	4252      	negs	r2, r2
10001bfe:	17d3      	asrs	r3, r2, #31
10001c00:	e7dd      	b.n	10001bbe <alarm_pool_alarm_callback+0x192>
10001c02:	46c0      	nop			; (mov r8, r8)
10001c04:	20000cd8 	.word	0x20000cd8
10001c08:	0fffffff 	.word	0x0fffffff

10001c0c <alarm_pool_init_default>:
10001c0c:	b570      	push	{r4, r5, r6, lr}
10001c0e:	4c18      	ldr	r4, [pc, #96]	; (10001c70 <alarm_pool_init_default+0x64>)
10001c10:	6823      	ldr	r3, [r4, #0]
10001c12:	2b00      	cmp	r3, #0
10001c14:	d000      	beq.n	10001c18 <alarm_pool_init_default+0xc>
10001c16:	bd70      	pop	{r4, r5, r6, pc}
10001c18:	2003      	movs	r0, #3
10001c1a:	f000 f88f 	bl	10001d3c <hardware_alarm_claim>
10001c1e:	2003      	movs	r0, #3
10001c20:	f000 f94a 	bl	10001eb8 <hardware_alarm_cancel>
10001c24:	4913      	ldr	r1, [pc, #76]	; (10001c74 <alarm_pool_init_default+0x68>)
10001c26:	2003      	movs	r0, #3
10001c28:	f000 f89e 	bl	10001d68 <hardware_alarm_set_callback>
10001c2c:	2018      	movs	r0, #24
10001c2e:	f003 f9b1 	bl	10004f94 <__wrap_malloc>
10001c32:	0005      	movs	r5, r0
10001c34:	f7ff fdca 	bl	100017cc <next_striped_spin_lock_num>
10001c38:	4b0f      	ldr	r3, [pc, #60]	; (10001c78 <alarm_pool_init_default+0x6c>)
10001c3a:	002a      	movs	r2, r5
10001c3c:	469c      	mov	ip, r3
10001c3e:	4460      	add	r0, ip
10001c40:	0080      	lsls	r0, r0, #2
10001c42:	490e      	ldr	r1, [pc, #56]	; (10001c7c <alarm_pool_init_default+0x70>)
10001c44:	6068      	str	r0, [r5, #4]
10001c46:	2010      	movs	r0, #16
10001c48:	f000 f99e 	bl	10001f88 <ph_create>
10001c4c:	2110      	movs	r1, #16
10001c4e:	6028      	str	r0, [r5, #0]
10001c50:	2010      	movs	r0, #16
10001c52:	f003 f9a3 	bl	10004f9c <__wrap_calloc>
10001c56:	2101      	movs	r1, #1
10001c58:	60a8      	str	r0, [r5, #8]
10001c5a:	2010      	movs	r0, #16
10001c5c:	f003 f99e 	bl	10004f9c <__wrap_calloc>
10001c60:	2303      	movs	r3, #3
10001c62:	752b      	strb	r3, [r5, #20]
10001c64:	4b06      	ldr	r3, [pc, #24]	; (10001c80 <alarm_pool_init_default+0x74>)
10001c66:	60e8      	str	r0, [r5, #12]
10001c68:	60dd      	str	r5, [r3, #12]
10001c6a:	6025      	str	r5, [r4, #0]
10001c6c:	e7d3      	b.n	10001c16 <alarm_pool_init_default+0xa>
10001c6e:	46c0      	nop			; (mov r8, r8)
10001c70:	20000c84 	.word	0x20000c84
10001c74:	10001a2d 	.word	0x10001a2d
10001c78:	34000040 	.word	0x34000040
10001c7c:	100018cd 	.word	0x100018cd
10001c80:	20000cd8 	.word	0x20000cd8

10001c84 <hardware_alarm_irq_handler>:
10001c84:	b5f0      	push	{r4, r5, r6, r7, lr}
10001c86:	46d6      	mov	lr, sl
10001c88:	464f      	mov	r7, r9
10001c8a:	4646      	mov	r6, r8
10001c8c:	b5c0      	push	{r6, r7, lr}
10001c8e:	f3ef 8305 	mrs	r3, IPSR
10001c92:	223f      	movs	r2, #63	; 0x3f
10001c94:	4013      	ands	r3, r2
10001c96:	0018      	movs	r0, r3
10001c98:	3810      	subs	r0, #16
10001c9a:	f3ef 8c10 	mrs	ip, PRIMASK
10001c9e:	b672      	cpsid	i
10001ca0:	4d20      	ldr	r5, [pc, #128]	; (10001d24 <hardware_alarm_irq_handler+0xa0>)
10001ca2:	682a      	ldr	r2, [r5, #0]
10001ca4:	2a00      	cmp	r2, #0
10001ca6:	d0fc      	beq.n	10001ca2 <hardware_alarm_irq_handler+0x1e>
10001ca8:	f3bf 8f5f 	dmb	sy
10001cac:	2201      	movs	r2, #1
10001cae:	0011      	movs	r1, r2
10001cb0:	4081      	lsls	r1, r0
10001cb2:	4c1d      	ldr	r4, [pc, #116]	; (10001d28 <hardware_alarm_irq_handler+0xa4>)
10001cb4:	4688      	mov	r8, r1
10001cb6:	6361      	str	r1, [r4, #52]	; 0x34
10001cb8:	491c      	ldr	r1, [pc, #112]	; (10001d2c <hardware_alarm_irq_handler+0xa8>)
10001cba:	0017      	movs	r7, r2
10001cbc:	780e      	ldrb	r6, [r1, #0]
10001cbe:	468a      	mov	sl, r1
10001cc0:	0031      	movs	r1, r6
10001cc2:	40c1      	lsrs	r1, r0
10001cc4:	400f      	ands	r7, r1
10001cc6:	420a      	tst	r2, r1
10001cc8:	d015      	beq.n	10001cf6 <hardware_alarm_irq_handler+0x72>
10001cca:	4919      	ldr	r1, [pc, #100]	; (10001d30 <hardware_alarm_irq_handler+0xac>)
10001ccc:	0082      	lsls	r2, r0, #2
10001cce:	6a64      	ldr	r4, [r4, #36]	; 0x24
10001cd0:	5851      	ldr	r1, [r2, r1]
10001cd2:	428c      	cmp	r4, r1
10001cd4:	d319      	bcc.n	10001d0a <hardware_alarm_irq_handler+0x86>
10001cd6:	4b17      	ldr	r3, [pc, #92]	; (10001d34 <hardware_alarm_irq_handler+0xb0>)
10001cd8:	58d2      	ldr	r2, [r2, r3]
10001cda:	4643      	mov	r3, r8
10001cdc:	439e      	bics	r6, r3
10001cde:	4653      	mov	r3, sl
10001ce0:	701e      	strb	r6, [r3, #0]
10001ce2:	f3bf 8f5f 	dmb	sy
10001ce6:	2300      	movs	r3, #0
10001ce8:	602b      	str	r3, [r5, #0]
10001cea:	f38c 8810 	msr	PRIMASK, ip
10001cee:	2a00      	cmp	r2, #0
10001cf0:	d006      	beq.n	10001d00 <hardware_alarm_irq_handler+0x7c>
10001cf2:	4790      	blx	r2
10001cf4:	e004      	b.n	10001d00 <hardware_alarm_irq_handler+0x7c>
10001cf6:	f3bf 8f5f 	dmb	sy
10001cfa:	602f      	str	r7, [r5, #0]
10001cfc:	f38c 8810 	msr	PRIMASK, ip
10001d00:	bc1c      	pop	{r2, r3, r4}
10001d02:	4690      	mov	r8, r2
10001d04:	4699      	mov	r9, r3
10001d06:	46a2      	mov	sl, r4
10001d08:	bdf0      	pop	{r4, r5, r6, r7, pc}
10001d0a:	4a0b      	ldr	r2, [pc, #44]	; (10001d38 <hardware_alarm_irq_handler+0xb4>)
10001d0c:	009b      	lsls	r3, r3, #2
10001d0e:	4690      	mov	r8, r2
10001d10:	4443      	add	r3, r8
10001d12:	681a      	ldr	r2, [r3, #0]
10001d14:	601a      	str	r2, [r3, #0]
10001d16:	f3bf 8f5f 	dmb	sy
10001d1a:	2300      	movs	r3, #0
10001d1c:	602b      	str	r3, [r5, #0]
10001d1e:	f38c 8810 	msr	PRIMASK, ip
10001d22:	e7ed      	b.n	10001d00 <hardware_alarm_irq_handler+0x7c>
10001d24:	d0000128 	.word	0xd0000128
10001d28:	40054000 	.word	0x40054000
10001d2c:	20000cfd 	.word	0x20000cfd
10001d30:	20000ce8 	.word	0x20000ce8
10001d34:	20000c4c 	.word	0x20000c4c
10001d38:	40053fd0 	.word	0x40053fd0

10001d3c <hardware_alarm_claim>:
10001d3c:	b510      	push	{r4, lr}
10001d3e:	0001      	movs	r1, r0
10001d40:	4a02      	ldr	r2, [pc, #8]	; (10001d4c <hardware_alarm_claim+0x10>)
10001d42:	4803      	ldr	r0, [pc, #12]	; (10001d50 <hardware_alarm_claim+0x14>)
10001d44:	f7ff fd04 	bl	10001750 <hw_claim_or_assert>
10001d48:	bd10      	pop	{r4, pc}
10001d4a:	46c0      	nop			; (mov r8, r8)
10001d4c:	10005fb0 	.word	0x10005fb0
10001d50:	20000cf8 	.word	0x20000cf8

10001d54 <time_us_64>:
10001d54:	4b03      	ldr	r3, [pc, #12]	; (10001d64 <time_us_64+0x10>)
10001d56:	6a59      	ldr	r1, [r3, #36]	; 0x24
10001d58:	000a      	movs	r2, r1
10001d5a:	6a98      	ldr	r0, [r3, #40]	; 0x28
10001d5c:	6a59      	ldr	r1, [r3, #36]	; 0x24
10001d5e:	428a      	cmp	r2, r1
10001d60:	d1fa      	bne.n	10001d58 <time_us_64+0x4>
10001d62:	4770      	bx	lr
10001d64:	40054000 	.word	0x40054000

10001d68 <hardware_alarm_set_callback>:
10001d68:	b570      	push	{r4, r5, r6, lr}
10001d6a:	0004      	movs	r4, r0
10001d6c:	000d      	movs	r5, r1
10001d6e:	f3ef 8610 	mrs	r6, PRIMASK
10001d72:	b672      	cpsid	i
10001d74:	4a1a      	ldr	r2, [pc, #104]	; (10001de0 <hardware_alarm_set_callback+0x78>)
10001d76:	6813      	ldr	r3, [r2, #0]
10001d78:	2b00      	cmp	r3, #0
10001d7a:	d0fc      	beq.n	10001d76 <hardware_alarm_set_callback+0xe>
10001d7c:	f3bf 8f5f 	dmb	sy
10001d80:	2d00      	cmp	r5, #0
10001d82:	d01b      	beq.n	10001dbc <hardware_alarm_set_callback+0x54>
10001d84:	0020      	movs	r0, r4
10001d86:	f000 fd4f 	bl	10002828 <irq_get_vtable_handler>
10001d8a:	4916      	ldr	r1, [pc, #88]	; (10001de4 <hardware_alarm_set_callback+0x7c>)
10001d8c:	4281      	cmp	r1, r0
10001d8e:	d00a      	beq.n	10001da6 <hardware_alarm_set_callback+0x3e>
10001d90:	0020      	movs	r0, r4
10001d92:	f000 fd51 	bl	10002838 <irq_set_exclusive_handler>
10001d96:	2101      	movs	r1, #1
10001d98:	0020      	movs	r0, r4
10001d9a:	f000 fd33 	bl	10002804 <irq_set_enabled>
10001d9e:	2301      	movs	r3, #1
10001da0:	40a3      	lsls	r3, r4
10001da2:	4a11      	ldr	r2, [pc, #68]	; (10001de8 <hardware_alarm_set_callback+0x80>)
10001da4:	6013      	str	r3, [r2, #0]
10001da6:	4b11      	ldr	r3, [pc, #68]	; (10001dec <hardware_alarm_set_callback+0x84>)
10001da8:	00a4      	lsls	r4, r4, #2
10001daa:	50e5      	str	r5, [r4, r3]
10001dac:	f3bf 8f5f 	dmb	sy
10001db0:	2200      	movs	r2, #0
10001db2:	4b0b      	ldr	r3, [pc, #44]	; (10001de0 <hardware_alarm_set_callback+0x78>)
10001db4:	601a      	str	r2, [r3, #0]
10001db6:	f386 8810 	msr	PRIMASK, r6
10001dba:	bd70      	pop	{r4, r5, r6, pc}
10001dbc:	4b0b      	ldr	r3, [pc, #44]	; (10001dec <hardware_alarm_set_callback+0x84>)
10001dbe:	00a2      	lsls	r2, r4, #2
10001dc0:	50d5      	str	r5, [r2, r3]
10001dc2:	2201      	movs	r2, #1
10001dc4:	40a2      	lsls	r2, r4
10001dc6:	490a      	ldr	r1, [pc, #40]	; (10001df0 <hardware_alarm_set_callback+0x88>)
10001dc8:	0020      	movs	r0, r4
10001dca:	780b      	ldrb	r3, [r1, #0]
10001dcc:	4393      	bics	r3, r2
10001dce:	700b      	strb	r3, [r1, #0]
10001dd0:	4904      	ldr	r1, [pc, #16]	; (10001de4 <hardware_alarm_set_callback+0x7c>)
10001dd2:	f000 fd5b 	bl	1000288c <irq_remove_handler>
10001dd6:	2100      	movs	r1, #0
10001dd8:	0020      	movs	r0, r4
10001dda:	f000 fd13 	bl	10002804 <irq_set_enabled>
10001dde:	e7e5      	b.n	10001dac <hardware_alarm_set_callback+0x44>
10001de0:	d0000128 	.word	0xd0000128
10001de4:	10001c85 	.word	0x10001c85
10001de8:	40056038 	.word	0x40056038
10001dec:	20000c4c 	.word	0x20000c4c
10001df0:	20000cfd 	.word	0x20000cfd

10001df4 <hardware_alarm_set_target>:
10001df4:	b5f0      	push	{r4, r5, r6, r7, lr}
10001df6:	46ce      	mov	lr, r9
10001df8:	4647      	mov	r7, r8
10001dfa:	b580      	push	{r7, lr}
10001dfc:	4c2a      	ldr	r4, [pc, #168]	; (10001ea8 <hardware_alarm_set_target+0xb4>)
10001dfe:	6a61      	ldr	r1, [r4, #36]	; 0x24
10001e00:	000d      	movs	r5, r1
10001e02:	6aa6      	ldr	r6, [r4, #40]	; 0x28
10001e04:	6a61      	ldr	r1, [r4, #36]	; 0x24
10001e06:	42a9      	cmp	r1, r5
10001e08:	d1fa      	bne.n	10001e00 <hardware_alarm_set_target+0xc>
10001e0a:	428b      	cmp	r3, r1
10001e0c:	d807      	bhi.n	10001e1e <hardware_alarm_set_target+0x2a>
10001e0e:	d004      	beq.n	10001e1a <hardware_alarm_set_target+0x26>
10001e10:	2001      	movs	r0, #1
10001e12:	bc0c      	pop	{r2, r3}
10001e14:	4690      	mov	r8, r2
10001e16:	4699      	mov	r9, r3
10001e18:	bdf0      	pop	{r4, r5, r6, r7, pc}
10001e1a:	42b2      	cmp	r2, r6
10001e1c:	d9f8      	bls.n	10001e10 <hardware_alarm_set_target+0x1c>
10001e1e:	f3ef 8810 	mrs	r8, PRIMASK
10001e22:	b672      	cpsid	i
10001e24:	4c21      	ldr	r4, [pc, #132]	; (10001eac <hardware_alarm_set_target+0xb8>)
10001e26:	6821      	ldr	r1, [r4, #0]
10001e28:	2900      	cmp	r1, #0
10001e2a:	d0fc      	beq.n	10001e26 <hardware_alarm_set_target+0x32>
10001e2c:	f3bf 8f5f 	dmb	sy
10001e30:	2501      	movs	r5, #1
10001e32:	4085      	lsls	r5, r0
10001e34:	4c1c      	ldr	r4, [pc, #112]	; (10001ea8 <hardware_alarm_set_target+0xb4>)
10001e36:	4e1e      	ldr	r6, [pc, #120]	; (10001eb0 <hardware_alarm_set_target+0xbc>)
10001e38:	6365      	str	r5, [r4, #52]	; 0x34
10001e3a:	b2e9      	uxtb	r1, r5
10001e3c:	468c      	mov	ip, r1
10001e3e:	7831      	ldrb	r1, [r6, #0]
10001e40:	4689      	mov	r9, r1
10001e42:	4661      	mov	r1, ip
10001e44:	464f      	mov	r7, r9
10001e46:	4339      	orrs	r1, r7
10001e48:	7031      	strb	r1, [r6, #0]
10001e4a:	1d01      	adds	r1, r0, #4
10001e4c:	0089      	lsls	r1, r1, #2
10001e4e:	510a      	str	r2, [r1, r4]
10001e50:	4918      	ldr	r1, [pc, #96]	; (10001eb4 <hardware_alarm_set_target+0xc0>)
10001e52:	0080      	lsls	r0, r0, #2
10001e54:	5043      	str	r3, [r0, r1]
10001e56:	6a21      	ldr	r1, [r4, #32]
10001e58:	2000      	movs	r0, #0
10001e5a:	4229      	tst	r1, r5
10001e5c:	d00c      	beq.n	10001e78 <hardware_alarm_set_target+0x84>
10001e5e:	0020      	movs	r0, r4
10001e60:	6a61      	ldr	r1, [r4, #36]	; 0x24
10001e62:	000c      	movs	r4, r1
10001e64:	6a87      	ldr	r7, [r0, #40]	; 0x28
10001e66:	6a41      	ldr	r1, [r0, #36]	; 0x24
10001e68:	42a1      	cmp	r1, r4
10001e6a:	d1fa      	bne.n	10001e62 <hardware_alarm_set_target+0x6e>
10001e6c:	428b      	cmp	r3, r1
10001e6e:	d802      	bhi.n	10001e76 <hardware_alarm_set_target+0x82>
10001e70:	d10a      	bne.n	10001e88 <hardware_alarm_set_target+0x94>
10001e72:	42ba      	cmp	r2, r7
10001e74:	d908      	bls.n	10001e88 <hardware_alarm_set_target+0x94>
10001e76:	2000      	movs	r0, #0
10001e78:	f3bf 8f5f 	dmb	sy
10001e7c:	2200      	movs	r2, #0
10001e7e:	4b0b      	ldr	r3, [pc, #44]	; (10001eac <hardware_alarm_set_target+0xb8>)
10001e80:	601a      	str	r2, [r3, #0]
10001e82:	f388 8810 	msr	PRIMASK, r8
10001e86:	e7c4      	b.n	10001e12 <hardware_alarm_set_target+0x1e>
10001e88:	4b07      	ldr	r3, [pc, #28]	; (10001ea8 <hardware_alarm_set_target+0xb4>)
10001e8a:	464f      	mov	r7, r9
10001e8c:	621d      	str	r5, [r3, #32]
10001e8e:	635d      	str	r5, [r3, #52]	; 0x34
10001e90:	4663      	mov	r3, ip
10001e92:	439f      	bics	r7, r3
10001e94:	2001      	movs	r0, #1
10001e96:	7037      	strb	r7, [r6, #0]
10001e98:	f3bf 8f5f 	dmb	sy
10001e9c:	2200      	movs	r2, #0
10001e9e:	4b03      	ldr	r3, [pc, #12]	; (10001eac <hardware_alarm_set_target+0xb8>)
10001ea0:	601a      	str	r2, [r3, #0]
10001ea2:	f388 8810 	msr	PRIMASK, r8
10001ea6:	e7b4      	b.n	10001e12 <hardware_alarm_set_target+0x1e>
10001ea8:	40054000 	.word	0x40054000
10001eac:	d0000128 	.word	0xd0000128
10001eb0:	20000cfd 	.word	0x20000cfd
10001eb4:	20000ce8 	.word	0x20000ce8

10001eb8 <hardware_alarm_cancel>:
10001eb8:	b510      	push	{r4, lr}
10001eba:	f3ef 8410 	mrs	r4, PRIMASK
10001ebe:	b672      	cpsid	i
10001ec0:	490a      	ldr	r1, [pc, #40]	; (10001eec <hardware_alarm_cancel+0x34>)
10001ec2:	680b      	ldr	r3, [r1, #0]
10001ec4:	2b00      	cmp	r3, #0
10001ec6:	d0fc      	beq.n	10001ec2 <hardware_alarm_cancel+0xa>
10001ec8:	f3bf 8f5f 	dmb	sy
10001ecc:	2301      	movs	r3, #1
10001ece:	4083      	lsls	r3, r0
10001ed0:	4a07      	ldr	r2, [pc, #28]	; (10001ef0 <hardware_alarm_cancel+0x38>)
10001ed2:	4808      	ldr	r0, [pc, #32]	; (10001ef4 <hardware_alarm_cancel+0x3c>)
10001ed4:	6213      	str	r3, [r2, #32]
10001ed6:	7802      	ldrb	r2, [r0, #0]
10001ed8:	439a      	bics	r2, r3
10001eda:	7002      	strb	r2, [r0, #0]
10001edc:	f3bf 8f5f 	dmb	sy
10001ee0:	2300      	movs	r3, #0
10001ee2:	600b      	str	r3, [r1, #0]
10001ee4:	f384 8810 	msr	PRIMASK, r4
10001ee8:	bd10      	pop	{r4, pc}
10001eea:	46c0      	nop			; (mov r8, r8)
10001eec:	d0000128 	.word	0xd0000128
10001ef0:	40054000 	.word	0x40054000
10001ef4:	20000cfd 	.word	0x20000cfd

10001ef8 <lock_init>:
10001ef8:	4b02      	ldr	r3, [pc, #8]	; (10001f04 <lock_init+0xc>)
10001efa:	469c      	mov	ip, r3
10001efc:	4461      	add	r1, ip
10001efe:	0089      	lsls	r1, r1, #2
10001f00:	6001      	str	r1, [r0, #0]
10001f02:	4770      	bx	lr
10001f04:	34000040 	.word	0x34000040

10001f08 <mutex_init>:
10001f08:	b510      	push	{r4, lr}
10001f0a:	0004      	movs	r4, r0
10001f0c:	f7ff fc5e 	bl	100017cc <next_striped_spin_lock_num>
10001f10:	0001      	movs	r1, r0
10001f12:	0020      	movs	r0, r4
10001f14:	f7ff fff0 	bl	10001ef8 <lock_init>
10001f18:	f3bf 8f5f 	dmb	sy
10001f1c:	bd10      	pop	{r4, pc}
10001f1e:	46c0      	nop			; (mov r8, r8)

10001f20 <ph_merge_nodes>:
10001f20:	b570      	push	{r4, r5, r6, lr}
10001f22:	0005      	movs	r5, r0
10001f24:	000e      	movs	r6, r1
10001f26:	0014      	movs	r4, r2
10001f28:	2900      	cmp	r1, #0
10001f2a:	d024      	beq.n	10001f76 <ph_merge_nodes+0x56>
10001f2c:	2a00      	cmp	r2, #0
10001f2e:	d024      	beq.n	10001f7a <ph_merge_nodes+0x5a>
10001f30:	6880      	ldr	r0, [r0, #8]
10001f32:	686b      	ldr	r3, [r5, #4]
10001f34:	4798      	blx	r3
10001f36:	6829      	ldr	r1, [r5, #0]
10001f38:	2800      	cmp	r0, #0
10001f3a:	d00e      	beq.n	10001f5a <ph_merge_nodes+0x3a>
10001f3c:	0063      	lsls	r3, r4, #1
10001f3e:	191b      	adds	r3, r3, r4
10001f40:	0072      	lsls	r2, r6, #1
10001f42:	3b03      	subs	r3, #3
10001f44:	1992      	adds	r2, r2, r6
10001f46:	18cb      	adds	r3, r1, r3
10001f48:	3a03      	subs	r2, #3
10001f4a:	709e      	strb	r6, [r3, #2]
10001f4c:	1888      	adds	r0, r1, r2
10001f4e:	5c8a      	ldrb	r2, [r1, r2]
10001f50:	2a00      	cmp	r2, #0
10001f52:	d114      	bne.n	10001f7e <ph_merge_nodes+0x5e>
10001f54:	7004      	strb	r4, [r0, #0]
10001f56:	0030      	movs	r0, r6
10001f58:	e00e      	b.n	10001f78 <ph_merge_nodes+0x58>
10001f5a:	0073      	lsls	r3, r6, #1
10001f5c:	199b      	adds	r3, r3, r6
10001f5e:	0062      	lsls	r2, r4, #1
10001f60:	3b03      	subs	r3, #3
10001f62:	1912      	adds	r2, r2, r4
10001f64:	18cb      	adds	r3, r1, r3
10001f66:	3a03      	subs	r2, #3
10001f68:	709c      	strb	r4, [r3, #2]
10001f6a:	1888      	adds	r0, r1, r2
10001f6c:	5c8a      	ldrb	r2, [r1, r2]
10001f6e:	2a00      	cmp	r2, #0
10001f70:	d000      	beq.n	10001f74 <ph_merge_nodes+0x54>
10001f72:	705a      	strb	r2, [r3, #1]
10001f74:	7006      	strb	r6, [r0, #0]
10001f76:	0020      	movs	r0, r4
10001f78:	bd70      	pop	{r4, r5, r6, pc}
10001f7a:	0008      	movs	r0, r1
10001f7c:	e7fc      	b.n	10001f78 <ph_merge_nodes+0x58>
10001f7e:	705a      	strb	r2, [r3, #1]
10001f80:	7004      	strb	r4, [r0, #0]
10001f82:	0030      	movs	r0, r6
10001f84:	e7f8      	b.n	10001f78 <ph_merge_nodes+0x58>
10001f86:	46c0      	nop			; (mov r8, r8)

10001f88 <ph_create>:
10001f88:	b5f0      	push	{r4, r5, r6, r7, lr}
10001f8a:	46c6      	mov	lr, r8
10001f8c:	0005      	movs	r5, r0
10001f8e:	000f      	movs	r7, r1
10001f90:	b500      	push	{lr}
10001f92:	2110      	movs	r1, #16
10001f94:	2001      	movs	r0, #1
10001f96:	0016      	movs	r6, r2
10001f98:	f003 f800 	bl	10004f9c <__wrap_calloc>
10001f9c:	b2eb      	uxtb	r3, r5
10001f9e:	0004      	movs	r4, r0
10001fa0:	7303      	strb	r3, [r0, #12]
10001fa2:	2103      	movs	r1, #3
10001fa4:	6047      	str	r7, [r0, #4]
10001fa6:	0028      	movs	r0, r5
10001fa8:	4698      	mov	r8, r3
10001faa:	f002 fff7 	bl	10004f9c <__wrap_calloc>
10001fae:	2300      	movs	r3, #0
10001fb0:	7363      	strb	r3, [r4, #13]
10001fb2:	3301      	adds	r3, #1
10001fb4:	73a3      	strb	r3, [r4, #14]
10001fb6:	4643      	mov	r3, r8
10001fb8:	21ff      	movs	r1, #255	; 0xff
10001fba:	73e3      	strb	r3, [r4, #15]
10001fbc:	23fe      	movs	r3, #254	; 0xfe
10001fbe:	6020      	str	r0, [r4, #0]
10001fc0:	60a6      	str	r6, [r4, #8]
10001fc2:	4029      	ands	r1, r5
10001fc4:	422b      	tst	r3, r5
10001fc6:	d006      	beq.n	10001fd6 <ph_create+0x4e>
10001fc8:	1c42      	adds	r2, r0, #1
10001fca:	3bfd      	subs	r3, #253	; 0xfd
10001fcc:	3301      	adds	r3, #1
10001fce:	7013      	strb	r3, [r2, #0]
10001fd0:	3203      	adds	r2, #3
10001fd2:	428b      	cmp	r3, r1
10001fd4:	d3fa      	bcc.n	10001fcc <ph_create+0x44>
10001fd6:	004b      	lsls	r3, r1, #1
10001fd8:	1859      	adds	r1, r3, r1
10001fda:	2300      	movs	r3, #0
10001fdc:	1840      	adds	r0, r0, r1
10001fde:	3803      	subs	r0, #3
10001fe0:	7043      	strb	r3, [r0, #1]
10001fe2:	0020      	movs	r0, r4
10001fe4:	bc04      	pop	{r2}
10001fe6:	4690      	mov	r8, r2
10001fe8:	bdf0      	pop	{r4, r5, r6, r7, pc}
10001fea:	46c0      	nop			; (mov r8, r8)

10001fec <ph_merge_two_pass>:
10001fec:	b5f8      	push	{r3, r4, r5, r6, r7, lr}
10001fee:	46ce      	mov	lr, r9
10001ff0:	4647      	mov	r7, r8
10001ff2:	0006      	movs	r6, r0
10001ff4:	000c      	movs	r4, r1
10001ff6:	b580      	push	{r7, lr}
10001ff8:	2900      	cmp	r1, #0
10001ffa:	d007      	beq.n	1000200c <ph_merge_two_pass+0x20>
10001ffc:	004d      	lsls	r5, r1, #1
10001ffe:	6803      	ldr	r3, [r0, #0]
10002000:	186d      	adds	r5, r5, r1
10002002:	3d03      	subs	r5, #3
10002004:	195a      	adds	r2, r3, r5
10002006:	7857      	ldrb	r7, [r2, #1]
10002008:	2f00      	cmp	r7, #0
1000200a:	d104      	bne.n	10002016 <ph_merge_two_pass+0x2a>
1000200c:	0020      	movs	r0, r4
1000200e:	bc0c      	pop	{r2, r3}
10002010:	4690      	mov	r8, r2
10002012:	4699      	mov	r9, r3
10002014:	bdf8      	pop	{r3, r4, r5, r6, r7, pc}
10002016:	0079      	lsls	r1, r7, #1
10002018:	19c9      	adds	r1, r1, r7
1000201a:	3903      	subs	r1, #3
1000201c:	4688      	mov	r8, r1
1000201e:	4443      	add	r3, r8
10002020:	7859      	ldrb	r1, [r3, #1]
10002022:	4689      	mov	r9, r1
10002024:	2100      	movs	r1, #0
10002026:	7059      	strb	r1, [r3, #1]
10002028:	7051      	strb	r1, [r2, #1]
1000202a:	6873      	ldr	r3, [r6, #4]
1000202c:	003a      	movs	r2, r7
1000202e:	0021      	movs	r1, r4
10002030:	6880      	ldr	r0, [r0, #8]
10002032:	4798      	blx	r3
10002034:	6833      	ldr	r3, [r6, #0]
10002036:	2800      	cmp	r0, #0
10002038:	d014      	beq.n	10002064 <ph_merge_two_pass+0x78>
1000203a:	4642      	mov	r2, r8
1000203c:	189a      	adds	r2, r3, r2
1000203e:	7094      	strb	r4, [r2, #2]
10002040:	1959      	adds	r1, r3, r5
10002042:	5d5b      	ldrb	r3, [r3, r5]
10002044:	2b00      	cmp	r3, #0
10002046:	d000      	beq.n	1000204a <ph_merge_two_pass+0x5e>
10002048:	7053      	strb	r3, [r2, #1]
1000204a:	700f      	strb	r7, [r1, #0]
1000204c:	0027      	movs	r7, r4
1000204e:	4649      	mov	r1, r9
10002050:	0030      	movs	r0, r6
10002052:	f7ff ffcb 	bl	10001fec <ph_merge_two_pass>
10002056:	0039      	movs	r1, r7
10002058:	0002      	movs	r2, r0
1000205a:	0030      	movs	r0, r6
1000205c:	f7ff ff60 	bl	10001f20 <ph_merge_nodes>
10002060:	0004      	movs	r4, r0
10002062:	e7d3      	b.n	1000200c <ph_merge_two_pass+0x20>
10002064:	4642      	mov	r2, r8
10002066:	4641      	mov	r1, r8
10002068:	195d      	adds	r5, r3, r5
1000206a:	70af      	strb	r7, [r5, #2]
1000206c:	189a      	adds	r2, r3, r2
1000206e:	5c5b      	ldrb	r3, [r3, r1]
10002070:	2b00      	cmp	r3, #0
10002072:	d000      	beq.n	10002076 <ph_merge_two_pass+0x8a>
10002074:	706b      	strb	r3, [r5, #1]
10002076:	7014      	strb	r4, [r2, #0]
10002078:	e7e9      	b.n	1000204e <ph_merge_two_pass+0x62>
1000207a:	46c0      	nop			; (mov r8, r8)

1000207c <ph_remove_any_head>:
1000207c:	b5f0      	push	{r4, r5, r6, r7, lr}
1000207e:	4657      	mov	r7, sl
10002080:	4645      	mov	r5, r8
10002082:	46de      	mov	lr, fp
10002084:	464e      	mov	r6, r9
10002086:	b5e0      	push	{r5, r6, r7, lr}
10002088:	000d      	movs	r5, r1
1000208a:	006b      	lsls	r3, r5, #1
1000208c:	6801      	ldr	r1, [r0, #0]
1000208e:	195b      	adds	r3, r3, r5
10002090:	1edf      	subs	r7, r3, #3
10002092:	0004      	movs	r4, r0
10002094:	5dc8      	ldrb	r0, [r1, r7]
10002096:	b083      	sub	sp, #12
10002098:	9201      	str	r2, [sp, #4]
1000209a:	19ca      	adds	r2, r1, r7
1000209c:	2800      	cmp	r0, #0
1000209e:	d04c      	beq.n	1000213a <ph_remove_any_head+0xbe>
100020a0:	0043      	lsls	r3, r0, #1
100020a2:	181b      	adds	r3, r3, r0
100020a4:	3b03      	subs	r3, #3
100020a6:	18cb      	adds	r3, r1, r3
100020a8:	785e      	ldrb	r6, [r3, #1]
100020aa:	46b4      	mov	ip, r6
100020ac:	2e00      	cmp	r6, #0
100020ae:	d116      	bne.n	100020de <ph_remove_any_head+0x62>
100020b0:	9e01      	ldr	r6, [sp, #4]
100020b2:	2e00      	cmp	r6, #0
100020b4:	d13e      	bne.n	10002134 <ph_remove_any_head+0xb8>
100020b6:	7be6      	ldrb	r6, [r4, #15]
100020b8:	2e00      	cmp	r6, #0
100020ba:	d004      	beq.n	100020c6 <ph_remove_any_head+0x4a>
100020bc:	0073      	lsls	r3, r6, #1
100020be:	199b      	adds	r3, r3, r6
100020c0:	18cb      	adds	r3, r1, r3
100020c2:	3b03      	subs	r3, #3
100020c4:	705d      	strb	r5, [r3, #1]
100020c6:	73e5      	strb	r5, [r4, #15]
100020c8:	2800      	cmp	r0, #0
100020ca:	d12f      	bne.n	1000212c <ph_remove_any_head+0xb0>
100020cc:	2300      	movs	r3, #0
100020ce:	7053      	strb	r3, [r2, #1]
100020d0:	b003      	add	sp, #12
100020d2:	bc3c      	pop	{r2, r3, r4, r5}
100020d4:	4690      	mov	r8, r2
100020d6:	4699      	mov	r9, r3
100020d8:	46a2      	mov	sl, r4
100020da:	46ab      	mov	fp, r5
100020dc:	bdf0      	pop	{r4, r5, r6, r7, pc}
100020de:	0072      	lsls	r2, r6, #1
100020e0:	4462      	add	r2, ip
100020e2:	3a03      	subs	r2, #3
100020e4:	1889      	adds	r1, r1, r2
100020e6:	784a      	ldrb	r2, [r1, #1]
100020e8:	4690      	mov	r8, r2
100020ea:	2200      	movs	r2, #0
100020ec:	704a      	strb	r2, [r1, #1]
100020ee:	4691      	mov	r9, r2
100020f0:	705a      	strb	r2, [r3, #1]
100020f2:	0001      	movs	r1, r0
100020f4:	0032      	movs	r2, r6
100020f6:	0020      	movs	r0, r4
100020f8:	f7ff ff12 	bl	10001f20 <ph_merge_nodes>
100020fc:	4643      	mov	r3, r8
100020fe:	4682      	mov	sl, r0
10002100:	2b00      	cmp	r3, #0
10002102:	d007      	beq.n	10002114 <ph_remove_any_head+0x98>
10002104:	005b      	lsls	r3, r3, #1
10002106:	6821      	ldr	r1, [r4, #0]
10002108:	4443      	add	r3, r8
1000210a:	3b03      	subs	r3, #3
1000210c:	18cb      	adds	r3, r1, r3
1000210e:	785a      	ldrb	r2, [r3, #1]
10002110:	2a00      	cmp	r2, #0
10002112:	d116      	bne.n	10002142 <ph_remove_any_head+0xc6>
10002114:	4642      	mov	r2, r8
10002116:	4651      	mov	r1, sl
10002118:	0020      	movs	r0, r4
1000211a:	f7ff ff01 	bl	10001f20 <ph_merge_nodes>
1000211e:	6821      	ldr	r1, [r4, #0]
10002120:	9b01      	ldr	r3, [sp, #4]
10002122:	19ca      	adds	r2, r1, r7
10002124:	2b00      	cmp	r3, #0
10002126:	d0c6      	beq.n	100020b6 <ph_remove_any_head+0x3a>
10002128:	2800      	cmp	r0, #0
1000212a:	d0cf      	beq.n	100020cc <ph_remove_any_head+0x50>
1000212c:	0043      	lsls	r3, r0, #1
1000212e:	181b      	adds	r3, r3, r0
10002130:	3b03      	subs	r3, #3
10002132:	18cb      	adds	r3, r1, r3
10002134:	2100      	movs	r1, #0
10002136:	7099      	strb	r1, [r3, #2]
10002138:	e7c8      	b.n	100020cc <ph_remove_any_head+0x50>
1000213a:	9b01      	ldr	r3, [sp, #4]
1000213c:	2b00      	cmp	r3, #0
1000213e:	d1c5      	bne.n	100020cc <ph_remove_any_head+0x50>
10002140:	e7b9      	b.n	100020b6 <ph_remove_any_head+0x3a>
10002142:	0050      	lsls	r0, r2, #1
10002144:	1880      	adds	r0, r0, r2
10002146:	3803      	subs	r0, #3
10002148:	1809      	adds	r1, r1, r0
1000214a:	7848      	ldrb	r0, [r1, #1]
1000214c:	4683      	mov	fp, r0
1000214e:	4648      	mov	r0, r9
10002150:	7048      	strb	r0, [r1, #1]
10002152:	7058      	strb	r0, [r3, #1]
10002154:	4641      	mov	r1, r8
10002156:	0020      	movs	r0, r4
10002158:	f7ff fee2 	bl	10001f20 <ph_merge_nodes>
1000215c:	4659      	mov	r1, fp
1000215e:	4680      	mov	r8, r0
10002160:	0020      	movs	r0, r4
10002162:	f7ff ff43 	bl	10001fec <ph_merge_two_pass>
10002166:	4641      	mov	r1, r8
10002168:	0002      	movs	r2, r0
1000216a:	0020      	movs	r0, r4
1000216c:	f7ff fed8 	bl	10001f20 <ph_merge_nodes>
10002170:	4680      	mov	r8, r0
10002172:	e7cf      	b.n	10002114 <ph_remove_any_head+0x98>

10002174 <ph_remove_head_reserve>:
10002174:	b5f0      	push	{r4, r5, r6, r7, lr}
10002176:	464e      	mov	r6, r9
10002178:	4645      	mov	r5, r8
1000217a:	46de      	mov	lr, fp
1000217c:	4657      	mov	r7, sl
1000217e:	b5e0      	push	{r5, r6, r7, lr}
10002180:	7b46      	ldrb	r6, [r0, #13]
10002182:	0004      	movs	r4, r0
10002184:	0075      	lsls	r5, r6, #1
10002186:	6800      	ldr	r0, [r0, #0]
10002188:	19ad      	adds	r5, r5, r6
1000218a:	3d03      	subs	r5, #3
1000218c:	b083      	sub	sp, #12
1000218e:	9101      	str	r1, [sp, #4]
10002190:	5d41      	ldrb	r1, [r0, r5]
10002192:	1942      	adds	r2, r0, r5
10002194:	2900      	cmp	r1, #0
10002196:	d04e      	beq.n	10002236 <ph_remove_head_reserve+0xc2>
10002198:	004b      	lsls	r3, r1, #1
1000219a:	185b      	adds	r3, r3, r1
1000219c:	3b03      	subs	r3, #3
1000219e:	18c3      	adds	r3, r0, r3
100021a0:	785f      	ldrb	r7, [r3, #1]
100021a2:	46bc      	mov	ip, r7
100021a4:	2f00      	cmp	r7, #0
100021a6:	d118      	bne.n	100021da <ph_remove_head_reserve+0x66>
100021a8:	9d01      	ldr	r5, [sp, #4]
100021aa:	2d00      	cmp	r5, #0
100021ac:	d140      	bne.n	10002230 <ph_remove_head_reserve+0xbc>
100021ae:	7be5      	ldrb	r5, [r4, #15]
100021b0:	2d00      	cmp	r5, #0
100021b2:	d004      	beq.n	100021be <ph_remove_head_reserve+0x4a>
100021b4:	006b      	lsls	r3, r5, #1
100021b6:	195b      	adds	r3, r3, r5
100021b8:	18c3      	adds	r3, r0, r3
100021ba:	3b03      	subs	r3, #3
100021bc:	705e      	strb	r6, [r3, #1]
100021be:	73e6      	strb	r6, [r4, #15]
100021c0:	2900      	cmp	r1, #0
100021c2:	d131      	bne.n	10002228 <ph_remove_head_reserve+0xb4>
100021c4:	2300      	movs	r3, #0
100021c6:	0030      	movs	r0, r6
100021c8:	7053      	strb	r3, [r2, #1]
100021ca:	7361      	strb	r1, [r4, #13]
100021cc:	b003      	add	sp, #12
100021ce:	bc3c      	pop	{r2, r3, r4, r5}
100021d0:	4690      	mov	r8, r2
100021d2:	4699      	mov	r9, r3
100021d4:	46a2      	mov	sl, r4
100021d6:	46ab      	mov	fp, r5
100021d8:	bdf0      	pop	{r4, r5, r6, r7, pc}
100021da:	007a      	lsls	r2, r7, #1
100021dc:	4462      	add	r2, ip
100021de:	3a03      	subs	r2, #3
100021e0:	1880      	adds	r0, r0, r2
100021e2:	7842      	ldrb	r2, [r0, #1]
100021e4:	4693      	mov	fp, r2
100021e6:	2200      	movs	r2, #0
100021e8:	7042      	strb	r2, [r0, #1]
100021ea:	4691      	mov	r9, r2
100021ec:	705a      	strb	r2, [r3, #1]
100021ee:	0020      	movs	r0, r4
100021f0:	003a      	movs	r2, r7
100021f2:	f7ff fe95 	bl	10001f20 <ph_merge_nodes>
100021f6:	465b      	mov	r3, fp
100021f8:	4680      	mov	r8, r0
100021fa:	2b00      	cmp	r3, #0
100021fc:	d007      	beq.n	1000220e <ph_remove_head_reserve+0x9a>
100021fe:	005b      	lsls	r3, r3, #1
10002200:	6821      	ldr	r1, [r4, #0]
10002202:	445b      	add	r3, fp
10002204:	3b03      	subs	r3, #3
10002206:	18cb      	adds	r3, r1, r3
10002208:	785a      	ldrb	r2, [r3, #1]
1000220a:	2a00      	cmp	r2, #0
1000220c:	d117      	bne.n	1000223e <ph_remove_head_reserve+0xca>
1000220e:	465a      	mov	r2, fp
10002210:	4641      	mov	r1, r8
10002212:	0020      	movs	r0, r4
10002214:	f7ff fe84 	bl	10001f20 <ph_merge_nodes>
10002218:	9b01      	ldr	r3, [sp, #4]
1000221a:	0001      	movs	r1, r0
1000221c:	6820      	ldr	r0, [r4, #0]
1000221e:	1942      	adds	r2, r0, r5
10002220:	2b00      	cmp	r3, #0
10002222:	d0c4      	beq.n	100021ae <ph_remove_head_reserve+0x3a>
10002224:	2900      	cmp	r1, #0
10002226:	d0cd      	beq.n	100021c4 <ph_remove_head_reserve+0x50>
10002228:	004b      	lsls	r3, r1, #1
1000222a:	185b      	adds	r3, r3, r1
1000222c:	3b03      	subs	r3, #3
1000222e:	18c3      	adds	r3, r0, r3
10002230:	2000      	movs	r0, #0
10002232:	7098      	strb	r0, [r3, #2]
10002234:	e7c6      	b.n	100021c4 <ph_remove_head_reserve+0x50>
10002236:	9b01      	ldr	r3, [sp, #4]
10002238:	2b00      	cmp	r3, #0
1000223a:	d1c3      	bne.n	100021c4 <ph_remove_head_reserve+0x50>
1000223c:	e7b7      	b.n	100021ae <ph_remove_head_reserve+0x3a>
1000223e:	0050      	lsls	r0, r2, #1
10002240:	1880      	adds	r0, r0, r2
10002242:	3803      	subs	r0, #3
10002244:	1809      	adds	r1, r1, r0
10002246:	7848      	ldrb	r0, [r1, #1]
10002248:	4682      	mov	sl, r0
1000224a:	4648      	mov	r0, r9
1000224c:	7048      	strb	r0, [r1, #1]
1000224e:	7058      	strb	r0, [r3, #1]
10002250:	4659      	mov	r1, fp
10002252:	0020      	movs	r0, r4
10002254:	f7ff fe64 	bl	10001f20 <ph_merge_nodes>
10002258:	4653      	mov	r3, sl
1000225a:	4683      	mov	fp, r0
1000225c:	2b00      	cmp	r3, #0
1000225e:	d007      	beq.n	10002270 <ph_remove_head_reserve+0xfc>
10002260:	005b      	lsls	r3, r3, #1
10002262:	6821      	ldr	r1, [r4, #0]
10002264:	4453      	add	r3, sl
10002266:	3b03      	subs	r3, #3
10002268:	18cb      	adds	r3, r1, r3
1000226a:	785a      	ldrb	r2, [r3, #1]
1000226c:	2a00      	cmp	r2, #0
1000226e:	d106      	bne.n	1000227e <ph_remove_head_reserve+0x10a>
10002270:	4659      	mov	r1, fp
10002272:	4652      	mov	r2, sl
10002274:	0020      	movs	r0, r4
10002276:	f7ff fe53 	bl	10001f20 <ph_merge_nodes>
1000227a:	4683      	mov	fp, r0
1000227c:	e7c7      	b.n	1000220e <ph_remove_head_reserve+0x9a>
1000227e:	0050      	lsls	r0, r2, #1
10002280:	1880      	adds	r0, r0, r2
10002282:	3803      	subs	r0, #3
10002284:	1809      	adds	r1, r1, r0
10002286:	4648      	mov	r0, r9
10002288:	784f      	ldrb	r7, [r1, #1]
1000228a:	7048      	strb	r0, [r1, #1]
1000228c:	7058      	strb	r0, [r3, #1]
1000228e:	4651      	mov	r1, sl
10002290:	0020      	movs	r0, r4
10002292:	f7ff fe45 	bl	10001f20 <ph_merge_nodes>
10002296:	0039      	movs	r1, r7
10002298:	4681      	mov	r9, r0
1000229a:	0020      	movs	r0, r4
1000229c:	f7ff fea6 	bl	10001fec <ph_merge_two_pass>
100022a0:	4649      	mov	r1, r9
100022a2:	0002      	movs	r2, r0
100022a4:	0020      	movs	r0, r4
100022a6:	f7ff fe3b 	bl	10001f20 <ph_merge_nodes>
100022aa:	4682      	mov	sl, r0
100022ac:	e7e0      	b.n	10002270 <ph_remove_head_reserve+0xfc>
100022ae:	46c0      	nop			; (mov r8, r8)

100022b0 <ph_delete>:
100022b0:	b570      	push	{r4, r5, r6, lr}
100022b2:	0004      	movs	r4, r0
100022b4:	2900      	cmp	r1, #0
100022b6:	d02c      	beq.n	10002312 <ph_delete+0x62>
100022b8:	7b43      	ldrb	r3, [r0, #13]
100022ba:	428b      	cmp	r3, r1
100022bc:	d02e      	beq.n	1000231c <ph_delete+0x6c>
100022be:	6805      	ldr	r5, [r0, #0]
100022c0:	0048      	lsls	r0, r1, #1
100022c2:	1840      	adds	r0, r0, r1
100022c4:	3803      	subs	r0, #3
100022c6:	1828      	adds	r0, r5, r0
100022c8:	7882      	ldrb	r2, [r0, #2]
100022ca:	2a00      	cmp	r2, #0
100022cc:	d021      	beq.n	10002312 <ph_delete+0x62>
100022ce:	0053      	lsls	r3, r2, #1
100022d0:	189b      	adds	r3, r3, r2
100022d2:	3b03      	subs	r3, #3
100022d4:	5cea      	ldrb	r2, [r5, r3]
100022d6:	18ee      	adds	r6, r5, r3
100022d8:	428a      	cmp	r2, r1
100022da:	d102      	bne.n	100022e2 <ph_delete+0x32>
100022dc:	e01b      	b.n	10002316 <ph_delete+0x66>
100022de:	2a00      	cmp	r2, #0
100022e0:	d008      	beq.n	100022f4 <ph_delete+0x44>
100022e2:	0053      	lsls	r3, r2, #1
100022e4:	189b      	adds	r3, r3, r2
100022e6:	3b03      	subs	r3, #3
100022e8:	18eb      	adds	r3, r5, r3
100022ea:	785a      	ldrb	r2, [r3, #1]
100022ec:	428a      	cmp	r2, r1
100022ee:	d1f6      	bne.n	100022de <ph_delete+0x2e>
100022f0:	7842      	ldrb	r2, [r0, #1]
100022f2:	705a      	strb	r2, [r3, #1]
100022f4:	2300      	movs	r3, #0
100022f6:	2200      	movs	r2, #0
100022f8:	7083      	strb	r3, [r0, #2]
100022fa:	7043      	strb	r3, [r0, #1]
100022fc:	0020      	movs	r0, r4
100022fe:	f7ff febd 	bl	1000207c <ph_remove_any_head>
10002302:	7b61      	ldrb	r1, [r4, #13]
10002304:	0002      	movs	r2, r0
10002306:	0020      	movs	r0, r4
10002308:	f7ff fe0a 	bl	10001f20 <ph_merge_nodes>
1000230c:	7360      	strb	r0, [r4, #13]
1000230e:	2001      	movs	r0, #1
10002310:	e000      	b.n	10002314 <ph_delete+0x64>
10002312:	2000      	movs	r0, #0
10002314:	bd70      	pop	{r4, r5, r6, pc}
10002316:	7843      	ldrb	r3, [r0, #1]
10002318:	7033      	strb	r3, [r6, #0]
1000231a:	e7eb      	b.n	100022f4 <ph_delete+0x44>
1000231c:	2200      	movs	r2, #0
1000231e:	0019      	movs	r1, r3
10002320:	f7ff feac 	bl	1000207c <ph_remove_any_head>
10002324:	7360      	strb	r0, [r4, #13]
10002326:	2001      	movs	r0, #1
10002328:	e7f4      	b.n	10002314 <ph_delete+0x64>
1000232a:	46c0      	nop			; (mov r8, r8)

1000232c <runtime_init>:
1000232c:	4b2b      	ldr	r3, [pc, #172]	; (100023dc <runtime_init+0xb0>)
1000232e:	4a2c      	ldr	r2, [pc, #176]	; (100023e0 <runtime_init+0xb4>)
10002330:	b570      	push	{r4, r5, r6, lr}
10002332:	601a      	str	r2, [r3, #0]
10002334:	4a2b      	ldr	r2, [pc, #172]	; (100023e4 <runtime_init+0xb8>)
10002336:	4b2c      	ldr	r3, [pc, #176]	; (100023e8 <runtime_init+0xbc>)
10002338:	492c      	ldr	r1, [pc, #176]	; (100023ec <runtime_init+0xc0>)
1000233a:	601a      	str	r2, [r3, #0]
1000233c:	0010      	movs	r0, r2
1000233e:	688b      	ldr	r3, [r1, #8]
10002340:	4398      	bics	r0, r3
10002342:	d1fb      	bne.n	1000233c <runtime_init+0x10>
10002344:	4c2a      	ldr	r4, [pc, #168]	; (100023f0 <runtime_init+0xc4>)
10002346:	4b2b      	ldr	r3, [pc, #172]	; (100023f4 <runtime_init+0xc8>)
10002348:	429c      	cmp	r4, r3
1000234a:	d209      	bcs.n	10002360 <runtime_init+0x34>
1000234c:	3b01      	subs	r3, #1
1000234e:	1b1d      	subs	r5, r3, r4
10002350:	08ad      	lsrs	r5, r5, #2
10002352:	3501      	adds	r5, #1
10002354:	00ad      	lsls	r5, r5, #2
10002356:	192d      	adds	r5, r5, r4
10002358:	cc08      	ldmia	r4!, {r3}
1000235a:	4798      	blx	r3
1000235c:	42ac      	cmp	r4, r5
1000235e:	d1fb      	bne.n	10002358 <runtime_init+0x2c>
10002360:	f000 f894 	bl	1000248c <clocks_init>
10002364:	4a24      	ldr	r2, [pc, #144]	; (100023f8 <runtime_init+0xcc>)
10002366:	4b20      	ldr	r3, [pc, #128]	; (100023e8 <runtime_init+0xbc>)
10002368:	601a      	str	r2, [r3, #0]
1000236a:	4a20      	ldr	r2, [pc, #128]	; (100023ec <runtime_init+0xc0>)
1000236c:	6893      	ldr	r3, [r2, #8]
1000236e:	01db      	lsls	r3, r3, #7
10002370:	3380      	adds	r3, #128	; 0x80
10002372:	d1fb      	bne.n	1000236c <runtime_init+0x40>
10002374:	2240      	movs	r2, #64	; 0x40
10002376:	4b21      	ldr	r3, [pc, #132]	; (100023fc <runtime_init+0xd0>)
10002378:	4c21      	ldr	r4, [pc, #132]	; (10002400 <runtime_init+0xd4>)
1000237a:	679a      	str	r2, [r3, #120]	; 0x78
1000237c:	675a      	str	r2, [r3, #116]	; 0x74
1000237e:	671a      	str	r2, [r3, #112]	; 0x70
10002380:	66da      	str	r2, [r3, #108]	; 0x6c
10002382:	4b20      	ldr	r3, [pc, #128]	; (10002404 <runtime_init+0xd8>)
10002384:	429c      	cmp	r4, r3
10002386:	d20b      	bcs.n	100023a0 <runtime_init+0x74>
10002388:	3b01      	subs	r3, #1
1000238a:	1b1d      	subs	r5, r3, r4
1000238c:	08ed      	lsrs	r5, r5, #3
1000238e:	3501      	adds	r5, #1
10002390:	00ed      	lsls	r5, r5, #3
10002392:	192d      	adds	r5, r5, r4
10002394:	0020      	movs	r0, r4
10002396:	3408      	adds	r4, #8
10002398:	f7ff fdb6 	bl	10001f08 <mutex_init>
1000239c:	42ac      	cmp	r4, r5
1000239e:	d1f9      	bne.n	10002394 <runtime_init+0x68>
100023a0:	4c19      	ldr	r4, [pc, #100]	; (10002408 <runtime_init+0xdc>)
100023a2:	4d1a      	ldr	r5, [pc, #104]	; (1000240c <runtime_init+0xe0>)
100023a4:	68a1      	ldr	r1, [r4, #8]
100023a6:	22c0      	movs	r2, #192	; 0xc0
100023a8:	0028      	movs	r0, r5
100023aa:	f002 fe09 	bl	10004fc0 <__wrap___aeabi_memcpy>
100023ae:	60a5      	str	r5, [r4, #8]
100023b0:	f7ff f9fe 	bl	100017b0 <spin_locks_reset>
100023b4:	f000 fbaa 	bl	10002b0c <irq_init_priorities>
100023b8:	f7ff fc28 	bl	10001c0c <alarm_pool_init_default>
100023bc:	4c14      	ldr	r4, [pc, #80]	; (10002410 <runtime_init+0xe4>)
100023be:	4b15      	ldr	r3, [pc, #84]	; (10002414 <runtime_init+0xe8>)
100023c0:	429c      	cmp	r4, r3
100023c2:	d209      	bcs.n	100023d8 <runtime_init+0xac>
100023c4:	3b01      	subs	r3, #1
100023c6:	1b1d      	subs	r5, r3, r4
100023c8:	08ad      	lsrs	r5, r5, #2
100023ca:	3501      	adds	r5, #1
100023cc:	00ad      	lsls	r5, r5, #2
100023ce:	192d      	adds	r5, r5, r4
100023d0:	cc08      	ldmia	r4!, {r3}
100023d2:	4798      	blx	r3
100023d4:	42a5      	cmp	r5, r4
100023d6:	d1fb      	bne.n	100023d0 <runtime_init+0xa4>
100023d8:	bd70      	pop	{r4, r5, r6, pc}
100023da:	46c0      	nop			; (mov r8, r8)
100023dc:	4000e000 	.word	0x4000e000
100023e0:	ffffcdbf 	.word	0xffffcdbf
100023e4:	003c7ffe 	.word	0x003c7ffe
100023e8:	4000f000 	.word	0x4000f000
100023ec:	4000c000 	.word	0x4000c000
100023f0:	20000be8 	.word	0x20000be8
100023f4:	20000bf8 	.word	0x20000bf8
100023f8:	01ffffff 	.word	0x01ffffff
100023fc:	4001f000 	.word	0x4001f000
10002400:	20000be0 	.word	0x20000be0
10002404:	20000be8 	.word	0x20000be8
10002408:	e000ed00 	.word	0xe000ed00
1000240c:	20000000 	.word	0x20000000
10002410:	20000bf8 	.word	0x20000bf8
10002414:	20000bfc 	.word	0x20000bfc

10002418 <_sbrk>:
10002418:	4a09      	ldr	r2, [pc, #36]	; (10002440 <_sbrk+0x28>)
1000241a:	0003      	movs	r3, r0
1000241c:	6810      	ldr	r0, [r2, #0]
1000241e:	2800      	cmp	r0, #0
10002420:	d005      	beq.n	1000242e <_sbrk+0x16>
10002422:	4908      	ldr	r1, [pc, #32]	; (10002444 <_sbrk+0x2c>)
10002424:	18c3      	adds	r3, r0, r3
10002426:	428b      	cmp	r3, r1
10002428:	d207      	bcs.n	1000243a <_sbrk+0x22>
1000242a:	6013      	str	r3, [r2, #0]
1000242c:	4770      	bx	lr
1000242e:	4806      	ldr	r0, [pc, #24]	; (10002448 <_sbrk+0x30>)
10002430:	4904      	ldr	r1, [pc, #16]	; (10002444 <_sbrk+0x2c>)
10002432:	18c3      	adds	r3, r0, r3
10002434:	6010      	str	r0, [r2, #0]
10002436:	428b      	cmp	r3, r1
10002438:	d3f7      	bcc.n	1000242a <_sbrk+0x12>
1000243a:	2001      	movs	r0, #1
1000243c:	4240      	negs	r0, r0
1000243e:	e7f5      	b.n	1000242c <_sbrk+0x14>
10002440:	20000cd0 	.word	0x20000cd0
10002444:	20040000 	.word	0x20040000
10002448:	20000f30 	.word	0x20000f30

1000244c <exit>:
1000244c:	be00      	bkpt	0x0000
1000244e:	e7fd      	b.n	1000244c <exit>

10002450 <panic>:
10002450:	b40f      	push	{r0, r1, r2, r3}
10002452:	b500      	push	{lr}
10002454:	4808      	ldr	r0, [pc, #32]	; (10002478 <panic+0x28>)
10002456:	b083      	sub	sp, #12
10002458:	f002 fec4 	bl	100051e4 <__wrap_puts>
1000245c:	9b04      	ldr	r3, [sp, #16]
1000245e:	2b00      	cmp	r3, #0
10002460:	d007      	beq.n	10002472 <panic+0x22>
10002462:	a905      	add	r1, sp, #20
10002464:	0018      	movs	r0, r3
10002466:	9101      	str	r1, [sp, #4]
10002468:	f001 fe78 	bl	1000415c <weak_raw_vprintf>
1000246c:	4803      	ldr	r0, [pc, #12]	; (1000247c <panic+0x2c>)
1000246e:	f002 feb9 	bl	100051e4 <__wrap_puts>
10002472:	be00      	bkpt	0x0000
10002474:	e7fd      	b.n	10002472 <panic+0x22>
10002476:	46c0      	nop			; (mov r8, r8)
10002478:	10005fd4 	.word	0x10005fd4
1000247c:	10005ed8 	.word	0x10005ed8

10002480 <hard_assertion_failure>:
10002480:	b510      	push	{r4, lr}
10002482:	4801      	ldr	r0, [pc, #4]	; (10002488 <hard_assertion_failure+0x8>)
10002484:	f7ff ffe4 	bl	10002450 <panic>
10002488:	10005fe4 	.word	0x10005fe4

1000248c <clocks_init>:
1000248c:	b530      	push	{r4, r5, lr}
1000248e:	200c      	movs	r0, #12
10002490:	b083      	sub	sp, #12
10002492:	f000 f971 	bl	10002778 <watchdog_start_tick>
10002496:	f7ff f9a5 	bl	100017e4 <running_on_fpga>
1000249a:	2800      	cmp	r0, #0
1000249c:	d00e      	beq.n	100024bc <clocks_init+0x30>
1000249e:	4b9a      	ldr	r3, [pc, #616]	; (10002708 <clocks_init+0x27c>)
100024a0:	4a9a      	ldr	r2, [pc, #616]	; (1000270c <clocks_init+0x280>)
100024a2:	601a      	str	r2, [r3, #0]
100024a4:	605a      	str	r2, [r3, #4]
100024a6:	609a      	str	r2, [r3, #8]
100024a8:	60da      	str	r2, [r3, #12]
100024aa:	611a      	str	r2, [r3, #16]
100024ac:	615a      	str	r2, [r3, #20]
100024ae:	619a      	str	r2, [r3, #24]
100024b0:	61da      	str	r2, [r3, #28]
100024b2:	621a      	str	r2, [r3, #32]
100024b4:	4a96      	ldr	r2, [pc, #600]	; (10002710 <clocks_init+0x284>)
100024b6:	625a      	str	r2, [r3, #36]	; 0x24
100024b8:	b003      	add	sp, #12
100024ba:	bd30      	pop	{r4, r5, pc}
100024bc:	4c95      	ldr	r4, [pc, #596]	; (10002714 <clocks_init+0x288>)
100024be:	67a0      	str	r0, [r4, #120]	; 0x78
100024c0:	f000 f962 	bl	10002788 <xosc_init>
100024c4:	2201      	movs	r2, #1
100024c6:	4b94      	ldr	r3, [pc, #592]	; (10002718 <clocks_init+0x28c>)
100024c8:	601a      	str	r2, [r3, #0]
100024ca:	6c63      	ldr	r3, [r4, #68]	; 0x44
100024cc:	2b01      	cmp	r3, #1
100024ce:	d1fc      	bne.n	100024ca <clocks_init+0x3e>
100024d0:	2203      	movs	r2, #3
100024d2:	4b92      	ldr	r3, [pc, #584]	; (1000271c <clocks_init+0x290>)
100024d4:	601a      	str	r2, [r3, #0]
100024d6:	4a8f      	ldr	r2, [pc, #572]	; (10002714 <clocks_init+0x288>)
100024d8:	6b93      	ldr	r3, [r2, #56]	; 0x38
100024da:	2b01      	cmp	r3, #1
100024dc:	d1fc      	bne.n	100024d8 <clocks_init+0x4c>
100024de:	22c0      	movs	r2, #192	; 0xc0
100024e0:	4b8f      	ldr	r3, [pc, #572]	; (10002720 <clocks_init+0x294>)
100024e2:	0192      	lsls	r2, r2, #6
100024e4:	601a      	str	r2, [r3, #0]
100024e6:	4b8f      	ldr	r3, [pc, #572]	; (10002724 <clocks_init+0x298>)
100024e8:	498f      	ldr	r1, [pc, #572]	; (10002728 <clocks_init+0x29c>)
100024ea:	601a      	str	r2, [r3, #0]
100024ec:	0010      	movs	r0, r2
100024ee:	688b      	ldr	r3, [r1, #8]
100024f0:	4398      	bics	r0, r3
100024f2:	1e03      	subs	r3, r0, #0
100024f4:	d1fa      	bne.n	100024ec <clocks_init+0x60>
100024f6:	2402      	movs	r4, #2
100024f8:	2101      	movs	r1, #1
100024fa:	4a8c      	ldr	r2, [pc, #560]	; (1000272c <clocks_init+0x2a0>)
100024fc:	488c      	ldr	r0, [pc, #560]	; (10002730 <clocks_init+0x2a4>)
100024fe:	3306      	adds	r3, #6
10002500:	9400      	str	r4, [sp, #0]
10002502:	f000 f955 	bl	100027b0 <pll_init>
10002506:	2305      	movs	r3, #5
10002508:	4a8a      	ldr	r2, [pc, #552]	; (10002734 <clocks_init+0x2a8>)
1000250a:	2101      	movs	r1, #1
1000250c:	488a      	ldr	r0, [pc, #552]	; (10002738 <clocks_init+0x2ac>)
1000250e:	9400      	str	r4, [sp, #0]
10002510:	f000 f94e 	bl	100027b0 <pll_init>
10002514:	4b89      	ldr	r3, [pc, #548]	; (1000273c <clocks_init+0x2b0>)
10002516:	685a      	ldr	r2, [r3, #4]
10002518:	2aff      	cmp	r2, #255	; 0xff
1000251a:	d802      	bhi.n	10002522 <clocks_init+0x96>
1000251c:	2280      	movs	r2, #128	; 0x80
1000251e:	0052      	lsls	r2, r2, #1
10002520:	605a      	str	r2, [r3, #4]
10002522:	2280      	movs	r2, #128	; 0x80
10002524:	4c78      	ldr	r4, [pc, #480]	; (10002708 <clocks_init+0x27c>)
10002526:	4b7d      	ldr	r3, [pc, #500]	; (1000271c <clocks_init+0x290>)
10002528:	6921      	ldr	r1, [r4, #16]
1000252a:	0112      	lsls	r2, r2, #4
1000252c:	4d83      	ldr	r5, [pc, #524]	; (1000273c <clocks_init+0x2b0>)
1000252e:	601a      	str	r2, [r3, #0]
10002530:	2900      	cmp	r1, #0
10002532:	d005      	beq.n	10002540 <clocks_init+0xb4>
10002534:	6960      	ldr	r0, [r4, #20]
10002536:	f001 fe8b 	bl	10004250 <__wrap___aeabi_uidiv>
1000253a:	3001      	adds	r0, #1
1000253c:	3801      	subs	r0, #1
1000253e:	d1fd      	bne.n	1000253c <clocks_init+0xb0>
10002540:	21e0      	movs	r1, #224	; 0xe0
10002542:	4b7e      	ldr	r3, [pc, #504]	; (1000273c <clocks_init+0x2b0>)
10002544:	2002      	movs	r0, #2
10002546:	681a      	ldr	r2, [r3, #0]
10002548:	4011      	ands	r1, r2
1000254a:	2280      	movs	r2, #128	; 0x80
1000254c:	0152      	lsls	r2, r2, #5
1000254e:	432a      	orrs	r2, r5
10002550:	6011      	str	r1, [r2, #0]
10002552:	6819      	ldr	r1, [r3, #0]
10002554:	4048      	eors	r0, r1
10002556:	2103      	movs	r1, #3
10002558:	4001      	ands	r1, r0
1000255a:	6011      	str	r1, [r2, #0]
1000255c:	2104      	movs	r1, #4
1000255e:	689a      	ldr	r2, [r3, #8]
10002560:	4211      	tst	r1, r2
10002562:	d0fc      	beq.n	1000255e <clocks_init+0xd2>
10002564:	2280      	movs	r2, #128	; 0x80
10002566:	2180      	movs	r1, #128	; 0x80
10002568:	0192      	lsls	r2, r2, #6
1000256a:	432a      	orrs	r2, r5
1000256c:	0109      	lsls	r1, r1, #4
1000256e:	6011      	str	r1, [r2, #0]
10002570:	2280      	movs	r2, #128	; 0x80
10002572:	0052      	lsls	r2, r2, #1
10002574:	605a      	str	r2, [r3, #4]
10002576:	4b72      	ldr	r3, [pc, #456]	; (10002740 <clocks_init+0x2b4>)
10002578:	6123      	str	r3, [r4, #16]
1000257a:	4b72      	ldr	r3, [pc, #456]	; (10002744 <clocks_init+0x2b8>)
1000257c:	6859      	ldr	r1, [r3, #4]
1000257e:	29ff      	cmp	r1, #255	; 0xff
10002580:	d800      	bhi.n	10002584 <clocks_init+0xf8>
10002582:	605a      	str	r2, [r3, #4]
10002584:	2203      	movs	r2, #3
10002586:	486f      	ldr	r0, [pc, #444]	; (10002744 <clocks_init+0x2b8>)
10002588:	4b63      	ldr	r3, [pc, #396]	; (10002718 <clocks_init+0x28c>)
1000258a:	2101      	movs	r1, #1
1000258c:	601a      	str	r2, [r3, #0]
1000258e:	0002      	movs	r2, r0
10002590:	6893      	ldr	r3, [r2, #8]
10002592:	4219      	tst	r1, r3
10002594:	d0fc      	beq.n	10002590 <clocks_init+0x104>
10002596:	25e0      	movs	r5, #224	; 0xe0
10002598:	6813      	ldr	r3, [r2, #0]
1000259a:	401d      	ands	r5, r3
1000259c:	2380      	movs	r3, #128	; 0x80
1000259e:	015b      	lsls	r3, r3, #5
100025a0:	4303      	orrs	r3, r0
100025a2:	601d      	str	r5, [r3, #0]
100025a4:	6812      	ldr	r2, [r2, #0]
100025a6:	404a      	eors	r2, r1
100025a8:	2103      	movs	r1, #3
100025aa:	4011      	ands	r1, r2
100025ac:	6019      	str	r1, [r3, #0]
100025ae:	2102      	movs	r1, #2
100025b0:	4a64      	ldr	r2, [pc, #400]	; (10002744 <clocks_init+0x2b8>)
100025b2:	6893      	ldr	r3, [r2, #8]
100025b4:	4219      	tst	r1, r3
100025b6:	d0fc      	beq.n	100025b2 <clocks_init+0x126>
100025b8:	2380      	movs	r3, #128	; 0x80
100025ba:	2180      	movs	r1, #128	; 0x80
100025bc:	019b      	lsls	r3, r3, #6
100025be:	4303      	orrs	r3, r0
100025c0:	0109      	lsls	r1, r1, #4
100025c2:	6019      	str	r1, [r3, #0]
100025c4:	2180      	movs	r1, #128	; 0x80
100025c6:	4b60      	ldr	r3, [pc, #384]	; (10002748 <clocks_init+0x2bc>)
100025c8:	0049      	lsls	r1, r1, #1
100025ca:	6051      	str	r1, [r2, #4]
100025cc:	6163      	str	r3, [r4, #20]
100025ce:	4b5f      	ldr	r3, [pc, #380]	; (1000274c <clocks_init+0x2c0>)
100025d0:	685a      	ldr	r2, [r3, #4]
100025d2:	2aff      	cmp	r2, #255	; 0xff
100025d4:	d800      	bhi.n	100025d8 <clocks_init+0x14c>
100025d6:	6059      	str	r1, [r3, #4]
100025d8:	2280      	movs	r2, #128	; 0x80
100025da:	4b5d      	ldr	r3, [pc, #372]	; (10002750 <clocks_init+0x2c4>)
100025dc:	69e1      	ldr	r1, [r4, #28]
100025de:	0112      	lsls	r2, r2, #4
100025e0:	4d5a      	ldr	r5, [pc, #360]	; (1000274c <clocks_init+0x2c0>)
100025e2:	601a      	str	r2, [r3, #0]
100025e4:	2900      	cmp	r1, #0
100025e6:	d005      	beq.n	100025f4 <clocks_init+0x168>
100025e8:	6960      	ldr	r0, [r4, #20]
100025ea:	f001 fe31 	bl	10004250 <__wrap___aeabi_uidiv>
100025ee:	3001      	adds	r0, #1
100025f0:	3801      	subs	r0, #1
100025f2:	d1fd      	bne.n	100025f0 <clocks_init+0x164>
100025f4:	22e0      	movs	r2, #224	; 0xe0
100025f6:	4955      	ldr	r1, [pc, #340]	; (1000274c <clocks_init+0x2c0>)
100025f8:	680b      	ldr	r3, [r1, #0]
100025fa:	401a      	ands	r2, r3
100025fc:	2380      	movs	r3, #128	; 0x80
100025fe:	015b      	lsls	r3, r3, #5
10002600:	432b      	orrs	r3, r5
10002602:	601a      	str	r2, [r3, #0]
10002604:	2380      	movs	r3, #128	; 0x80
10002606:	2280      	movs	r2, #128	; 0x80
10002608:	019b      	lsls	r3, r3, #6
1000260a:	432b      	orrs	r3, r5
1000260c:	0112      	lsls	r2, r2, #4
1000260e:	601a      	str	r2, [r3, #0]
10002610:	2280      	movs	r2, #128	; 0x80
10002612:	4b3e      	ldr	r3, [pc, #248]	; (1000270c <clocks_init+0x280>)
10002614:	0052      	lsls	r2, r2, #1
10002616:	604a      	str	r2, [r1, #4]
10002618:	61e3      	str	r3, [r4, #28]
1000261a:	4b4e      	ldr	r3, [pc, #312]	; (10002754 <clocks_init+0x2c8>)
1000261c:	6859      	ldr	r1, [r3, #4]
1000261e:	29ff      	cmp	r1, #255	; 0xff
10002620:	d800      	bhi.n	10002624 <clocks_init+0x198>
10002622:	605a      	str	r2, [r3, #4]
10002624:	2280      	movs	r2, #128	; 0x80
10002626:	4b4c      	ldr	r3, [pc, #304]	; (10002758 <clocks_init+0x2cc>)
10002628:	6a21      	ldr	r1, [r4, #32]
1000262a:	0112      	lsls	r2, r2, #4
1000262c:	4d49      	ldr	r5, [pc, #292]	; (10002754 <clocks_init+0x2c8>)
1000262e:	601a      	str	r2, [r3, #0]
10002630:	2900      	cmp	r1, #0
10002632:	d005      	beq.n	10002640 <clocks_init+0x1b4>
10002634:	6960      	ldr	r0, [r4, #20]
10002636:	f001 fe0b 	bl	10004250 <__wrap___aeabi_uidiv>
1000263a:	3001      	adds	r0, #1
1000263c:	3801      	subs	r0, #1
1000263e:	d1fd      	bne.n	1000263c <clocks_init+0x1b0>
10002640:	22e0      	movs	r2, #224	; 0xe0
10002642:	4944      	ldr	r1, [pc, #272]	; (10002754 <clocks_init+0x2c8>)
10002644:	680b      	ldr	r3, [r1, #0]
10002646:	401a      	ands	r2, r3
10002648:	2380      	movs	r3, #128	; 0x80
1000264a:	015b      	lsls	r3, r3, #5
1000264c:	432b      	orrs	r3, r5
1000264e:	601a      	str	r2, [r3, #0]
10002650:	2380      	movs	r3, #128	; 0x80
10002652:	2280      	movs	r2, #128	; 0x80
10002654:	019b      	lsls	r3, r3, #6
10002656:	432b      	orrs	r3, r5
10002658:	0112      	lsls	r2, r2, #4
1000265a:	601a      	str	r2, [r3, #0]
1000265c:	2380      	movs	r3, #128	; 0x80
1000265e:	2280      	movs	r2, #128	; 0x80
10002660:	005b      	lsls	r3, r3, #1
10002662:	604b      	str	r3, [r1, #4]
10002664:	4b29      	ldr	r3, [pc, #164]	; (1000270c <clocks_init+0x280>)
10002666:	02d2      	lsls	r2, r2, #11
10002668:	6223      	str	r3, [r4, #32]
1000266a:	4b3c      	ldr	r3, [pc, #240]	; (1000275c <clocks_init+0x2d0>)
1000266c:	6859      	ldr	r1, [r3, #4]
1000266e:	4291      	cmp	r1, r2
10002670:	d200      	bcs.n	10002674 <clocks_init+0x1e8>
10002672:	605a      	str	r2, [r3, #4]
10002674:	2280      	movs	r2, #128	; 0x80
10002676:	4b3a      	ldr	r3, [pc, #232]	; (10002760 <clocks_init+0x2d4>)
10002678:	6a61      	ldr	r1, [r4, #36]	; 0x24
1000267a:	0112      	lsls	r2, r2, #4
1000267c:	4d37      	ldr	r5, [pc, #220]	; (1000275c <clocks_init+0x2d0>)
1000267e:	601a      	str	r2, [r3, #0]
10002680:	2900      	cmp	r1, #0
10002682:	d005      	beq.n	10002690 <clocks_init+0x204>
10002684:	6960      	ldr	r0, [r4, #20]
10002686:	f001 fde3 	bl	10004250 <__wrap___aeabi_uidiv>
1000268a:	3001      	adds	r0, #1
1000268c:	3801      	subs	r0, #1
1000268e:	d1fd      	bne.n	1000268c <clocks_init+0x200>
10002690:	22e0      	movs	r2, #224	; 0xe0
10002692:	4932      	ldr	r1, [pc, #200]	; (1000275c <clocks_init+0x2d0>)
10002694:	680b      	ldr	r3, [r1, #0]
10002696:	401a      	ands	r2, r3
10002698:	2380      	movs	r3, #128	; 0x80
1000269a:	015b      	lsls	r3, r3, #5
1000269c:	432b      	orrs	r3, r5
1000269e:	601a      	str	r2, [r3, #0]
100026a0:	2380      	movs	r3, #128	; 0x80
100026a2:	2280      	movs	r2, #128	; 0x80
100026a4:	019b      	lsls	r3, r3, #6
100026a6:	432b      	orrs	r3, r5
100026a8:	0112      	lsls	r2, r2, #4
100026aa:	601a      	str	r2, [r3, #0]
100026ac:	2380      	movs	r3, #128	; 0x80
100026ae:	02db      	lsls	r3, r3, #11
100026b0:	604b      	str	r3, [r1, #4]
100026b2:	4b17      	ldr	r3, [pc, #92]	; (10002710 <clocks_init+0x284>)
100026b4:	6263      	str	r3, [r4, #36]	; 0x24
100026b6:	4b2b      	ldr	r3, [pc, #172]	; (10002764 <clocks_init+0x2d8>)
100026b8:	685a      	ldr	r2, [r3, #4]
100026ba:	2aff      	cmp	r2, #255	; 0xff
100026bc:	d802      	bhi.n	100026c4 <clocks_init+0x238>
100026be:	2280      	movs	r2, #128	; 0x80
100026c0:	0052      	lsls	r2, r2, #1
100026c2:	605a      	str	r2, [r3, #4]
100026c4:	2280      	movs	r2, #128	; 0x80
100026c6:	4b28      	ldr	r3, [pc, #160]	; (10002768 <clocks_init+0x2dc>)
100026c8:	69a1      	ldr	r1, [r4, #24]
100026ca:	0112      	lsls	r2, r2, #4
100026cc:	4d25      	ldr	r5, [pc, #148]	; (10002764 <clocks_init+0x2d8>)
100026ce:	601a      	str	r2, [r3, #0]
100026d0:	2900      	cmp	r1, #0
100026d2:	d005      	beq.n	100026e0 <clocks_init+0x254>
100026d4:	6960      	ldr	r0, [r4, #20]
100026d6:	f001 fdbb 	bl	10004250 <__wrap___aeabi_uidiv>
100026da:	3001      	adds	r0, #1
100026dc:	3801      	subs	r0, #1
100026de:	d1fd      	bne.n	100026dc <clocks_init+0x250>
100026e0:	22e0      	movs	r2, #224	; 0xe0
100026e2:	4920      	ldr	r1, [pc, #128]	; (10002764 <clocks_init+0x2d8>)
100026e4:	680b      	ldr	r3, [r1, #0]
100026e6:	401a      	ands	r2, r3
100026e8:	2380      	movs	r3, #128	; 0x80
100026ea:	015b      	lsls	r3, r3, #5
100026ec:	432b      	orrs	r3, r5
100026ee:	601a      	str	r2, [r3, #0]
100026f0:	2380      	movs	r3, #128	; 0x80
100026f2:	2280      	movs	r2, #128	; 0x80
100026f4:	019b      	lsls	r3, r3, #6
100026f6:	432b      	orrs	r3, r5
100026f8:	0112      	lsls	r2, r2, #4
100026fa:	601a      	str	r2, [r3, #0]
100026fc:	2380      	movs	r3, #128	; 0x80
100026fe:	005b      	lsls	r3, r3, #1
10002700:	604b      	str	r3, [r1, #4]
10002702:	4b11      	ldr	r3, [pc, #68]	; (10002748 <clocks_init+0x2bc>)
10002704:	61a3      	str	r3, [r4, #24]
10002706:	e6d7      	b.n	100024b8 <clocks_init+0x2c>
10002708:	20000c5c 	.word	0x20000c5c
1000270c:	02dc6c00 	.word	0x02dc6c00
10002710:	0000b71b 	.word	0x0000b71b
10002714:	40008000 	.word	0x40008000
10002718:	4000b03c 	.word	0x4000b03c
1000271c:	4000b030 	.word	0x4000b030
10002720:	4000e000 	.word	0x4000e000
10002724:	4000f000 	.word	0x4000f000
10002728:	4000c000 	.word	0x4000c000
1000272c:	59682f00 	.word	0x59682f00
10002730:	40028000 	.word	0x40028000
10002734:	1c9c3800 	.word	0x1c9c3800
10002738:	4002c000 	.word	0x4002c000
1000273c:	40008030 	.word	0x40008030
10002740:	00b71b00 	.word	0x00b71b00
10002744:	4000803c 	.word	0x4000803c
10002748:	07735940 	.word	0x07735940
1000274c:	40008054 	.word	0x40008054
10002750:	4000b054 	.word	0x4000b054
10002754:	40008060 	.word	0x40008060
10002758:	4000b060 	.word	0x4000b060
1000275c:	4000806c 	.word	0x4000806c
10002760:	4000b06c 	.word	0x4000b06c
10002764:	40008048 	.word	0x40008048
10002768:	4000b048 	.word	0x4000b048

1000276c <clock_get_hz>:
1000276c:	4b01      	ldr	r3, [pc, #4]	; (10002774 <clock_get_hz+0x8>)
1000276e:	0080      	lsls	r0, r0, #2
10002770:	58c0      	ldr	r0, [r0, r3]
10002772:	4770      	bx	lr
10002774:	20000c5c 	.word	0x20000c5c

10002778 <watchdog_start_tick>:
10002778:	2380      	movs	r3, #128	; 0x80
1000277a:	4a02      	ldr	r2, [pc, #8]	; (10002784 <watchdog_start_tick+0xc>)
1000277c:	009b      	lsls	r3, r3, #2
1000277e:	4303      	orrs	r3, r0
10002780:	62d3      	str	r3, [r2, #44]	; 0x2c
10002782:	4770      	bx	lr
10002784:	40058000 	.word	0x40058000

10002788 <xosc_init>:
10002788:	23aa      	movs	r3, #170	; 0xaa
1000278a:	4a06      	ldr	r2, [pc, #24]	; (100027a4 <xosc_init+0x1c>)
1000278c:	011b      	lsls	r3, r3, #4
1000278e:	6013      	str	r3, [r2, #0]
10002790:	232f      	movs	r3, #47	; 0x2f
10002792:	4905      	ldr	r1, [pc, #20]	; (100027a8 <xosc_init+0x20>)
10002794:	60d3      	str	r3, [r2, #12]
10002796:	4b05      	ldr	r3, [pc, #20]	; (100027ac <xosc_init+0x24>)
10002798:	6019      	str	r1, [r3, #0]
1000279a:	6853      	ldr	r3, [r2, #4]
1000279c:	2b00      	cmp	r3, #0
1000279e:	dafc      	bge.n	1000279a <xosc_init+0x12>
100027a0:	4770      	bx	lr
100027a2:	46c0      	nop			; (mov r8, r8)
100027a4:	40024000 	.word	0x40024000
100027a8:	00fab000 	.word	0x00fab000
100027ac:	40026000 	.word	0x40026000

100027b0 <pll_init>:
100027b0:	b5f8      	push	{r3, r4, r5, r6, r7, lr}
100027b2:	001d      	movs	r5, r3
100027b4:	ab06      	add	r3, sp, #24
100027b6:	781e      	ldrb	r6, [r3, #0]
100027b8:	2301      	movs	r3, #1
100027ba:	425b      	negs	r3, r3
100027bc:	6043      	str	r3, [r0, #4]
100027be:	2300      	movs	r3, #0
100027c0:	0004      	movs	r4, r0
100027c2:	6083      	str	r3, [r0, #8]
100027c4:	6001      	str	r1, [r0, #0]
100027c6:	200c      	movs	r0, #12
100027c8:	0017      	movs	r7, r2
100027ca:	f001 fd41 	bl	10004250 <__wrap___aeabi_uidiv>
100027ce:	0141      	lsls	r1, r0, #5
100027d0:	1a09      	subs	r1, r1, r0
100027d2:	018b      	lsls	r3, r1, #6
100027d4:	1a59      	subs	r1, r3, r1
100027d6:	00c9      	lsls	r1, r1, #3
100027d8:	1809      	adds	r1, r1, r0
100027da:	0189      	lsls	r1, r1, #6
100027dc:	0038      	movs	r0, r7
100027de:	f001 fd37 	bl	10004250 <__wrap___aeabi_uidiv>
100027e2:	21c0      	movs	r1, #192	; 0xc0
100027e4:	1d23      	adds	r3, r4, #4
100027e6:	0189      	lsls	r1, r1, #6
100027e8:	4319      	orrs	r1, r3
100027ea:	2321      	movs	r3, #33	; 0x21
100027ec:	60a0      	str	r0, [r4, #8]
100027ee:	600b      	str	r3, [r1, #0]
100027f0:	6822      	ldr	r2, [r4, #0]
100027f2:	2a00      	cmp	r2, #0
100027f4:	dafc      	bge.n	100027f0 <pll_init+0x40>
100027f6:	2308      	movs	r3, #8
100027f8:	042d      	lsls	r5, r5, #16
100027fa:	0336      	lsls	r6, r6, #12
100027fc:	432e      	orrs	r6, r5
100027fe:	60e6      	str	r6, [r4, #12]
10002800:	600b      	str	r3, [r1, #0]
10002802:	bdf8      	pop	{r3, r4, r5, r6, r7, pc}

10002804 <irq_set_enabled>:
10002804:	2301      	movs	r3, #1
10002806:	4083      	lsls	r3, r0
10002808:	2900      	cmp	r1, #0
1000280a:	d004      	beq.n	10002816 <irq_set_enabled+0x12>
1000280c:	4a03      	ldr	r2, [pc, #12]	; (1000281c <irq_set_enabled+0x18>)
1000280e:	6013      	str	r3, [r2, #0]
10002810:	4a03      	ldr	r2, [pc, #12]	; (10002820 <irq_set_enabled+0x1c>)
10002812:	6013      	str	r3, [r2, #0]
10002814:	4770      	bx	lr
10002816:	4a03      	ldr	r2, [pc, #12]	; (10002824 <irq_set_enabled+0x20>)
10002818:	6013      	str	r3, [r2, #0]
1000281a:	e7fb      	b.n	10002814 <irq_set_enabled+0x10>
1000281c:	e000e280 	.word	0xe000e280
10002820:	e000e100 	.word	0xe000e100
10002824:	e000e180 	.word	0xe000e180

10002828 <irq_get_vtable_handler>:
10002828:	4b02      	ldr	r3, [pc, #8]	; (10002834 <irq_get_vtable_handler+0xc>)
1000282a:	3010      	adds	r0, #16
1000282c:	689b      	ldr	r3, [r3, #8]
1000282e:	0080      	lsls	r0, r0, #2
10002830:	58c0      	ldr	r0, [r0, r3]
10002832:	4770      	bx	lr
10002834:	e000ed00 	.word	0xe000ed00

10002838 <irq_set_exclusive_handler>:
10002838:	b570      	push	{r4, r5, r6, lr}
1000283a:	000d      	movs	r5, r1
1000283c:	f3ef 8610 	mrs	r6, PRIMASK
10002840:	b672      	cpsid	i
10002842:	4a0f      	ldr	r2, [pc, #60]	; (10002880 <irq_set_exclusive_handler+0x48>)
10002844:	6813      	ldr	r3, [r2, #0]
10002846:	2b00      	cmp	r3, #0
10002848:	d0fc      	beq.n	10002844 <irq_set_exclusive_handler+0xc>
1000284a:	f3bf 8f5f 	dmb	sy
1000284e:	4b0d      	ldr	r3, [pc, #52]	; (10002884 <irq_set_exclusive_handler+0x4c>)
10002850:	3010      	adds	r0, #16
10002852:	689b      	ldr	r3, [r3, #8]
10002854:	0084      	lsls	r4, r0, #2
10002856:	591b      	ldr	r3, [r3, r4]
10002858:	4a0b      	ldr	r2, [pc, #44]	; (10002888 <irq_set_exclusive_handler+0x50>)
1000285a:	4293      	cmp	r3, r2
1000285c:	d003      	beq.n	10002866 <irq_set_exclusive_handler+0x2e>
1000285e:	429d      	cmp	r5, r3
10002860:	d001      	beq.n	10002866 <irq_set_exclusive_handler+0x2e>
10002862:	f7ff fe0d 	bl	10002480 <hard_assertion_failure>
10002866:	4b07      	ldr	r3, [pc, #28]	; (10002884 <irq_set_exclusive_handler+0x4c>)
10002868:	689b      	ldr	r3, [r3, #8]
1000286a:	511d      	str	r5, [r3, r4]
1000286c:	f3bf 8f5f 	dmb	sy
10002870:	f3bf 8f5f 	dmb	sy
10002874:	2200      	movs	r2, #0
10002876:	4b02      	ldr	r3, [pc, #8]	; (10002880 <irq_set_exclusive_handler+0x48>)
10002878:	601a      	str	r2, [r3, #0]
1000287a:	f386 8810 	msr	PRIMASK, r6
1000287e:	bd70      	pop	{r4, r5, r6, pc}
10002880:	d0000124 	.word	0xd0000124
10002884:	e000ed00 	.word	0xe000ed00
10002888:	100002cd 	.word	0x100002cd

1000288c <irq_remove_handler>:
1000288c:	b5f0      	push	{r4, r5, r6, r7, lr}
1000288e:	46de      	mov	lr, fp
10002890:	4657      	mov	r7, sl
10002892:	464e      	mov	r6, r9
10002894:	4645      	mov	r5, r8
10002896:	b5e0      	push	{r5, r6, r7, lr}
10002898:	000c      	movs	r4, r1
1000289a:	b083      	sub	sp, #12
1000289c:	f3ef 8a10 	mrs	sl, PRIMASK
100028a0:	b672      	cpsid	i
100028a2:	4a5f      	ldr	r2, [pc, #380]	; (10002a20 <irq_remove_handler+0x194>)
100028a4:	6813      	ldr	r3, [r2, #0]
100028a6:	2b00      	cmp	r3, #0
100028a8:	d0fc      	beq.n	100028a4 <irq_remove_handler+0x18>
100028aa:	f3bf 8f5f 	dmb	sy
100028ae:	2210      	movs	r2, #16
100028b0:	4691      	mov	r9, r2
100028b2:	4481      	add	r9, r0
100028b4:	464a      	mov	r2, r9
100028b6:	4b5b      	ldr	r3, [pc, #364]	; (10002a24 <irq_remove_handler+0x198>)
100028b8:	0096      	lsls	r6, r2, #2
100028ba:	689b      	ldr	r3, [r3, #8]
100028bc:	599d      	ldr	r5, [r3, r6]
100028be:	4b5a      	ldr	r3, [pc, #360]	; (10002a28 <irq_remove_handler+0x19c>)
100028c0:	4698      	mov	r8, r3
100028c2:	429d      	cmp	r5, r3
100028c4:	d005      	beq.n	100028d2 <irq_remove_handler+0x46>
100028c6:	42a5      	cmp	r5, r4
100028c8:	d016      	beq.n	100028f8 <irq_remove_handler+0x6c>
100028ca:	4f58      	ldr	r7, [pc, #352]	; (10002a2c <irq_remove_handler+0x1a0>)
100028cc:	1beb      	subs	r3, r5, r7
100028ce:	2b2f      	cmp	r3, #47	; 0x2f
100028d0:	d914      	bls.n	100028fc <irq_remove_handler+0x70>
100028d2:	4b54      	ldr	r3, [pc, #336]	; (10002a24 <irq_remove_handler+0x198>)
100028d4:	689b      	ldr	r3, [r3, #8]
100028d6:	519d      	str	r5, [r3, r6]
100028d8:	f3bf 8f5f 	dmb	sy
100028dc:	f3bf 8f5f 	dmb	sy
100028e0:	2200      	movs	r2, #0
100028e2:	4b4f      	ldr	r3, [pc, #316]	; (10002a20 <irq_remove_handler+0x194>)
100028e4:	601a      	str	r2, [r3, #0]
100028e6:	f38a 8810 	msr	PRIMASK, sl
100028ea:	b003      	add	sp, #12
100028ec:	bc3c      	pop	{r2, r3, r4, r5}
100028ee:	4690      	mov	r8, r2
100028f0:	4699      	mov	r9, r3
100028f2:	46a2      	mov	sl, r4
100028f4:	46ab      	mov	fp, r5
100028f6:	bdf0      	pop	{r4, r5, r6, r7, pc}
100028f8:	001d      	movs	r5, r3
100028fa:	e7ea      	b.n	100028d2 <irq_remove_handler+0x46>
100028fc:	2301      	movs	r3, #1
100028fe:	4083      	lsls	r3, r0
10002900:	469b      	mov	fp, r3
10002902:	465a      	mov	r2, fp
10002904:	4b4a      	ldr	r3, [pc, #296]	; (10002a30 <irq_remove_handler+0x1a4>)
10002906:	681b      	ldr	r3, [r3, #0]
10002908:	401a      	ands	r2, r3
1000290a:	9200      	str	r2, [sp, #0]
1000290c:	465a      	mov	r2, fp
1000290e:	4b49      	ldr	r3, [pc, #292]	; (10002a34 <irq_remove_handler+0x1a8>)
10002910:	601a      	str	r2, [r3, #0]
10002912:	f3bf 8f5f 	dmb	sy
10002916:	f7fd fc3e 	bl	10000196 <__get_current_exception>
1000291a:	9001      	str	r0, [sp, #4]
1000291c:	2800      	cmp	r0, #0
1000291e:	d003      	beq.n	10002928 <irq_remove_handler+0x9c>
10002920:	4581      	cmp	r9, r0
10002922:	d001      	beq.n	10002928 <irq_remove_handler+0x9c>
10002924:	f7ff fdac 	bl	10002480 <hard_assertion_failure>
10002928:	2301      	movs	r3, #1
1000292a:	0029      	movs	r1, r5
1000292c:	4399      	bics	r1, r3
1000292e:	688b      	ldr	r3, [r1, #8]
10002930:	42a3      	cmp	r3, r4
10002932:	d069      	beq.n	10002a08 <irq_remove_handler+0x17c>
10002934:	000a      	movs	r2, r1
10002936:	e007      	b.n	10002948 <irq_remove_handler+0xbc>
10002938:	0043      	lsls	r3, r0, #1
1000293a:	181b      	adds	r3, r3, r0
1000293c:	009b      	lsls	r3, r3, #2
1000293e:	18fb      	adds	r3, r7, r3
10002940:	6898      	ldr	r0, [r3, #8]
10002942:	42a0      	cmp	r0, r4
10002944:	d011      	beq.n	1000296a <irq_remove_handler+0xde>
10002946:	001a      	movs	r2, r3
10002948:	2006      	movs	r0, #6
1000294a:	5610      	ldrsb	r0, [r2, r0]
1000294c:	2800      	cmp	r0, #0
1000294e:	daf3      	bge.n	10002938 <irq_remove_handler+0xac>
10002950:	9b00      	ldr	r3, [sp, #0]
10002952:	2b00      	cmp	r3, #0
10002954:	d005      	beq.n	10002962 <irq_remove_handler+0xd6>
10002956:	465a      	mov	r2, fp
10002958:	4b37      	ldr	r3, [pc, #220]	; (10002a38 <irq_remove_handler+0x1ac>)
1000295a:	601a      	str	r2, [r3, #0]
1000295c:	4b34      	ldr	r3, [pc, #208]	; (10002a30 <irq_remove_handler+0x1a4>)
1000295e:	601a      	str	r2, [r3, #0]
10002960:	e7b7      	b.n	100028d2 <irq_remove_handler+0x46>
10002962:	465a      	mov	r2, fp
10002964:	4b33      	ldr	r3, [pc, #204]	; (10002a34 <irq_remove_handler+0x1a8>)
10002966:	601a      	str	r2, [r3, #0]
10002968:	e7b3      	b.n	100028d2 <irq_remove_handler+0x46>
1000296a:	2006      	movs	r0, #6
1000296c:	5618      	ldrsb	r0, [r3, r0]
1000296e:	2800      	cmp	r0, #0
10002970:	db22      	blt.n	100029b8 <irq_remove_handler+0x12c>
10002972:	0042      	lsls	r2, r0, #1
10002974:	1811      	adds	r1, r2, r0
10002976:	0089      	lsls	r1, r1, #2
10002978:	187c      	adds	r4, r7, r1
1000297a:	4688      	mov	r8, r1
1000297c:	68a1      	ldr	r1, [r4, #8]
1000297e:	6099      	str	r1, [r3, #8]
10002980:	79e1      	ldrb	r1, [r4, #7]
10002982:	71d9      	strb	r1, [r3, #7]
10002984:	2106      	movs	r1, #6
10002986:	5661      	ldrsb	r1, [r4, r1]
10002988:	7199      	strb	r1, [r3, #6]
1000298a:	79a1      	ldrb	r1, [r4, #6]
1000298c:	297f      	cmp	r1, #127	; 0x7f
1000298e:	d82b      	bhi.n	100029e8 <irq_remove_handler+0x15c>
10002990:	88a4      	ldrh	r4, [r4, #4]
10002992:	1af9      	subs	r1, r7, r3
10002994:	0564      	lsls	r4, r4, #21
10002996:	1524      	asrs	r4, r4, #20
10002998:	4444      	add	r4, r8
1000299a:	1909      	adds	r1, r1, r4
1000299c:	24e0      	movs	r4, #224	; 0xe0
1000299e:	0509      	lsls	r1, r1, #20
100029a0:	0d49      	lsrs	r1, r1, #21
100029a2:	0224      	lsls	r4, r4, #8
100029a4:	4321      	orrs	r1, r4
100029a6:	8099      	strh	r1, [r3, #4]
100029a8:	1812      	adds	r2, r2, r0
100029aa:	4b24      	ldr	r3, [pc, #144]	; (10002a3c <irq_remove_handler+0x1b0>)
100029ac:	0092      	lsls	r2, r2, #2
100029ae:	18bf      	adds	r7, r7, r2
100029b0:	781a      	ldrb	r2, [r3, #0]
100029b2:	7018      	strb	r0, [r3, #0]
100029b4:	71ba      	strb	r2, [r7, #6]
100029b6:	e7cb      	b.n	10002950 <irq_remove_handler+0xc4>
100029b8:	9801      	ldr	r0, [sp, #4]
100029ba:	2800      	cmp	r0, #0
100029bc:	d117      	bne.n	100029ee <irq_remove_handler+0x162>
100029be:	30ff      	adds	r0, #255	; 0xff
100029c0:	7190      	strb	r0, [r2, #6]
100029c2:	481f      	ldr	r0, [pc, #124]	; (10002a40 <irq_remove_handler+0x1b4>)
100029c4:	8090      	strh	r0, [r2, #4]
100029c6:	4a1d      	ldr	r2, [pc, #116]	; (10002a3c <irq_remove_handler+0x1b0>)
100029c8:	1bcf      	subs	r7, r1, r7
100029ca:	7810      	ldrb	r0, [r2, #0]
100029cc:	10bf      	asrs	r7, r7, #2
100029ce:	7198      	strb	r0, [r3, #6]
100029d0:	00bb      	lsls	r3, r7, #2
100029d2:	19db      	adds	r3, r3, r7
100029d4:	0119      	lsls	r1, r3, #4
100029d6:	185b      	adds	r3, r3, r1
100029d8:	0219      	lsls	r1, r3, #8
100029da:	185b      	adds	r3, r3, r1
100029dc:	0419      	lsls	r1, r3, #16
100029de:	185b      	adds	r3, r3, r1
100029e0:	005b      	lsls	r3, r3, #1
100029e2:	19db      	adds	r3, r3, r7
100029e4:	7013      	strb	r3, [r2, #0]
100029e6:	e7b3      	b.n	10002950 <irq_remove_handler+0xc4>
100029e8:	21bd      	movs	r1, #189	; 0xbd
100029ea:	0209      	lsls	r1, r1, #8
100029ec:	e7db      	b.n	100029a6 <irq_remove_handler+0x11a>
100029ee:	4a15      	ldr	r2, [pc, #84]	; (10002a44 <irq_remove_handler+0x1b8>)
100029f0:	4915      	ldr	r1, [pc, #84]	; (10002a48 <irq_remove_handler+0x1bc>)
100029f2:	1ad2      	subs	r2, r2, r3
100029f4:	3a08      	subs	r2, #8
100029f6:	0250      	lsls	r0, r2, #9
100029f8:	0d40      	lsrs	r0, r0, #21
100029fa:	4301      	orrs	r1, r0
100029fc:	8099      	strh	r1, [r3, #4]
100029fe:	4913      	ldr	r1, [pc, #76]	; (10002a4c <irq_remove_handler+0x1c0>)
10002a00:	0852      	lsrs	r2, r2, #1
10002a02:	430a      	orrs	r2, r1
10002a04:	80da      	strh	r2, [r3, #6]
10002a06:	e7a3      	b.n	10002950 <irq_remove_handler+0xc4>
10002a08:	2006      	movs	r0, #6
10002a0a:	5608      	ldrsb	r0, [r1, r0]
10002a0c:	000b      	movs	r3, r1
10002a0e:	2800      	cmp	r0, #0
10002a10:	daaf      	bge.n	10002972 <irq_remove_handler+0xe6>
10002a12:	9a01      	ldr	r2, [sp, #4]
10002a14:	2a00      	cmp	r2, #0
10002a16:	d1ea      	bne.n	100029ee <irq_remove_handler+0x162>
10002a18:	000b      	movs	r3, r1
10002a1a:	4645      	mov	r5, r8
10002a1c:	e7d3      	b.n	100029c6 <irq_remove_handler+0x13a>
10002a1e:	46c0      	nop			; (mov r8, r8)
10002a20:	d0000124 	.word	0xd0000124
10002a24:	e000ed00 	.word	0xe000ed00
10002a28:	100002cd 	.word	0x100002cd
10002a2c:	20000328 	.word	0x20000328
10002a30:	e000e100 	.word	0xe000e100
10002a34:	e000e180 	.word	0xe000e180
10002a38:	e000e280 	.word	0xe000e280
10002a3c:	20000cfb 	.word	0x20000cfb
10002a40:	ffffbd00 	.word	0xffffbd00
10002a44:	20000362 	.word	0x20000362
10002a48:	fffff000 	.word	0xfffff000
10002a4c:	fffff800 	.word	0xfffff800

10002a50 <irq_add_tail_to_free_list>:
10002a50:	b5f8      	push	{r3, r4, r5, r6, r7, lr}
10002a52:	2501      	movs	r5, #1
10002a54:	0004      	movs	r4, r0
10002a56:	4305      	orrs	r5, r0
10002a58:	f7fd fb9d 	bl	10000196 <__get_current_exception>
10002a5c:	f3ef 8610 	mrs	r6, PRIMASK
10002a60:	b672      	cpsid	i
10002a62:	4a24      	ldr	r2, [pc, #144]	; (10002af4 <irq_add_tail_to_free_list+0xa4>)
10002a64:	6813      	ldr	r3, [r2, #0]
10002a66:	2b00      	cmp	r3, #0
10002a68:	d0fc      	beq.n	10002a64 <irq_add_tail_to_free_list+0x14>
10002a6a:	f3bf 8f5f 	dmb	sy
10002a6e:	4f22      	ldr	r7, [pc, #136]	; (10002af8 <irq_add_tail_to_free_list+0xa8>)
10002a70:	0080      	lsls	r0, r0, #2
10002a72:	1be1      	subs	r1, r4, r7
10002a74:	1089      	asrs	r1, r1, #2
10002a76:	008a      	lsls	r2, r1, #2
10002a78:	1852      	adds	r2, r2, r1
10002a7a:	0113      	lsls	r3, r2, #4
10002a7c:	18d2      	adds	r2, r2, r3
10002a7e:	0213      	lsls	r3, r2, #8
10002a80:	18d2      	adds	r2, r2, r3
10002a82:	0413      	lsls	r3, r2, #16
10002a84:	18d3      	adds	r3, r2, r3
10002a86:	4a1d      	ldr	r2, [pc, #116]	; (10002afc <irq_add_tail_to_free_list+0xac>)
10002a88:	005b      	lsls	r3, r3, #1
10002a8a:	185b      	adds	r3, r3, r1
10002a8c:	6891      	ldr	r1, [r2, #8]
10002a8e:	5809      	ldr	r1, [r1, r0]
10002a90:	42a9      	cmp	r1, r5
10002a92:	d01c      	beq.n	10002ace <irq_add_tail_to_free_list+0x7e>
10002a94:	2206      	movs	r2, #6
10002a96:	56ba      	ldrsb	r2, [r7, r2]
10002a98:	4293      	cmp	r3, r2
10002a9a:	d01c      	beq.n	10002ad6 <irq_add_tail_to_free_list+0x86>
10002a9c:	2212      	movs	r2, #18
10002a9e:	56ba      	ldrsb	r2, [r7, r2]
10002aa0:	4293      	cmp	r3, r2
10002aa2:	d022      	beq.n	10002aea <irq_add_tail_to_free_list+0x9a>
10002aa4:	221e      	movs	r2, #30
10002aa6:	56ba      	ldrsb	r2, [r7, r2]
10002aa8:	4293      	cmp	r3, r2
10002aaa:	d020      	beq.n	10002aee <irq_add_tail_to_free_list+0x9e>
10002aac:	222a      	movs	r2, #42	; 0x2a
10002aae:	56ba      	ldrsb	r2, [r7, r2]
10002ab0:	2103      	movs	r1, #3
10002ab2:	429a      	cmp	r2, r3
10002ab4:	d010      	beq.n	10002ad8 <irq_add_tail_to_free_list+0x88>
10002ab6:	4a12      	ldr	r2, [pc, #72]	; (10002b00 <irq_add_tail_to_free_list+0xb0>)
10002ab8:	7811      	ldrb	r1, [r2, #0]
10002aba:	7013      	strb	r3, [r2, #0]
10002abc:	71a1      	strb	r1, [r4, #6]
10002abe:	f3bf 8f5f 	dmb	sy
10002ac2:	2200      	movs	r2, #0
10002ac4:	4b0b      	ldr	r3, [pc, #44]	; (10002af4 <irq_add_tail_to_free_list+0xa4>)
10002ac6:	601a      	str	r2, [r3, #0]
10002ac8:	f386 8810 	msr	PRIMASK, r6
10002acc:	bdf8      	pop	{r3, r4, r5, r6, r7, pc}
10002ace:	6892      	ldr	r2, [r2, #8]
10002ad0:	490c      	ldr	r1, [pc, #48]	; (10002b04 <irq_add_tail_to_free_list+0xb4>)
10002ad2:	5011      	str	r1, [r2, r0]
10002ad4:	e7ef      	b.n	10002ab6 <irq_add_tail_to_free_list+0x66>
10002ad6:	2100      	movs	r1, #0
10002ad8:	004a      	lsls	r2, r1, #1
10002ada:	1852      	adds	r2, r2, r1
10002adc:	21ff      	movs	r1, #255	; 0xff
10002ade:	0092      	lsls	r2, r2, #2
10002ae0:	18ba      	adds	r2, r7, r2
10002ae2:	7191      	strb	r1, [r2, #6]
10002ae4:	4908      	ldr	r1, [pc, #32]	; (10002b08 <irq_add_tail_to_free_list+0xb8>)
10002ae6:	8091      	strh	r1, [r2, #4]
10002ae8:	e7e5      	b.n	10002ab6 <irq_add_tail_to_free_list+0x66>
10002aea:	2101      	movs	r1, #1
10002aec:	e7f4      	b.n	10002ad8 <irq_add_tail_to_free_list+0x88>
10002aee:	2102      	movs	r1, #2
10002af0:	e7f2      	b.n	10002ad8 <irq_add_tail_to_free_list+0x88>
10002af2:	46c0      	nop			; (mov r8, r8)
10002af4:	d0000124 	.word	0xd0000124
10002af8:	20000328 	.word	0x20000328
10002afc:	e000ed00 	.word	0xe000ed00
10002b00:	20000cfb 	.word	0x20000cfb
10002b04:	100002cd 	.word	0x100002cd
10002b08:	ffffbd00 	.word	0xffffbd00

10002b0c <irq_init_priorities>:
10002b0c:	b5f0      	push	{r4, r5, r6, r7, lr}
10002b0e:	2200      	movs	r2, #0
10002b10:	2403      	movs	r4, #3
10002b12:	27ff      	movs	r7, #255	; 0xff
10002b14:	2680      	movs	r6, #128	; 0x80
10002b16:	0020      	movs	r0, r4
10002b18:	003d      	movs	r5, r7
10002b1a:	4b09      	ldr	r3, [pc, #36]	; (10002b40 <irq_init_priorities+0x34>)
10002b1c:	0011      	movs	r1, r2
10002b1e:	469c      	mov	ip, r3
10002b20:	4010      	ands	r0, r2
10002b22:	00c0      	lsls	r0, r0, #3
10002b24:	4085      	lsls	r5, r0
10002b26:	43a1      	bics	r1, r4
10002b28:	4461      	add	r1, ip
10002b2a:	680b      	ldr	r3, [r1, #0]
10002b2c:	3201      	adds	r2, #1
10002b2e:	43ab      	bics	r3, r5
10002b30:	0035      	movs	r5, r6
10002b32:	4085      	lsls	r5, r0
10002b34:	432b      	orrs	r3, r5
10002b36:	600b      	str	r3, [r1, #0]
10002b38:	2a20      	cmp	r2, #32
10002b3a:	d1ec      	bne.n	10002b16 <irq_init_priorities+0xa>
10002b3c:	bdf0      	pop	{r4, r5, r6, r7, pc}
10002b3e:	46c0      	nop			; (mov r8, r8)
10002b40:	e000e400 	.word	0xe000e400

10002b44 <_out_null>:
10002b44:	4770      	bx	lr
10002b46:	46c0      	nop			; (mov r8, r8)

10002b48 <_out_rev>:
10002b48:	b5f8      	push	{r3, r4, r5, r6, r7, lr}
10002b4a:	4657      	mov	r7, sl
10002b4c:	464e      	mov	r6, r9
10002b4e:	46de      	mov	lr, fp
10002b50:	4645      	mov	r5, r8
10002b52:	b5e0      	push	{r5, r6, r7, lr}
10002b54:	001f      	movs	r7, r3
10002b56:	9b0a      	ldr	r3, [sp, #40]	; 0x28
10002b58:	0005      	movs	r5, r0
10002b5a:	469b      	mov	fp, r3
10002b5c:	9b0d      	ldr	r3, [sp, #52]	; 0x34
10002b5e:	000e      	movs	r6, r1
10002b60:	4691      	mov	r9, r2
10002b62:	4692      	mov	sl, r2
10002b64:	079b      	lsls	r3, r3, #30
10002b66:	d118      	bne.n	10002b9a <_out_rev+0x52>
10002b68:	9b0b      	ldr	r3, [sp, #44]	; 0x2c
10002b6a:	9a0c      	ldr	r2, [sp, #48]	; 0x30
10002b6c:	4293      	cmp	r3, r2
10002b6e:	d214      	bcs.n	10002b9a <_out_rev+0x52>
10002b70:	0013      	movs	r3, r2
10002b72:	9a0b      	ldr	r2, [sp, #44]	; 0x2c
10002b74:	46b8      	mov	r8, r7
10002b76:	1a9b      	subs	r3, r3, r2
10002b78:	444b      	add	r3, r9
10002b7a:	464c      	mov	r4, r9
10002b7c:	000f      	movs	r7, r1
10002b7e:	0006      	movs	r6, r0
10002b80:	001d      	movs	r5, r3
10002b82:	0022      	movs	r2, r4
10002b84:	4643      	mov	r3, r8
10002b86:	3401      	adds	r4, #1
10002b88:	0039      	movs	r1, r7
10002b8a:	2020      	movs	r0, #32
10002b8c:	47b0      	blx	r6
10002b8e:	42ac      	cmp	r4, r5
10002b90:	d1f7      	bne.n	10002b82 <_out_rev+0x3a>
10002b92:	46aa      	mov	sl, r5
10002b94:	0035      	movs	r5, r6
10002b96:	003e      	movs	r6, r7
10002b98:	4647      	mov	r7, r8
10002b9a:	9b0b      	ldr	r3, [sp, #44]	; 0x2c
10002b9c:	2b00      	cmp	r3, #0
10002b9e:	d038      	beq.n	10002c12 <_out_rev+0xca>
10002ba0:	449a      	add	sl, r3
10002ba2:	001c      	movs	r4, r3
10002ba4:	46d0      	mov	r8, sl
10002ba6:	4653      	mov	r3, sl
10002ba8:	1b1a      	subs	r2, r3, r4
10002baa:	465b      	mov	r3, fp
10002bac:	3c01      	subs	r4, #1
10002bae:	5d18      	ldrb	r0, [r3, r4]
10002bb0:	0031      	movs	r1, r6
10002bb2:	003b      	movs	r3, r7
10002bb4:	47a8      	blx	r5
10002bb6:	2c00      	cmp	r4, #0
10002bb8:	d1f5      	bne.n	10002ba6 <_out_rev+0x5e>
10002bba:	9b0d      	ldr	r3, [sp, #52]	; 0x34
10002bbc:	079b      	lsls	r3, r3, #30
10002bbe:	d521      	bpl.n	10002c04 <_out_rev+0xbc>
10002bc0:	4643      	mov	r3, r8
10002bc2:	464a      	mov	r2, r9
10002bc4:	1a9c      	subs	r4, r3, r2
10002bc6:	9b0c      	ldr	r3, [sp, #48]	; 0x30
10002bc8:	42a3      	cmp	r3, r4
10002bca:	d91b      	bls.n	10002c04 <_out_rev+0xbc>
10002bcc:	003a      	movs	r2, r7
10002bce:	469a      	mov	sl, r3
10002bd0:	464f      	mov	r7, r9
10002bd2:	4691      	mov	r9, r2
10002bd4:	19e2      	adds	r2, r4, r7
10002bd6:	464b      	mov	r3, r9
10002bd8:	0031      	movs	r1, r6
10002bda:	2020      	movs	r0, #32
10002bdc:	3401      	adds	r4, #1
10002bde:	47a8      	blx	r5
10002be0:	4554      	cmp	r4, sl
10002be2:	d3f7      	bcc.n	10002bd4 <_out_rev+0x8c>
10002be4:	4643      	mov	r3, r8
10002be6:	990c      	ldr	r1, [sp, #48]	; 0x30
10002be8:	1bdb      	subs	r3, r3, r7
10002bea:	3301      	adds	r3, #1
10002bec:	46b9      	mov	r9, r7
10002bee:	2200      	movs	r2, #0
10002bf0:	4299      	cmp	r1, r3
10002bf2:	d303      	bcc.n	10002bfc <_out_rev+0xb4>
10002bf4:	4643      	mov	r3, r8
10002bf6:	1e4a      	subs	r2, r1, #1
10002bf8:	444a      	add	r2, r9
10002bfa:	1ad2      	subs	r2, r2, r3
10002bfc:	4643      	mov	r3, r8
10002bfe:	4690      	mov	r8, r2
10002c00:	3301      	adds	r3, #1
10002c02:	4498      	add	r8, r3
10002c04:	4640      	mov	r0, r8
10002c06:	bc3c      	pop	{r2, r3, r4, r5}
10002c08:	4690      	mov	r8, r2
10002c0a:	4699      	mov	r9, r3
10002c0c:	46a2      	mov	sl, r4
10002c0e:	46ab      	mov	fp, r5
10002c10:	bdf8      	pop	{r3, r4, r5, r6, r7, pc}
10002c12:	46d0      	mov	r8, sl
10002c14:	e7d1      	b.n	10002bba <_out_rev+0x72>
10002c16:	46c0      	nop			; (mov r8, r8)

10002c18 <_ntoa_format>:
10002c18:	b5f0      	push	{r4, r5, r6, r7, lr}
10002c1a:	464f      	mov	r7, r9
10002c1c:	4646      	mov	r6, r8
10002c1e:	46d6      	mov	lr, sl
10002c20:	b5c0      	push	{r6, r7, lr}
10002c22:	b084      	sub	sp, #16
10002c24:	4698      	mov	r8, r3
10002c26:	ab0e      	add	r3, sp, #56	; 0x38
10002c28:	781b      	ldrb	r3, [r3, #0]
10002c2a:	9f12      	ldr	r7, [sp, #72]	; 0x48
10002c2c:	4699      	mov	r9, r3
10002c2e:	4694      	mov	ip, r2
10002c30:	9c0d      	ldr	r4, [sp, #52]	; 0x34
10002c32:	9b10      	ldr	r3, [sp, #64]	; 0x40
10002c34:	9e11      	ldr	r6, [sp, #68]	; 0x44
10002c36:	07ba      	lsls	r2, r7, #30
10002c38:	d425      	bmi.n	10002c86 <_ntoa_format+0x6e>
10002c3a:	2e00      	cmp	r6, #0
10002c3c:	d169      	bne.n	10002d12 <_ntoa_format+0xfa>
10002c3e:	429c      	cmp	r4, r3
10002c40:	d300      	bcc.n	10002c44 <_ntoa_format+0x2c>
10002c42:	e0c2      	b.n	10002dca <_ntoa_format+0x1b2>
10002c44:	2201      	movs	r2, #1
10002c46:	403a      	ands	r2, r7
10002c48:	4692      	mov	sl, r2
10002c4a:	2c1f      	cmp	r4, #31
10002c4c:	d900      	bls.n	10002c50 <_ntoa_format+0x38>
10002c4e:	e0bb      	b.n	10002dc8 <_ntoa_format+0x1b0>
10002c50:	9a0c      	ldr	r2, [sp, #48]	; 0x30
10002c52:	1e55      	subs	r5, r2, #1
10002c54:	2230      	movs	r2, #48	; 0x30
10002c56:	e001      	b.n	10002c5c <_ntoa_format+0x44>
10002c58:	2c20      	cmp	r4, #32
10002c5a:	d003      	beq.n	10002c64 <_ntoa_format+0x4c>
10002c5c:	3401      	adds	r4, #1
10002c5e:	552a      	strb	r2, [r5, r4]
10002c60:	42a3      	cmp	r3, r4
10002c62:	d8f9      	bhi.n	10002c58 <_ntoa_format+0x40>
10002c64:	4652      	mov	r2, sl
10002c66:	2a00      	cmp	r2, #0
10002c68:	d00d      	beq.n	10002c86 <_ntoa_format+0x6e>
10002c6a:	42b4      	cmp	r4, r6
10002c6c:	d20b      	bcs.n	10002c86 <_ntoa_format+0x6e>
10002c6e:	2c1f      	cmp	r4, #31
10002c70:	d862      	bhi.n	10002d38 <_ntoa_format+0x120>
10002c72:	9a0c      	ldr	r2, [sp, #48]	; 0x30
10002c74:	1e55      	subs	r5, r2, #1
10002c76:	2230      	movs	r2, #48	; 0x30
10002c78:	e001      	b.n	10002c7e <_ntoa_format+0x66>
10002c7a:	2c20      	cmp	r4, #32
10002c7c:	d05c      	beq.n	10002d38 <_ntoa_format+0x120>
10002c7e:	3401      	adds	r4, #1
10002c80:	552a      	strb	r2, [r5, r4]
10002c82:	42b4      	cmp	r4, r6
10002c84:	d1f9      	bne.n	10002c7a <_ntoa_format+0x62>
10002c86:	06fa      	lsls	r2, r7, #27
10002c88:	d535      	bpl.n	10002cf6 <_ntoa_format+0xde>
10002c8a:	057a      	lsls	r2, r7, #21
10002c8c:	d45d      	bmi.n	10002d4a <_ntoa_format+0x132>
10002c8e:	2c00      	cmp	r4, #0
10002c90:	d157      	bne.n	10002d42 <_ntoa_format+0x12a>
10002c92:	9b0f      	ldr	r3, [sp, #60]	; 0x3c
10002c94:	2b10      	cmp	r3, #16
10002c96:	d100      	bne.n	10002c9a <_ntoa_format+0x82>
10002c98:	e07c      	b.n	10002d94 <_ntoa_format+0x17c>
10002c9a:	9b0f      	ldr	r3, [sp, #60]	; 0x3c
10002c9c:	2b02      	cmp	r3, #2
10002c9e:	d100      	bne.n	10002ca2 <_ntoa_format+0x8a>
10002ca0:	e08d      	b.n	10002dbe <_ntoa_format+0x1a6>
10002ca2:	2330      	movs	r3, #48	; 0x30
10002ca4:	9a0c      	ldr	r2, [sp, #48]	; 0x30
10002ca6:	2401      	movs	r4, #1
10002ca8:	7013      	strb	r3, [r2, #0]
10002caa:	464b      	mov	r3, r9
10002cac:	2b00      	cmp	r3, #0
10002cae:	d027      	beq.n	10002d00 <_ntoa_format+0xe8>
10002cb0:	232d      	movs	r3, #45	; 0x2d
10002cb2:	9a0c      	ldr	r2, [sp, #48]	; 0x30
10002cb4:	5513      	strb	r3, [r2, r4]
10002cb6:	3401      	adds	r4, #1
10002cb8:	9b0c      	ldr	r3, [sp, #48]	; 0x30
10002cba:	4662      	mov	r2, ip
10002cbc:	9300      	str	r3, [sp, #0]
10002cbe:	9703      	str	r7, [sp, #12]
10002cc0:	4643      	mov	r3, r8
10002cc2:	9602      	str	r6, [sp, #8]
10002cc4:	9401      	str	r4, [sp, #4]
10002cc6:	f7ff ff3f 	bl	10002b48 <_out_rev>
10002cca:	b004      	add	sp, #16
10002ccc:	bc1c      	pop	{r2, r3, r4}
10002cce:	4690      	mov	r8, r2
10002cd0:	4699      	mov	r9, r3
10002cd2:	46a2      	mov	sl, r4
10002cd4:	bdf0      	pop	{r4, r5, r6, r7, pc}
10002cd6:	06bb      	lsls	r3, r7, #26
10002cd8:	d463      	bmi.n	10002da2 <_ntoa_format+0x18a>
10002cda:	2c20      	cmp	r4, #32
10002cdc:	d0ec      	beq.n	10002cb8 <_ntoa_format+0xa0>
10002cde:	9b0c      	ldr	r3, [sp, #48]	; 0x30
10002ce0:	191a      	adds	r2, r3, r4
10002ce2:	3401      	adds	r4, #1
10002ce4:	2378      	movs	r3, #120	; 0x78
10002ce6:	7013      	strb	r3, [r2, #0]
10002ce8:	2c20      	cmp	r4, #32
10002cea:	d0e5      	beq.n	10002cb8 <_ntoa_format+0xa0>
10002cec:	2230      	movs	r2, #48	; 0x30
10002cee:	9b0c      	ldr	r3, [sp, #48]	; 0x30
10002cf0:	191b      	adds	r3, r3, r4
10002cf2:	701a      	strb	r2, [r3, #0]
10002cf4:	3401      	adds	r4, #1
10002cf6:	2c20      	cmp	r4, #32
10002cf8:	d0de      	beq.n	10002cb8 <_ntoa_format+0xa0>
10002cfa:	464b      	mov	r3, r9
10002cfc:	2b00      	cmp	r3, #0
10002cfe:	d1d7      	bne.n	10002cb0 <_ntoa_format+0x98>
10002d00:	077b      	lsls	r3, r7, #29
10002d02:	d435      	bmi.n	10002d70 <_ntoa_format+0x158>
10002d04:	073b      	lsls	r3, r7, #28
10002d06:	d5d7      	bpl.n	10002cb8 <_ntoa_format+0xa0>
10002d08:	2320      	movs	r3, #32
10002d0a:	9a0c      	ldr	r2, [sp, #48]	; 0x30
10002d0c:	5513      	strb	r3, [r2, r4]
10002d0e:	3401      	adds	r4, #1
10002d10:	e7d2      	b.n	10002cb8 <_ntoa_format+0xa0>
10002d12:	2201      	movs	r2, #1
10002d14:	0015      	movs	r5, r2
10002d16:	403d      	ands	r5, r7
10002d18:	46aa      	mov	sl, r5
10002d1a:	423a      	tst	r2, r7
10002d1c:	d020      	beq.n	10002d60 <_ntoa_format+0x148>
10002d1e:	464a      	mov	r2, r9
10002d20:	2a00      	cmp	r2, #0
10002d22:	d12a      	bne.n	10002d7a <_ntoa_format+0x162>
10002d24:	320c      	adds	r2, #12
10002d26:	423a      	tst	r2, r7
10002d28:	d127      	bne.n	10002d7a <_ntoa_format+0x162>
10002d2a:	429c      	cmp	r4, r3
10002d2c:	d29d      	bcs.n	10002c6a <_ntoa_format+0x52>
10002d2e:	2c1f      	cmp	r4, #31
10002d30:	d800      	bhi.n	10002d34 <_ntoa_format+0x11c>
10002d32:	e78d      	b.n	10002c50 <_ntoa_format+0x38>
10002d34:	2e20      	cmp	r6, #32
10002d36:	d919      	bls.n	10002d6c <_ntoa_format+0x154>
10002d38:	2420      	movs	r4, #32
10002d3a:	06fa      	lsls	r2, r7, #27
10002d3c:	d5bc      	bpl.n	10002cb8 <_ntoa_format+0xa0>
10002d3e:	057a      	lsls	r2, r7, #21
10002d40:	d403      	bmi.n	10002d4a <_ntoa_format+0x132>
10002d42:	42a3      	cmp	r3, r4
10002d44:	d01b      	beq.n	10002d7e <_ntoa_format+0x166>
10002d46:	42a6      	cmp	r6, r4
10002d48:	d019      	beq.n	10002d7e <_ntoa_format+0x166>
10002d4a:	9b0f      	ldr	r3, [sp, #60]	; 0x3c
10002d4c:	2b10      	cmp	r3, #16
10002d4e:	d0c2      	beq.n	10002cd6 <_ntoa_format+0xbe>
10002d50:	2b02      	cmp	r3, #2
10002d52:	d1c9      	bne.n	10002ce8 <_ntoa_format+0xd0>
10002d54:	2c20      	cmp	r4, #32
10002d56:	d0af      	beq.n	10002cb8 <_ntoa_format+0xa0>
10002d58:	9b0c      	ldr	r3, [sp, #48]	; 0x30
10002d5a:	191b      	adds	r3, r3, r4
10002d5c:	3401      	adds	r4, #1
10002d5e:	e040      	b.n	10002de2 <_ntoa_format+0x1ca>
10002d60:	429c      	cmp	r4, r3
10002d62:	d300      	bcc.n	10002d66 <_ntoa_format+0x14e>
10002d64:	e78f      	b.n	10002c86 <_ntoa_format+0x6e>
10002d66:	2c1f      	cmp	r4, #31
10002d68:	d800      	bhi.n	10002d6c <_ntoa_format+0x154>
10002d6a:	e771      	b.n	10002c50 <_ntoa_format+0x38>
10002d6c:	2420      	movs	r4, #32
10002d6e:	e78a      	b.n	10002c86 <_ntoa_format+0x6e>
10002d70:	232b      	movs	r3, #43	; 0x2b
10002d72:	9a0c      	ldr	r2, [sp, #48]	; 0x30
10002d74:	5513      	strb	r3, [r2, r4]
10002d76:	3401      	adds	r4, #1
10002d78:	e79e      	b.n	10002cb8 <_ntoa_format+0xa0>
10002d7a:	3e01      	subs	r6, #1
10002d7c:	e7d5      	b.n	10002d2a <_ntoa_format+0x112>
10002d7e:	1e63      	subs	r3, r4, #1
10002d80:	2c01      	cmp	r4, #1
10002d82:	d100      	bne.n	10002d86 <_ntoa_format+0x16e>
10002d84:	e785      	b.n	10002c92 <_ntoa_format+0x7a>
10002d86:	9a0f      	ldr	r2, [sp, #60]	; 0x3c
10002d88:	2a10      	cmp	r2, #16
10002d8a:	d020      	beq.n	10002dce <_ntoa_format+0x1b6>
10002d8c:	2a02      	cmp	r2, #2
10002d8e:	d025      	beq.n	10002ddc <_ntoa_format+0x1c4>
10002d90:	001c      	movs	r4, r3
10002d92:	e7ab      	b.n	10002cec <_ntoa_format+0xd4>
10002d94:	06bb      	lsls	r3, r7, #26
10002d96:	d40d      	bmi.n	10002db4 <_ntoa_format+0x19c>
10002d98:	2378      	movs	r3, #120	; 0x78
10002d9a:	9a0c      	ldr	r2, [sp, #48]	; 0x30
10002d9c:	2401      	movs	r4, #1
10002d9e:	7013      	strb	r3, [r2, #0]
10002da0:	e7a4      	b.n	10002cec <_ntoa_format+0xd4>
10002da2:	2c20      	cmp	r4, #32
10002da4:	d100      	bne.n	10002da8 <_ntoa_format+0x190>
10002da6:	e787      	b.n	10002cb8 <_ntoa_format+0xa0>
10002da8:	2258      	movs	r2, #88	; 0x58
10002daa:	9b0c      	ldr	r3, [sp, #48]	; 0x30
10002dac:	191b      	adds	r3, r3, r4
10002dae:	701a      	strb	r2, [r3, #0]
10002db0:	3401      	adds	r4, #1
10002db2:	e799      	b.n	10002ce8 <_ntoa_format+0xd0>
10002db4:	2358      	movs	r3, #88	; 0x58
10002db6:	9a0c      	ldr	r2, [sp, #48]	; 0x30
10002db8:	2401      	movs	r4, #1
10002dba:	7013      	strb	r3, [r2, #0]
10002dbc:	e796      	b.n	10002cec <_ntoa_format+0xd4>
10002dbe:	9a0c      	ldr	r2, [sp, #48]	; 0x30
10002dc0:	3360      	adds	r3, #96	; 0x60
10002dc2:	2401      	movs	r4, #1
10002dc4:	7013      	strb	r3, [r2, #0]
10002dc6:	e791      	b.n	10002cec <_ntoa_format+0xd4>
10002dc8:	2420      	movs	r4, #32
10002dca:	2600      	movs	r6, #0
10002dcc:	e75b      	b.n	10002c86 <_ntoa_format+0x6e>
10002dce:	3c02      	subs	r4, #2
10002dd0:	06ba      	lsls	r2, r7, #26
10002dd2:	d4e9      	bmi.n	10002da8 <_ntoa_format+0x190>
10002dd4:	9a0c      	ldr	r2, [sp, #48]	; 0x30
10002dd6:	1912      	adds	r2, r2, r4
10002dd8:	001c      	movs	r4, r3
10002dda:	e783      	b.n	10002ce4 <_ntoa_format+0xcc>
10002ddc:	9a0c      	ldr	r2, [sp, #48]	; 0x30
10002dde:	4692      	mov	sl, r2
10002de0:	4453      	add	r3, sl
10002de2:	2262      	movs	r2, #98	; 0x62
10002de4:	701a      	strb	r2, [r3, #0]
10002de6:	e77f      	b.n	10002ce8 <_ntoa_format+0xd0>

10002de8 <_out_char>:
10002de8:	b510      	push	{r4, lr}
10002dea:	2800      	cmp	r0, #0
10002dec:	d100      	bne.n	10002df0 <_out_char+0x8>
10002dee:	bd10      	pop	{r4, pc}
10002df0:	f002 f9ea 	bl	100051c8 <__wrap_putchar>
10002df4:	e7fb      	b.n	10002dee <_out_char+0x6>
10002df6:	46c0      	nop			; (mov r8, r8)

10002df8 <_out_fct>:
10002df8:	000b      	movs	r3, r1
10002dfa:	b510      	push	{r4, lr}
10002dfc:	2800      	cmp	r0, #0
10002dfe:	d002      	beq.n	10002e06 <_out_fct+0xe>
10002e00:	6849      	ldr	r1, [r1, #4]
10002e02:	681b      	ldr	r3, [r3, #0]
10002e04:	4798      	blx	r3
10002e06:	bd10      	pop	{r4, pc}

10002e08 <_etoa>:
10002e08:	b5f0      	push	{r4, r5, r6, r7, lr}
10002e0a:	46de      	mov	lr, fp
10002e0c:	4657      	mov	r7, sl
10002e0e:	464e      	mov	r6, r9
10002e10:	4645      	mov	r5, r8
10002e12:	b5e0      	push	{r5, r6, r7, lr}
10002e14:	b09b      	sub	sp, #108	; 0x6c
10002e16:	469a      	mov	sl, r3
10002e18:	9b24      	ldr	r3, [sp, #144]	; 0x90
10002e1a:	468b      	mov	fp, r1
10002e1c:	4699      	mov	r9, r3
10002e1e:	9b25      	ldr	r3, [sp, #148]	; 0x94
10002e20:	900b      	str	r0, [sp, #44]	; 0x2c
10002e22:	4698      	mov	r8, r3
10002e24:	920c      	str	r2, [sp, #48]	; 0x30
10002e26:	4643      	mov	r3, r8
10002e28:	464a      	mov	r2, r9
10002e2a:	4648      	mov	r0, r9
10002e2c:	4641      	mov	r1, r8
10002e2e:	f001 fccc 	bl	100047ca <__wrap___aeabi_dcmpun>
10002e32:	2800      	cmp	r0, #0
10002e34:	d000      	beq.n	10002e38 <_etoa+0x30>
10002e36:	e1a3      	b.n	10003180 <_etoa+0x378>
10002e38:	2201      	movs	r2, #1
10002e3a:	4648      	mov	r0, r9
10002e3c:	4641      	mov	r1, r8
10002e3e:	4be2      	ldr	r3, [pc, #904]	; (100031c8 <_etoa+0x3c0>)
10002e40:	4252      	negs	r2, r2
10002e42:	f001 fcbd 	bl	100047c0 <__wrap___aeabi_dcmpgt>
10002e46:	2800      	cmp	r0, #0
10002e48:	d000      	beq.n	10002e4c <_etoa+0x44>
10002e4a:	e199      	b.n	10003180 <_etoa+0x378>
10002e4c:	2201      	movs	r2, #1
10002e4e:	4648      	mov	r0, r9
10002e50:	4641      	mov	r1, r8
10002e52:	4bde      	ldr	r3, [pc, #888]	; (100031cc <_etoa+0x3c4>)
10002e54:	4252      	negs	r2, r2
10002e56:	f001 fc9d 	bl	10004794 <__wrap___aeabi_dcmplt>
10002e5a:	2800      	cmp	r0, #0
10002e5c:	d000      	beq.n	10002e60 <_etoa+0x58>
10002e5e:	e18f      	b.n	10003180 <_etoa+0x378>
10002e60:	2200      	movs	r2, #0
10002e62:	2300      	movs	r3, #0
10002e64:	4648      	mov	r0, r9
10002e66:	4641      	mov	r1, r8
10002e68:	f001 fc94 	bl	10004794 <__wrap___aeabi_dcmplt>
10002e6c:	2800      	cmp	r0, #0
10002e6e:	d000      	beq.n	10002e72 <_etoa+0x6a>
10002e70:	e1de      	b.n	10003230 <_etoa+0x428>
10002e72:	464a      	mov	r2, r9
10002e74:	4643      	mov	r3, r8
10002e76:	920a      	str	r2, [sp, #40]	; 0x28
10002e78:	9309      	str	r3, [sp, #36]	; 0x24
10002e7a:	2380      	movs	r3, #128	; 0x80
10002e7c:	9a28      	ldr	r2, [sp, #160]	; 0xa0
10002e7e:	00db      	lsls	r3, r3, #3
10002e80:	401a      	ands	r2, r3
10002e82:	9211      	str	r2, [sp, #68]	; 0x44
10002e84:	9a28      	ldr	r2, [sp, #160]	; 0xa0
10002e86:	421a      	tst	r2, r3
10002e88:	d101      	bne.n	10002e8e <_etoa+0x86>
10002e8a:	2306      	movs	r3, #6
10002e8c:	9326      	str	r3, [sp, #152]	; 0x98
10002e8e:	4bd0      	ldr	r3, [pc, #832]	; (100031d0 <_etoa+0x3c8>)
10002e90:	9f09      	ldr	r7, [sp, #36]	; 0x24
10002e92:	469c      	mov	ip, r3
10002e94:	0078      	lsls	r0, r7, #1
10002e96:	0d40      	lsrs	r0, r0, #21
10002e98:	4460      	add	r0, ip
10002e9a:	f001 fca9 	bl	100047f0 <__wrap___aeabi_i2d>
10002e9e:	4acd      	ldr	r2, [pc, #820]	; (100031d4 <_etoa+0x3cc>)
10002ea0:	4bcd      	ldr	r3, [pc, #820]	; (100031d8 <_etoa+0x3d0>)
10002ea2:	f001 fc35 	bl	10004710 <__wrap___aeabi_dmul>
10002ea6:	4acd      	ldr	r2, [pc, #820]	; (100031dc <_etoa+0x3d4>)
10002ea8:	4bcd      	ldr	r3, [pc, #820]	; (100031e0 <_etoa+0x3d8>)
10002eaa:	f001 fc1f 	bl	100046ec <__wrap___aeabi_dadd>
10002eae:	033b      	lsls	r3, r7, #12
10002eb0:	4acc      	ldr	r2, [pc, #816]	; (100031e4 <_etoa+0x3dc>)
10002eb2:	9e0a      	ldr	r6, [sp, #40]	; 0x28
10002eb4:	0b1b      	lsrs	r3, r3, #12
10002eb6:	431a      	orrs	r2, r3
10002eb8:	0004      	movs	r4, r0
10002eba:	000d      	movs	r5, r1
10002ebc:	0030      	movs	r0, r6
10002ebe:	0011      	movs	r1, r2
10002ec0:	4bc9      	ldr	r3, [pc, #804]	; (100031e8 <_etoa+0x3e0>)
10002ec2:	2200      	movs	r2, #0
10002ec4:	9709      	str	r7, [sp, #36]	; 0x24
10002ec6:	f001 fc08 	bl	100046da <__wrap___aeabi_dsub>
10002eca:	4ac8      	ldr	r2, [pc, #800]	; (100031ec <_etoa+0x3e4>)
10002ecc:	4bc8      	ldr	r3, [pc, #800]	; (100031f0 <_etoa+0x3e8>)
10002ece:	f001 fc1f 	bl	10004710 <__wrap___aeabi_dmul>
10002ed2:	0002      	movs	r2, r0
10002ed4:	000b      	movs	r3, r1
10002ed6:	0020      	movs	r0, r4
10002ed8:	0029      	movs	r1, r5
10002eda:	f001 fc07 	bl	100046ec <__wrap___aeabi_dadd>
10002ede:	f001 fc9f 	bl	10004820 <__wrap___aeabi_d2iz>
10002ee2:	900d      	str	r0, [sp, #52]	; 0x34
10002ee4:	f001 fc84 	bl	100047f0 <__wrap___aeabi_i2d>
10002ee8:	4ac2      	ldr	r2, [pc, #776]	; (100031f4 <_etoa+0x3ec>)
10002eea:	4bc3      	ldr	r3, [pc, #780]	; (100031f8 <_etoa+0x3f0>)
10002eec:	0004      	movs	r4, r0
10002eee:	000d      	movs	r5, r1
10002ef0:	f001 fc0e 	bl	10004710 <__wrap___aeabi_dmul>
10002ef4:	2200      	movs	r2, #0
10002ef6:	4bc1      	ldr	r3, [pc, #772]	; (100031fc <_etoa+0x3f4>)
10002ef8:	f001 fbf8 	bl	100046ec <__wrap___aeabi_dadd>
10002efc:	f001 fc90 	bl	10004820 <__wrap___aeabi_d2iz>
10002f00:	4abf      	ldr	r2, [pc, #764]	; (10003200 <_etoa+0x3f8>)
10002f02:	0006      	movs	r6, r0
10002f04:	4bbf      	ldr	r3, [pc, #764]	; (10003204 <_etoa+0x3fc>)
10002f06:	0020      	movs	r0, r4
10002f08:	0029      	movs	r1, r5
10002f0a:	f001 fc01 	bl	10004710 <__wrap___aeabi_dmul>
10002f0e:	0004      	movs	r4, r0
10002f10:	0030      	movs	r0, r6
10002f12:	000d      	movs	r5, r1
10002f14:	9610      	str	r6, [sp, #64]	; 0x40
10002f16:	f001 fc6b 	bl	100047f0 <__wrap___aeabi_i2d>
10002f1a:	4abb      	ldr	r2, [pc, #748]	; (10003208 <_etoa+0x400>)
10002f1c:	4bbb      	ldr	r3, [pc, #748]	; (1000320c <_etoa+0x404>)
10002f1e:	f001 fbf7 	bl	10004710 <__wrap___aeabi_dmul>
10002f22:	0002      	movs	r2, r0
10002f24:	000b      	movs	r3, r1
10002f26:	0020      	movs	r0, r4
10002f28:	0029      	movs	r1, r5
10002f2a:	f001 fbd6 	bl	100046da <__wrap___aeabi_dsub>
10002f2e:	0002      	movs	r2, r0
10002f30:	000b      	movs	r3, r1
10002f32:	0006      	movs	r6, r0
10002f34:	000f      	movs	r7, r1
10002f36:	f001 fbeb 	bl	10004710 <__wrap___aeabi_dmul>
10002f3a:	0032      	movs	r2, r6
10002f3c:	0004      	movs	r4, r0
10002f3e:	000d      	movs	r5, r1
10002f40:	003b      	movs	r3, r7
10002f42:	0030      	movs	r0, r6
10002f44:	0039      	movs	r1, r7
10002f46:	f001 fbd1 	bl	100046ec <__wrap___aeabi_dadd>
10002f4a:	2200      	movs	r2, #0
10002f4c:	900e      	str	r0, [sp, #56]	; 0x38
10002f4e:	910f      	str	r1, [sp, #60]	; 0x3c
10002f50:	4baf      	ldr	r3, [pc, #700]	; (10003210 <_etoa+0x408>)
10002f52:	0020      	movs	r0, r4
10002f54:	0029      	movs	r1, r5
10002f56:	f001 fbd2 	bl	100046fe <__wrap___aeabi_ddiv>
10002f5a:	2200      	movs	r2, #0
10002f5c:	4bad      	ldr	r3, [pc, #692]	; (10003214 <_etoa+0x40c>)
10002f5e:	f001 fbc5 	bl	100046ec <__wrap___aeabi_dadd>
10002f62:	0002      	movs	r2, r0
10002f64:	000b      	movs	r3, r1
10002f66:	0020      	movs	r0, r4
10002f68:	0029      	movs	r1, r5
10002f6a:	f001 fbc8 	bl	100046fe <__wrap___aeabi_ddiv>
10002f6e:	2200      	movs	r2, #0
10002f70:	4ba9      	ldr	r3, [pc, #676]	; (10003218 <_etoa+0x410>)
10002f72:	f001 fbbb 	bl	100046ec <__wrap___aeabi_dadd>
10002f76:	0002      	movs	r2, r0
10002f78:	000b      	movs	r3, r1
10002f7a:	0020      	movs	r0, r4
10002f7c:	0029      	movs	r1, r5
10002f7e:	f001 fbbe 	bl	100046fe <__wrap___aeabi_ddiv>
10002f82:	000d      	movs	r5, r1
10002f84:	2180      	movs	r1, #128	; 0x80
10002f86:	0004      	movs	r4, r0
10002f88:	0032      	movs	r2, r6
10002f8a:	003b      	movs	r3, r7
10002f8c:	2000      	movs	r0, #0
10002f8e:	05c9      	lsls	r1, r1, #23
10002f90:	f001 fba3 	bl	100046da <__wrap___aeabi_dsub>
10002f94:	0002      	movs	r2, r0
10002f96:	000b      	movs	r3, r1
10002f98:	0020      	movs	r0, r4
10002f9a:	0029      	movs	r1, r5
10002f9c:	f001 fba6 	bl	100046ec <__wrap___aeabi_dadd>
10002fa0:	0002      	movs	r2, r0
10002fa2:	000b      	movs	r3, r1
10002fa4:	980e      	ldr	r0, [sp, #56]	; 0x38
10002fa6:	990f      	ldr	r1, [sp, #60]	; 0x3c
10002fa8:	f001 fba9 	bl	100046fe <__wrap___aeabi_ddiv>
10002fac:	2200      	movs	r2, #0
10002fae:	4b8d      	ldr	r3, [pc, #564]	; (100031e4 <_etoa+0x3dc>)
10002fb0:	f001 fb9c 	bl	100046ec <__wrap___aeabi_dadd>
10002fb4:	9b10      	ldr	r3, [sp, #64]	; 0x40
10002fb6:	4a99      	ldr	r2, [pc, #612]	; (1000321c <_etoa+0x414>)
10002fb8:	001c      	movs	r4, r3
10002fba:	4694      	mov	ip, r2
10002fbc:	4464      	add	r4, ip
10002fbe:	2200      	movs	r2, #0
10002fc0:	0523      	lsls	r3, r4, #20
10002fc2:	f001 fba5 	bl	10004710 <__wrap___aeabi_dmul>
10002fc6:	0006      	movs	r6, r0
10002fc8:	000f      	movs	r7, r1
10002fca:	0002      	movs	r2, r0
10002fcc:	000b      	movs	r3, r1
10002fce:	980a      	ldr	r0, [sp, #40]	; 0x28
10002fd0:	9909      	ldr	r1, [sp, #36]	; 0x24
10002fd2:	f001 fbdf 	bl	10004794 <__wrap___aeabi_dcmplt>
10002fd6:	2800      	cmp	r0, #0
10002fd8:	d00a      	beq.n	10002ff0 <_etoa+0x1e8>
10002fda:	9b0d      	ldr	r3, [sp, #52]	; 0x34
10002fdc:	0030      	movs	r0, r6
10002fde:	3b01      	subs	r3, #1
10002fe0:	0039      	movs	r1, r7
10002fe2:	930d      	str	r3, [sp, #52]	; 0x34
10002fe4:	2200      	movs	r2, #0
10002fe6:	4b8b      	ldr	r3, [pc, #556]	; (10003214 <_etoa+0x40c>)
10002fe8:	f001 fb89 	bl	100046fe <__wrap___aeabi_ddiv>
10002fec:	0006      	movs	r6, r0
10002fee:	000f      	movs	r7, r1
10002ff0:	9d0d      	ldr	r5, [sp, #52]	; 0x34
10002ff2:	24c6      	movs	r4, #198	; 0xc6
10002ff4:	002b      	movs	r3, r5
10002ff6:	3363      	adds	r3, #99	; 0x63
10002ff8:	429c      	cmp	r4, r3
10002ffa:	41a4      	sbcs	r4, r4
10002ffc:	9b28      	ldr	r3, [sp, #160]	; 0xa0
10002ffe:	4264      	negs	r4, r4
10003000:	3404      	adds	r4, #4
10003002:	051b      	lsls	r3, r3, #20
10003004:	d51f      	bpl.n	10003046 <_etoa+0x23e>
10003006:	4a86      	ldr	r2, [pc, #536]	; (10003220 <_etoa+0x418>)
10003008:	4b86      	ldr	r3, [pc, #536]	; (10003224 <_etoa+0x41c>)
1000300a:	980a      	ldr	r0, [sp, #40]	; 0x28
1000300c:	9909      	ldr	r1, [sp, #36]	; 0x24
1000300e:	f001 fbcf 	bl	100047b0 <__wrap___aeabi_dcmpge>
10003012:	2800      	cmp	r0, #0
10003014:	d100      	bne.n	10003018 <_etoa+0x210>
10003016:	e0cc      	b.n	100031b2 <_etoa+0x3aa>
10003018:	2200      	movs	r2, #0
1000301a:	4b83      	ldr	r3, [pc, #524]	; (10003228 <_etoa+0x420>)
1000301c:	980a      	ldr	r0, [sp, #40]	; 0x28
1000301e:	9909      	ldr	r1, [sp, #36]	; 0x24
10003020:	f001 fbb8 	bl	10004794 <__wrap___aeabi_dcmplt>
10003024:	2800      	cmp	r0, #0
10003026:	d100      	bne.n	1000302a <_etoa+0x222>
10003028:	e0c3      	b.n	100031b2 <_etoa+0x3aa>
1000302a:	9a26      	ldr	r2, [sp, #152]	; 0x98
1000302c:	4295      	cmp	r5, r2
1000302e:	da00      	bge.n	10003032 <_etoa+0x22a>
10003030:	e10b      	b.n	1000324a <_etoa+0x442>
10003032:	2300      	movs	r3, #0
10003034:	9326      	str	r3, [sp, #152]	; 0x98
10003036:	2380      	movs	r3, #128	; 0x80
10003038:	9a28      	ldr	r2, [sp, #160]	; 0xa0
1000303a:	00db      	lsls	r3, r3, #3
1000303c:	431a      	orrs	r2, r3
1000303e:	2300      	movs	r3, #0
10003040:	2400      	movs	r4, #0
10003042:	9228      	str	r2, [sp, #160]	; 0xa0
10003044:	930d      	str	r3, [sp, #52]	; 0x34
10003046:	9b27      	ldr	r3, [sp, #156]	; 0x9c
10003048:	2500      	movs	r5, #0
1000304a:	42a3      	cmp	r3, r4
1000304c:	d900      	bls.n	10003050 <_etoa+0x248>
1000304e:	1b1d      	subs	r5, r3, r4
10003050:	2302      	movs	r3, #2
10003052:	9a28      	ldr	r2, [sp, #160]	; 0xa0
10003054:	401a      	ands	r2, r3
10003056:	9210      	str	r2, [sp, #64]	; 0x40
10003058:	9a28      	ldr	r2, [sp, #160]	; 0xa0
1000305a:	4213      	tst	r3, r2
1000305c:	d003      	beq.n	10003066 <_etoa+0x25e>
1000305e:	4263      	negs	r3, r4
10003060:	4163      	adcs	r3, r4
10003062:	425b      	negs	r3, r3
10003064:	401d      	ands	r5, r3
10003066:	9b0d      	ldr	r3, [sp, #52]	; 0x34
10003068:	2b00      	cmp	r3, #0
1000306a:	d007      	beq.n	1000307c <_etoa+0x274>
1000306c:	980a      	ldr	r0, [sp, #40]	; 0x28
1000306e:	9909      	ldr	r1, [sp, #36]	; 0x24
10003070:	0032      	movs	r2, r6
10003072:	003b      	movs	r3, r7
10003074:	f001 fb43 	bl	100046fe <__wrap___aeabi_ddiv>
10003078:	900a      	str	r0, [sp, #40]	; 0x28
1000307a:	9109      	str	r1, [sp, #36]	; 0x24
1000307c:	2200      	movs	r2, #0
1000307e:	2300      	movs	r3, #0
10003080:	4648      	mov	r0, r9
10003082:	4641      	mov	r1, r8
10003084:	f001 fb86 	bl	10004794 <__wrap___aeabi_dcmplt>
10003088:	2800      	cmp	r0, #0
1000308a:	d005      	beq.n	10003098 <_etoa+0x290>
1000308c:	2080      	movs	r0, #128	; 0x80
1000308e:	0600      	lsls	r0, r0, #24
10003090:	4684      	mov	ip, r0
10003092:	9909      	ldr	r1, [sp, #36]	; 0x24
10003094:	4461      	add	r1, ip
10003096:	9109      	str	r1, [sp, #36]	; 0x24
10003098:	9a28      	ldr	r2, [sp, #160]	; 0xa0
1000309a:	4b64      	ldr	r3, [pc, #400]	; (1000322c <_etoa+0x424>)
1000309c:	9e0b      	ldr	r6, [sp, #44]	; 0x2c
1000309e:	4013      	ands	r3, r2
100030a0:	9304      	str	r3, [sp, #16]
100030a2:	9b26      	ldr	r3, [sp, #152]	; 0x98
100030a4:	9a0a      	ldr	r2, [sp, #40]	; 0x28
100030a6:	9302      	str	r3, [sp, #8]
100030a8:	9b09      	ldr	r3, [sp, #36]	; 0x24
100030aa:	9503      	str	r5, [sp, #12]
100030ac:	9200      	str	r2, [sp, #0]
100030ae:	9301      	str	r3, [sp, #4]
100030b0:	4659      	mov	r1, fp
100030b2:	4653      	mov	r3, sl
100030b4:	0030      	movs	r0, r6
100030b6:	9a0c      	ldr	r2, [sp, #48]	; 0x30
100030b8:	f000 f8cc 	bl	10003254 <_ftoa>
100030bc:	0005      	movs	r5, r0
100030be:	2c00      	cmp	r4, #0
100030c0:	d06f      	beq.n	100031a2 <_etoa+0x39a>
100030c2:	9b28      	ldr	r3, [sp, #160]	; 0xa0
100030c4:	002a      	movs	r2, r5
100030c6:	0698      	lsls	r0, r3, #26
100030c8:	231f      	movs	r3, #31
100030ca:	17c0      	asrs	r0, r0, #31
100030cc:	4398      	bics	r0, r3
100030ce:	1c6b      	adds	r3, r5, #1
100030d0:	4698      	mov	r8, r3
100030d2:	4659      	mov	r1, fp
100030d4:	4653      	mov	r3, sl
100030d6:	3065      	adds	r0, #101	; 0x65
100030d8:	47b0      	blx	r6
100030da:	9b0d      	ldr	r3, [sp, #52]	; 0x34
100030dc:	2600      	movs	r6, #0
100030de:	17da      	asrs	r2, r3, #31
100030e0:	189d      	adds	r5, r3, r2
100030e2:	0fdb      	lsrs	r3, r3, #31
100030e4:	4699      	mov	r9, r3
100030e6:	4055      	eors	r5, r2
100030e8:	3c01      	subs	r4, #1
100030ea:	e001      	b.n	100030f0 <_etoa+0x2e8>
100030ec:	2e20      	cmp	r6, #32
100030ee:	d013      	beq.n	10003118 <_etoa+0x310>
100030f0:	aa0a      	add	r2, sp, #40	; 0x28
100030f2:	4694      	mov	ip, r2
100030f4:	231f      	movs	r3, #31
100030f6:	0028      	movs	r0, r5
100030f8:	4463      	add	r3, ip
100030fa:	210a      	movs	r1, #10
100030fc:	3601      	adds	r6, #1
100030fe:	199f      	adds	r7, r3, r6
10003100:	f001 f8a6 	bl	10004250 <__wrap___aeabi_uidiv>
10003104:	3130      	adds	r1, #48	; 0x30
10003106:	7039      	strb	r1, [r7, #0]
10003108:	0028      	movs	r0, r5
1000310a:	210a      	movs	r1, #10
1000310c:	f001 f8a0 	bl	10004250 <__wrap___aeabi_uidiv>
10003110:	002f      	movs	r7, r5
10003112:	0005      	movs	r5, r0
10003114:	2f09      	cmp	r7, #9
10003116:	d8e9      	bhi.n	100030ec <_etoa+0x2e4>
10003118:	2305      	movs	r3, #5
1000311a:	9306      	str	r3, [sp, #24]
1000311c:	2300      	movs	r3, #0
1000311e:	9304      	str	r3, [sp, #16]
10003120:	330a      	adds	r3, #10
10003122:	9303      	str	r3, [sp, #12]
10003124:	464b      	mov	r3, r9
10003126:	9601      	str	r6, [sp, #4]
10003128:	9e0b      	ldr	r6, [sp, #44]	; 0x2c
1000312a:	9302      	str	r3, [sp, #8]
1000312c:	ab12      	add	r3, sp, #72	; 0x48
1000312e:	9300      	str	r3, [sp, #0]
10003130:	4642      	mov	r2, r8
10003132:	4653      	mov	r3, sl
10003134:	4659      	mov	r1, fp
10003136:	0030      	movs	r0, r6
10003138:	9405      	str	r4, [sp, #20]
1000313a:	f7ff fd6d 	bl	10002c18 <_ntoa_format>
1000313e:	9b10      	ldr	r3, [sp, #64]	; 0x40
10003140:	0005      	movs	r5, r0
10003142:	2b00      	cmp	r3, #0
10003144:	d02d      	beq.n	100031a2 <_etoa+0x39a>
10003146:	9b0c      	ldr	r3, [sp, #48]	; 0x30
10003148:	9a27      	ldr	r2, [sp, #156]	; 0x9c
1000314a:	1ac4      	subs	r4, r0, r3
1000314c:	42a2      	cmp	r2, r4
1000314e:	d928      	bls.n	100031a2 <_etoa+0x39a>
10003150:	4681      	mov	r9, r0
10003152:	465d      	mov	r5, fp
10003154:	4698      	mov	r8, r3
10003156:	0017      	movs	r7, r2
10003158:	4643      	mov	r3, r8
1000315a:	0029      	movs	r1, r5
1000315c:	191a      	adds	r2, r3, r4
1000315e:	2020      	movs	r0, #32
10003160:	4653      	mov	r3, sl
10003162:	3401      	adds	r4, #1
10003164:	47b0      	blx	r6
10003166:	42a7      	cmp	r7, r4
10003168:	d8f6      	bhi.n	10003158 <_etoa+0x350>
1000316a:	464d      	mov	r5, r9
1000316c:	990c      	ldr	r1, [sp, #48]	; 0x30
1000316e:	9827      	ldr	r0, [sp, #156]	; 0x9c
10003170:	1a6b      	subs	r3, r5, r1
10003172:	3301      	adds	r3, #1
10003174:	2200      	movs	r2, #0
10003176:	4298      	cmp	r0, r3
10003178:	d261      	bcs.n	1000323e <_etoa+0x436>
1000317a:	3501      	adds	r5, #1
1000317c:	1955      	adds	r5, r2, r5
1000317e:	e010      	b.n	100031a2 <_etoa+0x39a>
10003180:	9b28      	ldr	r3, [sp, #160]	; 0xa0
10003182:	464a      	mov	r2, r9
10003184:	9304      	str	r3, [sp, #16]
10003186:	9b27      	ldr	r3, [sp, #156]	; 0x9c
10003188:	4659      	mov	r1, fp
1000318a:	9303      	str	r3, [sp, #12]
1000318c:	9b26      	ldr	r3, [sp, #152]	; 0x98
1000318e:	980b      	ldr	r0, [sp, #44]	; 0x2c
10003190:	9302      	str	r3, [sp, #8]
10003192:	4643      	mov	r3, r8
10003194:	9200      	str	r2, [sp, #0]
10003196:	9301      	str	r3, [sp, #4]
10003198:	4653      	mov	r3, sl
1000319a:	9a0c      	ldr	r2, [sp, #48]	; 0x30
1000319c:	f000 f85a 	bl	10003254 <_ftoa>
100031a0:	0005      	movs	r5, r0
100031a2:	0028      	movs	r0, r5
100031a4:	b01b      	add	sp, #108	; 0x6c
100031a6:	bc3c      	pop	{r2, r3, r4, r5}
100031a8:	4690      	mov	r8, r2
100031aa:	4699      	mov	r9, r3
100031ac:	46a2      	mov	sl, r4
100031ae:	46ab      	mov	fp, r5
100031b0:	bdf0      	pop	{r4, r5, r6, r7, pc}
100031b2:	9b26      	ldr	r3, [sp, #152]	; 0x98
100031b4:	2b00      	cmp	r3, #0
100031b6:	d100      	bne.n	100031ba <_etoa+0x3b2>
100031b8:	e745      	b.n	10003046 <_etoa+0x23e>
100031ba:	9b11      	ldr	r3, [sp, #68]	; 0x44
100031bc:	1e5a      	subs	r2, r3, #1
100031be:	4193      	sbcs	r3, r2
100031c0:	9a26      	ldr	r2, [sp, #152]	; 0x98
100031c2:	1ad3      	subs	r3, r2, r3
100031c4:	9326      	str	r3, [sp, #152]	; 0x98
100031c6:	e73e      	b.n	10003046 <_etoa+0x23e>
100031c8:	7fefffff 	.word	0x7fefffff
100031cc:	ffefffff 	.word	0xffefffff
100031d0:	fffffc01 	.word	0xfffffc01
100031d4:	509f79fb 	.word	0x509f79fb
100031d8:	3fd34413 	.word	0x3fd34413
100031dc:	8b60c8b3 	.word	0x8b60c8b3
100031e0:	3fc68a28 	.word	0x3fc68a28
100031e4:	3ff00000 	.word	0x3ff00000
100031e8:	3ff80000 	.word	0x3ff80000
100031ec:	636f4361 	.word	0x636f4361
100031f0:	3fd287a7 	.word	0x3fd287a7
100031f4:	0979a371 	.word	0x0979a371
100031f8:	400a934f 	.word	0x400a934f
100031fc:	3fe00000 	.word	0x3fe00000
10003200:	bbb55516 	.word	0xbbb55516
10003204:	40026bb1 	.word	0x40026bb1
10003208:	fefa39ef 	.word	0xfefa39ef
1000320c:	3fe62e42 	.word	0x3fe62e42
10003210:	402c0000 	.word	0x402c0000
10003214:	40240000 	.word	0x40240000
10003218:	40180000 	.word	0x40180000
1000321c:	000003ff 	.word	0x000003ff
10003220:	eb1c432d 	.word	0xeb1c432d
10003224:	3f1a36e2 	.word	0x3f1a36e2
10003228:	412e8480 	.word	0x412e8480
1000322c:	fffff7ff 	.word	0xfffff7ff
10003230:	464b      	mov	r3, r9
10003232:	930a      	str	r3, [sp, #40]	; 0x28
10003234:	2380      	movs	r3, #128	; 0x80
10003236:	061b      	lsls	r3, r3, #24
10003238:	4443      	add	r3, r8
1000323a:	9309      	str	r3, [sp, #36]	; 0x24
1000323c:	e61d      	b.n	10002e7a <_etoa+0x72>
1000323e:	000a      	movs	r2, r1
10003240:	4684      	mov	ip, r0
10003242:	3a01      	subs	r2, #1
10003244:	4462      	add	r2, ip
10003246:	1b52      	subs	r2, r2, r5
10003248:	e797      	b.n	1000317a <_etoa+0x372>
1000324a:	1b50      	subs	r0, r2, r5
1000324c:	1e43      	subs	r3, r0, #1
1000324e:	9326      	str	r3, [sp, #152]	; 0x98
10003250:	e6f1      	b.n	10003036 <_etoa+0x22e>
10003252:	46c0      	nop			; (mov r8, r8)

10003254 <_ftoa>:
10003254:	b5f0      	push	{r4, r5, r6, r7, lr}
10003256:	464e      	mov	r6, r9
10003258:	46de      	mov	lr, fp
1000325a:	4657      	mov	r7, sl
1000325c:	4645      	mov	r5, r8
1000325e:	b5e0      	push	{r5, r6, r7, lr}
10003260:	b097      	sub	sp, #92	; 0x5c
10003262:	4699      	mov	r9, r3
10003264:	9e20      	ldr	r6, [sp, #128]	; 0x80
10003266:	9f21      	ldr	r7, [sp, #132]	; 0x84
10003268:	9b22      	ldr	r3, [sp, #136]	; 0x88
1000326a:	4683      	mov	fp, r0
1000326c:	4698      	mov	r8, r3
1000326e:	9107      	str	r1, [sp, #28]
10003270:	920c      	str	r2, [sp, #48]	; 0x30
10003272:	003b      	movs	r3, r7
10003274:	0032      	movs	r2, r6
10003276:	0030      	movs	r0, r6
10003278:	0039      	movs	r1, r7
1000327a:	f001 faa6 	bl	100047ca <__wrap___aeabi_dcmpun>
1000327e:	2800      	cmp	r0, #0
10003280:	d000      	beq.n	10003284 <_ftoa+0x30>
10003282:	e1c1      	b.n	10003608 <_ftoa+0x3b4>
10003284:	2201      	movs	r2, #1
10003286:	0030      	movs	r0, r6
10003288:	0039      	movs	r1, r7
1000328a:	4bca      	ldr	r3, [pc, #808]	; (100035b4 <_ftoa+0x360>)
1000328c:	4252      	negs	r2, r2
1000328e:	f001 fa81 	bl	10004794 <__wrap___aeabi_dcmplt>
10003292:	2800      	cmp	r0, #0
10003294:	d000      	beq.n	10003298 <_ftoa+0x44>
10003296:	e0e0      	b.n	1000345a <_ftoa+0x206>
10003298:	2201      	movs	r2, #1
1000329a:	0030      	movs	r0, r6
1000329c:	0039      	movs	r1, r7
1000329e:	4bc6      	ldr	r3, [pc, #792]	; (100035b8 <_ftoa+0x364>)
100032a0:	4252      	negs	r2, r2
100032a2:	f001 fa8d 	bl	100047c0 <__wrap___aeabi_dcmpgt>
100032a6:	2800      	cmp	r0, #0
100032a8:	d000      	beq.n	100032ac <_ftoa+0x58>
100032aa:	e0b6      	b.n	1000341a <_ftoa+0x1c6>
100032ac:	2200      	movs	r2, #0
100032ae:	0030      	movs	r0, r6
100032b0:	0039      	movs	r1, r7
100032b2:	4bc2      	ldr	r3, [pc, #776]	; (100035bc <_ftoa+0x368>)
100032b4:	f001 fa84 	bl	100047c0 <__wrap___aeabi_dcmpgt>
100032b8:	2800      	cmp	r0, #0
100032ba:	d000      	beq.n	100032be <_ftoa+0x6a>
100032bc:	e098      	b.n	100033f0 <_ftoa+0x19c>
100032be:	2200      	movs	r2, #0
100032c0:	0030      	movs	r0, r6
100032c2:	0039      	movs	r1, r7
100032c4:	4bbe      	ldr	r3, [pc, #760]	; (100035c0 <_ftoa+0x36c>)
100032c6:	f001 fa65 	bl	10004794 <__wrap___aeabi_dcmplt>
100032ca:	2800      	cmp	r0, #0
100032cc:	d000      	beq.n	100032d0 <_ftoa+0x7c>
100032ce:	e08f      	b.n	100033f0 <_ftoa+0x19c>
100032d0:	2200      	movs	r2, #0
100032d2:	2300      	movs	r3, #0
100032d4:	0030      	movs	r0, r6
100032d6:	0039      	movs	r1, r7
100032d8:	f001 fa5c 	bl	10004794 <__wrap___aeabi_dcmplt>
100032dc:	2800      	cmp	r0, #0
100032de:	d000      	beq.n	100032e2 <_ftoa+0x8e>
100032e0:	e0b0      	b.n	10003444 <_ftoa+0x1f0>
100032e2:	2300      	movs	r3, #0
100032e4:	930d      	str	r3, [sp, #52]	; 0x34
100032e6:	9b24      	ldr	r3, [sp, #144]	; 0x90
100032e8:	055b      	lsls	r3, r3, #21
100032ea:	d401      	bmi.n	100032f0 <_ftoa+0x9c>
100032ec:	2306      	movs	r3, #6
100032ee:	4698      	mov	r8, r3
100032f0:	ab08      	add	r3, sp, #32
100032f2:	469c      	mov	ip, r3
100032f4:	2217      	movs	r2, #23
100032f6:	2400      	movs	r4, #0
100032f8:	2330      	movs	r3, #48	; 0x30
100032fa:	4641      	mov	r1, r8
100032fc:	4462      	add	r2, ip
100032fe:	e004      	b.n	1000330a <_ftoa+0xb6>
10003300:	3401      	adds	r4, #1
10003302:	5513      	strb	r3, [r2, r4]
10003304:	3901      	subs	r1, #1
10003306:	2c20      	cmp	r4, #32
10003308:	d001      	beq.n	1000330e <_ftoa+0xba>
1000330a:	2909      	cmp	r1, #9
1000330c:	d8f8      	bhi.n	10003300 <_ftoa+0xac>
1000330e:	4688      	mov	r8, r1
10003310:	0030      	movs	r0, r6
10003312:	0039      	movs	r1, r7
10003314:	f001 fa84 	bl	10004820 <__wrap___aeabi_d2iz>
10003318:	4643      	mov	r3, r8
1000331a:	00da      	lsls	r2, r3, #3
1000331c:	4ba9      	ldr	r3, [pc, #676]	; (100035c4 <_ftoa+0x370>)
1000331e:	0005      	movs	r5, r0
10003320:	189b      	adds	r3, r3, r2
10003322:	681a      	ldr	r2, [r3, #0]
10003324:	685b      	ldr	r3, [r3, #4]
10003326:	9208      	str	r2, [sp, #32]
10003328:	9309      	str	r3, [sp, #36]	; 0x24
1000332a:	f001 fa61 	bl	100047f0 <__wrap___aeabi_i2d>
1000332e:	0002      	movs	r2, r0
10003330:	000b      	movs	r3, r1
10003332:	0030      	movs	r0, r6
10003334:	0039      	movs	r1, r7
10003336:	f001 f9d0 	bl	100046da <__wrap___aeabi_dsub>
1000333a:	9a08      	ldr	r2, [sp, #32]
1000333c:	9b09      	ldr	r3, [sp, #36]	; 0x24
1000333e:	f001 f9e7 	bl	10004710 <__wrap___aeabi_dmul>
10003342:	900a      	str	r0, [sp, #40]	; 0x28
10003344:	910b      	str	r1, [sp, #44]	; 0x2c
10003346:	f001 fa8f 	bl	10004868 <__wrap___aeabi_d2uiz>
1000334a:	4682      	mov	sl, r0
1000334c:	f001 fa4c 	bl	100047e8 <__wrap___aeabi_ui2d>
10003350:	0002      	movs	r2, r0
10003352:	000b      	movs	r3, r1
10003354:	980a      	ldr	r0, [sp, #40]	; 0x28
10003356:	990b      	ldr	r1, [sp, #44]	; 0x2c
10003358:	f001 f9bf 	bl	100046da <__wrap___aeabi_dsub>
1000335c:	2200      	movs	r2, #0
1000335e:	4b9a      	ldr	r3, [pc, #616]	; (100035c8 <_ftoa+0x374>)
10003360:	900a      	str	r0, [sp, #40]	; 0x28
10003362:	910b      	str	r1, [sp, #44]	; 0x2c
10003364:	f001 fa2c 	bl	100047c0 <__wrap___aeabi_dcmpgt>
10003368:	2800      	cmp	r0, #0
1000336a:	d100      	bne.n	1000336e <_ftoa+0x11a>
1000336c:	e0c0      	b.n	100034f0 <_ftoa+0x29c>
1000336e:	2301      	movs	r3, #1
10003370:	469c      	mov	ip, r3
10003372:	44e2      	add	sl, ip
10003374:	4650      	mov	r0, sl
10003376:	f001 fa37 	bl	100047e8 <__wrap___aeabi_ui2d>
1000337a:	0002      	movs	r2, r0
1000337c:	000b      	movs	r3, r1
1000337e:	9808      	ldr	r0, [sp, #32]
10003380:	9909      	ldr	r1, [sp, #36]	; 0x24
10003382:	f001 fa0d 	bl	100047a0 <__wrap___aeabi_dcmple>
10003386:	2800      	cmp	r0, #0
10003388:	d002      	beq.n	10003390 <_ftoa+0x13c>
1000338a:	2300      	movs	r3, #0
1000338c:	469a      	mov	sl, r3
1000338e:	3501      	adds	r5, #1
10003390:	4643      	mov	r3, r8
10003392:	2b00      	cmp	r3, #0
10003394:	d069      	beq.n	1000346a <_ftoa+0x216>
10003396:	ab08      	add	r3, sp, #32
10003398:	2617      	movs	r6, #23
1000339a:	469c      	mov	ip, r3
1000339c:	9508      	str	r5, [sp, #32]
1000339e:	4466      	add	r6, ip
100033a0:	4655      	mov	r5, sl
100033a2:	e014      	b.n	100033ce <_ftoa+0x17a>
100033a4:	2301      	movs	r3, #1
100033a6:	425b      	negs	r3, r3
100033a8:	4443      	add	r3, r8
100033aa:	210a      	movs	r1, #10
100033ac:	0028      	movs	r0, r5
100033ae:	469a      	mov	sl, r3
100033b0:	f000 ff4e 	bl	10004250 <__wrap___aeabi_uidiv>
100033b4:	3401      	adds	r4, #1
100033b6:	3130      	adds	r1, #48	; 0x30
100033b8:	1937      	adds	r7, r6, r4
100033ba:	7039      	strb	r1, [r7, #0]
100033bc:	0028      	movs	r0, r5
100033be:	210a      	movs	r1, #10
100033c0:	f000 ff46 	bl	10004250 <__wrap___aeabi_uidiv>
100033c4:	2d09      	cmp	r5, #9
100033c6:	d800      	bhi.n	100033ca <_ftoa+0x176>
100033c8:	e0d5      	b.n	10003576 <_ftoa+0x322>
100033ca:	46d0      	mov	r8, sl
100033cc:	0005      	movs	r5, r0
100033ce:	2c20      	cmp	r4, #32
100033d0:	d1e8      	bne.n	100033a4 <_ftoa+0x150>
100033d2:	2303      	movs	r3, #3
100033d4:	9a24      	ldr	r2, [sp, #144]	; 0x90
100033d6:	4013      	ands	r3, r2
100033d8:	2b01      	cmp	r3, #1
100033da:	d100      	bne.n	100033de <_ftoa+0x18a>
100033dc:	e100      	b.n	100035e0 <_ftoa+0x38c>
100033de:	ab0e      	add	r3, sp, #56	; 0x38
100033e0:	4698      	mov	r8, r3
100033e2:	9b24      	ldr	r3, [sp, #144]	; 0x90
100033e4:	9401      	str	r4, [sp, #4]
100033e6:	9303      	str	r3, [sp, #12]
100033e8:	9b23      	ldr	r3, [sp, #140]	; 0x8c
100033ea:	9302      	str	r3, [sp, #8]
100033ec:	4643      	mov	r3, r8
100033ee:	e01e      	b.n	1000342e <_ftoa+0x1da>
100033f0:	9b24      	ldr	r3, [sp, #144]	; 0x90
100033f2:	4658      	mov	r0, fp
100033f4:	9304      	str	r3, [sp, #16]
100033f6:	9b23      	ldr	r3, [sp, #140]	; 0x8c
100033f8:	9600      	str	r6, [sp, #0]
100033fa:	9701      	str	r7, [sp, #4]
100033fc:	9303      	str	r3, [sp, #12]
100033fe:	4643      	mov	r3, r8
10003400:	9a0c      	ldr	r2, [sp, #48]	; 0x30
10003402:	9302      	str	r3, [sp, #8]
10003404:	9907      	ldr	r1, [sp, #28]
10003406:	464b      	mov	r3, r9
10003408:	f7ff fcfe 	bl	10002e08 <_etoa>
1000340c:	b017      	add	sp, #92	; 0x5c
1000340e:	bc3c      	pop	{r2, r3, r4, r5}
10003410:	4690      	mov	r8, r2
10003412:	4699      	mov	r9, r3
10003414:	46a2      	mov	sl, r4
10003416:	46ab      	mov	fp, r5
10003418:	bdf0      	pop	{r4, r5, r6, r7, pc}
1000341a:	9b24      	ldr	r3, [sp, #144]	; 0x90
1000341c:	075b      	lsls	r3, r3, #29
1000341e:	d40e      	bmi.n	1000343e <_ftoa+0x1ea>
10003420:	2203      	movs	r2, #3
10003422:	4b6a      	ldr	r3, [pc, #424]	; (100035cc <_ftoa+0x378>)
10003424:	9924      	ldr	r1, [sp, #144]	; 0x90
10003426:	9201      	str	r2, [sp, #4]
10003428:	9103      	str	r1, [sp, #12]
1000342a:	9923      	ldr	r1, [sp, #140]	; 0x8c
1000342c:	9102      	str	r1, [sp, #8]
1000342e:	9300      	str	r3, [sp, #0]
10003430:	4658      	mov	r0, fp
10003432:	464b      	mov	r3, r9
10003434:	9a0c      	ldr	r2, [sp, #48]	; 0x30
10003436:	9907      	ldr	r1, [sp, #28]
10003438:	f7ff fb86 	bl	10002b48 <_out_rev>
1000343c:	e7e6      	b.n	1000340c <_ftoa+0x1b8>
1000343e:	2204      	movs	r2, #4
10003440:	4b63      	ldr	r3, [pc, #396]	; (100035d0 <_ftoa+0x37c>)
10003442:	e7ef      	b.n	10003424 <_ftoa+0x1d0>
10003444:	003b      	movs	r3, r7
10003446:	0032      	movs	r2, r6
10003448:	2000      	movs	r0, #0
1000344a:	2100      	movs	r1, #0
1000344c:	f001 f945 	bl	100046da <__wrap___aeabi_dsub>
10003450:	2301      	movs	r3, #1
10003452:	0006      	movs	r6, r0
10003454:	000f      	movs	r7, r1
10003456:	930d      	str	r3, [sp, #52]	; 0x34
10003458:	e745      	b.n	100032e6 <_ftoa+0x92>
1000345a:	9b24      	ldr	r3, [sp, #144]	; 0x90
1000345c:	9303      	str	r3, [sp, #12]
1000345e:	9b23      	ldr	r3, [sp, #140]	; 0x8c
10003460:	9302      	str	r3, [sp, #8]
10003462:	2304      	movs	r3, #4
10003464:	9301      	str	r3, [sp, #4]
10003466:	4b5b      	ldr	r3, [pc, #364]	; (100035d4 <_ftoa+0x380>)
10003468:	e7e1      	b.n	1000342e <_ftoa+0x1da>
1000346a:	0028      	movs	r0, r5
1000346c:	f001 f9c0 	bl	100047f0 <__wrap___aeabi_i2d>
10003470:	0002      	movs	r2, r0
10003472:	000b      	movs	r3, r1
10003474:	0030      	movs	r0, r6
10003476:	0039      	movs	r1, r7
10003478:	f001 f92f 	bl	100046da <__wrap___aeabi_dsub>
1000347c:	4b52      	ldr	r3, [pc, #328]	; (100035c8 <_ftoa+0x374>)
1000347e:	2200      	movs	r2, #0
10003480:	0006      	movs	r6, r0
10003482:	000f      	movs	r7, r1
10003484:	f001 f986 	bl	10004794 <__wrap___aeabi_dcmplt>
10003488:	ab0e      	add	r3, sp, #56	; 0x38
1000348a:	4698      	mov	r8, r3
1000348c:	2800      	cmp	r0, #0
1000348e:	d10a      	bne.n	100034a6 <_ftoa+0x252>
10003490:	2200      	movs	r2, #0
10003492:	0030      	movs	r0, r6
10003494:	0039      	movs	r1, r7
10003496:	4b4c      	ldr	r3, [pc, #304]	; (100035c8 <_ftoa+0x374>)
10003498:	f001 f992 	bl	100047c0 <__wrap___aeabi_dcmpgt>
1000349c:	2800      	cmp	r0, #0
1000349e:	d102      	bne.n	100034a6 <_ftoa+0x252>
100034a0:	07eb      	lsls	r3, r5, #31
100034a2:	d500      	bpl.n	100034a6 <_ftoa+0x252>
100034a4:	3501      	adds	r5, #1
100034a6:	2c20      	cmp	r4, #32
100034a8:	d032      	beq.n	10003510 <_ftoa+0x2bc>
100034aa:	aa08      	add	r2, sp, #32
100034ac:	4694      	mov	ip, r2
100034ae:	2317      	movs	r3, #23
100034b0:	0028      	movs	r0, r5
100034b2:	4463      	add	r3, ip
100034b4:	210a      	movs	r1, #10
100034b6:	3401      	adds	r4, #1
100034b8:	191e      	adds	r6, r3, r4
100034ba:	f000 fe9d 	bl	100041f8 <__wrap___aeabi_idiv>
100034be:	3130      	adds	r1, #48	; 0x30
100034c0:	0028      	movs	r0, r5
100034c2:	7031      	strb	r1, [r6, #0]
100034c4:	210a      	movs	r1, #10
100034c6:	f000 fe97 	bl	100041f8 <__wrap___aeabi_idiv>
100034ca:	1e05      	subs	r5, r0, #0
100034cc:	d1eb      	bne.n	100034a6 <_ftoa+0x252>
100034ce:	2303      	movs	r3, #3
100034d0:	9a24      	ldr	r2, [sp, #144]	; 0x90
100034d2:	4013      	ands	r3, r2
100034d4:	2b01      	cmp	r3, #1
100034d6:	d100      	bne.n	100034da <_ftoa+0x286>
100034d8:	e091      	b.n	100035fe <_ftoa+0x3aa>
100034da:	2c1f      	cmp	r4, #31
100034dc:	d900      	bls.n	100034e0 <_ftoa+0x28c>
100034de:	e780      	b.n	100033e2 <_ftoa+0x18e>
100034e0:	9b0d      	ldr	r3, [sp, #52]	; 0x34
100034e2:	2b00      	cmp	r3, #0
100034e4:	d03b      	beq.n	1000355e <_ftoa+0x30a>
100034e6:	232d      	movs	r3, #45	; 0x2d
100034e8:	4642      	mov	r2, r8
100034ea:	5513      	strb	r3, [r2, r4]
100034ec:	3401      	adds	r4, #1
100034ee:	e778      	b.n	100033e2 <_ftoa+0x18e>
100034f0:	2200      	movs	r2, #0
100034f2:	980a      	ldr	r0, [sp, #40]	; 0x28
100034f4:	990b      	ldr	r1, [sp, #44]	; 0x2c
100034f6:	4b34      	ldr	r3, [pc, #208]	; (100035c8 <_ftoa+0x374>)
100034f8:	f001 f94c 	bl	10004794 <__wrap___aeabi_dcmplt>
100034fc:	2800      	cmp	r0, #0
100034fe:	d000      	beq.n	10003502 <_ftoa+0x2ae>
10003500:	e746      	b.n	10003390 <_ftoa+0x13c>
10003502:	4653      	mov	r3, sl
10003504:	2b00      	cmp	r3, #0
10003506:	d167      	bne.n	100035d8 <_ftoa+0x384>
10003508:	2301      	movs	r3, #1
1000350a:	469c      	mov	ip, r3
1000350c:	44e2      	add	sl, ip
1000350e:	e73f      	b.n	10003390 <_ftoa+0x13c>
10003510:	2303      	movs	r3, #3
10003512:	9a24      	ldr	r2, [sp, #144]	; 0x90
10003514:	4013      	ands	r3, r2
10003516:	2b01      	cmp	r3, #1
10003518:	d000      	beq.n	1000351c <_ftoa+0x2c8>
1000351a:	e762      	b.n	100033e2 <_ftoa+0x18e>
1000351c:	9b23      	ldr	r3, [sp, #140]	; 0x8c
1000351e:	2b00      	cmp	r3, #0
10003520:	d100      	bne.n	10003524 <_ftoa+0x2d0>
10003522:	e75e      	b.n	100033e2 <_ftoa+0x18e>
10003524:	9b0d      	ldr	r3, [sp, #52]	; 0x34
10003526:	2b00      	cmp	r3, #0
10003528:	d103      	bne.n	10003532 <_ftoa+0x2de>
1000352a:	9a24      	ldr	r2, [sp, #144]	; 0x90
1000352c:	330c      	adds	r3, #12
1000352e:	4213      	tst	r3, r2
10003530:	d002      	beq.n	10003538 <_ftoa+0x2e4>
10003532:	9b23      	ldr	r3, [sp, #140]	; 0x8c
10003534:	3b01      	subs	r3, #1
10003536:	9323      	str	r3, [sp, #140]	; 0x8c
10003538:	9b23      	ldr	r3, [sp, #140]	; 0x8c
1000353a:	429c      	cmp	r4, r3
1000353c:	d2cd      	bcs.n	100034da <_ftoa+0x286>
1000353e:	ab08      	add	r3, sp, #32
10003540:	469c      	mov	ip, r3
10003542:	2217      	movs	r2, #23
10003544:	2330      	movs	r3, #48	; 0x30
10003546:	4462      	add	r2, ip
10003548:	2c1f      	cmp	r4, #31
1000354a:	d806      	bhi.n	1000355a <_ftoa+0x306>
1000354c:	9923      	ldr	r1, [sp, #140]	; 0x8c
1000354e:	3401      	adds	r4, #1
10003550:	5513      	strb	r3, [r2, r4]
10003552:	428c      	cmp	r4, r1
10003554:	d0c1      	beq.n	100034da <_ftoa+0x286>
10003556:	2c20      	cmp	r4, #32
10003558:	d1f8      	bne.n	1000354c <_ftoa+0x2f8>
1000355a:	2420      	movs	r4, #32
1000355c:	e741      	b.n	100033e2 <_ftoa+0x18e>
1000355e:	9b24      	ldr	r3, [sp, #144]	; 0x90
10003560:	075b      	lsls	r3, r3, #29
10003562:	d421      	bmi.n	100035a8 <_ftoa+0x354>
10003564:	9b24      	ldr	r3, [sp, #144]	; 0x90
10003566:	071b      	lsls	r3, r3, #28
10003568:	d400      	bmi.n	1000356c <_ftoa+0x318>
1000356a:	e73a      	b.n	100033e2 <_ftoa+0x18e>
1000356c:	2320      	movs	r3, #32
1000356e:	4642      	mov	r2, r8
10003570:	5513      	strb	r3, [r2, r4]
10003572:	3401      	adds	r4, #1
10003574:	e735      	b.n	100033e2 <_ftoa+0x18e>
10003576:	4657      	mov	r7, sl
10003578:	9d08      	ldr	r5, [sp, #32]
1000357a:	2c20      	cmp	r4, #32
1000357c:	d037      	beq.n	100035ee <_ftoa+0x39a>
1000357e:	0022      	movs	r2, r4
10003580:	2130      	movs	r1, #48	; 0x30
10003582:	4640      	mov	r0, r8
10003584:	2f00      	cmp	r7, #0
10003586:	d008      	beq.n	1000359a <_ftoa+0x346>
10003588:	3201      	adds	r2, #1
1000358a:	54b1      	strb	r1, [r6, r2]
1000358c:	2a20      	cmp	r2, #32
1000358e:	d043      	beq.n	10003618 <_ftoa+0x3c4>
10003590:	43d3      	mvns	r3, r2
10003592:	191b      	adds	r3, r3, r4
10003594:	181b      	adds	r3, r3, r0
10003596:	2b00      	cmp	r3, #0
10003598:	d1f6      	bne.n	10003588 <_ftoa+0x334>
1000359a:	ab0e      	add	r3, sp, #56	; 0x38
1000359c:	4698      	mov	r8, r3
1000359e:	232e      	movs	r3, #46	; 0x2e
100035a0:	4641      	mov	r1, r8
100035a2:	1c54      	adds	r4, r2, #1
100035a4:	548b      	strb	r3, [r1, r2]
100035a6:	e77e      	b.n	100034a6 <_ftoa+0x252>
100035a8:	232b      	movs	r3, #43	; 0x2b
100035aa:	4642      	mov	r2, r8
100035ac:	5513      	strb	r3, [r2, r4]
100035ae:	3401      	adds	r4, #1
100035b0:	e717      	b.n	100033e2 <_ftoa+0x18e>
100035b2:	46c0      	nop			; (mov r8, r8)
100035b4:	ffefffff 	.word	0xffefffff
100035b8:	7fefffff 	.word	0x7fefffff
100035bc:	41cdcd65 	.word	0x41cdcd65
100035c0:	c1cdcd65 	.word	0xc1cdcd65
100035c4:	100061e8 	.word	0x100061e8
100035c8:	3fe00000 	.word	0x3fe00000
100035cc:	10005ff0 	.word	0x10005ff0
100035d0:	10005ff4 	.word	0x10005ff4
100035d4:	10006000 	.word	0x10006000
100035d8:	07db      	lsls	r3, r3, #31
100035da:	d400      	bmi.n	100035de <_ftoa+0x38a>
100035dc:	e6d8      	b.n	10003390 <_ftoa+0x13c>
100035de:	e793      	b.n	10003508 <_ftoa+0x2b4>
100035e0:	9b23      	ldr	r3, [sp, #140]	; 0x8c
100035e2:	2b00      	cmp	r3, #0
100035e4:	d100      	bne.n	100035e8 <_ftoa+0x394>
100035e6:	e6fa      	b.n	100033de <_ftoa+0x18a>
100035e8:	ab0e      	add	r3, sp, #56	; 0x38
100035ea:	4698      	mov	r8, r3
100035ec:	e79a      	b.n	10003524 <_ftoa+0x2d0>
100035ee:	2303      	movs	r3, #3
100035f0:	9a24      	ldr	r2, [sp, #144]	; 0x90
100035f2:	4013      	ands	r3, r2
100035f4:	2b01      	cmp	r3, #1
100035f6:	d000      	beq.n	100035fa <_ftoa+0x3a6>
100035f8:	e6f1      	b.n	100033de <_ftoa+0x18a>
100035fa:	ab0e      	add	r3, sp, #56	; 0x38
100035fc:	4698      	mov	r8, r3
100035fe:	9b23      	ldr	r3, [sp, #140]	; 0x8c
10003600:	2b00      	cmp	r3, #0
10003602:	d100      	bne.n	10003606 <_ftoa+0x3b2>
10003604:	e769      	b.n	100034da <_ftoa+0x286>
10003606:	e78d      	b.n	10003524 <_ftoa+0x2d0>
10003608:	9b24      	ldr	r3, [sp, #144]	; 0x90
1000360a:	9303      	str	r3, [sp, #12]
1000360c:	9b23      	ldr	r3, [sp, #140]	; 0x8c
1000360e:	9302      	str	r3, [sp, #8]
10003610:	2303      	movs	r3, #3
10003612:	9301      	str	r3, [sp, #4]
10003614:	4b06      	ldr	r3, [pc, #24]	; (10003630 <_ftoa+0x3dc>)
10003616:	e70a      	b.n	1000342e <_ftoa+0x1da>
10003618:	2303      	movs	r3, #3
1000361a:	9a24      	ldr	r2, [sp, #144]	; 0x90
1000361c:	2420      	movs	r4, #32
1000361e:	4013      	ands	r3, r2
10003620:	2b01      	cmp	r3, #1
10003622:	d000      	beq.n	10003626 <_ftoa+0x3d2>
10003624:	e6db      	b.n	100033de <_ftoa+0x18a>
10003626:	9b23      	ldr	r3, [sp, #140]	; 0x8c
10003628:	2420      	movs	r4, #32
1000362a:	2b00      	cmp	r3, #0
1000362c:	d1dc      	bne.n	100035e8 <_ftoa+0x394>
1000362e:	e6d6      	b.n	100033de <_ftoa+0x18a>
10003630:	10005ffc 	.word	0x10005ffc

10003634 <_vsnprintf>:
10003634:	b5f0      	push	{r4, r5, r6, r7, lr}
10003636:	46de      	mov	lr, fp
10003638:	464e      	mov	r6, r9
1000363a:	4657      	mov	r7, sl
1000363c:	4645      	mov	r5, r8
1000363e:	b5e0      	push	{r5, r6, r7, lr}
10003640:	b09f      	sub	sp, #124	; 0x7c
10003642:	001c      	movs	r4, r3
10003644:	9b28      	ldr	r3, [sp, #160]	; 0xa0
10003646:	4693      	mov	fp, r2
10003648:	9309      	str	r3, [sp, #36]	; 0x24
1000364a:	4acf      	ldr	r2, [pc, #828]	; (10003988 <_vsnprintf+0x354>)
1000364c:	4bcf      	ldr	r3, [pc, #828]	; (1000398c <_vsnprintf+0x358>)
1000364e:	4689      	mov	r9, r1
10003650:	9008      	str	r0, [sp, #32]
10003652:	601a      	str	r2, [r3, #0]
10003654:	2900      	cmp	r1, #0
10003656:	d100      	bne.n	1000365a <_vsnprintf+0x26>
10003658:	e216      	b.n	10003a88 <_vsnprintf+0x454>
1000365a:	2300      	movs	r3, #0
1000365c:	7820      	ldrb	r0, [r4, #0]
1000365e:	469a      	mov	sl, r3
10003660:	2800      	cmp	r0, #0
10003662:	d100      	bne.n	10003666 <_vsnprintf+0x32>
10003664:	e218      	b.n	10003a98 <_vsnprintf+0x464>
10003666:	0026      	movs	r6, r4
10003668:	001d      	movs	r5, r3
1000366a:	464c      	mov	r4, r9
1000366c:	e00a      	b.n	10003684 <_vsnprintf+0x50>
1000366e:	002a      	movs	r2, r5
10003670:	1c6f      	adds	r7, r5, #1
10003672:	465b      	mov	r3, fp
10003674:	9d08      	ldr	r5, [sp, #32]
10003676:	0021      	movs	r1, r4
10003678:	47a8      	blx	r5
1000367a:	003d      	movs	r5, r7
1000367c:	3601      	adds	r6, #1
1000367e:	7830      	ldrb	r0, [r6, #0]
10003680:	2800      	cmp	r0, #0
10003682:	d07a      	beq.n	1000377a <_vsnprintf+0x146>
10003684:	2825      	cmp	r0, #37	; 0x25
10003686:	d1f2      	bne.n	1000366e <_vsnprintf+0x3a>
10003688:	2310      	movs	r3, #16
1000368a:	469a      	mov	sl, r3
1000368c:	3b08      	subs	r3, #8
1000368e:	4699      	mov	r9, r3
10003690:	3b04      	subs	r3, #4
10003692:	4698      	mov	r8, r3
10003694:	3b02      	subs	r3, #2
10003696:	2100      	movs	r1, #0
10003698:	469c      	mov	ip, r3
1000369a:	1c72      	adds	r2, r6, #1
1000369c:	7810      	ldrb	r0, [r2, #0]
1000369e:	0016      	movs	r6, r2
100036a0:	0003      	movs	r3, r0
100036a2:	3b20      	subs	r3, #32
100036a4:	b2db      	uxtb	r3, r3
100036a6:	2b10      	cmp	r3, #16
100036a8:	d803      	bhi.n	100036b2 <_vsnprintf+0x7e>
100036aa:	4fb9      	ldr	r7, [pc, #740]	; (10003990 <_vsnprintf+0x35c>)
100036ac:	009b      	lsls	r3, r3, #2
100036ae:	58fb      	ldr	r3, [r7, r3]
100036b0:	469f      	mov	pc, r3
100036b2:	0003      	movs	r3, r0
100036b4:	3b30      	subs	r3, #48	; 0x30
100036b6:	2b09      	cmp	r3, #9
100036b8:	d93c      	bls.n	10003734 <_vsnprintf+0x100>
100036ba:	2300      	movs	r3, #0
100036bc:	930a      	str	r3, [sp, #40]	; 0x28
100036be:	282a      	cmp	r0, #42	; 0x2a
100036c0:	d100      	bne.n	100036c4 <_vsnprintf+0x90>
100036c2:	e071      	b.n	100037a8 <_vsnprintf+0x174>
100036c4:	2300      	movs	r3, #0
100036c6:	4698      	mov	r8, r3
100036c8:	282e      	cmp	r0, #46	; 0x2e
100036ca:	d047      	beq.n	1000375c <_vsnprintf+0x128>
100036cc:	0003      	movs	r3, r0
100036ce:	3b68      	subs	r3, #104	; 0x68
100036d0:	b2db      	uxtb	r3, r3
100036d2:	2b12      	cmp	r3, #18
100036d4:	d81f      	bhi.n	10003716 <_vsnprintf+0xe2>
100036d6:	4aaf      	ldr	r2, [pc, #700]	; (10003994 <_vsnprintf+0x360>)
100036d8:	009b      	lsls	r3, r3, #2
100036da:	58d3      	ldr	r3, [r2, r3]
100036dc:	469f      	mov	pc, r3
100036de:	2301      	movs	r3, #1
100036e0:	3201      	adds	r2, #1
100036e2:	4319      	orrs	r1, r3
100036e4:	e7da      	b.n	1000369c <_vsnprintf+0x68>
100036e6:	4663      	mov	r3, ip
100036e8:	3201      	adds	r2, #1
100036ea:	4319      	orrs	r1, r3
100036ec:	e7d6      	b.n	1000369c <_vsnprintf+0x68>
100036ee:	4643      	mov	r3, r8
100036f0:	3201      	adds	r2, #1
100036f2:	4319      	orrs	r1, r3
100036f4:	e7d2      	b.n	1000369c <_vsnprintf+0x68>
100036f6:	4653      	mov	r3, sl
100036f8:	3201      	adds	r2, #1
100036fa:	4319      	orrs	r1, r3
100036fc:	e7ce      	b.n	1000369c <_vsnprintf+0x68>
100036fe:	464b      	mov	r3, r9
10003700:	3201      	adds	r2, #1
10003702:	4319      	orrs	r1, r3
10003704:	e7ca      	b.n	1000369c <_vsnprintf+0x68>
10003706:	7870      	ldrb	r0, [r6, #1]
10003708:	286c      	cmp	r0, #108	; 0x6c
1000370a:	d100      	bne.n	1000370e <_vsnprintf+0xda>
1000370c:	e2bf      	b.n	10003c8e <_vsnprintf+0x65a>
1000370e:	2380      	movs	r3, #128	; 0x80
10003710:	005b      	lsls	r3, r3, #1
10003712:	4319      	orrs	r1, r3
10003714:	3601      	adds	r6, #1
10003716:	0003      	movs	r3, r0
10003718:	3b25      	subs	r3, #37	; 0x25
1000371a:	b2db      	uxtb	r3, r3
1000371c:	2b53      	cmp	r3, #83	; 0x53
1000371e:	d8a6      	bhi.n	1000366e <_vsnprintf+0x3a>
10003720:	4a9d      	ldr	r2, [pc, #628]	; (10003998 <_vsnprintf+0x364>)
10003722:	009b      	lsls	r3, r3, #2
10003724:	58d3      	ldr	r3, [r2, r3]
10003726:	469f      	mov	pc, r3
10003728:	2380      	movs	r3, #128	; 0x80
1000372a:	005b      	lsls	r3, r3, #1
1000372c:	7870      	ldrb	r0, [r6, #1]
1000372e:	4319      	orrs	r1, r3
10003730:	3601      	adds	r6, #1
10003732:	e7f0      	b.n	10003716 <_vsnprintf+0xe2>
10003734:	2700      	movs	r7, #0
10003736:	0003      	movs	r3, r0
10003738:	00b8      	lsls	r0, r7, #2
1000373a:	19c0      	adds	r0, r0, r7
1000373c:	3601      	adds	r6, #1
1000373e:	0040      	lsls	r0, r0, #1
10003740:	18c0      	adds	r0, r0, r3
10003742:	7833      	ldrb	r3, [r6, #0]
10003744:	3830      	subs	r0, #48	; 0x30
10003746:	001a      	movs	r2, r3
10003748:	3a30      	subs	r2, #48	; 0x30
1000374a:	0007      	movs	r7, r0
1000374c:	2a09      	cmp	r2, #9
1000374e:	d9f3      	bls.n	10003738 <_vsnprintf+0x104>
10003750:	900a      	str	r0, [sp, #40]	; 0x28
10003752:	0018      	movs	r0, r3
10003754:	2300      	movs	r3, #0
10003756:	4698      	mov	r8, r3
10003758:	282e      	cmp	r0, #46	; 0x2e
1000375a:	d1b7      	bne.n	100036cc <_vsnprintf+0x98>
1000375c:	2380      	movs	r3, #128	; 0x80
1000375e:	7870      	ldrb	r0, [r6, #1]
10003760:	00db      	lsls	r3, r3, #3
10003762:	4319      	orrs	r1, r3
10003764:	0003      	movs	r3, r0
10003766:	3b30      	subs	r3, #48	; 0x30
10003768:	1c72      	adds	r2, r6, #1
1000376a:	2b09      	cmp	r3, #9
1000376c:	d800      	bhi.n	10003770 <_vsnprintf+0x13c>
1000376e:	e195      	b.n	10003a9c <_vsnprintf+0x468>
10003770:	282a      	cmp	r0, #42	; 0x2a
10003772:	d100      	bne.n	10003776 <_vsnprintf+0x142>
10003774:	e1a6      	b.n	10003ac4 <_vsnprintf+0x490>
10003776:	0016      	movs	r6, r2
10003778:	e7a8      	b.n	100036cc <_vsnprintf+0x98>
1000377a:	46a1      	mov	r9, r4
1000377c:	46aa      	mov	sl, r5
1000377e:	002c      	movs	r4, r5
10003780:	45d3      	cmp	fp, sl
10003782:	d803      	bhi.n	1000378c <_vsnprintf+0x158>
10003784:	2301      	movs	r3, #1
10003786:	425b      	negs	r3, r3
10003788:	445b      	add	r3, fp
1000378a:	469a      	mov	sl, r3
1000378c:	465b      	mov	r3, fp
1000378e:	4652      	mov	r2, sl
10003790:	4649      	mov	r1, r9
10003792:	2000      	movs	r0, #0
10003794:	9d08      	ldr	r5, [sp, #32]
10003796:	47a8      	blx	r5
10003798:	0020      	movs	r0, r4
1000379a:	b01f      	add	sp, #124	; 0x7c
1000379c:	bc3c      	pop	{r2, r3, r4, r5}
1000379e:	4690      	mov	r8, r2
100037a0:	4699      	mov	r9, r3
100037a2:	46a2      	mov	sl, r4
100037a4:	46ab      	mov	fp, r5
100037a6:	bdf0      	pop	{r4, r5, r6, r7, pc}
100037a8:	9b09      	ldr	r3, [sp, #36]	; 0x24
100037aa:	cb40      	ldmia	r3!, {r6}
100037ac:	960a      	str	r6, [sp, #40]	; 0x28
100037ae:	2e00      	cmp	r6, #0
100037b0:	db03      	blt.n	100037ba <_vsnprintf+0x186>
100037b2:	7850      	ldrb	r0, [r2, #1]
100037b4:	9309      	str	r3, [sp, #36]	; 0x24
100037b6:	1c56      	adds	r6, r2, #1
100037b8:	e784      	b.n	100036c4 <_vsnprintf+0x90>
100037ba:	3828      	subs	r0, #40	; 0x28
100037bc:	4301      	orrs	r1, r0
100037be:	4270      	negs	r0, r6
100037c0:	900a      	str	r0, [sp, #40]	; 0x28
100037c2:	9309      	str	r3, [sp, #36]	; 0x24
100037c4:	7850      	ldrb	r0, [r2, #1]
100037c6:	1c56      	adds	r6, r2, #1
100037c8:	e77c      	b.n	100036c4 <_vsnprintf+0x90>
100037ca:	2878      	cmp	r0, #120	; 0x78
100037cc:	d100      	bne.n	100037d0 <_vsnprintf+0x19c>
100037ce:	e1d4      	b.n	10003b7a <_vsnprintf+0x546>
100037d0:	2858      	cmp	r0, #88	; 0x58
100037d2:	d100      	bne.n	100037d6 <_vsnprintf+0x1a2>
100037d4:	e268      	b.n	10003ca8 <_vsnprintf+0x674>
100037d6:	286f      	cmp	r0, #111	; 0x6f
100037d8:	d100      	bne.n	100037dc <_vsnprintf+0x1a8>
100037da:	e352      	b.n	10003e82 <_vsnprintf+0x84e>
100037dc:	2862      	cmp	r0, #98	; 0x62
100037de:	d100      	bne.n	100037e2 <_vsnprintf+0x1ae>
100037e0:	e1d8      	b.n	10003b94 <_vsnprintf+0x560>
100037e2:	2310      	movs	r3, #16
100037e4:	000a      	movs	r2, r1
100037e6:	439a      	bics	r2, r3
100037e8:	920b      	str	r2, [sp, #44]	; 0x2c
100037ea:	2869      	cmp	r0, #105	; 0x69
100037ec:	d001      	beq.n	100037f2 <_vsnprintf+0x1be>
100037ee:	f000 fca2 	bl	10004136 <_vsnprintf+0xb02>
100037f2:	230a      	movs	r3, #10
100037f4:	930c      	str	r3, [sp, #48]	; 0x30
100037f6:	054b      	lsls	r3, r1, #21
100037f8:	d400      	bmi.n	100037fc <_vsnprintf+0x1c8>
100037fa:	e1d5      	b.n	10003ba8 <_vsnprintf+0x574>
100037fc:	2301      	movs	r3, #1
100037fe:	9a0b      	ldr	r2, [sp, #44]	; 0x2c
10003800:	439a      	bics	r2, r3
10003802:	920b      	str	r2, [sp, #44]	; 0x2c
10003804:	2869      	cmp	r0, #105	; 0x69
10003806:	d100      	bne.n	1000380a <_vsnprintf+0x1d6>
10003808:	e1ce      	b.n	10003ba8 <_vsnprintf+0x574>
1000380a:	2864      	cmp	r0, #100	; 0x64
1000380c:	d100      	bne.n	10003810 <_vsnprintf+0x1dc>
1000380e:	e1cb      	b.n	10003ba8 <_vsnprintf+0x574>
10003810:	9a0b      	ldr	r2, [sp, #44]	; 0x2c
10003812:	2380      	movs	r3, #128	; 0x80
10003814:	0011      	movs	r1, r2
10003816:	009b      	lsls	r3, r3, #2
10003818:	4019      	ands	r1, r3
1000381a:	468a      	mov	sl, r1
1000381c:	421a      	tst	r2, r3
1000381e:	d000      	beq.n	10003822 <_vsnprintf+0x1ee>
10003820:	e332      	b.n	10003e88 <_vsnprintf+0x854>
10003822:	2380      	movs	r3, #128	; 0x80
10003824:	0011      	movs	r1, r2
10003826:	005b      	lsls	r3, r3, #1
10003828:	4019      	ands	r1, r3
1000382a:	4689      	mov	r9, r1
1000382c:	421a      	tst	r2, r3
1000382e:	d001      	beq.n	10003834 <_vsnprintf+0x200>
10003830:	f000 fc02 	bl	10004038 <_vsnprintf+0xa04>
10003834:	0013      	movs	r3, r2
10003836:	065b      	lsls	r3, r3, #25
10003838:	d500      	bpl.n	1000383c <_vsnprintf+0x208>
1000383a:	e310      	b.n	10003e5e <_vsnprintf+0x82a>
1000383c:	9b0b      	ldr	r3, [sp, #44]	; 0x2c
1000383e:	061b      	lsls	r3, r3, #24
10003840:	d401      	bmi.n	10003846 <_vsnprintf+0x212>
10003842:	f000 fc6e 	bl	10004122 <_vsnprintf+0xaee>
10003846:	9b09      	ldr	r3, [sp, #36]	; 0x24
10003848:	cb04      	ldmia	r3!, {r2}
1000384a:	0412      	lsls	r2, r2, #16
1000384c:	0c12      	lsrs	r2, r2, #16
1000384e:	4692      	mov	sl, r2
10003850:	9309      	str	r3, [sp, #36]	; 0x24
10003852:	4653      	mov	r3, sl
10003854:	2b00      	cmp	r3, #0
10003856:	d000      	beq.n	1000385a <_vsnprintf+0x226>
10003858:	e364      	b.n	10003f24 <_vsnprintf+0x8f0>
1000385a:	9a0b      	ldr	r2, [sp, #44]	; 0x2c
1000385c:	3310      	adds	r3, #16
1000385e:	0011      	movs	r1, r2
10003860:	4399      	bics	r1, r3
10003862:	910b      	str	r1, [sp, #44]	; 0x2c
10003864:	0552      	lsls	r2, r2, #21
10003866:	d400      	bmi.n	1000386a <_vsnprintf+0x236>
10003868:	e35c      	b.n	10003f24 <_vsnprintf+0x8f0>
1000386a:	2300      	movs	r3, #0
1000386c:	4699      	mov	r9, r3
1000386e:	9b0b      	ldr	r3, [sp, #44]	; 0x2c
10003870:	9306      	str	r3, [sp, #24]
10003872:	9b0a      	ldr	r3, [sp, #40]	; 0x28
10003874:	9305      	str	r3, [sp, #20]
10003876:	4643      	mov	r3, r8
10003878:	9304      	str	r3, [sp, #16]
1000387a:	9b0c      	ldr	r3, [sp, #48]	; 0x30
1000387c:	9303      	str	r3, [sp, #12]
1000387e:	2300      	movs	r3, #0
10003880:	e2de      	b.n	10003e40 <_vsnprintf+0x80c>
10003882:	7870      	ldrb	r0, [r6, #1]
10003884:	2868      	cmp	r0, #104	; 0x68
10003886:	d100      	bne.n	1000388a <_vsnprintf+0x256>
10003888:	e207      	b.n	10003c9a <_vsnprintf+0x666>
1000388a:	2380      	movs	r3, #128	; 0x80
1000388c:	3601      	adds	r6, #1
1000388e:	4319      	orrs	r1, r3
10003890:	e741      	b.n	10003716 <_vsnprintf+0xe2>
10003892:	2380      	movs	r3, #128	; 0x80
10003894:	009b      	lsls	r3, r3, #2
10003896:	7870      	ldrb	r0, [r6, #1]
10003898:	4319      	orrs	r1, r3
1000389a:	3601      	adds	r6, #1
1000389c:	e73b      	b.n	10003716 <_vsnprintf+0xe2>
1000389e:	2846      	cmp	r0, #70	; 0x46
100038a0:	d100      	bne.n	100038a4 <_vsnprintf+0x270>
100038a2:	e174      	b.n	10003b8e <_vsnprintf+0x55a>
100038a4:	2207      	movs	r2, #7
100038a6:	9b09      	ldr	r3, [sp, #36]	; 0x24
100038a8:	9104      	str	r1, [sp, #16]
100038aa:	3307      	adds	r3, #7
100038ac:	4393      	bics	r3, r2
100038ae:	9a0a      	ldr	r2, [sp, #40]	; 0x28
100038b0:	0019      	movs	r1, r3
100038b2:	9203      	str	r2, [sp, #12]
100038b4:	4642      	mov	r2, r8
100038b6:	9202      	str	r2, [sp, #8]
100038b8:	c90c      	ldmia	r1!, {r2, r3}
100038ba:	9808      	ldr	r0, [sp, #32]
100038bc:	9200      	str	r2, [sp, #0]
100038be:	9301      	str	r3, [sp, #4]
100038c0:	9109      	str	r1, [sp, #36]	; 0x24
100038c2:	002a      	movs	r2, r5
100038c4:	465b      	mov	r3, fp
100038c6:	0021      	movs	r1, r4
100038c8:	f7ff fcc4 	bl	10003254 <_ftoa>
100038cc:	3601      	adds	r6, #1
100038ce:	0005      	movs	r5, r0
100038d0:	e6d5      	b.n	1000367e <_vsnprintf+0x4a>
100038d2:	9b09      	ldr	r3, [sp, #36]	; 0x24
100038d4:	001a      	movs	r2, r3
100038d6:	ca08      	ldmia	r2!, {r3}
100038d8:	4691      	mov	r9, r2
100038da:	2b00      	cmp	r3, #0
100038dc:	d100      	bne.n	100038e0 <_vsnprintf+0x2ac>
100038de:	e105      	b.n	10003aec <_vsnprintf+0x4b8>
100038e0:	2221      	movs	r2, #33	; 0x21
100038e2:	4311      	orrs	r1, r2
100038e4:	468a      	mov	sl, r1
100038e6:	a80e      	add	r0, sp, #56	; 0x38
100038e8:	4684      	mov	ip, r0
100038ea:	211f      	movs	r1, #31
100038ec:	4461      	add	r1, ip
100038ee:	9509      	str	r5, [sp, #36]	; 0x24
100038f0:	2200      	movs	r2, #0
100038f2:	270f      	movs	r7, #15
100038f4:	46a4      	mov	ip, r4
100038f6:	000d      	movs	r5, r1
100038f8:	e002      	b.n	10003900 <_vsnprintf+0x2cc>
100038fa:	2a20      	cmp	r2, #32
100038fc:	d00c      	beq.n	10003918 <_vsnprintf+0x2e4>
100038fe:	000b      	movs	r3, r1
10003900:	003c      	movs	r4, r7
10003902:	401c      	ands	r4, r3
10003904:	0020      	movs	r0, r4
10003906:	3037      	adds	r0, #55	; 0x37
10003908:	2c09      	cmp	r4, #9
1000390a:	d800      	bhi.n	1000390e <_vsnprintf+0x2da>
1000390c:	3807      	subs	r0, #7
1000390e:	3201      	adds	r2, #1
10003910:	54a8      	strb	r0, [r5, r2]
10003912:	0919      	lsrs	r1, r3, #4
10003914:	2b0f      	cmp	r3, #15
10003916:	d8f0      	bhi.n	100038fa <_vsnprintf+0x2c6>
10003918:	4664      	mov	r4, ip
1000391a:	9d09      	ldr	r5, [sp, #36]	; 0x24
1000391c:	e0f0      	b.n	10003b00 <_vsnprintf+0x4cc>
1000391e:	078b      	lsls	r3, r1, #30
10003920:	d400      	bmi.n	10003924 <_vsnprintf+0x2f0>
10003922:	e1d1      	b.n	10003cc8 <_vsnprintf+0x694>
10003924:	9b09      	ldr	r3, [sp, #36]	; 0x24
10003926:	002a      	movs	r2, r5
10003928:	4699      	mov	r9, r3
1000392a:	1c6b      	adds	r3, r5, #1
1000392c:	4698      	mov	r8, r3
1000392e:	464b      	mov	r3, r9
10003930:	cb01      	ldmia	r3!, {r0}
10003932:	0021      	movs	r1, r4
10003934:	4699      	mov	r9, r3
10003936:	9f08      	ldr	r7, [sp, #32]
10003938:	465b      	mov	r3, fp
1000393a:	b2c0      	uxtb	r0, r0
1000393c:	47b8      	blx	r7
1000393e:	9b0a      	ldr	r3, [sp, #40]	; 0x28
10003940:	469c      	mov	ip, r3
10003942:	4465      	add	r5, ip
10003944:	2b01      	cmp	r3, #1
10003946:	d800      	bhi.n	1000394a <_vsnprintf+0x316>
10003948:	e290      	b.n	10003e6c <_vsnprintf+0x838>
1000394a:	46b2      	mov	sl, r6
1000394c:	465e      	mov	r6, fp
1000394e:	4647      	mov	r7, r8
10003950:	46a8      	mov	r8, r5
10003952:	9d08      	ldr	r5, [sp, #32]
10003954:	003a      	movs	r2, r7
10003956:	0033      	movs	r3, r6
10003958:	3701      	adds	r7, #1
1000395a:	0021      	movs	r1, r4
1000395c:	2020      	movs	r0, #32
1000395e:	47a8      	blx	r5
10003960:	4547      	cmp	r7, r8
10003962:	d1f7      	bne.n	10003954 <_vsnprintf+0x320>
10003964:	46b3      	mov	fp, r6
10003966:	464b      	mov	r3, r9
10003968:	4656      	mov	r6, sl
1000396a:	003d      	movs	r5, r7
1000396c:	9309      	str	r3, [sp, #36]	; 0x24
1000396e:	3601      	adds	r6, #1
10003970:	e685      	b.n	1000367e <_vsnprintf+0x4a>
10003972:	002a      	movs	r2, r5
10003974:	1c6f      	adds	r7, r5, #1
10003976:	465b      	mov	r3, fp
10003978:	9d08      	ldr	r5, [sp, #32]
1000397a:	0021      	movs	r1, r4
1000397c:	2025      	movs	r0, #37	; 0x25
1000397e:	47a8      	blx	r5
10003980:	3601      	adds	r6, #1
10003982:	003d      	movs	r5, r7
10003984:	e67b      	b.n	1000367e <_vsnprintf+0x4a>
10003986:	46c0      	nop			; (mov r8, r8)
10003988:	10003635 	.word	0x10003635
1000398c:	20000cd4 	.word	0x20000cd4
10003990:	10006008 	.word	0x10006008
10003994:	1000604c 	.word	0x1000604c
10003998:	10006098 	.word	0x10006098
1000399c:	9b09      	ldr	r3, [sp, #36]	; 0x24
1000399e:	cb04      	ldmia	r3!, {r2}
100039a0:	4699      	mov	r9, r3
100039a2:	4643      	mov	r3, r8
100039a4:	9209      	str	r2, [sp, #36]	; 0x24
100039a6:	2b00      	cmp	r3, #0
100039a8:	d000      	beq.n	100039ac <_vsnprintf+0x378>
100039aa:	e097      	b.n	10003adc <_vsnprintf+0x4a8>
100039ac:	7813      	ldrb	r3, [r2, #0]
100039ae:	469c      	mov	ip, r3
100039b0:	2b00      	cmp	r3, #0
100039b2:	d100      	bne.n	100039b6 <_vsnprintf+0x382>
100039b4:	e3b3      	b.n	1000411e <_vsnprintf+0xaea>
100039b6:	2302      	movs	r3, #2
100039b8:	425b      	negs	r3, r3
100039ba:	1c5a      	adds	r2, r3, #1
100039bc:	9b09      	ldr	r3, [sp, #36]	; 0x24
100039be:	4692      	mov	sl, r2
100039c0:	0018      	movs	r0, r3
100039c2:	9f0a      	ldr	r7, [sp, #40]	; 0x28
100039c4:	920b      	str	r2, [sp, #44]	; 0x2c
100039c6:	4450      	add	r0, sl
100039c8:	e002      	b.n	100039d0 <_vsnprintf+0x39c>
100039ca:	4283      	cmp	r3, r0
100039cc:	d100      	bne.n	100039d0 <_vsnprintf+0x39c>
100039ce:	e169      	b.n	10003ca4 <_vsnprintf+0x670>
100039d0:	785a      	ldrb	r2, [r3, #1]
100039d2:	3301      	adds	r3, #1
100039d4:	2a00      	cmp	r2, #0
100039d6:	d1f8      	bne.n	100039ca <_vsnprintf+0x396>
100039d8:	9a09      	ldr	r2, [sp, #36]	; 0x24
100039da:	970a      	str	r7, [sp, #40]	; 0x28
100039dc:	1a9b      	subs	r3, r3, r2
100039de:	930b      	str	r3, [sp, #44]	; 0x2c
100039e0:	2380      	movs	r3, #128	; 0x80
100039e2:	000a      	movs	r2, r1
100039e4:	00db      	lsls	r3, r3, #3
100039e6:	401a      	ands	r2, r3
100039e8:	920c      	str	r2, [sp, #48]	; 0x30
100039ea:	4219      	tst	r1, r3
100039ec:	d004      	beq.n	100039f8 <_vsnprintf+0x3c4>
100039ee:	9b0b      	ldr	r3, [sp, #44]	; 0x2c
100039f0:	4543      	cmp	r3, r8
100039f2:	d901      	bls.n	100039f8 <_vsnprintf+0x3c4>
100039f4:	4643      	mov	r3, r8
100039f6:	930b      	str	r3, [sp, #44]	; 0x2c
100039f8:	2302      	movs	r3, #2
100039fa:	001a      	movs	r2, r3
100039fc:	400a      	ands	r2, r1
100039fe:	920d      	str	r2, [sp, #52]	; 0x34
10003a00:	420b      	tst	r3, r1
10003a02:	d100      	bne.n	10003a06 <_vsnprintf+0x3d2>
10003a04:	e184      	b.n	10003d10 <_vsnprintf+0x6dc>
10003a06:	4660      	mov	r0, ip
10003a08:	2800      	cmp	r0, #0
10003a0a:	d023      	beq.n	10003a54 <_vsnprintf+0x420>
10003a0c:	9b0c      	ldr	r3, [sp, #48]	; 0x30
10003a0e:	2b00      	cmp	r3, #0
10003a10:	d100      	bne.n	10003a14 <_vsnprintf+0x3e0>
10003a12:	e124      	b.n	10003c5e <_vsnprintf+0x62a>
10003a14:	44a8      	add	r8, r5
10003a16:	46c2      	mov	sl, r8
10003a18:	9b09      	ldr	r3, [sp, #36]	; 0x24
10003a1a:	4657      	mov	r7, sl
10003a1c:	1b5b      	subs	r3, r3, r5
10003a1e:	4698      	mov	r8, r3
10003a20:	9b08      	ldr	r3, [sp, #32]
10003a22:	46b2      	mov	sl, r6
10003a24:	002a      	movs	r2, r5
10003a26:	0026      	movs	r6, r4
10003a28:	465c      	mov	r4, fp
10003a2a:	469b      	mov	fp, r3
10003a2c:	e009      	b.n	10003a42 <_vsnprintf+0x40e>
10003a2e:	0023      	movs	r3, r4
10003a30:	0031      	movs	r1, r6
10003a32:	1c55      	adds	r5, r2, #1
10003a34:	47d8      	blx	fp
10003a36:	4643      	mov	r3, r8
10003a38:	5d58      	ldrb	r0, [r3, r5]
10003a3a:	2800      	cmp	r0, #0
10003a3c:	d100      	bne.n	10003a40 <_vsnprintf+0x40c>
10003a3e:	e13f      	b.n	10003cc0 <_vsnprintf+0x68c>
10003a40:	002a      	movs	r2, r5
10003a42:	4297      	cmp	r7, r2
10003a44:	d1f3      	bne.n	10003a2e <_vsnprintf+0x3fa>
10003a46:	46a3      	mov	fp, r4
10003a48:	003d      	movs	r5, r7
10003a4a:	0034      	movs	r4, r6
10003a4c:	4656      	mov	r6, sl
10003a4e:	9b0d      	ldr	r3, [sp, #52]	; 0x34
10003a50:	2b00      	cmp	r3, #0
10003a52:	d069      	beq.n	10003b28 <_vsnprintf+0x4f4>
10003a54:	9b0b      	ldr	r3, [sp, #44]	; 0x2c
10003a56:	990a      	ldr	r1, [sp, #40]	; 0x28
10003a58:	46a8      	mov	r8, r5
10003a5a:	4299      	cmp	r1, r3
10003a5c:	d964      	bls.n	10003b28 <_vsnprintf+0x4f4>
10003a5e:	468c      	mov	ip, r1
10003a60:	4465      	add	r5, ip
10003a62:	1aed      	subs	r5, r5, r3
10003a64:	9b08      	ldr	r3, [sp, #32]
10003a66:	4647      	mov	r7, r8
10003a68:	469a      	mov	sl, r3
10003a6a:	46b0      	mov	r8, r6
10003a6c:	0026      	movs	r6, r4
10003a6e:	465c      	mov	r4, fp
10003a70:	003a      	movs	r2, r7
10003a72:	0023      	movs	r3, r4
10003a74:	3701      	adds	r7, #1
10003a76:	0031      	movs	r1, r6
10003a78:	2020      	movs	r0, #32
10003a7a:	47d0      	blx	sl
10003a7c:	42af      	cmp	r7, r5
10003a7e:	d1f7      	bne.n	10003a70 <_vsnprintf+0x43c>
10003a80:	46a3      	mov	fp, r4
10003a82:	0034      	movs	r4, r6
10003a84:	4646      	mov	r6, r8
10003a86:	e04f      	b.n	10003b28 <_vsnprintf+0x4f4>
10003a88:	4bd2      	ldr	r3, [pc, #840]	; (10003dd4 <_vsnprintf+0x7a0>)
10003a8a:	7820      	ldrb	r0, [r4, #0]
10003a8c:	9308      	str	r3, [sp, #32]
10003a8e:	2300      	movs	r3, #0
10003a90:	469a      	mov	sl, r3
10003a92:	2800      	cmp	r0, #0
10003a94:	d000      	beq.n	10003a98 <_vsnprintf+0x464>
10003a96:	e5e6      	b.n	10003666 <_vsnprintf+0x32>
10003a98:	2400      	movs	r4, #0
10003a9a:	e671      	b.n	10003780 <_vsnprintf+0x14c>
10003a9c:	4643      	mov	r3, r8
10003a9e:	0006      	movs	r6, r0
10003aa0:	9f0a      	ldr	r7, [sp, #40]	; 0x28
10003aa2:	0098      	lsls	r0, r3, #2
10003aa4:	18c0      	adds	r0, r0, r3
10003aa6:	3201      	adds	r2, #1
10003aa8:	0040      	lsls	r0, r0, #1
10003aaa:	1980      	adds	r0, r0, r6
10003aac:	7816      	ldrb	r6, [r2, #0]
10003aae:	0003      	movs	r3, r0
10003ab0:	0030      	movs	r0, r6
10003ab2:	3830      	subs	r0, #48	; 0x30
10003ab4:	3b30      	subs	r3, #48	; 0x30
10003ab6:	2809      	cmp	r0, #9
10003ab8:	d9f3      	bls.n	10003aa2 <_vsnprintf+0x46e>
10003aba:	0030      	movs	r0, r6
10003abc:	4698      	mov	r8, r3
10003abe:	0016      	movs	r6, r2
10003ac0:	970a      	str	r7, [sp, #40]	; 0x28
10003ac2:	e603      	b.n	100036cc <_vsnprintf+0x98>
10003ac4:	9b09      	ldr	r3, [sp, #36]	; 0x24
10003ac6:	3602      	adds	r6, #2
10003ac8:	cb04      	ldmia	r3!, {r2}
10003aca:	4690      	mov	r8, r2
10003acc:	43d2      	mvns	r2, r2
10003ace:	4640      	mov	r0, r8
10003ad0:	17d2      	asrs	r2, r2, #31
10003ad2:	4010      	ands	r0, r2
10003ad4:	4680      	mov	r8, r0
10003ad6:	9309      	str	r3, [sp, #36]	; 0x24
10003ad8:	7830      	ldrb	r0, [r6, #0]
10003ada:	e5f7      	b.n	100036cc <_vsnprintf+0x98>
10003adc:	7813      	ldrb	r3, [r2, #0]
10003ade:	469c      	mov	ip, r3
10003ae0:	2b00      	cmp	r3, #0
10003ae2:	d100      	bne.n	10003ae6 <_vsnprintf+0x4b2>
10003ae4:	e31a      	b.n	1000411c <_vsnprintf+0xae8>
10003ae6:	4643      	mov	r3, r8
10003ae8:	3b01      	subs	r3, #1
10003aea:	e766      	b.n	100039ba <_vsnprintf+0x386>
10003aec:	2210      	movs	r2, #16
10003aee:	0008      	movs	r0, r1
10003af0:	4390      	bics	r0, r2
10003af2:	3211      	adds	r2, #17
10003af4:	4310      	orrs	r0, r2
10003af6:	4682      	mov	sl, r0
10003af8:	2200      	movs	r2, #0
10003afa:	0549      	lsls	r1, r1, #21
10003afc:	d400      	bmi.n	10003b00 <_vsnprintf+0x4cc>
10003afe:	e6f2      	b.n	100038e6 <_vsnprintf+0x2b2>
10003b00:	4653      	mov	r3, sl
10003b02:	9306      	str	r3, [sp, #24]
10003b04:	2308      	movs	r3, #8
10003b06:	9305      	str	r3, [sp, #20]
10003b08:	4643      	mov	r3, r8
10003b0a:	9304      	str	r3, [sp, #16]
10003b0c:	2310      	movs	r3, #16
10003b0e:	9303      	str	r3, [sp, #12]
10003b10:	2300      	movs	r3, #0
10003b12:	9302      	str	r3, [sp, #8]
10003b14:	ab16      	add	r3, sp, #88	; 0x58
10003b16:	9201      	str	r2, [sp, #4]
10003b18:	9300      	str	r3, [sp, #0]
10003b1a:	002a      	movs	r2, r5
10003b1c:	465b      	mov	r3, fp
10003b1e:	0021      	movs	r1, r4
10003b20:	9808      	ldr	r0, [sp, #32]
10003b22:	f7ff f879 	bl	10002c18 <_ntoa_format>
10003b26:	0005      	movs	r5, r0
10003b28:	464b      	mov	r3, r9
10003b2a:	3601      	adds	r6, #1
10003b2c:	9309      	str	r3, [sp, #36]	; 0x24
10003b2e:	e5a6      	b.n	1000367e <_vsnprintf+0x4a>
10003b30:	2320      	movs	r3, #32
10003b32:	0002      	movs	r2, r0
10003b34:	439a      	bics	r2, r3
10003b36:	2a47      	cmp	r2, #71	; 0x47
10003b38:	d104      	bne.n	10003b44 <_vsnprintf+0x510>
10003b3a:	2380      	movs	r3, #128	; 0x80
10003b3c:	011b      	lsls	r3, r3, #4
10003b3e:	4319      	orrs	r1, r3
10003b40:	2302      	movs	r3, #2
10003b42:	4398      	bics	r0, r3
10003b44:	2845      	cmp	r0, #69	; 0x45
10003b46:	d101      	bne.n	10003b4c <_vsnprintf+0x518>
10003b48:	2320      	movs	r3, #32
10003b4a:	4319      	orrs	r1, r3
10003b4c:	2207      	movs	r2, #7
10003b4e:	9b09      	ldr	r3, [sp, #36]	; 0x24
10003b50:	9104      	str	r1, [sp, #16]
10003b52:	3307      	adds	r3, #7
10003b54:	4393      	bics	r3, r2
10003b56:	9a0a      	ldr	r2, [sp, #40]	; 0x28
10003b58:	0019      	movs	r1, r3
10003b5a:	9203      	str	r2, [sp, #12]
10003b5c:	4642      	mov	r2, r8
10003b5e:	9202      	str	r2, [sp, #8]
10003b60:	c90c      	ldmia	r1!, {r2, r3}
10003b62:	9808      	ldr	r0, [sp, #32]
10003b64:	9200      	str	r2, [sp, #0]
10003b66:	9301      	str	r3, [sp, #4]
10003b68:	9109      	str	r1, [sp, #36]	; 0x24
10003b6a:	002a      	movs	r2, r5
10003b6c:	465b      	mov	r3, fp
10003b6e:	0021      	movs	r1, r4
10003b70:	f7ff f94a 	bl	10002e08 <_etoa>
10003b74:	3601      	adds	r6, #1
10003b76:	0005      	movs	r5, r0
10003b78:	e581      	b.n	1000367e <_vsnprintf+0x4a>
10003b7a:	2310      	movs	r3, #16
10003b7c:	930c      	str	r3, [sp, #48]	; 0x30
10003b7e:	230c      	movs	r3, #12
10003b80:	000a      	movs	r2, r1
10003b82:	439a      	bics	r2, r3
10003b84:	920b      	str	r2, [sp, #44]	; 0x2c
10003b86:	054b      	lsls	r3, r1, #21
10003b88:	d400      	bmi.n	10003b8c <_vsnprintf+0x558>
10003b8a:	e63b      	b.n	10003804 <_vsnprintf+0x1d0>
10003b8c:	e636      	b.n	100037fc <_vsnprintf+0x1c8>
10003b8e:	2320      	movs	r3, #32
10003b90:	4319      	orrs	r1, r3
10003b92:	e687      	b.n	100038a4 <_vsnprintf+0x270>
10003b94:	2302      	movs	r3, #2
10003b96:	930c      	str	r3, [sp, #48]	; 0x30
10003b98:	910b      	str	r1, [sp, #44]	; 0x2c
10003b9a:	990b      	ldr	r1, [sp, #44]	; 0x2c
10003b9c:	2864      	cmp	r0, #100	; 0x64
10003b9e:	d1ee      	bne.n	10003b7e <_vsnprintf+0x54a>
10003ba0:	9b0b      	ldr	r3, [sp, #44]	; 0x2c
10003ba2:	055b      	lsls	r3, r3, #21
10003ba4:	d500      	bpl.n	10003ba8 <_vsnprintf+0x574>
10003ba6:	e629      	b.n	100037fc <_vsnprintf+0x1c8>
10003ba8:	9a0b      	ldr	r2, [sp, #44]	; 0x2c
10003baa:	2380      	movs	r3, #128	; 0x80
10003bac:	0011      	movs	r1, r2
10003bae:	009b      	lsls	r3, r3, #2
10003bb0:	4019      	ands	r1, r3
10003bb2:	468a      	mov	sl, r1
10003bb4:	421a      	tst	r2, r3
10003bb6:	d000      	beq.n	10003bba <_vsnprintf+0x586>
10003bb8:	e0ce      	b.n	10003d58 <_vsnprintf+0x724>
10003bba:	2380      	movs	r3, #128	; 0x80
10003bbc:	0011      	movs	r1, r2
10003bbe:	005b      	lsls	r3, r3, #1
10003bc0:	4019      	ands	r1, r3
10003bc2:	4689      	mov	r9, r1
10003bc4:	421a      	tst	r2, r3
10003bc6:	d000      	beq.n	10003bca <_vsnprintf+0x596>
10003bc8:	e1db      	b.n	10003f82 <_vsnprintf+0x94e>
10003bca:	0013      	movs	r3, r2
10003bcc:	065b      	lsls	r3, r3, #25
10003bce:	d500      	bpl.n	10003bd2 <_vsnprintf+0x59e>
10003bd0:	e11d      	b.n	10003e0e <_vsnprintf+0x7da>
10003bd2:	9b0b      	ldr	r3, [sp, #44]	; 0x2c
10003bd4:	9909      	ldr	r1, [sp, #36]	; 0x24
10003bd6:	061b      	lsls	r3, r3, #24
10003bd8:	d400      	bmi.n	10003bdc <_vsnprintf+0x5a8>
10003bda:	e299      	b.n	10004110 <_vsnprintf+0xadc>
10003bdc:	c908      	ldmia	r1!, {r3}
10003bde:	b21b      	sxth	r3, r3
10003be0:	17d8      	asrs	r0, r3, #31
10003be2:	181a      	adds	r2, r3, r0
10003be4:	4042      	eors	r2, r0
10003be6:	b292      	uxth	r2, r2
10003be8:	9109      	str	r1, [sp, #36]	; 0x24
10003bea:	4692      	mov	sl, r2
10003bec:	0fda      	lsrs	r2, r3, #31
10003bee:	9212      	str	r2, [sp, #72]	; 0x48
10003bf0:	2b00      	cmp	r3, #0
10003bf2:	d109      	bne.n	10003c08 <_vsnprintf+0x5d4>
10003bf4:	2380      	movs	r3, #128	; 0x80
10003bf6:	2210      	movs	r2, #16
10003bf8:	990b      	ldr	r1, [sp, #44]	; 0x2c
10003bfa:	00db      	lsls	r3, r3, #3
10003bfc:	400b      	ands	r3, r1
10003bfe:	4391      	bics	r1, r2
10003c00:	910b      	str	r1, [sp, #44]	; 0x2c
10003c02:	2b00      	cmp	r3, #0
10003c04:	d000      	beq.n	10003c08 <_vsnprintf+0x5d4>
10003c06:	e112      	b.n	10003e2e <_vsnprintf+0x7fa>
10003c08:	9a0b      	ldr	r2, [sp, #44]	; 0x2c
10003c0a:	2361      	movs	r3, #97	; 0x61
10003c0c:	0692      	lsls	r2, r2, #26
10003c0e:	d500      	bpl.n	10003c12 <_vsnprintf+0x5de>
10003c10:	2341      	movs	r3, #65	; 0x41
10003c12:	a90e      	add	r1, sp, #56	; 0x38
10003c14:	221f      	movs	r2, #31
10003c16:	468c      	mov	ip, r1
10003c18:	b2db      	uxtb	r3, r3
10003c1a:	4462      	add	r2, ip
10003c1c:	3b0a      	subs	r3, #10
10003c1e:	4657      	mov	r7, sl
10003c20:	9513      	str	r5, [sp, #76]	; 0x4c
10003c22:	46a2      	mov	sl, r4
10003c24:	464d      	mov	r5, r9
10003c26:	9c0c      	ldr	r4, [sp, #48]	; 0x30
10003c28:	46b1      	mov	r9, r6
10003c2a:	930d      	str	r3, [sp, #52]	; 0x34
10003c2c:	0016      	movs	r6, r2
10003c2e:	e00a      	b.n	10003c46 <_vsnprintf+0x612>
10003c30:	3330      	adds	r3, #48	; 0x30
10003c32:	b2db      	uxtb	r3, r3
10003c34:	3501      	adds	r5, #1
10003c36:	5573      	strb	r3, [r6, r5]
10003c38:	42a7      	cmp	r7, r4
10003c3a:	d200      	bcs.n	10003c3e <_vsnprintf+0x60a>
10003c3c:	e11c      	b.n	10003e78 <_vsnprintf+0x844>
10003c3e:	2d20      	cmp	r5, #32
10003c40:	d100      	bne.n	10003c44 <_vsnprintf+0x610>
10003c42:	e119      	b.n	10003e78 <_vsnprintf+0x844>
10003c44:	0007      	movs	r7, r0
10003c46:	0021      	movs	r1, r4
10003c48:	0038      	movs	r0, r7
10003c4a:	f000 fb01 	bl	10004250 <__wrap___aeabi_uidiv>
10003c4e:	b2cb      	uxtb	r3, r1
10003c50:	2909      	cmp	r1, #9
10003c52:	d9ed      	bls.n	10003c30 <_vsnprintf+0x5fc>
10003c54:	9a0d      	ldr	r2, [sp, #52]	; 0x34
10003c56:	4694      	mov	ip, r2
10003c58:	4463      	add	r3, ip
10003c5a:	b2db      	uxtb	r3, r3
10003c5c:	e7ea      	b.n	10003c34 <_vsnprintf+0x600>
10003c5e:	9b09      	ldr	r3, [sp, #36]	; 0x24
10003c60:	465f      	mov	r7, fp
10003c62:	1b5b      	subs	r3, r3, r5
10003c64:	4698      	mov	r8, r3
10003c66:	9b0a      	ldr	r3, [sp, #40]	; 0x28
10003c68:	46b3      	mov	fp, r6
10003c6a:	469a      	mov	sl, r3
10003c6c:	0026      	movs	r6, r4
10003c6e:	9c08      	ldr	r4, [sp, #32]
10003c70:	002a      	movs	r2, r5
10003c72:	003b      	movs	r3, r7
10003c74:	0031      	movs	r1, r6
10003c76:	47a0      	blx	r4
10003c78:	4643      	mov	r3, r8
10003c7a:	3501      	adds	r5, #1
10003c7c:	5d58      	ldrb	r0, [r3, r5]
10003c7e:	2800      	cmp	r0, #0
10003c80:	d1f6      	bne.n	10003c70 <_vsnprintf+0x63c>
10003c82:	4653      	mov	r3, sl
10003c84:	0034      	movs	r4, r6
10003c86:	930a      	str	r3, [sp, #40]	; 0x28
10003c88:	465e      	mov	r6, fp
10003c8a:	46bb      	mov	fp, r7
10003c8c:	e6df      	b.n	10003a4e <_vsnprintf+0x41a>
10003c8e:	23c0      	movs	r3, #192	; 0xc0
10003c90:	009b      	lsls	r3, r3, #2
10003c92:	78b0      	ldrb	r0, [r6, #2]
10003c94:	4319      	orrs	r1, r3
10003c96:	3602      	adds	r6, #2
10003c98:	e53d      	b.n	10003716 <_vsnprintf+0xe2>
10003c9a:	23c0      	movs	r3, #192	; 0xc0
10003c9c:	78b0      	ldrb	r0, [r6, #2]
10003c9e:	4319      	orrs	r1, r3
10003ca0:	3602      	adds	r6, #2
10003ca2:	e538      	b.n	10003716 <_vsnprintf+0xe2>
10003ca4:	970a      	str	r7, [sp, #40]	; 0x28
10003ca6:	e69b      	b.n	100039e0 <_vsnprintf+0x3ac>
10003ca8:	230c      	movs	r3, #12
10003caa:	000a      	movs	r2, r1
10003cac:	439a      	bics	r2, r3
10003cae:	3314      	adds	r3, #20
10003cb0:	431a      	orrs	r2, r3
10003cb2:	2310      	movs	r3, #16
10003cb4:	920b      	str	r2, [sp, #44]	; 0x2c
10003cb6:	930c      	str	r3, [sp, #48]	; 0x30
10003cb8:	054b      	lsls	r3, r1, #21
10003cba:	d400      	bmi.n	10003cbe <_vsnprintf+0x68a>
10003cbc:	e5a8      	b.n	10003810 <_vsnprintf+0x1dc>
10003cbe:	e59d      	b.n	100037fc <_vsnprintf+0x1c8>
10003cc0:	46a3      	mov	fp, r4
10003cc2:	0034      	movs	r4, r6
10003cc4:	4656      	mov	r6, sl
10003cc6:	e6c2      	b.n	10003a4e <_vsnprintf+0x41a>
10003cc8:	9a0a      	ldr	r2, [sp, #40]	; 0x28
10003cca:	2a01      	cmp	r2, #1
10003ccc:	d800      	bhi.n	10003cd0 <_vsnprintf+0x69c>
10003cce:	e22e      	b.n	1000412e <_vsnprintf+0xafa>
10003cd0:	1e6b      	subs	r3, r5, #1
10003cd2:	189f      	adds	r7, r3, r2
10003cd4:	9b08      	ldr	r3, [sp, #32]
10003cd6:	46b0      	mov	r8, r6
10003cd8:	4699      	mov	r9, r3
10003cda:	0026      	movs	r6, r4
10003cdc:	465c      	mov	r4, fp
10003cde:	002a      	movs	r2, r5
10003ce0:	0023      	movs	r3, r4
10003ce2:	3501      	adds	r5, #1
10003ce4:	0031      	movs	r1, r6
10003ce6:	2020      	movs	r0, #32
10003ce8:	47c8      	blx	r9
10003cea:	42bd      	cmp	r5, r7
10003cec:	d1f7      	bne.n	10003cde <_vsnprintf+0x6aa>
10003cee:	46a3      	mov	fp, r4
10003cf0:	0034      	movs	r4, r6
10003cf2:	4646      	mov	r6, r8
10003cf4:	9b09      	ldr	r3, [sp, #36]	; 0x24
10003cf6:	003a      	movs	r2, r7
10003cf8:	cb01      	ldmia	r3!, {r0}
10003cfa:	0021      	movs	r1, r4
10003cfc:	4698      	mov	r8, r3
10003cfe:	1c7d      	adds	r5, r7, #1
10003d00:	465b      	mov	r3, fp
10003d02:	9f08      	ldr	r7, [sp, #32]
10003d04:	b2c0      	uxtb	r0, r0
10003d06:	47b8      	blx	r7
10003d08:	4643      	mov	r3, r8
10003d0a:	3601      	adds	r6, #1
10003d0c:	9309      	str	r3, [sp, #36]	; 0x24
10003d0e:	e4b6      	b.n	1000367e <_vsnprintf+0x4a>
10003d10:	9a0b      	ldr	r2, [sp, #44]	; 0x2c
10003d12:	980a      	ldr	r0, [sp, #40]	; 0x28
10003d14:	1c53      	adds	r3, r2, #1
10003d16:	4290      	cmp	r0, r2
10003d18:	d800      	bhi.n	10003d1c <_vsnprintf+0x6e8>
10003d1a:	e20a      	b.n	10004132 <_vsnprintf+0xafe>
10003d1c:	1943      	adds	r3, r0, r5
10003d1e:	1a9b      	subs	r3, r3, r2
10003d20:	001f      	movs	r7, r3
10003d22:	9b08      	ldr	r3, [sp, #32]
10003d24:	46b2      	mov	sl, r6
10003d26:	0026      	movs	r6, r4
10003d28:	465c      	mov	r4, fp
10003d2a:	469b      	mov	fp, r3
10003d2c:	002a      	movs	r2, r5
10003d2e:	0023      	movs	r3, r4
10003d30:	3501      	adds	r5, #1
10003d32:	0031      	movs	r1, r6
10003d34:	2020      	movs	r0, #32
10003d36:	47d8      	blx	fp
10003d38:	42bd      	cmp	r5, r7
10003d3a:	d1f7      	bne.n	10003d2c <_vsnprintf+0x6f8>
10003d3c:	9b0a      	ldr	r3, [sp, #40]	; 0x28
10003d3e:	46a3      	mov	fp, r4
10003d40:	3301      	adds	r3, #1
10003d42:	930b      	str	r3, [sp, #44]	; 0x2c
10003d44:	9b09      	ldr	r3, [sp, #36]	; 0x24
10003d46:	0034      	movs	r4, r6
10003d48:	781b      	ldrb	r3, [r3, #0]
10003d4a:	4656      	mov	r6, sl
10003d4c:	469c      	mov	ip, r3
10003d4e:	4660      	mov	r0, ip
10003d50:	2800      	cmp	r0, #0
10003d52:	d000      	beq.n	10003d56 <_vsnprintf+0x722>
10003d54:	e65a      	b.n	10003a0c <_vsnprintf+0x3d8>
10003d56:	e6e7      	b.n	10003b28 <_vsnprintf+0x4f4>
10003d58:	2207      	movs	r2, #7
10003d5a:	9b09      	ldr	r3, [sp, #36]	; 0x24
10003d5c:	3307      	adds	r3, #7
10003d5e:	4393      	bics	r3, r2
10003d60:	3201      	adds	r2, #1
10003d62:	4694      	mov	ip, r2
10003d64:	449c      	add	ip, r3
10003d66:	4662      	mov	r2, ip
10003d68:	685f      	ldr	r7, [r3, #4]
10003d6a:	9209      	str	r2, [sp, #36]	; 0x24
10003d6c:	681a      	ldr	r2, [r3, #0]
10003d6e:	17fb      	asrs	r3, r7, #31
10003d70:	9310      	str	r3, [sp, #64]	; 0x40
10003d72:	9311      	str	r3, [sp, #68]	; 0x44
10003d74:	9810      	ldr	r0, [sp, #64]	; 0x40
10003d76:	9911      	ldr	r1, [sp, #68]	; 0x44
10003d78:	0003      	movs	r3, r0
10003d7a:	4053      	eors	r3, r2
10003d7c:	930e      	str	r3, [sp, #56]	; 0x38
10003d7e:	000b      	movs	r3, r1
10003d80:	407b      	eors	r3, r7
10003d82:	930f      	str	r3, [sp, #60]	; 0x3c
10003d84:	4694      	mov	ip, r2
10003d86:	9a0e      	ldr	r2, [sp, #56]	; 0x38
10003d88:	9b0f      	ldr	r3, [sp, #60]	; 0x3c
10003d8a:	1a12      	subs	r2, r2, r0
10003d8c:	418b      	sbcs	r3, r1
10003d8e:	920e      	str	r2, [sp, #56]	; 0x38
10003d90:	930f      	str	r3, [sp, #60]	; 0x3c
10003d92:	0ffb      	lsrs	r3, r7, #31
10003d94:	4662      	mov	r2, ip
10003d96:	9312      	str	r3, [sp, #72]	; 0x48
10003d98:	2300      	movs	r3, #0
10003d9a:	433a      	orrs	r2, r7
10003d9c:	469a      	mov	sl, r3
10003d9e:	d03d      	beq.n	10003e1c <_vsnprintf+0x7e8>
10003da0:	9a0b      	ldr	r2, [sp, #44]	; 0x2c
10003da2:	2361      	movs	r3, #97	; 0x61
10003da4:	0692      	lsls	r2, r2, #26
10003da6:	d500      	bpl.n	10003daa <_vsnprintf+0x776>
10003da8:	2341      	movs	r3, #65	; 0x41
10003daa:	2200      	movs	r2, #0
10003dac:	b2db      	uxtb	r3, r3
10003dae:	a90e      	add	r1, sp, #56	; 0x38
10003db0:	3b0a      	subs	r3, #10
10003db2:	468c      	mov	ip, r1
10003db4:	4691      	mov	r9, r2
10003db6:	930d      	str	r3, [sp, #52]	; 0x34
10003db8:	4643      	mov	r3, r8
10003dba:	321f      	adds	r2, #31
10003dbc:	4462      	add	r2, ip
10003dbe:	9513      	str	r5, [sp, #76]	; 0x4c
10003dc0:	9615      	str	r6, [sp, #84]	; 0x54
10003dc2:	464d      	mov	r5, r9
10003dc4:	9e0e      	ldr	r6, [sp, #56]	; 0x38
10003dc6:	9f0f      	ldr	r7, [sp, #60]	; 0x3c
10003dc8:	46a1      	mov	r9, r4
10003dca:	4690      	mov	r8, r2
10003dcc:	9c0c      	ldr	r4, [sp, #48]	; 0x30
10003dce:	9314      	str	r3, [sp, #80]	; 0x50
10003dd0:	e00f      	b.n	10003df2 <_vsnprintf+0x7be>
10003dd2:	46c0      	nop			; (mov r8, r8)
10003dd4:	10002b45 	.word	0x10002b45
10003dd8:	3230      	adds	r2, #48	; 0x30
10003dda:	b2d2      	uxtb	r2, r2
10003ddc:	4643      	mov	r3, r8
10003dde:	3501      	adds	r5, #1
10003de0:	555a      	strb	r2, [r3, r5]
10003de2:	45ba      	cmp	sl, r7
10003de4:	d100      	bne.n	10003de8 <_vsnprintf+0x7b4>
10003de6:	e17c      	b.n	100040e2 <_vsnprintf+0xaae>
10003de8:	2d20      	cmp	r5, #32
10003dea:	d100      	bne.n	10003dee <_vsnprintf+0x7ba>
10003dec:	e17c      	b.n	100040e8 <_vsnprintf+0xab4>
10003dee:	0006      	movs	r6, r0
10003df0:	000f      	movs	r7, r1
10003df2:	0022      	movs	r2, r4
10003df4:	2300      	movs	r3, #0
10003df6:	0030      	movs	r0, r6
10003df8:	0039      	movs	r1, r7
10003dfa:	f000 fa6f 	bl	100042dc <__wrap___aeabi_uldivmod>
10003dfe:	b2d2      	uxtb	r2, r2
10003e00:	2a09      	cmp	r2, #9
10003e02:	d9e9      	bls.n	10003dd8 <_vsnprintf+0x7a4>
10003e04:	9b0d      	ldr	r3, [sp, #52]	; 0x34
10003e06:	469c      	mov	ip, r3
10003e08:	4462      	add	r2, ip
10003e0a:	b2d2      	uxtb	r2, r2
10003e0c:	e7e6      	b.n	10003ddc <_vsnprintf+0x7a8>
10003e0e:	23ff      	movs	r3, #255	; 0xff
10003e10:	9909      	ldr	r1, [sp, #36]	; 0x24
10003e12:	c904      	ldmia	r1!, {r2}
10003e14:	4013      	ands	r3, r2
10003e16:	001a      	movs	r2, r3
10003e18:	9109      	str	r1, [sp, #36]	; 0x24
10003e1a:	e6e6      	b.n	10003bea <_vsnprintf+0x5b6>
10003e1c:	9a0b      	ldr	r2, [sp, #44]	; 0x2c
10003e1e:	3310      	adds	r3, #16
10003e20:	0011      	movs	r1, r2
10003e22:	4399      	bics	r1, r3
10003e24:	910b      	str	r1, [sp, #44]	; 0x2c
10003e26:	0552      	lsls	r2, r2, #21
10003e28:	d5ba      	bpl.n	10003da0 <_vsnprintf+0x76c>
10003e2a:	2300      	movs	r3, #0
10003e2c:	4699      	mov	r9, r3
10003e2e:	9b0b      	ldr	r3, [sp, #44]	; 0x2c
10003e30:	9306      	str	r3, [sp, #24]
10003e32:	9b0a      	ldr	r3, [sp, #40]	; 0x28
10003e34:	9305      	str	r3, [sp, #20]
10003e36:	4643      	mov	r3, r8
10003e38:	9304      	str	r3, [sp, #16]
10003e3a:	9b0c      	ldr	r3, [sp, #48]	; 0x30
10003e3c:	9303      	str	r3, [sp, #12]
10003e3e:	9b12      	ldr	r3, [sp, #72]	; 0x48
10003e40:	9302      	str	r3, [sp, #8]
10003e42:	464b      	mov	r3, r9
10003e44:	9301      	str	r3, [sp, #4]
10003e46:	ab16      	add	r3, sp, #88	; 0x58
10003e48:	002a      	movs	r2, r5
10003e4a:	9300      	str	r3, [sp, #0]
10003e4c:	0021      	movs	r1, r4
10003e4e:	465b      	mov	r3, fp
10003e50:	9808      	ldr	r0, [sp, #32]
10003e52:	f7fe fee1 	bl	10002c18 <_ntoa_format>
10003e56:	3601      	adds	r6, #1
10003e58:	0005      	movs	r5, r0
10003e5a:	f7ff fc10 	bl	1000367e <_vsnprintf+0x4a>
10003e5e:	22ff      	movs	r2, #255	; 0xff
10003e60:	9b09      	ldr	r3, [sp, #36]	; 0x24
10003e62:	cb02      	ldmia	r3!, {r1}
10003e64:	4011      	ands	r1, r2
10003e66:	468a      	mov	sl, r1
10003e68:	9309      	str	r3, [sp, #36]	; 0x24
10003e6a:	e4f2      	b.n	10003852 <_vsnprintf+0x21e>
10003e6c:	464b      	mov	r3, r9
10003e6e:	4645      	mov	r5, r8
10003e70:	9309      	str	r3, [sp, #36]	; 0x24
10003e72:	3601      	adds	r6, #1
10003e74:	f7ff fc03 	bl	1000367e <_vsnprintf+0x4a>
10003e78:	464e      	mov	r6, r9
10003e7a:	4654      	mov	r4, sl
10003e7c:	46a9      	mov	r9, r5
10003e7e:	9d13      	ldr	r5, [sp, #76]	; 0x4c
10003e80:	e7d5      	b.n	10003e2e <_vsnprintf+0x7fa>
10003e82:	2308      	movs	r3, #8
10003e84:	930c      	str	r3, [sp, #48]	; 0x30
10003e86:	e687      	b.n	10003b98 <_vsnprintf+0x564>
10003e88:	2207      	movs	r2, #7
10003e8a:	9b09      	ldr	r3, [sp, #36]	; 0x24
10003e8c:	3307      	adds	r3, #7
10003e8e:	4393      	bics	r3, r2
10003e90:	3201      	adds	r2, #1
10003e92:	4694      	mov	ip, r2
10003e94:	449c      	add	ip, r3
10003e96:	4662      	mov	r2, ip
10003e98:	9209      	str	r2, [sp, #36]	; 0x24
10003e9a:	681a      	ldr	r2, [r3, #0]
10003e9c:	685b      	ldr	r3, [r3, #4]
10003e9e:	0010      	movs	r0, r2
10003ea0:	469a      	mov	sl, r3
10003ea2:	0013      	movs	r3, r2
10003ea4:	4652      	mov	r2, sl
10003ea6:	4313      	orrs	r3, r2
10003ea8:	d107      	bne.n	10003eba <_vsnprintf+0x886>
10003eaa:	9a0b      	ldr	r2, [sp, #44]	; 0x2c
10003eac:	3310      	adds	r3, #16
10003eae:	0011      	movs	r1, r2
10003eb0:	4399      	bics	r1, r3
10003eb2:	910b      	str	r1, [sp, #44]	; 0x2c
10003eb4:	0552      	lsls	r2, r2, #21
10003eb6:	d500      	bpl.n	10003eba <_vsnprintf+0x886>
10003eb8:	e4d7      	b.n	1000386a <_vsnprintf+0x236>
10003eba:	9a0b      	ldr	r2, [sp, #44]	; 0x2c
10003ebc:	2361      	movs	r3, #97	; 0x61
10003ebe:	0692      	lsls	r2, r2, #26
10003ec0:	d500      	bpl.n	10003ec4 <_vsnprintf+0x890>
10003ec2:	2341      	movs	r3, #65	; 0x41
10003ec4:	2200      	movs	r2, #0
10003ec6:	b2db      	uxtb	r3, r3
10003ec8:	a90e      	add	r1, sp, #56	; 0x38
10003eca:	3b0a      	subs	r3, #10
10003ecc:	468c      	mov	ip, r1
10003ece:	4691      	mov	r9, r2
10003ed0:	930d      	str	r3, [sp, #52]	; 0x34
10003ed2:	4643      	mov	r3, r8
10003ed4:	321f      	adds	r2, #31
10003ed6:	4462      	add	r2, ip
10003ed8:	4657      	mov	r7, sl
10003eda:	9512      	str	r5, [sp, #72]	; 0x48
10003edc:	46a2      	mov	sl, r4
10003ede:	464d      	mov	r5, r9
10003ee0:	0004      	movs	r4, r0
10003ee2:	46b1      	mov	r9, r6
10003ee4:	4690      	mov	r8, r2
10003ee6:	9e0c      	ldr	r6, [sp, #48]	; 0x30
10003ee8:	9313      	str	r3, [sp, #76]	; 0x4c
10003eea:	e00d      	b.n	10003f08 <_vsnprintf+0x8d4>
10003eec:	3230      	adds	r2, #48	; 0x30
10003eee:	b2d2      	uxtb	r2, r2
10003ef0:	4643      	mov	r3, r8
10003ef2:	3501      	adds	r5, #1
10003ef4:	555a      	strb	r2, [r3, r5]
10003ef6:	2300      	movs	r3, #0
10003ef8:	42bb      	cmp	r3, r7
10003efa:	d100      	bne.n	10003efe <_vsnprintf+0x8ca>
10003efc:	e0fd      	b.n	100040fa <_vsnprintf+0xac6>
10003efe:	2d20      	cmp	r5, #32
10003f00:	d100      	bne.n	10003f04 <_vsnprintf+0x8d0>
10003f02:	e0fd      	b.n	10004100 <_vsnprintf+0xacc>
10003f04:	0004      	movs	r4, r0
10003f06:	000f      	movs	r7, r1
10003f08:	0032      	movs	r2, r6
10003f0a:	2300      	movs	r3, #0
10003f0c:	0020      	movs	r0, r4
10003f0e:	0039      	movs	r1, r7
10003f10:	f000 f9e4 	bl	100042dc <__wrap___aeabi_uldivmod>
10003f14:	b2d2      	uxtb	r2, r2
10003f16:	2a09      	cmp	r2, #9
10003f18:	d9e8      	bls.n	10003eec <_vsnprintf+0x8b8>
10003f1a:	9b0d      	ldr	r3, [sp, #52]	; 0x34
10003f1c:	469c      	mov	ip, r3
10003f1e:	4462      	add	r2, ip
10003f20:	b2d2      	uxtb	r2, r2
10003f22:	e7e5      	b.n	10003ef0 <_vsnprintf+0x8bc>
10003f24:	9a0b      	ldr	r2, [sp, #44]	; 0x2c
10003f26:	2361      	movs	r3, #97	; 0x61
10003f28:	0692      	lsls	r2, r2, #26
10003f2a:	d500      	bpl.n	10003f2e <_vsnprintf+0x8fa>
10003f2c:	2341      	movs	r3, #65	; 0x41
10003f2e:	b2db      	uxtb	r3, r3
10003f30:	a90e      	add	r1, sp, #56	; 0x38
10003f32:	3b0a      	subs	r3, #10
10003f34:	221f      	movs	r2, #31
10003f36:	468c      	mov	ip, r1
10003f38:	930d      	str	r3, [sp, #52]	; 0x34
10003f3a:	0023      	movs	r3, r4
10003f3c:	4462      	add	r2, ip
10003f3e:	4654      	mov	r4, sl
10003f40:	9512      	str	r5, [sp, #72]	; 0x48
10003f42:	0017      	movs	r7, r2
10003f44:	464d      	mov	r5, r9
10003f46:	469a      	mov	sl, r3
10003f48:	46b1      	mov	r9, r6
10003f4a:	9e0c      	ldr	r6, [sp, #48]	; 0x30
10003f4c:	e008      	b.n	10003f60 <_vsnprintf+0x92c>
10003f4e:	3330      	adds	r3, #48	; 0x30
10003f50:	b2db      	uxtb	r3, r3
10003f52:	3501      	adds	r5, #1
10003f54:	557b      	strb	r3, [r7, r5]
10003f56:	42b4      	cmp	r4, r6
10003f58:	d30e      	bcc.n	10003f78 <_vsnprintf+0x944>
10003f5a:	2d20      	cmp	r5, #32
10003f5c:	d00c      	beq.n	10003f78 <_vsnprintf+0x944>
10003f5e:	0004      	movs	r4, r0
10003f60:	0031      	movs	r1, r6
10003f62:	0020      	movs	r0, r4
10003f64:	f000 f974 	bl	10004250 <__wrap___aeabi_uidiv>
10003f68:	b2cb      	uxtb	r3, r1
10003f6a:	2909      	cmp	r1, #9
10003f6c:	d9ef      	bls.n	10003f4e <_vsnprintf+0x91a>
10003f6e:	9a0d      	ldr	r2, [sp, #52]	; 0x34
10003f70:	4694      	mov	ip, r2
10003f72:	4463      	add	r3, ip
10003f74:	b2db      	uxtb	r3, r3
10003f76:	e7ec      	b.n	10003f52 <_vsnprintf+0x91e>
10003f78:	464e      	mov	r6, r9
10003f7a:	4654      	mov	r4, sl
10003f7c:	46a9      	mov	r9, r5
10003f7e:	9d12      	ldr	r5, [sp, #72]	; 0x48
10003f80:	e475      	b.n	1000386e <_vsnprintf+0x23a>
10003f82:	9b09      	ldr	r3, [sp, #36]	; 0x24
10003f84:	001a      	movs	r2, r3
10003f86:	ca08      	ldmia	r2!, {r3}
10003f88:	17d9      	asrs	r1, r3, #31
10003f8a:	9213      	str	r2, [sp, #76]	; 0x4c
10003f8c:	185a      	adds	r2, r3, r1
10003f8e:	404a      	eors	r2, r1
10003f90:	4691      	mov	r9, r2
10003f92:	0fda      	lsrs	r2, r3, #31
10003f94:	9212      	str	r2, [sp, #72]	; 0x48
10003f96:	2b00      	cmp	r3, #0
10003f98:	d108      	bne.n	10003fac <_vsnprintf+0x978>
10003f9a:	2380      	movs	r3, #128	; 0x80
10003f9c:	2210      	movs	r2, #16
10003f9e:	990b      	ldr	r1, [sp, #44]	; 0x2c
10003fa0:	00db      	lsls	r3, r3, #3
10003fa2:	400b      	ands	r3, r1
10003fa4:	4391      	bics	r1, r2
10003fa6:	910b      	str	r1, [sp, #44]	; 0x2c
10003fa8:	2b00      	cmp	r3, #0
10003faa:	d12b      	bne.n	10004004 <_vsnprintf+0x9d0>
10003fac:	9a0b      	ldr	r2, [sp, #44]	; 0x2c
10003fae:	2361      	movs	r3, #97	; 0x61
10003fb0:	0692      	lsls	r2, r2, #26
10003fb2:	d500      	bpl.n	10003fb6 <_vsnprintf+0x982>
10003fb4:	2341      	movs	r3, #65	; 0x41
10003fb6:	aa0e      	add	r2, sp, #56	; 0x38
10003fb8:	271f      	movs	r7, #31
10003fba:	4694      	mov	ip, r2
10003fbc:	b2db      	uxtb	r3, r3
10003fbe:	3b0a      	subs	r3, #10
10003fc0:	950d      	str	r5, [sp, #52]	; 0x34
10003fc2:	4467      	add	r7, ip
10003fc4:	4655      	mov	r5, sl
10003fc6:	9309      	str	r3, [sp, #36]	; 0x24
10003fc8:	46a2      	mov	sl, r4
10003fca:	464c      	mov	r4, r9
10003fcc:	46b1      	mov	r9, r6
10003fce:	9e0c      	ldr	r6, [sp, #48]	; 0x30
10003fd0:	e008      	b.n	10003fe4 <_vsnprintf+0x9b0>
10003fd2:	3330      	adds	r3, #48	; 0x30
10003fd4:	b2db      	uxtb	r3, r3
10003fd6:	3501      	adds	r5, #1
10003fd8:	557b      	strb	r3, [r7, r5]
10003fda:	42b4      	cmp	r4, r6
10003fdc:	d30e      	bcc.n	10003ffc <_vsnprintf+0x9c8>
10003fde:	2d20      	cmp	r5, #32
10003fe0:	d00c      	beq.n	10003ffc <_vsnprintf+0x9c8>
10003fe2:	0004      	movs	r4, r0
10003fe4:	0031      	movs	r1, r6
10003fe6:	0020      	movs	r0, r4
10003fe8:	f000 f932 	bl	10004250 <__wrap___aeabi_uidiv>
10003fec:	b2cb      	uxtb	r3, r1
10003fee:	2909      	cmp	r1, #9
10003ff0:	d9ef      	bls.n	10003fd2 <_vsnprintf+0x99e>
10003ff2:	9a09      	ldr	r2, [sp, #36]	; 0x24
10003ff4:	4694      	mov	ip, r2
10003ff6:	4463      	add	r3, ip
10003ff8:	b2db      	uxtb	r3, r3
10003ffa:	e7ec      	b.n	10003fd6 <_vsnprintf+0x9a2>
10003ffc:	464e      	mov	r6, r9
10003ffe:	4654      	mov	r4, sl
10004000:	46aa      	mov	sl, r5
10004002:	9d0d      	ldr	r5, [sp, #52]	; 0x34
10004004:	9b0b      	ldr	r3, [sp, #44]	; 0x2c
10004006:	002a      	movs	r2, r5
10004008:	9306      	str	r3, [sp, #24]
1000400a:	9b0a      	ldr	r3, [sp, #40]	; 0x28
1000400c:	0021      	movs	r1, r4
1000400e:	9305      	str	r3, [sp, #20]
10004010:	4643      	mov	r3, r8
10004012:	9304      	str	r3, [sp, #16]
10004014:	9b0c      	ldr	r3, [sp, #48]	; 0x30
10004016:	9808      	ldr	r0, [sp, #32]
10004018:	9303      	str	r3, [sp, #12]
1000401a:	9b12      	ldr	r3, [sp, #72]	; 0x48
1000401c:	3601      	adds	r6, #1
1000401e:	9302      	str	r3, [sp, #8]
10004020:	4653      	mov	r3, sl
10004022:	9301      	str	r3, [sp, #4]
10004024:	ab16      	add	r3, sp, #88	; 0x58
10004026:	9300      	str	r3, [sp, #0]
10004028:	465b      	mov	r3, fp
1000402a:	f7fe fdf5 	bl	10002c18 <_ntoa_format>
1000402e:	9b13      	ldr	r3, [sp, #76]	; 0x4c
10004030:	0005      	movs	r5, r0
10004032:	9309      	str	r3, [sp, #36]	; 0x24
10004034:	f7ff fb23 	bl	1000367e <_vsnprintf+0x4a>
10004038:	9b09      	ldr	r3, [sp, #36]	; 0x24
1000403a:	cb04      	ldmia	r3!, {r2}
1000403c:	4691      	mov	r9, r2
1000403e:	9312      	str	r3, [sp, #72]	; 0x48
10004040:	2a00      	cmp	r2, #0
10004042:	d108      	bne.n	10004056 <_vsnprintf+0xa22>
10004044:	2380      	movs	r3, #128	; 0x80
10004046:	2210      	movs	r2, #16
10004048:	990b      	ldr	r1, [sp, #44]	; 0x2c
1000404a:	00db      	lsls	r3, r3, #3
1000404c:	400b      	ands	r3, r1
1000404e:	4391      	bics	r1, r2
10004050:	910b      	str	r1, [sp, #44]	; 0x2c
10004052:	2b00      	cmp	r3, #0
10004054:	d12b      	bne.n	100040ae <_vsnprintf+0xa7a>
10004056:	9a0b      	ldr	r2, [sp, #44]	; 0x2c
10004058:	2361      	movs	r3, #97	; 0x61
1000405a:	0692      	lsls	r2, r2, #26
1000405c:	d500      	bpl.n	10004060 <_vsnprintf+0xa2c>
1000405e:	2341      	movs	r3, #65	; 0x41
10004060:	aa0e      	add	r2, sp, #56	; 0x38
10004062:	271f      	movs	r7, #31
10004064:	4694      	mov	ip, r2
10004066:	b2db      	uxtb	r3, r3
10004068:	3b0a      	subs	r3, #10
1000406a:	950d      	str	r5, [sp, #52]	; 0x34
1000406c:	4467      	add	r7, ip
1000406e:	4655      	mov	r5, sl
10004070:	9309      	str	r3, [sp, #36]	; 0x24
10004072:	46a2      	mov	sl, r4
10004074:	464c      	mov	r4, r9
10004076:	46b1      	mov	r9, r6
10004078:	9e0c      	ldr	r6, [sp, #48]	; 0x30
1000407a:	e008      	b.n	1000408e <_vsnprintf+0xa5a>
1000407c:	3330      	adds	r3, #48	; 0x30
1000407e:	b2db      	uxtb	r3, r3
10004080:	3501      	adds	r5, #1
10004082:	557b      	strb	r3, [r7, r5]
10004084:	42b4      	cmp	r4, r6
10004086:	d30e      	bcc.n	100040a6 <_vsnprintf+0xa72>
10004088:	2d20      	cmp	r5, #32
1000408a:	d00c      	beq.n	100040a6 <_vsnprintf+0xa72>
1000408c:	0004      	movs	r4, r0
1000408e:	0031      	movs	r1, r6
10004090:	0020      	movs	r0, r4
10004092:	f000 f8dd 	bl	10004250 <__wrap___aeabi_uidiv>
10004096:	b2cb      	uxtb	r3, r1
10004098:	2909      	cmp	r1, #9
1000409a:	d9ef      	bls.n	1000407c <_vsnprintf+0xa48>
1000409c:	9a09      	ldr	r2, [sp, #36]	; 0x24
1000409e:	4694      	mov	ip, r2
100040a0:	4463      	add	r3, ip
100040a2:	b2db      	uxtb	r3, r3
100040a4:	e7ec      	b.n	10004080 <_vsnprintf+0xa4c>
100040a6:	464e      	mov	r6, r9
100040a8:	4654      	mov	r4, sl
100040aa:	46aa      	mov	sl, r5
100040ac:	9d0d      	ldr	r5, [sp, #52]	; 0x34
100040ae:	9b0b      	ldr	r3, [sp, #44]	; 0x2c
100040b0:	002a      	movs	r2, r5
100040b2:	9306      	str	r3, [sp, #24]
100040b4:	9b0a      	ldr	r3, [sp, #40]	; 0x28
100040b6:	0021      	movs	r1, r4
100040b8:	9305      	str	r3, [sp, #20]
100040ba:	4643      	mov	r3, r8
100040bc:	9304      	str	r3, [sp, #16]
100040be:	9b0c      	ldr	r3, [sp, #48]	; 0x30
100040c0:	9808      	ldr	r0, [sp, #32]
100040c2:	9303      	str	r3, [sp, #12]
100040c4:	2300      	movs	r3, #0
100040c6:	9302      	str	r3, [sp, #8]
100040c8:	4653      	mov	r3, sl
100040ca:	9301      	str	r3, [sp, #4]
100040cc:	ab16      	add	r3, sp, #88	; 0x58
100040ce:	9300      	str	r3, [sp, #0]
100040d0:	465b      	mov	r3, fp
100040d2:	f7fe fda1 	bl	10002c18 <_ntoa_format>
100040d6:	9b12      	ldr	r3, [sp, #72]	; 0x48
100040d8:	0005      	movs	r5, r0
100040da:	9309      	str	r3, [sp, #36]	; 0x24
100040dc:	3601      	adds	r6, #1
100040de:	f7ff face 	bl	1000367e <_vsnprintf+0x4a>
100040e2:	42b4      	cmp	r4, r6
100040e4:	d800      	bhi.n	100040e8 <_vsnprintf+0xab4>
100040e6:	e67f      	b.n	10003de8 <_vsnprintf+0x7b4>
100040e8:	9b14      	ldr	r3, [sp, #80]	; 0x50
100040ea:	464c      	mov	r4, r9
100040ec:	960e      	str	r6, [sp, #56]	; 0x38
100040ee:	970f      	str	r7, [sp, #60]	; 0x3c
100040f0:	46a9      	mov	r9, r5
100040f2:	4698      	mov	r8, r3
100040f4:	9e15      	ldr	r6, [sp, #84]	; 0x54
100040f6:	9d13      	ldr	r5, [sp, #76]	; 0x4c
100040f8:	e699      	b.n	10003e2e <_vsnprintf+0x7fa>
100040fa:	42a6      	cmp	r6, r4
100040fc:	d800      	bhi.n	10004100 <_vsnprintf+0xacc>
100040fe:	e6fe      	b.n	10003efe <_vsnprintf+0x8ca>
10004100:	9b13      	ldr	r3, [sp, #76]	; 0x4c
10004102:	464e      	mov	r6, r9
10004104:	4698      	mov	r8, r3
10004106:	46a9      	mov	r9, r5
10004108:	4654      	mov	r4, sl
1000410a:	9d12      	ldr	r5, [sp, #72]	; 0x48
1000410c:	f7ff fbaf 	bl	1000386e <_vsnprintf+0x23a>
10004110:	c908      	ldmia	r1!, {r3}
10004112:	17d8      	asrs	r0, r3, #31
10004114:	181a      	adds	r2, r3, r0
10004116:	4042      	eors	r2, r0
10004118:	9109      	str	r1, [sp, #36]	; 0x24
1000411a:	e566      	b.n	10003bea <_vsnprintf+0x5b6>
1000411c:	2300      	movs	r3, #0
1000411e:	930b      	str	r3, [sp, #44]	; 0x2c
10004120:	e45e      	b.n	100039e0 <_vsnprintf+0x3ac>
10004122:	9b09      	ldr	r3, [sp, #36]	; 0x24
10004124:	cb04      	ldmia	r3!, {r2}
10004126:	4692      	mov	sl, r2
10004128:	9309      	str	r3, [sp, #36]	; 0x24
1000412a:	f7ff fb92 	bl	10003852 <_vsnprintf+0x21e>
1000412e:	002f      	movs	r7, r5
10004130:	e5e0      	b.n	10003cf4 <_vsnprintf+0x6c0>
10004132:	930b      	str	r3, [sp, #44]	; 0x2c
10004134:	e60b      	b.n	10003d4e <_vsnprintf+0x71a>
10004136:	3b06      	subs	r3, #6
10004138:	930c      	str	r3, [sp, #48]	; 0x30
1000413a:	e52e      	b.n	10003b9a <_vsnprintf+0x566>

1000413c <vfctprintf>:
1000413c:	b500      	push	{lr}
1000413e:	b085      	sub	sp, #20
10004140:	9103      	str	r1, [sp, #12]
10004142:	2101      	movs	r1, #1
10004144:	9002      	str	r0, [sp, #8]
10004146:	9300      	str	r3, [sp, #0]
10004148:	4803      	ldr	r0, [pc, #12]	; (10004158 <vfctprintf+0x1c>)
1000414a:	0013      	movs	r3, r2
1000414c:	424a      	negs	r2, r1
1000414e:	a902      	add	r1, sp, #8
10004150:	f7ff fa70 	bl	10003634 <_vsnprintf>
10004154:	b005      	add	sp, #20
10004156:	bd00      	pop	{pc}
10004158:	10002df9 	.word	0x10002df9

1000415c <weak_raw_vprintf>:
1000415c:	b510      	push	{r4, lr}
1000415e:	4a09      	ldr	r2, [pc, #36]	; (10004184 <weak_raw_vprintf+0x28>)
10004160:	0003      	movs	r3, r0
10004162:	6814      	ldr	r4, [r2, #0]
10004164:	b084      	sub	sp, #16
10004166:	2c00      	cmp	r4, #0
10004168:	d008      	beq.n	1000417c <weak_raw_vprintf+0x20>
1000416a:	2201      	movs	r2, #1
1000416c:	9100      	str	r1, [sp, #0]
1000416e:	4806      	ldr	r0, [pc, #24]	; (10004188 <weak_raw_vprintf+0x2c>)
10004170:	4252      	negs	r2, r2
10004172:	a903      	add	r1, sp, #12
10004174:	47a0      	blx	r4
10004176:	2001      	movs	r0, #1
10004178:	b004      	add	sp, #16
1000417a:	bd10      	pop	{r4, pc}
1000417c:	f001 f832 	bl	100051e4 <__wrap_puts>
10004180:	2000      	movs	r0, #0
10004182:	e7f9      	b.n	10004178 <weak_raw_vprintf+0x1c>
10004184:	20000cd4 	.word	0x20000cd4
10004188:	10002de9 	.word	0x10002de9

1000418c <__aeabi_bits_init>:
1000418c:	4801      	ldr	r0, [pc, #4]	; (10004194 <__aeabi_bits_init+0x8>)
1000418e:	2104      	movs	r1, #4
10004190:	4b01      	ldr	r3, [pc, #4]	; (10004198 <__aeabi_bits_init+0xc>)
10004192:	4718      	bx	r3
10004194:	20000370 	.word	0x20000370
10004198:	100041bd 	.word	0x100041bd

1000419c <rom_func_lookup>:
1000419c:	2314      	movs	r3, #20
1000419e:	b510      	push	{r4, lr}
100041a0:	0001      	movs	r1, r0
100041a2:	8818      	ldrh	r0, [r3, #0]
100041a4:	3304      	adds	r3, #4
100041a6:	881b      	ldrh	r3, [r3, #0]
100041a8:	4798      	blx	r3
100041aa:	bd10      	pop	{r4, pc}

100041ac <rom_data_lookup>:
100041ac:	2316      	movs	r3, #22
100041ae:	b510      	push	{r4, lr}
100041b0:	0001      	movs	r1, r0
100041b2:	8818      	ldrh	r0, [r3, #0]
100041b4:	3302      	adds	r3, #2
100041b6:	881b      	ldrh	r3, [r3, #0]
100041b8:	4798      	blx	r3
100041ba:	bd10      	pop	{r4, pc}

100041bc <rom_funcs_lookup>:
100041bc:	b5f0      	push	{r4, r5, r6, r7, lr}
100041be:	46c6      	mov	lr, r8
100041c0:	b500      	push	{lr}
100041c2:	2900      	cmp	r1, #0
100041c4:	d016      	beq.n	100041f4 <rom_funcs_lookup+0x38>
100041c6:	2314      	movs	r3, #20
100041c8:	0004      	movs	r4, r0
100041ca:	2501      	movs	r5, #1
100041cc:	4698      	mov	r8, r3
100041ce:	2718      	movs	r7, #24
100041d0:	0089      	lsls	r1, r1, #2
100041d2:	1846      	adds	r6, r0, r1
100041d4:	4643      	mov	r3, r8
100041d6:	6821      	ldr	r1, [r4, #0]
100041d8:	8818      	ldrh	r0, [r3, #0]
100041da:	883b      	ldrh	r3, [r7, #0]
100041dc:	4798      	blx	r3
100041de:	c401      	stmia	r4!, {r0}
100041e0:	1e43      	subs	r3, r0, #1
100041e2:	4198      	sbcs	r0, r3
100041e4:	4240      	negs	r0, r0
100041e6:	4005      	ands	r5, r0
100041e8:	42a6      	cmp	r6, r4
100041ea:	d1f3      	bne.n	100041d4 <rom_funcs_lookup+0x18>
100041ec:	0028      	movs	r0, r5
100041ee:	bc04      	pop	{r2}
100041f0:	4690      	mov	r8, r2
100041f2:	bdf0      	pop	{r4, r5, r6, r7, pc}
100041f4:	2501      	movs	r5, #1
100041f6:	e7f9      	b.n	100041ec <rom_funcs_lookup+0x30>

100041f8 <__wrap___aeabi_idiv>:
100041f8:	4a14      	ldr	r2, [pc, #80]	; (1000424c <divmod_s32s32_savestate+0x20>)
100041fa:	6f93      	ldr	r3, [r2, #120]	; 0x78
100041fc:	089b      	lsrs	r3, r3, #2
100041fe:	d215      	bcs.n	1000422c <divmod_s32s32_savestate>

10004200 <divmod_s32s32_unsafe>:
10004200:	6690      	str	r0, [r2, #104]	; 0x68
10004202:	66d1      	str	r1, [r2, #108]	; 0x6c
10004204:	2900      	cmp	r1, #0
10004206:	d005      	beq.n	10004214 <divmod_s32s32_unsafe+0x14>
10004208:	e7ff      	b.n	1000420a <divmod_s32s32_unsafe+0xa>
1000420a:	e7ff      	b.n	1000420c <divmod_s32s32_unsafe+0xc>
1000420c:	e7ff      	b.n	1000420e <divmod_s32s32_unsafe+0xe>
1000420e:	6f51      	ldr	r1, [r2, #116]	; 0x74
10004210:	6f10      	ldr	r0, [r2, #112]	; 0x70
10004212:	4770      	bx	lr
10004214:	b504      	push	{r2, lr}
10004216:	2180      	movs	r1, #128	; 0x80
10004218:	0609      	lsls	r1, r1, #24
1000421a:	17c2      	asrs	r2, r0, #31
1000421c:	4051      	eors	r1, r2
1000421e:	2800      	cmp	r0, #0
10004220:	d000      	beq.n	10004224 <divmod_s32s32_unsafe+0x24>
10004222:	43c8      	mvns	r0, r1
10004224:	f001 fd94 	bl	10005d50 <____aeabi_idiv0_veneer>
10004228:	2100      	movs	r1, #0
1000422a:	bd04      	pop	{r2, pc}

1000422c <divmod_s32s32_savestate>:
1000422c:	6f93      	ldr	r3, [r2, #120]	; 0x78
1000422e:	085b      	lsrs	r3, r3, #1
10004230:	d3fd      	bcc.n	1000422e <divmod_s32s32_savestate+0x2>
10004232:	b5f0      	push	{r4, r5, r6, r7, lr}
10004234:	6e94      	ldr	r4, [r2, #104]	; 0x68
10004236:	6ed5      	ldr	r5, [r2, #108]	; 0x6c
10004238:	6f57      	ldr	r7, [r2, #116]	; 0x74
1000423a:	6f16      	ldr	r6, [r2, #112]	; 0x70
1000423c:	f7ff ffe0 	bl	10004200 <divmod_s32s32_unsafe>
10004240:	6694      	str	r4, [r2, #104]	; 0x68
10004242:	66d5      	str	r5, [r2, #108]	; 0x6c
10004244:	6757      	str	r7, [r2, #116]	; 0x74
10004246:	6716      	str	r6, [r2, #112]	; 0x70
10004248:	bdf0      	pop	{r4, r5, r6, r7, pc}
1000424a:	0000      	.short	0x0000
1000424c:	d0000000 	.word	0xd0000000

10004250 <__wrap___aeabi_uidiv>:
10004250:	4a13      	ldr	r2, [pc, #76]	; (100042a0 <divmod_u32u32_savestate+0x20>)
10004252:	6f93      	ldr	r3, [r2, #120]	; 0x78
10004254:	089b      	lsrs	r3, r3, #2
10004256:	d213      	bcs.n	10004280 <divmod_u32u32_savestate>

10004258 <divmod_u32u32_unsafe>:
10004258:	6610      	str	r0, [r2, #96]	; 0x60
1000425a:	6651      	str	r1, [r2, #100]	; 0x64
1000425c:	2900      	cmp	r1, #0
1000425e:	d005      	beq.n	1000426c <divmod_u32u32_unsafe+0x14>
10004260:	e7ff      	b.n	10004262 <divmod_u32u32_unsafe+0xa>
10004262:	e7ff      	b.n	10004264 <divmod_u32u32_unsafe+0xc>
10004264:	e7ff      	b.n	10004266 <divmod_u32u32_unsafe+0xe>
10004266:	6f51      	ldr	r1, [r2, #116]	; 0x74
10004268:	6f10      	ldr	r0, [r2, #112]	; 0x70
1000426a:	4770      	bx	lr
1000426c:	b504      	push	{r2, lr}
1000426e:	2800      	cmp	r0, #0
10004270:	d001      	beq.n	10004276 <divmod_u32u32_unsafe+0x1e>
10004272:	2000      	movs	r0, #0
10004274:	43c0      	mvns	r0, r0
10004276:	f001 fd6b 	bl	10005d50 <____aeabi_idiv0_veneer>
1000427a:	2100      	movs	r1, #0
1000427c:	bd04      	pop	{r2, pc}
1000427e:	46c0      	nop			; (mov r8, r8)

10004280 <divmod_u32u32_savestate>:
10004280:	6f93      	ldr	r3, [r2, #120]	; 0x78
10004282:	085b      	lsrs	r3, r3, #1
10004284:	d3fd      	bcc.n	10004282 <divmod_u32u32_savestate+0x2>
10004286:	b5f0      	push	{r4, r5, r6, r7, lr}
10004288:	6e94      	ldr	r4, [r2, #104]	; 0x68
1000428a:	6ed5      	ldr	r5, [r2, #108]	; 0x6c
1000428c:	6f57      	ldr	r7, [r2, #116]	; 0x74
1000428e:	6f16      	ldr	r6, [r2, #112]	; 0x70
10004290:	f7ff ffe2 	bl	10004258 <divmod_u32u32_unsafe>
10004294:	6694      	str	r4, [r2, #104]	; 0x68
10004296:	66d5      	str	r5, [r2, #108]	; 0x6c
10004298:	6757      	str	r7, [r2, #116]	; 0x74
1000429a:	6716      	str	r6, [r2, #112]	; 0x70
1000429c:	bdf0      	pop	{r4, r5, r6, r7, pc}
1000429e:	0000      	.short	0x0000
100042a0:	d0000000 	.word	0xd0000000

100042a4 <__wrap___aeabi_ldivmod>:
100042a4:	4694      	mov	ip, r2
100042a6:	4a4e      	ldr	r2, [pc, #312]	; (100043e0 <udiv0+0x1a>)
100042a8:	6f92      	ldr	r2, [r2, #120]	; 0x78
100042aa:	0892      	lsrs	r2, r2, #2
100042ac:	4662      	mov	r2, ip
100042ae:	d201      	bcs.n	100042b4 <divmod_s64s64_savestate>
100042b0:	e030      	b.n	10004314 <divmod_s64s64_unsafe>
100042b2:	46c0      	nop			; (mov r8, r8)

100042b4 <divmod_s64s64_savestate>:
100042b4:	b5f0      	push	{r4, r5, r6, r7, lr}
100042b6:	4e4a      	ldr	r6, [pc, #296]	; (100043e0 <udiv0+0x1a>)
100042b8:	6fb5      	ldr	r5, [r6, #120]	; 0x78
100042ba:	086d      	lsrs	r5, r5, #1
100042bc:	d3fc      	bcc.n	100042b8 <divmod_s64s64_savestate+0x4>
100042be:	6e34      	ldr	r4, [r6, #96]	; 0x60
100042c0:	6e75      	ldr	r5, [r6, #100]	; 0x64
100042c2:	6f77      	ldr	r7, [r6, #116]	; 0x74
100042c4:	6f36      	ldr	r6, [r6, #112]	; 0x70
100042c6:	f000 f825 	bl	10004314 <divmod_s64s64_unsafe>
100042ca:	4694      	mov	ip, r2
100042cc:	4a44      	ldr	r2, [pc, #272]	; (100043e0 <udiv0+0x1a>)
100042ce:	6614      	str	r4, [r2, #96]	; 0x60
100042d0:	6655      	str	r5, [r2, #100]	; 0x64
100042d2:	6757      	str	r7, [r2, #116]	; 0x74
100042d4:	6716      	str	r6, [r2, #112]	; 0x70
100042d6:	4662      	mov	r2, ip
100042d8:	bdf0      	pop	{r4, r5, r6, r7, pc}
100042da:	46c0      	nop			; (mov r8, r8)

100042dc <__wrap___aeabi_uldivmod>:
100042dc:	4694      	mov	ip, r2
100042de:	4a40      	ldr	r2, [pc, #256]	; (100043e0 <udiv0+0x1a>)
100042e0:	6f92      	ldr	r2, [r2, #120]	; 0x78
100042e2:	0892      	lsrs	r2, r2, #2
100042e4:	4662      	mov	r2, ip
100042e6:	d201      	bcs.n	100042ec <divmod_u64u64_savestate>
100042e8:	e058      	b.n	1000439c <divmod_u64u64_unsafe>
100042ea:	46c0      	nop			; (mov r8, r8)

100042ec <divmod_u64u64_savestate>:
100042ec:	b5f0      	push	{r4, r5, r6, r7, lr}
100042ee:	4e3c      	ldr	r6, [pc, #240]	; (100043e0 <udiv0+0x1a>)
100042f0:	6fb5      	ldr	r5, [r6, #120]	; 0x78
100042f2:	086d      	lsrs	r5, r5, #1
100042f4:	d3fc      	bcc.n	100042f0 <divmod_u64u64_savestate+0x4>
100042f6:	6e34      	ldr	r4, [r6, #96]	; 0x60
100042f8:	6e75      	ldr	r5, [r6, #100]	; 0x64
100042fa:	6f77      	ldr	r7, [r6, #116]	; 0x74
100042fc:	6f36      	ldr	r6, [r6, #112]	; 0x70
100042fe:	f000 f84d 	bl	1000439c <divmod_u64u64_unsafe>
10004302:	4694      	mov	ip, r2
10004304:	4a36      	ldr	r2, [pc, #216]	; (100043e0 <udiv0+0x1a>)
10004306:	6614      	str	r4, [r2, #96]	; 0x60
10004308:	6655      	str	r5, [r2, #100]	; 0x64
1000430a:	6757      	str	r7, [r2, #116]	; 0x74
1000430c:	6716      	str	r6, [r2, #112]	; 0x70
1000430e:	4662      	mov	r2, ip
10004310:	bdf0      	pop	{r4, r5, r6, r7, pc}
10004312:	46c0      	nop			; (mov r8, r8)

10004314 <divmod_s64s64_unsafe>:
10004314:	2b00      	cmp	r3, #0
10004316:	db24      	blt.n	10004362 <l41_1+0x26>
10004318:	d011      	beq.n	1000433e <l41_1+0x2>
1000431a:	2900      	cmp	r1, #0
1000431c:	da3e      	bge.n	1000439c <divmod_u64u64_unsafe>
1000431e:	b500      	push	{lr}
10004320:	43c9      	mvns	r1, r1
10004322:	4240      	negs	r0, r0
10004324:	d100      	bne.n	10004328 <l39_1>
10004326:	3101      	adds	r1, #1

10004328 <l39_1>:
10004328:	f000 f838 	bl	1000439c <divmod_u64u64_unsafe>
1000432c:	43c9      	mvns	r1, r1
1000432e:	4240      	negs	r0, r0
10004330:	d100      	bne.n	10004334 <l40_1>
10004332:	3101      	adds	r1, #1

10004334 <l40_1>:
10004334:	43db      	mvns	r3, r3
10004336:	4252      	negs	r2, r2
10004338:	d100      	bne.n	1000433c <l41_1>
1000433a:	3301      	adds	r3, #1

1000433c <l41_1>:
1000433c:	bd00      	pop	{pc}
1000433e:	2a00      	cmp	r2, #0
10004340:	d1eb      	bne.n	1000431a <divmod_s64s64_unsafe+0x6>
10004342:	2800      	cmp	r0, #0
10004344:	d101      	bne.n	1000434a <l41_1+0xe>
10004346:	2900      	cmp	r1, #0
10004348:	d005      	beq.n	10004356 <l41_1+0x1a>
1000434a:	2000      	movs	r0, #0
1000434c:	0fc9      	lsrs	r1, r1, #31
1000434e:	07c9      	lsls	r1, r1, #31
10004350:	d101      	bne.n	10004356 <l41_1+0x1a>
10004352:	43c0      	mvns	r0, r0
10004354:	0841      	lsrs	r1, r0, #1
10004356:	b500      	push	{lr}
10004358:	f001 fcf2 	bl	10005d40 <____aeabi_ldiv0_veneer>
1000435c:	2200      	movs	r2, #0
1000435e:	2300      	movs	r3, #0
10004360:	bd00      	pop	{pc}
10004362:	b500      	push	{lr}
10004364:	2900      	cmp	r1, #0
10004366:	db0a      	blt.n	1000437e <l43_1+0x2>
10004368:	43db      	mvns	r3, r3
1000436a:	4252      	negs	r2, r2
1000436c:	d100      	bne.n	10004370 <l42_1>
1000436e:	3301      	adds	r3, #1

10004370 <l42_1>:
10004370:	f000 f814 	bl	1000439c <divmod_u64u64_unsafe>
10004374:	43c9      	mvns	r1, r1
10004376:	4240      	negs	r0, r0
10004378:	d100      	bne.n	1000437c <l43_1>
1000437a:	3101      	adds	r1, #1

1000437c <l43_1>:
1000437c:	bd00      	pop	{pc}
1000437e:	43c9      	mvns	r1, r1
10004380:	4240      	negs	r0, r0
10004382:	d100      	bne.n	10004386 <l44_1>
10004384:	3101      	adds	r1, #1

10004386 <l44_1>:
10004386:	43db      	mvns	r3, r3
10004388:	4252      	negs	r2, r2
1000438a:	d100      	bne.n	1000438e <l45_1>
1000438c:	3301      	adds	r3, #1

1000438e <l45_1>:
1000438e:	f000 f805 	bl	1000439c <divmod_u64u64_unsafe>
10004392:	43db      	mvns	r3, r3
10004394:	4252      	negs	r2, r2
10004396:	d100      	bne.n	1000439a <l46_1>
10004398:	3301      	adds	r3, #1

1000439a <l46_1>:
1000439a:	bd00      	pop	{pc}

1000439c <divmod_u64u64_unsafe>:
1000439c:	2900      	cmp	r1, #0
1000439e:	d123      	bne.n	100043e8 <y64>
100043a0:	2b00      	cmp	r3, #0
100043a2:	d118      	bne.n	100043d6 <udiv0+0x10>
100043a4:	2a00      	cmp	r2, #0
100043a6:	d00c      	beq.n	100043c2 <divmod_u64u64_unsafe+0x26>
100043a8:	46bc      	mov	ip, r7
100043aa:	4f0d      	ldr	r7, [pc, #52]	; (100043e0 <udiv0+0x1a>)
100043ac:	6638      	str	r0, [r7, #96]	; 0x60
100043ae:	667a      	str	r2, [r7, #100]	; 0x64
100043b0:	2100      	movs	r1, #0
100043b2:	2300      	movs	r3, #0
100043b4:	e7ff      	b.n	100043b6 <divmod_u64u64_unsafe+0x1a>
100043b6:	e7ff      	b.n	100043b8 <divmod_u64u64_unsafe+0x1c>
100043b8:	e7ff      	b.n	100043ba <divmod_u64u64_unsafe+0x1e>
100043ba:	6f7a      	ldr	r2, [r7, #116]	; 0x74
100043bc:	6f38      	ldr	r0, [r7, #112]	; 0x70
100043be:	4667      	mov	r7, ip
100043c0:	4770      	bx	lr
100043c2:	2800      	cmp	r0, #0
100043c4:	d001      	beq.n	100043ca <udiv0+0x4>

100043c6 <udiv0>:
100043c6:	4807      	ldr	r0, [pc, #28]	; (100043e4 <udiv0+0x1e>)
100043c8:	0001      	movs	r1, r0
100043ca:	b500      	push	{lr}
100043cc:	f001 fcb8 	bl	10005d40 <____aeabi_ldiv0_veneer>
100043d0:	2200      	movs	r2, #0
100043d2:	2300      	movs	r3, #0
100043d4:	bd00      	pop	{pc}
100043d6:	0002      	movs	r2, r0
100043d8:	000b      	movs	r3, r1
100043da:	2000      	movs	r0, #0
100043dc:	2100      	movs	r1, #0
100043de:	4770      	bx	lr
100043e0:	d0000000 	.word	0xd0000000
100043e4:	ffffffff 	.word	0xffffffff

100043e8 <y64>:
100043e8:	2b00      	cmp	r3, #0
100043ea:	d000      	beq.n	100043ee <y64+0x6>
100043ec:	e0bd      	b.n	1000456a <y64_x48>
100043ee:	0c13      	lsrs	r3, r2, #16
100043f0:	d126      	bne.n	10004440 <y64_x32>
100043f2:	2a00      	cmp	r2, #0
100043f4:	d0e7      	beq.n	100043c6 <udiv0>
100043f6:	b480      	push	{r7}
100043f8:	4f10      	ldr	r7, [pc, #64]	; (1000443c <y64+0x54>)
100043fa:	6639      	str	r1, [r7, #96]	; 0x60
100043fc:	667a      	str	r2, [r7, #100]	; 0x64
100043fe:	e7ff      	b.n	10004400 <y64+0x18>
10004400:	e7ff      	b.n	10004402 <y64+0x1a>
10004402:	b430      	push	{r4, r5}
10004404:	0c04      	lsrs	r4, r0, #16
10004406:	6f7b      	ldr	r3, [r7, #116]	; 0x74
10004408:	6f39      	ldr	r1, [r7, #112]	; 0x70
1000440a:	041b      	lsls	r3, r3, #16
1000440c:	4323      	orrs	r3, r4
1000440e:	663b      	str	r3, [r7, #96]	; 0x60
10004410:	e7ff      	b.n	10004412 <y64+0x2a>
10004412:	e7ff      	b.n	10004414 <y64+0x2c>
10004414:	e7ff      	b.n	10004416 <y64+0x2e>
10004416:	46c0      	nop			; (mov r8, r8)
10004418:	b284      	uxth	r4, r0
1000441a:	6f7b      	ldr	r3, [r7, #116]	; 0x74
1000441c:	6f3d      	ldr	r5, [r7, #112]	; 0x70
1000441e:	041b      	lsls	r3, r3, #16
10004420:	4323      	orrs	r3, r4
10004422:	663b      	str	r3, [r7, #96]	; 0x60
10004424:	e7ff      	b.n	10004426 <y64+0x3e>
10004426:	e7ff      	b.n	10004428 <y64+0x40>
10004428:	46c0      	nop			; (mov r8, r8)
1000442a:	2300      	movs	r3, #0
1000442c:	042c      	lsls	r4, r5, #16
1000442e:	0c2d      	lsrs	r5, r5, #16
10004430:	6f7a      	ldr	r2, [r7, #116]	; 0x74
10004432:	6f38      	ldr	r0, [r7, #112]	; 0x70
10004434:	1900      	adds	r0, r0, r4
10004436:	4169      	adcs	r1, r5
10004438:	bcb0      	pop	{r4, r5, r7}
1000443a:	4770      	bx	lr
1000443c:	d0000000 	.word	0xd0000000

10004440 <y64_x32>:
10004440:	b5f0      	push	{r4, r5, r6, r7, lr}
10004442:	4694      	mov	ip, r2
10004444:	2500      	movs	r5, #0
10004446:	0e14      	lsrs	r4, r2, #24
10004448:	d101      	bne.n	1000444e <y64_x32+0xe>
1000444a:	0212      	lsls	r2, r2, #8
1000444c:	3508      	adds	r5, #8
1000444e:	0f14      	lsrs	r4, r2, #28
10004450:	d101      	bne.n	10004456 <y64_x32+0x16>
10004452:	0112      	lsls	r2, r2, #4
10004454:	3504      	adds	r5, #4
10004456:	0f94      	lsrs	r4, r2, #30
10004458:	d101      	bne.n	1000445e <y64_x32+0x1e>
1000445a:	0092      	lsls	r2, r2, #2
1000445c:	3502      	adds	r5, #2
1000445e:	0fd4      	lsrs	r4, r2, #31
10004460:	d101      	bne.n	10004466 <y64_x32+0x26>
10004462:	0052      	lsls	r2, r2, #1
10004464:	3501      	adds	r5, #1
10004466:	0bd4      	lsrs	r4, r2, #15
10004468:	3401      	adds	r4, #1
1000446a:	4f25      	ldr	r7, [pc, #148]	; (10004500 <y64_x32+0xc0>)
1000446c:	667c      	str	r4, [r7, #100]	; 0x64
1000446e:	4c25      	ldr	r4, [pc, #148]	; (10004504 <y64_x32+0xc4>)
10004470:	663c      	str	r4, [r7, #96]	; 0x60
10004472:	0c0e      	lsrs	r6, r1, #16
10004474:	b293      	uxth	r3, r2
10004476:	e7ff      	b.n	10004478 <y64_x32+0x38>
10004478:	e7ff      	b.n	1000447a <y64_x32+0x3a>
1000447a:	e7ff      	b.n	1000447c <y64_x32+0x3c>
1000447c:	6f3c      	ldr	r4, [r7, #112]	; 0x70
1000447e:	4366      	muls	r6, r4
10004480:	0c36      	lsrs	r6, r6, #16
10004482:	0377      	lsls	r7, r6, #13
10004484:	46be      	mov	lr, r7
10004486:	4373      	muls	r3, r6
10004488:	0bdf      	lsrs	r7, r3, #15
1000448a:	045b      	lsls	r3, r3, #17
1000448c:	1ac0      	subs	r0, r0, r3
1000448e:	41b9      	sbcs	r1, r7
10004490:	0c13      	lsrs	r3, r2, #16
10004492:	4373      	muls	r3, r6
10004494:	18db      	adds	r3, r3, r3
10004496:	1ac9      	subs	r1, r1, r3
10004498:	08ce      	lsrs	r6, r1, #3
1000449a:	4366      	muls	r6, r4
1000449c:	0c36      	lsrs	r6, r6, #16
1000449e:	44b6      	add	lr, r6
100044a0:	b293      	uxth	r3, r2
100044a2:	4373      	muls	r3, r6
100044a4:	0f1f      	lsrs	r7, r3, #28
100044a6:	011b      	lsls	r3, r3, #4
100044a8:	1ac0      	subs	r0, r0, r3
100044aa:	41b9      	sbcs	r1, r7
100044ac:	0c13      	lsrs	r3, r2, #16
100044ae:	4373      	muls	r3, r6
100044b0:	0b1f      	lsrs	r7, r3, #12
100044b2:	051b      	lsls	r3, r3, #20
100044b4:	1ac0      	subs	r0, r0, r3
100044b6:	41b9      	sbcs	r1, r7
100044b8:	0d86      	lsrs	r6, r0, #22
100044ba:	028f      	lsls	r7, r1, #10
100044bc:	433e      	orrs	r6, r7
100044be:	4366      	muls	r6, r4
100044c0:	0c36      	lsrs	r6, r6, #16
100044c2:	2d09      	cmp	r5, #9
100044c4:	db24      	blt.n	10004510 <last0>
100044c6:	0a52      	lsrs	r2, r2, #9
100044c8:	4372      	muls	r2, r6
100044ca:	1a80      	subs	r0, r0, r2
100044cc:	0377      	lsls	r7, r6, #13
100044ce:	0a46      	lsrs	r6, r0, #9
100044d0:	4366      	muls	r6, r4
100044d2:	0c36      	lsrs	r6, r6, #16
100044d4:	2316      	movs	r3, #22
100044d6:	1b5b      	subs	r3, r3, r5
100044d8:	40de      	lsrs	r6, r3
100044da:	40df      	lsrs	r7, r3
100044dc:	19bf      	adds	r7, r7, r6
100044de:	4664      	mov	r4, ip
100044e0:	4366      	muls	r6, r4
100044e2:	1b82      	subs	r2, r0, r6
100044e4:	4670      	mov	r0, lr
100044e6:	3504      	adds	r5, #4
100044e8:	3306      	adds	r3, #6
100044ea:	0001      	movs	r1, r0
100044ec:	40d9      	lsrs	r1, r3
100044ee:	40a8      	lsls	r0, r5
100044f0:	19c0      	adds	r0, r0, r7
100044f2:	d300      	bcc.n	100044f6 <y64_x32+0xb6>
100044f4:	3101      	adds	r1, #1
100044f6:	42a2      	cmp	r2, r4
100044f8:	d206      	bcs.n	10004508 <y64_x32+0xc8>
100044fa:	2300      	movs	r3, #0
100044fc:	bdf0      	pop	{r4, r5, r6, r7, pc}
100044fe:	0000      	.short	0x0000
10004500:	d0000000 	.word	0xd0000000
10004504:	ffffffff 	.word	0xffffffff
10004508:	1b12      	subs	r2, r2, r4
1000450a:	3001      	adds	r0, #1
1000450c:	d3f3      	bcc.n	100044f6 <y64_x32+0xb6>
1000450e:	e7f1      	b.n	100044f4 <y64_x32+0xb4>

10004510 <last0>:
10004510:	2709      	movs	r7, #9
10004512:	1b7f      	subs	r7, r7, r5
10004514:	40fe      	lsrs	r6, r7
10004516:	4664      	mov	r4, ip
10004518:	b2a2      	uxth	r2, r4
1000451a:	4372      	muls	r2, r6
1000451c:	1a80      	subs	r0, r0, r2
1000451e:	d200      	bcs.n	10004522 <last0+0x12>
10004520:	3901      	subs	r1, #1
10004522:	0c22      	lsrs	r2, r4, #16
10004524:	4372      	muls	r2, r6
10004526:	0c13      	lsrs	r3, r2, #16
10004528:	0412      	lsls	r2, r2, #16
1000452a:	1a82      	subs	r2, r0, r2
1000452c:	4199      	sbcs	r1, r3
1000452e:	000b      	movs	r3, r1
10004530:	4670      	mov	r0, lr
10004532:	3504      	adds	r5, #4
10004534:	3713      	adds	r7, #19
10004536:	0001      	movs	r1, r0
10004538:	40f9      	lsrs	r1, r7
1000453a:	40a8      	lsls	r0, r5
1000453c:	1980      	adds	r0, r0, r6
1000453e:	d300      	bcc.n	10004542 <last0+0x32>
10004540:	3101      	adds	r1, #1
10004542:	2b00      	cmp	r3, #0
10004544:	d102      	bne.n	1000454c <last0+0x3c>
10004546:	42a2      	cmp	r2, r4
10004548:	d20a      	bcs.n	10004560 <last0+0x50>
1000454a:	bdf0      	pop	{r4, r5, r6, r7, pc}
1000454c:	3001      	adds	r0, #1
1000454e:	d300      	bcc.n	10004552 <last0+0x42>
10004550:	3101      	adds	r1, #1
10004552:	1b12      	subs	r2, r2, r4
10004554:	d2fa      	bcs.n	1000454c <last0+0x3c>
10004556:	3b01      	subs	r3, #1
10004558:	d1f8      	bne.n	1000454c <last0+0x3c>
1000455a:	42a2      	cmp	r2, r4
1000455c:	d200      	bcs.n	10004560 <last0+0x50>
1000455e:	bdf0      	pop	{r4, r5, r6, r7, pc}
10004560:	3001      	adds	r0, #1
10004562:	d300      	bcc.n	10004566 <last0+0x56>
10004564:	3101      	adds	r1, #1
10004566:	1b12      	subs	r2, r2, r4
10004568:	e7f7      	b.n	1000455a <last0+0x4a>

1000456a <y64_x48>:
1000456a:	b5f0      	push	{r4, r5, r6, r7, lr}
1000456c:	0c1c      	lsrs	r4, r3, #16
1000456e:	d000      	beq.n	10004572 <y64_x48+0x8>
10004570:	e080      	b.n	10004674 <y64_x64>
10004572:	b40c      	push	{r2, r3}
10004574:	2500      	movs	r5, #0
10004576:	0a1c      	lsrs	r4, r3, #8
10004578:	d104      	bne.n	10004584 <y64_x48+0x1a>
1000457a:	021b      	lsls	r3, r3, #8
1000457c:	0e16      	lsrs	r6, r2, #24
1000457e:	4333      	orrs	r3, r6
10004580:	0212      	lsls	r2, r2, #8
10004582:	3508      	adds	r5, #8
10004584:	0b1c      	lsrs	r4, r3, #12
10004586:	d104      	bne.n	10004592 <y64_x48+0x28>
10004588:	011b      	lsls	r3, r3, #4
1000458a:	0f16      	lsrs	r6, r2, #28
1000458c:	4333      	orrs	r3, r6
1000458e:	0112      	lsls	r2, r2, #4
10004590:	3504      	adds	r5, #4
10004592:	0b9c      	lsrs	r4, r3, #14
10004594:	d104      	bne.n	100045a0 <y64_x48+0x36>
10004596:	009b      	lsls	r3, r3, #2
10004598:	0f96      	lsrs	r6, r2, #30
1000459a:	4333      	orrs	r3, r6
1000459c:	0092      	lsls	r2, r2, #2
1000459e:	3502      	adds	r5, #2
100045a0:	0bdc      	lsrs	r4, r3, #15
100045a2:	d102      	bne.n	100045aa <y64_x48+0x40>
100045a4:	1892      	adds	r2, r2, r2
100045a6:	415b      	adcs	r3, r3
100045a8:	3501      	adds	r5, #1
100045aa:	001c      	movs	r4, r3
100045ac:	1897      	adds	r7, r2, r2
100045ae:	4164      	adcs	r4, r4
100045b0:	3401      	adds	r4, #1
100045b2:	4f46      	ldr	r7, [pc, #280]	; (100046cc <y64_x64+0x58>)
100045b4:	667c      	str	r4, [r7, #100]	; 0x64
100045b6:	4c46      	ldr	r4, [pc, #280]	; (100046d0 <y64_x64+0x5c>)
100045b8:	663c      	str	r4, [r7, #96]	; 0x60
100045ba:	0c0e      	lsrs	r6, r1, #16
100045bc:	e7ff      	b.n	100045be <y64_x48+0x54>
100045be:	e7ff      	b.n	100045c0 <y64_x48+0x56>
100045c0:	e7ff      	b.n	100045c2 <y64_x48+0x58>
100045c2:	46c0      	nop			; (mov r8, r8)
100045c4:	6f3c      	ldr	r4, [r7, #112]	; 0x70
100045c6:	4366      	muls	r6, r4
100045c8:	0c36      	lsrs	r6, r6, #16
100045ca:	0377      	lsls	r7, r6, #13
100045cc:	46be      	mov	lr, r7
100045ce:	b297      	uxth	r7, r2
100045d0:	4377      	muls	r7, r6
100045d2:	1bc0      	subs	r0, r0, r7
100045d4:	d200      	bcs.n	100045d8 <y64_x48+0x6e>
100045d6:	3901      	subs	r1, #1
100045d8:	1bc0      	subs	r0, r0, r7
100045da:	d200      	bcs.n	100045de <y64_x48+0x74>
100045dc:	3901      	subs	r1, #1
100045de:	b29f      	uxth	r7, r3
100045e0:	4377      	muls	r7, r6
100045e2:	1bc9      	subs	r1, r1, r7
100045e4:	1bc9      	subs	r1, r1, r7
100045e6:	0c17      	lsrs	r7, r2, #16
100045e8:	4377      	muls	r7, r6
100045ea:	047e      	lsls	r6, r7, #17
100045ec:	0bff      	lsrs	r7, r7, #15
100045ee:	1b80      	subs	r0, r0, r6
100045f0:	41b9      	sbcs	r1, r7
100045f2:	08ce      	lsrs	r6, r1, #3
100045f4:	4366      	muls	r6, r4
100045f6:	0c36      	lsrs	r6, r6, #16
100045f8:	2d0c      	cmp	r5, #12
100045fa:	db33      	blt.n	10004664 <last1>
100045fc:	44b6      	add	lr, r6
100045fe:	0b12      	lsrs	r2, r2, #12
10004600:	051f      	lsls	r7, r3, #20
10004602:	433a      	orrs	r2, r7
10004604:	0b1b      	lsrs	r3, r3, #12
10004606:	b297      	uxth	r7, r2
10004608:	4377      	muls	r7, r6
1000460a:	1bc0      	subs	r0, r0, r7
1000460c:	d200      	bcs.n	10004610 <y64_x48+0xa6>
1000460e:	3901      	subs	r1, #1
10004610:	b29f      	uxth	r7, r3
10004612:	4377      	muls	r7, r6
10004614:	1bc9      	subs	r1, r1, r7
10004616:	0c17      	lsrs	r7, r2, #16
10004618:	4377      	muls	r7, r6
1000461a:	043e      	lsls	r6, r7, #16
1000461c:	0c3f      	lsrs	r7, r7, #16
1000461e:	1b80      	subs	r0, r0, r6
10004620:	41b9      	sbcs	r1, r7
10004622:	0d86      	lsrs	r6, r0, #22
10004624:	028f      	lsls	r7, r1, #10
10004626:	433e      	orrs	r6, r7
10004628:	4366      	muls	r6, r4
1000462a:	2729      	movs	r7, #41	; 0x29
1000462c:	1b7f      	subs	r7, r7, r5
1000462e:	40fe      	lsrs	r6, r7
10004630:	3d0c      	subs	r5, #12
10004632:	4677      	mov	r7, lr
10004634:	40af      	lsls	r7, r5
10004636:	19bf      	adds	r7, r7, r6
10004638:	bc30      	pop	{r4, r5}
1000463a:	b2a2      	uxth	r2, r4
1000463c:	b2ab      	uxth	r3, r5
1000463e:	4372      	muls	r2, r6
10004640:	4373      	muls	r3, r6
10004642:	1a80      	subs	r0, r0, r2
10004644:	4199      	sbcs	r1, r3
10004646:	0c22      	lsrs	r2, r4, #16
10004648:	4372      	muls	r2, r6
1000464a:	0c13      	lsrs	r3, r2, #16
1000464c:	0412      	lsls	r2, r2, #16
1000464e:	1a80      	subs	r0, r0, r2
10004650:	4199      	sbcs	r1, r3
10004652:	0002      	movs	r2, r0
10004654:	000b      	movs	r3, r1
10004656:	3701      	adds	r7, #1
10004658:	1b00      	subs	r0, r0, r4
1000465a:	41a9      	sbcs	r1, r5
1000465c:	d2f9      	bcs.n	10004652 <y64_x48+0xe8>
1000465e:	1e78      	subs	r0, r7, #1
10004660:	2100      	movs	r1, #0
10004662:	bdf0      	pop	{r4, r5, r6, r7, pc}

10004664 <last1>:
10004664:	270c      	movs	r7, #12
10004666:	1b7f      	subs	r7, r7, r5
10004668:	40fe      	lsrs	r6, r7
1000466a:	4677      	mov	r7, lr
1000466c:	0b7f      	lsrs	r7, r7, #13
1000466e:	40af      	lsls	r7, r5
10004670:	19ff      	adds	r7, r7, r7
10004672:	e7e0      	b.n	10004636 <y64_x48+0xcc>

10004674 <y64_x64>:
10004674:	2400      	movs	r4, #0
10004676:	1c5d      	adds	r5, r3, #1
10004678:	d007      	beq.n	1000468a <y64_x64+0x16>
1000467a:	4f14      	ldr	r7, [pc, #80]	; (100046cc <y64_x64+0x58>)
1000467c:	667d      	str	r5, [r7, #100]	; 0x64
1000467e:	6639      	str	r1, [r7, #96]	; 0x60
10004680:	e7ff      	b.n	10004682 <y64_x64+0xe>
10004682:	e7ff      	b.n	10004684 <y64_x64+0x10>
10004684:	e7ff      	b.n	10004686 <y64_x64+0x12>
10004686:	e7ff      	b.n	10004688 <y64_x64+0x14>
10004688:	6f3c      	ldr	r4, [r7, #112]	; 0x70
1000468a:	b295      	uxth	r5, r2
1000468c:	b29e      	uxth	r6, r3
1000468e:	4365      	muls	r5, r4
10004690:	4366      	muls	r6, r4
10004692:	1b40      	subs	r0, r0, r5
10004694:	41b1      	sbcs	r1, r6
10004696:	0c15      	lsrs	r5, r2, #16
10004698:	0c1e      	lsrs	r6, r3, #16
1000469a:	4365      	muls	r5, r4
1000469c:	4366      	muls	r6, r4
1000469e:	0436      	lsls	r6, r6, #16
100046a0:	0c2f      	lsrs	r7, r5, #16
100046a2:	433e      	orrs	r6, r7
100046a4:	042d      	lsls	r5, r5, #16
100046a6:	1b40      	subs	r0, r0, r5
100046a8:	41b1      	sbcs	r1, r6
100046aa:	4299      	cmp	r1, r3
100046ac:	d204      	bcs.n	100046b8 <y64_x64+0x44>
100046ae:	0002      	movs	r2, r0
100046b0:	000b      	movs	r3, r1
100046b2:	0020      	movs	r0, r4
100046b4:	2100      	movs	r1, #0
100046b6:	bdf0      	pop	{r4, r5, r6, r7, pc}
100046b8:	d101      	bne.n	100046be <y64_x64+0x4a>
100046ba:	4290      	cmp	r0, r2
100046bc:	d3f7      	bcc.n	100046ae <y64_x64+0x3a>
100046be:	1a80      	subs	r0, r0, r2
100046c0:	4199      	sbcs	r1, r3
100046c2:	3401      	adds	r4, #1
100046c4:	4299      	cmp	r1, r3
100046c6:	d3f2      	bcc.n	100046ae <y64_x64+0x3a>
100046c8:	e7f6      	b.n	100046b8 <y64_x64+0x44>
100046ca:	0000      	.short	0x0000
100046cc:	d0000000 	.word	0xd0000000
100046d0:	ffffffff 	.word	0xffffffff

100046d4 <__wrap___aeabi_drsub>:
100046d4:	4048      	eors	r0, r1
100046d6:	4041      	eors	r1, r0
100046d8:	4048      	eors	r0, r1

100046da <__wrap___aeabi_dsub>:
100046da:	b418      	push	{r3, r4}
100046dc:	4b11      	ldr	r3, [pc, #68]	; (10004724 <__wrap___aeabi_dmul+0x14>)
100046de:	685b      	ldr	r3, [r3, #4]
100046e0:	46fc      	mov	ip, pc
100046e2:	9301      	str	r3, [sp, #4]
100046e4:	bd08      	pop	{r3, pc}
100046e6:	df04      	.short	0xdf04
100046e8:	1000495f 	.word	0x1000495f

100046ec <__wrap___aeabi_dadd>:
100046ec:	b418      	push	{r3, r4}
100046ee:	4b0d      	ldr	r3, [pc, #52]	; (10004724 <__wrap___aeabi_dmul+0x14>)
100046f0:	681b      	ldr	r3, [r3, #0]
100046f2:	46fc      	mov	ip, pc
100046f4:	9301      	str	r3, [sp, #4]
100046f6:	bd08      	pop	{r3, pc}
100046f8:	4969df00 	.word	0x4969df00
100046fc:	1000      	.short	0x1000

100046fe <__wrap___aeabi_ddiv>:
100046fe:	b418      	push	{r3, r4}
10004700:	4b08      	ldr	r3, [pc, #32]	; (10004724 <__wrap___aeabi_dmul+0x14>)
10004702:	68db      	ldr	r3, [r3, #12]
10004704:	46fc      	mov	ip, pc
10004706:	9301      	str	r3, [sp, #4]
10004708:	bd08      	pop	{r3, pc}
1000470a:	df0c      	.short	0xdf0c
1000470c:	10004c21 	.word	0x10004c21

10004710 <__wrap___aeabi_dmul>:
10004710:	b418      	push	{r3, r4}
10004712:	4b04      	ldr	r3, [pc, #16]	; (10004724 <__wrap___aeabi_dmul+0x14>)
10004714:	689b      	ldr	r3, [r3, #8]
10004716:	46fc      	mov	ip, pc
10004718:	9301      	str	r3, [sp, #4]
1000471a:	bd08      	pop	{r3, pc}
1000471c:	4ac5df08 	.word	0x4ac5df08
10004720:	00001000 	.word	0x00001000
10004724:	20000d04 	.word	0x20000d04

10004728 <__wrap___aeabi_cdrcmple>:
10004728:	b5ff      	push	{r0, r1, r2, r3, r4, r5, r6, r7, lr}
1000472a:	4050      	eors	r0, r2
1000472c:	4042      	eors	r2, r0
1000472e:	4050      	eors	r0, r2
10004730:	4059      	eors	r1, r3
10004732:	404b      	eors	r3, r1
10004734:	4059      	eors	r1, r3
10004736:	e000      	b.n	1000473a <__aeabi_dfcmple_guts>

10004738 <__wrap___aeabi_cdcmpeq>:
10004738:	b5ff      	push	{r0, r1, r2, r3, r4, r5, r6, r7, lr}

1000473a <__aeabi_dfcmple_guts>:
1000473a:	4f15      	ldr	r7, [pc, #84]	; (10004790 <__aeabi_dfcmple_guts+0x56>)
1000473c:	004c      	lsls	r4, r1, #1
1000473e:	0d64      	lsrs	r4, r4, #21
10004740:	d003      	beq.n	1000474a <__aeabi_dfcmple_guts+0x10>
10004742:	42bc      	cmp	r4, r7
10004744:	d104      	bne.n	10004750 <__aeabi_dfcmple_guts+0x16>
10004746:	030c      	lsls	r4, r1, #12
10004748:	d814      	bhi.n	10004774 <__aeabi_dfcmple_guts+0x3a>
1000474a:	2000      	movs	r0, #0
1000474c:	0d09      	lsrs	r1, r1, #20
1000474e:	0509      	lsls	r1, r1, #20
10004750:	005c      	lsls	r4, r3, #1
10004752:	0d64      	lsrs	r4, r4, #21
10004754:	d003      	beq.n	1000475e <__aeabi_dfcmple_guts+0x24>
10004756:	42bc      	cmp	r4, r7
10004758:	d104      	bne.n	10004764 <__aeabi_dfcmple_guts+0x2a>
1000475a:	031c      	lsls	r4, r3, #12
1000475c:	d80a      	bhi.n	10004774 <__aeabi_dfcmple_guts+0x3a>
1000475e:	2200      	movs	r2, #0
10004760:	0d1b      	lsrs	r3, r3, #20
10004762:	051b      	lsls	r3, r3, #20
10004764:	2601      	movs	r6, #1
10004766:	404b      	eors	r3, r1
10004768:	d409      	bmi.n	1000477e <__aeabi_dfcmple_guts+0x44>
1000476a:	404b      	eors	r3, r1
1000476c:	d503      	bpl.n	10004776 <__aeabi_dfcmple_guts+0x3c>
1000476e:	428b      	cmp	r3, r1
10004770:	d100      	bne.n	10004774 <__aeabi_dfcmple_guts+0x3a>
10004772:	4282      	cmp	r2, r0
10004774:	bdff      	pop	{r0, r1, r2, r3, r4, r5, r6, r7, pc}
10004776:	4299      	cmp	r1, r3
10004778:	d1fc      	bne.n	10004774 <__aeabi_dfcmple_guts+0x3a>
1000477a:	4290      	cmp	r0, r2
1000477c:	bdff      	pop	{r0, r1, r2, r3, r4, r5, r6, r7, pc}
1000477e:	430b      	orrs	r3, r1
10004780:	18db      	adds	r3, r3, r3
10004782:	4303      	orrs	r3, r0
10004784:	4313      	orrs	r3, r2
10004786:	d0f5      	beq.n	10004774 <__aeabi_dfcmple_guts+0x3a>
10004788:	43c9      	mvns	r1, r1
1000478a:	1849      	adds	r1, r1, r1
1000478c:	bdff      	pop	{r0, r1, r2, r3, r4, r5, r6, r7, pc}
1000478e:	0000      	.short	0x0000
10004790:	000007ff 	.word	0x000007ff

10004794 <__wrap___aeabi_dcmplt>:
10004794:	b500      	push	{lr}
10004796:	f7ff ffcf 	bl	10004738 <__wrap___aeabi_cdcmpeq>
1000479a:	4180      	sbcs	r0, r0
1000479c:	bd00      	pop	{pc}
1000479e:	46c0      	nop			; (mov r8, r8)

100047a0 <__wrap___aeabi_dcmple>:
100047a0:	b500      	push	{lr}
100047a2:	f7ff ffc9 	bl	10004738 <__wrap___aeabi_cdcmpeq>
100047a6:	d901      	bls.n	100047ac <__wrap___aeabi_dcmple+0xc>
100047a8:	2000      	movs	r0, #0
100047aa:	bd00      	pop	{pc}
100047ac:	2001      	movs	r0, #1
100047ae:	bd00      	pop	{pc}

100047b0 <__wrap___aeabi_dcmpge>:
100047b0:	b500      	push	{lr}
100047b2:	f7ff ffb9 	bl	10004728 <__wrap___aeabi_cdrcmple>
100047b6:	d901      	bls.n	100047bc <__wrap___aeabi_dcmpge+0xc>
100047b8:	2000      	movs	r0, #0
100047ba:	bd00      	pop	{pc}
100047bc:	2001      	movs	r0, #1
100047be:	bd00      	pop	{pc}

100047c0 <__wrap___aeabi_dcmpgt>:
100047c0:	b500      	push	{lr}
100047c2:	f7ff ffb1 	bl	10004728 <__wrap___aeabi_cdrcmple>
100047c6:	4180      	sbcs	r0, r0
100047c8:	bd00      	pop	{pc}

100047ca <__wrap___aeabi_dcmpun>:
100047ca:	2001      	movs	r0, #1
100047cc:	0540      	lsls	r0, r0, #21
100047ce:	004a      	lsls	r2, r1, #1
100047d0:	1812      	adds	r2, r2, r0
100047d2:	d804      	bhi.n	100047de <__wrap___aeabi_dcmpun+0x14>
100047d4:	005a      	lsls	r2, r3, #1
100047d6:	1812      	adds	r2, r2, r0
100047d8:	d801      	bhi.n	100047de <__wrap___aeabi_dcmpun+0x14>
100047da:	2000      	movs	r0, #0
100047dc:	4770      	bx	lr
100047de:	2001      	movs	r0, #1
100047e0:	4770      	bx	lr
100047e2:	2000      	movs	r0, #0
100047e4:	4770      	bx	lr
	...

100047e8 <__wrap___aeabi_ui2d>:
100047e8:	2100      	movs	r1, #0
100047ea:	2800      	cmp	r0, #0
100047ec:	d105      	bne.n	100047fa <__wrap___aeabi_i2d+0xa>
100047ee:	4770      	bx	lr

100047f0 <__wrap___aeabi_i2d>:
100047f0:	17c1      	asrs	r1, r0, #31
100047f2:	4048      	eors	r0, r1
100047f4:	1a40      	subs	r0, r0, r1
100047f6:	d0fa      	beq.n	100047ee <__wrap___aeabi_ui2d+0x6>
100047f8:	07c9      	lsls	r1, r1, #31
100047fa:	b513      	push	{r0, r1, r4, lr}
100047fc:	4b06      	ldr	r3, [pc, #24]	; (10004818 <__wrap___aeabi_i2d+0x28>)
100047fe:	681b      	ldr	r3, [r3, #0]
10004800:	4798      	blx	r3
10004802:	bc0c      	pop	{r2, r3}
10004804:	1c44      	adds	r4, r0, #1
10004806:	40a2      	lsls	r2, r4
10004808:	0510      	lsls	r0, r2, #20
1000480a:	0b12      	lsrs	r2, r2, #12
1000480c:	4903      	ldr	r1, [pc, #12]	; (1000481c <__wrap___aeabi_i2d+0x2c>)
1000480e:	1b09      	subs	r1, r1, r4
10004810:	0509      	lsls	r1, r1, #20
10004812:	4319      	orrs	r1, r3
10004814:	4311      	orrs	r1, r2
10004816:	bd10      	pop	{r4, pc}
10004818:	20000f04 	.word	0x20000f04
1000481c:	0000041f 	.word	0x0000041f

10004820 <__wrap___aeabi_d2iz>:
10004820:	b510      	push	{r4, lr}
10004822:	004c      	lsls	r4, r1, #1
10004824:	0d62      	lsrs	r2, r4, #21
10004826:	2380      	movs	r3, #128	; 0x80
10004828:	18d2      	adds	r2, r2, r3
1000482a:	00db      	lsls	r3, r3, #3
1000482c:	1ad2      	subs	r2, r2, r3
1000482e:	055b      	lsls	r3, r3, #21
10004830:	2a7e      	cmp	r2, #126	; 0x7e
10004832:	dd10      	ble.n	10004856 <__wrap___aeabi_d2iz+0x36>
10004834:	3a9e      	subs	r2, #158	; 0x9e
10004836:	da13      	bge.n	10004860 <__wrap___aeabi_d2iz+0x40>
10004838:	17cc      	asrs	r4, r1, #31
1000483a:	0309      	lsls	r1, r1, #12
1000483c:	0849      	lsrs	r1, r1, #1
1000483e:	4319      	orrs	r1, r3
10004840:	4252      	negs	r2, r2
10004842:	40d1      	lsrs	r1, r2
10004844:	0064      	lsls	r4, r4, #1
10004846:	3401      	adds	r4, #1
10004848:	3215      	adds	r2, #21
1000484a:	2a20      	cmp	r2, #32
1000484c:	da05      	bge.n	1000485a <__wrap___aeabi_d2iz+0x3a>
1000484e:	40d0      	lsrs	r0, r2
10004850:	4308      	orrs	r0, r1
10004852:	4360      	muls	r0, r4
10004854:	bd10      	pop	{r4, pc}
10004856:	2000      	movs	r0, #0
10004858:	bd10      	pop	{r4, pc}
1000485a:	4608      	mov	r0, r1
1000485c:	4360      	muls	r0, r4
1000485e:	bd10      	pop	{r4, pc}
10004860:	0fc8      	lsrs	r0, r1, #31
10004862:	18c0      	adds	r0, r0, r3
10004864:	3801      	subs	r0, #1
10004866:	bd10      	pop	{r4, pc}

10004868 <__wrap___aeabi_d2uiz>:
10004868:	b418      	push	{r3, r4}
1000486a:	4b04      	ldr	r3, [pc, #16]	; (1000487c <__wrap___aeabi_d2uiz+0x14>)
1000486c:	6a5b      	ldr	r3, [r3, #36]	; 0x24
1000486e:	46fc      	mov	ip, pc
10004870:	9301      	str	r3, [sp, #4]
10004872:	bd08      	pop	{r3, pc}
10004874:	4e4ddf24 	.word	0x4e4ddf24
10004878:	00001000 	.word	0x00001000
1000487c:	20000d04 	.word	0x20000d04

10004880 <__aeabi_double_init>:
10004880:	2313      	movs	r3, #19
10004882:	b570      	push	{r4, r5, r6, lr}
10004884:	781d      	ldrb	r5, [r3, #0]
10004886:	2d01      	cmp	r5, #1
10004888:	d010      	beq.n	100048ac <__aeabi_double_init+0x2c>
1000488a:	dd0b      	ble.n	100048a4 <__aeabi_double_init+0x24>
1000488c:	4824      	ldr	r0, [pc, #144]	; (10004920 <__aeabi_double_init+0xa0>)
1000488e:	f7ff fc8d 	bl	100041ac <rom_data_lookup>
10004892:	4c24      	ldr	r4, [pc, #144]	; (10004924 <__aeabi_double_init+0xa4>)
10004894:	0001      	movs	r1, r0
10004896:	2280      	movs	r2, #128	; 0x80
10004898:	0020      	movs	r0, r4
1000489a:	f000 fb91 	bl	10004fc0 <__wrap___aeabi_memcpy>
1000489e:	2d02      	cmp	r5, #2
100048a0:	d001      	beq.n	100048a6 <__aeabi_double_init+0x26>
100048a2:	bd70      	pop	{r4, r5, r6, pc}
100048a4:	4c1f      	ldr	r4, [pc, #124]	; (10004924 <__aeabi_double_init+0xa4>)
100048a6:	4a20      	ldr	r2, [pc, #128]	; (10004928 <__aeabi_double_init+0xa8>)
100048a8:	64a2      	str	r2, [r4, #72]	; 0x48
100048aa:	e7fa      	b.n	100048a2 <__aeabi_double_init+0x22>
100048ac:	002e      	movs	r6, r5
100048ae:	4c1d      	ldr	r4, [pc, #116]	; (10004924 <__aeabi_double_init+0xa4>)
100048b0:	4a1d      	ldr	r2, [pc, #116]	; (10004928 <__aeabi_double_init+0xa8>)
100048b2:	08a3      	lsrs	r3, r4, #2
100048b4:	425b      	negs	r3, r3
100048b6:	401e      	ands	r6, r3
100048b8:	421d      	tst	r5, r3
100048ba:	d02f      	beq.n	1000491c <__aeabi_double_init+0x9c>
100048bc:	0033      	movs	r3, r6
100048be:	6022      	str	r2, [r4, #0]
100048c0:	2020      	movs	r0, #32
100048c2:	00b1      	lsls	r1, r6, #2
100048c4:	1861      	adds	r1, r4, r1
100048c6:	1b80      	subs	r0, r0, r6
100048c8:	600a      	str	r2, [r1, #0]
100048ca:	604a      	str	r2, [r1, #4]
100048cc:	608a      	str	r2, [r1, #8]
100048ce:	60ca      	str	r2, [r1, #12]
100048d0:	610a      	str	r2, [r1, #16]
100048d2:	614a      	str	r2, [r1, #20]
100048d4:	618a      	str	r2, [r1, #24]
100048d6:	61ca      	str	r2, [r1, #28]
100048d8:	620a      	str	r2, [r1, #32]
100048da:	624a      	str	r2, [r1, #36]	; 0x24
100048dc:	628a      	str	r2, [r1, #40]	; 0x28
100048de:	62ca      	str	r2, [r1, #44]	; 0x2c
100048e0:	630a      	str	r2, [r1, #48]	; 0x30
100048e2:	634a      	str	r2, [r1, #52]	; 0x34
100048e4:	638a      	str	r2, [r1, #56]	; 0x38
100048e6:	63ca      	str	r2, [r1, #60]	; 0x3c
100048e8:	640a      	str	r2, [r1, #64]	; 0x40
100048ea:	644a      	str	r2, [r1, #68]	; 0x44
100048ec:	648a      	str	r2, [r1, #72]	; 0x48
100048ee:	64ca      	str	r2, [r1, #76]	; 0x4c
100048f0:	650a      	str	r2, [r1, #80]	; 0x50
100048f2:	654a      	str	r2, [r1, #84]	; 0x54
100048f4:	658a      	str	r2, [r1, #88]	; 0x58
100048f6:	65ca      	str	r2, [r1, #92]	; 0x5c
100048f8:	660a      	str	r2, [r1, #96]	; 0x60
100048fa:	664a      	str	r2, [r1, #100]	; 0x64
100048fc:	668a      	str	r2, [r1, #104]	; 0x68
100048fe:	66ca      	str	r2, [r1, #108]	; 0x6c
10004900:	670a      	str	r2, [r1, #112]	; 0x70
10004902:	674a      	str	r2, [r1, #116]	; 0x74
10004904:	0840      	lsrs	r0, r0, #1
10004906:	2810      	cmp	r0, #16
10004908:	d103      	bne.n	10004912 <__aeabi_double_init+0x92>
1000490a:	678a      	str	r2, [r1, #120]	; 0x78
1000490c:	67ca      	str	r2, [r1, #124]	; 0x7c
1000490e:	64a2      	str	r2, [r4, #72]	; 0x48
10004910:	e7c7      	b.n	100048a2 <__aeabi_double_init+0x22>
10004912:	331e      	adds	r3, #30
10004914:	009b      	lsls	r3, r3, #2
10004916:	50e2      	str	r2, [r4, r3]
10004918:	64a2      	str	r2, [r4, #72]	; 0x48
1000491a:	e7c2      	b.n	100048a2 <__aeabi_double_init+0x22>
1000491c:	2300      	movs	r3, #0
1000491e:	e7cf      	b.n	100048c0 <__aeabi_double_init+0x40>
10004920:	00004453 	.word	0x00004453
10004924:	20000d04 	.word	0x20000d04
10004928:	1000492d 	.word	0x1000492d

1000492c <double_table_shim_on_use_helper>:
1000492c:	b507      	push	{r0, r1, r2, lr}
1000492e:	4660      	mov	r0, ip
10004930:	8801      	ldrh	r1, [r0, #0]
10004932:	0a0a      	lsrs	r2, r1, #8
10004934:	3002      	adds	r0, #2
10004936:	2adf      	cmp	r2, #223	; 0xdf
10004938:	d1fa      	bne.n	10004930 <double_table_shim_on_use_helper+0x4>
1000493a:	b2c9      	uxtb	r1, r1
1000493c:	0882      	lsrs	r2, r0, #2
1000493e:	d304      	bcc.n	1000494a <double_table_shim_on_use_helper+0x1e>
10004940:	8802      	ldrh	r2, [r0, #0]
10004942:	8840      	ldrh	r0, [r0, #2]
10004944:	0400      	lsls	r0, r0, #16
10004946:	4310      	orrs	r0, r2
10004948:	e000      	b.n	1000494c <double_table_shim_on_use_helper+0x20>
1000494a:	6800      	ldr	r0, [r0, #0]
1000494c:	4a01      	ldr	r2, [pc, #4]	; (10004954 <double_table_shim_on_use_helper+0x28>)
1000494e:	5050      	str	r0, [r2, r1]
10004950:	9003      	str	r0, [sp, #12]
10004952:	bd07      	pop	{r0, r1, r2, pc}
10004954:	20000d04 	.word	0x20000d04

10004958 <drsub_shim>:
10004958:	b40f      	push	{r0, r1, r2, r3}
1000495a:	bc03      	pop	{r0, r1}
1000495c:	bc0c      	pop	{r2, r3}

1000495e <dsub_shim>:
1000495e:	b5f0      	push	{r4, r5, r6, r7, lr}
10004960:	2401      	movs	r4, #1
10004962:	07e4      	lsls	r4, r4, #31
10004964:	4063      	eors	r3, r4
10004966:	e000      	b.n	1000496a <da_entry>

10004968 <dadd_shim>:
10004968:	b5f0      	push	{r4, r5, r6, r7, lr}

1000496a <da_entry>:
1000496a:	0d0c      	lsrs	r4, r1, #20
1000496c:	0fcf      	lsrs	r7, r1, #31
1000496e:	1e66      	subs	r6, r4, #1
10004970:	0536      	lsls	r6, r6, #20
10004972:	1b89      	subs	r1, r1, r6
10004974:	0564      	lsls	r4, r4, #21
10004976:	d303      	bcc.n	10004980 <l7_1>
10004978:	43c9      	mvns	r1, r1
1000497a:	4240      	negs	r0, r0
1000497c:	d300      	bcc.n	10004980 <l7_1>
1000497e:	3101      	adds	r1, #1

10004980 <l7_1>:
10004980:	0d64      	lsrs	r4, r4, #21
10004982:	d003      	beq.n	1000498c <l7_2>
10004984:	1c66      	adds	r6, r4, #1
10004986:	0af6      	lsrs	r6, r6, #11
10004988:	d007      	beq.n	1000499a <l7_3>
1000498a:	1be4      	subs	r4, r4, r7

1000498c <l7_2>:
1000498c:	2000      	movs	r0, #0
1000498e:	007f      	lsls	r7, r7, #1
10004990:	1c79      	adds	r1, r7, #1
10004992:	0789      	lsls	r1, r1, #30
10004994:	1289      	asrs	r1, r1, #10
10004996:	3c80      	subs	r4, #128	; 0x80
10004998:	0324      	lsls	r4, r4, #12

1000499a <l7_3>:
1000499a:	0d1d      	lsrs	r5, r3, #20
1000499c:	0fdf      	lsrs	r7, r3, #31
1000499e:	1e6e      	subs	r6, r5, #1
100049a0:	0536      	lsls	r6, r6, #20
100049a2:	1b9b      	subs	r3, r3, r6
100049a4:	056d      	lsls	r5, r5, #21
100049a6:	d303      	bcc.n	100049b0 <l8_1>
100049a8:	43db      	mvns	r3, r3
100049aa:	4252      	negs	r2, r2
100049ac:	d300      	bcc.n	100049b0 <l8_1>
100049ae:	3301      	adds	r3, #1

100049b0 <l8_1>:
100049b0:	0d6d      	lsrs	r5, r5, #21
100049b2:	d003      	beq.n	100049bc <l8_2>
100049b4:	1c6e      	adds	r6, r5, #1
100049b6:	0af6      	lsrs	r6, r6, #11
100049b8:	d007      	beq.n	100049ca <l8_3>
100049ba:	1bed      	subs	r5, r5, r7

100049bc <l8_2>:
100049bc:	2200      	movs	r2, #0
100049be:	007f      	lsls	r7, r7, #1
100049c0:	1c7b      	adds	r3, r7, #1
100049c2:	079b      	lsls	r3, r3, #30
100049c4:	129b      	asrs	r3, r3, #10
100049c6:	3d80      	subs	r5, #128	; 0x80
100049c8:	032d      	lsls	r5, r5, #12

100049ca <l8_3>:
100049ca:	1b2f      	subs	r7, r5, r4
100049cc:	1b66      	subs	r6, r4, r5
100049ce:	d458      	bmi.n	10004a82 <da_ygtx>
100049d0:	46a4      	mov	ip, r4
100049d2:	2e20      	cmp	r6, #32
100049d4:	da46      	bge.n	10004a64 <da_xrgty>
100049d6:	3720      	adds	r7, #32
100049d8:	0014      	movs	r4, r2
100049da:	40bc      	lsls	r4, r7

100049dc <da_xgty0>:
100049dc:	001d      	movs	r5, r3
100049de:	40bd      	lsls	r5, r7
100049e0:	40f2      	lsrs	r2, r6
100049e2:	4133      	asrs	r3, r6
100049e4:	432a      	orrs	r2, r5

100049e6 <da_add>:
100049e6:	1880      	adds	r0, r0, r2
100049e8:	4159      	adcs	r1, r3

100049ea <da_pack>:
100049ea:	0fcb      	lsrs	r3, r1, #31
100049ec:	d005      	beq.n	100049fa <da_pack+0x10>
100049ee:	43c9      	mvns	r1, r1
100049f0:	43c0      	mvns	r0, r0
100049f2:	2200      	movs	r2, #0
100049f4:	4264      	negs	r4, r4
100049f6:	4150      	adcs	r0, r2
100049f8:	4151      	adcs	r1, r2
100049fa:	4662      	mov	r2, ip
100049fc:	0d4d      	lsrs	r5, r1, #21
100049fe:	d128      	bne.n	10004a52 <da_0>
10004a00:	0d0d      	lsrs	r5, r1, #20
10004a02:	d107      	bne.n	10004a14 <da_1>
10004a04:	2800      	cmp	r0, #0
10004a06:	d01f      	beq.n	10004a48 <da_5>

10004a08 <da_2>:
10004a08:	1924      	adds	r4, r4, r4
10004a0a:	4140      	adcs	r0, r0
10004a0c:	4149      	adcs	r1, r1
10004a0e:	3a01      	subs	r2, #1
10004a10:	0d0d      	lsrs	r5, r1, #20
10004a12:	d0f9      	beq.n	10004a08 <da_2>

10004a14 <da_1>:
10004a14:	0064      	lsls	r4, r4, #1
10004a16:	d306      	bcc.n	10004a26 <da_3>

10004a18 <da_4>:
10004a18:	3001      	adds	r0, #1
10004a1a:	d300      	bcc.n	10004a1e <da_4+0x6>
10004a1c:	3101      	adds	r1, #1
10004a1e:	2c00      	cmp	r4, #0
10004a20:	d101      	bne.n	10004a26 <da_3>
10004a22:	0840      	lsrs	r0, r0, #1
10004a24:	0040      	lsls	r0, r0, #1

10004a26 <da_3>:
10004a26:	3a01      	subs	r2, #1
10004a28:	d40b      	bmi.n	10004a42 <da_6>
10004a2a:	1c94      	adds	r4, r2, #2
10004a2c:	0ae4      	lsrs	r4, r4, #11
10004a2e:	d104      	bne.n	10004a3a <da_7>
10004a30:	0512      	lsls	r2, r2, #20
10004a32:	4411      	add	r1, r2
10004a34:	07db      	lsls	r3, r3, #31
10004a36:	4419      	add	r1, r3
10004a38:	bdf0      	pop	{r4, r5, r6, r7, pc}

10004a3a <da_7>:
10004a3a:	07d9      	lsls	r1, r3, #31
10004a3c:	4b20      	ldr	r3, [pc, #128]	; (10004ac0 <da_xmgty+0x4>)
10004a3e:	4319      	orrs	r1, r3
10004a40:	e000      	b.n	10004a44 <da_6+0x2>

10004a42 <da_6>:
10004a42:	07d9      	lsls	r1, r3, #31
10004a44:	2000      	movs	r0, #0
10004a46:	bdf0      	pop	{r4, r5, r6, r7, pc}

10004a48 <da_5>:
10004a48:	2900      	cmp	r1, #0
10004a4a:	d1dd      	bne.n	10004a08 <da_2>
10004a4c:	2c00      	cmp	r4, #0
10004a4e:	d1db      	bne.n	10004a08 <da_2>
10004a50:	bdf0      	pop	{r4, r5, r6, r7, pc}

10004a52 <da_0>:
10004a52:	3201      	adds	r2, #1
10004a54:	07c6      	lsls	r6, r0, #31
10004a56:	0840      	lsrs	r0, r0, #1
10004a58:	07cd      	lsls	r5, r1, #31
10004a5a:	4328      	orrs	r0, r5
10004a5c:	0849      	lsrs	r1, r1, #1
10004a5e:	2e00      	cmp	r6, #0
10004a60:	d0e1      	beq.n	10004a26 <da_3>
10004a62:	e7d9      	b.n	10004a18 <da_4>

10004a64 <da_xrgty>:
10004a64:	2e3c      	cmp	r6, #60	; 0x3c
10004a66:	da29      	bge.n	10004abc <da_xmgty>
10004a68:	3e20      	subs	r6, #32
10004a6a:	3740      	adds	r7, #64	; 0x40
10004a6c:	0014      	movs	r4, r2
10004a6e:	40bc      	lsls	r4, r7
10004a70:	d000      	beq.n	10004a74 <da_xrgty+0x10>
10004a72:	2401      	movs	r4, #1
10004a74:	40f2      	lsrs	r2, r6
10004a76:	4314      	orrs	r4, r2
10004a78:	001a      	movs	r2, r3
10004a7a:	40bb      	lsls	r3, r7
10004a7c:	431c      	orrs	r4, r3
10004a7e:	17d3      	asrs	r3, r2, #31
10004a80:	e7ac      	b.n	100049dc <da_xgty0>

10004a82 <da_ygtx>:
10004a82:	46ac      	mov	ip, r5
10004a84:	2f20      	cmp	r7, #32
10004a86:	da08      	bge.n	10004a9a <da_yrgtx>
10004a88:	3620      	adds	r6, #32
10004a8a:	0004      	movs	r4, r0
10004a8c:	40b4      	lsls	r4, r6

10004a8e <da_ygtx0>:
10004a8e:	000d      	movs	r5, r1
10004a90:	40b5      	lsls	r5, r6
10004a92:	40f8      	lsrs	r0, r7
10004a94:	4139      	asrs	r1, r7
10004a96:	4328      	orrs	r0, r5
10004a98:	e7a5      	b.n	100049e6 <da_add>

10004a9a <da_yrgtx>:
10004a9a:	2f3c      	cmp	r7, #60	; 0x3c
10004a9c:	da0c      	bge.n	10004ab8 <da_ymgtx>
10004a9e:	3f20      	subs	r7, #32
10004aa0:	3640      	adds	r6, #64	; 0x40
10004aa2:	0004      	movs	r4, r0
10004aa4:	40b4      	lsls	r4, r6
10004aa6:	d000      	beq.n	10004aaa <da_yrgtx+0x10>
10004aa8:	2401      	movs	r4, #1
10004aaa:	40f8      	lsrs	r0, r7
10004aac:	4304      	orrs	r4, r0
10004aae:	0008      	movs	r0, r1
10004ab0:	40b1      	lsls	r1, r6
10004ab2:	430c      	orrs	r4, r1
10004ab4:	17c1      	asrs	r1, r0, #31
10004ab6:	e7ea      	b.n	10004a8e <da_ygtx0>

10004ab8 <da_ymgtx>:
10004ab8:	0010      	movs	r0, r2
10004aba:	0019      	movs	r1, r3

10004abc <da_xmgty>:
10004abc:	2400      	movs	r4, #0
10004abe:	e794      	b.n	100049ea <da_pack>
10004ac0:	7ff00000 	.word	0x7ff00000

10004ac4 <dmul_shim>:
10004ac4:	b5f0      	push	{r4, r5, r6, r7, lr}
10004ac6:	0d0c      	lsrs	r4, r1, #20
10004ac8:	1e66      	subs	r6, r4, #1
10004aca:	0536      	lsls	r6, r6, #20
10004acc:	1b89      	subs	r1, r1, r6
10004ace:	0ae6      	lsrs	r6, r4, #11
10004ad0:	0564      	lsls	r4, r4, #21
10004ad2:	0d64      	lsrs	r4, r4, #21
10004ad4:	d002      	beq.n	10004adc <l11_1>
10004ad6:	1c65      	adds	r5, r4, #1
10004ad8:	0aed      	lsrs	r5, r5, #11
10004ada:	d004      	beq.n	10004ae6 <l11_2>

10004adc <l11_1>:
10004adc:	2000      	movs	r0, #0
10004ade:	2101      	movs	r1, #1
10004ae0:	0509      	lsls	r1, r1, #20
10004ae2:	3c80      	subs	r4, #128	; 0x80
10004ae4:	0324      	lsls	r4, r4, #12

10004ae6 <l11_2>:
10004ae6:	46a4      	mov	ip, r4
10004ae8:	0d1c      	lsrs	r4, r3, #20
10004aea:	1e67      	subs	r7, r4, #1
10004aec:	053f      	lsls	r7, r7, #20
10004aee:	1bdb      	subs	r3, r3, r7
10004af0:	0ae7      	lsrs	r7, r4, #11
10004af2:	0564      	lsls	r4, r4, #21
10004af4:	0d64      	lsrs	r4, r4, #21
10004af6:	d002      	beq.n	10004afe <l12_1>
10004af8:	1c65      	adds	r5, r4, #1
10004afa:	0aed      	lsrs	r5, r5, #11
10004afc:	d004      	beq.n	10004b08 <l12_2>

10004afe <l12_1>:
10004afe:	2200      	movs	r2, #0
10004b00:	2301      	movs	r3, #1
10004b02:	051b      	lsls	r3, r3, #20
10004b04:	3c80      	subs	r4, #128	; 0x80
10004b06:	0324      	lsls	r4, r4, #12

10004b08 <l12_2>:
10004b08:	4077      	eors	r7, r6
10004b0a:	4464      	add	r4, ip
10004b0c:	b497      	push	{r0, r1, r2, r4, r7}
10004b0e:	b284      	uxth	r4, r0
10004b10:	b296      	uxth	r6, r2
10004b12:	4374      	muls	r4, r6
10004b14:	0c07      	lsrs	r7, r0, #16
10004b16:	437e      	muls	r6, r7
10004b18:	0c15      	lsrs	r5, r2, #16
10004b1a:	436f      	muls	r7, r5
10004b1c:	b280      	uxth	r0, r0
10004b1e:	4368      	muls	r0, r5
10004b20:	1836      	adds	r6, r6, r0
10004b22:	d302      	bcc.n	10004b2a <l13_1>
10004b24:	2001      	movs	r0, #1
10004b26:	0400      	lsls	r0, r0, #16
10004b28:	183f      	adds	r7, r7, r0

10004b2a <l13_1>:
10004b2a:	0430      	lsls	r0, r6, #16
10004b2c:	0c35      	lsrs	r5, r6, #16
10004b2e:	1900      	adds	r0, r0, r4
10004b30:	417d      	adcs	r5, r7
10004b32:	4684      	mov	ip, r0
10004b34:	b288      	uxth	r0, r1
10004b36:	b29a      	uxth	r2, r3
10004b38:	4350      	muls	r0, r2
10004b3a:	0c0c      	lsrs	r4, r1, #16
10004b3c:	4362      	muls	r2, r4
10004b3e:	0c1f      	lsrs	r7, r3, #16
10004b40:	437c      	muls	r4, r7
10004b42:	b28e      	uxth	r6, r1
10004b44:	437e      	muls	r6, r7
10004b46:	1992      	adds	r2, r2, r6
10004b48:	d302      	bcc.n	10004b50 <l14_1>
10004b4a:	2601      	movs	r6, #1
10004b4c:	0436      	lsls	r6, r6, #16
10004b4e:	19a4      	adds	r4, r4, r6

10004b50 <l14_1>:
10004b50:	0416      	lsls	r6, r2, #16
10004b52:	0c17      	lsrs	r7, r2, #16
10004b54:	1836      	adds	r6, r6, r0
10004b56:	4167      	adcs	r7, r4
10004b58:	bc01      	pop	{r0}
10004b5a:	b281      	uxth	r1, r0
10004b5c:	b29a      	uxth	r2, r3
10004b5e:	4351      	muls	r1, r2
10004b60:	0c04      	lsrs	r4, r0, #16
10004b62:	4362      	muls	r2, r4
10004b64:	0c1b      	lsrs	r3, r3, #16
10004b66:	435c      	muls	r4, r3
10004b68:	b280      	uxth	r0, r0
10004b6a:	4358      	muls	r0, r3
10004b6c:	1812      	adds	r2, r2, r0
10004b6e:	d302      	bcc.n	10004b76 <l15_1>
10004b70:	2001      	movs	r0, #1
10004b72:	0400      	lsls	r0, r0, #16
10004b74:	1824      	adds	r4, r4, r0

10004b76 <l15_1>:
10004b76:	0410      	lsls	r0, r2, #16
10004b78:	0c13      	lsrs	r3, r2, #16
10004b7a:	1840      	adds	r0, r0, r1
10004b7c:	4163      	adcs	r3, r4
10004b7e:	182d      	adds	r5, r5, r0
10004b80:	415e      	adcs	r6, r3
10004b82:	2000      	movs	r0, #0
10004b84:	4147      	adcs	r7, r0
10004b86:	bc06      	pop	{r1, r2}
10004b88:	b288      	uxth	r0, r1
10004b8a:	b293      	uxth	r3, r2
10004b8c:	4358      	muls	r0, r3
10004b8e:	0c0c      	lsrs	r4, r1, #16
10004b90:	4363      	muls	r3, r4
10004b92:	0c12      	lsrs	r2, r2, #16
10004b94:	4354      	muls	r4, r2
10004b96:	b289      	uxth	r1, r1
10004b98:	4351      	muls	r1, r2
10004b9a:	185b      	adds	r3, r3, r1
10004b9c:	d302      	bcc.n	10004ba4 <l16_1>
10004b9e:	2101      	movs	r1, #1
10004ba0:	0409      	lsls	r1, r1, #16
10004ba2:	1864      	adds	r4, r4, r1

10004ba4 <l16_1>:
10004ba4:	0419      	lsls	r1, r3, #16
10004ba6:	0c1a      	lsrs	r2, r3, #16
10004ba8:	1809      	adds	r1, r1, r0
10004baa:	4162      	adcs	r2, r4
10004bac:	186d      	adds	r5, r5, r1
10004bae:	4156      	adcs	r6, r2
10004bb0:	2000      	movs	r0, #0
10004bb2:	4147      	adcs	r7, r0
10004bb4:	bc18      	pop	{r3, r4}
10004bb6:	02f9      	lsls	r1, r7, #11
10004bb8:	0d72      	lsrs	r2, r6, #21
10004bba:	4311      	orrs	r1, r2
10004bbc:	02f0      	lsls	r0, r6, #11
10004bbe:	0d6a      	lsrs	r2, r5, #21
10004bc0:	4310      	orrs	r0, r2
10004bc2:	02ed      	lsls	r5, r5, #11
10004bc4:	0d0a      	lsrs	r2, r1, #20
10004bc6:	d103      	bne.n	10004bd0 <l16_1+0x2c>
10004bc8:	196d      	adds	r5, r5, r5
10004bca:	4140      	adcs	r0, r0
10004bcc:	4149      	adcs	r1, r1
10004bce:	3b01      	subs	r3, #1
10004bd0:	4e12      	ldr	r6, [pc, #72]	; (10004c1c <dm_1+0xa>)
10004bd2:	1b9b      	subs	r3, r3, r6
10004bd4:	0076      	lsls	r6, r6, #1
10004bd6:	42b3      	cmp	r3, r6
10004bd8:	d20e      	bcs.n	10004bf8 <dm_0>
10004bda:	006d      	lsls	r5, r5, #1
10004bdc:	d307      	bcc.n	10004bee <l16_1+0x4a>
10004bde:	3001      	adds	r0, #1
10004be0:	2600      	movs	r6, #0
10004be2:	4171      	adcs	r1, r6
10004be4:	4666      	mov	r6, ip
10004be6:	4335      	orrs	r5, r6
10004be8:	d101      	bne.n	10004bee <l16_1+0x4a>
10004bea:	0840      	lsrs	r0, r0, #1
10004bec:	0040      	lsls	r0, r0, #1
10004bee:	051b      	lsls	r3, r3, #20
10004bf0:	18c9      	adds	r1, r1, r3

10004bf2 <dm_2>:
10004bf2:	07e4      	lsls	r4, r4, #31
10004bf4:	4421      	add	r1, r4
10004bf6:	bdf0      	pop	{r4, r5, r6, r7, pc}

10004bf8 <dm_0>:
10004bf8:	da0b      	bge.n	10004c12 <dm_1>
10004bfa:	3301      	adds	r3, #1
10004bfc:	d106      	bne.n	10004c0c <dm_0+0x14>
10004bfe:	3001      	adds	r0, #1
10004c00:	d104      	bne.n	10004c0c <dm_0+0x14>
10004c02:	3101      	adds	r1, #1
10004c04:	0d4f      	lsrs	r7, r1, #21
10004c06:	d001      	beq.n	10004c0c <dm_0+0x14>
10004c08:	0849      	lsrs	r1, r1, #1
10004c0a:	e7f2      	b.n	10004bf2 <dm_2>
10004c0c:	07e1      	lsls	r1, r4, #31
10004c0e:	2000      	movs	r0, #0
10004c10:	bdf0      	pop	{r4, r5, r6, r7, pc}

10004c12 <dm_1>:
10004c12:	3601      	adds	r6, #1
10004c14:	0531      	lsls	r1, r6, #20
10004c16:	2000      	movs	r0, #0
10004c18:	e7eb      	b.n	10004bf2 <dm_2>
10004c1a:	0000      	.short	0x0000
10004c1c:	000003ff 	.word	0x000003ff

10004c20 <ddiv_shim>:
10004c20:	b5f0      	push	{r4, r5, r6, r7, lr}

10004c22 <ddiv0>:
10004c22:	0d1c      	lsrs	r4, r3, #20
10004c24:	1e67      	subs	r7, r4, #1
10004c26:	053f      	lsls	r7, r7, #20
10004c28:	1bdb      	subs	r3, r3, r7
10004c2a:	0ae7      	lsrs	r7, r4, #11
10004c2c:	0564      	lsls	r4, r4, #21
10004c2e:	0d64      	lsrs	r4, r4, #21
10004c30:	d002      	beq.n	10004c38 <l19_1>
10004c32:	1c66      	adds	r6, r4, #1
10004c34:	0af6      	lsrs	r6, r6, #11
10004c36:	d004      	beq.n	10004c42 <l19_2>

10004c38 <l19_1>:
10004c38:	2200      	movs	r2, #0
10004c3a:	2301      	movs	r3, #1
10004c3c:	051b      	lsls	r3, r3, #20
10004c3e:	3c80      	subs	r4, #128	; 0x80
10004c40:	0324      	lsls	r4, r4, #12

10004c42 <l19_2>:
10004c42:	25d0      	movs	r5, #208	; 0xd0
10004c44:	062d      	lsls	r5, r5, #24
10004c46:	2600      	movs	r6, #0
10004c48:	43f6      	mvns	r6, r6
10004c4a:	662e      	str	r6, [r5, #96]	; 0x60
10004c4c:	091e      	lsrs	r6, r3, #4
10004c4e:	666e      	str	r6, [r5, #100]	; 0x64
10004c50:	0fce      	lsrs	r6, r1, #31
10004c52:	19f6      	adds	r6, r6, r7
10004c54:	46b4      	mov	ip, r6
10004c56:	0049      	lsls	r1, r1, #1
10004c58:	0d4f      	lsrs	r7, r1, #21
10004c5a:	d002      	beq.n	10004c62 <l19_2+0x20>
10004c5c:	1c7e      	adds	r6, r7, #1
10004c5e:	0af6      	lsrs	r6, r6, #11
10004c60:	d003      	beq.n	10004c6a <l19_2+0x28>
10004c62:	2000      	movs	r0, #0
10004c64:	2100      	movs	r1, #0
10004c66:	3f40      	subs	r7, #64	; 0x40
10004c68:	033f      	lsls	r7, r7, #12
10004c6a:	1b3e      	subs	r6, r7, r4
10004c6c:	00b6      	lsls	r6, r6, #2
10004c6e:	44b4      	add	ip, r6
10004c70:	3f01      	subs	r7, #1
10004c72:	057f      	lsls	r7, r7, #21
10004c74:	1bc9      	subs	r1, r1, r7
10004c76:	0849      	lsrs	r1, r1, #1
10004c78:	6f2e      	ldr	r6, [r5, #112]	; 0x70
10004c7a:	3601      	adds	r6, #1
10004c7c:	0876      	lsrs	r6, r6, #1
10004c7e:	029c      	lsls	r4, r3, #10
10004c80:	0d95      	lsrs	r5, r2, #22
10004c82:	4325      	orrs	r5, r4
10004c84:	4375      	muls	r5, r6
10004c86:	13ed      	asrs	r5, r5, #15
10004c88:	4375      	muls	r5, r6
10004c8a:	13ad      	asrs	r5, r5, #14
10004c8c:	3501      	adds	r5, #1
10004c8e:	106d      	asrs	r5, r5, #1
10004c90:	03f6      	lsls	r6, r6, #15
10004c92:	1b76      	subs	r6, r6, r5
10004c94:	b40c      	push	{r2, r3}
10004c96:	02cc      	lsls	r4, r1, #11
10004c98:	0d45      	lsrs	r5, r0, #21
10004c9a:	432c      	orrs	r4, r5
10004c9c:	b2a2      	uxth	r2, r4
10004c9e:	b2b3      	uxth	r3, r6
10004ca0:	435a      	muls	r2, r3
10004ca2:	0c27      	lsrs	r7, r4, #16
10004ca4:	437b      	muls	r3, r7
10004ca6:	0c35      	lsrs	r5, r6, #16
10004ca8:	436f      	muls	r7, r5
10004caa:	b2a4      	uxth	r4, r4
10004cac:	436c      	muls	r4, r5
10004cae:	191b      	adds	r3, r3, r4
10004cb0:	d302      	bcc.n	10004cb8 <l20_1>
10004cb2:	2401      	movs	r4, #1
10004cb4:	0424      	lsls	r4, r4, #16
10004cb6:	193f      	adds	r7, r7, r4

10004cb8 <l20_1>:
10004cb8:	041c      	lsls	r4, r3, #16
10004cba:	0c1d      	lsrs	r5, r3, #16
10004cbc:	18a4      	adds	r4, r4, r2
10004cbe:	417d      	adcs	r5, r7
10004cc0:	1924      	adds	r4, r4, r4
10004cc2:	416d      	adcs	r5, r5
10004cc4:	9a00      	ldr	r2, [sp, #0]
10004cc6:	b291      	uxth	r1, r2
10004cc8:	b2ac      	uxth	r4, r5
10004cca:	4361      	muls	r1, r4
10004ccc:	0c17      	lsrs	r7, r2, #16
10004cce:	437c      	muls	r4, r7
10004cd0:	0c2b      	lsrs	r3, r5, #16
10004cd2:	435f      	muls	r7, r3
10004cd4:	b292      	uxth	r2, r2
10004cd6:	435a      	muls	r2, r3
10004cd8:	18a4      	adds	r4, r4, r2
10004cda:	d302      	bcc.n	10004ce2 <l21_1>
10004cdc:	2201      	movs	r2, #1
10004cde:	0412      	lsls	r2, r2, #16
10004ce0:	18bf      	adds	r7, r7, r2

10004ce2 <l21_1>:
10004ce2:	0422      	lsls	r2, r4, #16
10004ce4:	0c23      	lsrs	r3, r4, #16
10004ce6:	1852      	adds	r2, r2, r1
10004ce8:	417b      	adcs	r3, r7
10004cea:	9c01      	ldr	r4, [sp, #4]
10004cec:	436c      	muls	r4, r5
10004cee:	191b      	adds	r3, r3, r4
10004cf0:	0e52      	lsrs	r2, r2, #25
10004cf2:	01d9      	lsls	r1, r3, #7
10004cf4:	430a      	orrs	r2, r1
10004cf6:	0144      	lsls	r4, r0, #5
10004cf8:	1aa0      	subs	r0, r4, r2
10004cfa:	b281      	uxth	r1, r0
10004cfc:	b2b2      	uxth	r2, r6
10004cfe:	4351      	muls	r1, r2
10004d00:	1403      	asrs	r3, r0, #16
10004d02:	435a      	muls	r2, r3
10004d04:	0c36      	lsrs	r6, r6, #16
10004d06:	4373      	muls	r3, r6
10004d08:	b287      	uxth	r7, r0
10004d0a:	4377      	muls	r7, r6
10004d0c:	17d6      	asrs	r6, r2, #31
10004d0e:	19d2      	adds	r2, r2, r7
10004d10:	2700      	movs	r7, #0
10004d12:	417e      	adcs	r6, r7
10004d14:	0436      	lsls	r6, r6, #16
10004d16:	199b      	adds	r3, r3, r6
10004d18:	0417      	lsls	r7, r2, #16
10004d1a:	0c16      	lsrs	r6, r2, #16
10004d1c:	187f      	adds	r7, r7, r1
10004d1e:	415e      	adcs	r6, r3
10004d20:	1673      	asrs	r3, r6, #25
10004d22:	18ed      	adds	r5, r5, r3
10004d24:	01f3      	lsls	r3, r6, #7
10004d26:	2600      	movs	r6, #0
10004d28:	3380      	adds	r3, #128	; 0x80
10004d2a:	4175      	adcs	r5, r6
10004d2c:	0fa9      	lsrs	r1, r5, #30
10004d2e:	d106      	bne.n	10004d3e <dd_0>
10004d30:	0064      	lsls	r4, r4, #1
10004d32:	0a69      	lsrs	r1, r5, #9
10004d34:	05e8      	lsls	r0, r5, #23
10004d36:	0a5b      	lsrs	r3, r3, #9
10004d38:	4318      	orrs	r0, r3
10004d3a:	d209      	bcs.n	10004d50 <dd_1>
10004d3c:	e02f      	b.n	10004d9e <dd_2>

10004d3e <dd_0>:
10004d3e:	2204      	movs	r2, #4
10004d40:	4494      	add	ip, r2
10004d42:	3380      	adds	r3, #128	; 0x80
10004d44:	4175      	adcs	r5, r6
10004d46:	0aa9      	lsrs	r1, r5, #10
10004d48:	05a8      	lsls	r0, r5, #22
10004d4a:	0a9b      	lsrs	r3, r3, #10
10004d4c:	4318      	orrs	r0, r3
10004d4e:	d326      	bcc.n	10004d9e <dd_2>

10004d50 <dd_1>:
10004d50:	4140      	adcs	r0, r0
10004d52:	4149      	adcs	r1, r1
10004d54:	0424      	lsls	r4, r4, #16
10004d56:	9a00      	ldr	r2, [sp, #0]
10004d58:	9b01      	ldr	r3, [sp, #4]
10004d5a:	000d      	movs	r5, r1
10004d5c:	4355      	muls	r5, r2
10004d5e:	1b64      	subs	r4, r4, r5
10004d60:	4343      	muls	r3, r0
10004d62:	1ae4      	subs	r4, r4, r3
10004d64:	b295      	uxth	r5, r2
10004d66:	b286      	uxth	r6, r0
10004d68:	4375      	muls	r5, r6
10004d6a:	0c17      	lsrs	r7, r2, #16
10004d6c:	437e      	muls	r6, r7
10004d6e:	0c03      	lsrs	r3, r0, #16
10004d70:	435f      	muls	r7, r3
10004d72:	b292      	uxth	r2, r2
10004d74:	435a      	muls	r2, r3
10004d76:	18b6      	adds	r6, r6, r2
10004d78:	d302      	bcc.n	10004d80 <l23_1>
10004d7a:	2201      	movs	r2, #1
10004d7c:	0412      	lsls	r2, r2, #16
10004d7e:	18bf      	adds	r7, r7, r2

10004d80 <l23_1>:
10004d80:	0432      	lsls	r2, r6, #16
10004d82:	0c33      	lsrs	r3, r6, #16
10004d84:	1952      	adds	r2, r2, r5
10004d86:	417b      	adcs	r3, r7
10004d88:	4252      	negs	r2, r2
10004d8a:	419c      	sbcs	r4, r3
10004d8c:	2c00      	cmp	r4, #0
10004d8e:	d402      	bmi.n	10004d96 <l23_1+0x16>
10004d90:	2200      	movs	r2, #0
10004d92:	3001      	adds	r0, #1
10004d94:	4151      	adcs	r1, r2
10004d96:	0840      	lsrs	r0, r0, #1
10004d98:	07ca      	lsls	r2, r1, #31
10004d9a:	4310      	orrs	r0, r2
10004d9c:	0849      	lsrs	r1, r1, #1

10004d9e <dd_2>:
10004d9e:	b002      	add	sp, #8
10004da0:	4662      	mov	r2, ip
10004da2:	07d7      	lsls	r7, r2, #31
10004da4:	1092      	asrs	r2, r2, #2
10004da6:	4b08      	ldr	r3, [pc, #32]	; (10004dc8 <dd_4+0x6>)
10004da8:	18d2      	adds	r2, r2, r3
10004daa:	4b08      	ldr	r3, [pc, #32]	; (10004dcc <dd_4+0xa>)
10004dac:	429a      	cmp	r2, r3
10004dae:	d203      	bcs.n	10004db8 <dd_3>
10004db0:	0512      	lsls	r2, r2, #20
10004db2:	1889      	adds	r1, r1, r2

10004db4 <dd_5>:
10004db4:	19c9      	adds	r1, r1, r7
10004db6:	bdf0      	pop	{r4, r5, r6, r7, pc}

10004db8 <dd_3>:
10004db8:	2000      	movs	r0, #0
10004dba:	2a00      	cmp	r2, #0
10004dbc:	dc01      	bgt.n	10004dc2 <dd_4>
10004dbe:	0039      	movs	r1, r7
10004dc0:	bdf0      	pop	{r4, r5, r6, r7, pc}

10004dc2 <dd_4>:
10004dc2:	3301      	adds	r3, #1
10004dc4:	0519      	lsls	r1, r3, #20
10004dc6:	e7f5      	b.n	10004db4 <dd_5>
10004dc8:	000003fd 	.word	0x000003fd
10004dcc:	000007fe 	.word	0x000007fe

10004dd0 <dcordic_rot_step>:
10004dd0:	4662      	mov	r2, ip
10004dd2:	ca18      	ldmia	r2!, {r3, r4}
10004dd4:	4694      	mov	ip, r2
10004dd6:	2900      	cmp	r1, #0
10004dd8:	da1a      	bge.n	10004e10 <dcordic_rot_step+0x40>
10004dda:	18c0      	adds	r0, r0, r3
10004ddc:	4161      	adcs	r1, r4
10004dde:	465b      	mov	r3, fp
10004de0:	413b      	asrs	r3, r7
10004de2:	465c      	mov	r4, fp
10004de4:	40b4      	lsls	r4, r6
10004de6:	4652      	mov	r2, sl
10004de8:	40fa      	lsrs	r2, r7
10004dea:	4322      	orrs	r2, r4
10004dec:	4644      	mov	r4, r8
10004dee:	464d      	mov	r5, r9
10004df0:	4162      	adcs	r2, r4
10004df2:	416b      	adcs	r3, r5
10004df4:	4690      	mov	r8, r2
10004df6:	4699      	mov	r9, r3
10004df8:	462b      	mov	r3, r5
10004dfa:	40b3      	lsls	r3, r6
10004dfc:	413d      	asrs	r5, r7
10004dfe:	40fc      	lsrs	r4, r7
10004e00:	431c      	orrs	r4, r3
10004e02:	4652      	mov	r2, sl
10004e04:	465b      	mov	r3, fp
10004e06:	41a2      	sbcs	r2, r4
10004e08:	41ab      	sbcs	r3, r5
10004e0a:	4692      	mov	sl, r2
10004e0c:	469b      	mov	fp, r3
10004e0e:	4770      	bx	lr
10004e10:	1ac0      	subs	r0, r0, r3
10004e12:	41a1      	sbcs	r1, r4
10004e14:	464b      	mov	r3, r9
10004e16:	413b      	asrs	r3, r7
10004e18:	464c      	mov	r4, r9
10004e1a:	40b4      	lsls	r4, r6
10004e1c:	4642      	mov	r2, r8
10004e1e:	40fa      	lsrs	r2, r7
10004e20:	4322      	orrs	r2, r4
10004e22:	4654      	mov	r4, sl
10004e24:	465d      	mov	r5, fp
10004e26:	4162      	adcs	r2, r4
10004e28:	416b      	adcs	r3, r5
10004e2a:	4692      	mov	sl, r2
10004e2c:	469b      	mov	fp, r3
10004e2e:	462b      	mov	r3, r5
10004e30:	40b3      	lsls	r3, r6
10004e32:	413d      	asrs	r5, r7
10004e34:	40fc      	lsrs	r4, r7
10004e36:	431c      	orrs	r4, r3
10004e38:	4642      	mov	r2, r8
10004e3a:	464b      	mov	r3, r9
10004e3c:	41a2      	sbcs	r2, r4
10004e3e:	41ab      	sbcs	r3, r5
10004e40:	4690      	mov	r8, r2
10004e42:	4699      	mov	r9, r3
10004e44:	4770      	bx	lr

10004e46 <ret_dzero>:
10004e46:	2000      	movs	r0, #0
10004e48:	2100      	movs	r1, #0
10004e4a:	4770      	bx	lr

10004e4c <double2uint_shim>:
10004e4c:	2200      	movs	r2, #0

10004e4e <double2ufix_shim>:
10004e4e:	b500      	push	{lr}
10004e50:	3220      	adds	r2, #32
10004e52:	f000 f804 	bl	10004e5e <double2ufix64_shim>
10004e56:	0008      	movs	r0, r1
10004e58:	bd00      	pop	{pc}
	...

10004e5c <double2uint64_shim>:
10004e5c:	2200      	movs	r2, #0

10004e5e <double2ufix64_shim>:
10004e5e:	150b      	asrs	r3, r1, #20
10004e60:	d4f1      	bmi.n	10004e46 <ret_dzero>

10004e62 <d2fix>:
10004e62:	b510      	push	{r4, lr}
10004e64:	4694      	mov	ip, r2
10004e66:	f000 f82f 	bl	10004ec8 <dunpacks>
10004e6a:	1414      	asrs	r4, r2, #16
10004e6c:	3401      	adds	r4, #1
10004e6e:	da00      	bge.n	10004e72 <d2fix+0x10>
10004e70:	2100      	movs	r1, #0
10004e72:	17cb      	asrs	r3, r1, #31
10004e74:	4c13      	ldr	r4, [pc, #76]	; (10004ec4 <d2fix_a+0x4c>)
10004e76:	4720      	bx	r4

10004e78 <d2fix_a>:
10004e78:	4462      	add	r2, ip
10004e7a:	3a34      	subs	r2, #52	; 0x34
10004e7c:	d40c      	bmi.n	10004e98 <d2fix_a+0x20>
10004e7e:	2a0c      	cmp	r2, #12
10004e80:	da07      	bge.n	10004e92 <d2fix_a+0x1a>
10004e82:	0004      	movs	r4, r0
10004e84:	4091      	lsls	r1, r2
10004e86:	4090      	lsls	r0, r2
10004e88:	4252      	negs	r2, r2
10004e8a:	3220      	adds	r2, #32
10004e8c:	40d4      	lsrs	r4, r2
10004e8e:	4321      	orrs	r1, r4
10004e90:	bd10      	pop	{r4, pc}
10004e92:	43d8      	mvns	r0, r3
10004e94:	43d9      	mvns	r1, r3
10004e96:	bd10      	pop	{r4, pc}
10004e98:	3220      	adds	r2, #32
10004e9a:	d407      	bmi.n	10004eac <d2fix_a+0x34>
10004e9c:	460c      	mov	r4, r1
10004e9e:	4094      	lsls	r4, r2
10004ea0:	4252      	negs	r2, r2
10004ea2:	3220      	adds	r2, #32
10004ea4:	4111      	asrs	r1, r2
10004ea6:	40d0      	lsrs	r0, r2
10004ea8:	4320      	orrs	r0, r4
10004eaa:	bd10      	pop	{r4, pc}
10004eac:	0008      	movs	r0, r1
10004eae:	17c9      	asrs	r1, r1, #31
10004eb0:	3220      	adds	r2, #32
10004eb2:	d403      	bmi.n	10004ebc <d2fix_a+0x44>
10004eb4:	4252      	negs	r2, r2
10004eb6:	3220      	adds	r2, #32
10004eb8:	4110      	asrs	r0, r2
10004eba:	bd10      	pop	{r4, pc}
10004ebc:	0018      	movs	r0, r3
10004ebe:	0019      	movs	r1, r3
10004ec0:	bd10      	pop	{r4, pc}
10004ec2:	0000      	.short	0x0000
10004ec4:	10004e79 	.word	0x10004e79

10004ec8 <dunpacks>:
10004ec8:	0d0a      	lsrs	r2, r1, #20
10004eca:	0fcc      	lsrs	r4, r1, #31
10004ecc:	1e53      	subs	r3, r2, #1
10004ece:	051b      	lsls	r3, r3, #20
10004ed0:	1ac9      	subs	r1, r1, r3
10004ed2:	0552      	lsls	r2, r2, #21
10004ed4:	d303      	bcc.n	10004ede <l60_1>
10004ed6:	43c9      	mvns	r1, r1
10004ed8:	4240      	negs	r0, r0
10004eda:	d300      	bcc.n	10004ede <l60_1>
10004edc:	3101      	adds	r1, #1

10004ede <l60_1>:
10004ede:	0d52      	lsrs	r2, r2, #21
10004ee0:	d003      	beq.n	10004eea <l60_2>
10004ee2:	1c53      	adds	r3, r2, #1
10004ee4:	0adb      	lsrs	r3, r3, #11
10004ee6:	d007      	beq.n	10004ef8 <l60_3>
10004ee8:	1b12      	subs	r2, r2, r4

10004eea <l60_2>:
10004eea:	2000      	movs	r0, #0
10004eec:	0064      	lsls	r4, r4, #1
10004eee:	1c61      	adds	r1, r4, #1
10004ef0:	0789      	lsls	r1, r1, #30
10004ef2:	1289      	asrs	r1, r1, #10
10004ef4:	3a80      	subs	r2, #128	; 0x80
10004ef6:	0312      	lsls	r2, r2, #12

10004ef8 <l60_3>:
10004ef8:	4b01      	ldr	r3, [pc, #4]	; (10004f00 <l60_3+0x8>)
10004efa:	1ad2      	subs	r2, r2, r3
10004efc:	4770      	bx	lr
10004efe:	0000      	.short	0x0000
10004f00:	000003ff 	.word	0x000003ff

10004f04 <__aeabi_float_init>:
10004f04:	2313      	movs	r3, #19
10004f06:	b510      	push	{r4, lr}
10004f08:	4812      	ldr	r0, [pc, #72]	; (10004f54 <__aeabi_float_init+0x50>)
10004f0a:	781c      	ldrb	r4, [r3, #0]
10004f0c:	f7ff f94e 	bl	100041ac <rom_data_lookup>
10004f10:	0001      	movs	r1, r0
10004f12:	2c01      	cmp	r4, #1
10004f14:	d00a      	beq.n	10004f2c <__aeabi_float_init+0x28>
10004f16:	dd03      	ble.n	10004f20 <__aeabi_float_init+0x1c>
10004f18:	2280      	movs	r2, #128	; 0x80
10004f1a:	480f      	ldr	r0, [pc, #60]	; (10004f58 <__aeabi_float_init+0x54>)
10004f1c:	f000 f850 	bl	10004fc0 <__wrap___aeabi_memcpy>
10004f20:	480e      	ldr	r0, [pc, #56]	; (10004f5c <__aeabi_float_init+0x58>)
10004f22:	f7ff f93b 	bl	1000419c <rom_func_lookup>
10004f26:	4b0e      	ldr	r3, [pc, #56]	; (10004f60 <__aeabi_float_init+0x5c>)
10004f28:	6018      	str	r0, [r3, #0]
10004f2a:	bd10      	pop	{r4, pc}
10004f2c:	4c0a      	ldr	r4, [pc, #40]	; (10004f58 <__aeabi_float_init+0x54>)
10004f2e:	2254      	movs	r2, #84	; 0x54
10004f30:	0020      	movs	r0, r4
10004f32:	f000 f845 	bl	10004fc0 <__wrap___aeabi_memcpy>
10004f36:	4b0b      	ldr	r3, [pc, #44]	; (10004f64 <__aeabi_float_init+0x60>)
10004f38:	6563      	str	r3, [r4, #84]	; 0x54
10004f3a:	65a3      	str	r3, [r4, #88]	; 0x58
10004f3c:	65e3      	str	r3, [r4, #92]	; 0x5c
10004f3e:	6623      	str	r3, [r4, #96]	; 0x60
10004f40:	6663      	str	r3, [r4, #100]	; 0x64
10004f42:	66a3      	str	r3, [r4, #104]	; 0x68
10004f44:	66e3      	str	r3, [r4, #108]	; 0x6c
10004f46:	6723      	str	r3, [r4, #112]	; 0x70
10004f48:	6763      	str	r3, [r4, #116]	; 0x74
10004f4a:	67a3      	str	r3, [r4, #120]	; 0x78
10004f4c:	67e3      	str	r3, [r4, #124]	; 0x7c
10004f4e:	6223      	str	r3, [r4, #32]
10004f50:	61e3      	str	r3, [r4, #28]
10004f52:	e7e5      	b.n	10004f20 <__aeabi_float_init+0x1c>
10004f54:	00004653 	.word	0x00004653
10004f58:	20000e04 	.word	0x20000e04
10004f5c:	0000334c 	.word	0x0000334c
10004f60:	20000f04 	.word	0x20000f04
10004f64:	10004f69 	.word	0x10004f69

10004f68 <float_table_shim_on_use_helper>:
10004f68:	b507      	push	{r0, r1, r2, lr}
10004f6a:	4660      	mov	r0, ip
10004f6c:	8801      	ldrh	r1, [r0, #0]
10004f6e:	0a0a      	lsrs	r2, r1, #8
10004f70:	3002      	adds	r0, #2
10004f72:	2adf      	cmp	r2, #223	; 0xdf
10004f74:	d1fa      	bne.n	10004f6c <float_table_shim_on_use_helper+0x4>
10004f76:	b2c9      	uxtb	r1, r1
10004f78:	0882      	lsrs	r2, r0, #2
10004f7a:	d304      	bcc.n	10004f86 <float_table_shim_on_use_helper+0x1e>
10004f7c:	8802      	ldrh	r2, [r0, #0]
10004f7e:	8840      	ldrh	r0, [r0, #2]
10004f80:	0400      	lsls	r0, r0, #16
10004f82:	4310      	orrs	r0, r2
10004f84:	e000      	b.n	10004f88 <float_table_shim_on_use_helper+0x20>
10004f86:	6800      	ldr	r0, [r0, #0]
10004f88:	4a01      	ldr	r2, [pc, #4]	; (10004f90 <float_table_shim_on_use_helper+0x28>)
10004f8a:	5050      	str	r0, [r2, r1]
10004f8c:	9003      	str	r0, [sp, #12]
10004f8e:	bd07      	pop	{r0, r1, r2, pc}
10004f90:	20000e04 	.word	0x20000e04

10004f94 <__wrap_malloc>:
10004f94:	b510      	push	{r4, lr}
10004f96:	f000 fa79 	bl	1000548c <malloc>
10004f9a:	bd10      	pop	{r4, pc}

10004f9c <__wrap_calloc>:
10004f9c:	b510      	push	{r4, lr}
10004f9e:	f000 fa3b 	bl	10005418 <calloc>
10004fa2:	bd10      	pop	{r4, pc}

10004fa4 <__aeabi_mem_init>:
10004fa4:	4801      	ldr	r0, [pc, #4]	; (10004fac <__aeabi_mem_init+0x8>)
10004fa6:	2104      	movs	r1, #4
10004fa8:	4b01      	ldr	r3, [pc, #4]	; (10004fb0 <__aeabi_mem_init+0xc>)
10004faa:	4718      	bx	r3
10004fac:	20000380 	.word	0x20000380
10004fb0:	100041bd 	.word	0x100041bd

10004fb4 <__wrap_memset>:
10004fb4:	4b01      	ldr	r3, [pc, #4]	; (10004fbc <__wrap_memset+0x8>)
10004fb6:	681b      	ldr	r3, [r3, #0]
10004fb8:	4718      	bx	r3
10004fba:	0000      	.short	0x0000
10004fbc:	20000380 	.word	0x20000380

10004fc0 <__wrap___aeabi_memcpy>:
10004fc0:	4b01      	ldr	r3, [pc, #4]	; (10004fc8 <__wrap___aeabi_memcpy+0x8>)
10004fc2:	685b      	ldr	r3, [r3, #4]
10004fc4:	4718      	bx	r3
10004fc6:	0000      	.short	0x0000
10004fc8:	20000380 	.word	0x20000380

10004fcc <stdio_out_chars_crlf.part.0>:
10004fcc:	b5f8      	push	{r3, r4, r5, r6, r7, lr}
10004fce:	4647      	mov	r7, r8
10004fd0:	46ce      	mov	lr, r9
10004fd2:	000d      	movs	r5, r1
10004fd4:	b580      	push	{r7, lr}
10004fd6:	0016      	movs	r6, r2
10004fd8:	0007      	movs	r7, r0
10004fda:	2a00      	cmp	r2, #0
10004fdc:	dd20      	ble.n	10005020 <stdio_out_chars_crlf.part.0+0x54>
10004fde:	1e4b      	subs	r3, r1, #1
10004fe0:	4698      	mov	r8, r3
10004fe2:	4b1a      	ldr	r3, [pc, #104]	; (1000504c <stdio_out_chars_crlf.part.0+0x80>)
10004fe4:	2400      	movs	r4, #0
10004fe6:	2000      	movs	r0, #0
10004fe8:	4699      	mov	r9, r3
10004fea:	2c00      	cmp	r4, #0
10004fec:	d02b      	beq.n	10005046 <stdio_out_chars_crlf.part.0+0x7a>
10004fee:	4643      	mov	r3, r8
10004ff0:	5d1b      	ldrb	r3, [r3, r4]
10004ff2:	3b0d      	subs	r3, #13
10004ff4:	425a      	negs	r2, r3
10004ff6:	4153      	adcs	r3, r2
10004ff8:	b2db      	uxtb	r3, r3
10004ffa:	5d2a      	ldrb	r2, [r5, r4]
10004ffc:	2a0a      	cmp	r2, #10
10004ffe:	d013      	beq.n	10005028 <stdio_out_chars_crlf.part.0+0x5c>
10005000:	3401      	adds	r4, #1
10005002:	42a6      	cmp	r6, r4
10005004:	dcf1      	bgt.n	10004fea <stdio_out_chars_crlf.part.0+0x1e>
10005006:	4286      	cmp	r6, r0
10005008:	dd03      	ble.n	10005012 <stdio_out_chars_crlf.part.0+0x46>
1000500a:	1a31      	subs	r1, r6, r0
1000500c:	683b      	ldr	r3, [r7, #0]
1000500e:	1828      	adds	r0, r5, r0
10005010:	4798      	blx	r3
10005012:	19ad      	adds	r5, r5, r6
10005014:	3d01      	subs	r5, #1
10005016:	782b      	ldrb	r3, [r5, #0]
10005018:	3b0d      	subs	r3, #13
1000501a:	425a      	negs	r2, r3
1000501c:	4153      	adcs	r3, r2
1000501e:	743b      	strb	r3, [r7, #16]
10005020:	bc0c      	pop	{r2, r3}
10005022:	4690      	mov	r8, r2
10005024:	4699      	mov	r9, r3
10005026:	bdf8      	pop	{r3, r4, r5, r6, r7, pc}
10005028:	2b00      	cmp	r3, #0
1000502a:	d1e9      	bne.n	10005000 <stdio_out_chars_crlf.part.0+0x34>
1000502c:	42a0      	cmp	r0, r4
1000502e:	da03      	bge.n	10005038 <stdio_out_chars_crlf.part.0+0x6c>
10005030:	1a21      	subs	r1, r4, r0
10005032:	683b      	ldr	r3, [r7, #0]
10005034:	1828      	adds	r0, r5, r0
10005036:	4798      	blx	r3
10005038:	4648      	mov	r0, r9
1000503a:	2102      	movs	r1, #2
1000503c:	683b      	ldr	r3, [r7, #0]
1000503e:	3401      	adds	r4, #1
10005040:	4798      	blx	r3
10005042:	0020      	movs	r0, r4
10005044:	e7dd      	b.n	10005002 <stdio_out_chars_crlf.part.0+0x36>
10005046:	7c3b      	ldrb	r3, [r7, #16]
10005048:	e7d7      	b.n	10004ffa <stdio_out_chars_crlf.part.0+0x2e>
1000504a:	46c0      	nop			; (mov r8, r8)
1000504c:	100062e0 	.word	0x100062e0

10005050 <stdio_buffered_printer>:
10005050:	b5f8      	push	{r3, r4, r5, r6, r7, lr}
10005052:	4647      	mov	r7, r8
10005054:	46ce      	mov	lr, r9
10005056:	000c      	movs	r4, r1
10005058:	6809      	ldr	r1, [r1, #0]
1000505a:	b580      	push	{r7, lr}
1000505c:	0007      	movs	r7, r0
1000505e:	2980      	cmp	r1, #128	; 0x80
10005060:	d007      	beq.n	10005072 <stdio_buffered_printer+0x22>
10005062:	1c4b      	adds	r3, r1, #1
10005064:	6023      	str	r3, [r4, #0]
10005066:	1864      	adds	r4, r4, r1
10005068:	7127      	strb	r7, [r4, #4]
1000506a:	bc0c      	pop	{r2, r3}
1000506c:	4690      	mov	r8, r2
1000506e:	4699      	mov	r9, r3
10005070:	bdf8      	pop	{r3, r4, r5, r6, r7, pc}
10005072:	4b13      	ldr	r3, [pc, #76]	; (100050c0 <stdio_buffered_printer+0x70>)
10005074:	681d      	ldr	r5, [r3, #0]
10005076:	2d00      	cmp	r5, #0
10005078:	d01b      	beq.n	100050b2 <stdio_buffered_printer+0x62>
1000507a:	4b12      	ldr	r3, [pc, #72]	; (100050c4 <stdio_buffered_printer+0x74>)
1000507c:	4698      	mov	r8, r3
1000507e:	1d23      	adds	r3, r4, #4
10005080:	4699      	mov	r9, r3
10005082:	e002      	b.n	1000508a <stdio_buffered_printer+0x3a>
10005084:	68ed      	ldr	r5, [r5, #12]
10005086:	2d00      	cmp	r5, #0
10005088:	d013      	beq.n	100050b2 <stdio_buffered_printer+0x62>
1000508a:	682e      	ldr	r6, [r5, #0]
1000508c:	2e00      	cmp	r6, #0
1000508e:	d0f9      	beq.n	10005084 <stdio_buffered_printer+0x34>
10005090:	4643      	mov	r3, r8
10005092:	681b      	ldr	r3, [r3, #0]
10005094:	2b00      	cmp	r3, #0
10005096:	d001      	beq.n	1000509c <stdio_buffered_printer+0x4c>
10005098:	429d      	cmp	r5, r3
1000509a:	d1f3      	bne.n	10005084 <stdio_buffered_printer+0x34>
1000509c:	7c6b      	ldrb	r3, [r5, #17]
1000509e:	6822      	ldr	r2, [r4, #0]
100050a0:	2b00      	cmp	r3, #0
100050a2:	d009      	beq.n	100050b8 <stdio_buffered_printer+0x68>
100050a4:	0028      	movs	r0, r5
100050a6:	4649      	mov	r1, r9
100050a8:	f7ff ff90 	bl	10004fcc <stdio_out_chars_crlf.part.0>
100050ac:	68ed      	ldr	r5, [r5, #12]
100050ae:	2d00      	cmp	r5, #0
100050b0:	d1eb      	bne.n	1000508a <stdio_buffered_printer+0x3a>
100050b2:	2301      	movs	r3, #1
100050b4:	2100      	movs	r1, #0
100050b6:	e7d5      	b.n	10005064 <stdio_buffered_printer+0x14>
100050b8:	0011      	movs	r1, r2
100050ba:	4648      	mov	r0, r9
100050bc:	47b0      	blx	r6
100050be:	e7e1      	b.n	10005084 <stdio_buffered_printer+0x34>
100050c0:	20000c88 	.word	0x20000c88
100050c4:	20000ccc 	.word	0x20000ccc

100050c8 <stdio_put_string>:
100050c8:	b5f0      	push	{r4, r5, r6, r7, lr}
100050ca:	4657      	mov	r7, sl
100050cc:	4645      	mov	r5, r8
100050ce:	46de      	mov	lr, fp
100050d0:	464e      	mov	r6, r9
100050d2:	23d0      	movs	r3, #208	; 0xd0
100050d4:	b5e0      	push	{r5, r6, r7, lr}
100050d6:	061b      	lsls	r3, r3, #24
100050d8:	681c      	ldr	r4, [r3, #0]
100050da:	4b37      	ldr	r3, [pc, #220]	; (100051b8 <stdio_put_string+0xf0>)
100050dc:	b083      	sub	sp, #12
100050de:	0007      	movs	r7, r0
100050e0:	000d      	movs	r5, r1
100050e2:	0018      	movs	r0, r3
100050e4:	a901      	add	r1, sp, #4
100050e6:	4690      	mov	r8, r2
100050e8:	469a      	mov	sl, r3
100050ea:	f000 fe39 	bl	10005d60 <__mutex_try_enter_veneer>
100050ee:	4681      	mov	r9, r0
100050f0:	2800      	cmp	r0, #0
100050f2:	d107      	bne.n	10005104 <stdio_put_string+0x3c>
100050f4:	9b01      	ldr	r3, [sp, #4]
100050f6:	429c      	cmp	r4, r3
100050f8:	d004      	beq.n	10005104 <stdio_put_string+0x3c>
100050fa:	4650      	mov	r0, sl
100050fc:	f000 fe38 	bl	10005d70 <__mutex_enter_blocking_veneer>
10005100:	2301      	movs	r3, #1
10005102:	4699      	mov	r9, r3
10005104:	1c6b      	adds	r3, r5, #1
10005106:	d103      	bne.n	10005110 <stdio_put_string+0x48>
10005108:	0038      	movs	r0, r7
1000510a:	f000 fcab 	bl	10005a64 <strlen>
1000510e:	0005      	movs	r5, r0
10005110:	4b2a      	ldr	r3, [pc, #168]	; (100051bc <stdio_put_string+0xf4>)
10005112:	681c      	ldr	r4, [r3, #0]
10005114:	2c00      	cmp	r4, #0
10005116:	d02f      	beq.n	10005178 <stdio_put_string+0xb0>
10005118:	230a      	movs	r3, #10
1000511a:	4e29      	ldr	r6, [pc, #164]	; (100051c0 <stdio_put_string+0xf8>)
1000511c:	469b      	mov	fp, r3
1000511e:	e002      	b.n	10005126 <stdio_put_string+0x5e>
10005120:	68e4      	ldr	r4, [r4, #12]
10005122:	2c00      	cmp	r4, #0
10005124:	d028      	beq.n	10005178 <stdio_put_string+0xb0>
10005126:	6822      	ldr	r2, [r4, #0]
10005128:	2a00      	cmp	r2, #0
1000512a:	d0f9      	beq.n	10005120 <stdio_put_string+0x58>
1000512c:	6833      	ldr	r3, [r6, #0]
1000512e:	2b00      	cmp	r3, #0
10005130:	d001      	beq.n	10005136 <stdio_put_string+0x6e>
10005132:	42a3      	cmp	r3, r4
10005134:	d1f4      	bne.n	10005120 <stdio_put_string+0x58>
10005136:	7c63      	ldrb	r3, [r4, #17]
10005138:	2b00      	cmp	r3, #0
1000513a:	d02a      	beq.n	10005192 <stdio_put_string+0xca>
1000513c:	002a      	movs	r2, r5
1000513e:	0039      	movs	r1, r7
10005140:	0020      	movs	r0, r4
10005142:	f7ff ff43 	bl	10004fcc <stdio_out_chars_crlf.part.0>
10005146:	4643      	mov	r3, r8
10005148:	2b00      	cmp	r3, #0
1000514a:	d0e9      	beq.n	10005120 <stdio_put_string+0x58>
1000514c:	466b      	mov	r3, sp
1000514e:	465a      	mov	r2, fp
10005150:	711a      	strb	r2, [r3, #4]
10005152:	7c63      	ldrb	r3, [r4, #17]
10005154:	2b00      	cmp	r3, #0
10005156:	d020      	beq.n	1000519a <stdio_put_string+0xd2>
10005158:	7c23      	ldrb	r3, [r4, #16]
1000515a:	2b00      	cmp	r3, #0
1000515c:	d026      	beq.n	100051ac <stdio_put_string+0xe4>
1000515e:	2101      	movs	r1, #1
10005160:	6823      	ldr	r3, [r4, #0]
10005162:	a801      	add	r0, sp, #4
10005164:	4798      	blx	r3
10005166:	466b      	mov	r3, sp
10005168:	791b      	ldrb	r3, [r3, #4]
1000516a:	3b0d      	subs	r3, #13
1000516c:	425a      	negs	r2, r3
1000516e:	4153      	adcs	r3, r2
10005170:	7423      	strb	r3, [r4, #16]
10005172:	68e4      	ldr	r4, [r4, #12]
10005174:	2c00      	cmp	r4, #0
10005176:	d1d6      	bne.n	10005126 <stdio_put_string+0x5e>
10005178:	464b      	mov	r3, r9
1000517a:	2b00      	cmp	r3, #0
1000517c:	d112      	bne.n	100051a4 <stdio_put_string+0xdc>
1000517e:	1e68      	subs	r0, r5, #1
10005180:	4185      	sbcs	r5, r0
10005182:	b2e8      	uxtb	r0, r5
10005184:	b003      	add	sp, #12
10005186:	bc3c      	pop	{r2, r3, r4, r5}
10005188:	4690      	mov	r8, r2
1000518a:	4699      	mov	r9, r3
1000518c:	46a2      	mov	sl, r4
1000518e:	46ab      	mov	fp, r5
10005190:	bdf0      	pop	{r4, r5, r6, r7, pc}
10005192:	0029      	movs	r1, r5
10005194:	0038      	movs	r0, r7
10005196:	4790      	blx	r2
10005198:	e7d5      	b.n	10005146 <stdio_put_string+0x7e>
1000519a:	2101      	movs	r1, #1
1000519c:	6823      	ldr	r3, [r4, #0]
1000519e:	a801      	add	r0, sp, #4
100051a0:	4798      	blx	r3
100051a2:	e7bd      	b.n	10005120 <stdio_put_string+0x58>
100051a4:	4650      	mov	r0, sl
100051a6:	f000 fdc3 	bl	10005d30 <__mutex_exit_veneer>
100051aa:	e7e8      	b.n	1000517e <stdio_put_string+0xb6>
100051ac:	2102      	movs	r1, #2
100051ae:	4805      	ldr	r0, [pc, #20]	; (100051c4 <stdio_put_string+0xfc>)
100051b0:	6823      	ldr	r3, [r4, #0]
100051b2:	4798      	blx	r3
100051b4:	e7d7      	b.n	10005166 <stdio_put_string+0x9e>
100051b6:	46c0      	nop			; (mov r8, r8)
100051b8:	20000be0 	.word	0x20000be0
100051bc:	20000c88 	.word	0x20000c88
100051c0:	20000ccc 	.word	0x20000ccc
100051c4:	100062e0 	.word	0x100062e0

100051c8 <__wrap_putchar>:
100051c8:	b510      	push	{r4, lr}
100051ca:	b082      	sub	sp, #8
100051cc:	466b      	mov	r3, sp
100051ce:	0004      	movs	r4, r0
100051d0:	2200      	movs	r2, #0
100051d2:	1dd8      	adds	r0, r3, #7
100051d4:	2101      	movs	r1, #1
100051d6:	7004      	strb	r4, [r0, #0]
100051d8:	f7ff ff76 	bl	100050c8 <stdio_put_string>
100051dc:	0020      	movs	r0, r4
100051de:	b002      	add	sp, #8
100051e0:	bd10      	pop	{r4, pc}
100051e2:	46c0      	nop			; (mov r8, r8)

100051e4 <__wrap_puts>:
100051e4:	b570      	push	{r4, r5, r6, lr}
100051e6:	0004      	movs	r4, r0
100051e8:	f000 fc3c 	bl	10005a64 <strlen>
100051ec:	2201      	movs	r2, #1
100051ee:	0001      	movs	r1, r0
100051f0:	0005      	movs	r5, r0
100051f2:	0020      	movs	r0, r4
100051f4:	f7ff ff68 	bl	100050c8 <stdio_put_string>
100051f8:	4b08      	ldr	r3, [pc, #32]	; (1000521c <__wrap_puts+0x38>)
100051fa:	681c      	ldr	r4, [r3, #0]
100051fc:	2c00      	cmp	r4, #0
100051fe:	d006      	beq.n	1000520e <__wrap_puts+0x2a>
10005200:	6863      	ldr	r3, [r4, #4]
10005202:	2b00      	cmp	r3, #0
10005204:	d005      	beq.n	10005212 <__wrap_puts+0x2e>
10005206:	4798      	blx	r3
10005208:	68e4      	ldr	r4, [r4, #12]
1000520a:	2c00      	cmp	r4, #0
1000520c:	d1f8      	bne.n	10005200 <__wrap_puts+0x1c>
1000520e:	0028      	movs	r0, r5
10005210:	bd70      	pop	{r4, r5, r6, pc}
10005212:	68e4      	ldr	r4, [r4, #12]
10005214:	2c00      	cmp	r4, #0
10005216:	d1f3      	bne.n	10005200 <__wrap_puts+0x1c>
10005218:	e7f9      	b.n	1000520e <__wrap_puts+0x2a>
1000521a:	46c0      	nop			; (mov r8, r8)
1000521c:	20000c88 	.word	0x20000c88

10005220 <stdio_set_driver_enabled>:
10005220:	4a0d      	ldr	r2, [pc, #52]	; (10005258 <stdio_set_driver_enabled+0x38>)
10005222:	6813      	ldr	r3, [r2, #0]
10005224:	2b00      	cmp	r3, #0
10005226:	d013      	beq.n	10005250 <stdio_set_driver_enabled+0x30>
10005228:	4283      	cmp	r3, r0
1000522a:	d102      	bne.n	10005232 <stdio_set_driver_enabled+0x12>
1000522c:	e009      	b.n	10005242 <stdio_set_driver_enabled+0x22>
1000522e:	4298      	cmp	r0, r3
10005230:	d008      	beq.n	10005244 <stdio_set_driver_enabled+0x24>
10005232:	001a      	movs	r2, r3
10005234:	68db      	ldr	r3, [r3, #12]
10005236:	2b00      	cmp	r3, #0
10005238:	d1f9      	bne.n	1000522e <stdio_set_driver_enabled+0xe>
1000523a:	2900      	cmp	r1, #0
1000523c:	d000      	beq.n	10005240 <stdio_set_driver_enabled+0x20>
1000523e:	60d0      	str	r0, [r2, #12]
10005240:	4770      	bx	lr
10005242:	001a      	movs	r2, r3
10005244:	2900      	cmp	r1, #0
10005246:	d1fb      	bne.n	10005240 <stdio_set_driver_enabled+0x20>
10005248:	68db      	ldr	r3, [r3, #12]
1000524a:	60d3      	str	r3, [r2, #12]
1000524c:	60c1      	str	r1, [r0, #12]
1000524e:	e7f7      	b.n	10005240 <stdio_set_driver_enabled+0x20>
10005250:	2900      	cmp	r1, #0
10005252:	d0f5      	beq.n	10005240 <stdio_set_driver_enabled+0x20>
10005254:	6010      	str	r0, [r2, #0]
10005256:	e7f3      	b.n	10005240 <stdio_set_driver_enabled+0x20>
10005258:	20000c88 	.word	0x20000c88

1000525c <__wrap_vprintf>:
1000525c:	b5f0      	push	{r4, r5, r6, r7, lr}
1000525e:	4646      	mov	r6, r8
10005260:	46d6      	mov	lr, sl
10005262:	464f      	mov	r7, r9
10005264:	23d0      	movs	r3, #208	; 0xd0
10005266:	b5c0      	push	{r6, r7, lr}
10005268:	061b      	lsls	r3, r3, #24
1000526a:	681f      	ldr	r7, [r3, #0]
1000526c:	4b31      	ldr	r3, [pc, #196]	; (10005334 <__wrap_vprintf+0xd8>)
1000526e:	b0a2      	sub	sp, #136	; 0x88
10005270:	0004      	movs	r4, r0
10005272:	000d      	movs	r5, r1
10005274:	0018      	movs	r0, r3
10005276:	a901      	add	r1, sp, #4
10005278:	4698      	mov	r8, r3
1000527a:	f000 fd71 	bl	10005d60 <__mutex_try_enter_veneer>
1000527e:	1e06      	subs	r6, r0, #0
10005280:	d106      	bne.n	10005290 <__wrap_vprintf+0x34>
10005282:	9b01      	ldr	r3, [sp, #4]
10005284:	429f      	cmp	r7, r3
10005286:	d003      	beq.n	10005290 <__wrap_vprintf+0x34>
10005288:	4640      	mov	r0, r8
1000528a:	f000 fd71 	bl	10005d70 <__mutex_enter_blocking_veneer>
1000528e:	3601      	adds	r6, #1
10005290:	2284      	movs	r2, #132	; 0x84
10005292:	2100      	movs	r1, #0
10005294:	a801      	add	r0, sp, #4
10005296:	f7ff fe8d 	bl	10004fb4 <__wrap_memset>
1000529a:	002b      	movs	r3, r5
1000529c:	0022      	movs	r2, r4
1000529e:	4826      	ldr	r0, [pc, #152]	; (10005338 <__wrap_vprintf+0xdc>)
100052a0:	a901      	add	r1, sp, #4
100052a2:	f7fe ff4b 	bl	1000413c <vfctprintf>
100052a6:	9b01      	ldr	r3, [sp, #4]
100052a8:	0007      	movs	r7, r0
100052aa:	2b00      	cmp	r3, #0
100052ac:	d115      	bne.n	100052da <__wrap_vprintf+0x7e>
100052ae:	4b23      	ldr	r3, [pc, #140]	; (1000533c <__wrap_vprintf+0xe0>)
100052b0:	681c      	ldr	r4, [r3, #0]
100052b2:	2c00      	cmp	r4, #0
100052b4:	d006      	beq.n	100052c4 <__wrap_vprintf+0x68>
100052b6:	6863      	ldr	r3, [r4, #4]
100052b8:	2b00      	cmp	r3, #0
100052ba:	d00c      	beq.n	100052d6 <__wrap_vprintf+0x7a>
100052bc:	4798      	blx	r3
100052be:	68e4      	ldr	r4, [r4, #12]
100052c0:	2c00      	cmp	r4, #0
100052c2:	d1f8      	bne.n	100052b6 <__wrap_vprintf+0x5a>
100052c4:	2e00      	cmp	r6, #0
100052c6:	d12f      	bne.n	10005328 <__wrap_vprintf+0xcc>
100052c8:	0038      	movs	r0, r7
100052ca:	b022      	add	sp, #136	; 0x88
100052cc:	bc1c      	pop	{r2, r3, r4}
100052ce:	4690      	mov	r8, r2
100052d0:	4699      	mov	r9, r3
100052d2:	46a2      	mov	sl, r4
100052d4:	bdf0      	pop	{r4, r5, r6, r7, pc}
100052d6:	68e4      	ldr	r4, [r4, #12]
100052d8:	e7eb      	b.n	100052b2 <__wrap_vprintf+0x56>
100052da:	4b18      	ldr	r3, [pc, #96]	; (1000533c <__wrap_vprintf+0xe0>)
100052dc:	681d      	ldr	r5, [r3, #0]
100052de:	469a      	mov	sl, r3
100052e0:	2d00      	cmp	r5, #0
100052e2:	d025      	beq.n	10005330 <__wrap_vprintf+0xd4>
100052e4:	4b16      	ldr	r3, [pc, #88]	; (10005340 <__wrap_vprintf+0xe4>)
100052e6:	4699      	mov	r9, r3
100052e8:	e002      	b.n	100052f0 <__wrap_vprintf+0x94>
100052ea:	68ed      	ldr	r5, [r5, #12]
100052ec:	2d00      	cmp	r5, #0
100052ee:	d013      	beq.n	10005318 <__wrap_vprintf+0xbc>
100052f0:	682c      	ldr	r4, [r5, #0]
100052f2:	2c00      	cmp	r4, #0
100052f4:	d0f9      	beq.n	100052ea <__wrap_vprintf+0x8e>
100052f6:	464b      	mov	r3, r9
100052f8:	681b      	ldr	r3, [r3, #0]
100052fa:	2b00      	cmp	r3, #0
100052fc:	d001      	beq.n	10005302 <__wrap_vprintf+0xa6>
100052fe:	429d      	cmp	r5, r3
10005300:	d1f3      	bne.n	100052ea <__wrap_vprintf+0x8e>
10005302:	7c6b      	ldrb	r3, [r5, #17]
10005304:	9a01      	ldr	r2, [sp, #4]
10005306:	2b00      	cmp	r3, #0
10005308:	d00a      	beq.n	10005320 <__wrap_vprintf+0xc4>
1000530a:	0028      	movs	r0, r5
1000530c:	a902      	add	r1, sp, #8
1000530e:	f7ff fe5d 	bl	10004fcc <stdio_out_chars_crlf.part.0>
10005312:	68ed      	ldr	r5, [r5, #12]
10005314:	2d00      	cmp	r5, #0
10005316:	d1eb      	bne.n	100052f0 <__wrap_vprintf+0x94>
10005318:	4653      	mov	r3, sl
1000531a:	9501      	str	r5, [sp, #4]
1000531c:	681c      	ldr	r4, [r3, #0]
1000531e:	e7c8      	b.n	100052b2 <__wrap_vprintf+0x56>
10005320:	0011      	movs	r1, r2
10005322:	a802      	add	r0, sp, #8
10005324:	47a0      	blx	r4
10005326:	e7e0      	b.n	100052ea <__wrap_vprintf+0x8e>
10005328:	4640      	mov	r0, r8
1000532a:	f000 fd01 	bl	10005d30 <__mutex_exit_veneer>
1000532e:	e7cb      	b.n	100052c8 <__wrap_vprintf+0x6c>
10005330:	9501      	str	r5, [sp, #4]
10005332:	e7c7      	b.n	100052c4 <__wrap_vprintf+0x68>
10005334:	20000be0 	.word	0x20000be0
10005338:	10005051 	.word	0x10005051
1000533c:	20000c88 	.word	0x20000c88
10005340:	20000ccc 	.word	0x20000ccc

10005344 <__wrap_printf>:
10005344:	b40f      	push	{r0, r1, r2, r3}
10005346:	b500      	push	{lr}
10005348:	b083      	sub	sp, #12
1000534a:	a904      	add	r1, sp, #16
1000534c:	c901      	ldmia	r1!, {r0}
1000534e:	9101      	str	r1, [sp, #4]
10005350:	f7ff ff84 	bl	1000525c <__wrap_vprintf>
10005354:	b003      	add	sp, #12
10005356:	bc08      	pop	{r3}
10005358:	b004      	add	sp, #16
1000535a:	4718      	bx	r3

1000535c <stdio_init_all>:
1000535c:	b510      	push	{r4, lr}
1000535e:	f000 f83b 	bl	100053d8 <stdio_uart_init>
10005362:	bd10      	pop	{r4, pc}

10005364 <stdio_uart_out_chars>:
10005364:	b5f0      	push	{r4, r5, r6, r7, lr}
10005366:	2900      	cmp	r1, #0
10005368:	d010      	beq.n	1000538c <stdio_uart_out_chars+0x28>
1000536a:	1845      	adds	r5, r0, r1
1000536c:	270d      	movs	r7, #13
1000536e:	2120      	movs	r1, #32
10005370:	4b09      	ldr	r3, [pc, #36]	; (10005398 <stdio_uart_out_chars+0x34>)
10005372:	4a0a      	ldr	r2, [pc, #40]	; (1000539c <stdio_uart_out_chars+0x38>)
10005374:	2600      	movs	r6, #0
10005376:	5f9e      	ldrsh	r6, [r3, r6]
10005378:	7804      	ldrb	r4, [r0, #0]
1000537a:	42a6      	cmp	r6, r4
1000537c:	d007      	beq.n	1000538e <stdio_uart_out_chars+0x2a>
1000537e:	6993      	ldr	r3, [r2, #24]
10005380:	4219      	tst	r1, r3
10005382:	d1fc      	bne.n	1000537e <stdio_uart_out_chars+0x1a>
10005384:	3001      	adds	r0, #1
10005386:	6014      	str	r4, [r2, #0]
10005388:	42a8      	cmp	r0, r5
1000538a:	d1f5      	bne.n	10005378 <stdio_uart_out_chars+0x14>
1000538c:	bdf0      	pop	{r4, r5, r6, r7, pc}
1000538e:	6993      	ldr	r3, [r2, #24]
10005390:	4219      	tst	r1, r3
10005392:	d1fc      	bne.n	1000538e <stdio_uart_out_chars+0x2a>
10005394:	6017      	str	r7, [r2, #0]
10005396:	e7f2      	b.n	1000537e <stdio_uart_out_chars+0x1a>
10005398:	20000d00 	.word	0x20000d00
1000539c:	40034000 	.word	0x40034000

100053a0 <stdio_uart_in_chars>:
100053a0:	b530      	push	{r4, r5, lr}
100053a2:	0005      	movs	r5, r0
100053a4:	2000      	movs	r0, #0
100053a6:	2900      	cmp	r1, #0
100053a8:	dd10      	ble.n	100053cc <stdio_uart_in_chars+0x2c>
100053aa:	2410      	movs	r4, #16
100053ac:	4a09      	ldr	r2, [pc, #36]	; (100053d4 <stdio_uart_in_chars+0x34>)
100053ae:	3d01      	subs	r5, #1
100053b0:	6993      	ldr	r3, [r2, #24]
100053b2:	421c      	tst	r4, r3
100053b4:	d108      	bne.n	100053c8 <stdio_uart_in_chars+0x28>
100053b6:	3001      	adds	r0, #1
100053b8:	6993      	ldr	r3, [r2, #24]
100053ba:	421c      	tst	r4, r3
100053bc:	d1fc      	bne.n	100053b8 <stdio_uart_in_chars+0x18>
100053be:	6813      	ldr	r3, [r2, #0]
100053c0:	542b      	strb	r3, [r5, r0]
100053c2:	4281      	cmp	r1, r0
100053c4:	d1f4      	bne.n	100053b0 <stdio_uart_in_chars+0x10>
100053c6:	bd30      	pop	{r4, r5, pc}
100053c8:	2800      	cmp	r0, #0
100053ca:	d1fc      	bne.n	100053c6 <stdio_uart_in_chars+0x26>
100053cc:	2003      	movs	r0, #3
100053ce:	4240      	negs	r0, r0
100053d0:	e7f9      	b.n	100053c6 <stdio_uart_in_chars+0x26>
100053d2:	46c0      	nop			; (mov r8, r8)
100053d4:	40034000 	.word	0x40034000

100053d8 <stdio_uart_init>:
100053d8:	21e1      	movs	r1, #225	; 0xe1
100053da:	b510      	push	{r4, lr}
100053dc:	4b0a      	ldr	r3, [pc, #40]	; (10005408 <stdio_uart_init+0x30>)
100053de:	0249      	lsls	r1, r1, #9
100053e0:	781b      	ldrb	r3, [r3, #0]
100053e2:	4b0a      	ldr	r3, [pc, #40]	; (1000540c <stdio_uart_init+0x34>)
100053e4:	480a      	ldr	r0, [pc, #40]	; (10005410 <stdio_uart_init+0x38>)
100053e6:	781b      	ldrb	r3, [r3, #0]
100053e8:	f7fc fa04 	bl	100017f4 <uart_init>
100053ec:	2102      	movs	r1, #2
100053ee:	2000      	movs	r0, #0
100053f0:	f7fc f996 	bl	10001720 <gpio_set_function>
100053f4:	2102      	movs	r1, #2
100053f6:	2001      	movs	r0, #1
100053f8:	f7fc f992 	bl	10001720 <gpio_set_function>
100053fc:	2101      	movs	r1, #1
100053fe:	4805      	ldr	r0, [pc, #20]	; (10005414 <stdio_uart_init+0x3c>)
10005400:	f7ff ff0e 	bl	10005220 <stdio_set_driver_enabled>
10005404:	bd10      	pop	{r4, pc}
10005406:	46c0      	nop			; (mov r8, r8)
10005408:	10006340 	.word	0x10006340
1000540c:	10006344 	.word	0x10006344
10005410:	40034000 	.word	0x40034000
10005414:	20000390 	.word	0x20000390

10005418 <calloc>:
10005418:	0003      	movs	r3, r0
1000541a:	b510      	push	{r4, lr}
1000541c:	000a      	movs	r2, r1
1000541e:	4903      	ldr	r1, [pc, #12]	; (1000542c <calloc+0x14>)
10005420:	6808      	ldr	r0, [r1, #0]
10005422:	0019      	movs	r1, r3
10005424:	f000 f804 	bl	10005430 <_calloc_r>
10005428:	bd10      	pop	{r4, pc}
1000542a:	46c0      	nop			; (mov r8, r8)
1000542c:	200003a4 	.word	0x200003a4

10005430 <_calloc_r>:
10005430:	b510      	push	{r4, lr}
10005432:	4351      	muls	r1, r2
10005434:	f000 f834 	bl	100054a0 <_malloc_r>
10005438:	1e04      	subs	r4, r0, #0
1000543a:	d00e      	beq.n	1000545a <_calloc_r+0x2a>
1000543c:	0003      	movs	r3, r0
1000543e:	3b08      	subs	r3, #8
10005440:	685a      	ldr	r2, [r3, #4]
10005442:	2303      	movs	r3, #3
10005444:	439a      	bics	r2, r3
10005446:	3a04      	subs	r2, #4
10005448:	2a24      	cmp	r2, #36	; 0x24
1000544a:	d815      	bhi.n	10005478 <_calloc_r+0x48>
1000544c:	0003      	movs	r3, r0
1000544e:	2a13      	cmp	r2, #19
10005450:	d805      	bhi.n	1000545e <_calloc_r+0x2e>
10005452:	2200      	movs	r2, #0
10005454:	601a      	str	r2, [r3, #0]
10005456:	605a      	str	r2, [r3, #4]
10005458:	609a      	str	r2, [r3, #8]
1000545a:	0020      	movs	r0, r4
1000545c:	bd10      	pop	{r4, pc}
1000545e:	2100      	movs	r1, #0
10005460:	3308      	adds	r3, #8
10005462:	6001      	str	r1, [r0, #0]
10005464:	6041      	str	r1, [r0, #4]
10005466:	2a1b      	cmp	r2, #27
10005468:	d9f3      	bls.n	10005452 <_calloc_r+0x22>
1000546a:	6081      	str	r1, [r0, #8]
1000546c:	60c1      	str	r1, [r0, #12]
1000546e:	2a24      	cmp	r2, #36	; 0x24
10005470:	d006      	beq.n	10005480 <_calloc_r+0x50>
10005472:	0003      	movs	r3, r0
10005474:	3310      	adds	r3, #16
10005476:	e7ec      	b.n	10005452 <_calloc_r+0x22>
10005478:	2100      	movs	r1, #0
1000547a:	f7ff fd9b 	bl	10004fb4 <__wrap_memset>
1000547e:	e7ec      	b.n	1000545a <_calloc_r+0x2a>
10005480:	0003      	movs	r3, r0
10005482:	6101      	str	r1, [r0, #16]
10005484:	3318      	adds	r3, #24
10005486:	6141      	str	r1, [r0, #20]
10005488:	e7e3      	b.n	10005452 <_calloc_r+0x22>
1000548a:	46c0      	nop			; (mov r8, r8)

1000548c <malloc>:
1000548c:	b510      	push	{r4, lr}
1000548e:	4b03      	ldr	r3, [pc, #12]	; (1000549c <malloc+0x10>)
10005490:	0001      	movs	r1, r0
10005492:	6818      	ldr	r0, [r3, #0]
10005494:	f000 f804 	bl	100054a0 <_malloc_r>
10005498:	bd10      	pop	{r4, pc}
1000549a:	46c0      	nop			; (mov r8, r8)
1000549c:	200003a4 	.word	0x200003a4

100054a0 <_malloc_r>:
100054a0:	b5f0      	push	{r4, r5, r6, r7, lr}
100054a2:	464e      	mov	r6, r9
100054a4:	4645      	mov	r5, r8
100054a6:	46de      	mov	lr, fp
100054a8:	4657      	mov	r7, sl
100054aa:	b5e0      	push	{r5, r6, r7, lr}
100054ac:	000d      	movs	r5, r1
100054ae:	350b      	adds	r5, #11
100054b0:	0006      	movs	r6, r0
100054b2:	b083      	sub	sp, #12
100054b4:	2d16      	cmp	r5, #22
100054b6:	d822      	bhi.n	100054fe <_malloc_r+0x5e>
100054b8:	2910      	cmp	r1, #16
100054ba:	d900      	bls.n	100054be <_malloc_r+0x1e>
100054bc:	e0b2      	b.n	10005624 <_malloc_r+0x184>
100054be:	f000 faaf 	bl	10005a20 <__malloc_lock>
100054c2:	2510      	movs	r5, #16
100054c4:	2002      	movs	r0, #2
100054c6:	2318      	movs	r3, #24
100054c8:	4fcb      	ldr	r7, [pc, #812]	; (100057f8 <_malloc_r+0x358>)
100054ca:	18fb      	adds	r3, r7, r3
100054cc:	001a      	movs	r2, r3
100054ce:	685c      	ldr	r4, [r3, #4]
100054d0:	3a08      	subs	r2, #8
100054d2:	4294      	cmp	r4, r2
100054d4:	d100      	bne.n	100054d8 <_malloc_r+0x38>
100054d6:	e0b5      	b.n	10005644 <_malloc_r+0x1a4>
100054d8:	2303      	movs	r3, #3
100054da:	6862      	ldr	r2, [r4, #4]
100054dc:	439a      	bics	r2, r3
100054de:	0013      	movs	r3, r2
100054e0:	68e2      	ldr	r2, [r4, #12]
100054e2:	68a1      	ldr	r1, [r4, #8]
100054e4:	60ca      	str	r2, [r1, #12]
100054e6:	6091      	str	r1, [r2, #8]
100054e8:	2201      	movs	r2, #1
100054ea:	18e3      	adds	r3, r4, r3
100054ec:	6859      	ldr	r1, [r3, #4]
100054ee:	0030      	movs	r0, r6
100054f0:	430a      	orrs	r2, r1
100054f2:	605a      	str	r2, [r3, #4]
100054f4:	f000 fa9c 	bl	10005a30 <__malloc_unlock>
100054f8:	0020      	movs	r0, r4
100054fa:	3008      	adds	r0, #8
100054fc:	e095      	b.n	1000562a <_malloc_r+0x18a>
100054fe:	2307      	movs	r3, #7
10005500:	439d      	bics	r5, r3
10005502:	d500      	bpl.n	10005506 <_malloc_r+0x66>
10005504:	e08e      	b.n	10005624 <_malloc_r+0x184>
10005506:	42a9      	cmp	r1, r5
10005508:	d900      	bls.n	1000550c <_malloc_r+0x6c>
1000550a:	e08b      	b.n	10005624 <_malloc_r+0x184>
1000550c:	f000 fa88 	bl	10005a20 <__malloc_lock>
10005510:	23fc      	movs	r3, #252	; 0xfc
10005512:	005b      	lsls	r3, r3, #1
10005514:	429d      	cmp	r5, r3
10005516:	d200      	bcs.n	1000551a <_malloc_r+0x7a>
10005518:	e1a5      	b.n	10005866 <_malloc_r+0x3c6>
1000551a:	0a68      	lsrs	r0, r5, #9
1000551c:	d100      	bne.n	10005520 <_malloc_r+0x80>
1000551e:	e08b      	b.n	10005638 <_malloc_r+0x198>
10005520:	2804      	cmp	r0, #4
10005522:	d900      	bls.n	10005526 <_malloc_r+0x86>
10005524:	e178      	b.n	10005818 <_malloc_r+0x378>
10005526:	2338      	movs	r3, #56	; 0x38
10005528:	4698      	mov	r8, r3
1000552a:	09a8      	lsrs	r0, r5, #6
1000552c:	4480      	add	r8, r0
1000552e:	3039      	adds	r0, #57	; 0x39
10005530:	00c1      	lsls	r1, r0, #3
10005532:	4fb1      	ldr	r7, [pc, #708]	; (100057f8 <_malloc_r+0x358>)
10005534:	1879      	adds	r1, r7, r1
10005536:	684c      	ldr	r4, [r1, #4]
10005538:	3908      	subs	r1, #8
1000553a:	42a1      	cmp	r1, r4
1000553c:	d00e      	beq.n	1000555c <_malloc_r+0xbc>
1000553e:	2303      	movs	r3, #3
10005540:	469c      	mov	ip, r3
10005542:	e004      	b.n	1000554e <_malloc_r+0xae>
10005544:	2a00      	cmp	r2, #0
10005546:	dacb      	bge.n	100054e0 <_malloc_r+0x40>
10005548:	68e4      	ldr	r4, [r4, #12]
1000554a:	42a1      	cmp	r1, r4
1000554c:	d006      	beq.n	1000555c <_malloc_r+0xbc>
1000554e:	4662      	mov	r2, ip
10005550:	6863      	ldr	r3, [r4, #4]
10005552:	4393      	bics	r3, r2
10005554:	1b5a      	subs	r2, r3, r5
10005556:	2a0f      	cmp	r2, #15
10005558:	ddf4      	ble.n	10005544 <_malloc_r+0xa4>
1000555a:	4640      	mov	r0, r8
1000555c:	003a      	movs	r2, r7
1000555e:	693c      	ldr	r4, [r7, #16]
10005560:	3208      	adds	r2, #8
10005562:	4294      	cmp	r4, r2
10005564:	d100      	bne.n	10005568 <_malloc_r+0xc8>
10005566:	e078      	b.n	1000565a <_malloc_r+0x1ba>
10005568:	2303      	movs	r3, #3
1000556a:	6861      	ldr	r1, [r4, #4]
1000556c:	4399      	bics	r1, r3
1000556e:	4689      	mov	r9, r1
10005570:	000b      	movs	r3, r1
10005572:	1b49      	subs	r1, r1, r5
10005574:	290f      	cmp	r1, #15
10005576:	dd00      	ble.n	1000557a <_malloc_r+0xda>
10005578:	e179      	b.n	1000586e <_malloc_r+0x3ce>
1000557a:	617a      	str	r2, [r7, #20]
1000557c:	613a      	str	r2, [r7, #16]
1000557e:	2900      	cmp	r1, #0
10005580:	dab2      	bge.n	100054e8 <_malloc_r+0x48>
10005582:	2280      	movs	r2, #128	; 0x80
10005584:	0092      	lsls	r2, r2, #2
10005586:	4591      	cmp	r9, r2
10005588:	d300      	bcc.n	1000558c <_malloc_r+0xec>
1000558a:	e10e      	b.n	100057aa <_malloc_r+0x30a>
1000558c:	0959      	lsrs	r1, r3, #5
1000558e:	08da      	lsrs	r2, r3, #3
10005590:	2301      	movs	r3, #1
10005592:	408b      	lsls	r3, r1
10005594:	00d2      	lsls	r2, r2, #3
10005596:	6879      	ldr	r1, [r7, #4]
10005598:	19d2      	adds	r2, r2, r7
1000559a:	430b      	orrs	r3, r1
1000559c:	6891      	ldr	r1, [r2, #8]
1000559e:	607b      	str	r3, [r7, #4]
100055a0:	60e2      	str	r2, [r4, #12]
100055a2:	60a1      	str	r1, [r4, #8]
100055a4:	6094      	str	r4, [r2, #8]
100055a6:	60cc      	str	r4, [r1, #12]
100055a8:	2101      	movs	r1, #1
100055aa:	1082      	asrs	r2, r0, #2
100055ac:	4091      	lsls	r1, r2
100055ae:	4299      	cmp	r1, r3
100055b0:	d859      	bhi.n	10005666 <_malloc_r+0x1c6>
100055b2:	420b      	tst	r3, r1
100055b4:	d105      	bne.n	100055c2 <_malloc_r+0x122>
100055b6:	2203      	movs	r2, #3
100055b8:	4390      	bics	r0, r2
100055ba:	0049      	lsls	r1, r1, #1
100055bc:	3004      	adds	r0, #4
100055be:	420b      	tst	r3, r1
100055c0:	d0fb      	beq.n	100055ba <_malloc_r+0x11a>
100055c2:	2303      	movs	r3, #3
100055c4:	4698      	mov	r8, r3
100055c6:	00c3      	lsls	r3, r0, #3
100055c8:	4699      	mov	r9, r3
100055ca:	44b9      	add	r9, r7
100055cc:	46cc      	mov	ip, r9
100055ce:	4682      	mov	sl, r0
100055d0:	4663      	mov	r3, ip
100055d2:	68dc      	ldr	r4, [r3, #12]
100055d4:	45a4      	cmp	ip, r4
100055d6:	d107      	bne.n	100055e8 <_malloc_r+0x148>
100055d8:	e12a      	b.n	10005830 <_malloc_r+0x390>
100055da:	2a00      	cmp	r2, #0
100055dc:	db00      	blt.n	100055e0 <_malloc_r+0x140>
100055de:	e133      	b.n	10005848 <_malloc_r+0x3a8>
100055e0:	68e4      	ldr	r4, [r4, #12]
100055e2:	45a4      	cmp	ip, r4
100055e4:	d100      	bne.n	100055e8 <_malloc_r+0x148>
100055e6:	e123      	b.n	10005830 <_malloc_r+0x390>
100055e8:	4642      	mov	r2, r8
100055ea:	6863      	ldr	r3, [r4, #4]
100055ec:	4393      	bics	r3, r2
100055ee:	1b5a      	subs	r2, r3, r5
100055f0:	2a0f      	cmp	r2, #15
100055f2:	ddf2      	ble.n	100055da <_malloc_r+0x13a>
100055f4:	2001      	movs	r0, #1
100055f6:	4680      	mov	r8, r0
100055f8:	1961      	adds	r1, r4, r5
100055fa:	4305      	orrs	r5, r0
100055fc:	6065      	str	r5, [r4, #4]
100055fe:	68a0      	ldr	r0, [r4, #8]
10005600:	68e5      	ldr	r5, [r4, #12]
10005602:	3708      	adds	r7, #8
10005604:	60c5      	str	r5, [r0, #12]
10005606:	60a8      	str	r0, [r5, #8]
10005608:	4640      	mov	r0, r8
1000560a:	4310      	orrs	r0, r2
1000560c:	60f9      	str	r1, [r7, #12]
1000560e:	60b9      	str	r1, [r7, #8]
10005610:	6048      	str	r0, [r1, #4]
10005612:	60cf      	str	r7, [r1, #12]
10005614:	0030      	movs	r0, r6
10005616:	608f      	str	r7, [r1, #8]
10005618:	50e2      	str	r2, [r4, r3]
1000561a:	f000 fa09 	bl	10005a30 <__malloc_unlock>
1000561e:	0020      	movs	r0, r4
10005620:	3008      	adds	r0, #8
10005622:	e002      	b.n	1000562a <_malloc_r+0x18a>
10005624:	230c      	movs	r3, #12
10005626:	2000      	movs	r0, #0
10005628:	6033      	str	r3, [r6, #0]
1000562a:	b003      	add	sp, #12
1000562c:	bc3c      	pop	{r2, r3, r4, r5}
1000562e:	4690      	mov	r8, r2
10005630:	4699      	mov	r9, r3
10005632:	46a2      	mov	sl, r4
10005634:	46ab      	mov	fp, r5
10005636:	bdf0      	pop	{r4, r5, r6, r7, pc}
10005638:	2180      	movs	r1, #128	; 0x80
1000563a:	233f      	movs	r3, #63	; 0x3f
1000563c:	2040      	movs	r0, #64	; 0x40
1000563e:	4698      	mov	r8, r3
10005640:	0089      	lsls	r1, r1, #2
10005642:	e776      	b.n	10005532 <_malloc_r+0x92>
10005644:	68dc      	ldr	r4, [r3, #12]
10005646:	3002      	adds	r0, #2
10005648:	42a3      	cmp	r3, r4
1000564a:	d000      	beq.n	1000564e <_malloc_r+0x1ae>
1000564c:	e744      	b.n	100054d8 <_malloc_r+0x38>
1000564e:	003a      	movs	r2, r7
10005650:	693c      	ldr	r4, [r7, #16]
10005652:	3208      	adds	r2, #8
10005654:	4294      	cmp	r4, r2
10005656:	d000      	beq.n	1000565a <_malloc_r+0x1ba>
10005658:	e786      	b.n	10005568 <_malloc_r+0xc8>
1000565a:	2101      	movs	r1, #1
1000565c:	687b      	ldr	r3, [r7, #4]
1000565e:	1082      	asrs	r2, r0, #2
10005660:	4091      	lsls	r1, r2
10005662:	4299      	cmp	r1, r3
10005664:	d9a5      	bls.n	100055b2 <_malloc_r+0x112>
10005666:	2303      	movs	r3, #3
10005668:	68bc      	ldr	r4, [r7, #8]
1000566a:	6862      	ldr	r2, [r4, #4]
1000566c:	439a      	bics	r2, r3
1000566e:	4691      	mov	r9, r2
10005670:	4295      	cmp	r5, r2
10005672:	d803      	bhi.n	1000567c <_malloc_r+0x1dc>
10005674:	1b53      	subs	r3, r2, r5
10005676:	2b0f      	cmp	r3, #15
10005678:	dd00      	ble.n	1000567c <_malloc_r+0x1dc>
1000567a:	e088      	b.n	1000578e <_malloc_r+0x2ee>
1000567c:	0023      	movs	r3, r4
1000567e:	444b      	add	r3, r9
10005680:	4a5e      	ldr	r2, [pc, #376]	; (100057fc <_malloc_r+0x35c>)
10005682:	9301      	str	r3, [sp, #4]
10005684:	4b5e      	ldr	r3, [pc, #376]	; (10005800 <_malloc_r+0x360>)
10005686:	4693      	mov	fp, r2
10005688:	681b      	ldr	r3, [r3, #0]
1000568a:	6812      	ldr	r2, [r2, #0]
1000568c:	18eb      	adds	r3, r5, r3
1000568e:	3201      	adds	r2, #1
10005690:	d100      	bne.n	10005694 <_malloc_r+0x1f4>
10005692:	e13b      	b.n	1000590c <_malloc_r+0x46c>
10005694:	4a5b      	ldr	r2, [pc, #364]	; (10005804 <_malloc_r+0x364>)
10005696:	4694      	mov	ip, r2
10005698:	4463      	add	r3, ip
1000569a:	0b1b      	lsrs	r3, r3, #12
1000569c:	031b      	lsls	r3, r3, #12
1000569e:	9300      	str	r3, [sp, #0]
100056a0:	0030      	movs	r0, r6
100056a2:	9900      	ldr	r1, [sp, #0]
100056a4:	f000 f9cc 	bl	10005a40 <_sbrk_r>
100056a8:	0003      	movs	r3, r0
100056aa:	4680      	mov	r8, r0
100056ac:	3301      	adds	r3, #1
100056ae:	d100      	bne.n	100056b2 <_malloc_r+0x212>
100056b0:	e0f8      	b.n	100058a4 <_malloc_r+0x404>
100056b2:	9b01      	ldr	r3, [sp, #4]
100056b4:	4283      	cmp	r3, r0
100056b6:	d900      	bls.n	100056ba <_malloc_r+0x21a>
100056b8:	e0f2      	b.n	100058a0 <_malloc_r+0x400>
100056ba:	4b53      	ldr	r3, [pc, #332]	; (10005808 <_malloc_r+0x368>)
100056bc:	0019      	movs	r1, r3
100056be:	469a      	mov	sl, r3
100056c0:	6809      	ldr	r1, [r1, #0]
100056c2:	9b00      	ldr	r3, [sp, #0]
100056c4:	468c      	mov	ip, r1
100056c6:	4651      	mov	r1, sl
100056c8:	4463      	add	r3, ip
100056ca:	600b      	str	r3, [r1, #0]
100056cc:	9901      	ldr	r1, [sp, #4]
100056ce:	001a      	movs	r2, r3
100056d0:	4281      	cmp	r1, r0
100056d2:	d100      	bne.n	100056d6 <_malloc_r+0x236>
100056d4:	e150      	b.n	10005978 <_malloc_r+0x4d8>
100056d6:	465b      	mov	r3, fp
100056d8:	681b      	ldr	r3, [r3, #0]
100056da:	3301      	adds	r3, #1
100056dc:	d100      	bne.n	100056e0 <_malloc_r+0x240>
100056de:	e155      	b.n	1000598c <_malloc_r+0x4ec>
100056e0:	4643      	mov	r3, r8
100056e2:	9901      	ldr	r1, [sp, #4]
100056e4:	1a5b      	subs	r3, r3, r1
100056e6:	189a      	adds	r2, r3, r2
100056e8:	4653      	mov	r3, sl
100056ea:	601a      	str	r2, [r3, #0]
100056ec:	2307      	movs	r3, #7
100056ee:	4642      	mov	r2, r8
100056f0:	4641      	mov	r1, r8
100056f2:	401a      	ands	r2, r3
100056f4:	9201      	str	r2, [sp, #4]
100056f6:	4219      	tst	r1, r3
100056f8:	d100      	bne.n	100056fc <_malloc_r+0x25c>
100056fa:	e111      	b.n	10005920 <_malloc_r+0x480>
100056fc:	2308      	movs	r3, #8
100056fe:	4698      	mov	r8, r3
10005700:	1a88      	subs	r0, r1, r2
10005702:	4b42      	ldr	r3, [pc, #264]	; (1000580c <_malloc_r+0x36c>)
10005704:	9900      	ldr	r1, [sp, #0]
10005706:	4480      	add	r8, r0
10005708:	4441      	add	r1, r8
1000570a:	1a9b      	subs	r3, r3, r2
1000570c:	1a5b      	subs	r3, r3, r1
1000570e:	051b      	lsls	r3, r3, #20
10005710:	0d1b      	lsrs	r3, r3, #20
10005712:	9100      	str	r1, [sp, #0]
10005714:	0030      	movs	r0, r6
10005716:	0019      	movs	r1, r3
10005718:	469b      	mov	fp, r3
1000571a:	f000 f991 	bl	10005a40 <_sbrk_r>
1000571e:	1c43      	adds	r3, r0, #1
10005720:	d100      	bne.n	10005724 <_malloc_r+0x284>
10005722:	e14f      	b.n	100059c4 <_malloc_r+0x524>
10005724:	4643      	mov	r3, r8
10005726:	1ac0      	subs	r0, r0, r3
10005728:	0003      	movs	r3, r0
1000572a:	445b      	add	r3, fp
1000572c:	9300      	str	r3, [sp, #0]
1000572e:	4653      	mov	r3, sl
10005730:	4652      	mov	r2, sl
10005732:	681b      	ldr	r3, [r3, #0]
10005734:	2101      	movs	r1, #1
10005736:	445b      	add	r3, fp
10005738:	6013      	str	r3, [r2, #0]
1000573a:	4642      	mov	r2, r8
1000573c:	4640      	mov	r0, r8
1000573e:	60ba      	str	r2, [r7, #8]
10005740:	9a00      	ldr	r2, [sp, #0]
10005742:	430a      	orrs	r2, r1
10005744:	6042      	str	r2, [r0, #4]
10005746:	42bc      	cmp	r4, r7
10005748:	d100      	bne.n	1000574c <_malloc_r+0x2ac>
1000574a:	e123      	b.n	10005994 <_malloc_r+0x4f4>
1000574c:	464a      	mov	r2, r9
1000574e:	2a0f      	cmp	r2, #15
10005750:	d800      	bhi.n	10005754 <_malloc_r+0x2b4>
10005752:	e121      	b.n	10005998 <_malloc_r+0x4f8>
10005754:	2007      	movs	r0, #7
10005756:	3a0c      	subs	r2, #12
10005758:	4382      	bics	r2, r0
1000575a:	6860      	ldr	r0, [r4, #4]
1000575c:	4001      	ands	r1, r0
1000575e:	2005      	movs	r0, #5
10005760:	4311      	orrs	r1, r2
10005762:	6061      	str	r1, [r4, #4]
10005764:	18a1      	adds	r1, r4, r2
10005766:	6048      	str	r0, [r1, #4]
10005768:	6088      	str	r0, [r1, #8]
1000576a:	2a0f      	cmp	r2, #15
1000576c:	d900      	bls.n	10005770 <_malloc_r+0x2d0>
1000576e:	e134      	b.n	100059da <_malloc_r+0x53a>
10005770:	4642      	mov	r2, r8
10005772:	4644      	mov	r4, r8
10005774:	6852      	ldr	r2, [r2, #4]
10005776:	4926      	ldr	r1, [pc, #152]	; (10005810 <_malloc_r+0x370>)
10005778:	6808      	ldr	r0, [r1, #0]
1000577a:	4298      	cmp	r0, r3
1000577c:	d200      	bcs.n	10005780 <_malloc_r+0x2e0>
1000577e:	600b      	str	r3, [r1, #0]
10005780:	4924      	ldr	r1, [pc, #144]	; (10005814 <_malloc_r+0x374>)
10005782:	6808      	ldr	r0, [r1, #0]
10005784:	4298      	cmp	r0, r3
10005786:	d300      	bcc.n	1000578a <_malloc_r+0x2ea>
10005788:	e08e      	b.n	100058a8 <_malloc_r+0x408>
1000578a:	600b      	str	r3, [r1, #0]
1000578c:	e08c      	b.n	100058a8 <_malloc_r+0x408>
1000578e:	2201      	movs	r2, #1
10005790:	0029      	movs	r1, r5
10005792:	4313      	orrs	r3, r2
10005794:	4311      	orrs	r1, r2
10005796:	1965      	adds	r5, r4, r5
10005798:	6061      	str	r1, [r4, #4]
1000579a:	0030      	movs	r0, r6
1000579c:	60bd      	str	r5, [r7, #8]
1000579e:	606b      	str	r3, [r5, #4]
100057a0:	f000 f946 	bl	10005a30 <__malloc_unlock>
100057a4:	0020      	movs	r0, r4
100057a6:	3008      	adds	r0, #8
100057a8:	e73f      	b.n	1000562a <_malloc_r+0x18a>
100057aa:	0a5a      	lsrs	r2, r3, #9
100057ac:	2a04      	cmp	r2, #4
100057ae:	d971      	bls.n	10005894 <_malloc_r+0x3f4>
100057b0:	2a14      	cmp	r2, #20
100057b2:	d900      	bls.n	100057b6 <_malloc_r+0x316>
100057b4:	e0c4      	b.n	10005940 <_malloc_r+0x4a0>
100057b6:	0011      	movs	r1, r2
100057b8:	325c      	adds	r2, #92	; 0x5c
100057ba:	315b      	adds	r1, #91	; 0x5b
100057bc:	00d2      	lsls	r2, r2, #3
100057be:	2308      	movs	r3, #8
100057c0:	425b      	negs	r3, r3
100057c2:	469c      	mov	ip, r3
100057c4:	18ba      	adds	r2, r7, r2
100057c6:	4494      	add	ip, r2
100057c8:	4663      	mov	r3, ip
100057ca:	689a      	ldr	r2, [r3, #8]
100057cc:	2303      	movs	r3, #3
100057ce:	4698      	mov	r8, r3
100057d0:	4594      	cmp	ip, r2
100057d2:	d100      	bne.n	100057d6 <_malloc_r+0x336>
100057d4:	e09d      	b.n	10005912 <_malloc_r+0x472>
100057d6:	4643      	mov	r3, r8
100057d8:	6851      	ldr	r1, [r2, #4]
100057da:	4399      	bics	r1, r3
100057dc:	4549      	cmp	r1, r9
100057de:	d902      	bls.n	100057e6 <_malloc_r+0x346>
100057e0:	6892      	ldr	r2, [r2, #8]
100057e2:	4594      	cmp	ip, r2
100057e4:	d1f7      	bne.n	100057d6 <_malloc_r+0x336>
100057e6:	68d3      	ldr	r3, [r2, #12]
100057e8:	469c      	mov	ip, r3
100057ea:	687b      	ldr	r3, [r7, #4]
100057ec:	4661      	mov	r1, ip
100057ee:	60a2      	str	r2, [r4, #8]
100057f0:	60e1      	str	r1, [r4, #12]
100057f2:	608c      	str	r4, [r1, #8]
100057f4:	60d4      	str	r4, [r2, #12]
100057f6:	e6d7      	b.n	100055a8 <_malloc_r+0x108>
100057f8:	200007d0 	.word	0x200007d0
100057fc:	20000bd8 	.word	0x20000bd8
10005800:	20000c48 	.word	0x20000c48
10005804:	0000100f 	.word	0x0000100f
10005808:	20000c18 	.word	0x20000c18
1000580c:	00001008 	.word	0x00001008
10005810:	20000c40 	.word	0x20000c40
10005814:	20000c44 	.word	0x20000c44
10005818:	2814      	cmp	r0, #20
1000581a:	d952      	bls.n	100058c2 <_malloc_r+0x422>
1000581c:	2854      	cmp	r0, #84	; 0x54
1000581e:	d900      	bls.n	10005822 <_malloc_r+0x382>
10005820:	e096      	b.n	10005950 <_malloc_r+0x4b0>
10005822:	236e      	movs	r3, #110	; 0x6e
10005824:	4698      	mov	r8, r3
10005826:	0b28      	lsrs	r0, r5, #12
10005828:	4480      	add	r8, r0
1000582a:	306f      	adds	r0, #111	; 0x6f
1000582c:	00c1      	lsls	r1, r0, #3
1000582e:	e680      	b.n	10005532 <_malloc_r+0x92>
10005830:	2308      	movs	r3, #8
10005832:	469b      	mov	fp, r3
10005834:	3b07      	subs	r3, #7
10005836:	44dc      	add	ip, fp
10005838:	469b      	mov	fp, r3
1000583a:	44da      	add	sl, fp
1000583c:	4643      	mov	r3, r8
1000583e:	4652      	mov	r2, sl
10005840:	4213      	tst	r3, r2
10005842:	d000      	beq.n	10005846 <_malloc_r+0x3a6>
10005844:	e6c4      	b.n	100055d0 <_malloc_r+0x130>
10005846:	e04c      	b.n	100058e2 <_malloc_r+0x442>
10005848:	2201      	movs	r2, #1
1000584a:	18e3      	adds	r3, r4, r3
1000584c:	6859      	ldr	r1, [r3, #4]
1000584e:	0030      	movs	r0, r6
10005850:	430a      	orrs	r2, r1
10005852:	605a      	str	r2, [r3, #4]
10005854:	68e3      	ldr	r3, [r4, #12]
10005856:	68a2      	ldr	r2, [r4, #8]
10005858:	60d3      	str	r3, [r2, #12]
1000585a:	609a      	str	r2, [r3, #8]
1000585c:	f000 f8e8 	bl	10005a30 <__malloc_unlock>
10005860:	0020      	movs	r0, r4
10005862:	3008      	adds	r0, #8
10005864:	e6e1      	b.n	1000562a <_malloc_r+0x18a>
10005866:	002b      	movs	r3, r5
10005868:	08e8      	lsrs	r0, r5, #3
1000586a:	3308      	adds	r3, #8
1000586c:	e62c      	b.n	100054c8 <_malloc_r+0x28>
1000586e:	2301      	movs	r3, #1
10005870:	1960      	adds	r0, r4, r5
10005872:	431d      	orrs	r5, r3
10005874:	6065      	str	r5, [r4, #4]
10005876:	6178      	str	r0, [r7, #20]
10005878:	6138      	str	r0, [r7, #16]
1000587a:	60c2      	str	r2, [r0, #12]
1000587c:	6082      	str	r2, [r0, #8]
1000587e:	001a      	movs	r2, r3
10005880:	464b      	mov	r3, r9
10005882:	430a      	orrs	r2, r1
10005884:	6042      	str	r2, [r0, #4]
10005886:	0030      	movs	r0, r6
10005888:	50e1      	str	r1, [r4, r3]
1000588a:	f000 f8d1 	bl	10005a30 <__malloc_unlock>
1000588e:	0020      	movs	r0, r4
10005890:	3008      	adds	r0, #8
10005892:	e6ca      	b.n	1000562a <_malloc_r+0x18a>
10005894:	099a      	lsrs	r2, r3, #6
10005896:	0011      	movs	r1, r2
10005898:	3239      	adds	r2, #57	; 0x39
1000589a:	3138      	adds	r1, #56	; 0x38
1000589c:	00d2      	lsls	r2, r2, #3
1000589e:	e78e      	b.n	100057be <_malloc_r+0x31e>
100058a0:	42bc      	cmp	r4, r7
100058a2:	d060      	beq.n	10005966 <_malloc_r+0x4c6>
100058a4:	68bc      	ldr	r4, [r7, #8]
100058a6:	6862      	ldr	r2, [r4, #4]
100058a8:	2303      	movs	r3, #3
100058aa:	439a      	bics	r2, r3
100058ac:	1b53      	subs	r3, r2, r5
100058ae:	4295      	cmp	r5, r2
100058b0:	d802      	bhi.n	100058b8 <_malloc_r+0x418>
100058b2:	2b0f      	cmp	r3, #15
100058b4:	dd00      	ble.n	100058b8 <_malloc_r+0x418>
100058b6:	e76a      	b.n	1000578e <_malloc_r+0x2ee>
100058b8:	0030      	movs	r0, r6
100058ba:	f000 f8b9 	bl	10005a30 <__malloc_unlock>
100058be:	2000      	movs	r0, #0
100058c0:	e6b3      	b.n	1000562a <_malloc_r+0x18a>
100058c2:	235b      	movs	r3, #91	; 0x5b
100058c4:	4698      	mov	r8, r3
100058c6:	4480      	add	r8, r0
100058c8:	305c      	adds	r0, #92	; 0x5c
100058ca:	00c1      	lsls	r1, r0, #3
100058cc:	e631      	b.n	10005532 <_malloc_r+0x92>
100058ce:	2308      	movs	r3, #8
100058d0:	425b      	negs	r3, r3
100058d2:	469c      	mov	ip, r3
100058d4:	44e1      	add	r9, ip
100058d6:	464b      	mov	r3, r9
100058d8:	689b      	ldr	r3, [r3, #8]
100058da:	3801      	subs	r0, #1
100058dc:	454b      	cmp	r3, r9
100058de:	d000      	beq.n	100058e2 <_malloc_r+0x442>
100058e0:	e098      	b.n	10005a14 <_malloc_r+0x574>
100058e2:	4643      	mov	r3, r8
100058e4:	4203      	tst	r3, r0
100058e6:	d1f2      	bne.n	100058ce <_malloc_r+0x42e>
100058e8:	687b      	ldr	r3, [r7, #4]
100058ea:	438b      	bics	r3, r1
100058ec:	607b      	str	r3, [r7, #4]
100058ee:	0049      	lsls	r1, r1, #1
100058f0:	4299      	cmp	r1, r3
100058f2:	d900      	bls.n	100058f6 <_malloc_r+0x456>
100058f4:	e6b7      	b.n	10005666 <_malloc_r+0x1c6>
100058f6:	2900      	cmp	r1, #0
100058f8:	d104      	bne.n	10005904 <_malloc_r+0x464>
100058fa:	e6b4      	b.n	10005666 <_malloc_r+0x1c6>
100058fc:	2204      	movs	r2, #4
100058fe:	4694      	mov	ip, r2
10005900:	0049      	lsls	r1, r1, #1
10005902:	44e2      	add	sl, ip
10005904:	420b      	tst	r3, r1
10005906:	d0f9      	beq.n	100058fc <_malloc_r+0x45c>
10005908:	4650      	mov	r0, sl
1000590a:	e65c      	b.n	100055c6 <_malloc_r+0x126>
1000590c:	3310      	adds	r3, #16
1000590e:	9300      	str	r3, [sp, #0]
10005910:	e6c6      	b.n	100056a0 <_malloc_r+0x200>
10005912:	1089      	asrs	r1, r1, #2
10005914:	3b02      	subs	r3, #2
10005916:	408b      	lsls	r3, r1
10005918:	6879      	ldr	r1, [r7, #4]
1000591a:	430b      	orrs	r3, r1
1000591c:	607b      	str	r3, [r7, #4]
1000591e:	e765      	b.n	100057ec <_malloc_r+0x34c>
10005920:	9b00      	ldr	r3, [sp, #0]
10005922:	0030      	movs	r0, r6
10005924:	4443      	add	r3, r8
10005926:	425b      	negs	r3, r3
10005928:	051b      	lsls	r3, r3, #20
1000592a:	0d1b      	lsrs	r3, r3, #20
1000592c:	0019      	movs	r1, r3
1000592e:	469b      	mov	fp, r3
10005930:	f000 f886 	bl	10005a40 <_sbrk_r>
10005934:	1c43      	adds	r3, r0, #1
10005936:	d000      	beq.n	1000593a <_malloc_r+0x49a>
10005938:	e6f4      	b.n	10005724 <_malloc_r+0x284>
1000593a:	2300      	movs	r3, #0
1000593c:	469b      	mov	fp, r3
1000593e:	e6f6      	b.n	1000572e <_malloc_r+0x28e>
10005940:	2a54      	cmp	r2, #84	; 0x54
10005942:	d82b      	bhi.n	1000599c <_malloc_r+0x4fc>
10005944:	0b1a      	lsrs	r2, r3, #12
10005946:	0011      	movs	r1, r2
10005948:	326f      	adds	r2, #111	; 0x6f
1000594a:	316e      	adds	r1, #110	; 0x6e
1000594c:	00d2      	lsls	r2, r2, #3
1000594e:	e736      	b.n	100057be <_malloc_r+0x31e>
10005950:	23aa      	movs	r3, #170	; 0xaa
10005952:	005b      	lsls	r3, r3, #1
10005954:	4298      	cmp	r0, r3
10005956:	d82b      	bhi.n	100059b0 <_malloc_r+0x510>
10005958:	3bdd      	subs	r3, #221	; 0xdd
1000595a:	4698      	mov	r8, r3
1000595c:	0be8      	lsrs	r0, r5, #15
1000595e:	4480      	add	r8, r0
10005960:	3078      	adds	r0, #120	; 0x78
10005962:	00c1      	lsls	r1, r0, #3
10005964:	e5e5      	b.n	10005532 <_malloc_r+0x92>
10005966:	4b2c      	ldr	r3, [pc, #176]	; (10005a18 <_malloc_r+0x578>)
10005968:	9a00      	ldr	r2, [sp, #0]
1000596a:	469a      	mov	sl, r3
1000596c:	681b      	ldr	r3, [r3, #0]
1000596e:	469c      	mov	ip, r3
10005970:	4653      	mov	r3, sl
10005972:	4462      	add	r2, ip
10005974:	601a      	str	r2, [r3, #0]
10005976:	e6ae      	b.n	100056d6 <_malloc_r+0x236>
10005978:	0509      	lsls	r1, r1, #20
1000597a:	d000      	beq.n	1000597e <_malloc_r+0x4de>
1000597c:	e6ab      	b.n	100056d6 <_malloc_r+0x236>
1000597e:	9a00      	ldr	r2, [sp, #0]
10005980:	68bc      	ldr	r4, [r7, #8]
10005982:	444a      	add	r2, r9
10005984:	3101      	adds	r1, #1
10005986:	430a      	orrs	r2, r1
10005988:	6062      	str	r2, [r4, #4]
1000598a:	e6f4      	b.n	10005776 <_malloc_r+0x2d6>
1000598c:	465b      	mov	r3, fp
1000598e:	4642      	mov	r2, r8
10005990:	601a      	str	r2, [r3, #0]
10005992:	e6ab      	b.n	100056ec <_malloc_r+0x24c>
10005994:	4644      	mov	r4, r8
10005996:	e6ee      	b.n	10005776 <_malloc_r+0x2d6>
10005998:	6041      	str	r1, [r0, #4]
1000599a:	e78d      	b.n	100058b8 <_malloc_r+0x418>
1000599c:	21aa      	movs	r1, #170	; 0xaa
1000599e:	0049      	lsls	r1, r1, #1
100059a0:	428a      	cmp	r2, r1
100059a2:	d824      	bhi.n	100059ee <_malloc_r+0x54e>
100059a4:	0bda      	lsrs	r2, r3, #15
100059a6:	0011      	movs	r1, r2
100059a8:	3278      	adds	r2, #120	; 0x78
100059aa:	3177      	adds	r1, #119	; 0x77
100059ac:	00d2      	lsls	r2, r2, #3
100059ae:	e706      	b.n	100057be <_malloc_r+0x31e>
100059b0:	4b1a      	ldr	r3, [pc, #104]	; (10005a1c <_malloc_r+0x57c>)
100059b2:	4298      	cmp	r0, r3
100059b4:	d824      	bhi.n	10005a00 <_malloc_r+0x560>
100059b6:	237c      	movs	r3, #124	; 0x7c
100059b8:	4698      	mov	r8, r3
100059ba:	0ca8      	lsrs	r0, r5, #18
100059bc:	4480      	add	r8, r0
100059be:	307d      	adds	r0, #125	; 0x7d
100059c0:	00c1      	lsls	r1, r0, #3
100059c2:	e5b6      	b.n	10005532 <_malloc_r+0x92>
100059c4:	9a00      	ldr	r2, [sp, #0]
100059c6:	9b01      	ldr	r3, [sp, #4]
100059c8:	4694      	mov	ip, r2
100059ca:	4642      	mov	r2, r8
100059cc:	3b08      	subs	r3, #8
100059ce:	4463      	add	r3, ip
100059d0:	1a9b      	subs	r3, r3, r2
100059d2:	9300      	str	r3, [sp, #0]
100059d4:	2300      	movs	r3, #0
100059d6:	469b      	mov	fp, r3
100059d8:	e6a9      	b.n	1000572e <_malloc_r+0x28e>
100059da:	0021      	movs	r1, r4
100059dc:	0030      	movs	r0, r6
100059de:	3108      	adds	r1, #8
100059e0:	f000 f8bc 	bl	10005b5c <_free_r>
100059e4:	4653      	mov	r3, sl
100059e6:	68bc      	ldr	r4, [r7, #8]
100059e8:	681b      	ldr	r3, [r3, #0]
100059ea:	6862      	ldr	r2, [r4, #4]
100059ec:	e6c3      	b.n	10005776 <_malloc_r+0x2d6>
100059ee:	490b      	ldr	r1, [pc, #44]	; (10005a1c <_malloc_r+0x57c>)
100059f0:	428a      	cmp	r2, r1
100059f2:	d80b      	bhi.n	10005a0c <_malloc_r+0x56c>
100059f4:	0c9a      	lsrs	r2, r3, #18
100059f6:	0011      	movs	r1, r2
100059f8:	327d      	adds	r2, #125	; 0x7d
100059fa:	317c      	adds	r1, #124	; 0x7c
100059fc:	00d2      	lsls	r2, r2, #3
100059fe:	e6de      	b.n	100057be <_malloc_r+0x31e>
10005a00:	21fe      	movs	r1, #254	; 0xfe
10005a02:	237e      	movs	r3, #126	; 0x7e
10005a04:	207f      	movs	r0, #127	; 0x7f
10005a06:	4698      	mov	r8, r3
10005a08:	0089      	lsls	r1, r1, #2
10005a0a:	e592      	b.n	10005532 <_malloc_r+0x92>
10005a0c:	22fe      	movs	r2, #254	; 0xfe
10005a0e:	217e      	movs	r1, #126	; 0x7e
10005a10:	0092      	lsls	r2, r2, #2
10005a12:	e6d4      	b.n	100057be <_malloc_r+0x31e>
10005a14:	687b      	ldr	r3, [r7, #4]
10005a16:	e76a      	b.n	100058ee <_malloc_r+0x44e>
10005a18:	20000c18 	.word	0x20000c18
10005a1c:	00000554 	.word	0x00000554

10005a20 <__malloc_lock>:
10005a20:	b510      	push	{r4, lr}
10005a22:	4802      	ldr	r0, [pc, #8]	; (10005a2c <__malloc_lock+0xc>)
10005a24:	f000 f97c 	bl	10005d20 <__retarget_lock_acquire_recursive>
10005a28:	bd10      	pop	{r4, pc}
10005a2a:	46c0      	nop			; (mov r8, r8)
10005a2c:	20000f18 	.word	0x20000f18

10005a30 <__malloc_unlock>:
10005a30:	b510      	push	{r4, lr}
10005a32:	4802      	ldr	r0, [pc, #8]	; (10005a3c <__malloc_unlock+0xc>)
10005a34:	f000 f976 	bl	10005d24 <__retarget_lock_release_recursive>
10005a38:	bd10      	pop	{r4, pc}
10005a3a:	46c0      	nop			; (mov r8, r8)
10005a3c:	20000f18 	.word	0x20000f18

10005a40 <_sbrk_r>:
10005a40:	2300      	movs	r3, #0
10005a42:	b570      	push	{r4, r5, r6, lr}
10005a44:	4d06      	ldr	r5, [pc, #24]	; (10005a60 <_sbrk_r+0x20>)
10005a46:	0004      	movs	r4, r0
10005a48:	0008      	movs	r0, r1
10005a4a:	602b      	str	r3, [r5, #0]
10005a4c:	f7fc fce4 	bl	10002418 <_sbrk>
10005a50:	1c43      	adds	r3, r0, #1
10005a52:	d000      	beq.n	10005a56 <_sbrk_r+0x16>
10005a54:	bd70      	pop	{r4, r5, r6, pc}
10005a56:	682b      	ldr	r3, [r5, #0]
10005a58:	2b00      	cmp	r3, #0
10005a5a:	d0fb      	beq.n	10005a54 <_sbrk_r+0x14>
10005a5c:	6023      	str	r3, [r4, #0]
10005a5e:	e7f9      	b.n	10005a54 <_sbrk_r+0x14>
10005a60:	20000f2c 	.word	0x20000f2c

10005a64 <strlen>:
10005a64:	b510      	push	{r4, lr}
10005a66:	0783      	lsls	r3, r0, #30
10005a68:	d00a      	beq.n	10005a80 <strlen+0x1c>
10005a6a:	0003      	movs	r3, r0
10005a6c:	2103      	movs	r1, #3
10005a6e:	e002      	b.n	10005a76 <strlen+0x12>
10005a70:	3301      	adds	r3, #1
10005a72:	420b      	tst	r3, r1
10005a74:	d005      	beq.n	10005a82 <strlen+0x1e>
10005a76:	781a      	ldrb	r2, [r3, #0]
10005a78:	2a00      	cmp	r2, #0
10005a7a:	d1f9      	bne.n	10005a70 <strlen+0xc>
10005a7c:	1a18      	subs	r0, r3, r0
10005a7e:	bd10      	pop	{r4, pc}
10005a80:	0003      	movs	r3, r0
10005a82:	6819      	ldr	r1, [r3, #0]
10005a84:	4a0c      	ldr	r2, [pc, #48]	; (10005ab8 <strlen+0x54>)
10005a86:	4c0d      	ldr	r4, [pc, #52]	; (10005abc <strlen+0x58>)
10005a88:	188a      	adds	r2, r1, r2
10005a8a:	438a      	bics	r2, r1
10005a8c:	4222      	tst	r2, r4
10005a8e:	d10f      	bne.n	10005ab0 <strlen+0x4c>
10005a90:	6859      	ldr	r1, [r3, #4]
10005a92:	4a09      	ldr	r2, [pc, #36]	; (10005ab8 <strlen+0x54>)
10005a94:	3304      	adds	r3, #4
10005a96:	188a      	adds	r2, r1, r2
10005a98:	438a      	bics	r2, r1
10005a9a:	4222      	tst	r2, r4
10005a9c:	d108      	bne.n	10005ab0 <strlen+0x4c>
10005a9e:	6859      	ldr	r1, [r3, #4]
10005aa0:	4a05      	ldr	r2, [pc, #20]	; (10005ab8 <strlen+0x54>)
10005aa2:	3304      	adds	r3, #4
10005aa4:	188a      	adds	r2, r1, r2
10005aa6:	438a      	bics	r2, r1
10005aa8:	4222      	tst	r2, r4
10005aaa:	d0f1      	beq.n	10005a90 <strlen+0x2c>
10005aac:	e000      	b.n	10005ab0 <strlen+0x4c>
10005aae:	3301      	adds	r3, #1
10005ab0:	781a      	ldrb	r2, [r3, #0]
10005ab2:	2a00      	cmp	r2, #0
10005ab4:	d1fb      	bne.n	10005aae <strlen+0x4a>
10005ab6:	e7e1      	b.n	10005a7c <strlen+0x18>
10005ab8:	fefefeff 	.word	0xfefefeff
10005abc:	80808080 	.word	0x80808080

10005ac0 <_malloc_trim_r>:
10005ac0:	b5f8      	push	{r3, r4, r5, r6, r7, lr}
10005ac2:	000c      	movs	r4, r1
10005ac4:	0005      	movs	r5, r0
10005ac6:	f7ff ffab 	bl	10005a20 <__malloc_lock>
10005aca:	4f20      	ldr	r7, [pc, #128]	; (10005b4c <_malloc_trim_r+0x8c>)
10005acc:	68bb      	ldr	r3, [r7, #8]
10005ace:	685e      	ldr	r6, [r3, #4]
10005ad0:	2303      	movs	r3, #3
10005ad2:	439e      	bics	r6, r3
10005ad4:	4b1e      	ldr	r3, [pc, #120]	; (10005b50 <_malloc_trim_r+0x90>)
10005ad6:	1b34      	subs	r4, r6, r4
10005ad8:	469c      	mov	ip, r3
10005ada:	4464      	add	r4, ip
10005adc:	0b24      	lsrs	r4, r4, #12
10005ade:	3c01      	subs	r4, #1
10005ae0:	3311      	adds	r3, #17
10005ae2:	0324      	lsls	r4, r4, #12
10005ae4:	429c      	cmp	r4, r3
10005ae6:	db07      	blt.n	10005af8 <_malloc_trim_r+0x38>
10005ae8:	2100      	movs	r1, #0
10005aea:	0028      	movs	r0, r5
10005aec:	f7ff ffa8 	bl	10005a40 <_sbrk_r>
10005af0:	68bb      	ldr	r3, [r7, #8]
10005af2:	199b      	adds	r3, r3, r6
10005af4:	4298      	cmp	r0, r3
10005af6:	d004      	beq.n	10005b02 <_malloc_trim_r+0x42>
10005af8:	0028      	movs	r0, r5
10005afa:	f7ff ff99 	bl	10005a30 <__malloc_unlock>
10005afe:	2000      	movs	r0, #0
10005b00:	bdf8      	pop	{r3, r4, r5, r6, r7, pc}
10005b02:	0028      	movs	r0, r5
10005b04:	4261      	negs	r1, r4
10005b06:	f7ff ff9b 	bl	10005a40 <_sbrk_r>
10005b0a:	1c43      	adds	r3, r0, #1
10005b0c:	d00d      	beq.n	10005b2a <_malloc_trim_r+0x6a>
10005b0e:	2201      	movs	r2, #1
10005b10:	68bb      	ldr	r3, [r7, #8]
10005b12:	1b36      	subs	r6, r6, r4
10005b14:	4316      	orrs	r6, r2
10005b16:	605e      	str	r6, [r3, #4]
10005b18:	4b0e      	ldr	r3, [pc, #56]	; (10005b54 <_malloc_trim_r+0x94>)
10005b1a:	0028      	movs	r0, r5
10005b1c:	681a      	ldr	r2, [r3, #0]
10005b1e:	1b14      	subs	r4, r2, r4
10005b20:	601c      	str	r4, [r3, #0]
10005b22:	f7ff ff85 	bl	10005a30 <__malloc_unlock>
10005b26:	2001      	movs	r0, #1
10005b28:	e7ea      	b.n	10005b00 <_malloc_trim_r+0x40>
10005b2a:	2100      	movs	r1, #0
10005b2c:	0028      	movs	r0, r5
10005b2e:	f7ff ff87 	bl	10005a40 <_sbrk_r>
10005b32:	68ba      	ldr	r2, [r7, #8]
10005b34:	1a83      	subs	r3, r0, r2
10005b36:	2b0f      	cmp	r3, #15
10005b38:	ddde      	ble.n	10005af8 <_malloc_trim_r+0x38>
10005b3a:	4907      	ldr	r1, [pc, #28]	; (10005b58 <_malloc_trim_r+0x98>)
10005b3c:	6809      	ldr	r1, [r1, #0]
10005b3e:	1a40      	subs	r0, r0, r1
10005b40:	4904      	ldr	r1, [pc, #16]	; (10005b54 <_malloc_trim_r+0x94>)
10005b42:	6008      	str	r0, [r1, #0]
10005b44:	2101      	movs	r1, #1
10005b46:	430b      	orrs	r3, r1
10005b48:	6053      	str	r3, [r2, #4]
10005b4a:	e7d5      	b.n	10005af8 <_malloc_trim_r+0x38>
10005b4c:	200007d0 	.word	0x200007d0
10005b50:	00000fef 	.word	0x00000fef
10005b54:	20000c18 	.word	0x20000c18
10005b58:	20000bd8 	.word	0x20000bd8

10005b5c <_free_r>:
10005b5c:	b5f0      	push	{r4, r5, r6, r7, lr}
10005b5e:	46c6      	mov	lr, r8
10005b60:	0005      	movs	r5, r0
10005b62:	000c      	movs	r4, r1
10005b64:	b500      	push	{lr}
10005b66:	2900      	cmp	r1, #0
10005b68:	d04f      	beq.n	10005c0a <_free_r+0xae>
10005b6a:	f7ff ff59 	bl	10005a20 <__malloc_lock>
10005b6e:	0021      	movs	r1, r4
10005b70:	3908      	subs	r1, #8
10005b72:	684c      	ldr	r4, [r1, #4]
10005b74:	2601      	movs	r6, #1
10005b76:	0022      	movs	r2, r4
10005b78:	2003      	movs	r0, #3
10005b7a:	43b2      	bics	r2, r6
10005b7c:	188f      	adds	r7, r1, r2
10005b7e:	687b      	ldr	r3, [r7, #4]
10005b80:	4383      	bics	r3, r0
10005b82:	4862      	ldr	r0, [pc, #392]	; (10005d0c <_free_r+0x1b0>)
10005b84:	4698      	mov	r8, r3
10005b86:	6883      	ldr	r3, [r0, #8]
10005b88:	42bb      	cmp	r3, r7
10005b8a:	d06b      	beq.n	10005c64 <_free_r+0x108>
10005b8c:	4643      	mov	r3, r8
10005b8e:	607b      	str	r3, [r7, #4]
10005b90:	4226      	tst	r6, r4
10005b92:	d11e      	bne.n	10005bd2 <_free_r+0x76>
10005b94:	2308      	movs	r3, #8
10005b96:	469c      	mov	ip, r3
10005b98:	680c      	ldr	r4, [r1, #0]
10005b9a:	4484      	add	ip, r0
10005b9c:	1b09      	subs	r1, r1, r4
10005b9e:	1912      	adds	r2, r2, r4
10005ba0:	688c      	ldr	r4, [r1, #8]
10005ba2:	4564      	cmp	r4, ip
10005ba4:	d04f      	beq.n	10005c46 <_free_r+0xea>
10005ba6:	68cb      	ldr	r3, [r1, #12]
10005ba8:	60e3      	str	r3, [r4, #12]
10005baa:	609c      	str	r4, [r3, #8]
10005bac:	4643      	mov	r3, r8
10005bae:	18fc      	adds	r4, r7, r3
10005bb0:	6864      	ldr	r4, [r4, #4]
10005bb2:	4234      	tst	r4, r6
10005bb4:	d111      	bne.n	10005bda <_free_r+0x7e>
10005bb6:	68bb      	ldr	r3, [r7, #8]
10005bb8:	4c55      	ldr	r4, [pc, #340]	; (10005d10 <_free_r+0x1b4>)
10005bba:	4442      	add	r2, r8
10005bbc:	42a3      	cmp	r3, r4
10005bbe:	d100      	bne.n	10005bc2 <_free_r+0x66>
10005bc0:	e07f      	b.n	10005cc2 <_free_r+0x166>
10005bc2:	68fc      	ldr	r4, [r7, #12]
10005bc4:	60dc      	str	r4, [r3, #12]
10005bc6:	60a3      	str	r3, [r4, #8]
10005bc8:	2301      	movs	r3, #1
10005bca:	4313      	orrs	r3, r2
10005bcc:	604b      	str	r3, [r1, #4]
10005bce:	508a      	str	r2, [r1, r2]
10005bd0:	e006      	b.n	10005be0 <_free_r+0x84>
10005bd2:	18fc      	adds	r4, r7, r3
10005bd4:	6864      	ldr	r4, [r4, #4]
10005bd6:	4234      	tst	r4, r6
10005bd8:	d0ed      	beq.n	10005bb6 <_free_r+0x5a>
10005bda:	4316      	orrs	r6, r2
10005bdc:	604e      	str	r6, [r1, #4]
10005bde:	603a      	str	r2, [r7, #0]
10005be0:	2380      	movs	r3, #128	; 0x80
10005be2:	009b      	lsls	r3, r3, #2
10005be4:	429a      	cmp	r2, r3
10005be6:	d213      	bcs.n	10005c10 <_free_r+0xb4>
10005be8:	0954      	lsrs	r4, r2, #5
10005bea:	08d3      	lsrs	r3, r2, #3
10005bec:	2201      	movs	r2, #1
10005bee:	40a2      	lsls	r2, r4
10005bf0:	6844      	ldr	r4, [r0, #4]
10005bf2:	00db      	lsls	r3, r3, #3
10005bf4:	4322      	orrs	r2, r4
10005bf6:	6042      	str	r2, [r0, #4]
10005bf8:	1818      	adds	r0, r3, r0
10005bfa:	6883      	ldr	r3, [r0, #8]
10005bfc:	60c8      	str	r0, [r1, #12]
10005bfe:	608b      	str	r3, [r1, #8]
10005c00:	6081      	str	r1, [r0, #8]
10005c02:	60d9      	str	r1, [r3, #12]
10005c04:	0028      	movs	r0, r5
10005c06:	f7ff ff13 	bl	10005a30 <__malloc_unlock>
10005c0a:	bc04      	pop	{r2}
10005c0c:	4690      	mov	r8, r2
10005c0e:	bdf0      	pop	{r4, r5, r6, r7, pc}
10005c10:	0a53      	lsrs	r3, r2, #9
10005c12:	2b04      	cmp	r3, #4
10005c14:	d83f      	bhi.n	10005c96 <_free_r+0x13a>
10005c16:	0994      	lsrs	r4, r2, #6
10005c18:	0026      	movs	r6, r4
10005c1a:	3439      	adds	r4, #57	; 0x39
10005c1c:	3638      	adds	r6, #56	; 0x38
10005c1e:	00e4      	lsls	r4, r4, #3
10005c20:	1904      	adds	r4, r0, r4
10005c22:	6823      	ldr	r3, [r4, #0]
10005c24:	3c08      	subs	r4, #8
10005c26:	2703      	movs	r7, #3
10005c28:	429c      	cmp	r4, r3
10005c2a:	d043      	beq.n	10005cb4 <_free_r+0x158>
10005c2c:	6858      	ldr	r0, [r3, #4]
10005c2e:	43b8      	bics	r0, r7
10005c30:	4290      	cmp	r0, r2
10005c32:	d902      	bls.n	10005c3a <_free_r+0xde>
10005c34:	689b      	ldr	r3, [r3, #8]
10005c36:	429c      	cmp	r4, r3
10005c38:	d1f8      	bne.n	10005c2c <_free_r+0xd0>
10005c3a:	68dc      	ldr	r4, [r3, #12]
10005c3c:	60cc      	str	r4, [r1, #12]
10005c3e:	608b      	str	r3, [r1, #8]
10005c40:	60a1      	str	r1, [r4, #8]
10005c42:	60d9      	str	r1, [r3, #12]
10005c44:	e7de      	b.n	10005c04 <_free_r+0xa8>
10005c46:	4643      	mov	r3, r8
10005c48:	18f8      	adds	r0, r7, r3
10005c4a:	6840      	ldr	r0, [r0, #4]
10005c4c:	4230      	tst	r0, r6
10005c4e:	d158      	bne.n	10005d02 <_free_r+0x1a6>
10005c50:	0013      	movs	r3, r2
10005c52:	68b8      	ldr	r0, [r7, #8]
10005c54:	68fa      	ldr	r2, [r7, #12]
10005c56:	4443      	add	r3, r8
10005c58:	431e      	orrs	r6, r3
10005c5a:	60c2      	str	r2, [r0, #12]
10005c5c:	6090      	str	r0, [r2, #8]
10005c5e:	604e      	str	r6, [r1, #4]
10005c60:	50cb      	str	r3, [r1, r3]
10005c62:	e7cf      	b.n	10005c04 <_free_r+0xa8>
10005c64:	0013      	movs	r3, r2
10005c66:	4443      	add	r3, r8
10005c68:	4226      	tst	r6, r4
10005c6a:	d106      	bne.n	10005c7a <_free_r+0x11e>
10005c6c:	680a      	ldr	r2, [r1, #0]
10005c6e:	1a89      	subs	r1, r1, r2
10005c70:	688c      	ldr	r4, [r1, #8]
10005c72:	189b      	adds	r3, r3, r2
10005c74:	68ca      	ldr	r2, [r1, #12]
10005c76:	60e2      	str	r2, [r4, #12]
10005c78:	6094      	str	r4, [r2, #8]
10005c7a:	2201      	movs	r2, #1
10005c7c:	431a      	orrs	r2, r3
10005c7e:	604a      	str	r2, [r1, #4]
10005c80:	4a24      	ldr	r2, [pc, #144]	; (10005d14 <_free_r+0x1b8>)
10005c82:	6081      	str	r1, [r0, #8]
10005c84:	6812      	ldr	r2, [r2, #0]
10005c86:	429a      	cmp	r2, r3
10005c88:	d8bc      	bhi.n	10005c04 <_free_r+0xa8>
10005c8a:	4b23      	ldr	r3, [pc, #140]	; (10005d18 <_free_r+0x1bc>)
10005c8c:	0028      	movs	r0, r5
10005c8e:	6819      	ldr	r1, [r3, #0]
10005c90:	f7ff ff16 	bl	10005ac0 <_malloc_trim_r>
10005c94:	e7b6      	b.n	10005c04 <_free_r+0xa8>
10005c96:	2b14      	cmp	r3, #20
10005c98:	d907      	bls.n	10005caa <_free_r+0x14e>
10005c9a:	2b54      	cmp	r3, #84	; 0x54
10005c9c:	d81a      	bhi.n	10005cd4 <_free_r+0x178>
10005c9e:	0b14      	lsrs	r4, r2, #12
10005ca0:	0026      	movs	r6, r4
10005ca2:	346f      	adds	r4, #111	; 0x6f
10005ca4:	366e      	adds	r6, #110	; 0x6e
10005ca6:	00e4      	lsls	r4, r4, #3
10005ca8:	e7ba      	b.n	10005c20 <_free_r+0xc4>
10005caa:	001e      	movs	r6, r3
10005cac:	335c      	adds	r3, #92	; 0x5c
10005cae:	365b      	adds	r6, #91	; 0x5b
10005cb0:	00dc      	lsls	r4, r3, #3
10005cb2:	e7b5      	b.n	10005c20 <_free_r+0xc4>
10005cb4:	2201      	movs	r2, #1
10005cb6:	10b6      	asrs	r6, r6, #2
10005cb8:	40b2      	lsls	r2, r6
10005cba:	6846      	ldr	r6, [r0, #4]
10005cbc:	4332      	orrs	r2, r6
10005cbe:	6042      	str	r2, [r0, #4]
10005cc0:	e7bc      	b.n	10005c3c <_free_r+0xe0>
10005cc2:	60d9      	str	r1, [r3, #12]
10005cc4:	6099      	str	r1, [r3, #8]
10005cc6:	60cb      	str	r3, [r1, #12]
10005cc8:	608b      	str	r3, [r1, #8]
10005cca:	2301      	movs	r3, #1
10005ccc:	4313      	orrs	r3, r2
10005cce:	604b      	str	r3, [r1, #4]
10005cd0:	508a      	str	r2, [r1, r2]
10005cd2:	e797      	b.n	10005c04 <_free_r+0xa8>
10005cd4:	24aa      	movs	r4, #170	; 0xaa
10005cd6:	0064      	lsls	r4, r4, #1
10005cd8:	42a3      	cmp	r3, r4
10005cda:	d805      	bhi.n	10005ce8 <_free_r+0x18c>
10005cdc:	0bd4      	lsrs	r4, r2, #15
10005cde:	0026      	movs	r6, r4
10005ce0:	3478      	adds	r4, #120	; 0x78
10005ce2:	3677      	adds	r6, #119	; 0x77
10005ce4:	00e4      	lsls	r4, r4, #3
10005ce6:	e79b      	b.n	10005c20 <_free_r+0xc4>
10005ce8:	4c0c      	ldr	r4, [pc, #48]	; (10005d1c <_free_r+0x1c0>)
10005cea:	42a3      	cmp	r3, r4
10005cec:	d805      	bhi.n	10005cfa <_free_r+0x19e>
10005cee:	0c94      	lsrs	r4, r2, #18
10005cf0:	0026      	movs	r6, r4
10005cf2:	347d      	adds	r4, #125	; 0x7d
10005cf4:	367c      	adds	r6, #124	; 0x7c
10005cf6:	00e4      	lsls	r4, r4, #3
10005cf8:	e792      	b.n	10005c20 <_free_r+0xc4>
10005cfa:	24fe      	movs	r4, #254	; 0xfe
10005cfc:	267e      	movs	r6, #126	; 0x7e
10005cfe:	00a4      	lsls	r4, r4, #2
10005d00:	e78e      	b.n	10005c20 <_free_r+0xc4>
10005d02:	0033      	movs	r3, r6
10005d04:	4313      	orrs	r3, r2
10005d06:	604b      	str	r3, [r1, #4]
10005d08:	603a      	str	r2, [r7, #0]
10005d0a:	e77b      	b.n	10005c04 <_free_r+0xa8>
10005d0c:	200007d0 	.word	0x200007d0
10005d10:	200007d8 	.word	0x200007d8
10005d14:	20000bdc 	.word	0x20000bdc
10005d18:	20000c48 	.word	0x20000c48
10005d1c:	00000554 	.word	0x00000554

10005d20 <__retarget_lock_acquire_recursive>:
10005d20:	4770      	bx	lr
10005d22:	46c0      	nop			; (mov r8, r8)

10005d24 <__retarget_lock_release_recursive>:
10005d24:	4770      	bx	lr
10005d26:	46c0      	nop			; (mov r8, r8)

10005d28 <_fini>:
10005d28:	b5f8      	push	{r3, r4, r5, r6, r7, lr}
10005d2a:	46c0      	nop			; (mov r8, r8)
10005d2c:	0000      	movs	r0, r0
	...

10005d30 <__mutex_exit_veneer>:
10005d30:	b401      	push	{r0}
10005d32:	4802      	ldr	r0, [pc, #8]	; (10005d3c <__mutex_exit_veneer+0xc>)
10005d34:	4684      	mov	ip, r0
10005d36:	bc01      	pop	{r0}
10005d38:	4760      	bx	ip
10005d3a:	bf00      	nop
10005d3c:	2000015d 	.word	0x2000015d

10005d40 <____aeabi_ldiv0_veneer>:
10005d40:	b401      	push	{r0}
10005d42:	4802      	ldr	r0, [pc, #8]	; (10005d4c <____aeabi_ldiv0_veneer+0xc>)
10005d44:	4684      	mov	ip, r0
10005d46:	bc01      	pop	{r0}
10005d48:	4760      	bx	ip
10005d4a:	bf00      	nop
10005d4c:	20000185 	.word	0x20000185

10005d50 <____aeabi_idiv0_veneer>:
10005d50:	b401      	push	{r0}
10005d52:	4802      	ldr	r0, [pc, #8]	; (10005d5c <____aeabi_idiv0_veneer+0xc>)
10005d54:	4684      	mov	ip, r0
10005d56:	bc01      	pop	{r0}
10005d58:	4760      	bx	ip
10005d5a:	bf00      	nop
10005d5c:	20000185 	.word	0x20000185

10005d60 <__mutex_try_enter_veneer>:
10005d60:	b401      	push	{r0}
10005d62:	4802      	ldr	r0, [pc, #8]	; (10005d6c <__mutex_try_enter_veneer+0xc>)
10005d64:	4684      	mov	ip, r0
10005d66:	bc01      	pop	{r0}
10005d68:	4760      	bx	ip
10005d6a:	bf00      	nop
10005d6c:	20000111 	.word	0x20000111

10005d70 <__mutex_enter_blocking_veneer>:
10005d70:	b401      	push	{r0}
10005d72:	4802      	ldr	r0, [pc, #8]	; (10005d7c <__mutex_enter_blocking_veneer+0xc>)
10005d74:	4684      	mov	ip, r0
10005d76:	bc01      	pop	{r0}
10005d78:	4760      	bx	ip
10005d7a:	bf00      	nop
10005d7c:	200000c1 	.word	0x200000c1

Disassembly of section .data:

200000c0 <mutex_enter_blocking>:
200000c0:	b510      	push	{r4, lr}
200000c2:	6802      	ldr	r2, [r0, #0]
200000c4:	2400      	movs	r4, #0
200000c6:	f3ef 8110 	mrs	r1, PRIMASK
200000ca:	b672      	cpsid	i
200000cc:	6813      	ldr	r3, [r2, #0]
200000ce:	2b00      	cmp	r3, #0
200000d0:	d0fc      	beq.n	200000cc <mutex_enter_blocking+0xc>
200000d2:	f3bf 8f5f 	dmb	sy
200000d6:	7903      	ldrb	r3, [r0, #4]
200000d8:	2b00      	cmp	r3, #0
200000da:	d00b      	beq.n	200000f4 <mutex_enter_blocking+0x34>
200000dc:	6803      	ldr	r3, [r0, #0]
200000de:	f3bf 8f5f 	dmb	sy
200000e2:	601c      	str	r4, [r3, #0]
200000e4:	f381 8810 	msr	PRIMASK, r1
200000e8:	bf20      	wfe
200000ea:	6802      	ldr	r2, [r0, #0]
200000ec:	f3ef 8110 	mrs	r1, PRIMASK
200000f0:	b672      	cpsid	i
200000f2:	e7eb      	b.n	200000cc <mutex_enter_blocking+0xc>
200000f4:	2201      	movs	r2, #1
200000f6:	7102      	strb	r2, [r0, #4]
200000f8:	22d0      	movs	r2, #208	; 0xd0
200000fa:	0612      	lsls	r2, r2, #24
200000fc:	6812      	ldr	r2, [r2, #0]
200000fe:	7142      	strb	r2, [r0, #5]
20000100:	6802      	ldr	r2, [r0, #0]
20000102:	f3bf 8f5f 	dmb	sy
20000106:	6013      	str	r3, [r2, #0]
20000108:	f381 8810 	msr	PRIMASK, r1
2000010c:	bd10      	pop	{r4, pc}
2000010e:	46c0      	nop			; (mov r8, r8)

20000110 <mutex_try_enter>:
20000110:	0003      	movs	r3, r0
20000112:	b510      	push	{r4, lr}
20000114:	6800      	ldr	r0, [r0, #0]
20000116:	f3ef 8410 	mrs	r4, PRIMASK
2000011a:	b672      	cpsid	i
2000011c:	6802      	ldr	r2, [r0, #0]
2000011e:	2a00      	cmp	r2, #0
20000120:	d0fc      	beq.n	2000011c <mutex_try_enter+0xc>
20000122:	f3bf 8f5f 	dmb	sy
20000126:	791a      	ldrb	r2, [r3, #4]
20000128:	2a00      	cmp	r2, #0
2000012a:	d00d      	beq.n	20000148 <mutex_try_enter+0x38>
2000012c:	2900      	cmp	r1, #0
2000012e:	d013      	beq.n	20000158 <mutex_try_enter+0x48>
20000130:	2205      	movs	r2, #5
20000132:	2000      	movs	r0, #0
20000134:	569a      	ldrsb	r2, [r3, r2]
20000136:	600a      	str	r2, [r1, #0]
20000138:	681b      	ldr	r3, [r3, #0]
2000013a:	f3bf 8f5f 	dmb	sy
2000013e:	2200      	movs	r2, #0
20000140:	601a      	str	r2, [r3, #0]
20000142:	f384 8810 	msr	PRIMASK, r4
20000146:	bd10      	pop	{r4, pc}
20000148:	3201      	adds	r2, #1
2000014a:	711a      	strb	r2, [r3, #4]
2000014c:	22d0      	movs	r2, #208	; 0xd0
2000014e:	0612      	lsls	r2, r2, #24
20000150:	6812      	ldr	r2, [r2, #0]
20000152:	2001      	movs	r0, #1
20000154:	715a      	strb	r2, [r3, #5]
20000156:	e7ef      	b.n	20000138 <mutex_try_enter+0x28>
20000158:	2000      	movs	r0, #0
2000015a:	e7ed      	b.n	20000138 <mutex_try_enter+0x28>

2000015c <mutex_exit>:
2000015c:	6802      	ldr	r2, [r0, #0]
2000015e:	f3ef 8110 	mrs	r1, PRIMASK
20000162:	b672      	cpsid	i
20000164:	6813      	ldr	r3, [r2, #0]
20000166:	2b00      	cmp	r3, #0
20000168:	d0fc      	beq.n	20000164 <mutex_exit+0x8>
2000016a:	f3bf 8f5f 	dmb	sy
2000016e:	2300      	movs	r3, #0
20000170:	7103      	strb	r3, [r0, #4]
20000172:	bf40      	sev
20000174:	6802      	ldr	r2, [r0, #0]
20000176:	f3bf 8f5f 	dmb	sy
2000017a:	6013      	str	r3, [r2, #0]
2000017c:	f381 8810 	msr	PRIMASK, r1
20000180:	4770      	bx	lr
20000182:	46c0      	nop			; (mov r8, r8)

20000184 <__aeabi_idiv0>:
20000184:	4770      	bx	lr
20000186:	46c0      	nop			; (mov r8, r8)

20000188 <descriptor_strings>:
20000188:	5f3c 1000 5f4c 1000                         <_..L_..

20000190 <dev_config>:
20000190:	5f6c 1000 5fa0 1000 5f60 1000 5fac 1000     l_..._..`_..._..
200001a0:	0188 2000 5f88 1000 0321 1000 0000 0000     ... ._..!.......
200001b0:	0084 5010 0100 5010 0000 0000 5f80 1000     ...P...P....._..
200001c0:	0665 1000 0000 0000 0080 5010 0100 5010     e..........P...P
200001d0:	0000 0000 5f90 1000 04c5 1000 000c 5010     ....._.........P
200001e0:	008c 5010 0180 5010 0000 0000 5f98 1000     ...P...P....._..
200001f0:	0325 1000 0010 5010 0090 5010 01c0 5010     %......P...P...P
	...

20000324 <striped_spin_lock_num>:
20000324:	0010 0000                                   ....

20000328 <irq_handler_chain_slots>:
20000328:	00000000 	.word	0x00000000
2000032c:	00010000 	.word	0x00010000
	...
20000338:	00020000 	.word	0x00020000
	...
20000344:	00030000 	.word	0x00030000
	...
20000350:	00ff0000 	.word	0x00ff0000
20000354:	00000000 	.word	0x00000000

20000358 <irq_handler_chain_first_slot>:
20000358:	b500      	push	{lr}
2000035a:	6848      	ldr	r0, [r1, #4]
2000035c:	3101      	adds	r1, #1
2000035e:	468e      	mov	lr, r1
20000360:	4700      	bx	r0

20000362 <irq_handler_chain_remove_tail>:
20000362:	4670      	mov	r0, lr
20000364:	3809      	subs	r0, #9
20000366:	4901      	ldr	r1, [pc, #4]	; (2000036c <irq_handler_chain_remove_tail+0xa>)
20000368:	4788      	blx	r1
2000036a:	bd00      	pop	{pc}
2000036c:	10002a51 	.word	0x10002a51

20000370 <aeabi_bits_funcs>:
20000370:	00003350 	.word	0x00003350
20000374:	0000334c 	.word	0x0000334c
20000378:	00003354 	.word	0x00003354
2000037c:	00003352 	.word	0x00003352

20000380 <aeabi_bits_funcs_end>:
20000380:	0000534d 	.word	0x0000534d
20000384:	0000434d 	.word	0x0000434d
20000388:	00003453 	.word	0x00003453
2000038c:	00003443 	.word	0x00003443

20000390 <stdio_uart>:
20000390:	10005365 00000000 100053a1 00000000     eS.......S......
200003a0:	00000100                                ....

200003a4 <_impure_ptr>:
200003a4:	200003a8                                ... 

200003a8 <impure_data>:
200003a8:	00000000 20000694 200006fc 20000764     ....... ... d.. 
	...
20000450:	00000001 00000000 abcd330e e66d1234     .........3..4.m.
20000460:	0005deec 0000000b 00000000 00000000     ................
	...

200007d0 <__malloc_av_>:
	...
200007d8:	200007d0 200007d0 200007d8 200007d8     ... ... ... ... 
200007e8:	200007e0 200007e0 200007e8 200007e8     ... ... ... ... 
200007f8:	200007f0 200007f0 200007f8 200007f8     ... ... ... ... 
20000808:	20000800 20000800 20000808 20000808     ... ... ... ... 
20000818:	20000810 20000810 20000818 20000818     ... ... ... ... 
20000828:	20000820 20000820 20000828 20000828      ..  .. (.. (.. 
20000838:	20000830 20000830 20000838 20000838     0.. 0.. 8.. 8.. 
20000848:	20000840 20000840 20000848 20000848     @.. @.. H.. H.. 
20000858:	20000850 20000850 20000858 20000858     P.. P.. X.. X.. 
20000868:	20000860 20000860 20000868 20000868     `.. `.. h.. h.. 
20000878:	20000870 20000870 20000878 20000878     p.. p.. x.. x.. 
20000888:	20000880 20000880 20000888 20000888     ... ... ... ... 
20000898:	20000890 20000890 20000898 20000898     ... ... ... ... 
200008a8:	200008a0 200008a0 200008a8 200008a8     ... ... ... ... 
200008b8:	200008b0 200008b0 200008b8 200008b8     ... ... ... ... 
200008c8:	200008c0 200008c0 200008c8 200008c8     ... ... ... ... 
200008d8:	200008d0 200008d0 200008d8 200008d8     ... ... ... ... 
200008e8:	200008e0 200008e0 200008e8 200008e8     ... ... ... ... 
200008f8:	200008f0 200008f0 200008f8 200008f8     ... ... ... ... 
20000908:	20000900 20000900 20000908 20000908     ... ... ... ... 
20000918:	20000910 20000910 20000918 20000918     ... ... ... ... 
20000928:	20000920 20000920 20000928 20000928      ..  .. (.. (.. 
20000938:	20000930 20000930 20000938 20000938     0.. 0.. 8.. 8.. 
20000948:	20000940 20000940 20000948 20000948     @.. @.. H.. H.. 
20000958:	20000950 20000950 20000958 20000958     P.. P.. X.. X.. 
20000968:	20000960 20000960 20000968 20000968     `.. `.. h.. h.. 
20000978:	20000970 20000970 20000978 20000978     p.. p.. x.. x.. 
20000988:	20000980 20000980 20000988 20000988     ... ... ... ... 
20000998:	20000990 20000990 20000998 20000998     ... ... ... ... 
200009a8:	200009a0 200009a0 200009a8 200009a8     ... ... ... ... 
200009b8:	200009b0 200009b0 200009b8 200009b8     ... ... ... ... 
200009c8:	200009c0 200009c0 200009c8 200009c8     ... ... ... ... 
200009d8:	200009d0 200009d0 200009d8 200009d8     ... ... ... ... 
200009e8:	200009e0 200009e0 200009e8 200009e8     ... ... ... ... 
200009f8:	200009f0 200009f0 200009f8 200009f8     ... ... ... ... 
20000a08:	20000a00 20000a00 20000a08 20000a08     ... ... ... ... 
20000a18:	20000a10 20000a10 20000a18 20000a18     ... ... ... ... 
20000a28:	20000a20 20000a20 20000a28 20000a28      ..  .. (.. (.. 
20000a38:	20000a30 20000a30 20000a38 20000a38     0.. 0.. 8.. 8.. 
20000a48:	20000a40 20000a40 20000a48 20000a48     @.. @.. H.. H.. 
20000a58:	20000a50 20000a50 20000a58 20000a58     P.. P.. X.. X.. 
20000a68:	20000a60 20000a60 20000a68 20000a68     `.. `.. h.. h.. 
20000a78:	20000a70 20000a70 20000a78 20000a78     p.. p.. x.. x.. 
20000a88:	20000a80 20000a80 20000a88 20000a88     ... ... ... ... 
20000a98:	20000a90 20000a90 20000a98 20000a98     ... ... ... ... 
20000aa8:	20000aa0 20000aa0 20000aa8 20000aa8     ... ... ... ... 
20000ab8:	20000ab0 20000ab0 20000ab8 20000ab8     ... ... ... ... 
20000ac8:	20000ac0 20000ac0 20000ac8 20000ac8     ... ... ... ... 
20000ad8:	20000ad0 20000ad0 20000ad8 20000ad8     ... ... ... ... 
20000ae8:	20000ae0 20000ae0 20000ae8 20000ae8     ... ... ... ... 
20000af8:	20000af0 20000af0 20000af8 20000af8     ... ... ... ... 
20000b08:	20000b00 20000b00 20000b08 20000b08     ... ... ... ... 
20000b18:	20000b10 20000b10 20000b18 20000b18     ... ... ... ... 
20000b28:	20000b20 20000b20 20000b28 20000b28      ..  .. (.. (.. 
20000b38:	20000b30 20000b30 20000b38 20000b38     0.. 0.. 8.. 8.. 
20000b48:	20000b40 20000b40 20000b48 20000b48     @.. @.. H.. H.. 
20000b58:	20000b50 20000b50 20000b58 20000b58     P.. P.. X.. X.. 
20000b68:	20000b60 20000b60 20000b68 20000b68     `.. `.. h.. h.. 
20000b78:	20000b70 20000b70 20000b78 20000b78     p.. p.. x.. x.. 
20000b88:	20000b80 20000b80 20000b88 20000b88     ... ... ... ... 
20000b98:	20000b90 20000b90 20000b98 20000b98     ... ... ... ... 
20000ba8:	20000ba0 20000ba0 20000ba8 20000ba8     ... ... ... ... 
20000bb8:	20000bb0 20000bb0 20000bb8 20000bb8     ... ... ... ... 
20000bc8:	20000bc0 20000bc0 20000bc8 20000bc8     ... ... ... ... 

20000bd8 <__malloc_sbrk_base>:
20000bd8:	ffffffff                                ....

20000bdc <__malloc_trim_threshold>:
20000bdc:	00020000                                ....

20000be0 <print_mutex>:
	...

20000be8 <__mutex_array_end>:
20000be8:	10004fa5 	.word	0x10004fa5
20000bec:	1000418d 	.word	0x1000418d
20000bf0:	10004881 	.word	0x10004881
20000bf4:	10004f05 	.word	0x10004f05

20000bf8 <__frame_dummy_init_array_entry>:
20000bf8:	10000301                                ....
