
dev_hid_generic_inout.elf:     file format elf32-littlearm

Sections:
Idx Name          Size      VMA       LMA       File off  Algn
  0 .boot2        00000100  10000000  10000000  00010000  2**0
                  CONTENTS, ALLOC, LOAD, READONLY, DATA
  1 .text         000046e8  10000100  10000100  00010100  2**3
                  CONTENTS, ALLOC, LOAD, READONLY, CODE
  2 .rodata       00000364  100047e8  100047e8  000147e8  2**2
                  CONTENTS, ALLOC, LOAD, READONLY, DATA
  3 .binary_info  00000024  10004b4c  10004b4c  00014b4c  2**2
                  CONTENTS, ALLOC, LOAD, DATA
  4 .ram_vector_table 000000c0  20000000  20000000  00020b64  2**2
                  CONTENTS
  5 .data         00000aa4  200000c0  10004b70  000200c0  2**4
                  CONTENTS, ALLOC, LOAD, CODE
  6 .uninitialized_data 00000000  20000b64  20000b64  00020c24  2**0
                  CONTENTS
  7 .scratch_x    00000000  20040000  20040000  00020c24  2**0
                  CONTENTS
  8 .scratch_y    00000000  20041000  20041000  00020c24  2**0
                  CONTENTS
  9 .bss          00000bac  20000b64  20000b64  00020b64  2**2
                  ALLOC
 10 .heap         00000800  20001710  20001710  00020c24  2**2
                  CONTENTS, READONLY
 11 .stack_dummy  00000800  20041000  20041000  00021440  2**5
                  CONTENTS, READONLY
 12 .ARM.attributes 00000028  00000000  00000000  00021c40  2**0
                  CONTENTS, READONLY
 13 .comment      00000079  00000000  00000000  00021c68  2**0
                  CONTENTS, READONLY
 14 .debug_frame  000002ac  00000000  00000000  00021ce4  2**2
                  CONTENTS, READONLY, DEBUGGING

dev_hid_generic_inout.elf:     file format elf32-littlearm


Disassembly of section .text:

10000100 <__reset_start>:
10000100:	4827      	ldr	r0, [pc, #156]	; (100001a0 <__get_current_exception+0xa>)
10000102:	e000      	b.n	10000106 <__vector_entry>

10000104 <_entry_point>:
10000104:	2000      	movs	r0, #0

10000106 <__vector_entry>:
10000106:	4927      	ldr	r1, [pc, #156]	; (100001a4 <__get_current_exception+0xe>)
10000108:	6088      	str	r0, [r1, #8]
1000010a:	c806      	ldmia	r0!, {r1, r2}
1000010c:	f381 8808 	msr	MSP, r1
10000110:	4710      	bx	r2

10000112 <_reset_handler>:
10000112:	4825      	ldr	r0, [pc, #148]	; (100001a8 <__get_current_exception+0x12>)
10000114:	6800      	ldr	r0, [r0, #0]
10000116:	2800      	cmp	r0, #0
10000118:	d139      	bne.n	1000018e <wait_for_vector>
1000011a:	a412      	add	r4, pc, #72	; (adr r4, 10000164 <data_cpy_table>)
1000011c:	cc0e      	ldmia	r4!, {r1, r2, r3}
1000011e:	2900      	cmp	r1, #0
10000120:	d002      	beq.n	10000128 <_reset_handler+0x16>
10000122:	f000 f812 	bl	1000014a <data_cpy>
10000126:	e7f9      	b.n	1000011c <_reset_handler+0xa>
10000128:	4920      	ldr	r1, [pc, #128]	; (100001ac <__get_current_exception+0x16>)
1000012a:	4a21      	ldr	r2, [pc, #132]	; (100001b0 <__get_current_exception+0x1a>)
1000012c:	2000      	movs	r0, #0
1000012e:	e000      	b.n	10000132 <bss_fill_test>

10000130 <bss_fill_loop>:
10000130:	c101      	stmia	r1!, {r0}

10000132 <bss_fill_test>:
10000132:	4291      	cmp	r1, r2
10000134:	d1fc      	bne.n	10000130 <bss_fill_loop>

10000136 <platform_entry>:
10000136:	491f      	ldr	r1, [pc, #124]	; (100001b4 <__get_current_exception+0x1e>)
10000138:	4788      	blx	r1
1000013a:	491f      	ldr	r1, [pc, #124]	; (100001b8 <__get_current_exception+0x22>)
1000013c:	4788      	blx	r1
1000013e:	491f      	ldr	r1, [pc, #124]	; (100001bc <__get_current_exception+0x26>)
10000140:	4788      	blx	r1
10000142:	be00      	bkpt	0x0000
10000144:	e7fd      	b.n	10000142 <platform_entry+0xc>

10000146 <data_cpy_loop>:
10000146:	c901      	ldmia	r1!, {r0}
10000148:	c201      	stmia	r2!, {r0}

1000014a <data_cpy>:
1000014a:	429a      	cmp	r2, r3
1000014c:	d3fb      	bcc.n	10000146 <data_cpy_loop>
1000014e:	4770      	bx	lr

10000150 <binary_info_header>:
10000150:	7188ebf2 	.word	0x7188ebf2
10000154:	10004b4c 	.word	0x10004b4c
10000158:	10004b70 	.word	0x10004b70
1000015c:	10000164 	.word	0x10000164
10000160:	e71aa390 	.word	0xe71aa390

10000164 <data_cpy_table>:
10000164:	10004b70 	.word	0x10004b70
10000168:	200000c0 	.word	0x200000c0
1000016c:	20000b64 	.word	0x20000b64
10000170:	10005614 	.word	0x10005614
10000174:	20040000 	.word	0x20040000
10000178:	20040000 	.word	0x20040000
1000017c:	10005614 	.word	0x10005614
10000180:	20041000 	.word	0x20041000
10000184:	20041000 	.word	0x20041000
10000188:	00000000 	.word	0x00000000
1000018c:	4770      	bx	lr

1000018e <wait_for_vector>:
1000018e:	480c      	ldr	r0, [pc, #48]	; (100001c0 <__get_current_exception+0x2a>)
10000190:	f001 fd2a 	bl	10001be8 <rom_func_lookup>
10000194:	4700      	bx	r0

10000196 <__get_current_exception>:
10000196:	f3ef 8005 	mrs	r0, IPSR
1000019a:	b2c0      	uxtb	r0, r0
1000019c:	4770      	bx	lr
1000019e:	0000      	.short	0x0000
100001a0:	10000200 	.word	0x10000200
100001a4:	e000ed00 	.word	0xe000ed00
100001a8:	d0000000 	.word	0xd0000000
100001ac:	20000b64 	.word	0x20000b64
100001b0:	20001710 	.word	0x20001710
100001b4:	10001381 	.word	0x10001381
100001b8:	10000321 	.word	0x10000321
100001bc:	100014a1 	.word	0x100014a1
100001c0:	00005657 	.word	0x00005657

100001c4 <__bi_46>:
100001c4:	50520006 5360b3ab 1000492c              ..RP..`S,I..

100001d0 <__bi_34>:
100001d0:	50520006 02031c86 1000493c              ..RP....<I..

100001dc <__bi_26>:
100001dc:	50520006 9da22254 10004954              ..RPT"..TI..

100001e8 <__bi_18>:
100001e8:	50520005 68f465de 10005614 00000000     ..RP.e.h.V......
	...

10000200 <__reset_end>:
10000200:	20042000 	.word	0x20042000
10000204:	10000113 	.word	0x10000113
10000208:	100002c3 	.word	0x100002c3
1000020c:	100002c5 	.word	0x100002c5
10000210:	100002c1 	.word	0x100002c1
10000214:	100002c1 	.word	0x100002c1
10000218:	100002c1 	.word	0x100002c1
1000021c:	100002c1 	.word	0x100002c1
10000220:	100002c1 	.word	0x100002c1
10000224:	100002c1 	.word	0x100002c1
10000228:	100002c1 	.word	0x100002c1
1000022c:	100002c7 	.word	0x100002c7
10000230:	100002c1 	.word	0x100002c1
10000234:	100002c1 	.word	0x100002c1
10000238:	100002c9 	.word	0x100002c9
1000023c:	100002cb 	.word	0x100002cb
10000240:	100002cd 	.word	0x100002cd
10000244:	100002cd 	.word	0x100002cd
10000248:	100002cd 	.word	0x100002cd
1000024c:	100002cd 	.word	0x100002cd
10000250:	100002cd 	.word	0x100002cd
10000254:	100002cd 	.word	0x100002cd
10000258:	100002cd 	.word	0x100002cd
1000025c:	100002cd 	.word	0x100002cd
10000260:	100002cd 	.word	0x100002cd
10000264:	100002cd 	.word	0x100002cd
10000268:	100002cd 	.word	0x100002cd
1000026c:	100002cd 	.word	0x100002cd
10000270:	100002cd 	.word	0x100002cd
10000274:	100002cd 	.word	0x100002cd
10000278:	100002cd 	.word	0x100002cd
1000027c:	100002cd 	.word	0x100002cd
10000280:	100002cd 	.word	0x100002cd
10000284:	100002cd 	.word	0x100002cd
10000288:	100002cd 	.word	0x100002cd
1000028c:	100002cd 	.word	0x100002cd
10000290:	100002cd 	.word	0x100002cd
10000294:	100002cd 	.word	0x100002cd
10000298:	100002cd 	.word	0x100002cd
1000029c:	100002cd 	.word	0x100002cd
100002a0:	100002cd 	.word	0x100002cd
100002a4:	100002cd 	.word	0x100002cd
100002a8:	100002cd 	.word	0x100002cd
100002ac:	100002cd 	.word	0x100002cd
100002b0:	100002cd 	.word	0x100002cd
100002b4:	100002cd 	.word	0x100002cd
100002b8:	100002cd 	.word	0x100002cd
100002bc:	100002cd 	.word	0x100002cd

100002c0 <isr_invalid>:
100002c0:	be00      	bkpt	0x0000

100002c2 <isr_nmi>:
100002c2:	be00      	bkpt	0x0000

100002c4 <isr_hardfault>:
100002c4:	be00      	bkpt	0x0000

100002c6 <isr_svcall>:
100002c6:	be00      	bkpt	0x0000

100002c8 <isr_pendsv>:
100002c8:	be00      	bkpt	0x0000

100002ca <isr_systick>:
100002ca:	be00      	bkpt	0x0000

100002cc <__unhandled_user_irq>:
100002cc:	f7ff ff63 	bl	10000196 <__get_current_exception>
100002d0:	3810      	subs	r0, #16

100002d2 <unhandled_user_irq_num_in_r0>:
100002d2:	be00      	bkpt	0x0000

100002d4 <_init>:
100002d4:	b5f8      	push	{r3, r4, r5, r6, r7, lr}
100002d6:	46c0      	nop			; (mov r8, r8)

100002d8 <__do_global_dtors_aux>:
100002d8:	b510      	push	{r4, lr}
100002da:	4c06      	ldr	r4, [pc, #24]	; (100002f4 <__do_global_dtors_aux+0x1c>)
100002dc:	7823      	ldrb	r3, [r4, #0]
100002de:	2b00      	cmp	r3, #0
100002e0:	d107      	bne.n	100002f2 <__do_global_dtors_aux+0x1a>
100002e2:	4b05      	ldr	r3, [pc, #20]	; (100002f8 <__do_global_dtors_aux+0x20>)
100002e4:	2b00      	cmp	r3, #0
100002e6:	d002      	beq.n	100002ee <__do_global_dtors_aux+0x16>
100002e8:	4804      	ldr	r0, [pc, #16]	; (100002fc <__do_global_dtors_aux+0x24>)
100002ea:	e000      	b.n	100002ee <__do_global_dtors_aux+0x16>
100002ec:	bf00      	nop
100002ee:	2301      	movs	r3, #1
100002f0:	7023      	strb	r3, [r4, #0]
100002f2:	bd10      	pop	{r4, pc}
100002f4:	20000b64 	.word	0x20000b64
100002f8:	00000000 	.word	0x00000000
100002fc:	100047e8 	.word	0x100047e8

10000300 <frame_dummy>:
10000300:	4b04      	ldr	r3, [pc, #16]	; (10000314 <frame_dummy+0x14>)
10000302:	b510      	push	{r4, lr}
10000304:	2b00      	cmp	r3, #0
10000306:	d003      	beq.n	10000310 <frame_dummy+0x10>
10000308:	4903      	ldr	r1, [pc, #12]	; (10000318 <frame_dummy+0x18>)
1000030a:	4804      	ldr	r0, [pc, #16]	; (1000031c <frame_dummy+0x1c>)
1000030c:	e000      	b.n	10000310 <frame_dummy+0x10>
1000030e:	bf00      	nop
10000310:	bd10      	pop	{r4, pc}
10000312:	46c0      	nop			; (mov r8, r8)
10000314:	00000000 	.word	0x00000000
10000318:	20000b68 	.word	0x20000b68
1000031c:	100047e8 	.word	0x100047e8

10000320 <main>:
10000320:	b5f8      	push	{r3, r4, r5, r6, r7, lr}
10000322:	46ce      	mov	lr, r9
10000324:	4647      	mov	r7, r8
10000326:	b580      	push	{r7, lr}
10000328:	f003 fd8e 	bl	10003e48 <board_init>
1000032c:	f003 fcca 	bl	10003cc4 <tusb_init>
10000330:	2301      	movs	r3, #1
10000332:	4699      	mov	r9, r3
10000334:	4c14      	ldr	r4, [pc, #80]	; (10000388 <main+0x68>)
10000336:	4e15      	ldr	r6, [pc, #84]	; (1000038c <main+0x6c>)
10000338:	4d15      	ldr	r5, [pc, #84]	; (10000390 <main+0x70>)
1000033a:	f002 fceb 	bl	10002d14 <tud_task>
1000033e:	f000 fd27 	bl	10000d90 <time_us_64>
10000342:	6823      	ldr	r3, [r4, #0]
10000344:	6837      	ldr	r7, [r6, #0]
10000346:	4698      	mov	r8, r3
10000348:	2900      	cmp	r1, #0
1000034a:	d013      	beq.n	10000374 <main+0x54>
1000034c:	22fa      	movs	r2, #250	; 0xfa
1000034e:	2300      	movs	r3, #0
10000350:	0092      	lsls	r2, r2, #2
10000352:	f001 fcbd 	bl	10001cd0 <__wrap___aeabi_uldivmod>
10000356:	4643      	mov	r3, r8
10000358:	1ac0      	subs	r0, r0, r3
1000035a:	42b8      	cmp	r0, r7
1000035c:	d3ed      	bcc.n	1000033a <main+0x1a>
1000035e:	003b      	movs	r3, r7
10000360:	7828      	ldrb	r0, [r5, #0]
10000362:	4443      	add	r3, r8
10000364:	6023      	str	r3, [r4, #0]
10000366:	f003 fd7b 	bl	10003e60 <board_led_write>
1000036a:	464a      	mov	r2, r9
1000036c:	782b      	ldrb	r3, [r5, #0]
1000036e:	4053      	eors	r3, r2
10000370:	702b      	strb	r3, [r5, #0]
10000372:	e7e2      	b.n	1000033a <main+0x1a>
10000374:	21fa      	movs	r1, #250	; 0xfa
10000376:	0089      	lsls	r1, r1, #2
10000378:	f001 fc64 	bl	10001c44 <__wrap___aeabi_uidiv>
1000037c:	4643      	mov	r3, r8
1000037e:	1ac0      	subs	r0, r0, r3
10000380:	42b8      	cmp	r0, r7
10000382:	d3da      	bcc.n	1000033a <main+0x1a>
10000384:	e7eb      	b.n	1000035e <main+0x3e>
10000386:	46c0      	nop			; (mov r8, r8)
10000388:	20001404 	.word	0x20001404
1000038c:	20000250 	.word	0x20000250
10000390:	2000141d 	.word	0x2000141d

10000394 <tud_mount_cb>:
10000394:	22fa      	movs	r2, #250	; 0xfa
10000396:	4b02      	ldr	r3, [pc, #8]	; (100003a0 <tud_mount_cb+0xc>)
10000398:	0092      	lsls	r2, r2, #2
1000039a:	601a      	str	r2, [r3, #0]
1000039c:	4770      	bx	lr
1000039e:	46c0      	nop			; (mov r8, r8)
100003a0:	20000250 	.word	0x20000250

100003a4 <tud_umount_cb>:
100003a4:	22fa      	movs	r2, #250	; 0xfa
100003a6:	4b01      	ldr	r3, [pc, #4]	; (100003ac <tud_umount_cb+0x8>)
100003a8:	601a      	str	r2, [r3, #0]
100003aa:	4770      	bx	lr
100003ac:	20000250 	.word	0x20000250

100003b0 <tud_suspend_cb>:
100003b0:	4b01      	ldr	r3, [pc, #4]	; (100003b8 <tud_suspend_cb+0x8>)
100003b2:	4a02      	ldr	r2, [pc, #8]	; (100003bc <tud_suspend_cb+0xc>)
100003b4:	601a      	str	r2, [r3, #0]
100003b6:	4770      	bx	lr
100003b8:	20000250 	.word	0x20000250
100003bc:	000009c4 	.word	0x000009c4

100003c0 <tud_resume_cb>:
100003c0:	22fa      	movs	r2, #250	; 0xfa
100003c2:	4b02      	ldr	r3, [pc, #8]	; (100003cc <tud_resume_cb+0xc>)
100003c4:	0092      	lsls	r2, r2, #2
100003c6:	601a      	str	r2, [r3, #0]
100003c8:	4770      	bx	lr
100003ca:	46c0      	nop			; (mov r8, r8)
100003cc:	20000250 	.word	0x20000250

100003d0 <tud_hid_get_report_cb>:
100003d0:	2000      	movs	r0, #0
100003d2:	4770      	bx	lr

100003d4 <tud_hid_set_report_cb>:
100003d4:	b510      	push	{r4, lr}
100003d6:	2100      	movs	r1, #0
100003d8:	2000      	movs	r0, #0
100003da:	b2db      	uxtb	r3, r3
100003dc:	f003 fafc 	bl	100039d8 <tud_hid_n_report>
100003e0:	bd10      	pop	{r4, pc}
100003e2:	46c0      	nop			; (mov r8, r8)

100003e4 <tud_descriptor_device_cb>:
100003e4:	4800      	ldr	r0, [pc, #0]	; (100003e8 <tud_descriptor_device_cb+0x4>)
100003e6:	4770      	bx	lr
100003e8:	10004838 	.word	0x10004838

100003ec <tud_hid_descriptor_report_cb>:
100003ec:	4800      	ldr	r0, [pc, #0]	; (100003f0 <tud_hid_descriptor_report_cb+0x4>)
100003ee:	4770      	bx	lr
100003f0:	1000484c 	.word	0x1000484c

100003f4 <tud_descriptor_configuration_cb>:
100003f4:	4800      	ldr	r0, [pc, #0]	; (100003f8 <tud_descriptor_configuration_cb+0x4>)
100003f6:	4770      	bx	lr
100003f8:	1000480c 	.word	0x1000480c

100003fc <tud_descriptor_string_cb>:
100003fc:	b570      	push	{r4, r5, r6, lr}
100003fe:	2800      	cmp	r0, #0
10000400:	d025      	beq.n	1000044e <tud_descriptor_string_cb+0x52>
10000402:	2803      	cmp	r0, #3
10000404:	d830      	bhi.n	10000468 <tud_descriptor_string_cb+0x6c>
10000406:	4b19      	ldr	r3, [pc, #100]	; (1000046c <tud_descriptor_string_cb+0x70>)
10000408:	0080      	lsls	r0, r0, #2
1000040a:	58c6      	ldr	r6, [r0, r3]
1000040c:	0030      	movs	r0, r6
1000040e:	f004 f857 	bl	100044c0 <strlen>
10000412:	b2c0      	uxtb	r0, r0
10000414:	1c04      	adds	r4, r0, #0
10000416:	281f      	cmp	r0, #31
10000418:	d814      	bhi.n	10000444 <tud_descriptor_string_cb+0x48>
1000041a:	b2e4      	uxtb	r4, r4
1000041c:	2800      	cmp	r0, #0
1000041e:	d020      	beq.n	10000462 <tud_descriptor_string_cb+0x66>
10000420:	2300      	movs	r3, #0
10000422:	4d13      	ldr	r5, [pc, #76]	; (10000470 <tud_descriptor_string_cb+0x74>)
10000424:	1caa      	adds	r2, r5, #2
10000426:	5cf1      	ldrb	r1, [r6, r3]
10000428:	3301      	adds	r3, #1
1000042a:	8011      	strh	r1, [r2, #0]
1000042c:	b2d9      	uxtb	r1, r3
1000042e:	3202      	adds	r2, #2
10000430:	428c      	cmp	r4, r1
10000432:	d8f8      	bhi.n	10000426 <tud_descriptor_string_cb+0x2a>
10000434:	23c0      	movs	r3, #192	; 0xc0
10000436:	3401      	adds	r4, #1
10000438:	0064      	lsls	r4, r4, #1
1000043a:	009b      	lsls	r3, r3, #2
1000043c:	431c      	orrs	r4, r3
1000043e:	0028      	movs	r0, r5
10000440:	802c      	strh	r4, [r5, #0]
10000442:	bd70      	pop	{r4, r5, r6, pc}
10000444:	241f      	movs	r4, #31
10000446:	b2e4      	uxtb	r4, r4
10000448:	2800      	cmp	r0, #0
1000044a:	d1e9      	bne.n	10000420 <tud_descriptor_string_cb+0x24>
1000044c:	e009      	b.n	10000462 <tud_descriptor_string_cb+0x66>
1000044e:	24c1      	movs	r4, #193	; 0xc1
10000450:	4d07      	ldr	r5, [pc, #28]	; (10000470 <tud_descriptor_string_cb+0x74>)
10000452:	4b06      	ldr	r3, [pc, #24]	; (1000046c <tud_descriptor_string_cb+0x70>)
10000454:	2202      	movs	r2, #2
10000456:	6819      	ldr	r1, [r3, #0]
10000458:	1ca8      	adds	r0, r5, #2
1000045a:	f001 ff19 	bl	10002290 <__wrap___aeabi_memcpy>
1000045e:	00a4      	lsls	r4, r4, #2
10000460:	e7ed      	b.n	1000043e <tud_descriptor_string_cb+0x42>
10000462:	4c04      	ldr	r4, [pc, #16]	; (10000474 <tud_descriptor_string_cb+0x78>)
10000464:	4d02      	ldr	r5, [pc, #8]	; (10000470 <tud_descriptor_string_cb+0x74>)
10000466:	e7ea      	b.n	1000043e <tud_descriptor_string_cb+0x42>
10000468:	2000      	movs	r0, #0
1000046a:	e7ea      	b.n	10000442 <tud_descriptor_string_cb+0x46>
1000046c:	20000254 	.word	0x20000254
10000470:	20000bcc 	.word	0x20000bcc
10000474:	00000302 	.word	0x00000302

10000478 <setup_default_uart>:
10000478:	b510      	push	{r4, lr}
1000047a:	f002 f855 	bl	10002528 <stdio_uart_init>
1000047e:	bd10      	pop	{r4, pc}

10000480 <gpio_set_function>:
10000480:	4a09      	ldr	r2, [pc, #36]	; (100004a8 <gpio_set_function+0x28>)
10000482:	0083      	lsls	r3, r0, #2
10000484:	4694      	mov	ip, r2
10000486:	2240      	movs	r2, #64	; 0x40
10000488:	4463      	add	r3, ip
1000048a:	b510      	push	{r4, lr}
1000048c:	681c      	ldr	r4, [r3, #0]
1000048e:	00c0      	lsls	r0, r0, #3
10000490:	4062      	eors	r2, r4
10000492:	24c0      	movs	r4, #192	; 0xc0
10000494:	4014      	ands	r4, r2
10000496:	2280      	movs	r2, #128	; 0x80
10000498:	0152      	lsls	r2, r2, #5
1000049a:	4313      	orrs	r3, r2
1000049c:	601c      	str	r4, [r3, #0]
1000049e:	4b03      	ldr	r3, [pc, #12]	; (100004ac <gpio_set_function+0x2c>)
100004a0:	469c      	mov	ip, r3
100004a2:	4460      	add	r0, ip
100004a4:	6041      	str	r1, [r0, #4]
100004a6:	bd10      	pop	{r4, pc}
100004a8:	4001c004 	.word	0x4001c004
100004ac:	40014000 	.word	0x40014000

100004b0 <gpio_init>:
100004b0:	2301      	movs	r3, #1
100004b2:	22d0      	movs	r2, #208	; 0xd0
100004b4:	4083      	lsls	r3, r0
100004b6:	0612      	lsls	r2, r2, #24
100004b8:	6293      	str	r3, [r2, #40]	; 0x28
100004ba:	6193      	str	r3, [r2, #24]
100004bc:	4a09      	ldr	r2, [pc, #36]	; (100004e4 <gpio_init+0x34>)
100004be:	0083      	lsls	r3, r0, #2
100004c0:	4694      	mov	ip, r2
100004c2:	2240      	movs	r2, #64	; 0x40
100004c4:	4463      	add	r3, ip
100004c6:	6819      	ldr	r1, [r3, #0]
100004c8:	00c0      	lsls	r0, r0, #3
100004ca:	404a      	eors	r2, r1
100004cc:	21c0      	movs	r1, #192	; 0xc0
100004ce:	4011      	ands	r1, r2
100004d0:	2280      	movs	r2, #128	; 0x80
100004d2:	0152      	lsls	r2, r2, #5
100004d4:	4313      	orrs	r3, r2
100004d6:	6019      	str	r1, [r3, #0]
100004d8:	4b03      	ldr	r3, [pc, #12]	; (100004e8 <gpio_init+0x38>)
100004da:	469c      	mov	ip, r3
100004dc:	2305      	movs	r3, #5
100004de:	4460      	add	r0, ip
100004e0:	6043      	str	r3, [r0, #4]
100004e2:	4770      	bx	lr
100004e4:	4001c004 	.word	0x4001c004
100004e8:	40014000 	.word	0x40014000

100004ec <hw_claim_or_assert>:
100004ec:	b5f8      	push	{r3, r4, r5, r6, r7, lr}
100004ee:	46ce      	mov	lr, r9
100004f0:	4647      	mov	r7, r8
100004f2:	4691      	mov	r9, r2
100004f4:	b580      	push	{r7, lr}
100004f6:	f3ef 8710 	mrs	r7, PRIMASK
100004fa:	b672      	cpsid	i
100004fc:	4e12      	ldr	r6, [pc, #72]	; (10000548 <hw_claim_or_assert+0x5c>)
100004fe:	6833      	ldr	r3, [r6, #0]
10000500:	2b00      	cmp	r3, #0
10000502:	d0fc      	beq.n	100004fe <hw_claim_or_assert+0x12>
10000504:	f3bf 8f5f 	dmb	sy
10000508:	08cb      	lsrs	r3, r1, #3
1000050a:	5cc5      	ldrb	r5, [r0, r3]
1000050c:	2407      	movs	r4, #7
1000050e:	18c2      	adds	r2, r0, r3
10000510:	0028      	movs	r0, r5
10000512:	2301      	movs	r3, #1
10000514:	400c      	ands	r4, r1
10000516:	4694      	mov	ip, r2
10000518:	40e0      	lsrs	r0, r4
1000051a:	001a      	movs	r2, r3
1000051c:	4002      	ands	r2, r0
1000051e:	4690      	mov	r8, r2
10000520:	4203      	tst	r3, r0
10000522:	d10d      	bne.n	10000540 <hw_claim_or_assert+0x54>
10000524:	40a3      	lsls	r3, r4
10000526:	4662      	mov	r2, ip
10000528:	432b      	orrs	r3, r5
1000052a:	7013      	strb	r3, [r2, #0]
1000052c:	f3bf 8f5f 	dmb	sy
10000530:	4643      	mov	r3, r8
10000532:	6033      	str	r3, [r6, #0]
10000534:	f387 8810 	msr	PRIMASK, r7
10000538:	bc0c      	pop	{r2, r3}
1000053a:	4690      	mov	r8, r2
1000053c:	4699      	mov	r9, r3
1000053e:	bdf8      	pop	{r3, r4, r5, r6, r7, pc}
10000540:	4648      	mov	r0, r9
10000542:	f000 ffaf 	bl	100014a4 <panic>
10000546:	46c0      	nop			; (mov r8, r8)
10000548:	d000012c 	.word	0xd000012c

1000054c <hw_claim_unused_from_range>:
1000054c:	b5f8      	push	{r3, r4, r5, r6, r7, lr}
1000054e:	4647      	mov	r7, r8
10000550:	46ce      	mov	lr, r9
10000552:	4688      	mov	r8, r1
10000554:	b580      	push	{r7, lr}
10000556:	f3ef 8c10 	mrs	ip, PRIMASK
1000055a:	b672      	cpsid	i
1000055c:	4d21      	ldr	r5, [pc, #132]	; (100005e4 <hw_claim_unused_from_range+0x98>)
1000055e:	682c      	ldr	r4, [r5, #0]
10000560:	2c00      	cmp	r4, #0
10000562:	d0fc      	beq.n	1000055e <hw_claim_unused_from_range+0x12>
10000564:	f3bf 8f5f 	dmb	sy
10000568:	429a      	cmp	r2, r3
1000056a:	d82d      	bhi.n	100005c8 <hw_claim_unused_from_range+0x7c>
1000056c:	08d4      	lsrs	r4, r2, #3
1000056e:	5d05      	ldrb	r5, [r0, r4]
10000570:	1907      	adds	r7, r0, r4
10000572:	2407      	movs	r4, #7
10000574:	002e      	movs	r6, r5
10000576:	4014      	ands	r4, r2
10000578:	40e6      	lsrs	r6, r4
1000057a:	07f1      	lsls	r1, r6, #31
1000057c:	d51e      	bpl.n	100005bc <hw_claim_unused_from_range+0x70>
1000057e:	2107      	movs	r1, #7
10000580:	4689      	mov	r9, r1
10000582:	3906      	subs	r1, #6
10000584:	e008      	b.n	10000598 <hw_claim_unused_from_range+0x4c>
10000586:	08d4      	lsrs	r4, r2, #3
10000588:	5d05      	ldrb	r5, [r0, r4]
1000058a:	1907      	adds	r7, r0, r4
1000058c:	464c      	mov	r4, r9
1000058e:	002e      	movs	r6, r5
10000590:	4014      	ands	r4, r2
10000592:	40e6      	lsrs	r6, r4
10000594:	4231      	tst	r1, r6
10000596:	d011      	beq.n	100005bc <hw_claim_unused_from_range+0x70>
10000598:	3201      	adds	r2, #1
1000059a:	4293      	cmp	r3, r2
1000059c:	d2f3      	bcs.n	10000586 <hw_claim_unused_from_range+0x3a>
1000059e:	2001      	movs	r0, #1
100005a0:	4240      	negs	r0, r0
100005a2:	f3bf 8f5f 	dmb	sy
100005a6:	2200      	movs	r2, #0
100005a8:	4b0e      	ldr	r3, [pc, #56]	; (100005e4 <hw_claim_unused_from_range+0x98>)
100005aa:	601a      	str	r2, [r3, #0]
100005ac:	f38c 8810 	msr	PRIMASK, ip
100005b0:	2800      	cmp	r0, #0
100005b2:	db11      	blt.n	100005d8 <hw_claim_unused_from_range+0x8c>
100005b4:	bc0c      	pop	{r2, r3}
100005b6:	4690      	mov	r8, r2
100005b8:	4699      	mov	r9, r3
100005ba:	bdf8      	pop	{r3, r4, r5, r6, r7, pc}
100005bc:	2301      	movs	r3, #1
100005be:	40a3      	lsls	r3, r4
100005c0:	431d      	orrs	r5, r3
100005c2:	0010      	movs	r0, r2
100005c4:	703d      	strb	r5, [r7, #0]
100005c6:	e7ec      	b.n	100005a2 <hw_claim_unused_from_range+0x56>
100005c8:	f3bf 8f5f 	dmb	sy
100005cc:	2300      	movs	r3, #0
100005ce:	602b      	str	r3, [r5, #0]
100005d0:	f38c 8810 	msr	PRIMASK, ip
100005d4:	2001      	movs	r0, #1
100005d6:	4240      	negs	r0, r0
100005d8:	4643      	mov	r3, r8
100005da:	2b00      	cmp	r3, #0
100005dc:	d0ea      	beq.n	100005b4 <hw_claim_unused_from_range+0x68>
100005de:	9808      	ldr	r0, [sp, #32]
100005e0:	f000 ff60 	bl	100014a4 <panic>
100005e4:	d000012c 	.word	0xd000012c

100005e8 <spin_locks_reset>:
100005e8:	2100      	movs	r1, #0
100005ea:	4b04      	ldr	r3, [pc, #16]	; (100005fc <spin_locks_reset+0x14>)
100005ec:	4a04      	ldr	r2, [pc, #16]	; (10000600 <spin_locks_reset+0x18>)
100005ee:	f3bf 8f5f 	dmb	sy
100005f2:	c302      	stmia	r3!, {r1}
100005f4:	4293      	cmp	r3, r2
100005f6:	d1fa      	bne.n	100005ee <spin_locks_reset+0x6>
100005f8:	4770      	bx	lr
100005fa:	46c0      	nop			; (mov r8, r8)
100005fc:	d0000100 	.word	0xd0000100
10000600:	d0000180 	.word	0xd0000180

10000604 <next_striped_spin_lock_num>:
10000604:	4a04      	ldr	r2, [pc, #16]	; (10000618 <next_striped_spin_lock_num+0x14>)
10000606:	7810      	ldrb	r0, [r2, #0]
10000608:	1c43      	adds	r3, r0, #1
1000060a:	b2db      	uxtb	r3, r3
1000060c:	2b17      	cmp	r3, #23
1000060e:	d900      	bls.n	10000612 <next_striped_spin_lock_num+0xe>
10000610:	2310      	movs	r3, #16
10000612:	7013      	strb	r3, [r2, #0]
10000614:	4770      	bx	lr
10000616:	46c0      	nop			; (mov r8, r8)
10000618:	20000264 	.word	0x20000264

1000061c <spin_lock_claim_unused>:
1000061c:	b500      	push	{lr}
1000061e:	4b05      	ldr	r3, [pc, #20]	; (10000634 <spin_lock_claim_unused+0x18>)
10000620:	b083      	sub	sp, #12
10000622:	0001      	movs	r1, r0
10000624:	9300      	str	r3, [sp, #0]
10000626:	2218      	movs	r2, #24
10000628:	231f      	movs	r3, #31
1000062a:	4803      	ldr	r0, [pc, #12]	; (10000638 <spin_lock_claim_unused+0x1c>)
1000062c:	f7ff ff8e 	bl	1000054c <hw_claim_unused_from_range>
10000630:	b003      	add	sp, #12
10000632:	bd00      	pop	{pc}
10000634:	1000486c 	.word	0x1000486c
10000638:	20000d30 	.word	0x20000d30

1000063c <running_on_fpga>:
1000063c:	4b02      	ldr	r3, [pc, #8]	; (10000648 <running_on_fpga+0xc>)
1000063e:	6818      	ldr	r0, [r3, #0]
10000640:	0780      	lsls	r0, r0, #30
10000642:	0fc0      	lsrs	r0, r0, #31
10000644:	4770      	bx	lr
10000646:	46c0      	nop			; (mov r8, r8)
10000648:	4006c000 	.word	0x4006c000

1000064c <uart_init>:
1000064c:	b5f0      	push	{r4, r5, r6, r7, lr}
1000064e:	46c6      	mov	lr, r8
10000650:	0005      	movs	r5, r0
10000652:	b500      	push	{lr}
10000654:	2006      	movs	r0, #6
10000656:	000e      	movs	r6, r1
10000658:	f001 f8b2 	bl	100017c0 <clock_get_hz>
1000065c:	2800      	cmp	r0, #0
1000065e:	d04d      	beq.n	100006fc <uart_init+0xb0>
10000660:	4b29      	ldr	r3, [pc, #164]	; (10000708 <uart_init+0xbc>)
10000662:	492a      	ldr	r1, [pc, #168]	; (1000070c <uart_init+0xc0>)
10000664:	18eb      	adds	r3, r5, r3
10000666:	425a      	negs	r2, r3
10000668:	4153      	adcs	r3, r2
1000066a:	2280      	movs	r2, #128	; 0x80
1000066c:	03d2      	lsls	r2, r2, #15
1000066e:	4694      	mov	ip, r2
10000670:	425b      	negs	r3, r3
10000672:	4013      	ands	r3, r2
10000674:	4a26      	ldr	r2, [pc, #152]	; (10000710 <uart_init+0xc4>)
10000676:	4463      	add	r3, ip
10000678:	6013      	str	r3, [r2, #0]
1000067a:	4a26      	ldr	r2, [pc, #152]	; (10000714 <uart_init+0xc8>)
1000067c:	6013      	str	r3, [r2, #0]
1000067e:	001c      	movs	r4, r3
10000680:	688a      	ldr	r2, [r1, #8]
10000682:	4394      	bics	r4, r2
10000684:	d1fb      	bne.n	1000067e <uart_init+0x32>
10000686:	4b20      	ldr	r3, [pc, #128]	; (10000708 <uart_init+0xbc>)
10000688:	2180      	movs	r1, #128	; 0x80
1000068a:	18eb      	adds	r3, r5, r3
1000068c:	425a      	negs	r2, r3
1000068e:	4153      	adcs	r3, r2
10000690:	4a21      	ldr	r2, [pc, #132]	; (10000718 <uart_init+0xcc>)
10000692:	005b      	lsls	r3, r3, #1
10000694:	0049      	lsls	r1, r1, #1
10000696:	2006      	movs	r0, #6
10000698:	5299      	strh	r1, [r3, r2]
1000069a:	f001 f891 	bl	100017c0 <clock_get_hz>
1000069e:	0031      	movs	r1, r6
100006a0:	00c0      	lsls	r0, r0, #3
100006a2:	f001 facf 	bl	10001c44 <__wrap___aeabi_uidiv>
100006a6:	267f      	movs	r6, #127	; 0x7f
100006a8:	4b1c      	ldr	r3, [pc, #112]	; (1000071c <uart_init+0xd0>)
100006aa:	4006      	ands	r6, r0
100006ac:	09c7      	lsrs	r7, r0, #7
100006ae:	3601      	adds	r6, #1
100006b0:	0876      	lsrs	r6, r6, #1
100006b2:	626f      	str	r7, [r5, #36]	; 0x24
100006b4:	429f      	cmp	r7, r3
100006b6:	d024      	beq.n	10000702 <uart_init+0xb6>
100006b8:	62ae      	str	r6, [r5, #40]	; 0x28
100006ba:	232c      	movs	r3, #44	; 0x2c
100006bc:	4698      	mov	r8, r3
100006be:	2480      	movs	r4, #128	; 0x80
100006c0:	44a8      	add	r8, r5
100006c2:	4643      	mov	r3, r8
100006c4:	01a4      	lsls	r4, r4, #6
100006c6:	431c      	orrs	r4, r3
100006c8:	2300      	movs	r3, #0
100006ca:	2006      	movs	r0, #6
100006cc:	6023      	str	r3, [r4, #0]
100006ce:	f001 f877 	bl	100017c0 <clock_get_hz>
100006d2:	01b9      	lsls	r1, r7, #6
100006d4:	1989      	adds	r1, r1, r6
100006d6:	0080      	lsls	r0, r0, #2
100006d8:	f001 fab4 	bl	10001c44 <__wrap___aeabi_uidiv>
100006dc:	2360      	movs	r3, #96	; 0x60
100006de:	6aea      	ldr	r2, [r5, #44]	; 0x2c
100006e0:	4641      	mov	r1, r8
100006e2:	4053      	eors	r3, r2
100006e4:	226e      	movs	r2, #110	; 0x6e
100006e6:	401a      	ands	r2, r3
100006e8:	2380      	movs	r3, #128	; 0x80
100006ea:	015b      	lsls	r3, r3, #5
100006ec:	430b      	orrs	r3, r1
100006ee:	601a      	str	r2, [r3, #0]
100006f0:	4b0b      	ldr	r3, [pc, #44]	; (10000720 <uart_init+0xd4>)
100006f2:	632b      	str	r3, [r5, #48]	; 0x30
100006f4:	2310      	movs	r3, #16
100006f6:	6023      	str	r3, [r4, #0]
100006f8:	3b0d      	subs	r3, #13
100006fa:	64ab      	str	r3, [r5, #72]	; 0x48
100006fc:	bc04      	pop	{r2}
100006fe:	4690      	mov	r8, r2
10000700:	bdf0      	pop	{r4, r5, r6, r7, pc}
10000702:	62ac      	str	r4, [r5, #40]	; 0x28
10000704:	e7d9      	b.n	100006ba <uart_init+0x6e>
10000706:	46c0      	nop			; (mov r8, r8)
10000708:	bffc8000 	.word	0xbffc8000
1000070c:	4000c000 	.word	0x4000c000
10000710:	4000e000 	.word	0x4000e000
10000714:	4000f000 	.word	0x4000f000
10000718:	20001420 	.word	0x20001420
1000071c:	0000ffff 	.word	0x0000ffff
10000720:	00000301 	.word	0x00000301

10000724 <timer_pool_entry_comparator>:
10000724:	6883      	ldr	r3, [r0, #8]
10000726:	480b      	ldr	r0, [pc, #44]	; (10000754 <timer_pool_entry_comparator+0x30>)
10000728:	b510      	push	{r4, lr}
1000072a:	4684      	mov	ip, r0
1000072c:	4461      	add	r1, ip
1000072e:	4462      	add	r2, ip
10000730:	0109      	lsls	r1, r1, #4
10000732:	0112      	lsls	r2, r2, #4
10000734:	189a      	adds	r2, r3, r2
10000736:	1859      	adds	r1, r3, r1
10000738:	6854      	ldr	r4, [r2, #4]
1000073a:	684b      	ldr	r3, [r1, #4]
1000073c:	2001      	movs	r0, #1
1000073e:	429c      	cmp	r4, r3
10000740:	d801      	bhi.n	10000746 <timer_pool_entry_comparator+0x22>
10000742:	d002      	beq.n	1000074a <timer_pool_entry_comparator+0x26>
10000744:	2000      	movs	r0, #0
10000746:	b2c0      	uxtb	r0, r0
10000748:	bd10      	pop	{r4, pc}
1000074a:	6812      	ldr	r2, [r2, #0]
1000074c:	680b      	ldr	r3, [r1, #0]
1000074e:	429a      	cmp	r2, r3
10000750:	d8f9      	bhi.n	10000746 <timer_pool_entry_comparator+0x22>
10000752:	e7f7      	b.n	10000744 <timer_pool_entry_comparator+0x20>
10000754:	0fffffff 	.word	0x0fffffff

10000758 <sev_callback>:
10000758:	bf40      	sev
1000075a:	2000      	movs	r0, #0
1000075c:	2100      	movs	r1, #0
1000075e:	4770      	bx	lr

10000760 <add_alarm_under_lock>:
10000760:	b5f0      	push	{r4, r5, r6, r7, lr}
10000762:	4657      	mov	r7, sl
10000764:	4645      	mov	r5, r8
10000766:	46de      	mov	lr, fp
10000768:	464e      	mov	r6, r9
1000076a:	b5e0      	push	{r5, r6, r7, lr}
1000076c:	b083      	sub	sp, #12
1000076e:	001f      	movs	r7, r3
10000770:	ab0f      	add	r3, sp, #60	; 0x3c
10000772:	781b      	ldrb	r3, [r3, #0]
10000774:	9c0e      	ldr	r4, [sp, #56]	; 0x38
10000776:	0005      	movs	r5, r0
10000778:	4692      	mov	sl, r2
1000077a:	9301      	str	r3, [sp, #4]
1000077c:	2c00      	cmp	r4, #0
1000077e:	d10d      	bne.n	1000079c <add_alarm_under_lock+0x3c>
10000780:	6802      	ldr	r2, [r0, #0]
10000782:	7b94      	ldrb	r4, [r2, #14]
10000784:	2c00      	cmp	r4, #0
10000786:	d056      	beq.n	10000836 <add_alarm_under_lock+0xd6>
10000788:	6811      	ldr	r1, [r2, #0]
1000078a:	0063      	lsls	r3, r4, #1
1000078c:	468c      	mov	ip, r1
1000078e:	191b      	adds	r3, r3, r4
10000790:	4463      	add	r3, ip
10000792:	3b03      	subs	r3, #3
10000794:	785b      	ldrb	r3, [r3, #1]
10000796:	7393      	strb	r3, [r2, #14]
10000798:	2b00      	cmp	r3, #0
1000079a:	d054      	beq.n	10000846 <add_alarm_under_lock+0xe6>
1000079c:	68aa      	ldr	r2, [r5, #8]
1000079e:	b2e3      	uxtb	r3, r4
100007a0:	4694      	mov	ip, r2
100007a2:	4652      	mov	r2, sl
100007a4:	469b      	mov	fp, r3
100007a6:	4b38      	ldr	r3, [pc, #224]	; (10000888 <add_alarm_under_lock+0x128>)
100007a8:	682e      	ldr	r6, [r5, #0]
100007aa:	18e3      	adds	r3, r4, r3
100007ac:	011b      	lsls	r3, r3, #4
100007ae:	4463      	add	r3, ip
100007b0:	601a      	str	r2, [r3, #0]
100007b2:	9a0c      	ldr	r2, [sp, #48]	; 0x30
100007b4:	605f      	str	r7, [r3, #4]
100007b6:	609a      	str	r2, [r3, #8]
100007b8:	9a0d      	ldr	r2, [sp, #52]	; 0x34
100007ba:	60da      	str	r2, [r3, #12]
100007bc:	23d0      	movs	r3, #208	; 0xd0
100007be:	2280      	movs	r2, #128	; 0x80
100007c0:	061b      	lsls	r3, r3, #24
100007c2:	0312      	lsls	r2, r2, #12
100007c4:	615a      	str	r2, [r3, #20]
100007c6:	0063      	lsls	r3, r4, #1
100007c8:	191b      	adds	r3, r3, r4
100007ca:	3b03      	subs	r3, #3
100007cc:	4698      	mov	r8, r3
100007ce:	2200      	movs	r2, #0
100007d0:	6833      	ldr	r3, [r6, #0]
100007d2:	4443      	add	r3, r8
100007d4:	709a      	strb	r2, [r3, #2]
100007d6:	705a      	strb	r2, [r3, #1]
100007d8:	701a      	strb	r2, [r3, #0]
100007da:	7b73      	ldrb	r3, [r6, #13]
100007dc:	4699      	mov	r9, r3
100007de:	2b00      	cmp	r3, #0
100007e0:	d017      	beq.n	10000812 <add_alarm_under_lock+0xb2>
100007e2:	465a      	mov	r2, fp
100007e4:	0019      	movs	r1, r3
100007e6:	68b0      	ldr	r0, [r6, #8]
100007e8:	6873      	ldr	r3, [r6, #4]
100007ea:	4798      	blx	r3
100007ec:	6832      	ldr	r2, [r6, #0]
100007ee:	2800      	cmp	r0, #0
100007f0:	d12b      	bne.n	1000084a <add_alarm_under_lock+0xea>
100007f2:	4643      	mov	r3, r8
100007f4:	18d1      	adds	r1, r2, r3
100007f6:	464b      	mov	r3, r9
100007f8:	4658      	mov	r0, fp
100007fa:	005b      	lsls	r3, r3, #1
100007fc:	444b      	add	r3, r9
100007fe:	3b03      	subs	r3, #3
10000800:	18d3      	adds	r3, r2, r3
10000802:	7098      	strb	r0, [r3, #2]
10000804:	4640      	mov	r0, r8
10000806:	5c12      	ldrb	r2, [r2, r0]
10000808:	2a00      	cmp	r2, #0
1000080a:	d000      	beq.n	1000080e <add_alarm_under_lock+0xae>
1000080c:	705a      	strb	r2, [r3, #1]
1000080e:	464b      	mov	r3, r9
10000810:	700b      	strb	r3, [r1, #0]
10000812:	465b      	mov	r3, fp
10000814:	7373      	strb	r3, [r6, #13]
10000816:	4652      	mov	r2, sl
10000818:	003b      	movs	r3, r7
1000081a:	7d28      	ldrb	r0, [r5, #20]
1000081c:	f000 fb08 	bl	10000e30 <hardware_alarm_set_target>
10000820:	1e06      	subs	r6, r0, #0
10000822:	d002      	beq.n	1000082a <add_alarm_under_lock+0xca>
10000824:	9b01      	ldr	r3, [sp, #4]
10000826:	2b00      	cmp	r3, #0
10000828:	d026      	beq.n	10000878 <add_alarm_under_lock+0x118>
1000082a:	9b10      	ldr	r3, [sp, #64]	; 0x40
1000082c:	2b00      	cmp	r3, #0
1000082e:	d028      	beq.n	10000882 <add_alarm_under_lock+0x122>
10000830:	0020      	movs	r0, r4
10000832:	701e      	strb	r6, [r3, #0]
10000834:	e000      	b.n	10000838 <add_alarm_under_lock+0xd8>
10000836:	2000      	movs	r0, #0
10000838:	b003      	add	sp, #12
1000083a:	bc3c      	pop	{r2, r3, r4, r5}
1000083c:	4690      	mov	r8, r2
1000083e:	4699      	mov	r9, r3
10000840:	46a2      	mov	sl, r4
10000842:	46ab      	mov	fp, r5
10000844:	bdf0      	pop	{r4, r5, r6, r7, pc}
10000846:	73d3      	strb	r3, [r2, #15]
10000848:	e7a8      	b.n	1000079c <add_alarm_under_lock+0x3c>
1000084a:	464b      	mov	r3, r9
1000084c:	005b      	lsls	r3, r3, #1
1000084e:	444b      	add	r3, r9
10000850:	3b03      	subs	r3, #3
10000852:	18d1      	adds	r1, r2, r3
10000854:	468c      	mov	ip, r1
10000856:	4641      	mov	r1, r8
10000858:	4648      	mov	r0, r9
1000085a:	1851      	adds	r1, r2, r1
1000085c:	7088      	strb	r0, [r1, #2]
1000085e:	5cd3      	ldrb	r3, [r2, r3]
10000860:	2b00      	cmp	r3, #0
10000862:	d000      	beq.n	10000866 <add_alarm_under_lock+0x106>
10000864:	704b      	strb	r3, [r1, #1]
10000866:	465b      	mov	r3, fp
10000868:	4662      	mov	r2, ip
1000086a:	7013      	strb	r3, [r2, #0]
1000086c:	464b      	mov	r3, r9
1000086e:	0020      	movs	r0, r4
10000870:	7373      	strb	r3, [r6, #13]
10000872:	45a1      	cmp	r9, r4
10000874:	d1e0      	bne.n	10000838 <add_alarm_under_lock+0xd8>
10000876:	e7ce      	b.n	10000816 <add_alarm_under_lock+0xb6>
10000878:	4659      	mov	r1, fp
1000087a:	6828      	ldr	r0, [r5, #0]
1000087c:	f000 fd42 	bl	10001304 <ph_delete>
10000880:	e7d3      	b.n	1000082a <add_alarm_under_lock+0xca>
10000882:	0020      	movs	r0, r4
10000884:	e7d8      	b.n	10000838 <add_alarm_under_lock+0xd8>
10000886:	46c0      	nop			; (mov r8, r8)
10000888:	0fffffff 	.word	0x0fffffff

1000088c <alarm_pool_alarm_callback>:
1000088c:	b5f0      	push	{r4, r5, r6, r7, lr}
1000088e:	46de      	mov	lr, fp
10000890:	464e      	mov	r6, r9
10000892:	4657      	mov	r7, sl
10000894:	4645      	mov	r5, r8
10000896:	2300      	movs	r3, #0
10000898:	b5e0      	push	{r5, r6, r7, lr}
1000089a:	b08d      	sub	sp, #52	; 0x34
1000089c:	930a      	str	r3, [sp, #40]	; 0x28
1000089e:	4b71      	ldr	r3, [pc, #452]	; (10000a64 <alarm_pool_alarm_callback+0x1d8>)
100008a0:	0082      	lsls	r2, r0, #2
100008a2:	58d3      	ldr	r3, [r2, r3]
100008a4:	900b      	str	r0, [sp, #44]	; 0x2c
100008a6:	4699      	mov	r9, r3
100008a8:	2300      	movs	r3, #0
100008aa:	469b      	mov	fp, r3
100008ac:	464b      	mov	r3, r9
100008ae:	9307      	str	r3, [sp, #28]
100008b0:	f000 fa6e 	bl	10000d90 <time_us_64>
100008b4:	9c07      	ldr	r4, [sp, #28]
100008b6:	0006      	movs	r6, r0
100008b8:	000f      	movs	r7, r1
100008ba:	6862      	ldr	r2, [r4, #4]
100008bc:	f3ef 8510 	mrs	r5, PRIMASK
100008c0:	b672      	cpsid	i
100008c2:	6813      	ldr	r3, [r2, #0]
100008c4:	2b00      	cmp	r3, #0
100008c6:	d0fc      	beq.n	100008c2 <alarm_pool_alarm_callback+0x36>
100008c8:	0022      	movs	r2, r4
100008ca:	9407      	str	r4, [sp, #28]
100008cc:	f3bf 8f5f 	dmb	sy
100008d0:	6824      	ldr	r4, [r4, #0]
100008d2:	7b63      	ldrb	r3, [r4, #13]
100008d4:	4699      	mov	r9, r3
100008d6:	2b00      	cmp	r3, #0
100008d8:	d100      	bne.n	100008dc <alarm_pool_alarm_callback+0x50>
100008da:	e070      	b.n	100009be <alarm_pool_alarm_callback+0x132>
100008dc:	6892      	ldr	r2, [r2, #8]
100008de:	4b62      	ldr	r3, [pc, #392]	; (10000a68 <alarm_pool_alarm_callback+0x1dc>)
100008e0:	4690      	mov	r8, r2
100008e2:	444b      	add	r3, r9
100008e4:	011b      	lsls	r3, r3, #4
100008e6:	4498      	add	r8, r3
100008e8:	4643      	mov	r3, r8
100008ea:	681a      	ldr	r2, [r3, #0]
100008ec:	685b      	ldr	r3, [r3, #4]
100008ee:	0010      	movs	r0, r2
100008f0:	0019      	movs	r1, r3
100008f2:	1b80      	subs	r0, r0, r6
100008f4:	41b9      	sbcs	r1, r7
100008f6:	2900      	cmp	r1, #0
100008f8:	dd68      	ble.n	100009cc <alarm_pool_alarm_callback+0x140>
100008fa:	980b      	ldr	r0, [sp, #44]	; 0x2c
100008fc:	f000 fa98 	bl	10000e30 <hardware_alarm_set_target>
10000900:	2300      	movs	r3, #0
10000902:	2600      	movs	r6, #0
10000904:	4698      	mov	r8, r3
10000906:	2700      	movs	r7, #0
10000908:	469a      	mov	sl, r3
1000090a:	9c07      	ldr	r4, [sp, #28]
1000090c:	6863      	ldr	r3, [r4, #4]
1000090e:	f3bf 8f5f 	dmb	sy
10000912:	465a      	mov	r2, fp
10000914:	601a      	str	r2, [r3, #0]
10000916:	f385 8810 	msr	PRIMASK, r5
1000091a:	4653      	mov	r3, sl
1000091c:	2b00      	cmp	r3, #0
1000091e:	d108      	bne.n	10000932 <alarm_pool_alarm_callback+0xa6>
10000920:	2800      	cmp	r0, #0
10000922:	d1c5      	bne.n	100008b0 <alarm_pool_alarm_callback+0x24>
10000924:	b00d      	add	sp, #52	; 0x34
10000926:	bc3c      	pop	{r2, r3, r4, r5}
10000928:	4690      	mov	r8, r2
1000092a:	4699      	mov	r9, r3
1000092c:	46a2      	mov	sl, r4
1000092e:	46ab      	mov	fp, r5
10000930:	bdf0      	pop	{r4, r5, r6, r7, pc}
10000932:	23d0      	movs	r3, #208	; 0xd0
10000934:	2280      	movs	r2, #128	; 0x80
10000936:	2180      	movs	r1, #128	; 0x80
10000938:	061b      	lsls	r3, r3, #24
1000093a:	0392      	lsls	r2, r2, #14
1000093c:	0309      	lsls	r1, r1, #12
1000093e:	615a      	str	r2, [r3, #20]
10000940:	6199      	str	r1, [r3, #24]
10000942:	619a      	str	r2, [r3, #24]
10000944:	9b0a      	ldr	r3, [sp, #40]	; 0x28
10000946:	4641      	mov	r1, r8
10000948:	0218      	lsls	r0, r3, #8
1000094a:	464b      	mov	r3, r9
1000094c:	4318      	orrs	r0, r3
1000094e:	47d0      	blx	sl
10000950:	9008      	str	r0, [sp, #32]
10000952:	9109      	str	r1, [sp, #36]	; 0x24
10000954:	6862      	ldr	r2, [r4, #4]
10000956:	f3ef 8510 	mrs	r5, PRIMASK
1000095a:	b672      	cpsid	i
1000095c:	6813      	ldr	r3, [r2, #0]
1000095e:	2b00      	cmp	r3, #0
10000960:	d0fc      	beq.n	1000095c <alarm_pool_alarm_callback+0xd0>
10000962:	9407      	str	r4, [sp, #28]
10000964:	f3bf 8f5f 	dmb	sy
10000968:	9908      	ldr	r1, [sp, #32]
1000096a:	9a09      	ldr	r2, [sp, #36]	; 0x24
1000096c:	2a00      	cmp	r2, #0
1000096e:	db49      	blt.n	10000a04 <alarm_pool_alarm_callback+0x178>
10000970:	4311      	orrs	r1, r2
10000972:	d003      	beq.n	1000097c <alarm_pool_alarm_callback+0xf0>
10000974:	9b07      	ldr	r3, [sp, #28]
10000976:	691b      	ldr	r3, [r3, #16]
10000978:	2b00      	cmp	r3, #0
1000097a:	d15e      	bne.n	10000a3a <alarm_pool_alarm_callback+0x1ae>
1000097c:	9b07      	ldr	r3, [sp, #28]
1000097e:	681b      	ldr	r3, [r3, #0]
10000980:	7bda      	ldrb	r2, [r3, #15]
10000982:	2a00      	cmp	r2, #0
10000984:	d007      	beq.n	10000996 <alarm_pool_alarm_callback+0x10a>
10000986:	0051      	lsls	r1, r2, #1
10000988:	188a      	adds	r2, r1, r2
1000098a:	6819      	ldr	r1, [r3, #0]
1000098c:	468c      	mov	ip, r1
1000098e:	4649      	mov	r1, r9
10000990:	4462      	add	r2, ip
10000992:	3a03      	subs	r2, #3
10000994:	7051      	strb	r1, [r2, #1]
10000996:	464a      	mov	r2, r9
10000998:	73da      	strb	r2, [r3, #15]
1000099a:	464b      	mov	r3, r9
1000099c:	9a07      	ldr	r2, [sp, #28]
1000099e:	3b01      	subs	r3, #1
100009a0:	68d1      	ldr	r1, [r2, #12]
100009a2:	5cca      	ldrb	r2, [r1, r3]
100009a4:	3201      	adds	r2, #1
100009a6:	54ca      	strb	r2, [r1, r3]
100009a8:	465b      	mov	r3, fp
100009aa:	9a07      	ldr	r2, [sp, #28]
100009ac:	6113      	str	r3, [r2, #16]
100009ae:	6853      	ldr	r3, [r2, #4]
100009b0:	f3bf 8f5f 	dmb	sy
100009b4:	465a      	mov	r2, fp
100009b6:	601a      	str	r2, [r3, #0]
100009b8:	f385 8810 	msr	PRIMASK, r5
100009bc:	e778      	b.n	100008b0 <alarm_pool_alarm_callback+0x24>
100009be:	2300      	movs	r3, #0
100009c0:	2600      	movs	r6, #0
100009c2:	4698      	mov	r8, r3
100009c4:	2700      	movs	r7, #0
100009c6:	469a      	mov	sl, r3
100009c8:	2000      	movs	r0, #0
100009ca:	e79e      	b.n	1000090a <alarm_pool_alarm_callback+0x7e>
100009cc:	2900      	cmp	r1, #0
100009ce:	d102      	bne.n	100009d6 <alarm_pool_alarm_callback+0x14a>
100009d0:	2800      	cmp	r0, #0
100009d2:	d000      	beq.n	100009d6 <alarm_pool_alarm_callback+0x14a>
100009d4:	e791      	b.n	100008fa <alarm_pool_alarm_callback+0x6e>
100009d6:	2101      	movs	r1, #1
100009d8:	0020      	movs	r0, r4
100009da:	f000 fbf5 	bl	100011c8 <ph_remove_head_reserve>
100009de:	4643      	mov	r3, r8
100009e0:	681e      	ldr	r6, [r3, #0]
100009e2:	685f      	ldr	r7, [r3, #4]
100009e4:	689b      	ldr	r3, [r3, #8]
100009e6:	9a07      	ldr	r2, [sp, #28]
100009e8:	469a      	mov	sl, r3
100009ea:	4643      	mov	r3, r8
100009ec:	68db      	ldr	r3, [r3, #12]
100009ee:	4698      	mov	r8, r3
100009f0:	68d3      	ldr	r3, [r2, #12]
100009f2:	444b      	add	r3, r9
100009f4:	3b01      	subs	r3, #1
100009f6:	781b      	ldrb	r3, [r3, #0]
100009f8:	930a      	str	r3, [sp, #40]	; 0x28
100009fa:	021b      	lsls	r3, r3, #8
100009fc:	4303      	orrs	r3, r0
100009fe:	6113      	str	r3, [r2, #16]
10000a00:	2000      	movs	r0, #0
10000a02:	e782      	b.n	1000090a <alarm_pool_alarm_callback+0x7e>
10000a04:	6923      	ldr	r3, [r4, #16]
10000a06:	2b00      	cmp	r3, #0
10000a08:	d0b8      	beq.n	1000097c <alarm_pool_alarm_callback+0xf0>
10000a0a:	0033      	movs	r3, r6
10000a0c:	003c      	movs	r4, r7
10000a0e:	1a5b      	subs	r3, r3, r1
10000a10:	4194      	sbcs	r4, r2
10000a12:	001a      	movs	r2, r3
10000a14:	0023      	movs	r3, r4
10000a16:	42a7      	cmp	r7, r4
10000a18:	d819      	bhi.n	10000a4e <alarm_pool_alarm_callback+0x1c2>
10000a1a:	429f      	cmp	r7, r3
10000a1c:	d01b      	beq.n	10000a56 <alarm_pool_alarm_callback+0x1ca>
10000a1e:	4659      	mov	r1, fp
10000a20:	9104      	str	r1, [sp, #16]
10000a22:	2101      	movs	r1, #1
10000a24:	9103      	str	r1, [sp, #12]
10000a26:	4649      	mov	r1, r9
10000a28:	9102      	str	r1, [sp, #8]
10000a2a:	4641      	mov	r1, r8
10000a2c:	9101      	str	r1, [sp, #4]
10000a2e:	4651      	mov	r1, sl
10000a30:	9807      	ldr	r0, [sp, #28]
10000a32:	9100      	str	r1, [sp, #0]
10000a34:	f7ff fe94 	bl	10000760 <add_alarm_under_lock>
10000a38:	e7b6      	b.n	100009a8 <alarm_pool_alarm_callback+0x11c>
10000a3a:	f000 f9a9 	bl	10000d90 <time_us_64>
10000a3e:	9a08      	ldr	r2, [sp, #32]
10000a40:	9b09      	ldr	r3, [sp, #36]	; 0x24
10000a42:	0006      	movs	r6, r0
10000a44:	000f      	movs	r7, r1
10000a46:	1992      	adds	r2, r2, r6
10000a48:	417b      	adcs	r3, r7
10000a4a:	4299      	cmp	r1, r3
10000a4c:	d9e5      	bls.n	10000a1a <alarm_pool_alarm_callback+0x18e>
10000a4e:	2201      	movs	r2, #1
10000a50:	4252      	negs	r2, r2
10000a52:	17d3      	asrs	r3, r2, #31
10000a54:	e7e3      	b.n	10000a1e <alarm_pool_alarm_callback+0x192>
10000a56:	4296      	cmp	r6, r2
10000a58:	d9e1      	bls.n	10000a1e <alarm_pool_alarm_callback+0x192>
10000a5a:	2201      	movs	r2, #1
10000a5c:	4252      	negs	r2, r2
10000a5e:	17d3      	asrs	r3, r2, #31
10000a60:	e7dd      	b.n	10000a1e <alarm_pool_alarm_callback+0x192>
10000a62:	46c0      	nop			; (mov r8, r8)
10000a64:	200013f4 	.word	0x200013f4
10000a68:	0fffffff 	.word	0x0fffffff

10000a6c <alarm_pool_add_alarm_at.constprop.0>:
10000a6c:	b5f8      	push	{r3, r4, r5, r6, r7, lr}
10000a6e:	4657      	mov	r7, sl
10000a70:	464e      	mov	r6, r9
10000a72:	46de      	mov	lr, fp
10000a74:	4645      	mov	r5, r8
10000a76:	4691      	mov	r9, r2
10000a78:	b5e0      	push	{r5, r6, r7, lr}
10000a7a:	0004      	movs	r4, r0
10000a7c:	469a      	mov	sl, r3
10000a7e:	6842      	ldr	r2, [r0, #4]
10000a80:	f3ef 8810 	mrs	r8, PRIMASK
10000a84:	b672      	cpsid	i
10000a86:	6813      	ldr	r3, [r2, #0]
10000a88:	2b00      	cmp	r3, #0
10000a8a:	d0fc      	beq.n	10000a86 <alarm_pool_add_alarm_at.constprop.0+0x1a>
10000a8c:	f3bf 8f5f 	dmb	sy
10000a90:	6826      	ldr	r6, [r4, #0]
10000a92:	7bb5      	ldrb	r5, [r6, #14]
10000a94:	2d00      	cmp	r5, #0
10000a96:	d040      	beq.n	10000b1a <alarm_pool_add_alarm_at.constprop.0+0xae>
10000a98:	006f      	lsls	r7, r5, #1
10000a9a:	6833      	ldr	r3, [r6, #0]
10000a9c:	197f      	adds	r7, r7, r5
10000a9e:	3f03      	subs	r7, #3
10000aa0:	19db      	adds	r3, r3, r7
10000aa2:	785b      	ldrb	r3, [r3, #1]
10000aa4:	73b3      	strb	r3, [r6, #14]
10000aa6:	2b00      	cmp	r3, #0
10000aa8:	d100      	bne.n	10000aac <alarm_pool_add_alarm_at.constprop.0+0x40>
10000aaa:	73f3      	strb	r3, [r6, #15]
10000aac:	4b37      	ldr	r3, [pc, #220]	; (10000b8c <alarm_pool_add_alarm_at.constprop.0+0x120>)
10000aae:	2200      	movs	r2, #0
10000ab0:	18e9      	adds	r1, r5, r3
10000ab2:	68a3      	ldr	r3, [r4, #8]
10000ab4:	0109      	lsls	r1, r1, #4
10000ab6:	469c      	mov	ip, r3
10000ab8:	464b      	mov	r3, r9
10000aba:	4461      	add	r1, ip
10000abc:	600b      	str	r3, [r1, #0]
10000abe:	4653      	mov	r3, sl
10000ac0:	604b      	str	r3, [r1, #4]
10000ac2:	4b33      	ldr	r3, [pc, #204]	; (10000b90 <alarm_pool_add_alarm_at.constprop.0+0x124>)
10000ac4:	60ca      	str	r2, [r1, #12]
10000ac6:	608b      	str	r3, [r1, #8]
10000ac8:	23d0      	movs	r3, #208	; 0xd0
10000aca:	2180      	movs	r1, #128	; 0x80
10000acc:	061b      	lsls	r3, r3, #24
10000ace:	0309      	lsls	r1, r1, #12
10000ad0:	6159      	str	r1, [r3, #20]
10000ad2:	6833      	ldr	r3, [r6, #0]
10000ad4:	19db      	adds	r3, r3, r7
10000ad6:	709a      	strb	r2, [r3, #2]
10000ad8:	705a      	strb	r2, [r3, #1]
10000ada:	701a      	strb	r2, [r3, #0]
10000adc:	7b73      	ldrb	r3, [r6, #13]
10000ade:	469b      	mov	fp, r3
10000ae0:	2b00      	cmp	r3, #0
10000ae2:	d035      	beq.n	10000b50 <alarm_pool_add_alarm_at.constprop.0+0xe4>
10000ae4:	002a      	movs	r2, r5
10000ae6:	0019      	movs	r1, r3
10000ae8:	68b0      	ldr	r0, [r6, #8]
10000aea:	6873      	ldr	r3, [r6, #4]
10000aec:	4798      	blx	r3
10000aee:	6832      	ldr	r2, [r6, #0]
10000af0:	2800      	cmp	r0, #0
10000af2:	d020      	beq.n	10000b36 <alarm_pool_add_alarm_at.constprop.0+0xca>
10000af4:	465b      	mov	r3, fp
10000af6:	4658      	mov	r0, fp
10000af8:	005b      	lsls	r3, r3, #1
10000afa:	445b      	add	r3, fp
10000afc:	19d7      	adds	r7, r2, r7
10000afe:	3b03      	subs	r3, #3
10000b00:	70b8      	strb	r0, [r7, #2]
10000b02:	18d1      	adds	r1, r2, r3
10000b04:	5cd3      	ldrb	r3, [r2, r3]
10000b06:	2b00      	cmp	r3, #0
10000b08:	d000      	beq.n	10000b0c <alarm_pool_add_alarm_at.constprop.0+0xa0>
10000b0a:	707b      	strb	r3, [r7, #1]
10000b0c:	465b      	mov	r3, fp
10000b0e:	700d      	strb	r5, [r1, #0]
10000b10:	7373      	strb	r3, [r6, #13]
10000b12:	455d      	cmp	r5, fp
10000b14:	d01d      	beq.n	10000b52 <alarm_pool_add_alarm_at.constprop.0+0xe6>
10000b16:	2600      	movs	r6, #0
10000b18:	e026      	b.n	10000b68 <alarm_pool_add_alarm_at.constprop.0+0xfc>
10000b1a:	6863      	ldr	r3, [r4, #4]
10000b1c:	f3bf 8f5f 	dmb	sy
10000b20:	601d      	str	r5, [r3, #0]
10000b22:	f388 8810 	msr	PRIMASK, r8
10000b26:	2001      	movs	r0, #1
10000b28:	4240      	negs	r0, r0
10000b2a:	bc3c      	pop	{r2, r3, r4, r5}
10000b2c:	4690      	mov	r8, r2
10000b2e:	4699      	mov	r9, r3
10000b30:	46a2      	mov	sl, r4
10000b32:	46ab      	mov	fp, r5
10000b34:	bdf8      	pop	{r3, r4, r5, r6, r7, pc}
10000b36:	465b      	mov	r3, fp
10000b38:	005b      	lsls	r3, r3, #1
10000b3a:	445b      	add	r3, fp
10000b3c:	3b03      	subs	r3, #3
10000b3e:	18d3      	adds	r3, r2, r3
10000b40:	709d      	strb	r5, [r3, #2]
10000b42:	19d1      	adds	r1, r2, r7
10000b44:	5dd2      	ldrb	r2, [r2, r7]
10000b46:	2a00      	cmp	r2, #0
10000b48:	d000      	beq.n	10000b4c <alarm_pool_add_alarm_at.constprop.0+0xe0>
10000b4a:	705a      	strb	r2, [r3, #1]
10000b4c:	465b      	mov	r3, fp
10000b4e:	700b      	strb	r3, [r1, #0]
10000b50:	7375      	strb	r5, [r6, #13]
10000b52:	464a      	mov	r2, r9
10000b54:	4653      	mov	r3, sl
10000b56:	7d20      	ldrb	r0, [r4, #20]
10000b58:	f000 f96a 	bl	10000e30 <hardware_alarm_set_target>
10000b5c:	1e06      	subs	r6, r0, #0
10000b5e:	d0da      	beq.n	10000b16 <alarm_pool_add_alarm_at.constprop.0+0xaa>
10000b60:	0029      	movs	r1, r5
10000b62:	6820      	ldr	r0, [r4, #0]
10000b64:	f000 fbce 	bl	10001304 <ph_delete>
10000b68:	68e3      	ldr	r3, [r4, #12]
10000b6a:	6862      	ldr	r2, [r4, #4]
10000b6c:	195b      	adds	r3, r3, r5
10000b6e:	3b01      	subs	r3, #1
10000b70:	781b      	ldrb	r3, [r3, #0]
10000b72:	f3bf 8f5f 	dmb	sy
10000b76:	2100      	movs	r1, #0
10000b78:	6011      	str	r1, [r2, #0]
10000b7a:	f388 8810 	msr	PRIMASK, r8
10000b7e:	2000      	movs	r0, #0
10000b80:	2e00      	cmp	r6, #0
10000b82:	d1d2      	bne.n	10000b2a <alarm_pool_add_alarm_at.constprop.0+0xbe>
10000b84:	0218      	lsls	r0, r3, #8
10000b86:	4328      	orrs	r0, r5
10000b88:	e7cf      	b.n	10000b2a <alarm_pool_add_alarm_at.constprop.0+0xbe>
10000b8a:	46c0      	nop			; (mov r8, r8)
10000b8c:	0fffffff 	.word	0x0fffffff
10000b90:	10000759 	.word	0x10000759

10000b94 <alarm_pool_init_default>:
10000b94:	b570      	push	{r4, r5, r6, lr}
10000b96:	4c18      	ldr	r4, [pc, #96]	; (10000bf8 <alarm_pool_init_default+0x64>)
10000b98:	6823      	ldr	r3, [r4, #0]
10000b9a:	2b00      	cmp	r3, #0
10000b9c:	d000      	beq.n	10000ba0 <alarm_pool_init_default+0xc>
10000b9e:	bd70      	pop	{r4, r5, r6, pc}
10000ba0:	2003      	movs	r0, #3
10000ba2:	f000 f8e9 	bl	10000d78 <hardware_alarm_claim>
10000ba6:	2003      	movs	r0, #3
10000ba8:	f000 f9a4 	bl	10000ef4 <hardware_alarm_cancel>
10000bac:	4913      	ldr	r1, [pc, #76]	; (10000bfc <alarm_pool_init_default+0x68>)
10000bae:	2003      	movs	r0, #3
10000bb0:	f000 f8f8 	bl	10000da4 <hardware_alarm_set_callback>
10000bb4:	2018      	movs	r0, #24
10000bb6:	f001 fb55 	bl	10002264 <__wrap_malloc>
10000bba:	0005      	movs	r5, r0
10000bbc:	f7ff fd22 	bl	10000604 <next_striped_spin_lock_num>
10000bc0:	4b0f      	ldr	r3, [pc, #60]	; (10000c00 <alarm_pool_init_default+0x6c>)
10000bc2:	002a      	movs	r2, r5
10000bc4:	469c      	mov	ip, r3
10000bc6:	4460      	add	r0, ip
10000bc8:	0080      	lsls	r0, r0, #2
10000bca:	490e      	ldr	r1, [pc, #56]	; (10000c04 <alarm_pool_init_default+0x70>)
10000bcc:	6068      	str	r0, [r5, #4]
10000bce:	2010      	movs	r0, #16
10000bd0:	f000 fa04 	bl	10000fdc <ph_create>
10000bd4:	2110      	movs	r1, #16
10000bd6:	6028      	str	r0, [r5, #0]
10000bd8:	2010      	movs	r0, #16
10000bda:	f001 fb47 	bl	1000226c <__wrap_calloc>
10000bde:	2101      	movs	r1, #1
10000be0:	60a8      	str	r0, [r5, #8]
10000be2:	2010      	movs	r0, #16
10000be4:	f001 fb42 	bl	1000226c <__wrap_calloc>
10000be8:	2303      	movs	r3, #3
10000bea:	752b      	strb	r3, [r5, #20]
10000bec:	4b06      	ldr	r3, [pc, #24]	; (10000c08 <alarm_pool_init_default+0x74>)
10000bee:	60e8      	str	r0, [r5, #12]
10000bf0:	60dd      	str	r5, [r3, #12]
10000bf2:	6025      	str	r5, [r4, #0]
10000bf4:	e7d3      	b.n	10000b9e <alarm_pool_init_default+0xa>
10000bf6:	46c0      	nop			; (mov r8, r8)
10000bf8:	20000d5c 	.word	0x20000d5c
10000bfc:	1000088d 	.word	0x1000088d
10000c00:	34000040 	.word	0x34000040
10000c04:	10000725 	.word	0x10000725
10000c08:	200013f4 	.word	0x200013f4

10000c0c <alarm_pool_cancel_alarm>:
10000c0c:	b570      	push	{r4, r5, r6, lr}
10000c0e:	6842      	ldr	r2, [r0, #4]
10000c10:	0004      	movs	r4, r0
10000c12:	f3ef 8510 	mrs	r5, PRIMASK
10000c16:	b672      	cpsid	i
10000c18:	6813      	ldr	r3, [r2, #0]
10000c1a:	2b00      	cmp	r3, #0
10000c1c:	d0fc      	beq.n	10000c18 <alarm_pool_cancel_alarm+0xc>
10000c1e:	f3bf 8f5f 	dmb	sy
10000c22:	6820      	ldr	r0, [r4, #0]
10000c24:	b2ca      	uxtb	r2, r1
10000c26:	7b43      	ldrb	r3, [r0, #13]
10000c28:	4293      	cmp	r3, r2
10000c2a:	d00a      	beq.n	10000c42 <alarm_pool_cancel_alarm+0x36>
10000c2c:	23ff      	movs	r3, #255	; 0xff
10000c2e:	400b      	ands	r3, r1
10000c30:	005e      	lsls	r6, r3, #1
10000c32:	18f3      	adds	r3, r6, r3
10000c34:	6806      	ldr	r6, [r0, #0]
10000c36:	46b4      	mov	ip, r6
10000c38:	4463      	add	r3, ip
10000c3a:	3b03      	subs	r3, #3
10000c3c:	789b      	ldrb	r3, [r3, #2]
10000c3e:	2b00      	cmp	r3, #0
10000c40:	d013      	beq.n	10000c6a <alarm_pool_cancel_alarm+0x5e>
10000c42:	68e6      	ldr	r6, [r4, #12]
10000c44:	23ff      	movs	r3, #255	; 0xff
10000c46:	46b4      	mov	ip, r6
10000c48:	400b      	ands	r3, r1
10000c4a:	4463      	add	r3, ip
10000c4c:	3b01      	subs	r3, #1
10000c4e:	0a09      	lsrs	r1, r1, #8
10000c50:	781e      	ldrb	r6, [r3, #0]
10000c52:	b2c9      	uxtb	r1, r1
10000c54:	428e      	cmp	r6, r1
10000c56:	d00d      	beq.n	10000c74 <alarm_pool_cancel_alarm+0x68>
10000c58:	2000      	movs	r0, #0
10000c5a:	6863      	ldr	r3, [r4, #4]
10000c5c:	f3bf 8f5f 	dmb	sy
10000c60:	2200      	movs	r2, #0
10000c62:	601a      	str	r2, [r3, #0]
10000c64:	f385 8810 	msr	PRIMASK, r5
10000c68:	bd70      	pop	{r4, r5, r6, pc}
10000c6a:	6922      	ldr	r2, [r4, #16]
10000c6c:	428a      	cmp	r2, r1
10000c6e:	d1f3      	bne.n	10000c58 <alarm_pool_cancel_alarm+0x4c>
10000c70:	6123      	str	r3, [r4, #16]
10000c72:	e7f1      	b.n	10000c58 <alarm_pool_cancel_alarm+0x4c>
10000c74:	0011      	movs	r1, r2
10000c76:	f000 fb45 	bl	10001304 <ph_delete>
10000c7a:	e7ee      	b.n	10000c5a <alarm_pool_cancel_alarm+0x4e>

10000c7c <best_effort_wfe_or_timeout>:
10000c7c:	b570      	push	{r4, r5, r6, lr}
10000c7e:	4d0e      	ldr	r5, [pc, #56]	; (10000cb8 <best_effort_wfe_or_timeout+0x3c>)
10000c80:	0002      	movs	r2, r0
10000c82:	000b      	movs	r3, r1
10000c84:	0006      	movs	r6, r0
10000c86:	6828      	ldr	r0, [r5, #0]
10000c88:	000c      	movs	r4, r1
10000c8a:	f7ff feef 	bl	10000a6c <alarm_pool_add_alarm_at.constprop.0>
10000c8e:	1e01      	subs	r1, r0, #0
10000c90:	dd03      	ble.n	10000c9a <best_effort_wfe_or_timeout+0x1e>
10000c92:	bf20      	wfe
10000c94:	6828      	ldr	r0, [r5, #0]
10000c96:	f7ff ffb9 	bl	10000c0c <alarm_pool_cancel_alarm>
10000c9a:	4b08      	ldr	r3, [pc, #32]	; (10000cbc <best_effort_wfe_or_timeout+0x40>)
10000c9c:	2000      	movs	r0, #0
10000c9e:	6a59      	ldr	r1, [r3, #36]	; 0x24
10000ca0:	428c      	cmp	r4, r1
10000ca2:	d803      	bhi.n	10000cac <best_effort_wfe_or_timeout+0x30>
10000ca4:	6a9b      	ldr	r3, [r3, #40]	; 0x28
10000ca6:	3001      	adds	r0, #1
10000ca8:	42b3      	cmp	r3, r6
10000caa:	d300      	bcc.n	10000cae <best_effort_wfe_or_timeout+0x32>
10000cac:	bd70      	pop	{r4, r5, r6, pc}
10000cae:	1a64      	subs	r4, r4, r1
10000cb0:	1e61      	subs	r1, r4, #1
10000cb2:	418c      	sbcs	r4, r1
10000cb4:	b2e0      	uxtb	r0, r4
10000cb6:	e7f9      	b.n	10000cac <best_effort_wfe_or_timeout+0x30>
10000cb8:	20000d5c 	.word	0x20000d5c
10000cbc:	40054000 	.word	0x40054000

10000cc0 <hardware_alarm_irq_handler>:
10000cc0:	b5f0      	push	{r4, r5, r6, r7, lr}
10000cc2:	46d6      	mov	lr, sl
10000cc4:	464f      	mov	r7, r9
10000cc6:	4646      	mov	r6, r8
10000cc8:	b5c0      	push	{r6, r7, lr}
10000cca:	f3ef 8305 	mrs	r3, IPSR
10000cce:	223f      	movs	r2, #63	; 0x3f
10000cd0:	4013      	ands	r3, r2
10000cd2:	0018      	movs	r0, r3
10000cd4:	3810      	subs	r0, #16
10000cd6:	f3ef 8c10 	mrs	ip, PRIMASK
10000cda:	b672      	cpsid	i
10000cdc:	4d20      	ldr	r5, [pc, #128]	; (10000d60 <hardware_alarm_irq_handler+0xa0>)
10000cde:	682a      	ldr	r2, [r5, #0]
10000ce0:	2a00      	cmp	r2, #0
10000ce2:	d0fc      	beq.n	10000cde <hardware_alarm_irq_handler+0x1e>
10000ce4:	f3bf 8f5f 	dmb	sy
10000ce8:	2201      	movs	r2, #1
10000cea:	0011      	movs	r1, r2
10000cec:	4081      	lsls	r1, r0
10000cee:	4c1d      	ldr	r4, [pc, #116]	; (10000d64 <hardware_alarm_irq_handler+0xa4>)
10000cf0:	4688      	mov	r8, r1
10000cf2:	6361      	str	r1, [r4, #52]	; 0x34
10000cf4:	491c      	ldr	r1, [pc, #112]	; (10000d68 <hardware_alarm_irq_handler+0xa8>)
10000cf6:	0017      	movs	r7, r2
10000cf8:	780e      	ldrb	r6, [r1, #0]
10000cfa:	468a      	mov	sl, r1
10000cfc:	0031      	movs	r1, r6
10000cfe:	40c1      	lsrs	r1, r0
10000d00:	400f      	ands	r7, r1
10000d02:	420a      	tst	r2, r1
10000d04:	d015      	beq.n	10000d32 <hardware_alarm_irq_handler+0x72>
10000d06:	4919      	ldr	r1, [pc, #100]	; (10000d6c <hardware_alarm_irq_handler+0xac>)
10000d08:	0082      	lsls	r2, r0, #2
10000d0a:	6a64      	ldr	r4, [r4, #36]	; 0x24
10000d0c:	5851      	ldr	r1, [r2, r1]
10000d0e:	428c      	cmp	r4, r1
10000d10:	d319      	bcc.n	10000d46 <hardware_alarm_irq_handler+0x86>
10000d12:	4b17      	ldr	r3, [pc, #92]	; (10000d70 <hardware_alarm_irq_handler+0xb0>)
10000d14:	58d2      	ldr	r2, [r2, r3]
10000d16:	4643      	mov	r3, r8
10000d18:	439e      	bics	r6, r3
10000d1a:	4653      	mov	r3, sl
10000d1c:	701e      	strb	r6, [r3, #0]
10000d1e:	f3bf 8f5f 	dmb	sy
10000d22:	2300      	movs	r3, #0
10000d24:	602b      	str	r3, [r5, #0]
10000d26:	f38c 8810 	msr	PRIMASK, ip
10000d2a:	2a00      	cmp	r2, #0
10000d2c:	d006      	beq.n	10000d3c <hardware_alarm_irq_handler+0x7c>
10000d2e:	4790      	blx	r2
10000d30:	e004      	b.n	10000d3c <hardware_alarm_irq_handler+0x7c>
10000d32:	f3bf 8f5f 	dmb	sy
10000d36:	602f      	str	r7, [r5, #0]
10000d38:	f38c 8810 	msr	PRIMASK, ip
10000d3c:	bc1c      	pop	{r2, r3, r4}
10000d3e:	4690      	mov	r8, r2
10000d40:	4699      	mov	r9, r3
10000d42:	46a2      	mov	sl, r4
10000d44:	bdf0      	pop	{r4, r5, r6, r7, pc}
10000d46:	4a0b      	ldr	r2, [pc, #44]	; (10000d74 <hardware_alarm_irq_handler+0xb4>)
10000d48:	009b      	lsls	r3, r3, #2
10000d4a:	4690      	mov	r8, r2
10000d4c:	4443      	add	r3, r8
10000d4e:	681a      	ldr	r2, [r3, #0]
10000d50:	601a      	str	r2, [r3, #0]
10000d52:	f3bf 8f5f 	dmb	sy
10000d56:	2300      	movs	r3, #0
10000d58:	602b      	str	r3, [r5, #0]
10000d5a:	f38c 8810 	msr	PRIMASK, ip
10000d5e:	e7ed      	b.n	10000d3c <hardware_alarm_irq_handler+0x7c>
10000d60:	d0000128 	.word	0xd0000128
10000d64:	40054000 	.word	0x40054000
10000d68:	2000141e 	.word	0x2000141e
10000d6c:	20001408 	.word	0x20001408
10000d70:	20000d20 	.word	0x20000d20
10000d74:	40053fd0 	.word	0x40053fd0

10000d78 <hardware_alarm_claim>:
10000d78:	b510      	push	{r4, lr}
10000d7a:	0001      	movs	r1, r0
10000d7c:	4a02      	ldr	r2, [pc, #8]	; (10000d88 <hardware_alarm_claim+0x10>)
10000d7e:	4803      	ldr	r0, [pc, #12]	; (10000d8c <hardware_alarm_claim+0x14>)
10000d80:	f7ff fbb4 	bl	100004ec <hw_claim_or_assert>
10000d84:	bd10      	pop	{r4, pc}
10000d86:	46c0      	nop			; (mov r8, r8)
10000d88:	10004888 	.word	0x10004888
10000d8c:	2000141b 	.word	0x2000141b

10000d90 <time_us_64>:
10000d90:	4b03      	ldr	r3, [pc, #12]	; (10000da0 <time_us_64+0x10>)
10000d92:	6a59      	ldr	r1, [r3, #36]	; 0x24
10000d94:	000a      	movs	r2, r1
10000d96:	6a98      	ldr	r0, [r3, #40]	; 0x28
10000d98:	6a59      	ldr	r1, [r3, #36]	; 0x24
10000d9a:	428a      	cmp	r2, r1
10000d9c:	d1fa      	bne.n	10000d94 <time_us_64+0x4>
10000d9e:	4770      	bx	lr
10000da0:	40054000 	.word	0x40054000

10000da4 <hardware_alarm_set_callback>:
10000da4:	b570      	push	{r4, r5, r6, lr}
10000da6:	0004      	movs	r4, r0
10000da8:	000d      	movs	r5, r1
10000daa:	f3ef 8610 	mrs	r6, PRIMASK
10000dae:	b672      	cpsid	i
10000db0:	4a1a      	ldr	r2, [pc, #104]	; (10000e1c <hardware_alarm_set_callback+0x78>)
10000db2:	6813      	ldr	r3, [r2, #0]
10000db4:	2b00      	cmp	r3, #0
10000db6:	d0fc      	beq.n	10000db2 <hardware_alarm_set_callback+0xe>
10000db8:	f3bf 8f5f 	dmb	sy
10000dbc:	2d00      	cmp	r5, #0
10000dbe:	d01b      	beq.n	10000df8 <hardware_alarm_set_callback+0x54>
10000dc0:	0020      	movs	r0, r4
10000dc2:	f000 fd5b 	bl	1000187c <irq_get_vtable_handler>
10000dc6:	4916      	ldr	r1, [pc, #88]	; (10000e20 <hardware_alarm_set_callback+0x7c>)
10000dc8:	4281      	cmp	r1, r0
10000dca:	d00a      	beq.n	10000de2 <hardware_alarm_set_callback+0x3e>
10000dcc:	0020      	movs	r0, r4
10000dce:	f000 fd5d 	bl	1000188c <irq_set_exclusive_handler>
10000dd2:	2101      	movs	r1, #1
10000dd4:	0020      	movs	r0, r4
10000dd6:	f000 fd3f 	bl	10001858 <irq_set_enabled>
10000dda:	2301      	movs	r3, #1
10000ddc:	40a3      	lsls	r3, r4
10000dde:	4a11      	ldr	r2, [pc, #68]	; (10000e24 <hardware_alarm_set_callback+0x80>)
10000de0:	6013      	str	r3, [r2, #0]
10000de2:	4b11      	ldr	r3, [pc, #68]	; (10000e28 <hardware_alarm_set_callback+0x84>)
10000de4:	00a4      	lsls	r4, r4, #2
10000de6:	50e5      	str	r5, [r4, r3]
10000de8:	f3bf 8f5f 	dmb	sy
10000dec:	2200      	movs	r2, #0
10000dee:	4b0b      	ldr	r3, [pc, #44]	; (10000e1c <hardware_alarm_set_callback+0x78>)
10000df0:	601a      	str	r2, [r3, #0]
10000df2:	f386 8810 	msr	PRIMASK, r6
10000df6:	bd70      	pop	{r4, r5, r6, pc}
10000df8:	4b0b      	ldr	r3, [pc, #44]	; (10000e28 <hardware_alarm_set_callback+0x84>)
10000dfa:	00a2      	lsls	r2, r4, #2
10000dfc:	50d5      	str	r5, [r2, r3]
10000dfe:	2201      	movs	r2, #1
10000e00:	40a2      	lsls	r2, r4
10000e02:	490a      	ldr	r1, [pc, #40]	; (10000e2c <hardware_alarm_set_callback+0x88>)
10000e04:	0020      	movs	r0, r4
10000e06:	780b      	ldrb	r3, [r1, #0]
10000e08:	4393      	bics	r3, r2
10000e0a:	700b      	strb	r3, [r1, #0]
10000e0c:	4904      	ldr	r1, [pc, #16]	; (10000e20 <hardware_alarm_set_callback+0x7c>)
10000e0e:	f000 fd67 	bl	100018e0 <irq_remove_handler>
10000e12:	2100      	movs	r1, #0
10000e14:	0020      	movs	r0, r4
10000e16:	f000 fd1f 	bl	10001858 <irq_set_enabled>
10000e1a:	e7e5      	b.n	10000de8 <hardware_alarm_set_callback+0x44>
10000e1c:	d0000128 	.word	0xd0000128
10000e20:	10000cc1 	.word	0x10000cc1
10000e24:	40056038 	.word	0x40056038
10000e28:	20000d20 	.word	0x20000d20
10000e2c:	2000141e 	.word	0x2000141e

10000e30 <hardware_alarm_set_target>:
10000e30:	b5f0      	push	{r4, r5, r6, r7, lr}
10000e32:	46ce      	mov	lr, r9
10000e34:	4647      	mov	r7, r8
10000e36:	b580      	push	{r7, lr}
10000e38:	4c2a      	ldr	r4, [pc, #168]	; (10000ee4 <hardware_alarm_set_target+0xb4>)
10000e3a:	6a61      	ldr	r1, [r4, #36]	; 0x24
10000e3c:	000d      	movs	r5, r1
10000e3e:	6aa6      	ldr	r6, [r4, #40]	; 0x28
10000e40:	6a61      	ldr	r1, [r4, #36]	; 0x24
10000e42:	42a9      	cmp	r1, r5
10000e44:	d1fa      	bne.n	10000e3c <hardware_alarm_set_target+0xc>
10000e46:	428b      	cmp	r3, r1
10000e48:	d807      	bhi.n	10000e5a <hardware_alarm_set_target+0x2a>
10000e4a:	d004      	beq.n	10000e56 <hardware_alarm_set_target+0x26>
10000e4c:	2001      	movs	r0, #1
10000e4e:	bc0c      	pop	{r2, r3}
10000e50:	4690      	mov	r8, r2
10000e52:	4699      	mov	r9, r3
10000e54:	bdf0      	pop	{r4, r5, r6, r7, pc}
10000e56:	42b2      	cmp	r2, r6
10000e58:	d9f8      	bls.n	10000e4c <hardware_alarm_set_target+0x1c>
10000e5a:	f3ef 8810 	mrs	r8, PRIMASK
10000e5e:	b672      	cpsid	i
10000e60:	4c21      	ldr	r4, [pc, #132]	; (10000ee8 <hardware_alarm_set_target+0xb8>)
10000e62:	6821      	ldr	r1, [r4, #0]
10000e64:	2900      	cmp	r1, #0
10000e66:	d0fc      	beq.n	10000e62 <hardware_alarm_set_target+0x32>
10000e68:	f3bf 8f5f 	dmb	sy
10000e6c:	2501      	movs	r5, #1
10000e6e:	4085      	lsls	r5, r0
10000e70:	4c1c      	ldr	r4, [pc, #112]	; (10000ee4 <hardware_alarm_set_target+0xb4>)
10000e72:	4e1e      	ldr	r6, [pc, #120]	; (10000eec <hardware_alarm_set_target+0xbc>)
10000e74:	6365      	str	r5, [r4, #52]	; 0x34
10000e76:	b2e9      	uxtb	r1, r5
10000e78:	468c      	mov	ip, r1
10000e7a:	7831      	ldrb	r1, [r6, #0]
10000e7c:	4689      	mov	r9, r1
10000e7e:	4661      	mov	r1, ip
10000e80:	464f      	mov	r7, r9
10000e82:	4339      	orrs	r1, r7
10000e84:	7031      	strb	r1, [r6, #0]
10000e86:	1d01      	adds	r1, r0, #4
10000e88:	0089      	lsls	r1, r1, #2
10000e8a:	510a      	str	r2, [r1, r4]
10000e8c:	4918      	ldr	r1, [pc, #96]	; (10000ef0 <hardware_alarm_set_target+0xc0>)
10000e8e:	0080      	lsls	r0, r0, #2
10000e90:	5043      	str	r3, [r0, r1]
10000e92:	6a21      	ldr	r1, [r4, #32]
10000e94:	2000      	movs	r0, #0
10000e96:	4229      	tst	r1, r5
10000e98:	d00c      	beq.n	10000eb4 <hardware_alarm_set_target+0x84>
10000e9a:	0020      	movs	r0, r4
10000e9c:	6a61      	ldr	r1, [r4, #36]	; 0x24
10000e9e:	000c      	movs	r4, r1
10000ea0:	6a87      	ldr	r7, [r0, #40]	; 0x28
10000ea2:	6a41      	ldr	r1, [r0, #36]	; 0x24
10000ea4:	42a1      	cmp	r1, r4
10000ea6:	d1fa      	bne.n	10000e9e <hardware_alarm_set_target+0x6e>
10000ea8:	428b      	cmp	r3, r1
10000eaa:	d802      	bhi.n	10000eb2 <hardware_alarm_set_target+0x82>
10000eac:	d10a      	bne.n	10000ec4 <hardware_alarm_set_target+0x94>
10000eae:	42ba      	cmp	r2, r7
10000eb0:	d908      	bls.n	10000ec4 <hardware_alarm_set_target+0x94>
10000eb2:	2000      	movs	r0, #0
10000eb4:	f3bf 8f5f 	dmb	sy
10000eb8:	2200      	movs	r2, #0
10000eba:	4b0b      	ldr	r3, [pc, #44]	; (10000ee8 <hardware_alarm_set_target+0xb8>)
10000ebc:	601a      	str	r2, [r3, #0]
10000ebe:	f388 8810 	msr	PRIMASK, r8
10000ec2:	e7c4      	b.n	10000e4e <hardware_alarm_set_target+0x1e>
10000ec4:	4b07      	ldr	r3, [pc, #28]	; (10000ee4 <hardware_alarm_set_target+0xb4>)
10000ec6:	464f      	mov	r7, r9
10000ec8:	621d      	str	r5, [r3, #32]
10000eca:	635d      	str	r5, [r3, #52]	; 0x34
10000ecc:	4663      	mov	r3, ip
10000ece:	439f      	bics	r7, r3
10000ed0:	2001      	movs	r0, #1
10000ed2:	7037      	strb	r7, [r6, #0]
10000ed4:	f3bf 8f5f 	dmb	sy
10000ed8:	2200      	movs	r2, #0
10000eda:	4b03      	ldr	r3, [pc, #12]	; (10000ee8 <hardware_alarm_set_target+0xb8>)
10000edc:	601a      	str	r2, [r3, #0]
10000ede:	f388 8810 	msr	PRIMASK, r8
10000ee2:	e7b4      	b.n	10000e4e <hardware_alarm_set_target+0x1e>
10000ee4:	40054000 	.word	0x40054000
10000ee8:	d0000128 	.word	0xd0000128
10000eec:	2000141e 	.word	0x2000141e
10000ef0:	20001408 	.word	0x20001408

10000ef4 <hardware_alarm_cancel>:
10000ef4:	b510      	push	{r4, lr}
10000ef6:	f3ef 8410 	mrs	r4, PRIMASK
10000efa:	b672      	cpsid	i
10000efc:	490a      	ldr	r1, [pc, #40]	; (10000f28 <hardware_alarm_cancel+0x34>)
10000efe:	680b      	ldr	r3, [r1, #0]
10000f00:	2b00      	cmp	r3, #0
10000f02:	d0fc      	beq.n	10000efe <hardware_alarm_cancel+0xa>
10000f04:	f3bf 8f5f 	dmb	sy
10000f08:	2301      	movs	r3, #1
10000f0a:	4083      	lsls	r3, r0
10000f0c:	4a07      	ldr	r2, [pc, #28]	; (10000f2c <hardware_alarm_cancel+0x38>)
10000f0e:	4808      	ldr	r0, [pc, #32]	; (10000f30 <hardware_alarm_cancel+0x3c>)
10000f10:	6213      	str	r3, [r2, #32]
10000f12:	7802      	ldrb	r2, [r0, #0]
10000f14:	439a      	bics	r2, r3
10000f16:	7002      	strb	r2, [r0, #0]
10000f18:	f3bf 8f5f 	dmb	sy
10000f1c:	2300      	movs	r3, #0
10000f1e:	600b      	str	r3, [r1, #0]
10000f20:	f384 8810 	msr	PRIMASK, r4
10000f24:	bd10      	pop	{r4, pc}
10000f26:	46c0      	nop			; (mov r8, r8)
10000f28:	d0000128 	.word	0xd0000128
10000f2c:	40054000 	.word	0x40054000
10000f30:	2000141e 	.word	0x2000141e

10000f34 <lock_init>:
10000f34:	4b02      	ldr	r3, [pc, #8]	; (10000f40 <lock_init+0xc>)
10000f36:	469c      	mov	ip, r3
10000f38:	4461      	add	r1, ip
10000f3a:	0089      	lsls	r1, r1, #2
10000f3c:	6001      	str	r1, [r0, #0]
10000f3e:	4770      	bx	lr
10000f40:	34000040 	.word	0x34000040

10000f44 <mutex_init>:
10000f44:	b510      	push	{r4, lr}
10000f46:	0004      	movs	r4, r0
10000f48:	f7ff fb5c 	bl	10000604 <next_striped_spin_lock_num>
10000f4c:	0001      	movs	r1, r0
10000f4e:	0020      	movs	r0, r4
10000f50:	f7ff fff0 	bl	10000f34 <lock_init>
10000f54:	f3bf 8f5f 	dmb	sy
10000f58:	bd10      	pop	{r4, pc}
10000f5a:	46c0      	nop			; (mov r8, r8)

10000f5c <critical_section_init>:
10000f5c:	b510      	push	{r4, lr}
10000f5e:	0004      	movs	r4, r0
10000f60:	2001      	movs	r0, #1
10000f62:	f7ff fb5b 	bl	1000061c <spin_lock_claim_unused>
10000f66:	0001      	movs	r1, r0
10000f68:	0020      	movs	r0, r4
10000f6a:	f7ff ffe3 	bl	10000f34 <lock_init>
10000f6e:	f3bf 8f5f 	dmb	sy
10000f72:	bd10      	pop	{r4, pc}

10000f74 <ph_merge_nodes>:
10000f74:	b570      	push	{r4, r5, r6, lr}
10000f76:	0005      	movs	r5, r0
10000f78:	000e      	movs	r6, r1
10000f7a:	0014      	movs	r4, r2
10000f7c:	2900      	cmp	r1, #0
10000f7e:	d024      	beq.n	10000fca <ph_merge_nodes+0x56>
10000f80:	2a00      	cmp	r2, #0
10000f82:	d024      	beq.n	10000fce <ph_merge_nodes+0x5a>
10000f84:	6880      	ldr	r0, [r0, #8]
10000f86:	686b      	ldr	r3, [r5, #4]
10000f88:	4798      	blx	r3
10000f8a:	6829      	ldr	r1, [r5, #0]
10000f8c:	2800      	cmp	r0, #0
10000f8e:	d00e      	beq.n	10000fae <ph_merge_nodes+0x3a>
10000f90:	0063      	lsls	r3, r4, #1
10000f92:	191b      	adds	r3, r3, r4
10000f94:	0072      	lsls	r2, r6, #1
10000f96:	3b03      	subs	r3, #3
10000f98:	1992      	adds	r2, r2, r6
10000f9a:	18cb      	adds	r3, r1, r3
10000f9c:	3a03      	subs	r2, #3
10000f9e:	709e      	strb	r6, [r3, #2]
10000fa0:	1888      	adds	r0, r1, r2
10000fa2:	5c8a      	ldrb	r2, [r1, r2]
10000fa4:	2a00      	cmp	r2, #0
10000fa6:	d114      	bne.n	10000fd2 <ph_merge_nodes+0x5e>
10000fa8:	7004      	strb	r4, [r0, #0]
10000faa:	0030      	movs	r0, r6
10000fac:	e00e      	b.n	10000fcc <ph_merge_nodes+0x58>
10000fae:	0073      	lsls	r3, r6, #1
10000fb0:	199b      	adds	r3, r3, r6
10000fb2:	0062      	lsls	r2, r4, #1
10000fb4:	3b03      	subs	r3, #3
10000fb6:	1912      	adds	r2, r2, r4
10000fb8:	18cb      	adds	r3, r1, r3
10000fba:	3a03      	subs	r2, #3
10000fbc:	709c      	strb	r4, [r3, #2]
10000fbe:	1888      	adds	r0, r1, r2
10000fc0:	5c8a      	ldrb	r2, [r1, r2]
10000fc2:	2a00      	cmp	r2, #0
10000fc4:	d000      	beq.n	10000fc8 <ph_merge_nodes+0x54>
10000fc6:	705a      	strb	r2, [r3, #1]
10000fc8:	7006      	strb	r6, [r0, #0]
10000fca:	0020      	movs	r0, r4
10000fcc:	bd70      	pop	{r4, r5, r6, pc}
10000fce:	0008      	movs	r0, r1
10000fd0:	e7fc      	b.n	10000fcc <ph_merge_nodes+0x58>
10000fd2:	705a      	strb	r2, [r3, #1]
10000fd4:	7004      	strb	r4, [r0, #0]
10000fd6:	0030      	movs	r0, r6
10000fd8:	e7f8      	b.n	10000fcc <ph_merge_nodes+0x58>
10000fda:	46c0      	nop			; (mov r8, r8)

10000fdc <ph_create>:
10000fdc:	b5f0      	push	{r4, r5, r6, r7, lr}
10000fde:	46c6      	mov	lr, r8
10000fe0:	0005      	movs	r5, r0
10000fe2:	000f      	movs	r7, r1
10000fe4:	b500      	push	{lr}
10000fe6:	2110      	movs	r1, #16
10000fe8:	2001      	movs	r0, #1
10000fea:	0016      	movs	r6, r2
10000fec:	f001 f93e 	bl	1000226c <__wrap_calloc>
10000ff0:	b2eb      	uxtb	r3, r5
10000ff2:	0004      	movs	r4, r0
10000ff4:	7303      	strb	r3, [r0, #12]
10000ff6:	2103      	movs	r1, #3
10000ff8:	6047      	str	r7, [r0, #4]
10000ffa:	0028      	movs	r0, r5
10000ffc:	4698      	mov	r8, r3
10000ffe:	f001 f935 	bl	1000226c <__wrap_calloc>
10001002:	2300      	movs	r3, #0
10001004:	7363      	strb	r3, [r4, #13]
10001006:	3301      	adds	r3, #1
10001008:	73a3      	strb	r3, [r4, #14]
1000100a:	4643      	mov	r3, r8
1000100c:	21ff      	movs	r1, #255	; 0xff
1000100e:	73e3      	strb	r3, [r4, #15]
10001010:	23fe      	movs	r3, #254	; 0xfe
10001012:	6020      	str	r0, [r4, #0]
10001014:	60a6      	str	r6, [r4, #8]
10001016:	4029      	ands	r1, r5
10001018:	422b      	tst	r3, r5
1000101a:	d006      	beq.n	1000102a <ph_create+0x4e>
1000101c:	1c42      	adds	r2, r0, #1
1000101e:	3bfd      	subs	r3, #253	; 0xfd
10001020:	3301      	adds	r3, #1
10001022:	7013      	strb	r3, [r2, #0]
10001024:	3203      	adds	r2, #3
10001026:	428b      	cmp	r3, r1
10001028:	d3fa      	bcc.n	10001020 <ph_create+0x44>
1000102a:	004b      	lsls	r3, r1, #1
1000102c:	1859      	adds	r1, r3, r1
1000102e:	2300      	movs	r3, #0
10001030:	1840      	adds	r0, r0, r1
10001032:	3803      	subs	r0, #3
10001034:	7043      	strb	r3, [r0, #1]
10001036:	0020      	movs	r0, r4
10001038:	bc04      	pop	{r2}
1000103a:	4690      	mov	r8, r2
1000103c:	bdf0      	pop	{r4, r5, r6, r7, pc}
1000103e:	46c0      	nop			; (mov r8, r8)

10001040 <ph_merge_two_pass>:
10001040:	b5f8      	push	{r3, r4, r5, r6, r7, lr}
10001042:	46ce      	mov	lr, r9
10001044:	4647      	mov	r7, r8
10001046:	0006      	movs	r6, r0
10001048:	000c      	movs	r4, r1
1000104a:	b580      	push	{r7, lr}
1000104c:	2900      	cmp	r1, #0
1000104e:	d007      	beq.n	10001060 <ph_merge_two_pass+0x20>
10001050:	004d      	lsls	r5, r1, #1
10001052:	6803      	ldr	r3, [r0, #0]
10001054:	186d      	adds	r5, r5, r1
10001056:	3d03      	subs	r5, #3
10001058:	195a      	adds	r2, r3, r5
1000105a:	7857      	ldrb	r7, [r2, #1]
1000105c:	2f00      	cmp	r7, #0
1000105e:	d104      	bne.n	1000106a <ph_merge_two_pass+0x2a>
10001060:	0020      	movs	r0, r4
10001062:	bc0c      	pop	{r2, r3}
10001064:	4690      	mov	r8, r2
10001066:	4699      	mov	r9, r3
10001068:	bdf8      	pop	{r3, r4, r5, r6, r7, pc}
1000106a:	0079      	lsls	r1, r7, #1
1000106c:	19c9      	adds	r1, r1, r7
1000106e:	3903      	subs	r1, #3
10001070:	4688      	mov	r8, r1
10001072:	4443      	add	r3, r8
10001074:	7859      	ldrb	r1, [r3, #1]
10001076:	4689      	mov	r9, r1
10001078:	2100      	movs	r1, #0
1000107a:	7059      	strb	r1, [r3, #1]
1000107c:	7051      	strb	r1, [r2, #1]
1000107e:	6873      	ldr	r3, [r6, #4]
10001080:	003a      	movs	r2, r7
10001082:	0021      	movs	r1, r4
10001084:	6880      	ldr	r0, [r0, #8]
10001086:	4798      	blx	r3
10001088:	6833      	ldr	r3, [r6, #0]
1000108a:	2800      	cmp	r0, #0
1000108c:	d014      	beq.n	100010b8 <ph_merge_two_pass+0x78>
1000108e:	4642      	mov	r2, r8
10001090:	189a      	adds	r2, r3, r2
10001092:	7094      	strb	r4, [r2, #2]
10001094:	1959      	adds	r1, r3, r5
10001096:	5d5b      	ldrb	r3, [r3, r5]
10001098:	2b00      	cmp	r3, #0
1000109a:	d000      	beq.n	1000109e <ph_merge_two_pass+0x5e>
1000109c:	7053      	strb	r3, [r2, #1]
1000109e:	700f      	strb	r7, [r1, #0]
100010a0:	0027      	movs	r7, r4
100010a2:	4649      	mov	r1, r9
100010a4:	0030      	movs	r0, r6
100010a6:	f7ff ffcb 	bl	10001040 <ph_merge_two_pass>
100010aa:	0039      	movs	r1, r7
100010ac:	0002      	movs	r2, r0
100010ae:	0030      	movs	r0, r6
100010b0:	f7ff ff60 	bl	10000f74 <ph_merge_nodes>
100010b4:	0004      	movs	r4, r0
100010b6:	e7d3      	b.n	10001060 <ph_merge_two_pass+0x20>
100010b8:	4642      	mov	r2, r8
100010ba:	4641      	mov	r1, r8
100010bc:	195d      	adds	r5, r3, r5
100010be:	70af      	strb	r7, [r5, #2]
100010c0:	189a      	adds	r2, r3, r2
100010c2:	5c5b      	ldrb	r3, [r3, r1]
100010c4:	2b00      	cmp	r3, #0
100010c6:	d000      	beq.n	100010ca <ph_merge_two_pass+0x8a>
100010c8:	706b      	strb	r3, [r5, #1]
100010ca:	7014      	strb	r4, [r2, #0]
100010cc:	e7e9      	b.n	100010a2 <ph_merge_two_pass+0x62>
100010ce:	46c0      	nop			; (mov r8, r8)

100010d0 <ph_remove_any_head>:
100010d0:	b5f0      	push	{r4, r5, r6, r7, lr}
100010d2:	4657      	mov	r7, sl
100010d4:	4645      	mov	r5, r8
100010d6:	46de      	mov	lr, fp
100010d8:	464e      	mov	r6, r9
100010da:	b5e0      	push	{r5, r6, r7, lr}
100010dc:	000d      	movs	r5, r1
100010de:	006b      	lsls	r3, r5, #1
100010e0:	6801      	ldr	r1, [r0, #0]
100010e2:	195b      	adds	r3, r3, r5
100010e4:	1edf      	subs	r7, r3, #3
100010e6:	0004      	movs	r4, r0
100010e8:	5dc8      	ldrb	r0, [r1, r7]
100010ea:	b083      	sub	sp, #12
100010ec:	9201      	str	r2, [sp, #4]
100010ee:	19ca      	adds	r2, r1, r7
100010f0:	2800      	cmp	r0, #0
100010f2:	d04c      	beq.n	1000118e <ph_remove_any_head+0xbe>
100010f4:	0043      	lsls	r3, r0, #1
100010f6:	181b      	adds	r3, r3, r0
100010f8:	3b03      	subs	r3, #3
100010fa:	18cb      	adds	r3, r1, r3
100010fc:	785e      	ldrb	r6, [r3, #1]
100010fe:	46b4      	mov	ip, r6
10001100:	2e00      	cmp	r6, #0
10001102:	d116      	bne.n	10001132 <ph_remove_any_head+0x62>
10001104:	9e01      	ldr	r6, [sp, #4]
10001106:	2e00      	cmp	r6, #0
10001108:	d13e      	bne.n	10001188 <ph_remove_any_head+0xb8>
1000110a:	7be6      	ldrb	r6, [r4, #15]
1000110c:	2e00      	cmp	r6, #0
1000110e:	d004      	beq.n	1000111a <ph_remove_any_head+0x4a>
10001110:	0073      	lsls	r3, r6, #1
10001112:	199b      	adds	r3, r3, r6
10001114:	18cb      	adds	r3, r1, r3
10001116:	3b03      	subs	r3, #3
10001118:	705d      	strb	r5, [r3, #1]
1000111a:	73e5      	strb	r5, [r4, #15]
1000111c:	2800      	cmp	r0, #0
1000111e:	d12f      	bne.n	10001180 <ph_remove_any_head+0xb0>
10001120:	2300      	movs	r3, #0
10001122:	7053      	strb	r3, [r2, #1]
10001124:	b003      	add	sp, #12
10001126:	bc3c      	pop	{r2, r3, r4, r5}
10001128:	4690      	mov	r8, r2
1000112a:	4699      	mov	r9, r3
1000112c:	46a2      	mov	sl, r4
1000112e:	46ab      	mov	fp, r5
10001130:	bdf0      	pop	{r4, r5, r6, r7, pc}
10001132:	0072      	lsls	r2, r6, #1
10001134:	4462      	add	r2, ip
10001136:	3a03      	subs	r2, #3
10001138:	1889      	adds	r1, r1, r2
1000113a:	784a      	ldrb	r2, [r1, #1]
1000113c:	4690      	mov	r8, r2
1000113e:	2200      	movs	r2, #0
10001140:	704a      	strb	r2, [r1, #1]
10001142:	4691      	mov	r9, r2
10001144:	705a      	strb	r2, [r3, #1]
10001146:	0001      	movs	r1, r0
10001148:	0032      	movs	r2, r6
1000114a:	0020      	movs	r0, r4
1000114c:	f7ff ff12 	bl	10000f74 <ph_merge_nodes>
10001150:	4643      	mov	r3, r8
10001152:	4682      	mov	sl, r0
10001154:	2b00      	cmp	r3, #0
10001156:	d007      	beq.n	10001168 <ph_remove_any_head+0x98>
10001158:	005b      	lsls	r3, r3, #1
1000115a:	6821      	ldr	r1, [r4, #0]
1000115c:	4443      	add	r3, r8
1000115e:	3b03      	subs	r3, #3
10001160:	18cb      	adds	r3, r1, r3
10001162:	785a      	ldrb	r2, [r3, #1]
10001164:	2a00      	cmp	r2, #0
10001166:	d116      	bne.n	10001196 <ph_remove_any_head+0xc6>
10001168:	4642      	mov	r2, r8
1000116a:	4651      	mov	r1, sl
1000116c:	0020      	movs	r0, r4
1000116e:	f7ff ff01 	bl	10000f74 <ph_merge_nodes>
10001172:	6821      	ldr	r1, [r4, #0]
10001174:	9b01      	ldr	r3, [sp, #4]
10001176:	19ca      	adds	r2, r1, r7
10001178:	2b00      	cmp	r3, #0
1000117a:	d0c6      	beq.n	1000110a <ph_remove_any_head+0x3a>
1000117c:	2800      	cmp	r0, #0
1000117e:	d0cf      	beq.n	10001120 <ph_remove_any_head+0x50>
10001180:	0043      	lsls	r3, r0, #1
10001182:	181b      	adds	r3, r3, r0
10001184:	3b03      	subs	r3, #3
10001186:	18cb      	adds	r3, r1, r3
10001188:	2100      	movs	r1, #0
1000118a:	7099      	strb	r1, [r3, #2]
1000118c:	e7c8      	b.n	10001120 <ph_remove_any_head+0x50>
1000118e:	9b01      	ldr	r3, [sp, #4]
10001190:	2b00      	cmp	r3, #0
10001192:	d1c5      	bne.n	10001120 <ph_remove_any_head+0x50>
10001194:	e7b9      	b.n	1000110a <ph_remove_any_head+0x3a>
10001196:	0050      	lsls	r0, r2, #1
10001198:	1880      	adds	r0, r0, r2
1000119a:	3803      	subs	r0, #3
1000119c:	1809      	adds	r1, r1, r0
1000119e:	7848      	ldrb	r0, [r1, #1]
100011a0:	4683      	mov	fp, r0
100011a2:	4648      	mov	r0, r9
100011a4:	7048      	strb	r0, [r1, #1]
100011a6:	7058      	strb	r0, [r3, #1]
100011a8:	4641      	mov	r1, r8
100011aa:	0020      	movs	r0, r4
100011ac:	f7ff fee2 	bl	10000f74 <ph_merge_nodes>
100011b0:	4659      	mov	r1, fp
100011b2:	4680      	mov	r8, r0
100011b4:	0020      	movs	r0, r4
100011b6:	f7ff ff43 	bl	10001040 <ph_merge_two_pass>
100011ba:	4641      	mov	r1, r8
100011bc:	0002      	movs	r2, r0
100011be:	0020      	movs	r0, r4
100011c0:	f7ff fed8 	bl	10000f74 <ph_merge_nodes>
100011c4:	4680      	mov	r8, r0
100011c6:	e7cf      	b.n	10001168 <ph_remove_any_head+0x98>

100011c8 <ph_remove_head_reserve>:
100011c8:	b5f0      	push	{r4, r5, r6, r7, lr}
100011ca:	464e      	mov	r6, r9
100011cc:	4645      	mov	r5, r8
100011ce:	46de      	mov	lr, fp
100011d0:	4657      	mov	r7, sl
100011d2:	b5e0      	push	{r5, r6, r7, lr}
100011d4:	7b46      	ldrb	r6, [r0, #13]
100011d6:	0004      	movs	r4, r0
100011d8:	0075      	lsls	r5, r6, #1
100011da:	6800      	ldr	r0, [r0, #0]
100011dc:	19ad      	adds	r5, r5, r6
100011de:	3d03      	subs	r5, #3
100011e0:	b083      	sub	sp, #12
100011e2:	9101      	str	r1, [sp, #4]
100011e4:	5d41      	ldrb	r1, [r0, r5]
100011e6:	1942      	adds	r2, r0, r5
100011e8:	2900      	cmp	r1, #0
100011ea:	d04e      	beq.n	1000128a <ph_remove_head_reserve+0xc2>
100011ec:	004b      	lsls	r3, r1, #1
100011ee:	185b      	adds	r3, r3, r1
100011f0:	3b03      	subs	r3, #3
100011f2:	18c3      	adds	r3, r0, r3
100011f4:	785f      	ldrb	r7, [r3, #1]
100011f6:	46bc      	mov	ip, r7
100011f8:	2f00      	cmp	r7, #0
100011fa:	d118      	bne.n	1000122e <ph_remove_head_reserve+0x66>
100011fc:	9d01      	ldr	r5, [sp, #4]
100011fe:	2d00      	cmp	r5, #0
10001200:	d140      	bne.n	10001284 <ph_remove_head_reserve+0xbc>
10001202:	7be5      	ldrb	r5, [r4, #15]
10001204:	2d00      	cmp	r5, #0
10001206:	d004      	beq.n	10001212 <ph_remove_head_reserve+0x4a>
10001208:	006b      	lsls	r3, r5, #1
1000120a:	195b      	adds	r3, r3, r5
1000120c:	18c3      	adds	r3, r0, r3
1000120e:	3b03      	subs	r3, #3
10001210:	705e      	strb	r6, [r3, #1]
10001212:	73e6      	strb	r6, [r4, #15]
10001214:	2900      	cmp	r1, #0
10001216:	d131      	bne.n	1000127c <ph_remove_head_reserve+0xb4>
10001218:	2300      	movs	r3, #0
1000121a:	0030      	movs	r0, r6
1000121c:	7053      	strb	r3, [r2, #1]
1000121e:	7361      	strb	r1, [r4, #13]
10001220:	b003      	add	sp, #12
10001222:	bc3c      	pop	{r2, r3, r4, r5}
10001224:	4690      	mov	r8, r2
10001226:	4699      	mov	r9, r3
10001228:	46a2      	mov	sl, r4
1000122a:	46ab      	mov	fp, r5
1000122c:	bdf0      	pop	{r4, r5, r6, r7, pc}
1000122e:	007a      	lsls	r2, r7, #1
10001230:	4462      	add	r2, ip
10001232:	3a03      	subs	r2, #3
10001234:	1880      	adds	r0, r0, r2
10001236:	7842      	ldrb	r2, [r0, #1]
10001238:	4693      	mov	fp, r2
1000123a:	2200      	movs	r2, #0
1000123c:	7042      	strb	r2, [r0, #1]
1000123e:	4691      	mov	r9, r2
10001240:	705a      	strb	r2, [r3, #1]
10001242:	0020      	movs	r0, r4
10001244:	003a      	movs	r2, r7
10001246:	f7ff fe95 	bl	10000f74 <ph_merge_nodes>
1000124a:	465b      	mov	r3, fp
1000124c:	4680      	mov	r8, r0
1000124e:	2b00      	cmp	r3, #0
10001250:	d007      	beq.n	10001262 <ph_remove_head_reserve+0x9a>
10001252:	005b      	lsls	r3, r3, #1
10001254:	6821      	ldr	r1, [r4, #0]
10001256:	445b      	add	r3, fp
10001258:	3b03      	subs	r3, #3
1000125a:	18cb      	adds	r3, r1, r3
1000125c:	785a      	ldrb	r2, [r3, #1]
1000125e:	2a00      	cmp	r2, #0
10001260:	d117      	bne.n	10001292 <ph_remove_head_reserve+0xca>
10001262:	465a      	mov	r2, fp
10001264:	4641      	mov	r1, r8
10001266:	0020      	movs	r0, r4
10001268:	f7ff fe84 	bl	10000f74 <ph_merge_nodes>
1000126c:	9b01      	ldr	r3, [sp, #4]
1000126e:	0001      	movs	r1, r0
10001270:	6820      	ldr	r0, [r4, #0]
10001272:	1942      	adds	r2, r0, r5
10001274:	2b00      	cmp	r3, #0
10001276:	d0c4      	beq.n	10001202 <ph_remove_head_reserve+0x3a>
10001278:	2900      	cmp	r1, #0
1000127a:	d0cd      	beq.n	10001218 <ph_remove_head_reserve+0x50>
1000127c:	004b      	lsls	r3, r1, #1
1000127e:	185b      	adds	r3, r3, r1
10001280:	3b03      	subs	r3, #3
10001282:	18c3      	adds	r3, r0, r3
10001284:	2000      	movs	r0, #0
10001286:	7098      	strb	r0, [r3, #2]
10001288:	e7c6      	b.n	10001218 <ph_remove_head_reserve+0x50>
1000128a:	9b01      	ldr	r3, [sp, #4]
1000128c:	2b00      	cmp	r3, #0
1000128e:	d1c3      	bne.n	10001218 <ph_remove_head_reserve+0x50>
10001290:	e7b7      	b.n	10001202 <ph_remove_head_reserve+0x3a>
10001292:	0050      	lsls	r0, r2, #1
10001294:	1880      	adds	r0, r0, r2
10001296:	3803      	subs	r0, #3
10001298:	1809      	adds	r1, r1, r0
1000129a:	7848      	ldrb	r0, [r1, #1]
1000129c:	4682      	mov	sl, r0
1000129e:	4648      	mov	r0, r9
100012a0:	7048      	strb	r0, [r1, #1]
100012a2:	7058      	strb	r0, [r3, #1]
100012a4:	4659      	mov	r1, fp
100012a6:	0020      	movs	r0, r4
100012a8:	f7ff fe64 	bl	10000f74 <ph_merge_nodes>
100012ac:	4653      	mov	r3, sl
100012ae:	4683      	mov	fp, r0
100012b0:	2b00      	cmp	r3, #0
100012b2:	d007      	beq.n	100012c4 <ph_remove_head_reserve+0xfc>
100012b4:	005b      	lsls	r3, r3, #1
100012b6:	6821      	ldr	r1, [r4, #0]
100012b8:	4453      	add	r3, sl
100012ba:	3b03      	subs	r3, #3
100012bc:	18cb      	adds	r3, r1, r3
100012be:	785a      	ldrb	r2, [r3, #1]
100012c0:	2a00      	cmp	r2, #0
100012c2:	d106      	bne.n	100012d2 <ph_remove_head_reserve+0x10a>
100012c4:	4659      	mov	r1, fp
100012c6:	4652      	mov	r2, sl
100012c8:	0020      	movs	r0, r4
100012ca:	f7ff fe53 	bl	10000f74 <ph_merge_nodes>
100012ce:	4683      	mov	fp, r0
100012d0:	e7c7      	b.n	10001262 <ph_remove_head_reserve+0x9a>
100012d2:	0050      	lsls	r0, r2, #1
100012d4:	1880      	adds	r0, r0, r2
100012d6:	3803      	subs	r0, #3
100012d8:	1809      	adds	r1, r1, r0
100012da:	4648      	mov	r0, r9
100012dc:	784f      	ldrb	r7, [r1, #1]
100012de:	7048      	strb	r0, [r1, #1]
100012e0:	7058      	strb	r0, [r3, #1]
100012e2:	4651      	mov	r1, sl
100012e4:	0020      	movs	r0, r4
100012e6:	f7ff fe45 	bl	10000f74 <ph_merge_nodes>
100012ea:	0039      	movs	r1, r7
100012ec:	4681      	mov	r9, r0
100012ee:	0020      	movs	r0, r4
100012f0:	f7ff fea6 	bl	10001040 <ph_merge_two_pass>
100012f4:	4649      	mov	r1, r9
100012f6:	0002      	movs	r2, r0
100012f8:	0020      	movs	r0, r4
100012fa:	f7ff fe3b 	bl	10000f74 <ph_merge_nodes>
100012fe:	4682      	mov	sl, r0
10001300:	e7e0      	b.n	100012c4 <ph_remove_head_reserve+0xfc>
10001302:	46c0      	nop			; (mov r8, r8)

10001304 <ph_delete>:
10001304:	b570      	push	{r4, r5, r6, lr}
10001306:	0004      	movs	r4, r0
10001308:	2900      	cmp	r1, #0
1000130a:	d02c      	beq.n	10001366 <ph_delete+0x62>
1000130c:	7b43      	ldrb	r3, [r0, #13]
1000130e:	428b      	cmp	r3, r1
10001310:	d02e      	beq.n	10001370 <ph_delete+0x6c>
10001312:	6805      	ldr	r5, [r0, #0]
10001314:	0048      	lsls	r0, r1, #1
10001316:	1840      	adds	r0, r0, r1
10001318:	3803      	subs	r0, #3
1000131a:	1828      	adds	r0, r5, r0
1000131c:	7882      	ldrb	r2, [r0, #2]
1000131e:	2a00      	cmp	r2, #0
10001320:	d021      	beq.n	10001366 <ph_delete+0x62>
10001322:	0053      	lsls	r3, r2, #1
10001324:	189b      	adds	r3, r3, r2
10001326:	3b03      	subs	r3, #3
10001328:	5cea      	ldrb	r2, [r5, r3]
1000132a:	18ee      	adds	r6, r5, r3
1000132c:	428a      	cmp	r2, r1
1000132e:	d102      	bne.n	10001336 <ph_delete+0x32>
10001330:	e01b      	b.n	1000136a <ph_delete+0x66>
10001332:	2a00      	cmp	r2, #0
10001334:	d008      	beq.n	10001348 <ph_delete+0x44>
10001336:	0053      	lsls	r3, r2, #1
10001338:	189b      	adds	r3, r3, r2
1000133a:	3b03      	subs	r3, #3
1000133c:	18eb      	adds	r3, r5, r3
1000133e:	785a      	ldrb	r2, [r3, #1]
10001340:	428a      	cmp	r2, r1
10001342:	d1f6      	bne.n	10001332 <ph_delete+0x2e>
10001344:	7842      	ldrb	r2, [r0, #1]
10001346:	705a      	strb	r2, [r3, #1]
10001348:	2300      	movs	r3, #0
1000134a:	2200      	movs	r2, #0
1000134c:	7083      	strb	r3, [r0, #2]
1000134e:	7043      	strb	r3, [r0, #1]
10001350:	0020      	movs	r0, r4
10001352:	f7ff febd 	bl	100010d0 <ph_remove_any_head>
10001356:	7b61      	ldrb	r1, [r4, #13]
10001358:	0002      	movs	r2, r0
1000135a:	0020      	movs	r0, r4
1000135c:	f7ff fe0a 	bl	10000f74 <ph_merge_nodes>
10001360:	7360      	strb	r0, [r4, #13]
10001362:	2001      	movs	r0, #1
10001364:	e000      	b.n	10001368 <ph_delete+0x64>
10001366:	2000      	movs	r0, #0
10001368:	bd70      	pop	{r4, r5, r6, pc}
1000136a:	7843      	ldrb	r3, [r0, #1]
1000136c:	7033      	strb	r3, [r6, #0]
1000136e:	e7eb      	b.n	10001348 <ph_delete+0x44>
10001370:	2200      	movs	r2, #0
10001372:	0019      	movs	r1, r3
10001374:	f7ff feac 	bl	100010d0 <ph_remove_any_head>
10001378:	7360      	strb	r0, [r4, #13]
1000137a:	2001      	movs	r0, #1
1000137c:	e7f4      	b.n	10001368 <ph_delete+0x64>
1000137e:	46c0      	nop			; (mov r8, r8)

10001380 <runtime_init>:
10001380:	4b2b      	ldr	r3, [pc, #172]	; (10001430 <runtime_init+0xb0>)
10001382:	4a2c      	ldr	r2, [pc, #176]	; (10001434 <runtime_init+0xb4>)
10001384:	b570      	push	{r4, r5, r6, lr}
10001386:	601a      	str	r2, [r3, #0]
10001388:	4a2b      	ldr	r2, [pc, #172]	; (10001438 <runtime_init+0xb8>)
1000138a:	4b2c      	ldr	r3, [pc, #176]	; (1000143c <runtime_init+0xbc>)
1000138c:	492c      	ldr	r1, [pc, #176]	; (10001440 <runtime_init+0xc0>)
1000138e:	601a      	str	r2, [r3, #0]
10001390:	0010      	movs	r0, r2
10001392:	688b      	ldr	r3, [r1, #8]
10001394:	4398      	bics	r0, r3
10001396:	d1fb      	bne.n	10001390 <runtime_init+0x10>
10001398:	4c2a      	ldr	r4, [pc, #168]	; (10001444 <runtime_init+0xc4>)
1000139a:	4b2b      	ldr	r3, [pc, #172]	; (10001448 <runtime_init+0xc8>)
1000139c:	429c      	cmp	r4, r3
1000139e:	d209      	bcs.n	100013b4 <runtime_init+0x34>
100013a0:	3b01      	subs	r3, #1
100013a2:	1b1d      	subs	r5, r3, r4
100013a4:	08ad      	lsrs	r5, r5, #2
100013a6:	3501      	adds	r5, #1
100013a8:	00ad      	lsls	r5, r5, #2
100013aa:	192d      	adds	r5, r5, r4
100013ac:	cc08      	ldmia	r4!, {r3}
100013ae:	4798      	blx	r3
100013b0:	42ac      	cmp	r4, r5
100013b2:	d1fb      	bne.n	100013ac <runtime_init+0x2c>
100013b4:	f000 f894 	bl	100014e0 <clocks_init>
100013b8:	4a24      	ldr	r2, [pc, #144]	; (1000144c <runtime_init+0xcc>)
100013ba:	4b20      	ldr	r3, [pc, #128]	; (1000143c <runtime_init+0xbc>)
100013bc:	601a      	str	r2, [r3, #0]
100013be:	4a20      	ldr	r2, [pc, #128]	; (10001440 <runtime_init+0xc0>)
100013c0:	6893      	ldr	r3, [r2, #8]
100013c2:	01db      	lsls	r3, r3, #7
100013c4:	3380      	adds	r3, #128	; 0x80
100013c6:	d1fb      	bne.n	100013c0 <runtime_init+0x40>
100013c8:	2240      	movs	r2, #64	; 0x40
100013ca:	4b21      	ldr	r3, [pc, #132]	; (10001450 <runtime_init+0xd0>)
100013cc:	4c21      	ldr	r4, [pc, #132]	; (10001454 <runtime_init+0xd4>)
100013ce:	679a      	str	r2, [r3, #120]	; 0x78
100013d0:	675a      	str	r2, [r3, #116]	; 0x74
100013d2:	671a      	str	r2, [r3, #112]	; 0x70
100013d4:	66da      	str	r2, [r3, #108]	; 0x6c
100013d6:	4b20      	ldr	r3, [pc, #128]	; (10001458 <runtime_init+0xd8>)
100013d8:	429c      	cmp	r4, r3
100013da:	d20b      	bcs.n	100013f4 <runtime_init+0x74>
100013dc:	3b01      	subs	r3, #1
100013de:	1b1d      	subs	r5, r3, r4
100013e0:	08ed      	lsrs	r5, r5, #3
100013e2:	3501      	adds	r5, #1
100013e4:	00ed      	lsls	r5, r5, #3
100013e6:	192d      	adds	r5, r5, r4
100013e8:	0020      	movs	r0, r4
100013ea:	3408      	adds	r4, #8
100013ec:	f7ff fdaa 	bl	10000f44 <mutex_init>
100013f0:	42ac      	cmp	r4, r5
100013f2:	d1f9      	bne.n	100013e8 <runtime_init+0x68>
100013f4:	4c19      	ldr	r4, [pc, #100]	; (1000145c <runtime_init+0xdc>)
100013f6:	4d1a      	ldr	r5, [pc, #104]	; (10001460 <runtime_init+0xe0>)
100013f8:	68a1      	ldr	r1, [r4, #8]
100013fa:	22c0      	movs	r2, #192	; 0xc0
100013fc:	0028      	movs	r0, r5
100013fe:	f000 ff47 	bl	10002290 <__wrap___aeabi_memcpy>
10001402:	60a5      	str	r5, [r4, #8]
10001404:	f7ff f8f0 	bl	100005e8 <spin_locks_reset>
10001408:	f000 fbaa 	bl	10001b60 <irq_init_priorities>
1000140c:	f7ff fbc2 	bl	10000b94 <alarm_pool_init_default>
10001410:	4c14      	ldr	r4, [pc, #80]	; (10001464 <runtime_init+0xe4>)
10001412:	4b15      	ldr	r3, [pc, #84]	; (10001468 <runtime_init+0xe8>)
10001414:	429c      	cmp	r4, r3
10001416:	d209      	bcs.n	1000142c <runtime_init+0xac>
10001418:	3b01      	subs	r3, #1
1000141a:	1b1d      	subs	r5, r3, r4
1000141c:	08ad      	lsrs	r5, r5, #2
1000141e:	3501      	adds	r5, #1
10001420:	00ad      	lsls	r5, r5, #2
10001422:	192d      	adds	r5, r5, r4
10001424:	cc08      	ldmia	r4!, {r3}
10001426:	4798      	blx	r3
10001428:	42a5      	cmp	r5, r4
1000142a:	d1fb      	bne.n	10001424 <runtime_init+0xa4>
1000142c:	bd70      	pop	{r4, r5, r6, pc}
1000142e:	46c0      	nop			; (mov r8, r8)
10001430:	4000e000 	.word	0x4000e000
10001434:	ffffcdbf 	.word	0xffffcdbf
10001438:	003c7ffe 	.word	0x003c7ffe
1000143c:	4000f000 	.word	0x4000f000
10001440:	4000c000 	.word	0x4000c000
10001444:	20000b50 	.word	0x20000b50
10001448:	20000b60 	.word	0x20000b60
1000144c:	01ffffff 	.word	0x01ffffff
10001450:	4001f000 	.word	0x4001f000
10001454:	20000b48 	.word	0x20000b48
10001458:	20000b50 	.word	0x20000b50
1000145c:	e000ed00 	.word	0xe000ed00
10001460:	20000000 	.word	0x20000000
10001464:	20000b60 	.word	0x20000b60
10001468:	20000b64 	.word	0x20000b64

1000146c <_sbrk>:
1000146c:	4a09      	ldr	r2, [pc, #36]	; (10001494 <_sbrk+0x28>)
1000146e:	0003      	movs	r3, r0
10001470:	6810      	ldr	r0, [r2, #0]
10001472:	2800      	cmp	r0, #0
10001474:	d005      	beq.n	10001482 <_sbrk+0x16>
10001476:	4908      	ldr	r1, [pc, #32]	; (10001498 <_sbrk+0x2c>)
10001478:	18c3      	adds	r3, r0, r3
1000147a:	428b      	cmp	r3, r1
1000147c:	d207      	bcs.n	1000148e <_sbrk+0x22>
1000147e:	6013      	str	r3, [r2, #0]
10001480:	4770      	bx	lr
10001482:	4806      	ldr	r0, [pc, #24]	; (1000149c <_sbrk+0x30>)
10001484:	4904      	ldr	r1, [pc, #16]	; (10001498 <_sbrk+0x2c>)
10001486:	18c3      	adds	r3, r0, r3
10001488:	6010      	str	r0, [r2, #0]
1000148a:	428b      	cmp	r3, r1
1000148c:	d3f7      	bcc.n	1000147e <_sbrk+0x12>
1000148e:	2001      	movs	r0, #1
10001490:	4240      	negs	r0, r0
10001492:	e7f5      	b.n	10001480 <_sbrk+0x14>
10001494:	20000d68 	.word	0x20000d68
10001498:	20040000 	.word	0x20040000
1000149c:	20001710 	.word	0x20001710

100014a0 <exit>:
100014a0:	be00      	bkpt	0x0000
100014a2:	e7fd      	b.n	100014a0 <exit>

100014a4 <panic>:
100014a4:	b40f      	push	{r0, r1, r2, r3}
100014a6:	b500      	push	{lr}
100014a8:	4808      	ldr	r0, [pc, #32]	; (100014cc <panic+0x28>)
100014aa:	b083      	sub	sp, #12
100014ac:	f000 ffc6 	bl	1000243c <__wrap_puts>
100014b0:	9b04      	ldr	r3, [sp, #16]
100014b2:	2b00      	cmp	r3, #0
100014b4:	d007      	beq.n	100014c6 <panic+0x22>
100014b6:	a905      	add	r1, sp, #20
100014b8:	0018      	movs	r0, r3
100014ba:	9101      	str	r1, [sp, #4]
100014bc:	f000 fb74 	bl	10001ba8 <weak_raw_vprintf>
100014c0:	4803      	ldr	r0, [pc, #12]	; (100014d0 <panic+0x2c>)
100014c2:	f000 ffbb 	bl	1000243c <__wrap_puts>
100014c6:	be00      	bkpt	0x0000
100014c8:	e7fd      	b.n	100014c6 <panic+0x22>
100014ca:	46c0      	nop			; (mov r8, r8)
100014cc:	100048ac 	.word	0x100048ac
100014d0:	100048bc 	.word	0x100048bc

100014d4 <hard_assertion_failure>:
100014d4:	b510      	push	{r4, lr}
100014d6:	4801      	ldr	r0, [pc, #4]	; (100014dc <hard_assertion_failure+0x8>)
100014d8:	f7ff ffe4 	bl	100014a4 <panic>
100014dc:	100048c0 	.word	0x100048c0

100014e0 <clocks_init>:
100014e0:	b530      	push	{r4, r5, lr}
100014e2:	200c      	movs	r0, #12
100014e4:	b083      	sub	sp, #12
100014e6:	f000 f971 	bl	100017cc <watchdog_start_tick>
100014ea:	f7ff f8a7 	bl	1000063c <running_on_fpga>
100014ee:	2800      	cmp	r0, #0
100014f0:	d00e      	beq.n	10001510 <clocks_init+0x30>
100014f2:	4b9a      	ldr	r3, [pc, #616]	; (1000175c <clocks_init+0x27c>)
100014f4:	4a9a      	ldr	r2, [pc, #616]	; (10001760 <clocks_init+0x280>)
100014f6:	601a      	str	r2, [r3, #0]
100014f8:	605a      	str	r2, [r3, #4]
100014fa:	609a      	str	r2, [r3, #8]
100014fc:	60da      	str	r2, [r3, #12]
100014fe:	611a      	str	r2, [r3, #16]
10001500:	615a      	str	r2, [r3, #20]
10001502:	619a      	str	r2, [r3, #24]
10001504:	61da      	str	r2, [r3, #28]
10001506:	621a      	str	r2, [r3, #32]
10001508:	4a96      	ldr	r2, [pc, #600]	; (10001764 <clocks_init+0x284>)
1000150a:	625a      	str	r2, [r3, #36]	; 0x24
1000150c:	b003      	add	sp, #12
1000150e:	bd30      	pop	{r4, r5, pc}
10001510:	4c95      	ldr	r4, [pc, #596]	; (10001768 <clocks_init+0x288>)
10001512:	67a0      	str	r0, [r4, #120]	; 0x78
10001514:	f000 f962 	bl	100017dc <xosc_init>
10001518:	2201      	movs	r2, #1
1000151a:	4b94      	ldr	r3, [pc, #592]	; (1000176c <clocks_init+0x28c>)
1000151c:	601a      	str	r2, [r3, #0]
1000151e:	6c63      	ldr	r3, [r4, #68]	; 0x44
10001520:	2b01      	cmp	r3, #1
10001522:	d1fc      	bne.n	1000151e <clocks_init+0x3e>
10001524:	2203      	movs	r2, #3
10001526:	4b92      	ldr	r3, [pc, #584]	; (10001770 <clocks_init+0x290>)
10001528:	601a      	str	r2, [r3, #0]
1000152a:	4a8f      	ldr	r2, [pc, #572]	; (10001768 <clocks_init+0x288>)
1000152c:	6b93      	ldr	r3, [r2, #56]	; 0x38
1000152e:	2b01      	cmp	r3, #1
10001530:	d1fc      	bne.n	1000152c <clocks_init+0x4c>
10001532:	22c0      	movs	r2, #192	; 0xc0
10001534:	4b8f      	ldr	r3, [pc, #572]	; (10001774 <clocks_init+0x294>)
10001536:	0192      	lsls	r2, r2, #6
10001538:	601a      	str	r2, [r3, #0]
1000153a:	4b8f      	ldr	r3, [pc, #572]	; (10001778 <clocks_init+0x298>)
1000153c:	498f      	ldr	r1, [pc, #572]	; (1000177c <clocks_init+0x29c>)
1000153e:	601a      	str	r2, [r3, #0]
10001540:	0010      	movs	r0, r2
10001542:	688b      	ldr	r3, [r1, #8]
10001544:	4398      	bics	r0, r3
10001546:	1e03      	subs	r3, r0, #0
10001548:	d1fa      	bne.n	10001540 <clocks_init+0x60>
1000154a:	2402      	movs	r4, #2
1000154c:	2101      	movs	r1, #1
1000154e:	4a8c      	ldr	r2, [pc, #560]	; (10001780 <clocks_init+0x2a0>)
10001550:	488c      	ldr	r0, [pc, #560]	; (10001784 <clocks_init+0x2a4>)
10001552:	3306      	adds	r3, #6
10001554:	9400      	str	r4, [sp, #0]
10001556:	f000 f955 	bl	10001804 <pll_init>
1000155a:	2305      	movs	r3, #5
1000155c:	4a8a      	ldr	r2, [pc, #552]	; (10001788 <clocks_init+0x2a8>)
1000155e:	2101      	movs	r1, #1
10001560:	488a      	ldr	r0, [pc, #552]	; (1000178c <clocks_init+0x2ac>)
10001562:	9400      	str	r4, [sp, #0]
10001564:	f000 f94e 	bl	10001804 <pll_init>
10001568:	4b89      	ldr	r3, [pc, #548]	; (10001790 <clocks_init+0x2b0>)
1000156a:	685a      	ldr	r2, [r3, #4]
1000156c:	2aff      	cmp	r2, #255	; 0xff
1000156e:	d802      	bhi.n	10001576 <clocks_init+0x96>
10001570:	2280      	movs	r2, #128	; 0x80
10001572:	0052      	lsls	r2, r2, #1
10001574:	605a      	str	r2, [r3, #4]
10001576:	2280      	movs	r2, #128	; 0x80
10001578:	4c78      	ldr	r4, [pc, #480]	; (1000175c <clocks_init+0x27c>)
1000157a:	4b7d      	ldr	r3, [pc, #500]	; (10001770 <clocks_init+0x290>)
1000157c:	6921      	ldr	r1, [r4, #16]
1000157e:	0112      	lsls	r2, r2, #4
10001580:	4d83      	ldr	r5, [pc, #524]	; (10001790 <clocks_init+0x2b0>)
10001582:	601a      	str	r2, [r3, #0]
10001584:	2900      	cmp	r1, #0
10001586:	d005      	beq.n	10001594 <clocks_init+0xb4>
10001588:	6960      	ldr	r0, [r4, #20]
1000158a:	f000 fb5b 	bl	10001c44 <__wrap___aeabi_uidiv>
1000158e:	3001      	adds	r0, #1
10001590:	3801      	subs	r0, #1
10001592:	d1fd      	bne.n	10001590 <clocks_init+0xb0>
10001594:	21e0      	movs	r1, #224	; 0xe0
10001596:	4b7e      	ldr	r3, [pc, #504]	; (10001790 <clocks_init+0x2b0>)
10001598:	2002      	movs	r0, #2
1000159a:	681a      	ldr	r2, [r3, #0]
1000159c:	4011      	ands	r1, r2
1000159e:	2280      	movs	r2, #128	; 0x80
100015a0:	0152      	lsls	r2, r2, #5
100015a2:	432a      	orrs	r2, r5
100015a4:	6011      	str	r1, [r2, #0]
100015a6:	6819      	ldr	r1, [r3, #0]
100015a8:	4048      	eors	r0, r1
100015aa:	2103      	movs	r1, #3
100015ac:	4001      	ands	r1, r0
100015ae:	6011      	str	r1, [r2, #0]
100015b0:	2104      	movs	r1, #4
100015b2:	689a      	ldr	r2, [r3, #8]
100015b4:	4211      	tst	r1, r2
100015b6:	d0fc      	beq.n	100015b2 <clocks_init+0xd2>
100015b8:	2280      	movs	r2, #128	; 0x80
100015ba:	2180      	movs	r1, #128	; 0x80
100015bc:	0192      	lsls	r2, r2, #6
100015be:	432a      	orrs	r2, r5
100015c0:	0109      	lsls	r1, r1, #4
100015c2:	6011      	str	r1, [r2, #0]
100015c4:	2280      	movs	r2, #128	; 0x80
100015c6:	0052      	lsls	r2, r2, #1
100015c8:	605a      	str	r2, [r3, #4]
100015ca:	4b72      	ldr	r3, [pc, #456]	; (10001794 <clocks_init+0x2b4>)
100015cc:	6123      	str	r3, [r4, #16]
100015ce:	4b72      	ldr	r3, [pc, #456]	; (10001798 <clocks_init+0x2b8>)
100015d0:	6859      	ldr	r1, [r3, #4]
100015d2:	29ff      	cmp	r1, #255	; 0xff
100015d4:	d800      	bhi.n	100015d8 <clocks_init+0xf8>
100015d6:	605a      	str	r2, [r3, #4]
100015d8:	2203      	movs	r2, #3
100015da:	486f      	ldr	r0, [pc, #444]	; (10001798 <clocks_init+0x2b8>)
100015dc:	4b63      	ldr	r3, [pc, #396]	; (1000176c <clocks_init+0x28c>)
100015de:	2101      	movs	r1, #1
100015e0:	601a      	str	r2, [r3, #0]
100015e2:	0002      	movs	r2, r0
100015e4:	6893      	ldr	r3, [r2, #8]
100015e6:	4219      	tst	r1, r3
100015e8:	d0fc      	beq.n	100015e4 <clocks_init+0x104>
100015ea:	25e0      	movs	r5, #224	; 0xe0
100015ec:	6813      	ldr	r3, [r2, #0]
100015ee:	401d      	ands	r5, r3
100015f0:	2380      	movs	r3, #128	; 0x80
100015f2:	015b      	lsls	r3, r3, #5
100015f4:	4303      	orrs	r3, r0
100015f6:	601d      	str	r5, [r3, #0]
100015f8:	6812      	ldr	r2, [r2, #0]
100015fa:	404a      	eors	r2, r1
100015fc:	2103      	movs	r1, #3
100015fe:	4011      	ands	r1, r2
10001600:	6019      	str	r1, [r3, #0]
10001602:	2102      	movs	r1, #2
10001604:	4a64      	ldr	r2, [pc, #400]	; (10001798 <clocks_init+0x2b8>)
10001606:	6893      	ldr	r3, [r2, #8]
10001608:	4219      	tst	r1, r3
1000160a:	d0fc      	beq.n	10001606 <clocks_init+0x126>
1000160c:	2380      	movs	r3, #128	; 0x80
1000160e:	2180      	movs	r1, #128	; 0x80
10001610:	019b      	lsls	r3, r3, #6
10001612:	4303      	orrs	r3, r0
10001614:	0109      	lsls	r1, r1, #4
10001616:	6019      	str	r1, [r3, #0]
10001618:	2180      	movs	r1, #128	; 0x80
1000161a:	4b60      	ldr	r3, [pc, #384]	; (1000179c <clocks_init+0x2bc>)
1000161c:	0049      	lsls	r1, r1, #1
1000161e:	6051      	str	r1, [r2, #4]
10001620:	6163      	str	r3, [r4, #20]
10001622:	4b5f      	ldr	r3, [pc, #380]	; (100017a0 <clocks_init+0x2c0>)
10001624:	685a      	ldr	r2, [r3, #4]
10001626:	2aff      	cmp	r2, #255	; 0xff
10001628:	d800      	bhi.n	1000162c <clocks_init+0x14c>
1000162a:	6059      	str	r1, [r3, #4]
1000162c:	2280      	movs	r2, #128	; 0x80
1000162e:	4b5d      	ldr	r3, [pc, #372]	; (100017a4 <clocks_init+0x2c4>)
10001630:	69e1      	ldr	r1, [r4, #28]
10001632:	0112      	lsls	r2, r2, #4
10001634:	4d5a      	ldr	r5, [pc, #360]	; (100017a0 <clocks_init+0x2c0>)
10001636:	601a      	str	r2, [r3, #0]
10001638:	2900      	cmp	r1, #0
1000163a:	d005      	beq.n	10001648 <clocks_init+0x168>
1000163c:	6960      	ldr	r0, [r4, #20]
1000163e:	f000 fb01 	bl	10001c44 <__wrap___aeabi_uidiv>
10001642:	3001      	adds	r0, #1
10001644:	3801      	subs	r0, #1
10001646:	d1fd      	bne.n	10001644 <clocks_init+0x164>
10001648:	22e0      	movs	r2, #224	; 0xe0
1000164a:	4955      	ldr	r1, [pc, #340]	; (100017a0 <clocks_init+0x2c0>)
1000164c:	680b      	ldr	r3, [r1, #0]
1000164e:	401a      	ands	r2, r3
10001650:	2380      	movs	r3, #128	; 0x80
10001652:	015b      	lsls	r3, r3, #5
10001654:	432b      	orrs	r3, r5
10001656:	601a      	str	r2, [r3, #0]
10001658:	2380      	movs	r3, #128	; 0x80
1000165a:	2280      	movs	r2, #128	; 0x80
1000165c:	019b      	lsls	r3, r3, #6
1000165e:	432b      	orrs	r3, r5
10001660:	0112      	lsls	r2, r2, #4
10001662:	601a      	str	r2, [r3, #0]
10001664:	2280      	movs	r2, #128	; 0x80
10001666:	4b3e      	ldr	r3, [pc, #248]	; (10001760 <clocks_init+0x280>)
10001668:	0052      	lsls	r2, r2, #1
1000166a:	604a      	str	r2, [r1, #4]
1000166c:	61e3      	str	r3, [r4, #28]
1000166e:	4b4e      	ldr	r3, [pc, #312]	; (100017a8 <clocks_init+0x2c8>)
10001670:	6859      	ldr	r1, [r3, #4]
10001672:	29ff      	cmp	r1, #255	; 0xff
10001674:	d800      	bhi.n	10001678 <clocks_init+0x198>
10001676:	605a      	str	r2, [r3, #4]
10001678:	2280      	movs	r2, #128	; 0x80
1000167a:	4b4c      	ldr	r3, [pc, #304]	; (100017ac <clocks_init+0x2cc>)
1000167c:	6a21      	ldr	r1, [r4, #32]
1000167e:	0112      	lsls	r2, r2, #4
10001680:	4d49      	ldr	r5, [pc, #292]	; (100017a8 <clocks_init+0x2c8>)
10001682:	601a      	str	r2, [r3, #0]
10001684:	2900      	cmp	r1, #0
10001686:	d005      	beq.n	10001694 <clocks_init+0x1b4>
10001688:	6960      	ldr	r0, [r4, #20]
1000168a:	f000 fadb 	bl	10001c44 <__wrap___aeabi_uidiv>
1000168e:	3001      	adds	r0, #1
10001690:	3801      	subs	r0, #1
10001692:	d1fd      	bne.n	10001690 <clocks_init+0x1b0>
10001694:	22e0      	movs	r2, #224	; 0xe0
10001696:	4944      	ldr	r1, [pc, #272]	; (100017a8 <clocks_init+0x2c8>)
10001698:	680b      	ldr	r3, [r1, #0]
1000169a:	401a      	ands	r2, r3
1000169c:	2380      	movs	r3, #128	; 0x80
1000169e:	015b      	lsls	r3, r3, #5
100016a0:	432b      	orrs	r3, r5
100016a2:	601a      	str	r2, [r3, #0]
100016a4:	2380      	movs	r3, #128	; 0x80
100016a6:	2280      	movs	r2, #128	; 0x80
100016a8:	019b      	lsls	r3, r3, #6
100016aa:	432b      	orrs	r3, r5
100016ac:	0112      	lsls	r2, r2, #4
100016ae:	601a      	str	r2, [r3, #0]
100016b0:	2380      	movs	r3, #128	; 0x80
100016b2:	2280      	movs	r2, #128	; 0x80
100016b4:	005b      	lsls	r3, r3, #1
100016b6:	604b      	str	r3, [r1, #4]
100016b8:	4b29      	ldr	r3, [pc, #164]	; (10001760 <clocks_init+0x280>)
100016ba:	02d2      	lsls	r2, r2, #11
100016bc:	6223      	str	r3, [r4, #32]
100016be:	4b3c      	ldr	r3, [pc, #240]	; (100017b0 <clocks_init+0x2d0>)
100016c0:	6859      	ldr	r1, [r3, #4]
100016c2:	4291      	cmp	r1, r2
100016c4:	d200      	bcs.n	100016c8 <clocks_init+0x1e8>
100016c6:	605a      	str	r2, [r3, #4]
100016c8:	2280      	movs	r2, #128	; 0x80
100016ca:	4b3a      	ldr	r3, [pc, #232]	; (100017b4 <clocks_init+0x2d4>)
100016cc:	6a61      	ldr	r1, [r4, #36]	; 0x24
100016ce:	0112      	lsls	r2, r2, #4
100016d0:	4d37      	ldr	r5, [pc, #220]	; (100017b0 <clocks_init+0x2d0>)
100016d2:	601a      	str	r2, [r3, #0]
100016d4:	2900      	cmp	r1, #0
100016d6:	d005      	beq.n	100016e4 <clocks_init+0x204>
100016d8:	6960      	ldr	r0, [r4, #20]
100016da:	f000 fab3 	bl	10001c44 <__wrap___aeabi_uidiv>
100016de:	3001      	adds	r0, #1
100016e0:	3801      	subs	r0, #1
100016e2:	d1fd      	bne.n	100016e0 <clocks_init+0x200>
100016e4:	22e0      	movs	r2, #224	; 0xe0
100016e6:	4932      	ldr	r1, [pc, #200]	; (100017b0 <clocks_init+0x2d0>)
100016e8:	680b      	ldr	r3, [r1, #0]
100016ea:	401a      	ands	r2, r3
100016ec:	2380      	movs	r3, #128	; 0x80
100016ee:	015b      	lsls	r3, r3, #5
100016f0:	432b      	orrs	r3, r5
100016f2:	601a      	str	r2, [r3, #0]
100016f4:	2380      	movs	r3, #128	; 0x80
100016f6:	2280      	movs	r2, #128	; 0x80
100016f8:	019b      	lsls	r3, r3, #6
100016fa:	432b      	orrs	r3, r5
100016fc:	0112      	lsls	r2, r2, #4
100016fe:	601a      	str	r2, [r3, #0]
10001700:	2380      	movs	r3, #128	; 0x80
10001702:	02db      	lsls	r3, r3, #11
10001704:	604b      	str	r3, [r1, #4]
10001706:	4b17      	ldr	r3, [pc, #92]	; (10001764 <clocks_init+0x284>)
10001708:	6263      	str	r3, [r4, #36]	; 0x24
1000170a:	4b2b      	ldr	r3, [pc, #172]	; (100017b8 <clocks_init+0x2d8>)
1000170c:	685a      	ldr	r2, [r3, #4]
1000170e:	2aff      	cmp	r2, #255	; 0xff
10001710:	d802      	bhi.n	10001718 <clocks_init+0x238>
10001712:	2280      	movs	r2, #128	; 0x80
10001714:	0052      	lsls	r2, r2, #1
10001716:	605a      	str	r2, [r3, #4]
10001718:	2280      	movs	r2, #128	; 0x80
1000171a:	4b28      	ldr	r3, [pc, #160]	; (100017bc <clocks_init+0x2dc>)
1000171c:	69a1      	ldr	r1, [r4, #24]
1000171e:	0112      	lsls	r2, r2, #4
10001720:	4d25      	ldr	r5, [pc, #148]	; (100017b8 <clocks_init+0x2d8>)
10001722:	601a      	str	r2, [r3, #0]
10001724:	2900      	cmp	r1, #0
10001726:	d005      	beq.n	10001734 <clocks_init+0x254>
10001728:	6960      	ldr	r0, [r4, #20]
1000172a:	f000 fa8b 	bl	10001c44 <__wrap___aeabi_uidiv>
1000172e:	3001      	adds	r0, #1
10001730:	3801      	subs	r0, #1
10001732:	d1fd      	bne.n	10001730 <clocks_init+0x250>
10001734:	22e0      	movs	r2, #224	; 0xe0
10001736:	4920      	ldr	r1, [pc, #128]	; (100017b8 <clocks_init+0x2d8>)
10001738:	680b      	ldr	r3, [r1, #0]
1000173a:	401a      	ands	r2, r3
1000173c:	2380      	movs	r3, #128	; 0x80
1000173e:	015b      	lsls	r3, r3, #5
10001740:	432b      	orrs	r3, r5
10001742:	601a      	str	r2, [r3, #0]
10001744:	2380      	movs	r3, #128	; 0x80
10001746:	2280      	movs	r2, #128	; 0x80
10001748:	019b      	lsls	r3, r3, #6
1000174a:	432b      	orrs	r3, r5
1000174c:	0112      	lsls	r2, r2, #4
1000174e:	601a      	str	r2, [r3, #0]
10001750:	2380      	movs	r3, #128	; 0x80
10001752:	005b      	lsls	r3, r3, #1
10001754:	604b      	str	r3, [r1, #4]
10001756:	4b11      	ldr	r3, [pc, #68]	; (1000179c <clocks_init+0x2bc>)
10001758:	61a3      	str	r3, [r4, #24]
1000175a:	e6d7      	b.n	1000150c <clocks_init+0x2c>
1000175c:	20000d34 	.word	0x20000d34
10001760:	02dc6c00 	.word	0x02dc6c00
10001764:	0000b71b 	.word	0x0000b71b
10001768:	40008000 	.word	0x40008000
1000176c:	4000b03c 	.word	0x4000b03c
10001770:	4000b030 	.word	0x4000b030
10001774:	4000e000 	.word	0x4000e000
10001778:	4000f000 	.word	0x4000f000
1000177c:	4000c000 	.word	0x4000c000
10001780:	59682f00 	.word	0x59682f00
10001784:	40028000 	.word	0x40028000
10001788:	1c9c3800 	.word	0x1c9c3800
1000178c:	4002c000 	.word	0x4002c000
10001790:	40008030 	.word	0x40008030
10001794:	00b71b00 	.word	0x00b71b00
10001798:	4000803c 	.word	0x4000803c
1000179c:	07735940 	.word	0x07735940
100017a0:	40008054 	.word	0x40008054
100017a4:	4000b054 	.word	0x4000b054
100017a8:	40008060 	.word	0x40008060
100017ac:	4000b060 	.word	0x4000b060
100017b0:	4000806c 	.word	0x4000806c
100017b4:	4000b06c 	.word	0x4000b06c
100017b8:	40008048 	.word	0x40008048
100017bc:	4000b048 	.word	0x4000b048

100017c0 <clock_get_hz>:
100017c0:	4b01      	ldr	r3, [pc, #4]	; (100017c8 <clock_get_hz+0x8>)
100017c2:	0080      	lsls	r0, r0, #2
100017c4:	58c0      	ldr	r0, [r0, r3]
100017c6:	4770      	bx	lr
100017c8:	20000d34 	.word	0x20000d34

100017cc <watchdog_start_tick>:
100017cc:	2380      	movs	r3, #128	; 0x80
100017ce:	4a02      	ldr	r2, [pc, #8]	; (100017d8 <watchdog_start_tick+0xc>)
100017d0:	009b      	lsls	r3, r3, #2
100017d2:	4303      	orrs	r3, r0
100017d4:	62d3      	str	r3, [r2, #44]	; 0x2c
100017d6:	4770      	bx	lr
100017d8:	40058000 	.word	0x40058000

100017dc <xosc_init>:
100017dc:	23aa      	movs	r3, #170	; 0xaa
100017de:	4a06      	ldr	r2, [pc, #24]	; (100017f8 <xosc_init+0x1c>)
100017e0:	011b      	lsls	r3, r3, #4
100017e2:	6013      	str	r3, [r2, #0]
100017e4:	232f      	movs	r3, #47	; 0x2f
100017e6:	4905      	ldr	r1, [pc, #20]	; (100017fc <xosc_init+0x20>)
100017e8:	60d3      	str	r3, [r2, #12]
100017ea:	4b05      	ldr	r3, [pc, #20]	; (10001800 <xosc_init+0x24>)
100017ec:	6019      	str	r1, [r3, #0]
100017ee:	6853      	ldr	r3, [r2, #4]
100017f0:	2b00      	cmp	r3, #0
100017f2:	dafc      	bge.n	100017ee <xosc_init+0x12>
100017f4:	4770      	bx	lr
100017f6:	46c0      	nop			; (mov r8, r8)
100017f8:	40024000 	.word	0x40024000
100017fc:	00fab000 	.word	0x00fab000
10001800:	40026000 	.word	0x40026000

10001804 <pll_init>:
10001804:	b5f8      	push	{r3, r4, r5, r6, r7, lr}
10001806:	001d      	movs	r5, r3
10001808:	ab06      	add	r3, sp, #24
1000180a:	781e      	ldrb	r6, [r3, #0]
1000180c:	2301      	movs	r3, #1
1000180e:	425b      	negs	r3, r3
10001810:	6043      	str	r3, [r0, #4]
10001812:	2300      	movs	r3, #0
10001814:	0004      	movs	r4, r0
10001816:	6083      	str	r3, [r0, #8]
10001818:	6001      	str	r1, [r0, #0]
1000181a:	200c      	movs	r0, #12
1000181c:	0017      	movs	r7, r2
1000181e:	f000 fa11 	bl	10001c44 <__wrap___aeabi_uidiv>
10001822:	0141      	lsls	r1, r0, #5
10001824:	1a09      	subs	r1, r1, r0
10001826:	018b      	lsls	r3, r1, #6
10001828:	1a59      	subs	r1, r3, r1
1000182a:	00c9      	lsls	r1, r1, #3
1000182c:	1809      	adds	r1, r1, r0
1000182e:	0189      	lsls	r1, r1, #6
10001830:	0038      	movs	r0, r7
10001832:	f000 fa07 	bl	10001c44 <__wrap___aeabi_uidiv>
10001836:	21c0      	movs	r1, #192	; 0xc0
10001838:	1d23      	adds	r3, r4, #4
1000183a:	0189      	lsls	r1, r1, #6
1000183c:	4319      	orrs	r1, r3
1000183e:	2321      	movs	r3, #33	; 0x21
10001840:	60a0      	str	r0, [r4, #8]
10001842:	600b      	str	r3, [r1, #0]
10001844:	6822      	ldr	r2, [r4, #0]
10001846:	2a00      	cmp	r2, #0
10001848:	dafc      	bge.n	10001844 <pll_init+0x40>
1000184a:	2308      	movs	r3, #8
1000184c:	042d      	lsls	r5, r5, #16
1000184e:	0336      	lsls	r6, r6, #12
10001850:	432e      	orrs	r6, r5
10001852:	60e6      	str	r6, [r4, #12]
10001854:	600b      	str	r3, [r1, #0]
10001856:	bdf8      	pop	{r3, r4, r5, r6, r7, pc}

10001858 <irq_set_enabled>:
10001858:	2301      	movs	r3, #1
1000185a:	4083      	lsls	r3, r0
1000185c:	2900      	cmp	r1, #0
1000185e:	d004      	beq.n	1000186a <irq_set_enabled+0x12>
10001860:	4a03      	ldr	r2, [pc, #12]	; (10001870 <irq_set_enabled+0x18>)
10001862:	6013      	str	r3, [r2, #0]
10001864:	4a03      	ldr	r2, [pc, #12]	; (10001874 <irq_set_enabled+0x1c>)
10001866:	6013      	str	r3, [r2, #0]
10001868:	4770      	bx	lr
1000186a:	4a03      	ldr	r2, [pc, #12]	; (10001878 <irq_set_enabled+0x20>)
1000186c:	6013      	str	r3, [r2, #0]
1000186e:	e7fb      	b.n	10001868 <irq_set_enabled+0x10>
10001870:	e000e280 	.word	0xe000e280
10001874:	e000e100 	.word	0xe000e100
10001878:	e000e180 	.word	0xe000e180

1000187c <irq_get_vtable_handler>:
1000187c:	4b02      	ldr	r3, [pc, #8]	; (10001888 <irq_get_vtable_handler+0xc>)
1000187e:	3010      	adds	r0, #16
10001880:	689b      	ldr	r3, [r3, #8]
10001882:	0080      	lsls	r0, r0, #2
10001884:	58c0      	ldr	r0, [r0, r3]
10001886:	4770      	bx	lr
10001888:	e000ed00 	.word	0xe000ed00

1000188c <irq_set_exclusive_handler>:
1000188c:	b570      	push	{r4, r5, r6, lr}
1000188e:	000d      	movs	r5, r1
10001890:	f3ef 8610 	mrs	r6, PRIMASK
10001894:	b672      	cpsid	i
10001896:	4a0f      	ldr	r2, [pc, #60]	; (100018d4 <irq_set_exclusive_handler+0x48>)
10001898:	6813      	ldr	r3, [r2, #0]
1000189a:	2b00      	cmp	r3, #0
1000189c:	d0fc      	beq.n	10001898 <irq_set_exclusive_handler+0xc>
1000189e:	f3bf 8f5f 	dmb	sy
100018a2:	4b0d      	ldr	r3, [pc, #52]	; (100018d8 <irq_set_exclusive_handler+0x4c>)
100018a4:	3010      	adds	r0, #16
100018a6:	689b      	ldr	r3, [r3, #8]
100018a8:	0084      	lsls	r4, r0, #2
100018aa:	591b      	ldr	r3, [r3, r4]
100018ac:	4a0b      	ldr	r2, [pc, #44]	; (100018dc <irq_set_exclusive_handler+0x50>)
100018ae:	4293      	cmp	r3, r2
100018b0:	d003      	beq.n	100018ba <irq_set_exclusive_handler+0x2e>
100018b2:	429d      	cmp	r5, r3
100018b4:	d001      	beq.n	100018ba <irq_set_exclusive_handler+0x2e>
100018b6:	f7ff fe0d 	bl	100014d4 <hard_assertion_failure>
100018ba:	4b07      	ldr	r3, [pc, #28]	; (100018d8 <irq_set_exclusive_handler+0x4c>)
100018bc:	689b      	ldr	r3, [r3, #8]
100018be:	511d      	str	r5, [r3, r4]
100018c0:	f3bf 8f5f 	dmb	sy
100018c4:	f3bf 8f5f 	dmb	sy
100018c8:	2200      	movs	r2, #0
100018ca:	4b02      	ldr	r3, [pc, #8]	; (100018d4 <irq_set_exclusive_handler+0x48>)
100018cc:	601a      	str	r2, [r3, #0]
100018ce:	f386 8810 	msr	PRIMASK, r6
100018d2:	bd70      	pop	{r4, r5, r6, pc}
100018d4:	d0000124 	.word	0xd0000124
100018d8:	e000ed00 	.word	0xe000ed00
100018dc:	100002cd 	.word	0x100002cd

100018e0 <irq_remove_handler>:
100018e0:	b5f0      	push	{r4, r5, r6, r7, lr}
100018e2:	46de      	mov	lr, fp
100018e4:	4657      	mov	r7, sl
100018e6:	464e      	mov	r6, r9
100018e8:	4645      	mov	r5, r8
100018ea:	b5e0      	push	{r5, r6, r7, lr}
100018ec:	000c      	movs	r4, r1
100018ee:	b083      	sub	sp, #12
100018f0:	f3ef 8a10 	mrs	sl, PRIMASK
100018f4:	b672      	cpsid	i
100018f6:	4a5f      	ldr	r2, [pc, #380]	; (10001a74 <irq_remove_handler+0x194>)
100018f8:	6813      	ldr	r3, [r2, #0]
100018fa:	2b00      	cmp	r3, #0
100018fc:	d0fc      	beq.n	100018f8 <irq_remove_handler+0x18>
100018fe:	f3bf 8f5f 	dmb	sy
10001902:	2210      	movs	r2, #16
10001904:	4691      	mov	r9, r2
10001906:	4481      	add	r9, r0
10001908:	464a      	mov	r2, r9
1000190a:	4b5b      	ldr	r3, [pc, #364]	; (10001a78 <irq_remove_handler+0x198>)
1000190c:	0096      	lsls	r6, r2, #2
1000190e:	689b      	ldr	r3, [r3, #8]
10001910:	599d      	ldr	r5, [r3, r6]
10001912:	4b5a      	ldr	r3, [pc, #360]	; (10001a7c <irq_remove_handler+0x19c>)
10001914:	4698      	mov	r8, r3
10001916:	429d      	cmp	r5, r3
10001918:	d005      	beq.n	10001926 <irq_remove_handler+0x46>
1000191a:	42a5      	cmp	r5, r4
1000191c:	d016      	beq.n	1000194c <irq_remove_handler+0x6c>
1000191e:	4f58      	ldr	r7, [pc, #352]	; (10001a80 <irq_remove_handler+0x1a0>)
10001920:	1beb      	subs	r3, r5, r7
10001922:	2b2f      	cmp	r3, #47	; 0x2f
10001924:	d914      	bls.n	10001950 <irq_remove_handler+0x70>
10001926:	4b54      	ldr	r3, [pc, #336]	; (10001a78 <irq_remove_handler+0x198>)
10001928:	689b      	ldr	r3, [r3, #8]
1000192a:	519d      	str	r5, [r3, r6]
1000192c:	f3bf 8f5f 	dmb	sy
10001930:	f3bf 8f5f 	dmb	sy
10001934:	2200      	movs	r2, #0
10001936:	4b4f      	ldr	r3, [pc, #316]	; (10001a74 <irq_remove_handler+0x194>)
10001938:	601a      	str	r2, [r3, #0]
1000193a:	f38a 8810 	msr	PRIMASK, sl
1000193e:	b003      	add	sp, #12
10001940:	bc3c      	pop	{r2, r3, r4, r5}
10001942:	4690      	mov	r8, r2
10001944:	4699      	mov	r9, r3
10001946:	46a2      	mov	sl, r4
10001948:	46ab      	mov	fp, r5
1000194a:	bdf0      	pop	{r4, r5, r6, r7, pc}
1000194c:	001d      	movs	r5, r3
1000194e:	e7ea      	b.n	10001926 <irq_remove_handler+0x46>
10001950:	2301      	movs	r3, #1
10001952:	4083      	lsls	r3, r0
10001954:	469b      	mov	fp, r3
10001956:	465a      	mov	r2, fp
10001958:	4b4a      	ldr	r3, [pc, #296]	; (10001a84 <irq_remove_handler+0x1a4>)
1000195a:	681b      	ldr	r3, [r3, #0]
1000195c:	401a      	ands	r2, r3
1000195e:	9200      	str	r2, [sp, #0]
10001960:	465a      	mov	r2, fp
10001962:	4b49      	ldr	r3, [pc, #292]	; (10001a88 <irq_remove_handler+0x1a8>)
10001964:	601a      	str	r2, [r3, #0]
10001966:	f3bf 8f5f 	dmb	sy
1000196a:	f7fe fc14 	bl	10000196 <__get_current_exception>
1000196e:	9001      	str	r0, [sp, #4]
10001970:	2800      	cmp	r0, #0
10001972:	d003      	beq.n	1000197c <irq_remove_handler+0x9c>
10001974:	4581      	cmp	r9, r0
10001976:	d001      	beq.n	1000197c <irq_remove_handler+0x9c>
10001978:	f7ff fdac 	bl	100014d4 <hard_assertion_failure>
1000197c:	2301      	movs	r3, #1
1000197e:	0029      	movs	r1, r5
10001980:	4399      	bics	r1, r3
10001982:	688b      	ldr	r3, [r1, #8]
10001984:	42a3      	cmp	r3, r4
10001986:	d069      	beq.n	10001a5c <irq_remove_handler+0x17c>
10001988:	000a      	movs	r2, r1
1000198a:	e007      	b.n	1000199c <irq_remove_handler+0xbc>
1000198c:	0043      	lsls	r3, r0, #1
1000198e:	181b      	adds	r3, r3, r0
10001990:	009b      	lsls	r3, r3, #2
10001992:	18fb      	adds	r3, r7, r3
10001994:	6898      	ldr	r0, [r3, #8]
10001996:	42a0      	cmp	r0, r4
10001998:	d011      	beq.n	100019be <irq_remove_handler+0xde>
1000199a:	001a      	movs	r2, r3
1000199c:	2006      	movs	r0, #6
1000199e:	5610      	ldrsb	r0, [r2, r0]
100019a0:	2800      	cmp	r0, #0
100019a2:	daf3      	bge.n	1000198c <irq_remove_handler+0xac>
100019a4:	9b00      	ldr	r3, [sp, #0]
100019a6:	2b00      	cmp	r3, #0
100019a8:	d005      	beq.n	100019b6 <irq_remove_handler+0xd6>
100019aa:	465a      	mov	r2, fp
100019ac:	4b37      	ldr	r3, [pc, #220]	; (10001a8c <irq_remove_handler+0x1ac>)
100019ae:	601a      	str	r2, [r3, #0]
100019b0:	4b34      	ldr	r3, [pc, #208]	; (10001a84 <irq_remove_handler+0x1a4>)
100019b2:	601a      	str	r2, [r3, #0]
100019b4:	e7b7      	b.n	10001926 <irq_remove_handler+0x46>
100019b6:	465a      	mov	r2, fp
100019b8:	4b33      	ldr	r3, [pc, #204]	; (10001a88 <irq_remove_handler+0x1a8>)
100019ba:	601a      	str	r2, [r3, #0]
100019bc:	e7b3      	b.n	10001926 <irq_remove_handler+0x46>
100019be:	2006      	movs	r0, #6
100019c0:	5618      	ldrsb	r0, [r3, r0]
100019c2:	2800      	cmp	r0, #0
100019c4:	db22      	blt.n	10001a0c <irq_remove_handler+0x12c>
100019c6:	0042      	lsls	r2, r0, #1
100019c8:	1811      	adds	r1, r2, r0
100019ca:	0089      	lsls	r1, r1, #2
100019cc:	187c      	adds	r4, r7, r1
100019ce:	4688      	mov	r8, r1
100019d0:	68a1      	ldr	r1, [r4, #8]
100019d2:	6099      	str	r1, [r3, #8]
100019d4:	79e1      	ldrb	r1, [r4, #7]
100019d6:	71d9      	strb	r1, [r3, #7]
100019d8:	2106      	movs	r1, #6
100019da:	5661      	ldrsb	r1, [r4, r1]
100019dc:	7199      	strb	r1, [r3, #6]
100019de:	79a1      	ldrb	r1, [r4, #6]
100019e0:	297f      	cmp	r1, #127	; 0x7f
100019e2:	d82b      	bhi.n	10001a3c <irq_remove_handler+0x15c>
100019e4:	88a4      	ldrh	r4, [r4, #4]
100019e6:	1af9      	subs	r1, r7, r3
100019e8:	0564      	lsls	r4, r4, #21
100019ea:	1524      	asrs	r4, r4, #20
100019ec:	4444      	add	r4, r8
100019ee:	1909      	adds	r1, r1, r4
100019f0:	24e0      	movs	r4, #224	; 0xe0
100019f2:	0509      	lsls	r1, r1, #20
100019f4:	0d49      	lsrs	r1, r1, #21
100019f6:	0224      	lsls	r4, r4, #8
100019f8:	4321      	orrs	r1, r4
100019fa:	8099      	strh	r1, [r3, #4]
100019fc:	1812      	adds	r2, r2, r0
100019fe:	4b24      	ldr	r3, [pc, #144]	; (10001a90 <irq_remove_handler+0x1b0>)
10001a00:	0092      	lsls	r2, r2, #2
10001a02:	18bf      	adds	r7, r7, r2
10001a04:	781a      	ldrb	r2, [r3, #0]
10001a06:	7018      	strb	r0, [r3, #0]
10001a08:	71ba      	strb	r2, [r7, #6]
10001a0a:	e7cb      	b.n	100019a4 <irq_remove_handler+0xc4>
10001a0c:	9801      	ldr	r0, [sp, #4]
10001a0e:	2800      	cmp	r0, #0
10001a10:	d117      	bne.n	10001a42 <irq_remove_handler+0x162>
10001a12:	30ff      	adds	r0, #255	; 0xff
10001a14:	7190      	strb	r0, [r2, #6]
10001a16:	481f      	ldr	r0, [pc, #124]	; (10001a94 <irq_remove_handler+0x1b4>)
10001a18:	8090      	strh	r0, [r2, #4]
10001a1a:	4a1d      	ldr	r2, [pc, #116]	; (10001a90 <irq_remove_handler+0x1b0>)
10001a1c:	1bcf      	subs	r7, r1, r7
10001a1e:	7810      	ldrb	r0, [r2, #0]
10001a20:	10bf      	asrs	r7, r7, #2
10001a22:	7198      	strb	r0, [r3, #6]
10001a24:	00bb      	lsls	r3, r7, #2
10001a26:	19db      	adds	r3, r3, r7
10001a28:	0119      	lsls	r1, r3, #4
10001a2a:	185b      	adds	r3, r3, r1
10001a2c:	0219      	lsls	r1, r3, #8
10001a2e:	185b      	adds	r3, r3, r1
10001a30:	0419      	lsls	r1, r3, #16
10001a32:	185b      	adds	r3, r3, r1
10001a34:	005b      	lsls	r3, r3, #1
10001a36:	19db      	adds	r3, r3, r7
10001a38:	7013      	strb	r3, [r2, #0]
10001a3a:	e7b3      	b.n	100019a4 <irq_remove_handler+0xc4>
10001a3c:	21bd      	movs	r1, #189	; 0xbd
10001a3e:	0209      	lsls	r1, r1, #8
10001a40:	e7db      	b.n	100019fa <irq_remove_handler+0x11a>
10001a42:	4a15      	ldr	r2, [pc, #84]	; (10001a98 <irq_remove_handler+0x1b8>)
10001a44:	4915      	ldr	r1, [pc, #84]	; (10001a9c <irq_remove_handler+0x1bc>)
10001a46:	1ad2      	subs	r2, r2, r3
10001a48:	3a08      	subs	r2, #8
10001a4a:	0250      	lsls	r0, r2, #9
10001a4c:	0d40      	lsrs	r0, r0, #21
10001a4e:	4301      	orrs	r1, r0
10001a50:	8099      	strh	r1, [r3, #4]
10001a52:	4913      	ldr	r1, [pc, #76]	; (10001aa0 <irq_remove_handler+0x1c0>)
10001a54:	0852      	lsrs	r2, r2, #1
10001a56:	430a      	orrs	r2, r1
10001a58:	80da      	strh	r2, [r3, #6]
10001a5a:	e7a3      	b.n	100019a4 <irq_remove_handler+0xc4>
10001a5c:	2006      	movs	r0, #6
10001a5e:	5608      	ldrsb	r0, [r1, r0]
10001a60:	000b      	movs	r3, r1
10001a62:	2800      	cmp	r0, #0
10001a64:	daaf      	bge.n	100019c6 <irq_remove_handler+0xe6>
10001a66:	9a01      	ldr	r2, [sp, #4]
10001a68:	2a00      	cmp	r2, #0
10001a6a:	d1ea      	bne.n	10001a42 <irq_remove_handler+0x162>
10001a6c:	000b      	movs	r3, r1
10001a6e:	4645      	mov	r5, r8
10001a70:	e7d3      	b.n	10001a1a <irq_remove_handler+0x13a>
10001a72:	46c0      	nop			; (mov r8, r8)
10001a74:	d0000124 	.word	0xd0000124
10001a78:	e000ed00 	.word	0xe000ed00
10001a7c:	100002cd 	.word	0x100002cd
10001a80:	20000268 	.word	0x20000268
10001a84:	e000e100 	.word	0xe000e100
10001a88:	e000e180 	.word	0xe000e180
10001a8c:	e000e280 	.word	0xe000e280
10001a90:	2000141c 	.word	0x2000141c
10001a94:	ffffbd00 	.word	0xffffbd00
10001a98:	200002a2 	.word	0x200002a2
10001a9c:	fffff000 	.word	0xfffff000
10001aa0:	fffff800 	.word	0xfffff800

10001aa4 <irq_add_tail_to_free_list>:
10001aa4:	b5f8      	push	{r3, r4, r5, r6, r7, lr}
10001aa6:	2501      	movs	r5, #1
10001aa8:	0004      	movs	r4, r0
10001aaa:	4305      	orrs	r5, r0
10001aac:	f7fe fb73 	bl	10000196 <__get_current_exception>
10001ab0:	f3ef 8610 	mrs	r6, PRIMASK
10001ab4:	b672      	cpsid	i
10001ab6:	4a24      	ldr	r2, [pc, #144]	; (10001b48 <irq_add_tail_to_free_list+0xa4>)
10001ab8:	6813      	ldr	r3, [r2, #0]
10001aba:	2b00      	cmp	r3, #0
10001abc:	d0fc      	beq.n	10001ab8 <irq_add_tail_to_free_list+0x14>
10001abe:	f3bf 8f5f 	dmb	sy
10001ac2:	4f22      	ldr	r7, [pc, #136]	; (10001b4c <irq_add_tail_to_free_list+0xa8>)
10001ac4:	0080      	lsls	r0, r0, #2
10001ac6:	1be1      	subs	r1, r4, r7
10001ac8:	1089      	asrs	r1, r1, #2
10001aca:	008a      	lsls	r2, r1, #2
10001acc:	1852      	adds	r2, r2, r1
10001ace:	0113      	lsls	r3, r2, #4
10001ad0:	18d2      	adds	r2, r2, r3
10001ad2:	0213      	lsls	r3, r2, #8
10001ad4:	18d2      	adds	r2, r2, r3
10001ad6:	0413      	lsls	r3, r2, #16
10001ad8:	18d3      	adds	r3, r2, r3
10001ada:	4a1d      	ldr	r2, [pc, #116]	; (10001b50 <irq_add_tail_to_free_list+0xac>)
10001adc:	005b      	lsls	r3, r3, #1
10001ade:	185b      	adds	r3, r3, r1
10001ae0:	6891      	ldr	r1, [r2, #8]
10001ae2:	5809      	ldr	r1, [r1, r0]
10001ae4:	42a9      	cmp	r1, r5
10001ae6:	d01c      	beq.n	10001b22 <irq_add_tail_to_free_list+0x7e>
10001ae8:	2206      	movs	r2, #6
10001aea:	56ba      	ldrsb	r2, [r7, r2]
10001aec:	4293      	cmp	r3, r2
10001aee:	d01c      	beq.n	10001b2a <irq_add_tail_to_free_list+0x86>
10001af0:	2212      	movs	r2, #18
10001af2:	56ba      	ldrsb	r2, [r7, r2]
10001af4:	4293      	cmp	r3, r2
10001af6:	d022      	beq.n	10001b3e <irq_add_tail_to_free_list+0x9a>
10001af8:	221e      	movs	r2, #30
10001afa:	56ba      	ldrsb	r2, [r7, r2]
10001afc:	4293      	cmp	r3, r2
10001afe:	d020      	beq.n	10001b42 <irq_add_tail_to_free_list+0x9e>
10001b00:	222a      	movs	r2, #42	; 0x2a
10001b02:	56ba      	ldrsb	r2, [r7, r2]
10001b04:	2103      	movs	r1, #3
10001b06:	429a      	cmp	r2, r3
10001b08:	d010      	beq.n	10001b2c <irq_add_tail_to_free_list+0x88>
10001b0a:	4a12      	ldr	r2, [pc, #72]	; (10001b54 <irq_add_tail_to_free_list+0xb0>)
10001b0c:	7811      	ldrb	r1, [r2, #0]
10001b0e:	7013      	strb	r3, [r2, #0]
10001b10:	71a1      	strb	r1, [r4, #6]
10001b12:	f3bf 8f5f 	dmb	sy
10001b16:	2200      	movs	r2, #0
10001b18:	4b0b      	ldr	r3, [pc, #44]	; (10001b48 <irq_add_tail_to_free_list+0xa4>)
10001b1a:	601a      	str	r2, [r3, #0]
10001b1c:	f386 8810 	msr	PRIMASK, r6
10001b20:	bdf8      	pop	{r3, r4, r5, r6, r7, pc}
10001b22:	6892      	ldr	r2, [r2, #8]
10001b24:	490c      	ldr	r1, [pc, #48]	; (10001b58 <irq_add_tail_to_free_list+0xb4>)
10001b26:	5011      	str	r1, [r2, r0]
10001b28:	e7ef      	b.n	10001b0a <irq_add_tail_to_free_list+0x66>
10001b2a:	2100      	movs	r1, #0
10001b2c:	004a      	lsls	r2, r1, #1
10001b2e:	1852      	adds	r2, r2, r1
10001b30:	21ff      	movs	r1, #255	; 0xff
10001b32:	0092      	lsls	r2, r2, #2
10001b34:	18ba      	adds	r2, r7, r2
10001b36:	7191      	strb	r1, [r2, #6]
10001b38:	4908      	ldr	r1, [pc, #32]	; (10001b5c <irq_add_tail_to_free_list+0xb8>)
10001b3a:	8091      	strh	r1, [r2, #4]
10001b3c:	e7e5      	b.n	10001b0a <irq_add_tail_to_free_list+0x66>
10001b3e:	2101      	movs	r1, #1
10001b40:	e7f4      	b.n	10001b2c <irq_add_tail_to_free_list+0x88>
10001b42:	2102      	movs	r1, #2
10001b44:	e7f2      	b.n	10001b2c <irq_add_tail_to_free_list+0x88>
10001b46:	46c0      	nop			; (mov r8, r8)
10001b48:	d0000124 	.word	0xd0000124
10001b4c:	20000268 	.word	0x20000268
10001b50:	e000ed00 	.word	0xe000ed00
10001b54:	2000141c 	.word	0x2000141c
10001b58:	100002cd 	.word	0x100002cd
10001b5c:	ffffbd00 	.word	0xffffbd00

10001b60 <irq_init_priorities>:
10001b60:	b5f0      	push	{r4, r5, r6, r7, lr}
10001b62:	2200      	movs	r2, #0
10001b64:	2403      	movs	r4, #3
10001b66:	27ff      	movs	r7, #255	; 0xff
10001b68:	2680      	movs	r6, #128	; 0x80
10001b6a:	0020      	movs	r0, r4
10001b6c:	003d      	movs	r5, r7
10001b6e:	4b09      	ldr	r3, [pc, #36]	; (10001b94 <irq_init_priorities+0x34>)
10001b70:	0011      	movs	r1, r2
10001b72:	469c      	mov	ip, r3
10001b74:	4010      	ands	r0, r2
10001b76:	00c0      	lsls	r0, r0, #3
10001b78:	4085      	lsls	r5, r0
10001b7a:	43a1      	bics	r1, r4
10001b7c:	4461      	add	r1, ip
10001b7e:	680b      	ldr	r3, [r1, #0]
10001b80:	3201      	adds	r2, #1
10001b82:	43ab      	bics	r3, r5
10001b84:	0035      	movs	r5, r6
10001b86:	4085      	lsls	r5, r0
10001b88:	432b      	orrs	r3, r5
10001b8a:	600b      	str	r3, [r1, #0]
10001b8c:	2a20      	cmp	r2, #32
10001b8e:	d1ec      	bne.n	10001b6a <irq_init_priorities+0xa>
10001b90:	bdf0      	pop	{r4, r5, r6, r7, pc}
10001b92:	46c0      	nop			; (mov r8, r8)
10001b94:	e000e400 	.word	0xe000e400

10001b98 <_out_char>:
10001b98:	b510      	push	{r4, lr}
10001b9a:	2800      	cmp	r0, #0
10001b9c:	d100      	bne.n	10001ba0 <_out_char+0x8>
10001b9e:	bd10      	pop	{r4, pc}
10001ba0:	f000 fc3e 	bl	10002420 <__wrap_putchar>
10001ba4:	e7fb      	b.n	10001b9e <_out_char+0x6>
10001ba6:	46c0      	nop			; (mov r8, r8)

10001ba8 <weak_raw_vprintf>:
10001ba8:	b510      	push	{r4, lr}
10001baa:	4a09      	ldr	r2, [pc, #36]	; (10001bd0 <weak_raw_vprintf+0x28>)
10001bac:	0003      	movs	r3, r0
10001bae:	6814      	ldr	r4, [r2, #0]
10001bb0:	b084      	sub	sp, #16
10001bb2:	2c00      	cmp	r4, #0
10001bb4:	d008      	beq.n	10001bc8 <weak_raw_vprintf+0x20>
10001bb6:	2201      	movs	r2, #1
10001bb8:	9100      	str	r1, [sp, #0]
10001bba:	4806      	ldr	r0, [pc, #24]	; (10001bd4 <weak_raw_vprintf+0x2c>)
10001bbc:	4252      	negs	r2, r2
10001bbe:	a903      	add	r1, sp, #12
10001bc0:	47a0      	blx	r4
10001bc2:	2001      	movs	r0, #1
10001bc4:	b004      	add	sp, #16
10001bc6:	bd10      	pop	{r4, pc}
10001bc8:	f000 fc38 	bl	1000243c <__wrap_puts>
10001bcc:	2000      	movs	r0, #0
10001bce:	e7f9      	b.n	10001bc4 <weak_raw_vprintf+0x1c>
10001bd0:	200013ec 	.word	0x200013ec
10001bd4:	10001b99 	.word	0x10001b99

10001bd8 <__aeabi_bits_init>:
10001bd8:	4801      	ldr	r0, [pc, #4]	; (10001be0 <__aeabi_bits_init+0x8>)
10001bda:	2104      	movs	r1, #4
10001bdc:	4b01      	ldr	r3, [pc, #4]	; (10001be4 <__aeabi_bits_init+0xc>)
10001bde:	4718      	bx	r3
10001be0:	200002b0 	.word	0x200002b0
10001be4:	10001c09 	.word	0x10001c09

10001be8 <rom_func_lookup>:
10001be8:	2314      	movs	r3, #20
10001bea:	b510      	push	{r4, lr}
10001bec:	0001      	movs	r1, r0
10001bee:	8818      	ldrh	r0, [r3, #0]
10001bf0:	3304      	adds	r3, #4
10001bf2:	881b      	ldrh	r3, [r3, #0]
10001bf4:	4798      	blx	r3
10001bf6:	bd10      	pop	{r4, pc}

10001bf8 <rom_data_lookup>:
10001bf8:	2316      	movs	r3, #22
10001bfa:	b510      	push	{r4, lr}
10001bfc:	0001      	movs	r1, r0
10001bfe:	8818      	ldrh	r0, [r3, #0]
10001c00:	3302      	adds	r3, #2
10001c02:	881b      	ldrh	r3, [r3, #0]
10001c04:	4798      	blx	r3
10001c06:	bd10      	pop	{r4, pc}

10001c08 <rom_funcs_lookup>:
10001c08:	b5f0      	push	{r4, r5, r6, r7, lr}
10001c0a:	46c6      	mov	lr, r8
10001c0c:	b500      	push	{lr}
10001c0e:	2900      	cmp	r1, #0
10001c10:	d016      	beq.n	10001c40 <rom_funcs_lookup+0x38>
10001c12:	2314      	movs	r3, #20
10001c14:	0004      	movs	r4, r0
10001c16:	2501      	movs	r5, #1
10001c18:	4698      	mov	r8, r3
10001c1a:	2718      	movs	r7, #24
10001c1c:	0089      	lsls	r1, r1, #2
10001c1e:	1846      	adds	r6, r0, r1
10001c20:	4643      	mov	r3, r8
10001c22:	6821      	ldr	r1, [r4, #0]
10001c24:	8818      	ldrh	r0, [r3, #0]
10001c26:	883b      	ldrh	r3, [r7, #0]
10001c28:	4798      	blx	r3
10001c2a:	c401      	stmia	r4!, {r0}
10001c2c:	1e43      	subs	r3, r0, #1
10001c2e:	4198      	sbcs	r0, r3
10001c30:	4240      	negs	r0, r0
10001c32:	4005      	ands	r5, r0
10001c34:	42a6      	cmp	r6, r4
10001c36:	d1f3      	bne.n	10001c20 <rom_funcs_lookup+0x18>
10001c38:	0028      	movs	r0, r5
10001c3a:	bc04      	pop	{r2}
10001c3c:	4690      	mov	r8, r2
10001c3e:	bdf0      	pop	{r4, r5, r6, r7, pc}
10001c40:	2501      	movs	r5, #1
10001c42:	e7f9      	b.n	10001c38 <rom_funcs_lookup+0x30>

10001c44 <__wrap___aeabi_uidiv>:
10001c44:	4a13      	ldr	r2, [pc, #76]	; (10001c94 <divmod_u32u32_savestate+0x20>)
10001c46:	6f93      	ldr	r3, [r2, #120]	; 0x78
10001c48:	089b      	lsrs	r3, r3, #2
10001c4a:	d213      	bcs.n	10001c74 <divmod_u32u32_savestate>

10001c4c <divmod_u32u32_unsafe>:
10001c4c:	6610      	str	r0, [r2, #96]	; 0x60
10001c4e:	6651      	str	r1, [r2, #100]	; 0x64
10001c50:	2900      	cmp	r1, #0
10001c52:	d005      	beq.n	10001c60 <divmod_u32u32_unsafe+0x14>
10001c54:	e7ff      	b.n	10001c56 <divmod_u32u32_unsafe+0xa>
10001c56:	e7ff      	b.n	10001c58 <divmod_u32u32_unsafe+0xc>
10001c58:	e7ff      	b.n	10001c5a <divmod_u32u32_unsafe+0xe>
10001c5a:	6f51      	ldr	r1, [r2, #116]	; 0x74
10001c5c:	6f10      	ldr	r0, [r2, #112]	; 0x70
10001c5e:	4770      	bx	lr
10001c60:	b504      	push	{r2, lr}
10001c62:	2800      	cmp	r0, #0
10001c64:	d001      	beq.n	10001c6a <divmod_u32u32_unsafe+0x1e>
10001c66:	2000      	movs	r0, #0
10001c68:	43c0      	mvns	r0, r0
10001c6a:	f002 fd9d 	bl	100047a8 <____aeabi_idiv0_veneer>
10001c6e:	2100      	movs	r1, #0
10001c70:	bd04      	pop	{r2, pc}
10001c72:	46c0      	nop			; (mov r8, r8)

10001c74 <divmod_u32u32_savestate>:
10001c74:	6f93      	ldr	r3, [r2, #120]	; 0x78
10001c76:	085b      	lsrs	r3, r3, #1
10001c78:	d3fd      	bcc.n	10001c76 <divmod_u32u32_savestate+0x2>
10001c7a:	b5f0      	push	{r4, r5, r6, r7, lr}
10001c7c:	6e94      	ldr	r4, [r2, #104]	; 0x68
10001c7e:	6ed5      	ldr	r5, [r2, #108]	; 0x6c
10001c80:	6f57      	ldr	r7, [r2, #116]	; 0x74
10001c82:	6f16      	ldr	r6, [r2, #112]	; 0x70
10001c84:	f7ff ffe2 	bl	10001c4c <divmod_u32u32_unsafe>
10001c88:	6694      	str	r4, [r2, #104]	; 0x68
10001c8a:	66d5      	str	r5, [r2, #108]	; 0x6c
10001c8c:	6757      	str	r7, [r2, #116]	; 0x74
10001c8e:	6716      	str	r6, [r2, #112]	; 0x70
10001c90:	bdf0      	pop	{r4, r5, r6, r7, pc}
10001c92:	0000      	.short	0x0000
10001c94:	d0000000 	.word	0xd0000000

10001c98 <__wrap___aeabi_ldivmod>:
10001c98:	4694      	mov	ip, r2
10001c9a:	4a4e      	ldr	r2, [pc, #312]	; (10001dd4 <udiv0+0x1a>)
10001c9c:	6f92      	ldr	r2, [r2, #120]	; 0x78
10001c9e:	0892      	lsrs	r2, r2, #2
10001ca0:	4662      	mov	r2, ip
10001ca2:	d201      	bcs.n	10001ca8 <divmod_s64s64_savestate>
10001ca4:	e030      	b.n	10001d08 <divmod_s64s64_unsafe>
10001ca6:	46c0      	nop			; (mov r8, r8)

10001ca8 <divmod_s64s64_savestate>:
10001ca8:	b5f0      	push	{r4, r5, r6, r7, lr}
10001caa:	4e4a      	ldr	r6, [pc, #296]	; (10001dd4 <udiv0+0x1a>)
10001cac:	6fb5      	ldr	r5, [r6, #120]	; 0x78
10001cae:	086d      	lsrs	r5, r5, #1
10001cb0:	d3fc      	bcc.n	10001cac <divmod_s64s64_savestate+0x4>
10001cb2:	6e34      	ldr	r4, [r6, #96]	; 0x60
10001cb4:	6e75      	ldr	r5, [r6, #100]	; 0x64
10001cb6:	6f77      	ldr	r7, [r6, #116]	; 0x74
10001cb8:	6f36      	ldr	r6, [r6, #112]	; 0x70
10001cba:	f000 f825 	bl	10001d08 <divmod_s64s64_unsafe>
10001cbe:	4694      	mov	ip, r2
10001cc0:	4a44      	ldr	r2, [pc, #272]	; (10001dd4 <udiv0+0x1a>)
10001cc2:	6614      	str	r4, [r2, #96]	; 0x60
10001cc4:	6655      	str	r5, [r2, #100]	; 0x64
10001cc6:	6757      	str	r7, [r2, #116]	; 0x74
10001cc8:	6716      	str	r6, [r2, #112]	; 0x70
10001cca:	4662      	mov	r2, ip
10001ccc:	bdf0      	pop	{r4, r5, r6, r7, pc}
10001cce:	46c0      	nop			; (mov r8, r8)

10001cd0 <__wrap___aeabi_uldivmod>:
10001cd0:	4694      	mov	ip, r2
10001cd2:	4a40      	ldr	r2, [pc, #256]	; (10001dd4 <udiv0+0x1a>)
10001cd4:	6f92      	ldr	r2, [r2, #120]	; 0x78
10001cd6:	0892      	lsrs	r2, r2, #2
10001cd8:	4662      	mov	r2, ip
10001cda:	d201      	bcs.n	10001ce0 <divmod_u64u64_savestate>
10001cdc:	e058      	b.n	10001d90 <divmod_u64u64_unsafe>
10001cde:	46c0      	nop			; (mov r8, r8)

10001ce0 <divmod_u64u64_savestate>:
10001ce0:	b5f0      	push	{r4, r5, r6, r7, lr}
10001ce2:	4e3c      	ldr	r6, [pc, #240]	; (10001dd4 <udiv0+0x1a>)
10001ce4:	6fb5      	ldr	r5, [r6, #120]	; 0x78
10001ce6:	086d      	lsrs	r5, r5, #1
10001ce8:	d3fc      	bcc.n	10001ce4 <divmod_u64u64_savestate+0x4>
10001cea:	6e34      	ldr	r4, [r6, #96]	; 0x60
10001cec:	6e75      	ldr	r5, [r6, #100]	; 0x64
10001cee:	6f77      	ldr	r7, [r6, #116]	; 0x74
10001cf0:	6f36      	ldr	r6, [r6, #112]	; 0x70
10001cf2:	f000 f84d 	bl	10001d90 <divmod_u64u64_unsafe>
10001cf6:	4694      	mov	ip, r2
10001cf8:	4a36      	ldr	r2, [pc, #216]	; (10001dd4 <udiv0+0x1a>)
10001cfa:	6614      	str	r4, [r2, #96]	; 0x60
10001cfc:	6655      	str	r5, [r2, #100]	; 0x64
10001cfe:	6757      	str	r7, [r2, #116]	; 0x74
10001d00:	6716      	str	r6, [r2, #112]	; 0x70
10001d02:	4662      	mov	r2, ip
10001d04:	bdf0      	pop	{r4, r5, r6, r7, pc}
10001d06:	46c0      	nop			; (mov r8, r8)

10001d08 <divmod_s64s64_unsafe>:
10001d08:	2b00      	cmp	r3, #0
10001d0a:	db24      	blt.n	10001d56 <l41_1+0x26>
10001d0c:	d011      	beq.n	10001d32 <l41_1+0x2>
10001d0e:	2900      	cmp	r1, #0
10001d10:	da3e      	bge.n	10001d90 <divmod_u64u64_unsafe>
10001d12:	b500      	push	{lr}
10001d14:	43c9      	mvns	r1, r1
10001d16:	4240      	negs	r0, r0
10001d18:	d100      	bne.n	10001d1c <l39_1>
10001d1a:	3101      	adds	r1, #1

10001d1c <l39_1>:
10001d1c:	f000 f838 	bl	10001d90 <divmod_u64u64_unsafe>
10001d20:	43c9      	mvns	r1, r1
10001d22:	4240      	negs	r0, r0
10001d24:	d100      	bne.n	10001d28 <l40_1>
10001d26:	3101      	adds	r1, #1

10001d28 <l40_1>:
10001d28:	43db      	mvns	r3, r3
10001d2a:	4252      	negs	r2, r2
10001d2c:	d100      	bne.n	10001d30 <l41_1>
10001d2e:	3301      	adds	r3, #1

10001d30 <l41_1>:
10001d30:	bd00      	pop	{pc}
10001d32:	2a00      	cmp	r2, #0
10001d34:	d1eb      	bne.n	10001d0e <divmod_s64s64_unsafe+0x6>
10001d36:	2800      	cmp	r0, #0
10001d38:	d101      	bne.n	10001d3e <l41_1+0xe>
10001d3a:	2900      	cmp	r1, #0
10001d3c:	d005      	beq.n	10001d4a <l41_1+0x1a>
10001d3e:	2000      	movs	r0, #0
10001d40:	0fc9      	lsrs	r1, r1, #31
10001d42:	07c9      	lsls	r1, r1, #31
10001d44:	d101      	bne.n	10001d4a <l41_1+0x1a>
10001d46:	43c0      	mvns	r0, r0
10001d48:	0841      	lsrs	r1, r0, #1
10001d4a:	b500      	push	{lr}
10001d4c:	f002 fd24 	bl	10004798 <____aeabi_ldiv0_veneer>
10001d50:	2200      	movs	r2, #0
10001d52:	2300      	movs	r3, #0
10001d54:	bd00      	pop	{pc}
10001d56:	b500      	push	{lr}
10001d58:	2900      	cmp	r1, #0
10001d5a:	db0a      	blt.n	10001d72 <l43_1+0x2>
10001d5c:	43db      	mvns	r3, r3
10001d5e:	4252      	negs	r2, r2
10001d60:	d100      	bne.n	10001d64 <l42_1>
10001d62:	3301      	adds	r3, #1

10001d64 <l42_1>:
10001d64:	f000 f814 	bl	10001d90 <divmod_u64u64_unsafe>
10001d68:	43c9      	mvns	r1, r1
10001d6a:	4240      	negs	r0, r0
10001d6c:	d100      	bne.n	10001d70 <l43_1>
10001d6e:	3101      	adds	r1, #1

10001d70 <l43_1>:
10001d70:	bd00      	pop	{pc}
10001d72:	43c9      	mvns	r1, r1
10001d74:	4240      	negs	r0, r0
10001d76:	d100      	bne.n	10001d7a <l44_1>
10001d78:	3101      	adds	r1, #1

10001d7a <l44_1>:
10001d7a:	43db      	mvns	r3, r3
10001d7c:	4252      	negs	r2, r2
10001d7e:	d100      	bne.n	10001d82 <l45_1>
10001d80:	3301      	adds	r3, #1

10001d82 <l45_1>:
10001d82:	f000 f805 	bl	10001d90 <divmod_u64u64_unsafe>
10001d86:	43db      	mvns	r3, r3
10001d88:	4252      	negs	r2, r2
10001d8a:	d100      	bne.n	10001d8e <l46_1>
10001d8c:	3301      	adds	r3, #1

10001d8e <l46_1>:
10001d8e:	bd00      	pop	{pc}

10001d90 <divmod_u64u64_unsafe>:
10001d90:	2900      	cmp	r1, #0
10001d92:	d123      	bne.n	10001ddc <y64>
10001d94:	2b00      	cmp	r3, #0
10001d96:	d118      	bne.n	10001dca <udiv0+0x10>
10001d98:	2a00      	cmp	r2, #0
10001d9a:	d00c      	beq.n	10001db6 <divmod_u64u64_unsafe+0x26>
10001d9c:	46bc      	mov	ip, r7
10001d9e:	4f0d      	ldr	r7, [pc, #52]	; (10001dd4 <udiv0+0x1a>)
10001da0:	6638      	str	r0, [r7, #96]	; 0x60
10001da2:	667a      	str	r2, [r7, #100]	; 0x64
10001da4:	2100      	movs	r1, #0
10001da6:	2300      	movs	r3, #0
10001da8:	e7ff      	b.n	10001daa <divmod_u64u64_unsafe+0x1a>
10001daa:	e7ff      	b.n	10001dac <divmod_u64u64_unsafe+0x1c>
10001dac:	e7ff      	b.n	10001dae <divmod_u64u64_unsafe+0x1e>
10001dae:	6f7a      	ldr	r2, [r7, #116]	; 0x74
10001db0:	6f38      	ldr	r0, [r7, #112]	; 0x70
10001db2:	4667      	mov	r7, ip
10001db4:	4770      	bx	lr
10001db6:	2800      	cmp	r0, #0
10001db8:	d001      	beq.n	10001dbe <udiv0+0x4>

10001dba <udiv0>:
10001dba:	4807      	ldr	r0, [pc, #28]	; (10001dd8 <udiv0+0x1e>)
10001dbc:	0001      	movs	r1, r0
10001dbe:	b500      	push	{lr}
10001dc0:	f002 fcea 	bl	10004798 <____aeabi_ldiv0_veneer>
10001dc4:	2200      	movs	r2, #0
10001dc6:	2300      	movs	r3, #0
10001dc8:	bd00      	pop	{pc}
10001dca:	0002      	movs	r2, r0
10001dcc:	000b      	movs	r3, r1
10001dce:	2000      	movs	r0, #0
10001dd0:	2100      	movs	r1, #0
10001dd2:	4770      	bx	lr
10001dd4:	d0000000 	.word	0xd0000000
10001dd8:	ffffffff 	.word	0xffffffff

10001ddc <y64>:
10001ddc:	2b00      	cmp	r3, #0
10001dde:	d000      	beq.n	10001de2 <y64+0x6>
10001de0:	e0bd      	b.n	10001f5e <y64_x48>
10001de2:	0c13      	lsrs	r3, r2, #16
10001de4:	d126      	bne.n	10001e34 <y64_x32>
10001de6:	2a00      	cmp	r2, #0
10001de8:	d0e7      	beq.n	10001dba <udiv0>
10001dea:	b480      	push	{r7}
10001dec:	4f10      	ldr	r7, [pc, #64]	; (10001e30 <y64+0x54>)
10001dee:	6639      	str	r1, [r7, #96]	; 0x60
10001df0:	667a      	str	r2, [r7, #100]	; 0x64
10001df2:	e7ff      	b.n	10001df4 <y64+0x18>
10001df4:	e7ff      	b.n	10001df6 <y64+0x1a>
10001df6:	b430      	push	{r4, r5}
10001df8:	0c04      	lsrs	r4, r0, #16
10001dfa:	6f7b      	ldr	r3, [r7, #116]	; 0x74
10001dfc:	6f39      	ldr	r1, [r7, #112]	; 0x70
10001dfe:	041b      	lsls	r3, r3, #16
10001e00:	4323      	orrs	r3, r4
10001e02:	663b      	str	r3, [r7, #96]	; 0x60
10001e04:	e7ff      	b.n	10001e06 <y64+0x2a>
10001e06:	e7ff      	b.n	10001e08 <y64+0x2c>
10001e08:	e7ff      	b.n	10001e0a <y64+0x2e>
10001e0a:	46c0      	nop			; (mov r8, r8)
10001e0c:	b284      	uxth	r4, r0
10001e0e:	6f7b      	ldr	r3, [r7, #116]	; 0x74
10001e10:	6f3d      	ldr	r5, [r7, #112]	; 0x70
10001e12:	041b      	lsls	r3, r3, #16
10001e14:	4323      	orrs	r3, r4
10001e16:	663b      	str	r3, [r7, #96]	; 0x60
10001e18:	e7ff      	b.n	10001e1a <y64+0x3e>
10001e1a:	e7ff      	b.n	10001e1c <y64+0x40>
10001e1c:	46c0      	nop			; (mov r8, r8)
10001e1e:	2300      	movs	r3, #0
10001e20:	042c      	lsls	r4, r5, #16
10001e22:	0c2d      	lsrs	r5, r5, #16
10001e24:	6f7a      	ldr	r2, [r7, #116]	; 0x74
10001e26:	6f38      	ldr	r0, [r7, #112]	; 0x70
10001e28:	1900      	adds	r0, r0, r4
10001e2a:	4169      	adcs	r1, r5
10001e2c:	bcb0      	pop	{r4, r5, r7}
10001e2e:	4770      	bx	lr
10001e30:	d0000000 	.word	0xd0000000

10001e34 <y64_x32>:
10001e34:	b5f0      	push	{r4, r5, r6, r7, lr}
10001e36:	4694      	mov	ip, r2
10001e38:	2500      	movs	r5, #0
10001e3a:	0e14      	lsrs	r4, r2, #24
10001e3c:	d101      	bne.n	10001e42 <y64_x32+0xe>
10001e3e:	0212      	lsls	r2, r2, #8
10001e40:	3508      	adds	r5, #8
10001e42:	0f14      	lsrs	r4, r2, #28
10001e44:	d101      	bne.n	10001e4a <y64_x32+0x16>
10001e46:	0112      	lsls	r2, r2, #4
10001e48:	3504      	adds	r5, #4
10001e4a:	0f94      	lsrs	r4, r2, #30
10001e4c:	d101      	bne.n	10001e52 <y64_x32+0x1e>
10001e4e:	0092      	lsls	r2, r2, #2
10001e50:	3502      	adds	r5, #2
10001e52:	0fd4      	lsrs	r4, r2, #31
10001e54:	d101      	bne.n	10001e5a <y64_x32+0x26>
10001e56:	0052      	lsls	r2, r2, #1
10001e58:	3501      	adds	r5, #1
10001e5a:	0bd4      	lsrs	r4, r2, #15
10001e5c:	3401      	adds	r4, #1
10001e5e:	4f25      	ldr	r7, [pc, #148]	; (10001ef4 <y64_x32+0xc0>)
10001e60:	667c      	str	r4, [r7, #100]	; 0x64
10001e62:	4c25      	ldr	r4, [pc, #148]	; (10001ef8 <y64_x32+0xc4>)
10001e64:	663c      	str	r4, [r7, #96]	; 0x60
10001e66:	0c0e      	lsrs	r6, r1, #16
10001e68:	b293      	uxth	r3, r2
10001e6a:	e7ff      	b.n	10001e6c <y64_x32+0x38>
10001e6c:	e7ff      	b.n	10001e6e <y64_x32+0x3a>
10001e6e:	e7ff      	b.n	10001e70 <y64_x32+0x3c>
10001e70:	6f3c      	ldr	r4, [r7, #112]	; 0x70
10001e72:	4366      	muls	r6, r4
10001e74:	0c36      	lsrs	r6, r6, #16
10001e76:	0377      	lsls	r7, r6, #13
10001e78:	46be      	mov	lr, r7
10001e7a:	4373      	muls	r3, r6
10001e7c:	0bdf      	lsrs	r7, r3, #15
10001e7e:	045b      	lsls	r3, r3, #17
10001e80:	1ac0      	subs	r0, r0, r3
10001e82:	41b9      	sbcs	r1, r7
10001e84:	0c13      	lsrs	r3, r2, #16
10001e86:	4373      	muls	r3, r6
10001e88:	18db      	adds	r3, r3, r3
10001e8a:	1ac9      	subs	r1, r1, r3
10001e8c:	08ce      	lsrs	r6, r1, #3
10001e8e:	4366      	muls	r6, r4
10001e90:	0c36      	lsrs	r6, r6, #16
10001e92:	44b6      	add	lr, r6
10001e94:	b293      	uxth	r3, r2
10001e96:	4373      	muls	r3, r6
10001e98:	0f1f      	lsrs	r7, r3, #28
10001e9a:	011b      	lsls	r3, r3, #4
10001e9c:	1ac0      	subs	r0, r0, r3
10001e9e:	41b9      	sbcs	r1, r7
10001ea0:	0c13      	lsrs	r3, r2, #16
10001ea2:	4373      	muls	r3, r6
10001ea4:	0b1f      	lsrs	r7, r3, #12
10001ea6:	051b      	lsls	r3, r3, #20
10001ea8:	1ac0      	subs	r0, r0, r3
10001eaa:	41b9      	sbcs	r1, r7
10001eac:	0d86      	lsrs	r6, r0, #22
10001eae:	028f      	lsls	r7, r1, #10
10001eb0:	433e      	orrs	r6, r7
10001eb2:	4366      	muls	r6, r4
10001eb4:	0c36      	lsrs	r6, r6, #16
10001eb6:	2d09      	cmp	r5, #9
10001eb8:	db24      	blt.n	10001f04 <last0>
10001eba:	0a52      	lsrs	r2, r2, #9
10001ebc:	4372      	muls	r2, r6
10001ebe:	1a80      	subs	r0, r0, r2
10001ec0:	0377      	lsls	r7, r6, #13
10001ec2:	0a46      	lsrs	r6, r0, #9
10001ec4:	4366      	muls	r6, r4
10001ec6:	0c36      	lsrs	r6, r6, #16
10001ec8:	2316      	movs	r3, #22
10001eca:	1b5b      	subs	r3, r3, r5
10001ecc:	40de      	lsrs	r6, r3
10001ece:	40df      	lsrs	r7, r3
10001ed0:	19bf      	adds	r7, r7, r6
10001ed2:	4664      	mov	r4, ip
10001ed4:	4366      	muls	r6, r4
10001ed6:	1b82      	subs	r2, r0, r6
10001ed8:	4670      	mov	r0, lr
10001eda:	3504      	adds	r5, #4
10001edc:	3306      	adds	r3, #6
10001ede:	0001      	movs	r1, r0
10001ee0:	40d9      	lsrs	r1, r3
10001ee2:	40a8      	lsls	r0, r5
10001ee4:	19c0      	adds	r0, r0, r7
10001ee6:	d300      	bcc.n	10001eea <y64_x32+0xb6>
10001ee8:	3101      	adds	r1, #1
10001eea:	42a2      	cmp	r2, r4
10001eec:	d206      	bcs.n	10001efc <y64_x32+0xc8>
10001eee:	2300      	movs	r3, #0
10001ef0:	bdf0      	pop	{r4, r5, r6, r7, pc}
10001ef2:	0000      	.short	0x0000
10001ef4:	d0000000 	.word	0xd0000000
10001ef8:	ffffffff 	.word	0xffffffff
10001efc:	1b12      	subs	r2, r2, r4
10001efe:	3001      	adds	r0, #1
10001f00:	d3f3      	bcc.n	10001eea <y64_x32+0xb6>
10001f02:	e7f1      	b.n	10001ee8 <y64_x32+0xb4>

10001f04 <last0>:
10001f04:	2709      	movs	r7, #9
10001f06:	1b7f      	subs	r7, r7, r5
10001f08:	40fe      	lsrs	r6, r7
10001f0a:	4664      	mov	r4, ip
10001f0c:	b2a2      	uxth	r2, r4
10001f0e:	4372      	muls	r2, r6
10001f10:	1a80      	subs	r0, r0, r2
10001f12:	d200      	bcs.n	10001f16 <last0+0x12>
10001f14:	3901      	subs	r1, #1
10001f16:	0c22      	lsrs	r2, r4, #16
10001f18:	4372      	muls	r2, r6
10001f1a:	0c13      	lsrs	r3, r2, #16
10001f1c:	0412      	lsls	r2, r2, #16
10001f1e:	1a82      	subs	r2, r0, r2
10001f20:	4199      	sbcs	r1, r3
10001f22:	000b      	movs	r3, r1
10001f24:	4670      	mov	r0, lr
10001f26:	3504      	adds	r5, #4
10001f28:	3713      	adds	r7, #19
10001f2a:	0001      	movs	r1, r0
10001f2c:	40f9      	lsrs	r1, r7
10001f2e:	40a8      	lsls	r0, r5
10001f30:	1980      	adds	r0, r0, r6
10001f32:	d300      	bcc.n	10001f36 <last0+0x32>
10001f34:	3101      	adds	r1, #1
10001f36:	2b00      	cmp	r3, #0
10001f38:	d102      	bne.n	10001f40 <last0+0x3c>
10001f3a:	42a2      	cmp	r2, r4
10001f3c:	d20a      	bcs.n	10001f54 <last0+0x50>
10001f3e:	bdf0      	pop	{r4, r5, r6, r7, pc}
10001f40:	3001      	adds	r0, #1
10001f42:	d300      	bcc.n	10001f46 <last0+0x42>
10001f44:	3101      	adds	r1, #1
10001f46:	1b12      	subs	r2, r2, r4
10001f48:	d2fa      	bcs.n	10001f40 <last0+0x3c>
10001f4a:	3b01      	subs	r3, #1
10001f4c:	d1f8      	bne.n	10001f40 <last0+0x3c>
10001f4e:	42a2      	cmp	r2, r4
10001f50:	d200      	bcs.n	10001f54 <last0+0x50>
10001f52:	bdf0      	pop	{r4, r5, r6, r7, pc}
10001f54:	3001      	adds	r0, #1
10001f56:	d300      	bcc.n	10001f5a <last0+0x56>
10001f58:	3101      	adds	r1, #1
10001f5a:	1b12      	subs	r2, r2, r4
10001f5c:	e7f7      	b.n	10001f4e <last0+0x4a>

10001f5e <y64_x48>:
10001f5e:	b5f0      	push	{r4, r5, r6, r7, lr}
10001f60:	0c1c      	lsrs	r4, r3, #16
10001f62:	d000      	beq.n	10001f66 <y64_x48+0x8>
10001f64:	e080      	b.n	10002068 <y64_x64>
10001f66:	b40c      	push	{r2, r3}
10001f68:	2500      	movs	r5, #0
10001f6a:	0a1c      	lsrs	r4, r3, #8
10001f6c:	d104      	bne.n	10001f78 <y64_x48+0x1a>
10001f6e:	021b      	lsls	r3, r3, #8
10001f70:	0e16      	lsrs	r6, r2, #24
10001f72:	4333      	orrs	r3, r6
10001f74:	0212      	lsls	r2, r2, #8
10001f76:	3508      	adds	r5, #8
10001f78:	0b1c      	lsrs	r4, r3, #12
10001f7a:	d104      	bne.n	10001f86 <y64_x48+0x28>
10001f7c:	011b      	lsls	r3, r3, #4
10001f7e:	0f16      	lsrs	r6, r2, #28
10001f80:	4333      	orrs	r3, r6
10001f82:	0112      	lsls	r2, r2, #4
10001f84:	3504      	adds	r5, #4
10001f86:	0b9c      	lsrs	r4, r3, #14
10001f88:	d104      	bne.n	10001f94 <y64_x48+0x36>
10001f8a:	009b      	lsls	r3, r3, #2
10001f8c:	0f96      	lsrs	r6, r2, #30
10001f8e:	4333      	orrs	r3, r6
10001f90:	0092      	lsls	r2, r2, #2
10001f92:	3502      	adds	r5, #2
10001f94:	0bdc      	lsrs	r4, r3, #15
10001f96:	d102      	bne.n	10001f9e <y64_x48+0x40>
10001f98:	1892      	adds	r2, r2, r2
10001f9a:	415b      	adcs	r3, r3
10001f9c:	3501      	adds	r5, #1
10001f9e:	001c      	movs	r4, r3
10001fa0:	1897      	adds	r7, r2, r2
10001fa2:	4164      	adcs	r4, r4
10001fa4:	3401      	adds	r4, #1
10001fa6:	4f46      	ldr	r7, [pc, #280]	; (100020c0 <y64_x64+0x58>)
10001fa8:	667c      	str	r4, [r7, #100]	; 0x64
10001faa:	4c46      	ldr	r4, [pc, #280]	; (100020c4 <y64_x64+0x5c>)
10001fac:	663c      	str	r4, [r7, #96]	; 0x60
10001fae:	0c0e      	lsrs	r6, r1, #16
10001fb0:	e7ff      	b.n	10001fb2 <y64_x48+0x54>
10001fb2:	e7ff      	b.n	10001fb4 <y64_x48+0x56>
10001fb4:	e7ff      	b.n	10001fb6 <y64_x48+0x58>
10001fb6:	46c0      	nop			; (mov r8, r8)
10001fb8:	6f3c      	ldr	r4, [r7, #112]	; 0x70
10001fba:	4366      	muls	r6, r4
10001fbc:	0c36      	lsrs	r6, r6, #16
10001fbe:	0377      	lsls	r7, r6, #13
10001fc0:	46be      	mov	lr, r7
10001fc2:	b297      	uxth	r7, r2
10001fc4:	4377      	muls	r7, r6
10001fc6:	1bc0      	subs	r0, r0, r7
10001fc8:	d200      	bcs.n	10001fcc <y64_x48+0x6e>
10001fca:	3901      	subs	r1, #1
10001fcc:	1bc0      	subs	r0, r0, r7
10001fce:	d200      	bcs.n	10001fd2 <y64_x48+0x74>
10001fd0:	3901      	subs	r1, #1
10001fd2:	b29f      	uxth	r7, r3
10001fd4:	4377      	muls	r7, r6
10001fd6:	1bc9      	subs	r1, r1, r7
10001fd8:	1bc9      	subs	r1, r1, r7
10001fda:	0c17      	lsrs	r7, r2, #16
10001fdc:	4377      	muls	r7, r6
10001fde:	047e      	lsls	r6, r7, #17
10001fe0:	0bff      	lsrs	r7, r7, #15
10001fe2:	1b80      	subs	r0, r0, r6
10001fe4:	41b9      	sbcs	r1, r7
10001fe6:	08ce      	lsrs	r6, r1, #3
10001fe8:	4366      	muls	r6, r4
10001fea:	0c36      	lsrs	r6, r6, #16
10001fec:	2d0c      	cmp	r5, #12
10001fee:	db33      	blt.n	10002058 <last1>
10001ff0:	44b6      	add	lr, r6
10001ff2:	0b12      	lsrs	r2, r2, #12
10001ff4:	051f      	lsls	r7, r3, #20
10001ff6:	433a      	orrs	r2, r7
10001ff8:	0b1b      	lsrs	r3, r3, #12
10001ffa:	b297      	uxth	r7, r2
10001ffc:	4377      	muls	r7, r6
10001ffe:	1bc0      	subs	r0, r0, r7
10002000:	d200      	bcs.n	10002004 <y64_x48+0xa6>
10002002:	3901      	subs	r1, #1
10002004:	b29f      	uxth	r7, r3
10002006:	4377      	muls	r7, r6
10002008:	1bc9      	subs	r1, r1, r7
1000200a:	0c17      	lsrs	r7, r2, #16
1000200c:	4377      	muls	r7, r6
1000200e:	043e      	lsls	r6, r7, #16
10002010:	0c3f      	lsrs	r7, r7, #16
10002012:	1b80      	subs	r0, r0, r6
10002014:	41b9      	sbcs	r1, r7
10002016:	0d86      	lsrs	r6, r0, #22
10002018:	028f      	lsls	r7, r1, #10
1000201a:	433e      	orrs	r6, r7
1000201c:	4366      	muls	r6, r4
1000201e:	2729      	movs	r7, #41	; 0x29
10002020:	1b7f      	subs	r7, r7, r5
10002022:	40fe      	lsrs	r6, r7
10002024:	3d0c      	subs	r5, #12
10002026:	4677      	mov	r7, lr
10002028:	40af      	lsls	r7, r5
1000202a:	19bf      	adds	r7, r7, r6
1000202c:	bc30      	pop	{r4, r5}
1000202e:	b2a2      	uxth	r2, r4
10002030:	b2ab      	uxth	r3, r5
10002032:	4372      	muls	r2, r6
10002034:	4373      	muls	r3, r6
10002036:	1a80      	subs	r0, r0, r2
10002038:	4199      	sbcs	r1, r3
1000203a:	0c22      	lsrs	r2, r4, #16
1000203c:	4372      	muls	r2, r6
1000203e:	0c13      	lsrs	r3, r2, #16
10002040:	0412      	lsls	r2, r2, #16
10002042:	1a80      	subs	r0, r0, r2
10002044:	4199      	sbcs	r1, r3
10002046:	0002      	movs	r2, r0
10002048:	000b      	movs	r3, r1
1000204a:	3701      	adds	r7, #1
1000204c:	1b00      	subs	r0, r0, r4
1000204e:	41a9      	sbcs	r1, r5
10002050:	d2f9      	bcs.n	10002046 <y64_x48+0xe8>
10002052:	1e78      	subs	r0, r7, #1
10002054:	2100      	movs	r1, #0
10002056:	bdf0      	pop	{r4, r5, r6, r7, pc}

10002058 <last1>:
10002058:	270c      	movs	r7, #12
1000205a:	1b7f      	subs	r7, r7, r5
1000205c:	40fe      	lsrs	r6, r7
1000205e:	4677      	mov	r7, lr
10002060:	0b7f      	lsrs	r7, r7, #13
10002062:	40af      	lsls	r7, r5
10002064:	19ff      	adds	r7, r7, r7
10002066:	e7e0      	b.n	1000202a <y64_x48+0xcc>

10002068 <y64_x64>:
10002068:	2400      	movs	r4, #0
1000206a:	1c5d      	adds	r5, r3, #1
1000206c:	d007      	beq.n	1000207e <y64_x64+0x16>
1000206e:	4f14      	ldr	r7, [pc, #80]	; (100020c0 <y64_x64+0x58>)
10002070:	667d      	str	r5, [r7, #100]	; 0x64
10002072:	6639      	str	r1, [r7, #96]	; 0x60
10002074:	e7ff      	b.n	10002076 <y64_x64+0xe>
10002076:	e7ff      	b.n	10002078 <y64_x64+0x10>
10002078:	e7ff      	b.n	1000207a <y64_x64+0x12>
1000207a:	e7ff      	b.n	1000207c <y64_x64+0x14>
1000207c:	6f3c      	ldr	r4, [r7, #112]	; 0x70
1000207e:	b295      	uxth	r5, r2
10002080:	b29e      	uxth	r6, r3
10002082:	4365      	muls	r5, r4
10002084:	4366      	muls	r6, r4
10002086:	1b40      	subs	r0, r0, r5
10002088:	41b1      	sbcs	r1, r6
1000208a:	0c15      	lsrs	r5, r2, #16
1000208c:	0c1e      	lsrs	r6, r3, #16
1000208e:	4365      	muls	r5, r4
10002090:	4366      	muls	r6, r4
10002092:	0436      	lsls	r6, r6, #16
10002094:	0c2f      	lsrs	r7, r5, #16
10002096:	433e      	orrs	r6, r7
10002098:	042d      	lsls	r5, r5, #16
1000209a:	1b40      	subs	r0, r0, r5
1000209c:	41b1      	sbcs	r1, r6
1000209e:	4299      	cmp	r1, r3
100020a0:	d204      	bcs.n	100020ac <y64_x64+0x44>
100020a2:	0002      	movs	r2, r0
100020a4:	000b      	movs	r3, r1
100020a6:	0020      	movs	r0, r4
100020a8:	2100      	movs	r1, #0
100020aa:	bdf0      	pop	{r4, r5, r6, r7, pc}
100020ac:	d101      	bne.n	100020b2 <y64_x64+0x4a>
100020ae:	4290      	cmp	r0, r2
100020b0:	d3f7      	bcc.n	100020a2 <y64_x64+0x3a>
100020b2:	1a80      	subs	r0, r0, r2
100020b4:	4199      	sbcs	r1, r3
100020b6:	3401      	adds	r4, #1
100020b8:	4299      	cmp	r1, r3
100020ba:	d3f2      	bcc.n	100020a2 <y64_x64+0x3a>
100020bc:	e7f6      	b.n	100020ac <y64_x64+0x44>
100020be:	0000      	.short	0x0000
100020c0:	d0000000 	.word	0xd0000000
100020c4:	ffffffff 	.word	0xffffffff

100020c8 <__aeabi_double_init>:
100020c8:	2313      	movs	r3, #19
100020ca:	b570      	push	{r4, r5, r6, lr}
100020cc:	781d      	ldrb	r5, [r3, #0]
100020ce:	2d01      	cmp	r5, #1
100020d0:	d010      	beq.n	100020f4 <__aeabi_double_init+0x2c>
100020d2:	dd0b      	ble.n	100020ec <__aeabi_double_init+0x24>
100020d4:	4824      	ldr	r0, [pc, #144]	; (10002168 <__aeabi_double_init+0xa0>)
100020d6:	f7ff fd8f 	bl	10001bf8 <rom_data_lookup>
100020da:	4c24      	ldr	r4, [pc, #144]	; (1000216c <__aeabi_double_init+0xa4>)
100020dc:	0001      	movs	r1, r0
100020de:	2280      	movs	r2, #128	; 0x80
100020e0:	0020      	movs	r0, r4
100020e2:	f000 f8d5 	bl	10002290 <__wrap___aeabi_memcpy>
100020e6:	2d02      	cmp	r5, #2
100020e8:	d001      	beq.n	100020ee <__aeabi_double_init+0x26>
100020ea:	bd70      	pop	{r4, r5, r6, pc}
100020ec:	4c1f      	ldr	r4, [pc, #124]	; (1000216c <__aeabi_double_init+0xa4>)
100020ee:	4a20      	ldr	r2, [pc, #128]	; (10002170 <__aeabi_double_init+0xa8>)
100020f0:	64a2      	str	r2, [r4, #72]	; 0x48
100020f2:	e7fa      	b.n	100020ea <__aeabi_double_init+0x22>
100020f4:	002e      	movs	r6, r5
100020f6:	4c1d      	ldr	r4, [pc, #116]	; (1000216c <__aeabi_double_init+0xa4>)
100020f8:	4a1d      	ldr	r2, [pc, #116]	; (10002170 <__aeabi_double_init+0xa8>)
100020fa:	08a3      	lsrs	r3, r4, #2
100020fc:	425b      	negs	r3, r3
100020fe:	401e      	ands	r6, r3
10002100:	421d      	tst	r5, r3
10002102:	d02f      	beq.n	10002164 <__aeabi_double_init+0x9c>
10002104:	0033      	movs	r3, r6
10002106:	6022      	str	r2, [r4, #0]
10002108:	2020      	movs	r0, #32
1000210a:	00b1      	lsls	r1, r6, #2
1000210c:	1861      	adds	r1, r4, r1
1000210e:	1b80      	subs	r0, r0, r6
10002110:	600a      	str	r2, [r1, #0]
10002112:	604a      	str	r2, [r1, #4]
10002114:	608a      	str	r2, [r1, #8]
10002116:	60ca      	str	r2, [r1, #12]
10002118:	610a      	str	r2, [r1, #16]
1000211a:	614a      	str	r2, [r1, #20]
1000211c:	618a      	str	r2, [r1, #24]
1000211e:	61ca      	str	r2, [r1, #28]
10002120:	620a      	str	r2, [r1, #32]
10002122:	624a      	str	r2, [r1, #36]	; 0x24
10002124:	628a      	str	r2, [r1, #40]	; 0x28
10002126:	62ca      	str	r2, [r1, #44]	; 0x2c
10002128:	630a      	str	r2, [r1, #48]	; 0x30
1000212a:	634a      	str	r2, [r1, #52]	; 0x34
1000212c:	638a      	str	r2, [r1, #56]	; 0x38
1000212e:	63ca      	str	r2, [r1, #60]	; 0x3c
10002130:	640a      	str	r2, [r1, #64]	; 0x40
10002132:	644a      	str	r2, [r1, #68]	; 0x44
10002134:	648a      	str	r2, [r1, #72]	; 0x48
10002136:	64ca      	str	r2, [r1, #76]	; 0x4c
10002138:	650a      	str	r2, [r1, #80]	; 0x50
1000213a:	654a      	str	r2, [r1, #84]	; 0x54
1000213c:	658a      	str	r2, [r1, #88]	; 0x58
1000213e:	65ca      	str	r2, [r1, #92]	; 0x5c
10002140:	660a      	str	r2, [r1, #96]	; 0x60
10002142:	664a      	str	r2, [r1, #100]	; 0x64
10002144:	668a      	str	r2, [r1, #104]	; 0x68
10002146:	66ca      	str	r2, [r1, #108]	; 0x6c
10002148:	670a      	str	r2, [r1, #112]	; 0x70
1000214a:	674a      	str	r2, [r1, #116]	; 0x74
1000214c:	0840      	lsrs	r0, r0, #1
1000214e:	2810      	cmp	r0, #16
10002150:	d103      	bne.n	1000215a <__aeabi_double_init+0x92>
10002152:	678a      	str	r2, [r1, #120]	; 0x78
10002154:	67ca      	str	r2, [r1, #124]	; 0x7c
10002156:	64a2      	str	r2, [r4, #72]	; 0x48
10002158:	e7c7      	b.n	100020ea <__aeabi_double_init+0x22>
1000215a:	331e      	adds	r3, #30
1000215c:	009b      	lsls	r3, r3, #2
1000215e:	50e2      	str	r2, [r4, r3]
10002160:	64a2      	str	r2, [r4, #72]	; 0x48
10002162:	e7c2      	b.n	100020ea <__aeabi_double_init+0x22>
10002164:	2300      	movs	r3, #0
10002166:	e7cf      	b.n	10002108 <__aeabi_double_init+0x40>
10002168:	00004453 	.word	0x00004453
1000216c:	20001424 	.word	0x20001424
10002170:	10002175 	.word	0x10002175

10002174 <double_table_shim_on_use_helper>:
10002174:	b507      	push	{r0, r1, r2, lr}
10002176:	4660      	mov	r0, ip
10002178:	8801      	ldrh	r1, [r0, #0]
1000217a:	0a0a      	lsrs	r2, r1, #8
1000217c:	3002      	adds	r0, #2
1000217e:	2adf      	cmp	r2, #223	; 0xdf
10002180:	d1fa      	bne.n	10002178 <double_table_shim_on_use_helper+0x4>
10002182:	b2c9      	uxtb	r1, r1
10002184:	0882      	lsrs	r2, r0, #2
10002186:	d304      	bcc.n	10002192 <double_table_shim_on_use_helper+0x1e>
10002188:	8802      	ldrh	r2, [r0, #0]
1000218a:	8840      	ldrh	r0, [r0, #2]
1000218c:	0400      	lsls	r0, r0, #16
1000218e:	4310      	orrs	r0, r2
10002190:	e000      	b.n	10002194 <double_table_shim_on_use_helper+0x20>
10002192:	6800      	ldr	r0, [r0, #0]
10002194:	4a01      	ldr	r2, [pc, #4]	; (1000219c <double_table_shim_on_use_helper+0x28>)
10002196:	5050      	str	r0, [r2, r1]
10002198:	9003      	str	r0, [sp, #12]
1000219a:	bd07      	pop	{r0, r1, r2, pc}
1000219c:	20001424 	.word	0x20001424

100021a0 <__wrap___aeabi_lmul>:
100021a0:	4351      	muls	r1, r2
100021a2:	4343      	muls	r3, r0
100021a4:	18c9      	adds	r1, r1, r3
100021a6:	468c      	mov	ip, r1
100021a8:	0c11      	lsrs	r1, r2, #16
100021aa:	b283      	uxth	r3, r0
100021ac:	434b      	muls	r3, r1
100021ae:	b410      	push	{r4}
100021b0:	0c04      	lsrs	r4, r0, #16
100021b2:	4361      	muls	r1, r4
100021b4:	b292      	uxth	r2, r2
100021b6:	b280      	uxth	r0, r0
100021b8:	4350      	muls	r0, r2
100021ba:	4362      	muls	r2, r4
100021bc:	041c      	lsls	r4, r3, #16
100021be:	0c1b      	lsrs	r3, r3, #16
100021c0:	1900      	adds	r0, r0, r4
100021c2:	bc10      	pop	{r4}
100021c4:	4159      	adcs	r1, r3
100021c6:	0413      	lsls	r3, r2, #16
100021c8:	0c12      	lsrs	r2, r2, #16
100021ca:	18c0      	adds	r0, r0, r3
100021cc:	4151      	adcs	r1, r2
100021ce:	4461      	add	r1, ip
100021d0:	4770      	bx	lr
	...

100021d4 <__aeabi_float_init>:
100021d4:	2313      	movs	r3, #19
100021d6:	b510      	push	{r4, lr}
100021d8:	4812      	ldr	r0, [pc, #72]	; (10002224 <__aeabi_float_init+0x50>)
100021da:	781c      	ldrb	r4, [r3, #0]
100021dc:	f7ff fd0c 	bl	10001bf8 <rom_data_lookup>
100021e0:	0001      	movs	r1, r0
100021e2:	2c01      	cmp	r4, #1
100021e4:	d00a      	beq.n	100021fc <__aeabi_float_init+0x28>
100021e6:	dd03      	ble.n	100021f0 <__aeabi_float_init+0x1c>
100021e8:	2280      	movs	r2, #128	; 0x80
100021ea:	480f      	ldr	r0, [pc, #60]	; (10002228 <__aeabi_float_init+0x54>)
100021ec:	f000 f850 	bl	10002290 <__wrap___aeabi_memcpy>
100021f0:	480e      	ldr	r0, [pc, #56]	; (1000222c <__aeabi_float_init+0x58>)
100021f2:	f7ff fcf9 	bl	10001be8 <rom_func_lookup>
100021f6:	4b0e      	ldr	r3, [pc, #56]	; (10002230 <__aeabi_float_init+0x5c>)
100021f8:	6018      	str	r0, [r3, #0]
100021fa:	bd10      	pop	{r4, pc}
100021fc:	4c0a      	ldr	r4, [pc, #40]	; (10002228 <__aeabi_float_init+0x54>)
100021fe:	2254      	movs	r2, #84	; 0x54
10002200:	0020      	movs	r0, r4
10002202:	f000 f845 	bl	10002290 <__wrap___aeabi_memcpy>
10002206:	4b0b      	ldr	r3, [pc, #44]	; (10002234 <__aeabi_float_init+0x60>)
10002208:	6563      	str	r3, [r4, #84]	; 0x54
1000220a:	65a3      	str	r3, [r4, #88]	; 0x58
1000220c:	65e3      	str	r3, [r4, #92]	; 0x5c
1000220e:	6623      	str	r3, [r4, #96]	; 0x60
10002210:	6663      	str	r3, [r4, #100]	; 0x64
10002212:	66a3      	str	r3, [r4, #104]	; 0x68
10002214:	66e3      	str	r3, [r4, #108]	; 0x6c
10002216:	6723      	str	r3, [r4, #112]	; 0x70
10002218:	6763      	str	r3, [r4, #116]	; 0x74
1000221a:	67a3      	str	r3, [r4, #120]	; 0x78
1000221c:	67e3      	str	r3, [r4, #124]	; 0x7c
1000221e:	6223      	str	r3, [r4, #32]
10002220:	61e3      	str	r3, [r4, #28]
10002222:	e7e5      	b.n	100021f0 <__aeabi_float_init+0x1c>
10002224:	00004653 	.word	0x00004653
10002228:	20001524 	.word	0x20001524
1000222c:	0000334c 	.word	0x0000334c
10002230:	20001624 	.word	0x20001624
10002234:	10002239 	.word	0x10002239

10002238 <float_table_shim_on_use_helper>:
10002238:	b507      	push	{r0, r1, r2, lr}
1000223a:	4660      	mov	r0, ip
1000223c:	8801      	ldrh	r1, [r0, #0]
1000223e:	0a0a      	lsrs	r2, r1, #8
10002240:	3002      	adds	r0, #2
10002242:	2adf      	cmp	r2, #223	; 0xdf
10002244:	d1fa      	bne.n	1000223c <float_table_shim_on_use_helper+0x4>
10002246:	b2c9      	uxtb	r1, r1
10002248:	0882      	lsrs	r2, r0, #2
1000224a:	d304      	bcc.n	10002256 <float_table_shim_on_use_helper+0x1e>
1000224c:	8802      	ldrh	r2, [r0, #0]
1000224e:	8840      	ldrh	r0, [r0, #2]
10002250:	0400      	lsls	r0, r0, #16
10002252:	4310      	orrs	r0, r2
10002254:	e000      	b.n	10002258 <float_table_shim_on_use_helper+0x20>
10002256:	6800      	ldr	r0, [r0, #0]
10002258:	4a01      	ldr	r2, [pc, #4]	; (10002260 <float_table_shim_on_use_helper+0x28>)
1000225a:	5050      	str	r0, [r2, r1]
1000225c:	9003      	str	r0, [sp, #12]
1000225e:	bd07      	pop	{r0, r1, r2, pc}
10002260:	20001524 	.word	0x20001524

10002264 <__wrap_malloc>:
10002264:	b510      	push	{r4, lr}
10002266:	f001 fe3f 	bl	10003ee8 <malloc>
1000226a:	bd10      	pop	{r4, pc}

1000226c <__wrap_calloc>:
1000226c:	b510      	push	{r4, lr}
1000226e:	f001 fe01 	bl	10003e74 <calloc>
10002272:	bd10      	pop	{r4, pc}

10002274 <__aeabi_mem_init>:
10002274:	4801      	ldr	r0, [pc, #4]	; (1000227c <__aeabi_mem_init+0x8>)
10002276:	2104      	movs	r1, #4
10002278:	4b01      	ldr	r3, [pc, #4]	; (10002280 <__aeabi_mem_init+0xc>)
1000227a:	4718      	bx	r3
1000227c:	200002c0 	.word	0x200002c0
10002280:	10001c09 	.word	0x10001c09

10002284 <__wrap_memset>:
10002284:	4b01      	ldr	r3, [pc, #4]	; (1000228c <__wrap_memset+0x8>)
10002286:	681b      	ldr	r3, [r3, #0]
10002288:	4718      	bx	r3
1000228a:	0000      	.short	0x0000
1000228c:	200002c0 	.word	0x200002c0

10002290 <__wrap___aeabi_memcpy>:
10002290:	4b01      	ldr	r3, [pc, #4]	; (10002298 <__wrap___aeabi_memcpy+0x8>)
10002292:	685b      	ldr	r3, [r3, #4]
10002294:	4718      	bx	r3
10002296:	0000      	.short	0x0000
10002298:	200002c0 	.word	0x200002c0

1000229c <stdio_out_chars_crlf.part.0>:
1000229c:	b5f8      	push	{r3, r4, r5, r6, r7, lr}
1000229e:	4647      	mov	r7, r8
100022a0:	46ce      	mov	lr, r9
100022a2:	000d      	movs	r5, r1
100022a4:	b580      	push	{r7, lr}
100022a6:	0016      	movs	r6, r2
100022a8:	0007      	movs	r7, r0
100022aa:	2a00      	cmp	r2, #0
100022ac:	dd20      	ble.n	100022f0 <stdio_out_chars_crlf.part.0+0x54>
100022ae:	1e4b      	subs	r3, r1, #1
100022b0:	4698      	mov	r8, r3
100022b2:	4b1a      	ldr	r3, [pc, #104]	; (1000231c <stdio_out_chars_crlf.part.0+0x80>)
100022b4:	2400      	movs	r4, #0
100022b6:	2000      	movs	r0, #0
100022b8:	4699      	mov	r9, r3
100022ba:	2c00      	cmp	r4, #0
100022bc:	d02b      	beq.n	10002316 <stdio_out_chars_crlf.part.0+0x7a>
100022be:	4643      	mov	r3, r8
100022c0:	5d1b      	ldrb	r3, [r3, r4]
100022c2:	3b0d      	subs	r3, #13
100022c4:	425a      	negs	r2, r3
100022c6:	4153      	adcs	r3, r2
100022c8:	b2db      	uxtb	r3, r3
100022ca:	5d2a      	ldrb	r2, [r5, r4]
100022cc:	2a0a      	cmp	r2, #10
100022ce:	d013      	beq.n	100022f8 <stdio_out_chars_crlf.part.0+0x5c>
100022d0:	3401      	adds	r4, #1
100022d2:	42a6      	cmp	r6, r4
100022d4:	dcf1      	bgt.n	100022ba <stdio_out_chars_crlf.part.0+0x1e>
100022d6:	4286      	cmp	r6, r0
100022d8:	dd03      	ble.n	100022e2 <stdio_out_chars_crlf.part.0+0x46>
100022da:	1a31      	subs	r1, r6, r0
100022dc:	683b      	ldr	r3, [r7, #0]
100022de:	1828      	adds	r0, r5, r0
100022e0:	4798      	blx	r3
100022e2:	19ad      	adds	r5, r5, r6
100022e4:	3d01      	subs	r5, #1
100022e6:	782b      	ldrb	r3, [r5, #0]
100022e8:	3b0d      	subs	r3, #13
100022ea:	425a      	negs	r2, r3
100022ec:	4153      	adcs	r3, r2
100022ee:	743b      	strb	r3, [r7, #16]
100022f0:	bc0c      	pop	{r2, r3}
100022f2:	4690      	mov	r8, r2
100022f4:	4699      	mov	r9, r3
100022f6:	bdf8      	pop	{r3, r4, r5, r6, r7, pc}
100022f8:	2b00      	cmp	r3, #0
100022fa:	d1e9      	bne.n	100022d0 <stdio_out_chars_crlf.part.0+0x34>
100022fc:	42a0      	cmp	r0, r4
100022fe:	da03      	bge.n	10002308 <stdio_out_chars_crlf.part.0+0x6c>
10002300:	1a21      	subs	r1, r4, r0
10002302:	683b      	ldr	r3, [r7, #0]
10002304:	1828      	adds	r0, r5, r0
10002306:	4798      	blx	r3
10002308:	4648      	mov	r0, r9
1000230a:	2102      	movs	r1, #2
1000230c:	683b      	ldr	r3, [r7, #0]
1000230e:	3401      	adds	r4, #1
10002310:	4798      	blx	r3
10002312:	0020      	movs	r0, r4
10002314:	e7dd      	b.n	100022d2 <stdio_out_chars_crlf.part.0+0x36>
10002316:	7c3b      	ldrb	r3, [r7, #16]
10002318:	e7d7      	b.n	100022ca <stdio_out_chars_crlf.part.0+0x2e>
1000231a:	46c0      	nop			; (mov r8, r8)
1000231c:	10004984 	.word	0x10004984

10002320 <stdio_put_string>:
10002320:	b5f0      	push	{r4, r5, r6, r7, lr}
10002322:	4657      	mov	r7, sl
10002324:	4645      	mov	r5, r8
10002326:	46de      	mov	lr, fp
10002328:	464e      	mov	r6, r9
1000232a:	23d0      	movs	r3, #208	; 0xd0
1000232c:	b5e0      	push	{r5, r6, r7, lr}
1000232e:	061b      	lsls	r3, r3, #24
10002330:	681c      	ldr	r4, [r3, #0]
10002332:	4b37      	ldr	r3, [pc, #220]	; (10002410 <stdio_put_string+0xf0>)
10002334:	b083      	sub	sp, #12
10002336:	0007      	movs	r7, r0
10002338:	000d      	movs	r5, r1
1000233a:	0018      	movs	r0, r3
1000233c:	a901      	add	r1, sp, #4
1000233e:	4690      	mov	r8, r2
10002340:	469a      	mov	sl, r3
10002342:	f002 fa39 	bl	100047b8 <__mutex_try_enter_veneer>
10002346:	4681      	mov	r9, r0
10002348:	2800      	cmp	r0, #0
1000234a:	d107      	bne.n	1000235c <stdio_put_string+0x3c>
1000234c:	9b01      	ldr	r3, [sp, #4]
1000234e:	429c      	cmp	r4, r3
10002350:	d004      	beq.n	1000235c <stdio_put_string+0x3c>
10002352:	4650      	mov	r0, sl
10002354:	f002 fa40 	bl	100047d8 <__mutex_enter_blocking_veneer>
10002358:	2301      	movs	r3, #1
1000235a:	4699      	mov	r9, r3
1000235c:	1c6b      	adds	r3, r5, #1
1000235e:	d103      	bne.n	10002368 <stdio_put_string+0x48>
10002360:	0038      	movs	r0, r7
10002362:	f002 f8ad 	bl	100044c0 <strlen>
10002366:	0005      	movs	r5, r0
10002368:	4b2a      	ldr	r3, [pc, #168]	; (10002414 <stdio_put_string+0xf4>)
1000236a:	681c      	ldr	r4, [r3, #0]
1000236c:	2c00      	cmp	r4, #0
1000236e:	d02f      	beq.n	100023d0 <stdio_put_string+0xb0>
10002370:	230a      	movs	r3, #10
10002372:	4e29      	ldr	r6, [pc, #164]	; (10002418 <stdio_put_string+0xf8>)
10002374:	469b      	mov	fp, r3
10002376:	e002      	b.n	1000237e <stdio_put_string+0x5e>
10002378:	68e4      	ldr	r4, [r4, #12]
1000237a:	2c00      	cmp	r4, #0
1000237c:	d028      	beq.n	100023d0 <stdio_put_string+0xb0>
1000237e:	6822      	ldr	r2, [r4, #0]
10002380:	2a00      	cmp	r2, #0
10002382:	d0f9      	beq.n	10002378 <stdio_put_string+0x58>
10002384:	6833      	ldr	r3, [r6, #0]
10002386:	2b00      	cmp	r3, #0
10002388:	d001      	beq.n	1000238e <stdio_put_string+0x6e>
1000238a:	42a3      	cmp	r3, r4
1000238c:	d1f4      	bne.n	10002378 <stdio_put_string+0x58>
1000238e:	7c63      	ldrb	r3, [r4, #17]
10002390:	2b00      	cmp	r3, #0
10002392:	d02a      	beq.n	100023ea <stdio_put_string+0xca>
10002394:	002a      	movs	r2, r5
10002396:	0039      	movs	r1, r7
10002398:	0020      	movs	r0, r4
1000239a:	f7ff ff7f 	bl	1000229c <stdio_out_chars_crlf.part.0>
1000239e:	4643      	mov	r3, r8
100023a0:	2b00      	cmp	r3, #0
100023a2:	d0e9      	beq.n	10002378 <stdio_put_string+0x58>
100023a4:	466b      	mov	r3, sp
100023a6:	465a      	mov	r2, fp
100023a8:	711a      	strb	r2, [r3, #4]
100023aa:	7c63      	ldrb	r3, [r4, #17]
100023ac:	2b00      	cmp	r3, #0
100023ae:	d020      	beq.n	100023f2 <stdio_put_string+0xd2>
100023b0:	7c23      	ldrb	r3, [r4, #16]
100023b2:	2b00      	cmp	r3, #0
100023b4:	d026      	beq.n	10002404 <stdio_put_string+0xe4>
100023b6:	2101      	movs	r1, #1
100023b8:	6823      	ldr	r3, [r4, #0]
100023ba:	a801      	add	r0, sp, #4
100023bc:	4798      	blx	r3
100023be:	466b      	mov	r3, sp
100023c0:	791b      	ldrb	r3, [r3, #4]
100023c2:	3b0d      	subs	r3, #13
100023c4:	425a      	negs	r2, r3
100023c6:	4153      	adcs	r3, r2
100023c8:	7423      	strb	r3, [r4, #16]
100023ca:	68e4      	ldr	r4, [r4, #12]
100023cc:	2c00      	cmp	r4, #0
100023ce:	d1d6      	bne.n	1000237e <stdio_put_string+0x5e>
100023d0:	464b      	mov	r3, r9
100023d2:	2b00      	cmp	r3, #0
100023d4:	d112      	bne.n	100023fc <stdio_put_string+0xdc>
100023d6:	1e68      	subs	r0, r5, #1
100023d8:	4185      	sbcs	r5, r0
100023da:	b2e8      	uxtb	r0, r5
100023dc:	b003      	add	sp, #12
100023de:	bc3c      	pop	{r2, r3, r4, r5}
100023e0:	4690      	mov	r8, r2
100023e2:	4699      	mov	r9, r3
100023e4:	46a2      	mov	sl, r4
100023e6:	46ab      	mov	fp, r5
100023e8:	bdf0      	pop	{r4, r5, r6, r7, pc}
100023ea:	0029      	movs	r1, r5
100023ec:	0038      	movs	r0, r7
100023ee:	4790      	blx	r2
100023f0:	e7d5      	b.n	1000239e <stdio_put_string+0x7e>
100023f2:	2101      	movs	r1, #1
100023f4:	6823      	ldr	r3, [r4, #0]
100023f6:	a801      	add	r0, sp, #4
100023f8:	4798      	blx	r3
100023fa:	e7bd      	b.n	10002378 <stdio_put_string+0x58>
100023fc:	4650      	mov	r0, sl
100023fe:	f002 f9c3 	bl	10004788 <__mutex_exit_veneer>
10002402:	e7e8      	b.n	100023d6 <stdio_put_string+0xb6>
10002404:	2102      	movs	r1, #2
10002406:	4805      	ldr	r0, [pc, #20]	; (1000241c <stdio_put_string+0xfc>)
10002408:	6823      	ldr	r3, [r4, #0]
1000240a:	4798      	blx	r3
1000240c:	e7d7      	b.n	100023be <stdio_put_string+0x9e>
1000240e:	46c0      	nop			; (mov r8, r8)
10002410:	20000b48 	.word	0x20000b48
10002414:	20000d60 	.word	0x20000d60
10002418:	20000d64 	.word	0x20000d64
1000241c:	10004984 	.word	0x10004984

10002420 <__wrap_putchar>:
10002420:	b510      	push	{r4, lr}
10002422:	b082      	sub	sp, #8
10002424:	466b      	mov	r3, sp
10002426:	0004      	movs	r4, r0
10002428:	2200      	movs	r2, #0
1000242a:	1dd8      	adds	r0, r3, #7
1000242c:	2101      	movs	r1, #1
1000242e:	7004      	strb	r4, [r0, #0]
10002430:	f7ff ff76 	bl	10002320 <stdio_put_string>
10002434:	0020      	movs	r0, r4
10002436:	b002      	add	sp, #8
10002438:	bd10      	pop	{r4, pc}
1000243a:	46c0      	nop			; (mov r8, r8)

1000243c <__wrap_puts>:
1000243c:	b570      	push	{r4, r5, r6, lr}
1000243e:	0004      	movs	r4, r0
10002440:	f002 f83e 	bl	100044c0 <strlen>
10002444:	2201      	movs	r2, #1
10002446:	0001      	movs	r1, r0
10002448:	0005      	movs	r5, r0
1000244a:	0020      	movs	r0, r4
1000244c:	f7ff ff68 	bl	10002320 <stdio_put_string>
10002450:	4b08      	ldr	r3, [pc, #32]	; (10002474 <__wrap_puts+0x38>)
10002452:	681c      	ldr	r4, [r3, #0]
10002454:	2c00      	cmp	r4, #0
10002456:	d006      	beq.n	10002466 <__wrap_puts+0x2a>
10002458:	6863      	ldr	r3, [r4, #4]
1000245a:	2b00      	cmp	r3, #0
1000245c:	d005      	beq.n	1000246a <__wrap_puts+0x2e>
1000245e:	4798      	blx	r3
10002460:	68e4      	ldr	r4, [r4, #12]
10002462:	2c00      	cmp	r4, #0
10002464:	d1f8      	bne.n	10002458 <__wrap_puts+0x1c>
10002466:	0028      	movs	r0, r5
10002468:	bd70      	pop	{r4, r5, r6, pc}
1000246a:	68e4      	ldr	r4, [r4, #12]
1000246c:	2c00      	cmp	r4, #0
1000246e:	d1f3      	bne.n	10002458 <__wrap_puts+0x1c>
10002470:	e7f9      	b.n	10002466 <__wrap_puts+0x2a>
10002472:	46c0      	nop			; (mov r8, r8)
10002474:	20000d60 	.word	0x20000d60

10002478 <stdio_set_driver_enabled>:
10002478:	4a0d      	ldr	r2, [pc, #52]	; (100024b0 <stdio_set_driver_enabled+0x38>)
1000247a:	6813      	ldr	r3, [r2, #0]
1000247c:	2b00      	cmp	r3, #0
1000247e:	d013      	beq.n	100024a8 <stdio_set_driver_enabled+0x30>
10002480:	4283      	cmp	r3, r0
10002482:	d102      	bne.n	1000248a <stdio_set_driver_enabled+0x12>
10002484:	e009      	b.n	1000249a <stdio_set_driver_enabled+0x22>
10002486:	4298      	cmp	r0, r3
10002488:	d008      	beq.n	1000249c <stdio_set_driver_enabled+0x24>
1000248a:	001a      	movs	r2, r3
1000248c:	68db      	ldr	r3, [r3, #12]
1000248e:	2b00      	cmp	r3, #0
10002490:	d1f9      	bne.n	10002486 <stdio_set_driver_enabled+0xe>
10002492:	2900      	cmp	r1, #0
10002494:	d000      	beq.n	10002498 <stdio_set_driver_enabled+0x20>
10002496:	60d0      	str	r0, [r2, #12]
10002498:	4770      	bx	lr
1000249a:	001a      	movs	r2, r3
1000249c:	2900      	cmp	r1, #0
1000249e:	d1fb      	bne.n	10002498 <stdio_set_driver_enabled+0x20>
100024a0:	68db      	ldr	r3, [r3, #12]
100024a2:	60d3      	str	r3, [r2, #12]
100024a4:	60c1      	str	r1, [r0, #12]
100024a6:	e7f7      	b.n	10002498 <stdio_set_driver_enabled+0x20>
100024a8:	2900      	cmp	r1, #0
100024aa:	d0f5      	beq.n	10002498 <stdio_set_driver_enabled+0x20>
100024ac:	6010      	str	r0, [r2, #0]
100024ae:	e7f3      	b.n	10002498 <stdio_set_driver_enabled+0x20>
100024b0:	20000d60 	.word	0x20000d60

100024b4 <stdio_uart_out_chars>:
100024b4:	b5f0      	push	{r4, r5, r6, r7, lr}
100024b6:	2900      	cmp	r1, #0
100024b8:	d010      	beq.n	100024dc <stdio_uart_out_chars+0x28>
100024ba:	1845      	adds	r5, r0, r1
100024bc:	270d      	movs	r7, #13
100024be:	2120      	movs	r1, #32
100024c0:	4b09      	ldr	r3, [pc, #36]	; (100024e8 <stdio_uart_out_chars+0x34>)
100024c2:	4a0a      	ldr	r2, [pc, #40]	; (100024ec <stdio_uart_out_chars+0x38>)
100024c4:	2600      	movs	r6, #0
100024c6:	5f9e      	ldrsh	r6, [r3, r6]
100024c8:	7804      	ldrb	r4, [r0, #0]
100024ca:	42a6      	cmp	r6, r4
100024cc:	d007      	beq.n	100024de <stdio_uart_out_chars+0x2a>
100024ce:	6993      	ldr	r3, [r2, #24]
100024d0:	4219      	tst	r1, r3
100024d2:	d1fc      	bne.n	100024ce <stdio_uart_out_chars+0x1a>
100024d4:	3001      	adds	r0, #1
100024d6:	6014      	str	r4, [r2, #0]
100024d8:	42a8      	cmp	r0, r5
100024da:	d1f5      	bne.n	100024c8 <stdio_uart_out_chars+0x14>
100024dc:	bdf0      	pop	{r4, r5, r6, r7, pc}
100024de:	6993      	ldr	r3, [r2, #24]
100024e0:	4219      	tst	r1, r3
100024e2:	d1fc      	bne.n	100024de <stdio_uart_out_chars+0x2a>
100024e4:	6017      	str	r7, [r2, #0]
100024e6:	e7f2      	b.n	100024ce <stdio_uart_out_chars+0x1a>
100024e8:	20001420 	.word	0x20001420
100024ec:	40034000 	.word	0x40034000

100024f0 <stdio_uart_in_chars>:
100024f0:	b530      	push	{r4, r5, lr}
100024f2:	0005      	movs	r5, r0
100024f4:	2000      	movs	r0, #0
100024f6:	2900      	cmp	r1, #0
100024f8:	dd10      	ble.n	1000251c <stdio_uart_in_chars+0x2c>
100024fa:	2410      	movs	r4, #16
100024fc:	4a09      	ldr	r2, [pc, #36]	; (10002524 <stdio_uart_in_chars+0x34>)
100024fe:	3d01      	subs	r5, #1
10002500:	6993      	ldr	r3, [r2, #24]
10002502:	421c      	tst	r4, r3
10002504:	d108      	bne.n	10002518 <stdio_uart_in_chars+0x28>
10002506:	3001      	adds	r0, #1
10002508:	6993      	ldr	r3, [r2, #24]
1000250a:	421c      	tst	r4, r3
1000250c:	d1fc      	bne.n	10002508 <stdio_uart_in_chars+0x18>
1000250e:	6813      	ldr	r3, [r2, #0]
10002510:	542b      	strb	r3, [r5, r0]
10002512:	4281      	cmp	r1, r0
10002514:	d1f4      	bne.n	10002500 <stdio_uart_in_chars+0x10>
10002516:	bd30      	pop	{r4, r5, pc}
10002518:	2800      	cmp	r0, #0
1000251a:	d1fc      	bne.n	10002516 <stdio_uart_in_chars+0x26>
1000251c:	2003      	movs	r0, #3
1000251e:	4240      	negs	r0, r0
10002520:	e7f9      	b.n	10002516 <stdio_uart_in_chars+0x26>
10002522:	46c0      	nop			; (mov r8, r8)
10002524:	40034000 	.word	0x40034000

10002528 <stdio_uart_init>:
10002528:	21e1      	movs	r1, #225	; 0xe1
1000252a:	b510      	push	{r4, lr}
1000252c:	4b0a      	ldr	r3, [pc, #40]	; (10002558 <stdio_uart_init+0x30>)
1000252e:	0249      	lsls	r1, r1, #9
10002530:	781b      	ldrb	r3, [r3, #0]
10002532:	4b0a      	ldr	r3, [pc, #40]	; (1000255c <stdio_uart_init+0x34>)
10002534:	480a      	ldr	r0, [pc, #40]	; (10002560 <stdio_uart_init+0x38>)
10002536:	781b      	ldrb	r3, [r3, #0]
10002538:	f7fe f888 	bl	1000064c <uart_init>
1000253c:	2102      	movs	r1, #2
1000253e:	2000      	movs	r0, #0
10002540:	f7fd ff9e 	bl	10000480 <gpio_set_function>
10002544:	2102      	movs	r1, #2
10002546:	2001      	movs	r0, #1
10002548:	f7fd ff9a 	bl	10000480 <gpio_set_function>
1000254c:	2101      	movs	r1, #1
1000254e:	4805      	ldr	r0, [pc, #20]	; (10002564 <stdio_uart_init+0x3c>)
10002550:	f7ff ff92 	bl	10002478 <stdio_set_driver_enabled>
10002554:	bd10      	pop	{r4, pc}
10002556:	46c0      	nop			; (mov r8, r8)
10002558:	10004b68 	.word	0x10004b68
1000255c:	10004b6c 	.word	0x10004b6c
10002560:	40034000 	.word	0x40034000
10002564:	200002d0 	.word	0x200002d0

10002568 <dcd_rp2040_irq>:
10002568:	b5f0      	push	{r4, r5, r6, r7, lr}
1000256a:	2398      	movs	r3, #152	; 0x98
1000256c:	4657      	mov	r7, sl
1000256e:	4645      	mov	r5, r8
10002570:	46de      	mov	lr, fp
10002572:	464e      	mov	r6, r9
10002574:	4a41      	ldr	r2, [pc, #260]	; (1000267c <dcd_rp2040_irq+0x114>)
10002576:	b5e0      	push	{r5, r6, r7, lr}
10002578:	58d7      	ldr	r7, [r2, r3]
1000257a:	2480      	movs	r4, #128	; 0x80
1000257c:	003d      	movs	r5, r7
1000257e:	b085      	sub	sp, #20
10002580:	0264      	lsls	r4, r4, #9
10002582:	3b88      	subs	r3, #136	; 0x88
10002584:	4025      	ands	r5, r4
10002586:	9303      	str	r3, [sp, #12]
10002588:	4227      	tst	r7, r4
1000258a:	d014      	beq.n	100025b6 <dcd_rp2040_irq+0x4e>
1000258c:	2101      	movs	r1, #1
1000258e:	2039      	movs	r0, #57	; 0x39
10002590:	2200      	movs	r2, #0
10002592:	4b3b      	ldr	r3, [pc, #236]	; (10002680 <dcd_rp2040_irq+0x118>)
10002594:	0025      	movs	r5, r4
10002596:	5419      	strb	r1, [r3, r0]
10002598:	7159      	strb	r1, [r3, #5]
1000259a:	3147      	adds	r1, #71	; 0x47
1000259c:	545a      	strb	r2, [r3, r1]
1000259e:	751a      	strb	r2, [r3, #20]
100025a0:	2000      	movs	r0, #0
100025a2:	3201      	adds	r2, #1
100025a4:	4937      	ldr	r1, [pc, #220]	; (10002684 <dcd_rp2040_irq+0x11c>)
100025a6:	f001 f82b 	bl	10003600 <dcd_event_setup_received>
100025aa:	2280      	movs	r2, #128	; 0x80
100025ac:	4b36      	ldr	r3, [pc, #216]	; (10002688 <dcd_rp2040_irq+0x120>)
100025ae:	0292      	lsls	r2, r2, #10
100025b0:	651a      	str	r2, [r3, #80]	; 0x50
100025b2:	4b36      	ldr	r3, [pc, #216]	; (1000268c <dcd_rp2040_irq+0x124>)
100025b4:	9303      	str	r3, [sp, #12]
100025b6:	06fb      	lsls	r3, r7, #27
100025b8:	d40c      	bmi.n	100025d4 <dcd_rp2040_irq+0x6c>
100025ba:	2380      	movs	r3, #128	; 0x80
100025bc:	015b      	lsls	r3, r3, #5
100025be:	421f      	tst	r7, r3
100025c0:	d13a      	bne.n	10002638 <dcd_rp2040_irq+0xd0>
100025c2:	42bd      	cmp	r5, r7
100025c4:	d154      	bne.n	10002670 <dcd_rp2040_irq+0x108>
100025c6:	b005      	add	sp, #20
100025c8:	bc3c      	pop	{r2, r3, r4, r5}
100025ca:	4690      	mov	r8, r2
100025cc:	4699      	mov	r9, r3
100025ce:	46a2      	mov	sl, r4
100025d0:	46ab      	mov	fp, r5
100025d2:	bdf0      	pop	{r4, r5, r6, r7, pc}
100025d4:	4b29      	ldr	r3, [pc, #164]	; (1000267c <dcd_rp2040_irq+0x114>)
100025d6:	6d9a      	ldr	r2, [r3, #88]	; 0x58
100025d8:	2a00      	cmp	r2, #0
100025da:	d028      	beq.n	1000262e <dcd_rp2040_irq+0xc6>
100025dc:	469a      	mov	sl, r3
100025de:	4b2a      	ldr	r3, [pc, #168]	; (10002688 <dcd_rp2040_irq+0x120>)
100025e0:	46b9      	mov	r9, r7
100025e2:	2600      	movs	r6, #0
100025e4:	2501      	movs	r5, #1
100025e6:	469b      	mov	fp, r3
100025e8:	0017      	movs	r7, r2
100025ea:	e003      	b.n	100025f4 <dcd_rp2040_irq+0x8c>
100025ec:	006d      	lsls	r5, r5, #1
100025ee:	3601      	adds	r6, #1
100025f0:	2e20      	cmp	r6, #32
100025f2:	d01b      	beq.n	1000262c <dcd_rp2040_irq+0xc4>
100025f4:	422f      	tst	r7, r5
100025f6:	d0f9      	beq.n	100025ec <dcd_rp2040_irq+0x84>
100025f8:	4653      	mov	r3, sl
100025fa:	6ddb      	ldr	r3, [r3, #92]	; 0x5c
100025fc:	465b      	mov	r3, fp
100025fe:	2468      	movs	r4, #104	; 0x68
10002600:	2201      	movs	r2, #1
10002602:	659d      	str	r5, [r3, #88]	; 0x58
10002604:	0873      	lsrs	r3, r6, #1
10002606:	435c      	muls	r4, r3
10002608:	2334      	movs	r3, #52	; 0x34
1000260a:	4690      	mov	r8, r2
1000260c:	43b2      	bics	r2, r6
1000260e:	4353      	muls	r3, r2
10002610:	18e4      	adds	r4, r4, r3
10002612:	4b1b      	ldr	r3, [pc, #108]	; (10002680 <dcd_rp2040_irq+0x118>)
10002614:	469c      	mov	ip, r3
10002616:	4464      	add	r4, ip
10002618:	0020      	movs	r0, r4
1000261a:	f000 fa3d 	bl	10002a98 <_hw_endpoint_xfer_continue>
1000261e:	2800      	cmp	r0, #0
10002620:	d11a      	bne.n	10002658 <dcd_rp2040_irq+0xf0>
10002622:	43af      	bics	r7, r5
10002624:	3601      	adds	r6, #1
10002626:	006d      	lsls	r5, r5, #1
10002628:	2f00      	cmp	r7, #0
1000262a:	d1e1      	bne.n	100025f0 <dcd_rp2040_irq+0x88>
1000262c:	464f      	mov	r7, r9
1000262e:	2380      	movs	r3, #128	; 0x80
10002630:	015b      	lsls	r3, r3, #5
10002632:	9d03      	ldr	r5, [sp, #12]
10002634:	421f      	tst	r7, r3
10002636:	d0c4      	beq.n	100025c2 <dcd_rp2040_irq+0x5a>
10002638:	2200      	movs	r2, #0
1000263a:	4915      	ldr	r1, [pc, #84]	; (10002690 <dcd_rp2040_irq+0x128>)
1000263c:	2000      	movs	r0, #0
1000263e:	700a      	strb	r2, [r1, #0]
10002640:	490e      	ldr	r1, [pc, #56]	; (1000267c <dcd_rp2040_irq+0x114>)
10002642:	431d      	orrs	r5, r3
10002644:	600a      	str	r2, [r1, #0]
10002646:	3201      	adds	r2, #1
10002648:	2101      	movs	r1, #1
1000264a:	f000 ff69 	bl	10003520 <dcd_event_bus_signal>
1000264e:	2280      	movs	r2, #128	; 0x80
10002650:	4b0d      	ldr	r3, [pc, #52]	; (10002688 <dcd_rp2040_irq+0x120>)
10002652:	0312      	lsls	r2, r2, #12
10002654:	651a      	str	r2, [r3, #80]	; 0x50
10002656:	e7b4      	b.n	100025c2 <dcd_rp2040_irq+0x5a>
10002658:	4643      	mov	r3, r8
1000265a:	69e2      	ldr	r2, [r4, #28]
1000265c:	7921      	ldrb	r1, [r4, #4]
1000265e:	2000      	movs	r0, #0
10002660:	9300      	str	r3, [sp, #0]
10002662:	2300      	movs	r3, #0
10002664:	f000 fff4 	bl	10003650 <dcd_event_xfer_complete>
10002668:	0020      	movs	r0, r4
1000266a:	f000 f9e1 	bl	10002a30 <hw_endpoint_reset_transfer>
1000266e:	e7d8      	b.n	10002622 <dcd_rp2040_irq+0xba>
10002670:	0029      	movs	r1, r5
10002672:	4808      	ldr	r0, [pc, #32]	; (10002694 <dcd_rp2040_irq+0x12c>)
10002674:	4079      	eors	r1, r7
10002676:	f7fe ff15 	bl	100014a4 <panic>
1000267a:	46c0      	nop			; (mov r8, r8)
1000267c:	50110000 	.word	0x50110000
10002680:	20000d6c 	.word	0x20000d6c
10002684:	50100000 	.word	0x50100000
10002688:	50113000 	.word	0x50113000
1000268c:	00010010 	.word	0x00010010
10002690:	2000141a 	.word	0x2000141a
10002694:	100049c8 	.word	0x100049c8

10002698 <dcd_int_enable>:
10002698:	b510      	push	{r4, lr}
1000269a:	2101      	movs	r1, #1
1000269c:	2005      	movs	r0, #5
1000269e:	f7ff f8db 	bl	10001858 <irq_set_enabled>
100026a2:	bd10      	pop	{r4, pc}

100026a4 <dcd_set_address>:
100026a4:	4b09      	ldr	r3, [pc, #36]	; (100026cc <dcd_set_address+0x28>)
100026a6:	b510      	push	{r4, lr}
100026a8:	2201      	movs	r2, #1
100026aa:	7019      	strb	r1, [r3, #0]
100026ac:	2139      	movs	r1, #57	; 0x39
100026ae:	2300      	movs	r3, #0
100026b0:	4807      	ldr	r0, [pc, #28]	; (100026d0 <dcd_set_address+0x2c>)
100026b2:	5442      	strb	r2, [r0, r1]
100026b4:	7142      	strb	r2, [r0, #5]
100026b6:	3247      	adds	r2, #71	; 0x47
100026b8:	5483      	strb	r3, [r0, r2]
100026ba:	7503      	strb	r3, [r0, #20]
100026bc:	2200      	movs	r2, #0
100026be:	2100      	movs	r1, #0
100026c0:	3034      	adds	r0, #52	; 0x34
100026c2:	3301      	adds	r3, #1
100026c4:	f000 fa6e 	bl	10002ba4 <_hw_endpoint_xfer>
100026c8:	bd10      	pop	{r4, pc}
100026ca:	46c0      	nop			; (mov r8, r8)
100026cc:	2000141a 	.word	0x2000141a
100026d0:	20000d6c 	.word	0x20000d6c

100026d4 <dcd_connect>:
100026d4:	2280      	movs	r2, #128	; 0x80
100026d6:	4b02      	ldr	r3, [pc, #8]	; (100026e0 <dcd_connect+0xc>)
100026d8:	0252      	lsls	r2, r2, #9
100026da:	64da      	str	r2, [r3, #76]	; 0x4c
100026dc:	4770      	bx	lr
100026de:	46c0      	nop			; (mov r8, r8)
100026e0:	50112000 	.word	0x50112000

100026e4 <dcd_init>:
100026e4:	b570      	push	{r4, r5, r6, lr}
100026e6:	0005      	movs	r5, r0
100026e8:	f000 f97a 	bl	100029e0 <rp2040_usb_init>
100026ec:	2005      	movs	r0, #5
100026ee:	491f      	ldr	r1, [pc, #124]	; (1000276c <dcd_init+0x88>)
100026f0:	f7ff f8cc 	bl	1000188c <irq_set_exclusive_handler>
100026f4:	22d0      	movs	r2, #208	; 0xd0
100026f6:	4c1e      	ldr	r4, [pc, #120]	; (10002770 <dcd_init+0x8c>)
100026f8:	2100      	movs	r1, #0
100026fa:	0020      	movs	r0, r4
100026fc:	00d2      	lsls	r2, r2, #3
100026fe:	f7ff fdc1 	bl	10002284 <__wrap_memset>
10002702:	2300      	movs	r3, #0
10002704:	4a1b      	ldr	r2, [pc, #108]	; (10002774 <dcd_init+0x90>)
10002706:	491c      	ldr	r1, [pc, #112]	; (10002778 <dcd_init+0x94>)
10002708:	7013      	strb	r3, [r2, #0]
1000270a:	4a1c      	ldr	r2, [pc, #112]	; (1000277c <dcd_init+0x98>)
1000270c:	2040      	movs	r0, #64	; 0x40
1000270e:	6011      	str	r1, [r2, #0]
10002710:	2280      	movs	r2, #128	; 0x80
10002712:	0052      	lsls	r2, r2, #1
10002714:	8062      	strh	r2, [r4, #2]
10002716:	80a2      	strh	r2, [r4, #4]
10002718:	3ad0      	subs	r2, #208	; 0xd0
1000271a:	54a3      	strb	r3, [r4, r2]
1000271c:	4a18      	ldr	r2, [pc, #96]	; (10002780 <dcd_init+0x9c>)
1000271e:	7063      	strb	r3, [r4, #1]
10002720:	62e0      	str	r0, [r4, #44]	; 0x2c
10002722:	60e2      	str	r2, [r4, #12]
10002724:	2635      	movs	r6, #53	; 0x35
10002726:	6013      	str	r3, [r2, #0]
10002728:	2201      	movs	r2, #1
1000272a:	55a2      	strb	r2, [r4, r6]
1000272c:	364c      	adds	r6, #76	; 0x4c
1000272e:	36ff      	adds	r6, #255	; 0xff
10002730:	8726      	strh	r6, [r4, #56]	; 0x38
10002732:	2600      	movs	r6, #0
10002734:	6620      	str	r0, [r4, #96]	; 0x60
10002736:	3024      	adds	r0, #36	; 0x24
10002738:	5426      	strb	r6, [r4, r0]
1000273a:	4912      	ldr	r1, [pc, #72]	; (10002784 <dcd_init+0xa0>)
1000273c:	4812      	ldr	r0, [pc, #72]	; (10002788 <dcd_init+0xa4>)
1000273e:	60a3      	str	r3, [r4, #8]
10002740:	6121      	str	r1, [r4, #16]
10002742:	7022      	strb	r2, [r4, #0]
10002744:	86e3      	strh	r3, [r4, #54]	; 0x36
10002746:	6420      	str	r0, [r4, #64]	; 0x40
10002748:	6003      	str	r3, [r0, #0]
1000274a:	63e3      	str	r3, [r4, #60]	; 0x3c
1000274c:	3334      	adds	r3, #52	; 0x34
1000274e:	54e2      	strb	r2, [r4, r3]
10002750:	4b0e      	ldr	r3, [pc, #56]	; (1000278c <dcd_init+0xa8>)
10002752:	6461      	str	r1, [r4, #68]	; 0x44
10002754:	641a      	str	r2, [r3, #64]	; 0x40
10002756:	2280      	movs	r2, #128	; 0x80
10002758:	0592      	lsls	r2, r2, #22
1000275a:	64da      	str	r2, [r3, #76]	; 0x4c
1000275c:	2290      	movs	r2, #144	; 0x90
1000275e:	490c      	ldr	r1, [pc, #48]	; (10002790 <dcd_init+0xac>)
10002760:	0028      	movs	r0, r5
10002762:	5099      	str	r1, [r3, r2]
10002764:	f7ff ffb6 	bl	100026d4 <dcd_connect>
10002768:	bd70      	pop	{r4, r5, r6, pc}
1000276a:	46c0      	nop			; (mov r8, r8)
1000276c:	10002569 	.word	0x10002569
10002770:	20000d6c 	.word	0x20000d6c
10002774:	2000141a 	.word	0x2000141a
10002778:	50100180 	.word	0x50100180
1000277c:	200013f0 	.word	0x200013f0
10002780:	50100084 	.word	0x50100084
10002784:	50100100 	.word	0x50100100
10002788:	50100080 	.word	0x50100080
1000278c:	50110000 	.word	0x50110000
10002790:	00011010 	.word	0x00011010

10002794 <dcd_edpt0_status_complete>:
10002794:	780b      	ldrb	r3, [r1, #0]
10002796:	065b      	lsls	r3, r3, #25
10002798:	d102      	bne.n	100027a0 <dcd_edpt0_status_complete+0xc>
1000279a:	784b      	ldrb	r3, [r1, #1]
1000279c:	2b05      	cmp	r3, #5
1000279e:	d009      	beq.n	100027b4 <dcd_edpt0_status_complete+0x20>
100027a0:	2101      	movs	r1, #1
100027a2:	2039      	movs	r0, #57	; 0x39
100027a4:	2200      	movs	r2, #0
100027a6:	4b06      	ldr	r3, [pc, #24]	; (100027c0 <dcd_edpt0_status_complete+0x2c>)
100027a8:	7159      	strb	r1, [r3, #5]
100027aa:	5419      	strb	r1, [r3, r0]
100027ac:	3147      	adds	r1, #71	; 0x47
100027ae:	751a      	strb	r2, [r3, #20]
100027b0:	545a      	strb	r2, [r3, r1]
100027b2:	4770      	bx	lr
100027b4:	4b03      	ldr	r3, [pc, #12]	; (100027c4 <dcd_edpt0_status_complete+0x30>)
100027b6:	781a      	ldrb	r2, [r3, #0]
100027b8:	4b03      	ldr	r3, [pc, #12]	; (100027c8 <dcd_edpt0_status_complete+0x34>)
100027ba:	601a      	str	r2, [r3, #0]
100027bc:	e7f0      	b.n	100027a0 <dcd_edpt0_status_complete+0xc>
100027be:	46c0      	nop			; (mov r8, r8)
100027c0:	20000d6c 	.word	0x20000d6c
100027c4:	2000141a 	.word	0x2000141a
100027c8:	50110000 	.word	0x50110000

100027cc <dcd_edpt_open>:
100027cc:	000a      	movs	r2, r1
100027ce:	b5f8      	push	{r3, r4, r5, r6, r7, lr}
100027d0:	2307      	movs	r3, #7
100027d2:	4647      	mov	r7, r8
100027d4:	46ce      	mov	lr, r9
100027d6:	7954      	ldrb	r4, [r2, #5]
100027d8:	7910      	ldrb	r0, [r2, #4]
100027da:	4023      	ands	r3, r4
100027dc:	78d4      	ldrb	r4, [r2, #3]
100027de:	021b      	lsls	r3, r3, #8
100027e0:	07a4      	lsls	r4, r4, #30
100027e2:	4303      	orrs	r3, r0
100027e4:	207f      	movs	r0, #127	; 0x7f
100027e6:	0fa2      	lsrs	r2, r4, #30
100027e8:	2468      	movs	r4, #104	; 0x68
100027ea:	b580      	push	{r7, lr}
100027ec:	7889      	ldrb	r1, [r1, #2]
100027ee:	4694      	mov	ip, r2
100027f0:	4008      	ands	r0, r1
100027f2:	4691      	mov	r9, r2
100027f4:	4344      	muls	r4, r0
100027f6:	2234      	movs	r2, #52	; 0x34
100027f8:	46a0      	mov	r8, r4
100027fa:	09ce      	lsrs	r6, r1, #7
100027fc:	4372      	muls	r2, r6
100027fe:	4d3d      	ldr	r5, [pc, #244]	; (100028f4 <dcd_edpt_open+0x128>)
10002800:	4442      	add	r2, r8
10002802:	18aa      	adds	r2, r5, r2
10002804:	b24f      	sxtb	r7, r1
10002806:	7111      	strb	r1, [r2, #4]
10002808:	43f9      	mvns	r1, r7
1000280a:	0fc9      	lsrs	r1, r1, #31
1000280c:	70d1      	strb	r1, [r2, #3]
1000280e:	4241      	negs	r1, r0
10002810:	4141      	adcs	r1, r0
10002812:	7056      	strb	r6, [r2, #1]
10002814:	7090      	strb	r0, [r2, #2]
10002816:	7151      	strb	r1, [r2, #5]
10002818:	4662      	mov	r2, ip
1000281a:	2a01      	cmp	r2, #1
1000281c:	d05c      	beq.n	100028d8 <dcd_edpt_open+0x10c>
1000281e:	2b40      	cmp	r3, #64	; 0x40
10002820:	d85e      	bhi.n	100028e0 <dcd_edpt_open+0x114>
10002822:	2234      	movs	r2, #52	; 0x34
10002824:	2168      	movs	r1, #104	; 0x68
10002826:	4372      	muls	r2, r6
10002828:	4341      	muls	r1, r0
1000282a:	1852      	adds	r2, r2, r1
1000282c:	18aa      	adds	r2, r5, r2
1000282e:	0011      	movs	r1, r2
10002830:	4664      	mov	r4, ip
10002832:	3130      	adds	r1, #48	; 0x30
10002834:	700c      	strb	r4, [r1, #0]
10002836:	62d3      	str	r3, [r2, #44]	; 0x2c
10002838:	00c1      	lsls	r1, r0, #3
1000283a:	2f00      	cmp	r7, #0
1000283c:	db3c      	blt.n	100028b8 <dcd_edpt_open+0xec>
1000283e:	4c2e      	ldr	r4, [pc, #184]	; (100028f8 <dcd_edpt_open+0x12c>)
10002840:	2700      	movs	r7, #0
10002842:	46a4      	mov	ip, r4
10002844:	4461      	add	r1, ip
10002846:	60d1      	str	r1, [r2, #12]
10002848:	600f      	str	r7, [r1, #0]
1000284a:	2800      	cmp	r0, #0
1000284c:	d03c      	beq.n	100028c8 <dcd_edpt_open+0xfc>
1000284e:	4c2b      	ldr	r4, [pc, #172]	; (100028fc <dcd_edpt_open+0x130>)
10002850:	00c1      	lsls	r1, r0, #3
10002852:	46a4      	mov	ip, r4
10002854:	4461      	add	r1, ip
10002856:	6091      	str	r1, [r2, #8]
10002858:	2468      	movs	r4, #104	; 0x68
1000285a:	2234      	movs	r2, #52	; 0x34
1000285c:	4344      	muls	r4, r0
1000285e:	46a4      	mov	ip, r4
10002860:	4372      	muls	r2, r6
10002862:	4f27      	ldr	r7, [pc, #156]	; (10002900 <dcd_edpt_open+0x134>)
10002864:	4462      	add	r2, ip
10002866:	6839      	ldr	r1, [r7, #0]
10002868:	18aa      	adds	r2, r5, r2
1000286a:	6111      	str	r1, [r2, #16]
1000286c:	2b40      	cmp	r3, #64	; 0x40
1000286e:	d200      	bcs.n	10002872 <dcd_edpt_open+0xa6>
10002870:	2340      	movs	r3, #64	; 0x40
10002872:	223f      	movs	r2, #63	; 0x3f
10002874:	18cb      	adds	r3, r1, r3
10002876:	4213      	tst	r3, r2
10002878:	d001      	beq.n	1000287e <dcd_edpt_open+0xb2>
1000287a:	4393      	bics	r3, r2
1000287c:	3340      	adds	r3, #64	; 0x40
1000287e:	603b      	str	r3, [r7, #0]
10002880:	4b20      	ldr	r3, [pc, #128]	; (10002904 <dcd_edpt_open+0x138>)
10002882:	2268      	movs	r2, #104	; 0x68
10002884:	4059      	eors	r1, r3
10002886:	464b      	mov	r3, r9
10002888:	069c      	lsls	r4, r3, #26
1000288a:	2334      	movs	r3, #52	; 0x34
1000288c:	430c      	orrs	r4, r1
1000288e:	21a0      	movs	r1, #160	; 0xa0
10002890:	4373      	muls	r3, r6
10002892:	4342      	muls	r2, r0
10002894:	189b      	adds	r3, r3, r2
10002896:	18eb      	adds	r3, r5, r3
10002898:	689b      	ldr	r3, [r3, #8]
1000289a:	0609      	lsls	r1, r1, #24
1000289c:	430c      	orrs	r4, r1
1000289e:	601c      	str	r4, [r3, #0]
100028a0:	2334      	movs	r3, #52	; 0x34
100028a2:	435e      	muls	r6, r3
100028a4:	3334      	adds	r3, #52	; 0x34
100028a6:	4358      	muls	r0, r3
100028a8:	3b67      	subs	r3, #103	; 0x67
100028aa:	1830      	adds	r0, r6, r0
100028ac:	542b      	strb	r3, [r5, r0]
100028ae:	2001      	movs	r0, #1
100028b0:	bc0c      	pop	{r2, r3}
100028b2:	4690      	mov	r8, r2
100028b4:	4699      	mov	r9, r3
100028b6:	bdf8      	pop	{r3, r4, r5, r6, r7, pc}
100028b8:	4c13      	ldr	r4, [pc, #76]	; (10002908 <dcd_edpt_open+0x13c>)
100028ba:	2700      	movs	r7, #0
100028bc:	46a4      	mov	ip, r4
100028be:	4461      	add	r1, ip
100028c0:	60d1      	str	r1, [r2, #12]
100028c2:	600f      	str	r7, [r1, #0]
100028c4:	2800      	cmp	r0, #0
100028c6:	d10f      	bne.n	100028e8 <dcd_edpt_open+0x11c>
100028c8:	2334      	movs	r3, #52	; 0x34
100028ca:	2200      	movs	r2, #0
100028cc:	4373      	muls	r3, r6
100028ce:	18eb      	adds	r3, r5, r3
100028d0:	609a      	str	r2, [r3, #8]
100028d2:	4a0e      	ldr	r2, [pc, #56]	; (1000290c <dcd_edpt_open+0x140>)
100028d4:	611a      	str	r2, [r3, #16]
100028d6:	e7e3      	b.n	100028a0 <dcd_edpt_open+0xd4>
100028d8:	2280      	movs	r2, #128	; 0x80
100028da:	00d2      	lsls	r2, r2, #3
100028dc:	4293      	cmp	r3, r2
100028de:	d3a0      	bcc.n	10002822 <dcd_edpt_open+0x56>
100028e0:	0019      	movs	r1, r3
100028e2:	480b      	ldr	r0, [pc, #44]	; (10002910 <dcd_edpt_open+0x144>)
100028e4:	f7fe fdde 	bl	100014a4 <panic>
100028e8:	4c06      	ldr	r4, [pc, #24]	; (10002904 <dcd_edpt_open+0x138>)
100028ea:	00c1      	lsls	r1, r0, #3
100028ec:	46a4      	mov	ip, r4
100028ee:	4461      	add	r1, ip
100028f0:	6091      	str	r1, [r2, #8]
100028f2:	e7b1      	b.n	10002858 <dcd_edpt_open+0x8c>
100028f4:	20000d6c 	.word	0x20000d6c
100028f8:	50100084 	.word	0x50100084
100028fc:	50100004 	.word	0x50100004
10002900:	200013f0 	.word	0x200013f0
10002904:	50100000 	.word	0x50100000
10002908:	50100080 	.word	0x50100080
1000290c:	50100100 	.word	0x50100100
10002910:	100049dc 	.word	0x100049dc

10002914 <dcd_edpt_xfer>:
10002914:	b510      	push	{r4, lr}
10002916:	000c      	movs	r4, r1
10002918:	2034      	movs	r0, #52	; 0x34
1000291a:	0011      	movs	r1, r2
1000291c:	001a      	movs	r2, r3
1000291e:	09e3      	lsrs	r3, r4, #7
10002920:	4358      	muls	r0, r3
10002922:	237f      	movs	r3, #127	; 0x7f
10002924:	4023      	ands	r3, r4
10002926:	2468      	movs	r4, #104	; 0x68
10002928:	435c      	muls	r4, r3
1000292a:	4b04      	ldr	r3, [pc, #16]	; (1000293c <dcd_edpt_xfer+0x28>)
1000292c:	1900      	adds	r0, r0, r4
1000292e:	18c0      	adds	r0, r0, r3
10002930:	2301      	movs	r3, #1
10002932:	f000 f937 	bl	10002ba4 <_hw_endpoint_xfer>
10002936:	2001      	movs	r0, #1
10002938:	bd10      	pop	{r4, pc}
1000293a:	46c0      	nop			; (mov r8, r8)
1000293c:	20000d6c 	.word	0x20000d6c

10002940 <dcd_edpt_stall>:
10002940:	b570      	push	{r4, r5, r6, lr}
10002942:	257f      	movs	r5, #127	; 0x7f
10002944:	2034      	movs	r0, #52	; 0x34
10002946:	2368      	movs	r3, #104	; 0x68
10002948:	400d      	ands	r5, r1
1000294a:	09cc      	lsrs	r4, r1, #7
1000294c:	436b      	muls	r3, r5
1000294e:	4360      	muls	r0, r4
10002950:	4e0c      	ldr	r6, [pc, #48]	; (10002984 <dcd_edpt_stall+0x44>)
10002952:	18c0      	adds	r0, r0, r3
10002954:	1830      	adds	r0, r6, r0
10002956:	7883      	ldrb	r3, [r0, #2]
10002958:	2b00      	cmp	r3, #0
1000295a:	d105      	bne.n	10002968 <dcd_edpt_stall+0x28>
1000295c:	7843      	ldrb	r3, [r0, #1]
1000295e:	425a      	negs	r2, r3
10002960:	4153      	adcs	r3, r2
10002962:	4a09      	ldr	r2, [pc, #36]	; (10002988 <dcd_edpt_stall+0x48>)
10002964:	3301      	adds	r3, #1
10002966:	6693      	str	r3, [r2, #104]	; 0x68
10002968:	2280      	movs	r2, #128	; 0x80
1000296a:	4908      	ldr	r1, [pc, #32]	; (1000298c <dcd_edpt_stall+0x4c>)
1000296c:	0112      	lsls	r2, r2, #4
1000296e:	f000 f869 	bl	10002a44 <_hw_endpoint_buffer_control_update32>
10002972:	2134      	movs	r1, #52	; 0x34
10002974:	2301      	movs	r3, #1
10002976:	434c      	muls	r4, r1
10002978:	3134      	adds	r1, #52	; 0x34
1000297a:	434d      	muls	r5, r1
1000297c:	1964      	adds	r4, r4, r5
1000297e:	1934      	adds	r4, r6, r4
10002980:	7523      	strb	r3, [r4, #20]
10002982:	bd70      	pop	{r4, r5, r6, pc}
10002984:	20000d6c 	.word	0x20000d6c
10002988:	50112000 	.word	0x50112000
1000298c:	fffff7ff 	.word	0xfffff7ff

10002990 <dcd_edpt_clear_stall>:
10002990:	b570      	push	{r4, r5, r6, lr}
10002992:	257f      	movs	r5, #127	; 0x7f
10002994:	2034      	movs	r0, #52	; 0x34
10002996:	2368      	movs	r3, #104	; 0x68
10002998:	400d      	ands	r5, r1
1000299a:	09cc      	lsrs	r4, r1, #7
1000299c:	436b      	muls	r3, r5
1000299e:	4360      	muls	r0, r4
100029a0:	4e0c      	ldr	r6, [pc, #48]	; (100029d4 <dcd_edpt_clear_stall+0x44>)
100029a2:	18c0      	adds	r0, r0, r3
100029a4:	1830      	adds	r0, r6, r0
100029a6:	7883      	ldrb	r3, [r0, #2]
100029a8:	2b00      	cmp	r3, #0
100029aa:	d105      	bne.n	100029b8 <dcd_edpt_clear_stall+0x28>
100029ac:	7843      	ldrb	r3, [r0, #1]
100029ae:	425a      	negs	r2, r3
100029b0:	4153      	adcs	r3, r2
100029b2:	4a09      	ldr	r2, [pc, #36]	; (100029d8 <dcd_edpt_clear_stall+0x48>)
100029b4:	3301      	adds	r3, #1
100029b6:	6693      	str	r3, [r2, #104]	; 0x68
100029b8:	2200      	movs	r2, #0
100029ba:	4908      	ldr	r1, [pc, #32]	; (100029dc <dcd_edpt_clear_stall+0x4c>)
100029bc:	f000 f842 	bl	10002a44 <_hw_endpoint_buffer_control_update32>
100029c0:	2134      	movs	r1, #52	; 0x34
100029c2:	2300      	movs	r3, #0
100029c4:	434c      	muls	r4, r1
100029c6:	3134      	adds	r1, #52	; 0x34
100029c8:	434d      	muls	r5, r1
100029ca:	1964      	adds	r4, r4, r5
100029cc:	1934      	adds	r4, r6, r4
100029ce:	7523      	strb	r3, [r4, #20]
100029d0:	bd70      	pop	{r4, r5, r6, pc}
100029d2:	46c0      	nop			; (mov r8, r8)
100029d4:	20000d6c 	.word	0x20000d6c
100029d8:	50113000 	.word	0x50113000
100029dc:	fffff7ff 	.word	0xfffff7ff

100029e0 <rp2040_usb_init>:
100029e0:	2280      	movs	r2, #128	; 0x80
100029e2:	4b0e      	ldr	r3, [pc, #56]	; (10002a1c <rp2040_usb_init+0x3c>)
100029e4:	0452      	lsls	r2, r2, #17
100029e6:	b510      	push	{r4, lr}
100029e8:	601a      	str	r2, [r3, #0]
100029ea:	4b0d      	ldr	r3, [pc, #52]	; (10002a20 <rp2040_usb_init+0x40>)
100029ec:	490d      	ldr	r1, [pc, #52]	; (10002a24 <rp2040_usb_init+0x44>)
100029ee:	601a      	str	r2, [r3, #0]
100029f0:	0010      	movs	r0, r2
100029f2:	688b      	ldr	r3, [r1, #8]
100029f4:	4398      	bics	r0, r3
100029f6:	d1fb      	bne.n	100029f0 <rp2040_usb_init+0x10>
100029f8:	4c0b      	ldr	r4, [pc, #44]	; (10002a28 <rp2040_usb_init+0x48>)
100029fa:	229c      	movs	r2, #156	; 0x9c
100029fc:	2100      	movs	r1, #0
100029fe:	0020      	movs	r0, r4
10002a00:	f7ff fc40 	bl	10002284 <__wrap_memset>
10002a04:	2280      	movs	r2, #128	; 0x80
10002a06:	2100      	movs	r1, #0
10002a08:	0152      	lsls	r2, r2, #5
10002a0a:	4808      	ldr	r0, [pc, #32]	; (10002a2c <rp2040_usb_init+0x4c>)
10002a0c:	f7ff fc3a 	bl	10002284 <__wrap_memset>
10002a10:	2309      	movs	r3, #9
10002a12:	6763      	str	r3, [r4, #116]	; 0x74
10002a14:	3303      	adds	r3, #3
10002a16:	67a3      	str	r3, [r4, #120]	; 0x78
10002a18:	bd10      	pop	{r4, pc}
10002a1a:	46c0      	nop			; (mov r8, r8)
10002a1c:	4000e000 	.word	0x4000e000
10002a20:	4000f000 	.word	0x4000f000
10002a24:	4000c000 	.word	0x4000c000
10002a28:	50110000 	.word	0x50110000
10002a2c:	50100000 	.word	0x50100000

10002a30 <hw_endpoint_reset_transfer>:
10002a30:	2300      	movs	r3, #0
10002a32:	2100      	movs	r1, #0
10002a34:	2232      	movs	r2, #50	; 0x32
10002a36:	8283      	strh	r3, [r0, #20]
10002a38:	5481      	strb	r1, [r0, r2]
10002a3a:	6183      	str	r3, [r0, #24]
10002a3c:	61c3      	str	r3, [r0, #28]
10002a3e:	6203      	str	r3, [r0, #32]
10002a40:	6283      	str	r3, [r0, #40]	; 0x28
10002a42:	4770      	bx	lr

10002a44 <_hw_endpoint_buffer_control_update32>:
10002a44:	b510      	push	{r4, lr}
10002a46:	68c3      	ldr	r3, [r0, #12]
10002a48:	2900      	cmp	r1, #0
10002a4a:	d001      	beq.n	10002a50 <_hw_endpoint_buffer_control_update32+0xc>
10002a4c:	681c      	ldr	r4, [r3, #0]
10002a4e:	4021      	ands	r1, r4
10002a50:	2a00      	cmp	r2, #0
10002a52:	d011      	beq.n	10002a78 <_hw_endpoint_buffer_control_update32+0x34>
10002a54:	2480      	movs	r4, #128	; 0x80
10002a56:	00e4      	lsls	r4, r4, #3
10002a58:	4311      	orrs	r1, r2
10002a5a:	4222      	tst	r2, r4
10002a5c:	d00c      	beq.n	10002a78 <_hw_endpoint_buffer_control_update32+0x34>
10002a5e:	681a      	ldr	r2, [r3, #0]
10002a60:	4222      	tst	r2, r4
10002a62:	d10b      	bne.n	10002a7c <_hw_endpoint_buffer_control_update32+0x38>
10002a64:	4a09      	ldr	r2, [pc, #36]	; (10002a8c <_hw_endpoint_buffer_control_update32+0x48>)
10002a66:	400a      	ands	r2, r1
10002a68:	601a      	str	r2, [r3, #0]
10002a6a:	e7ff      	b.n	10002a6c <_hw_endpoint_buffer_control_update32+0x28>
10002a6c:	e7ff      	b.n	10002a6e <_hw_endpoint_buffer_control_update32+0x2a>
10002a6e:	e7ff      	b.n	10002a70 <_hw_endpoint_buffer_control_update32+0x2c>
10002a70:	e7ff      	b.n	10002a72 <_hw_endpoint_buffer_control_update32+0x2e>
10002a72:	e7ff      	b.n	10002a74 <_hw_endpoint_buffer_control_update32+0x30>
10002a74:	e7ff      	b.n	10002a76 <_hw_endpoint_buffer_control_update32+0x32>
10002a76:	68c3      	ldr	r3, [r0, #12]
10002a78:	6019      	str	r1, [r3, #0]
10002a7a:	bd10      	pop	{r4, pc}
10002a7c:	7843      	ldrb	r3, [r0, #1]
10002a7e:	4a04      	ldr	r2, [pc, #16]	; (10002a90 <_hw_endpoint_buffer_control_update32+0x4c>)
10002a80:	009b      	lsls	r3, r3, #2
10002a82:	7881      	ldrb	r1, [r0, #2]
10002a84:	589a      	ldr	r2, [r3, r2]
10002a86:	4803      	ldr	r0, [pc, #12]	; (10002a94 <_hw_endpoint_buffer_control_update32+0x50>)
10002a88:	f7fe fd0c 	bl	100014a4 <panic>
10002a8c:	fffffbff 	.word	0xfffffbff
10002a90:	200002e4 	.word	0x200002e4
10002a94:	10004a04 	.word	0x10004a04

10002a98 <_hw_endpoint_xfer_continue>:
10002a98:	b5f8      	push	{r3, r4, r5, r6, r7, lr}
10002a9a:	7d46      	ldrb	r6, [r0, #21]
10002a9c:	0004      	movs	r4, r0
10002a9e:	2e00      	cmp	r6, #0
10002aa0:	d100      	bne.n	10002aa4 <_hw_endpoint_xfer_continue+0xc>
10002aa2:	e068      	b.n	10002b76 <_hw_endpoint_xfer_continue+0xde>
10002aa4:	68c3      	ldr	r3, [r0, #12]
10002aa6:	78c0      	ldrb	r0, [r0, #3]
10002aa8:	681d      	ldr	r5, [r3, #0]
10002aaa:	05ad      	lsls	r5, r5, #22
10002aac:	0dad      	lsrs	r5, r5, #22
10002aae:	2800      	cmp	r0, #0
10002ab0:	d143      	bne.n	10002b3a <_hw_endpoint_xfer_continue+0xa2>
10002ab2:	69e3      	ldr	r3, [r4, #28]
10002ab4:	18e9      	adds	r1, r5, r3
10002ab6:	61e1      	str	r1, [r4, #28]
10002ab8:	69a2      	ldr	r2, [r4, #24]
10002aba:	1a55      	subs	r5, r2, r1
10002abc:	2d40      	cmp	r5, #64	; 0x40
10002abe:	d82e      	bhi.n	10002b1e <_hw_endpoint_xfer_continue+0x86>
10002ac0:	186b      	adds	r3, r5, r1
10002ac2:	1a9b      	subs	r3, r3, r2
10002ac4:	425f      	negs	r7, r3
10002ac6:	417b      	adcs	r3, r7
10002ac8:	2724      	movs	r7, #36	; 0x24
10002aca:	b2db      	uxtb	r3, r3
10002acc:	6225      	str	r5, [r4, #32]
10002ace:	55e3      	strb	r3, [r4, r7]
10002ad0:	428a      	cmp	r2, r1
10002ad2:	d34d      	bcc.n	10002b70 <_hw_endpoint_xfer_continue+0xd8>
10002ad4:	d04a      	beq.n	10002b6c <_hw_endpoint_xfer_continue+0xd4>
10002ad6:	2800      	cmp	r0, #0
10002ad8:	d023      	beq.n	10002b22 <_hw_endpoint_xfer_continue+0x8a>
10002ada:	2280      	movs	r2, #128	; 0x80
10002adc:	00d2      	lsls	r2, r2, #3
10002ade:	432a      	orrs	r2, r5
10002ae0:	7961      	ldrb	r1, [r4, #5]
10002ae2:	2900      	cmp	r1, #0
10002ae4:	d002      	beq.n	10002aec <_hw_endpoint_xfer_continue+0x54>
10002ae6:	2080      	movs	r0, #128	; 0x80
10002ae8:	0180      	lsls	r0, r0, #6
10002aea:	4302      	orrs	r2, r0
10002aec:	2001      	movs	r0, #1
10002aee:	4041      	eors	r1, r0
10002af0:	7161      	strb	r1, [r4, #5]
10002af2:	2b00      	cmp	r3, #0
10002af4:	d002      	beq.n	10002afc <_hw_endpoint_xfer_continue+0x64>
10002af6:	2380      	movs	r3, #128	; 0x80
10002af8:	01db      	lsls	r3, r3, #7
10002afa:	431a      	orrs	r2, r3
10002afc:	68e1      	ldr	r1, [r4, #12]
10002afe:	680b      	ldr	r3, [r1, #0]
10002b00:	055b      	lsls	r3, r3, #21
10002b02:	d43d      	bmi.n	10002b80 <_hw_endpoint_xfer_continue+0xe8>
10002b04:	4b22      	ldr	r3, [pc, #136]	; (10002b90 <_hw_endpoint_xfer_continue+0xf8>)
10002b06:	4013      	ands	r3, r2
10002b08:	600b      	str	r3, [r1, #0]
10002b0a:	e7ff      	b.n	10002b0c <_hw_endpoint_xfer_continue+0x74>
10002b0c:	e7ff      	b.n	10002b0e <_hw_endpoint_xfer_continue+0x76>
10002b0e:	e7ff      	b.n	10002b10 <_hw_endpoint_xfer_continue+0x78>
10002b10:	e7ff      	b.n	10002b12 <_hw_endpoint_xfer_continue+0x7a>
10002b12:	e7ff      	b.n	10002b14 <_hw_endpoint_xfer_continue+0x7c>
10002b14:	e7ff      	b.n	10002b16 <_hw_endpoint_xfer_continue+0x7e>
10002b16:	2000      	movs	r0, #0
10002b18:	68e3      	ldr	r3, [r4, #12]
10002b1a:	601a      	str	r2, [r3, #0]
10002b1c:	bdf8      	pop	{r3, r4, r5, r6, r7, pc}
10002b1e:	2540      	movs	r5, #64	; 0x40
10002b20:	e7ce      	b.n	10002ac0 <_hw_endpoint_xfer_continue+0x28>
10002b22:	6aa3      	ldr	r3, [r4, #40]	; 0x28
10002b24:	002a      	movs	r2, r5
10002b26:	469c      	mov	ip, r3
10002b28:	6920      	ldr	r0, [r4, #16]
10002b2a:	4461      	add	r1, ip
10002b2c:	f7ff fbb0 	bl	10002290 <__wrap___aeabi_memcpy>
10002b30:	2284      	movs	r2, #132	; 0x84
10002b32:	0212      	lsls	r2, r2, #8
10002b34:	5de3      	ldrb	r3, [r4, r7]
10002b36:	432a      	orrs	r2, r5
10002b38:	e7d2      	b.n	10002ae0 <_hw_endpoint_xfer_continue+0x48>
10002b3a:	69e2      	ldr	r2, [r4, #28]
10002b3c:	6aa3      	ldr	r3, [r4, #40]	; 0x28
10002b3e:	4694      	mov	ip, r2
10002b40:	4463      	add	r3, ip
10002b42:	0018      	movs	r0, r3
10002b44:	6921      	ldr	r1, [r4, #16]
10002b46:	002a      	movs	r2, r5
10002b48:	f7ff fba2 	bl	10002290 <__wrap___aeabi_memcpy>
10002b4c:	69e3      	ldr	r3, [r4, #28]
10002b4e:	78e0      	ldrb	r0, [r4, #3]
10002b50:	18e9      	adds	r1, r5, r3
10002b52:	61e1      	str	r1, [r4, #28]
10002b54:	2800      	cmp	r0, #0
10002b56:	d0af      	beq.n	10002ab8 <_hw_endpoint_xfer_continue+0x20>
10002b58:	6a23      	ldr	r3, [r4, #32]
10002b5a:	429d      	cmp	r5, r3
10002b5c:	d2ac      	bcs.n	10002ab8 <_hw_endpoint_xfer_continue+0x20>
10002b5e:	2300      	movs	r3, #0
10002b60:	2201      	movs	r2, #1
10002b62:	6223      	str	r3, [r4, #32]
10002b64:	3324      	adds	r3, #36	; 0x24
10002b66:	61a1      	str	r1, [r4, #24]
10002b68:	54e2      	strb	r2, [r4, r3]
10002b6a:	e7d7      	b.n	10002b1c <_hw_endpoint_xfer_continue+0x84>
10002b6c:	0030      	movs	r0, r6
10002b6e:	e7d5      	b.n	10002b1c <_hw_endpoint_xfer_continue+0x84>
10002b70:	4808      	ldr	r0, [pc, #32]	; (10002b94 <_hw_endpoint_xfer_continue+0xfc>)
10002b72:	f7fe fc97 	bl	100014a4 <panic>
10002b76:	7881      	ldrb	r1, [r0, #2]
10002b78:	4a07      	ldr	r2, [pc, #28]	; (10002b98 <_hw_endpoint_xfer_continue+0x100>)
10002b7a:	4808      	ldr	r0, [pc, #32]	; (10002b9c <_hw_endpoint_xfer_continue+0x104>)
10002b7c:	f7fe fc92 	bl	100014a4 <panic>
10002b80:	7863      	ldrb	r3, [r4, #1]
10002b82:	4a05      	ldr	r2, [pc, #20]	; (10002b98 <_hw_endpoint_xfer_continue+0x100>)
10002b84:	009b      	lsls	r3, r3, #2
10002b86:	78a1      	ldrb	r1, [r4, #2]
10002b88:	589a      	ldr	r2, [r3, r2]
10002b8a:	4805      	ldr	r0, [pc, #20]	; (10002ba0 <_hw_endpoint_xfer_continue+0x108>)
10002b8c:	f7fe fc8a 	bl	100014a4 <panic>
10002b90:	fffffbff 	.word	0xfffffbff
10002b94:	10004a50 	.word	0x10004a50
10002b98:	200002e4 	.word	0x200002e4
10002b9c:	10004a24 	.word	0x10004a24
10002ba0:	10004a04 	.word	0x10004a04

10002ba4 <_hw_endpoint_xfer>:
10002ba4:	b570      	push	{r4, r5, r6, lr}
10002ba6:	0004      	movs	r4, r0
10002ba8:	2b00      	cmp	r3, #0
10002baa:	d049      	beq.n	10002c40 <_hw_endpoint_xfer+0x9c>
10002bac:	7d43      	ldrb	r3, [r0, #21]
10002bae:	2b00      	cmp	r3, #0
10002bb0:	d003      	beq.n	10002bba <_hw_endpoint_xfer+0x16>
10002bb2:	2300      	movs	r3, #0
10002bb4:	7503      	strb	r3, [r0, #20]
10002bb6:	2032      	movs	r0, #50	; 0x32
10002bb8:	5423      	strb	r3, [r4, r0]
10002bba:	2300      	movs	r3, #0
10002bbc:	61a2      	str	r2, [r4, #24]
10002bbe:	61e3      	str	r3, [r4, #28]
10002bc0:	1c15      	adds	r5, r2, #0
10002bc2:	2a40      	cmp	r2, #64	; 0x40
10002bc4:	d831      	bhi.n	10002c2a <_hw_endpoint_xfer+0x86>
10002bc6:	2301      	movs	r3, #1
10002bc8:	b2ad      	uxth	r5, r5
10002bca:	1b52      	subs	r2, r2, r5
10002bcc:	7563      	strb	r3, [r4, #21]
10002bce:	4253      	negs	r3, r2
10002bd0:	4153      	adcs	r3, r2
10002bd2:	2624      	movs	r6, #36	; 0x24
10002bd4:	2225      	movs	r2, #37	; 0x25
10002bd6:	2000      	movs	r0, #0
10002bd8:	b2db      	uxtb	r3, r3
10002bda:	6225      	str	r5, [r4, #32]
10002bdc:	62a1      	str	r1, [r4, #40]	; 0x28
10002bde:	55a3      	strb	r3, [r4, r6]
10002be0:	54a0      	strb	r0, [r4, r2]
10002be2:	78e2      	ldrb	r2, [r4, #3]
10002be4:	2a00      	cmp	r2, #0
10002be6:	d022      	beq.n	10002c2e <_hw_endpoint_xfer+0x8a>
10002be8:	2280      	movs	r2, #128	; 0x80
10002bea:	00d2      	lsls	r2, r2, #3
10002bec:	432a      	orrs	r2, r5
10002bee:	7961      	ldrb	r1, [r4, #5]
10002bf0:	2900      	cmp	r1, #0
10002bf2:	d002      	beq.n	10002bfa <_hw_endpoint_xfer+0x56>
10002bf4:	2080      	movs	r0, #128	; 0x80
10002bf6:	0180      	lsls	r0, r0, #6
10002bf8:	4302      	orrs	r2, r0
10002bfa:	2001      	movs	r0, #1
10002bfc:	4041      	eors	r1, r0
10002bfe:	7161      	strb	r1, [r4, #5]
10002c00:	2b00      	cmp	r3, #0
10002c02:	d002      	beq.n	10002c0a <_hw_endpoint_xfer+0x66>
10002c04:	2380      	movs	r3, #128	; 0x80
10002c06:	01db      	lsls	r3, r3, #7
10002c08:	431a      	orrs	r2, r3
10002c0a:	68e1      	ldr	r1, [r4, #12]
10002c0c:	680b      	ldr	r3, [r1, #0]
10002c0e:	055b      	lsls	r3, r3, #21
10002c10:	d419      	bmi.n	10002c46 <_hw_endpoint_xfer+0xa2>
10002c12:	4b11      	ldr	r3, [pc, #68]	; (10002c58 <_hw_endpoint_xfer+0xb4>)
10002c14:	4013      	ands	r3, r2
10002c16:	600b      	str	r3, [r1, #0]
10002c18:	e7ff      	b.n	10002c1a <_hw_endpoint_xfer+0x76>
10002c1a:	e7ff      	b.n	10002c1c <_hw_endpoint_xfer+0x78>
10002c1c:	e7ff      	b.n	10002c1e <_hw_endpoint_xfer+0x7a>
10002c1e:	e7ff      	b.n	10002c20 <_hw_endpoint_xfer+0x7c>
10002c20:	e7ff      	b.n	10002c22 <_hw_endpoint_xfer+0x7e>
10002c22:	e7ff      	b.n	10002c24 <_hw_endpoint_xfer+0x80>
10002c24:	68e3      	ldr	r3, [r4, #12]
10002c26:	601a      	str	r2, [r3, #0]
10002c28:	bd70      	pop	{r4, r5, r6, pc}
10002c2a:	2540      	movs	r5, #64	; 0x40
10002c2c:	e7cb      	b.n	10002bc6 <_hw_endpoint_xfer+0x22>
10002c2e:	002a      	movs	r2, r5
10002c30:	6920      	ldr	r0, [r4, #16]
10002c32:	f7ff fb2d 	bl	10002290 <__wrap___aeabi_memcpy>
10002c36:	2284      	movs	r2, #132	; 0x84
10002c38:	0212      	lsls	r2, r2, #8
10002c3a:	5da3      	ldrb	r3, [r4, r6]
10002c3c:	432a      	orrs	r2, r5
10002c3e:	e7d6      	b.n	10002bee <_hw_endpoint_xfer+0x4a>
10002c40:	f7ff ff2a 	bl	10002a98 <_hw_endpoint_xfer_continue>
10002c44:	e7f0      	b.n	10002c28 <_hw_endpoint_xfer+0x84>
10002c46:	7863      	ldrb	r3, [r4, #1]
10002c48:	4a04      	ldr	r2, [pc, #16]	; (10002c5c <_hw_endpoint_xfer+0xb8>)
10002c4a:	009b      	lsls	r3, r3, #2
10002c4c:	78a1      	ldrb	r1, [r4, #2]
10002c4e:	589a      	ldr	r2, [r3, r2]
10002c50:	4803      	ldr	r0, [pc, #12]	; (10002c60 <_hw_endpoint_xfer+0xbc>)
10002c52:	f7fe fc27 	bl	100014a4 <panic>
10002c56:	46c0      	nop			; (mov r8, r8)
10002c58:	fffffbff 	.word	0xfffffbff
10002c5c:	200002e4 	.word	0x200002e4
10002c60:	10004a04 	.word	0x10004a04

10002c64 <tud_init>:
10002c64:	b5f8      	push	{r3, r4, r5, r6, r7, lr}
10002c66:	2237      	movs	r2, #55	; 0x37
10002c68:	2100      	movs	r1, #0
10002c6a:	4821      	ldr	r0, [pc, #132]	; (10002cf0 <tud_init+0x8c>)
10002c6c:	f7ff fb0a 	bl	10002284 <__wrap_memset>
10002c70:	4c20      	ldr	r4, [pc, #128]	; (10002cf4 <tud_init+0x90>)
10002c72:	0020      	movs	r0, r4
10002c74:	f7fe f966 	bl	10000f44 <mutex_init>
10002c78:	4b1f      	ldr	r3, [pc, #124]	; (10002cf8 <tud_init+0x94>)
10002c7a:	601c      	str	r4, [r3, #0]
10002c7c:	4c1f      	ldr	r4, [pc, #124]	; (10002cfc <tud_init+0x98>)
10002c7e:	0020      	movs	r0, r4
10002c80:	3018      	adds	r0, #24
10002c82:	f7fe f96b 	bl	10000f5c <critical_section_init>
10002c86:	0020      	movs	r0, r4
10002c88:	f001 f8c8 	bl	10003e1c <tu_fifo_clear>
10002c8c:	4b1c      	ldr	r3, [pc, #112]	; (10002d00 <tud_init+0x9c>)
10002c8e:	4e1d      	ldr	r6, [pc, #116]	; (10002d04 <tud_init+0xa0>)
10002c90:	4d1d      	ldr	r5, [pc, #116]	; (10002d08 <tud_init+0xa4>)
10002c92:	601c      	str	r4, [r3, #0]
10002c94:	2e00      	cmp	r6, #0
10002c96:	d004      	beq.n	10002ca2 <tud_init+0x3e>
10002c98:	0028      	movs	r0, r5
10002c9a:	e000      	b.n	10002c9e <tud_init+0x3a>
10002c9c:	bf00      	nop
10002c9e:	4b1b      	ldr	r3, [pc, #108]	; (10002d0c <tud_init+0xa8>)
10002ca0:	6018      	str	r0, [r3, #0]
10002ca2:	2400      	movs	r4, #0
10002ca4:	782b      	ldrb	r3, [r5, #0]
10002ca6:	2e00      	cmp	r6, #0
10002ca8:	d019      	beq.n	10002cde <tud_init+0x7a>
10002caa:	4e19      	ldr	r6, [pc, #100]	; (10002d10 <tud_init+0xac>)
10002cac:	4f17      	ldr	r7, [pc, #92]	; (10002d0c <tud_init+0xa8>)
10002cae:	429c      	cmp	r4, r3
10002cb0:	d30f      	bcc.n	10002cd2 <tud_init+0x6e>
10002cb2:	d119      	bne.n	10002ce8 <tud_init+0x84>
10002cb4:	0033      	movs	r3, r6
10002cb6:	4798      	blx	r3
10002cb8:	3401      	adds	r4, #1
10002cba:	782b      	ldrb	r3, [r5, #0]
10002cbc:	b2e4      	uxtb	r4, r4
10002cbe:	42a3      	cmp	r3, r4
10002cc0:	d2f5      	bcs.n	10002cae <tud_init+0x4a>
10002cc2:	2000      	movs	r0, #0
10002cc4:	f7ff fd0e 	bl	100026e4 <dcd_init>
10002cc8:	2000      	movs	r0, #0
10002cca:	f7ff fce5 	bl	10002698 <dcd_int_enable>
10002cce:	2001      	movs	r0, #1
10002cd0:	bdf8      	pop	{r3, r4, r5, r6, r7, pc}
10002cd2:	00e3      	lsls	r3, r4, #3
10002cd4:	683a      	ldr	r2, [r7, #0]
10002cd6:	1b1b      	subs	r3, r3, r4
10002cd8:	009b      	lsls	r3, r3, #2
10002cda:	589b      	ldr	r3, [r3, r2]
10002cdc:	e7eb      	b.n	10002cb6 <tud_init+0x52>
10002cde:	f000 fec3 	bl	10003a68 <hidd_init>
10002ce2:	782b      	ldrb	r3, [r5, #0]
10002ce4:	2b00      	cmp	r3, #0
10002ce6:	d0ec      	beq.n	10002cc2 <tud_init+0x5e>
10002ce8:	2300      	movs	r3, #0
10002cea:	681b      	ldr	r3, [r3, #0]
10002cec:	deff      	udf	#255	; 0xff
10002cee:	46c0      	nop			; (mov r8, r8)
10002cf0:	20000ce0 	.word	0x20000ce0
10002cf4:	20000c98 	.word	0x20000c98
10002cf8:	20000d18 	.word	0x20000d18
10002cfc:	200002ec 	.word	0x200002ec
10002d00:	20000d1c 	.word	0x20000d1c
10002d04:	00000000 	.word	0x00000000
10002d08:	20001418 	.word	0x20001418
10002d0c:	20000bb4 	.word	0x20000bb4
10002d10:	10003a69 	.word	0x10003a69

10002d14 <tud_task>:
10002d14:	b5f0      	push	{r4, r5, r6, r7, lr}
10002d16:	46de      	mov	lr, fp
10002d18:	4657      	mov	r7, sl
10002d1a:	464e      	mov	r6, r9
10002d1c:	4645      	mov	r5, r8
10002d1e:	b5e0      	push	{r5, r6, r7, lr}
10002d20:	b08b      	sub	sp, #44	; 0x2c
10002d22:	f000 ffdf 	bl	10003ce4 <tusb_inited>
10002d26:	2800      	cmp	r0, #0
10002d28:	d100      	bne.n	10002d2c <tud_task+0x18>
10002d2a:	e122      	b.n	10002f72 <tud_task+0x25e>
10002d2c:	4bb2      	ldr	r3, [pc, #712]	; (10002ff8 <tud_task+0x2e4>)
10002d2e:	ad07      	add	r5, sp, #28
10002d30:	469a      	mov	sl, r3
10002d32:	4bb2      	ldr	r3, [pc, #712]	; (10002ffc <tud_task+0x2e8>)
10002d34:	469b      	mov	fp, r3
10002d36:	4653      	mov	r3, sl
10002d38:	681e      	ldr	r6, [r3, #0]
10002d3a:	69b2      	ldr	r2, [r6, #24]
10002d3c:	f3ef 8310 	mrs	r3, PRIMASK
10002d40:	b672      	cpsid	i
10002d42:	6811      	ldr	r1, [r2, #0]
10002d44:	2900      	cmp	r1, #0
10002d46:	d0fc      	beq.n	10002d42 <tud_task+0x2e>
10002d48:	f3bf 8f5f 	dmb	sy
10002d4c:	61f3      	str	r3, [r6, #28]
10002d4e:	0029      	movs	r1, r5
10002d50:	0030      	movs	r0, r6
10002d52:	f000 ffcd 	bl	10003cf0 <tu_fifo_read>
10002d56:	69b2      	ldr	r2, [r6, #24]
10002d58:	0004      	movs	r4, r0
10002d5a:	69f3      	ldr	r3, [r6, #28]
10002d5c:	f3bf 8f5f 	dmb	sy
10002d60:	2100      	movs	r1, #0
10002d62:	6011      	str	r1, [r2, #0]
10002d64:	f383 8810 	msr	PRIMASK, r3
10002d68:	2800      	cmp	r0, #0
10002d6a:	d100      	bne.n	10002d6e <tud_task+0x5a>
10002d6c:	e101      	b.n	10002f72 <tud_task+0x25e>
10002d6e:	786b      	ldrb	r3, [r5, #1]
10002d70:	2b08      	cmp	r3, #8
10002d72:	d8e0      	bhi.n	10002d36 <tud_task+0x22>
10002d74:	465a      	mov	r2, fp
10002d76:	009b      	lsls	r3, r3, #2
10002d78:	58d3      	ldr	r3, [r2, r3]
10002d7a:	469f      	mov	pc, r3
10002d7c:	686b      	ldr	r3, [r5, #4]
10002d7e:	2b00      	cmp	r3, #0
10002d80:	d0d9      	beq.n	10002d36 <tud_task+0x22>
10002d82:	68a8      	ldr	r0, [r5, #8]
10002d84:	4798      	blx	r3
10002d86:	e7d6      	b.n	10002d36 <tud_task+0x22>
10002d88:	227f      	movs	r2, #127	; 0x7f
10002d8a:	7929      	ldrb	r1, [r5, #4]
10002d8c:	4b9c      	ldr	r3, [pc, #624]	; (10003000 <tud_task+0x2ec>)
10002d8e:	400a      	ands	r2, r1
10002d90:	0054      	lsls	r4, r2, #1
10002d92:	09c8      	lsrs	r0, r1, #7
10002d94:	191b      	adds	r3, r3, r4
10002d96:	181b      	adds	r3, r3, r0
10002d98:	0018      	movs	r0, r3
10002d9a:	2601      	movs	r6, #1
10002d9c:	3020      	adds	r0, #32
10002d9e:	7944      	ldrb	r4, [r0, #5]
10002da0:	43b4      	bics	r4, r6
10002da2:	7144      	strb	r4, [r0, #5]
10002da4:	7944      	ldrb	r4, [r0, #5]
10002da6:	3603      	adds	r6, #3
10002da8:	43b4      	bics	r4, r6
10002daa:	7144      	strb	r4, [r0, #5]
10002dac:	2a00      	cmp	r2, #0
10002dae:	d100      	bne.n	10002db2 <tud_task+0x9e>
10002db0:	e0e6      	b.n	10002f80 <tud_task+0x26c>
10002db2:	4a94      	ldr	r2, [pc, #592]	; (10003004 <tud_task+0x2f0>)
10002db4:	7cdb      	ldrb	r3, [r3, #19]
10002db6:	2a00      	cmp	r2, #0
10002db8:	d006      	beq.n	10002dc8 <tud_task+0xb4>
10002dba:	4a93      	ldr	r2, [pc, #588]	; (10003008 <tud_task+0x2f4>)
10002dbc:	7812      	ldrb	r2, [r2, #0]
10002dbe:	4293      	cmp	r3, r2
10002dc0:	d200      	bcs.n	10002dc4 <tud_task+0xb0>
10002dc2:	e16d      	b.n	100030a0 <tud_task+0x38c>
10002dc4:	1a9b      	subs	r3, r3, r2
10002dc6:	b2db      	uxtb	r3, r3
10002dc8:	2b00      	cmp	r3, #0
10002dca:	d000      	beq.n	10002dce <tud_task+0xba>
10002dcc:	e0d1      	b.n	10002f72 <tud_task+0x25e>
10002dce:	4c8f      	ldr	r4, [pc, #572]	; (1000300c <tud_task+0x2f8>)
10002dd0:	796a      	ldrb	r2, [r5, #5]
10002dd2:	7828      	ldrb	r0, [r5, #0]
10002dd4:	68ab      	ldr	r3, [r5, #8]
10002dd6:	47a0      	blx	r4
10002dd8:	e7ad      	b.n	10002d36 <tud_task+0x22>
10002dda:	4b89      	ldr	r3, [pc, #548]	; (10003000 <tud_task+0x2ec>)
10002ddc:	2701      	movs	r7, #1
10002dde:	4698      	mov	r8, r3
10002de0:	4642      	mov	r2, r8
10002de2:	781b      	ldrb	r3, [r3, #0]
10002de4:	2000      	movs	r0, #0
10002de6:	433b      	orrs	r3, r7
10002de8:	7013      	strb	r3, [r2, #0]
10002dea:	782b      	ldrb	r3, [r5, #0]
10002dec:	4699      	mov	r9, r3
10002dee:	f000 fd6b 	bl	100038c8 <usbd_control_set_complete_callback>
10002df2:	2360      	movs	r3, #96	; 0x60
10002df4:	792e      	ldrb	r6, [r5, #4]
10002df6:	4033      	ands	r3, r6
10002df8:	2b60      	cmp	r3, #96	; 0x60
10002dfa:	d00d      	beq.n	10002e18 <tud_task+0x104>
10002dfc:	2b40      	cmp	r3, #64	; 0x40
10002dfe:	d100      	bne.n	10002e02 <tud_task+0xee>
10002e00:	e0da      	b.n	10002fb8 <tud_task+0x2a4>
10002e02:	06f6      	lsls	r6, r6, #27
10002e04:	0ef6      	lsrs	r6, r6, #27
10002e06:	2e01      	cmp	r6, #1
10002e08:	d100      	bne.n	10002e0c <tud_task+0xf8>
10002e0a:	e154      	b.n	100030b6 <tud_task+0x3a2>
10002e0c:	2e02      	cmp	r6, #2
10002e0e:	d100      	bne.n	10002e12 <tud_task+0xfe>
10002e10:	e110      	b.n	10003034 <tud_task+0x320>
10002e12:	2e00      	cmp	r6, #0
10002e14:	d100      	bne.n	10002e18 <tud_task+0x104>
10002e16:	e0e1      	b.n	10002fdc <tud_task+0x2c8>
10002e18:	7828      	ldrb	r0, [r5, #0]
10002e1a:	2100      	movs	r1, #0
10002e1c:	f7ff fd90 	bl	10002940 <dcd_edpt_stall>
10002e20:	2180      	movs	r1, #128	; 0x80
10002e22:	7828      	ldrb	r0, [r5, #0]
10002e24:	f7ff fd8c 	bl	10002940 <dcd_edpt_stall>
10002e28:	e785      	b.n	10002d36 <tud_task+0x22>
10002e2a:	4b79      	ldr	r3, [pc, #484]	; (10003010 <tud_task+0x2fc>)
10002e2c:	2b00      	cmp	r3, #0
10002e2e:	d082      	beq.n	10002d36 <tud_task+0x22>
10002e30:	f7fd fac6 	bl	100003c0 <tud_resume_cb>
10002e34:	e77f      	b.n	10002d36 <tud_task+0x22>
10002e36:	4b77      	ldr	r3, [pc, #476]	; (10003014 <tud_task+0x300>)
10002e38:	2b00      	cmp	r3, #0
10002e3a:	d100      	bne.n	10002e3e <tud_task+0x12a>
10002e3c:	e77b      	b.n	10002d36 <tud_task+0x22>
10002e3e:	4b70      	ldr	r3, [pc, #448]	; (10003000 <tud_task+0x2ec>)
10002e40:	7818      	ldrb	r0, [r3, #0]
10002e42:	0700      	lsls	r0, r0, #28
10002e44:	0fc0      	lsrs	r0, r0, #31
10002e46:	f7fd fab3 	bl	100003b0 <tud_suspend_cb>
10002e4a:	e774      	b.n	10002d36 <tud_task+0x22>
10002e4c:	4e6e      	ldr	r6, [pc, #440]	; (10003008 <tud_task+0x2f4>)
10002e4e:	4a6d      	ldr	r2, [pc, #436]	; (10003004 <tud_task+0x2f0>)
10002e50:	2400      	movs	r4, #0
10002e52:	7833      	ldrb	r3, [r6, #0]
10002e54:	2a00      	cmp	r2, #0
10002e56:	d100      	bne.n	10002e5a <tud_task+0x146>
10002e58:	e098      	b.n	10002f8c <tud_task+0x278>
10002e5a:	4f6f      	ldr	r7, [pc, #444]	; (10003018 <tud_task+0x304>)
10002e5c:	42a3      	cmp	r3, r4
10002e5e:	d808      	bhi.n	10002e72 <tud_task+0x15e>
10002e60:	42a3      	cmp	r3, r4
10002e62:	d000      	beq.n	10002e66 <tud_task+0x152>
10002e64:	e095      	b.n	10002f92 <tud_task+0x27e>
10002e66:	3401      	adds	r4, #1
10002e68:	b2e4      	uxtb	r4, r4
10002e6a:	42a3      	cmp	r3, r4
10002e6c:	d200      	bcs.n	10002e70 <tud_task+0x15c>
10002e6e:	e762      	b.n	10002d36 <tud_task+0x22>
10002e70:	d9f6      	bls.n	10002e60 <tud_task+0x14c>
10002e72:	6839      	ldr	r1, [r7, #0]
10002e74:	00e2      	lsls	r2, r4, #3
10002e76:	468c      	mov	ip, r1
10002e78:	1b12      	subs	r2, r2, r4
10002e7a:	0092      	lsls	r2, r2, #2
10002e7c:	4462      	add	r2, ip
10002e7e:	6992      	ldr	r2, [r2, #24]
10002e80:	2a00      	cmp	r2, #0
10002e82:	d0f0      	beq.n	10002e66 <tud_task+0x152>
10002e84:	7828      	ldrb	r0, [r5, #0]
10002e86:	4790      	blx	r2
10002e88:	3401      	adds	r4, #1
10002e8a:	7833      	ldrb	r3, [r6, #0]
10002e8c:	b2e4      	uxtb	r4, r4
10002e8e:	42a3      	cmp	r3, r4
10002e90:	d2e4      	bcs.n	10002e5c <tud_task+0x148>
10002e92:	e750      	b.n	10002d36 <tud_task+0x22>
10002e94:	2237      	movs	r2, #55	; 0x37
10002e96:	2100      	movs	r1, #0
10002e98:	4859      	ldr	r0, [pc, #356]	; (10003000 <tud_task+0x2ec>)
10002e9a:	782f      	ldrb	r7, [r5, #0]
10002e9c:	f7ff f9f2 	bl	10002284 <__wrap_memset>
10002ea0:	2210      	movs	r2, #16
10002ea2:	21ff      	movs	r1, #255	; 0xff
10002ea4:	485d      	ldr	r0, [pc, #372]	; (1000301c <tud_task+0x308>)
10002ea6:	f7ff f9ed 	bl	10002284 <__wrap_memset>
10002eaa:	4855      	ldr	r0, [pc, #340]	; (10003000 <tud_task+0x2ec>)
10002eac:	2212      	movs	r2, #18
10002eae:	21ff      	movs	r1, #255	; 0xff
10002eb0:	3013      	adds	r0, #19
10002eb2:	f7ff f9e7 	bl	10002284 <__wrap_memset>
10002eb6:	f000 fcfd 	bl	100038b4 <usbd_control_reset>
10002eba:	4e53      	ldr	r6, [pc, #332]	; (10003008 <tud_task+0x2f4>)
10002ebc:	4a51      	ldr	r2, [pc, #324]	; (10003004 <tud_task+0x2f0>)
10002ebe:	2400      	movs	r4, #0
10002ec0:	7833      	ldrb	r3, [r6, #0]
10002ec2:	2a00      	cmp	r2, #0
10002ec4:	d100      	bne.n	10002ec8 <tud_task+0x1b4>
10002ec6:	e070      	b.n	10002faa <tud_task+0x296>
10002ec8:	4a55      	ldr	r2, [pc, #340]	; (10003020 <tud_task+0x30c>)
10002eca:	4690      	mov	r8, r2
10002ecc:	4a52      	ldr	r2, [pc, #328]	; (10003018 <tud_task+0x304>)
10002ece:	4691      	mov	r9, r2
10002ed0:	42a3      	cmp	r3, r4
10002ed2:	d845      	bhi.n	10002f60 <tud_task+0x24c>
10002ed4:	d166      	bne.n	10002fa4 <tud_task+0x290>
10002ed6:	4643      	mov	r3, r8
10002ed8:	0038      	movs	r0, r7
10002eda:	4798      	blx	r3
10002edc:	3401      	adds	r4, #1
10002ede:	7833      	ldrb	r3, [r6, #0]
10002ee0:	b2e4      	uxtb	r4, r4
10002ee2:	42a3      	cmp	r3, r4
10002ee4:	d2f4      	bcs.n	10002ed0 <tud_task+0x1bc>
10002ee6:	4b4f      	ldr	r3, [pc, #316]	; (10003024 <tud_task+0x310>)
10002ee8:	2b00      	cmp	r3, #0
10002eea:	d100      	bne.n	10002eee <tud_task+0x1da>
10002eec:	e723      	b.n	10002d36 <tud_task+0x22>
10002eee:	f7fd fa59 	bl	100003a4 <tud_umount_cb>
10002ef2:	e720      	b.n	10002d36 <tud_task+0x22>
10002ef4:	4b42      	ldr	r3, [pc, #264]	; (10003000 <tud_task+0x2ec>)
10002ef6:	2237      	movs	r2, #55	; 0x37
10002ef8:	4698      	mov	r8, r3
10002efa:	2100      	movs	r1, #0
10002efc:	0018      	movs	r0, r3
10002efe:	782f      	ldrb	r7, [r5, #0]
10002f00:	f7ff f9c0 	bl	10002284 <__wrap_memset>
10002f04:	4643      	mov	r3, r8
10002f06:	2210      	movs	r2, #16
10002f08:	1cd8      	adds	r0, r3, #3
10002f0a:	21ff      	movs	r1, #255	; 0xff
10002f0c:	f7ff f9ba 	bl	10002284 <__wrap_memset>
10002f10:	4640      	mov	r0, r8
10002f12:	2212      	movs	r2, #18
10002f14:	21ff      	movs	r1, #255	; 0xff
10002f16:	3013      	adds	r0, #19
10002f18:	f7ff f9b4 	bl	10002284 <__wrap_memset>
10002f1c:	f000 fcca 	bl	100038b4 <usbd_control_reset>
10002f20:	4e39      	ldr	r6, [pc, #228]	; (10003008 <tud_task+0x2f4>)
10002f22:	4a38      	ldr	r2, [pc, #224]	; (10003004 <tud_task+0x2f0>)
10002f24:	2400      	movs	r4, #0
10002f26:	7833      	ldrb	r3, [r6, #0]
10002f28:	2a00      	cmp	r2, #0
10002f2a:	d035      	beq.n	10002f98 <tud_task+0x284>
10002f2c:	4a3a      	ldr	r2, [pc, #232]	; (10003018 <tud_task+0x304>)
10002f2e:	4691      	mov	r9, r2
10002f30:	429c      	cmp	r4, r3
10002f32:	d30c      	bcc.n	10002f4e <tud_task+0x23a>
10002f34:	d136      	bne.n	10002fa4 <tud_task+0x290>
10002f36:	4b3a      	ldr	r3, [pc, #232]	; (10003020 <tud_task+0x30c>)
10002f38:	0038      	movs	r0, r7
10002f3a:	4798      	blx	r3
10002f3c:	3401      	adds	r4, #1
10002f3e:	7833      	ldrb	r3, [r6, #0]
10002f40:	b2e4      	uxtb	r4, r4
10002f42:	42a3      	cmp	r3, r4
10002f44:	d2f4      	bcs.n	10002f30 <tud_task+0x21c>
10002f46:	4642      	mov	r2, r8
10002f48:	792b      	ldrb	r3, [r5, #4]
10002f4a:	7093      	strb	r3, [r2, #2]
10002f4c:	e6f3      	b.n	10002d36 <tud_task+0x22>
10002f4e:	464a      	mov	r2, r9
10002f50:	6812      	ldr	r2, [r2, #0]
10002f52:	00e3      	lsls	r3, r4, #3
10002f54:	4694      	mov	ip, r2
10002f56:	1b1b      	subs	r3, r3, r4
10002f58:	009b      	lsls	r3, r3, #2
10002f5a:	4463      	add	r3, ip
10002f5c:	685b      	ldr	r3, [r3, #4]
10002f5e:	e7eb      	b.n	10002f38 <tud_task+0x224>
10002f60:	464a      	mov	r2, r9
10002f62:	6812      	ldr	r2, [r2, #0]
10002f64:	00e3      	lsls	r3, r4, #3
10002f66:	4694      	mov	ip, r2
10002f68:	1b1b      	subs	r3, r3, r4
10002f6a:	009b      	lsls	r3, r3, #2
10002f6c:	4463      	add	r3, ip
10002f6e:	685b      	ldr	r3, [r3, #4]
10002f70:	e7b2      	b.n	10002ed8 <tud_task+0x1c4>
10002f72:	b00b      	add	sp, #44	; 0x2c
10002f74:	bc3c      	pop	{r2, r3, r4, r5}
10002f76:	4690      	mov	r8, r2
10002f78:	4699      	mov	r9, r3
10002f7a:	46a2      	mov	sl, r4
10002f7c:	46ab      	mov	fp, r5
10002f7e:	bdf0      	pop	{r4, r5, r6, r7, pc}
10002f80:	796a      	ldrb	r2, [r5, #5]
10002f82:	7828      	ldrb	r0, [r5, #0]
10002f84:	68ab      	ldr	r3, [r5, #8]
10002f86:	f000 fcb3 	bl	100038f0 <usbd_control_xfer_cb>
10002f8a:	e6d4      	b.n	10002d36 <tud_task+0x22>
10002f8c:	2b00      	cmp	r3, #0
10002f8e:	d100      	bne.n	10002f92 <tud_task+0x27e>
10002f90:	e6d1      	b.n	10002d36 <tud_task+0x22>
10002f92:	2300      	movs	r3, #0
10002f94:	699b      	ldr	r3, [r3, #24]
10002f96:	deff      	udf	#255	; 0xff
10002f98:	0038      	movs	r0, r7
10002f9a:	f000 fd6f 	bl	10003a7c <hidd_reset>
10002f9e:	7833      	ldrb	r3, [r6, #0]
10002fa0:	2b00      	cmp	r3, #0
10002fa2:	d0d0      	beq.n	10002f46 <tud_task+0x232>
10002fa4:	2300      	movs	r3, #0
10002fa6:	685b      	ldr	r3, [r3, #4]
10002fa8:	deff      	udf	#255	; 0xff
10002faa:	0038      	movs	r0, r7
10002fac:	f000 fd66 	bl	10003a7c <hidd_reset>
10002fb0:	7833      	ldrb	r3, [r6, #0]
10002fb2:	2b00      	cmp	r3, #0
10002fb4:	d097      	beq.n	10002ee6 <tud_task+0x1d2>
10002fb6:	e7f5      	b.n	10002fa4 <tud_task+0x290>
10002fb8:	4b1b      	ldr	r3, [pc, #108]	; (10003028 <tud_task+0x314>)
10002fba:	2b00      	cmp	r3, #0
10002fbc:	d100      	bne.n	10002fc0 <tud_task+0x2ac>
10002fbe:	e72b      	b.n	10002e18 <tud_task+0x104>
10002fc0:	481a      	ldr	r0, [pc, #104]	; (1000302c <tud_task+0x318>)
10002fc2:	2800      	cmp	r0, #0
10002fc4:	d001      	beq.n	10002fca <tud_task+0x2b6>
10002fc6:	f000 fc7f 	bl	100038c8 <usbd_control_set_complete_callback>
10002fca:	4648      	mov	r0, r9
10002fcc:	a908      	add	r1, sp, #32
10002fce:	e000      	b.n	10002fd2 <tud_task+0x2be>
10002fd0:	bf00      	nop
10002fd2:	0004      	movs	r4, r0
10002fd4:	2c00      	cmp	r4, #0
10002fd6:	d000      	beq.n	10002fda <tud_task+0x2c6>
10002fd8:	e6ad      	b.n	10002d36 <tud_task+0x22>
10002fda:	e71d      	b.n	10002e18 <tud_task+0x104>
10002fdc:	2b20      	cmp	r3, #32
10002fde:	d100      	bne.n	10002fe2 <tud_task+0x2ce>
10002fe0:	e09a      	b.n	10003118 <tud_task+0x404>
10002fe2:	2b00      	cmp	r3, #0
10002fe4:	d000      	beq.n	10002fe8 <tud_task+0x2d4>
10002fe6:	e717      	b.n	10002e18 <tud_task+0x104>
10002fe8:	796b      	ldrb	r3, [r5, #5]
10002fea:	2b09      	cmp	r3, #9
10002fec:	d900      	bls.n	10002ff0 <tud_task+0x2dc>
10002fee:	e713      	b.n	10002e18 <tud_task+0x104>
10002ff0:	4a0f      	ldr	r2, [pc, #60]	; (10003030 <tud_task+0x31c>)
10002ff2:	009b      	lsls	r3, r3, #2
10002ff4:	58d3      	ldr	r3, [r2, r3]
10002ff6:	469f      	mov	pc, r3
10002ff8:	20000d1c 	.word	0x20000d1c
10002ffc:	10004a74 	.word	0x10004a74
10003000:	20000ce0 	.word	0x20000ce0
10003004:	00000000 	.word	0x00000000
10003008:	20001418 	.word	0x20001418
1000300c:	10003c91 	.word	0x10003c91
10003010:	100003c1 	.word	0x100003c1
10003014:	100003b1 	.word	0x100003b1
10003018:	20000bb4 	.word	0x20000bb4
1000301c:	20000ce3 	.word	0x20000ce3
10003020:	10003a7d 	.word	0x10003a7d
10003024:	100003a5 	.word	0x100003a5
	...
10003030:	10004a98 	.word	0x10004a98
10003034:	227f      	movs	r2, #127	; 0x7f
10003036:	7a29      	ldrb	r1, [r5, #8]
10003038:	400a      	ands	r2, r1
1000303a:	9202      	str	r2, [sp, #8]
1000303c:	2a08      	cmp	r2, #8
1000303e:	d900      	bls.n	10003042 <tud_task+0x32e>
10003040:	e6ea      	b.n	10002e18 <tud_task+0x104>
10003042:	09c8      	lsrs	r0, r1, #7
10003044:	9001      	str	r0, [sp, #4]
10003046:	2b00      	cmp	r3, #0
10003048:	d100      	bne.n	1000304c <tud_task+0x338>
1000304a:	e082      	b.n	10003152 <tud_task+0x43e>
1000304c:	2400      	movs	r4, #0
1000304e:	0053      	lsls	r3, r2, #1
10003050:	9302      	str	r3, [sp, #8]
10003052:	9a01      	ldr	r2, [sp, #4]
10003054:	9b02      	ldr	r3, [sp, #8]
10003056:	4694      	mov	ip, r2
10003058:	4443      	add	r3, r8
1000305a:	4ac7      	ldr	r2, [pc, #796]	; (10003378 <tud_task+0x664>)
1000305c:	4463      	add	r3, ip
1000305e:	7cdb      	ldrb	r3, [r3, #19]
10003060:	2a00      	cmp	r2, #0
10003062:	d006      	beq.n	10003072 <tud_task+0x35e>
10003064:	4ac5      	ldr	r2, [pc, #788]	; (1000337c <tud_task+0x668>)
10003066:	7812      	ldrb	r2, [r2, #0]
10003068:	4293      	cmp	r3, r2
1000306a:	d200      	bcs.n	1000306e <tud_task+0x35a>
1000306c:	e13b      	b.n	100032e6 <tud_task+0x5d2>
1000306e:	1a9b      	subs	r3, r3, r2
10003070:	b2db      	uxtb	r3, r3
10003072:	2b00      	cmp	r3, #0
10003074:	d000      	beq.n	10003078 <tud_task+0x364>
10003076:	e12d      	b.n	100032d4 <tud_task+0x5c0>
10003078:	48c1      	ldr	r0, [pc, #772]	; (10003380 <tud_task+0x66c>)
1000307a:	4ec2      	ldr	r6, [pc, #776]	; (10003384 <tud_task+0x670>)
1000307c:	f000 fc24 	bl	100038c8 <usbd_control_set_complete_callback>
10003080:	4648      	mov	r0, r9
10003082:	68f3      	ldr	r3, [r6, #12]
10003084:	a908      	add	r1, sp, #32
10003086:	4798      	blx	r3
10003088:	2800      	cmp	r0, #0
1000308a:	d100      	bne.n	1000308e <tud_task+0x37a>
1000308c:	e122      	b.n	100032d4 <tud_task+0x5c0>
1000308e:	2260      	movs	r2, #96	; 0x60
10003090:	792b      	ldrb	r3, [r5, #4]
10003092:	421a      	tst	r2, r3
10003094:	d000      	beq.n	10003098 <tud_task+0x384>
10003096:	e64e      	b.n	10002d36 <tud_task+0x22>
10003098:	2000      	movs	r0, #0
1000309a:	f000 fc15 	bl	100038c8 <usbd_control_set_complete_callback>
1000309e:	e64a      	b.n	10002d36 <tud_task+0x22>
100030a0:	00da      	lsls	r2, r3, #3
100030a2:	1ad3      	subs	r3, r2, r3
100030a4:	4ab8      	ldr	r2, [pc, #736]	; (10003388 <tud_task+0x674>)
100030a6:	009b      	lsls	r3, r3, #2
100030a8:	6812      	ldr	r2, [r2, #0]
100030aa:	18d3      	adds	r3, r2, r3
100030ac:	2b00      	cmp	r3, #0
100030ae:	d100      	bne.n	100030b2 <tud_task+0x39e>
100030b0:	e75f      	b.n	10002f72 <tud_task+0x25e>
100030b2:	695c      	ldr	r4, [r3, #20]
100030b4:	e68c      	b.n	10002dd0 <tud_task+0xbc>
100030b6:	7a2b      	ldrb	r3, [r5, #8]
100030b8:	2b0f      	cmp	r3, #15
100030ba:	d900      	bls.n	100030be <tud_task+0x3aa>
100030bc:	e6ac      	b.n	10002e18 <tud_task+0x104>
100030be:	4aae      	ldr	r2, [pc, #696]	; (10003378 <tud_task+0x664>)
100030c0:	4443      	add	r3, r8
100030c2:	78db      	ldrb	r3, [r3, #3]
100030c4:	2a00      	cmp	r2, #0
100030c6:	d005      	beq.n	100030d4 <tud_task+0x3c0>
100030c8:	4aac      	ldr	r2, [pc, #688]	; (1000337c <tud_task+0x668>)
100030ca:	7812      	ldrb	r2, [r2, #0]
100030cc:	4293      	cmp	r3, r2
100030ce:	d35e      	bcc.n	1000318e <tud_task+0x47a>
100030d0:	1a9b      	subs	r3, r3, r2
100030d2:	b2db      	uxtb	r3, r3
100030d4:	2b00      	cmp	r3, #0
100030d6:	d000      	beq.n	100030da <tud_task+0x3c6>
100030d8:	e69e      	b.n	10002e18 <tud_task+0x104>
100030da:	48a9      	ldr	r0, [pc, #676]	; (10003380 <tud_task+0x66c>)
100030dc:	4ca9      	ldr	r4, [pc, #676]	; (10003384 <tud_task+0x670>)
100030de:	f000 fbf3 	bl	100038c8 <usbd_control_set_complete_callback>
100030e2:	4648      	mov	r0, r9
100030e4:	68e3      	ldr	r3, [r4, #12]
100030e6:	a908      	add	r1, sp, #32
100030e8:	4798      	blx	r3
100030ea:	2800      	cmp	r0, #0
100030ec:	d000      	beq.n	100030f0 <tud_task+0x3dc>
100030ee:	e622      	b.n	10002d36 <tud_task+0x22>
100030f0:	2260      	movs	r2, #96	; 0x60
100030f2:	0011      	movs	r1, r2
100030f4:	792b      	ldrb	r3, [r5, #4]
100030f6:	4019      	ands	r1, r3
100030f8:	421a      	tst	r2, r3
100030fa:	d000      	beq.n	100030fe <tud_task+0x3ea>
100030fc:	e68c      	b.n	10002e18 <tud_task+0x104>
100030fe:	796b      	ldrb	r3, [r5, #5]
10003100:	2b0a      	cmp	r3, #10
10003102:	d000      	beq.n	10003106 <tud_task+0x3f2>
10003104:	e688      	b.n	10002e18 <tud_task+0x104>
10003106:	ab06      	add	r3, sp, #24
10003108:	1c9a      	adds	r2, r3, #2
1000310a:	7011      	strb	r1, [r2, #0]
1000310c:	2301      	movs	r3, #1
1000310e:	4648      	mov	r0, r9
10003110:	a908      	add	r1, sp, #32
10003112:	f000 fb73 	bl	100037fc <tud_control_xfer>
10003116:	e60e      	b.n	10002d36 <tud_task+0x22>
10003118:	7a2b      	ldrb	r3, [r5, #8]
1000311a:	2b0f      	cmp	r3, #15
1000311c:	d900      	bls.n	10003120 <tud_task+0x40c>
1000311e:	e67b      	b.n	10002e18 <tud_task+0x104>
10003120:	4a95      	ldr	r2, [pc, #596]	; (10003378 <tud_task+0x664>)
10003122:	4443      	add	r3, r8
10003124:	78db      	ldrb	r3, [r3, #3]
10003126:	2a00      	cmp	r2, #0
10003128:	d006      	beq.n	10003138 <tud_task+0x424>
1000312a:	4a94      	ldr	r2, [pc, #592]	; (1000337c <tud_task+0x668>)
1000312c:	7812      	ldrb	r2, [r2, #0]
1000312e:	4293      	cmp	r3, r2
10003130:	d200      	bcs.n	10003134 <tud_task+0x420>
10003132:	e102      	b.n	1000333a <tud_task+0x626>
10003134:	1a9b      	subs	r3, r3, r2
10003136:	b2db      	uxtb	r3, r3
10003138:	2b00      	cmp	r3, #0
1000313a:	d000      	beq.n	1000313e <tud_task+0x42a>
1000313c:	e66c      	b.n	10002e18 <tud_task+0x104>
1000313e:	4890      	ldr	r0, [pc, #576]	; (10003380 <tud_task+0x66c>)
10003140:	4c90      	ldr	r4, [pc, #576]	; (10003384 <tud_task+0x670>)
10003142:	f000 fbc1 	bl	100038c8 <usbd_control_set_complete_callback>
10003146:	68e3      	ldr	r3, [r4, #12]
10003148:	4648      	mov	r0, r9
1000314a:	a908      	add	r1, sp, #32
1000314c:	4798      	blx	r3
1000314e:	0004      	movs	r4, r0
10003150:	e740      	b.n	10002fd4 <tud_task+0x2c0>
10003152:	796b      	ldrb	r3, [r5, #5]
10003154:	9303      	str	r3, [sp, #12]
10003156:	2b01      	cmp	r3, #1
10003158:	d100      	bne.n	1000315c <tud_task+0x448>
1000315a:	e0d8      	b.n	1000330e <tud_task+0x5fa>
1000315c:	2b03      	cmp	r3, #3
1000315e:	d100      	bne.n	10003162 <tud_task+0x44e>
10003160:	e0cb      	b.n	100032fa <tud_task+0x5e6>
10003162:	2b00      	cmp	r3, #0
10003164:	d000      	beq.n	10003168 <tud_task+0x454>
10003166:	e657      	b.n	10002e18 <tud_task+0x104>
10003168:	0053      	lsls	r3, r2, #1
1000316a:	9a01      	ldr	r2, [sp, #4]
1000316c:	9302      	str	r3, [sp, #8]
1000316e:	4694      	mov	ip, r2
10003170:	4443      	add	r3, r8
10003172:	4463      	add	r3, ip
10003174:	3320      	adds	r3, #32
10003176:	795b      	ldrb	r3, [r3, #5]
10003178:	aa06      	add	r2, sp, #24
1000317a:	079b      	lsls	r3, r3, #30
1000317c:	0fdb      	lsrs	r3, r3, #31
1000317e:	3202      	adds	r2, #2
10003180:	8013      	strh	r3, [r2, #0]
10003182:	4648      	mov	r0, r9
10003184:	2302      	movs	r3, #2
10003186:	a908      	add	r1, sp, #32
10003188:	f000 fb38 	bl	100037fc <tud_control_xfer>
1000318c:	e761      	b.n	10003052 <tud_task+0x33e>
1000318e:	4a7e      	ldr	r2, [pc, #504]	; (10003388 <tud_task+0x674>)
10003190:	00dc      	lsls	r4, r3, #3
10003192:	1ae3      	subs	r3, r4, r3
10003194:	6814      	ldr	r4, [r2, #0]
10003196:	009b      	lsls	r3, r3, #2
10003198:	18e4      	adds	r4, r4, r3
1000319a:	2c00      	cmp	r4, #0
1000319c:	d100      	bne.n	100031a0 <tud_task+0x48c>
1000319e:	e63b      	b.n	10002e18 <tud_task+0x104>
100031a0:	6920      	ldr	r0, [r4, #16]
100031a2:	e79c      	b.n	100030de <tud_task+0x3ca>
100031a4:	88eb      	ldrh	r3, [r5, #6]
100031a6:	2b01      	cmp	r3, #1
100031a8:	d000      	beq.n	100031ac <tud_task+0x498>
100031aa:	e635      	b.n	10002e18 <tud_task+0x104>
100031ac:	4643      	mov	r3, r8
100031ae:	2208      	movs	r2, #8
100031b0:	781b      	ldrb	r3, [r3, #0]
100031b2:	4393      	bics	r3, r2
100031b4:	4642      	mov	r2, r8
100031b6:	4648      	mov	r0, r9
100031b8:	a908      	add	r1, sp, #32
100031ba:	7013      	strb	r3, [r2, #0]
100031bc:	f000 fb06 	bl	100037cc <tud_control_status>
100031c0:	e5b9      	b.n	10002d36 <tud_task+0x22>
100031c2:	4643      	mov	r3, r8
100031c4:	2002      	movs	r0, #2
100031c6:	7819      	ldrb	r1, [r3, #0]
100031c8:	ab06      	add	r3, sp, #24
100031ca:	1c9a      	adds	r2, r3, #2
100031cc:	068b      	lsls	r3, r1, #26
100031ce:	0889      	lsrs	r1, r1, #2
100031d0:	4001      	ands	r1, r0
100031d2:	0fdb      	lsrs	r3, r3, #31
100031d4:	430b      	orrs	r3, r1
100031d6:	8013      	strh	r3, [r2, #0]
100031d8:	4648      	mov	r0, r9
100031da:	2302      	movs	r3, #2
100031dc:	a908      	add	r1, sp, #32
100031de:	f000 fb0d 	bl	100037fc <tud_control_xfer>
100031e2:	e5a8      	b.n	10002d36 <tud_task+0x22>
100031e4:	4643      	mov	r3, r8
100031e6:	79aa      	ldrb	r2, [r5, #6]
100031e8:	9203      	str	r2, [sp, #12]
100031ea:	785b      	ldrb	r3, [r3, #1]
100031ec:	2b00      	cmp	r3, #0
100031ee:	d102      	bne.n	100031f6 <tud_task+0x4e2>
100031f0:	2a00      	cmp	r2, #0
100031f2:	d000      	beq.n	100031f6 <tud_task+0x4e2>
100031f4:	e0d0      	b.n	10003398 <tud_task+0x684>
100031f6:	4643      	mov	r3, r8
100031f8:	9a03      	ldr	r2, [sp, #12]
100031fa:	4648      	mov	r0, r9
100031fc:	a908      	add	r1, sp, #32
100031fe:	705a      	strb	r2, [r3, #1]
10003200:	f000 fae4 	bl	100037cc <tud_control_status>
10003204:	e597      	b.n	10002d36 <tud_task+0x22>
10003206:	4643      	mov	r3, r8
10003208:	aa06      	add	r2, sp, #24
1000320a:	785b      	ldrb	r3, [r3, #1]
1000320c:	3202      	adds	r2, #2
1000320e:	7013      	strb	r3, [r2, #0]
10003210:	4648      	mov	r0, r9
10003212:	2301      	movs	r3, #1
10003214:	a908      	add	r1, sp, #32
10003216:	f000 faf1 	bl	100037fc <tud_control_xfer>
1000321a:	e58c      	b.n	10002d36 <tud_task+0x22>
1000321c:	88eb      	ldrh	r3, [r5, #6]
1000321e:	79a8      	ldrb	r0, [r5, #6]
10003220:	0a1b      	lsrs	r3, r3, #8
10003222:	2b0f      	cmp	r3, #15
10003224:	d900      	bls.n	10003228 <tud_task+0x514>
10003226:	e5f7      	b.n	10002e18 <tud_task+0x104>
10003228:	4a58      	ldr	r2, [pc, #352]	; (1000338c <tud_task+0x678>)
1000322a:	009b      	lsls	r3, r3, #2
1000322c:	58d3      	ldr	r3, [r2, r3]
1000322e:	469f      	mov	pc, r3
10003230:	a808      	add	r0, sp, #32
10003232:	f000 fb4f 	bl	100038d4 <usbd_control_set_request>
10003236:	4648      	mov	r0, r9
10003238:	79a9      	ldrb	r1, [r5, #6]
1000323a:	f7ff fa33 	bl	100026a4 <dcd_set_address>
1000323e:	4643      	mov	r3, r8
10003240:	2202      	movs	r2, #2
10003242:	781b      	ldrb	r3, [r3, #0]
10003244:	4313      	orrs	r3, r2
10003246:	4642      	mov	r2, r8
10003248:	7013      	strb	r3, [r2, #0]
1000324a:	e574      	b.n	10002d36 <tud_task+0x22>
1000324c:	88eb      	ldrh	r3, [r5, #6]
1000324e:	2b01      	cmp	r3, #1
10003250:	d000      	beq.n	10003254 <tud_task+0x540>
10003252:	e5e1      	b.n	10002e18 <tud_task+0x104>
10003254:	4643      	mov	r3, r8
10003256:	2208      	movs	r2, #8
10003258:	781b      	ldrb	r3, [r3, #0]
1000325a:	4313      	orrs	r3, r2
1000325c:	e7aa      	b.n	100031b4 <tud_task+0x4a0>
1000325e:	4b4c      	ldr	r3, [pc, #304]	; (10003390 <tud_task+0x67c>)
10003260:	2b00      	cmp	r3, #0
10003262:	d100      	bne.n	10003266 <tud_task+0x552>
10003264:	e5d8      	b.n	10002e18 <tud_task+0x104>
10003266:	e000      	b.n	1000326a <tud_task+0x556>
10003268:	bf00      	nop
1000326a:	0004      	movs	r4, r0
1000326c:	ab06      	add	r3, sp, #24
1000326e:	1c9e      	adds	r6, r3, #2
10003270:	2202      	movs	r2, #2
10003272:	1ca1      	adds	r1, r4, #2
10003274:	0030      	movs	r0, r6
10003276:	f7ff f80b 	bl	10002290 <__wrap___aeabi_memcpy>
1000327a:	0022      	movs	r2, r4
1000327c:	4648      	mov	r0, r9
1000327e:	8833      	ldrh	r3, [r6, #0]
10003280:	a908      	add	r1, sp, #32
10003282:	f000 fabb 	bl	100037fc <tud_control_xfer>
10003286:	2800      	cmp	r0, #0
10003288:	d000      	beq.n	1000328c <tud_task+0x578>
1000328a:	e554      	b.n	10002d36 <tud_task+0x22>
1000328c:	e5c4      	b.n	10002e18 <tud_task+0x104>
1000328e:	4b41      	ldr	r3, [pc, #260]	; (10003394 <tud_task+0x680>)
10003290:	2b00      	cmp	r3, #0
10003292:	d100      	bne.n	10003296 <tud_task+0x582>
10003294:	e5c0      	b.n	10002e18 <tud_task+0x104>
10003296:	e000      	b.n	1000329a <tud_task+0x586>
10003298:	bf00      	nop
1000329a:	1e02      	subs	r2, r0, #0
1000329c:	d100      	bne.n	100032a0 <tud_task+0x58c>
1000329e:	e5bb      	b.n	10002e18 <tud_task+0x104>
100032a0:	4648      	mov	r0, r9
100032a2:	7813      	ldrb	r3, [r2, #0]
100032a4:	a908      	add	r1, sp, #32
100032a6:	f000 faa9 	bl	100037fc <tud_control_xfer>
100032aa:	e7ec      	b.n	10003286 <tud_task+0x572>
100032ac:	8929      	ldrh	r1, [r5, #8]
100032ae:	f7fd f8a5 	bl	100003fc <tud_descriptor_string_cb>
100032b2:	1e02      	subs	r2, r0, #0
100032b4:	d1f4      	bne.n	100032a0 <tud_task+0x58c>
100032b6:	e5af      	b.n	10002e18 <tud_task+0x104>
100032b8:	f7fd f89c 	bl	100003f4 <tud_descriptor_configuration_cb>
100032bc:	1e04      	subs	r4, r0, #0
100032be:	d1d5      	bne.n	1000326c <tud_task+0x558>
100032c0:	e5aa      	b.n	10002e18 <tud_task+0x104>
100032c2:	f7fd f88f 	bl	100003e4 <tud_descriptor_device_cb>
100032c6:	2312      	movs	r3, #18
100032c8:	0002      	movs	r2, r0
100032ca:	a908      	add	r1, sp, #32
100032cc:	4648      	mov	r0, r9
100032ce:	f000 fa95 	bl	100037fc <tud_control_xfer>
100032d2:	e7d8      	b.n	10003286 <tud_task+0x572>
100032d4:	2260      	movs	r2, #96	; 0x60
100032d6:	792b      	ldrb	r3, [r5, #4]
100032d8:	421a      	tst	r2, r3
100032da:	d000      	beq.n	100032de <tud_task+0x5ca>
100032dc:	e67a      	b.n	10002fd4 <tud_task+0x2c0>
100032de:	2000      	movs	r0, #0
100032e0:	f000 faf2 	bl	100038c8 <usbd_control_set_complete_callback>
100032e4:	e676      	b.n	10002fd4 <tud_task+0x2c0>
100032e6:	4a28      	ldr	r2, [pc, #160]	; (10003388 <tud_task+0x674>)
100032e8:	00de      	lsls	r6, r3, #3
100032ea:	1af3      	subs	r3, r6, r3
100032ec:	6816      	ldr	r6, [r2, #0]
100032ee:	009b      	lsls	r3, r3, #2
100032f0:	18f6      	adds	r6, r6, r3
100032f2:	2e00      	cmp	r6, #0
100032f4:	d0ee      	beq.n	100032d4 <tud_task+0x5c0>
100032f6:	6930      	ldr	r0, [r6, #16]
100032f8:	e6c0      	b.n	1000307c <tud_task+0x368>
100032fa:	88eb      	ldrh	r3, [r5, #6]
100032fc:	2b00      	cmp	r3, #0
100032fe:	d027      	beq.n	10003350 <tud_task+0x63c>
10003300:	0053      	lsls	r3, r2, #1
10003302:	9302      	str	r3, [sp, #8]
10003304:	4648      	mov	r0, r9
10003306:	a908      	add	r1, sp, #32
10003308:	f000 fa60 	bl	100037cc <tud_control_status>
1000330c:	e6a1      	b.n	10003052 <tud_task+0x33e>
1000330e:	88eb      	ldrh	r3, [r5, #6]
10003310:	2b00      	cmp	r3, #0
10003312:	d1f5      	bne.n	10003300 <tud_task+0x5ec>
10003314:	4648      	mov	r0, r9
10003316:	f7ff fb3b 	bl	10002990 <dcd_edpt_clear_stall>
1000331a:	9a01      	ldr	r2, [sp, #4]
1000331c:	9b02      	ldr	r3, [sp, #8]
1000331e:	4694      	mov	ip, r2
10003320:	005b      	lsls	r3, r3, #1
10003322:	9302      	str	r3, [sp, #8]
10003324:	4443      	add	r3, r8
10003326:	4463      	add	r3, ip
10003328:	3320      	adds	r3, #32
1000332a:	795a      	ldrb	r2, [r3, #5]
1000332c:	9903      	ldr	r1, [sp, #12]
1000332e:	43b2      	bics	r2, r6
10003330:	715a      	strb	r2, [r3, #5]
10003332:	795a      	ldrb	r2, [r3, #5]
10003334:	438a      	bics	r2, r1
10003336:	715a      	strb	r2, [r3, #5]
10003338:	e7e4      	b.n	10003304 <tud_task+0x5f0>
1000333a:	4a13      	ldr	r2, [pc, #76]	; (10003388 <tud_task+0x674>)
1000333c:	00dc      	lsls	r4, r3, #3
1000333e:	1ae3      	subs	r3, r4, r3
10003340:	6814      	ldr	r4, [r2, #0]
10003342:	009b      	lsls	r3, r3, #2
10003344:	18e4      	adds	r4, r4, r3
10003346:	2c00      	cmp	r4, #0
10003348:	d100      	bne.n	1000334c <tud_task+0x638>
1000334a:	e565      	b.n	10002e18 <tud_task+0x104>
1000334c:	6920      	ldr	r0, [r4, #16]
1000334e:	e6f8      	b.n	10003142 <tud_task+0x42e>
10003350:	4648      	mov	r0, r9
10003352:	f7ff faf5 	bl	10002940 <dcd_edpt_stall>
10003356:	9a01      	ldr	r2, [sp, #4]
10003358:	2102      	movs	r1, #2
1000335a:	4694      	mov	ip, r2
1000335c:	9b02      	ldr	r3, [sp, #8]
1000335e:	005b      	lsls	r3, r3, #1
10003360:	9302      	str	r3, [sp, #8]
10003362:	4443      	add	r3, r8
10003364:	4463      	add	r3, ip
10003366:	3320      	adds	r3, #32
10003368:	795a      	ldrb	r2, [r3, #5]
1000336a:	430a      	orrs	r2, r1
1000336c:	715a      	strb	r2, [r3, #5]
1000336e:	795a      	ldrb	r2, [r3, #5]
10003370:	4317      	orrs	r7, r2
10003372:	715f      	strb	r7, [r3, #5]
10003374:	e7c6      	b.n	10003304 <tud_task+0x5f0>
10003376:	46c0      	nop			; (mov r8, r8)
10003378:	00000000 	.word	0x00000000
1000337c:	20001418 	.word	0x20001418
10003380:	10003c51 	.word	0x10003c51
10003384:	10004b00 	.word	0x10004b00
10003388:	20000bb4 	.word	0x20000bb4
1000338c:	10004ac0 	.word	0x10004ac0
	...
10003398:	1e50      	subs	r0, r2, #1
1000339a:	b2c0      	uxtb	r0, r0
1000339c:	f7fd f82a 	bl	100003f4 <tud_descriptor_configuration_cb>
100033a0:	2800      	cmp	r0, #0
100033a2:	d100      	bne.n	100033a6 <tud_task+0x692>
100033a4:	e538      	b.n	10002e18 <tud_task+0x104>
100033a6:	7843      	ldrb	r3, [r0, #1]
100033a8:	2b02      	cmp	r3, #2
100033aa:	d000      	beq.n	100033ae <tud_task+0x69a>
100033ac:	e534      	b.n	10002e18 <tud_task+0x104>
100033ae:	2101      	movs	r1, #1
100033b0:	79c2      	ldrb	r2, [r0, #7]
100033b2:	0006      	movs	r6, r0
100033b4:	1193      	asrs	r3, r2, #6
100033b6:	1152      	asrs	r2, r2, #5
100033b8:	400b      	ands	r3, r1
100033ba:	400a      	ands	r2, r1
100033bc:	0112      	lsls	r2, r2, #4
100033be:	015b      	lsls	r3, r3, #5
100033c0:	4313      	orrs	r3, r2
100033c2:	4642      	mov	r2, r8
100033c4:	7812      	ldrb	r2, [r2, #0]
100033c6:	312f      	adds	r1, #47	; 0x2f
100033c8:	438a      	bics	r2, r1
100033ca:	4313      	orrs	r3, r2
100033cc:	4642      	mov	r2, r8
100033ce:	7013      	strb	r3, [r2, #0]
100033d0:	78c3      	ldrb	r3, [r0, #3]
100033d2:	7882      	ldrb	r2, [r0, #2]
100033d4:	021b      	lsls	r3, r3, #8
100033d6:	4313      	orrs	r3, r2
100033d8:	18c3      	adds	r3, r0, r3
100033da:	3609      	adds	r6, #9
100033dc:	9304      	str	r3, [sp, #16]
100033de:	9b04      	ldr	r3, [sp, #16]
100033e0:	42b3      	cmp	r3, r6
100033e2:	d800      	bhi.n	100033e6 <tud_task+0x6d2>
100033e4:	e088      	b.n	100034f8 <tud_task+0x7e4>
100033e6:	2300      	movs	r3, #0
100033e8:	7872      	ldrb	r2, [r6, #1]
100033ea:	9302      	str	r3, [sp, #8]
100033ec:	2a0b      	cmp	r2, #11
100033ee:	d104      	bne.n	100033fa <tud_task+0x6e6>
100033f0:	7833      	ldrb	r3, [r6, #0]
100033f2:	9602      	str	r6, [sp, #8]
100033f4:	18f3      	adds	r3, r6, r3
100033f6:	001e      	movs	r6, r3
100033f8:	785a      	ldrb	r2, [r3, #1]
100033fa:	2a04      	cmp	r2, #4
100033fc:	d000      	beq.n	10003400 <tud_task+0x6ec>
100033fe:	e50b      	b.n	10002e18 <tud_task+0x104>
10003400:	9b04      	ldr	r3, [sp, #16]
10003402:	4a42      	ldr	r2, [pc, #264]	; (1000350c <tud_task+0x7f8>)
10003404:	1b9b      	subs	r3, r3, r6
10003406:	b29b      	uxth	r3, r3
10003408:	9301      	str	r3, [sp, #4]
1000340a:	4b41      	ldr	r3, [pc, #260]	; (10003510 <tud_task+0x7fc>)
1000340c:	2400      	movs	r4, #0
1000340e:	781b      	ldrb	r3, [r3, #0]
10003410:	2a00      	cmp	r2, #0
10003412:	d110      	bne.n	10003436 <tud_task+0x722>
10003414:	e01c      	b.n	10003450 <tud_task+0x73c>
10003416:	429c      	cmp	r4, r3
10003418:	d126      	bne.n	10003468 <tud_task+0x754>
1000341a:	4b3e      	ldr	r3, [pc, #248]	; (10003514 <tud_task+0x800>)
1000341c:	0031      	movs	r1, r6
1000341e:	4648      	mov	r0, r9
10003420:	9a01      	ldr	r2, [sp, #4]
10003422:	4798      	blx	r3
10003424:	2800      	cmp	r0, #0
10003426:	d122      	bne.n	1000346e <tud_task+0x75a>
10003428:	4b39      	ldr	r3, [pc, #228]	; (10003510 <tud_task+0x7fc>)
1000342a:	3401      	adds	r4, #1
1000342c:	781b      	ldrb	r3, [r3, #0]
1000342e:	b2e4      	uxtb	r4, r4
10003430:	42a3      	cmp	r3, r4
10003432:	d200      	bcs.n	10003436 <tud_task+0x722>
10003434:	e4f0      	b.n	10002e18 <tud_task+0x104>
10003436:	429c      	cmp	r4, r3
10003438:	d2ed      	bcs.n	10003416 <tud_task+0x702>
1000343a:	4b37      	ldr	r3, [pc, #220]	; (10003518 <tud_task+0x804>)
1000343c:	681b      	ldr	r3, [r3, #0]
1000343e:	9305      	str	r3, [sp, #20]
10003440:	9a05      	ldr	r2, [sp, #20]
10003442:	00e3      	lsls	r3, r4, #3
10003444:	4694      	mov	ip, r2
10003446:	1b1b      	subs	r3, r3, r4
10003448:	009b      	lsls	r3, r3, #2
1000344a:	4463      	add	r3, ip
1000344c:	689b      	ldr	r3, [r3, #8]
1000344e:	e7e5      	b.n	1000341c <tud_task+0x708>
10003450:	0031      	movs	r1, r6
10003452:	4648      	mov	r0, r9
10003454:	9a01      	ldr	r2, [sp, #4]
10003456:	f000 fb1b 	bl	10003a90 <hidd_open>
1000345a:	1e07      	subs	r7, r0, #0
1000345c:	d153      	bne.n	10003506 <tud_task+0x7f2>
1000345e:	4b2c      	ldr	r3, [pc, #176]	; (10003510 <tud_task+0x7fc>)
10003460:	781b      	ldrb	r3, [r3, #0]
10003462:	2b00      	cmp	r3, #0
10003464:	d100      	bne.n	10003468 <tud_task+0x754>
10003466:	e4d7      	b.n	10002e18 <tud_task+0x104>
10003468:	2300      	movs	r3, #0
1000346a:	689b      	ldr	r3, [r3, #8]
1000346c:	deff      	udf	#255	; 0xff
1000346e:	0007      	movs	r7, r0
10003470:	2f08      	cmp	r7, #8
10003472:	d800      	bhi.n	10003476 <tud_task+0x762>
10003474:	e4d0      	b.n	10002e18 <tud_task+0x104>
10003476:	9b01      	ldr	r3, [sp, #4]
10003478:	42bb      	cmp	r3, r7
1000347a:	d200      	bcs.n	1000347e <tud_task+0x76a>
1000347c:	e4cc      	b.n	10002e18 <tud_task+0x104>
1000347e:	4642      	mov	r2, r8
10003480:	78b3      	ldrb	r3, [r6, #2]
10003482:	18d2      	adds	r2, r2, r3
10003484:	78d1      	ldrb	r1, [r2, #3]
10003486:	29ff      	cmp	r1, #255	; 0xff
10003488:	d000      	beq.n	1000348c <tud_task+0x778>
1000348a:	e4c5      	b.n	10002e18 <tud_task+0x104>
1000348c:	70d4      	strb	r4, [r2, #3]
1000348e:	9a02      	ldr	r2, [sp, #8]
10003490:	2a00      	cmp	r2, #0
10003492:	d015      	beq.n	100034c0 <tud_task+0x7ac>
10003494:	7891      	ldrb	r1, [r2, #2]
10003496:	0010      	movs	r0, r2
10003498:	4299      	cmp	r1, r3
1000349a:	d000      	beq.n	1000349e <tud_task+0x78a>
1000349c:	e4bc      	b.n	10002e18 <tud_task+0x104>
1000349e:	7912      	ldrb	r2, [r2, #4]
100034a0:	7973      	ldrb	r3, [r6, #5]
100034a2:	429a      	cmp	r2, r3
100034a4:	d000      	beq.n	100034a8 <tud_task+0x794>
100034a6:	e4b7      	b.n	10002e18 <tud_task+0x104>
100034a8:	78c2      	ldrb	r2, [r0, #3]
100034aa:	2a01      	cmp	r2, #1
100034ac:	d908      	bls.n	100034c0 <tud_task+0x7ac>
100034ae:	3a02      	subs	r2, #2
100034b0:	3104      	adds	r1, #4
100034b2:	4441      	add	r1, r8
100034b4:	b2d2      	uxtb	r2, r2
100034b6:	0008      	movs	r0, r1
100034b8:	3201      	adds	r2, #1
100034ba:	0021      	movs	r1, r4
100034bc:	f7fe fee2 	bl	10002284 <__wrap_memset>
100034c0:	217f      	movs	r1, #127	; 0x7f
100034c2:	0032      	movs	r2, r6
100034c4:	2300      	movs	r3, #0
100034c6:	468c      	mov	ip, r1
100034c8:	7851      	ldrb	r1, [r2, #1]
100034ca:	2905      	cmp	r1, #5
100034cc:	d107      	bne.n	100034de <tud_task+0x7ca>
100034ce:	4661      	mov	r1, ip
100034d0:	7890      	ldrb	r0, [r2, #2]
100034d2:	4001      	ands	r1, r0
100034d4:	0049      	lsls	r1, r1, #1
100034d6:	4441      	add	r1, r8
100034d8:	3113      	adds	r1, #19
100034da:	09c0      	lsrs	r0, r0, #7
100034dc:	540c      	strb	r4, [r1, r0]
100034de:	7811      	ldrb	r1, [r2, #0]
100034e0:	185b      	adds	r3, r3, r1
100034e2:	b29b      	uxth	r3, r3
100034e4:	1852      	adds	r2, r2, r1
100034e6:	42bb      	cmp	r3, r7
100034e8:	d3ee      	bcc.n	100034c8 <tud_task+0x7b4>
100034ea:	4b09      	ldr	r3, [pc, #36]	; (10003510 <tud_task+0x7fc>)
100034ec:	19f6      	adds	r6, r6, r7
100034ee:	781b      	ldrb	r3, [r3, #0]
100034f0:	42a3      	cmp	r3, r4
100034f2:	d300      	bcc.n	100034f6 <tud_task+0x7e2>
100034f4:	e773      	b.n	100033de <tud_task+0x6ca>
100034f6:	e48f      	b.n	10002e18 <tud_task+0x104>
100034f8:	4b08      	ldr	r3, [pc, #32]	; (1000351c <tud_task+0x808>)
100034fa:	2b00      	cmp	r3, #0
100034fc:	d100      	bne.n	10003500 <tud_task+0x7ec>
100034fe:	e67a      	b.n	100031f6 <tud_task+0x4e2>
10003500:	f7fc ff48 	bl	10000394 <tud_mount_cb>
10003504:	e677      	b.n	100031f6 <tud_task+0x4e2>
10003506:	4c01      	ldr	r4, [pc, #4]	; (1000350c <tud_task+0x7f8>)
10003508:	e7b2      	b.n	10003470 <tud_task+0x75c>
1000350a:	46c0      	nop			; (mov r8, r8)
1000350c:	00000000 	.word	0x00000000
10003510:	20001418 	.word	0x20001418
10003514:	10003a91 	.word	0x10003a91
10003518:	20000bb4 	.word	0x20000bb4
1000351c:	10000395 	.word	0x10000395

10003520 <dcd_event_bus_signal>:
10003520:	b530      	push	{r4, r5, lr}
10003522:	b085      	sub	sp, #20
10003524:	0005      	movs	r5, r0
10003526:	000c      	movs	r4, r1
10003528:	220c      	movs	r2, #12
1000352a:	2100      	movs	r1, #0
1000352c:	a801      	add	r0, sp, #4
1000352e:	f7fe fea9 	bl	10002284 <__wrap_memset>
10003532:	466b      	mov	r3, sp
10003534:	711d      	strb	r5, [r3, #4]
10003536:	715c      	strb	r4, [r3, #5]
10003538:	2c04      	cmp	r4, #4
1000353a:	d04b      	beq.n	100035d4 <dcd_event_bus_signal+0xb4>
1000353c:	d805      	bhi.n	1000354a <dcd_event_bus_signal+0x2a>
1000353e:	2c02      	cmp	r4, #2
10003540:	d030      	beq.n	100035a4 <dcd_event_bus_signal+0x84>
10003542:	2c03      	cmp	r4, #3
10003544:	d124      	bne.n	10003590 <dcd_event_bus_signal+0x70>
10003546:	b005      	add	sp, #20
10003548:	bd30      	pop	{r4, r5, pc}
1000354a:	2c05      	cmp	r4, #5
1000354c:	d120      	bne.n	10003590 <dcd_event_bus_signal+0x70>
1000354e:	4b2a      	ldr	r3, [pc, #168]	; (100035f8 <dcd_event_bus_signal+0xd8>)
10003550:	781a      	ldrb	r2, [r3, #0]
10003552:	07d2      	lsls	r2, r2, #31
10003554:	d5f7      	bpl.n	10003546 <dcd_event_bus_signal+0x26>
10003556:	2104      	movs	r1, #4
10003558:	781a      	ldrb	r2, [r3, #0]
1000355a:	438a      	bics	r2, r1
1000355c:	701a      	strb	r2, [r3, #0]
1000355e:	4b27      	ldr	r3, [pc, #156]	; (100035fc <dcd_event_bus_signal+0xdc>)
10003560:	681c      	ldr	r4, [r3, #0]
10003562:	69a2      	ldr	r2, [r4, #24]
10003564:	f3ef 8110 	mrs	r1, PRIMASK
10003568:	b672      	cpsid	i
1000356a:	6813      	ldr	r3, [r2, #0]
1000356c:	2b00      	cmp	r3, #0
1000356e:	d0fc      	beq.n	1000356a <dcd_event_bus_signal+0x4a>
10003570:	f3bf 8f5f 	dmb	sy
10003574:	61e1      	str	r1, [r4, #28]
10003576:	0020      	movs	r0, r4
10003578:	a901      	add	r1, sp, #4
1000357a:	f000 fc0d 	bl	10003d98 <tu_fifo_write>
1000357e:	69a2      	ldr	r2, [r4, #24]
10003580:	69e3      	ldr	r3, [r4, #28]
10003582:	f3bf 8f5f 	dmb	sy
10003586:	2100      	movs	r1, #0
10003588:	6011      	str	r1, [r2, #0]
1000358a:	f383 8810 	msr	PRIMASK, r3
1000358e:	e7da      	b.n	10003546 <dcd_event_bus_signal+0x26>
10003590:	4b1a      	ldr	r3, [pc, #104]	; (100035fc <dcd_event_bus_signal+0xdc>)
10003592:	681c      	ldr	r4, [r3, #0]
10003594:	69a2      	ldr	r2, [r4, #24]
10003596:	f3ef 8110 	mrs	r1, PRIMASK
1000359a:	b672      	cpsid	i
1000359c:	6813      	ldr	r3, [r2, #0]
1000359e:	2b00      	cmp	r3, #0
100035a0:	d1e6      	bne.n	10003570 <dcd_event_bus_signal+0x50>
100035a2:	e7fb      	b.n	1000359c <dcd_event_bus_signal+0x7c>
100035a4:	2101      	movs	r1, #1
100035a6:	4b14      	ldr	r3, [pc, #80]	; (100035f8 <dcd_event_bus_signal+0xd8>)
100035a8:	781a      	ldrb	r2, [r3, #0]
100035aa:	438a      	bics	r2, r1
100035ac:	701a      	strb	r2, [r3, #0]
100035ae:	781a      	ldrb	r2, [r3, #0]
100035b0:	3103      	adds	r1, #3
100035b2:	43a2      	bics	r2, r4
100035b4:	701a      	strb	r2, [r3, #0]
100035b6:	2200      	movs	r2, #0
100035b8:	705a      	strb	r2, [r3, #1]
100035ba:	781a      	ldrb	r2, [r3, #0]
100035bc:	438a      	bics	r2, r1
100035be:	701a      	strb	r2, [r3, #0]
100035c0:	4b0e      	ldr	r3, [pc, #56]	; (100035fc <dcd_event_bus_signal+0xdc>)
100035c2:	681c      	ldr	r4, [r3, #0]
100035c4:	69a2      	ldr	r2, [r4, #24]
100035c6:	f3ef 8110 	mrs	r1, PRIMASK
100035ca:	b672      	cpsid	i
100035cc:	6813      	ldr	r3, [r2, #0]
100035ce:	2b00      	cmp	r3, #0
100035d0:	d1ce      	bne.n	10003570 <dcd_event_bus_signal+0x50>
100035d2:	e7fb      	b.n	100035cc <dcd_event_bus_signal+0xac>
100035d4:	4b08      	ldr	r3, [pc, #32]	; (100035f8 <dcd_event_bus_signal+0xd8>)
100035d6:	781a      	ldrb	r2, [r3, #0]
100035d8:	07d2      	lsls	r2, r2, #31
100035da:	d5b4      	bpl.n	10003546 <dcd_event_bus_signal+0x26>
100035dc:	2104      	movs	r1, #4
100035de:	781a      	ldrb	r2, [r3, #0]
100035e0:	430a      	orrs	r2, r1
100035e2:	701a      	strb	r2, [r3, #0]
100035e4:	4b05      	ldr	r3, [pc, #20]	; (100035fc <dcd_event_bus_signal+0xdc>)
100035e6:	681c      	ldr	r4, [r3, #0]
100035e8:	69a2      	ldr	r2, [r4, #24]
100035ea:	f3ef 8110 	mrs	r1, PRIMASK
100035ee:	b672      	cpsid	i
100035f0:	6813      	ldr	r3, [r2, #0]
100035f2:	2b00      	cmp	r3, #0
100035f4:	d1bc      	bne.n	10003570 <dcd_event_bus_signal+0x50>
100035f6:	e7fb      	b.n	100035f0 <dcd_event_bus_signal+0xd0>
100035f8:	20000ce0 	.word	0x20000ce0
100035fc:	20000d1c 	.word	0x20000d1c

10003600 <dcd_event_setup_received>:
10003600:	2300      	movs	r3, #0
10003602:	b530      	push	{r4, r5, lr}
10003604:	b085      	sub	sp, #20
10003606:	ad01      	add	r5, sp, #4
10003608:	806b      	strh	r3, [r5, #2]
1000360a:	7028      	strb	r0, [r5, #0]
1000360c:	3306      	adds	r3, #6
1000360e:	2208      	movs	r2, #8
10003610:	a802      	add	r0, sp, #8
10003612:	706b      	strb	r3, [r5, #1]
10003614:	f7fe fe3c 	bl	10002290 <__wrap___aeabi_memcpy>
10003618:	4b0c      	ldr	r3, [pc, #48]	; (1000364c <dcd_event_setup_received+0x4c>)
1000361a:	681c      	ldr	r4, [r3, #0]
1000361c:	69a2      	ldr	r2, [r4, #24]
1000361e:	f3ef 8310 	mrs	r3, PRIMASK
10003622:	b672      	cpsid	i
10003624:	6811      	ldr	r1, [r2, #0]
10003626:	2900      	cmp	r1, #0
10003628:	d0fc      	beq.n	10003624 <dcd_event_setup_received+0x24>
1000362a:	f3bf 8f5f 	dmb	sy
1000362e:	61e3      	str	r3, [r4, #28]
10003630:	0029      	movs	r1, r5
10003632:	0020      	movs	r0, r4
10003634:	f000 fbb0 	bl	10003d98 <tu_fifo_write>
10003638:	69a2      	ldr	r2, [r4, #24]
1000363a:	69e3      	ldr	r3, [r4, #28]
1000363c:	f3bf 8f5f 	dmb	sy
10003640:	2100      	movs	r1, #0
10003642:	6011      	str	r1, [r2, #0]
10003644:	f383 8810 	msr	PRIMASK, r3
10003648:	b005      	add	sp, #20
1000364a:	bd30      	pop	{r4, r5, pc}
1000364c:	20000d1c 	.word	0x20000d1c

10003650 <dcd_event_xfer_complete>:
10003650:	b5f0      	push	{r4, r5, r6, r7, lr}
10003652:	46c6      	mov	lr, r8
10003654:	4680      	mov	r8, r0
10003656:	b500      	push	{lr}
10003658:	b084      	sub	sp, #16
1000365a:	ac01      	add	r4, sp, #4
1000365c:	000f      	movs	r7, r1
1000365e:	0016      	movs	r6, r2
10003660:	2100      	movs	r1, #0
10003662:	2208      	movs	r2, #8
10003664:	0020      	movs	r0, r4
10003666:	001d      	movs	r5, r3
10003668:	f7fe fe0c 	bl	10002284 <__wrap_memset>
1000366c:	4643      	mov	r3, r8
1000366e:	7023      	strb	r3, [r4, #0]
10003670:	2307      	movs	r3, #7
10003672:	7063      	strb	r3, [r4, #1]
10003674:	4b0f      	ldr	r3, [pc, #60]	; (100036b4 <dcd_event_xfer_complete+0x64>)
10003676:	7165      	strb	r5, [r4, #5]
10003678:	681d      	ldr	r5, [r3, #0]
1000367a:	7127      	strb	r7, [r4, #4]
1000367c:	60a6      	str	r6, [r4, #8]
1000367e:	69aa      	ldr	r2, [r5, #24]
10003680:	f3ef 8310 	mrs	r3, PRIMASK
10003684:	b672      	cpsid	i
10003686:	6811      	ldr	r1, [r2, #0]
10003688:	2900      	cmp	r1, #0
1000368a:	d0fc      	beq.n	10003686 <dcd_event_xfer_complete+0x36>
1000368c:	f3bf 8f5f 	dmb	sy
10003690:	61eb      	str	r3, [r5, #28]
10003692:	0021      	movs	r1, r4
10003694:	0028      	movs	r0, r5
10003696:	f000 fb7f 	bl	10003d98 <tu_fifo_write>
1000369a:	69aa      	ldr	r2, [r5, #24]
1000369c:	69eb      	ldr	r3, [r5, #28]
1000369e:	f3bf 8f5f 	dmb	sy
100036a2:	2100      	movs	r1, #0
100036a4:	6011      	str	r1, [r2, #0]
100036a6:	f383 8810 	msr	PRIMASK, r3
100036aa:	b004      	add	sp, #16
100036ac:	bc04      	pop	{r2}
100036ae:	4690      	mov	r8, r2
100036b0:	bdf0      	pop	{r4, r5, r6, r7, pc}
100036b2:	46c0      	nop			; (mov r8, r8)
100036b4:	20000d1c 	.word	0x20000d1c

100036b8 <usbd_open_edpt_pair>:
100036b8:	b5f8      	push	{r3, r4, r5, r6, r7, lr}
100036ba:	4647      	mov	r7, r8
100036bc:	46d6      	mov	lr, sl
100036be:	b580      	push	{r7, lr}
100036c0:	4698      	mov	r8, r3
100036c2:	9b08      	ldr	r3, [sp, #32]
100036c4:	0006      	movs	r6, r0
100036c6:	000c      	movs	r4, r1
100036c8:	1e17      	subs	r7, r2, #0
100036ca:	469a      	mov	sl, r3
100036cc:	d021      	beq.n	10003712 <usbd_open_edpt_pair+0x5a>
100036ce:	2500      	movs	r5, #0
100036d0:	e006      	b.n	100036e0 <usbd_open_edpt_pair+0x28>
100036d2:	4652      	mov	r2, sl
100036d4:	7013      	strb	r3, [r2, #0]
100036d6:	7823      	ldrb	r3, [r4, #0]
100036d8:	3501      	adds	r5, #1
100036da:	18e4      	adds	r4, r4, r3
100036dc:	42bd      	cmp	r5, r7
100036de:	da18      	bge.n	10003712 <usbd_open_edpt_pair+0x5a>
100036e0:	7863      	ldrb	r3, [r4, #1]
100036e2:	2b05      	cmp	r3, #5
100036e4:	d117      	bne.n	10003716 <usbd_open_edpt_pair+0x5e>
100036e6:	78e1      	ldrb	r1, [r4, #3]
100036e8:	0789      	lsls	r1, r1, #30
100036ea:	0f89      	lsrs	r1, r1, #30
100036ec:	4541      	cmp	r1, r8
100036ee:	d112      	bne.n	10003716 <usbd_open_edpt_pair+0x5e>
100036f0:	0021      	movs	r1, r4
100036f2:	0030      	movs	r0, r6
100036f4:	f7ff f86a 	bl	100027cc <dcd_edpt_open>
100036f8:	2800      	cmp	r0, #0
100036fa:	d00c      	beq.n	10003716 <usbd_open_edpt_pair+0x5e>
100036fc:	78a3      	ldrb	r3, [r4, #2]
100036fe:	09da      	lsrs	r2, r3, #7
10003700:	2a01      	cmp	r2, #1
10003702:	d1e6      	bne.n	100036d2 <usbd_open_edpt_pair+0x1a>
10003704:	9a09      	ldr	r2, [sp, #36]	; 0x24
10003706:	3501      	adds	r5, #1
10003708:	7013      	strb	r3, [r2, #0]
1000370a:	7823      	ldrb	r3, [r4, #0]
1000370c:	18e4      	adds	r4, r4, r3
1000370e:	42bd      	cmp	r5, r7
10003710:	dbe6      	blt.n	100036e0 <usbd_open_edpt_pair+0x28>
10003712:	2001      	movs	r0, #1
10003714:	e000      	b.n	10003718 <usbd_open_edpt_pair+0x60>
10003716:	2000      	movs	r0, #0
10003718:	bc0c      	pop	{r2, r3}
1000371a:	4690      	mov	r8, r2
1000371c:	469a      	mov	sl, r3
1000371e:	bdf8      	pop	{r3, r4, r5, r6, r7, pc}

10003720 <usbd_edpt_claim>:
10003720:	b570      	push	{r4, r5, r6, lr}
10003722:	247f      	movs	r4, #127	; 0x7f
10003724:	400c      	ands	r4, r1
10003726:	0063      	lsls	r3, r4, #1
10003728:	4c14      	ldr	r4, [pc, #80]	; (1000377c <usbd_edpt_claim+0x5c>)
1000372a:	09c9      	lsrs	r1, r1, #7
1000372c:	18e4      	adds	r4, r4, r3
1000372e:	1864      	adds	r4, r4, r1
10003730:	3420      	adds	r4, #32
10003732:	7963      	ldrb	r3, [r4, #5]
10003734:	07db      	lsls	r3, r3, #31
10003736:	0fdd      	lsrs	r5, r3, #31
10003738:	2b00      	cmp	r3, #0
1000373a:	d118      	bne.n	1000376e <usbd_edpt_claim+0x4e>
1000373c:	7963      	ldrb	r3, [r4, #5]
1000373e:	075b      	lsls	r3, r3, #29
10003740:	d501      	bpl.n	10003746 <usbd_edpt_claim+0x26>
10003742:	0028      	movs	r0, r5
10003744:	bd70      	pop	{r4, r5, r6, pc}
10003746:	2101      	movs	r1, #1
10003748:	4e0d      	ldr	r6, [pc, #52]	; (10003780 <usbd_edpt_claim+0x60>)
1000374a:	4249      	negs	r1, r1
1000374c:	6830      	ldr	r0, [r6, #0]
1000374e:	f001 f83b 	bl	100047c8 <__mutex_enter_timeout_ms_veneer>
10003752:	7963      	ldrb	r3, [r4, #5]
10003754:	07db      	lsls	r3, r3, #31
10003756:	0fdd      	lsrs	r5, r3, #31
10003758:	2b00      	cmp	r3, #0
1000375a:	d10a      	bne.n	10003772 <usbd_edpt_claim+0x52>
1000375c:	7963      	ldrb	r3, [r4, #5]
1000375e:	075b      	lsls	r3, r3, #29
10003760:	d408      	bmi.n	10003774 <usbd_edpt_claim+0x54>
10003762:	2204      	movs	r2, #4
10003764:	7963      	ldrb	r3, [r4, #5]
10003766:	2501      	movs	r5, #1
10003768:	4313      	orrs	r3, r2
1000376a:	7163      	strb	r3, [r4, #5]
1000376c:	e002      	b.n	10003774 <usbd_edpt_claim+0x54>
1000376e:	2500      	movs	r5, #0
10003770:	e7e7      	b.n	10003742 <usbd_edpt_claim+0x22>
10003772:	2500      	movs	r5, #0
10003774:	6830      	ldr	r0, [r6, #0]
10003776:	f001 f807 	bl	10004788 <__mutex_exit_veneer>
1000377a:	e7e2      	b.n	10003742 <usbd_edpt_claim+0x22>
1000377c:	20000ce0 	.word	0x20000ce0
10003780:	20000d18 	.word	0x20000d18

10003784 <usbd_edpt_xfer>:
10003784:	b570      	push	{r4, r5, r6, lr}
10003786:	247f      	movs	r4, #127	; 0x7f
10003788:	400c      	ands	r4, r1
1000378a:	0065      	lsls	r5, r4, #1
1000378c:	4c0e      	ldr	r4, [pc, #56]	; (100037c8 <usbd_edpt_xfer+0x44>)
1000378e:	0006      	movs	r6, r0
10003790:	1964      	adds	r4, r4, r5
10003792:	09c8      	lsrs	r0, r1, #7
10003794:	1824      	adds	r4, r4, r0
10003796:	3420      	adds	r4, #32
10003798:	7965      	ldrb	r5, [r4, #5]
1000379a:	2000      	movs	r0, #0
1000379c:	07ed      	lsls	r5, r5, #31
1000379e:	d500      	bpl.n	100037a2 <usbd_edpt_xfer+0x1e>
100037a0:	bd70      	pop	{r4, r5, r6, pc}
100037a2:	2501      	movs	r5, #1
100037a4:	7960      	ldrb	r0, [r4, #5]
100037a6:	4328      	orrs	r0, r5
100037a8:	7160      	strb	r0, [r4, #5]
100037aa:	0030      	movs	r0, r6
100037ac:	f7ff f8b2 	bl	10002914 <dcd_edpt_xfer>
100037b0:	2800      	cmp	r0, #0
100037b2:	d1f5      	bne.n	100037a0 <usbd_edpt_xfer+0x1c>
100037b4:	2201      	movs	r2, #1
100037b6:	7963      	ldrb	r3, [r4, #5]
100037b8:	4393      	bics	r3, r2
100037ba:	7163      	strb	r3, [r4, #5]
100037bc:	7963      	ldrb	r3, [r4, #5]
100037be:	3203      	adds	r2, #3
100037c0:	4393      	bics	r3, r2
100037c2:	7163      	strb	r3, [r4, #5]
100037c4:	e7ec      	b.n	100037a0 <usbd_edpt_xfer+0x1c>
100037c6:	46c0      	nop			; (mov r8, r8)
100037c8:	20000ce0 	.word	0x20000ce0

100037cc <tud_control_status>:
100037cc:	b570      	push	{r4, r5, r6, lr}
100037ce:	4e0a      	ldr	r6, [pc, #40]	; (100037f8 <tud_control_status+0x2c>)
100037d0:	0005      	movs	r5, r0
100037d2:	2208      	movs	r2, #8
100037d4:	0030      	movs	r0, r6
100037d6:	000c      	movs	r4, r1
100037d8:	f7fe fd5a 	bl	10002290 <__wrap___aeabi_memcpy>
100037dc:	2100      	movs	r1, #0
100037de:	5661      	ldrsb	r1, [r4, r1]
100037e0:	2300      	movs	r3, #0
100037e2:	43c9      	mvns	r1, r1
100037e4:	0fc9      	lsrs	r1, r1, #31
100037e6:	0028      	movs	r0, r5
100037e8:	60f3      	str	r3, [r6, #12]
100037ea:	2200      	movs	r2, #0
100037ec:	01c9      	lsls	r1, r1, #7
100037ee:	60b3      	str	r3, [r6, #8]
100037f0:	f7ff f890 	bl	10002914 <dcd_edpt_xfer>
100037f4:	bd70      	pop	{r4, r5, r6, pc}
100037f6:	46c0      	nop			; (mov r8, r8)
100037f8:	20000bb8 	.word	0x20000bb8

100037fc <tud_control_xfer>:
100037fc:	b5f8      	push	{r3, r4, r5, r6, r7, lr}
100037fe:	46ce      	mov	lr, r9
10003800:	4647      	mov	r7, r8
10003802:	4690      	mov	r8, r2
10003804:	4e29      	ldr	r6, [pc, #164]	; (100038ac <tud_control_xfer+0xb0>)
10003806:	b580      	push	{r7, lr}
10003808:	4681      	mov	r9, r0
1000380a:	2208      	movs	r2, #8
1000380c:	0030      	movs	r0, r6
1000380e:	000d      	movs	r5, r1
10003810:	001f      	movs	r7, r3
10003812:	f7fe fd3d 	bl	10002290 <__wrap___aeabi_memcpy>
10003816:	4643      	mov	r3, r8
10003818:	60b3      	str	r3, [r6, #8]
1000381a:	2300      	movs	r3, #0
1000381c:	81f3      	strh	r3, [r6, #14]
1000381e:	79ec      	ldrb	r4, [r5, #7]
10003820:	79ab      	ldrb	r3, [r5, #6]
10003822:	0224      	lsls	r4, r4, #8
10003824:	431c      	orrs	r4, r3
10003826:	1c23      	adds	r3, r4, #0
10003828:	42bc      	cmp	r4, r7
1000382a:	d900      	bls.n	1000382e <tud_control_xfer+0x32>
1000382c:	1c3b      	adds	r3, r7, #0
1000382e:	b29f      	uxth	r7, r3
10003830:	81b3      	strh	r3, [r6, #12]
10003832:	2c00      	cmp	r4, #0
10003834:	d012      	beq.n	1000385c <tud_control_xfer+0x60>
10003836:	2f00      	cmp	r7, #0
10003838:	d01e      	beq.n	10003878 <tud_control_xfer+0x7c>
1000383a:	4643      	mov	r3, r8
1000383c:	2b00      	cmp	r3, #0
1000383e:	d032      	beq.n	100038a6 <tud_control_xfer+0xaa>
10003840:	1c3b      	adds	r3, r7, #0
10003842:	2f40      	cmp	r7, #64	; 0x40
10003844:	d81e      	bhi.n	10003884 <tud_control_xfer+0x88>
10003846:	b29f      	uxth	r7, r3
10003848:	7833      	ldrb	r3, [r6, #0]
1000384a:	2b7f      	cmp	r3, #127	; 0x7f
1000384c:	d81f      	bhi.n	1000388e <tud_control_xfer+0x92>
1000384e:	2100      	movs	r1, #0
10003850:	4a17      	ldr	r2, [pc, #92]	; (100038b0 <tud_control_xfer+0xb4>)
10003852:	003b      	movs	r3, r7
10003854:	4648      	mov	r0, r9
10003856:	f7ff f85d 	bl	10002914 <dcd_edpt_xfer>
1000385a:	e009      	b.n	10003870 <tud_control_xfer+0x74>
1000385c:	2100      	movs	r1, #0
1000385e:	5669      	ldrsb	r1, [r5, r1]
10003860:	2300      	movs	r3, #0
10003862:	43c9      	mvns	r1, r1
10003864:	0fc9      	lsrs	r1, r1, #31
10003866:	2200      	movs	r2, #0
10003868:	4648      	mov	r0, r9
1000386a:	01c9      	lsls	r1, r1, #7
1000386c:	f7ff f852 	bl	10002914 <dcd_edpt_xfer>
10003870:	bc0c      	pop	{r2, r3}
10003872:	4690      	mov	r8, r2
10003874:	4699      	mov	r9, r3
10003876:	bdf8      	pop	{r3, r4, r5, r6, r7, pc}
10003878:	7833      	ldrb	r3, [r6, #0]
1000387a:	2b7f      	cmp	r3, #127	; 0x7f
1000387c:	d910      	bls.n	100038a0 <tud_control_xfer+0xa4>
1000387e:	2180      	movs	r1, #128	; 0x80
10003880:	2200      	movs	r2, #0
10003882:	e7e6      	b.n	10003852 <tud_control_xfer+0x56>
10003884:	2340      	movs	r3, #64	; 0x40
10003886:	b29f      	uxth	r7, r3
10003888:	7833      	ldrb	r3, [r6, #0]
1000388a:	2b7f      	cmp	r3, #127	; 0x7f
1000388c:	d9df      	bls.n	1000384e <tud_control_xfer+0x52>
1000388e:	4c08      	ldr	r4, [pc, #32]	; (100038b0 <tud_control_xfer+0xb4>)
10003890:	003a      	movs	r2, r7
10003892:	4641      	mov	r1, r8
10003894:	0020      	movs	r0, r4
10003896:	f7fe fcfb 	bl	10002290 <__wrap___aeabi_memcpy>
1000389a:	2180      	movs	r1, #128	; 0x80
1000389c:	0022      	movs	r2, r4
1000389e:	e7d8      	b.n	10003852 <tud_control_xfer+0x56>
100038a0:	2100      	movs	r1, #0
100038a2:	2200      	movs	r2, #0
100038a4:	e7d5      	b.n	10003852 <tud_control_xfer+0x56>
100038a6:	2000      	movs	r0, #0
100038a8:	e7e2      	b.n	10003870 <tud_control_xfer+0x74>
100038aa:	46c0      	nop			; (mov r8, r8)
100038ac:	20000bb8 	.word	0x20000bb8
100038b0:	20000ca0 	.word	0x20000ca0

100038b4 <usbd_control_reset>:
100038b4:	b510      	push	{r4, lr}
100038b6:	2214      	movs	r2, #20
100038b8:	2100      	movs	r1, #0
100038ba:	4802      	ldr	r0, [pc, #8]	; (100038c4 <usbd_control_reset+0x10>)
100038bc:	f7fe fce2 	bl	10002284 <__wrap_memset>
100038c0:	bd10      	pop	{r4, pc}
100038c2:	46c0      	nop			; (mov r8, r8)
100038c4:	20000bb8 	.word	0x20000bb8

100038c8 <usbd_control_set_complete_callback>:
100038c8:	4b01      	ldr	r3, [pc, #4]	; (100038d0 <usbd_control_set_complete_callback+0x8>)
100038ca:	6118      	str	r0, [r3, #16]
100038cc:	4770      	bx	lr
100038ce:	46c0      	nop			; (mov r8, r8)
100038d0:	20000bb8 	.word	0x20000bb8

100038d4 <usbd_control_set_request>:
100038d4:	b510      	push	{r4, lr}
100038d6:	4c05      	ldr	r4, [pc, #20]	; (100038ec <usbd_control_set_request+0x18>)
100038d8:	0001      	movs	r1, r0
100038da:	2208      	movs	r2, #8
100038dc:	0020      	movs	r0, r4
100038de:	f7fe fcd7 	bl	10002290 <__wrap___aeabi_memcpy>
100038e2:	2300      	movs	r3, #0
100038e4:	60a3      	str	r3, [r4, #8]
100038e6:	60e3      	str	r3, [r4, #12]
100038e8:	bd10      	pop	{r4, pc}
100038ea:	46c0      	nop			; (mov r8, r8)
100038ec:	20000bb8 	.word	0x20000bb8

100038f0 <usbd_control_xfer_cb>:
100038f0:	b5f8      	push	{r3, r4, r5, r6, r7, lr}
100038f2:	4d36      	ldr	r5, [pc, #216]	; (100039cc <usbd_control_xfer_cb+0xdc>)
100038f4:	001c      	movs	r4, r3
100038f6:	782b      	ldrb	r3, [r5, #0]
100038f8:	0006      	movs	r6, r0
100038fa:	09da      	lsrs	r2, r3, #7
100038fc:	09c9      	lsrs	r1, r1, #7
100038fe:	428a      	cmp	r2, r1
10003900:	d00c      	beq.n	1000391c <usbd_control_xfer_cb+0x2c>
10003902:	2700      	movs	r7, #0
10003904:	2c00      	cmp	r4, #0
10003906:	d001      	beq.n	1000390c <usbd_control_xfer_cb+0x1c>
10003908:	0038      	movs	r0, r7
1000390a:	bdf8      	pop	{r3, r4, r5, r6, r7, pc}
1000390c:	4b30      	ldr	r3, [pc, #192]	; (100039d0 <usbd_control_xfer_cb+0xe0>)
1000390e:	3701      	adds	r7, #1
10003910:	2b00      	cmp	r3, #0
10003912:	d0f9      	beq.n	10003908 <usbd_control_xfer_cb+0x18>
10003914:	0029      	movs	r1, r5
10003916:	f7fe ff3d 	bl	10002794 <dcd_edpt0_status_complete>
1000391a:	e7f5      	b.n	10003908 <usbd_control_xfer_cb+0x18>
1000391c:	2b7f      	cmp	r3, #127	; 0x7f
1000391e:	d806      	bhi.n	1000392e <usbd_control_xfer_cb+0x3e>
10003920:	68a8      	ldr	r0, [r5, #8]
10003922:	2800      	cmp	r0, #0
10003924:	d037      	beq.n	10003996 <usbd_control_xfer_cb+0xa6>
10003926:	0022      	movs	r2, r4
10003928:	492a      	ldr	r1, [pc, #168]	; (100039d4 <usbd_control_xfer_cb+0xe4>)
1000392a:	f7fe fcb1 	bl	10002290 <__wrap___aeabi_memcpy>
1000392e:	68ab      	ldr	r3, [r5, #8]
10003930:	89ea      	ldrh	r2, [r5, #14]
10003932:	1919      	adds	r1, r3, r4
10003934:	1912      	adds	r2, r2, r4
10003936:	88eb      	ldrh	r3, [r5, #6]
10003938:	b292      	uxth	r2, r2
1000393a:	81ea      	strh	r2, [r5, #14]
1000393c:	60a9      	str	r1, [r5, #8]
1000393e:	4293      	cmp	r3, r2
10003940:	d015      	beq.n	1000396e <usbd_control_xfer_cb+0x7e>
10003942:	2c3f      	cmp	r4, #63	; 0x3f
10003944:	d913      	bls.n	1000396e <usbd_control_xfer_cb+0x7e>
10003946:	89ac      	ldrh	r4, [r5, #12]
10003948:	1aa0      	subs	r0, r4, r2
1000394a:	1c07      	adds	r7, r0, #0
1000394c:	b280      	uxth	r0, r0
1000394e:	2840      	cmp	r0, #64	; 0x40
10003950:	d82d      	bhi.n	100039ae <usbd_control_xfer_cb+0xbe>
10003952:	782b      	ldrb	r3, [r5, #0]
10003954:	b2bf      	uxth	r7, r7
10003956:	2b7f      	cmp	r3, #127	; 0x7f
10003958:	d82b      	bhi.n	100039b2 <usbd_control_xfer_cb+0xc2>
1000395a:	2100      	movs	r1, #0
1000395c:	42a2      	cmp	r2, r4
1000395e:	d033      	beq.n	100039c8 <usbd_control_xfer_cb+0xd8>
10003960:	4a1c      	ldr	r2, [pc, #112]	; (100039d4 <usbd_control_xfer_cb+0xe4>)
10003962:	003b      	movs	r3, r7
10003964:	0030      	movs	r0, r6
10003966:	f7fe ffd5 	bl	10002914 <dcd_edpt_xfer>
1000396a:	0007      	movs	r7, r0
1000396c:	e7cc      	b.n	10003908 <usbd_control_xfer_cb+0x18>
1000396e:	692b      	ldr	r3, [r5, #16]
10003970:	2b00      	cmp	r3, #0
10003972:	d004      	beq.n	1000397e <usbd_control_xfer_cb+0x8e>
10003974:	0029      	movs	r1, r5
10003976:	0030      	movs	r0, r6
10003978:	4798      	blx	r3
1000397a:	2800      	cmp	r0, #0
1000397c:	d00d      	beq.n	1000399a <usbd_control_xfer_cb+0xaa>
1000397e:	2100      	movs	r1, #0
10003980:	5669      	ldrsb	r1, [r5, r1]
10003982:	2300      	movs	r3, #0
10003984:	43c9      	mvns	r1, r1
10003986:	0fc9      	lsrs	r1, r1, #31
10003988:	2200      	movs	r2, #0
1000398a:	0030      	movs	r0, r6
1000398c:	01c9      	lsls	r1, r1, #7
1000398e:	f7fe ffc1 	bl	10002914 <dcd_edpt_xfer>
10003992:	0007      	movs	r7, r0
10003994:	e7b8      	b.n	10003908 <usbd_control_xfer_cb+0x18>
10003996:	2700      	movs	r7, #0
10003998:	e7b6      	b.n	10003908 <usbd_control_xfer_cb+0x18>
1000399a:	2100      	movs	r1, #0
1000399c:	0030      	movs	r0, r6
1000399e:	f7fe ffcf 	bl	10002940 <dcd_edpt_stall>
100039a2:	2180      	movs	r1, #128	; 0x80
100039a4:	0030      	movs	r0, r6
100039a6:	f7fe ffcb 	bl	10002940 <dcd_edpt_stall>
100039aa:	2701      	movs	r7, #1
100039ac:	e7ac      	b.n	10003908 <usbd_control_xfer_cb+0x18>
100039ae:	2740      	movs	r7, #64	; 0x40
100039b0:	e7cf      	b.n	10003952 <usbd_control_xfer_cb+0x62>
100039b2:	42a2      	cmp	r2, r4
100039b4:	d007      	beq.n	100039c6 <usbd_control_xfer_cb+0xd6>
100039b6:	4c07      	ldr	r4, [pc, #28]	; (100039d4 <usbd_control_xfer_cb+0xe4>)
100039b8:	003a      	movs	r2, r7
100039ba:	0020      	movs	r0, r4
100039bc:	f7fe fc68 	bl	10002290 <__wrap___aeabi_memcpy>
100039c0:	2180      	movs	r1, #128	; 0x80
100039c2:	0022      	movs	r2, r4
100039c4:	e7cd      	b.n	10003962 <usbd_control_xfer_cb+0x72>
100039c6:	2180      	movs	r1, #128	; 0x80
100039c8:	2200      	movs	r2, #0
100039ca:	e7ca      	b.n	10003962 <usbd_control_xfer_cb+0x72>
100039cc:	20000bb8 	.word	0x20000bb8
100039d0:	10002795 	.word	0x10002795
100039d4:	20000ca0 	.word	0x20000ca0

100039d8 <tud_hid_n_report>:
100039d8:	b5f8      	push	{r3, r4, r5, r6, r7, lr}
100039da:	248c      	movs	r4, #140	; 0x8c
100039dc:	4647      	mov	r7, r8
100039de:	46ce      	mov	lr, r9
100039e0:	4344      	muls	r4, r0
100039e2:	4e20      	ldr	r6, [pc, #128]	; (10003a64 <tud_hid_n_report+0x8c>)
100039e4:	b580      	push	{r7, lr}
100039e6:	1934      	adds	r4, r6, r4
100039e8:	0005      	movs	r5, r0
100039ea:	4689      	mov	r9, r1
100039ec:	2000      	movs	r0, #0
100039ee:	7861      	ldrb	r1, [r4, #1]
100039f0:	4690      	mov	r8, r2
100039f2:	001f      	movs	r7, r3
100039f4:	f7ff fe94 	bl	10003720 <usbd_edpt_claim>
100039f8:	2800      	cmp	r0, #0
100039fa:	d01d      	beq.n	10003a38 <tud_hid_n_report+0x60>
100039fc:	464b      	mov	r3, r9
100039fe:	2b00      	cmp	r3, #0
10003a00:	d01e      	beq.n	10003a40 <tud_hid_n_report+0x68>
10003a02:	1c3b      	adds	r3, r7, #0
10003a04:	2f3f      	cmp	r7, #63	; 0x3f
10003a06:	d829      	bhi.n	10003a5c <tud_hid_n_report+0x84>
10003a08:	248c      	movs	r4, #140	; 0x8c
10003a0a:	464a      	mov	r2, r9
10003a0c:	436c      	muls	r4, r5
10003a0e:	b2df      	uxtb	r7, r3
10003a10:	1933      	adds	r3, r6, r4
10003a12:	3408      	adds	r4, #8
10003a14:	1934      	adds	r4, r6, r4
10003a16:	721a      	strb	r2, [r3, #8]
10003a18:	4641      	mov	r1, r8
10003a1a:	003a      	movs	r2, r7
10003a1c:	1c60      	adds	r0, r4, #1
10003a1e:	f7fe fc37 	bl	10002290 <__wrap___aeabi_memcpy>
10003a22:	3701      	adds	r7, #1
10003a24:	b2ff      	uxtb	r7, r7
10003a26:	208c      	movs	r0, #140	; 0x8c
10003a28:	4345      	muls	r5, r0
10003a2a:	1976      	adds	r6, r6, r5
10003a2c:	0022      	movs	r2, r4
10003a2e:	2000      	movs	r0, #0
10003a30:	7871      	ldrb	r1, [r6, #1]
10003a32:	b2bb      	uxth	r3, r7
10003a34:	f7ff fea6 	bl	10003784 <usbd_edpt_xfer>
10003a38:	bc0c      	pop	{r2, r3}
10003a3a:	4690      	mov	r8, r2
10003a3c:	4699      	mov	r9, r3
10003a3e:	bdf8      	pop	{r3, r4, r5, r6, r7, pc}
10003a40:	1c3b      	adds	r3, r7, #0
10003a42:	2f40      	cmp	r7, #64	; 0x40
10003a44:	d80c      	bhi.n	10003a60 <tud_hid_n_report+0x88>
10003a46:	248c      	movs	r4, #140	; 0x8c
10003a48:	436c      	muls	r4, r5
10003a4a:	3408      	adds	r4, #8
10003a4c:	b2df      	uxtb	r7, r3
10003a4e:	1934      	adds	r4, r6, r4
10003a50:	003a      	movs	r2, r7
10003a52:	4641      	mov	r1, r8
10003a54:	0020      	movs	r0, r4
10003a56:	f7fe fc1b 	bl	10002290 <__wrap___aeabi_memcpy>
10003a5a:	e7e4      	b.n	10003a26 <tud_hid_n_report+0x4e>
10003a5c:	233f      	movs	r3, #63	; 0x3f
10003a5e:	e7d3      	b.n	10003a08 <tud_hid_n_report+0x30>
10003a60:	2340      	movs	r3, #64	; 0x40
10003a62:	e7f0      	b.n	10003a46 <tud_hid_n_report+0x6e>
10003a64:	20000c0c 	.word	0x20000c0c

10003a68 <hidd_init>:
10003a68:	b510      	push	{r4, lr}
10003a6a:	228c      	movs	r2, #140	; 0x8c
10003a6c:	2100      	movs	r1, #0
10003a6e:	4802      	ldr	r0, [pc, #8]	; (10003a78 <hidd_init+0x10>)
10003a70:	f7fe fc08 	bl	10002284 <__wrap_memset>
10003a74:	bd10      	pop	{r4, pc}
10003a76:	46c0      	nop			; (mov r8, r8)
10003a78:	20000c0c 	.word	0x20000c0c

10003a7c <hidd_reset>:
10003a7c:	b510      	push	{r4, lr}
10003a7e:	228c      	movs	r2, #140	; 0x8c
10003a80:	2100      	movs	r1, #0
10003a82:	4802      	ldr	r0, [pc, #8]	; (10003a8c <hidd_reset+0x10>)
10003a84:	f7fe fbfe 	bl	10002284 <__wrap_memset>
10003a88:	bd10      	pop	{r4, pc}
10003a8a:	46c0      	nop			; (mov r8, r8)
10003a8c:	20000c0c 	.word	0x20000c0c

10003a90 <hidd_open>:
10003a90:	b5f0      	push	{r4, r5, r6, r7, lr}
10003a92:	794b      	ldrb	r3, [r1, #5]
10003a94:	0006      	movs	r6, r0
10003a96:	000d      	movs	r5, r1
10003a98:	b083      	sub	sp, #12
10003a9a:	2b03      	cmp	r3, #3
10003a9c:	d10a      	bne.n	10003ab4 <hidd_open+0x24>
10003a9e:	7908      	ldrb	r0, [r1, #4]
10003aa0:	00c4      	lsls	r4, r0, #3
10003aa2:	1a24      	subs	r4, r4, r0
10003aa4:	3412      	adds	r4, #18
10003aa6:	b2a4      	uxth	r4, r4
10003aa8:	4294      	cmp	r4, r2
10003aaa:	d803      	bhi.n	10003ab4 <hidd_open+0x24>
10003aac:	4f1b      	ldr	r7, [pc, #108]	; (10003b1c <hidd_open+0x8c>)
10003aae:	787b      	ldrb	r3, [r7, #1]
10003ab0:	2b00      	cmp	r3, #0
10003ab2:	d003      	beq.n	10003abc <hidd_open+0x2c>
10003ab4:	2400      	movs	r4, #0
10003ab6:	0020      	movs	r0, r4
10003ab8:	b003      	add	sp, #12
10003aba:	bdf0      	pop	{r4, r5, r6, r7, pc}
10003abc:	2388      	movs	r3, #136	; 0x88
10003abe:	7809      	ldrb	r1, [r1, #0]
10003ac0:	1869      	adds	r1, r5, r1
10003ac2:	50f9      	str	r1, [r7, r3]
10003ac4:	784b      	ldrb	r3, [r1, #1]
10003ac6:	2b21      	cmp	r3, #33	; 0x21
10003ac8:	d1f4      	bne.n	10003ab4 <hidd_open+0x24>
10003aca:	780b      	ldrb	r3, [r1, #0]
10003acc:	0002      	movs	r2, r0
10003ace:	18c9      	adds	r1, r1, r3
10003ad0:	1c7b      	adds	r3, r7, #1
10003ad2:	9301      	str	r3, [sp, #4]
10003ad4:	1cbb      	adds	r3, r7, #2
10003ad6:	9300      	str	r3, [sp, #0]
10003ad8:	0030      	movs	r0, r6
10003ada:	2303      	movs	r3, #3
10003adc:	f7ff fdec 	bl	100036b8 <usbd_open_edpt_pair>
10003ae0:	2800      	cmp	r0, #0
10003ae2:	d0e7      	beq.n	10003ab4 <hidd_open+0x24>
10003ae4:	79ab      	ldrb	r3, [r5, #6]
10003ae6:	2b01      	cmp	r3, #1
10003ae8:	d014      	beq.n	10003b14 <hidd_open+0x84>
10003aea:	2300      	movs	r3, #0
10003aec:	713b      	strb	r3, [r7, #4]
10003aee:	78ab      	ldrb	r3, [r5, #2]
10003af0:	2202      	movs	r2, #2
10003af2:	703b      	strb	r3, [r7, #0]
10003af4:	2388      	movs	r3, #136	; 0x88
10003af6:	58f9      	ldr	r1, [r7, r3]
10003af8:	1db8      	adds	r0, r7, #6
10003afa:	3107      	adds	r1, #7
10003afc:	f7fe fbc8 	bl	10002290 <__wrap___aeabi_memcpy>
10003b00:	78b9      	ldrb	r1, [r7, #2]
10003b02:	2900      	cmp	r1, #0
10003b04:	d0d7      	beq.n	10003ab6 <hidd_open+0x26>
10003b06:	003a      	movs	r2, r7
10003b08:	2340      	movs	r3, #64	; 0x40
10003b0a:	0030      	movs	r0, r6
10003b0c:	3248      	adds	r2, #72	; 0x48
10003b0e:	f7ff fe39 	bl	10003784 <usbd_edpt_xfer>
10003b12:	e7d0      	b.n	10003ab6 <hidd_open+0x26>
10003b14:	79eb      	ldrb	r3, [r5, #7]
10003b16:	70fb      	strb	r3, [r7, #3]
10003b18:	e7e7      	b.n	10003aea <hidd_open+0x5a>
10003b1a:	46c0      	nop			; (mov r8, r8)
10003b1c:	20000c0c 	.word	0x20000c0c

10003b20 <hidd_control_request>:
10003b20:	231f      	movs	r3, #31
10003b22:	b570      	push	{r4, r5, r6, lr}
10003b24:	780a      	ldrb	r2, [r1, #0]
10003b26:	0005      	movs	r5, r0
10003b28:	000c      	movs	r4, r1
10003b2a:	b082      	sub	sp, #8
10003b2c:	4013      	ands	r3, r2
10003b2e:	2b01      	cmp	r3, #1
10003b30:	d11a      	bne.n	10003b68 <hidd_control_request+0x48>
10003b32:	4e40      	ldr	r6, [pc, #256]	; (10003c34 <hidd_control_request+0x114>)
10003b34:	7909      	ldrb	r1, [r1, #4]
10003b36:	7833      	ldrb	r3, [r6, #0]
10003b38:	4299      	cmp	r1, r3
10003b3a:	d115      	bne.n	10003b68 <hidd_control_request+0x48>
10003b3c:	2360      	movs	r3, #96	; 0x60
10003b3e:	0019      	movs	r1, r3
10003b40:	4011      	ands	r1, r2
10003b42:	4213      	tst	r3, r2
10003b44:	d008      	beq.n	10003b58 <hidd_control_request+0x38>
10003b46:	2920      	cmp	r1, #32
10003b48:	d10e      	bne.n	10003b68 <hidd_control_request+0x48>
10003b4a:	7863      	ldrb	r3, [r4, #1]
10003b4c:	2b0b      	cmp	r3, #11
10003b4e:	d80b      	bhi.n	10003b68 <hidd_control_request+0x48>
10003b50:	4a39      	ldr	r2, [pc, #228]	; (10003c38 <hidd_control_request+0x118>)
10003b52:	009b      	lsls	r3, r3, #2
10003b54:	58d3      	ldr	r3, [r2, r3]
10003b56:	469f      	mov	pc, r3
10003b58:	7863      	ldrb	r3, [r4, #1]
10003b5a:	2b06      	cmp	r3, #6
10003b5c:	d104      	bne.n	10003b68 <hidd_control_request+0x48>
10003b5e:	78e3      	ldrb	r3, [r4, #3]
10003b60:	2b21      	cmp	r3, #33	; 0x21
10003b62:	d00e      	beq.n	10003b82 <hidd_control_request+0x62>
10003b64:	2b22      	cmp	r3, #34	; 0x22
10003b66:	d002      	beq.n	10003b6e <hidd_control_request+0x4e>
10003b68:	2000      	movs	r0, #0
10003b6a:	b002      	add	sp, #8
10003b6c:	bd70      	pop	{r4, r5, r6, pc}
10003b6e:	f7fc fc3d 	bl	100003ec <tud_hid_descriptor_report_cb>
10003b72:	0021      	movs	r1, r4
10003b74:	0002      	movs	r2, r0
10003b76:	88f3      	ldrh	r3, [r6, #6]
10003b78:	0028      	movs	r0, r5
10003b7a:	f7ff fe3f 	bl	100037fc <tud_control_xfer>
10003b7e:	2001      	movs	r0, #1
10003b80:	e7f3      	b.n	10003b6a <hidd_control_request+0x4a>
10003b82:	3367      	adds	r3, #103	; 0x67
10003b84:	58f2      	ldr	r2, [r6, r3]
10003b86:	2a00      	cmp	r2, #0
10003b88:	d0ee      	beq.n	10003b68 <hidd_control_request+0x48>
10003b8a:	0021      	movs	r1, r4
10003b8c:	7813      	ldrb	r3, [r2, #0]
10003b8e:	f7ff fe35 	bl	100037fc <tud_control_xfer>
10003b92:	e7ea      	b.n	10003b6a <hidd_control_request+0x4a>
10003b94:	78e0      	ldrb	r0, [r4, #3]
10003b96:	78a3      	ldrb	r3, [r4, #2]
10003b98:	0200      	lsls	r0, r0, #8
10003b9a:	4318      	orrs	r0, r3
10003b9c:	3801      	subs	r0, #1
10003b9e:	1e43      	subs	r3, r0, #1
10003ba0:	4198      	sbcs	r0, r3
10003ba2:	4b26      	ldr	r3, [pc, #152]	; (10003c3c <hidd_control_request+0x11c>)
10003ba4:	b2c0      	uxtb	r0, r0
10003ba6:	7130      	strb	r0, [r6, #4]
10003ba8:	2b00      	cmp	r3, #0
10003baa:	d001      	beq.n	10003bb0 <hidd_control_request+0x90>
10003bac:	e000      	b.n	10003bb0 <hidd_control_request+0x90>
10003bae:	bf00      	nop
10003bb0:	0021      	movs	r1, r4
10003bb2:	0028      	movs	r0, r5
10003bb4:	f7ff fe0a 	bl	100037cc <tud_control_status>
10003bb8:	2001      	movs	r0, #1
10003bba:	e7d6      	b.n	10003b6a <hidd_control_request+0x4a>
10003bbc:	78e0      	ldrb	r0, [r4, #3]
10003bbe:	4b20      	ldr	r3, [pc, #128]	; (10003c40 <hidd_control_request+0x120>)
10003bc0:	7170      	strb	r0, [r6, #5]
10003bc2:	2b00      	cmp	r3, #0
10003bc4:	d0f4      	beq.n	10003bb0 <hidd_control_request+0x90>
10003bc6:	e000      	b.n	10003bca <hidd_control_request+0xaa>
10003bc8:	bf00      	nop
10003bca:	2800      	cmp	r0, #0
10003bcc:	d1f0      	bne.n	10003bb0 <hidd_control_request+0x90>
10003bce:	e7cb      	b.n	10003b68 <hidd_control_request+0x48>
10003bd0:	79e3      	ldrb	r3, [r4, #7]
10003bd2:	79a2      	ldrb	r2, [r4, #6]
10003bd4:	021b      	lsls	r3, r3, #8
10003bd6:	4313      	orrs	r3, r2
10003bd8:	2b40      	cmp	r3, #64	; 0x40
10003bda:	d8c5      	bhi.n	10003b68 <hidd_control_request+0x48>
10003bdc:	0021      	movs	r1, r4
10003bde:	4a19      	ldr	r2, [pc, #100]	; (10003c44 <hidd_control_request+0x124>)
10003be0:	f7ff fe0c 	bl	100037fc <tud_control_xfer>
10003be4:	2001      	movs	r0, #1
10003be6:	e7c0      	b.n	10003b6a <hidd_control_request+0x4a>
10003be8:	466b      	mov	r3, sp
10003bea:	1dda      	adds	r2, r3, #7
10003bec:	2301      	movs	r3, #1
10003bee:	7931      	ldrb	r1, [r6, #4]
10003bf0:	1a5b      	subs	r3, r3, r1
10003bf2:	7013      	strb	r3, [r2, #0]
10003bf4:	0021      	movs	r1, r4
10003bf6:	2301      	movs	r3, #1
10003bf8:	f7ff fe00 	bl	100037fc <tud_control_xfer>
10003bfc:	2001      	movs	r0, #1
10003bfe:	e7b4      	b.n	10003b6a <hidd_control_request+0x4a>
10003c00:	2301      	movs	r3, #1
10003c02:	0021      	movs	r1, r4
10003c04:	4a10      	ldr	r2, [pc, #64]	; (10003c48 <hidd_control_request+0x128>)
10003c06:	f7ff fdf9 	bl	100037fc <tud_control_xfer>
10003c0a:	2001      	movs	r0, #1
10003c0c:	e7ad      	b.n	10003b6a <hidd_control_request+0x4a>
10003c0e:	79e3      	ldrb	r3, [r4, #7]
10003c10:	79a2      	ldrb	r2, [r4, #6]
10003c12:	4e0e      	ldr	r6, [pc, #56]	; (10003c4c <hidd_control_request+0x12c>)
10003c14:	021b      	lsls	r3, r3, #8
10003c16:	4313      	orrs	r3, r2
10003c18:	78e1      	ldrb	r1, [r4, #3]
10003c1a:	0032      	movs	r2, r6
10003c1c:	78a0      	ldrb	r0, [r4, #2]
10003c1e:	f7fc fbd7 	bl	100003d0 <tud_hid_get_report_cb>
10003c22:	1e03      	subs	r3, r0, #0
10003c24:	d0a0      	beq.n	10003b68 <hidd_control_request+0x48>
10003c26:	0032      	movs	r2, r6
10003c28:	0021      	movs	r1, r4
10003c2a:	0028      	movs	r0, r5
10003c2c:	f7ff fde6 	bl	100037fc <tud_control_xfer>
10003c30:	2001      	movs	r0, #1
10003c32:	e79a      	b.n	10003b6a <hidd_control_request+0x4a>
10003c34:	20000c0c 	.word	0x20000c0c
10003c38:	10004b1c 	.word	0x10004b1c
	...
10003c44:	20000c54 	.word	0x20000c54
10003c48:	20000c11 	.word	0x20000c11
10003c4c:	20000c14 	.word	0x20000c14

10003c50 <hidd_control_complete>:
10003c50:	b570      	push	{r4, r5, r6, lr}
10003c52:	4a0e      	ldr	r2, [pc, #56]	; (10003c8c <hidd_control_complete+0x3c>)
10003c54:	7908      	ldrb	r0, [r1, #4]
10003c56:	7813      	ldrb	r3, [r2, #0]
10003c58:	4298      	cmp	r0, r3
10003c5a:	d115      	bne.n	10003c88 <hidd_control_complete+0x38>
10003c5c:	2360      	movs	r3, #96	; 0x60
10003c5e:	7808      	ldrb	r0, [r1, #0]
10003c60:	2401      	movs	r4, #1
10003c62:	4003      	ands	r3, r0
10003c64:	2b20      	cmp	r3, #32
10003c66:	d001      	beq.n	10003c6c <hidd_control_complete+0x1c>
10003c68:	0020      	movs	r0, r4
10003c6a:	bd70      	pop	{r4, r5, r6, pc}
10003c6c:	784b      	ldrb	r3, [r1, #1]
10003c6e:	2b09      	cmp	r3, #9
10003c70:	d1fa      	bne.n	10003c68 <hidd_control_complete+0x18>
10003c72:	79cb      	ldrb	r3, [r1, #7]
10003c74:	7988      	ldrb	r0, [r1, #6]
10003c76:	78cd      	ldrb	r5, [r1, #3]
10003c78:	021b      	lsls	r3, r3, #8
10003c7a:	4303      	orrs	r3, r0
10003c7c:	3248      	adds	r2, #72	; 0x48
10003c7e:	7888      	ldrb	r0, [r1, #2]
10003c80:	0029      	movs	r1, r5
10003c82:	f7fc fba7 	bl	100003d4 <tud_hid_set_report_cb>
10003c86:	e7ef      	b.n	10003c68 <hidd_control_complete+0x18>
10003c88:	2400      	movs	r4, #0
10003c8a:	e7ed      	b.n	10003c68 <hidd_control_complete+0x18>
10003c8c:	20000c0c 	.word	0x20000c0c

10003c90 <hidd_xfer_cb>:
10003c90:	b570      	push	{r4, r5, r6, lr}
10003c92:	4c0b      	ldr	r4, [pc, #44]	; (10003cc0 <hidd_xfer_cb+0x30>)
10003c94:	0005      	movs	r5, r0
10003c96:	78a2      	ldrb	r2, [r4, #2]
10003c98:	428a      	cmp	r2, r1
10003c9a:	d10e      	bne.n	10003cba <hidd_xfer_cb+0x2a>
10003c9c:	0026      	movs	r6, r4
10003c9e:	3648      	adds	r6, #72	; 0x48
10003ca0:	0032      	movs	r2, r6
10003ca2:	2100      	movs	r1, #0
10003ca4:	2000      	movs	r0, #0
10003ca6:	b29b      	uxth	r3, r3
10003ca8:	f7fc fb94 	bl	100003d4 <tud_hid_set_report_cb>
10003cac:	2340      	movs	r3, #64	; 0x40
10003cae:	0032      	movs	r2, r6
10003cb0:	0028      	movs	r0, r5
10003cb2:	78a1      	ldrb	r1, [r4, #2]
10003cb4:	f7ff fd66 	bl	10003784 <usbd_edpt_xfer>
10003cb8:	bd70      	pop	{r4, r5, r6, pc}
10003cba:	2000      	movs	r0, #0
10003cbc:	e7fc      	b.n	10003cb8 <hidd_xfer_cb+0x28>
10003cbe:	46c0      	nop			; (mov r8, r8)
10003cc0:	20000c0c 	.word	0x20000c0c

10003cc4 <tusb_init>:
10003cc4:	b570      	push	{r4, r5, r6, lr}
10003cc6:	4d06      	ldr	r5, [pc, #24]	; (10003ce0 <tusb_init+0x1c>)
10003cc8:	782c      	ldrb	r4, [r5, #0]
10003cca:	2c00      	cmp	r4, #0
10003ccc:	d001      	beq.n	10003cd2 <tusb_init+0xe>
10003cce:	0020      	movs	r0, r4
10003cd0:	bd70      	pop	{r4, r5, r6, pc}
10003cd2:	f7fe ffc7 	bl	10002c64 <tud_init>
10003cd6:	2800      	cmp	r0, #0
10003cd8:	d0f9      	beq.n	10003cce <tusb_init+0xa>
10003cda:	2301      	movs	r3, #1
10003cdc:	702b      	strb	r3, [r5, #0]
10003cde:	e7f6      	b.n	10003cce <tusb_init+0xa>
10003ce0:	20001419 	.word	0x20001419

10003ce4 <tusb_inited>:
10003ce4:	4b01      	ldr	r3, [pc, #4]	; (10003cec <tusb_inited+0x8>)
10003ce6:	7818      	ldrb	r0, [r3, #0]
10003ce8:	4770      	bx	lr
10003cea:	46c0      	nop			; (mov r8, r8)
10003cec:	20001419 	.word	0x20001419

10003cf0 <tu_fifo_read>:
10003cf0:	b5f8      	push	{r3, r4, r5, r6, r7, lr}
10003cf2:	0004      	movs	r4, r0
10003cf4:	6940      	ldr	r0, [r0, #20]
10003cf6:	000e      	movs	r6, r1
10003cf8:	2800      	cmp	r0, #0
10003cfa:	d003      	beq.n	10003d04 <tu_fifo_read+0x14>
10003cfc:	2101      	movs	r1, #1
10003cfe:	4249      	negs	r1, r1
10003d00:	f000 fd62 	bl	100047c8 <__mutex_enter_timeout_ms_veneer>
10003d04:	89e5      	ldrh	r5, [r4, #14]
10003d06:	8a20      	ldrh	r0, [r4, #16]
10003d08:	b2a9      	uxth	r1, r5
10003d0a:	1a2a      	subs	r2, r5, r0
10003d0c:	b283      	uxth	r3, r0
10003d0e:	b292      	uxth	r2, r2
10003d10:	4285      	cmp	r5, r0
10003d12:	d202      	bcs.n	10003d1a <tu_fifo_read+0x2a>
10003d14:	8960      	ldrh	r0, [r4, #10]
10003d16:	1a12      	subs	r2, r2, r0
10003d18:	b292      	uxth	r2, r2
10003d1a:	88a0      	ldrh	r0, [r4, #4]
10003d1c:	89a7      	ldrh	r7, [r4, #12]
10003d1e:	4290      	cmp	r0, r2
10003d20:	d205      	bcs.n	10003d2e <tu_fifo_read+0x3e>
10003d22:	1a0a      	subs	r2, r1, r0
10003d24:	42ba      	cmp	r2, r7
10003d26:	dc2b      	bgt.n	10003d80 <tu_fifo_read+0x90>
10003d28:	b292      	uxth	r2, r2
10003d2a:	8222      	strh	r2, [r4, #16]
10003d2c:	0002      	movs	r2, r0
10003d2e:	2a00      	cmp	r2, #0
10003d30:	d02e      	beq.n	10003d90 <tu_fifo_read+0xa0>
10003d32:	42bb      	cmp	r3, r7
10003d34:	d906      	bls.n	10003d44 <tu_fifo_read+0x54>
10003d36:	8961      	ldrh	r1, [r4, #10]
10003d38:	185b      	adds	r3, r3, r1
10003d3a:	b29b      	uxth	r3, r3
10003d3c:	4298      	cmp	r0, r3
10003d3e:	d803      	bhi.n	10003d48 <tu_fifo_read+0x58>
10003d40:	1a1b      	subs	r3, r3, r0
10003d42:	b29b      	uxth	r3, r3
10003d44:	4298      	cmp	r0, r3
10003d46:	d9fb      	bls.n	10003d40 <tu_fifo_read+0x50>
10003d48:	88e2      	ldrh	r2, [r4, #6]
10003d4a:	6821      	ldr	r1, [r4, #0]
10003d4c:	4353      	muls	r3, r2
10003d4e:	0030      	movs	r0, r6
10003d50:	18c9      	adds	r1, r1, r3
10003d52:	f7fe fa9d 	bl	10002290 <__wrap___aeabi_memcpy>
10003d56:	2501      	movs	r5, #1
10003d58:	2001      	movs	r0, #1
10003d5a:	2201      	movs	r2, #1
10003d5c:	89a7      	ldrh	r7, [r4, #12]
10003d5e:	8a21      	ldrh	r1, [r4, #16]
10003d60:	b28b      	uxth	r3, r1
10003d62:	1809      	adds	r1, r1, r0
10003d64:	42b9      	cmp	r1, r7
10003d66:	dd10      	ble.n	10003d8a <tu_fifo_read+0x9a>
10003d68:	8961      	ldrh	r1, [r4, #10]
10003d6a:	185b      	adds	r3, r3, r1
10003d6c:	18d3      	adds	r3, r2, r3
10003d6e:	b29b      	uxth	r3, r3
10003d70:	6960      	ldr	r0, [r4, #20]
10003d72:	8223      	strh	r3, [r4, #16]
10003d74:	2800      	cmp	r0, #0
10003d76:	d001      	beq.n	10003d7c <tu_fifo_read+0x8c>
10003d78:	f000 fd06 	bl	10004788 <__mutex_exit_veneer>
10003d7c:	0028      	movs	r0, r5
10003d7e:	bdf8      	pop	{r3, r4, r5, r6, r7, pc}
10003d80:	8962      	ldrh	r2, [r4, #10]
10003d82:	1882      	adds	r2, r0, r2
10003d84:	1a8a      	subs	r2, r1, r2
10003d86:	b292      	uxth	r2, r2
10003d88:	e7cf      	b.n	10003d2a <tu_fifo_read+0x3a>
10003d8a:	189b      	adds	r3, r3, r2
10003d8c:	b29b      	uxth	r3, r3
10003d8e:	e7ef      	b.n	10003d70 <tu_fifo_read+0x80>
10003d90:	2000      	movs	r0, #0
10003d92:	2500      	movs	r5, #0
10003d94:	e7e3      	b.n	10003d5e <tu_fifo_read+0x6e>
10003d96:	46c0      	nop			; (mov r8, r8)

10003d98 <tu_fifo_write>:
10003d98:	b5f8      	push	{r3, r4, r5, r6, r7, lr}
10003d9a:	0004      	movs	r4, r0
10003d9c:	6940      	ldr	r0, [r0, #20]
10003d9e:	000e      	movs	r6, r1
10003da0:	2800      	cmp	r0, #0
10003da2:	d003      	beq.n	10003dac <tu_fifo_write+0x14>
10003da4:	2101      	movs	r1, #1
10003da6:	4249      	negs	r1, r1
10003da8:	f000 fd0e 	bl	100047c8 <__mutex_enter_timeout_ms_veneer>
10003dac:	89e2      	ldrh	r2, [r4, #14]
10003dae:	8a21      	ldrh	r1, [r4, #16]
10003db0:	b295      	uxth	r5, r2
10003db2:	1a53      	subs	r3, r2, r1
10003db4:	b29b      	uxth	r3, r3
10003db6:	4291      	cmp	r1, r2
10003db8:	d902      	bls.n	10003dc0 <tu_fifo_write+0x28>
10003dba:	8962      	ldrh	r2, [r4, #10]
10003dbc:	1a9b      	subs	r3, r3, r2
10003dbe:	b29b      	uxth	r3, r3
10003dc0:	88a2      	ldrh	r2, [r4, #4]
10003dc2:	429a      	cmp	r2, r3
10003dc4:	d026      	beq.n	10003e14 <tu_fifo_write+0x7c>
10003dc6:	89a1      	ldrh	r1, [r4, #12]
10003dc8:	002b      	movs	r3, r5
10003dca:	42a9      	cmp	r1, r5
10003dcc:	d206      	bcs.n	10003ddc <tu_fifo_write+0x44>
10003dce:	8963      	ldrh	r3, [r4, #10]
10003dd0:	18eb      	adds	r3, r5, r3
10003dd2:	b29b      	uxth	r3, r3
10003dd4:	429a      	cmp	r2, r3
10003dd6:	d803      	bhi.n	10003de0 <tu_fifo_write+0x48>
10003dd8:	1a9b      	subs	r3, r3, r2
10003dda:	b29b      	uxth	r3, r3
10003ddc:	429a      	cmp	r2, r3
10003dde:	d9fb      	bls.n	10003dd8 <tu_fifo_write+0x40>
10003de0:	88e2      	ldrh	r2, [r4, #6]
10003de2:	6821      	ldr	r1, [r4, #0]
10003de4:	4353      	muls	r3, r2
10003de6:	18c8      	adds	r0, r1, r3
10003de8:	0031      	movs	r1, r6
10003dea:	f7fe fa51 	bl	10002290 <__wrap___aeabi_memcpy>
10003dee:	89a3      	ldrh	r3, [r4, #12]
10003df0:	42ab      	cmp	r3, r5
10003df2:	d90a      	bls.n	10003e0a <tu_fifo_write+0x72>
10003df4:	3501      	adds	r5, #1
10003df6:	b2ad      	uxth	r5, r5
10003df8:	6960      	ldr	r0, [r4, #20]
10003dfa:	2701      	movs	r7, #1
10003dfc:	81e5      	strh	r5, [r4, #14]
10003dfe:	2800      	cmp	r0, #0
10003e00:	d001      	beq.n	10003e06 <tu_fifo_write+0x6e>
10003e02:	f000 fcc1 	bl	10004788 <__mutex_exit_veneer>
10003e06:	0038      	movs	r0, r7
10003e08:	bdf8      	pop	{r3, r4, r5, r6, r7, pc}
10003e0a:	8963      	ldrh	r3, [r4, #10]
10003e0c:	18ed      	adds	r5, r5, r3
10003e0e:	3501      	adds	r5, #1
10003e10:	b2ad      	uxth	r5, r5
10003e12:	e7f1      	b.n	10003df8 <tu_fifo_write+0x60>
10003e14:	7a27      	ldrb	r7, [r4, #8]
10003e16:	2f00      	cmp	r7, #0
10003e18:	d1d5      	bne.n	10003dc6 <tu_fifo_write+0x2e>
10003e1a:	e7f4      	b.n	10003e06 <tu_fifo_write+0x6e>

10003e1c <tu_fifo_clear>:
10003e1c:	b510      	push	{r4, lr}
10003e1e:	0004      	movs	r4, r0
10003e20:	6940      	ldr	r0, [r0, #20]
10003e22:	2800      	cmp	r0, #0
10003e24:	d00d      	beq.n	10003e42 <tu_fifo_clear+0x26>
10003e26:	2101      	movs	r1, #1
10003e28:	4249      	negs	r1, r1
10003e2a:	f000 fccd 	bl	100047c8 <__mutex_enter_timeout_ms_veneer>
10003e2e:	2300      	movs	r3, #0
10003e30:	6960      	ldr	r0, [r4, #20]
10003e32:	81e3      	strh	r3, [r4, #14]
10003e34:	8223      	strh	r3, [r4, #16]
10003e36:	2800      	cmp	r0, #0
10003e38:	d001      	beq.n	10003e3e <tu_fifo_clear+0x22>
10003e3a:	f000 fca5 	bl	10004788 <__mutex_exit_veneer>
10003e3e:	2001      	movs	r0, #1
10003e40:	bd10      	pop	{r4, pc}
10003e42:	81e0      	strh	r0, [r4, #14]
10003e44:	8220      	strh	r0, [r4, #16]
10003e46:	e7fa      	b.n	10003e3e <tu_fifo_clear+0x22>

10003e48 <board_init>:
10003e48:	b510      	push	{r4, lr}
10003e4a:	f7fc fb15 	bl	10000478 <setup_default_uart>
10003e4e:	2019      	movs	r0, #25
10003e50:	f7fc fb2e 	bl	100004b0 <gpio_init>
10003e54:	23d0      	movs	r3, #208	; 0xd0
10003e56:	2280      	movs	r2, #128	; 0x80
10003e58:	061b      	lsls	r3, r3, #24
10003e5a:	0492      	lsls	r2, r2, #18
10003e5c:	625a      	str	r2, [r3, #36]	; 0x24
10003e5e:	bd10      	pop	{r4, pc}

10003e60 <board_led_write>:
10003e60:	23d0      	movs	r3, #208	; 0xd0
10003e62:	2280      	movs	r2, #128	; 0x80
10003e64:	061b      	lsls	r3, r3, #24
10003e66:	0492      	lsls	r2, r2, #18
10003e68:	2800      	cmp	r0, #0
10003e6a:	d001      	beq.n	10003e70 <board_led_write+0x10>
10003e6c:	615a      	str	r2, [r3, #20]
10003e6e:	4770      	bx	lr
10003e70:	619a      	str	r2, [r3, #24]
10003e72:	e7fc      	b.n	10003e6e <board_led_write+0xe>

10003e74 <calloc>:
10003e74:	0003      	movs	r3, r0
10003e76:	b510      	push	{r4, lr}
10003e78:	000a      	movs	r2, r1
10003e7a:	4903      	ldr	r1, [pc, #12]	; (10003e88 <calloc+0x14>)
10003e7c:	6808      	ldr	r0, [r1, #0]
10003e7e:	0019      	movs	r1, r3
10003e80:	f000 f804 	bl	10003e8c <_calloc_r>
10003e84:	bd10      	pop	{r4, pc}
10003e86:	46c0      	nop			; (mov r8, r8)
10003e88:	2000030c 	.word	0x2000030c

10003e8c <_calloc_r>:
10003e8c:	b510      	push	{r4, lr}
10003e8e:	4351      	muls	r1, r2
10003e90:	f000 f834 	bl	10003efc <_malloc_r>
10003e94:	1e04      	subs	r4, r0, #0
10003e96:	d00e      	beq.n	10003eb6 <_calloc_r+0x2a>
10003e98:	0003      	movs	r3, r0
10003e9a:	3b08      	subs	r3, #8
10003e9c:	685a      	ldr	r2, [r3, #4]
10003e9e:	2303      	movs	r3, #3
10003ea0:	439a      	bics	r2, r3
10003ea2:	3a04      	subs	r2, #4
10003ea4:	2a24      	cmp	r2, #36	; 0x24
10003ea6:	d815      	bhi.n	10003ed4 <_calloc_r+0x48>
10003ea8:	0003      	movs	r3, r0
10003eaa:	2a13      	cmp	r2, #19
10003eac:	d805      	bhi.n	10003eba <_calloc_r+0x2e>
10003eae:	2200      	movs	r2, #0
10003eb0:	601a      	str	r2, [r3, #0]
10003eb2:	605a      	str	r2, [r3, #4]
10003eb4:	609a      	str	r2, [r3, #8]
10003eb6:	0020      	movs	r0, r4
10003eb8:	bd10      	pop	{r4, pc}
10003eba:	2100      	movs	r1, #0
10003ebc:	3308      	adds	r3, #8
10003ebe:	6001      	str	r1, [r0, #0]
10003ec0:	6041      	str	r1, [r0, #4]
10003ec2:	2a1b      	cmp	r2, #27
10003ec4:	d9f3      	bls.n	10003eae <_calloc_r+0x22>
10003ec6:	6081      	str	r1, [r0, #8]
10003ec8:	60c1      	str	r1, [r0, #12]
10003eca:	2a24      	cmp	r2, #36	; 0x24
10003ecc:	d006      	beq.n	10003edc <_calloc_r+0x50>
10003ece:	0003      	movs	r3, r0
10003ed0:	3310      	adds	r3, #16
10003ed2:	e7ec      	b.n	10003eae <_calloc_r+0x22>
10003ed4:	2100      	movs	r1, #0
10003ed6:	f7fe f9d5 	bl	10002284 <__wrap_memset>
10003eda:	e7ec      	b.n	10003eb6 <_calloc_r+0x2a>
10003edc:	0003      	movs	r3, r0
10003ede:	6101      	str	r1, [r0, #16]
10003ee0:	3318      	adds	r3, #24
10003ee2:	6141      	str	r1, [r0, #20]
10003ee4:	e7e3      	b.n	10003eae <_calloc_r+0x22>
10003ee6:	46c0      	nop			; (mov r8, r8)

10003ee8 <malloc>:
10003ee8:	b510      	push	{r4, lr}
10003eea:	4b03      	ldr	r3, [pc, #12]	; (10003ef8 <malloc+0x10>)
10003eec:	0001      	movs	r1, r0
10003eee:	6818      	ldr	r0, [r3, #0]
10003ef0:	f000 f804 	bl	10003efc <_malloc_r>
10003ef4:	bd10      	pop	{r4, pc}
10003ef6:	46c0      	nop			; (mov r8, r8)
10003ef8:	2000030c 	.word	0x2000030c

10003efc <_malloc_r>:
10003efc:	b5f0      	push	{r4, r5, r6, r7, lr}
10003efe:	464e      	mov	r6, r9
10003f00:	4645      	mov	r5, r8
10003f02:	46de      	mov	lr, fp
10003f04:	4657      	mov	r7, sl
10003f06:	b5e0      	push	{r5, r6, r7, lr}
10003f08:	000d      	movs	r5, r1
10003f0a:	350b      	adds	r5, #11
10003f0c:	0006      	movs	r6, r0
10003f0e:	b083      	sub	sp, #12
10003f10:	2d16      	cmp	r5, #22
10003f12:	d822      	bhi.n	10003f5a <_malloc_r+0x5e>
10003f14:	2910      	cmp	r1, #16
10003f16:	d900      	bls.n	10003f1a <_malloc_r+0x1e>
10003f18:	e0b2      	b.n	10004080 <_malloc_r+0x184>
10003f1a:	f000 faaf 	bl	1000447c <__malloc_lock>
10003f1e:	2510      	movs	r5, #16
10003f20:	2002      	movs	r0, #2
10003f22:	2318      	movs	r3, #24
10003f24:	4fcb      	ldr	r7, [pc, #812]	; (10004254 <_malloc_r+0x358>)
10003f26:	18fb      	adds	r3, r7, r3
10003f28:	001a      	movs	r2, r3
10003f2a:	685c      	ldr	r4, [r3, #4]
10003f2c:	3a08      	subs	r2, #8
10003f2e:	4294      	cmp	r4, r2
10003f30:	d100      	bne.n	10003f34 <_malloc_r+0x38>
10003f32:	e0b5      	b.n	100040a0 <_malloc_r+0x1a4>
10003f34:	2303      	movs	r3, #3
10003f36:	6862      	ldr	r2, [r4, #4]
10003f38:	439a      	bics	r2, r3
10003f3a:	0013      	movs	r3, r2
10003f3c:	68e2      	ldr	r2, [r4, #12]
10003f3e:	68a1      	ldr	r1, [r4, #8]
10003f40:	60ca      	str	r2, [r1, #12]
10003f42:	6091      	str	r1, [r2, #8]
10003f44:	2201      	movs	r2, #1
10003f46:	18e3      	adds	r3, r4, r3
10003f48:	6859      	ldr	r1, [r3, #4]
10003f4a:	0030      	movs	r0, r6
10003f4c:	430a      	orrs	r2, r1
10003f4e:	605a      	str	r2, [r3, #4]
10003f50:	f000 fa9c 	bl	1000448c <__malloc_unlock>
10003f54:	0020      	movs	r0, r4
10003f56:	3008      	adds	r0, #8
10003f58:	e095      	b.n	10004086 <_malloc_r+0x18a>
10003f5a:	2307      	movs	r3, #7
10003f5c:	439d      	bics	r5, r3
10003f5e:	d500      	bpl.n	10003f62 <_malloc_r+0x66>
10003f60:	e08e      	b.n	10004080 <_malloc_r+0x184>
10003f62:	42a9      	cmp	r1, r5
10003f64:	d900      	bls.n	10003f68 <_malloc_r+0x6c>
10003f66:	e08b      	b.n	10004080 <_malloc_r+0x184>
10003f68:	f000 fa88 	bl	1000447c <__malloc_lock>
10003f6c:	23fc      	movs	r3, #252	; 0xfc
10003f6e:	005b      	lsls	r3, r3, #1
10003f70:	429d      	cmp	r5, r3
10003f72:	d200      	bcs.n	10003f76 <_malloc_r+0x7a>
10003f74:	e1a5      	b.n	100042c2 <_malloc_r+0x3c6>
10003f76:	0a68      	lsrs	r0, r5, #9
10003f78:	d100      	bne.n	10003f7c <_malloc_r+0x80>
10003f7a:	e08b      	b.n	10004094 <_malloc_r+0x198>
10003f7c:	2804      	cmp	r0, #4
10003f7e:	d900      	bls.n	10003f82 <_malloc_r+0x86>
10003f80:	e178      	b.n	10004274 <_malloc_r+0x378>
10003f82:	2338      	movs	r3, #56	; 0x38
10003f84:	4698      	mov	r8, r3
10003f86:	09a8      	lsrs	r0, r5, #6
10003f88:	4480      	add	r8, r0
10003f8a:	3039      	adds	r0, #57	; 0x39
10003f8c:	00c1      	lsls	r1, r0, #3
10003f8e:	4fb1      	ldr	r7, [pc, #708]	; (10004254 <_malloc_r+0x358>)
10003f90:	1879      	adds	r1, r7, r1
10003f92:	684c      	ldr	r4, [r1, #4]
10003f94:	3908      	subs	r1, #8
10003f96:	42a1      	cmp	r1, r4
10003f98:	d00e      	beq.n	10003fb8 <_malloc_r+0xbc>
10003f9a:	2303      	movs	r3, #3
10003f9c:	469c      	mov	ip, r3
10003f9e:	e004      	b.n	10003faa <_malloc_r+0xae>
10003fa0:	2a00      	cmp	r2, #0
10003fa2:	dacb      	bge.n	10003f3c <_malloc_r+0x40>
10003fa4:	68e4      	ldr	r4, [r4, #12]
10003fa6:	42a1      	cmp	r1, r4
10003fa8:	d006      	beq.n	10003fb8 <_malloc_r+0xbc>
10003faa:	4662      	mov	r2, ip
10003fac:	6863      	ldr	r3, [r4, #4]
10003fae:	4393      	bics	r3, r2
10003fb0:	1b5a      	subs	r2, r3, r5
10003fb2:	2a0f      	cmp	r2, #15
10003fb4:	ddf4      	ble.n	10003fa0 <_malloc_r+0xa4>
10003fb6:	4640      	mov	r0, r8
10003fb8:	003a      	movs	r2, r7
10003fba:	693c      	ldr	r4, [r7, #16]
10003fbc:	3208      	adds	r2, #8
10003fbe:	4294      	cmp	r4, r2
10003fc0:	d100      	bne.n	10003fc4 <_malloc_r+0xc8>
10003fc2:	e078      	b.n	100040b6 <_malloc_r+0x1ba>
10003fc4:	2303      	movs	r3, #3
10003fc6:	6861      	ldr	r1, [r4, #4]
10003fc8:	4399      	bics	r1, r3
10003fca:	4689      	mov	r9, r1
10003fcc:	000b      	movs	r3, r1
10003fce:	1b49      	subs	r1, r1, r5
10003fd0:	290f      	cmp	r1, #15
10003fd2:	dd00      	ble.n	10003fd6 <_malloc_r+0xda>
10003fd4:	e179      	b.n	100042ca <_malloc_r+0x3ce>
10003fd6:	617a      	str	r2, [r7, #20]
10003fd8:	613a      	str	r2, [r7, #16]
10003fda:	2900      	cmp	r1, #0
10003fdc:	dab2      	bge.n	10003f44 <_malloc_r+0x48>
10003fde:	2280      	movs	r2, #128	; 0x80
10003fe0:	0092      	lsls	r2, r2, #2
10003fe2:	4591      	cmp	r9, r2
10003fe4:	d300      	bcc.n	10003fe8 <_malloc_r+0xec>
10003fe6:	e10e      	b.n	10004206 <_malloc_r+0x30a>
10003fe8:	0959      	lsrs	r1, r3, #5
10003fea:	08da      	lsrs	r2, r3, #3
10003fec:	2301      	movs	r3, #1
10003fee:	408b      	lsls	r3, r1
10003ff0:	00d2      	lsls	r2, r2, #3
10003ff2:	6879      	ldr	r1, [r7, #4]
10003ff4:	19d2      	adds	r2, r2, r7
10003ff6:	430b      	orrs	r3, r1
10003ff8:	6891      	ldr	r1, [r2, #8]
10003ffa:	607b      	str	r3, [r7, #4]
10003ffc:	60e2      	str	r2, [r4, #12]
10003ffe:	60a1      	str	r1, [r4, #8]
10004000:	6094      	str	r4, [r2, #8]
10004002:	60cc      	str	r4, [r1, #12]
10004004:	2101      	movs	r1, #1
10004006:	1082      	asrs	r2, r0, #2
10004008:	4091      	lsls	r1, r2
1000400a:	4299      	cmp	r1, r3
1000400c:	d859      	bhi.n	100040c2 <_malloc_r+0x1c6>
1000400e:	420b      	tst	r3, r1
10004010:	d105      	bne.n	1000401e <_malloc_r+0x122>
10004012:	2203      	movs	r2, #3
10004014:	4390      	bics	r0, r2
10004016:	0049      	lsls	r1, r1, #1
10004018:	3004      	adds	r0, #4
1000401a:	420b      	tst	r3, r1
1000401c:	d0fb      	beq.n	10004016 <_malloc_r+0x11a>
1000401e:	2303      	movs	r3, #3
10004020:	4698      	mov	r8, r3
10004022:	00c3      	lsls	r3, r0, #3
10004024:	4699      	mov	r9, r3
10004026:	44b9      	add	r9, r7
10004028:	46cc      	mov	ip, r9
1000402a:	4682      	mov	sl, r0
1000402c:	4663      	mov	r3, ip
1000402e:	68dc      	ldr	r4, [r3, #12]
10004030:	45a4      	cmp	ip, r4
10004032:	d107      	bne.n	10004044 <_malloc_r+0x148>
10004034:	e12a      	b.n	1000428c <_malloc_r+0x390>
10004036:	2a00      	cmp	r2, #0
10004038:	db00      	blt.n	1000403c <_malloc_r+0x140>
1000403a:	e133      	b.n	100042a4 <_malloc_r+0x3a8>
1000403c:	68e4      	ldr	r4, [r4, #12]
1000403e:	45a4      	cmp	ip, r4
10004040:	d100      	bne.n	10004044 <_malloc_r+0x148>
10004042:	e123      	b.n	1000428c <_malloc_r+0x390>
10004044:	4642      	mov	r2, r8
10004046:	6863      	ldr	r3, [r4, #4]
10004048:	4393      	bics	r3, r2
1000404a:	1b5a      	subs	r2, r3, r5
1000404c:	2a0f      	cmp	r2, #15
1000404e:	ddf2      	ble.n	10004036 <_malloc_r+0x13a>
10004050:	2001      	movs	r0, #1
10004052:	4680      	mov	r8, r0
10004054:	1961      	adds	r1, r4, r5
10004056:	4305      	orrs	r5, r0
10004058:	6065      	str	r5, [r4, #4]
1000405a:	68a0      	ldr	r0, [r4, #8]
1000405c:	68e5      	ldr	r5, [r4, #12]
1000405e:	3708      	adds	r7, #8
10004060:	60c5      	str	r5, [r0, #12]
10004062:	60a8      	str	r0, [r5, #8]
10004064:	4640      	mov	r0, r8
10004066:	4310      	orrs	r0, r2
10004068:	60f9      	str	r1, [r7, #12]
1000406a:	60b9      	str	r1, [r7, #8]
1000406c:	6048      	str	r0, [r1, #4]
1000406e:	60cf      	str	r7, [r1, #12]
10004070:	0030      	movs	r0, r6
10004072:	608f      	str	r7, [r1, #8]
10004074:	50e2      	str	r2, [r4, r3]
10004076:	f000 fa09 	bl	1000448c <__malloc_unlock>
1000407a:	0020      	movs	r0, r4
1000407c:	3008      	adds	r0, #8
1000407e:	e002      	b.n	10004086 <_malloc_r+0x18a>
10004080:	230c      	movs	r3, #12
10004082:	2000      	movs	r0, #0
10004084:	6033      	str	r3, [r6, #0]
10004086:	b003      	add	sp, #12
10004088:	bc3c      	pop	{r2, r3, r4, r5}
1000408a:	4690      	mov	r8, r2
1000408c:	4699      	mov	r9, r3
1000408e:	46a2      	mov	sl, r4
10004090:	46ab      	mov	fp, r5
10004092:	bdf0      	pop	{r4, r5, r6, r7, pc}
10004094:	2180      	movs	r1, #128	; 0x80
10004096:	233f      	movs	r3, #63	; 0x3f
10004098:	2040      	movs	r0, #64	; 0x40
1000409a:	4698      	mov	r8, r3
1000409c:	0089      	lsls	r1, r1, #2
1000409e:	e776      	b.n	10003f8e <_malloc_r+0x92>
100040a0:	68dc      	ldr	r4, [r3, #12]
100040a2:	3002      	adds	r0, #2
100040a4:	42a3      	cmp	r3, r4
100040a6:	d000      	beq.n	100040aa <_malloc_r+0x1ae>
100040a8:	e744      	b.n	10003f34 <_malloc_r+0x38>
100040aa:	003a      	movs	r2, r7
100040ac:	693c      	ldr	r4, [r7, #16]
100040ae:	3208      	adds	r2, #8
100040b0:	4294      	cmp	r4, r2
100040b2:	d000      	beq.n	100040b6 <_malloc_r+0x1ba>
100040b4:	e786      	b.n	10003fc4 <_malloc_r+0xc8>
100040b6:	2101      	movs	r1, #1
100040b8:	687b      	ldr	r3, [r7, #4]
100040ba:	1082      	asrs	r2, r0, #2
100040bc:	4091      	lsls	r1, r2
100040be:	4299      	cmp	r1, r3
100040c0:	d9a5      	bls.n	1000400e <_malloc_r+0x112>
100040c2:	2303      	movs	r3, #3
100040c4:	68bc      	ldr	r4, [r7, #8]
100040c6:	6862      	ldr	r2, [r4, #4]
100040c8:	439a      	bics	r2, r3
100040ca:	4691      	mov	r9, r2
100040cc:	4295      	cmp	r5, r2
100040ce:	d803      	bhi.n	100040d8 <_malloc_r+0x1dc>
100040d0:	1b53      	subs	r3, r2, r5
100040d2:	2b0f      	cmp	r3, #15
100040d4:	dd00      	ble.n	100040d8 <_malloc_r+0x1dc>
100040d6:	e088      	b.n	100041ea <_malloc_r+0x2ee>
100040d8:	0023      	movs	r3, r4
100040da:	444b      	add	r3, r9
100040dc:	4a5e      	ldr	r2, [pc, #376]	; (10004258 <_malloc_r+0x35c>)
100040de:	9301      	str	r3, [sp, #4]
100040e0:	4b5e      	ldr	r3, [pc, #376]	; (1000425c <_malloc_r+0x360>)
100040e2:	4693      	mov	fp, r2
100040e4:	681b      	ldr	r3, [r3, #0]
100040e6:	6812      	ldr	r2, [r2, #0]
100040e8:	18eb      	adds	r3, r5, r3
100040ea:	3201      	adds	r2, #1
100040ec:	d100      	bne.n	100040f0 <_malloc_r+0x1f4>
100040ee:	e13b      	b.n	10004368 <_malloc_r+0x46c>
100040f0:	4a5b      	ldr	r2, [pc, #364]	; (10004260 <_malloc_r+0x364>)
100040f2:	4694      	mov	ip, r2
100040f4:	4463      	add	r3, ip
100040f6:	0b1b      	lsrs	r3, r3, #12
100040f8:	031b      	lsls	r3, r3, #12
100040fa:	9300      	str	r3, [sp, #0]
100040fc:	0030      	movs	r0, r6
100040fe:	9900      	ldr	r1, [sp, #0]
10004100:	f000 f9cc 	bl	1000449c <_sbrk_r>
10004104:	0003      	movs	r3, r0
10004106:	4680      	mov	r8, r0
10004108:	3301      	adds	r3, #1
1000410a:	d100      	bne.n	1000410e <_malloc_r+0x212>
1000410c:	e0f8      	b.n	10004300 <_malloc_r+0x404>
1000410e:	9b01      	ldr	r3, [sp, #4]
10004110:	4283      	cmp	r3, r0
10004112:	d900      	bls.n	10004116 <_malloc_r+0x21a>
10004114:	e0f2      	b.n	100042fc <_malloc_r+0x400>
10004116:	4b53      	ldr	r3, [pc, #332]	; (10004264 <_malloc_r+0x368>)
10004118:	0019      	movs	r1, r3
1000411a:	469a      	mov	sl, r3
1000411c:	6809      	ldr	r1, [r1, #0]
1000411e:	9b00      	ldr	r3, [sp, #0]
10004120:	468c      	mov	ip, r1
10004122:	4651      	mov	r1, sl
10004124:	4463      	add	r3, ip
10004126:	600b      	str	r3, [r1, #0]
10004128:	9901      	ldr	r1, [sp, #4]
1000412a:	001a      	movs	r2, r3
1000412c:	4281      	cmp	r1, r0
1000412e:	d100      	bne.n	10004132 <_malloc_r+0x236>
10004130:	e150      	b.n	100043d4 <_malloc_r+0x4d8>
10004132:	465b      	mov	r3, fp
10004134:	681b      	ldr	r3, [r3, #0]
10004136:	3301      	adds	r3, #1
10004138:	d100      	bne.n	1000413c <_malloc_r+0x240>
1000413a:	e155      	b.n	100043e8 <_malloc_r+0x4ec>
1000413c:	4643      	mov	r3, r8
1000413e:	9901      	ldr	r1, [sp, #4]
10004140:	1a5b      	subs	r3, r3, r1
10004142:	189a      	adds	r2, r3, r2
10004144:	4653      	mov	r3, sl
10004146:	601a      	str	r2, [r3, #0]
10004148:	2307      	movs	r3, #7
1000414a:	4642      	mov	r2, r8
1000414c:	4641      	mov	r1, r8
1000414e:	401a      	ands	r2, r3
10004150:	9201      	str	r2, [sp, #4]
10004152:	4219      	tst	r1, r3
10004154:	d100      	bne.n	10004158 <_malloc_r+0x25c>
10004156:	e111      	b.n	1000437c <_malloc_r+0x480>
10004158:	2308      	movs	r3, #8
1000415a:	4698      	mov	r8, r3
1000415c:	1a88      	subs	r0, r1, r2
1000415e:	4b42      	ldr	r3, [pc, #264]	; (10004268 <_malloc_r+0x36c>)
10004160:	9900      	ldr	r1, [sp, #0]
10004162:	4480      	add	r8, r0
10004164:	4441      	add	r1, r8
10004166:	1a9b      	subs	r3, r3, r2
10004168:	1a5b      	subs	r3, r3, r1
1000416a:	051b      	lsls	r3, r3, #20
1000416c:	0d1b      	lsrs	r3, r3, #20
1000416e:	9100      	str	r1, [sp, #0]
10004170:	0030      	movs	r0, r6
10004172:	0019      	movs	r1, r3
10004174:	469b      	mov	fp, r3
10004176:	f000 f991 	bl	1000449c <_sbrk_r>
1000417a:	1c43      	adds	r3, r0, #1
1000417c:	d100      	bne.n	10004180 <_malloc_r+0x284>
1000417e:	e14f      	b.n	10004420 <_malloc_r+0x524>
10004180:	4643      	mov	r3, r8
10004182:	1ac0      	subs	r0, r0, r3
10004184:	0003      	movs	r3, r0
10004186:	445b      	add	r3, fp
10004188:	9300      	str	r3, [sp, #0]
1000418a:	4653      	mov	r3, sl
1000418c:	4652      	mov	r2, sl
1000418e:	681b      	ldr	r3, [r3, #0]
10004190:	2101      	movs	r1, #1
10004192:	445b      	add	r3, fp
10004194:	6013      	str	r3, [r2, #0]
10004196:	4642      	mov	r2, r8
10004198:	4640      	mov	r0, r8
1000419a:	60ba      	str	r2, [r7, #8]
1000419c:	9a00      	ldr	r2, [sp, #0]
1000419e:	430a      	orrs	r2, r1
100041a0:	6042      	str	r2, [r0, #4]
100041a2:	42bc      	cmp	r4, r7
100041a4:	d100      	bne.n	100041a8 <_malloc_r+0x2ac>
100041a6:	e123      	b.n	100043f0 <_malloc_r+0x4f4>
100041a8:	464a      	mov	r2, r9
100041aa:	2a0f      	cmp	r2, #15
100041ac:	d800      	bhi.n	100041b0 <_malloc_r+0x2b4>
100041ae:	e121      	b.n	100043f4 <_malloc_r+0x4f8>
100041b0:	2007      	movs	r0, #7
100041b2:	3a0c      	subs	r2, #12
100041b4:	4382      	bics	r2, r0
100041b6:	6860      	ldr	r0, [r4, #4]
100041b8:	4001      	ands	r1, r0
100041ba:	2005      	movs	r0, #5
100041bc:	4311      	orrs	r1, r2
100041be:	6061      	str	r1, [r4, #4]
100041c0:	18a1      	adds	r1, r4, r2
100041c2:	6048      	str	r0, [r1, #4]
100041c4:	6088      	str	r0, [r1, #8]
100041c6:	2a0f      	cmp	r2, #15
100041c8:	d900      	bls.n	100041cc <_malloc_r+0x2d0>
100041ca:	e134      	b.n	10004436 <_malloc_r+0x53a>
100041cc:	4642      	mov	r2, r8
100041ce:	4644      	mov	r4, r8
100041d0:	6852      	ldr	r2, [r2, #4]
100041d2:	4926      	ldr	r1, [pc, #152]	; (1000426c <_malloc_r+0x370>)
100041d4:	6808      	ldr	r0, [r1, #0]
100041d6:	4298      	cmp	r0, r3
100041d8:	d200      	bcs.n	100041dc <_malloc_r+0x2e0>
100041da:	600b      	str	r3, [r1, #0]
100041dc:	4924      	ldr	r1, [pc, #144]	; (10004270 <_malloc_r+0x374>)
100041de:	6808      	ldr	r0, [r1, #0]
100041e0:	4298      	cmp	r0, r3
100041e2:	d300      	bcc.n	100041e6 <_malloc_r+0x2ea>
100041e4:	e08e      	b.n	10004304 <_malloc_r+0x408>
100041e6:	600b      	str	r3, [r1, #0]
100041e8:	e08c      	b.n	10004304 <_malloc_r+0x408>
100041ea:	2201      	movs	r2, #1
100041ec:	0029      	movs	r1, r5
100041ee:	4313      	orrs	r3, r2
100041f0:	4311      	orrs	r1, r2
100041f2:	1965      	adds	r5, r4, r5
100041f4:	6061      	str	r1, [r4, #4]
100041f6:	0030      	movs	r0, r6
100041f8:	60bd      	str	r5, [r7, #8]
100041fa:	606b      	str	r3, [r5, #4]
100041fc:	f000 f946 	bl	1000448c <__malloc_unlock>
10004200:	0020      	movs	r0, r4
10004202:	3008      	adds	r0, #8
10004204:	e73f      	b.n	10004086 <_malloc_r+0x18a>
10004206:	0a5a      	lsrs	r2, r3, #9
10004208:	2a04      	cmp	r2, #4
1000420a:	d971      	bls.n	100042f0 <_malloc_r+0x3f4>
1000420c:	2a14      	cmp	r2, #20
1000420e:	d900      	bls.n	10004212 <_malloc_r+0x316>
10004210:	e0c4      	b.n	1000439c <_malloc_r+0x4a0>
10004212:	0011      	movs	r1, r2
10004214:	325c      	adds	r2, #92	; 0x5c
10004216:	315b      	adds	r1, #91	; 0x5b
10004218:	00d2      	lsls	r2, r2, #3
1000421a:	2308      	movs	r3, #8
1000421c:	425b      	negs	r3, r3
1000421e:	469c      	mov	ip, r3
10004220:	18ba      	adds	r2, r7, r2
10004222:	4494      	add	ip, r2
10004224:	4663      	mov	r3, ip
10004226:	689a      	ldr	r2, [r3, #8]
10004228:	2303      	movs	r3, #3
1000422a:	4698      	mov	r8, r3
1000422c:	4594      	cmp	ip, r2
1000422e:	d100      	bne.n	10004232 <_malloc_r+0x336>
10004230:	e09d      	b.n	1000436e <_malloc_r+0x472>
10004232:	4643      	mov	r3, r8
10004234:	6851      	ldr	r1, [r2, #4]
10004236:	4399      	bics	r1, r3
10004238:	4549      	cmp	r1, r9
1000423a:	d902      	bls.n	10004242 <_malloc_r+0x346>
1000423c:	6892      	ldr	r2, [r2, #8]
1000423e:	4594      	cmp	ip, r2
10004240:	d1f7      	bne.n	10004232 <_malloc_r+0x336>
10004242:	68d3      	ldr	r3, [r2, #12]
10004244:	469c      	mov	ip, r3
10004246:	687b      	ldr	r3, [r7, #4]
10004248:	4661      	mov	r1, ip
1000424a:	60a2      	str	r2, [r4, #8]
1000424c:	60e1      	str	r1, [r4, #12]
1000424e:	608c      	str	r4, [r1, #8]
10004250:	60d4      	str	r4, [r2, #12]
10004252:	e6d7      	b.n	10004004 <_malloc_r+0x108>
10004254:	20000738 	.word	0x20000738
10004258:	20000b40 	.word	0x20000b40
1000425c:	20000bb0 	.word	0x20000bb0
10004260:	0000100f 	.word	0x0000100f
10004264:	20000b80 	.word	0x20000b80
10004268:	00001008 	.word	0x00001008
1000426c:	20000ba8 	.word	0x20000ba8
10004270:	20000bac 	.word	0x20000bac
10004274:	2814      	cmp	r0, #20
10004276:	d952      	bls.n	1000431e <_malloc_r+0x422>
10004278:	2854      	cmp	r0, #84	; 0x54
1000427a:	d900      	bls.n	1000427e <_malloc_r+0x382>
1000427c:	e096      	b.n	100043ac <_malloc_r+0x4b0>
1000427e:	236e      	movs	r3, #110	; 0x6e
10004280:	4698      	mov	r8, r3
10004282:	0b28      	lsrs	r0, r5, #12
10004284:	4480      	add	r8, r0
10004286:	306f      	adds	r0, #111	; 0x6f
10004288:	00c1      	lsls	r1, r0, #3
1000428a:	e680      	b.n	10003f8e <_malloc_r+0x92>
1000428c:	2308      	movs	r3, #8
1000428e:	469b      	mov	fp, r3
10004290:	3b07      	subs	r3, #7
10004292:	44dc      	add	ip, fp
10004294:	469b      	mov	fp, r3
10004296:	44da      	add	sl, fp
10004298:	4643      	mov	r3, r8
1000429a:	4652      	mov	r2, sl
1000429c:	4213      	tst	r3, r2
1000429e:	d000      	beq.n	100042a2 <_malloc_r+0x3a6>
100042a0:	e6c4      	b.n	1000402c <_malloc_r+0x130>
100042a2:	e04c      	b.n	1000433e <_malloc_r+0x442>
100042a4:	2201      	movs	r2, #1
100042a6:	18e3      	adds	r3, r4, r3
100042a8:	6859      	ldr	r1, [r3, #4]
100042aa:	0030      	movs	r0, r6
100042ac:	430a      	orrs	r2, r1
100042ae:	605a      	str	r2, [r3, #4]
100042b0:	68e3      	ldr	r3, [r4, #12]
100042b2:	68a2      	ldr	r2, [r4, #8]
100042b4:	60d3      	str	r3, [r2, #12]
100042b6:	609a      	str	r2, [r3, #8]
100042b8:	f000 f8e8 	bl	1000448c <__malloc_unlock>
100042bc:	0020      	movs	r0, r4
100042be:	3008      	adds	r0, #8
100042c0:	e6e1      	b.n	10004086 <_malloc_r+0x18a>
100042c2:	002b      	movs	r3, r5
100042c4:	08e8      	lsrs	r0, r5, #3
100042c6:	3308      	adds	r3, #8
100042c8:	e62c      	b.n	10003f24 <_malloc_r+0x28>
100042ca:	2301      	movs	r3, #1
100042cc:	1960      	adds	r0, r4, r5
100042ce:	431d      	orrs	r5, r3
100042d0:	6065      	str	r5, [r4, #4]
100042d2:	6178      	str	r0, [r7, #20]
100042d4:	6138      	str	r0, [r7, #16]
100042d6:	60c2      	str	r2, [r0, #12]
100042d8:	6082      	str	r2, [r0, #8]
100042da:	001a      	movs	r2, r3
100042dc:	464b      	mov	r3, r9
100042de:	430a      	orrs	r2, r1
100042e0:	6042      	str	r2, [r0, #4]
100042e2:	0030      	movs	r0, r6
100042e4:	50e1      	str	r1, [r4, r3]
100042e6:	f000 f8d1 	bl	1000448c <__malloc_unlock>
100042ea:	0020      	movs	r0, r4
100042ec:	3008      	adds	r0, #8
100042ee:	e6ca      	b.n	10004086 <_malloc_r+0x18a>
100042f0:	099a      	lsrs	r2, r3, #6
100042f2:	0011      	movs	r1, r2
100042f4:	3239      	adds	r2, #57	; 0x39
100042f6:	3138      	adds	r1, #56	; 0x38
100042f8:	00d2      	lsls	r2, r2, #3
100042fa:	e78e      	b.n	1000421a <_malloc_r+0x31e>
100042fc:	42bc      	cmp	r4, r7
100042fe:	d060      	beq.n	100043c2 <_malloc_r+0x4c6>
10004300:	68bc      	ldr	r4, [r7, #8]
10004302:	6862      	ldr	r2, [r4, #4]
10004304:	2303      	movs	r3, #3
10004306:	439a      	bics	r2, r3
10004308:	1b53      	subs	r3, r2, r5
1000430a:	4295      	cmp	r5, r2
1000430c:	d802      	bhi.n	10004314 <_malloc_r+0x418>
1000430e:	2b0f      	cmp	r3, #15
10004310:	dd00      	ble.n	10004314 <_malloc_r+0x418>
10004312:	e76a      	b.n	100041ea <_malloc_r+0x2ee>
10004314:	0030      	movs	r0, r6
10004316:	f000 f8b9 	bl	1000448c <__malloc_unlock>
1000431a:	2000      	movs	r0, #0
1000431c:	e6b3      	b.n	10004086 <_malloc_r+0x18a>
1000431e:	235b      	movs	r3, #91	; 0x5b
10004320:	4698      	mov	r8, r3
10004322:	4480      	add	r8, r0
10004324:	305c      	adds	r0, #92	; 0x5c
10004326:	00c1      	lsls	r1, r0, #3
10004328:	e631      	b.n	10003f8e <_malloc_r+0x92>
1000432a:	2308      	movs	r3, #8
1000432c:	425b      	negs	r3, r3
1000432e:	469c      	mov	ip, r3
10004330:	44e1      	add	r9, ip
10004332:	464b      	mov	r3, r9
10004334:	689b      	ldr	r3, [r3, #8]
10004336:	3801      	subs	r0, #1
10004338:	454b      	cmp	r3, r9
1000433a:	d000      	beq.n	1000433e <_malloc_r+0x442>
1000433c:	e098      	b.n	10004470 <_malloc_r+0x574>
1000433e:	4643      	mov	r3, r8
10004340:	4203      	tst	r3, r0
10004342:	d1f2      	bne.n	1000432a <_malloc_r+0x42e>
10004344:	687b      	ldr	r3, [r7, #4]
10004346:	438b      	bics	r3, r1
10004348:	607b      	str	r3, [r7, #4]
1000434a:	0049      	lsls	r1, r1, #1
1000434c:	4299      	cmp	r1, r3
1000434e:	d900      	bls.n	10004352 <_malloc_r+0x456>
10004350:	e6b7      	b.n	100040c2 <_malloc_r+0x1c6>
10004352:	2900      	cmp	r1, #0
10004354:	d104      	bne.n	10004360 <_malloc_r+0x464>
10004356:	e6b4      	b.n	100040c2 <_malloc_r+0x1c6>
10004358:	2204      	movs	r2, #4
1000435a:	4694      	mov	ip, r2
1000435c:	0049      	lsls	r1, r1, #1
1000435e:	44e2      	add	sl, ip
10004360:	420b      	tst	r3, r1
10004362:	d0f9      	beq.n	10004358 <_malloc_r+0x45c>
10004364:	4650      	mov	r0, sl
10004366:	e65c      	b.n	10004022 <_malloc_r+0x126>
10004368:	3310      	adds	r3, #16
1000436a:	9300      	str	r3, [sp, #0]
1000436c:	e6c6      	b.n	100040fc <_malloc_r+0x200>
1000436e:	1089      	asrs	r1, r1, #2
10004370:	3b02      	subs	r3, #2
10004372:	408b      	lsls	r3, r1
10004374:	6879      	ldr	r1, [r7, #4]
10004376:	430b      	orrs	r3, r1
10004378:	607b      	str	r3, [r7, #4]
1000437a:	e765      	b.n	10004248 <_malloc_r+0x34c>
1000437c:	9b00      	ldr	r3, [sp, #0]
1000437e:	0030      	movs	r0, r6
10004380:	4443      	add	r3, r8
10004382:	425b      	negs	r3, r3
10004384:	051b      	lsls	r3, r3, #20
10004386:	0d1b      	lsrs	r3, r3, #20
10004388:	0019      	movs	r1, r3
1000438a:	469b      	mov	fp, r3
1000438c:	f000 f886 	bl	1000449c <_sbrk_r>
10004390:	1c43      	adds	r3, r0, #1
10004392:	d000      	beq.n	10004396 <_malloc_r+0x49a>
10004394:	e6f4      	b.n	10004180 <_malloc_r+0x284>
10004396:	2300      	movs	r3, #0
10004398:	469b      	mov	fp, r3
1000439a:	e6f6      	b.n	1000418a <_malloc_r+0x28e>
1000439c:	2a54      	cmp	r2, #84	; 0x54
1000439e:	d82b      	bhi.n	100043f8 <_malloc_r+0x4fc>
100043a0:	0b1a      	lsrs	r2, r3, #12
100043a2:	0011      	movs	r1, r2
100043a4:	326f      	adds	r2, #111	; 0x6f
100043a6:	316e      	adds	r1, #110	; 0x6e
100043a8:	00d2      	lsls	r2, r2, #3
100043aa:	e736      	b.n	1000421a <_malloc_r+0x31e>
100043ac:	23aa      	movs	r3, #170	; 0xaa
100043ae:	005b      	lsls	r3, r3, #1
100043b0:	4298      	cmp	r0, r3
100043b2:	d82b      	bhi.n	1000440c <_malloc_r+0x510>
100043b4:	3bdd      	subs	r3, #221	; 0xdd
100043b6:	4698      	mov	r8, r3
100043b8:	0be8      	lsrs	r0, r5, #15
100043ba:	4480      	add	r8, r0
100043bc:	3078      	adds	r0, #120	; 0x78
100043be:	00c1      	lsls	r1, r0, #3
100043c0:	e5e5      	b.n	10003f8e <_malloc_r+0x92>
100043c2:	4b2c      	ldr	r3, [pc, #176]	; (10004474 <_malloc_r+0x578>)
100043c4:	9a00      	ldr	r2, [sp, #0]
100043c6:	469a      	mov	sl, r3
100043c8:	681b      	ldr	r3, [r3, #0]
100043ca:	469c      	mov	ip, r3
100043cc:	4653      	mov	r3, sl
100043ce:	4462      	add	r2, ip
100043d0:	601a      	str	r2, [r3, #0]
100043d2:	e6ae      	b.n	10004132 <_malloc_r+0x236>
100043d4:	0509      	lsls	r1, r1, #20
100043d6:	d000      	beq.n	100043da <_malloc_r+0x4de>
100043d8:	e6ab      	b.n	10004132 <_malloc_r+0x236>
100043da:	9a00      	ldr	r2, [sp, #0]
100043dc:	68bc      	ldr	r4, [r7, #8]
100043de:	444a      	add	r2, r9
100043e0:	3101      	adds	r1, #1
100043e2:	430a      	orrs	r2, r1
100043e4:	6062      	str	r2, [r4, #4]
100043e6:	e6f4      	b.n	100041d2 <_malloc_r+0x2d6>
100043e8:	465b      	mov	r3, fp
100043ea:	4642      	mov	r2, r8
100043ec:	601a      	str	r2, [r3, #0]
100043ee:	e6ab      	b.n	10004148 <_malloc_r+0x24c>
100043f0:	4644      	mov	r4, r8
100043f2:	e6ee      	b.n	100041d2 <_malloc_r+0x2d6>
100043f4:	6041      	str	r1, [r0, #4]
100043f6:	e78d      	b.n	10004314 <_malloc_r+0x418>
100043f8:	21aa      	movs	r1, #170	; 0xaa
100043fa:	0049      	lsls	r1, r1, #1
100043fc:	428a      	cmp	r2, r1
100043fe:	d824      	bhi.n	1000444a <_malloc_r+0x54e>
10004400:	0bda      	lsrs	r2, r3, #15
10004402:	0011      	movs	r1, r2
10004404:	3278      	adds	r2, #120	; 0x78
10004406:	3177      	adds	r1, #119	; 0x77
10004408:	00d2      	lsls	r2, r2, #3
1000440a:	e706      	b.n	1000421a <_malloc_r+0x31e>
1000440c:	4b1a      	ldr	r3, [pc, #104]	; (10004478 <_malloc_r+0x57c>)
1000440e:	4298      	cmp	r0, r3
10004410:	d824      	bhi.n	1000445c <_malloc_r+0x560>
10004412:	237c      	movs	r3, #124	; 0x7c
10004414:	4698      	mov	r8, r3
10004416:	0ca8      	lsrs	r0, r5, #18
10004418:	4480      	add	r8, r0
1000441a:	307d      	adds	r0, #125	; 0x7d
1000441c:	00c1      	lsls	r1, r0, #3
1000441e:	e5b6      	b.n	10003f8e <_malloc_r+0x92>
10004420:	9a00      	ldr	r2, [sp, #0]
10004422:	9b01      	ldr	r3, [sp, #4]
10004424:	4694      	mov	ip, r2
10004426:	4642      	mov	r2, r8
10004428:	3b08      	subs	r3, #8
1000442a:	4463      	add	r3, ip
1000442c:	1a9b      	subs	r3, r3, r2
1000442e:	9300      	str	r3, [sp, #0]
10004430:	2300      	movs	r3, #0
10004432:	469b      	mov	fp, r3
10004434:	e6a9      	b.n	1000418a <_malloc_r+0x28e>
10004436:	0021      	movs	r1, r4
10004438:	0030      	movs	r0, r6
1000443a:	3108      	adds	r1, #8
1000443c:	f000 f8bc 	bl	100045b8 <_free_r>
10004440:	4653      	mov	r3, sl
10004442:	68bc      	ldr	r4, [r7, #8]
10004444:	681b      	ldr	r3, [r3, #0]
10004446:	6862      	ldr	r2, [r4, #4]
10004448:	e6c3      	b.n	100041d2 <_malloc_r+0x2d6>
1000444a:	490b      	ldr	r1, [pc, #44]	; (10004478 <_malloc_r+0x57c>)
1000444c:	428a      	cmp	r2, r1
1000444e:	d80b      	bhi.n	10004468 <_malloc_r+0x56c>
10004450:	0c9a      	lsrs	r2, r3, #18
10004452:	0011      	movs	r1, r2
10004454:	327d      	adds	r2, #125	; 0x7d
10004456:	317c      	adds	r1, #124	; 0x7c
10004458:	00d2      	lsls	r2, r2, #3
1000445a:	e6de      	b.n	1000421a <_malloc_r+0x31e>
1000445c:	21fe      	movs	r1, #254	; 0xfe
1000445e:	237e      	movs	r3, #126	; 0x7e
10004460:	207f      	movs	r0, #127	; 0x7f
10004462:	4698      	mov	r8, r3
10004464:	0089      	lsls	r1, r1, #2
10004466:	e592      	b.n	10003f8e <_malloc_r+0x92>
10004468:	22fe      	movs	r2, #254	; 0xfe
1000446a:	217e      	movs	r1, #126	; 0x7e
1000446c:	0092      	lsls	r2, r2, #2
1000446e:	e6d4      	b.n	1000421a <_malloc_r+0x31e>
10004470:	687b      	ldr	r3, [r7, #4]
10004472:	e76a      	b.n	1000434a <_malloc_r+0x44e>
10004474:	20000b80 	.word	0x20000b80
10004478:	00000554 	.word	0x00000554

1000447c <__malloc_lock>:
1000447c:	b510      	push	{r4, lr}
1000447e:	4802      	ldr	r0, [pc, #8]	; (10004488 <__malloc_lock+0xc>)
10004480:	f000 f97c 	bl	1000477c <__retarget_lock_acquire_recursive>
10004484:	bd10      	pop	{r4, pc}
10004486:	46c0      	nop			; (mov r8, r8)
10004488:	200016f8 	.word	0x200016f8

1000448c <__malloc_unlock>:
1000448c:	b510      	push	{r4, lr}
1000448e:	4802      	ldr	r0, [pc, #8]	; (10004498 <__malloc_unlock+0xc>)
10004490:	f000 f976 	bl	10004780 <__retarget_lock_release_recursive>
10004494:	bd10      	pop	{r4, pc}
10004496:	46c0      	nop			; (mov r8, r8)
10004498:	200016f8 	.word	0x200016f8

1000449c <_sbrk_r>:
1000449c:	2300      	movs	r3, #0
1000449e:	b570      	push	{r4, r5, r6, lr}
100044a0:	4d06      	ldr	r5, [pc, #24]	; (100044bc <_sbrk_r+0x20>)
100044a2:	0004      	movs	r4, r0
100044a4:	0008      	movs	r0, r1
100044a6:	602b      	str	r3, [r5, #0]
100044a8:	f7fc ffe0 	bl	1000146c <_sbrk>
100044ac:	1c43      	adds	r3, r0, #1
100044ae:	d000      	beq.n	100044b2 <_sbrk_r+0x16>
100044b0:	bd70      	pop	{r4, r5, r6, pc}
100044b2:	682b      	ldr	r3, [r5, #0]
100044b4:	2b00      	cmp	r3, #0
100044b6:	d0fb      	beq.n	100044b0 <_sbrk_r+0x14>
100044b8:	6023      	str	r3, [r4, #0]
100044ba:	e7f9      	b.n	100044b0 <_sbrk_r+0x14>
100044bc:	2000170c 	.word	0x2000170c

100044c0 <strlen>:
100044c0:	b510      	push	{r4, lr}
100044c2:	0783      	lsls	r3, r0, #30
100044c4:	d00a      	beq.n	100044dc <strlen+0x1c>
100044c6:	0003      	movs	r3, r0
100044c8:	2103      	movs	r1, #3
100044ca:	e002      	b.n	100044d2 <strlen+0x12>
100044cc:	3301      	adds	r3, #1
100044ce:	420b      	tst	r3, r1
100044d0:	d005      	beq.n	100044de <strlen+0x1e>
100044d2:	781a      	ldrb	r2, [r3, #0]
100044d4:	2a00      	cmp	r2, #0
100044d6:	d1f9      	bne.n	100044cc <strlen+0xc>
100044d8:	1a18      	subs	r0, r3, r0
100044da:	bd10      	pop	{r4, pc}
100044dc:	0003      	movs	r3, r0
100044de:	6819      	ldr	r1, [r3, #0]
100044e0:	4a0c      	ldr	r2, [pc, #48]	; (10004514 <strlen+0x54>)
100044e2:	4c0d      	ldr	r4, [pc, #52]	; (10004518 <strlen+0x58>)
100044e4:	188a      	adds	r2, r1, r2
100044e6:	438a      	bics	r2, r1
100044e8:	4222      	tst	r2, r4
100044ea:	d10f      	bne.n	1000450c <strlen+0x4c>
100044ec:	6859      	ldr	r1, [r3, #4]
100044ee:	4a09      	ldr	r2, [pc, #36]	; (10004514 <strlen+0x54>)
100044f0:	3304      	adds	r3, #4
100044f2:	188a      	adds	r2, r1, r2
100044f4:	438a      	bics	r2, r1
100044f6:	4222      	tst	r2, r4
100044f8:	d108      	bne.n	1000450c <strlen+0x4c>
100044fa:	6859      	ldr	r1, [r3, #4]
100044fc:	4a05      	ldr	r2, [pc, #20]	; (10004514 <strlen+0x54>)
100044fe:	3304      	adds	r3, #4
10004500:	188a      	adds	r2, r1, r2
10004502:	438a      	bics	r2, r1
10004504:	4222      	tst	r2, r4
10004506:	d0f1      	beq.n	100044ec <strlen+0x2c>
10004508:	e000      	b.n	1000450c <strlen+0x4c>
1000450a:	3301      	adds	r3, #1
1000450c:	781a      	ldrb	r2, [r3, #0]
1000450e:	2a00      	cmp	r2, #0
10004510:	d1fb      	bne.n	1000450a <strlen+0x4a>
10004512:	e7e1      	b.n	100044d8 <strlen+0x18>
10004514:	fefefeff 	.word	0xfefefeff
10004518:	80808080 	.word	0x80808080

1000451c <_malloc_trim_r>:
1000451c:	b5f8      	push	{r3, r4, r5, r6, r7, lr}
1000451e:	000c      	movs	r4, r1
10004520:	0005      	movs	r5, r0
10004522:	f7ff ffab 	bl	1000447c <__malloc_lock>
10004526:	4f20      	ldr	r7, [pc, #128]	; (100045a8 <_malloc_trim_r+0x8c>)
10004528:	68bb      	ldr	r3, [r7, #8]
1000452a:	685e      	ldr	r6, [r3, #4]
1000452c:	2303      	movs	r3, #3
1000452e:	439e      	bics	r6, r3
10004530:	4b1e      	ldr	r3, [pc, #120]	; (100045ac <_malloc_trim_r+0x90>)
10004532:	1b34      	subs	r4, r6, r4
10004534:	469c      	mov	ip, r3
10004536:	4464      	add	r4, ip
10004538:	0b24      	lsrs	r4, r4, #12
1000453a:	3c01      	subs	r4, #1
1000453c:	3311      	adds	r3, #17
1000453e:	0324      	lsls	r4, r4, #12
10004540:	429c      	cmp	r4, r3
10004542:	db07      	blt.n	10004554 <_malloc_trim_r+0x38>
10004544:	2100      	movs	r1, #0
10004546:	0028      	movs	r0, r5
10004548:	f7ff ffa8 	bl	1000449c <_sbrk_r>
1000454c:	68bb      	ldr	r3, [r7, #8]
1000454e:	199b      	adds	r3, r3, r6
10004550:	4298      	cmp	r0, r3
10004552:	d004      	beq.n	1000455e <_malloc_trim_r+0x42>
10004554:	0028      	movs	r0, r5
10004556:	f7ff ff99 	bl	1000448c <__malloc_unlock>
1000455a:	2000      	movs	r0, #0
1000455c:	bdf8      	pop	{r3, r4, r5, r6, r7, pc}
1000455e:	0028      	movs	r0, r5
10004560:	4261      	negs	r1, r4
10004562:	f7ff ff9b 	bl	1000449c <_sbrk_r>
10004566:	1c43      	adds	r3, r0, #1
10004568:	d00d      	beq.n	10004586 <_malloc_trim_r+0x6a>
1000456a:	2201      	movs	r2, #1
1000456c:	68bb      	ldr	r3, [r7, #8]
1000456e:	1b36      	subs	r6, r6, r4
10004570:	4316      	orrs	r6, r2
10004572:	605e      	str	r6, [r3, #4]
10004574:	4b0e      	ldr	r3, [pc, #56]	; (100045b0 <_malloc_trim_r+0x94>)
10004576:	0028      	movs	r0, r5
10004578:	681a      	ldr	r2, [r3, #0]
1000457a:	1b14      	subs	r4, r2, r4
1000457c:	601c      	str	r4, [r3, #0]
1000457e:	f7ff ff85 	bl	1000448c <__malloc_unlock>
10004582:	2001      	movs	r0, #1
10004584:	e7ea      	b.n	1000455c <_malloc_trim_r+0x40>
10004586:	2100      	movs	r1, #0
10004588:	0028      	movs	r0, r5
1000458a:	f7ff ff87 	bl	1000449c <_sbrk_r>
1000458e:	68ba      	ldr	r2, [r7, #8]
10004590:	1a83      	subs	r3, r0, r2
10004592:	2b0f      	cmp	r3, #15
10004594:	ddde      	ble.n	10004554 <_malloc_trim_r+0x38>
10004596:	4907      	ldr	r1, [pc, #28]	; (100045b4 <_malloc_trim_r+0x98>)
10004598:	6809      	ldr	r1, [r1, #0]
1000459a:	1a40      	subs	r0, r0, r1
1000459c:	4904      	ldr	r1, [pc, #16]	; (100045b0 <_malloc_trim_r+0x94>)
1000459e:	6008      	str	r0, [r1, #0]
100045a0:	2101      	movs	r1, #1
100045a2:	430b      	orrs	r3, r1
100045a4:	6053      	str	r3, [r2, #4]
100045a6:	e7d5      	b.n	10004554 <_malloc_trim_r+0x38>
100045a8:	20000738 	.word	0x20000738
100045ac:	00000fef 	.word	0x00000fef
100045b0:	20000b80 	.word	0x20000b80
100045b4:	20000b40 	.word	0x20000b40

100045b8 <_free_r>:
100045b8:	b5f0      	push	{r4, r5, r6, r7, lr}
100045ba:	46c6      	mov	lr, r8
100045bc:	0005      	movs	r5, r0
100045be:	000c      	movs	r4, r1
100045c0:	b500      	push	{lr}
100045c2:	2900      	cmp	r1, #0
100045c4:	d04f      	beq.n	10004666 <_free_r+0xae>
100045c6:	f7ff ff59 	bl	1000447c <__malloc_lock>
100045ca:	0021      	movs	r1, r4
100045cc:	3908      	subs	r1, #8
100045ce:	684c      	ldr	r4, [r1, #4]
100045d0:	2601      	movs	r6, #1
100045d2:	0022      	movs	r2, r4
100045d4:	2003      	movs	r0, #3
100045d6:	43b2      	bics	r2, r6
100045d8:	188f      	adds	r7, r1, r2
100045da:	687b      	ldr	r3, [r7, #4]
100045dc:	4383      	bics	r3, r0
100045de:	4862      	ldr	r0, [pc, #392]	; (10004768 <_free_r+0x1b0>)
100045e0:	4698      	mov	r8, r3
100045e2:	6883      	ldr	r3, [r0, #8]
100045e4:	42bb      	cmp	r3, r7
100045e6:	d06b      	beq.n	100046c0 <_free_r+0x108>
100045e8:	4643      	mov	r3, r8
100045ea:	607b      	str	r3, [r7, #4]
100045ec:	4226      	tst	r6, r4
100045ee:	d11e      	bne.n	1000462e <_free_r+0x76>
100045f0:	2308      	movs	r3, #8
100045f2:	469c      	mov	ip, r3
100045f4:	680c      	ldr	r4, [r1, #0]
100045f6:	4484      	add	ip, r0
100045f8:	1b09      	subs	r1, r1, r4
100045fa:	1912      	adds	r2, r2, r4
100045fc:	688c      	ldr	r4, [r1, #8]
100045fe:	4564      	cmp	r4, ip
10004600:	d04f      	beq.n	100046a2 <_free_r+0xea>
10004602:	68cb      	ldr	r3, [r1, #12]
10004604:	60e3      	str	r3, [r4, #12]
10004606:	609c      	str	r4, [r3, #8]
10004608:	4643      	mov	r3, r8
1000460a:	18fc      	adds	r4, r7, r3
1000460c:	6864      	ldr	r4, [r4, #4]
1000460e:	4234      	tst	r4, r6
10004610:	d111      	bne.n	10004636 <_free_r+0x7e>
10004612:	68bb      	ldr	r3, [r7, #8]
10004614:	4c55      	ldr	r4, [pc, #340]	; (1000476c <_free_r+0x1b4>)
10004616:	4442      	add	r2, r8
10004618:	42a3      	cmp	r3, r4
1000461a:	d100      	bne.n	1000461e <_free_r+0x66>
1000461c:	e07f      	b.n	1000471e <_free_r+0x166>
1000461e:	68fc      	ldr	r4, [r7, #12]
10004620:	60dc      	str	r4, [r3, #12]
10004622:	60a3      	str	r3, [r4, #8]
10004624:	2301      	movs	r3, #1
10004626:	4313      	orrs	r3, r2
10004628:	604b      	str	r3, [r1, #4]
1000462a:	508a      	str	r2, [r1, r2]
1000462c:	e006      	b.n	1000463c <_free_r+0x84>
1000462e:	18fc      	adds	r4, r7, r3
10004630:	6864      	ldr	r4, [r4, #4]
10004632:	4234      	tst	r4, r6
10004634:	d0ed      	beq.n	10004612 <_free_r+0x5a>
10004636:	4316      	orrs	r6, r2
10004638:	604e      	str	r6, [r1, #4]
1000463a:	603a      	str	r2, [r7, #0]
1000463c:	2380      	movs	r3, #128	; 0x80
1000463e:	009b      	lsls	r3, r3, #2
10004640:	429a      	cmp	r2, r3
10004642:	d213      	bcs.n	1000466c <_free_r+0xb4>
10004644:	0954      	lsrs	r4, r2, #5
10004646:	08d3      	lsrs	r3, r2, #3
10004648:	2201      	movs	r2, #1
1000464a:	40a2      	lsls	r2, r4
1000464c:	6844      	ldr	r4, [r0, #4]
1000464e:	00db      	lsls	r3, r3, #3
10004650:	4322      	orrs	r2, r4
10004652:	6042      	str	r2, [r0, #4]
10004654:	1818      	adds	r0, r3, r0
10004656:	6883      	ldr	r3, [r0, #8]
10004658:	60c8      	str	r0, [r1, #12]
1000465a:	608b      	str	r3, [r1, #8]
1000465c:	6081      	str	r1, [r0, #8]
1000465e:	60d9      	str	r1, [r3, #12]
10004660:	0028      	movs	r0, r5
10004662:	f7ff ff13 	bl	1000448c <__malloc_unlock>
10004666:	bc04      	pop	{r2}
10004668:	4690      	mov	r8, r2
1000466a:	bdf0      	pop	{r4, r5, r6, r7, pc}
1000466c:	0a53      	lsrs	r3, r2, #9
1000466e:	2b04      	cmp	r3, #4
10004670:	d83f      	bhi.n	100046f2 <_free_r+0x13a>
10004672:	0994      	lsrs	r4, r2, #6
10004674:	0026      	movs	r6, r4
10004676:	3439      	adds	r4, #57	; 0x39
10004678:	3638      	adds	r6, #56	; 0x38
1000467a:	00e4      	lsls	r4, r4, #3
1000467c:	1904      	adds	r4, r0, r4
1000467e:	6823      	ldr	r3, [r4, #0]
10004680:	3c08      	subs	r4, #8
10004682:	2703      	movs	r7, #3
10004684:	429c      	cmp	r4, r3
10004686:	d043      	beq.n	10004710 <_free_r+0x158>
10004688:	6858      	ldr	r0, [r3, #4]
1000468a:	43b8      	bics	r0, r7
1000468c:	4290      	cmp	r0, r2
1000468e:	d902      	bls.n	10004696 <_free_r+0xde>
10004690:	689b      	ldr	r3, [r3, #8]
10004692:	429c      	cmp	r4, r3
10004694:	d1f8      	bne.n	10004688 <_free_r+0xd0>
10004696:	68dc      	ldr	r4, [r3, #12]
10004698:	60cc      	str	r4, [r1, #12]
1000469a:	608b      	str	r3, [r1, #8]
1000469c:	60a1      	str	r1, [r4, #8]
1000469e:	60d9      	str	r1, [r3, #12]
100046a0:	e7de      	b.n	10004660 <_free_r+0xa8>
100046a2:	4643      	mov	r3, r8
100046a4:	18f8      	adds	r0, r7, r3
100046a6:	6840      	ldr	r0, [r0, #4]
100046a8:	4230      	tst	r0, r6
100046aa:	d158      	bne.n	1000475e <_free_r+0x1a6>
100046ac:	0013      	movs	r3, r2
100046ae:	68b8      	ldr	r0, [r7, #8]
100046b0:	68fa      	ldr	r2, [r7, #12]
100046b2:	4443      	add	r3, r8
100046b4:	431e      	orrs	r6, r3
100046b6:	60c2      	str	r2, [r0, #12]
100046b8:	6090      	str	r0, [r2, #8]
100046ba:	604e      	str	r6, [r1, #4]
100046bc:	50cb      	str	r3, [r1, r3]
100046be:	e7cf      	b.n	10004660 <_free_r+0xa8>
100046c0:	0013      	movs	r3, r2
100046c2:	4443      	add	r3, r8
100046c4:	4226      	tst	r6, r4
100046c6:	d106      	bne.n	100046d6 <_free_r+0x11e>
100046c8:	680a      	ldr	r2, [r1, #0]
100046ca:	1a89      	subs	r1, r1, r2
100046cc:	688c      	ldr	r4, [r1, #8]
100046ce:	189b      	adds	r3, r3, r2
100046d0:	68ca      	ldr	r2, [r1, #12]
100046d2:	60e2      	str	r2, [r4, #12]
100046d4:	6094      	str	r4, [r2, #8]
100046d6:	2201      	movs	r2, #1
100046d8:	431a      	orrs	r2, r3
100046da:	604a      	str	r2, [r1, #4]
100046dc:	4a24      	ldr	r2, [pc, #144]	; (10004770 <_free_r+0x1b8>)
100046de:	6081      	str	r1, [r0, #8]
100046e0:	6812      	ldr	r2, [r2, #0]
100046e2:	429a      	cmp	r2, r3
100046e4:	d8bc      	bhi.n	10004660 <_free_r+0xa8>
100046e6:	4b23      	ldr	r3, [pc, #140]	; (10004774 <_free_r+0x1bc>)
100046e8:	0028      	movs	r0, r5
100046ea:	6819      	ldr	r1, [r3, #0]
100046ec:	f7ff ff16 	bl	1000451c <_malloc_trim_r>
100046f0:	e7b6      	b.n	10004660 <_free_r+0xa8>
100046f2:	2b14      	cmp	r3, #20
100046f4:	d907      	bls.n	10004706 <_free_r+0x14e>
100046f6:	2b54      	cmp	r3, #84	; 0x54
100046f8:	d81a      	bhi.n	10004730 <_free_r+0x178>
100046fa:	0b14      	lsrs	r4, r2, #12
100046fc:	0026      	movs	r6, r4
100046fe:	346f      	adds	r4, #111	; 0x6f
10004700:	366e      	adds	r6, #110	; 0x6e
10004702:	00e4      	lsls	r4, r4, #3
10004704:	e7ba      	b.n	1000467c <_free_r+0xc4>
10004706:	001e      	movs	r6, r3
10004708:	335c      	adds	r3, #92	; 0x5c
1000470a:	365b      	adds	r6, #91	; 0x5b
1000470c:	00dc      	lsls	r4, r3, #3
1000470e:	e7b5      	b.n	1000467c <_free_r+0xc4>
10004710:	2201      	movs	r2, #1
10004712:	10b6      	asrs	r6, r6, #2
10004714:	40b2      	lsls	r2, r6
10004716:	6846      	ldr	r6, [r0, #4]
10004718:	4332      	orrs	r2, r6
1000471a:	6042      	str	r2, [r0, #4]
1000471c:	e7bc      	b.n	10004698 <_free_r+0xe0>
1000471e:	60d9      	str	r1, [r3, #12]
10004720:	6099      	str	r1, [r3, #8]
10004722:	60cb      	str	r3, [r1, #12]
10004724:	608b      	str	r3, [r1, #8]
10004726:	2301      	movs	r3, #1
10004728:	4313      	orrs	r3, r2
1000472a:	604b      	str	r3, [r1, #4]
1000472c:	508a      	str	r2, [r1, r2]
1000472e:	e797      	b.n	10004660 <_free_r+0xa8>
10004730:	24aa      	movs	r4, #170	; 0xaa
10004732:	0064      	lsls	r4, r4, #1
10004734:	42a3      	cmp	r3, r4
10004736:	d805      	bhi.n	10004744 <_free_r+0x18c>
10004738:	0bd4      	lsrs	r4, r2, #15
1000473a:	0026      	movs	r6, r4
1000473c:	3478      	adds	r4, #120	; 0x78
1000473e:	3677      	adds	r6, #119	; 0x77
10004740:	00e4      	lsls	r4, r4, #3
10004742:	e79b      	b.n	1000467c <_free_r+0xc4>
10004744:	4c0c      	ldr	r4, [pc, #48]	; (10004778 <_free_r+0x1c0>)
10004746:	42a3      	cmp	r3, r4
10004748:	d805      	bhi.n	10004756 <_free_r+0x19e>
1000474a:	0c94      	lsrs	r4, r2, #18
1000474c:	0026      	movs	r6, r4
1000474e:	347d      	adds	r4, #125	; 0x7d
10004750:	367c      	adds	r6, #124	; 0x7c
10004752:	00e4      	lsls	r4, r4, #3
10004754:	e792      	b.n	1000467c <_free_r+0xc4>
10004756:	24fe      	movs	r4, #254	; 0xfe
10004758:	267e      	movs	r6, #126	; 0x7e
1000475a:	00a4      	lsls	r4, r4, #2
1000475c:	e78e      	b.n	1000467c <_free_r+0xc4>
1000475e:	0033      	movs	r3, r6
10004760:	4313      	orrs	r3, r2
10004762:	604b      	str	r3, [r1, #4]
10004764:	603a      	str	r2, [r7, #0]
10004766:	e77b      	b.n	10004660 <_free_r+0xa8>
10004768:	20000738 	.word	0x20000738
1000476c:	20000740 	.word	0x20000740
10004770:	20000b44 	.word	0x20000b44
10004774:	20000bb0 	.word	0x20000bb0
10004778:	00000554 	.word	0x00000554

1000477c <__retarget_lock_acquire_recursive>:
1000477c:	4770      	bx	lr
1000477e:	46c0      	nop			; (mov r8, r8)

10004780 <__retarget_lock_release_recursive>:
10004780:	4770      	bx	lr
10004782:	46c0      	nop			; (mov r8, r8)

10004784 <_fini>:
10004784:	b5f8      	push	{r3, r4, r5, r6, r7, lr}
10004786:	46c0      	nop			; (mov r8, r8)

10004788 <__mutex_exit_veneer>:
10004788:	b401      	push	{r0}
1000478a:	4802      	ldr	r0, [pc, #8]	; (10004794 <__mutex_exit_veneer+0xc>)
1000478c:	4684      	mov	ip, r0
1000478e:	bc01      	pop	{r0}
10004790:	4760      	bx	ip
10004792:	bf00      	nop
10004794:	200001f5 	.word	0x200001f5

10004798 <____aeabi_ldiv0_veneer>:
10004798:	b401      	push	{r0}
1000479a:	4802      	ldr	r0, [pc, #8]	; (100047a4 <____aeabi_ldiv0_veneer+0xc>)
1000479c:	4684      	mov	ip, r0
1000479e:	bc01      	pop	{r0}
100047a0:	4760      	bx	ip
100047a2:	bf00      	nop
100047a4:	2000021d 	.word	0x2000021d

100047a8 <____aeabi_idiv0_veneer>:
100047a8:	b401      	push	{r0}
100047aa:	4802      	ldr	r0, [pc, #8]	; (100047b4 <____aeabi_idiv0_veneer+0xc>)
100047ac:	4684      	mov	ip, r0
100047ae:	bc01      	pop	{r0}
100047b0:	4760      	bx	ip
100047b2:	bf00      	nop
100047b4:	2000021d 	.word	0x2000021d

100047b8 <__mutex_try_enter_veneer>:
100047b8:	b401      	push	{r0}
100047ba:	4802      	ldr	r0, [pc, #8]	; (100047c4 <__mutex_try_enter_veneer+0xc>)
100047bc:	4684      	mov	ip, r0
100047be:	bc01      	pop	{r0}
100047c0:	4760      	bx	ip
100047c2:	bf00      	nop
100047c4:	20000111 	.word	0x20000111

100047c8 <__mutex_enter_timeout_ms_veneer>:
100047c8:	b401      	push	{r0}
100047ca:	4802      	ldr	r0, [pc, #8]	; (100047d4 <__mutex_enter_timeout_ms_veneer+0xc>)
100047cc:	4684      	mov	ip, r0
100047ce:	bc01      	pop	{r0}
100047d0:	4760      	bx	ip
100047d2:	bf00      	nop
100047d4:	2000015d 	.word	0x2000015d

100047d8 <__mutex_enter_blocking_veneer>:
100047d8:	b401      	push	{r0}
100047da:	4802      	ldr	r0, [pc, #8]	; (100047e4 <__mutex_enter_blocking_veneer+0xc>)
100047dc:	4684      	mov	ip, r0
100047de:	bc01      	pop	{r0}
100047e0:	4760      	bx	ip
100047e2:	bf00      	nop
100047e4:	200000c1 	.word	0x200000c1

Disassembly of section .data:

200000c0 <mutex_enter_blocking>:
200000c0:	b510      	push	{r4, lr}
200000c2:	6802      	ldr	r2, [r0, #0]
200000c4:	2400      	movs	r4, #0
200000c6:	f3ef 8110 	mrs	r1, PRIMASK
200000ca:	b672      	cpsid	i
200000cc:	6813      	ldr	r3, [r2, #0]
200000ce:	2b00      	cmp	r3, #0
200000d0:	d0fc      	beq.n	200000cc <mutex_enter_blocking+0xc>
200000d2:	f3bf 8f5f 	dmb	sy
200000d6:	7903      	ldrb	r3, [r0, #4]
200000d8:	2b00      	cmp	r3, #0
200000da:	d00b      	beq.n	200000f4 <mutex_enter_blocking+0x34>
200000dc:	6803      	ldr	r3, [r0, #0]
200000de:	f3bf 8f5f 	dmb	sy
200000e2:	601c      	str	r4, [r3, #0]
200000e4:	f381 8810 	msr	PRIMASK, r1
200000e8:	bf20      	wfe
200000ea:	6802      	ldr	r2, [r0, #0]
200000ec:	f3ef 8110 	mrs	r1, PRIMASK
200000f0:	b672      	cpsid	i
200000f2:	e7eb      	b.n	200000cc <mutex_enter_blocking+0xc>
200000f4:	2201      	movs	r2, #1
200000f6:	7102      	strb	r2, [r0, #4]
200000f8:	22d0      	movs	r2, #208	; 0xd0
200000fa:	0612      	lsls	r2, r2, #24
200000fc:	6812      	ldr	r2, [r2, #0]
200000fe:	7142      	strb	r2, [r0, #5]
20000100:	6802      	ldr	r2, [r0, #0]
20000102:	f3bf 8f5f 	dmb	sy
20000106:	6013      	str	r3, [r2, #0]
20000108:	f381 8810 	msr	PRIMASK, r1
2000010c:	bd10      	pop	{r4, pc}
2000010e:	46c0      	nop			; (mov r8, r8)

20000110 <mutex_try_enter>:
20000110:	0003      	movs	r3, r0
20000112:	b510      	push	{r4, lr}
20000114:	6800      	ldr	r0, [r0, #0]
20000116:	f3ef 8410 	mrs	r4, PRIMASK
2000011a:	b672      	cpsid	i
2000011c:	6802      	ldr	r2, [r0, #0]
2000011e:	2a00      	cmp	r2, #0
20000120:	d0fc      	beq.n	2000011c <mutex_try_enter+0xc>
20000122:	f3bf 8f5f 	dmb	sy
20000126:	791a      	ldrb	r2, [r3, #4]
20000128:	2a00      	cmp	r2, #0
2000012a:	d00d      	beq.n	20000148 <mutex_try_enter+0x38>
2000012c:	2900      	cmp	r1, #0
2000012e:	d013      	beq.n	20000158 <mutex_try_enter+0x48>
20000130:	2205      	movs	r2, #5
20000132:	2000      	movs	r0, #0
20000134:	569a      	ldrsb	r2, [r3, r2]
20000136:	600a      	str	r2, [r1, #0]
20000138:	681b      	ldr	r3, [r3, #0]
2000013a:	f3bf 8f5f 	dmb	sy
2000013e:	2200      	movs	r2, #0
20000140:	601a      	str	r2, [r3, #0]
20000142:	f384 8810 	msr	PRIMASK, r4
20000146:	bd10      	pop	{r4, pc}
20000148:	3201      	adds	r2, #1
2000014a:	711a      	strb	r2, [r3, #4]
2000014c:	22d0      	movs	r2, #208	; 0xd0
2000014e:	0612      	lsls	r2, r2, #24
20000150:	6812      	ldr	r2, [r2, #0]
20000152:	2001      	movs	r0, #1
20000154:	715a      	strb	r2, [r3, #5]
20000156:	e7ef      	b.n	20000138 <mutex_try_enter+0x28>
20000158:	2000      	movs	r0, #0
2000015a:	e7ed      	b.n	20000138 <mutex_try_enter+0x28>

2000015c <mutex_enter_timeout_ms>:
2000015c:	b5f0      	push	{r4, r5, r6, r7, lr}
2000015e:	46c6      	mov	lr, r8
20000160:	b500      	push	{lr}
20000162:	000c      	movs	r4, r1
20000164:	4680      	mov	r8, r0
20000166:	f000 f85b 	bl	20000220 <__time_us_64_veneer>
2000016a:	22fa      	movs	r2, #250	; 0xfa
2000016c:	0006      	movs	r6, r0
2000016e:	000f      	movs	r7, r1
20000170:	0020      	movs	r0, r4
20000172:	2300      	movs	r3, #0
20000174:	2100      	movs	r1, #0
20000176:	0092      	lsls	r2, r2, #2
20000178:	f000 f85a 	bl	20000230 <____wrap___aeabi_lmul_veneer>
2000017c:	1980      	adds	r0, r0, r6
2000017e:	4179      	adcs	r1, r7
20000180:	0004      	movs	r4, r0
20000182:	000d      	movs	r5, r1
20000184:	428f      	cmp	r7, r1
20000186:	d831      	bhi.n	200001ec <mutex_enter_timeout_ms+0x90>
20000188:	d02e      	beq.n	200001e8 <mutex_enter_timeout_ms+0x8c>
2000018a:	2600      	movs	r6, #0
2000018c:	4643      	mov	r3, r8
2000018e:	681b      	ldr	r3, [r3, #0]
20000190:	f3ef 8210 	mrs	r2, PRIMASK
20000194:	b672      	cpsid	i
20000196:	6819      	ldr	r1, [r3, #0]
20000198:	2900      	cmp	r1, #0
2000019a:	d0fc      	beq.n	20000196 <mutex_enter_timeout_ms+0x3a>
2000019c:	f3bf 8f5f 	dmb	sy
200001a0:	4643      	mov	r3, r8
200001a2:	791b      	ldrb	r3, [r3, #4]
200001a4:	2b00      	cmp	r3, #0
200001a6:	d00e      	beq.n	200001c6 <mutex_enter_timeout_ms+0x6a>
200001a8:	4643      	mov	r3, r8
200001aa:	681b      	ldr	r3, [r3, #0]
200001ac:	f3bf 8f5f 	dmb	sy
200001b0:	601e      	str	r6, [r3, #0]
200001b2:	f382 8810 	msr	PRIMASK, r2
200001b6:	0020      	movs	r0, r4
200001b8:	0029      	movs	r1, r5
200001ba:	f000 f841 	bl	20000240 <__best_effort_wfe_or_timeout_veneer>
200001be:	2800      	cmp	r0, #0
200001c0:	d0e4      	beq.n	2000018c <mutex_enter_timeout_ms+0x30>
200001c2:	2000      	movs	r0, #0
200001c4:	e00d      	b.n	200001e2 <mutex_enter_timeout_ms+0x86>
200001c6:	4640      	mov	r0, r8
200001c8:	2101      	movs	r1, #1
200001ca:	7101      	strb	r1, [r0, #4]
200001cc:	21d0      	movs	r1, #208	; 0xd0
200001ce:	0609      	lsls	r1, r1, #24
200001d0:	6809      	ldr	r1, [r1, #0]
200001d2:	7141      	strb	r1, [r0, #5]
200001d4:	6801      	ldr	r1, [r0, #0]
200001d6:	f3bf 8f5f 	dmb	sy
200001da:	600b      	str	r3, [r1, #0]
200001dc:	f382 8810 	msr	PRIMASK, r2
200001e0:	2001      	movs	r0, #1
200001e2:	bc04      	pop	{r2}
200001e4:	4690      	mov	r8, r2
200001e6:	bdf0      	pop	{r4, r5, r6, r7, pc}
200001e8:	4286      	cmp	r6, r0
200001ea:	d9ce      	bls.n	2000018a <mutex_enter_timeout_ms+0x2e>
200001ec:	2401      	movs	r4, #1
200001ee:	4264      	negs	r4, r4
200001f0:	17e5      	asrs	r5, r4, #31
200001f2:	e7ca      	b.n	2000018a <mutex_enter_timeout_ms+0x2e>

200001f4 <mutex_exit>:
200001f4:	6802      	ldr	r2, [r0, #0]
200001f6:	f3ef 8110 	mrs	r1, PRIMASK
200001fa:	b672      	cpsid	i
200001fc:	6813      	ldr	r3, [r2, #0]
200001fe:	2b00      	cmp	r3, #0
20000200:	d0fc      	beq.n	200001fc <mutex_exit+0x8>
20000202:	f3bf 8f5f 	dmb	sy
20000206:	2300      	movs	r3, #0
20000208:	7103      	strb	r3, [r0, #4]
2000020a:	bf40      	sev
2000020c:	6802      	ldr	r2, [r0, #0]
2000020e:	f3bf 8f5f 	dmb	sy
20000212:	6013      	str	r3, [r2, #0]
20000214:	f381 8810 	msr	PRIMASK, r1
20000218:	4770      	bx	lr
2000021a:	46c0      	nop			; (mov r8, r8)

2000021c <__aeabi_idiv0>:
2000021c:	4770      	bx	lr
2000021e:	46c0      	nop			; (mov r8, r8)

20000220 <__time_us_64_veneer>:
20000220:	b401      	push	{r0}
20000222:	4802      	ldr	r0, [pc, #8]	; (2000022c <__time_us_64_veneer+0xc>)
20000224:	4684      	mov	ip, r0
20000226:	bc01      	pop	{r0}
20000228:	4760      	bx	ip
2000022a:	bf00      	nop
2000022c:	10000d91 	.word	0x10000d91

20000230 <____wrap___aeabi_lmul_veneer>:
20000230:	b401      	push	{r0}
20000232:	4802      	ldr	r0, [pc, #8]	; (2000023c <____wrap___aeabi_lmul_veneer+0xc>)
20000234:	4684      	mov	ip, r0
20000236:	bc01      	pop	{r0}
20000238:	4760      	bx	ip
2000023a:	bf00      	nop
2000023c:	100021a1 	.word	0x100021a1

20000240 <__best_effort_wfe_or_timeout_veneer>:
20000240:	b401      	push	{r0}
20000242:	4802      	ldr	r0, [pc, #8]	; (2000024c <__best_effort_wfe_or_timeout_veneer+0xc>)
20000244:	4684      	mov	ip, r0
20000246:	bc01      	pop	{r0}
20000248:	4760      	bx	ip
2000024a:	bf00      	nop
2000024c:	10000c7d 	.word	0x10000c7d

20000250 <blink_interval_ms>:
20000250:	000000fa                                ....

20000254 <string_desc_arr>:
20000254:	10004808 100047e8 100047f0 10004800     .H...G...G...H..

20000264 <striped_spin_lock_num>:
20000264:	00000010                                ....

20000268 <irq_handler_chain_slots>:
20000268:	00000000 	.word	0x00000000
2000026c:	00010000 	.word	0x00010000
	...
20000278:	00020000 	.word	0x00020000
	...
20000284:	00030000 	.word	0x00030000
	...
20000290:	00ff0000 	.word	0x00ff0000
20000294:	00000000 	.word	0x00000000

20000298 <irq_handler_chain_first_slot>:
20000298:	b500      	push	{lr}
2000029a:	6848      	ldr	r0, [r1, #4]
2000029c:	3101      	adds	r1, #1
2000029e:	468e      	mov	lr, r1
200002a0:	4700      	bx	r0

200002a2 <irq_handler_chain_remove_tail>:
200002a2:	4670      	mov	r0, lr
200002a4:	3809      	subs	r0, #9
200002a6:	4901      	ldr	r1, [pc, #4]	; (200002ac <irq_handler_chain_remove_tail+0xa>)
200002a8:	4788      	blx	r1
200002aa:	bd00      	pop	{pc}
200002ac:	10001aa5 	.word	0x10001aa5

200002b0 <aeabi_bits_funcs>:
200002b0:	00003350 	.word	0x00003350
200002b4:	0000334c 	.word	0x0000334c
200002b8:	00003354 	.word	0x00003354
200002bc:	00003352 	.word	0x00003352

200002c0 <aeabi_bits_funcs_end>:
200002c0:	0000534d 	.word	0x0000534d
200002c4:	0000434d 	.word	0x0000434d
200002c8:	00003453 	.word	0x00003453
200002cc:	00003443 	.word	0x00003443

200002d0 <stdio_uart>:
200002d0:	100024b5 00000000 100024f1 00000000     .$.......$......
200002e0:	00000100                                ....

200002e4 <ep_dir_string>:
200002e4:	100049b0 10004990                       .I...I..

200002ec <_usbd_qdef>:
200002ec:	20001628 000c0010 00000000 00000000     (.. ............
	...

2000030c <_impure_ptr>:
2000030c:	20000310                                ... 

20000310 <impure_data>:
20000310:	00000000 200005fc 20000664 200006cc     ....... d.. ... 
	...
200003b8:	00000001 00000000 abcd330e e66d1234     .........3..4.m.
200003c8:	0005deec 0000000b 00000000 00000000     ................
	...

20000738 <__malloc_av_>:
	...
20000740:	20000738 20000738 20000740 20000740     8.. 8.. @.. @.. 
20000750:	20000748 20000748 20000750 20000750     H.. H.. P.. P.. 
20000760:	20000758 20000758 20000760 20000760     X.. X.. `.. `.. 
20000770:	20000768 20000768 20000770 20000770     h.. h.. p.. p.. 
20000780:	20000778 20000778 20000780 20000780     x.. x.. ... ... 
20000790:	20000788 20000788 20000790 20000790     ... ... ... ... 
200007a0:	20000798 20000798 200007a0 200007a0     ... ... ... ... 
200007b0:	200007a8 200007a8 200007b0 200007b0     ... ... ... ... 
200007c0:	200007b8 200007b8 200007c0 200007c0     ... ... ... ... 
200007d0:	200007c8 200007c8 200007d0 200007d0     ... ... ... ... 
200007e0:	200007d8 200007d8 200007e0 200007e0     ... ... ... ... 
200007f0:	200007e8 200007e8 200007f0 200007f0     ... ... ... ... 
20000800:	200007f8 200007f8 20000800 20000800     ... ... ... ... 
20000810:	20000808 20000808 20000810 20000810     ... ... ... ... 
20000820:	20000818 20000818 20000820 20000820     ... ...  ..  .. 
20000830:	20000828 20000828 20000830 20000830     (.. (.. 0.. 0.. 
20000840:	20000838 20000838 20000840 20000840     8.. 8.. @.. @.. 
20000850:	20000848 20000848 20000850 20000850     H.. H.. P.. P.. 
20000860:	20000858 20000858 20000860 20000860     X.. X.. `.. `.. 
20000870:	20000868 20000868 20000870 20000870     h.. h.. p.. p.. 
20000880:	20000878 20000878 20000880 20000880     x.. x.. ... ... 
20000890:	20000888 20000888 20000890 20000890     ... ... ... ... 
200008a0:	20000898 20000898 200008a0 200008a0     ... ... ... ... 
200008b0:	200008a8 200008a8 200008b0 200008b0     ... ... ... ... 
200008c0:	200008b8 200008b8 200008c0 200008c0     ... ... ... ... 
200008d0:	200008c8 200008c8 200008d0 200008d0     ... ... ... ... 
200008e0:	200008d8 200008d8 200008e0 200008e0     ... ... ... ... 
200008f0:	200008e8 200008e8 200008f0 200008f0     ... ... ... ... 
20000900:	200008f8 200008f8 20000900 20000900     ... ... ... ... 
20000910:	20000908 20000908 20000910 20000910     ... ... ... ... 
20000920:	20000918 20000918 20000920 20000920     ... ...  ..  .. 
20000930:	20000928 20000928 20000930 20000930     (.. (.. 0.. 0.. 
20000940:	20000938 20000938 20000940 20000940     8.. 8.. @.. @.. 
20000950:	20000948 20000948 20000950 20000950     H.. H.. P.. P.. 
20000960:	20000958 20000958 20000960 20000960     X.. X.. `.. `.. 
20000970:	20000968 20000968 20000970 20000970     h.. h.. p.. p.. 
20000980:	20000978 20000978 20000980 20000980     x.. x.. ... ... 
20000990:	20000988 20000988 20000990 20000990     ... ... ... ... 
200009a0:	20000998 20000998 200009a0 200009a0     ... ... ... ... 
200009b0:	200009a8 200009a8 200009b0 200009b0     ... ... ... ... 
200009c0:	200009b8 200009b8 200009c0 200009c0     ... ... ... ... 
200009d0:	200009c8 200009c8 200009d0 200009d0     ... ... ... ... 
200009e0:	200009d8 200009d8 200009e0 200009e0     ... ... ... ... 
200009f0:	200009e8 200009e8 200009f0 200009f0     ... ... ... ... 
20000a00:	200009f8 200009f8 20000a00 20000a00     ... ... ... ... 
20000a10:	20000a08 20000a08 20000a10 20000a10     ... ... ... ... 
20000a20:	20000a18 20000a18 20000a20 20000a20     ... ...  ..  .. 
20000a30:	20000a28 20000a28 20000a30 20000a30     (.. (.. 0.. 0.. 
20000a40:	20000a38 20000a38 20000a40 20000a40     8.. 8.. @.. @.. 
20000a50:	20000a48 20000a48 20000a50 20000a50     H.. H.. P.. P.. 
20000a60:	20000a58 20000a58 20000a60 20000a60     X.. X.. `.. `.. 
20000a70:	20000a68 20000a68 20000a70 20000a70     h.. h.. p.. p.. 
20000a80:	20000a78 20000a78 20000a80 20000a80     x.. x.. ... ... 
20000a90:	20000a88 20000a88 20000a90 20000a90     ... ... ... ... 
20000aa0:	20000a98 20000a98 20000aa0 20000aa0     ... ... ... ... 
20000ab0:	20000aa8 20000aa8 20000ab0 20000ab0     ... ... ... ... 
20000ac0:	20000ab8 20000ab8 20000ac0 20000ac0     ... ... ... ... 
20000ad0:	20000ac8 20000ac8 20000ad0 20000ad0     ... ... ... ... 
20000ae0:	20000ad8 20000ad8 20000ae0 20000ae0     ... ... ... ... 
20000af0:	20000ae8 20000ae8 20000af0 20000af0     ... ... ... ... 
20000b00:	20000af8 20000af8 20000b00 20000b00     ... ... ... ... 
20000b10:	20000b08 20000b08 20000b10 20000b10     ... ... ... ... 
20000b20:	20000b18 20000b18 20000b20 20000b20     ... ...  ..  .. 
20000b30:	20000b28 20000b28 20000b30 20000b30     (.. (.. 0.. 0.. 

20000b40 <__malloc_sbrk_base>:
20000b40:	ffffffff                                ....

20000b44 <__malloc_trim_threshold>:
20000b44:	00020000                                ....

20000b48 <print_mutex>:
	...

20000b50 <__mutex_array_end>:
20000b50:	10002275 	.word	0x10002275
20000b54:	10001bd9 	.word	0x10001bd9
20000b58:	100020c9 	.word	0x100020c9
20000b5c:	100021d5 	.word	0x100021d5

20000b60 <__frame_dummy_init_array_entry>:
20000b60:	10000301                                ....
