
dma_control_blocks.elf:     file format elf32-littlearm

Sections:
Idx Name          Size      VMA       LMA       File off  Algn
  0 .boot2        00000100  10000000  10000000  00010000  2**0
                  CONTENTS, ALLOC, LOAD, READONLY, DATA
  1 .text         00002678  10000100  10000100  00010100  2**3
                  CONTENTS, ALLOC, LOAD, READONLY, CODE
  2 .rodata       000001e4  10002778  10002778  00012778  2**2
                  CONTENTS, ALLOC, LOAD, READONLY, DATA
  3 .binary_info  00000024  1000295c  1000295c  0001295c  2**2
                  CONTENTS, ALLOC, LOAD, DATA
  4 .ram_vector_table 000000c0  20000000  20000000  00020a6c  2**2
                  CONTENTS
  5 .data         000009ac  200000c0  10002980  000200c0  2**4
                  CONTENTS, ALLOC, LOAD, CODE
  6 .uninitialized_data 00000000  20000a6c  20000a6c  00020b2c  2**0
                  CONTENTS
  7 .scratch_x    00000000  20040000  20040000  00020b2c  2**0
                  CONTENTS
  8 .scratch_y    00000000  20041000  20041000  00020b2c  2**0
                  CONTENTS
  9 .bss          000002f4  20000a6c  20000a6c  00020a6c  2**2
                  ALLOC
 10 .heap         00000800  20000d60  20000d60  00020b2c  2**2
                  CONTENTS, READONLY
 11 .stack_dummy  00000800  20041000  20041000  00021340  2**5
                  CONTENTS, READONLY
 12 .ARM.attributes 00000028  00000000  00000000  00021b40  2**0
                  CONTENTS, READONLY
 13 .comment      00000079  00000000  00000000  00021b68  2**0
                  CONTENTS, READONLY
 14 .debug_frame  000002ac  00000000  00000000  00021be4  2**2
                  CONTENTS, READONLY, DEBUGGING

dma_control_blocks.elf:     file format elf32-littlearm


Disassembly of section .text:

10000100 <__reset_start>:
10000100:	4827      	ldr	r0, [pc, #156]	; (100001a0 <__get_current_exception+0xa>)
10000102:	e000      	b.n	10000106 <__vector_entry>

10000104 <_entry_point>:
10000104:	2000      	movs	r0, #0

10000106 <__vector_entry>:
10000106:	4927      	ldr	r1, [pc, #156]	; (100001a4 <__get_current_exception+0xe>)
10000108:	6088      	str	r0, [r1, #8]
1000010a:	c806      	ldmia	r0!, {r1, r2}
1000010c:	f381 8808 	msr	MSP, r1
10000110:	4710      	bx	r2

10000112 <_reset_handler>:
10000112:	4825      	ldr	r0, [pc, #148]	; (100001a8 <__get_current_exception+0x12>)
10000114:	6800      	ldr	r0, [r0, #0]
10000116:	2800      	cmp	r0, #0
10000118:	d139      	bne.n	1000018e <wait_for_vector>
1000011a:	a412      	add	r4, pc, #72	; (adr r4, 10000164 <data_cpy_table>)
1000011c:	cc0e      	ldmia	r4!, {r1, r2, r3}
1000011e:	2900      	cmp	r1, #0
10000120:	d002      	beq.n	10000128 <_reset_handler+0x16>
10000122:	f000 f812 	bl	1000014a <data_cpy>
10000126:	e7f9      	b.n	1000011c <_reset_handler+0xa>
10000128:	4920      	ldr	r1, [pc, #128]	; (100001ac <__get_current_exception+0x16>)
1000012a:	4a21      	ldr	r2, [pc, #132]	; (100001b0 <__get_current_exception+0x1a>)
1000012c:	2000      	movs	r0, #0
1000012e:	e000      	b.n	10000132 <bss_fill_test>

10000130 <bss_fill_loop>:
10000130:	c101      	stmia	r1!, {r0}

10000132 <bss_fill_test>:
10000132:	4291      	cmp	r1, r2
10000134:	d1fc      	bne.n	10000130 <bss_fill_loop>

10000136 <platform_entry>:
10000136:	491f      	ldr	r1, [pc, #124]	; (100001b4 <__get_current_exception+0x1e>)
10000138:	4788      	blx	r1
1000013a:	491f      	ldr	r1, [pc, #124]	; (100001b8 <__get_current_exception+0x22>)
1000013c:	4788      	blx	r1
1000013e:	491f      	ldr	r1, [pc, #124]	; (100001bc <__get_current_exception+0x26>)
10000140:	4788      	blx	r1
10000142:	be00      	bkpt	0x0000
10000144:	e7fd      	b.n	10000142 <platform_entry+0xc>

10000146 <data_cpy_loop>:
10000146:	c901      	ldmia	r1!, {r0}
10000148:	c201      	stmia	r2!, {r0}

1000014a <data_cpy>:
1000014a:	429a      	cmp	r2, r3
1000014c:	d3fb      	bcc.n	10000146 <data_cpy_loop>
1000014e:	4770      	bx	lr

10000150 <binary_info_header>:
10000150:	7188ebf2 	.word	0x7188ebf2
10000154:	1000295c 	.word	0x1000295c
10000158:	10002980 	.word	0x10002980
1000015c:	10000164 	.word	0x10000164
10000160:	e71aa390 	.word	0xe71aa390

10000164 <data_cpy_table>:
10000164:	10002980 	.word	0x10002980
10000168:	200000c0 	.word	0x200000c0
1000016c:	20000a6c 	.word	0x20000a6c
10000170:	1000332c 	.word	0x1000332c
10000174:	20040000 	.word	0x20040000
10000178:	20040000 	.word	0x20040000
1000017c:	1000332c 	.word	0x1000332c
10000180:	20041000 	.word	0x20041000
10000184:	20041000 	.word	0x20041000
10000188:	00000000 	.word	0x00000000
1000018c:	4770      	bx	lr

1000018e <wait_for_vector>:
1000018e:	480c      	ldr	r0, [pc, #48]	; (100001c0 <__get_current_exception+0x2a>)
10000190:	f001 fba4 	bl	100018dc <rom_func_lookup>
10000194:	4700      	bx	r0

10000196 <__get_current_exception>:
10000196:	f3ef 8005 	mrs	r0, IPSR
1000019a:	b2c0      	uxtb	r0, r0
1000019c:	4770      	bx	lr
1000019e:	0000      	.short	0x0000
100001a0:	10000200 	.word	0x10000200
100001a4:	e000ed00 	.word	0xe000ed00
100001a8:	d0000000 	.word	0xd0000000
100001ac:	20000a6c 	.word	0x20000a6c
100001b0:	20000d60 	.word	0x20000d60
100001b4:	10001075 	.word	0x10001075
100001b8:	10000321 	.word	0x10000321
100001bc:	10001195 	.word	0x10001195
100001c0:	00005657 	.word	0x00005657

100001c4 <__bi_46>:
100001c4:	50520006 5360b3ab 100028a4              ..RP..`S.(..

100001d0 <__bi_34>:
100001d0:	50520006 02031c86 100028b4              ..RP.....(..

100001dc <__bi_26>:
100001dc:	50520006 9da22254 100028c8              ..RPT"...(..

100001e8 <__bi_18>:
100001e8:	50520005 68f465de 1000332c 00000000     ..RP.e.h,3......
	...

10000200 <__reset_end>:
10000200:	20042000 	.word	0x20042000
10000204:	10000113 	.word	0x10000113
10000208:	100002c3 	.word	0x100002c3
1000020c:	100002c5 	.word	0x100002c5
10000210:	100002c1 	.word	0x100002c1
10000214:	100002c1 	.word	0x100002c1
10000218:	100002c1 	.word	0x100002c1
1000021c:	100002c1 	.word	0x100002c1
10000220:	100002c1 	.word	0x100002c1
10000224:	100002c1 	.word	0x100002c1
10000228:	100002c1 	.word	0x100002c1
1000022c:	100002c7 	.word	0x100002c7
10000230:	100002c1 	.word	0x100002c1
10000234:	100002c1 	.word	0x100002c1
10000238:	100002c9 	.word	0x100002c9
1000023c:	100002cb 	.word	0x100002cb
10000240:	100002cd 	.word	0x100002cd
10000244:	100002cd 	.word	0x100002cd
10000248:	100002cd 	.word	0x100002cd
1000024c:	100002cd 	.word	0x100002cd
10000250:	100002cd 	.word	0x100002cd
10000254:	100002cd 	.word	0x100002cd
10000258:	100002cd 	.word	0x100002cd
1000025c:	100002cd 	.word	0x100002cd
10000260:	100002cd 	.word	0x100002cd
10000264:	100002cd 	.word	0x100002cd
10000268:	100002cd 	.word	0x100002cd
1000026c:	100002cd 	.word	0x100002cd
10000270:	100002cd 	.word	0x100002cd
10000274:	100002cd 	.word	0x100002cd
10000278:	100002cd 	.word	0x100002cd
1000027c:	100002cd 	.word	0x100002cd
10000280:	100002cd 	.word	0x100002cd
10000284:	100002cd 	.word	0x100002cd
10000288:	100002cd 	.word	0x100002cd
1000028c:	100002cd 	.word	0x100002cd
10000290:	100002cd 	.word	0x100002cd
10000294:	100002cd 	.word	0x100002cd
10000298:	100002cd 	.word	0x100002cd
1000029c:	100002cd 	.word	0x100002cd
100002a0:	100002cd 	.word	0x100002cd
100002a4:	100002cd 	.word	0x100002cd
100002a8:	100002cd 	.word	0x100002cd
100002ac:	100002cd 	.word	0x100002cd
100002b0:	100002cd 	.word	0x100002cd
100002b4:	100002cd 	.word	0x100002cd
100002b8:	100002cd 	.word	0x100002cd
100002bc:	100002cd 	.word	0x100002cd

100002c0 <isr_invalid>:
100002c0:	be00      	bkpt	0x0000

100002c2 <isr_nmi>:
100002c2:	be00      	bkpt	0x0000

100002c4 <isr_hardfault>:
100002c4:	be00      	bkpt	0x0000

100002c6 <isr_svcall>:
100002c6:	be00      	bkpt	0x0000

100002c8 <isr_pendsv>:
100002c8:	be00      	bkpt	0x0000

100002ca <isr_systick>:
100002ca:	be00      	bkpt	0x0000

100002cc <__unhandled_user_irq>:
100002cc:	f7ff ff63 	bl	10000196 <__get_current_exception>
100002d0:	3810      	subs	r0, #16

100002d2 <unhandled_user_irq_num_in_r0>:
100002d2:	be00      	bkpt	0x0000

100002d4 <_init>:
100002d4:	b5f8      	push	{r3, r4, r5, r6, r7, lr}
100002d6:	46c0      	nop			; (mov r8, r8)

100002d8 <__do_global_dtors_aux>:
100002d8:	b510      	push	{r4, lr}
100002da:	4c06      	ldr	r4, [pc, #24]	; (100002f4 <__do_global_dtors_aux+0x1c>)
100002dc:	7823      	ldrb	r3, [r4, #0]
100002de:	2b00      	cmp	r3, #0
100002e0:	d107      	bne.n	100002f2 <__do_global_dtors_aux+0x1a>
100002e2:	4b05      	ldr	r3, [pc, #20]	; (100002f8 <__do_global_dtors_aux+0x20>)
100002e4:	2b00      	cmp	r3, #0
100002e6:	d002      	beq.n	100002ee <__do_global_dtors_aux+0x16>
100002e8:	4804      	ldr	r0, [pc, #16]	; (100002fc <__do_global_dtors_aux+0x24>)
100002ea:	e000      	b.n	100002ee <__do_global_dtors_aux+0x16>
100002ec:	bf00      	nop
100002ee:	2301      	movs	r3, #1
100002f0:	7023      	strb	r3, [r4, #0]
100002f2:	bd10      	pop	{r4, pc}
100002f4:	20000a6c 	.word	0x20000a6c
100002f8:	00000000 	.word	0x00000000
100002fc:	10002778 	.word	0x10002778

10000300 <frame_dummy>:
10000300:	4b04      	ldr	r3, [pc, #16]	; (10000314 <frame_dummy+0x14>)
10000302:	b510      	push	{r4, lr}
10000304:	2b00      	cmp	r3, #0
10000306:	d003      	beq.n	10000310 <frame_dummy+0x10>
10000308:	4903      	ldr	r1, [pc, #12]	; (10000318 <frame_dummy+0x18>)
1000030a:	4804      	ldr	r0, [pc, #16]	; (1000031c <frame_dummy+0x1c>)
1000030c:	e000      	b.n	10000310 <frame_dummy+0x10>
1000030e:	bf00      	nop
10000310:	bd10      	pop	{r4, pc}
10000312:	46c0      	nop			; (mov r8, r8)
10000314:	00000000 	.word	0x00000000
10000318:	20000a70 	.word	0x20000a70
1000031c:	10002778 	.word	0x10002778

10000320 <main>:
10000320:	b570      	push	{r4, r5, r6, lr}
10000322:	f001 fd0f 	bl	10001d44 <stdio_init_all>
10000326:	481f      	ldr	r0, [pc, #124]	; (100003a4 <main+0x84>)
10000328:	f001 fcd0 	bl	10001ccc <__wrap_puts>
1000032c:	2001      	movs	r0, #1
1000032e:	f001 fd67 	bl	10001e00 <dma_claim_unused_channel>
10000332:	26a0      	movs	r6, #160	; 0xa0
10000334:	0004      	movs	r4, r0
10000336:	05f6      	lsls	r6, r6, #23
10000338:	2001      	movs	r0, #1
1000033a:	f001 fd61 	bl	10001e00 <dma_claim_unused_channel>
1000033e:	46b4      	mov	ip, r6
10000340:	01a2      	lsls	r2, r4, #6
10000342:	4e19      	ldr	r6, [pc, #100]	; (100003a8 <main+0x88>)
10000344:	4b19      	ldr	r3, [pc, #100]	; (100003ac <main+0x8c>)
10000346:	4462      	add	r2, ip
10000348:	02e5      	lsls	r5, r4, #11
1000034a:	4919      	ldr	r1, [pc, #100]	; (100003b0 <main+0x90>)
1000034c:	6016      	str	r6, [r2, #0]
1000034e:	402b      	ands	r3, r5
10000350:	4e18      	ldr	r6, [pc, #96]	; (100003b4 <main+0x94>)
10000352:	4319      	orrs	r1, r3
10000354:	0183      	lsls	r3, r0, #6
10000356:	199e      	adds	r6, r3, r6
10000358:	6056      	str	r6, [r2, #4]
1000035a:	2602      	movs	r6, #2
1000035c:	6096      	str	r6, [r2, #8]
1000035e:	6111      	str	r1, [r2, #16]
10000360:	4915      	ldr	r1, [pc, #84]	; (100003b8 <main+0x98>)
10000362:	02c2      	lsls	r2, r0, #11
10000364:	400a      	ands	r2, r1
10000366:	4915      	ldr	r1, [pc, #84]	; (100003bc <main+0x9c>)
10000368:	432a      	orrs	r2, r5
1000036a:	430a      	orrs	r2, r1
1000036c:	2100      	movs	r1, #0
1000036e:	4d14      	ldr	r5, [pc, #80]	; (100003c0 <main+0xa0>)
10000370:	4463      	add	r3, ip
10000372:	6019      	str	r1, [r3, #0]
10000374:	605d      	str	r5, [r3, #4]
10000376:	6099      	str	r1, [r3, #8]
10000378:	3101      	adds	r1, #1
1000037a:	611a      	str	r2, [r3, #16]
1000037c:	000b      	movs	r3, r1
1000037e:	40a3      	lsls	r3, r4
10000380:	001c      	movs	r4, r3
10000382:	2386      	movs	r3, #134	; 0x86
10000384:	4662      	mov	r2, ip
10000386:	4081      	lsls	r1, r0
10000388:	2080      	movs	r0, #128	; 0x80
1000038a:	00db      	lsls	r3, r3, #3
1000038c:	50d4      	str	r4, [r2, r3]
1000038e:	00c0      	lsls	r0, r0, #3
10000390:	5813      	ldr	r3, [r2, r0]
10000392:	4219      	tst	r1, r3
10000394:	d0fc      	beq.n	10000390 <main+0x70>
10000396:	4b0b      	ldr	r3, [pc, #44]	; (100003c4 <main+0xa4>)
10000398:	480b      	ldr	r0, [pc, #44]	; (100003c8 <main+0xa8>)
1000039a:	50d1      	str	r1, [r2, r3]
1000039c:	f001 fc96 	bl	10001ccc <__wrap_puts>
100003a0:	2000      	movs	r0, #0
100003a2:	bd70      	pop	{r4, r5, r6, pc}
100003a4:	10002778 	.word	0x10002778
100003a8:	100027a4 	.word	0x100027a4
100003ac:	ff1fffff 	.word	0xff1fffff
100003b0:	001f84f9 	.word	0x001f84f9
100003b4:	50000038 	.word	0x50000038
100003b8:	ff0007ff 	.word	0xff0007ff
100003bc:	002a0011 	.word	0x002a0011
100003c0:	40034000 	.word	0x40034000
100003c4:	0000040c 	.word	0x0000040c
100003c8:	10002794 	.word	0x10002794

100003cc <gpio_set_function>:
100003cc:	4a09      	ldr	r2, [pc, #36]	; (100003f4 <gpio_set_function+0x28>)
100003ce:	0083      	lsls	r3, r0, #2
100003d0:	4694      	mov	ip, r2
100003d2:	2240      	movs	r2, #64	; 0x40
100003d4:	4463      	add	r3, ip
100003d6:	b510      	push	{r4, lr}
100003d8:	681c      	ldr	r4, [r3, #0]
100003da:	00c0      	lsls	r0, r0, #3
100003dc:	4062      	eors	r2, r4
100003de:	24c0      	movs	r4, #192	; 0xc0
100003e0:	4014      	ands	r4, r2
100003e2:	2280      	movs	r2, #128	; 0x80
100003e4:	0152      	lsls	r2, r2, #5
100003e6:	4313      	orrs	r3, r2
100003e8:	601c      	str	r4, [r3, #0]
100003ea:	4b03      	ldr	r3, [pc, #12]	; (100003f8 <gpio_set_function+0x2c>)
100003ec:	469c      	mov	ip, r3
100003ee:	4460      	add	r0, ip
100003f0:	6041      	str	r1, [r0, #4]
100003f2:	bd10      	pop	{r4, pc}
100003f4:	4001c004 	.word	0x4001c004
100003f8:	40014000 	.word	0x40014000

100003fc <hw_claim_or_assert>:
100003fc:	b5f8      	push	{r3, r4, r5, r6, r7, lr}
100003fe:	46ce      	mov	lr, r9
10000400:	4647      	mov	r7, r8
10000402:	4691      	mov	r9, r2
10000404:	b580      	push	{r7, lr}
10000406:	f3ef 8710 	mrs	r7, PRIMASK
1000040a:	b672      	cpsid	i
1000040c:	4e12      	ldr	r6, [pc, #72]	; (10000458 <hw_claim_or_assert+0x5c>)
1000040e:	6833      	ldr	r3, [r6, #0]
10000410:	2b00      	cmp	r3, #0
10000412:	d0fc      	beq.n	1000040e <hw_claim_or_assert+0x12>
10000414:	f3bf 8f5f 	dmb	sy
10000418:	08cb      	lsrs	r3, r1, #3
1000041a:	5cc5      	ldrb	r5, [r0, r3]
1000041c:	2407      	movs	r4, #7
1000041e:	18c2      	adds	r2, r0, r3
10000420:	0028      	movs	r0, r5
10000422:	2301      	movs	r3, #1
10000424:	400c      	ands	r4, r1
10000426:	4694      	mov	ip, r2
10000428:	40e0      	lsrs	r0, r4
1000042a:	001a      	movs	r2, r3
1000042c:	4002      	ands	r2, r0
1000042e:	4690      	mov	r8, r2
10000430:	4203      	tst	r3, r0
10000432:	d10d      	bne.n	10000450 <hw_claim_or_assert+0x54>
10000434:	40a3      	lsls	r3, r4
10000436:	4662      	mov	r2, ip
10000438:	432b      	orrs	r3, r5
1000043a:	7013      	strb	r3, [r2, #0]
1000043c:	f3bf 8f5f 	dmb	sy
10000440:	4643      	mov	r3, r8
10000442:	6033      	str	r3, [r6, #0]
10000444:	f387 8810 	msr	PRIMASK, r7
10000448:	bc0c      	pop	{r2, r3}
1000044a:	4690      	mov	r8, r2
1000044c:	4699      	mov	r9, r3
1000044e:	bdf8      	pop	{r3, r4, r5, r6, r7, pc}
10000450:	4648      	mov	r0, r9
10000452:	f000 fea1 	bl	10001198 <panic>
10000456:	46c0      	nop			; (mov r8, r8)
10000458:	d000012c 	.word	0xd000012c

1000045c <hw_claim_unused_from_range>:
1000045c:	b5f8      	push	{r3, r4, r5, r6, r7, lr}
1000045e:	4647      	mov	r7, r8
10000460:	46ce      	mov	lr, r9
10000462:	4688      	mov	r8, r1
10000464:	b580      	push	{r7, lr}
10000466:	f3ef 8c10 	mrs	ip, PRIMASK
1000046a:	b672      	cpsid	i
1000046c:	4d21      	ldr	r5, [pc, #132]	; (100004f4 <hw_claim_unused_from_range+0x98>)
1000046e:	682c      	ldr	r4, [r5, #0]
10000470:	2c00      	cmp	r4, #0
10000472:	d0fc      	beq.n	1000046e <hw_claim_unused_from_range+0x12>
10000474:	f3bf 8f5f 	dmb	sy
10000478:	429a      	cmp	r2, r3
1000047a:	d82d      	bhi.n	100004d8 <hw_claim_unused_from_range+0x7c>
1000047c:	08d4      	lsrs	r4, r2, #3
1000047e:	5d05      	ldrb	r5, [r0, r4]
10000480:	1907      	adds	r7, r0, r4
10000482:	2407      	movs	r4, #7
10000484:	002e      	movs	r6, r5
10000486:	4014      	ands	r4, r2
10000488:	40e6      	lsrs	r6, r4
1000048a:	07f1      	lsls	r1, r6, #31
1000048c:	d51e      	bpl.n	100004cc <hw_claim_unused_from_range+0x70>
1000048e:	2107      	movs	r1, #7
10000490:	4689      	mov	r9, r1
10000492:	3906      	subs	r1, #6
10000494:	e008      	b.n	100004a8 <hw_claim_unused_from_range+0x4c>
10000496:	08d4      	lsrs	r4, r2, #3
10000498:	5d05      	ldrb	r5, [r0, r4]
1000049a:	1907      	adds	r7, r0, r4
1000049c:	464c      	mov	r4, r9
1000049e:	002e      	movs	r6, r5
100004a0:	4014      	ands	r4, r2
100004a2:	40e6      	lsrs	r6, r4
100004a4:	4231      	tst	r1, r6
100004a6:	d011      	beq.n	100004cc <hw_claim_unused_from_range+0x70>
100004a8:	3201      	adds	r2, #1
100004aa:	4293      	cmp	r3, r2
100004ac:	d2f3      	bcs.n	10000496 <hw_claim_unused_from_range+0x3a>
100004ae:	2001      	movs	r0, #1
100004b0:	4240      	negs	r0, r0
100004b2:	f3bf 8f5f 	dmb	sy
100004b6:	2200      	movs	r2, #0
100004b8:	4b0e      	ldr	r3, [pc, #56]	; (100004f4 <hw_claim_unused_from_range+0x98>)
100004ba:	601a      	str	r2, [r3, #0]
100004bc:	f38c 8810 	msr	PRIMASK, ip
100004c0:	2800      	cmp	r0, #0
100004c2:	db11      	blt.n	100004e8 <hw_claim_unused_from_range+0x8c>
100004c4:	bc0c      	pop	{r2, r3}
100004c6:	4690      	mov	r8, r2
100004c8:	4699      	mov	r9, r3
100004ca:	bdf8      	pop	{r3, r4, r5, r6, r7, pc}
100004cc:	2301      	movs	r3, #1
100004ce:	40a3      	lsls	r3, r4
100004d0:	431d      	orrs	r5, r3
100004d2:	0010      	movs	r0, r2
100004d4:	703d      	strb	r5, [r7, #0]
100004d6:	e7ec      	b.n	100004b2 <hw_claim_unused_from_range+0x56>
100004d8:	f3bf 8f5f 	dmb	sy
100004dc:	2300      	movs	r3, #0
100004de:	602b      	str	r3, [r5, #0]
100004e0:	f38c 8810 	msr	PRIMASK, ip
100004e4:	2001      	movs	r0, #1
100004e6:	4240      	negs	r0, r0
100004e8:	4643      	mov	r3, r8
100004ea:	2b00      	cmp	r3, #0
100004ec:	d0ea      	beq.n	100004c4 <hw_claim_unused_from_range+0x68>
100004ee:	9808      	ldr	r0, [sp, #32]
100004f0:	f000 fe52 	bl	10001198 <panic>
100004f4:	d000012c 	.word	0xd000012c

100004f8 <spin_locks_reset>:
100004f8:	2100      	movs	r1, #0
100004fa:	4b04      	ldr	r3, [pc, #16]	; (1000050c <spin_locks_reset+0x14>)
100004fc:	4a04      	ldr	r2, [pc, #16]	; (10000510 <spin_locks_reset+0x18>)
100004fe:	f3bf 8f5f 	dmb	sy
10000502:	c302      	stmia	r3!, {r1}
10000504:	4293      	cmp	r3, r2
10000506:	d1fa      	bne.n	100004fe <spin_locks_reset+0x6>
10000508:	4770      	bx	lr
1000050a:	46c0      	nop			; (mov r8, r8)
1000050c:	d0000100 	.word	0xd0000100
10000510:	d0000180 	.word	0xd0000180

10000514 <next_striped_spin_lock_num>:
10000514:	4a04      	ldr	r2, [pc, #16]	; (10000528 <next_striped_spin_lock_num+0x14>)
10000516:	7810      	ldrb	r0, [r2, #0]
10000518:	1c43      	adds	r3, r0, #1
1000051a:	b2db      	uxtb	r3, r3
1000051c:	2b17      	cmp	r3, #23
1000051e:	d900      	bls.n	10000522 <next_striped_spin_lock_num+0xe>
10000520:	2310      	movs	r3, #16
10000522:	7013      	strb	r3, [r2, #0]
10000524:	4770      	bx	lr
10000526:	46c0      	nop			; (mov r8, r8)
10000528:	20000188 	.word	0x20000188

1000052c <running_on_fpga>:
1000052c:	4b02      	ldr	r3, [pc, #8]	; (10000538 <running_on_fpga+0xc>)
1000052e:	6818      	ldr	r0, [r3, #0]
10000530:	0780      	lsls	r0, r0, #30
10000532:	0fc0      	lsrs	r0, r0, #31
10000534:	4770      	bx	lr
10000536:	46c0      	nop			; (mov r8, r8)
10000538:	4006c000 	.word	0x4006c000

1000053c <uart_init>:
1000053c:	b5f0      	push	{r4, r5, r6, r7, lr}
1000053e:	46c6      	mov	lr, r8
10000540:	0005      	movs	r5, r0
10000542:	b500      	push	{lr}
10000544:	2006      	movs	r0, #6
10000546:	000e      	movs	r6, r1
10000548:	f000 ffb4 	bl	100014b4 <clock_get_hz>
1000054c:	2800      	cmp	r0, #0
1000054e:	d04d      	beq.n	100005ec <uart_init+0xb0>
10000550:	4b29      	ldr	r3, [pc, #164]	; (100005f8 <uart_init+0xbc>)
10000552:	492a      	ldr	r1, [pc, #168]	; (100005fc <uart_init+0xc0>)
10000554:	18eb      	adds	r3, r5, r3
10000556:	425a      	negs	r2, r3
10000558:	4153      	adcs	r3, r2
1000055a:	2280      	movs	r2, #128	; 0x80
1000055c:	03d2      	lsls	r2, r2, #15
1000055e:	4694      	mov	ip, r2
10000560:	425b      	negs	r3, r3
10000562:	4013      	ands	r3, r2
10000564:	4a26      	ldr	r2, [pc, #152]	; (10000600 <uart_init+0xc4>)
10000566:	4463      	add	r3, ip
10000568:	6013      	str	r3, [r2, #0]
1000056a:	4a26      	ldr	r2, [pc, #152]	; (10000604 <uart_init+0xc8>)
1000056c:	6013      	str	r3, [r2, #0]
1000056e:	001c      	movs	r4, r3
10000570:	688a      	ldr	r2, [r1, #8]
10000572:	4394      	bics	r4, r2
10000574:	d1fb      	bne.n	1000056e <uart_init+0x32>
10000576:	4b20      	ldr	r3, [pc, #128]	; (100005f8 <uart_init+0xbc>)
10000578:	2180      	movs	r1, #128	; 0x80
1000057a:	18eb      	adds	r3, r5, r3
1000057c:	425a      	negs	r2, r3
1000057e:	4153      	adcs	r3, r2
10000580:	4a21      	ldr	r2, [pc, #132]	; (10000608 <uart_init+0xcc>)
10000582:	005b      	lsls	r3, r3, #1
10000584:	0049      	lsls	r1, r1, #1
10000586:	2006      	movs	r0, #6
10000588:	5299      	strh	r1, [r3, r2]
1000058a:	f000 ff93 	bl	100014b4 <clock_get_hz>
1000058e:	0031      	movs	r1, r6
10000590:	00c0      	lsls	r0, r0, #3
10000592:	f001 f9d1 	bl	10001938 <__wrap___aeabi_uidiv>
10000596:	267f      	movs	r6, #127	; 0x7f
10000598:	4b1c      	ldr	r3, [pc, #112]	; (1000060c <uart_init+0xd0>)
1000059a:	4006      	ands	r6, r0
1000059c:	09c7      	lsrs	r7, r0, #7
1000059e:	3601      	adds	r6, #1
100005a0:	0876      	lsrs	r6, r6, #1
100005a2:	626f      	str	r7, [r5, #36]	; 0x24
100005a4:	429f      	cmp	r7, r3
100005a6:	d024      	beq.n	100005f2 <uart_init+0xb6>
100005a8:	62ae      	str	r6, [r5, #40]	; 0x28
100005aa:	232c      	movs	r3, #44	; 0x2c
100005ac:	4698      	mov	r8, r3
100005ae:	2480      	movs	r4, #128	; 0x80
100005b0:	44a8      	add	r8, r5
100005b2:	4643      	mov	r3, r8
100005b4:	01a4      	lsls	r4, r4, #6
100005b6:	431c      	orrs	r4, r3
100005b8:	2300      	movs	r3, #0
100005ba:	2006      	movs	r0, #6
100005bc:	6023      	str	r3, [r4, #0]
100005be:	f000 ff79 	bl	100014b4 <clock_get_hz>
100005c2:	01b9      	lsls	r1, r7, #6
100005c4:	1989      	adds	r1, r1, r6
100005c6:	0080      	lsls	r0, r0, #2
100005c8:	f001 f9b6 	bl	10001938 <__wrap___aeabi_uidiv>
100005cc:	2360      	movs	r3, #96	; 0x60
100005ce:	6aea      	ldr	r2, [r5, #44]	; 0x2c
100005d0:	4641      	mov	r1, r8
100005d2:	4053      	eors	r3, r2
100005d4:	226e      	movs	r2, #110	; 0x6e
100005d6:	401a      	ands	r2, r3
100005d8:	2380      	movs	r3, #128	; 0x80
100005da:	015b      	lsls	r3, r3, #5
100005dc:	430b      	orrs	r3, r1
100005de:	601a      	str	r2, [r3, #0]
100005e0:	4b0b      	ldr	r3, [pc, #44]	; (10000610 <uart_init+0xd4>)
100005e2:	632b      	str	r3, [r5, #48]	; 0x30
100005e4:	2310      	movs	r3, #16
100005e6:	6023      	str	r3, [r4, #0]
100005e8:	3b0d      	subs	r3, #13
100005ea:	64ab      	str	r3, [r5, #72]	; 0x48
100005ec:	bc04      	pop	{r2}
100005ee:	4690      	mov	r8, r2
100005f0:	bdf0      	pop	{r4, r5, r6, r7, pc}
100005f2:	62ac      	str	r4, [r5, #40]	; 0x28
100005f4:	e7d9      	b.n	100005aa <uart_init+0x6e>
100005f6:	46c0      	nop			; (mov r8, r8)
100005f8:	bffc8000 	.word	0xbffc8000
100005fc:	4000c000 	.word	0x4000c000
10000600:	4000e000 	.word	0x4000e000
10000604:	4000f000 	.word	0x4000f000
10000608:	20000b30 	.word	0x20000b30
1000060c:	0000ffff 	.word	0x0000ffff
10000610:	00000301 	.word	0x00000301

10000614 <timer_pool_entry_comparator>:
10000614:	6883      	ldr	r3, [r0, #8]
10000616:	480b      	ldr	r0, [pc, #44]	; (10000644 <timer_pool_entry_comparator+0x30>)
10000618:	b510      	push	{r4, lr}
1000061a:	4684      	mov	ip, r0
1000061c:	4461      	add	r1, ip
1000061e:	4462      	add	r2, ip
10000620:	0109      	lsls	r1, r1, #4
10000622:	0112      	lsls	r2, r2, #4
10000624:	189a      	adds	r2, r3, r2
10000626:	1859      	adds	r1, r3, r1
10000628:	6854      	ldr	r4, [r2, #4]
1000062a:	684b      	ldr	r3, [r1, #4]
1000062c:	2001      	movs	r0, #1
1000062e:	429c      	cmp	r4, r3
10000630:	d801      	bhi.n	10000636 <timer_pool_entry_comparator+0x22>
10000632:	d002      	beq.n	1000063a <timer_pool_entry_comparator+0x26>
10000634:	2000      	movs	r0, #0
10000636:	b2c0      	uxtb	r0, r0
10000638:	bd10      	pop	{r4, pc}
1000063a:	6812      	ldr	r2, [r2, #0]
1000063c:	680b      	ldr	r3, [r1, #0]
1000063e:	429a      	cmp	r2, r3
10000640:	d8f9      	bhi.n	10000636 <timer_pool_entry_comparator+0x22>
10000642:	e7f7      	b.n	10000634 <timer_pool_entry_comparator+0x20>
10000644:	0fffffff 	.word	0x0fffffff

10000648 <add_alarm_under_lock>:
10000648:	b5f0      	push	{r4, r5, r6, r7, lr}
1000064a:	4657      	mov	r7, sl
1000064c:	4645      	mov	r5, r8
1000064e:	46de      	mov	lr, fp
10000650:	464e      	mov	r6, r9
10000652:	b5e0      	push	{r5, r6, r7, lr}
10000654:	b083      	sub	sp, #12
10000656:	001f      	movs	r7, r3
10000658:	ab0f      	add	r3, sp, #60	; 0x3c
1000065a:	781b      	ldrb	r3, [r3, #0]
1000065c:	9c0e      	ldr	r4, [sp, #56]	; 0x38
1000065e:	0005      	movs	r5, r0
10000660:	4692      	mov	sl, r2
10000662:	9301      	str	r3, [sp, #4]
10000664:	2c00      	cmp	r4, #0
10000666:	d10d      	bne.n	10000684 <add_alarm_under_lock+0x3c>
10000668:	6802      	ldr	r2, [r0, #0]
1000066a:	7b94      	ldrb	r4, [r2, #14]
1000066c:	2c00      	cmp	r4, #0
1000066e:	d056      	beq.n	1000071e <add_alarm_under_lock+0xd6>
10000670:	6811      	ldr	r1, [r2, #0]
10000672:	0063      	lsls	r3, r4, #1
10000674:	468c      	mov	ip, r1
10000676:	191b      	adds	r3, r3, r4
10000678:	4463      	add	r3, ip
1000067a:	3b03      	subs	r3, #3
1000067c:	785b      	ldrb	r3, [r3, #1]
1000067e:	7393      	strb	r3, [r2, #14]
10000680:	2b00      	cmp	r3, #0
10000682:	d054      	beq.n	1000072e <add_alarm_under_lock+0xe6>
10000684:	68aa      	ldr	r2, [r5, #8]
10000686:	b2e3      	uxtb	r3, r4
10000688:	4694      	mov	ip, r2
1000068a:	4652      	mov	r2, sl
1000068c:	469b      	mov	fp, r3
1000068e:	4b38      	ldr	r3, [pc, #224]	; (10000770 <add_alarm_under_lock+0x128>)
10000690:	682e      	ldr	r6, [r5, #0]
10000692:	18e3      	adds	r3, r4, r3
10000694:	011b      	lsls	r3, r3, #4
10000696:	4463      	add	r3, ip
10000698:	601a      	str	r2, [r3, #0]
1000069a:	9a0c      	ldr	r2, [sp, #48]	; 0x30
1000069c:	605f      	str	r7, [r3, #4]
1000069e:	609a      	str	r2, [r3, #8]
100006a0:	9a0d      	ldr	r2, [sp, #52]	; 0x34
100006a2:	60da      	str	r2, [r3, #12]
100006a4:	23d0      	movs	r3, #208	; 0xd0
100006a6:	2280      	movs	r2, #128	; 0x80
100006a8:	061b      	lsls	r3, r3, #24
100006aa:	0312      	lsls	r2, r2, #12
100006ac:	615a      	str	r2, [r3, #20]
100006ae:	0063      	lsls	r3, r4, #1
100006b0:	191b      	adds	r3, r3, r4
100006b2:	3b03      	subs	r3, #3
100006b4:	4698      	mov	r8, r3
100006b6:	2200      	movs	r2, #0
100006b8:	6833      	ldr	r3, [r6, #0]
100006ba:	4443      	add	r3, r8
100006bc:	709a      	strb	r2, [r3, #2]
100006be:	705a      	strb	r2, [r3, #1]
100006c0:	701a      	strb	r2, [r3, #0]
100006c2:	7b73      	ldrb	r3, [r6, #13]
100006c4:	4699      	mov	r9, r3
100006c6:	2b00      	cmp	r3, #0
100006c8:	d017      	beq.n	100006fa <add_alarm_under_lock+0xb2>
100006ca:	465a      	mov	r2, fp
100006cc:	0019      	movs	r1, r3
100006ce:	68b0      	ldr	r0, [r6, #8]
100006d0:	6873      	ldr	r3, [r6, #4]
100006d2:	4798      	blx	r3
100006d4:	6832      	ldr	r2, [r6, #0]
100006d6:	2800      	cmp	r0, #0
100006d8:	d12b      	bne.n	10000732 <add_alarm_under_lock+0xea>
100006da:	4643      	mov	r3, r8
100006dc:	18d1      	adds	r1, r2, r3
100006de:	464b      	mov	r3, r9
100006e0:	4658      	mov	r0, fp
100006e2:	005b      	lsls	r3, r3, #1
100006e4:	444b      	add	r3, r9
100006e6:	3b03      	subs	r3, #3
100006e8:	18d3      	adds	r3, r2, r3
100006ea:	7098      	strb	r0, [r3, #2]
100006ec:	4640      	mov	r0, r8
100006ee:	5c12      	ldrb	r2, [r2, r0]
100006f0:	2a00      	cmp	r2, #0
100006f2:	d000      	beq.n	100006f6 <add_alarm_under_lock+0xae>
100006f4:	705a      	strb	r2, [r3, #1]
100006f6:	464b      	mov	r3, r9
100006f8:	700b      	strb	r3, [r1, #0]
100006fa:	465b      	mov	r3, fp
100006fc:	7373      	strb	r3, [r6, #13]
100006fe:	4652      	mov	r2, sl
10000700:	003b      	movs	r3, r7
10000702:	7d28      	ldrb	r0, [r5, #20]
10000704:	f000 fa1a 	bl	10000b3c <hardware_alarm_set_target>
10000708:	1e06      	subs	r6, r0, #0
1000070a:	d002      	beq.n	10000712 <add_alarm_under_lock+0xca>
1000070c:	9b01      	ldr	r3, [sp, #4]
1000070e:	2b00      	cmp	r3, #0
10000710:	d026      	beq.n	10000760 <add_alarm_under_lock+0x118>
10000712:	9b10      	ldr	r3, [sp, #64]	; 0x40
10000714:	2b00      	cmp	r3, #0
10000716:	d028      	beq.n	1000076a <add_alarm_under_lock+0x122>
10000718:	0020      	movs	r0, r4
1000071a:	701e      	strb	r6, [r3, #0]
1000071c:	e000      	b.n	10000720 <add_alarm_under_lock+0xd8>
1000071e:	2000      	movs	r0, #0
10000720:	b003      	add	sp, #12
10000722:	bc3c      	pop	{r2, r3, r4, r5}
10000724:	4690      	mov	r8, r2
10000726:	4699      	mov	r9, r3
10000728:	46a2      	mov	sl, r4
1000072a:	46ab      	mov	fp, r5
1000072c:	bdf0      	pop	{r4, r5, r6, r7, pc}
1000072e:	73d3      	strb	r3, [r2, #15]
10000730:	e7a8      	b.n	10000684 <add_alarm_under_lock+0x3c>
10000732:	464b      	mov	r3, r9
10000734:	005b      	lsls	r3, r3, #1
10000736:	444b      	add	r3, r9
10000738:	3b03      	subs	r3, #3
1000073a:	18d1      	adds	r1, r2, r3
1000073c:	468c      	mov	ip, r1
1000073e:	4641      	mov	r1, r8
10000740:	4648      	mov	r0, r9
10000742:	1851      	adds	r1, r2, r1
10000744:	7088      	strb	r0, [r1, #2]
10000746:	5cd3      	ldrb	r3, [r2, r3]
10000748:	2b00      	cmp	r3, #0
1000074a:	d000      	beq.n	1000074e <add_alarm_under_lock+0x106>
1000074c:	704b      	strb	r3, [r1, #1]
1000074e:	465b      	mov	r3, fp
10000750:	4662      	mov	r2, ip
10000752:	7013      	strb	r3, [r2, #0]
10000754:	464b      	mov	r3, r9
10000756:	0020      	movs	r0, r4
10000758:	7373      	strb	r3, [r6, #13]
1000075a:	45a1      	cmp	r9, r4
1000075c:	d1e0      	bne.n	10000720 <add_alarm_under_lock+0xd8>
1000075e:	e7ce      	b.n	100006fe <add_alarm_under_lock+0xb6>
10000760:	4659      	mov	r1, fp
10000762:	6828      	ldr	r0, [r5, #0]
10000764:	f000 fc48 	bl	10000ff8 <ph_delete>
10000768:	e7d3      	b.n	10000712 <add_alarm_under_lock+0xca>
1000076a:	0020      	movs	r0, r4
1000076c:	e7d8      	b.n	10000720 <add_alarm_under_lock+0xd8>
1000076e:	46c0      	nop			; (mov r8, r8)
10000770:	0fffffff 	.word	0x0fffffff

10000774 <alarm_pool_alarm_callback>:
10000774:	b5f0      	push	{r4, r5, r6, r7, lr}
10000776:	46de      	mov	lr, fp
10000778:	464e      	mov	r6, r9
1000077a:	4657      	mov	r7, sl
1000077c:	4645      	mov	r5, r8
1000077e:	2300      	movs	r3, #0
10000780:	b5e0      	push	{r5, r6, r7, lr}
10000782:	b08d      	sub	sp, #52	; 0x34
10000784:	930a      	str	r3, [sp, #40]	; 0x28
10000786:	4b71      	ldr	r3, [pc, #452]	; (1000094c <alarm_pool_alarm_callback+0x1d8>)
10000788:	0082      	lsls	r2, r0, #2
1000078a:	58d3      	ldr	r3, [r2, r3]
1000078c:	900b      	str	r0, [sp, #44]	; 0x2c
1000078e:	4699      	mov	r9, r3
10000790:	2300      	movs	r3, #0
10000792:	469b      	mov	fp, r3
10000794:	464b      	mov	r3, r9
10000796:	9307      	str	r3, [sp, #28]
10000798:	f000 f980 	bl	10000a9c <time_us_64>
1000079c:	9c07      	ldr	r4, [sp, #28]
1000079e:	0006      	movs	r6, r0
100007a0:	000f      	movs	r7, r1
100007a2:	6862      	ldr	r2, [r4, #4]
100007a4:	f3ef 8510 	mrs	r5, PRIMASK
100007a8:	b672      	cpsid	i
100007aa:	6813      	ldr	r3, [r2, #0]
100007ac:	2b00      	cmp	r3, #0
100007ae:	d0fc      	beq.n	100007aa <alarm_pool_alarm_callback+0x36>
100007b0:	0022      	movs	r2, r4
100007b2:	9407      	str	r4, [sp, #28]
100007b4:	f3bf 8f5f 	dmb	sy
100007b8:	6824      	ldr	r4, [r4, #0]
100007ba:	7b63      	ldrb	r3, [r4, #13]
100007bc:	4699      	mov	r9, r3
100007be:	2b00      	cmp	r3, #0
100007c0:	d100      	bne.n	100007c4 <alarm_pool_alarm_callback+0x50>
100007c2:	e070      	b.n	100008a6 <alarm_pool_alarm_callback+0x132>
100007c4:	6892      	ldr	r2, [r2, #8]
100007c6:	4b62      	ldr	r3, [pc, #392]	; (10000950 <alarm_pool_alarm_callback+0x1dc>)
100007c8:	4690      	mov	r8, r2
100007ca:	444b      	add	r3, r9
100007cc:	011b      	lsls	r3, r3, #4
100007ce:	4498      	add	r8, r3
100007d0:	4643      	mov	r3, r8
100007d2:	681a      	ldr	r2, [r3, #0]
100007d4:	685b      	ldr	r3, [r3, #4]
100007d6:	0010      	movs	r0, r2
100007d8:	0019      	movs	r1, r3
100007da:	1b80      	subs	r0, r0, r6
100007dc:	41b9      	sbcs	r1, r7
100007de:	2900      	cmp	r1, #0
100007e0:	dd68      	ble.n	100008b4 <alarm_pool_alarm_callback+0x140>
100007e2:	980b      	ldr	r0, [sp, #44]	; 0x2c
100007e4:	f000 f9aa 	bl	10000b3c <hardware_alarm_set_target>
100007e8:	2300      	movs	r3, #0
100007ea:	2600      	movs	r6, #0
100007ec:	4698      	mov	r8, r3
100007ee:	2700      	movs	r7, #0
100007f0:	469a      	mov	sl, r3
100007f2:	9c07      	ldr	r4, [sp, #28]
100007f4:	6863      	ldr	r3, [r4, #4]
100007f6:	f3bf 8f5f 	dmb	sy
100007fa:	465a      	mov	r2, fp
100007fc:	601a      	str	r2, [r3, #0]
100007fe:	f385 8810 	msr	PRIMASK, r5
10000802:	4653      	mov	r3, sl
10000804:	2b00      	cmp	r3, #0
10000806:	d108      	bne.n	1000081a <alarm_pool_alarm_callback+0xa6>
10000808:	2800      	cmp	r0, #0
1000080a:	d1c5      	bne.n	10000798 <alarm_pool_alarm_callback+0x24>
1000080c:	b00d      	add	sp, #52	; 0x34
1000080e:	bc3c      	pop	{r2, r3, r4, r5}
10000810:	4690      	mov	r8, r2
10000812:	4699      	mov	r9, r3
10000814:	46a2      	mov	sl, r4
10000816:	46ab      	mov	fp, r5
10000818:	bdf0      	pop	{r4, r5, r6, r7, pc}
1000081a:	23d0      	movs	r3, #208	; 0xd0
1000081c:	2280      	movs	r2, #128	; 0x80
1000081e:	2180      	movs	r1, #128	; 0x80
10000820:	061b      	lsls	r3, r3, #24
10000822:	0392      	lsls	r2, r2, #14
10000824:	0309      	lsls	r1, r1, #12
10000826:	615a      	str	r2, [r3, #20]
10000828:	6199      	str	r1, [r3, #24]
1000082a:	619a      	str	r2, [r3, #24]
1000082c:	9b0a      	ldr	r3, [sp, #40]	; 0x28
1000082e:	4641      	mov	r1, r8
10000830:	0218      	lsls	r0, r3, #8
10000832:	464b      	mov	r3, r9
10000834:	4318      	orrs	r0, r3
10000836:	47d0      	blx	sl
10000838:	9008      	str	r0, [sp, #32]
1000083a:	9109      	str	r1, [sp, #36]	; 0x24
1000083c:	6862      	ldr	r2, [r4, #4]
1000083e:	f3ef 8510 	mrs	r5, PRIMASK
10000842:	b672      	cpsid	i
10000844:	6813      	ldr	r3, [r2, #0]
10000846:	2b00      	cmp	r3, #0
10000848:	d0fc      	beq.n	10000844 <alarm_pool_alarm_callback+0xd0>
1000084a:	9407      	str	r4, [sp, #28]
1000084c:	f3bf 8f5f 	dmb	sy
10000850:	9908      	ldr	r1, [sp, #32]
10000852:	9a09      	ldr	r2, [sp, #36]	; 0x24
10000854:	2a00      	cmp	r2, #0
10000856:	db49      	blt.n	100008ec <alarm_pool_alarm_callback+0x178>
10000858:	4311      	orrs	r1, r2
1000085a:	d003      	beq.n	10000864 <alarm_pool_alarm_callback+0xf0>
1000085c:	9b07      	ldr	r3, [sp, #28]
1000085e:	691b      	ldr	r3, [r3, #16]
10000860:	2b00      	cmp	r3, #0
10000862:	d15e      	bne.n	10000922 <alarm_pool_alarm_callback+0x1ae>
10000864:	9b07      	ldr	r3, [sp, #28]
10000866:	681b      	ldr	r3, [r3, #0]
10000868:	7bda      	ldrb	r2, [r3, #15]
1000086a:	2a00      	cmp	r2, #0
1000086c:	d007      	beq.n	1000087e <alarm_pool_alarm_callback+0x10a>
1000086e:	0051      	lsls	r1, r2, #1
10000870:	188a      	adds	r2, r1, r2
10000872:	6819      	ldr	r1, [r3, #0]
10000874:	468c      	mov	ip, r1
10000876:	4649      	mov	r1, r9
10000878:	4462      	add	r2, ip
1000087a:	3a03      	subs	r2, #3
1000087c:	7051      	strb	r1, [r2, #1]
1000087e:	464a      	mov	r2, r9
10000880:	73da      	strb	r2, [r3, #15]
10000882:	464b      	mov	r3, r9
10000884:	9a07      	ldr	r2, [sp, #28]
10000886:	3b01      	subs	r3, #1
10000888:	68d1      	ldr	r1, [r2, #12]
1000088a:	5cca      	ldrb	r2, [r1, r3]
1000088c:	3201      	adds	r2, #1
1000088e:	54ca      	strb	r2, [r1, r3]
10000890:	465b      	mov	r3, fp
10000892:	9a07      	ldr	r2, [sp, #28]
10000894:	6113      	str	r3, [r2, #16]
10000896:	6853      	ldr	r3, [r2, #4]
10000898:	f3bf 8f5f 	dmb	sy
1000089c:	465a      	mov	r2, fp
1000089e:	601a      	str	r2, [r3, #0]
100008a0:	f385 8810 	msr	PRIMASK, r5
100008a4:	e778      	b.n	10000798 <alarm_pool_alarm_callback+0x24>
100008a6:	2300      	movs	r3, #0
100008a8:	2600      	movs	r6, #0
100008aa:	4698      	mov	r8, r3
100008ac:	2700      	movs	r7, #0
100008ae:	469a      	mov	sl, r3
100008b0:	2000      	movs	r0, #0
100008b2:	e79e      	b.n	100007f2 <alarm_pool_alarm_callback+0x7e>
100008b4:	2900      	cmp	r1, #0
100008b6:	d102      	bne.n	100008be <alarm_pool_alarm_callback+0x14a>
100008b8:	2800      	cmp	r0, #0
100008ba:	d000      	beq.n	100008be <alarm_pool_alarm_callback+0x14a>
100008bc:	e791      	b.n	100007e2 <alarm_pool_alarm_callback+0x6e>
100008be:	2101      	movs	r1, #1
100008c0:	0020      	movs	r0, r4
100008c2:	f000 fafb 	bl	10000ebc <ph_remove_head_reserve>
100008c6:	4643      	mov	r3, r8
100008c8:	681e      	ldr	r6, [r3, #0]
100008ca:	685f      	ldr	r7, [r3, #4]
100008cc:	689b      	ldr	r3, [r3, #8]
100008ce:	9a07      	ldr	r2, [sp, #28]
100008d0:	469a      	mov	sl, r3
100008d2:	4643      	mov	r3, r8
100008d4:	68db      	ldr	r3, [r3, #12]
100008d6:	4698      	mov	r8, r3
100008d8:	68d3      	ldr	r3, [r2, #12]
100008da:	444b      	add	r3, r9
100008dc:	3b01      	subs	r3, #1
100008de:	781b      	ldrb	r3, [r3, #0]
100008e0:	930a      	str	r3, [sp, #40]	; 0x28
100008e2:	021b      	lsls	r3, r3, #8
100008e4:	4303      	orrs	r3, r0
100008e6:	6113      	str	r3, [r2, #16]
100008e8:	2000      	movs	r0, #0
100008ea:	e782      	b.n	100007f2 <alarm_pool_alarm_callback+0x7e>
100008ec:	6923      	ldr	r3, [r4, #16]
100008ee:	2b00      	cmp	r3, #0
100008f0:	d0b8      	beq.n	10000864 <alarm_pool_alarm_callback+0xf0>
100008f2:	0033      	movs	r3, r6
100008f4:	003c      	movs	r4, r7
100008f6:	1a5b      	subs	r3, r3, r1
100008f8:	4194      	sbcs	r4, r2
100008fa:	001a      	movs	r2, r3
100008fc:	0023      	movs	r3, r4
100008fe:	42a7      	cmp	r7, r4
10000900:	d819      	bhi.n	10000936 <alarm_pool_alarm_callback+0x1c2>
10000902:	429f      	cmp	r7, r3
10000904:	d01b      	beq.n	1000093e <alarm_pool_alarm_callback+0x1ca>
10000906:	4659      	mov	r1, fp
10000908:	9104      	str	r1, [sp, #16]
1000090a:	2101      	movs	r1, #1
1000090c:	9103      	str	r1, [sp, #12]
1000090e:	4649      	mov	r1, r9
10000910:	9102      	str	r1, [sp, #8]
10000912:	4641      	mov	r1, r8
10000914:	9101      	str	r1, [sp, #4]
10000916:	4651      	mov	r1, sl
10000918:	9807      	ldr	r0, [sp, #28]
1000091a:	9100      	str	r1, [sp, #0]
1000091c:	f7ff fe94 	bl	10000648 <add_alarm_under_lock>
10000920:	e7b6      	b.n	10000890 <alarm_pool_alarm_callback+0x11c>
10000922:	f000 f8bb 	bl	10000a9c <time_us_64>
10000926:	9a08      	ldr	r2, [sp, #32]
10000928:	9b09      	ldr	r3, [sp, #36]	; 0x24
1000092a:	0006      	movs	r6, r0
1000092c:	000f      	movs	r7, r1
1000092e:	1992      	adds	r2, r2, r6
10000930:	417b      	adcs	r3, r7
10000932:	4299      	cmp	r1, r3
10000934:	d9e5      	bls.n	10000902 <alarm_pool_alarm_callback+0x18e>
10000936:	2201      	movs	r2, #1
10000938:	4252      	negs	r2, r2
1000093a:	17d3      	asrs	r3, r2, #31
1000093c:	e7e3      	b.n	10000906 <alarm_pool_alarm_callback+0x192>
1000093e:	4296      	cmp	r6, r2
10000940:	d9e1      	bls.n	10000906 <alarm_pool_alarm_callback+0x192>
10000942:	2201      	movs	r2, #1
10000944:	4252      	negs	r2, r2
10000946:	17d3      	asrs	r3, r2, #31
10000948:	e7dd      	b.n	10000906 <alarm_pool_alarm_callback+0x192>
1000094a:	46c0      	nop			; (mov r8, r8)
1000094c:	20000b08 	.word	0x20000b08
10000950:	0fffffff 	.word	0x0fffffff

10000954 <alarm_pool_init_default>:
10000954:	b570      	push	{r4, r5, r6, lr}
10000956:	4c18      	ldr	r4, [pc, #96]	; (100009b8 <alarm_pool_init_default+0x64>)
10000958:	6823      	ldr	r3, [r4, #0]
1000095a:	2b00      	cmp	r3, #0
1000095c:	d000      	beq.n	10000960 <alarm_pool_init_default+0xc>
1000095e:	bd70      	pop	{r4, r5, r6, pc}
10000960:	2003      	movs	r0, #3
10000962:	f000 f88f 	bl	10000a84 <hardware_alarm_claim>
10000966:	2003      	movs	r0, #3
10000968:	f000 f94a 	bl	10000c00 <hardware_alarm_cancel>
1000096c:	4913      	ldr	r1, [pc, #76]	; (100009bc <alarm_pool_init_default+0x68>)
1000096e:	2003      	movs	r0, #3
10000970:	f000 f89e 	bl	10000ab0 <hardware_alarm_set_callback>
10000974:	2018      	movs	r0, #24
10000976:	f001 f8bd 	bl	10001af4 <__wrap_malloc>
1000097a:	0005      	movs	r5, r0
1000097c:	f7ff fdca 	bl	10000514 <next_striped_spin_lock_num>
10000980:	4b0f      	ldr	r3, [pc, #60]	; (100009c0 <alarm_pool_init_default+0x6c>)
10000982:	002a      	movs	r2, r5
10000984:	469c      	mov	ip, r3
10000986:	4460      	add	r0, ip
10000988:	0080      	lsls	r0, r0, #2
1000098a:	490e      	ldr	r1, [pc, #56]	; (100009c4 <alarm_pool_init_default+0x70>)
1000098c:	6068      	str	r0, [r5, #4]
1000098e:	2010      	movs	r0, #16
10000990:	f000 f99e 	bl	10000cd0 <ph_create>
10000994:	2110      	movs	r1, #16
10000996:	6028      	str	r0, [r5, #0]
10000998:	2010      	movs	r0, #16
1000099a:	f001 f8af 	bl	10001afc <__wrap_calloc>
1000099e:	2101      	movs	r1, #1
100009a0:	60a8      	str	r0, [r5, #8]
100009a2:	2010      	movs	r0, #16
100009a4:	f001 f8aa 	bl	10001afc <__wrap_calloc>
100009a8:	2303      	movs	r3, #3
100009aa:	752b      	strb	r3, [r5, #20]
100009ac:	4b06      	ldr	r3, [pc, #24]	; (100009c8 <alarm_pool_init_default+0x74>)
100009ae:	60e8      	str	r0, [r5, #12]
100009b0:	60dd      	str	r5, [r3, #12]
100009b2:	6025      	str	r5, [r4, #0]
100009b4:	e7d3      	b.n	1000095e <alarm_pool_init_default+0xa>
100009b6:	46c0      	nop			; (mov r8, r8)
100009b8:	20000af4 	.word	0x20000af4
100009bc:	10000775 	.word	0x10000775
100009c0:	34000040 	.word	0x34000040
100009c4:	10000615 	.word	0x10000615
100009c8:	20000b08 	.word	0x20000b08

100009cc <hardware_alarm_irq_handler>:
100009cc:	b5f0      	push	{r4, r5, r6, r7, lr}
100009ce:	46d6      	mov	lr, sl
100009d0:	464f      	mov	r7, r9
100009d2:	4646      	mov	r6, r8
100009d4:	b5c0      	push	{r6, r7, lr}
100009d6:	f3ef 8305 	mrs	r3, IPSR
100009da:	223f      	movs	r2, #63	; 0x3f
100009dc:	4013      	ands	r3, r2
100009de:	0018      	movs	r0, r3
100009e0:	3810      	subs	r0, #16
100009e2:	f3ef 8c10 	mrs	ip, PRIMASK
100009e6:	b672      	cpsid	i
100009e8:	4d20      	ldr	r5, [pc, #128]	; (10000a6c <hardware_alarm_irq_handler+0xa0>)
100009ea:	682a      	ldr	r2, [r5, #0]
100009ec:	2a00      	cmp	r2, #0
100009ee:	d0fc      	beq.n	100009ea <hardware_alarm_irq_handler+0x1e>
100009f0:	f3bf 8f5f 	dmb	sy
100009f4:	2201      	movs	r2, #1
100009f6:	0011      	movs	r1, r2
100009f8:	4081      	lsls	r1, r0
100009fa:	4c1d      	ldr	r4, [pc, #116]	; (10000a70 <hardware_alarm_irq_handler+0xa4>)
100009fc:	4688      	mov	r8, r1
100009fe:	6361      	str	r1, [r4, #52]	; 0x34
10000a00:	491c      	ldr	r1, [pc, #112]	; (10000a74 <hardware_alarm_irq_handler+0xa8>)
10000a02:	0017      	movs	r7, r2
10000a04:	780e      	ldrb	r6, [r1, #0]
10000a06:	468a      	mov	sl, r1
10000a08:	0031      	movs	r1, r6
10000a0a:	40c1      	lsrs	r1, r0
10000a0c:	400f      	ands	r7, r1
10000a0e:	420a      	tst	r2, r1
10000a10:	d015      	beq.n	10000a3e <hardware_alarm_irq_handler+0x72>
10000a12:	4919      	ldr	r1, [pc, #100]	; (10000a78 <hardware_alarm_irq_handler+0xac>)
10000a14:	0082      	lsls	r2, r0, #2
10000a16:	6a64      	ldr	r4, [r4, #36]	; 0x24
10000a18:	5851      	ldr	r1, [r2, r1]
10000a1a:	428c      	cmp	r4, r1
10000a1c:	d319      	bcc.n	10000a52 <hardware_alarm_irq_handler+0x86>
10000a1e:	4b17      	ldr	r3, [pc, #92]	; (10000a7c <hardware_alarm_irq_handler+0xb0>)
10000a20:	58d2      	ldr	r2, [r2, r3]
10000a22:	4643      	mov	r3, r8
10000a24:	439e      	bics	r6, r3
10000a26:	4653      	mov	r3, sl
10000a28:	701e      	strb	r6, [r3, #0]
10000a2a:	f3bf 8f5f 	dmb	sy
10000a2e:	2300      	movs	r3, #0
10000a30:	602b      	str	r3, [r5, #0]
10000a32:	f38c 8810 	msr	PRIMASK, ip
10000a36:	2a00      	cmp	r2, #0
10000a38:	d006      	beq.n	10000a48 <hardware_alarm_irq_handler+0x7c>
10000a3a:	4790      	blx	r2
10000a3c:	e004      	b.n	10000a48 <hardware_alarm_irq_handler+0x7c>
10000a3e:	f3bf 8f5f 	dmb	sy
10000a42:	602f      	str	r7, [r5, #0]
10000a44:	f38c 8810 	msr	PRIMASK, ip
10000a48:	bc1c      	pop	{r2, r3, r4}
10000a4a:	4690      	mov	r8, r2
10000a4c:	4699      	mov	r9, r3
10000a4e:	46a2      	mov	sl, r4
10000a50:	bdf0      	pop	{r4, r5, r6, r7, pc}
10000a52:	4a0b      	ldr	r2, [pc, #44]	; (10000a80 <hardware_alarm_irq_handler+0xb4>)
10000a54:	009b      	lsls	r3, r3, #2
10000a56:	4690      	mov	r8, r2
10000a58:	4443      	add	r3, r8
10000a5a:	681a      	ldr	r2, [r3, #0]
10000a5c:	601a      	str	r2, [r3, #0]
10000a5e:	f3bf 8f5f 	dmb	sy
10000a62:	2300      	movs	r3, #0
10000a64:	602b      	str	r3, [r5, #0]
10000a66:	f38c 8810 	msr	PRIMASK, ip
10000a6a:	e7ed      	b.n	10000a48 <hardware_alarm_irq_handler+0x7c>
10000a6c:	d0000128 	.word	0xd0000128
10000a70:	40054000 	.word	0x40054000
10000a74:	20000b2c 	.word	0x20000b2c
10000a78:	20000b18 	.word	0x20000b18
10000a7c:	20000abc 	.word	0x20000abc
10000a80:	40053fd0 	.word	0x40053fd0

10000a84 <hardware_alarm_claim>:
10000a84:	b510      	push	{r4, lr}
10000a86:	0001      	movs	r1, r0
10000a88:	4a02      	ldr	r2, [pc, #8]	; (10000a94 <hardware_alarm_claim+0x10>)
10000a8a:	4803      	ldr	r0, [pc, #12]	; (10000a98 <hardware_alarm_claim+0x14>)
10000a8c:	f7ff fcb6 	bl	100003fc <hw_claim_or_assert>
10000a90:	bd10      	pop	{r4, pc}
10000a92:	46c0      	nop			; (mov r8, r8)
10000a94:	1000280c 	.word	0x1000280c
10000a98:	20000b2a 	.word	0x20000b2a

10000a9c <time_us_64>:
10000a9c:	4b03      	ldr	r3, [pc, #12]	; (10000aac <time_us_64+0x10>)
10000a9e:	6a59      	ldr	r1, [r3, #36]	; 0x24
10000aa0:	000a      	movs	r2, r1
10000aa2:	6a98      	ldr	r0, [r3, #40]	; 0x28
10000aa4:	6a59      	ldr	r1, [r3, #36]	; 0x24
10000aa6:	428a      	cmp	r2, r1
10000aa8:	d1fa      	bne.n	10000aa0 <time_us_64+0x4>
10000aaa:	4770      	bx	lr
10000aac:	40054000 	.word	0x40054000

10000ab0 <hardware_alarm_set_callback>:
10000ab0:	b570      	push	{r4, r5, r6, lr}
10000ab2:	0004      	movs	r4, r0
10000ab4:	000d      	movs	r5, r1
10000ab6:	f3ef 8610 	mrs	r6, PRIMASK
10000aba:	b672      	cpsid	i
10000abc:	4a1a      	ldr	r2, [pc, #104]	; (10000b28 <hardware_alarm_set_callback+0x78>)
10000abe:	6813      	ldr	r3, [r2, #0]
10000ac0:	2b00      	cmp	r3, #0
10000ac2:	d0fc      	beq.n	10000abe <hardware_alarm_set_callback+0xe>
10000ac4:	f3bf 8f5f 	dmb	sy
10000ac8:	2d00      	cmp	r5, #0
10000aca:	d01b      	beq.n	10000b04 <hardware_alarm_set_callback+0x54>
10000acc:	0020      	movs	r0, r4
10000ace:	f000 fd4f 	bl	10001570 <irq_get_vtable_handler>
10000ad2:	4916      	ldr	r1, [pc, #88]	; (10000b2c <hardware_alarm_set_callback+0x7c>)
10000ad4:	4281      	cmp	r1, r0
10000ad6:	d00a      	beq.n	10000aee <hardware_alarm_set_callback+0x3e>
10000ad8:	0020      	movs	r0, r4
10000ada:	f000 fd51 	bl	10001580 <irq_set_exclusive_handler>
10000ade:	2101      	movs	r1, #1
10000ae0:	0020      	movs	r0, r4
10000ae2:	f000 fd33 	bl	1000154c <irq_set_enabled>
10000ae6:	2301      	movs	r3, #1
10000ae8:	40a3      	lsls	r3, r4
10000aea:	4a11      	ldr	r2, [pc, #68]	; (10000b30 <hardware_alarm_set_callback+0x80>)
10000aec:	6013      	str	r3, [r2, #0]
10000aee:	4b11      	ldr	r3, [pc, #68]	; (10000b34 <hardware_alarm_set_callback+0x84>)
10000af0:	00a4      	lsls	r4, r4, #2
10000af2:	50e5      	str	r5, [r4, r3]
10000af4:	f3bf 8f5f 	dmb	sy
10000af8:	2200      	movs	r2, #0
10000afa:	4b0b      	ldr	r3, [pc, #44]	; (10000b28 <hardware_alarm_set_callback+0x78>)
10000afc:	601a      	str	r2, [r3, #0]
10000afe:	f386 8810 	msr	PRIMASK, r6
10000b02:	bd70      	pop	{r4, r5, r6, pc}
10000b04:	4b0b      	ldr	r3, [pc, #44]	; (10000b34 <hardware_alarm_set_callback+0x84>)
10000b06:	00a2      	lsls	r2, r4, #2
10000b08:	50d5      	str	r5, [r2, r3]
10000b0a:	2201      	movs	r2, #1
10000b0c:	40a2      	lsls	r2, r4
10000b0e:	490a      	ldr	r1, [pc, #40]	; (10000b38 <hardware_alarm_set_callback+0x88>)
10000b10:	0020      	movs	r0, r4
10000b12:	780b      	ldrb	r3, [r1, #0]
10000b14:	4393      	bics	r3, r2
10000b16:	700b      	strb	r3, [r1, #0]
10000b18:	4904      	ldr	r1, [pc, #16]	; (10000b2c <hardware_alarm_set_callback+0x7c>)
10000b1a:	f000 fd5b 	bl	100015d4 <irq_remove_handler>
10000b1e:	2100      	movs	r1, #0
10000b20:	0020      	movs	r0, r4
10000b22:	f000 fd13 	bl	1000154c <irq_set_enabled>
10000b26:	e7e5      	b.n	10000af4 <hardware_alarm_set_callback+0x44>
10000b28:	d0000128 	.word	0xd0000128
10000b2c:	100009cd 	.word	0x100009cd
10000b30:	40056038 	.word	0x40056038
10000b34:	20000abc 	.word	0x20000abc
10000b38:	20000b2c 	.word	0x20000b2c

10000b3c <hardware_alarm_set_target>:
10000b3c:	b5f0      	push	{r4, r5, r6, r7, lr}
10000b3e:	46ce      	mov	lr, r9
10000b40:	4647      	mov	r7, r8
10000b42:	b580      	push	{r7, lr}
10000b44:	4c2a      	ldr	r4, [pc, #168]	; (10000bf0 <hardware_alarm_set_target+0xb4>)
10000b46:	6a61      	ldr	r1, [r4, #36]	; 0x24
10000b48:	000d      	movs	r5, r1
10000b4a:	6aa6      	ldr	r6, [r4, #40]	; 0x28
10000b4c:	6a61      	ldr	r1, [r4, #36]	; 0x24
10000b4e:	42a9      	cmp	r1, r5
10000b50:	d1fa      	bne.n	10000b48 <hardware_alarm_set_target+0xc>
10000b52:	428b      	cmp	r3, r1
10000b54:	d807      	bhi.n	10000b66 <hardware_alarm_set_target+0x2a>
10000b56:	d004      	beq.n	10000b62 <hardware_alarm_set_target+0x26>
10000b58:	2001      	movs	r0, #1
10000b5a:	bc0c      	pop	{r2, r3}
10000b5c:	4690      	mov	r8, r2
10000b5e:	4699      	mov	r9, r3
10000b60:	bdf0      	pop	{r4, r5, r6, r7, pc}
10000b62:	42b2      	cmp	r2, r6
10000b64:	d9f8      	bls.n	10000b58 <hardware_alarm_set_target+0x1c>
10000b66:	f3ef 8810 	mrs	r8, PRIMASK
10000b6a:	b672      	cpsid	i
10000b6c:	4c21      	ldr	r4, [pc, #132]	; (10000bf4 <hardware_alarm_set_target+0xb8>)
10000b6e:	6821      	ldr	r1, [r4, #0]
10000b70:	2900      	cmp	r1, #0
10000b72:	d0fc      	beq.n	10000b6e <hardware_alarm_set_target+0x32>
10000b74:	f3bf 8f5f 	dmb	sy
10000b78:	2501      	movs	r5, #1
10000b7a:	4085      	lsls	r5, r0
10000b7c:	4c1c      	ldr	r4, [pc, #112]	; (10000bf0 <hardware_alarm_set_target+0xb4>)
10000b7e:	4e1e      	ldr	r6, [pc, #120]	; (10000bf8 <hardware_alarm_set_target+0xbc>)
10000b80:	6365      	str	r5, [r4, #52]	; 0x34
10000b82:	b2e9      	uxtb	r1, r5
10000b84:	468c      	mov	ip, r1
10000b86:	7831      	ldrb	r1, [r6, #0]
10000b88:	4689      	mov	r9, r1
10000b8a:	4661      	mov	r1, ip
10000b8c:	464f      	mov	r7, r9
10000b8e:	4339      	orrs	r1, r7
10000b90:	7031      	strb	r1, [r6, #0]
10000b92:	1d01      	adds	r1, r0, #4
10000b94:	0089      	lsls	r1, r1, #2
10000b96:	510a      	str	r2, [r1, r4]
10000b98:	4918      	ldr	r1, [pc, #96]	; (10000bfc <hardware_alarm_set_target+0xc0>)
10000b9a:	0080      	lsls	r0, r0, #2
10000b9c:	5043      	str	r3, [r0, r1]
10000b9e:	6a21      	ldr	r1, [r4, #32]
10000ba0:	2000      	movs	r0, #0
10000ba2:	4229      	tst	r1, r5
10000ba4:	d00c      	beq.n	10000bc0 <hardware_alarm_set_target+0x84>
10000ba6:	0020      	movs	r0, r4
10000ba8:	6a61      	ldr	r1, [r4, #36]	; 0x24
10000baa:	000c      	movs	r4, r1
10000bac:	6a87      	ldr	r7, [r0, #40]	; 0x28
10000bae:	6a41      	ldr	r1, [r0, #36]	; 0x24
10000bb0:	42a1      	cmp	r1, r4
10000bb2:	d1fa      	bne.n	10000baa <hardware_alarm_set_target+0x6e>
10000bb4:	428b      	cmp	r3, r1
10000bb6:	d802      	bhi.n	10000bbe <hardware_alarm_set_target+0x82>
10000bb8:	d10a      	bne.n	10000bd0 <hardware_alarm_set_target+0x94>
10000bba:	42ba      	cmp	r2, r7
10000bbc:	d908      	bls.n	10000bd0 <hardware_alarm_set_target+0x94>
10000bbe:	2000      	movs	r0, #0
10000bc0:	f3bf 8f5f 	dmb	sy
10000bc4:	2200      	movs	r2, #0
10000bc6:	4b0b      	ldr	r3, [pc, #44]	; (10000bf4 <hardware_alarm_set_target+0xb8>)
10000bc8:	601a      	str	r2, [r3, #0]
10000bca:	f388 8810 	msr	PRIMASK, r8
10000bce:	e7c4      	b.n	10000b5a <hardware_alarm_set_target+0x1e>
10000bd0:	4b07      	ldr	r3, [pc, #28]	; (10000bf0 <hardware_alarm_set_target+0xb4>)
10000bd2:	464f      	mov	r7, r9
10000bd4:	621d      	str	r5, [r3, #32]
10000bd6:	635d      	str	r5, [r3, #52]	; 0x34
10000bd8:	4663      	mov	r3, ip
10000bda:	439f      	bics	r7, r3
10000bdc:	2001      	movs	r0, #1
10000bde:	7037      	strb	r7, [r6, #0]
10000be0:	f3bf 8f5f 	dmb	sy
10000be4:	2200      	movs	r2, #0
10000be6:	4b03      	ldr	r3, [pc, #12]	; (10000bf4 <hardware_alarm_set_target+0xb8>)
10000be8:	601a      	str	r2, [r3, #0]
10000bea:	f388 8810 	msr	PRIMASK, r8
10000bee:	e7b4      	b.n	10000b5a <hardware_alarm_set_target+0x1e>
10000bf0:	40054000 	.word	0x40054000
10000bf4:	d0000128 	.word	0xd0000128
10000bf8:	20000b2c 	.word	0x20000b2c
10000bfc:	20000b18 	.word	0x20000b18

10000c00 <hardware_alarm_cancel>:
10000c00:	b510      	push	{r4, lr}
10000c02:	f3ef 8410 	mrs	r4, PRIMASK
10000c06:	b672      	cpsid	i
10000c08:	490a      	ldr	r1, [pc, #40]	; (10000c34 <hardware_alarm_cancel+0x34>)
10000c0a:	680b      	ldr	r3, [r1, #0]
10000c0c:	2b00      	cmp	r3, #0
10000c0e:	d0fc      	beq.n	10000c0a <hardware_alarm_cancel+0xa>
10000c10:	f3bf 8f5f 	dmb	sy
10000c14:	2301      	movs	r3, #1
10000c16:	4083      	lsls	r3, r0
10000c18:	4a07      	ldr	r2, [pc, #28]	; (10000c38 <hardware_alarm_cancel+0x38>)
10000c1a:	4808      	ldr	r0, [pc, #32]	; (10000c3c <hardware_alarm_cancel+0x3c>)
10000c1c:	6213      	str	r3, [r2, #32]
10000c1e:	7802      	ldrb	r2, [r0, #0]
10000c20:	439a      	bics	r2, r3
10000c22:	7002      	strb	r2, [r0, #0]
10000c24:	f3bf 8f5f 	dmb	sy
10000c28:	2300      	movs	r3, #0
10000c2a:	600b      	str	r3, [r1, #0]
10000c2c:	f384 8810 	msr	PRIMASK, r4
10000c30:	bd10      	pop	{r4, pc}
10000c32:	46c0      	nop			; (mov r8, r8)
10000c34:	d0000128 	.word	0xd0000128
10000c38:	40054000 	.word	0x40054000
10000c3c:	20000b2c 	.word	0x20000b2c

10000c40 <lock_init>:
10000c40:	4b02      	ldr	r3, [pc, #8]	; (10000c4c <lock_init+0xc>)
10000c42:	469c      	mov	ip, r3
10000c44:	4461      	add	r1, ip
10000c46:	0089      	lsls	r1, r1, #2
10000c48:	6001      	str	r1, [r0, #0]
10000c4a:	4770      	bx	lr
10000c4c:	34000040 	.word	0x34000040

10000c50 <mutex_init>:
10000c50:	b510      	push	{r4, lr}
10000c52:	0004      	movs	r4, r0
10000c54:	f7ff fc5e 	bl	10000514 <next_striped_spin_lock_num>
10000c58:	0001      	movs	r1, r0
10000c5a:	0020      	movs	r0, r4
10000c5c:	f7ff fff0 	bl	10000c40 <lock_init>
10000c60:	f3bf 8f5f 	dmb	sy
10000c64:	bd10      	pop	{r4, pc}
10000c66:	46c0      	nop			; (mov r8, r8)

10000c68 <ph_merge_nodes>:
10000c68:	b570      	push	{r4, r5, r6, lr}
10000c6a:	0005      	movs	r5, r0
10000c6c:	000e      	movs	r6, r1
10000c6e:	0014      	movs	r4, r2
10000c70:	2900      	cmp	r1, #0
10000c72:	d024      	beq.n	10000cbe <ph_merge_nodes+0x56>
10000c74:	2a00      	cmp	r2, #0
10000c76:	d024      	beq.n	10000cc2 <ph_merge_nodes+0x5a>
10000c78:	6880      	ldr	r0, [r0, #8]
10000c7a:	686b      	ldr	r3, [r5, #4]
10000c7c:	4798      	blx	r3
10000c7e:	6829      	ldr	r1, [r5, #0]
10000c80:	2800      	cmp	r0, #0
10000c82:	d00e      	beq.n	10000ca2 <ph_merge_nodes+0x3a>
10000c84:	0063      	lsls	r3, r4, #1
10000c86:	191b      	adds	r3, r3, r4
10000c88:	0072      	lsls	r2, r6, #1
10000c8a:	3b03      	subs	r3, #3
10000c8c:	1992      	adds	r2, r2, r6
10000c8e:	18cb      	adds	r3, r1, r3
10000c90:	3a03      	subs	r2, #3
10000c92:	709e      	strb	r6, [r3, #2]
10000c94:	1888      	adds	r0, r1, r2
10000c96:	5c8a      	ldrb	r2, [r1, r2]
10000c98:	2a00      	cmp	r2, #0
10000c9a:	d114      	bne.n	10000cc6 <ph_merge_nodes+0x5e>
10000c9c:	7004      	strb	r4, [r0, #0]
10000c9e:	0030      	movs	r0, r6
10000ca0:	e00e      	b.n	10000cc0 <ph_merge_nodes+0x58>
10000ca2:	0073      	lsls	r3, r6, #1
10000ca4:	199b      	adds	r3, r3, r6
10000ca6:	0062      	lsls	r2, r4, #1
10000ca8:	3b03      	subs	r3, #3
10000caa:	1912      	adds	r2, r2, r4
10000cac:	18cb      	adds	r3, r1, r3
10000cae:	3a03      	subs	r2, #3
10000cb0:	709c      	strb	r4, [r3, #2]
10000cb2:	1888      	adds	r0, r1, r2
10000cb4:	5c8a      	ldrb	r2, [r1, r2]
10000cb6:	2a00      	cmp	r2, #0
10000cb8:	d000      	beq.n	10000cbc <ph_merge_nodes+0x54>
10000cba:	705a      	strb	r2, [r3, #1]
10000cbc:	7006      	strb	r6, [r0, #0]
10000cbe:	0020      	movs	r0, r4
10000cc0:	bd70      	pop	{r4, r5, r6, pc}
10000cc2:	0008      	movs	r0, r1
10000cc4:	e7fc      	b.n	10000cc0 <ph_merge_nodes+0x58>
10000cc6:	705a      	strb	r2, [r3, #1]
10000cc8:	7004      	strb	r4, [r0, #0]
10000cca:	0030      	movs	r0, r6
10000ccc:	e7f8      	b.n	10000cc0 <ph_merge_nodes+0x58>
10000cce:	46c0      	nop			; (mov r8, r8)

10000cd0 <ph_create>:
10000cd0:	b5f0      	push	{r4, r5, r6, r7, lr}
10000cd2:	46c6      	mov	lr, r8
10000cd4:	0005      	movs	r5, r0
10000cd6:	000f      	movs	r7, r1
10000cd8:	b500      	push	{lr}
10000cda:	2110      	movs	r1, #16
10000cdc:	2001      	movs	r0, #1
10000cde:	0016      	movs	r6, r2
10000ce0:	f000 ff0c 	bl	10001afc <__wrap_calloc>
10000ce4:	b2eb      	uxtb	r3, r5
10000ce6:	0004      	movs	r4, r0
10000ce8:	7303      	strb	r3, [r0, #12]
10000cea:	2103      	movs	r1, #3
10000cec:	6047      	str	r7, [r0, #4]
10000cee:	0028      	movs	r0, r5
10000cf0:	4698      	mov	r8, r3
10000cf2:	f000 ff03 	bl	10001afc <__wrap_calloc>
10000cf6:	2300      	movs	r3, #0
10000cf8:	7363      	strb	r3, [r4, #13]
10000cfa:	3301      	adds	r3, #1
10000cfc:	73a3      	strb	r3, [r4, #14]
10000cfe:	4643      	mov	r3, r8
10000d00:	21ff      	movs	r1, #255	; 0xff
10000d02:	73e3      	strb	r3, [r4, #15]
10000d04:	23fe      	movs	r3, #254	; 0xfe
10000d06:	6020      	str	r0, [r4, #0]
10000d08:	60a6      	str	r6, [r4, #8]
10000d0a:	4029      	ands	r1, r5
10000d0c:	422b      	tst	r3, r5
10000d0e:	d006      	beq.n	10000d1e <ph_create+0x4e>
10000d10:	1c42      	adds	r2, r0, #1
10000d12:	3bfd      	subs	r3, #253	; 0xfd
10000d14:	3301      	adds	r3, #1
10000d16:	7013      	strb	r3, [r2, #0]
10000d18:	3203      	adds	r2, #3
10000d1a:	428b      	cmp	r3, r1
10000d1c:	d3fa      	bcc.n	10000d14 <ph_create+0x44>
10000d1e:	004b      	lsls	r3, r1, #1
10000d20:	1859      	adds	r1, r3, r1
10000d22:	2300      	movs	r3, #0
10000d24:	1840      	adds	r0, r0, r1
10000d26:	3803      	subs	r0, #3
10000d28:	7043      	strb	r3, [r0, #1]
10000d2a:	0020      	movs	r0, r4
10000d2c:	bc04      	pop	{r2}
10000d2e:	4690      	mov	r8, r2
10000d30:	bdf0      	pop	{r4, r5, r6, r7, pc}
10000d32:	46c0      	nop			; (mov r8, r8)

10000d34 <ph_merge_two_pass>:
10000d34:	b5f8      	push	{r3, r4, r5, r6, r7, lr}
10000d36:	46ce      	mov	lr, r9
10000d38:	4647      	mov	r7, r8
10000d3a:	0006      	movs	r6, r0
10000d3c:	000c      	movs	r4, r1
10000d3e:	b580      	push	{r7, lr}
10000d40:	2900      	cmp	r1, #0
10000d42:	d007      	beq.n	10000d54 <ph_merge_two_pass+0x20>
10000d44:	004d      	lsls	r5, r1, #1
10000d46:	6803      	ldr	r3, [r0, #0]
10000d48:	186d      	adds	r5, r5, r1
10000d4a:	3d03      	subs	r5, #3
10000d4c:	195a      	adds	r2, r3, r5
10000d4e:	7857      	ldrb	r7, [r2, #1]
10000d50:	2f00      	cmp	r7, #0
10000d52:	d104      	bne.n	10000d5e <ph_merge_two_pass+0x2a>
10000d54:	0020      	movs	r0, r4
10000d56:	bc0c      	pop	{r2, r3}
10000d58:	4690      	mov	r8, r2
10000d5a:	4699      	mov	r9, r3
10000d5c:	bdf8      	pop	{r3, r4, r5, r6, r7, pc}
10000d5e:	0079      	lsls	r1, r7, #1
10000d60:	19c9      	adds	r1, r1, r7
10000d62:	3903      	subs	r1, #3
10000d64:	4688      	mov	r8, r1
10000d66:	4443      	add	r3, r8
10000d68:	7859      	ldrb	r1, [r3, #1]
10000d6a:	4689      	mov	r9, r1
10000d6c:	2100      	movs	r1, #0
10000d6e:	7059      	strb	r1, [r3, #1]
10000d70:	7051      	strb	r1, [r2, #1]
10000d72:	6873      	ldr	r3, [r6, #4]
10000d74:	003a      	movs	r2, r7
10000d76:	0021      	movs	r1, r4
10000d78:	6880      	ldr	r0, [r0, #8]
10000d7a:	4798      	blx	r3
10000d7c:	6833      	ldr	r3, [r6, #0]
10000d7e:	2800      	cmp	r0, #0
10000d80:	d014      	beq.n	10000dac <ph_merge_two_pass+0x78>
10000d82:	4642      	mov	r2, r8
10000d84:	189a      	adds	r2, r3, r2
10000d86:	7094      	strb	r4, [r2, #2]
10000d88:	1959      	adds	r1, r3, r5
10000d8a:	5d5b      	ldrb	r3, [r3, r5]
10000d8c:	2b00      	cmp	r3, #0
10000d8e:	d000      	beq.n	10000d92 <ph_merge_two_pass+0x5e>
10000d90:	7053      	strb	r3, [r2, #1]
10000d92:	700f      	strb	r7, [r1, #0]
10000d94:	0027      	movs	r7, r4
10000d96:	4649      	mov	r1, r9
10000d98:	0030      	movs	r0, r6
10000d9a:	f7ff ffcb 	bl	10000d34 <ph_merge_two_pass>
10000d9e:	0039      	movs	r1, r7
10000da0:	0002      	movs	r2, r0
10000da2:	0030      	movs	r0, r6
10000da4:	f7ff ff60 	bl	10000c68 <ph_merge_nodes>
10000da8:	0004      	movs	r4, r0
10000daa:	e7d3      	b.n	10000d54 <ph_merge_two_pass+0x20>
10000dac:	4642      	mov	r2, r8
10000dae:	4641      	mov	r1, r8
10000db0:	195d      	adds	r5, r3, r5
10000db2:	70af      	strb	r7, [r5, #2]
10000db4:	189a      	adds	r2, r3, r2
10000db6:	5c5b      	ldrb	r3, [r3, r1]
10000db8:	2b00      	cmp	r3, #0
10000dba:	d000      	beq.n	10000dbe <ph_merge_two_pass+0x8a>
10000dbc:	706b      	strb	r3, [r5, #1]
10000dbe:	7014      	strb	r4, [r2, #0]
10000dc0:	e7e9      	b.n	10000d96 <ph_merge_two_pass+0x62>
10000dc2:	46c0      	nop			; (mov r8, r8)

10000dc4 <ph_remove_any_head>:
10000dc4:	b5f0      	push	{r4, r5, r6, r7, lr}
10000dc6:	4657      	mov	r7, sl
10000dc8:	4645      	mov	r5, r8
10000dca:	46de      	mov	lr, fp
10000dcc:	464e      	mov	r6, r9
10000dce:	b5e0      	push	{r5, r6, r7, lr}
10000dd0:	000d      	movs	r5, r1
10000dd2:	006b      	lsls	r3, r5, #1
10000dd4:	6801      	ldr	r1, [r0, #0]
10000dd6:	195b      	adds	r3, r3, r5
10000dd8:	1edf      	subs	r7, r3, #3
10000dda:	0004      	movs	r4, r0
10000ddc:	5dc8      	ldrb	r0, [r1, r7]
10000dde:	b083      	sub	sp, #12
10000de0:	9201      	str	r2, [sp, #4]
10000de2:	19ca      	adds	r2, r1, r7
10000de4:	2800      	cmp	r0, #0
10000de6:	d04c      	beq.n	10000e82 <ph_remove_any_head+0xbe>
10000de8:	0043      	lsls	r3, r0, #1
10000dea:	181b      	adds	r3, r3, r0
10000dec:	3b03      	subs	r3, #3
10000dee:	18cb      	adds	r3, r1, r3
10000df0:	785e      	ldrb	r6, [r3, #1]
10000df2:	46b4      	mov	ip, r6
10000df4:	2e00      	cmp	r6, #0
10000df6:	d116      	bne.n	10000e26 <ph_remove_any_head+0x62>
10000df8:	9e01      	ldr	r6, [sp, #4]
10000dfa:	2e00      	cmp	r6, #0
10000dfc:	d13e      	bne.n	10000e7c <ph_remove_any_head+0xb8>
10000dfe:	7be6      	ldrb	r6, [r4, #15]
10000e00:	2e00      	cmp	r6, #0
10000e02:	d004      	beq.n	10000e0e <ph_remove_any_head+0x4a>
10000e04:	0073      	lsls	r3, r6, #1
10000e06:	199b      	adds	r3, r3, r6
10000e08:	18cb      	adds	r3, r1, r3
10000e0a:	3b03      	subs	r3, #3
10000e0c:	705d      	strb	r5, [r3, #1]
10000e0e:	73e5      	strb	r5, [r4, #15]
10000e10:	2800      	cmp	r0, #0
10000e12:	d12f      	bne.n	10000e74 <ph_remove_any_head+0xb0>
10000e14:	2300      	movs	r3, #0
10000e16:	7053      	strb	r3, [r2, #1]
10000e18:	b003      	add	sp, #12
10000e1a:	bc3c      	pop	{r2, r3, r4, r5}
10000e1c:	4690      	mov	r8, r2
10000e1e:	4699      	mov	r9, r3
10000e20:	46a2      	mov	sl, r4
10000e22:	46ab      	mov	fp, r5
10000e24:	bdf0      	pop	{r4, r5, r6, r7, pc}
10000e26:	0072      	lsls	r2, r6, #1
10000e28:	4462      	add	r2, ip
10000e2a:	3a03      	subs	r2, #3
10000e2c:	1889      	adds	r1, r1, r2
10000e2e:	784a      	ldrb	r2, [r1, #1]
10000e30:	4690      	mov	r8, r2
10000e32:	2200      	movs	r2, #0
10000e34:	704a      	strb	r2, [r1, #1]
10000e36:	4691      	mov	r9, r2
10000e38:	705a      	strb	r2, [r3, #1]
10000e3a:	0001      	movs	r1, r0
10000e3c:	0032      	movs	r2, r6
10000e3e:	0020      	movs	r0, r4
10000e40:	f7ff ff12 	bl	10000c68 <ph_merge_nodes>
10000e44:	4643      	mov	r3, r8
10000e46:	4682      	mov	sl, r0
10000e48:	2b00      	cmp	r3, #0
10000e4a:	d007      	beq.n	10000e5c <ph_remove_any_head+0x98>
10000e4c:	005b      	lsls	r3, r3, #1
10000e4e:	6821      	ldr	r1, [r4, #0]
10000e50:	4443      	add	r3, r8
10000e52:	3b03      	subs	r3, #3
10000e54:	18cb      	adds	r3, r1, r3
10000e56:	785a      	ldrb	r2, [r3, #1]
10000e58:	2a00      	cmp	r2, #0
10000e5a:	d116      	bne.n	10000e8a <ph_remove_any_head+0xc6>
10000e5c:	4642      	mov	r2, r8
10000e5e:	4651      	mov	r1, sl
10000e60:	0020      	movs	r0, r4
10000e62:	f7ff ff01 	bl	10000c68 <ph_merge_nodes>
10000e66:	6821      	ldr	r1, [r4, #0]
10000e68:	9b01      	ldr	r3, [sp, #4]
10000e6a:	19ca      	adds	r2, r1, r7
10000e6c:	2b00      	cmp	r3, #0
10000e6e:	d0c6      	beq.n	10000dfe <ph_remove_any_head+0x3a>
10000e70:	2800      	cmp	r0, #0
10000e72:	d0cf      	beq.n	10000e14 <ph_remove_any_head+0x50>
10000e74:	0043      	lsls	r3, r0, #1
10000e76:	181b      	adds	r3, r3, r0
10000e78:	3b03      	subs	r3, #3
10000e7a:	18cb      	adds	r3, r1, r3
10000e7c:	2100      	movs	r1, #0
10000e7e:	7099      	strb	r1, [r3, #2]
10000e80:	e7c8      	b.n	10000e14 <ph_remove_any_head+0x50>
10000e82:	9b01      	ldr	r3, [sp, #4]
10000e84:	2b00      	cmp	r3, #0
10000e86:	d1c5      	bne.n	10000e14 <ph_remove_any_head+0x50>
10000e88:	e7b9      	b.n	10000dfe <ph_remove_any_head+0x3a>
10000e8a:	0050      	lsls	r0, r2, #1
10000e8c:	1880      	adds	r0, r0, r2
10000e8e:	3803      	subs	r0, #3
10000e90:	1809      	adds	r1, r1, r0
10000e92:	7848      	ldrb	r0, [r1, #1]
10000e94:	4683      	mov	fp, r0
10000e96:	4648      	mov	r0, r9
10000e98:	7048      	strb	r0, [r1, #1]
10000e9a:	7058      	strb	r0, [r3, #1]
10000e9c:	4641      	mov	r1, r8
10000e9e:	0020      	movs	r0, r4
10000ea0:	f7ff fee2 	bl	10000c68 <ph_merge_nodes>
10000ea4:	4659      	mov	r1, fp
10000ea6:	4680      	mov	r8, r0
10000ea8:	0020      	movs	r0, r4
10000eaa:	f7ff ff43 	bl	10000d34 <ph_merge_two_pass>
10000eae:	4641      	mov	r1, r8
10000eb0:	0002      	movs	r2, r0
10000eb2:	0020      	movs	r0, r4
10000eb4:	f7ff fed8 	bl	10000c68 <ph_merge_nodes>
10000eb8:	4680      	mov	r8, r0
10000eba:	e7cf      	b.n	10000e5c <ph_remove_any_head+0x98>

10000ebc <ph_remove_head_reserve>:
10000ebc:	b5f0      	push	{r4, r5, r6, r7, lr}
10000ebe:	464e      	mov	r6, r9
10000ec0:	4645      	mov	r5, r8
10000ec2:	46de      	mov	lr, fp
10000ec4:	4657      	mov	r7, sl
10000ec6:	b5e0      	push	{r5, r6, r7, lr}
10000ec8:	7b46      	ldrb	r6, [r0, #13]
10000eca:	0004      	movs	r4, r0
10000ecc:	0075      	lsls	r5, r6, #1
10000ece:	6800      	ldr	r0, [r0, #0]
10000ed0:	19ad      	adds	r5, r5, r6
10000ed2:	3d03      	subs	r5, #3
10000ed4:	b083      	sub	sp, #12
10000ed6:	9101      	str	r1, [sp, #4]
10000ed8:	5d41      	ldrb	r1, [r0, r5]
10000eda:	1942      	adds	r2, r0, r5
10000edc:	2900      	cmp	r1, #0
10000ede:	d04e      	beq.n	10000f7e <ph_remove_head_reserve+0xc2>
10000ee0:	004b      	lsls	r3, r1, #1
10000ee2:	185b      	adds	r3, r3, r1
10000ee4:	3b03      	subs	r3, #3
10000ee6:	18c3      	adds	r3, r0, r3
10000ee8:	785f      	ldrb	r7, [r3, #1]
10000eea:	46bc      	mov	ip, r7
10000eec:	2f00      	cmp	r7, #0
10000eee:	d118      	bne.n	10000f22 <ph_remove_head_reserve+0x66>
10000ef0:	9d01      	ldr	r5, [sp, #4]
10000ef2:	2d00      	cmp	r5, #0
10000ef4:	d140      	bne.n	10000f78 <ph_remove_head_reserve+0xbc>
10000ef6:	7be5      	ldrb	r5, [r4, #15]
10000ef8:	2d00      	cmp	r5, #0
10000efa:	d004      	beq.n	10000f06 <ph_remove_head_reserve+0x4a>
10000efc:	006b      	lsls	r3, r5, #1
10000efe:	195b      	adds	r3, r3, r5
10000f00:	18c3      	adds	r3, r0, r3
10000f02:	3b03      	subs	r3, #3
10000f04:	705e      	strb	r6, [r3, #1]
10000f06:	73e6      	strb	r6, [r4, #15]
10000f08:	2900      	cmp	r1, #0
10000f0a:	d131      	bne.n	10000f70 <ph_remove_head_reserve+0xb4>
10000f0c:	2300      	movs	r3, #0
10000f0e:	0030      	movs	r0, r6
10000f10:	7053      	strb	r3, [r2, #1]
10000f12:	7361      	strb	r1, [r4, #13]
10000f14:	b003      	add	sp, #12
10000f16:	bc3c      	pop	{r2, r3, r4, r5}
10000f18:	4690      	mov	r8, r2
10000f1a:	4699      	mov	r9, r3
10000f1c:	46a2      	mov	sl, r4
10000f1e:	46ab      	mov	fp, r5
10000f20:	bdf0      	pop	{r4, r5, r6, r7, pc}
10000f22:	007a      	lsls	r2, r7, #1
10000f24:	4462      	add	r2, ip
10000f26:	3a03      	subs	r2, #3
10000f28:	1880      	adds	r0, r0, r2
10000f2a:	7842      	ldrb	r2, [r0, #1]
10000f2c:	4693      	mov	fp, r2
10000f2e:	2200      	movs	r2, #0
10000f30:	7042      	strb	r2, [r0, #1]
10000f32:	4691      	mov	r9, r2
10000f34:	705a      	strb	r2, [r3, #1]
10000f36:	0020      	movs	r0, r4
10000f38:	003a      	movs	r2, r7
10000f3a:	f7ff fe95 	bl	10000c68 <ph_merge_nodes>
10000f3e:	465b      	mov	r3, fp
10000f40:	4680      	mov	r8, r0
10000f42:	2b00      	cmp	r3, #0
10000f44:	d007      	beq.n	10000f56 <ph_remove_head_reserve+0x9a>
10000f46:	005b      	lsls	r3, r3, #1
10000f48:	6821      	ldr	r1, [r4, #0]
10000f4a:	445b      	add	r3, fp
10000f4c:	3b03      	subs	r3, #3
10000f4e:	18cb      	adds	r3, r1, r3
10000f50:	785a      	ldrb	r2, [r3, #1]
10000f52:	2a00      	cmp	r2, #0
10000f54:	d117      	bne.n	10000f86 <ph_remove_head_reserve+0xca>
10000f56:	465a      	mov	r2, fp
10000f58:	4641      	mov	r1, r8
10000f5a:	0020      	movs	r0, r4
10000f5c:	f7ff fe84 	bl	10000c68 <ph_merge_nodes>
10000f60:	9b01      	ldr	r3, [sp, #4]
10000f62:	0001      	movs	r1, r0
10000f64:	6820      	ldr	r0, [r4, #0]
10000f66:	1942      	adds	r2, r0, r5
10000f68:	2b00      	cmp	r3, #0
10000f6a:	d0c4      	beq.n	10000ef6 <ph_remove_head_reserve+0x3a>
10000f6c:	2900      	cmp	r1, #0
10000f6e:	d0cd      	beq.n	10000f0c <ph_remove_head_reserve+0x50>
10000f70:	004b      	lsls	r3, r1, #1
10000f72:	185b      	adds	r3, r3, r1
10000f74:	3b03      	subs	r3, #3
10000f76:	18c3      	adds	r3, r0, r3
10000f78:	2000      	movs	r0, #0
10000f7a:	7098      	strb	r0, [r3, #2]
10000f7c:	e7c6      	b.n	10000f0c <ph_remove_head_reserve+0x50>
10000f7e:	9b01      	ldr	r3, [sp, #4]
10000f80:	2b00      	cmp	r3, #0
10000f82:	d1c3      	bne.n	10000f0c <ph_remove_head_reserve+0x50>
10000f84:	e7b7      	b.n	10000ef6 <ph_remove_head_reserve+0x3a>
10000f86:	0050      	lsls	r0, r2, #1
10000f88:	1880      	adds	r0, r0, r2
10000f8a:	3803      	subs	r0, #3
10000f8c:	1809      	adds	r1, r1, r0
10000f8e:	7848      	ldrb	r0, [r1, #1]
10000f90:	4682      	mov	sl, r0
10000f92:	4648      	mov	r0, r9
10000f94:	7048      	strb	r0, [r1, #1]
10000f96:	7058      	strb	r0, [r3, #1]
10000f98:	4659      	mov	r1, fp
10000f9a:	0020      	movs	r0, r4
10000f9c:	f7ff fe64 	bl	10000c68 <ph_merge_nodes>
10000fa0:	4653      	mov	r3, sl
10000fa2:	4683      	mov	fp, r0
10000fa4:	2b00      	cmp	r3, #0
10000fa6:	d007      	beq.n	10000fb8 <ph_remove_head_reserve+0xfc>
10000fa8:	005b      	lsls	r3, r3, #1
10000faa:	6821      	ldr	r1, [r4, #0]
10000fac:	4453      	add	r3, sl
10000fae:	3b03      	subs	r3, #3
10000fb0:	18cb      	adds	r3, r1, r3
10000fb2:	785a      	ldrb	r2, [r3, #1]
10000fb4:	2a00      	cmp	r2, #0
10000fb6:	d106      	bne.n	10000fc6 <ph_remove_head_reserve+0x10a>
10000fb8:	4659      	mov	r1, fp
10000fba:	4652      	mov	r2, sl
10000fbc:	0020      	movs	r0, r4
10000fbe:	f7ff fe53 	bl	10000c68 <ph_merge_nodes>
10000fc2:	4683      	mov	fp, r0
10000fc4:	e7c7      	b.n	10000f56 <ph_remove_head_reserve+0x9a>
10000fc6:	0050      	lsls	r0, r2, #1
10000fc8:	1880      	adds	r0, r0, r2
10000fca:	3803      	subs	r0, #3
10000fcc:	1809      	adds	r1, r1, r0
10000fce:	4648      	mov	r0, r9
10000fd0:	784f      	ldrb	r7, [r1, #1]
10000fd2:	7048      	strb	r0, [r1, #1]
10000fd4:	7058      	strb	r0, [r3, #1]
10000fd6:	4651      	mov	r1, sl
10000fd8:	0020      	movs	r0, r4
10000fda:	f7ff fe45 	bl	10000c68 <ph_merge_nodes>
10000fde:	0039      	movs	r1, r7
10000fe0:	4681      	mov	r9, r0
10000fe2:	0020      	movs	r0, r4
10000fe4:	f7ff fea6 	bl	10000d34 <ph_merge_two_pass>
10000fe8:	4649      	mov	r1, r9
10000fea:	0002      	movs	r2, r0
10000fec:	0020      	movs	r0, r4
10000fee:	f7ff fe3b 	bl	10000c68 <ph_merge_nodes>
10000ff2:	4682      	mov	sl, r0
10000ff4:	e7e0      	b.n	10000fb8 <ph_remove_head_reserve+0xfc>
10000ff6:	46c0      	nop			; (mov r8, r8)

10000ff8 <ph_delete>:
10000ff8:	b570      	push	{r4, r5, r6, lr}
10000ffa:	0004      	movs	r4, r0
10000ffc:	2900      	cmp	r1, #0
10000ffe:	d02c      	beq.n	1000105a <ph_delete+0x62>
10001000:	7b43      	ldrb	r3, [r0, #13]
10001002:	428b      	cmp	r3, r1
10001004:	d02e      	beq.n	10001064 <ph_delete+0x6c>
10001006:	6805      	ldr	r5, [r0, #0]
10001008:	0048      	lsls	r0, r1, #1
1000100a:	1840      	adds	r0, r0, r1
1000100c:	3803      	subs	r0, #3
1000100e:	1828      	adds	r0, r5, r0
10001010:	7882      	ldrb	r2, [r0, #2]
10001012:	2a00      	cmp	r2, #0
10001014:	d021      	beq.n	1000105a <ph_delete+0x62>
10001016:	0053      	lsls	r3, r2, #1
10001018:	189b      	adds	r3, r3, r2
1000101a:	3b03      	subs	r3, #3
1000101c:	5cea      	ldrb	r2, [r5, r3]
1000101e:	18ee      	adds	r6, r5, r3
10001020:	428a      	cmp	r2, r1
10001022:	d102      	bne.n	1000102a <ph_delete+0x32>
10001024:	e01b      	b.n	1000105e <ph_delete+0x66>
10001026:	2a00      	cmp	r2, #0
10001028:	d008      	beq.n	1000103c <ph_delete+0x44>
1000102a:	0053      	lsls	r3, r2, #1
1000102c:	189b      	adds	r3, r3, r2
1000102e:	3b03      	subs	r3, #3
10001030:	18eb      	adds	r3, r5, r3
10001032:	785a      	ldrb	r2, [r3, #1]
10001034:	428a      	cmp	r2, r1
10001036:	d1f6      	bne.n	10001026 <ph_delete+0x2e>
10001038:	7842      	ldrb	r2, [r0, #1]
1000103a:	705a      	strb	r2, [r3, #1]
1000103c:	2300      	movs	r3, #0
1000103e:	2200      	movs	r2, #0
10001040:	7083      	strb	r3, [r0, #2]
10001042:	7043      	strb	r3, [r0, #1]
10001044:	0020      	movs	r0, r4
10001046:	f7ff febd 	bl	10000dc4 <ph_remove_any_head>
1000104a:	7b61      	ldrb	r1, [r4, #13]
1000104c:	0002      	movs	r2, r0
1000104e:	0020      	movs	r0, r4
10001050:	f7ff fe0a 	bl	10000c68 <ph_merge_nodes>
10001054:	7360      	strb	r0, [r4, #13]
10001056:	2001      	movs	r0, #1
10001058:	e000      	b.n	1000105c <ph_delete+0x64>
1000105a:	2000      	movs	r0, #0
1000105c:	bd70      	pop	{r4, r5, r6, pc}
1000105e:	7843      	ldrb	r3, [r0, #1]
10001060:	7033      	strb	r3, [r6, #0]
10001062:	e7eb      	b.n	1000103c <ph_delete+0x44>
10001064:	2200      	movs	r2, #0
10001066:	0019      	movs	r1, r3
10001068:	f7ff feac 	bl	10000dc4 <ph_remove_any_head>
1000106c:	7360      	strb	r0, [r4, #13]
1000106e:	2001      	movs	r0, #1
10001070:	e7f4      	b.n	1000105c <ph_delete+0x64>
10001072:	46c0      	nop			; (mov r8, r8)

10001074 <runtime_init>:
10001074:	4b2b      	ldr	r3, [pc, #172]	; (10001124 <runtime_init+0xb0>)
10001076:	4a2c      	ldr	r2, [pc, #176]	; (10001128 <runtime_init+0xb4>)
10001078:	b570      	push	{r4, r5, r6, lr}
1000107a:	601a      	str	r2, [r3, #0]
1000107c:	4a2b      	ldr	r2, [pc, #172]	; (1000112c <runtime_init+0xb8>)
1000107e:	4b2c      	ldr	r3, [pc, #176]	; (10001130 <runtime_init+0xbc>)
10001080:	492c      	ldr	r1, [pc, #176]	; (10001134 <runtime_init+0xc0>)
10001082:	601a      	str	r2, [r3, #0]
10001084:	0010      	movs	r0, r2
10001086:	688b      	ldr	r3, [r1, #8]
10001088:	4398      	bics	r0, r3
1000108a:	d1fb      	bne.n	10001084 <runtime_init+0x10>
1000108c:	4c2a      	ldr	r4, [pc, #168]	; (10001138 <runtime_init+0xc4>)
1000108e:	4b2b      	ldr	r3, [pc, #172]	; (1000113c <runtime_init+0xc8>)
10001090:	429c      	cmp	r4, r3
10001092:	d209      	bcs.n	100010a8 <runtime_init+0x34>
10001094:	3b01      	subs	r3, #1
10001096:	1b1d      	subs	r5, r3, r4
10001098:	08ad      	lsrs	r5, r5, #2
1000109a:	3501      	adds	r5, #1
1000109c:	00ad      	lsls	r5, r5, #2
1000109e:	192d      	adds	r5, r5, r4
100010a0:	cc08      	ldmia	r4!, {r3}
100010a2:	4798      	blx	r3
100010a4:	42ac      	cmp	r4, r5
100010a6:	d1fb      	bne.n	100010a0 <runtime_init+0x2c>
100010a8:	f000 f894 	bl	100011d4 <clocks_init>
100010ac:	4a24      	ldr	r2, [pc, #144]	; (10001140 <runtime_init+0xcc>)
100010ae:	4b20      	ldr	r3, [pc, #128]	; (10001130 <runtime_init+0xbc>)
100010b0:	601a      	str	r2, [r3, #0]
100010b2:	4a20      	ldr	r2, [pc, #128]	; (10001134 <runtime_init+0xc0>)
100010b4:	6893      	ldr	r3, [r2, #8]
100010b6:	01db      	lsls	r3, r3, #7
100010b8:	3380      	adds	r3, #128	; 0x80
100010ba:	d1fb      	bne.n	100010b4 <runtime_init+0x40>
100010bc:	2240      	movs	r2, #64	; 0x40
100010be:	4b21      	ldr	r3, [pc, #132]	; (10001144 <runtime_init+0xd0>)
100010c0:	4c21      	ldr	r4, [pc, #132]	; (10001148 <runtime_init+0xd4>)
100010c2:	679a      	str	r2, [r3, #120]	; 0x78
100010c4:	675a      	str	r2, [r3, #116]	; 0x74
100010c6:	671a      	str	r2, [r3, #112]	; 0x70
100010c8:	66da      	str	r2, [r3, #108]	; 0x6c
100010ca:	4b20      	ldr	r3, [pc, #128]	; (1000114c <runtime_init+0xd8>)
100010cc:	429c      	cmp	r4, r3
100010ce:	d20b      	bcs.n	100010e8 <runtime_init+0x74>
100010d0:	3b01      	subs	r3, #1
100010d2:	1b1d      	subs	r5, r3, r4
100010d4:	08ed      	lsrs	r5, r5, #3
100010d6:	3501      	adds	r5, #1
100010d8:	00ed      	lsls	r5, r5, #3
100010da:	192d      	adds	r5, r5, r4
100010dc:	0020      	movs	r0, r4
100010de:	3408      	adds	r4, #8
100010e0:	f7ff fdb6 	bl	10000c50 <mutex_init>
100010e4:	42ac      	cmp	r4, r5
100010e6:	d1f9      	bne.n	100010dc <runtime_init+0x68>
100010e8:	4c19      	ldr	r4, [pc, #100]	; (10001150 <runtime_init+0xdc>)
100010ea:	4d1a      	ldr	r5, [pc, #104]	; (10001154 <runtime_init+0xe0>)
100010ec:	68a1      	ldr	r1, [r4, #8]
100010ee:	22c0      	movs	r2, #192	; 0xc0
100010f0:	0028      	movs	r0, r5
100010f2:	f000 fd15 	bl	10001b20 <__wrap___aeabi_memcpy>
100010f6:	60a5      	str	r5, [r4, #8]
100010f8:	f7ff f9fe 	bl	100004f8 <spin_locks_reset>
100010fc:	f000 fbaa 	bl	10001854 <irq_init_priorities>
10001100:	f7ff fc28 	bl	10000954 <alarm_pool_init_default>
10001104:	4c14      	ldr	r4, [pc, #80]	; (10001158 <runtime_init+0xe4>)
10001106:	4b15      	ldr	r3, [pc, #84]	; (1000115c <runtime_init+0xe8>)
10001108:	429c      	cmp	r4, r3
1000110a:	d209      	bcs.n	10001120 <runtime_init+0xac>
1000110c:	3b01      	subs	r3, #1
1000110e:	1b1d      	subs	r5, r3, r4
10001110:	08ad      	lsrs	r5, r5, #2
10001112:	3501      	adds	r5, #1
10001114:	00ad      	lsls	r5, r5, #2
10001116:	192d      	adds	r5, r5, r4
10001118:	cc08      	ldmia	r4!, {r3}
1000111a:	4798      	blx	r3
1000111c:	42a5      	cmp	r5, r4
1000111e:	d1fb      	bne.n	10001118 <runtime_init+0xa4>
10001120:	bd70      	pop	{r4, r5, r6, pc}
10001122:	46c0      	nop			; (mov r8, r8)
10001124:	4000e000 	.word	0x4000e000
10001128:	ffffcdbf 	.word	0xffffcdbf
1000112c:	003c7ffe 	.word	0x003c7ffe
10001130:	4000f000 	.word	0x4000f000
10001134:	4000c000 	.word	0x4000c000
10001138:	20000a58 	.word	0x20000a58
1000113c:	20000a68 	.word	0x20000a68
10001140:	01ffffff 	.word	0x01ffffff
10001144:	4001f000 	.word	0x4001f000
10001148:	20000a50 	.word	0x20000a50
1000114c:	20000a58 	.word	0x20000a58
10001150:	e000ed00 	.word	0xe000ed00
10001154:	20000000 	.word	0x20000000
10001158:	20000a68 	.word	0x20000a68
1000115c:	20000a6c 	.word	0x20000a6c

10001160 <_sbrk>:
10001160:	4a09      	ldr	r2, [pc, #36]	; (10001188 <_sbrk+0x28>)
10001162:	0003      	movs	r3, r0
10001164:	6810      	ldr	r0, [r2, #0]
10001166:	2800      	cmp	r0, #0
10001168:	d005      	beq.n	10001176 <_sbrk+0x16>
1000116a:	4908      	ldr	r1, [pc, #32]	; (1000118c <_sbrk+0x2c>)
1000116c:	18c3      	adds	r3, r0, r3
1000116e:	428b      	cmp	r3, r1
10001170:	d207      	bcs.n	10001182 <_sbrk+0x22>
10001172:	6013      	str	r3, [r2, #0]
10001174:	4770      	bx	lr
10001176:	4806      	ldr	r0, [pc, #24]	; (10001190 <_sbrk+0x30>)
10001178:	4904      	ldr	r1, [pc, #16]	; (1000118c <_sbrk+0x2c>)
1000117a:	18c3      	adds	r3, r0, r3
1000117c:	6010      	str	r0, [r2, #0]
1000117e:	428b      	cmp	r3, r1
10001180:	d3f7      	bcc.n	10001172 <_sbrk+0x12>
10001182:	2001      	movs	r0, #1
10001184:	4240      	negs	r0, r0
10001186:	e7f5      	b.n	10001174 <_sbrk+0x14>
10001188:	20000b00 	.word	0x20000b00
1000118c:	20040000 	.word	0x20040000
10001190:	20000d60 	.word	0x20000d60

10001194 <exit>:
10001194:	be00      	bkpt	0x0000
10001196:	e7fd      	b.n	10001194 <exit>

10001198 <panic>:
10001198:	b40f      	push	{r0, r1, r2, r3}
1000119a:	b500      	push	{lr}
1000119c:	4808      	ldr	r0, [pc, #32]	; (100011c0 <panic+0x28>)
1000119e:	b083      	sub	sp, #12
100011a0:	f000 fd94 	bl	10001ccc <__wrap_puts>
100011a4:	9b04      	ldr	r3, [sp, #16]
100011a6:	2b00      	cmp	r3, #0
100011a8:	d007      	beq.n	100011ba <panic+0x22>
100011aa:	a905      	add	r1, sp, #20
100011ac:	0018      	movs	r0, r3
100011ae:	9101      	str	r1, [sp, #4]
100011b0:	f000 fb74 	bl	1000189c <weak_raw_vprintf>
100011b4:	4803      	ldr	r0, [pc, #12]	; (100011c4 <panic+0x2c>)
100011b6:	f000 fd89 	bl	10001ccc <__wrap_puts>
100011ba:	be00      	bkpt	0x0000
100011bc:	e7fd      	b.n	100011ba <panic+0x22>
100011be:	46c0      	nop			; (mov r8, r8)
100011c0:	10002830 	.word	0x10002830
100011c4:	10002840 	.word	0x10002840

100011c8 <hard_assertion_failure>:
100011c8:	b510      	push	{r4, lr}
100011ca:	4801      	ldr	r0, [pc, #4]	; (100011d0 <hard_assertion_failure+0x8>)
100011cc:	f7ff ffe4 	bl	10001198 <panic>
100011d0:	10002844 	.word	0x10002844

100011d4 <clocks_init>:
100011d4:	b530      	push	{r4, r5, lr}
100011d6:	200c      	movs	r0, #12
100011d8:	b083      	sub	sp, #12
100011da:	f000 f971 	bl	100014c0 <watchdog_start_tick>
100011de:	f7ff f9a5 	bl	1000052c <running_on_fpga>
100011e2:	2800      	cmp	r0, #0
100011e4:	d00e      	beq.n	10001204 <clocks_init+0x30>
100011e6:	4b9a      	ldr	r3, [pc, #616]	; (10001450 <clocks_init+0x27c>)
100011e8:	4a9a      	ldr	r2, [pc, #616]	; (10001454 <clocks_init+0x280>)
100011ea:	601a      	str	r2, [r3, #0]
100011ec:	605a      	str	r2, [r3, #4]
100011ee:	609a      	str	r2, [r3, #8]
100011f0:	60da      	str	r2, [r3, #12]
100011f2:	611a      	str	r2, [r3, #16]
100011f4:	615a      	str	r2, [r3, #20]
100011f6:	619a      	str	r2, [r3, #24]
100011f8:	61da      	str	r2, [r3, #28]
100011fa:	621a      	str	r2, [r3, #32]
100011fc:	4a96      	ldr	r2, [pc, #600]	; (10001458 <clocks_init+0x284>)
100011fe:	625a      	str	r2, [r3, #36]	; 0x24
10001200:	b003      	add	sp, #12
10001202:	bd30      	pop	{r4, r5, pc}
10001204:	4c95      	ldr	r4, [pc, #596]	; (1000145c <clocks_init+0x288>)
10001206:	67a0      	str	r0, [r4, #120]	; 0x78
10001208:	f000 f962 	bl	100014d0 <xosc_init>
1000120c:	2201      	movs	r2, #1
1000120e:	4b94      	ldr	r3, [pc, #592]	; (10001460 <clocks_init+0x28c>)
10001210:	601a      	str	r2, [r3, #0]
10001212:	6c63      	ldr	r3, [r4, #68]	; 0x44
10001214:	2b01      	cmp	r3, #1
10001216:	d1fc      	bne.n	10001212 <clocks_init+0x3e>
10001218:	2203      	movs	r2, #3
1000121a:	4b92      	ldr	r3, [pc, #584]	; (10001464 <clocks_init+0x290>)
1000121c:	601a      	str	r2, [r3, #0]
1000121e:	4a8f      	ldr	r2, [pc, #572]	; (1000145c <clocks_init+0x288>)
10001220:	6b93      	ldr	r3, [r2, #56]	; 0x38
10001222:	2b01      	cmp	r3, #1
10001224:	d1fc      	bne.n	10001220 <clocks_init+0x4c>
10001226:	22c0      	movs	r2, #192	; 0xc0
10001228:	4b8f      	ldr	r3, [pc, #572]	; (10001468 <clocks_init+0x294>)
1000122a:	0192      	lsls	r2, r2, #6
1000122c:	601a      	str	r2, [r3, #0]
1000122e:	4b8f      	ldr	r3, [pc, #572]	; (1000146c <clocks_init+0x298>)
10001230:	498f      	ldr	r1, [pc, #572]	; (10001470 <clocks_init+0x29c>)
10001232:	601a      	str	r2, [r3, #0]
10001234:	0010      	movs	r0, r2
10001236:	688b      	ldr	r3, [r1, #8]
10001238:	4398      	bics	r0, r3
1000123a:	1e03      	subs	r3, r0, #0
1000123c:	d1fa      	bne.n	10001234 <clocks_init+0x60>
1000123e:	2402      	movs	r4, #2
10001240:	2101      	movs	r1, #1
10001242:	4a8c      	ldr	r2, [pc, #560]	; (10001474 <clocks_init+0x2a0>)
10001244:	488c      	ldr	r0, [pc, #560]	; (10001478 <clocks_init+0x2a4>)
10001246:	3306      	adds	r3, #6
10001248:	9400      	str	r4, [sp, #0]
1000124a:	f000 f955 	bl	100014f8 <pll_init>
1000124e:	2305      	movs	r3, #5
10001250:	4a8a      	ldr	r2, [pc, #552]	; (1000147c <clocks_init+0x2a8>)
10001252:	2101      	movs	r1, #1
10001254:	488a      	ldr	r0, [pc, #552]	; (10001480 <clocks_init+0x2ac>)
10001256:	9400      	str	r4, [sp, #0]
10001258:	f000 f94e 	bl	100014f8 <pll_init>
1000125c:	4b89      	ldr	r3, [pc, #548]	; (10001484 <clocks_init+0x2b0>)
1000125e:	685a      	ldr	r2, [r3, #4]
10001260:	2aff      	cmp	r2, #255	; 0xff
10001262:	d802      	bhi.n	1000126a <clocks_init+0x96>
10001264:	2280      	movs	r2, #128	; 0x80
10001266:	0052      	lsls	r2, r2, #1
10001268:	605a      	str	r2, [r3, #4]
1000126a:	2280      	movs	r2, #128	; 0x80
1000126c:	4c78      	ldr	r4, [pc, #480]	; (10001450 <clocks_init+0x27c>)
1000126e:	4b7d      	ldr	r3, [pc, #500]	; (10001464 <clocks_init+0x290>)
10001270:	6921      	ldr	r1, [r4, #16]
10001272:	0112      	lsls	r2, r2, #4
10001274:	4d83      	ldr	r5, [pc, #524]	; (10001484 <clocks_init+0x2b0>)
10001276:	601a      	str	r2, [r3, #0]
10001278:	2900      	cmp	r1, #0
1000127a:	d005      	beq.n	10001288 <clocks_init+0xb4>
1000127c:	6960      	ldr	r0, [r4, #20]
1000127e:	f000 fb5b 	bl	10001938 <__wrap___aeabi_uidiv>
10001282:	3001      	adds	r0, #1
10001284:	3801      	subs	r0, #1
10001286:	d1fd      	bne.n	10001284 <clocks_init+0xb0>
10001288:	21e0      	movs	r1, #224	; 0xe0
1000128a:	4b7e      	ldr	r3, [pc, #504]	; (10001484 <clocks_init+0x2b0>)
1000128c:	2002      	movs	r0, #2
1000128e:	681a      	ldr	r2, [r3, #0]
10001290:	4011      	ands	r1, r2
10001292:	2280      	movs	r2, #128	; 0x80
10001294:	0152      	lsls	r2, r2, #5
10001296:	432a      	orrs	r2, r5
10001298:	6011      	str	r1, [r2, #0]
1000129a:	6819      	ldr	r1, [r3, #0]
1000129c:	4048      	eors	r0, r1
1000129e:	2103      	movs	r1, #3
100012a0:	4001      	ands	r1, r0
100012a2:	6011      	str	r1, [r2, #0]
100012a4:	2104      	movs	r1, #4
100012a6:	689a      	ldr	r2, [r3, #8]
100012a8:	4211      	tst	r1, r2
100012aa:	d0fc      	beq.n	100012a6 <clocks_init+0xd2>
100012ac:	2280      	movs	r2, #128	; 0x80
100012ae:	2180      	movs	r1, #128	; 0x80
100012b0:	0192      	lsls	r2, r2, #6
100012b2:	432a      	orrs	r2, r5
100012b4:	0109      	lsls	r1, r1, #4
100012b6:	6011      	str	r1, [r2, #0]
100012b8:	2280      	movs	r2, #128	; 0x80
100012ba:	0052      	lsls	r2, r2, #1
100012bc:	605a      	str	r2, [r3, #4]
100012be:	4b72      	ldr	r3, [pc, #456]	; (10001488 <clocks_init+0x2b4>)
100012c0:	6123      	str	r3, [r4, #16]
100012c2:	4b72      	ldr	r3, [pc, #456]	; (1000148c <clocks_init+0x2b8>)
100012c4:	6859      	ldr	r1, [r3, #4]
100012c6:	29ff      	cmp	r1, #255	; 0xff
100012c8:	d800      	bhi.n	100012cc <clocks_init+0xf8>
100012ca:	605a      	str	r2, [r3, #4]
100012cc:	2203      	movs	r2, #3
100012ce:	486f      	ldr	r0, [pc, #444]	; (1000148c <clocks_init+0x2b8>)
100012d0:	4b63      	ldr	r3, [pc, #396]	; (10001460 <clocks_init+0x28c>)
100012d2:	2101      	movs	r1, #1
100012d4:	601a      	str	r2, [r3, #0]
100012d6:	0002      	movs	r2, r0
100012d8:	6893      	ldr	r3, [r2, #8]
100012da:	4219      	tst	r1, r3
100012dc:	d0fc      	beq.n	100012d8 <clocks_init+0x104>
100012de:	25e0      	movs	r5, #224	; 0xe0
100012e0:	6813      	ldr	r3, [r2, #0]
100012e2:	401d      	ands	r5, r3
100012e4:	2380      	movs	r3, #128	; 0x80
100012e6:	015b      	lsls	r3, r3, #5
100012e8:	4303      	orrs	r3, r0
100012ea:	601d      	str	r5, [r3, #0]
100012ec:	6812      	ldr	r2, [r2, #0]
100012ee:	404a      	eors	r2, r1
100012f0:	2103      	movs	r1, #3
100012f2:	4011      	ands	r1, r2
100012f4:	6019      	str	r1, [r3, #0]
100012f6:	2102      	movs	r1, #2
100012f8:	4a64      	ldr	r2, [pc, #400]	; (1000148c <clocks_init+0x2b8>)
100012fa:	6893      	ldr	r3, [r2, #8]
100012fc:	4219      	tst	r1, r3
100012fe:	d0fc      	beq.n	100012fa <clocks_init+0x126>
10001300:	2380      	movs	r3, #128	; 0x80
10001302:	2180      	movs	r1, #128	; 0x80
10001304:	019b      	lsls	r3, r3, #6
10001306:	4303      	orrs	r3, r0
10001308:	0109      	lsls	r1, r1, #4
1000130a:	6019      	str	r1, [r3, #0]
1000130c:	2180      	movs	r1, #128	; 0x80
1000130e:	4b60      	ldr	r3, [pc, #384]	; (10001490 <clocks_init+0x2bc>)
10001310:	0049      	lsls	r1, r1, #1
10001312:	6051      	str	r1, [r2, #4]
10001314:	6163      	str	r3, [r4, #20]
10001316:	4b5f      	ldr	r3, [pc, #380]	; (10001494 <clocks_init+0x2c0>)
10001318:	685a      	ldr	r2, [r3, #4]
1000131a:	2aff      	cmp	r2, #255	; 0xff
1000131c:	d800      	bhi.n	10001320 <clocks_init+0x14c>
1000131e:	6059      	str	r1, [r3, #4]
10001320:	2280      	movs	r2, #128	; 0x80
10001322:	4b5d      	ldr	r3, [pc, #372]	; (10001498 <clocks_init+0x2c4>)
10001324:	69e1      	ldr	r1, [r4, #28]
10001326:	0112      	lsls	r2, r2, #4
10001328:	4d5a      	ldr	r5, [pc, #360]	; (10001494 <clocks_init+0x2c0>)
1000132a:	601a      	str	r2, [r3, #0]
1000132c:	2900      	cmp	r1, #0
1000132e:	d005      	beq.n	1000133c <clocks_init+0x168>
10001330:	6960      	ldr	r0, [r4, #20]
10001332:	f000 fb01 	bl	10001938 <__wrap___aeabi_uidiv>
10001336:	3001      	adds	r0, #1
10001338:	3801      	subs	r0, #1
1000133a:	d1fd      	bne.n	10001338 <clocks_init+0x164>
1000133c:	22e0      	movs	r2, #224	; 0xe0
1000133e:	4955      	ldr	r1, [pc, #340]	; (10001494 <clocks_init+0x2c0>)
10001340:	680b      	ldr	r3, [r1, #0]
10001342:	401a      	ands	r2, r3
10001344:	2380      	movs	r3, #128	; 0x80
10001346:	015b      	lsls	r3, r3, #5
10001348:	432b      	orrs	r3, r5
1000134a:	601a      	str	r2, [r3, #0]
1000134c:	2380      	movs	r3, #128	; 0x80
1000134e:	2280      	movs	r2, #128	; 0x80
10001350:	019b      	lsls	r3, r3, #6
10001352:	432b      	orrs	r3, r5
10001354:	0112      	lsls	r2, r2, #4
10001356:	601a      	str	r2, [r3, #0]
10001358:	2280      	movs	r2, #128	; 0x80
1000135a:	4b3e      	ldr	r3, [pc, #248]	; (10001454 <clocks_init+0x280>)
1000135c:	0052      	lsls	r2, r2, #1
1000135e:	604a      	str	r2, [r1, #4]
10001360:	61e3      	str	r3, [r4, #28]
10001362:	4b4e      	ldr	r3, [pc, #312]	; (1000149c <clocks_init+0x2c8>)
10001364:	6859      	ldr	r1, [r3, #4]
10001366:	29ff      	cmp	r1, #255	; 0xff
10001368:	d800      	bhi.n	1000136c <clocks_init+0x198>
1000136a:	605a      	str	r2, [r3, #4]
1000136c:	2280      	movs	r2, #128	; 0x80
1000136e:	4b4c      	ldr	r3, [pc, #304]	; (100014a0 <clocks_init+0x2cc>)
10001370:	6a21      	ldr	r1, [r4, #32]
10001372:	0112      	lsls	r2, r2, #4
10001374:	4d49      	ldr	r5, [pc, #292]	; (1000149c <clocks_init+0x2c8>)
10001376:	601a      	str	r2, [r3, #0]
10001378:	2900      	cmp	r1, #0
1000137a:	d005      	beq.n	10001388 <clocks_init+0x1b4>
1000137c:	6960      	ldr	r0, [r4, #20]
1000137e:	f000 fadb 	bl	10001938 <__wrap___aeabi_uidiv>
10001382:	3001      	adds	r0, #1
10001384:	3801      	subs	r0, #1
10001386:	d1fd      	bne.n	10001384 <clocks_init+0x1b0>
10001388:	22e0      	movs	r2, #224	; 0xe0
1000138a:	4944      	ldr	r1, [pc, #272]	; (1000149c <clocks_init+0x2c8>)
1000138c:	680b      	ldr	r3, [r1, #0]
1000138e:	401a      	ands	r2, r3
10001390:	2380      	movs	r3, #128	; 0x80
10001392:	015b      	lsls	r3, r3, #5
10001394:	432b      	orrs	r3, r5
10001396:	601a      	str	r2, [r3, #0]
10001398:	2380      	movs	r3, #128	; 0x80
1000139a:	2280      	movs	r2, #128	; 0x80
1000139c:	019b      	lsls	r3, r3, #6
1000139e:	432b      	orrs	r3, r5
100013a0:	0112      	lsls	r2, r2, #4
100013a2:	601a      	str	r2, [r3, #0]
100013a4:	2380      	movs	r3, #128	; 0x80
100013a6:	2280      	movs	r2, #128	; 0x80
100013a8:	005b      	lsls	r3, r3, #1
100013aa:	604b      	str	r3, [r1, #4]
100013ac:	4b29      	ldr	r3, [pc, #164]	; (10001454 <clocks_init+0x280>)
100013ae:	02d2      	lsls	r2, r2, #11
100013b0:	6223      	str	r3, [r4, #32]
100013b2:	4b3c      	ldr	r3, [pc, #240]	; (100014a4 <clocks_init+0x2d0>)
100013b4:	6859      	ldr	r1, [r3, #4]
100013b6:	4291      	cmp	r1, r2
100013b8:	d200      	bcs.n	100013bc <clocks_init+0x1e8>
100013ba:	605a      	str	r2, [r3, #4]
100013bc:	2280      	movs	r2, #128	; 0x80
100013be:	4b3a      	ldr	r3, [pc, #232]	; (100014a8 <clocks_init+0x2d4>)
100013c0:	6a61      	ldr	r1, [r4, #36]	; 0x24
100013c2:	0112      	lsls	r2, r2, #4
100013c4:	4d37      	ldr	r5, [pc, #220]	; (100014a4 <clocks_init+0x2d0>)
100013c6:	601a      	str	r2, [r3, #0]
100013c8:	2900      	cmp	r1, #0
100013ca:	d005      	beq.n	100013d8 <clocks_init+0x204>
100013cc:	6960      	ldr	r0, [r4, #20]
100013ce:	f000 fab3 	bl	10001938 <__wrap___aeabi_uidiv>
100013d2:	3001      	adds	r0, #1
100013d4:	3801      	subs	r0, #1
100013d6:	d1fd      	bne.n	100013d4 <clocks_init+0x200>
100013d8:	22e0      	movs	r2, #224	; 0xe0
100013da:	4932      	ldr	r1, [pc, #200]	; (100014a4 <clocks_init+0x2d0>)
100013dc:	680b      	ldr	r3, [r1, #0]
100013de:	401a      	ands	r2, r3
100013e0:	2380      	movs	r3, #128	; 0x80
100013e2:	015b      	lsls	r3, r3, #5
100013e4:	432b      	orrs	r3, r5
100013e6:	601a      	str	r2, [r3, #0]
100013e8:	2380      	movs	r3, #128	; 0x80
100013ea:	2280      	movs	r2, #128	; 0x80
100013ec:	019b      	lsls	r3, r3, #6
100013ee:	432b      	orrs	r3, r5
100013f0:	0112      	lsls	r2, r2, #4
100013f2:	601a      	str	r2, [r3, #0]
100013f4:	2380      	movs	r3, #128	; 0x80
100013f6:	02db      	lsls	r3, r3, #11
100013f8:	604b      	str	r3, [r1, #4]
100013fa:	4b17      	ldr	r3, [pc, #92]	; (10001458 <clocks_init+0x284>)
100013fc:	6263      	str	r3, [r4, #36]	; 0x24
100013fe:	4b2b      	ldr	r3, [pc, #172]	; (100014ac <clocks_init+0x2d8>)
10001400:	685a      	ldr	r2, [r3, #4]
10001402:	2aff      	cmp	r2, #255	; 0xff
10001404:	d802      	bhi.n	1000140c <clocks_init+0x238>
10001406:	2280      	movs	r2, #128	; 0x80
10001408:	0052      	lsls	r2, r2, #1
1000140a:	605a      	str	r2, [r3, #4]
1000140c:	2280      	movs	r2, #128	; 0x80
1000140e:	4b28      	ldr	r3, [pc, #160]	; (100014b0 <clocks_init+0x2dc>)
10001410:	69a1      	ldr	r1, [r4, #24]
10001412:	0112      	lsls	r2, r2, #4
10001414:	4d25      	ldr	r5, [pc, #148]	; (100014ac <clocks_init+0x2d8>)
10001416:	601a      	str	r2, [r3, #0]
10001418:	2900      	cmp	r1, #0
1000141a:	d005      	beq.n	10001428 <clocks_init+0x254>
1000141c:	6960      	ldr	r0, [r4, #20]
1000141e:	f000 fa8b 	bl	10001938 <__wrap___aeabi_uidiv>
10001422:	3001      	adds	r0, #1
10001424:	3801      	subs	r0, #1
10001426:	d1fd      	bne.n	10001424 <clocks_init+0x250>
10001428:	22e0      	movs	r2, #224	; 0xe0
1000142a:	4920      	ldr	r1, [pc, #128]	; (100014ac <clocks_init+0x2d8>)
1000142c:	680b      	ldr	r3, [r1, #0]
1000142e:	401a      	ands	r2, r3
10001430:	2380      	movs	r3, #128	; 0x80
10001432:	015b      	lsls	r3, r3, #5
10001434:	432b      	orrs	r3, r5
10001436:	601a      	str	r2, [r3, #0]
10001438:	2380      	movs	r3, #128	; 0x80
1000143a:	2280      	movs	r2, #128	; 0x80
1000143c:	019b      	lsls	r3, r3, #6
1000143e:	432b      	orrs	r3, r5
10001440:	0112      	lsls	r2, r2, #4
10001442:	601a      	str	r2, [r3, #0]
10001444:	2380      	movs	r3, #128	; 0x80
10001446:	005b      	lsls	r3, r3, #1
10001448:	604b      	str	r3, [r1, #4]
1000144a:	4b11      	ldr	r3, [pc, #68]	; (10001490 <clocks_init+0x2bc>)
1000144c:	61a3      	str	r3, [r4, #24]
1000144e:	e6d7      	b.n	10001200 <clocks_init+0x2c>
10001450:	20000acc 	.word	0x20000acc
10001454:	02dc6c00 	.word	0x02dc6c00
10001458:	0000b71b 	.word	0x0000b71b
1000145c:	40008000 	.word	0x40008000
10001460:	4000b03c 	.word	0x4000b03c
10001464:	4000b030 	.word	0x4000b030
10001468:	4000e000 	.word	0x4000e000
1000146c:	4000f000 	.word	0x4000f000
10001470:	4000c000 	.word	0x4000c000
10001474:	59682f00 	.word	0x59682f00
10001478:	40028000 	.word	0x40028000
1000147c:	1c9c3800 	.word	0x1c9c3800
10001480:	4002c000 	.word	0x4002c000
10001484:	40008030 	.word	0x40008030
10001488:	00b71b00 	.word	0x00b71b00
1000148c:	4000803c 	.word	0x4000803c
10001490:	07735940 	.word	0x07735940
10001494:	40008054 	.word	0x40008054
10001498:	4000b054 	.word	0x4000b054
1000149c:	40008060 	.word	0x40008060
100014a0:	4000b060 	.word	0x4000b060
100014a4:	4000806c 	.word	0x4000806c
100014a8:	4000b06c 	.word	0x4000b06c
100014ac:	40008048 	.word	0x40008048
100014b0:	4000b048 	.word	0x4000b048

100014b4 <clock_get_hz>:
100014b4:	4b01      	ldr	r3, [pc, #4]	; (100014bc <clock_get_hz+0x8>)
100014b6:	0080      	lsls	r0, r0, #2
100014b8:	58c0      	ldr	r0, [r0, r3]
100014ba:	4770      	bx	lr
100014bc:	20000acc 	.word	0x20000acc

100014c0 <watchdog_start_tick>:
100014c0:	2380      	movs	r3, #128	; 0x80
100014c2:	4a02      	ldr	r2, [pc, #8]	; (100014cc <watchdog_start_tick+0xc>)
100014c4:	009b      	lsls	r3, r3, #2
100014c6:	4303      	orrs	r3, r0
100014c8:	62d3      	str	r3, [r2, #44]	; 0x2c
100014ca:	4770      	bx	lr
100014cc:	40058000 	.word	0x40058000

100014d0 <xosc_init>:
100014d0:	23aa      	movs	r3, #170	; 0xaa
100014d2:	4a06      	ldr	r2, [pc, #24]	; (100014ec <xosc_init+0x1c>)
100014d4:	011b      	lsls	r3, r3, #4
100014d6:	6013      	str	r3, [r2, #0]
100014d8:	232f      	movs	r3, #47	; 0x2f
100014da:	4905      	ldr	r1, [pc, #20]	; (100014f0 <xosc_init+0x20>)
100014dc:	60d3      	str	r3, [r2, #12]
100014de:	4b05      	ldr	r3, [pc, #20]	; (100014f4 <xosc_init+0x24>)
100014e0:	6019      	str	r1, [r3, #0]
100014e2:	6853      	ldr	r3, [r2, #4]
100014e4:	2b00      	cmp	r3, #0
100014e6:	dafc      	bge.n	100014e2 <xosc_init+0x12>
100014e8:	4770      	bx	lr
100014ea:	46c0      	nop			; (mov r8, r8)
100014ec:	40024000 	.word	0x40024000
100014f0:	00fab000 	.word	0x00fab000
100014f4:	40026000 	.word	0x40026000

100014f8 <pll_init>:
100014f8:	b5f8      	push	{r3, r4, r5, r6, r7, lr}
100014fa:	001d      	movs	r5, r3
100014fc:	ab06      	add	r3, sp, #24
100014fe:	781e      	ldrb	r6, [r3, #0]
10001500:	2301      	movs	r3, #1
10001502:	425b      	negs	r3, r3
10001504:	6043      	str	r3, [r0, #4]
10001506:	2300      	movs	r3, #0
10001508:	0004      	movs	r4, r0
1000150a:	6083      	str	r3, [r0, #8]
1000150c:	6001      	str	r1, [r0, #0]
1000150e:	200c      	movs	r0, #12
10001510:	0017      	movs	r7, r2
10001512:	f000 fa11 	bl	10001938 <__wrap___aeabi_uidiv>
10001516:	0141      	lsls	r1, r0, #5
10001518:	1a09      	subs	r1, r1, r0
1000151a:	018b      	lsls	r3, r1, #6
1000151c:	1a59      	subs	r1, r3, r1
1000151e:	00c9      	lsls	r1, r1, #3
10001520:	1809      	adds	r1, r1, r0
10001522:	0189      	lsls	r1, r1, #6
10001524:	0038      	movs	r0, r7
10001526:	f000 fa07 	bl	10001938 <__wrap___aeabi_uidiv>
1000152a:	21c0      	movs	r1, #192	; 0xc0
1000152c:	1d23      	adds	r3, r4, #4
1000152e:	0189      	lsls	r1, r1, #6
10001530:	4319      	orrs	r1, r3
10001532:	2321      	movs	r3, #33	; 0x21
10001534:	60a0      	str	r0, [r4, #8]
10001536:	600b      	str	r3, [r1, #0]
10001538:	6822      	ldr	r2, [r4, #0]
1000153a:	2a00      	cmp	r2, #0
1000153c:	dafc      	bge.n	10001538 <pll_init+0x40>
1000153e:	2308      	movs	r3, #8
10001540:	042d      	lsls	r5, r5, #16
10001542:	0336      	lsls	r6, r6, #12
10001544:	432e      	orrs	r6, r5
10001546:	60e6      	str	r6, [r4, #12]
10001548:	600b      	str	r3, [r1, #0]
1000154a:	bdf8      	pop	{r3, r4, r5, r6, r7, pc}

1000154c <irq_set_enabled>:
1000154c:	2301      	movs	r3, #1
1000154e:	4083      	lsls	r3, r0
10001550:	2900      	cmp	r1, #0
10001552:	d004      	beq.n	1000155e <irq_set_enabled+0x12>
10001554:	4a03      	ldr	r2, [pc, #12]	; (10001564 <irq_set_enabled+0x18>)
10001556:	6013      	str	r3, [r2, #0]
10001558:	4a03      	ldr	r2, [pc, #12]	; (10001568 <irq_set_enabled+0x1c>)
1000155a:	6013      	str	r3, [r2, #0]
1000155c:	4770      	bx	lr
1000155e:	4a03      	ldr	r2, [pc, #12]	; (1000156c <irq_set_enabled+0x20>)
10001560:	6013      	str	r3, [r2, #0]
10001562:	e7fb      	b.n	1000155c <irq_set_enabled+0x10>
10001564:	e000e280 	.word	0xe000e280
10001568:	e000e100 	.word	0xe000e100
1000156c:	e000e180 	.word	0xe000e180

10001570 <irq_get_vtable_handler>:
10001570:	4b02      	ldr	r3, [pc, #8]	; (1000157c <irq_get_vtable_handler+0xc>)
10001572:	3010      	adds	r0, #16
10001574:	689b      	ldr	r3, [r3, #8]
10001576:	0080      	lsls	r0, r0, #2
10001578:	58c0      	ldr	r0, [r0, r3]
1000157a:	4770      	bx	lr
1000157c:	e000ed00 	.word	0xe000ed00

10001580 <irq_set_exclusive_handler>:
10001580:	b570      	push	{r4, r5, r6, lr}
10001582:	000d      	movs	r5, r1
10001584:	f3ef 8610 	mrs	r6, PRIMASK
10001588:	b672      	cpsid	i
1000158a:	4a0f      	ldr	r2, [pc, #60]	; (100015c8 <irq_set_exclusive_handler+0x48>)
1000158c:	6813      	ldr	r3, [r2, #0]
1000158e:	2b00      	cmp	r3, #0
10001590:	d0fc      	beq.n	1000158c <irq_set_exclusive_handler+0xc>
10001592:	f3bf 8f5f 	dmb	sy
10001596:	4b0d      	ldr	r3, [pc, #52]	; (100015cc <irq_set_exclusive_handler+0x4c>)
10001598:	3010      	adds	r0, #16
1000159a:	689b      	ldr	r3, [r3, #8]
1000159c:	0084      	lsls	r4, r0, #2
1000159e:	591b      	ldr	r3, [r3, r4]
100015a0:	4a0b      	ldr	r2, [pc, #44]	; (100015d0 <irq_set_exclusive_handler+0x50>)
100015a2:	4293      	cmp	r3, r2
100015a4:	d003      	beq.n	100015ae <irq_set_exclusive_handler+0x2e>
100015a6:	429d      	cmp	r5, r3
100015a8:	d001      	beq.n	100015ae <irq_set_exclusive_handler+0x2e>
100015aa:	f7ff fe0d 	bl	100011c8 <hard_assertion_failure>
100015ae:	4b07      	ldr	r3, [pc, #28]	; (100015cc <irq_set_exclusive_handler+0x4c>)
100015b0:	689b      	ldr	r3, [r3, #8]
100015b2:	511d      	str	r5, [r3, r4]
100015b4:	f3bf 8f5f 	dmb	sy
100015b8:	f3bf 8f5f 	dmb	sy
100015bc:	2200      	movs	r2, #0
100015be:	4b02      	ldr	r3, [pc, #8]	; (100015c8 <irq_set_exclusive_handler+0x48>)
100015c0:	601a      	str	r2, [r3, #0]
100015c2:	f386 8810 	msr	PRIMASK, r6
100015c6:	bd70      	pop	{r4, r5, r6, pc}
100015c8:	d0000124 	.word	0xd0000124
100015cc:	e000ed00 	.word	0xe000ed00
100015d0:	100002cd 	.word	0x100002cd

100015d4 <irq_remove_handler>:
100015d4:	b5f0      	push	{r4, r5, r6, r7, lr}
100015d6:	46de      	mov	lr, fp
100015d8:	4657      	mov	r7, sl
100015da:	464e      	mov	r6, r9
100015dc:	4645      	mov	r5, r8
100015de:	b5e0      	push	{r5, r6, r7, lr}
100015e0:	000c      	movs	r4, r1
100015e2:	b083      	sub	sp, #12
100015e4:	f3ef 8a10 	mrs	sl, PRIMASK
100015e8:	b672      	cpsid	i
100015ea:	4a5f      	ldr	r2, [pc, #380]	; (10001768 <irq_remove_handler+0x194>)
100015ec:	6813      	ldr	r3, [r2, #0]
100015ee:	2b00      	cmp	r3, #0
100015f0:	d0fc      	beq.n	100015ec <irq_remove_handler+0x18>
100015f2:	f3bf 8f5f 	dmb	sy
100015f6:	2210      	movs	r2, #16
100015f8:	4691      	mov	r9, r2
100015fa:	4481      	add	r9, r0
100015fc:	464a      	mov	r2, r9
100015fe:	4b5b      	ldr	r3, [pc, #364]	; (1000176c <irq_remove_handler+0x198>)
10001600:	0096      	lsls	r6, r2, #2
10001602:	689b      	ldr	r3, [r3, #8]
10001604:	599d      	ldr	r5, [r3, r6]
10001606:	4b5a      	ldr	r3, [pc, #360]	; (10001770 <irq_remove_handler+0x19c>)
10001608:	4698      	mov	r8, r3
1000160a:	429d      	cmp	r5, r3
1000160c:	d005      	beq.n	1000161a <irq_remove_handler+0x46>
1000160e:	42a5      	cmp	r5, r4
10001610:	d016      	beq.n	10001640 <irq_remove_handler+0x6c>
10001612:	4f58      	ldr	r7, [pc, #352]	; (10001774 <irq_remove_handler+0x1a0>)
10001614:	1beb      	subs	r3, r5, r7
10001616:	2b2f      	cmp	r3, #47	; 0x2f
10001618:	d914      	bls.n	10001644 <irq_remove_handler+0x70>
1000161a:	4b54      	ldr	r3, [pc, #336]	; (1000176c <irq_remove_handler+0x198>)
1000161c:	689b      	ldr	r3, [r3, #8]
1000161e:	519d      	str	r5, [r3, r6]
10001620:	f3bf 8f5f 	dmb	sy
10001624:	f3bf 8f5f 	dmb	sy
10001628:	2200      	movs	r2, #0
1000162a:	4b4f      	ldr	r3, [pc, #316]	; (10001768 <irq_remove_handler+0x194>)
1000162c:	601a      	str	r2, [r3, #0]
1000162e:	f38a 8810 	msr	PRIMASK, sl
10001632:	b003      	add	sp, #12
10001634:	bc3c      	pop	{r2, r3, r4, r5}
10001636:	4690      	mov	r8, r2
10001638:	4699      	mov	r9, r3
1000163a:	46a2      	mov	sl, r4
1000163c:	46ab      	mov	fp, r5
1000163e:	bdf0      	pop	{r4, r5, r6, r7, pc}
10001640:	001d      	movs	r5, r3
10001642:	e7ea      	b.n	1000161a <irq_remove_handler+0x46>
10001644:	2301      	movs	r3, #1
10001646:	4083      	lsls	r3, r0
10001648:	469b      	mov	fp, r3
1000164a:	465a      	mov	r2, fp
1000164c:	4b4a      	ldr	r3, [pc, #296]	; (10001778 <irq_remove_handler+0x1a4>)
1000164e:	681b      	ldr	r3, [r3, #0]
10001650:	401a      	ands	r2, r3
10001652:	9200      	str	r2, [sp, #0]
10001654:	465a      	mov	r2, fp
10001656:	4b49      	ldr	r3, [pc, #292]	; (1000177c <irq_remove_handler+0x1a8>)
10001658:	601a      	str	r2, [r3, #0]
1000165a:	f3bf 8f5f 	dmb	sy
1000165e:	f7fe fd9a 	bl	10000196 <__get_current_exception>
10001662:	9001      	str	r0, [sp, #4]
10001664:	2800      	cmp	r0, #0
10001666:	d003      	beq.n	10001670 <irq_remove_handler+0x9c>
10001668:	4581      	cmp	r9, r0
1000166a:	d001      	beq.n	10001670 <irq_remove_handler+0x9c>
1000166c:	f7ff fdac 	bl	100011c8 <hard_assertion_failure>
10001670:	2301      	movs	r3, #1
10001672:	0029      	movs	r1, r5
10001674:	4399      	bics	r1, r3
10001676:	688b      	ldr	r3, [r1, #8]
10001678:	42a3      	cmp	r3, r4
1000167a:	d069      	beq.n	10001750 <irq_remove_handler+0x17c>
1000167c:	000a      	movs	r2, r1
1000167e:	e007      	b.n	10001690 <irq_remove_handler+0xbc>
10001680:	0043      	lsls	r3, r0, #1
10001682:	181b      	adds	r3, r3, r0
10001684:	009b      	lsls	r3, r3, #2
10001686:	18fb      	adds	r3, r7, r3
10001688:	6898      	ldr	r0, [r3, #8]
1000168a:	42a0      	cmp	r0, r4
1000168c:	d011      	beq.n	100016b2 <irq_remove_handler+0xde>
1000168e:	001a      	movs	r2, r3
10001690:	2006      	movs	r0, #6
10001692:	5610      	ldrsb	r0, [r2, r0]
10001694:	2800      	cmp	r0, #0
10001696:	daf3      	bge.n	10001680 <irq_remove_handler+0xac>
10001698:	9b00      	ldr	r3, [sp, #0]
1000169a:	2b00      	cmp	r3, #0
1000169c:	d005      	beq.n	100016aa <irq_remove_handler+0xd6>
1000169e:	465a      	mov	r2, fp
100016a0:	4b37      	ldr	r3, [pc, #220]	; (10001780 <irq_remove_handler+0x1ac>)
100016a2:	601a      	str	r2, [r3, #0]
100016a4:	4b34      	ldr	r3, [pc, #208]	; (10001778 <irq_remove_handler+0x1a4>)
100016a6:	601a      	str	r2, [r3, #0]
100016a8:	e7b7      	b.n	1000161a <irq_remove_handler+0x46>
100016aa:	465a      	mov	r2, fp
100016ac:	4b33      	ldr	r3, [pc, #204]	; (1000177c <irq_remove_handler+0x1a8>)
100016ae:	601a      	str	r2, [r3, #0]
100016b0:	e7b3      	b.n	1000161a <irq_remove_handler+0x46>
100016b2:	2006      	movs	r0, #6
100016b4:	5618      	ldrsb	r0, [r3, r0]
100016b6:	2800      	cmp	r0, #0
100016b8:	db22      	blt.n	10001700 <irq_remove_handler+0x12c>
100016ba:	0042      	lsls	r2, r0, #1
100016bc:	1811      	adds	r1, r2, r0
100016be:	0089      	lsls	r1, r1, #2
100016c0:	187c      	adds	r4, r7, r1
100016c2:	4688      	mov	r8, r1
100016c4:	68a1      	ldr	r1, [r4, #8]
100016c6:	6099      	str	r1, [r3, #8]
100016c8:	79e1      	ldrb	r1, [r4, #7]
100016ca:	71d9      	strb	r1, [r3, #7]
100016cc:	2106      	movs	r1, #6
100016ce:	5661      	ldrsb	r1, [r4, r1]
100016d0:	7199      	strb	r1, [r3, #6]
100016d2:	79a1      	ldrb	r1, [r4, #6]
100016d4:	297f      	cmp	r1, #127	; 0x7f
100016d6:	d82b      	bhi.n	10001730 <irq_remove_handler+0x15c>
100016d8:	88a4      	ldrh	r4, [r4, #4]
100016da:	1af9      	subs	r1, r7, r3
100016dc:	0564      	lsls	r4, r4, #21
100016de:	1524      	asrs	r4, r4, #20
100016e0:	4444      	add	r4, r8
100016e2:	1909      	adds	r1, r1, r4
100016e4:	24e0      	movs	r4, #224	; 0xe0
100016e6:	0509      	lsls	r1, r1, #20
100016e8:	0d49      	lsrs	r1, r1, #21
100016ea:	0224      	lsls	r4, r4, #8
100016ec:	4321      	orrs	r1, r4
100016ee:	8099      	strh	r1, [r3, #4]
100016f0:	1812      	adds	r2, r2, r0
100016f2:	4b24      	ldr	r3, [pc, #144]	; (10001784 <irq_remove_handler+0x1b0>)
100016f4:	0092      	lsls	r2, r2, #2
100016f6:	18bf      	adds	r7, r7, r2
100016f8:	781a      	ldrb	r2, [r3, #0]
100016fa:	7018      	strb	r0, [r3, #0]
100016fc:	71ba      	strb	r2, [r7, #6]
100016fe:	e7cb      	b.n	10001698 <irq_remove_handler+0xc4>
10001700:	9801      	ldr	r0, [sp, #4]
10001702:	2800      	cmp	r0, #0
10001704:	d117      	bne.n	10001736 <irq_remove_handler+0x162>
10001706:	30ff      	adds	r0, #255	; 0xff
10001708:	7190      	strb	r0, [r2, #6]
1000170a:	481f      	ldr	r0, [pc, #124]	; (10001788 <irq_remove_handler+0x1b4>)
1000170c:	8090      	strh	r0, [r2, #4]
1000170e:	4a1d      	ldr	r2, [pc, #116]	; (10001784 <irq_remove_handler+0x1b0>)
10001710:	1bcf      	subs	r7, r1, r7
10001712:	7810      	ldrb	r0, [r2, #0]
10001714:	10bf      	asrs	r7, r7, #2
10001716:	7198      	strb	r0, [r3, #6]
10001718:	00bb      	lsls	r3, r7, #2
1000171a:	19db      	adds	r3, r3, r7
1000171c:	0119      	lsls	r1, r3, #4
1000171e:	185b      	adds	r3, r3, r1
10001720:	0219      	lsls	r1, r3, #8
10001722:	185b      	adds	r3, r3, r1
10001724:	0419      	lsls	r1, r3, #16
10001726:	185b      	adds	r3, r3, r1
10001728:	005b      	lsls	r3, r3, #1
1000172a:	19db      	adds	r3, r3, r7
1000172c:	7013      	strb	r3, [r2, #0]
1000172e:	e7b3      	b.n	10001698 <irq_remove_handler+0xc4>
10001730:	21bd      	movs	r1, #189	; 0xbd
10001732:	0209      	lsls	r1, r1, #8
10001734:	e7db      	b.n	100016ee <irq_remove_handler+0x11a>
10001736:	4a15      	ldr	r2, [pc, #84]	; (1000178c <irq_remove_handler+0x1b8>)
10001738:	4915      	ldr	r1, [pc, #84]	; (10001790 <irq_remove_handler+0x1bc>)
1000173a:	1ad2      	subs	r2, r2, r3
1000173c:	3a08      	subs	r2, #8
1000173e:	0250      	lsls	r0, r2, #9
10001740:	0d40      	lsrs	r0, r0, #21
10001742:	4301      	orrs	r1, r0
10001744:	8099      	strh	r1, [r3, #4]
10001746:	4913      	ldr	r1, [pc, #76]	; (10001794 <irq_remove_handler+0x1c0>)
10001748:	0852      	lsrs	r2, r2, #1
1000174a:	430a      	orrs	r2, r1
1000174c:	80da      	strh	r2, [r3, #6]
1000174e:	e7a3      	b.n	10001698 <irq_remove_handler+0xc4>
10001750:	2006      	movs	r0, #6
10001752:	5608      	ldrsb	r0, [r1, r0]
10001754:	000b      	movs	r3, r1
10001756:	2800      	cmp	r0, #0
10001758:	daaf      	bge.n	100016ba <irq_remove_handler+0xe6>
1000175a:	9a01      	ldr	r2, [sp, #4]
1000175c:	2a00      	cmp	r2, #0
1000175e:	d1ea      	bne.n	10001736 <irq_remove_handler+0x162>
10001760:	000b      	movs	r3, r1
10001762:	4645      	mov	r5, r8
10001764:	e7d3      	b.n	1000170e <irq_remove_handler+0x13a>
10001766:	46c0      	nop			; (mov r8, r8)
10001768:	d0000124 	.word	0xd0000124
1000176c:	e000ed00 	.word	0xe000ed00
10001770:	100002cd 	.word	0x100002cd
10001774:	2000018c 	.word	0x2000018c
10001778:	e000e100 	.word	0xe000e100
1000177c:	e000e180 	.word	0xe000e180
10001780:	e000e280 	.word	0xe000e280
10001784:	20000b2b 	.word	0x20000b2b
10001788:	ffffbd00 	.word	0xffffbd00
1000178c:	200001c6 	.word	0x200001c6
10001790:	fffff000 	.word	0xfffff000
10001794:	fffff800 	.word	0xfffff800

10001798 <irq_add_tail_to_free_list>:
10001798:	b5f8      	push	{r3, r4, r5, r6, r7, lr}
1000179a:	2501      	movs	r5, #1
1000179c:	0004      	movs	r4, r0
1000179e:	4305      	orrs	r5, r0
100017a0:	f7fe fcf9 	bl	10000196 <__get_current_exception>
100017a4:	f3ef 8610 	mrs	r6, PRIMASK
100017a8:	b672      	cpsid	i
100017aa:	4a24      	ldr	r2, [pc, #144]	; (1000183c <irq_add_tail_to_free_list+0xa4>)
100017ac:	6813      	ldr	r3, [r2, #0]
100017ae:	2b00      	cmp	r3, #0
100017b0:	d0fc      	beq.n	100017ac <irq_add_tail_to_free_list+0x14>
100017b2:	f3bf 8f5f 	dmb	sy
100017b6:	4f22      	ldr	r7, [pc, #136]	; (10001840 <irq_add_tail_to_free_list+0xa8>)
100017b8:	0080      	lsls	r0, r0, #2
100017ba:	1be1      	subs	r1, r4, r7
100017bc:	1089      	asrs	r1, r1, #2
100017be:	008a      	lsls	r2, r1, #2
100017c0:	1852      	adds	r2, r2, r1
100017c2:	0113      	lsls	r3, r2, #4
100017c4:	18d2      	adds	r2, r2, r3
100017c6:	0213      	lsls	r3, r2, #8
100017c8:	18d2      	adds	r2, r2, r3
100017ca:	0413      	lsls	r3, r2, #16
100017cc:	18d3      	adds	r3, r2, r3
100017ce:	4a1d      	ldr	r2, [pc, #116]	; (10001844 <irq_add_tail_to_free_list+0xac>)
100017d0:	005b      	lsls	r3, r3, #1
100017d2:	185b      	adds	r3, r3, r1
100017d4:	6891      	ldr	r1, [r2, #8]
100017d6:	5809      	ldr	r1, [r1, r0]
100017d8:	42a9      	cmp	r1, r5
100017da:	d01c      	beq.n	10001816 <irq_add_tail_to_free_list+0x7e>
100017dc:	2206      	movs	r2, #6
100017de:	56ba      	ldrsb	r2, [r7, r2]
100017e0:	4293      	cmp	r3, r2
100017e2:	d01c      	beq.n	1000181e <irq_add_tail_to_free_list+0x86>
100017e4:	2212      	movs	r2, #18
100017e6:	56ba      	ldrsb	r2, [r7, r2]
100017e8:	4293      	cmp	r3, r2
100017ea:	d022      	beq.n	10001832 <irq_add_tail_to_free_list+0x9a>
100017ec:	221e      	movs	r2, #30
100017ee:	56ba      	ldrsb	r2, [r7, r2]
100017f0:	4293      	cmp	r3, r2
100017f2:	d020      	beq.n	10001836 <irq_add_tail_to_free_list+0x9e>
100017f4:	222a      	movs	r2, #42	; 0x2a
100017f6:	56ba      	ldrsb	r2, [r7, r2]
100017f8:	2103      	movs	r1, #3
100017fa:	429a      	cmp	r2, r3
100017fc:	d010      	beq.n	10001820 <irq_add_tail_to_free_list+0x88>
100017fe:	4a12      	ldr	r2, [pc, #72]	; (10001848 <irq_add_tail_to_free_list+0xb0>)
10001800:	7811      	ldrb	r1, [r2, #0]
10001802:	7013      	strb	r3, [r2, #0]
10001804:	71a1      	strb	r1, [r4, #6]
10001806:	f3bf 8f5f 	dmb	sy
1000180a:	2200      	movs	r2, #0
1000180c:	4b0b      	ldr	r3, [pc, #44]	; (1000183c <irq_add_tail_to_free_list+0xa4>)
1000180e:	601a      	str	r2, [r3, #0]
10001810:	f386 8810 	msr	PRIMASK, r6
10001814:	bdf8      	pop	{r3, r4, r5, r6, r7, pc}
10001816:	6892      	ldr	r2, [r2, #8]
10001818:	490c      	ldr	r1, [pc, #48]	; (1000184c <irq_add_tail_to_free_list+0xb4>)
1000181a:	5011      	str	r1, [r2, r0]
1000181c:	e7ef      	b.n	100017fe <irq_add_tail_to_free_list+0x66>
1000181e:	2100      	movs	r1, #0
10001820:	004a      	lsls	r2, r1, #1
10001822:	1852      	adds	r2, r2, r1
10001824:	21ff      	movs	r1, #255	; 0xff
10001826:	0092      	lsls	r2, r2, #2
10001828:	18ba      	adds	r2, r7, r2
1000182a:	7191      	strb	r1, [r2, #6]
1000182c:	4908      	ldr	r1, [pc, #32]	; (10001850 <irq_add_tail_to_free_list+0xb8>)
1000182e:	8091      	strh	r1, [r2, #4]
10001830:	e7e5      	b.n	100017fe <irq_add_tail_to_free_list+0x66>
10001832:	2101      	movs	r1, #1
10001834:	e7f4      	b.n	10001820 <irq_add_tail_to_free_list+0x88>
10001836:	2102      	movs	r1, #2
10001838:	e7f2      	b.n	10001820 <irq_add_tail_to_free_list+0x88>
1000183a:	46c0      	nop			; (mov r8, r8)
1000183c:	d0000124 	.word	0xd0000124
10001840:	2000018c 	.word	0x2000018c
10001844:	e000ed00 	.word	0xe000ed00
10001848:	20000b2b 	.word	0x20000b2b
1000184c:	100002cd 	.word	0x100002cd
10001850:	ffffbd00 	.word	0xffffbd00

10001854 <irq_init_priorities>:
10001854:	b5f0      	push	{r4, r5, r6, r7, lr}
10001856:	2200      	movs	r2, #0
10001858:	2403      	movs	r4, #3
1000185a:	27ff      	movs	r7, #255	; 0xff
1000185c:	2680      	movs	r6, #128	; 0x80
1000185e:	0020      	movs	r0, r4
10001860:	003d      	movs	r5, r7
10001862:	4b09      	ldr	r3, [pc, #36]	; (10001888 <irq_init_priorities+0x34>)
10001864:	0011      	movs	r1, r2
10001866:	469c      	mov	ip, r3
10001868:	4010      	ands	r0, r2
1000186a:	00c0      	lsls	r0, r0, #3
1000186c:	4085      	lsls	r5, r0
1000186e:	43a1      	bics	r1, r4
10001870:	4461      	add	r1, ip
10001872:	680b      	ldr	r3, [r1, #0]
10001874:	3201      	adds	r2, #1
10001876:	43ab      	bics	r3, r5
10001878:	0035      	movs	r5, r6
1000187a:	4085      	lsls	r5, r0
1000187c:	432b      	orrs	r3, r5
1000187e:	600b      	str	r3, [r1, #0]
10001880:	2a20      	cmp	r2, #32
10001882:	d1ec      	bne.n	1000185e <irq_init_priorities+0xa>
10001884:	bdf0      	pop	{r4, r5, r6, r7, pc}
10001886:	46c0      	nop			; (mov r8, r8)
10001888:	e000e400 	.word	0xe000e400

1000188c <_out_char>:
1000188c:	b510      	push	{r4, lr}
1000188e:	2800      	cmp	r0, #0
10001890:	d100      	bne.n	10001894 <_out_char+0x8>
10001892:	bd10      	pop	{r4, pc}
10001894:	f000 fa0c 	bl	10001cb0 <__wrap_putchar>
10001898:	e7fb      	b.n	10001892 <_out_char+0x6>
1000189a:	46c0      	nop			; (mov r8, r8)

1000189c <weak_raw_vprintf>:
1000189c:	b510      	push	{r4, lr}
1000189e:	4a09      	ldr	r2, [pc, #36]	; (100018c4 <weak_raw_vprintf+0x28>)
100018a0:	0003      	movs	r3, r0
100018a2:	6814      	ldr	r4, [r2, #0]
100018a4:	b084      	sub	sp, #16
100018a6:	2c00      	cmp	r4, #0
100018a8:	d008      	beq.n	100018bc <weak_raw_vprintf+0x20>
100018aa:	2201      	movs	r2, #1
100018ac:	9100      	str	r1, [sp, #0]
100018ae:	4806      	ldr	r0, [pc, #24]	; (100018c8 <weak_raw_vprintf+0x2c>)
100018b0:	4252      	negs	r2, r2
100018b2:	a903      	add	r1, sp, #12
100018b4:	47a0      	blx	r4
100018b6:	2001      	movs	r0, #1
100018b8:	b004      	add	sp, #16
100018ba:	bd10      	pop	{r4, pc}
100018bc:	f000 fa06 	bl	10001ccc <__wrap_puts>
100018c0:	2000      	movs	r0, #0
100018c2:	e7f9      	b.n	100018b8 <weak_raw_vprintf+0x1c>
100018c4:	20000b04 	.word	0x20000b04
100018c8:	1000188d 	.word	0x1000188d

100018cc <__aeabi_bits_init>:
100018cc:	4801      	ldr	r0, [pc, #4]	; (100018d4 <__aeabi_bits_init+0x8>)
100018ce:	2104      	movs	r1, #4
100018d0:	4b01      	ldr	r3, [pc, #4]	; (100018d8 <__aeabi_bits_init+0xc>)
100018d2:	4718      	bx	r3
100018d4:	200001e0 	.word	0x200001e0
100018d8:	100018fd 	.word	0x100018fd

100018dc <rom_func_lookup>:
100018dc:	2314      	movs	r3, #20
100018de:	b510      	push	{r4, lr}
100018e0:	0001      	movs	r1, r0
100018e2:	8818      	ldrh	r0, [r3, #0]
100018e4:	3304      	adds	r3, #4
100018e6:	881b      	ldrh	r3, [r3, #0]
100018e8:	4798      	blx	r3
100018ea:	bd10      	pop	{r4, pc}

100018ec <rom_data_lookup>:
100018ec:	2316      	movs	r3, #22
100018ee:	b510      	push	{r4, lr}
100018f0:	0001      	movs	r1, r0
100018f2:	8818      	ldrh	r0, [r3, #0]
100018f4:	3302      	adds	r3, #2
100018f6:	881b      	ldrh	r3, [r3, #0]
100018f8:	4798      	blx	r3
100018fa:	bd10      	pop	{r4, pc}

100018fc <rom_funcs_lookup>:
100018fc:	b5f0      	push	{r4, r5, r6, r7, lr}
100018fe:	46c6      	mov	lr, r8
10001900:	b500      	push	{lr}
10001902:	2900      	cmp	r1, #0
10001904:	d016      	beq.n	10001934 <rom_funcs_lookup+0x38>
10001906:	2314      	movs	r3, #20
10001908:	0004      	movs	r4, r0
1000190a:	2501      	movs	r5, #1
1000190c:	4698      	mov	r8, r3
1000190e:	2718      	movs	r7, #24
10001910:	0089      	lsls	r1, r1, #2
10001912:	1846      	adds	r6, r0, r1
10001914:	4643      	mov	r3, r8
10001916:	6821      	ldr	r1, [r4, #0]
10001918:	8818      	ldrh	r0, [r3, #0]
1000191a:	883b      	ldrh	r3, [r7, #0]
1000191c:	4798      	blx	r3
1000191e:	c401      	stmia	r4!, {r0}
10001920:	1e43      	subs	r3, r0, #1
10001922:	4198      	sbcs	r0, r3
10001924:	4240      	negs	r0, r0
10001926:	4005      	ands	r5, r0
10001928:	42a6      	cmp	r6, r4
1000192a:	d1f3      	bne.n	10001914 <rom_funcs_lookup+0x18>
1000192c:	0028      	movs	r0, r5
1000192e:	bc04      	pop	{r2}
10001930:	4690      	mov	r8, r2
10001932:	bdf0      	pop	{r4, r5, r6, r7, pc}
10001934:	2501      	movs	r5, #1
10001936:	e7f9      	b.n	1000192c <rom_funcs_lookup+0x30>

10001938 <__wrap___aeabi_uidiv>:
10001938:	4a13      	ldr	r2, [pc, #76]	; (10001988 <divmod_u32u32_savestate+0x20>)
1000193a:	6f93      	ldr	r3, [r2, #120]	; 0x78
1000193c:	089b      	lsrs	r3, r3, #2
1000193e:	d213      	bcs.n	10001968 <divmod_u32u32_savestate>

10001940 <divmod_u32u32_unsafe>:
10001940:	6610      	str	r0, [r2, #96]	; 0x60
10001942:	6651      	str	r1, [r2, #100]	; 0x64
10001944:	2900      	cmp	r1, #0
10001946:	d005      	beq.n	10001954 <divmod_u32u32_unsafe+0x14>
10001948:	e7ff      	b.n	1000194a <divmod_u32u32_unsafe+0xa>
1000194a:	e7ff      	b.n	1000194c <divmod_u32u32_unsafe+0xc>
1000194c:	e7ff      	b.n	1000194e <divmod_u32u32_unsafe+0xe>
1000194e:	6f51      	ldr	r1, [r2, #116]	; 0x74
10001950:	6f10      	ldr	r0, [r2, #112]	; 0x70
10001952:	4770      	bx	lr
10001954:	b504      	push	{r2, lr}
10001956:	2800      	cmp	r0, #0
10001958:	d001      	beq.n	1000195e <divmod_u32u32_unsafe+0x1e>
1000195a:	2000      	movs	r0, #0
1000195c:	43c0      	mvns	r0, r0
1000195e:	f000 fef3 	bl	10002748 <____aeabi_idiv0_veneer>
10001962:	2100      	movs	r1, #0
10001964:	bd04      	pop	{r2, pc}
10001966:	46c0      	nop			; (mov r8, r8)

10001968 <divmod_u32u32_savestate>:
10001968:	6f93      	ldr	r3, [r2, #120]	; 0x78
1000196a:	085b      	lsrs	r3, r3, #1
1000196c:	d3fd      	bcc.n	1000196a <divmod_u32u32_savestate+0x2>
1000196e:	b5f0      	push	{r4, r5, r6, r7, lr}
10001970:	6e94      	ldr	r4, [r2, #104]	; 0x68
10001972:	6ed5      	ldr	r5, [r2, #108]	; 0x6c
10001974:	6f57      	ldr	r7, [r2, #116]	; 0x74
10001976:	6f16      	ldr	r6, [r2, #112]	; 0x70
10001978:	f7ff ffe2 	bl	10001940 <divmod_u32u32_unsafe>
1000197c:	6694      	str	r4, [r2, #104]	; 0x68
1000197e:	66d5      	str	r5, [r2, #108]	; 0x6c
10001980:	6757      	str	r7, [r2, #116]	; 0x74
10001982:	6716      	str	r6, [r2, #112]	; 0x70
10001984:	bdf0      	pop	{r4, r5, r6, r7, pc}
10001986:	0000      	.short	0x0000
10001988:	d0000000 	.word	0xd0000000

1000198c <__aeabi_double_init>:
1000198c:	2313      	movs	r3, #19
1000198e:	b570      	push	{r4, r5, r6, lr}
10001990:	781d      	ldrb	r5, [r3, #0]
10001992:	2d01      	cmp	r5, #1
10001994:	d010      	beq.n	100019b8 <__aeabi_double_init+0x2c>
10001996:	dd0b      	ble.n	100019b0 <__aeabi_double_init+0x24>
10001998:	4824      	ldr	r0, [pc, #144]	; (10001a2c <__aeabi_double_init+0xa0>)
1000199a:	f7ff ffa7 	bl	100018ec <rom_data_lookup>
1000199e:	4c24      	ldr	r4, [pc, #144]	; (10001a30 <__aeabi_double_init+0xa4>)
100019a0:	0001      	movs	r1, r0
100019a2:	2280      	movs	r2, #128	; 0x80
100019a4:	0020      	movs	r0, r4
100019a6:	f000 f8bb 	bl	10001b20 <__wrap___aeabi_memcpy>
100019aa:	2d02      	cmp	r5, #2
100019ac:	d001      	beq.n	100019b2 <__aeabi_double_init+0x26>
100019ae:	bd70      	pop	{r4, r5, r6, pc}
100019b0:	4c1f      	ldr	r4, [pc, #124]	; (10001a30 <__aeabi_double_init+0xa4>)
100019b2:	4a20      	ldr	r2, [pc, #128]	; (10001a34 <__aeabi_double_init+0xa8>)
100019b4:	64a2      	str	r2, [r4, #72]	; 0x48
100019b6:	e7fa      	b.n	100019ae <__aeabi_double_init+0x22>
100019b8:	002e      	movs	r6, r5
100019ba:	4c1d      	ldr	r4, [pc, #116]	; (10001a30 <__aeabi_double_init+0xa4>)
100019bc:	4a1d      	ldr	r2, [pc, #116]	; (10001a34 <__aeabi_double_init+0xa8>)
100019be:	08a3      	lsrs	r3, r4, #2
100019c0:	425b      	negs	r3, r3
100019c2:	401e      	ands	r6, r3
100019c4:	421d      	tst	r5, r3
100019c6:	d02f      	beq.n	10001a28 <__aeabi_double_init+0x9c>
100019c8:	0033      	movs	r3, r6
100019ca:	6022      	str	r2, [r4, #0]
100019cc:	2020      	movs	r0, #32
100019ce:	00b1      	lsls	r1, r6, #2
100019d0:	1861      	adds	r1, r4, r1
100019d2:	1b80      	subs	r0, r0, r6
100019d4:	600a      	str	r2, [r1, #0]
100019d6:	604a      	str	r2, [r1, #4]
100019d8:	608a      	str	r2, [r1, #8]
100019da:	60ca      	str	r2, [r1, #12]
100019dc:	610a      	str	r2, [r1, #16]
100019de:	614a      	str	r2, [r1, #20]
100019e0:	618a      	str	r2, [r1, #24]
100019e2:	61ca      	str	r2, [r1, #28]
100019e4:	620a      	str	r2, [r1, #32]
100019e6:	624a      	str	r2, [r1, #36]	; 0x24
100019e8:	628a      	str	r2, [r1, #40]	; 0x28
100019ea:	62ca      	str	r2, [r1, #44]	; 0x2c
100019ec:	630a      	str	r2, [r1, #48]	; 0x30
100019ee:	634a      	str	r2, [r1, #52]	; 0x34
100019f0:	638a      	str	r2, [r1, #56]	; 0x38
100019f2:	63ca      	str	r2, [r1, #60]	; 0x3c
100019f4:	640a      	str	r2, [r1, #64]	; 0x40
100019f6:	644a      	str	r2, [r1, #68]	; 0x44
100019f8:	648a      	str	r2, [r1, #72]	; 0x48
100019fa:	64ca      	str	r2, [r1, #76]	; 0x4c
100019fc:	650a      	str	r2, [r1, #80]	; 0x50
100019fe:	654a      	str	r2, [r1, #84]	; 0x54
10001a00:	658a      	str	r2, [r1, #88]	; 0x58
10001a02:	65ca      	str	r2, [r1, #92]	; 0x5c
10001a04:	660a      	str	r2, [r1, #96]	; 0x60
10001a06:	664a      	str	r2, [r1, #100]	; 0x64
10001a08:	668a      	str	r2, [r1, #104]	; 0x68
10001a0a:	66ca      	str	r2, [r1, #108]	; 0x6c
10001a0c:	670a      	str	r2, [r1, #112]	; 0x70
10001a0e:	674a      	str	r2, [r1, #116]	; 0x74
10001a10:	0840      	lsrs	r0, r0, #1
10001a12:	2810      	cmp	r0, #16
10001a14:	d103      	bne.n	10001a1e <__aeabi_double_init+0x92>
10001a16:	678a      	str	r2, [r1, #120]	; 0x78
10001a18:	67ca      	str	r2, [r1, #124]	; 0x7c
10001a1a:	64a2      	str	r2, [r4, #72]	; 0x48
10001a1c:	e7c7      	b.n	100019ae <__aeabi_double_init+0x22>
10001a1e:	331e      	adds	r3, #30
10001a20:	009b      	lsls	r3, r3, #2
10001a22:	50e2      	str	r2, [r4, r3]
10001a24:	64a2      	str	r2, [r4, #72]	; 0x48
10001a26:	e7c2      	b.n	100019ae <__aeabi_double_init+0x22>
10001a28:	2300      	movs	r3, #0
10001a2a:	e7cf      	b.n	100019cc <__aeabi_double_init+0x40>
10001a2c:	00004453 	.word	0x00004453
10001a30:	20000b34 	.word	0x20000b34
10001a34:	10001a39 	.word	0x10001a39

10001a38 <double_table_shim_on_use_helper>:
10001a38:	b507      	push	{r0, r1, r2, lr}
10001a3a:	4660      	mov	r0, ip
10001a3c:	8801      	ldrh	r1, [r0, #0]
10001a3e:	0a0a      	lsrs	r2, r1, #8
10001a40:	3002      	adds	r0, #2
10001a42:	2adf      	cmp	r2, #223	; 0xdf
10001a44:	d1fa      	bne.n	10001a3c <double_table_shim_on_use_helper+0x4>
10001a46:	b2c9      	uxtb	r1, r1
10001a48:	0882      	lsrs	r2, r0, #2
10001a4a:	d304      	bcc.n	10001a56 <double_table_shim_on_use_helper+0x1e>
10001a4c:	8802      	ldrh	r2, [r0, #0]
10001a4e:	8840      	ldrh	r0, [r0, #2]
10001a50:	0400      	lsls	r0, r0, #16
10001a52:	4310      	orrs	r0, r2
10001a54:	e000      	b.n	10001a58 <double_table_shim_on_use_helper+0x20>
10001a56:	6800      	ldr	r0, [r0, #0]
10001a58:	4a01      	ldr	r2, [pc, #4]	; (10001a60 <double_table_shim_on_use_helper+0x28>)
10001a5a:	5050      	str	r0, [r2, r1]
10001a5c:	9003      	str	r0, [sp, #12]
10001a5e:	bd07      	pop	{r0, r1, r2, pc}
10001a60:	20000b34 	.word	0x20000b34

10001a64 <__aeabi_float_init>:
10001a64:	2313      	movs	r3, #19
10001a66:	b510      	push	{r4, lr}
10001a68:	4812      	ldr	r0, [pc, #72]	; (10001ab4 <__aeabi_float_init+0x50>)
10001a6a:	781c      	ldrb	r4, [r3, #0]
10001a6c:	f7ff ff3e 	bl	100018ec <rom_data_lookup>
10001a70:	0001      	movs	r1, r0
10001a72:	2c01      	cmp	r4, #1
10001a74:	d00a      	beq.n	10001a8c <__aeabi_float_init+0x28>
10001a76:	dd03      	ble.n	10001a80 <__aeabi_float_init+0x1c>
10001a78:	2280      	movs	r2, #128	; 0x80
10001a7a:	480f      	ldr	r0, [pc, #60]	; (10001ab8 <__aeabi_float_init+0x54>)
10001a7c:	f000 f850 	bl	10001b20 <__wrap___aeabi_memcpy>
10001a80:	480e      	ldr	r0, [pc, #56]	; (10001abc <__aeabi_float_init+0x58>)
10001a82:	f7ff ff2b 	bl	100018dc <rom_func_lookup>
10001a86:	4b0e      	ldr	r3, [pc, #56]	; (10001ac0 <__aeabi_float_init+0x5c>)
10001a88:	6018      	str	r0, [r3, #0]
10001a8a:	bd10      	pop	{r4, pc}
10001a8c:	4c0a      	ldr	r4, [pc, #40]	; (10001ab8 <__aeabi_float_init+0x54>)
10001a8e:	2254      	movs	r2, #84	; 0x54
10001a90:	0020      	movs	r0, r4
10001a92:	f000 f845 	bl	10001b20 <__wrap___aeabi_memcpy>
10001a96:	4b0b      	ldr	r3, [pc, #44]	; (10001ac4 <__aeabi_float_init+0x60>)
10001a98:	6563      	str	r3, [r4, #84]	; 0x54
10001a9a:	65a3      	str	r3, [r4, #88]	; 0x58
10001a9c:	65e3      	str	r3, [r4, #92]	; 0x5c
10001a9e:	6623      	str	r3, [r4, #96]	; 0x60
10001aa0:	6663      	str	r3, [r4, #100]	; 0x64
10001aa2:	66a3      	str	r3, [r4, #104]	; 0x68
10001aa4:	66e3      	str	r3, [r4, #108]	; 0x6c
10001aa6:	6723      	str	r3, [r4, #112]	; 0x70
10001aa8:	6763      	str	r3, [r4, #116]	; 0x74
10001aaa:	67a3      	str	r3, [r4, #120]	; 0x78
10001aac:	67e3      	str	r3, [r4, #124]	; 0x7c
10001aae:	6223      	str	r3, [r4, #32]
10001ab0:	61e3      	str	r3, [r4, #28]
10001ab2:	e7e5      	b.n	10001a80 <__aeabi_float_init+0x1c>
10001ab4:	00004653 	.word	0x00004653
10001ab8:	20000c34 	.word	0x20000c34
10001abc:	0000334c 	.word	0x0000334c
10001ac0:	20000d34 	.word	0x20000d34
10001ac4:	10001ac9 	.word	0x10001ac9

10001ac8 <float_table_shim_on_use_helper>:
10001ac8:	b507      	push	{r0, r1, r2, lr}
10001aca:	4660      	mov	r0, ip
10001acc:	8801      	ldrh	r1, [r0, #0]
10001ace:	0a0a      	lsrs	r2, r1, #8
10001ad0:	3002      	adds	r0, #2
10001ad2:	2adf      	cmp	r2, #223	; 0xdf
10001ad4:	d1fa      	bne.n	10001acc <float_table_shim_on_use_helper+0x4>
10001ad6:	b2c9      	uxtb	r1, r1
10001ad8:	0882      	lsrs	r2, r0, #2
10001ada:	d304      	bcc.n	10001ae6 <float_table_shim_on_use_helper+0x1e>
10001adc:	8802      	ldrh	r2, [r0, #0]
10001ade:	8840      	ldrh	r0, [r0, #2]
10001ae0:	0400      	lsls	r0, r0, #16
10001ae2:	4310      	orrs	r0, r2
10001ae4:	e000      	b.n	10001ae8 <float_table_shim_on_use_helper+0x20>
10001ae6:	6800      	ldr	r0, [r0, #0]
10001ae8:	4a01      	ldr	r2, [pc, #4]	; (10001af0 <float_table_shim_on_use_helper+0x28>)
10001aea:	5050      	str	r0, [r2, r1]
10001aec:	9003      	str	r0, [sp, #12]
10001aee:	bd07      	pop	{r0, r1, r2, pc}
10001af0:	20000c34 	.word	0x20000c34

10001af4 <__wrap_malloc>:
10001af4:	b510      	push	{r4, lr}
10001af6:	f000 f9cd 	bl	10001e94 <malloc>
10001afa:	bd10      	pop	{r4, pc}

10001afc <__wrap_calloc>:
10001afc:	b510      	push	{r4, lr}
10001afe:	f000 f98f 	bl	10001e20 <calloc>
10001b02:	bd10      	pop	{r4, pc}

10001b04 <__aeabi_mem_init>:
10001b04:	4801      	ldr	r0, [pc, #4]	; (10001b0c <__aeabi_mem_init+0x8>)
10001b06:	2104      	movs	r1, #4
10001b08:	4b01      	ldr	r3, [pc, #4]	; (10001b10 <__aeabi_mem_init+0xc>)
10001b0a:	4718      	bx	r3
10001b0c:	200001f0 	.word	0x200001f0
10001b10:	100018fd 	.word	0x100018fd

10001b14 <__wrap_memset>:
10001b14:	4b01      	ldr	r3, [pc, #4]	; (10001b1c <__wrap_memset+0x8>)
10001b16:	681b      	ldr	r3, [r3, #0]
10001b18:	4718      	bx	r3
10001b1a:	0000      	.short	0x0000
10001b1c:	200001f0 	.word	0x200001f0

10001b20 <__wrap___aeabi_memcpy>:
10001b20:	4b01      	ldr	r3, [pc, #4]	; (10001b28 <__wrap___aeabi_memcpy+0x8>)
10001b22:	685b      	ldr	r3, [r3, #4]
10001b24:	4718      	bx	r3
10001b26:	0000      	.short	0x0000
10001b28:	200001f0 	.word	0x200001f0

10001b2c <stdio_out_chars_crlf.part.0>:
10001b2c:	b5f8      	push	{r3, r4, r5, r6, r7, lr}
10001b2e:	4647      	mov	r7, r8
10001b30:	46ce      	mov	lr, r9
10001b32:	000d      	movs	r5, r1
10001b34:	b580      	push	{r7, lr}
10001b36:	0016      	movs	r6, r2
10001b38:	0007      	movs	r7, r0
10001b3a:	2a00      	cmp	r2, #0
10001b3c:	dd20      	ble.n	10001b80 <stdio_out_chars_crlf.part.0+0x54>
10001b3e:	1e4b      	subs	r3, r1, #1
10001b40:	4698      	mov	r8, r3
10001b42:	4b1a      	ldr	r3, [pc, #104]	; (10001bac <stdio_out_chars_crlf.part.0+0x80>)
10001b44:	2400      	movs	r4, #0
10001b46:	2000      	movs	r0, #0
10001b48:	4699      	mov	r9, r3
10001b4a:	2c00      	cmp	r4, #0
10001b4c:	d02b      	beq.n	10001ba6 <stdio_out_chars_crlf.part.0+0x7a>
10001b4e:	4643      	mov	r3, r8
10001b50:	5d1b      	ldrb	r3, [r3, r4]
10001b52:	3b0d      	subs	r3, #13
10001b54:	425a      	negs	r2, r3
10001b56:	4153      	adcs	r3, r2
10001b58:	b2db      	uxtb	r3, r3
10001b5a:	5d2a      	ldrb	r2, [r5, r4]
10001b5c:	2a0a      	cmp	r2, #10
10001b5e:	d013      	beq.n	10001b88 <stdio_out_chars_crlf.part.0+0x5c>
10001b60:	3401      	adds	r4, #1
10001b62:	42a6      	cmp	r6, r4
10001b64:	dcf1      	bgt.n	10001b4a <stdio_out_chars_crlf.part.0+0x1e>
10001b66:	4286      	cmp	r6, r0
10001b68:	dd03      	ble.n	10001b72 <stdio_out_chars_crlf.part.0+0x46>
10001b6a:	1a31      	subs	r1, r6, r0
10001b6c:	683b      	ldr	r3, [r7, #0]
10001b6e:	1828      	adds	r0, r5, r0
10001b70:	4798      	blx	r3
10001b72:	19ad      	adds	r5, r5, r6
10001b74:	3d01      	subs	r5, #1
10001b76:	782b      	ldrb	r3, [r5, #0]
10001b78:	3b0d      	subs	r3, #13
10001b7a:	425a      	negs	r2, r3
10001b7c:	4153      	adcs	r3, r2
10001b7e:	743b      	strb	r3, [r7, #16]
10001b80:	bc0c      	pop	{r2, r3}
10001b82:	4690      	mov	r8, r2
10001b84:	4699      	mov	r9, r3
10001b86:	bdf8      	pop	{r3, r4, r5, r6, r7, pc}
10001b88:	2b00      	cmp	r3, #0
10001b8a:	d1e9      	bne.n	10001b60 <stdio_out_chars_crlf.part.0+0x34>
10001b8c:	42a0      	cmp	r0, r4
10001b8e:	da03      	bge.n	10001b98 <stdio_out_chars_crlf.part.0+0x6c>
10001b90:	1a21      	subs	r1, r4, r0
10001b92:	683b      	ldr	r3, [r7, #0]
10001b94:	1828      	adds	r0, r5, r0
10001b96:	4798      	blx	r3
10001b98:	4648      	mov	r0, r9
10001b9a:	2102      	movs	r1, #2
10001b9c:	683b      	ldr	r3, [r7, #0]
10001b9e:	3401      	adds	r4, #1
10001ba0:	4798      	blx	r3
10001ba2:	0020      	movs	r0, r4
10001ba4:	e7dd      	b.n	10001b62 <stdio_out_chars_crlf.part.0+0x36>
10001ba6:	7c3b      	ldrb	r3, [r7, #16]
10001ba8:	e7d7      	b.n	10001b5a <stdio_out_chars_crlf.part.0+0x2e>
10001baa:	46c0      	nop			; (mov r8, r8)
10001bac:	100028f8 	.word	0x100028f8

10001bb0 <stdio_put_string>:
10001bb0:	b5f0      	push	{r4, r5, r6, r7, lr}
10001bb2:	4657      	mov	r7, sl
10001bb4:	4645      	mov	r5, r8
10001bb6:	46de      	mov	lr, fp
10001bb8:	464e      	mov	r6, r9
10001bba:	23d0      	movs	r3, #208	; 0xd0
10001bbc:	b5e0      	push	{r5, r6, r7, lr}
10001bbe:	061b      	lsls	r3, r3, #24
10001bc0:	681c      	ldr	r4, [r3, #0]
10001bc2:	4b37      	ldr	r3, [pc, #220]	; (10001ca0 <stdio_put_string+0xf0>)
10001bc4:	b083      	sub	sp, #12
10001bc6:	0007      	movs	r7, r0
10001bc8:	000d      	movs	r5, r1
10001bca:	0018      	movs	r0, r3
10001bcc:	a901      	add	r1, sp, #4
10001bce:	4690      	mov	r8, r2
10001bd0:	469a      	mov	sl, r3
10001bd2:	f000 fdc1 	bl	10002758 <__mutex_try_enter_veneer>
10001bd6:	4681      	mov	r9, r0
10001bd8:	2800      	cmp	r0, #0
10001bda:	d107      	bne.n	10001bec <stdio_put_string+0x3c>
10001bdc:	9b01      	ldr	r3, [sp, #4]
10001bde:	429c      	cmp	r4, r3
10001be0:	d004      	beq.n	10001bec <stdio_put_string+0x3c>
10001be2:	4650      	mov	r0, sl
10001be4:	f000 fdc0 	bl	10002768 <__mutex_enter_blocking_veneer>
10001be8:	2301      	movs	r3, #1
10001bea:	4699      	mov	r9, r3
10001bec:	1c6b      	adds	r3, r5, #1
10001bee:	d103      	bne.n	10001bf8 <stdio_put_string+0x48>
10001bf0:	0038      	movs	r0, r7
10001bf2:	f000 fc3b 	bl	1000246c <strlen>
10001bf6:	0005      	movs	r5, r0
10001bf8:	4b2a      	ldr	r3, [pc, #168]	; (10001ca4 <stdio_put_string+0xf4>)
10001bfa:	681c      	ldr	r4, [r3, #0]
10001bfc:	2c00      	cmp	r4, #0
10001bfe:	d02f      	beq.n	10001c60 <stdio_put_string+0xb0>
10001c00:	230a      	movs	r3, #10
10001c02:	4e29      	ldr	r6, [pc, #164]	; (10001ca8 <stdio_put_string+0xf8>)
10001c04:	469b      	mov	fp, r3
10001c06:	e002      	b.n	10001c0e <stdio_put_string+0x5e>
10001c08:	68e4      	ldr	r4, [r4, #12]
10001c0a:	2c00      	cmp	r4, #0
10001c0c:	d028      	beq.n	10001c60 <stdio_put_string+0xb0>
10001c0e:	6822      	ldr	r2, [r4, #0]
10001c10:	2a00      	cmp	r2, #0
10001c12:	d0f9      	beq.n	10001c08 <stdio_put_string+0x58>
10001c14:	6833      	ldr	r3, [r6, #0]
10001c16:	2b00      	cmp	r3, #0
10001c18:	d001      	beq.n	10001c1e <stdio_put_string+0x6e>
10001c1a:	42a3      	cmp	r3, r4
10001c1c:	d1f4      	bne.n	10001c08 <stdio_put_string+0x58>
10001c1e:	7c63      	ldrb	r3, [r4, #17]
10001c20:	2b00      	cmp	r3, #0
10001c22:	d02a      	beq.n	10001c7a <stdio_put_string+0xca>
10001c24:	002a      	movs	r2, r5
10001c26:	0039      	movs	r1, r7
10001c28:	0020      	movs	r0, r4
10001c2a:	f7ff ff7f 	bl	10001b2c <stdio_out_chars_crlf.part.0>
10001c2e:	4643      	mov	r3, r8
10001c30:	2b00      	cmp	r3, #0
10001c32:	d0e9      	beq.n	10001c08 <stdio_put_string+0x58>
10001c34:	466b      	mov	r3, sp
10001c36:	465a      	mov	r2, fp
10001c38:	711a      	strb	r2, [r3, #4]
10001c3a:	7c63      	ldrb	r3, [r4, #17]
10001c3c:	2b00      	cmp	r3, #0
10001c3e:	d020      	beq.n	10001c82 <stdio_put_string+0xd2>
10001c40:	7c23      	ldrb	r3, [r4, #16]
10001c42:	2b00      	cmp	r3, #0
10001c44:	d026      	beq.n	10001c94 <stdio_put_string+0xe4>
10001c46:	2101      	movs	r1, #1
10001c48:	6823      	ldr	r3, [r4, #0]
10001c4a:	a801      	add	r0, sp, #4
10001c4c:	4798      	blx	r3
10001c4e:	466b      	mov	r3, sp
10001c50:	791b      	ldrb	r3, [r3, #4]
10001c52:	3b0d      	subs	r3, #13
10001c54:	425a      	negs	r2, r3
10001c56:	4153      	adcs	r3, r2
10001c58:	7423      	strb	r3, [r4, #16]
10001c5a:	68e4      	ldr	r4, [r4, #12]
10001c5c:	2c00      	cmp	r4, #0
10001c5e:	d1d6      	bne.n	10001c0e <stdio_put_string+0x5e>
10001c60:	464b      	mov	r3, r9
10001c62:	2b00      	cmp	r3, #0
10001c64:	d112      	bne.n	10001c8c <stdio_put_string+0xdc>
10001c66:	1e68      	subs	r0, r5, #1
10001c68:	4185      	sbcs	r5, r0
10001c6a:	b2e8      	uxtb	r0, r5
10001c6c:	b003      	add	sp, #12
10001c6e:	bc3c      	pop	{r2, r3, r4, r5}
10001c70:	4690      	mov	r8, r2
10001c72:	4699      	mov	r9, r3
10001c74:	46a2      	mov	sl, r4
10001c76:	46ab      	mov	fp, r5
10001c78:	bdf0      	pop	{r4, r5, r6, r7, pc}
10001c7a:	0029      	movs	r1, r5
10001c7c:	0038      	movs	r0, r7
10001c7e:	4790      	blx	r2
10001c80:	e7d5      	b.n	10001c2e <stdio_put_string+0x7e>
10001c82:	2101      	movs	r1, #1
10001c84:	6823      	ldr	r3, [r4, #0]
10001c86:	a801      	add	r0, sp, #4
10001c88:	4798      	blx	r3
10001c8a:	e7bd      	b.n	10001c08 <stdio_put_string+0x58>
10001c8c:	4650      	mov	r0, sl
10001c8e:	f000 fd53 	bl	10002738 <__mutex_exit_veneer>
10001c92:	e7e8      	b.n	10001c66 <stdio_put_string+0xb6>
10001c94:	2102      	movs	r1, #2
10001c96:	4805      	ldr	r0, [pc, #20]	; (10001cac <stdio_put_string+0xfc>)
10001c98:	6823      	ldr	r3, [r4, #0]
10001c9a:	4798      	blx	r3
10001c9c:	e7d7      	b.n	10001c4e <stdio_put_string+0x9e>
10001c9e:	46c0      	nop			; (mov r8, r8)
10001ca0:	20000a50 	.word	0x20000a50
10001ca4:	20000af8 	.word	0x20000af8
10001ca8:	20000afc 	.word	0x20000afc
10001cac:	100028f8 	.word	0x100028f8

10001cb0 <__wrap_putchar>:
10001cb0:	b510      	push	{r4, lr}
10001cb2:	b082      	sub	sp, #8
10001cb4:	466b      	mov	r3, sp
10001cb6:	0004      	movs	r4, r0
10001cb8:	2200      	movs	r2, #0
10001cba:	1dd8      	adds	r0, r3, #7
10001cbc:	2101      	movs	r1, #1
10001cbe:	7004      	strb	r4, [r0, #0]
10001cc0:	f7ff ff76 	bl	10001bb0 <stdio_put_string>
10001cc4:	0020      	movs	r0, r4
10001cc6:	b002      	add	sp, #8
10001cc8:	bd10      	pop	{r4, pc}
10001cca:	46c0      	nop			; (mov r8, r8)

10001ccc <__wrap_puts>:
10001ccc:	b570      	push	{r4, r5, r6, lr}
10001cce:	0004      	movs	r4, r0
10001cd0:	f000 fbcc 	bl	1000246c <strlen>
10001cd4:	2201      	movs	r2, #1
10001cd6:	0001      	movs	r1, r0
10001cd8:	0005      	movs	r5, r0
10001cda:	0020      	movs	r0, r4
10001cdc:	f7ff ff68 	bl	10001bb0 <stdio_put_string>
10001ce0:	4b08      	ldr	r3, [pc, #32]	; (10001d04 <__wrap_puts+0x38>)
10001ce2:	681c      	ldr	r4, [r3, #0]
10001ce4:	2c00      	cmp	r4, #0
10001ce6:	d006      	beq.n	10001cf6 <__wrap_puts+0x2a>
10001ce8:	6863      	ldr	r3, [r4, #4]
10001cea:	2b00      	cmp	r3, #0
10001cec:	d005      	beq.n	10001cfa <__wrap_puts+0x2e>
10001cee:	4798      	blx	r3
10001cf0:	68e4      	ldr	r4, [r4, #12]
10001cf2:	2c00      	cmp	r4, #0
10001cf4:	d1f8      	bne.n	10001ce8 <__wrap_puts+0x1c>
10001cf6:	0028      	movs	r0, r5
10001cf8:	bd70      	pop	{r4, r5, r6, pc}
10001cfa:	68e4      	ldr	r4, [r4, #12]
10001cfc:	2c00      	cmp	r4, #0
10001cfe:	d1f3      	bne.n	10001ce8 <__wrap_puts+0x1c>
10001d00:	e7f9      	b.n	10001cf6 <__wrap_puts+0x2a>
10001d02:	46c0      	nop			; (mov r8, r8)
10001d04:	20000af8 	.word	0x20000af8

10001d08 <stdio_set_driver_enabled>:
10001d08:	4a0d      	ldr	r2, [pc, #52]	; (10001d40 <stdio_set_driver_enabled+0x38>)
10001d0a:	6813      	ldr	r3, [r2, #0]
10001d0c:	2b00      	cmp	r3, #0
10001d0e:	d013      	beq.n	10001d38 <stdio_set_driver_enabled+0x30>
10001d10:	4283      	cmp	r3, r0
10001d12:	d102      	bne.n	10001d1a <stdio_set_driver_enabled+0x12>
10001d14:	e009      	b.n	10001d2a <stdio_set_driver_enabled+0x22>
10001d16:	4298      	cmp	r0, r3
10001d18:	d008      	beq.n	10001d2c <stdio_set_driver_enabled+0x24>
10001d1a:	001a      	movs	r2, r3
10001d1c:	68db      	ldr	r3, [r3, #12]
10001d1e:	2b00      	cmp	r3, #0
10001d20:	d1f9      	bne.n	10001d16 <stdio_set_driver_enabled+0xe>
10001d22:	2900      	cmp	r1, #0
10001d24:	d000      	beq.n	10001d28 <stdio_set_driver_enabled+0x20>
10001d26:	60d0      	str	r0, [r2, #12]
10001d28:	4770      	bx	lr
10001d2a:	001a      	movs	r2, r3
10001d2c:	2900      	cmp	r1, #0
10001d2e:	d1fb      	bne.n	10001d28 <stdio_set_driver_enabled+0x20>
10001d30:	68db      	ldr	r3, [r3, #12]
10001d32:	60d3      	str	r3, [r2, #12]
10001d34:	60c1      	str	r1, [r0, #12]
10001d36:	e7f7      	b.n	10001d28 <stdio_set_driver_enabled+0x20>
10001d38:	2900      	cmp	r1, #0
10001d3a:	d0f5      	beq.n	10001d28 <stdio_set_driver_enabled+0x20>
10001d3c:	6010      	str	r0, [r2, #0]
10001d3e:	e7f3      	b.n	10001d28 <stdio_set_driver_enabled+0x20>
10001d40:	20000af8 	.word	0x20000af8

10001d44 <stdio_init_all>:
10001d44:	b510      	push	{r4, lr}
10001d46:	f000 f83b 	bl	10001dc0 <stdio_uart_init>
10001d4a:	bd10      	pop	{r4, pc}

10001d4c <stdio_uart_out_chars>:
10001d4c:	b5f0      	push	{r4, r5, r6, r7, lr}
10001d4e:	2900      	cmp	r1, #0
10001d50:	d010      	beq.n	10001d74 <stdio_uart_out_chars+0x28>
10001d52:	1845      	adds	r5, r0, r1
10001d54:	270d      	movs	r7, #13
10001d56:	2120      	movs	r1, #32
10001d58:	4b09      	ldr	r3, [pc, #36]	; (10001d80 <stdio_uart_out_chars+0x34>)
10001d5a:	4a0a      	ldr	r2, [pc, #40]	; (10001d84 <stdio_uart_out_chars+0x38>)
10001d5c:	2600      	movs	r6, #0
10001d5e:	5f9e      	ldrsh	r6, [r3, r6]
10001d60:	7804      	ldrb	r4, [r0, #0]
10001d62:	42a6      	cmp	r6, r4
10001d64:	d007      	beq.n	10001d76 <stdio_uart_out_chars+0x2a>
10001d66:	6993      	ldr	r3, [r2, #24]
10001d68:	4219      	tst	r1, r3
10001d6a:	d1fc      	bne.n	10001d66 <stdio_uart_out_chars+0x1a>
10001d6c:	3001      	adds	r0, #1
10001d6e:	6014      	str	r4, [r2, #0]
10001d70:	42a8      	cmp	r0, r5
10001d72:	d1f5      	bne.n	10001d60 <stdio_uart_out_chars+0x14>
10001d74:	bdf0      	pop	{r4, r5, r6, r7, pc}
10001d76:	6993      	ldr	r3, [r2, #24]
10001d78:	4219      	tst	r1, r3
10001d7a:	d1fc      	bne.n	10001d76 <stdio_uart_out_chars+0x2a>
10001d7c:	6017      	str	r7, [r2, #0]
10001d7e:	e7f2      	b.n	10001d66 <stdio_uart_out_chars+0x1a>
10001d80:	20000b30 	.word	0x20000b30
10001d84:	40034000 	.word	0x40034000

10001d88 <stdio_uart_in_chars>:
10001d88:	b530      	push	{r4, r5, lr}
10001d8a:	0005      	movs	r5, r0
10001d8c:	2000      	movs	r0, #0
10001d8e:	2900      	cmp	r1, #0
10001d90:	dd10      	ble.n	10001db4 <stdio_uart_in_chars+0x2c>
10001d92:	2410      	movs	r4, #16
10001d94:	4a09      	ldr	r2, [pc, #36]	; (10001dbc <stdio_uart_in_chars+0x34>)
10001d96:	3d01      	subs	r5, #1
10001d98:	6993      	ldr	r3, [r2, #24]
10001d9a:	421c      	tst	r4, r3
10001d9c:	d108      	bne.n	10001db0 <stdio_uart_in_chars+0x28>
10001d9e:	3001      	adds	r0, #1
10001da0:	6993      	ldr	r3, [r2, #24]
10001da2:	421c      	tst	r4, r3
10001da4:	d1fc      	bne.n	10001da0 <stdio_uart_in_chars+0x18>
10001da6:	6813      	ldr	r3, [r2, #0]
10001da8:	542b      	strb	r3, [r5, r0]
10001daa:	4281      	cmp	r1, r0
10001dac:	d1f4      	bne.n	10001d98 <stdio_uart_in_chars+0x10>
10001dae:	bd30      	pop	{r4, r5, pc}
10001db0:	2800      	cmp	r0, #0
10001db2:	d1fc      	bne.n	10001dae <stdio_uart_in_chars+0x26>
10001db4:	2003      	movs	r0, #3
10001db6:	4240      	negs	r0, r0
10001db8:	e7f9      	b.n	10001dae <stdio_uart_in_chars+0x26>
10001dba:	46c0      	nop			; (mov r8, r8)
10001dbc:	40034000 	.word	0x40034000

10001dc0 <stdio_uart_init>:
10001dc0:	21e1      	movs	r1, #225	; 0xe1
10001dc2:	b510      	push	{r4, lr}
10001dc4:	4b0a      	ldr	r3, [pc, #40]	; (10001df0 <stdio_uart_init+0x30>)
10001dc6:	0249      	lsls	r1, r1, #9
10001dc8:	781b      	ldrb	r3, [r3, #0]
10001dca:	4b0a      	ldr	r3, [pc, #40]	; (10001df4 <stdio_uart_init+0x34>)
10001dcc:	480a      	ldr	r0, [pc, #40]	; (10001df8 <stdio_uart_init+0x38>)
10001dce:	781b      	ldrb	r3, [r3, #0]
10001dd0:	f7fe fbb4 	bl	1000053c <uart_init>
10001dd4:	2102      	movs	r1, #2
10001dd6:	2000      	movs	r0, #0
10001dd8:	f7fe faf8 	bl	100003cc <gpio_set_function>
10001ddc:	2102      	movs	r1, #2
10001dde:	2001      	movs	r0, #1
10001de0:	f7fe faf4 	bl	100003cc <gpio_set_function>
10001de4:	2101      	movs	r1, #1
10001de6:	4805      	ldr	r0, [pc, #20]	; (10001dfc <stdio_uart_init+0x3c>)
10001de8:	f7ff ff8e 	bl	10001d08 <stdio_set_driver_enabled>
10001dec:	bd10      	pop	{r4, pc}
10001dee:	46c0      	nop			; (mov r8, r8)
10001df0:	10002978 	.word	0x10002978
10001df4:	1000297c 	.word	0x1000297c
10001df8:	40034000 	.word	0x40034000
10001dfc:	20000200 	.word	0x20000200

10001e00 <dma_claim_unused_channel>:
10001e00:	b500      	push	{lr}
10001e02:	4b05      	ldr	r3, [pc, #20]	; (10001e18 <dma_claim_unused_channel+0x18>)
10001e04:	b083      	sub	sp, #12
10001e06:	0001      	movs	r1, r0
10001e08:	9300      	str	r3, [sp, #0]
10001e0a:	2200      	movs	r2, #0
10001e0c:	230b      	movs	r3, #11
10001e0e:	4803      	ldr	r0, [pc, #12]	; (10001e1c <dma_claim_unused_channel+0x1c>)
10001e10:	f7fe fb24 	bl	1000045c <hw_claim_unused_from_range>
10001e14:	b003      	add	sp, #12
10001e16:	bd00      	pop	{pc}
10001e18:	1000293c 	.word	0x1000293c
10001e1c:	20000b28 	.word	0x20000b28

10001e20 <calloc>:
10001e20:	0003      	movs	r3, r0
10001e22:	b510      	push	{r4, lr}
10001e24:	000a      	movs	r2, r1
10001e26:	4903      	ldr	r1, [pc, #12]	; (10001e34 <calloc+0x14>)
10001e28:	6808      	ldr	r0, [r1, #0]
10001e2a:	0019      	movs	r1, r3
10001e2c:	f000 f804 	bl	10001e38 <_calloc_r>
10001e30:	bd10      	pop	{r4, pc}
10001e32:	46c0      	nop			; (mov r8, r8)
10001e34:	20000214 	.word	0x20000214

10001e38 <_calloc_r>:
10001e38:	b510      	push	{r4, lr}
10001e3a:	4351      	muls	r1, r2
10001e3c:	f000 f834 	bl	10001ea8 <_malloc_r>
10001e40:	1e04      	subs	r4, r0, #0
10001e42:	d00e      	beq.n	10001e62 <_calloc_r+0x2a>
10001e44:	0003      	movs	r3, r0
10001e46:	3b08      	subs	r3, #8
10001e48:	685a      	ldr	r2, [r3, #4]
10001e4a:	2303      	movs	r3, #3
10001e4c:	439a      	bics	r2, r3
10001e4e:	3a04      	subs	r2, #4
10001e50:	2a24      	cmp	r2, #36	; 0x24
10001e52:	d815      	bhi.n	10001e80 <_calloc_r+0x48>
10001e54:	0003      	movs	r3, r0
10001e56:	2a13      	cmp	r2, #19
10001e58:	d805      	bhi.n	10001e66 <_calloc_r+0x2e>
10001e5a:	2200      	movs	r2, #0
10001e5c:	601a      	str	r2, [r3, #0]
10001e5e:	605a      	str	r2, [r3, #4]
10001e60:	609a      	str	r2, [r3, #8]
10001e62:	0020      	movs	r0, r4
10001e64:	bd10      	pop	{r4, pc}
10001e66:	2100      	movs	r1, #0
10001e68:	3308      	adds	r3, #8
10001e6a:	6001      	str	r1, [r0, #0]
10001e6c:	6041      	str	r1, [r0, #4]
10001e6e:	2a1b      	cmp	r2, #27
10001e70:	d9f3      	bls.n	10001e5a <_calloc_r+0x22>
10001e72:	6081      	str	r1, [r0, #8]
10001e74:	60c1      	str	r1, [r0, #12]
10001e76:	2a24      	cmp	r2, #36	; 0x24
10001e78:	d006      	beq.n	10001e88 <_calloc_r+0x50>
10001e7a:	0003      	movs	r3, r0
10001e7c:	3310      	adds	r3, #16
10001e7e:	e7ec      	b.n	10001e5a <_calloc_r+0x22>
10001e80:	2100      	movs	r1, #0
10001e82:	f7ff fe47 	bl	10001b14 <__wrap_memset>
10001e86:	e7ec      	b.n	10001e62 <_calloc_r+0x2a>
10001e88:	0003      	movs	r3, r0
10001e8a:	6101      	str	r1, [r0, #16]
10001e8c:	3318      	adds	r3, #24
10001e8e:	6141      	str	r1, [r0, #20]
10001e90:	e7e3      	b.n	10001e5a <_calloc_r+0x22>
10001e92:	46c0      	nop			; (mov r8, r8)

10001e94 <malloc>:
10001e94:	b510      	push	{r4, lr}
10001e96:	4b03      	ldr	r3, [pc, #12]	; (10001ea4 <malloc+0x10>)
10001e98:	0001      	movs	r1, r0
10001e9a:	6818      	ldr	r0, [r3, #0]
10001e9c:	f000 f804 	bl	10001ea8 <_malloc_r>
10001ea0:	bd10      	pop	{r4, pc}
10001ea2:	46c0      	nop			; (mov r8, r8)
10001ea4:	20000214 	.word	0x20000214

10001ea8 <_malloc_r>:
10001ea8:	b5f0      	push	{r4, r5, r6, r7, lr}
10001eaa:	464e      	mov	r6, r9
10001eac:	4645      	mov	r5, r8
10001eae:	46de      	mov	lr, fp
10001eb0:	4657      	mov	r7, sl
10001eb2:	b5e0      	push	{r5, r6, r7, lr}
10001eb4:	000d      	movs	r5, r1
10001eb6:	350b      	adds	r5, #11
10001eb8:	0006      	movs	r6, r0
10001eba:	b083      	sub	sp, #12
10001ebc:	2d16      	cmp	r5, #22
10001ebe:	d822      	bhi.n	10001f06 <_malloc_r+0x5e>
10001ec0:	2910      	cmp	r1, #16
10001ec2:	d900      	bls.n	10001ec6 <_malloc_r+0x1e>
10001ec4:	e0b2      	b.n	1000202c <_malloc_r+0x184>
10001ec6:	f000 faaf 	bl	10002428 <__malloc_lock>
10001eca:	2510      	movs	r5, #16
10001ecc:	2002      	movs	r0, #2
10001ece:	2318      	movs	r3, #24
10001ed0:	4fcb      	ldr	r7, [pc, #812]	; (10002200 <_malloc_r+0x358>)
10001ed2:	18fb      	adds	r3, r7, r3
10001ed4:	001a      	movs	r2, r3
10001ed6:	685c      	ldr	r4, [r3, #4]
10001ed8:	3a08      	subs	r2, #8
10001eda:	4294      	cmp	r4, r2
10001edc:	d100      	bne.n	10001ee0 <_malloc_r+0x38>
10001ede:	e0b5      	b.n	1000204c <_malloc_r+0x1a4>
10001ee0:	2303      	movs	r3, #3
10001ee2:	6862      	ldr	r2, [r4, #4]
10001ee4:	439a      	bics	r2, r3
10001ee6:	0013      	movs	r3, r2
10001ee8:	68e2      	ldr	r2, [r4, #12]
10001eea:	68a1      	ldr	r1, [r4, #8]
10001eec:	60ca      	str	r2, [r1, #12]
10001eee:	6091      	str	r1, [r2, #8]
10001ef0:	2201      	movs	r2, #1
10001ef2:	18e3      	adds	r3, r4, r3
10001ef4:	6859      	ldr	r1, [r3, #4]
10001ef6:	0030      	movs	r0, r6
10001ef8:	430a      	orrs	r2, r1
10001efa:	605a      	str	r2, [r3, #4]
10001efc:	f000 fa9c 	bl	10002438 <__malloc_unlock>
10001f00:	0020      	movs	r0, r4
10001f02:	3008      	adds	r0, #8
10001f04:	e095      	b.n	10002032 <_malloc_r+0x18a>
10001f06:	2307      	movs	r3, #7
10001f08:	439d      	bics	r5, r3
10001f0a:	d500      	bpl.n	10001f0e <_malloc_r+0x66>
10001f0c:	e08e      	b.n	1000202c <_malloc_r+0x184>
10001f0e:	42a9      	cmp	r1, r5
10001f10:	d900      	bls.n	10001f14 <_malloc_r+0x6c>
10001f12:	e08b      	b.n	1000202c <_malloc_r+0x184>
10001f14:	f000 fa88 	bl	10002428 <__malloc_lock>
10001f18:	23fc      	movs	r3, #252	; 0xfc
10001f1a:	005b      	lsls	r3, r3, #1
10001f1c:	429d      	cmp	r5, r3
10001f1e:	d200      	bcs.n	10001f22 <_malloc_r+0x7a>
10001f20:	e1a5      	b.n	1000226e <_malloc_r+0x3c6>
10001f22:	0a68      	lsrs	r0, r5, #9
10001f24:	d100      	bne.n	10001f28 <_malloc_r+0x80>
10001f26:	e08b      	b.n	10002040 <_malloc_r+0x198>
10001f28:	2804      	cmp	r0, #4
10001f2a:	d900      	bls.n	10001f2e <_malloc_r+0x86>
10001f2c:	e178      	b.n	10002220 <_malloc_r+0x378>
10001f2e:	2338      	movs	r3, #56	; 0x38
10001f30:	4698      	mov	r8, r3
10001f32:	09a8      	lsrs	r0, r5, #6
10001f34:	4480      	add	r8, r0
10001f36:	3039      	adds	r0, #57	; 0x39
10001f38:	00c1      	lsls	r1, r0, #3
10001f3a:	4fb1      	ldr	r7, [pc, #708]	; (10002200 <_malloc_r+0x358>)
10001f3c:	1879      	adds	r1, r7, r1
10001f3e:	684c      	ldr	r4, [r1, #4]
10001f40:	3908      	subs	r1, #8
10001f42:	42a1      	cmp	r1, r4
10001f44:	d00e      	beq.n	10001f64 <_malloc_r+0xbc>
10001f46:	2303      	movs	r3, #3
10001f48:	469c      	mov	ip, r3
10001f4a:	e004      	b.n	10001f56 <_malloc_r+0xae>
10001f4c:	2a00      	cmp	r2, #0
10001f4e:	dacb      	bge.n	10001ee8 <_malloc_r+0x40>
10001f50:	68e4      	ldr	r4, [r4, #12]
10001f52:	42a1      	cmp	r1, r4
10001f54:	d006      	beq.n	10001f64 <_malloc_r+0xbc>
10001f56:	4662      	mov	r2, ip
10001f58:	6863      	ldr	r3, [r4, #4]
10001f5a:	4393      	bics	r3, r2
10001f5c:	1b5a      	subs	r2, r3, r5
10001f5e:	2a0f      	cmp	r2, #15
10001f60:	ddf4      	ble.n	10001f4c <_malloc_r+0xa4>
10001f62:	4640      	mov	r0, r8
10001f64:	003a      	movs	r2, r7
10001f66:	693c      	ldr	r4, [r7, #16]
10001f68:	3208      	adds	r2, #8
10001f6a:	4294      	cmp	r4, r2
10001f6c:	d100      	bne.n	10001f70 <_malloc_r+0xc8>
10001f6e:	e078      	b.n	10002062 <_malloc_r+0x1ba>
10001f70:	2303      	movs	r3, #3
10001f72:	6861      	ldr	r1, [r4, #4]
10001f74:	4399      	bics	r1, r3
10001f76:	4689      	mov	r9, r1
10001f78:	000b      	movs	r3, r1
10001f7a:	1b49      	subs	r1, r1, r5
10001f7c:	290f      	cmp	r1, #15
10001f7e:	dd00      	ble.n	10001f82 <_malloc_r+0xda>
10001f80:	e179      	b.n	10002276 <_malloc_r+0x3ce>
10001f82:	617a      	str	r2, [r7, #20]
10001f84:	613a      	str	r2, [r7, #16]
10001f86:	2900      	cmp	r1, #0
10001f88:	dab2      	bge.n	10001ef0 <_malloc_r+0x48>
10001f8a:	2280      	movs	r2, #128	; 0x80
10001f8c:	0092      	lsls	r2, r2, #2
10001f8e:	4591      	cmp	r9, r2
10001f90:	d300      	bcc.n	10001f94 <_malloc_r+0xec>
10001f92:	e10e      	b.n	100021b2 <_malloc_r+0x30a>
10001f94:	0959      	lsrs	r1, r3, #5
10001f96:	08da      	lsrs	r2, r3, #3
10001f98:	2301      	movs	r3, #1
10001f9a:	408b      	lsls	r3, r1
10001f9c:	00d2      	lsls	r2, r2, #3
10001f9e:	6879      	ldr	r1, [r7, #4]
10001fa0:	19d2      	adds	r2, r2, r7
10001fa2:	430b      	orrs	r3, r1
10001fa4:	6891      	ldr	r1, [r2, #8]
10001fa6:	607b      	str	r3, [r7, #4]
10001fa8:	60e2      	str	r2, [r4, #12]
10001faa:	60a1      	str	r1, [r4, #8]
10001fac:	6094      	str	r4, [r2, #8]
10001fae:	60cc      	str	r4, [r1, #12]
10001fb0:	2101      	movs	r1, #1
10001fb2:	1082      	asrs	r2, r0, #2
10001fb4:	4091      	lsls	r1, r2
10001fb6:	4299      	cmp	r1, r3
10001fb8:	d859      	bhi.n	1000206e <_malloc_r+0x1c6>
10001fba:	420b      	tst	r3, r1
10001fbc:	d105      	bne.n	10001fca <_malloc_r+0x122>
10001fbe:	2203      	movs	r2, #3
10001fc0:	4390      	bics	r0, r2
10001fc2:	0049      	lsls	r1, r1, #1
10001fc4:	3004      	adds	r0, #4
10001fc6:	420b      	tst	r3, r1
10001fc8:	d0fb      	beq.n	10001fc2 <_malloc_r+0x11a>
10001fca:	2303      	movs	r3, #3
10001fcc:	4698      	mov	r8, r3
10001fce:	00c3      	lsls	r3, r0, #3
10001fd0:	4699      	mov	r9, r3
10001fd2:	44b9      	add	r9, r7
10001fd4:	46cc      	mov	ip, r9
10001fd6:	4682      	mov	sl, r0
10001fd8:	4663      	mov	r3, ip
10001fda:	68dc      	ldr	r4, [r3, #12]
10001fdc:	45a4      	cmp	ip, r4
10001fde:	d107      	bne.n	10001ff0 <_malloc_r+0x148>
10001fe0:	e12a      	b.n	10002238 <_malloc_r+0x390>
10001fe2:	2a00      	cmp	r2, #0
10001fe4:	db00      	blt.n	10001fe8 <_malloc_r+0x140>
10001fe6:	e133      	b.n	10002250 <_malloc_r+0x3a8>
10001fe8:	68e4      	ldr	r4, [r4, #12]
10001fea:	45a4      	cmp	ip, r4
10001fec:	d100      	bne.n	10001ff0 <_malloc_r+0x148>
10001fee:	e123      	b.n	10002238 <_malloc_r+0x390>
10001ff0:	4642      	mov	r2, r8
10001ff2:	6863      	ldr	r3, [r4, #4]
10001ff4:	4393      	bics	r3, r2
10001ff6:	1b5a      	subs	r2, r3, r5
10001ff8:	2a0f      	cmp	r2, #15
10001ffa:	ddf2      	ble.n	10001fe2 <_malloc_r+0x13a>
10001ffc:	2001      	movs	r0, #1
10001ffe:	4680      	mov	r8, r0
10002000:	1961      	adds	r1, r4, r5
10002002:	4305      	orrs	r5, r0
10002004:	6065      	str	r5, [r4, #4]
10002006:	68a0      	ldr	r0, [r4, #8]
10002008:	68e5      	ldr	r5, [r4, #12]
1000200a:	3708      	adds	r7, #8
1000200c:	60c5      	str	r5, [r0, #12]
1000200e:	60a8      	str	r0, [r5, #8]
10002010:	4640      	mov	r0, r8
10002012:	4310      	orrs	r0, r2
10002014:	60f9      	str	r1, [r7, #12]
10002016:	60b9      	str	r1, [r7, #8]
10002018:	6048      	str	r0, [r1, #4]
1000201a:	60cf      	str	r7, [r1, #12]
1000201c:	0030      	movs	r0, r6
1000201e:	608f      	str	r7, [r1, #8]
10002020:	50e2      	str	r2, [r4, r3]
10002022:	f000 fa09 	bl	10002438 <__malloc_unlock>
10002026:	0020      	movs	r0, r4
10002028:	3008      	adds	r0, #8
1000202a:	e002      	b.n	10002032 <_malloc_r+0x18a>
1000202c:	230c      	movs	r3, #12
1000202e:	2000      	movs	r0, #0
10002030:	6033      	str	r3, [r6, #0]
10002032:	b003      	add	sp, #12
10002034:	bc3c      	pop	{r2, r3, r4, r5}
10002036:	4690      	mov	r8, r2
10002038:	4699      	mov	r9, r3
1000203a:	46a2      	mov	sl, r4
1000203c:	46ab      	mov	fp, r5
1000203e:	bdf0      	pop	{r4, r5, r6, r7, pc}
10002040:	2180      	movs	r1, #128	; 0x80
10002042:	233f      	movs	r3, #63	; 0x3f
10002044:	2040      	movs	r0, #64	; 0x40
10002046:	4698      	mov	r8, r3
10002048:	0089      	lsls	r1, r1, #2
1000204a:	e776      	b.n	10001f3a <_malloc_r+0x92>
1000204c:	68dc      	ldr	r4, [r3, #12]
1000204e:	3002      	adds	r0, #2
10002050:	42a3      	cmp	r3, r4
10002052:	d000      	beq.n	10002056 <_malloc_r+0x1ae>
10002054:	e744      	b.n	10001ee0 <_malloc_r+0x38>
10002056:	003a      	movs	r2, r7
10002058:	693c      	ldr	r4, [r7, #16]
1000205a:	3208      	adds	r2, #8
1000205c:	4294      	cmp	r4, r2
1000205e:	d000      	beq.n	10002062 <_malloc_r+0x1ba>
10002060:	e786      	b.n	10001f70 <_malloc_r+0xc8>
10002062:	2101      	movs	r1, #1
10002064:	687b      	ldr	r3, [r7, #4]
10002066:	1082      	asrs	r2, r0, #2
10002068:	4091      	lsls	r1, r2
1000206a:	4299      	cmp	r1, r3
1000206c:	d9a5      	bls.n	10001fba <_malloc_r+0x112>
1000206e:	2303      	movs	r3, #3
10002070:	68bc      	ldr	r4, [r7, #8]
10002072:	6862      	ldr	r2, [r4, #4]
10002074:	439a      	bics	r2, r3
10002076:	4691      	mov	r9, r2
10002078:	4295      	cmp	r5, r2
1000207a:	d803      	bhi.n	10002084 <_malloc_r+0x1dc>
1000207c:	1b53      	subs	r3, r2, r5
1000207e:	2b0f      	cmp	r3, #15
10002080:	dd00      	ble.n	10002084 <_malloc_r+0x1dc>
10002082:	e088      	b.n	10002196 <_malloc_r+0x2ee>
10002084:	0023      	movs	r3, r4
10002086:	444b      	add	r3, r9
10002088:	4a5e      	ldr	r2, [pc, #376]	; (10002204 <_malloc_r+0x35c>)
1000208a:	9301      	str	r3, [sp, #4]
1000208c:	4b5e      	ldr	r3, [pc, #376]	; (10002208 <_malloc_r+0x360>)
1000208e:	4693      	mov	fp, r2
10002090:	681b      	ldr	r3, [r3, #0]
10002092:	6812      	ldr	r2, [r2, #0]
10002094:	18eb      	adds	r3, r5, r3
10002096:	3201      	adds	r2, #1
10002098:	d100      	bne.n	1000209c <_malloc_r+0x1f4>
1000209a:	e13b      	b.n	10002314 <_malloc_r+0x46c>
1000209c:	4a5b      	ldr	r2, [pc, #364]	; (1000220c <_malloc_r+0x364>)
1000209e:	4694      	mov	ip, r2
100020a0:	4463      	add	r3, ip
100020a2:	0b1b      	lsrs	r3, r3, #12
100020a4:	031b      	lsls	r3, r3, #12
100020a6:	9300      	str	r3, [sp, #0]
100020a8:	0030      	movs	r0, r6
100020aa:	9900      	ldr	r1, [sp, #0]
100020ac:	f000 f9cc 	bl	10002448 <_sbrk_r>
100020b0:	0003      	movs	r3, r0
100020b2:	4680      	mov	r8, r0
100020b4:	3301      	adds	r3, #1
100020b6:	d100      	bne.n	100020ba <_malloc_r+0x212>
100020b8:	e0f8      	b.n	100022ac <_malloc_r+0x404>
100020ba:	9b01      	ldr	r3, [sp, #4]
100020bc:	4283      	cmp	r3, r0
100020be:	d900      	bls.n	100020c2 <_malloc_r+0x21a>
100020c0:	e0f2      	b.n	100022a8 <_malloc_r+0x400>
100020c2:	4b53      	ldr	r3, [pc, #332]	; (10002210 <_malloc_r+0x368>)
100020c4:	0019      	movs	r1, r3
100020c6:	469a      	mov	sl, r3
100020c8:	6809      	ldr	r1, [r1, #0]
100020ca:	9b00      	ldr	r3, [sp, #0]
100020cc:	468c      	mov	ip, r1
100020ce:	4651      	mov	r1, sl
100020d0:	4463      	add	r3, ip
100020d2:	600b      	str	r3, [r1, #0]
100020d4:	9901      	ldr	r1, [sp, #4]
100020d6:	001a      	movs	r2, r3
100020d8:	4281      	cmp	r1, r0
100020da:	d100      	bne.n	100020de <_malloc_r+0x236>
100020dc:	e150      	b.n	10002380 <_malloc_r+0x4d8>
100020de:	465b      	mov	r3, fp
100020e0:	681b      	ldr	r3, [r3, #0]
100020e2:	3301      	adds	r3, #1
100020e4:	d100      	bne.n	100020e8 <_malloc_r+0x240>
100020e6:	e155      	b.n	10002394 <_malloc_r+0x4ec>
100020e8:	4643      	mov	r3, r8
100020ea:	9901      	ldr	r1, [sp, #4]
100020ec:	1a5b      	subs	r3, r3, r1
100020ee:	189a      	adds	r2, r3, r2
100020f0:	4653      	mov	r3, sl
100020f2:	601a      	str	r2, [r3, #0]
100020f4:	2307      	movs	r3, #7
100020f6:	4642      	mov	r2, r8
100020f8:	4641      	mov	r1, r8
100020fa:	401a      	ands	r2, r3
100020fc:	9201      	str	r2, [sp, #4]
100020fe:	4219      	tst	r1, r3
10002100:	d100      	bne.n	10002104 <_malloc_r+0x25c>
10002102:	e111      	b.n	10002328 <_malloc_r+0x480>
10002104:	2308      	movs	r3, #8
10002106:	4698      	mov	r8, r3
10002108:	1a88      	subs	r0, r1, r2
1000210a:	4b42      	ldr	r3, [pc, #264]	; (10002214 <_malloc_r+0x36c>)
1000210c:	9900      	ldr	r1, [sp, #0]
1000210e:	4480      	add	r8, r0
10002110:	4441      	add	r1, r8
10002112:	1a9b      	subs	r3, r3, r2
10002114:	1a5b      	subs	r3, r3, r1
10002116:	051b      	lsls	r3, r3, #20
10002118:	0d1b      	lsrs	r3, r3, #20
1000211a:	9100      	str	r1, [sp, #0]
1000211c:	0030      	movs	r0, r6
1000211e:	0019      	movs	r1, r3
10002120:	469b      	mov	fp, r3
10002122:	f000 f991 	bl	10002448 <_sbrk_r>
10002126:	1c43      	adds	r3, r0, #1
10002128:	d100      	bne.n	1000212c <_malloc_r+0x284>
1000212a:	e14f      	b.n	100023cc <_malloc_r+0x524>
1000212c:	4643      	mov	r3, r8
1000212e:	1ac0      	subs	r0, r0, r3
10002130:	0003      	movs	r3, r0
10002132:	445b      	add	r3, fp
10002134:	9300      	str	r3, [sp, #0]
10002136:	4653      	mov	r3, sl
10002138:	4652      	mov	r2, sl
1000213a:	681b      	ldr	r3, [r3, #0]
1000213c:	2101      	movs	r1, #1
1000213e:	445b      	add	r3, fp
10002140:	6013      	str	r3, [r2, #0]
10002142:	4642      	mov	r2, r8
10002144:	4640      	mov	r0, r8
10002146:	60ba      	str	r2, [r7, #8]
10002148:	9a00      	ldr	r2, [sp, #0]
1000214a:	430a      	orrs	r2, r1
1000214c:	6042      	str	r2, [r0, #4]
1000214e:	42bc      	cmp	r4, r7
10002150:	d100      	bne.n	10002154 <_malloc_r+0x2ac>
10002152:	e123      	b.n	1000239c <_malloc_r+0x4f4>
10002154:	464a      	mov	r2, r9
10002156:	2a0f      	cmp	r2, #15
10002158:	d800      	bhi.n	1000215c <_malloc_r+0x2b4>
1000215a:	e121      	b.n	100023a0 <_malloc_r+0x4f8>
1000215c:	2007      	movs	r0, #7
1000215e:	3a0c      	subs	r2, #12
10002160:	4382      	bics	r2, r0
10002162:	6860      	ldr	r0, [r4, #4]
10002164:	4001      	ands	r1, r0
10002166:	2005      	movs	r0, #5
10002168:	4311      	orrs	r1, r2
1000216a:	6061      	str	r1, [r4, #4]
1000216c:	18a1      	adds	r1, r4, r2
1000216e:	6048      	str	r0, [r1, #4]
10002170:	6088      	str	r0, [r1, #8]
10002172:	2a0f      	cmp	r2, #15
10002174:	d900      	bls.n	10002178 <_malloc_r+0x2d0>
10002176:	e134      	b.n	100023e2 <_malloc_r+0x53a>
10002178:	4642      	mov	r2, r8
1000217a:	4644      	mov	r4, r8
1000217c:	6852      	ldr	r2, [r2, #4]
1000217e:	4926      	ldr	r1, [pc, #152]	; (10002218 <_malloc_r+0x370>)
10002180:	6808      	ldr	r0, [r1, #0]
10002182:	4298      	cmp	r0, r3
10002184:	d200      	bcs.n	10002188 <_malloc_r+0x2e0>
10002186:	600b      	str	r3, [r1, #0]
10002188:	4924      	ldr	r1, [pc, #144]	; (1000221c <_malloc_r+0x374>)
1000218a:	6808      	ldr	r0, [r1, #0]
1000218c:	4298      	cmp	r0, r3
1000218e:	d300      	bcc.n	10002192 <_malloc_r+0x2ea>
10002190:	e08e      	b.n	100022b0 <_malloc_r+0x408>
10002192:	600b      	str	r3, [r1, #0]
10002194:	e08c      	b.n	100022b0 <_malloc_r+0x408>
10002196:	2201      	movs	r2, #1
10002198:	0029      	movs	r1, r5
1000219a:	4313      	orrs	r3, r2
1000219c:	4311      	orrs	r1, r2
1000219e:	1965      	adds	r5, r4, r5
100021a0:	6061      	str	r1, [r4, #4]
100021a2:	0030      	movs	r0, r6
100021a4:	60bd      	str	r5, [r7, #8]
100021a6:	606b      	str	r3, [r5, #4]
100021a8:	f000 f946 	bl	10002438 <__malloc_unlock>
100021ac:	0020      	movs	r0, r4
100021ae:	3008      	adds	r0, #8
100021b0:	e73f      	b.n	10002032 <_malloc_r+0x18a>
100021b2:	0a5a      	lsrs	r2, r3, #9
100021b4:	2a04      	cmp	r2, #4
100021b6:	d971      	bls.n	1000229c <_malloc_r+0x3f4>
100021b8:	2a14      	cmp	r2, #20
100021ba:	d900      	bls.n	100021be <_malloc_r+0x316>
100021bc:	e0c4      	b.n	10002348 <_malloc_r+0x4a0>
100021be:	0011      	movs	r1, r2
100021c0:	325c      	adds	r2, #92	; 0x5c
100021c2:	315b      	adds	r1, #91	; 0x5b
100021c4:	00d2      	lsls	r2, r2, #3
100021c6:	2308      	movs	r3, #8
100021c8:	425b      	negs	r3, r3
100021ca:	469c      	mov	ip, r3
100021cc:	18ba      	adds	r2, r7, r2
100021ce:	4494      	add	ip, r2
100021d0:	4663      	mov	r3, ip
100021d2:	689a      	ldr	r2, [r3, #8]
100021d4:	2303      	movs	r3, #3
100021d6:	4698      	mov	r8, r3
100021d8:	4594      	cmp	ip, r2
100021da:	d100      	bne.n	100021de <_malloc_r+0x336>
100021dc:	e09d      	b.n	1000231a <_malloc_r+0x472>
100021de:	4643      	mov	r3, r8
100021e0:	6851      	ldr	r1, [r2, #4]
100021e2:	4399      	bics	r1, r3
100021e4:	4549      	cmp	r1, r9
100021e6:	d902      	bls.n	100021ee <_malloc_r+0x346>
100021e8:	6892      	ldr	r2, [r2, #8]
100021ea:	4594      	cmp	ip, r2
100021ec:	d1f7      	bne.n	100021de <_malloc_r+0x336>
100021ee:	68d3      	ldr	r3, [r2, #12]
100021f0:	469c      	mov	ip, r3
100021f2:	687b      	ldr	r3, [r7, #4]
100021f4:	4661      	mov	r1, ip
100021f6:	60a2      	str	r2, [r4, #8]
100021f8:	60e1      	str	r1, [r4, #12]
100021fa:	608c      	str	r4, [r1, #8]
100021fc:	60d4      	str	r4, [r2, #12]
100021fe:	e6d7      	b.n	10001fb0 <_malloc_r+0x108>
10002200:	20000640 	.word	0x20000640
10002204:	20000a48 	.word	0x20000a48
10002208:	20000ab8 	.word	0x20000ab8
1000220c:	0000100f 	.word	0x0000100f
10002210:	20000a88 	.word	0x20000a88
10002214:	00001008 	.word	0x00001008
10002218:	20000ab0 	.word	0x20000ab0
1000221c:	20000ab4 	.word	0x20000ab4
10002220:	2814      	cmp	r0, #20
10002222:	d952      	bls.n	100022ca <_malloc_r+0x422>
10002224:	2854      	cmp	r0, #84	; 0x54
10002226:	d900      	bls.n	1000222a <_malloc_r+0x382>
10002228:	e096      	b.n	10002358 <_malloc_r+0x4b0>
1000222a:	236e      	movs	r3, #110	; 0x6e
1000222c:	4698      	mov	r8, r3
1000222e:	0b28      	lsrs	r0, r5, #12
10002230:	4480      	add	r8, r0
10002232:	306f      	adds	r0, #111	; 0x6f
10002234:	00c1      	lsls	r1, r0, #3
10002236:	e680      	b.n	10001f3a <_malloc_r+0x92>
10002238:	2308      	movs	r3, #8
1000223a:	469b      	mov	fp, r3
1000223c:	3b07      	subs	r3, #7
1000223e:	44dc      	add	ip, fp
10002240:	469b      	mov	fp, r3
10002242:	44da      	add	sl, fp
10002244:	4643      	mov	r3, r8
10002246:	4652      	mov	r2, sl
10002248:	4213      	tst	r3, r2
1000224a:	d000      	beq.n	1000224e <_malloc_r+0x3a6>
1000224c:	e6c4      	b.n	10001fd8 <_malloc_r+0x130>
1000224e:	e04c      	b.n	100022ea <_malloc_r+0x442>
10002250:	2201      	movs	r2, #1
10002252:	18e3      	adds	r3, r4, r3
10002254:	6859      	ldr	r1, [r3, #4]
10002256:	0030      	movs	r0, r6
10002258:	430a      	orrs	r2, r1
1000225a:	605a      	str	r2, [r3, #4]
1000225c:	68e3      	ldr	r3, [r4, #12]
1000225e:	68a2      	ldr	r2, [r4, #8]
10002260:	60d3      	str	r3, [r2, #12]
10002262:	609a      	str	r2, [r3, #8]
10002264:	f000 f8e8 	bl	10002438 <__malloc_unlock>
10002268:	0020      	movs	r0, r4
1000226a:	3008      	adds	r0, #8
1000226c:	e6e1      	b.n	10002032 <_malloc_r+0x18a>
1000226e:	002b      	movs	r3, r5
10002270:	08e8      	lsrs	r0, r5, #3
10002272:	3308      	adds	r3, #8
10002274:	e62c      	b.n	10001ed0 <_malloc_r+0x28>
10002276:	2301      	movs	r3, #1
10002278:	1960      	adds	r0, r4, r5
1000227a:	431d      	orrs	r5, r3
1000227c:	6065      	str	r5, [r4, #4]
1000227e:	6178      	str	r0, [r7, #20]
10002280:	6138      	str	r0, [r7, #16]
10002282:	60c2      	str	r2, [r0, #12]
10002284:	6082      	str	r2, [r0, #8]
10002286:	001a      	movs	r2, r3
10002288:	464b      	mov	r3, r9
1000228a:	430a      	orrs	r2, r1
1000228c:	6042      	str	r2, [r0, #4]
1000228e:	0030      	movs	r0, r6
10002290:	50e1      	str	r1, [r4, r3]
10002292:	f000 f8d1 	bl	10002438 <__malloc_unlock>
10002296:	0020      	movs	r0, r4
10002298:	3008      	adds	r0, #8
1000229a:	e6ca      	b.n	10002032 <_malloc_r+0x18a>
1000229c:	099a      	lsrs	r2, r3, #6
1000229e:	0011      	movs	r1, r2
100022a0:	3239      	adds	r2, #57	; 0x39
100022a2:	3138      	adds	r1, #56	; 0x38
100022a4:	00d2      	lsls	r2, r2, #3
100022a6:	e78e      	b.n	100021c6 <_malloc_r+0x31e>
100022a8:	42bc      	cmp	r4, r7
100022aa:	d060      	beq.n	1000236e <_malloc_r+0x4c6>
100022ac:	68bc      	ldr	r4, [r7, #8]
100022ae:	6862      	ldr	r2, [r4, #4]
100022b0:	2303      	movs	r3, #3
100022b2:	439a      	bics	r2, r3
100022b4:	1b53      	subs	r3, r2, r5
100022b6:	4295      	cmp	r5, r2
100022b8:	d802      	bhi.n	100022c0 <_malloc_r+0x418>
100022ba:	2b0f      	cmp	r3, #15
100022bc:	dd00      	ble.n	100022c0 <_malloc_r+0x418>
100022be:	e76a      	b.n	10002196 <_malloc_r+0x2ee>
100022c0:	0030      	movs	r0, r6
100022c2:	f000 f8b9 	bl	10002438 <__malloc_unlock>
100022c6:	2000      	movs	r0, #0
100022c8:	e6b3      	b.n	10002032 <_malloc_r+0x18a>
100022ca:	235b      	movs	r3, #91	; 0x5b
100022cc:	4698      	mov	r8, r3
100022ce:	4480      	add	r8, r0
100022d0:	305c      	adds	r0, #92	; 0x5c
100022d2:	00c1      	lsls	r1, r0, #3
100022d4:	e631      	b.n	10001f3a <_malloc_r+0x92>
100022d6:	2308      	movs	r3, #8
100022d8:	425b      	negs	r3, r3
100022da:	469c      	mov	ip, r3
100022dc:	44e1      	add	r9, ip
100022de:	464b      	mov	r3, r9
100022e0:	689b      	ldr	r3, [r3, #8]
100022e2:	3801      	subs	r0, #1
100022e4:	454b      	cmp	r3, r9
100022e6:	d000      	beq.n	100022ea <_malloc_r+0x442>
100022e8:	e098      	b.n	1000241c <_malloc_r+0x574>
100022ea:	4643      	mov	r3, r8
100022ec:	4203      	tst	r3, r0
100022ee:	d1f2      	bne.n	100022d6 <_malloc_r+0x42e>
100022f0:	687b      	ldr	r3, [r7, #4]
100022f2:	438b      	bics	r3, r1
100022f4:	607b      	str	r3, [r7, #4]
100022f6:	0049      	lsls	r1, r1, #1
100022f8:	4299      	cmp	r1, r3
100022fa:	d900      	bls.n	100022fe <_malloc_r+0x456>
100022fc:	e6b7      	b.n	1000206e <_malloc_r+0x1c6>
100022fe:	2900      	cmp	r1, #0
10002300:	d104      	bne.n	1000230c <_malloc_r+0x464>
10002302:	e6b4      	b.n	1000206e <_malloc_r+0x1c6>
10002304:	2204      	movs	r2, #4
10002306:	4694      	mov	ip, r2
10002308:	0049      	lsls	r1, r1, #1
1000230a:	44e2      	add	sl, ip
1000230c:	420b      	tst	r3, r1
1000230e:	d0f9      	beq.n	10002304 <_malloc_r+0x45c>
10002310:	4650      	mov	r0, sl
10002312:	e65c      	b.n	10001fce <_malloc_r+0x126>
10002314:	3310      	adds	r3, #16
10002316:	9300      	str	r3, [sp, #0]
10002318:	e6c6      	b.n	100020a8 <_malloc_r+0x200>
1000231a:	1089      	asrs	r1, r1, #2
1000231c:	3b02      	subs	r3, #2
1000231e:	408b      	lsls	r3, r1
10002320:	6879      	ldr	r1, [r7, #4]
10002322:	430b      	orrs	r3, r1
10002324:	607b      	str	r3, [r7, #4]
10002326:	e765      	b.n	100021f4 <_malloc_r+0x34c>
10002328:	9b00      	ldr	r3, [sp, #0]
1000232a:	0030      	movs	r0, r6
1000232c:	4443      	add	r3, r8
1000232e:	425b      	negs	r3, r3
10002330:	051b      	lsls	r3, r3, #20
10002332:	0d1b      	lsrs	r3, r3, #20
10002334:	0019      	movs	r1, r3
10002336:	469b      	mov	fp, r3
10002338:	f000 f886 	bl	10002448 <_sbrk_r>
1000233c:	1c43      	adds	r3, r0, #1
1000233e:	d000      	beq.n	10002342 <_malloc_r+0x49a>
10002340:	e6f4      	b.n	1000212c <_malloc_r+0x284>
10002342:	2300      	movs	r3, #0
10002344:	469b      	mov	fp, r3
10002346:	e6f6      	b.n	10002136 <_malloc_r+0x28e>
10002348:	2a54      	cmp	r2, #84	; 0x54
1000234a:	d82b      	bhi.n	100023a4 <_malloc_r+0x4fc>
1000234c:	0b1a      	lsrs	r2, r3, #12
1000234e:	0011      	movs	r1, r2
10002350:	326f      	adds	r2, #111	; 0x6f
10002352:	316e      	adds	r1, #110	; 0x6e
10002354:	00d2      	lsls	r2, r2, #3
10002356:	e736      	b.n	100021c6 <_malloc_r+0x31e>
10002358:	23aa      	movs	r3, #170	; 0xaa
1000235a:	005b      	lsls	r3, r3, #1
1000235c:	4298      	cmp	r0, r3
1000235e:	d82b      	bhi.n	100023b8 <_malloc_r+0x510>
10002360:	3bdd      	subs	r3, #221	; 0xdd
10002362:	4698      	mov	r8, r3
10002364:	0be8      	lsrs	r0, r5, #15
10002366:	4480      	add	r8, r0
10002368:	3078      	adds	r0, #120	; 0x78
1000236a:	00c1      	lsls	r1, r0, #3
1000236c:	e5e5      	b.n	10001f3a <_malloc_r+0x92>
1000236e:	4b2c      	ldr	r3, [pc, #176]	; (10002420 <_malloc_r+0x578>)
10002370:	9a00      	ldr	r2, [sp, #0]
10002372:	469a      	mov	sl, r3
10002374:	681b      	ldr	r3, [r3, #0]
10002376:	469c      	mov	ip, r3
10002378:	4653      	mov	r3, sl
1000237a:	4462      	add	r2, ip
1000237c:	601a      	str	r2, [r3, #0]
1000237e:	e6ae      	b.n	100020de <_malloc_r+0x236>
10002380:	0509      	lsls	r1, r1, #20
10002382:	d000      	beq.n	10002386 <_malloc_r+0x4de>
10002384:	e6ab      	b.n	100020de <_malloc_r+0x236>
10002386:	9a00      	ldr	r2, [sp, #0]
10002388:	68bc      	ldr	r4, [r7, #8]
1000238a:	444a      	add	r2, r9
1000238c:	3101      	adds	r1, #1
1000238e:	430a      	orrs	r2, r1
10002390:	6062      	str	r2, [r4, #4]
10002392:	e6f4      	b.n	1000217e <_malloc_r+0x2d6>
10002394:	465b      	mov	r3, fp
10002396:	4642      	mov	r2, r8
10002398:	601a      	str	r2, [r3, #0]
1000239a:	e6ab      	b.n	100020f4 <_malloc_r+0x24c>
1000239c:	4644      	mov	r4, r8
1000239e:	e6ee      	b.n	1000217e <_malloc_r+0x2d6>
100023a0:	6041      	str	r1, [r0, #4]
100023a2:	e78d      	b.n	100022c0 <_malloc_r+0x418>
100023a4:	21aa      	movs	r1, #170	; 0xaa
100023a6:	0049      	lsls	r1, r1, #1
100023a8:	428a      	cmp	r2, r1
100023aa:	d824      	bhi.n	100023f6 <_malloc_r+0x54e>
100023ac:	0bda      	lsrs	r2, r3, #15
100023ae:	0011      	movs	r1, r2
100023b0:	3278      	adds	r2, #120	; 0x78
100023b2:	3177      	adds	r1, #119	; 0x77
100023b4:	00d2      	lsls	r2, r2, #3
100023b6:	e706      	b.n	100021c6 <_malloc_r+0x31e>
100023b8:	4b1a      	ldr	r3, [pc, #104]	; (10002424 <_malloc_r+0x57c>)
100023ba:	4298      	cmp	r0, r3
100023bc:	d824      	bhi.n	10002408 <_malloc_r+0x560>
100023be:	237c      	movs	r3, #124	; 0x7c
100023c0:	4698      	mov	r8, r3
100023c2:	0ca8      	lsrs	r0, r5, #18
100023c4:	4480      	add	r8, r0
100023c6:	307d      	adds	r0, #125	; 0x7d
100023c8:	00c1      	lsls	r1, r0, #3
100023ca:	e5b6      	b.n	10001f3a <_malloc_r+0x92>
100023cc:	9a00      	ldr	r2, [sp, #0]
100023ce:	9b01      	ldr	r3, [sp, #4]
100023d0:	4694      	mov	ip, r2
100023d2:	4642      	mov	r2, r8
100023d4:	3b08      	subs	r3, #8
100023d6:	4463      	add	r3, ip
100023d8:	1a9b      	subs	r3, r3, r2
100023da:	9300      	str	r3, [sp, #0]
100023dc:	2300      	movs	r3, #0
100023de:	469b      	mov	fp, r3
100023e0:	e6a9      	b.n	10002136 <_malloc_r+0x28e>
100023e2:	0021      	movs	r1, r4
100023e4:	0030      	movs	r0, r6
100023e6:	3108      	adds	r1, #8
100023e8:	f000 f8bc 	bl	10002564 <_free_r>
100023ec:	4653      	mov	r3, sl
100023ee:	68bc      	ldr	r4, [r7, #8]
100023f0:	681b      	ldr	r3, [r3, #0]
100023f2:	6862      	ldr	r2, [r4, #4]
100023f4:	e6c3      	b.n	1000217e <_malloc_r+0x2d6>
100023f6:	490b      	ldr	r1, [pc, #44]	; (10002424 <_malloc_r+0x57c>)
100023f8:	428a      	cmp	r2, r1
100023fa:	d80b      	bhi.n	10002414 <_malloc_r+0x56c>
100023fc:	0c9a      	lsrs	r2, r3, #18
100023fe:	0011      	movs	r1, r2
10002400:	327d      	adds	r2, #125	; 0x7d
10002402:	317c      	adds	r1, #124	; 0x7c
10002404:	00d2      	lsls	r2, r2, #3
10002406:	e6de      	b.n	100021c6 <_malloc_r+0x31e>
10002408:	21fe      	movs	r1, #254	; 0xfe
1000240a:	237e      	movs	r3, #126	; 0x7e
1000240c:	207f      	movs	r0, #127	; 0x7f
1000240e:	4698      	mov	r8, r3
10002410:	0089      	lsls	r1, r1, #2
10002412:	e592      	b.n	10001f3a <_malloc_r+0x92>
10002414:	22fe      	movs	r2, #254	; 0xfe
10002416:	217e      	movs	r1, #126	; 0x7e
10002418:	0092      	lsls	r2, r2, #2
1000241a:	e6d4      	b.n	100021c6 <_malloc_r+0x31e>
1000241c:	687b      	ldr	r3, [r7, #4]
1000241e:	e76a      	b.n	100022f6 <_malloc_r+0x44e>
10002420:	20000a88 	.word	0x20000a88
10002424:	00000554 	.word	0x00000554

10002428 <__malloc_lock>:
10002428:	b510      	push	{r4, lr}
1000242a:	4802      	ldr	r0, [pc, #8]	; (10002434 <__malloc_lock+0xc>)
1000242c:	f000 f97c 	bl	10002728 <__retarget_lock_acquire_recursive>
10002430:	bd10      	pop	{r4, pc}
10002432:	46c0      	nop			; (mov r8, r8)
10002434:	20000d48 	.word	0x20000d48

10002438 <__malloc_unlock>:
10002438:	b510      	push	{r4, lr}
1000243a:	4802      	ldr	r0, [pc, #8]	; (10002444 <__malloc_unlock+0xc>)
1000243c:	f000 f976 	bl	1000272c <__retarget_lock_release_recursive>
10002440:	bd10      	pop	{r4, pc}
10002442:	46c0      	nop			; (mov r8, r8)
10002444:	20000d48 	.word	0x20000d48

10002448 <_sbrk_r>:
10002448:	2300      	movs	r3, #0
1000244a:	b570      	push	{r4, r5, r6, lr}
1000244c:	4d06      	ldr	r5, [pc, #24]	; (10002468 <_sbrk_r+0x20>)
1000244e:	0004      	movs	r4, r0
10002450:	0008      	movs	r0, r1
10002452:	602b      	str	r3, [r5, #0]
10002454:	f7fe fe84 	bl	10001160 <_sbrk>
10002458:	1c43      	adds	r3, r0, #1
1000245a:	d000      	beq.n	1000245e <_sbrk_r+0x16>
1000245c:	bd70      	pop	{r4, r5, r6, pc}
1000245e:	682b      	ldr	r3, [r5, #0]
10002460:	2b00      	cmp	r3, #0
10002462:	d0fb      	beq.n	1000245c <_sbrk_r+0x14>
10002464:	6023      	str	r3, [r4, #0]
10002466:	e7f9      	b.n	1000245c <_sbrk_r+0x14>
10002468:	20000d5c 	.word	0x20000d5c

1000246c <strlen>:
1000246c:	b510      	push	{r4, lr}
1000246e:	0783      	lsls	r3, r0, #30
10002470:	d00a      	beq.n	10002488 <strlen+0x1c>
10002472:	0003      	movs	r3, r0
10002474:	2103      	movs	r1, #3
10002476:	e002      	b.n	1000247e <strlen+0x12>
10002478:	3301      	adds	r3, #1
1000247a:	420b      	tst	r3, r1
1000247c:	d005      	beq.n	1000248a <strlen+0x1e>
1000247e:	781a      	ldrb	r2, [r3, #0]
10002480:	2a00      	cmp	r2, #0
10002482:	d1f9      	bne.n	10002478 <strlen+0xc>
10002484:	1a18      	subs	r0, r3, r0
10002486:	bd10      	pop	{r4, pc}
10002488:	0003      	movs	r3, r0
1000248a:	6819      	ldr	r1, [r3, #0]
1000248c:	4a0c      	ldr	r2, [pc, #48]	; (100024c0 <strlen+0x54>)
1000248e:	4c0d      	ldr	r4, [pc, #52]	; (100024c4 <strlen+0x58>)
10002490:	188a      	adds	r2, r1, r2
10002492:	438a      	bics	r2, r1
10002494:	4222      	tst	r2, r4
10002496:	d10f      	bne.n	100024b8 <strlen+0x4c>
10002498:	6859      	ldr	r1, [r3, #4]
1000249a:	4a09      	ldr	r2, [pc, #36]	; (100024c0 <strlen+0x54>)
1000249c:	3304      	adds	r3, #4
1000249e:	188a      	adds	r2, r1, r2
100024a0:	438a      	bics	r2, r1
100024a2:	4222      	tst	r2, r4
100024a4:	d108      	bne.n	100024b8 <strlen+0x4c>
100024a6:	6859      	ldr	r1, [r3, #4]
100024a8:	4a05      	ldr	r2, [pc, #20]	; (100024c0 <strlen+0x54>)
100024aa:	3304      	adds	r3, #4
100024ac:	188a      	adds	r2, r1, r2
100024ae:	438a      	bics	r2, r1
100024b0:	4222      	tst	r2, r4
100024b2:	d0f1      	beq.n	10002498 <strlen+0x2c>
100024b4:	e000      	b.n	100024b8 <strlen+0x4c>
100024b6:	3301      	adds	r3, #1
100024b8:	781a      	ldrb	r2, [r3, #0]
100024ba:	2a00      	cmp	r2, #0
100024bc:	d1fb      	bne.n	100024b6 <strlen+0x4a>
100024be:	e7e1      	b.n	10002484 <strlen+0x18>
100024c0:	fefefeff 	.word	0xfefefeff
100024c4:	80808080 	.word	0x80808080

100024c8 <_malloc_trim_r>:
100024c8:	b5f8      	push	{r3, r4, r5, r6, r7, lr}
100024ca:	000c      	movs	r4, r1
100024cc:	0005      	movs	r5, r0
100024ce:	f7ff ffab 	bl	10002428 <__malloc_lock>
100024d2:	4f20      	ldr	r7, [pc, #128]	; (10002554 <_malloc_trim_r+0x8c>)
100024d4:	68bb      	ldr	r3, [r7, #8]
100024d6:	685e      	ldr	r6, [r3, #4]
100024d8:	2303      	movs	r3, #3
100024da:	439e      	bics	r6, r3
100024dc:	4b1e      	ldr	r3, [pc, #120]	; (10002558 <_malloc_trim_r+0x90>)
100024de:	1b34      	subs	r4, r6, r4
100024e0:	469c      	mov	ip, r3
100024e2:	4464      	add	r4, ip
100024e4:	0b24      	lsrs	r4, r4, #12
100024e6:	3c01      	subs	r4, #1
100024e8:	3311      	adds	r3, #17
100024ea:	0324      	lsls	r4, r4, #12
100024ec:	429c      	cmp	r4, r3
100024ee:	db07      	blt.n	10002500 <_malloc_trim_r+0x38>
100024f0:	2100      	movs	r1, #0
100024f2:	0028      	movs	r0, r5
100024f4:	f7ff ffa8 	bl	10002448 <_sbrk_r>
100024f8:	68bb      	ldr	r3, [r7, #8]
100024fa:	199b      	adds	r3, r3, r6
100024fc:	4298      	cmp	r0, r3
100024fe:	d004      	beq.n	1000250a <_malloc_trim_r+0x42>
10002500:	0028      	movs	r0, r5
10002502:	f7ff ff99 	bl	10002438 <__malloc_unlock>
10002506:	2000      	movs	r0, #0
10002508:	bdf8      	pop	{r3, r4, r5, r6, r7, pc}
1000250a:	0028      	movs	r0, r5
1000250c:	4261      	negs	r1, r4
1000250e:	f7ff ff9b 	bl	10002448 <_sbrk_r>
10002512:	1c43      	adds	r3, r0, #1
10002514:	d00d      	beq.n	10002532 <_malloc_trim_r+0x6a>
10002516:	2201      	movs	r2, #1
10002518:	68bb      	ldr	r3, [r7, #8]
1000251a:	1b36      	subs	r6, r6, r4
1000251c:	4316      	orrs	r6, r2
1000251e:	605e      	str	r6, [r3, #4]
10002520:	4b0e      	ldr	r3, [pc, #56]	; (1000255c <_malloc_trim_r+0x94>)
10002522:	0028      	movs	r0, r5
10002524:	681a      	ldr	r2, [r3, #0]
10002526:	1b14      	subs	r4, r2, r4
10002528:	601c      	str	r4, [r3, #0]
1000252a:	f7ff ff85 	bl	10002438 <__malloc_unlock>
1000252e:	2001      	movs	r0, #1
10002530:	e7ea      	b.n	10002508 <_malloc_trim_r+0x40>
10002532:	2100      	movs	r1, #0
10002534:	0028      	movs	r0, r5
10002536:	f7ff ff87 	bl	10002448 <_sbrk_r>
1000253a:	68ba      	ldr	r2, [r7, #8]
1000253c:	1a83      	subs	r3, r0, r2
1000253e:	2b0f      	cmp	r3, #15
10002540:	ddde      	ble.n	10002500 <_malloc_trim_r+0x38>
10002542:	4907      	ldr	r1, [pc, #28]	; (10002560 <_malloc_trim_r+0x98>)
10002544:	6809      	ldr	r1, [r1, #0]
10002546:	1a40      	subs	r0, r0, r1
10002548:	4904      	ldr	r1, [pc, #16]	; (1000255c <_malloc_trim_r+0x94>)
1000254a:	6008      	str	r0, [r1, #0]
1000254c:	2101      	movs	r1, #1
1000254e:	430b      	orrs	r3, r1
10002550:	6053      	str	r3, [r2, #4]
10002552:	e7d5      	b.n	10002500 <_malloc_trim_r+0x38>
10002554:	20000640 	.word	0x20000640
10002558:	00000fef 	.word	0x00000fef
1000255c:	20000a88 	.word	0x20000a88
10002560:	20000a48 	.word	0x20000a48

10002564 <_free_r>:
10002564:	b5f0      	push	{r4, r5, r6, r7, lr}
10002566:	46c6      	mov	lr, r8
10002568:	0005      	movs	r5, r0
1000256a:	000c      	movs	r4, r1
1000256c:	b500      	push	{lr}
1000256e:	2900      	cmp	r1, #0
10002570:	d04f      	beq.n	10002612 <_free_r+0xae>
10002572:	f7ff ff59 	bl	10002428 <__malloc_lock>
10002576:	0021      	movs	r1, r4
10002578:	3908      	subs	r1, #8
1000257a:	684c      	ldr	r4, [r1, #4]
1000257c:	2601      	movs	r6, #1
1000257e:	0022      	movs	r2, r4
10002580:	2003      	movs	r0, #3
10002582:	43b2      	bics	r2, r6
10002584:	188f      	adds	r7, r1, r2
10002586:	687b      	ldr	r3, [r7, #4]
10002588:	4383      	bics	r3, r0
1000258a:	4862      	ldr	r0, [pc, #392]	; (10002714 <_free_r+0x1b0>)
1000258c:	4698      	mov	r8, r3
1000258e:	6883      	ldr	r3, [r0, #8]
10002590:	42bb      	cmp	r3, r7
10002592:	d06b      	beq.n	1000266c <_free_r+0x108>
10002594:	4643      	mov	r3, r8
10002596:	607b      	str	r3, [r7, #4]
10002598:	4226      	tst	r6, r4
1000259a:	d11e      	bne.n	100025da <_free_r+0x76>
1000259c:	2308      	movs	r3, #8
1000259e:	469c      	mov	ip, r3
100025a0:	680c      	ldr	r4, [r1, #0]
100025a2:	4484      	add	ip, r0
100025a4:	1b09      	subs	r1, r1, r4
100025a6:	1912      	adds	r2, r2, r4
100025a8:	688c      	ldr	r4, [r1, #8]
100025aa:	4564      	cmp	r4, ip
100025ac:	d04f      	beq.n	1000264e <_free_r+0xea>
100025ae:	68cb      	ldr	r3, [r1, #12]
100025b0:	60e3      	str	r3, [r4, #12]
100025b2:	609c      	str	r4, [r3, #8]
100025b4:	4643      	mov	r3, r8
100025b6:	18fc      	adds	r4, r7, r3
100025b8:	6864      	ldr	r4, [r4, #4]
100025ba:	4234      	tst	r4, r6
100025bc:	d111      	bne.n	100025e2 <_free_r+0x7e>
100025be:	68bb      	ldr	r3, [r7, #8]
100025c0:	4c55      	ldr	r4, [pc, #340]	; (10002718 <_free_r+0x1b4>)
100025c2:	4442      	add	r2, r8
100025c4:	42a3      	cmp	r3, r4
100025c6:	d100      	bne.n	100025ca <_free_r+0x66>
100025c8:	e07f      	b.n	100026ca <_free_r+0x166>
100025ca:	68fc      	ldr	r4, [r7, #12]
100025cc:	60dc      	str	r4, [r3, #12]
100025ce:	60a3      	str	r3, [r4, #8]
100025d0:	2301      	movs	r3, #1
100025d2:	4313      	orrs	r3, r2
100025d4:	604b      	str	r3, [r1, #4]
100025d6:	508a      	str	r2, [r1, r2]
100025d8:	e006      	b.n	100025e8 <_free_r+0x84>
100025da:	18fc      	adds	r4, r7, r3
100025dc:	6864      	ldr	r4, [r4, #4]
100025de:	4234      	tst	r4, r6
100025e0:	d0ed      	beq.n	100025be <_free_r+0x5a>
100025e2:	4316      	orrs	r6, r2
100025e4:	604e      	str	r6, [r1, #4]
100025e6:	603a      	str	r2, [r7, #0]
100025e8:	2380      	movs	r3, #128	; 0x80
100025ea:	009b      	lsls	r3, r3, #2
100025ec:	429a      	cmp	r2, r3
100025ee:	d213      	bcs.n	10002618 <_free_r+0xb4>
100025f0:	0954      	lsrs	r4, r2, #5
100025f2:	08d3      	lsrs	r3, r2, #3
100025f4:	2201      	movs	r2, #1
100025f6:	40a2      	lsls	r2, r4
100025f8:	6844      	ldr	r4, [r0, #4]
100025fa:	00db      	lsls	r3, r3, #3
100025fc:	4322      	orrs	r2, r4
100025fe:	6042      	str	r2, [r0, #4]
10002600:	1818      	adds	r0, r3, r0
10002602:	6883      	ldr	r3, [r0, #8]
10002604:	60c8      	str	r0, [r1, #12]
10002606:	608b      	str	r3, [r1, #8]
10002608:	6081      	str	r1, [r0, #8]
1000260a:	60d9      	str	r1, [r3, #12]
1000260c:	0028      	movs	r0, r5
1000260e:	f7ff ff13 	bl	10002438 <__malloc_unlock>
10002612:	bc04      	pop	{r2}
10002614:	4690      	mov	r8, r2
10002616:	bdf0      	pop	{r4, r5, r6, r7, pc}
10002618:	0a53      	lsrs	r3, r2, #9
1000261a:	2b04      	cmp	r3, #4
1000261c:	d83f      	bhi.n	1000269e <_free_r+0x13a>
1000261e:	0994      	lsrs	r4, r2, #6
10002620:	0026      	movs	r6, r4
10002622:	3439      	adds	r4, #57	; 0x39
10002624:	3638      	adds	r6, #56	; 0x38
10002626:	00e4      	lsls	r4, r4, #3
10002628:	1904      	adds	r4, r0, r4
1000262a:	6823      	ldr	r3, [r4, #0]
1000262c:	3c08      	subs	r4, #8
1000262e:	2703      	movs	r7, #3
10002630:	429c      	cmp	r4, r3
10002632:	d043      	beq.n	100026bc <_free_r+0x158>
10002634:	6858      	ldr	r0, [r3, #4]
10002636:	43b8      	bics	r0, r7
10002638:	4290      	cmp	r0, r2
1000263a:	d902      	bls.n	10002642 <_free_r+0xde>
1000263c:	689b      	ldr	r3, [r3, #8]
1000263e:	429c      	cmp	r4, r3
10002640:	d1f8      	bne.n	10002634 <_free_r+0xd0>
10002642:	68dc      	ldr	r4, [r3, #12]
10002644:	60cc      	str	r4, [r1, #12]
10002646:	608b      	str	r3, [r1, #8]
10002648:	60a1      	str	r1, [r4, #8]
1000264a:	60d9      	str	r1, [r3, #12]
1000264c:	e7de      	b.n	1000260c <_free_r+0xa8>
1000264e:	4643      	mov	r3, r8
10002650:	18f8      	adds	r0, r7, r3
10002652:	6840      	ldr	r0, [r0, #4]
10002654:	4230      	tst	r0, r6
10002656:	d158      	bne.n	1000270a <_free_r+0x1a6>
10002658:	0013      	movs	r3, r2
1000265a:	68b8      	ldr	r0, [r7, #8]
1000265c:	68fa      	ldr	r2, [r7, #12]
1000265e:	4443      	add	r3, r8
10002660:	431e      	orrs	r6, r3
10002662:	60c2      	str	r2, [r0, #12]
10002664:	6090      	str	r0, [r2, #8]
10002666:	604e      	str	r6, [r1, #4]
10002668:	50cb      	str	r3, [r1, r3]
1000266a:	e7cf      	b.n	1000260c <_free_r+0xa8>
1000266c:	0013      	movs	r3, r2
1000266e:	4443      	add	r3, r8
10002670:	4226      	tst	r6, r4
10002672:	d106      	bne.n	10002682 <_free_r+0x11e>
10002674:	680a      	ldr	r2, [r1, #0]
10002676:	1a89      	subs	r1, r1, r2
10002678:	688c      	ldr	r4, [r1, #8]
1000267a:	189b      	adds	r3, r3, r2
1000267c:	68ca      	ldr	r2, [r1, #12]
1000267e:	60e2      	str	r2, [r4, #12]
10002680:	6094      	str	r4, [r2, #8]
10002682:	2201      	movs	r2, #1
10002684:	431a      	orrs	r2, r3
10002686:	604a      	str	r2, [r1, #4]
10002688:	4a24      	ldr	r2, [pc, #144]	; (1000271c <_free_r+0x1b8>)
1000268a:	6081      	str	r1, [r0, #8]
1000268c:	6812      	ldr	r2, [r2, #0]
1000268e:	429a      	cmp	r2, r3
10002690:	d8bc      	bhi.n	1000260c <_free_r+0xa8>
10002692:	4b23      	ldr	r3, [pc, #140]	; (10002720 <_free_r+0x1bc>)
10002694:	0028      	movs	r0, r5
10002696:	6819      	ldr	r1, [r3, #0]
10002698:	f7ff ff16 	bl	100024c8 <_malloc_trim_r>
1000269c:	e7b6      	b.n	1000260c <_free_r+0xa8>
1000269e:	2b14      	cmp	r3, #20
100026a0:	d907      	bls.n	100026b2 <_free_r+0x14e>
100026a2:	2b54      	cmp	r3, #84	; 0x54
100026a4:	d81a      	bhi.n	100026dc <_free_r+0x178>
100026a6:	0b14      	lsrs	r4, r2, #12
100026a8:	0026      	movs	r6, r4
100026aa:	346f      	adds	r4, #111	; 0x6f
100026ac:	366e      	adds	r6, #110	; 0x6e
100026ae:	00e4      	lsls	r4, r4, #3
100026b0:	e7ba      	b.n	10002628 <_free_r+0xc4>
100026b2:	001e      	movs	r6, r3
100026b4:	335c      	adds	r3, #92	; 0x5c
100026b6:	365b      	adds	r6, #91	; 0x5b
100026b8:	00dc      	lsls	r4, r3, #3
100026ba:	e7b5      	b.n	10002628 <_free_r+0xc4>
100026bc:	2201      	movs	r2, #1
100026be:	10b6      	asrs	r6, r6, #2
100026c0:	40b2      	lsls	r2, r6
100026c2:	6846      	ldr	r6, [r0, #4]
100026c4:	4332      	orrs	r2, r6
100026c6:	6042      	str	r2, [r0, #4]
100026c8:	e7bc      	b.n	10002644 <_free_r+0xe0>
100026ca:	60d9      	str	r1, [r3, #12]
100026cc:	6099      	str	r1, [r3, #8]
100026ce:	60cb      	str	r3, [r1, #12]
100026d0:	608b      	str	r3, [r1, #8]
100026d2:	2301      	movs	r3, #1
100026d4:	4313      	orrs	r3, r2
100026d6:	604b      	str	r3, [r1, #4]
100026d8:	508a      	str	r2, [r1, r2]
100026da:	e797      	b.n	1000260c <_free_r+0xa8>
100026dc:	24aa      	movs	r4, #170	; 0xaa
100026de:	0064      	lsls	r4, r4, #1
100026e0:	42a3      	cmp	r3, r4
100026e2:	d805      	bhi.n	100026f0 <_free_r+0x18c>
100026e4:	0bd4      	lsrs	r4, r2, #15
100026e6:	0026      	movs	r6, r4
100026e8:	3478      	adds	r4, #120	; 0x78
100026ea:	3677      	adds	r6, #119	; 0x77
100026ec:	00e4      	lsls	r4, r4, #3
100026ee:	e79b      	b.n	10002628 <_free_r+0xc4>
100026f0:	4c0c      	ldr	r4, [pc, #48]	; (10002724 <_free_r+0x1c0>)
100026f2:	42a3      	cmp	r3, r4
100026f4:	d805      	bhi.n	10002702 <_free_r+0x19e>
100026f6:	0c94      	lsrs	r4, r2, #18
100026f8:	0026      	movs	r6, r4
100026fa:	347d      	adds	r4, #125	; 0x7d
100026fc:	367c      	adds	r6, #124	; 0x7c
100026fe:	00e4      	lsls	r4, r4, #3
10002700:	e792      	b.n	10002628 <_free_r+0xc4>
10002702:	24fe      	movs	r4, #254	; 0xfe
10002704:	267e      	movs	r6, #126	; 0x7e
10002706:	00a4      	lsls	r4, r4, #2
10002708:	e78e      	b.n	10002628 <_free_r+0xc4>
1000270a:	0033      	movs	r3, r6
1000270c:	4313      	orrs	r3, r2
1000270e:	604b      	str	r3, [r1, #4]
10002710:	603a      	str	r2, [r7, #0]
10002712:	e77b      	b.n	1000260c <_free_r+0xa8>
10002714:	20000640 	.word	0x20000640
10002718:	20000648 	.word	0x20000648
1000271c:	20000a4c 	.word	0x20000a4c
10002720:	20000ab8 	.word	0x20000ab8
10002724:	00000554 	.word	0x00000554

10002728 <__retarget_lock_acquire_recursive>:
10002728:	4770      	bx	lr
1000272a:	46c0      	nop			; (mov r8, r8)

1000272c <__retarget_lock_release_recursive>:
1000272c:	4770      	bx	lr
1000272e:	46c0      	nop			; (mov r8, r8)

10002730 <_fini>:
10002730:	b5f8      	push	{r3, r4, r5, r6, r7, lr}
10002732:	46c0      	nop			; (mov r8, r8)
10002734:	0000      	movs	r0, r0
	...

10002738 <__mutex_exit_veneer>:
10002738:	b401      	push	{r0}
1000273a:	4802      	ldr	r0, [pc, #8]	; (10002744 <__mutex_exit_veneer+0xc>)
1000273c:	4684      	mov	ip, r0
1000273e:	bc01      	pop	{r0}
10002740:	4760      	bx	ip
10002742:	bf00      	nop
10002744:	2000015d 	.word	0x2000015d

10002748 <____aeabi_idiv0_veneer>:
10002748:	b401      	push	{r0}
1000274a:	4802      	ldr	r0, [pc, #8]	; (10002754 <____aeabi_idiv0_veneer+0xc>)
1000274c:	4684      	mov	ip, r0
1000274e:	bc01      	pop	{r0}
10002750:	4760      	bx	ip
10002752:	bf00      	nop
10002754:	20000185 	.word	0x20000185

10002758 <__mutex_try_enter_veneer>:
10002758:	b401      	push	{r0}
1000275a:	4802      	ldr	r0, [pc, #8]	; (10002764 <__mutex_try_enter_veneer+0xc>)
1000275c:	4684      	mov	ip, r0
1000275e:	bc01      	pop	{r0}
10002760:	4760      	bx	ip
10002762:	bf00      	nop
10002764:	20000111 	.word	0x20000111

10002768 <__mutex_enter_blocking_veneer>:
10002768:	b401      	push	{r0}
1000276a:	4802      	ldr	r0, [pc, #8]	; (10002774 <__mutex_enter_blocking_veneer+0xc>)
1000276c:	4684      	mov	ip, r0
1000276e:	bc01      	pop	{r0}
10002770:	4760      	bx	ip
10002772:	bf00      	nop
10002774:	200000c1 	.word	0x200000c1

Disassembly of section .data:

200000c0 <mutex_enter_blocking>:
200000c0:	b510      	push	{r4, lr}
200000c2:	6802      	ldr	r2, [r0, #0]
200000c4:	2400      	movs	r4, #0
200000c6:	f3ef 8110 	mrs	r1, PRIMASK
200000ca:	b672      	cpsid	i
200000cc:	6813      	ldr	r3, [r2, #0]
200000ce:	2b00      	cmp	r3, #0
200000d0:	d0fc      	beq.n	200000cc <mutex_enter_blocking+0xc>
200000d2:	f3bf 8f5f 	dmb	sy
200000d6:	7903      	ldrb	r3, [r0, #4]
200000d8:	2b00      	cmp	r3, #0
200000da:	d00b      	beq.n	200000f4 <mutex_enter_blocking+0x34>
200000dc:	6803      	ldr	r3, [r0, #0]
200000de:	f3bf 8f5f 	dmb	sy
200000e2:	601c      	str	r4, [r3, #0]
200000e4:	f381 8810 	msr	PRIMASK, r1
200000e8:	bf20      	wfe
200000ea:	6802      	ldr	r2, [r0, #0]
200000ec:	f3ef 8110 	mrs	r1, PRIMASK
200000f0:	b672      	cpsid	i
200000f2:	e7eb      	b.n	200000cc <mutex_enter_blocking+0xc>
200000f4:	2201      	movs	r2, #1
200000f6:	7102      	strb	r2, [r0, #4]
200000f8:	22d0      	movs	r2, #208	; 0xd0
200000fa:	0612      	lsls	r2, r2, #24
200000fc:	6812      	ldr	r2, [r2, #0]
200000fe:	7142      	strb	r2, [r0, #5]
20000100:	6802      	ldr	r2, [r0, #0]
20000102:	f3bf 8f5f 	dmb	sy
20000106:	6013      	str	r3, [r2, #0]
20000108:	f381 8810 	msr	PRIMASK, r1
2000010c:	bd10      	pop	{r4, pc}
2000010e:	46c0      	nop			; (mov r8, r8)

20000110 <mutex_try_enter>:
20000110:	0003      	movs	r3, r0
20000112:	b510      	push	{r4, lr}
20000114:	6800      	ldr	r0, [r0, #0]
20000116:	f3ef 8410 	mrs	r4, PRIMASK
2000011a:	b672      	cpsid	i
2000011c:	6802      	ldr	r2, [r0, #0]
2000011e:	2a00      	cmp	r2, #0
20000120:	d0fc      	beq.n	2000011c <mutex_try_enter+0xc>
20000122:	f3bf 8f5f 	dmb	sy
20000126:	791a      	ldrb	r2, [r3, #4]
20000128:	2a00      	cmp	r2, #0
2000012a:	d00d      	beq.n	20000148 <mutex_try_enter+0x38>
2000012c:	2900      	cmp	r1, #0
2000012e:	d013      	beq.n	20000158 <mutex_try_enter+0x48>
20000130:	2205      	movs	r2, #5
20000132:	2000      	movs	r0, #0
20000134:	569a      	ldrsb	r2, [r3, r2]
20000136:	600a      	str	r2, [r1, #0]
20000138:	681b      	ldr	r3, [r3, #0]
2000013a:	f3bf 8f5f 	dmb	sy
2000013e:	2200      	movs	r2, #0
20000140:	601a      	str	r2, [r3, #0]
20000142:	f384 8810 	msr	PRIMASK, r4
20000146:	bd10      	pop	{r4, pc}
20000148:	3201      	adds	r2, #1
2000014a:	711a      	strb	r2, [r3, #4]
2000014c:	22d0      	movs	r2, #208	; 0xd0
2000014e:	0612      	lsls	r2, r2, #24
20000150:	6812      	ldr	r2, [r2, #0]
20000152:	2001      	movs	r0, #1
20000154:	715a      	strb	r2, [r3, #5]
20000156:	e7ef      	b.n	20000138 <mutex_try_enter+0x28>
20000158:	2000      	movs	r0, #0
2000015a:	e7ed      	b.n	20000138 <mutex_try_enter+0x28>

2000015c <mutex_exit>:
2000015c:	6802      	ldr	r2, [r0, #0]
2000015e:	f3ef 8110 	mrs	r1, PRIMASK
20000162:	b672      	cpsid	i
20000164:	6813      	ldr	r3, [r2, #0]
20000166:	2b00      	cmp	r3, #0
20000168:	d0fc      	beq.n	20000164 <mutex_exit+0x8>
2000016a:	f3bf 8f5f 	dmb	sy
2000016e:	2300      	movs	r3, #0
20000170:	7103      	strb	r3, [r0, #4]
20000172:	bf40      	sev
20000174:	6802      	ldr	r2, [r0, #0]
20000176:	f3bf 8f5f 	dmb	sy
2000017a:	6013      	str	r3, [r2, #0]
2000017c:	f381 8810 	msr	PRIMASK, r1
20000180:	4770      	bx	lr
20000182:	46c0      	nop			; (mov r8, r8)

20000184 <__aeabi_idiv0>:
20000184:	4770      	bx	lr
20000186:	46c0      	nop			; (mov r8, r8)

20000188 <striped_spin_lock_num>:
20000188:	0010 0000                                   ....

2000018c <irq_handler_chain_slots>:
2000018c:	00000000 	.word	0x00000000
20000190:	00010000 	.word	0x00010000
	...
2000019c:	00020000 	.word	0x00020000
	...
200001a8:	00030000 	.word	0x00030000
	...
200001b4:	00ff0000 	.word	0x00ff0000
200001b8:	00000000 	.word	0x00000000

200001bc <irq_handler_chain_first_slot>:
200001bc:	b500      	push	{lr}
200001be:	6848      	ldr	r0, [r1, #4]
200001c0:	3101      	adds	r1, #1
200001c2:	468e      	mov	lr, r1
200001c4:	4700      	bx	r0

200001c6 <irq_handler_chain_remove_tail>:
200001c6:	4670      	mov	r0, lr
200001c8:	3809      	subs	r0, #9
200001ca:	4901      	ldr	r1, [pc, #4]	; (200001d0 <irq_handler_chain_remove_tail+0xa>)
200001cc:	4788      	blx	r1
200001ce:	bd00      	pop	{pc}
200001d0:	10001799 	.word	0x10001799
	...

200001e0 <aeabi_bits_funcs>:
200001e0:	00003350 	.word	0x00003350
200001e4:	0000334c 	.word	0x0000334c
200001e8:	00003354 	.word	0x00003354
200001ec:	00003352 	.word	0x00003352

200001f0 <aeabi_bits_funcs_end>:
200001f0:	0000534d 	.word	0x0000534d
200001f4:	0000434d 	.word	0x0000434d
200001f8:	00003453 	.word	0x00003453
200001fc:	00003443 	.word	0x00003443

20000200 <stdio_uart>:
20000200:	10001d4d 00000000 10001d89 00000000     M...............
20000210:	00000100                                ....

20000214 <_impure_ptr>:
20000214:	20000218                                ... 

20000218 <impure_data>:
20000218:	00000000 20000504 2000056c 200005d4     ....... l.. ... 
	...
200002c0:	00000001 00000000 abcd330e e66d1234     .........3..4.m.
200002d0:	0005deec 0000000b 00000000 00000000     ................
	...

20000640 <__malloc_av_>:
	...
20000648:	20000640 20000640 20000648 20000648     @.. @.. H.. H.. 
20000658:	20000650 20000650 20000658 20000658     P.. P.. X.. X.. 
20000668:	20000660 20000660 20000668 20000668     `.. `.. h.. h.. 
20000678:	20000670 20000670 20000678 20000678     p.. p.. x.. x.. 
20000688:	20000680 20000680 20000688 20000688     ... ... ... ... 
20000698:	20000690 20000690 20000698 20000698     ... ... ... ... 
200006a8:	200006a0 200006a0 200006a8 200006a8     ... ... ... ... 
200006b8:	200006b0 200006b0 200006b8 200006b8     ... ... ... ... 
200006c8:	200006c0 200006c0 200006c8 200006c8     ... ... ... ... 
200006d8:	200006d0 200006d0 200006d8 200006d8     ... ... ... ... 
200006e8:	200006e0 200006e0 200006e8 200006e8     ... ... ... ... 
200006f8:	200006f0 200006f0 200006f8 200006f8     ... ... ... ... 
20000708:	20000700 20000700 20000708 20000708     ... ... ... ... 
20000718:	20000710 20000710 20000718 20000718     ... ... ... ... 
20000728:	20000720 20000720 20000728 20000728      ..  .. (.. (.. 
20000738:	20000730 20000730 20000738 20000738     0.. 0.. 8.. 8.. 
20000748:	20000740 20000740 20000748 20000748     @.. @.. H.. H.. 
20000758:	20000750 20000750 20000758 20000758     P.. P.. X.. X.. 
20000768:	20000760 20000760 20000768 20000768     `.. `.. h.. h.. 
20000778:	20000770 20000770 20000778 20000778     p.. p.. x.. x.. 
20000788:	20000780 20000780 20000788 20000788     ... ... ... ... 
20000798:	20000790 20000790 20000798 20000798     ... ... ... ... 
200007a8:	200007a0 200007a0 200007a8 200007a8     ... ... ... ... 
200007b8:	200007b0 200007b0 200007b8 200007b8     ... ... ... ... 
200007c8:	200007c0 200007c0 200007c8 200007c8     ... ... ... ... 
200007d8:	200007d0 200007d0 200007d8 200007d8     ... ... ... ... 
200007e8:	200007e0 200007e0 200007e8 200007e8     ... ... ... ... 
200007f8:	200007f0 200007f0 200007f8 200007f8     ... ... ... ... 
20000808:	20000800 20000800 20000808 20000808     ... ... ... ... 
20000818:	20000810 20000810 20000818 20000818     ... ... ... ... 
20000828:	20000820 20000820 20000828 20000828      ..  .. (.. (.. 
20000838:	20000830 20000830 20000838 20000838     0.. 0.. 8.. 8.. 
20000848:	20000840 20000840 20000848 20000848     @.. @.. H.. H.. 
20000858:	20000850 20000850 20000858 20000858     P.. P.. X.. X.. 
20000868:	20000860 20000860 20000868 20000868     `.. `.. h.. h.. 
20000878:	20000870 20000870 20000878 20000878     p.. p.. x.. x.. 
20000888:	20000880 20000880 20000888 20000888     ... ... ... ... 
20000898:	20000890 20000890 20000898 20000898     ... ... ... ... 
200008a8:	200008a0 200008a0 200008a8 200008a8     ... ... ... ... 
200008b8:	200008b0 200008b0 200008b8 200008b8     ... ... ... ... 
200008c8:	200008c0 200008c0 200008c8 200008c8     ... ... ... ... 
200008d8:	200008d0 200008d0 200008d8 200008d8     ... ... ... ... 
200008e8:	200008e0 200008e0 200008e8 200008e8     ... ... ... ... 
200008f8:	200008f0 200008f0 200008f8 200008f8     ... ... ... ... 
20000908:	20000900 20000900 20000908 20000908     ... ... ... ... 
20000918:	20000910 20000910 20000918 20000918     ... ... ... ... 
20000928:	20000920 20000920 20000928 20000928      ..  .. (.. (.. 
20000938:	20000930 20000930 20000938 20000938     0.. 0.. 8.. 8.. 
20000948:	20000940 20000940 20000948 20000948     @.. @.. H.. H.. 
20000958:	20000950 20000950 20000958 20000958     P.. P.. X.. X.. 
20000968:	20000960 20000960 20000968 20000968     `.. `.. h.. h.. 
20000978:	20000970 20000970 20000978 20000978     p.. p.. x.. x.. 
20000988:	20000980 20000980 20000988 20000988     ... ... ... ... 
20000998:	20000990 20000990 20000998 20000998     ... ... ... ... 
200009a8:	200009a0 200009a0 200009a8 200009a8     ... ... ... ... 
200009b8:	200009b0 200009b0 200009b8 200009b8     ... ... ... ... 
200009c8:	200009c0 200009c0 200009c8 200009c8     ... ... ... ... 
200009d8:	200009d0 200009d0 200009d8 200009d8     ... ... ... ... 
200009e8:	200009e0 200009e0 200009e8 200009e8     ... ... ... ... 
200009f8:	200009f0 200009f0 200009f8 200009f8     ... ... ... ... 
20000a08:	20000a00 20000a00 20000a08 20000a08     ... ... ... ... 
20000a18:	20000a10 20000a10 20000a18 20000a18     ... ... ... ... 
20000a28:	20000a20 20000a20 20000a28 20000a28      ..  .. (.. (.. 
20000a38:	20000a30 20000a30 20000a38 20000a38     0.. 0.. 8.. 8.. 

20000a48 <__malloc_sbrk_base>:
20000a48:	ffffffff                                ....

20000a4c <__malloc_trim_threshold>:
20000a4c:	00020000                                ....

20000a50 <print_mutex>:
	...

20000a58 <__mutex_array_end>:
20000a58:	10001b05 	.word	0x10001b05
20000a5c:	100018cd 	.word	0x100018cd
20000a60:	1000198d 	.word	0x1000198d
20000a64:	10001a65 	.word	0x10001a65

20000a68 <__frame_dummy_init_array_entry>:
20000a68:	10000301                                ....
