
flash_ssi_dma.elf:     file format elf32-littlearm

Sections:
Idx Name          Size      VMA       LMA       File off  Algn
  0 .boot2        00000100  10000000  10000000  00010000  2**0
                  CONTENTS, ALLOC, LOAD, READONLY, DATA
  1 .text         000049f8  10000100  10000100  00010100  2**3
                  CONTENTS, ALLOC, LOAD, READONLY, CODE
  2 .rodata       000003ec  10004af8  10004af8  00014af8  2**3
                  CONTENTS, ALLOC, LOAD, READONLY, DATA
  3 .binary_info  00000024  10004ee4  10004ee4  00014ee4  2**2
                  CONTENTS, ALLOC, LOAD, DATA
  4 .ram_vector_table 000000c0  20000000  20000000  00020acc  2**2
                  CONTENTS
  5 .data         00000a0c  200000c0  10004f08  000200c0  2**4
                  CONTENTS, ALLOC, LOAD, CODE
  6 .uninitialized_data 00000000  20000acc  20000acc  00020b8c  2**0
                  CONTENTS
  7 .scratch_x    00000000  20040000  20040000  00020b8c  2**0
                  CONTENTS
  8 .scratch_y    00000000  20041000  20041000  00020b8c  2**0
                  CONTENTS
  9 .bss          000042f0  20000acc  20000acc  00020acc  2**2
                  ALLOC
 10 .heap         00000800  20004dbc  20004dbc  00020b8c  2**2
                  CONTENTS, READONLY
 11 .stack_dummy  00000800  20041000  20041000  000213a0  2**5
                  CONTENTS, READONLY
 12 .ARM.attributes 00000028  00000000  00000000  00021ba0  2**0
                  CONTENTS, READONLY
 13 .comment      00000079  00000000  00000000  00021bc8  2**0
                  CONTENTS, READONLY
 14 .debug_frame  000002ac  00000000  00000000  00021c44  2**2
                  CONTENTS, READONLY, DEBUGGING

flash_ssi_dma.elf:     file format elf32-littlearm


Disassembly of section .text:

10000100 <__reset_start>:
10000100:	4827      	ldr	r0, [pc, #156]	; (100001a0 <__get_current_exception+0xa>)
10000102:	e000      	b.n	10000106 <__vector_entry>

10000104 <_entry_point>:
10000104:	2000      	movs	r0, #0

10000106 <__vector_entry>:
10000106:	4927      	ldr	r1, [pc, #156]	; (100001a4 <__get_current_exception+0xe>)
10000108:	6088      	str	r0, [r1, #8]
1000010a:	c806      	ldmia	r0!, {r1, r2}
1000010c:	f381 8808 	msr	MSP, r1
10000110:	4710      	bx	r2

10000112 <_reset_handler>:
10000112:	4825      	ldr	r0, [pc, #148]	; (100001a8 <__get_current_exception+0x12>)
10000114:	6800      	ldr	r0, [r0, #0]
10000116:	2800      	cmp	r0, #0
10000118:	d139      	bne.n	1000018e <wait_for_vector>
1000011a:	a412      	add	r4, pc, #72	; (adr r4, 10000164 <data_cpy_table>)
1000011c:	cc0e      	ldmia	r4!, {r1, r2, r3}
1000011e:	2900      	cmp	r1, #0
10000120:	d002      	beq.n	10000128 <_reset_handler+0x16>
10000122:	f000 f812 	bl	1000014a <data_cpy>
10000126:	e7f9      	b.n	1000011c <_reset_handler+0xa>
10000128:	4920      	ldr	r1, [pc, #128]	; (100001ac <__get_current_exception+0x16>)
1000012a:	4a21      	ldr	r2, [pc, #132]	; (100001b0 <__get_current_exception+0x1a>)
1000012c:	2000      	movs	r0, #0
1000012e:	e000      	b.n	10000132 <bss_fill_test>

10000130 <bss_fill_loop>:
10000130:	c101      	stmia	r1!, {r0}

10000132 <bss_fill_test>:
10000132:	4291      	cmp	r1, r2
10000134:	d1fc      	bne.n	10000130 <bss_fill_loop>

10000136 <platform_entry>:
10000136:	491f      	ldr	r1, [pc, #124]	; (100001b4 <__get_current_exception+0x1e>)
10000138:	4788      	blx	r1
1000013a:	491f      	ldr	r1, [pc, #124]	; (100001b8 <__get_current_exception+0x22>)
1000013c:	4788      	blx	r1
1000013e:	491f      	ldr	r1, [pc, #124]	; (100001bc <__get_current_exception+0x26>)
10000140:	4788      	blx	r1
10000142:	be00      	bkpt	0x0000
10000144:	e7fd      	b.n	10000142 <platform_entry+0xc>

10000146 <data_cpy_loop>:
10000146:	c901      	ldmia	r1!, {r0}
10000148:	c201      	stmia	r2!, {r0}

1000014a <data_cpy>:
1000014a:	429a      	cmp	r2, r3
1000014c:	d3fb      	bcc.n	10000146 <data_cpy_loop>
1000014e:	4770      	bx	lr

10000150 <binary_info_header>:
10000150:	7188ebf2 	.word	0x7188ebf2
10000154:	10004ee4 	.word	0x10004ee4
10000158:	10004f08 	.word	0x10004f08
1000015c:	10000164 	.word	0x10000164
10000160:	e71aa390 	.word	0xe71aa390

10000164 <data_cpy_table>:
10000164:	10004f08 	.word	0x10004f08
10000168:	200000c0 	.word	0x200000c0
1000016c:	20000acc 	.word	0x20000acc
10000170:	10005914 	.word	0x10005914
10000174:	20040000 	.word	0x20040000
10000178:	20040000 	.word	0x20040000
1000017c:	10005914 	.word	0x10005914
10000180:	20041000 	.word	0x20041000
10000184:	20041000 	.word	0x20041000
10000188:	00000000 	.word	0x00000000
1000018c:	4770      	bx	lr

1000018e <wait_for_vector>:
1000018e:	480c      	ldr	r0, [pc, #48]	; (100001c0 <__get_current_exception+0x2a>)
10000190:	f002 fe5c 	bl	10002e4c <rom_func_lookup>
10000194:	4700      	bx	r0

10000196 <__get_current_exception>:
10000196:	f3ef 8005 	mrs	r0, IPSR
1000019a:	b2c0      	uxtb	r0, r0
1000019c:	4770      	bx	lr
1000019e:	0000      	.short	0x0000
100001a0:	10000200 	.word	0x10000200
100001a4:	e000ed00 	.word	0xe000ed00
100001a8:	d0000000 	.word	0xd0000000
100001ac:	20000acc 	.word	0x20000acc
100001b0:	20004dbc 	.word	0x20004dbc
100001b4:	10000fdd 	.word	0x10000fdd
100001b8:	10000321 	.word	0x10000321
100001bc:	100010fd 	.word	0x100010fd
100001c0:	00005657 	.word	0x00005657

100001c4 <__bi_46>:
100001c4:	50520006 5360b3ab 10004e50              ..RP..`SPN..

100001d0 <__bi_34>:
100001d0:	50520006 02031c86 10004e60              ..RP....`N..

100001dc <__bi_26>:
100001dc:	50520006 9da22254 10004e70              ..RPT"..pN..

100001e8 <__bi_18>:
100001e8:	50520005 68f465de 10005914 00000000     ..RP.e.h.Y......
	...

10000200 <__reset_end>:
10000200:	20042000 	.word	0x20042000
10000204:	10000113 	.word	0x10000113
10000208:	100002c3 	.word	0x100002c3
1000020c:	100002c5 	.word	0x100002c5
10000210:	100002c1 	.word	0x100002c1
10000214:	100002c1 	.word	0x100002c1
10000218:	100002c1 	.word	0x100002c1
1000021c:	100002c1 	.word	0x100002c1
10000220:	100002c1 	.word	0x100002c1
10000224:	100002c1 	.word	0x100002c1
10000228:	100002c1 	.word	0x100002c1
1000022c:	100002c7 	.word	0x100002c7
10000230:	100002c1 	.word	0x100002c1
10000234:	100002c1 	.word	0x100002c1
10000238:	100002c9 	.word	0x100002c9
1000023c:	100002cb 	.word	0x100002cb
10000240:	100002cd 	.word	0x100002cd
10000244:	100002cd 	.word	0x100002cd
10000248:	100002cd 	.word	0x100002cd
1000024c:	100002cd 	.word	0x100002cd
10000250:	100002cd 	.word	0x100002cd
10000254:	100002cd 	.word	0x100002cd
10000258:	100002cd 	.word	0x100002cd
1000025c:	100002cd 	.word	0x100002cd
10000260:	100002cd 	.word	0x100002cd
10000264:	100002cd 	.word	0x100002cd
10000268:	100002cd 	.word	0x100002cd
1000026c:	100002cd 	.word	0x100002cd
10000270:	100002cd 	.word	0x100002cd
10000274:	100002cd 	.word	0x100002cd
10000278:	100002cd 	.word	0x100002cd
1000027c:	100002cd 	.word	0x100002cd
10000280:	100002cd 	.word	0x100002cd
10000284:	100002cd 	.word	0x100002cd
10000288:	100002cd 	.word	0x100002cd
1000028c:	100002cd 	.word	0x100002cd
10000290:	100002cd 	.word	0x100002cd
10000294:	100002cd 	.word	0x100002cd
10000298:	100002cd 	.word	0x100002cd
1000029c:	100002cd 	.word	0x100002cd
100002a0:	100002cd 	.word	0x100002cd
100002a4:	100002cd 	.word	0x100002cd
100002a8:	100002cd 	.word	0x100002cd
100002ac:	100002cd 	.word	0x100002cd
100002b0:	100002cd 	.word	0x100002cd
100002b4:	100002cd 	.word	0x100002cd
100002b8:	100002cd 	.word	0x100002cd
100002bc:	100002cd 	.word	0x100002cd

100002c0 <isr_invalid>:
100002c0:	be00      	bkpt	0x0000

100002c2 <isr_nmi>:
100002c2:	be00      	bkpt	0x0000

100002c4 <isr_hardfault>:
100002c4:	be00      	bkpt	0x0000

100002c6 <isr_svcall>:
100002c6:	be00      	bkpt	0x0000

100002c8 <isr_pendsv>:
100002c8:	be00      	bkpt	0x0000

100002ca <isr_systick>:
100002ca:	be00      	bkpt	0x0000

100002cc <__unhandled_user_irq>:
100002cc:	f7ff ff63 	bl	10000196 <__get_current_exception>
100002d0:	3810      	subs	r0, #16

100002d2 <unhandled_user_irq_num_in_r0>:
100002d2:	be00      	bkpt	0x0000

100002d4 <_init>:
100002d4:	b5f8      	push	{r3, r4, r5, r6, r7, lr}
100002d6:	46c0      	nop			; (mov r8, r8)

100002d8 <__do_global_dtors_aux>:
100002d8:	b510      	push	{r4, lr}
100002da:	4c06      	ldr	r4, [pc, #24]	; (100002f4 <__do_global_dtors_aux+0x1c>)
100002dc:	7823      	ldrb	r3, [r4, #0]
100002de:	2b00      	cmp	r3, #0
100002e0:	d107      	bne.n	100002f2 <__do_global_dtors_aux+0x1a>
100002e2:	4b05      	ldr	r3, [pc, #20]	; (100002f8 <__do_global_dtors_aux+0x20>)
100002e4:	2b00      	cmp	r3, #0
100002e6:	d002      	beq.n	100002ee <__do_global_dtors_aux+0x16>
100002e8:	4804      	ldr	r0, [pc, #16]	; (100002fc <__do_global_dtors_aux+0x24>)
100002ea:	e000      	b.n	100002ee <__do_global_dtors_aux+0x16>
100002ec:	bf00      	nop
100002ee:	2301      	movs	r3, #1
100002f0:	7023      	strb	r3, [r4, #0]
100002f2:	bd10      	pop	{r4, pc}
100002f4:	20000acc 	.word	0x20000acc
100002f8:	00000000 	.word	0x00000000
100002fc:	10004af8 	.word	0x10004af8

10000300 <frame_dummy>:
10000300:	4b04      	ldr	r3, [pc, #16]	; (10000314 <frame_dummy+0x14>)
10000302:	b510      	push	{r4, lr}
10000304:	2b00      	cmp	r3, #0
10000306:	d003      	beq.n	10000310 <frame_dummy+0x10>
10000308:	4903      	ldr	r1, [pc, #12]	; (10000318 <frame_dummy+0x18>)
1000030a:	4804      	ldr	r0, [pc, #16]	; (1000031c <frame_dummy+0x1c>)
1000030c:	e000      	b.n	10000310 <frame_dummy+0x10>
1000030e:	bf00      	nop
10000310:	bd10      	pop	{r4, pc}
10000312:	46c0      	nop			; (mov r8, r8)
10000314:	00000000 	.word	0x00000000
10000318:	20000ad0 	.word	0x20000ad0
1000031c:	10004af8 	.word	0x10004af8

10000320 <main>:
10000320:	b5f8      	push	{r3, r4, r5, r6, r7, lr}
10000322:	f003 fecf 	bl	100040c4 <stdio_init_all>
10000326:	2280      	movs	r2, #128	; 0x80
10000328:	4c1f      	ldr	r4, [pc, #124]	; (100003a8 <main+0x88>)
1000032a:	2100      	movs	r1, #0
1000032c:	01d2      	lsls	r2, r2, #7
1000032e:	0020      	movs	r0, r4
10000330:	f003 fcf4 	bl	10003d1c <__wrap_memset>
10000334:	481d      	ldr	r0, [pc, #116]	; (100003ac <main+0x8c>)
10000336:	f003 fe09 	bl	10003f4c <__wrap_puts>
1000033a:	2280      	movs	r2, #128	; 0x80
1000033c:	4e1c      	ldr	r6, [pc, #112]	; (100003b0 <main+0x90>)
1000033e:	2300      	movs	r3, #0
10000340:	0152      	lsls	r2, r2, #5
10000342:	2100      	movs	r1, #0
10000344:	0020      	movs	r0, r4
10000346:	6ab7      	ldr	r7, [r6, #40]	; 0x28
10000348:	f004 fba6 	bl	10004a98 <__flash_bulk_read_veneer>
1000034c:	6ab5      	ldr	r5, [r6, #40]	; 0x28
1000034e:	4819      	ldr	r0, [pc, #100]	; (100003b4 <main+0x94>)
10000350:	f003 fdfc 	bl	10003f4c <__wrap_puts>
10000354:	1be8      	subs	r0, r5, r7
10000356:	f003 fc3f 	bl	10003bd8 <__wrap___aeabi_ui2f>
1000035a:	4917      	ldr	r1, [pc, #92]	; (100003b8 <main+0x98>)
1000035c:	f003 fc36 	bl	10003bcc <__wrap___aeabi_fmul>
10000360:	1c01      	adds	r1, r0, #0
10000362:	4816      	ldr	r0, [pc, #88]	; (100003bc <main+0x9c>)
10000364:	f003 fc2f 	bl	10003bc6 <__wrap___aeabi_fdiv>
10000368:	f003 fc5e 	bl	10003c28 <__wrap___aeabi_f2d>
1000036c:	2680      	movs	r6, #128	; 0x80
1000036e:	000b      	movs	r3, r1
10000370:	0002      	movs	r2, r0
10000372:	4813      	ldr	r0, [pc, #76]	; (100003c0 <main+0xa0>)
10000374:	f003 fe9a 	bl	100040ac <__wrap_printf>
10000378:	4b12      	ldr	r3, [pc, #72]	; (100003c4 <main+0xa4>)
1000037a:	2000      	movs	r0, #0
1000037c:	2100      	movs	r1, #0
1000037e:	681d      	ldr	r5, [r3, #0]
10000380:	0176      	lsls	r6, r6, #5
10000382:	e003      	b.n	1000038c <main+0x6c>
10000384:	3101      	adds	r1, #1
10000386:	3004      	adds	r0, #4
10000388:	42b1      	cmp	r1, r6
1000038a:	d008      	beq.n	1000039e <main+0x7e>
1000038c:	5823      	ldr	r3, [r4, r0]
1000038e:	582a      	ldr	r2, [r5, r0]
10000390:	4293      	cmp	r3, r2
10000392:	d0f7      	beq.n	10000384 <main+0x64>
10000394:	480c      	ldr	r0, [pc, #48]	; (100003c8 <main+0xa8>)
10000396:	f003 fe89 	bl	100040ac <__wrap_printf>
1000039a:	2000      	movs	r0, #0
1000039c:	bdf8      	pop	{r3, r4, r5, r6, r7, pc}
1000039e:	480b      	ldr	r0, [pc, #44]	; (100003cc <main+0xac>)
100003a0:	f003 fdd4 	bl	10003f4c <__wrap_puts>
100003a4:	e7f9      	b.n	1000039a <main+0x7a>
100003a6:	46c0      	nop			; (mov r8, r8)
100003a8:	20000b8c 	.word	0x20000b8c
100003ac:	10004af8 	.word	0x10004af8
100003b0:	40054000 	.word	0x40054000
100003b4:	10004b08 	.word	0x10004b08
100003b8:	358637bd 	.word	0x358637bd
100003bc:	3c8637bd 	.word	0x3c8637bd
100003c0:	10004b18 	.word	0x10004b18
100003c4:	200001f0 	.word	0x200001f0
100003c8:	10004b34 	.word	0x10004b34
100003cc:	10004b60 	.word	0x10004b60

100003d0 <gpio_set_function>:
100003d0:	4a09      	ldr	r2, [pc, #36]	; (100003f8 <gpio_set_function+0x28>)
100003d2:	0083      	lsls	r3, r0, #2
100003d4:	4694      	mov	ip, r2
100003d6:	2240      	movs	r2, #64	; 0x40
100003d8:	4463      	add	r3, ip
100003da:	b510      	push	{r4, lr}
100003dc:	681c      	ldr	r4, [r3, #0]
100003de:	00c0      	lsls	r0, r0, #3
100003e0:	4062      	eors	r2, r4
100003e2:	24c0      	movs	r4, #192	; 0xc0
100003e4:	4014      	ands	r4, r2
100003e6:	2280      	movs	r2, #128	; 0x80
100003e8:	0152      	lsls	r2, r2, #5
100003ea:	4313      	orrs	r3, r2
100003ec:	601c      	str	r4, [r3, #0]
100003ee:	4b03      	ldr	r3, [pc, #12]	; (100003fc <gpio_set_function+0x2c>)
100003f0:	469c      	mov	ip, r3
100003f2:	4460      	add	r0, ip
100003f4:	6041      	str	r1, [r0, #4]
100003f6:	bd10      	pop	{r4, pc}
100003f8:	4001c004 	.word	0x4001c004
100003fc:	40014000 	.word	0x40014000

10000400 <hw_claim_or_assert>:
10000400:	b5f8      	push	{r3, r4, r5, r6, r7, lr}
10000402:	46ce      	mov	lr, r9
10000404:	4647      	mov	r7, r8
10000406:	4691      	mov	r9, r2
10000408:	b580      	push	{r7, lr}
1000040a:	f3ef 8710 	mrs	r7, PRIMASK
1000040e:	b672      	cpsid	i
10000410:	4e12      	ldr	r6, [pc, #72]	; (1000045c <hw_claim_or_assert+0x5c>)
10000412:	6833      	ldr	r3, [r6, #0]
10000414:	2b00      	cmp	r3, #0
10000416:	d0fc      	beq.n	10000412 <hw_claim_or_assert+0x12>
10000418:	f3bf 8f5f 	dmb	sy
1000041c:	08cb      	lsrs	r3, r1, #3
1000041e:	5cc5      	ldrb	r5, [r0, r3]
10000420:	2407      	movs	r4, #7
10000422:	18c2      	adds	r2, r0, r3
10000424:	0028      	movs	r0, r5
10000426:	2301      	movs	r3, #1
10000428:	400c      	ands	r4, r1
1000042a:	4694      	mov	ip, r2
1000042c:	40e0      	lsrs	r0, r4
1000042e:	001a      	movs	r2, r3
10000430:	4002      	ands	r2, r0
10000432:	4690      	mov	r8, r2
10000434:	4203      	tst	r3, r0
10000436:	d10d      	bne.n	10000454 <hw_claim_or_assert+0x54>
10000438:	40a3      	lsls	r3, r4
1000043a:	4662      	mov	r2, ip
1000043c:	432b      	orrs	r3, r5
1000043e:	7013      	strb	r3, [r2, #0]
10000440:	f3bf 8f5f 	dmb	sy
10000444:	4643      	mov	r3, r8
10000446:	6033      	str	r3, [r6, #0]
10000448:	f387 8810 	msr	PRIMASK, r7
1000044c:	bc0c      	pop	{r2, r3}
1000044e:	4690      	mov	r8, r2
10000450:	4699      	mov	r9, r3
10000452:	bdf8      	pop	{r3, r4, r5, r6, r7, pc}
10000454:	4648      	mov	r0, r9
10000456:	f000 fe53 	bl	10001100 <panic>
1000045a:	46c0      	nop			; (mov r8, r8)
1000045c:	d000012c 	.word	0xd000012c

10000460 <spin_locks_reset>:
10000460:	2100      	movs	r1, #0
10000462:	4b04      	ldr	r3, [pc, #16]	; (10000474 <spin_locks_reset+0x14>)
10000464:	4a04      	ldr	r2, [pc, #16]	; (10000478 <spin_locks_reset+0x18>)
10000466:	f3bf 8f5f 	dmb	sy
1000046a:	c302      	stmia	r3!, {r1}
1000046c:	4293      	cmp	r3, r2
1000046e:	d1fa      	bne.n	10000466 <spin_locks_reset+0x6>
10000470:	4770      	bx	lr
10000472:	46c0      	nop			; (mov r8, r8)
10000474:	d0000100 	.word	0xd0000100
10000478:	d0000180 	.word	0xd0000180

1000047c <next_striped_spin_lock_num>:
1000047c:	4a04      	ldr	r2, [pc, #16]	; (10000490 <next_striped_spin_lock_num+0x14>)
1000047e:	7810      	ldrb	r0, [r2, #0]
10000480:	1c43      	adds	r3, r0, #1
10000482:	b2db      	uxtb	r3, r3
10000484:	2b17      	cmp	r3, #23
10000486:	d900      	bls.n	1000048a <next_striped_spin_lock_num+0xe>
10000488:	2310      	movs	r3, #16
1000048a:	7013      	strb	r3, [r2, #0]
1000048c:	4770      	bx	lr
1000048e:	46c0      	nop			; (mov r8, r8)
10000490:	200001f4 	.word	0x200001f4

10000494 <running_on_fpga>:
10000494:	4b02      	ldr	r3, [pc, #8]	; (100004a0 <running_on_fpga+0xc>)
10000496:	6818      	ldr	r0, [r3, #0]
10000498:	0780      	lsls	r0, r0, #30
1000049a:	0fc0      	lsrs	r0, r0, #31
1000049c:	4770      	bx	lr
1000049e:	46c0      	nop			; (mov r8, r8)
100004a0:	4006c000 	.word	0x4006c000

100004a4 <uart_init>:
100004a4:	b5f0      	push	{r4, r5, r6, r7, lr}
100004a6:	46c6      	mov	lr, r8
100004a8:	0005      	movs	r5, r0
100004aa:	b500      	push	{lr}
100004ac:	2006      	movs	r0, #6
100004ae:	000e      	movs	r6, r1
100004b0:	f000 ffb4 	bl	1000141c <clock_get_hz>
100004b4:	2800      	cmp	r0, #0
100004b6:	d04d      	beq.n	10000554 <uart_init+0xb0>
100004b8:	4b29      	ldr	r3, [pc, #164]	; (10000560 <uart_init+0xbc>)
100004ba:	492a      	ldr	r1, [pc, #168]	; (10000564 <uart_init+0xc0>)
100004bc:	18eb      	adds	r3, r5, r3
100004be:	425a      	negs	r2, r3
100004c0:	4153      	adcs	r3, r2
100004c2:	2280      	movs	r2, #128	; 0x80
100004c4:	03d2      	lsls	r2, r2, #15
100004c6:	4694      	mov	ip, r2
100004c8:	425b      	negs	r3, r3
100004ca:	4013      	ands	r3, r2
100004cc:	4a26      	ldr	r2, [pc, #152]	; (10000568 <uart_init+0xc4>)
100004ce:	4463      	add	r3, ip
100004d0:	6013      	str	r3, [r2, #0]
100004d2:	4a26      	ldr	r2, [pc, #152]	; (1000056c <uart_init+0xc8>)
100004d4:	6013      	str	r3, [r2, #0]
100004d6:	001c      	movs	r4, r3
100004d8:	688a      	ldr	r2, [r1, #8]
100004da:	4394      	bics	r4, r2
100004dc:	d1fb      	bne.n	100004d6 <uart_init+0x32>
100004de:	4b20      	ldr	r3, [pc, #128]	; (10000560 <uart_init+0xbc>)
100004e0:	2180      	movs	r1, #128	; 0x80
100004e2:	18eb      	adds	r3, r5, r3
100004e4:	425a      	negs	r2, r3
100004e6:	4153      	adcs	r3, r2
100004e8:	4a21      	ldr	r2, [pc, #132]	; (10000570 <uart_init+0xcc>)
100004ea:	005b      	lsls	r3, r3, #1
100004ec:	0049      	lsls	r1, r1, #1
100004ee:	2006      	movs	r0, #6
100004f0:	5299      	strh	r1, [r3, r2]
100004f2:	f000 ff93 	bl	1000141c <clock_get_hz>
100004f6:	0031      	movs	r1, r6
100004f8:	00c0      	lsls	r0, r0, #3
100004fa:	f002 fd01 	bl	10002f00 <__wrap___aeabi_uidiv>
100004fe:	267f      	movs	r6, #127	; 0x7f
10000500:	4b1c      	ldr	r3, [pc, #112]	; (10000574 <uart_init+0xd0>)
10000502:	4006      	ands	r6, r0
10000504:	09c7      	lsrs	r7, r0, #7
10000506:	3601      	adds	r6, #1
10000508:	0876      	lsrs	r6, r6, #1
1000050a:	626f      	str	r7, [r5, #36]	; 0x24
1000050c:	429f      	cmp	r7, r3
1000050e:	d024      	beq.n	1000055a <uart_init+0xb6>
10000510:	62ae      	str	r6, [r5, #40]	; 0x28
10000512:	232c      	movs	r3, #44	; 0x2c
10000514:	4698      	mov	r8, r3
10000516:	2480      	movs	r4, #128	; 0x80
10000518:	44a8      	add	r8, r5
1000051a:	4643      	mov	r3, r8
1000051c:	01a4      	lsls	r4, r4, #6
1000051e:	431c      	orrs	r4, r3
10000520:	2300      	movs	r3, #0
10000522:	2006      	movs	r0, #6
10000524:	6023      	str	r3, [r4, #0]
10000526:	f000 ff79 	bl	1000141c <clock_get_hz>
1000052a:	01b9      	lsls	r1, r7, #6
1000052c:	1989      	adds	r1, r1, r6
1000052e:	0080      	lsls	r0, r0, #2
10000530:	f002 fce6 	bl	10002f00 <__wrap___aeabi_uidiv>
10000534:	2360      	movs	r3, #96	; 0x60
10000536:	6aea      	ldr	r2, [r5, #44]	; 0x2c
10000538:	4641      	mov	r1, r8
1000053a:	4053      	eors	r3, r2
1000053c:	226e      	movs	r2, #110	; 0x6e
1000053e:	401a      	ands	r2, r3
10000540:	2380      	movs	r3, #128	; 0x80
10000542:	015b      	lsls	r3, r3, #5
10000544:	430b      	orrs	r3, r1
10000546:	601a      	str	r2, [r3, #0]
10000548:	4b0b      	ldr	r3, [pc, #44]	; (10000578 <uart_init+0xd4>)
1000054a:	632b      	str	r3, [r5, #48]	; 0x30
1000054c:	2310      	movs	r3, #16
1000054e:	6023      	str	r3, [r4, #0]
10000550:	3b0d      	subs	r3, #13
10000552:	64ab      	str	r3, [r5, #72]	; 0x48
10000554:	bc04      	pop	{r2}
10000556:	4690      	mov	r8, r2
10000558:	bdf0      	pop	{r4, r5, r6, r7, pc}
1000055a:	62ac      	str	r4, [r5, #40]	; 0x28
1000055c:	e7d9      	b.n	10000512 <uart_init+0x6e>
1000055e:	46c0      	nop			; (mov r8, r8)
10000560:	bffc8000 	.word	0xbffc8000
10000564:	4000c000 	.word	0x4000c000
10000568:	4000e000 	.word	0x4000e000
1000056c:	4000f000 	.word	0x4000f000
10000570:	20004b8c 	.word	0x20004b8c
10000574:	0000ffff 	.word	0x0000ffff
10000578:	00000301 	.word	0x00000301

1000057c <timer_pool_entry_comparator>:
1000057c:	6883      	ldr	r3, [r0, #8]
1000057e:	480b      	ldr	r0, [pc, #44]	; (100005ac <timer_pool_entry_comparator+0x30>)
10000580:	b510      	push	{r4, lr}
10000582:	4684      	mov	ip, r0
10000584:	4461      	add	r1, ip
10000586:	4462      	add	r2, ip
10000588:	0109      	lsls	r1, r1, #4
1000058a:	0112      	lsls	r2, r2, #4
1000058c:	189a      	adds	r2, r3, r2
1000058e:	1859      	adds	r1, r3, r1
10000590:	6854      	ldr	r4, [r2, #4]
10000592:	684b      	ldr	r3, [r1, #4]
10000594:	2001      	movs	r0, #1
10000596:	429c      	cmp	r4, r3
10000598:	d801      	bhi.n	1000059e <timer_pool_entry_comparator+0x22>
1000059a:	d002      	beq.n	100005a2 <timer_pool_entry_comparator+0x26>
1000059c:	2000      	movs	r0, #0
1000059e:	b2c0      	uxtb	r0, r0
100005a0:	bd10      	pop	{r4, pc}
100005a2:	6812      	ldr	r2, [r2, #0]
100005a4:	680b      	ldr	r3, [r1, #0]
100005a6:	429a      	cmp	r2, r3
100005a8:	d8f9      	bhi.n	1000059e <timer_pool_entry_comparator+0x22>
100005aa:	e7f7      	b.n	1000059c <timer_pool_entry_comparator+0x20>
100005ac:	0fffffff 	.word	0x0fffffff

100005b0 <add_alarm_under_lock>:
100005b0:	b5f0      	push	{r4, r5, r6, r7, lr}
100005b2:	4657      	mov	r7, sl
100005b4:	4645      	mov	r5, r8
100005b6:	46de      	mov	lr, fp
100005b8:	464e      	mov	r6, r9
100005ba:	b5e0      	push	{r5, r6, r7, lr}
100005bc:	b083      	sub	sp, #12
100005be:	001f      	movs	r7, r3
100005c0:	ab0f      	add	r3, sp, #60	; 0x3c
100005c2:	781b      	ldrb	r3, [r3, #0]
100005c4:	9c0e      	ldr	r4, [sp, #56]	; 0x38
100005c6:	0005      	movs	r5, r0
100005c8:	4692      	mov	sl, r2
100005ca:	9301      	str	r3, [sp, #4]
100005cc:	2c00      	cmp	r4, #0
100005ce:	d10d      	bne.n	100005ec <add_alarm_under_lock+0x3c>
100005d0:	6802      	ldr	r2, [r0, #0]
100005d2:	7b94      	ldrb	r4, [r2, #14]
100005d4:	2c00      	cmp	r4, #0
100005d6:	d056      	beq.n	10000686 <add_alarm_under_lock+0xd6>
100005d8:	6811      	ldr	r1, [r2, #0]
100005da:	0063      	lsls	r3, r4, #1
100005dc:	468c      	mov	ip, r1
100005de:	191b      	adds	r3, r3, r4
100005e0:	4463      	add	r3, ip
100005e2:	3b03      	subs	r3, #3
100005e4:	785b      	ldrb	r3, [r3, #1]
100005e6:	7393      	strb	r3, [r2, #14]
100005e8:	2b00      	cmp	r3, #0
100005ea:	d054      	beq.n	10000696 <add_alarm_under_lock+0xe6>
100005ec:	68aa      	ldr	r2, [r5, #8]
100005ee:	b2e3      	uxtb	r3, r4
100005f0:	4694      	mov	ip, r2
100005f2:	4652      	mov	r2, sl
100005f4:	469b      	mov	fp, r3
100005f6:	4b38      	ldr	r3, [pc, #224]	; (100006d8 <add_alarm_under_lock+0x128>)
100005f8:	682e      	ldr	r6, [r5, #0]
100005fa:	18e3      	adds	r3, r4, r3
100005fc:	011b      	lsls	r3, r3, #4
100005fe:	4463      	add	r3, ip
10000600:	601a      	str	r2, [r3, #0]
10000602:	9a0c      	ldr	r2, [sp, #48]	; 0x30
10000604:	605f      	str	r7, [r3, #4]
10000606:	609a      	str	r2, [r3, #8]
10000608:	9a0d      	ldr	r2, [sp, #52]	; 0x34
1000060a:	60da      	str	r2, [r3, #12]
1000060c:	23d0      	movs	r3, #208	; 0xd0
1000060e:	2280      	movs	r2, #128	; 0x80
10000610:	061b      	lsls	r3, r3, #24
10000612:	0312      	lsls	r2, r2, #12
10000614:	615a      	str	r2, [r3, #20]
10000616:	0063      	lsls	r3, r4, #1
10000618:	191b      	adds	r3, r3, r4
1000061a:	3b03      	subs	r3, #3
1000061c:	4698      	mov	r8, r3
1000061e:	2200      	movs	r2, #0
10000620:	6833      	ldr	r3, [r6, #0]
10000622:	4443      	add	r3, r8
10000624:	709a      	strb	r2, [r3, #2]
10000626:	705a      	strb	r2, [r3, #1]
10000628:	701a      	strb	r2, [r3, #0]
1000062a:	7b73      	ldrb	r3, [r6, #13]
1000062c:	4699      	mov	r9, r3
1000062e:	2b00      	cmp	r3, #0
10000630:	d017      	beq.n	10000662 <add_alarm_under_lock+0xb2>
10000632:	465a      	mov	r2, fp
10000634:	0019      	movs	r1, r3
10000636:	68b0      	ldr	r0, [r6, #8]
10000638:	6873      	ldr	r3, [r6, #4]
1000063a:	4798      	blx	r3
1000063c:	6832      	ldr	r2, [r6, #0]
1000063e:	2800      	cmp	r0, #0
10000640:	d12b      	bne.n	1000069a <add_alarm_under_lock+0xea>
10000642:	4643      	mov	r3, r8
10000644:	18d1      	adds	r1, r2, r3
10000646:	464b      	mov	r3, r9
10000648:	4658      	mov	r0, fp
1000064a:	005b      	lsls	r3, r3, #1
1000064c:	444b      	add	r3, r9
1000064e:	3b03      	subs	r3, #3
10000650:	18d3      	adds	r3, r2, r3
10000652:	7098      	strb	r0, [r3, #2]
10000654:	4640      	mov	r0, r8
10000656:	5c12      	ldrb	r2, [r2, r0]
10000658:	2a00      	cmp	r2, #0
1000065a:	d000      	beq.n	1000065e <add_alarm_under_lock+0xae>
1000065c:	705a      	strb	r2, [r3, #1]
1000065e:	464b      	mov	r3, r9
10000660:	700b      	strb	r3, [r1, #0]
10000662:	465b      	mov	r3, fp
10000664:	7373      	strb	r3, [r6, #13]
10000666:	4652      	mov	r2, sl
10000668:	003b      	movs	r3, r7
1000066a:	7d28      	ldrb	r0, [r5, #20]
1000066c:	f000 fa1a 	bl	10000aa4 <hardware_alarm_set_target>
10000670:	1e06      	subs	r6, r0, #0
10000672:	d002      	beq.n	1000067a <add_alarm_under_lock+0xca>
10000674:	9b01      	ldr	r3, [sp, #4]
10000676:	2b00      	cmp	r3, #0
10000678:	d026      	beq.n	100006c8 <add_alarm_under_lock+0x118>
1000067a:	9b10      	ldr	r3, [sp, #64]	; 0x40
1000067c:	2b00      	cmp	r3, #0
1000067e:	d028      	beq.n	100006d2 <add_alarm_under_lock+0x122>
10000680:	0020      	movs	r0, r4
10000682:	701e      	strb	r6, [r3, #0]
10000684:	e000      	b.n	10000688 <add_alarm_under_lock+0xd8>
10000686:	2000      	movs	r0, #0
10000688:	b003      	add	sp, #12
1000068a:	bc3c      	pop	{r2, r3, r4, r5}
1000068c:	4690      	mov	r8, r2
1000068e:	4699      	mov	r9, r3
10000690:	46a2      	mov	sl, r4
10000692:	46ab      	mov	fp, r5
10000694:	bdf0      	pop	{r4, r5, r6, r7, pc}
10000696:	73d3      	strb	r3, [r2, #15]
10000698:	e7a8      	b.n	100005ec <add_alarm_under_lock+0x3c>
1000069a:	464b      	mov	r3, r9
1000069c:	005b      	lsls	r3, r3, #1
1000069e:	444b      	add	r3, r9
100006a0:	3b03      	subs	r3, #3
100006a2:	18d1      	adds	r1, r2, r3
100006a4:	468c      	mov	ip, r1
100006a6:	4641      	mov	r1, r8
100006a8:	4648      	mov	r0, r9
100006aa:	1851      	adds	r1, r2, r1
100006ac:	7088      	strb	r0, [r1, #2]
100006ae:	5cd3      	ldrb	r3, [r2, r3]
100006b0:	2b00      	cmp	r3, #0
100006b2:	d000      	beq.n	100006b6 <add_alarm_under_lock+0x106>
100006b4:	704b      	strb	r3, [r1, #1]
100006b6:	465b      	mov	r3, fp
100006b8:	4662      	mov	r2, ip
100006ba:	7013      	strb	r3, [r2, #0]
100006bc:	464b      	mov	r3, r9
100006be:	0020      	movs	r0, r4
100006c0:	7373      	strb	r3, [r6, #13]
100006c2:	45a1      	cmp	r9, r4
100006c4:	d1e0      	bne.n	10000688 <add_alarm_under_lock+0xd8>
100006c6:	e7ce      	b.n	10000666 <add_alarm_under_lock+0xb6>
100006c8:	4659      	mov	r1, fp
100006ca:	6828      	ldr	r0, [r5, #0]
100006cc:	f000 fc48 	bl	10000f60 <ph_delete>
100006d0:	e7d3      	b.n	1000067a <add_alarm_under_lock+0xca>
100006d2:	0020      	movs	r0, r4
100006d4:	e7d8      	b.n	10000688 <add_alarm_under_lock+0xd8>
100006d6:	46c0      	nop			; (mov r8, r8)
100006d8:	0fffffff 	.word	0x0fffffff

100006dc <alarm_pool_alarm_callback>:
100006dc:	b5f0      	push	{r4, r5, r6, r7, lr}
100006de:	46de      	mov	lr, fp
100006e0:	464e      	mov	r6, r9
100006e2:	4657      	mov	r7, sl
100006e4:	4645      	mov	r5, r8
100006e6:	2300      	movs	r3, #0
100006e8:	b5e0      	push	{r5, r6, r7, lr}
100006ea:	b08d      	sub	sp, #52	; 0x34
100006ec:	930a      	str	r3, [sp, #40]	; 0x28
100006ee:	4b71      	ldr	r3, [pc, #452]	; (100008b4 <alarm_pool_alarm_callback+0x1d8>)
100006f0:	0082      	lsls	r2, r0, #2
100006f2:	58d3      	ldr	r3, [r2, r3]
100006f4:	900b      	str	r0, [sp, #44]	; 0x2c
100006f6:	4699      	mov	r9, r3
100006f8:	2300      	movs	r3, #0
100006fa:	469b      	mov	fp, r3
100006fc:	464b      	mov	r3, r9
100006fe:	9307      	str	r3, [sp, #28]
10000700:	f000 f980 	bl	10000a04 <time_us_64>
10000704:	9c07      	ldr	r4, [sp, #28]
10000706:	0006      	movs	r6, r0
10000708:	000f      	movs	r7, r1
1000070a:	6862      	ldr	r2, [r4, #4]
1000070c:	f3ef 8510 	mrs	r5, PRIMASK
10000710:	b672      	cpsid	i
10000712:	6813      	ldr	r3, [r2, #0]
10000714:	2b00      	cmp	r3, #0
10000716:	d0fc      	beq.n	10000712 <alarm_pool_alarm_callback+0x36>
10000718:	0022      	movs	r2, r4
1000071a:	9407      	str	r4, [sp, #28]
1000071c:	f3bf 8f5f 	dmb	sy
10000720:	6824      	ldr	r4, [r4, #0]
10000722:	7b63      	ldrb	r3, [r4, #13]
10000724:	4699      	mov	r9, r3
10000726:	2b00      	cmp	r3, #0
10000728:	d100      	bne.n	1000072c <alarm_pool_alarm_callback+0x50>
1000072a:	e070      	b.n	1000080e <alarm_pool_alarm_callback+0x132>
1000072c:	6892      	ldr	r2, [r2, #8]
1000072e:	4b62      	ldr	r3, [pc, #392]	; (100008b8 <alarm_pool_alarm_callback+0x1dc>)
10000730:	4690      	mov	r8, r2
10000732:	444b      	add	r3, r9
10000734:	011b      	lsls	r3, r3, #4
10000736:	4498      	add	r8, r3
10000738:	4643      	mov	r3, r8
1000073a:	681a      	ldr	r2, [r3, #0]
1000073c:	685b      	ldr	r3, [r3, #4]
1000073e:	0010      	movs	r0, r2
10000740:	0019      	movs	r1, r3
10000742:	1b80      	subs	r0, r0, r6
10000744:	41b9      	sbcs	r1, r7
10000746:	2900      	cmp	r1, #0
10000748:	dd68      	ble.n	1000081c <alarm_pool_alarm_callback+0x140>
1000074a:	980b      	ldr	r0, [sp, #44]	; 0x2c
1000074c:	f000 f9aa 	bl	10000aa4 <hardware_alarm_set_target>
10000750:	2300      	movs	r3, #0
10000752:	2600      	movs	r6, #0
10000754:	4698      	mov	r8, r3
10000756:	2700      	movs	r7, #0
10000758:	469a      	mov	sl, r3
1000075a:	9c07      	ldr	r4, [sp, #28]
1000075c:	6863      	ldr	r3, [r4, #4]
1000075e:	f3bf 8f5f 	dmb	sy
10000762:	465a      	mov	r2, fp
10000764:	601a      	str	r2, [r3, #0]
10000766:	f385 8810 	msr	PRIMASK, r5
1000076a:	4653      	mov	r3, sl
1000076c:	2b00      	cmp	r3, #0
1000076e:	d108      	bne.n	10000782 <alarm_pool_alarm_callback+0xa6>
10000770:	2800      	cmp	r0, #0
10000772:	d1c5      	bne.n	10000700 <alarm_pool_alarm_callback+0x24>
10000774:	b00d      	add	sp, #52	; 0x34
10000776:	bc3c      	pop	{r2, r3, r4, r5}
10000778:	4690      	mov	r8, r2
1000077a:	4699      	mov	r9, r3
1000077c:	46a2      	mov	sl, r4
1000077e:	46ab      	mov	fp, r5
10000780:	bdf0      	pop	{r4, r5, r6, r7, pc}
10000782:	23d0      	movs	r3, #208	; 0xd0
10000784:	2280      	movs	r2, #128	; 0x80
10000786:	2180      	movs	r1, #128	; 0x80
10000788:	061b      	lsls	r3, r3, #24
1000078a:	0392      	lsls	r2, r2, #14
1000078c:	0309      	lsls	r1, r1, #12
1000078e:	615a      	str	r2, [r3, #20]
10000790:	6199      	str	r1, [r3, #24]
10000792:	619a      	str	r2, [r3, #24]
10000794:	9b0a      	ldr	r3, [sp, #40]	; 0x28
10000796:	4641      	mov	r1, r8
10000798:	0218      	lsls	r0, r3, #8
1000079a:	464b      	mov	r3, r9
1000079c:	4318      	orrs	r0, r3
1000079e:	47d0      	blx	sl
100007a0:	9008      	str	r0, [sp, #32]
100007a2:	9109      	str	r1, [sp, #36]	; 0x24
100007a4:	6862      	ldr	r2, [r4, #4]
100007a6:	f3ef 8510 	mrs	r5, PRIMASK
100007aa:	b672      	cpsid	i
100007ac:	6813      	ldr	r3, [r2, #0]
100007ae:	2b00      	cmp	r3, #0
100007b0:	d0fc      	beq.n	100007ac <alarm_pool_alarm_callback+0xd0>
100007b2:	9407      	str	r4, [sp, #28]
100007b4:	f3bf 8f5f 	dmb	sy
100007b8:	9908      	ldr	r1, [sp, #32]
100007ba:	9a09      	ldr	r2, [sp, #36]	; 0x24
100007bc:	2a00      	cmp	r2, #0
100007be:	db49      	blt.n	10000854 <alarm_pool_alarm_callback+0x178>
100007c0:	4311      	orrs	r1, r2
100007c2:	d003      	beq.n	100007cc <alarm_pool_alarm_callback+0xf0>
100007c4:	9b07      	ldr	r3, [sp, #28]
100007c6:	691b      	ldr	r3, [r3, #16]
100007c8:	2b00      	cmp	r3, #0
100007ca:	d15e      	bne.n	1000088a <alarm_pool_alarm_callback+0x1ae>
100007cc:	9b07      	ldr	r3, [sp, #28]
100007ce:	681b      	ldr	r3, [r3, #0]
100007d0:	7bda      	ldrb	r2, [r3, #15]
100007d2:	2a00      	cmp	r2, #0
100007d4:	d007      	beq.n	100007e6 <alarm_pool_alarm_callback+0x10a>
100007d6:	0051      	lsls	r1, r2, #1
100007d8:	188a      	adds	r2, r1, r2
100007da:	6819      	ldr	r1, [r3, #0]
100007dc:	468c      	mov	ip, r1
100007de:	4649      	mov	r1, r9
100007e0:	4462      	add	r2, ip
100007e2:	3a03      	subs	r2, #3
100007e4:	7051      	strb	r1, [r2, #1]
100007e6:	464a      	mov	r2, r9
100007e8:	73da      	strb	r2, [r3, #15]
100007ea:	464b      	mov	r3, r9
100007ec:	9a07      	ldr	r2, [sp, #28]
100007ee:	3b01      	subs	r3, #1
100007f0:	68d1      	ldr	r1, [r2, #12]
100007f2:	5cca      	ldrb	r2, [r1, r3]
100007f4:	3201      	adds	r2, #1
100007f6:	54ca      	strb	r2, [r1, r3]
100007f8:	465b      	mov	r3, fp
100007fa:	9a07      	ldr	r2, [sp, #28]
100007fc:	6113      	str	r3, [r2, #16]
100007fe:	6853      	ldr	r3, [r2, #4]
10000800:	f3bf 8f5f 	dmb	sy
10000804:	465a      	mov	r2, fp
10000806:	601a      	str	r2, [r3, #0]
10000808:	f385 8810 	msr	PRIMASK, r5
1000080c:	e778      	b.n	10000700 <alarm_pool_alarm_callback+0x24>
1000080e:	2300      	movs	r3, #0
10000810:	2600      	movs	r6, #0
10000812:	4698      	mov	r8, r3
10000814:	2700      	movs	r7, #0
10000816:	469a      	mov	sl, r3
10000818:	2000      	movs	r0, #0
1000081a:	e79e      	b.n	1000075a <alarm_pool_alarm_callback+0x7e>
1000081c:	2900      	cmp	r1, #0
1000081e:	d102      	bne.n	10000826 <alarm_pool_alarm_callback+0x14a>
10000820:	2800      	cmp	r0, #0
10000822:	d000      	beq.n	10000826 <alarm_pool_alarm_callback+0x14a>
10000824:	e791      	b.n	1000074a <alarm_pool_alarm_callback+0x6e>
10000826:	2101      	movs	r1, #1
10000828:	0020      	movs	r0, r4
1000082a:	f000 fafb 	bl	10000e24 <ph_remove_head_reserve>
1000082e:	4643      	mov	r3, r8
10000830:	681e      	ldr	r6, [r3, #0]
10000832:	685f      	ldr	r7, [r3, #4]
10000834:	689b      	ldr	r3, [r3, #8]
10000836:	9a07      	ldr	r2, [sp, #28]
10000838:	469a      	mov	sl, r3
1000083a:	4643      	mov	r3, r8
1000083c:	68db      	ldr	r3, [r3, #12]
1000083e:	4698      	mov	r8, r3
10000840:	68d3      	ldr	r3, [r2, #12]
10000842:	444b      	add	r3, r9
10000844:	3b01      	subs	r3, #1
10000846:	781b      	ldrb	r3, [r3, #0]
10000848:	930a      	str	r3, [sp, #40]	; 0x28
1000084a:	021b      	lsls	r3, r3, #8
1000084c:	4303      	orrs	r3, r0
1000084e:	6113      	str	r3, [r2, #16]
10000850:	2000      	movs	r0, #0
10000852:	e782      	b.n	1000075a <alarm_pool_alarm_callback+0x7e>
10000854:	6923      	ldr	r3, [r4, #16]
10000856:	2b00      	cmp	r3, #0
10000858:	d0b8      	beq.n	100007cc <alarm_pool_alarm_callback+0xf0>
1000085a:	0033      	movs	r3, r6
1000085c:	003c      	movs	r4, r7
1000085e:	1a5b      	subs	r3, r3, r1
10000860:	4194      	sbcs	r4, r2
10000862:	001a      	movs	r2, r3
10000864:	0023      	movs	r3, r4
10000866:	42a7      	cmp	r7, r4
10000868:	d819      	bhi.n	1000089e <alarm_pool_alarm_callback+0x1c2>
1000086a:	429f      	cmp	r7, r3
1000086c:	d01b      	beq.n	100008a6 <alarm_pool_alarm_callback+0x1ca>
1000086e:	4659      	mov	r1, fp
10000870:	9104      	str	r1, [sp, #16]
10000872:	2101      	movs	r1, #1
10000874:	9103      	str	r1, [sp, #12]
10000876:	4649      	mov	r1, r9
10000878:	9102      	str	r1, [sp, #8]
1000087a:	4641      	mov	r1, r8
1000087c:	9101      	str	r1, [sp, #4]
1000087e:	4651      	mov	r1, sl
10000880:	9807      	ldr	r0, [sp, #28]
10000882:	9100      	str	r1, [sp, #0]
10000884:	f7ff fe94 	bl	100005b0 <add_alarm_under_lock>
10000888:	e7b6      	b.n	100007f8 <alarm_pool_alarm_callback+0x11c>
1000088a:	f000 f8bb 	bl	10000a04 <time_us_64>
1000088e:	9a08      	ldr	r2, [sp, #32]
10000890:	9b09      	ldr	r3, [sp, #36]	; 0x24
10000892:	0006      	movs	r6, r0
10000894:	000f      	movs	r7, r1
10000896:	1992      	adds	r2, r2, r6
10000898:	417b      	adcs	r3, r7
1000089a:	4299      	cmp	r1, r3
1000089c:	d9e5      	bls.n	1000086a <alarm_pool_alarm_callback+0x18e>
1000089e:	2201      	movs	r2, #1
100008a0:	4252      	negs	r2, r2
100008a2:	17d3      	asrs	r3, r2, #31
100008a4:	e7e3      	b.n	1000086e <alarm_pool_alarm_callback+0x192>
100008a6:	4296      	cmp	r6, r2
100008a8:	d9e1      	bls.n	1000086e <alarm_pool_alarm_callback+0x192>
100008aa:	2201      	movs	r2, #1
100008ac:	4252      	negs	r2, r2
100008ae:	17d3      	asrs	r3, r2, #31
100008b0:	e7dd      	b.n	1000086e <alarm_pool_alarm_callback+0x192>
100008b2:	46c0      	nop			; (mov r8, r8)
100008b4:	20000b68 	.word	0x20000b68
100008b8:	0fffffff 	.word	0x0fffffff

100008bc <alarm_pool_init_default>:
100008bc:	b570      	push	{r4, r5, r6, lr}
100008be:	4c18      	ldr	r4, [pc, #96]	; (10000920 <alarm_pool_init_default+0x64>)
100008c0:	6823      	ldr	r3, [r4, #0]
100008c2:	2b00      	cmp	r3, #0
100008c4:	d000      	beq.n	100008c8 <alarm_pool_init_default+0xc>
100008c6:	bd70      	pop	{r4, r5, r6, pc}
100008c8:	2003      	movs	r0, #3
100008ca:	f000 f88f 	bl	100009ec <hardware_alarm_claim>
100008ce:	2003      	movs	r0, #3
100008d0:	f000 f94a 	bl	10000b68 <hardware_alarm_cancel>
100008d4:	4913      	ldr	r1, [pc, #76]	; (10000924 <alarm_pool_init_default+0x68>)
100008d6:	2003      	movs	r0, #3
100008d8:	f000 f89e 	bl	10000a18 <hardware_alarm_set_callback>
100008dc:	2018      	movs	r0, #24
100008de:	f003 fa0d 	bl	10003cfc <__wrap_malloc>
100008e2:	0005      	movs	r5, r0
100008e4:	f7ff fdca 	bl	1000047c <next_striped_spin_lock_num>
100008e8:	4b0f      	ldr	r3, [pc, #60]	; (10000928 <alarm_pool_init_default+0x6c>)
100008ea:	002a      	movs	r2, r5
100008ec:	469c      	mov	ip, r3
100008ee:	4460      	add	r0, ip
100008f0:	0080      	lsls	r0, r0, #2
100008f2:	490e      	ldr	r1, [pc, #56]	; (1000092c <alarm_pool_init_default+0x70>)
100008f4:	6068      	str	r0, [r5, #4]
100008f6:	2010      	movs	r0, #16
100008f8:	f000 f99e 	bl	10000c38 <ph_create>
100008fc:	2110      	movs	r1, #16
100008fe:	6028      	str	r0, [r5, #0]
10000900:	2010      	movs	r0, #16
10000902:	f003 f9ff 	bl	10003d04 <__wrap_calloc>
10000906:	2101      	movs	r1, #1
10000908:	60a8      	str	r0, [r5, #8]
1000090a:	2010      	movs	r0, #16
1000090c:	f003 f9fa 	bl	10003d04 <__wrap_calloc>
10000910:	2303      	movs	r3, #3
10000912:	752b      	strb	r3, [r5, #20]
10000914:	4b06      	ldr	r3, [pc, #24]	; (10000930 <alarm_pool_init_default+0x74>)
10000916:	60e8      	str	r0, [r5, #12]
10000918:	60dd      	str	r5, [r3, #12]
1000091a:	6025      	str	r5, [r4, #0]
1000091c:	e7d3      	b.n	100008c6 <alarm_pool_init_default+0xa>
1000091e:	46c0      	nop			; (mov r8, r8)
10000920:	20000b54 	.word	0x20000b54
10000924:	100006dd 	.word	0x100006dd
10000928:	34000040 	.word	0x34000040
1000092c:	1000057d 	.word	0x1000057d
10000930:	20000b68 	.word	0x20000b68

10000934 <hardware_alarm_irq_handler>:
10000934:	b5f0      	push	{r4, r5, r6, r7, lr}
10000936:	46d6      	mov	lr, sl
10000938:	464f      	mov	r7, r9
1000093a:	4646      	mov	r6, r8
1000093c:	b5c0      	push	{r6, r7, lr}
1000093e:	f3ef 8305 	mrs	r3, IPSR
10000942:	223f      	movs	r2, #63	; 0x3f
10000944:	4013      	ands	r3, r2
10000946:	0018      	movs	r0, r3
10000948:	3810      	subs	r0, #16
1000094a:	f3ef 8c10 	mrs	ip, PRIMASK
1000094e:	b672      	cpsid	i
10000950:	4d20      	ldr	r5, [pc, #128]	; (100009d4 <hardware_alarm_irq_handler+0xa0>)
10000952:	682a      	ldr	r2, [r5, #0]
10000954:	2a00      	cmp	r2, #0
10000956:	d0fc      	beq.n	10000952 <hardware_alarm_irq_handler+0x1e>
10000958:	f3bf 8f5f 	dmb	sy
1000095c:	2201      	movs	r2, #1
1000095e:	0011      	movs	r1, r2
10000960:	4081      	lsls	r1, r0
10000962:	4c1d      	ldr	r4, [pc, #116]	; (100009d8 <hardware_alarm_irq_handler+0xa4>)
10000964:	4688      	mov	r8, r1
10000966:	6361      	str	r1, [r4, #52]	; 0x34
10000968:	491c      	ldr	r1, [pc, #112]	; (100009dc <hardware_alarm_irq_handler+0xa8>)
1000096a:	0017      	movs	r7, r2
1000096c:	780e      	ldrb	r6, [r1, #0]
1000096e:	468a      	mov	sl, r1
10000970:	0031      	movs	r1, r6
10000972:	40c1      	lsrs	r1, r0
10000974:	400f      	ands	r7, r1
10000976:	420a      	tst	r2, r1
10000978:	d015      	beq.n	100009a6 <hardware_alarm_irq_handler+0x72>
1000097a:	4919      	ldr	r1, [pc, #100]	; (100009e0 <hardware_alarm_irq_handler+0xac>)
1000097c:	0082      	lsls	r2, r0, #2
1000097e:	6a64      	ldr	r4, [r4, #36]	; 0x24
10000980:	5851      	ldr	r1, [r2, r1]
10000982:	428c      	cmp	r4, r1
10000984:	d319      	bcc.n	100009ba <hardware_alarm_irq_handler+0x86>
10000986:	4b17      	ldr	r3, [pc, #92]	; (100009e4 <hardware_alarm_irq_handler+0xb0>)
10000988:	58d2      	ldr	r2, [r2, r3]
1000098a:	4643      	mov	r3, r8
1000098c:	439e      	bics	r6, r3
1000098e:	4653      	mov	r3, sl
10000990:	701e      	strb	r6, [r3, #0]
10000992:	f3bf 8f5f 	dmb	sy
10000996:	2300      	movs	r3, #0
10000998:	602b      	str	r3, [r5, #0]
1000099a:	f38c 8810 	msr	PRIMASK, ip
1000099e:	2a00      	cmp	r2, #0
100009a0:	d006      	beq.n	100009b0 <hardware_alarm_irq_handler+0x7c>
100009a2:	4790      	blx	r2
100009a4:	e004      	b.n	100009b0 <hardware_alarm_irq_handler+0x7c>
100009a6:	f3bf 8f5f 	dmb	sy
100009aa:	602f      	str	r7, [r5, #0]
100009ac:	f38c 8810 	msr	PRIMASK, ip
100009b0:	bc1c      	pop	{r2, r3, r4}
100009b2:	4690      	mov	r8, r2
100009b4:	4699      	mov	r9, r3
100009b6:	46a2      	mov	sl, r4
100009b8:	bdf0      	pop	{r4, r5, r6, r7, pc}
100009ba:	4a0b      	ldr	r2, [pc, #44]	; (100009e8 <hardware_alarm_irq_handler+0xb4>)
100009bc:	009b      	lsls	r3, r3, #2
100009be:	4690      	mov	r8, r2
100009c0:	4443      	add	r3, r8
100009c2:	681a      	ldr	r2, [r3, #0]
100009c4:	601a      	str	r2, [r3, #0]
100009c6:	f3bf 8f5f 	dmb	sy
100009ca:	2300      	movs	r3, #0
100009cc:	602b      	str	r3, [r5, #0]
100009ce:	f38c 8810 	msr	PRIMASK, ip
100009d2:	e7ed      	b.n	100009b0 <hardware_alarm_irq_handler+0x7c>
100009d4:	d0000128 	.word	0xd0000128
100009d8:	40054000 	.word	0x40054000
100009dc:	20000b8a 	.word	0x20000b8a
100009e0:	20000b78 	.word	0x20000b78
100009e4:	20000b1c 	.word	0x20000b1c
100009e8:	40053fd0 	.word	0x40053fd0

100009ec <hardware_alarm_claim>:
100009ec:	b510      	push	{r4, lr}
100009ee:	0001      	movs	r1, r0
100009f0:	4a02      	ldr	r2, [pc, #8]	; (100009fc <hardware_alarm_claim+0x10>)
100009f2:	4803      	ldr	r0, [pc, #12]	; (10000a00 <hardware_alarm_claim+0x14>)
100009f4:	f7ff fd04 	bl	10000400 <hw_claim_or_assert>
100009f8:	bd10      	pop	{r4, pc}
100009fa:	46c0      	nop			; (mov r8, r8)
100009fc:	10004b70 	.word	0x10004b70
10000a00:	20000b88 	.word	0x20000b88

10000a04 <time_us_64>:
10000a04:	4b03      	ldr	r3, [pc, #12]	; (10000a14 <time_us_64+0x10>)
10000a06:	6a59      	ldr	r1, [r3, #36]	; 0x24
10000a08:	000a      	movs	r2, r1
10000a0a:	6a98      	ldr	r0, [r3, #40]	; 0x28
10000a0c:	6a59      	ldr	r1, [r3, #36]	; 0x24
10000a0e:	428a      	cmp	r2, r1
10000a10:	d1fa      	bne.n	10000a08 <time_us_64+0x4>
10000a12:	4770      	bx	lr
10000a14:	40054000 	.word	0x40054000

10000a18 <hardware_alarm_set_callback>:
10000a18:	b570      	push	{r4, r5, r6, lr}
10000a1a:	0004      	movs	r4, r0
10000a1c:	000d      	movs	r5, r1
10000a1e:	f3ef 8610 	mrs	r6, PRIMASK
10000a22:	b672      	cpsid	i
10000a24:	4a1a      	ldr	r2, [pc, #104]	; (10000a90 <hardware_alarm_set_callback+0x78>)
10000a26:	6813      	ldr	r3, [r2, #0]
10000a28:	2b00      	cmp	r3, #0
10000a2a:	d0fc      	beq.n	10000a26 <hardware_alarm_set_callback+0xe>
10000a2c:	f3bf 8f5f 	dmb	sy
10000a30:	2d00      	cmp	r5, #0
10000a32:	d01b      	beq.n	10000a6c <hardware_alarm_set_callback+0x54>
10000a34:	0020      	movs	r0, r4
10000a36:	f000 fd4f 	bl	100014d8 <irq_get_vtable_handler>
10000a3a:	4916      	ldr	r1, [pc, #88]	; (10000a94 <hardware_alarm_set_callback+0x7c>)
10000a3c:	4281      	cmp	r1, r0
10000a3e:	d00a      	beq.n	10000a56 <hardware_alarm_set_callback+0x3e>
10000a40:	0020      	movs	r0, r4
10000a42:	f000 fd51 	bl	100014e8 <irq_set_exclusive_handler>
10000a46:	2101      	movs	r1, #1
10000a48:	0020      	movs	r0, r4
10000a4a:	f000 fd33 	bl	100014b4 <irq_set_enabled>
10000a4e:	2301      	movs	r3, #1
10000a50:	40a3      	lsls	r3, r4
10000a52:	4a11      	ldr	r2, [pc, #68]	; (10000a98 <hardware_alarm_set_callback+0x80>)
10000a54:	6013      	str	r3, [r2, #0]
10000a56:	4b11      	ldr	r3, [pc, #68]	; (10000a9c <hardware_alarm_set_callback+0x84>)
10000a58:	00a4      	lsls	r4, r4, #2
10000a5a:	50e5      	str	r5, [r4, r3]
10000a5c:	f3bf 8f5f 	dmb	sy
10000a60:	2200      	movs	r2, #0
10000a62:	4b0b      	ldr	r3, [pc, #44]	; (10000a90 <hardware_alarm_set_callback+0x78>)
10000a64:	601a      	str	r2, [r3, #0]
10000a66:	f386 8810 	msr	PRIMASK, r6
10000a6a:	bd70      	pop	{r4, r5, r6, pc}
10000a6c:	4b0b      	ldr	r3, [pc, #44]	; (10000a9c <hardware_alarm_set_callback+0x84>)
10000a6e:	00a2      	lsls	r2, r4, #2
10000a70:	50d5      	str	r5, [r2, r3]
10000a72:	2201      	movs	r2, #1
10000a74:	40a2      	lsls	r2, r4
10000a76:	490a      	ldr	r1, [pc, #40]	; (10000aa0 <hardware_alarm_set_callback+0x88>)
10000a78:	0020      	movs	r0, r4
10000a7a:	780b      	ldrb	r3, [r1, #0]
10000a7c:	4393      	bics	r3, r2
10000a7e:	700b      	strb	r3, [r1, #0]
10000a80:	4904      	ldr	r1, [pc, #16]	; (10000a94 <hardware_alarm_set_callback+0x7c>)
10000a82:	f000 fd5b 	bl	1000153c <irq_remove_handler>
10000a86:	2100      	movs	r1, #0
10000a88:	0020      	movs	r0, r4
10000a8a:	f000 fd13 	bl	100014b4 <irq_set_enabled>
10000a8e:	e7e5      	b.n	10000a5c <hardware_alarm_set_callback+0x44>
10000a90:	d0000128 	.word	0xd0000128
10000a94:	10000935 	.word	0x10000935
10000a98:	40056038 	.word	0x40056038
10000a9c:	20000b1c 	.word	0x20000b1c
10000aa0:	20000b8a 	.word	0x20000b8a

10000aa4 <hardware_alarm_set_target>:
10000aa4:	b5f0      	push	{r4, r5, r6, r7, lr}
10000aa6:	46ce      	mov	lr, r9
10000aa8:	4647      	mov	r7, r8
10000aaa:	b580      	push	{r7, lr}
10000aac:	4c2a      	ldr	r4, [pc, #168]	; (10000b58 <hardware_alarm_set_target+0xb4>)
10000aae:	6a61      	ldr	r1, [r4, #36]	; 0x24
10000ab0:	000d      	movs	r5, r1
10000ab2:	6aa6      	ldr	r6, [r4, #40]	; 0x28
10000ab4:	6a61      	ldr	r1, [r4, #36]	; 0x24
10000ab6:	42a9      	cmp	r1, r5
10000ab8:	d1fa      	bne.n	10000ab0 <hardware_alarm_set_target+0xc>
10000aba:	428b      	cmp	r3, r1
10000abc:	d807      	bhi.n	10000ace <hardware_alarm_set_target+0x2a>
10000abe:	d004      	beq.n	10000aca <hardware_alarm_set_target+0x26>
10000ac0:	2001      	movs	r0, #1
10000ac2:	bc0c      	pop	{r2, r3}
10000ac4:	4690      	mov	r8, r2
10000ac6:	4699      	mov	r9, r3
10000ac8:	bdf0      	pop	{r4, r5, r6, r7, pc}
10000aca:	42b2      	cmp	r2, r6
10000acc:	d9f8      	bls.n	10000ac0 <hardware_alarm_set_target+0x1c>
10000ace:	f3ef 8810 	mrs	r8, PRIMASK
10000ad2:	b672      	cpsid	i
10000ad4:	4c21      	ldr	r4, [pc, #132]	; (10000b5c <hardware_alarm_set_target+0xb8>)
10000ad6:	6821      	ldr	r1, [r4, #0]
10000ad8:	2900      	cmp	r1, #0
10000ada:	d0fc      	beq.n	10000ad6 <hardware_alarm_set_target+0x32>
10000adc:	f3bf 8f5f 	dmb	sy
10000ae0:	2501      	movs	r5, #1
10000ae2:	4085      	lsls	r5, r0
10000ae4:	4c1c      	ldr	r4, [pc, #112]	; (10000b58 <hardware_alarm_set_target+0xb4>)
10000ae6:	4e1e      	ldr	r6, [pc, #120]	; (10000b60 <hardware_alarm_set_target+0xbc>)
10000ae8:	6365      	str	r5, [r4, #52]	; 0x34
10000aea:	b2e9      	uxtb	r1, r5
10000aec:	468c      	mov	ip, r1
10000aee:	7831      	ldrb	r1, [r6, #0]
10000af0:	4689      	mov	r9, r1
10000af2:	4661      	mov	r1, ip
10000af4:	464f      	mov	r7, r9
10000af6:	4339      	orrs	r1, r7
10000af8:	7031      	strb	r1, [r6, #0]
10000afa:	1d01      	adds	r1, r0, #4
10000afc:	0089      	lsls	r1, r1, #2
10000afe:	510a      	str	r2, [r1, r4]
10000b00:	4918      	ldr	r1, [pc, #96]	; (10000b64 <hardware_alarm_set_target+0xc0>)
10000b02:	0080      	lsls	r0, r0, #2
10000b04:	5043      	str	r3, [r0, r1]
10000b06:	6a21      	ldr	r1, [r4, #32]
10000b08:	2000      	movs	r0, #0
10000b0a:	4229      	tst	r1, r5
10000b0c:	d00c      	beq.n	10000b28 <hardware_alarm_set_target+0x84>
10000b0e:	0020      	movs	r0, r4
10000b10:	6a61      	ldr	r1, [r4, #36]	; 0x24
10000b12:	000c      	movs	r4, r1
10000b14:	6a87      	ldr	r7, [r0, #40]	; 0x28
10000b16:	6a41      	ldr	r1, [r0, #36]	; 0x24
10000b18:	42a1      	cmp	r1, r4
10000b1a:	d1fa      	bne.n	10000b12 <hardware_alarm_set_target+0x6e>
10000b1c:	428b      	cmp	r3, r1
10000b1e:	d802      	bhi.n	10000b26 <hardware_alarm_set_target+0x82>
10000b20:	d10a      	bne.n	10000b38 <hardware_alarm_set_target+0x94>
10000b22:	42ba      	cmp	r2, r7
10000b24:	d908      	bls.n	10000b38 <hardware_alarm_set_target+0x94>
10000b26:	2000      	movs	r0, #0
10000b28:	f3bf 8f5f 	dmb	sy
10000b2c:	2200      	movs	r2, #0
10000b2e:	4b0b      	ldr	r3, [pc, #44]	; (10000b5c <hardware_alarm_set_target+0xb8>)
10000b30:	601a      	str	r2, [r3, #0]
10000b32:	f388 8810 	msr	PRIMASK, r8
10000b36:	e7c4      	b.n	10000ac2 <hardware_alarm_set_target+0x1e>
10000b38:	4b07      	ldr	r3, [pc, #28]	; (10000b58 <hardware_alarm_set_target+0xb4>)
10000b3a:	464f      	mov	r7, r9
10000b3c:	621d      	str	r5, [r3, #32]
10000b3e:	635d      	str	r5, [r3, #52]	; 0x34
10000b40:	4663      	mov	r3, ip
10000b42:	439f      	bics	r7, r3
10000b44:	2001      	movs	r0, #1
10000b46:	7037      	strb	r7, [r6, #0]
10000b48:	f3bf 8f5f 	dmb	sy
10000b4c:	2200      	movs	r2, #0
10000b4e:	4b03      	ldr	r3, [pc, #12]	; (10000b5c <hardware_alarm_set_target+0xb8>)
10000b50:	601a      	str	r2, [r3, #0]
10000b52:	f388 8810 	msr	PRIMASK, r8
10000b56:	e7b4      	b.n	10000ac2 <hardware_alarm_set_target+0x1e>
10000b58:	40054000 	.word	0x40054000
10000b5c:	d0000128 	.word	0xd0000128
10000b60:	20000b8a 	.word	0x20000b8a
10000b64:	20000b78 	.word	0x20000b78

10000b68 <hardware_alarm_cancel>:
10000b68:	b510      	push	{r4, lr}
10000b6a:	f3ef 8410 	mrs	r4, PRIMASK
10000b6e:	b672      	cpsid	i
10000b70:	490a      	ldr	r1, [pc, #40]	; (10000b9c <hardware_alarm_cancel+0x34>)
10000b72:	680b      	ldr	r3, [r1, #0]
10000b74:	2b00      	cmp	r3, #0
10000b76:	d0fc      	beq.n	10000b72 <hardware_alarm_cancel+0xa>
10000b78:	f3bf 8f5f 	dmb	sy
10000b7c:	2301      	movs	r3, #1
10000b7e:	4083      	lsls	r3, r0
10000b80:	4a07      	ldr	r2, [pc, #28]	; (10000ba0 <hardware_alarm_cancel+0x38>)
10000b82:	4808      	ldr	r0, [pc, #32]	; (10000ba4 <hardware_alarm_cancel+0x3c>)
10000b84:	6213      	str	r3, [r2, #32]
10000b86:	7802      	ldrb	r2, [r0, #0]
10000b88:	439a      	bics	r2, r3
10000b8a:	7002      	strb	r2, [r0, #0]
10000b8c:	f3bf 8f5f 	dmb	sy
10000b90:	2300      	movs	r3, #0
10000b92:	600b      	str	r3, [r1, #0]
10000b94:	f384 8810 	msr	PRIMASK, r4
10000b98:	bd10      	pop	{r4, pc}
10000b9a:	46c0      	nop			; (mov r8, r8)
10000b9c:	d0000128 	.word	0xd0000128
10000ba0:	40054000 	.word	0x40054000
10000ba4:	20000b8a 	.word	0x20000b8a

10000ba8 <lock_init>:
10000ba8:	4b02      	ldr	r3, [pc, #8]	; (10000bb4 <lock_init+0xc>)
10000baa:	469c      	mov	ip, r3
10000bac:	4461      	add	r1, ip
10000bae:	0089      	lsls	r1, r1, #2
10000bb0:	6001      	str	r1, [r0, #0]
10000bb2:	4770      	bx	lr
10000bb4:	34000040 	.word	0x34000040

10000bb8 <mutex_init>:
10000bb8:	b510      	push	{r4, lr}
10000bba:	0004      	movs	r4, r0
10000bbc:	f7ff fc5e 	bl	1000047c <next_striped_spin_lock_num>
10000bc0:	0001      	movs	r1, r0
10000bc2:	0020      	movs	r0, r4
10000bc4:	f7ff fff0 	bl	10000ba8 <lock_init>
10000bc8:	f3bf 8f5f 	dmb	sy
10000bcc:	bd10      	pop	{r4, pc}
10000bce:	46c0      	nop			; (mov r8, r8)

10000bd0 <ph_merge_nodes>:
10000bd0:	b570      	push	{r4, r5, r6, lr}
10000bd2:	0005      	movs	r5, r0
10000bd4:	000e      	movs	r6, r1
10000bd6:	0014      	movs	r4, r2
10000bd8:	2900      	cmp	r1, #0
10000bda:	d024      	beq.n	10000c26 <ph_merge_nodes+0x56>
10000bdc:	2a00      	cmp	r2, #0
10000bde:	d024      	beq.n	10000c2a <ph_merge_nodes+0x5a>
10000be0:	6880      	ldr	r0, [r0, #8]
10000be2:	686b      	ldr	r3, [r5, #4]
10000be4:	4798      	blx	r3
10000be6:	6829      	ldr	r1, [r5, #0]
10000be8:	2800      	cmp	r0, #0
10000bea:	d00e      	beq.n	10000c0a <ph_merge_nodes+0x3a>
10000bec:	0063      	lsls	r3, r4, #1
10000bee:	191b      	adds	r3, r3, r4
10000bf0:	0072      	lsls	r2, r6, #1
10000bf2:	3b03      	subs	r3, #3
10000bf4:	1992      	adds	r2, r2, r6
10000bf6:	18cb      	adds	r3, r1, r3
10000bf8:	3a03      	subs	r2, #3
10000bfa:	709e      	strb	r6, [r3, #2]
10000bfc:	1888      	adds	r0, r1, r2
10000bfe:	5c8a      	ldrb	r2, [r1, r2]
10000c00:	2a00      	cmp	r2, #0
10000c02:	d114      	bne.n	10000c2e <ph_merge_nodes+0x5e>
10000c04:	7004      	strb	r4, [r0, #0]
10000c06:	0030      	movs	r0, r6
10000c08:	e00e      	b.n	10000c28 <ph_merge_nodes+0x58>
10000c0a:	0073      	lsls	r3, r6, #1
10000c0c:	199b      	adds	r3, r3, r6
10000c0e:	0062      	lsls	r2, r4, #1
10000c10:	3b03      	subs	r3, #3
10000c12:	1912      	adds	r2, r2, r4
10000c14:	18cb      	adds	r3, r1, r3
10000c16:	3a03      	subs	r2, #3
10000c18:	709c      	strb	r4, [r3, #2]
10000c1a:	1888      	adds	r0, r1, r2
10000c1c:	5c8a      	ldrb	r2, [r1, r2]
10000c1e:	2a00      	cmp	r2, #0
10000c20:	d000      	beq.n	10000c24 <ph_merge_nodes+0x54>
10000c22:	705a      	strb	r2, [r3, #1]
10000c24:	7006      	strb	r6, [r0, #0]
10000c26:	0020      	movs	r0, r4
10000c28:	bd70      	pop	{r4, r5, r6, pc}
10000c2a:	0008      	movs	r0, r1
10000c2c:	e7fc      	b.n	10000c28 <ph_merge_nodes+0x58>
10000c2e:	705a      	strb	r2, [r3, #1]
10000c30:	7004      	strb	r4, [r0, #0]
10000c32:	0030      	movs	r0, r6
10000c34:	e7f8      	b.n	10000c28 <ph_merge_nodes+0x58>
10000c36:	46c0      	nop			; (mov r8, r8)

10000c38 <ph_create>:
10000c38:	b5f0      	push	{r4, r5, r6, r7, lr}
10000c3a:	46c6      	mov	lr, r8
10000c3c:	0005      	movs	r5, r0
10000c3e:	000f      	movs	r7, r1
10000c40:	b500      	push	{lr}
10000c42:	2110      	movs	r1, #16
10000c44:	2001      	movs	r0, #1
10000c46:	0016      	movs	r6, r2
10000c48:	f003 f85c 	bl	10003d04 <__wrap_calloc>
10000c4c:	b2eb      	uxtb	r3, r5
10000c4e:	0004      	movs	r4, r0
10000c50:	7303      	strb	r3, [r0, #12]
10000c52:	2103      	movs	r1, #3
10000c54:	6047      	str	r7, [r0, #4]
10000c56:	0028      	movs	r0, r5
10000c58:	4698      	mov	r8, r3
10000c5a:	f003 f853 	bl	10003d04 <__wrap_calloc>
10000c5e:	2300      	movs	r3, #0
10000c60:	7363      	strb	r3, [r4, #13]
10000c62:	3301      	adds	r3, #1
10000c64:	73a3      	strb	r3, [r4, #14]
10000c66:	4643      	mov	r3, r8
10000c68:	21ff      	movs	r1, #255	; 0xff
10000c6a:	73e3      	strb	r3, [r4, #15]
10000c6c:	23fe      	movs	r3, #254	; 0xfe
10000c6e:	6020      	str	r0, [r4, #0]
10000c70:	60a6      	str	r6, [r4, #8]
10000c72:	4029      	ands	r1, r5
10000c74:	422b      	tst	r3, r5
10000c76:	d006      	beq.n	10000c86 <ph_create+0x4e>
10000c78:	1c42      	adds	r2, r0, #1
10000c7a:	3bfd      	subs	r3, #253	; 0xfd
10000c7c:	3301      	adds	r3, #1
10000c7e:	7013      	strb	r3, [r2, #0]
10000c80:	3203      	adds	r2, #3
10000c82:	428b      	cmp	r3, r1
10000c84:	d3fa      	bcc.n	10000c7c <ph_create+0x44>
10000c86:	004b      	lsls	r3, r1, #1
10000c88:	1859      	adds	r1, r3, r1
10000c8a:	2300      	movs	r3, #0
10000c8c:	1840      	adds	r0, r0, r1
10000c8e:	3803      	subs	r0, #3
10000c90:	7043      	strb	r3, [r0, #1]
10000c92:	0020      	movs	r0, r4
10000c94:	bc04      	pop	{r2}
10000c96:	4690      	mov	r8, r2
10000c98:	bdf0      	pop	{r4, r5, r6, r7, pc}
10000c9a:	46c0      	nop			; (mov r8, r8)

10000c9c <ph_merge_two_pass>:
10000c9c:	b5f8      	push	{r3, r4, r5, r6, r7, lr}
10000c9e:	46ce      	mov	lr, r9
10000ca0:	4647      	mov	r7, r8
10000ca2:	0006      	movs	r6, r0
10000ca4:	000c      	movs	r4, r1
10000ca6:	b580      	push	{r7, lr}
10000ca8:	2900      	cmp	r1, #0
10000caa:	d007      	beq.n	10000cbc <ph_merge_two_pass+0x20>
10000cac:	004d      	lsls	r5, r1, #1
10000cae:	6803      	ldr	r3, [r0, #0]
10000cb0:	186d      	adds	r5, r5, r1
10000cb2:	3d03      	subs	r5, #3
10000cb4:	195a      	adds	r2, r3, r5
10000cb6:	7857      	ldrb	r7, [r2, #1]
10000cb8:	2f00      	cmp	r7, #0
10000cba:	d104      	bne.n	10000cc6 <ph_merge_two_pass+0x2a>
10000cbc:	0020      	movs	r0, r4
10000cbe:	bc0c      	pop	{r2, r3}
10000cc0:	4690      	mov	r8, r2
10000cc2:	4699      	mov	r9, r3
10000cc4:	bdf8      	pop	{r3, r4, r5, r6, r7, pc}
10000cc6:	0079      	lsls	r1, r7, #1
10000cc8:	19c9      	adds	r1, r1, r7
10000cca:	3903      	subs	r1, #3
10000ccc:	4688      	mov	r8, r1
10000cce:	4443      	add	r3, r8
10000cd0:	7859      	ldrb	r1, [r3, #1]
10000cd2:	4689      	mov	r9, r1
10000cd4:	2100      	movs	r1, #0
10000cd6:	7059      	strb	r1, [r3, #1]
10000cd8:	7051      	strb	r1, [r2, #1]
10000cda:	6873      	ldr	r3, [r6, #4]
10000cdc:	003a      	movs	r2, r7
10000cde:	0021      	movs	r1, r4
10000ce0:	6880      	ldr	r0, [r0, #8]
10000ce2:	4798      	blx	r3
10000ce4:	6833      	ldr	r3, [r6, #0]
10000ce6:	2800      	cmp	r0, #0
10000ce8:	d014      	beq.n	10000d14 <ph_merge_two_pass+0x78>
10000cea:	4642      	mov	r2, r8
10000cec:	189a      	adds	r2, r3, r2
10000cee:	7094      	strb	r4, [r2, #2]
10000cf0:	1959      	adds	r1, r3, r5
10000cf2:	5d5b      	ldrb	r3, [r3, r5]
10000cf4:	2b00      	cmp	r3, #0
10000cf6:	d000      	beq.n	10000cfa <ph_merge_two_pass+0x5e>
10000cf8:	7053      	strb	r3, [r2, #1]
10000cfa:	700f      	strb	r7, [r1, #0]
10000cfc:	0027      	movs	r7, r4
10000cfe:	4649      	mov	r1, r9
10000d00:	0030      	movs	r0, r6
10000d02:	f7ff ffcb 	bl	10000c9c <ph_merge_two_pass>
10000d06:	0039      	movs	r1, r7
10000d08:	0002      	movs	r2, r0
10000d0a:	0030      	movs	r0, r6
10000d0c:	f7ff ff60 	bl	10000bd0 <ph_merge_nodes>
10000d10:	0004      	movs	r4, r0
10000d12:	e7d3      	b.n	10000cbc <ph_merge_two_pass+0x20>
10000d14:	4642      	mov	r2, r8
10000d16:	4641      	mov	r1, r8
10000d18:	195d      	adds	r5, r3, r5
10000d1a:	70af      	strb	r7, [r5, #2]
10000d1c:	189a      	adds	r2, r3, r2
10000d1e:	5c5b      	ldrb	r3, [r3, r1]
10000d20:	2b00      	cmp	r3, #0
10000d22:	d000      	beq.n	10000d26 <ph_merge_two_pass+0x8a>
10000d24:	706b      	strb	r3, [r5, #1]
10000d26:	7014      	strb	r4, [r2, #0]
10000d28:	e7e9      	b.n	10000cfe <ph_merge_two_pass+0x62>
10000d2a:	46c0      	nop			; (mov r8, r8)

10000d2c <ph_remove_any_head>:
10000d2c:	b5f0      	push	{r4, r5, r6, r7, lr}
10000d2e:	4657      	mov	r7, sl
10000d30:	4645      	mov	r5, r8
10000d32:	46de      	mov	lr, fp
10000d34:	464e      	mov	r6, r9
10000d36:	b5e0      	push	{r5, r6, r7, lr}
10000d38:	000d      	movs	r5, r1
10000d3a:	006b      	lsls	r3, r5, #1
10000d3c:	6801      	ldr	r1, [r0, #0]
10000d3e:	195b      	adds	r3, r3, r5
10000d40:	1edf      	subs	r7, r3, #3
10000d42:	0004      	movs	r4, r0
10000d44:	5dc8      	ldrb	r0, [r1, r7]
10000d46:	b083      	sub	sp, #12
10000d48:	9201      	str	r2, [sp, #4]
10000d4a:	19ca      	adds	r2, r1, r7
10000d4c:	2800      	cmp	r0, #0
10000d4e:	d04c      	beq.n	10000dea <ph_remove_any_head+0xbe>
10000d50:	0043      	lsls	r3, r0, #1
10000d52:	181b      	adds	r3, r3, r0
10000d54:	3b03      	subs	r3, #3
10000d56:	18cb      	adds	r3, r1, r3
10000d58:	785e      	ldrb	r6, [r3, #1]
10000d5a:	46b4      	mov	ip, r6
10000d5c:	2e00      	cmp	r6, #0
10000d5e:	d116      	bne.n	10000d8e <ph_remove_any_head+0x62>
10000d60:	9e01      	ldr	r6, [sp, #4]
10000d62:	2e00      	cmp	r6, #0
10000d64:	d13e      	bne.n	10000de4 <ph_remove_any_head+0xb8>
10000d66:	7be6      	ldrb	r6, [r4, #15]
10000d68:	2e00      	cmp	r6, #0
10000d6a:	d004      	beq.n	10000d76 <ph_remove_any_head+0x4a>
10000d6c:	0073      	lsls	r3, r6, #1
10000d6e:	199b      	adds	r3, r3, r6
10000d70:	18cb      	adds	r3, r1, r3
10000d72:	3b03      	subs	r3, #3
10000d74:	705d      	strb	r5, [r3, #1]
10000d76:	73e5      	strb	r5, [r4, #15]
10000d78:	2800      	cmp	r0, #0
10000d7a:	d12f      	bne.n	10000ddc <ph_remove_any_head+0xb0>
10000d7c:	2300      	movs	r3, #0
10000d7e:	7053      	strb	r3, [r2, #1]
10000d80:	b003      	add	sp, #12
10000d82:	bc3c      	pop	{r2, r3, r4, r5}
10000d84:	4690      	mov	r8, r2
10000d86:	4699      	mov	r9, r3
10000d88:	46a2      	mov	sl, r4
10000d8a:	46ab      	mov	fp, r5
10000d8c:	bdf0      	pop	{r4, r5, r6, r7, pc}
10000d8e:	0072      	lsls	r2, r6, #1
10000d90:	4462      	add	r2, ip
10000d92:	3a03      	subs	r2, #3
10000d94:	1889      	adds	r1, r1, r2
10000d96:	784a      	ldrb	r2, [r1, #1]
10000d98:	4690      	mov	r8, r2
10000d9a:	2200      	movs	r2, #0
10000d9c:	704a      	strb	r2, [r1, #1]
10000d9e:	4691      	mov	r9, r2
10000da0:	705a      	strb	r2, [r3, #1]
10000da2:	0001      	movs	r1, r0
10000da4:	0032      	movs	r2, r6
10000da6:	0020      	movs	r0, r4
10000da8:	f7ff ff12 	bl	10000bd0 <ph_merge_nodes>
10000dac:	4643      	mov	r3, r8
10000dae:	4682      	mov	sl, r0
10000db0:	2b00      	cmp	r3, #0
10000db2:	d007      	beq.n	10000dc4 <ph_remove_any_head+0x98>
10000db4:	005b      	lsls	r3, r3, #1
10000db6:	6821      	ldr	r1, [r4, #0]
10000db8:	4443      	add	r3, r8
10000dba:	3b03      	subs	r3, #3
10000dbc:	18cb      	adds	r3, r1, r3
10000dbe:	785a      	ldrb	r2, [r3, #1]
10000dc0:	2a00      	cmp	r2, #0
10000dc2:	d116      	bne.n	10000df2 <ph_remove_any_head+0xc6>
10000dc4:	4642      	mov	r2, r8
10000dc6:	4651      	mov	r1, sl
10000dc8:	0020      	movs	r0, r4
10000dca:	f7ff ff01 	bl	10000bd0 <ph_merge_nodes>
10000dce:	6821      	ldr	r1, [r4, #0]
10000dd0:	9b01      	ldr	r3, [sp, #4]
10000dd2:	19ca      	adds	r2, r1, r7
10000dd4:	2b00      	cmp	r3, #0
10000dd6:	d0c6      	beq.n	10000d66 <ph_remove_any_head+0x3a>
10000dd8:	2800      	cmp	r0, #0
10000dda:	d0cf      	beq.n	10000d7c <ph_remove_any_head+0x50>
10000ddc:	0043      	lsls	r3, r0, #1
10000dde:	181b      	adds	r3, r3, r0
10000de0:	3b03      	subs	r3, #3
10000de2:	18cb      	adds	r3, r1, r3
10000de4:	2100      	movs	r1, #0
10000de6:	7099      	strb	r1, [r3, #2]
10000de8:	e7c8      	b.n	10000d7c <ph_remove_any_head+0x50>
10000dea:	9b01      	ldr	r3, [sp, #4]
10000dec:	2b00      	cmp	r3, #0
10000dee:	d1c5      	bne.n	10000d7c <ph_remove_any_head+0x50>
10000df0:	e7b9      	b.n	10000d66 <ph_remove_any_head+0x3a>
10000df2:	0050      	lsls	r0, r2, #1
10000df4:	1880      	adds	r0, r0, r2
10000df6:	3803      	subs	r0, #3
10000df8:	1809      	adds	r1, r1, r0
10000dfa:	7848      	ldrb	r0, [r1, #1]
10000dfc:	4683      	mov	fp, r0
10000dfe:	4648      	mov	r0, r9
10000e00:	7048      	strb	r0, [r1, #1]
10000e02:	7058      	strb	r0, [r3, #1]
10000e04:	4641      	mov	r1, r8
10000e06:	0020      	movs	r0, r4
10000e08:	f7ff fee2 	bl	10000bd0 <ph_merge_nodes>
10000e0c:	4659      	mov	r1, fp
10000e0e:	4680      	mov	r8, r0
10000e10:	0020      	movs	r0, r4
10000e12:	f7ff ff43 	bl	10000c9c <ph_merge_two_pass>
10000e16:	4641      	mov	r1, r8
10000e18:	0002      	movs	r2, r0
10000e1a:	0020      	movs	r0, r4
10000e1c:	f7ff fed8 	bl	10000bd0 <ph_merge_nodes>
10000e20:	4680      	mov	r8, r0
10000e22:	e7cf      	b.n	10000dc4 <ph_remove_any_head+0x98>

10000e24 <ph_remove_head_reserve>:
10000e24:	b5f0      	push	{r4, r5, r6, r7, lr}
10000e26:	464e      	mov	r6, r9
10000e28:	4645      	mov	r5, r8
10000e2a:	46de      	mov	lr, fp
10000e2c:	4657      	mov	r7, sl
10000e2e:	b5e0      	push	{r5, r6, r7, lr}
10000e30:	7b46      	ldrb	r6, [r0, #13]
10000e32:	0004      	movs	r4, r0
10000e34:	0075      	lsls	r5, r6, #1
10000e36:	6800      	ldr	r0, [r0, #0]
10000e38:	19ad      	adds	r5, r5, r6
10000e3a:	3d03      	subs	r5, #3
10000e3c:	b083      	sub	sp, #12
10000e3e:	9101      	str	r1, [sp, #4]
10000e40:	5d41      	ldrb	r1, [r0, r5]
10000e42:	1942      	adds	r2, r0, r5
10000e44:	2900      	cmp	r1, #0
10000e46:	d04e      	beq.n	10000ee6 <ph_remove_head_reserve+0xc2>
10000e48:	004b      	lsls	r3, r1, #1
10000e4a:	185b      	adds	r3, r3, r1
10000e4c:	3b03      	subs	r3, #3
10000e4e:	18c3      	adds	r3, r0, r3
10000e50:	785f      	ldrb	r7, [r3, #1]
10000e52:	46bc      	mov	ip, r7
10000e54:	2f00      	cmp	r7, #0
10000e56:	d118      	bne.n	10000e8a <ph_remove_head_reserve+0x66>
10000e58:	9d01      	ldr	r5, [sp, #4]
10000e5a:	2d00      	cmp	r5, #0
10000e5c:	d140      	bne.n	10000ee0 <ph_remove_head_reserve+0xbc>
10000e5e:	7be5      	ldrb	r5, [r4, #15]
10000e60:	2d00      	cmp	r5, #0
10000e62:	d004      	beq.n	10000e6e <ph_remove_head_reserve+0x4a>
10000e64:	006b      	lsls	r3, r5, #1
10000e66:	195b      	adds	r3, r3, r5
10000e68:	18c3      	adds	r3, r0, r3
10000e6a:	3b03      	subs	r3, #3
10000e6c:	705e      	strb	r6, [r3, #1]
10000e6e:	73e6      	strb	r6, [r4, #15]
10000e70:	2900      	cmp	r1, #0
10000e72:	d131      	bne.n	10000ed8 <ph_remove_head_reserve+0xb4>
10000e74:	2300      	movs	r3, #0
10000e76:	0030      	movs	r0, r6
10000e78:	7053      	strb	r3, [r2, #1]
10000e7a:	7361      	strb	r1, [r4, #13]
10000e7c:	b003      	add	sp, #12
10000e7e:	bc3c      	pop	{r2, r3, r4, r5}
10000e80:	4690      	mov	r8, r2
10000e82:	4699      	mov	r9, r3
10000e84:	46a2      	mov	sl, r4
10000e86:	46ab      	mov	fp, r5
10000e88:	bdf0      	pop	{r4, r5, r6, r7, pc}
10000e8a:	007a      	lsls	r2, r7, #1
10000e8c:	4462      	add	r2, ip
10000e8e:	3a03      	subs	r2, #3
10000e90:	1880      	adds	r0, r0, r2
10000e92:	7842      	ldrb	r2, [r0, #1]
10000e94:	4693      	mov	fp, r2
10000e96:	2200      	movs	r2, #0
10000e98:	7042      	strb	r2, [r0, #1]
10000e9a:	4691      	mov	r9, r2
10000e9c:	705a      	strb	r2, [r3, #1]
10000e9e:	0020      	movs	r0, r4
10000ea0:	003a      	movs	r2, r7
10000ea2:	f7ff fe95 	bl	10000bd0 <ph_merge_nodes>
10000ea6:	465b      	mov	r3, fp
10000ea8:	4680      	mov	r8, r0
10000eaa:	2b00      	cmp	r3, #0
10000eac:	d007      	beq.n	10000ebe <ph_remove_head_reserve+0x9a>
10000eae:	005b      	lsls	r3, r3, #1
10000eb0:	6821      	ldr	r1, [r4, #0]
10000eb2:	445b      	add	r3, fp
10000eb4:	3b03      	subs	r3, #3
10000eb6:	18cb      	adds	r3, r1, r3
10000eb8:	785a      	ldrb	r2, [r3, #1]
10000eba:	2a00      	cmp	r2, #0
10000ebc:	d117      	bne.n	10000eee <ph_remove_head_reserve+0xca>
10000ebe:	465a      	mov	r2, fp
10000ec0:	4641      	mov	r1, r8
10000ec2:	0020      	movs	r0, r4
10000ec4:	f7ff fe84 	bl	10000bd0 <ph_merge_nodes>
10000ec8:	9b01      	ldr	r3, [sp, #4]
10000eca:	0001      	movs	r1, r0
10000ecc:	6820      	ldr	r0, [r4, #0]
10000ece:	1942      	adds	r2, r0, r5
10000ed0:	2b00      	cmp	r3, #0
10000ed2:	d0c4      	beq.n	10000e5e <ph_remove_head_reserve+0x3a>
10000ed4:	2900      	cmp	r1, #0
10000ed6:	d0cd      	beq.n	10000e74 <ph_remove_head_reserve+0x50>
10000ed8:	004b      	lsls	r3, r1, #1
10000eda:	185b      	adds	r3, r3, r1
10000edc:	3b03      	subs	r3, #3
10000ede:	18c3      	adds	r3, r0, r3
10000ee0:	2000      	movs	r0, #0
10000ee2:	7098      	strb	r0, [r3, #2]
10000ee4:	e7c6      	b.n	10000e74 <ph_remove_head_reserve+0x50>
10000ee6:	9b01      	ldr	r3, [sp, #4]
10000ee8:	2b00      	cmp	r3, #0
10000eea:	d1c3      	bne.n	10000e74 <ph_remove_head_reserve+0x50>
10000eec:	e7b7      	b.n	10000e5e <ph_remove_head_reserve+0x3a>
10000eee:	0050      	lsls	r0, r2, #1
10000ef0:	1880      	adds	r0, r0, r2
10000ef2:	3803      	subs	r0, #3
10000ef4:	1809      	adds	r1, r1, r0
10000ef6:	7848      	ldrb	r0, [r1, #1]
10000ef8:	4682      	mov	sl, r0
10000efa:	4648      	mov	r0, r9
10000efc:	7048      	strb	r0, [r1, #1]
10000efe:	7058      	strb	r0, [r3, #1]
10000f00:	4659      	mov	r1, fp
10000f02:	0020      	movs	r0, r4
10000f04:	f7ff fe64 	bl	10000bd0 <ph_merge_nodes>
10000f08:	4653      	mov	r3, sl
10000f0a:	4683      	mov	fp, r0
10000f0c:	2b00      	cmp	r3, #0
10000f0e:	d007      	beq.n	10000f20 <ph_remove_head_reserve+0xfc>
10000f10:	005b      	lsls	r3, r3, #1
10000f12:	6821      	ldr	r1, [r4, #0]
10000f14:	4453      	add	r3, sl
10000f16:	3b03      	subs	r3, #3
10000f18:	18cb      	adds	r3, r1, r3
10000f1a:	785a      	ldrb	r2, [r3, #1]
10000f1c:	2a00      	cmp	r2, #0
10000f1e:	d106      	bne.n	10000f2e <ph_remove_head_reserve+0x10a>
10000f20:	4659      	mov	r1, fp
10000f22:	4652      	mov	r2, sl
10000f24:	0020      	movs	r0, r4
10000f26:	f7ff fe53 	bl	10000bd0 <ph_merge_nodes>
10000f2a:	4683      	mov	fp, r0
10000f2c:	e7c7      	b.n	10000ebe <ph_remove_head_reserve+0x9a>
10000f2e:	0050      	lsls	r0, r2, #1
10000f30:	1880      	adds	r0, r0, r2
10000f32:	3803      	subs	r0, #3
10000f34:	1809      	adds	r1, r1, r0
10000f36:	4648      	mov	r0, r9
10000f38:	784f      	ldrb	r7, [r1, #1]
10000f3a:	7048      	strb	r0, [r1, #1]
10000f3c:	7058      	strb	r0, [r3, #1]
10000f3e:	4651      	mov	r1, sl
10000f40:	0020      	movs	r0, r4
10000f42:	f7ff fe45 	bl	10000bd0 <ph_merge_nodes>
10000f46:	0039      	movs	r1, r7
10000f48:	4681      	mov	r9, r0
10000f4a:	0020      	movs	r0, r4
10000f4c:	f7ff fea6 	bl	10000c9c <ph_merge_two_pass>
10000f50:	4649      	mov	r1, r9
10000f52:	0002      	movs	r2, r0
10000f54:	0020      	movs	r0, r4
10000f56:	f7ff fe3b 	bl	10000bd0 <ph_merge_nodes>
10000f5a:	4682      	mov	sl, r0
10000f5c:	e7e0      	b.n	10000f20 <ph_remove_head_reserve+0xfc>
10000f5e:	46c0      	nop			; (mov r8, r8)

10000f60 <ph_delete>:
10000f60:	b570      	push	{r4, r5, r6, lr}
10000f62:	0004      	movs	r4, r0
10000f64:	2900      	cmp	r1, #0
10000f66:	d02c      	beq.n	10000fc2 <ph_delete+0x62>
10000f68:	7b43      	ldrb	r3, [r0, #13]
10000f6a:	428b      	cmp	r3, r1
10000f6c:	d02e      	beq.n	10000fcc <ph_delete+0x6c>
10000f6e:	6805      	ldr	r5, [r0, #0]
10000f70:	0048      	lsls	r0, r1, #1
10000f72:	1840      	adds	r0, r0, r1
10000f74:	3803      	subs	r0, #3
10000f76:	1828      	adds	r0, r5, r0
10000f78:	7882      	ldrb	r2, [r0, #2]
10000f7a:	2a00      	cmp	r2, #0
10000f7c:	d021      	beq.n	10000fc2 <ph_delete+0x62>
10000f7e:	0053      	lsls	r3, r2, #1
10000f80:	189b      	adds	r3, r3, r2
10000f82:	3b03      	subs	r3, #3
10000f84:	5cea      	ldrb	r2, [r5, r3]
10000f86:	18ee      	adds	r6, r5, r3
10000f88:	428a      	cmp	r2, r1
10000f8a:	d102      	bne.n	10000f92 <ph_delete+0x32>
10000f8c:	e01b      	b.n	10000fc6 <ph_delete+0x66>
10000f8e:	2a00      	cmp	r2, #0
10000f90:	d008      	beq.n	10000fa4 <ph_delete+0x44>
10000f92:	0053      	lsls	r3, r2, #1
10000f94:	189b      	adds	r3, r3, r2
10000f96:	3b03      	subs	r3, #3
10000f98:	18eb      	adds	r3, r5, r3
10000f9a:	785a      	ldrb	r2, [r3, #1]
10000f9c:	428a      	cmp	r2, r1
10000f9e:	d1f6      	bne.n	10000f8e <ph_delete+0x2e>
10000fa0:	7842      	ldrb	r2, [r0, #1]
10000fa2:	705a      	strb	r2, [r3, #1]
10000fa4:	2300      	movs	r3, #0
10000fa6:	2200      	movs	r2, #0
10000fa8:	7083      	strb	r3, [r0, #2]
10000faa:	7043      	strb	r3, [r0, #1]
10000fac:	0020      	movs	r0, r4
10000fae:	f7ff febd 	bl	10000d2c <ph_remove_any_head>
10000fb2:	7b61      	ldrb	r1, [r4, #13]
10000fb4:	0002      	movs	r2, r0
10000fb6:	0020      	movs	r0, r4
10000fb8:	f7ff fe0a 	bl	10000bd0 <ph_merge_nodes>
10000fbc:	7360      	strb	r0, [r4, #13]
10000fbe:	2001      	movs	r0, #1
10000fc0:	e000      	b.n	10000fc4 <ph_delete+0x64>
10000fc2:	2000      	movs	r0, #0
10000fc4:	bd70      	pop	{r4, r5, r6, pc}
10000fc6:	7843      	ldrb	r3, [r0, #1]
10000fc8:	7033      	strb	r3, [r6, #0]
10000fca:	e7eb      	b.n	10000fa4 <ph_delete+0x44>
10000fcc:	2200      	movs	r2, #0
10000fce:	0019      	movs	r1, r3
10000fd0:	f7ff feac 	bl	10000d2c <ph_remove_any_head>
10000fd4:	7360      	strb	r0, [r4, #13]
10000fd6:	2001      	movs	r0, #1
10000fd8:	e7f4      	b.n	10000fc4 <ph_delete+0x64>
10000fda:	46c0      	nop			; (mov r8, r8)

10000fdc <runtime_init>:
10000fdc:	4b2b      	ldr	r3, [pc, #172]	; (1000108c <runtime_init+0xb0>)
10000fde:	4a2c      	ldr	r2, [pc, #176]	; (10001090 <runtime_init+0xb4>)
10000fe0:	b570      	push	{r4, r5, r6, lr}
10000fe2:	601a      	str	r2, [r3, #0]
10000fe4:	4a2b      	ldr	r2, [pc, #172]	; (10001094 <runtime_init+0xb8>)
10000fe6:	4b2c      	ldr	r3, [pc, #176]	; (10001098 <runtime_init+0xbc>)
10000fe8:	492c      	ldr	r1, [pc, #176]	; (1000109c <runtime_init+0xc0>)
10000fea:	601a      	str	r2, [r3, #0]
10000fec:	0010      	movs	r0, r2
10000fee:	688b      	ldr	r3, [r1, #8]
10000ff0:	4398      	bics	r0, r3
10000ff2:	d1fb      	bne.n	10000fec <runtime_init+0x10>
10000ff4:	4c2a      	ldr	r4, [pc, #168]	; (100010a0 <runtime_init+0xc4>)
10000ff6:	4b2b      	ldr	r3, [pc, #172]	; (100010a4 <runtime_init+0xc8>)
10000ff8:	429c      	cmp	r4, r3
10000ffa:	d209      	bcs.n	10001010 <runtime_init+0x34>
10000ffc:	3b01      	subs	r3, #1
10000ffe:	1b1d      	subs	r5, r3, r4
10001000:	08ad      	lsrs	r5, r5, #2
10001002:	3501      	adds	r5, #1
10001004:	00ad      	lsls	r5, r5, #2
10001006:	192d      	adds	r5, r5, r4
10001008:	cc08      	ldmia	r4!, {r3}
1000100a:	4798      	blx	r3
1000100c:	42ac      	cmp	r4, r5
1000100e:	d1fb      	bne.n	10001008 <runtime_init+0x2c>
10001010:	f000 f894 	bl	1000113c <clocks_init>
10001014:	4a24      	ldr	r2, [pc, #144]	; (100010a8 <runtime_init+0xcc>)
10001016:	4b20      	ldr	r3, [pc, #128]	; (10001098 <runtime_init+0xbc>)
10001018:	601a      	str	r2, [r3, #0]
1000101a:	4a20      	ldr	r2, [pc, #128]	; (1000109c <runtime_init+0xc0>)
1000101c:	6893      	ldr	r3, [r2, #8]
1000101e:	01db      	lsls	r3, r3, #7
10001020:	3380      	adds	r3, #128	; 0x80
10001022:	d1fb      	bne.n	1000101c <runtime_init+0x40>
10001024:	2240      	movs	r2, #64	; 0x40
10001026:	4b21      	ldr	r3, [pc, #132]	; (100010ac <runtime_init+0xd0>)
10001028:	4c21      	ldr	r4, [pc, #132]	; (100010b0 <runtime_init+0xd4>)
1000102a:	679a      	str	r2, [r3, #120]	; 0x78
1000102c:	675a      	str	r2, [r3, #116]	; 0x74
1000102e:	671a      	str	r2, [r3, #112]	; 0x70
10001030:	66da      	str	r2, [r3, #108]	; 0x6c
10001032:	4b20      	ldr	r3, [pc, #128]	; (100010b4 <runtime_init+0xd8>)
10001034:	429c      	cmp	r4, r3
10001036:	d20b      	bcs.n	10001050 <runtime_init+0x74>
10001038:	3b01      	subs	r3, #1
1000103a:	1b1d      	subs	r5, r3, r4
1000103c:	08ed      	lsrs	r5, r5, #3
1000103e:	3501      	adds	r5, #1
10001040:	00ed      	lsls	r5, r5, #3
10001042:	192d      	adds	r5, r5, r4
10001044:	0020      	movs	r0, r4
10001046:	3408      	adds	r4, #8
10001048:	f7ff fdb6 	bl	10000bb8 <mutex_init>
1000104c:	42ac      	cmp	r4, r5
1000104e:	d1f9      	bne.n	10001044 <runtime_init+0x68>
10001050:	4c19      	ldr	r4, [pc, #100]	; (100010b8 <runtime_init+0xdc>)
10001052:	4d1a      	ldr	r5, [pc, #104]	; (100010bc <runtime_init+0xe0>)
10001054:	68a1      	ldr	r1, [r4, #8]
10001056:	22c0      	movs	r2, #192	; 0xc0
10001058:	0028      	movs	r0, r5
1000105a:	f002 fe65 	bl	10003d28 <__wrap___aeabi_memcpy>
1000105e:	60a5      	str	r5, [r4, #8]
10001060:	f7ff f9fe 	bl	10000460 <spin_locks_reset>
10001064:	f000 fbaa 	bl	100017bc <irq_init_priorities>
10001068:	f7ff fc28 	bl	100008bc <alarm_pool_init_default>
1000106c:	4c14      	ldr	r4, [pc, #80]	; (100010c0 <runtime_init+0xe4>)
1000106e:	4b15      	ldr	r3, [pc, #84]	; (100010c4 <runtime_init+0xe8>)
10001070:	429c      	cmp	r4, r3
10001072:	d209      	bcs.n	10001088 <runtime_init+0xac>
10001074:	3b01      	subs	r3, #1
10001076:	1b1d      	subs	r5, r3, r4
10001078:	08ad      	lsrs	r5, r5, #2
1000107a:	3501      	adds	r5, #1
1000107c:	00ad      	lsls	r5, r5, #2
1000107e:	192d      	adds	r5, r5, r4
10001080:	cc08      	ldmia	r4!, {r3}
10001082:	4798      	blx	r3
10001084:	42a5      	cmp	r5, r4
10001086:	d1fb      	bne.n	10001080 <runtime_init+0xa4>
10001088:	bd70      	pop	{r4, r5, r6, pc}
1000108a:	46c0      	nop			; (mov r8, r8)
1000108c:	4000e000 	.word	0x4000e000
10001090:	ffffcdbf 	.word	0xffffcdbf
10001094:	003c7ffe 	.word	0x003c7ffe
10001098:	4000f000 	.word	0x4000f000
1000109c:	4000c000 	.word	0x4000c000
100010a0:	20000ab8 	.word	0x20000ab8
100010a4:	20000ac8 	.word	0x20000ac8
100010a8:	01ffffff 	.word	0x01ffffff
100010ac:	4001f000 	.word	0x4001f000
100010b0:	20000ab0 	.word	0x20000ab0
100010b4:	20000ab8 	.word	0x20000ab8
100010b8:	e000ed00 	.word	0xe000ed00
100010bc:	20000000 	.word	0x20000000
100010c0:	20000ac8 	.word	0x20000ac8
100010c4:	20000acc 	.word	0x20000acc

100010c8 <_sbrk>:
100010c8:	4a09      	ldr	r2, [pc, #36]	; (100010f0 <_sbrk+0x28>)
100010ca:	0003      	movs	r3, r0
100010cc:	6810      	ldr	r0, [r2, #0]
100010ce:	2800      	cmp	r0, #0
100010d0:	d005      	beq.n	100010de <_sbrk+0x16>
100010d2:	4908      	ldr	r1, [pc, #32]	; (100010f4 <_sbrk+0x2c>)
100010d4:	18c3      	adds	r3, r0, r3
100010d6:	428b      	cmp	r3, r1
100010d8:	d207      	bcs.n	100010ea <_sbrk+0x22>
100010da:	6013      	str	r3, [r2, #0]
100010dc:	4770      	bx	lr
100010de:	4806      	ldr	r0, [pc, #24]	; (100010f8 <_sbrk+0x30>)
100010e0:	4904      	ldr	r1, [pc, #16]	; (100010f4 <_sbrk+0x2c>)
100010e2:	18c3      	adds	r3, r0, r3
100010e4:	6010      	str	r0, [r2, #0]
100010e6:	428b      	cmp	r3, r1
100010e8:	d3f7      	bcc.n	100010da <_sbrk+0x12>
100010ea:	2001      	movs	r0, #1
100010ec:	4240      	negs	r0, r0
100010ee:	e7f5      	b.n	100010dc <_sbrk+0x14>
100010f0:	20000b60 	.word	0x20000b60
100010f4:	20040000 	.word	0x20040000
100010f8:	20004dbc 	.word	0x20004dbc

100010fc <exit>:
100010fc:	be00      	bkpt	0x0000
100010fe:	e7fd      	b.n	100010fc <exit>

10001100 <panic>:
10001100:	b40f      	push	{r0, r1, r2, r3}
10001102:	b500      	push	{lr}
10001104:	4808      	ldr	r0, [pc, #32]	; (10001128 <panic+0x28>)
10001106:	b083      	sub	sp, #12
10001108:	f002 ff20 	bl	10003f4c <__wrap_puts>
1000110c:	9b04      	ldr	r3, [sp, #16]
1000110e:	2b00      	cmp	r3, #0
10001110:	d007      	beq.n	10001122 <panic+0x22>
10001112:	a905      	add	r1, sp, #20
10001114:	0018      	movs	r0, r3
10001116:	9101      	str	r1, [sp, #4]
10001118:	f001 fe78 	bl	10002e0c <weak_raw_vprintf>
1000111c:	4803      	ldr	r0, [pc, #12]	; (1000112c <panic+0x2c>)
1000111e:	f002 ff15 	bl	10003f4c <__wrap_puts>
10001122:	be00      	bkpt	0x0000
10001124:	e7fd      	b.n	10001122 <panic+0x22>
10001126:	46c0      	nop			; (mov r8, r8)
10001128:	10004b94 	.word	0x10004b94
1000112c:	10004ba4 	.word	0x10004ba4

10001130 <hard_assertion_failure>:
10001130:	b510      	push	{r4, lr}
10001132:	4801      	ldr	r0, [pc, #4]	; (10001138 <hard_assertion_failure+0x8>)
10001134:	f7ff ffe4 	bl	10001100 <panic>
10001138:	10004ba8 	.word	0x10004ba8

1000113c <clocks_init>:
1000113c:	b530      	push	{r4, r5, lr}
1000113e:	200c      	movs	r0, #12
10001140:	b083      	sub	sp, #12
10001142:	f000 f971 	bl	10001428 <watchdog_start_tick>
10001146:	f7ff f9a5 	bl	10000494 <running_on_fpga>
1000114a:	2800      	cmp	r0, #0
1000114c:	d00e      	beq.n	1000116c <clocks_init+0x30>
1000114e:	4b9a      	ldr	r3, [pc, #616]	; (100013b8 <clocks_init+0x27c>)
10001150:	4a9a      	ldr	r2, [pc, #616]	; (100013bc <clocks_init+0x280>)
10001152:	601a      	str	r2, [r3, #0]
10001154:	605a      	str	r2, [r3, #4]
10001156:	609a      	str	r2, [r3, #8]
10001158:	60da      	str	r2, [r3, #12]
1000115a:	611a      	str	r2, [r3, #16]
1000115c:	615a      	str	r2, [r3, #20]
1000115e:	619a      	str	r2, [r3, #24]
10001160:	61da      	str	r2, [r3, #28]
10001162:	621a      	str	r2, [r3, #32]
10001164:	4a96      	ldr	r2, [pc, #600]	; (100013c0 <clocks_init+0x284>)
10001166:	625a      	str	r2, [r3, #36]	; 0x24
10001168:	b003      	add	sp, #12
1000116a:	bd30      	pop	{r4, r5, pc}
1000116c:	4c95      	ldr	r4, [pc, #596]	; (100013c4 <clocks_init+0x288>)
1000116e:	67a0      	str	r0, [r4, #120]	; 0x78
10001170:	f000 f962 	bl	10001438 <xosc_init>
10001174:	2201      	movs	r2, #1
10001176:	4b94      	ldr	r3, [pc, #592]	; (100013c8 <clocks_init+0x28c>)
10001178:	601a      	str	r2, [r3, #0]
1000117a:	6c63      	ldr	r3, [r4, #68]	; 0x44
1000117c:	2b01      	cmp	r3, #1
1000117e:	d1fc      	bne.n	1000117a <clocks_init+0x3e>
10001180:	2203      	movs	r2, #3
10001182:	4b92      	ldr	r3, [pc, #584]	; (100013cc <clocks_init+0x290>)
10001184:	601a      	str	r2, [r3, #0]
10001186:	4a8f      	ldr	r2, [pc, #572]	; (100013c4 <clocks_init+0x288>)
10001188:	6b93      	ldr	r3, [r2, #56]	; 0x38
1000118a:	2b01      	cmp	r3, #1
1000118c:	d1fc      	bne.n	10001188 <clocks_init+0x4c>
1000118e:	22c0      	movs	r2, #192	; 0xc0
10001190:	4b8f      	ldr	r3, [pc, #572]	; (100013d0 <clocks_init+0x294>)
10001192:	0192      	lsls	r2, r2, #6
10001194:	601a      	str	r2, [r3, #0]
10001196:	4b8f      	ldr	r3, [pc, #572]	; (100013d4 <clocks_init+0x298>)
10001198:	498f      	ldr	r1, [pc, #572]	; (100013d8 <clocks_init+0x29c>)
1000119a:	601a      	str	r2, [r3, #0]
1000119c:	0010      	movs	r0, r2
1000119e:	688b      	ldr	r3, [r1, #8]
100011a0:	4398      	bics	r0, r3
100011a2:	1e03      	subs	r3, r0, #0
100011a4:	d1fa      	bne.n	1000119c <clocks_init+0x60>
100011a6:	2402      	movs	r4, #2
100011a8:	2101      	movs	r1, #1
100011aa:	4a8c      	ldr	r2, [pc, #560]	; (100013dc <clocks_init+0x2a0>)
100011ac:	488c      	ldr	r0, [pc, #560]	; (100013e0 <clocks_init+0x2a4>)
100011ae:	3306      	adds	r3, #6
100011b0:	9400      	str	r4, [sp, #0]
100011b2:	f000 f955 	bl	10001460 <pll_init>
100011b6:	2305      	movs	r3, #5
100011b8:	4a8a      	ldr	r2, [pc, #552]	; (100013e4 <clocks_init+0x2a8>)
100011ba:	2101      	movs	r1, #1
100011bc:	488a      	ldr	r0, [pc, #552]	; (100013e8 <clocks_init+0x2ac>)
100011be:	9400      	str	r4, [sp, #0]
100011c0:	f000 f94e 	bl	10001460 <pll_init>
100011c4:	4b89      	ldr	r3, [pc, #548]	; (100013ec <clocks_init+0x2b0>)
100011c6:	685a      	ldr	r2, [r3, #4]
100011c8:	2aff      	cmp	r2, #255	; 0xff
100011ca:	d802      	bhi.n	100011d2 <clocks_init+0x96>
100011cc:	2280      	movs	r2, #128	; 0x80
100011ce:	0052      	lsls	r2, r2, #1
100011d0:	605a      	str	r2, [r3, #4]
100011d2:	2280      	movs	r2, #128	; 0x80
100011d4:	4c78      	ldr	r4, [pc, #480]	; (100013b8 <clocks_init+0x27c>)
100011d6:	4b7d      	ldr	r3, [pc, #500]	; (100013cc <clocks_init+0x290>)
100011d8:	6921      	ldr	r1, [r4, #16]
100011da:	0112      	lsls	r2, r2, #4
100011dc:	4d83      	ldr	r5, [pc, #524]	; (100013ec <clocks_init+0x2b0>)
100011de:	601a      	str	r2, [r3, #0]
100011e0:	2900      	cmp	r1, #0
100011e2:	d005      	beq.n	100011f0 <clocks_init+0xb4>
100011e4:	6960      	ldr	r0, [r4, #20]
100011e6:	f001 fe8b 	bl	10002f00 <__wrap___aeabi_uidiv>
100011ea:	3001      	adds	r0, #1
100011ec:	3801      	subs	r0, #1
100011ee:	d1fd      	bne.n	100011ec <clocks_init+0xb0>
100011f0:	21e0      	movs	r1, #224	; 0xe0
100011f2:	4b7e      	ldr	r3, [pc, #504]	; (100013ec <clocks_init+0x2b0>)
100011f4:	2002      	movs	r0, #2
100011f6:	681a      	ldr	r2, [r3, #0]
100011f8:	4011      	ands	r1, r2
100011fa:	2280      	movs	r2, #128	; 0x80
100011fc:	0152      	lsls	r2, r2, #5
100011fe:	432a      	orrs	r2, r5
10001200:	6011      	str	r1, [r2, #0]
10001202:	6819      	ldr	r1, [r3, #0]
10001204:	4048      	eors	r0, r1
10001206:	2103      	movs	r1, #3
10001208:	4001      	ands	r1, r0
1000120a:	6011      	str	r1, [r2, #0]
1000120c:	2104      	movs	r1, #4
1000120e:	689a      	ldr	r2, [r3, #8]
10001210:	4211      	tst	r1, r2
10001212:	d0fc      	beq.n	1000120e <clocks_init+0xd2>
10001214:	2280      	movs	r2, #128	; 0x80
10001216:	2180      	movs	r1, #128	; 0x80
10001218:	0192      	lsls	r2, r2, #6
1000121a:	432a      	orrs	r2, r5
1000121c:	0109      	lsls	r1, r1, #4
1000121e:	6011      	str	r1, [r2, #0]
10001220:	2280      	movs	r2, #128	; 0x80
10001222:	0052      	lsls	r2, r2, #1
10001224:	605a      	str	r2, [r3, #4]
10001226:	4b72      	ldr	r3, [pc, #456]	; (100013f0 <clocks_init+0x2b4>)
10001228:	6123      	str	r3, [r4, #16]
1000122a:	4b72      	ldr	r3, [pc, #456]	; (100013f4 <clocks_init+0x2b8>)
1000122c:	6859      	ldr	r1, [r3, #4]
1000122e:	29ff      	cmp	r1, #255	; 0xff
10001230:	d800      	bhi.n	10001234 <clocks_init+0xf8>
10001232:	605a      	str	r2, [r3, #4]
10001234:	2203      	movs	r2, #3
10001236:	486f      	ldr	r0, [pc, #444]	; (100013f4 <clocks_init+0x2b8>)
10001238:	4b63      	ldr	r3, [pc, #396]	; (100013c8 <clocks_init+0x28c>)
1000123a:	2101      	movs	r1, #1
1000123c:	601a      	str	r2, [r3, #0]
1000123e:	0002      	movs	r2, r0
10001240:	6893      	ldr	r3, [r2, #8]
10001242:	4219      	tst	r1, r3
10001244:	d0fc      	beq.n	10001240 <clocks_init+0x104>
10001246:	25e0      	movs	r5, #224	; 0xe0
10001248:	6813      	ldr	r3, [r2, #0]
1000124a:	401d      	ands	r5, r3
1000124c:	2380      	movs	r3, #128	; 0x80
1000124e:	015b      	lsls	r3, r3, #5
10001250:	4303      	orrs	r3, r0
10001252:	601d      	str	r5, [r3, #0]
10001254:	6812      	ldr	r2, [r2, #0]
10001256:	404a      	eors	r2, r1
10001258:	2103      	movs	r1, #3
1000125a:	4011      	ands	r1, r2
1000125c:	6019      	str	r1, [r3, #0]
1000125e:	2102      	movs	r1, #2
10001260:	4a64      	ldr	r2, [pc, #400]	; (100013f4 <clocks_init+0x2b8>)
10001262:	6893      	ldr	r3, [r2, #8]
10001264:	4219      	tst	r1, r3
10001266:	d0fc      	beq.n	10001262 <clocks_init+0x126>
10001268:	2380      	movs	r3, #128	; 0x80
1000126a:	2180      	movs	r1, #128	; 0x80
1000126c:	019b      	lsls	r3, r3, #6
1000126e:	4303      	orrs	r3, r0
10001270:	0109      	lsls	r1, r1, #4
10001272:	6019      	str	r1, [r3, #0]
10001274:	2180      	movs	r1, #128	; 0x80
10001276:	4b60      	ldr	r3, [pc, #384]	; (100013f8 <clocks_init+0x2bc>)
10001278:	0049      	lsls	r1, r1, #1
1000127a:	6051      	str	r1, [r2, #4]
1000127c:	6163      	str	r3, [r4, #20]
1000127e:	4b5f      	ldr	r3, [pc, #380]	; (100013fc <clocks_init+0x2c0>)
10001280:	685a      	ldr	r2, [r3, #4]
10001282:	2aff      	cmp	r2, #255	; 0xff
10001284:	d800      	bhi.n	10001288 <clocks_init+0x14c>
10001286:	6059      	str	r1, [r3, #4]
10001288:	2280      	movs	r2, #128	; 0x80
1000128a:	4b5d      	ldr	r3, [pc, #372]	; (10001400 <clocks_init+0x2c4>)
1000128c:	69e1      	ldr	r1, [r4, #28]
1000128e:	0112      	lsls	r2, r2, #4
10001290:	4d5a      	ldr	r5, [pc, #360]	; (100013fc <clocks_init+0x2c0>)
10001292:	601a      	str	r2, [r3, #0]
10001294:	2900      	cmp	r1, #0
10001296:	d005      	beq.n	100012a4 <clocks_init+0x168>
10001298:	6960      	ldr	r0, [r4, #20]
1000129a:	f001 fe31 	bl	10002f00 <__wrap___aeabi_uidiv>
1000129e:	3001      	adds	r0, #1
100012a0:	3801      	subs	r0, #1
100012a2:	d1fd      	bne.n	100012a0 <clocks_init+0x164>
100012a4:	22e0      	movs	r2, #224	; 0xe0
100012a6:	4955      	ldr	r1, [pc, #340]	; (100013fc <clocks_init+0x2c0>)
100012a8:	680b      	ldr	r3, [r1, #0]
100012aa:	401a      	ands	r2, r3
100012ac:	2380      	movs	r3, #128	; 0x80
100012ae:	015b      	lsls	r3, r3, #5
100012b0:	432b      	orrs	r3, r5
100012b2:	601a      	str	r2, [r3, #0]
100012b4:	2380      	movs	r3, #128	; 0x80
100012b6:	2280      	movs	r2, #128	; 0x80
100012b8:	019b      	lsls	r3, r3, #6
100012ba:	432b      	orrs	r3, r5
100012bc:	0112      	lsls	r2, r2, #4
100012be:	601a      	str	r2, [r3, #0]
100012c0:	2280      	movs	r2, #128	; 0x80
100012c2:	4b3e      	ldr	r3, [pc, #248]	; (100013bc <clocks_init+0x280>)
100012c4:	0052      	lsls	r2, r2, #1
100012c6:	604a      	str	r2, [r1, #4]
100012c8:	61e3      	str	r3, [r4, #28]
100012ca:	4b4e      	ldr	r3, [pc, #312]	; (10001404 <clocks_init+0x2c8>)
100012cc:	6859      	ldr	r1, [r3, #4]
100012ce:	29ff      	cmp	r1, #255	; 0xff
100012d0:	d800      	bhi.n	100012d4 <clocks_init+0x198>
100012d2:	605a      	str	r2, [r3, #4]
100012d4:	2280      	movs	r2, #128	; 0x80
100012d6:	4b4c      	ldr	r3, [pc, #304]	; (10001408 <clocks_init+0x2cc>)
100012d8:	6a21      	ldr	r1, [r4, #32]
100012da:	0112      	lsls	r2, r2, #4
100012dc:	4d49      	ldr	r5, [pc, #292]	; (10001404 <clocks_init+0x2c8>)
100012de:	601a      	str	r2, [r3, #0]
100012e0:	2900      	cmp	r1, #0
100012e2:	d005      	beq.n	100012f0 <clocks_init+0x1b4>
100012e4:	6960      	ldr	r0, [r4, #20]
100012e6:	f001 fe0b 	bl	10002f00 <__wrap___aeabi_uidiv>
100012ea:	3001      	adds	r0, #1
100012ec:	3801      	subs	r0, #1
100012ee:	d1fd      	bne.n	100012ec <clocks_init+0x1b0>
100012f0:	22e0      	movs	r2, #224	; 0xe0
100012f2:	4944      	ldr	r1, [pc, #272]	; (10001404 <clocks_init+0x2c8>)
100012f4:	680b      	ldr	r3, [r1, #0]
100012f6:	401a      	ands	r2, r3
100012f8:	2380      	movs	r3, #128	; 0x80
100012fa:	015b      	lsls	r3, r3, #5
100012fc:	432b      	orrs	r3, r5
100012fe:	601a      	str	r2, [r3, #0]
10001300:	2380      	movs	r3, #128	; 0x80
10001302:	2280      	movs	r2, #128	; 0x80
10001304:	019b      	lsls	r3, r3, #6
10001306:	432b      	orrs	r3, r5
10001308:	0112      	lsls	r2, r2, #4
1000130a:	601a      	str	r2, [r3, #0]
1000130c:	2380      	movs	r3, #128	; 0x80
1000130e:	2280      	movs	r2, #128	; 0x80
10001310:	005b      	lsls	r3, r3, #1
10001312:	604b      	str	r3, [r1, #4]
10001314:	4b29      	ldr	r3, [pc, #164]	; (100013bc <clocks_init+0x280>)
10001316:	02d2      	lsls	r2, r2, #11
10001318:	6223      	str	r3, [r4, #32]
1000131a:	4b3c      	ldr	r3, [pc, #240]	; (1000140c <clocks_init+0x2d0>)
1000131c:	6859      	ldr	r1, [r3, #4]
1000131e:	4291      	cmp	r1, r2
10001320:	d200      	bcs.n	10001324 <clocks_init+0x1e8>
10001322:	605a      	str	r2, [r3, #4]
10001324:	2280      	movs	r2, #128	; 0x80
10001326:	4b3a      	ldr	r3, [pc, #232]	; (10001410 <clocks_init+0x2d4>)
10001328:	6a61      	ldr	r1, [r4, #36]	; 0x24
1000132a:	0112      	lsls	r2, r2, #4
1000132c:	4d37      	ldr	r5, [pc, #220]	; (1000140c <clocks_init+0x2d0>)
1000132e:	601a      	str	r2, [r3, #0]
10001330:	2900      	cmp	r1, #0
10001332:	d005      	beq.n	10001340 <clocks_init+0x204>
10001334:	6960      	ldr	r0, [r4, #20]
10001336:	f001 fde3 	bl	10002f00 <__wrap___aeabi_uidiv>
1000133a:	3001      	adds	r0, #1
1000133c:	3801      	subs	r0, #1
1000133e:	d1fd      	bne.n	1000133c <clocks_init+0x200>
10001340:	22e0      	movs	r2, #224	; 0xe0
10001342:	4932      	ldr	r1, [pc, #200]	; (1000140c <clocks_init+0x2d0>)
10001344:	680b      	ldr	r3, [r1, #0]
10001346:	401a      	ands	r2, r3
10001348:	2380      	movs	r3, #128	; 0x80
1000134a:	015b      	lsls	r3, r3, #5
1000134c:	432b      	orrs	r3, r5
1000134e:	601a      	str	r2, [r3, #0]
10001350:	2380      	movs	r3, #128	; 0x80
10001352:	2280      	movs	r2, #128	; 0x80
10001354:	019b      	lsls	r3, r3, #6
10001356:	432b      	orrs	r3, r5
10001358:	0112      	lsls	r2, r2, #4
1000135a:	601a      	str	r2, [r3, #0]
1000135c:	2380      	movs	r3, #128	; 0x80
1000135e:	02db      	lsls	r3, r3, #11
10001360:	604b      	str	r3, [r1, #4]
10001362:	4b17      	ldr	r3, [pc, #92]	; (100013c0 <clocks_init+0x284>)
10001364:	6263      	str	r3, [r4, #36]	; 0x24
10001366:	4b2b      	ldr	r3, [pc, #172]	; (10001414 <clocks_init+0x2d8>)
10001368:	685a      	ldr	r2, [r3, #4]
1000136a:	2aff      	cmp	r2, #255	; 0xff
1000136c:	d802      	bhi.n	10001374 <clocks_init+0x238>
1000136e:	2280      	movs	r2, #128	; 0x80
10001370:	0052      	lsls	r2, r2, #1
10001372:	605a      	str	r2, [r3, #4]
10001374:	2280      	movs	r2, #128	; 0x80
10001376:	4b28      	ldr	r3, [pc, #160]	; (10001418 <clocks_init+0x2dc>)
10001378:	69a1      	ldr	r1, [r4, #24]
1000137a:	0112      	lsls	r2, r2, #4
1000137c:	4d25      	ldr	r5, [pc, #148]	; (10001414 <clocks_init+0x2d8>)
1000137e:	601a      	str	r2, [r3, #0]
10001380:	2900      	cmp	r1, #0
10001382:	d005      	beq.n	10001390 <clocks_init+0x254>
10001384:	6960      	ldr	r0, [r4, #20]
10001386:	f001 fdbb 	bl	10002f00 <__wrap___aeabi_uidiv>
1000138a:	3001      	adds	r0, #1
1000138c:	3801      	subs	r0, #1
1000138e:	d1fd      	bne.n	1000138c <clocks_init+0x250>
10001390:	22e0      	movs	r2, #224	; 0xe0
10001392:	4920      	ldr	r1, [pc, #128]	; (10001414 <clocks_init+0x2d8>)
10001394:	680b      	ldr	r3, [r1, #0]
10001396:	401a      	ands	r2, r3
10001398:	2380      	movs	r3, #128	; 0x80
1000139a:	015b      	lsls	r3, r3, #5
1000139c:	432b      	orrs	r3, r5
1000139e:	601a      	str	r2, [r3, #0]
100013a0:	2380      	movs	r3, #128	; 0x80
100013a2:	2280      	movs	r2, #128	; 0x80
100013a4:	019b      	lsls	r3, r3, #6
100013a6:	432b      	orrs	r3, r5
100013a8:	0112      	lsls	r2, r2, #4
100013aa:	601a      	str	r2, [r3, #0]
100013ac:	2380      	movs	r3, #128	; 0x80
100013ae:	005b      	lsls	r3, r3, #1
100013b0:	604b      	str	r3, [r1, #4]
100013b2:	4b11      	ldr	r3, [pc, #68]	; (100013f8 <clocks_init+0x2bc>)
100013b4:	61a3      	str	r3, [r4, #24]
100013b6:	e6d7      	b.n	10001168 <clocks_init+0x2c>
100013b8:	20000b2c 	.word	0x20000b2c
100013bc:	02dc6c00 	.word	0x02dc6c00
100013c0:	0000b71b 	.word	0x0000b71b
100013c4:	40008000 	.word	0x40008000
100013c8:	4000b03c 	.word	0x4000b03c
100013cc:	4000b030 	.word	0x4000b030
100013d0:	4000e000 	.word	0x4000e000
100013d4:	4000f000 	.word	0x4000f000
100013d8:	4000c000 	.word	0x4000c000
100013dc:	59682f00 	.word	0x59682f00
100013e0:	40028000 	.word	0x40028000
100013e4:	1c9c3800 	.word	0x1c9c3800
100013e8:	4002c000 	.word	0x4002c000
100013ec:	40008030 	.word	0x40008030
100013f0:	00b71b00 	.word	0x00b71b00
100013f4:	4000803c 	.word	0x4000803c
100013f8:	07735940 	.word	0x07735940
100013fc:	40008054 	.word	0x40008054
10001400:	4000b054 	.word	0x4000b054
10001404:	40008060 	.word	0x40008060
10001408:	4000b060 	.word	0x4000b060
1000140c:	4000806c 	.word	0x4000806c
10001410:	4000b06c 	.word	0x4000b06c
10001414:	40008048 	.word	0x40008048
10001418:	4000b048 	.word	0x4000b048

1000141c <clock_get_hz>:
1000141c:	4b01      	ldr	r3, [pc, #4]	; (10001424 <clock_get_hz+0x8>)
1000141e:	0080      	lsls	r0, r0, #2
10001420:	58c0      	ldr	r0, [r0, r3]
10001422:	4770      	bx	lr
10001424:	20000b2c 	.word	0x20000b2c

10001428 <watchdog_start_tick>:
10001428:	2380      	movs	r3, #128	; 0x80
1000142a:	4a02      	ldr	r2, [pc, #8]	; (10001434 <watchdog_start_tick+0xc>)
1000142c:	009b      	lsls	r3, r3, #2
1000142e:	4303      	orrs	r3, r0
10001430:	62d3      	str	r3, [r2, #44]	; 0x2c
10001432:	4770      	bx	lr
10001434:	40058000 	.word	0x40058000

10001438 <xosc_init>:
10001438:	23aa      	movs	r3, #170	; 0xaa
1000143a:	4a06      	ldr	r2, [pc, #24]	; (10001454 <xosc_init+0x1c>)
1000143c:	011b      	lsls	r3, r3, #4
1000143e:	6013      	str	r3, [r2, #0]
10001440:	232f      	movs	r3, #47	; 0x2f
10001442:	4905      	ldr	r1, [pc, #20]	; (10001458 <xosc_init+0x20>)
10001444:	60d3      	str	r3, [r2, #12]
10001446:	4b05      	ldr	r3, [pc, #20]	; (1000145c <xosc_init+0x24>)
10001448:	6019      	str	r1, [r3, #0]
1000144a:	6853      	ldr	r3, [r2, #4]
1000144c:	2b00      	cmp	r3, #0
1000144e:	dafc      	bge.n	1000144a <xosc_init+0x12>
10001450:	4770      	bx	lr
10001452:	46c0      	nop			; (mov r8, r8)
10001454:	40024000 	.word	0x40024000
10001458:	00fab000 	.word	0x00fab000
1000145c:	40026000 	.word	0x40026000

10001460 <pll_init>:
10001460:	b5f8      	push	{r3, r4, r5, r6, r7, lr}
10001462:	001d      	movs	r5, r3
10001464:	ab06      	add	r3, sp, #24
10001466:	781e      	ldrb	r6, [r3, #0]
10001468:	2301      	movs	r3, #1
1000146a:	425b      	negs	r3, r3
1000146c:	6043      	str	r3, [r0, #4]
1000146e:	2300      	movs	r3, #0
10001470:	0004      	movs	r4, r0
10001472:	6083      	str	r3, [r0, #8]
10001474:	6001      	str	r1, [r0, #0]
10001476:	200c      	movs	r0, #12
10001478:	0017      	movs	r7, r2
1000147a:	f001 fd41 	bl	10002f00 <__wrap___aeabi_uidiv>
1000147e:	0141      	lsls	r1, r0, #5
10001480:	1a09      	subs	r1, r1, r0
10001482:	018b      	lsls	r3, r1, #6
10001484:	1a59      	subs	r1, r3, r1
10001486:	00c9      	lsls	r1, r1, #3
10001488:	1809      	adds	r1, r1, r0
1000148a:	0189      	lsls	r1, r1, #6
1000148c:	0038      	movs	r0, r7
1000148e:	f001 fd37 	bl	10002f00 <__wrap___aeabi_uidiv>
10001492:	21c0      	movs	r1, #192	; 0xc0
10001494:	1d23      	adds	r3, r4, #4
10001496:	0189      	lsls	r1, r1, #6
10001498:	4319      	orrs	r1, r3
1000149a:	2321      	movs	r3, #33	; 0x21
1000149c:	60a0      	str	r0, [r4, #8]
1000149e:	600b      	str	r3, [r1, #0]
100014a0:	6822      	ldr	r2, [r4, #0]
100014a2:	2a00      	cmp	r2, #0
100014a4:	dafc      	bge.n	100014a0 <pll_init+0x40>
100014a6:	2308      	movs	r3, #8
100014a8:	042d      	lsls	r5, r5, #16
100014aa:	0336      	lsls	r6, r6, #12
100014ac:	432e      	orrs	r6, r5
100014ae:	60e6      	str	r6, [r4, #12]
100014b0:	600b      	str	r3, [r1, #0]
100014b2:	bdf8      	pop	{r3, r4, r5, r6, r7, pc}

100014b4 <irq_set_enabled>:
100014b4:	2301      	movs	r3, #1
100014b6:	4083      	lsls	r3, r0
100014b8:	2900      	cmp	r1, #0
100014ba:	d004      	beq.n	100014c6 <irq_set_enabled+0x12>
100014bc:	4a03      	ldr	r2, [pc, #12]	; (100014cc <irq_set_enabled+0x18>)
100014be:	6013      	str	r3, [r2, #0]
100014c0:	4a03      	ldr	r2, [pc, #12]	; (100014d0 <irq_set_enabled+0x1c>)
100014c2:	6013      	str	r3, [r2, #0]
100014c4:	4770      	bx	lr
100014c6:	4a03      	ldr	r2, [pc, #12]	; (100014d4 <irq_set_enabled+0x20>)
100014c8:	6013      	str	r3, [r2, #0]
100014ca:	e7fb      	b.n	100014c4 <irq_set_enabled+0x10>
100014cc:	e000e280 	.word	0xe000e280
100014d0:	e000e100 	.word	0xe000e100
100014d4:	e000e180 	.word	0xe000e180

100014d8 <irq_get_vtable_handler>:
100014d8:	4b02      	ldr	r3, [pc, #8]	; (100014e4 <irq_get_vtable_handler+0xc>)
100014da:	3010      	adds	r0, #16
100014dc:	689b      	ldr	r3, [r3, #8]
100014de:	0080      	lsls	r0, r0, #2
100014e0:	58c0      	ldr	r0, [r0, r3]
100014e2:	4770      	bx	lr
100014e4:	e000ed00 	.word	0xe000ed00

100014e8 <irq_set_exclusive_handler>:
100014e8:	b570      	push	{r4, r5, r6, lr}
100014ea:	000d      	movs	r5, r1
100014ec:	f3ef 8610 	mrs	r6, PRIMASK
100014f0:	b672      	cpsid	i
100014f2:	4a0f      	ldr	r2, [pc, #60]	; (10001530 <irq_set_exclusive_handler+0x48>)
100014f4:	6813      	ldr	r3, [r2, #0]
100014f6:	2b00      	cmp	r3, #0
100014f8:	d0fc      	beq.n	100014f4 <irq_set_exclusive_handler+0xc>
100014fa:	f3bf 8f5f 	dmb	sy
100014fe:	4b0d      	ldr	r3, [pc, #52]	; (10001534 <irq_set_exclusive_handler+0x4c>)
10001500:	3010      	adds	r0, #16
10001502:	689b      	ldr	r3, [r3, #8]
10001504:	0084      	lsls	r4, r0, #2
10001506:	591b      	ldr	r3, [r3, r4]
10001508:	4a0b      	ldr	r2, [pc, #44]	; (10001538 <irq_set_exclusive_handler+0x50>)
1000150a:	4293      	cmp	r3, r2
1000150c:	d003      	beq.n	10001516 <irq_set_exclusive_handler+0x2e>
1000150e:	429d      	cmp	r5, r3
10001510:	d001      	beq.n	10001516 <irq_set_exclusive_handler+0x2e>
10001512:	f7ff fe0d 	bl	10001130 <hard_assertion_failure>
10001516:	4b07      	ldr	r3, [pc, #28]	; (10001534 <irq_set_exclusive_handler+0x4c>)
10001518:	689b      	ldr	r3, [r3, #8]
1000151a:	511d      	str	r5, [r3, r4]
1000151c:	f3bf 8f5f 	dmb	sy
10001520:	f3bf 8f5f 	dmb	sy
10001524:	2200      	movs	r2, #0
10001526:	4b02      	ldr	r3, [pc, #8]	; (10001530 <irq_set_exclusive_handler+0x48>)
10001528:	601a      	str	r2, [r3, #0]
1000152a:	f386 8810 	msr	PRIMASK, r6
1000152e:	bd70      	pop	{r4, r5, r6, pc}
10001530:	d0000124 	.word	0xd0000124
10001534:	e000ed00 	.word	0xe000ed00
10001538:	100002cd 	.word	0x100002cd

1000153c <irq_remove_handler>:
1000153c:	b5f0      	push	{r4, r5, r6, r7, lr}
1000153e:	46de      	mov	lr, fp
10001540:	4657      	mov	r7, sl
10001542:	464e      	mov	r6, r9
10001544:	4645      	mov	r5, r8
10001546:	b5e0      	push	{r5, r6, r7, lr}
10001548:	000c      	movs	r4, r1
1000154a:	b083      	sub	sp, #12
1000154c:	f3ef 8a10 	mrs	sl, PRIMASK
10001550:	b672      	cpsid	i
10001552:	4a5f      	ldr	r2, [pc, #380]	; (100016d0 <irq_remove_handler+0x194>)
10001554:	6813      	ldr	r3, [r2, #0]
10001556:	2b00      	cmp	r3, #0
10001558:	d0fc      	beq.n	10001554 <irq_remove_handler+0x18>
1000155a:	f3bf 8f5f 	dmb	sy
1000155e:	2210      	movs	r2, #16
10001560:	4691      	mov	r9, r2
10001562:	4481      	add	r9, r0
10001564:	464a      	mov	r2, r9
10001566:	4b5b      	ldr	r3, [pc, #364]	; (100016d4 <irq_remove_handler+0x198>)
10001568:	0096      	lsls	r6, r2, #2
1000156a:	689b      	ldr	r3, [r3, #8]
1000156c:	599d      	ldr	r5, [r3, r6]
1000156e:	4b5a      	ldr	r3, [pc, #360]	; (100016d8 <irq_remove_handler+0x19c>)
10001570:	4698      	mov	r8, r3
10001572:	429d      	cmp	r5, r3
10001574:	d005      	beq.n	10001582 <irq_remove_handler+0x46>
10001576:	42a5      	cmp	r5, r4
10001578:	d016      	beq.n	100015a8 <irq_remove_handler+0x6c>
1000157a:	4f58      	ldr	r7, [pc, #352]	; (100016dc <irq_remove_handler+0x1a0>)
1000157c:	1beb      	subs	r3, r5, r7
1000157e:	2b2f      	cmp	r3, #47	; 0x2f
10001580:	d914      	bls.n	100015ac <irq_remove_handler+0x70>
10001582:	4b54      	ldr	r3, [pc, #336]	; (100016d4 <irq_remove_handler+0x198>)
10001584:	689b      	ldr	r3, [r3, #8]
10001586:	519d      	str	r5, [r3, r6]
10001588:	f3bf 8f5f 	dmb	sy
1000158c:	f3bf 8f5f 	dmb	sy
10001590:	2200      	movs	r2, #0
10001592:	4b4f      	ldr	r3, [pc, #316]	; (100016d0 <irq_remove_handler+0x194>)
10001594:	601a      	str	r2, [r3, #0]
10001596:	f38a 8810 	msr	PRIMASK, sl
1000159a:	b003      	add	sp, #12
1000159c:	bc3c      	pop	{r2, r3, r4, r5}
1000159e:	4690      	mov	r8, r2
100015a0:	4699      	mov	r9, r3
100015a2:	46a2      	mov	sl, r4
100015a4:	46ab      	mov	fp, r5
100015a6:	bdf0      	pop	{r4, r5, r6, r7, pc}
100015a8:	001d      	movs	r5, r3
100015aa:	e7ea      	b.n	10001582 <irq_remove_handler+0x46>
100015ac:	2301      	movs	r3, #1
100015ae:	4083      	lsls	r3, r0
100015b0:	469b      	mov	fp, r3
100015b2:	465a      	mov	r2, fp
100015b4:	4b4a      	ldr	r3, [pc, #296]	; (100016e0 <irq_remove_handler+0x1a4>)
100015b6:	681b      	ldr	r3, [r3, #0]
100015b8:	401a      	ands	r2, r3
100015ba:	9200      	str	r2, [sp, #0]
100015bc:	465a      	mov	r2, fp
100015be:	4b49      	ldr	r3, [pc, #292]	; (100016e4 <irq_remove_handler+0x1a8>)
100015c0:	601a      	str	r2, [r3, #0]
100015c2:	f3bf 8f5f 	dmb	sy
100015c6:	f7fe fde6 	bl	10000196 <__get_current_exception>
100015ca:	9001      	str	r0, [sp, #4]
100015cc:	2800      	cmp	r0, #0
100015ce:	d003      	beq.n	100015d8 <irq_remove_handler+0x9c>
100015d0:	4581      	cmp	r9, r0
100015d2:	d001      	beq.n	100015d8 <irq_remove_handler+0x9c>
100015d4:	f7ff fdac 	bl	10001130 <hard_assertion_failure>
100015d8:	2301      	movs	r3, #1
100015da:	0029      	movs	r1, r5
100015dc:	4399      	bics	r1, r3
100015de:	688b      	ldr	r3, [r1, #8]
100015e0:	42a3      	cmp	r3, r4
100015e2:	d069      	beq.n	100016b8 <irq_remove_handler+0x17c>
100015e4:	000a      	movs	r2, r1
100015e6:	e007      	b.n	100015f8 <irq_remove_handler+0xbc>
100015e8:	0043      	lsls	r3, r0, #1
100015ea:	181b      	adds	r3, r3, r0
100015ec:	009b      	lsls	r3, r3, #2
100015ee:	18fb      	adds	r3, r7, r3
100015f0:	6898      	ldr	r0, [r3, #8]
100015f2:	42a0      	cmp	r0, r4
100015f4:	d011      	beq.n	1000161a <irq_remove_handler+0xde>
100015f6:	001a      	movs	r2, r3
100015f8:	2006      	movs	r0, #6
100015fa:	5610      	ldrsb	r0, [r2, r0]
100015fc:	2800      	cmp	r0, #0
100015fe:	daf3      	bge.n	100015e8 <irq_remove_handler+0xac>
10001600:	9b00      	ldr	r3, [sp, #0]
10001602:	2b00      	cmp	r3, #0
10001604:	d005      	beq.n	10001612 <irq_remove_handler+0xd6>
10001606:	465a      	mov	r2, fp
10001608:	4b37      	ldr	r3, [pc, #220]	; (100016e8 <irq_remove_handler+0x1ac>)
1000160a:	601a      	str	r2, [r3, #0]
1000160c:	4b34      	ldr	r3, [pc, #208]	; (100016e0 <irq_remove_handler+0x1a4>)
1000160e:	601a      	str	r2, [r3, #0]
10001610:	e7b7      	b.n	10001582 <irq_remove_handler+0x46>
10001612:	465a      	mov	r2, fp
10001614:	4b33      	ldr	r3, [pc, #204]	; (100016e4 <irq_remove_handler+0x1a8>)
10001616:	601a      	str	r2, [r3, #0]
10001618:	e7b3      	b.n	10001582 <irq_remove_handler+0x46>
1000161a:	2006      	movs	r0, #6
1000161c:	5618      	ldrsb	r0, [r3, r0]
1000161e:	2800      	cmp	r0, #0
10001620:	db22      	blt.n	10001668 <irq_remove_handler+0x12c>
10001622:	0042      	lsls	r2, r0, #1
10001624:	1811      	adds	r1, r2, r0
10001626:	0089      	lsls	r1, r1, #2
10001628:	187c      	adds	r4, r7, r1
1000162a:	4688      	mov	r8, r1
1000162c:	68a1      	ldr	r1, [r4, #8]
1000162e:	6099      	str	r1, [r3, #8]
10001630:	79e1      	ldrb	r1, [r4, #7]
10001632:	71d9      	strb	r1, [r3, #7]
10001634:	2106      	movs	r1, #6
10001636:	5661      	ldrsb	r1, [r4, r1]
10001638:	7199      	strb	r1, [r3, #6]
1000163a:	79a1      	ldrb	r1, [r4, #6]
1000163c:	297f      	cmp	r1, #127	; 0x7f
1000163e:	d82b      	bhi.n	10001698 <irq_remove_handler+0x15c>
10001640:	88a4      	ldrh	r4, [r4, #4]
10001642:	1af9      	subs	r1, r7, r3
10001644:	0564      	lsls	r4, r4, #21
10001646:	1524      	asrs	r4, r4, #20
10001648:	4444      	add	r4, r8
1000164a:	1909      	adds	r1, r1, r4
1000164c:	24e0      	movs	r4, #224	; 0xe0
1000164e:	0509      	lsls	r1, r1, #20
10001650:	0d49      	lsrs	r1, r1, #21
10001652:	0224      	lsls	r4, r4, #8
10001654:	4321      	orrs	r1, r4
10001656:	8099      	strh	r1, [r3, #4]
10001658:	1812      	adds	r2, r2, r0
1000165a:	4b24      	ldr	r3, [pc, #144]	; (100016ec <irq_remove_handler+0x1b0>)
1000165c:	0092      	lsls	r2, r2, #2
1000165e:	18bf      	adds	r7, r7, r2
10001660:	781a      	ldrb	r2, [r3, #0]
10001662:	7018      	strb	r0, [r3, #0]
10001664:	71ba      	strb	r2, [r7, #6]
10001666:	e7cb      	b.n	10001600 <irq_remove_handler+0xc4>
10001668:	9801      	ldr	r0, [sp, #4]
1000166a:	2800      	cmp	r0, #0
1000166c:	d117      	bne.n	1000169e <irq_remove_handler+0x162>
1000166e:	30ff      	adds	r0, #255	; 0xff
10001670:	7190      	strb	r0, [r2, #6]
10001672:	481f      	ldr	r0, [pc, #124]	; (100016f0 <irq_remove_handler+0x1b4>)
10001674:	8090      	strh	r0, [r2, #4]
10001676:	4a1d      	ldr	r2, [pc, #116]	; (100016ec <irq_remove_handler+0x1b0>)
10001678:	1bcf      	subs	r7, r1, r7
1000167a:	7810      	ldrb	r0, [r2, #0]
1000167c:	10bf      	asrs	r7, r7, #2
1000167e:	7198      	strb	r0, [r3, #6]
10001680:	00bb      	lsls	r3, r7, #2
10001682:	19db      	adds	r3, r3, r7
10001684:	0119      	lsls	r1, r3, #4
10001686:	185b      	adds	r3, r3, r1
10001688:	0219      	lsls	r1, r3, #8
1000168a:	185b      	adds	r3, r3, r1
1000168c:	0419      	lsls	r1, r3, #16
1000168e:	185b      	adds	r3, r3, r1
10001690:	005b      	lsls	r3, r3, #1
10001692:	19db      	adds	r3, r3, r7
10001694:	7013      	strb	r3, [r2, #0]
10001696:	e7b3      	b.n	10001600 <irq_remove_handler+0xc4>
10001698:	21bd      	movs	r1, #189	; 0xbd
1000169a:	0209      	lsls	r1, r1, #8
1000169c:	e7db      	b.n	10001656 <irq_remove_handler+0x11a>
1000169e:	4a15      	ldr	r2, [pc, #84]	; (100016f4 <irq_remove_handler+0x1b8>)
100016a0:	4915      	ldr	r1, [pc, #84]	; (100016f8 <irq_remove_handler+0x1bc>)
100016a2:	1ad2      	subs	r2, r2, r3
100016a4:	3a08      	subs	r2, #8
100016a6:	0250      	lsls	r0, r2, #9
100016a8:	0d40      	lsrs	r0, r0, #21
100016aa:	4301      	orrs	r1, r0
100016ac:	8099      	strh	r1, [r3, #4]
100016ae:	4913      	ldr	r1, [pc, #76]	; (100016fc <irq_remove_handler+0x1c0>)
100016b0:	0852      	lsrs	r2, r2, #1
100016b2:	430a      	orrs	r2, r1
100016b4:	80da      	strh	r2, [r3, #6]
100016b6:	e7a3      	b.n	10001600 <irq_remove_handler+0xc4>
100016b8:	2006      	movs	r0, #6
100016ba:	5608      	ldrsb	r0, [r1, r0]
100016bc:	000b      	movs	r3, r1
100016be:	2800      	cmp	r0, #0
100016c0:	daaf      	bge.n	10001622 <irq_remove_handler+0xe6>
100016c2:	9a01      	ldr	r2, [sp, #4]
100016c4:	2a00      	cmp	r2, #0
100016c6:	d1ea      	bne.n	1000169e <irq_remove_handler+0x162>
100016c8:	000b      	movs	r3, r1
100016ca:	4645      	mov	r5, r8
100016cc:	e7d3      	b.n	10001676 <irq_remove_handler+0x13a>
100016ce:	46c0      	nop			; (mov r8, r8)
100016d0:	d0000124 	.word	0xd0000124
100016d4:	e000ed00 	.word	0xe000ed00
100016d8:	100002cd 	.word	0x100002cd
100016dc:	200001f8 	.word	0x200001f8
100016e0:	e000e100 	.word	0xe000e100
100016e4:	e000e180 	.word	0xe000e180
100016e8:	e000e280 	.word	0xe000e280
100016ec:	20000b89 	.word	0x20000b89
100016f0:	ffffbd00 	.word	0xffffbd00
100016f4:	20000232 	.word	0x20000232
100016f8:	fffff000 	.word	0xfffff000
100016fc:	fffff800 	.word	0xfffff800

10001700 <irq_add_tail_to_free_list>:
10001700:	b5f8      	push	{r3, r4, r5, r6, r7, lr}
10001702:	2501      	movs	r5, #1
10001704:	0004      	movs	r4, r0
10001706:	4305      	orrs	r5, r0
10001708:	f7fe fd45 	bl	10000196 <__get_current_exception>
1000170c:	f3ef 8610 	mrs	r6, PRIMASK
10001710:	b672      	cpsid	i
10001712:	4a24      	ldr	r2, [pc, #144]	; (100017a4 <irq_add_tail_to_free_list+0xa4>)
10001714:	6813      	ldr	r3, [r2, #0]
10001716:	2b00      	cmp	r3, #0
10001718:	d0fc      	beq.n	10001714 <irq_add_tail_to_free_list+0x14>
1000171a:	f3bf 8f5f 	dmb	sy
1000171e:	4f22      	ldr	r7, [pc, #136]	; (100017a8 <irq_add_tail_to_free_list+0xa8>)
10001720:	0080      	lsls	r0, r0, #2
10001722:	1be1      	subs	r1, r4, r7
10001724:	1089      	asrs	r1, r1, #2
10001726:	008a      	lsls	r2, r1, #2
10001728:	1852      	adds	r2, r2, r1
1000172a:	0113      	lsls	r3, r2, #4
1000172c:	18d2      	adds	r2, r2, r3
1000172e:	0213      	lsls	r3, r2, #8
10001730:	18d2      	adds	r2, r2, r3
10001732:	0413      	lsls	r3, r2, #16
10001734:	18d3      	adds	r3, r2, r3
10001736:	4a1d      	ldr	r2, [pc, #116]	; (100017ac <irq_add_tail_to_free_list+0xac>)
10001738:	005b      	lsls	r3, r3, #1
1000173a:	185b      	adds	r3, r3, r1
1000173c:	6891      	ldr	r1, [r2, #8]
1000173e:	5809      	ldr	r1, [r1, r0]
10001740:	42a9      	cmp	r1, r5
10001742:	d01c      	beq.n	1000177e <irq_add_tail_to_free_list+0x7e>
10001744:	2206      	movs	r2, #6
10001746:	56ba      	ldrsb	r2, [r7, r2]
10001748:	4293      	cmp	r3, r2
1000174a:	d01c      	beq.n	10001786 <irq_add_tail_to_free_list+0x86>
1000174c:	2212      	movs	r2, #18
1000174e:	56ba      	ldrsb	r2, [r7, r2]
10001750:	4293      	cmp	r3, r2
10001752:	d022      	beq.n	1000179a <irq_add_tail_to_free_list+0x9a>
10001754:	221e      	movs	r2, #30
10001756:	56ba      	ldrsb	r2, [r7, r2]
10001758:	4293      	cmp	r3, r2
1000175a:	d020      	beq.n	1000179e <irq_add_tail_to_free_list+0x9e>
1000175c:	222a      	movs	r2, #42	; 0x2a
1000175e:	56ba      	ldrsb	r2, [r7, r2]
10001760:	2103      	movs	r1, #3
10001762:	429a      	cmp	r2, r3
10001764:	d010      	beq.n	10001788 <irq_add_tail_to_free_list+0x88>
10001766:	4a12      	ldr	r2, [pc, #72]	; (100017b0 <irq_add_tail_to_free_list+0xb0>)
10001768:	7811      	ldrb	r1, [r2, #0]
1000176a:	7013      	strb	r3, [r2, #0]
1000176c:	71a1      	strb	r1, [r4, #6]
1000176e:	f3bf 8f5f 	dmb	sy
10001772:	2200      	movs	r2, #0
10001774:	4b0b      	ldr	r3, [pc, #44]	; (100017a4 <irq_add_tail_to_free_list+0xa4>)
10001776:	601a      	str	r2, [r3, #0]
10001778:	f386 8810 	msr	PRIMASK, r6
1000177c:	bdf8      	pop	{r3, r4, r5, r6, r7, pc}
1000177e:	6892      	ldr	r2, [r2, #8]
10001780:	490c      	ldr	r1, [pc, #48]	; (100017b4 <irq_add_tail_to_free_list+0xb4>)
10001782:	5011      	str	r1, [r2, r0]
10001784:	e7ef      	b.n	10001766 <irq_add_tail_to_free_list+0x66>
10001786:	2100      	movs	r1, #0
10001788:	004a      	lsls	r2, r1, #1
1000178a:	1852      	adds	r2, r2, r1
1000178c:	21ff      	movs	r1, #255	; 0xff
1000178e:	0092      	lsls	r2, r2, #2
10001790:	18ba      	adds	r2, r7, r2
10001792:	7191      	strb	r1, [r2, #6]
10001794:	4908      	ldr	r1, [pc, #32]	; (100017b8 <irq_add_tail_to_free_list+0xb8>)
10001796:	8091      	strh	r1, [r2, #4]
10001798:	e7e5      	b.n	10001766 <irq_add_tail_to_free_list+0x66>
1000179a:	2101      	movs	r1, #1
1000179c:	e7f4      	b.n	10001788 <irq_add_tail_to_free_list+0x88>
1000179e:	2102      	movs	r1, #2
100017a0:	e7f2      	b.n	10001788 <irq_add_tail_to_free_list+0x88>
100017a2:	46c0      	nop			; (mov r8, r8)
100017a4:	d0000124 	.word	0xd0000124
100017a8:	200001f8 	.word	0x200001f8
100017ac:	e000ed00 	.word	0xe000ed00
100017b0:	20000b89 	.word	0x20000b89
100017b4:	100002cd 	.word	0x100002cd
100017b8:	ffffbd00 	.word	0xffffbd00

100017bc <irq_init_priorities>:
100017bc:	b5f0      	push	{r4, r5, r6, r7, lr}
100017be:	2200      	movs	r2, #0
100017c0:	2403      	movs	r4, #3
100017c2:	27ff      	movs	r7, #255	; 0xff
100017c4:	2680      	movs	r6, #128	; 0x80
100017c6:	0020      	movs	r0, r4
100017c8:	003d      	movs	r5, r7
100017ca:	4b09      	ldr	r3, [pc, #36]	; (100017f0 <irq_init_priorities+0x34>)
100017cc:	0011      	movs	r1, r2
100017ce:	469c      	mov	ip, r3
100017d0:	4010      	ands	r0, r2
100017d2:	00c0      	lsls	r0, r0, #3
100017d4:	4085      	lsls	r5, r0
100017d6:	43a1      	bics	r1, r4
100017d8:	4461      	add	r1, ip
100017da:	680b      	ldr	r3, [r1, #0]
100017dc:	3201      	adds	r2, #1
100017de:	43ab      	bics	r3, r5
100017e0:	0035      	movs	r5, r6
100017e2:	4085      	lsls	r5, r0
100017e4:	432b      	orrs	r3, r5
100017e6:	600b      	str	r3, [r1, #0]
100017e8:	2a20      	cmp	r2, #32
100017ea:	d1ec      	bne.n	100017c6 <irq_init_priorities+0xa>
100017ec:	bdf0      	pop	{r4, r5, r6, r7, pc}
100017ee:	46c0      	nop			; (mov r8, r8)
100017f0:	e000e400 	.word	0xe000e400

100017f4 <_out_null>:
100017f4:	4770      	bx	lr
100017f6:	46c0      	nop			; (mov r8, r8)

100017f8 <_out_rev>:
100017f8:	b5f8      	push	{r3, r4, r5, r6, r7, lr}
100017fa:	4657      	mov	r7, sl
100017fc:	464e      	mov	r6, r9
100017fe:	46de      	mov	lr, fp
10001800:	4645      	mov	r5, r8
10001802:	b5e0      	push	{r5, r6, r7, lr}
10001804:	001f      	movs	r7, r3
10001806:	9b0a      	ldr	r3, [sp, #40]	; 0x28
10001808:	0005      	movs	r5, r0
1000180a:	469b      	mov	fp, r3
1000180c:	9b0d      	ldr	r3, [sp, #52]	; 0x34
1000180e:	000e      	movs	r6, r1
10001810:	4691      	mov	r9, r2
10001812:	4692      	mov	sl, r2
10001814:	079b      	lsls	r3, r3, #30
10001816:	d118      	bne.n	1000184a <_out_rev+0x52>
10001818:	9b0b      	ldr	r3, [sp, #44]	; 0x2c
1000181a:	9a0c      	ldr	r2, [sp, #48]	; 0x30
1000181c:	4293      	cmp	r3, r2
1000181e:	d214      	bcs.n	1000184a <_out_rev+0x52>
10001820:	0013      	movs	r3, r2
10001822:	9a0b      	ldr	r2, [sp, #44]	; 0x2c
10001824:	46b8      	mov	r8, r7
10001826:	1a9b      	subs	r3, r3, r2
10001828:	444b      	add	r3, r9
1000182a:	464c      	mov	r4, r9
1000182c:	000f      	movs	r7, r1
1000182e:	0006      	movs	r6, r0
10001830:	001d      	movs	r5, r3
10001832:	0022      	movs	r2, r4
10001834:	4643      	mov	r3, r8
10001836:	3401      	adds	r4, #1
10001838:	0039      	movs	r1, r7
1000183a:	2020      	movs	r0, #32
1000183c:	47b0      	blx	r6
1000183e:	42ac      	cmp	r4, r5
10001840:	d1f7      	bne.n	10001832 <_out_rev+0x3a>
10001842:	46aa      	mov	sl, r5
10001844:	0035      	movs	r5, r6
10001846:	003e      	movs	r6, r7
10001848:	4647      	mov	r7, r8
1000184a:	9b0b      	ldr	r3, [sp, #44]	; 0x2c
1000184c:	2b00      	cmp	r3, #0
1000184e:	d038      	beq.n	100018c2 <_out_rev+0xca>
10001850:	449a      	add	sl, r3
10001852:	001c      	movs	r4, r3
10001854:	46d0      	mov	r8, sl
10001856:	4653      	mov	r3, sl
10001858:	1b1a      	subs	r2, r3, r4
1000185a:	465b      	mov	r3, fp
1000185c:	3c01      	subs	r4, #1
1000185e:	5d18      	ldrb	r0, [r3, r4]
10001860:	0031      	movs	r1, r6
10001862:	003b      	movs	r3, r7
10001864:	47a8      	blx	r5
10001866:	2c00      	cmp	r4, #0
10001868:	d1f5      	bne.n	10001856 <_out_rev+0x5e>
1000186a:	9b0d      	ldr	r3, [sp, #52]	; 0x34
1000186c:	079b      	lsls	r3, r3, #30
1000186e:	d521      	bpl.n	100018b4 <_out_rev+0xbc>
10001870:	4643      	mov	r3, r8
10001872:	464a      	mov	r2, r9
10001874:	1a9c      	subs	r4, r3, r2
10001876:	9b0c      	ldr	r3, [sp, #48]	; 0x30
10001878:	42a3      	cmp	r3, r4
1000187a:	d91b      	bls.n	100018b4 <_out_rev+0xbc>
1000187c:	003a      	movs	r2, r7
1000187e:	469a      	mov	sl, r3
10001880:	464f      	mov	r7, r9
10001882:	4691      	mov	r9, r2
10001884:	19e2      	adds	r2, r4, r7
10001886:	464b      	mov	r3, r9
10001888:	0031      	movs	r1, r6
1000188a:	2020      	movs	r0, #32
1000188c:	3401      	adds	r4, #1
1000188e:	47a8      	blx	r5
10001890:	4554      	cmp	r4, sl
10001892:	d3f7      	bcc.n	10001884 <_out_rev+0x8c>
10001894:	4643      	mov	r3, r8
10001896:	990c      	ldr	r1, [sp, #48]	; 0x30
10001898:	1bdb      	subs	r3, r3, r7
1000189a:	3301      	adds	r3, #1
1000189c:	46b9      	mov	r9, r7
1000189e:	2200      	movs	r2, #0
100018a0:	4299      	cmp	r1, r3
100018a2:	d303      	bcc.n	100018ac <_out_rev+0xb4>
100018a4:	4643      	mov	r3, r8
100018a6:	1e4a      	subs	r2, r1, #1
100018a8:	444a      	add	r2, r9
100018aa:	1ad2      	subs	r2, r2, r3
100018ac:	4643      	mov	r3, r8
100018ae:	4690      	mov	r8, r2
100018b0:	3301      	adds	r3, #1
100018b2:	4498      	add	r8, r3
100018b4:	4640      	mov	r0, r8
100018b6:	bc3c      	pop	{r2, r3, r4, r5}
100018b8:	4690      	mov	r8, r2
100018ba:	4699      	mov	r9, r3
100018bc:	46a2      	mov	sl, r4
100018be:	46ab      	mov	fp, r5
100018c0:	bdf8      	pop	{r3, r4, r5, r6, r7, pc}
100018c2:	46d0      	mov	r8, sl
100018c4:	e7d1      	b.n	1000186a <_out_rev+0x72>
100018c6:	46c0      	nop			; (mov r8, r8)

100018c8 <_ntoa_format>:
100018c8:	b5f0      	push	{r4, r5, r6, r7, lr}
100018ca:	464f      	mov	r7, r9
100018cc:	4646      	mov	r6, r8
100018ce:	46d6      	mov	lr, sl
100018d0:	b5c0      	push	{r6, r7, lr}
100018d2:	b084      	sub	sp, #16
100018d4:	4698      	mov	r8, r3
100018d6:	ab0e      	add	r3, sp, #56	; 0x38
100018d8:	781b      	ldrb	r3, [r3, #0]
100018da:	9f12      	ldr	r7, [sp, #72]	; 0x48
100018dc:	4699      	mov	r9, r3
100018de:	4694      	mov	ip, r2
100018e0:	9c0d      	ldr	r4, [sp, #52]	; 0x34
100018e2:	9b10      	ldr	r3, [sp, #64]	; 0x40
100018e4:	9e11      	ldr	r6, [sp, #68]	; 0x44
100018e6:	07ba      	lsls	r2, r7, #30
100018e8:	d425      	bmi.n	10001936 <_ntoa_format+0x6e>
100018ea:	2e00      	cmp	r6, #0
100018ec:	d169      	bne.n	100019c2 <_ntoa_format+0xfa>
100018ee:	429c      	cmp	r4, r3
100018f0:	d300      	bcc.n	100018f4 <_ntoa_format+0x2c>
100018f2:	e0c2      	b.n	10001a7a <_ntoa_format+0x1b2>
100018f4:	2201      	movs	r2, #1
100018f6:	403a      	ands	r2, r7
100018f8:	4692      	mov	sl, r2
100018fa:	2c1f      	cmp	r4, #31
100018fc:	d900      	bls.n	10001900 <_ntoa_format+0x38>
100018fe:	e0bb      	b.n	10001a78 <_ntoa_format+0x1b0>
10001900:	9a0c      	ldr	r2, [sp, #48]	; 0x30
10001902:	1e55      	subs	r5, r2, #1
10001904:	2230      	movs	r2, #48	; 0x30
10001906:	e001      	b.n	1000190c <_ntoa_format+0x44>
10001908:	2c20      	cmp	r4, #32
1000190a:	d003      	beq.n	10001914 <_ntoa_format+0x4c>
1000190c:	3401      	adds	r4, #1
1000190e:	552a      	strb	r2, [r5, r4]
10001910:	42a3      	cmp	r3, r4
10001912:	d8f9      	bhi.n	10001908 <_ntoa_format+0x40>
10001914:	4652      	mov	r2, sl
10001916:	2a00      	cmp	r2, #0
10001918:	d00d      	beq.n	10001936 <_ntoa_format+0x6e>
1000191a:	42b4      	cmp	r4, r6
1000191c:	d20b      	bcs.n	10001936 <_ntoa_format+0x6e>
1000191e:	2c1f      	cmp	r4, #31
10001920:	d862      	bhi.n	100019e8 <_ntoa_format+0x120>
10001922:	9a0c      	ldr	r2, [sp, #48]	; 0x30
10001924:	1e55      	subs	r5, r2, #1
10001926:	2230      	movs	r2, #48	; 0x30
10001928:	e001      	b.n	1000192e <_ntoa_format+0x66>
1000192a:	2c20      	cmp	r4, #32
1000192c:	d05c      	beq.n	100019e8 <_ntoa_format+0x120>
1000192e:	3401      	adds	r4, #1
10001930:	552a      	strb	r2, [r5, r4]
10001932:	42b4      	cmp	r4, r6
10001934:	d1f9      	bne.n	1000192a <_ntoa_format+0x62>
10001936:	06fa      	lsls	r2, r7, #27
10001938:	d535      	bpl.n	100019a6 <_ntoa_format+0xde>
1000193a:	057a      	lsls	r2, r7, #21
1000193c:	d45d      	bmi.n	100019fa <_ntoa_format+0x132>
1000193e:	2c00      	cmp	r4, #0
10001940:	d157      	bne.n	100019f2 <_ntoa_format+0x12a>
10001942:	9b0f      	ldr	r3, [sp, #60]	; 0x3c
10001944:	2b10      	cmp	r3, #16
10001946:	d100      	bne.n	1000194a <_ntoa_format+0x82>
10001948:	e07c      	b.n	10001a44 <_ntoa_format+0x17c>
1000194a:	9b0f      	ldr	r3, [sp, #60]	; 0x3c
1000194c:	2b02      	cmp	r3, #2
1000194e:	d100      	bne.n	10001952 <_ntoa_format+0x8a>
10001950:	e08d      	b.n	10001a6e <_ntoa_format+0x1a6>
10001952:	2330      	movs	r3, #48	; 0x30
10001954:	9a0c      	ldr	r2, [sp, #48]	; 0x30
10001956:	2401      	movs	r4, #1
10001958:	7013      	strb	r3, [r2, #0]
1000195a:	464b      	mov	r3, r9
1000195c:	2b00      	cmp	r3, #0
1000195e:	d027      	beq.n	100019b0 <_ntoa_format+0xe8>
10001960:	232d      	movs	r3, #45	; 0x2d
10001962:	9a0c      	ldr	r2, [sp, #48]	; 0x30
10001964:	5513      	strb	r3, [r2, r4]
10001966:	3401      	adds	r4, #1
10001968:	9b0c      	ldr	r3, [sp, #48]	; 0x30
1000196a:	4662      	mov	r2, ip
1000196c:	9300      	str	r3, [sp, #0]
1000196e:	9703      	str	r7, [sp, #12]
10001970:	4643      	mov	r3, r8
10001972:	9602      	str	r6, [sp, #8]
10001974:	9401      	str	r4, [sp, #4]
10001976:	f7ff ff3f 	bl	100017f8 <_out_rev>
1000197a:	b004      	add	sp, #16
1000197c:	bc1c      	pop	{r2, r3, r4}
1000197e:	4690      	mov	r8, r2
10001980:	4699      	mov	r9, r3
10001982:	46a2      	mov	sl, r4
10001984:	bdf0      	pop	{r4, r5, r6, r7, pc}
10001986:	06bb      	lsls	r3, r7, #26
10001988:	d463      	bmi.n	10001a52 <_ntoa_format+0x18a>
1000198a:	2c20      	cmp	r4, #32
1000198c:	d0ec      	beq.n	10001968 <_ntoa_format+0xa0>
1000198e:	9b0c      	ldr	r3, [sp, #48]	; 0x30
10001990:	191a      	adds	r2, r3, r4
10001992:	3401      	adds	r4, #1
10001994:	2378      	movs	r3, #120	; 0x78
10001996:	7013      	strb	r3, [r2, #0]
10001998:	2c20      	cmp	r4, #32
1000199a:	d0e5      	beq.n	10001968 <_ntoa_format+0xa0>
1000199c:	2230      	movs	r2, #48	; 0x30
1000199e:	9b0c      	ldr	r3, [sp, #48]	; 0x30
100019a0:	191b      	adds	r3, r3, r4
100019a2:	701a      	strb	r2, [r3, #0]
100019a4:	3401      	adds	r4, #1
100019a6:	2c20      	cmp	r4, #32
100019a8:	d0de      	beq.n	10001968 <_ntoa_format+0xa0>
100019aa:	464b      	mov	r3, r9
100019ac:	2b00      	cmp	r3, #0
100019ae:	d1d7      	bne.n	10001960 <_ntoa_format+0x98>
100019b0:	077b      	lsls	r3, r7, #29
100019b2:	d435      	bmi.n	10001a20 <_ntoa_format+0x158>
100019b4:	073b      	lsls	r3, r7, #28
100019b6:	d5d7      	bpl.n	10001968 <_ntoa_format+0xa0>
100019b8:	2320      	movs	r3, #32
100019ba:	9a0c      	ldr	r2, [sp, #48]	; 0x30
100019bc:	5513      	strb	r3, [r2, r4]
100019be:	3401      	adds	r4, #1
100019c0:	e7d2      	b.n	10001968 <_ntoa_format+0xa0>
100019c2:	2201      	movs	r2, #1
100019c4:	0015      	movs	r5, r2
100019c6:	403d      	ands	r5, r7
100019c8:	46aa      	mov	sl, r5
100019ca:	423a      	tst	r2, r7
100019cc:	d020      	beq.n	10001a10 <_ntoa_format+0x148>
100019ce:	464a      	mov	r2, r9
100019d0:	2a00      	cmp	r2, #0
100019d2:	d12a      	bne.n	10001a2a <_ntoa_format+0x162>
100019d4:	320c      	adds	r2, #12
100019d6:	423a      	tst	r2, r7
100019d8:	d127      	bne.n	10001a2a <_ntoa_format+0x162>
100019da:	429c      	cmp	r4, r3
100019dc:	d29d      	bcs.n	1000191a <_ntoa_format+0x52>
100019de:	2c1f      	cmp	r4, #31
100019e0:	d800      	bhi.n	100019e4 <_ntoa_format+0x11c>
100019e2:	e78d      	b.n	10001900 <_ntoa_format+0x38>
100019e4:	2e20      	cmp	r6, #32
100019e6:	d919      	bls.n	10001a1c <_ntoa_format+0x154>
100019e8:	2420      	movs	r4, #32
100019ea:	06fa      	lsls	r2, r7, #27
100019ec:	d5bc      	bpl.n	10001968 <_ntoa_format+0xa0>
100019ee:	057a      	lsls	r2, r7, #21
100019f0:	d403      	bmi.n	100019fa <_ntoa_format+0x132>
100019f2:	42a3      	cmp	r3, r4
100019f4:	d01b      	beq.n	10001a2e <_ntoa_format+0x166>
100019f6:	42a6      	cmp	r6, r4
100019f8:	d019      	beq.n	10001a2e <_ntoa_format+0x166>
100019fa:	9b0f      	ldr	r3, [sp, #60]	; 0x3c
100019fc:	2b10      	cmp	r3, #16
100019fe:	d0c2      	beq.n	10001986 <_ntoa_format+0xbe>
10001a00:	2b02      	cmp	r3, #2
10001a02:	d1c9      	bne.n	10001998 <_ntoa_format+0xd0>
10001a04:	2c20      	cmp	r4, #32
10001a06:	d0af      	beq.n	10001968 <_ntoa_format+0xa0>
10001a08:	9b0c      	ldr	r3, [sp, #48]	; 0x30
10001a0a:	191b      	adds	r3, r3, r4
10001a0c:	3401      	adds	r4, #1
10001a0e:	e040      	b.n	10001a92 <_ntoa_format+0x1ca>
10001a10:	429c      	cmp	r4, r3
10001a12:	d300      	bcc.n	10001a16 <_ntoa_format+0x14e>
10001a14:	e78f      	b.n	10001936 <_ntoa_format+0x6e>
10001a16:	2c1f      	cmp	r4, #31
10001a18:	d800      	bhi.n	10001a1c <_ntoa_format+0x154>
10001a1a:	e771      	b.n	10001900 <_ntoa_format+0x38>
10001a1c:	2420      	movs	r4, #32
10001a1e:	e78a      	b.n	10001936 <_ntoa_format+0x6e>
10001a20:	232b      	movs	r3, #43	; 0x2b
10001a22:	9a0c      	ldr	r2, [sp, #48]	; 0x30
10001a24:	5513      	strb	r3, [r2, r4]
10001a26:	3401      	adds	r4, #1
10001a28:	e79e      	b.n	10001968 <_ntoa_format+0xa0>
10001a2a:	3e01      	subs	r6, #1
10001a2c:	e7d5      	b.n	100019da <_ntoa_format+0x112>
10001a2e:	1e63      	subs	r3, r4, #1
10001a30:	2c01      	cmp	r4, #1
10001a32:	d100      	bne.n	10001a36 <_ntoa_format+0x16e>
10001a34:	e785      	b.n	10001942 <_ntoa_format+0x7a>
10001a36:	9a0f      	ldr	r2, [sp, #60]	; 0x3c
10001a38:	2a10      	cmp	r2, #16
10001a3a:	d020      	beq.n	10001a7e <_ntoa_format+0x1b6>
10001a3c:	2a02      	cmp	r2, #2
10001a3e:	d025      	beq.n	10001a8c <_ntoa_format+0x1c4>
10001a40:	001c      	movs	r4, r3
10001a42:	e7ab      	b.n	1000199c <_ntoa_format+0xd4>
10001a44:	06bb      	lsls	r3, r7, #26
10001a46:	d40d      	bmi.n	10001a64 <_ntoa_format+0x19c>
10001a48:	2378      	movs	r3, #120	; 0x78
10001a4a:	9a0c      	ldr	r2, [sp, #48]	; 0x30
10001a4c:	2401      	movs	r4, #1
10001a4e:	7013      	strb	r3, [r2, #0]
10001a50:	e7a4      	b.n	1000199c <_ntoa_format+0xd4>
10001a52:	2c20      	cmp	r4, #32
10001a54:	d100      	bne.n	10001a58 <_ntoa_format+0x190>
10001a56:	e787      	b.n	10001968 <_ntoa_format+0xa0>
10001a58:	2258      	movs	r2, #88	; 0x58
10001a5a:	9b0c      	ldr	r3, [sp, #48]	; 0x30
10001a5c:	191b      	adds	r3, r3, r4
10001a5e:	701a      	strb	r2, [r3, #0]
10001a60:	3401      	adds	r4, #1
10001a62:	e799      	b.n	10001998 <_ntoa_format+0xd0>
10001a64:	2358      	movs	r3, #88	; 0x58
10001a66:	9a0c      	ldr	r2, [sp, #48]	; 0x30
10001a68:	2401      	movs	r4, #1
10001a6a:	7013      	strb	r3, [r2, #0]
10001a6c:	e796      	b.n	1000199c <_ntoa_format+0xd4>
10001a6e:	9a0c      	ldr	r2, [sp, #48]	; 0x30
10001a70:	3360      	adds	r3, #96	; 0x60
10001a72:	2401      	movs	r4, #1
10001a74:	7013      	strb	r3, [r2, #0]
10001a76:	e791      	b.n	1000199c <_ntoa_format+0xd4>
10001a78:	2420      	movs	r4, #32
10001a7a:	2600      	movs	r6, #0
10001a7c:	e75b      	b.n	10001936 <_ntoa_format+0x6e>
10001a7e:	3c02      	subs	r4, #2
10001a80:	06ba      	lsls	r2, r7, #26
10001a82:	d4e9      	bmi.n	10001a58 <_ntoa_format+0x190>
10001a84:	9a0c      	ldr	r2, [sp, #48]	; 0x30
10001a86:	1912      	adds	r2, r2, r4
10001a88:	001c      	movs	r4, r3
10001a8a:	e783      	b.n	10001994 <_ntoa_format+0xcc>
10001a8c:	9a0c      	ldr	r2, [sp, #48]	; 0x30
10001a8e:	4692      	mov	sl, r2
10001a90:	4453      	add	r3, sl
10001a92:	2262      	movs	r2, #98	; 0x62
10001a94:	701a      	strb	r2, [r3, #0]
10001a96:	e77f      	b.n	10001998 <_ntoa_format+0xd0>

10001a98 <_out_char>:
10001a98:	b510      	push	{r4, lr}
10001a9a:	2800      	cmp	r0, #0
10001a9c:	d100      	bne.n	10001aa0 <_out_char+0x8>
10001a9e:	bd10      	pop	{r4, pc}
10001aa0:	f002 fa46 	bl	10003f30 <__wrap_putchar>
10001aa4:	e7fb      	b.n	10001a9e <_out_char+0x6>
10001aa6:	46c0      	nop			; (mov r8, r8)

10001aa8 <_out_fct>:
10001aa8:	000b      	movs	r3, r1
10001aaa:	b510      	push	{r4, lr}
10001aac:	2800      	cmp	r0, #0
10001aae:	d002      	beq.n	10001ab6 <_out_fct+0xe>
10001ab0:	6849      	ldr	r1, [r1, #4]
10001ab2:	681b      	ldr	r3, [r3, #0]
10001ab4:	4798      	blx	r3
10001ab6:	bd10      	pop	{r4, pc}

10001ab8 <_etoa>:
10001ab8:	b5f0      	push	{r4, r5, r6, r7, lr}
10001aba:	46de      	mov	lr, fp
10001abc:	4657      	mov	r7, sl
10001abe:	464e      	mov	r6, r9
10001ac0:	4645      	mov	r5, r8
10001ac2:	b5e0      	push	{r5, r6, r7, lr}
10001ac4:	b09b      	sub	sp, #108	; 0x6c
10001ac6:	469a      	mov	sl, r3
10001ac8:	9b24      	ldr	r3, [sp, #144]	; 0x90
10001aca:	468b      	mov	fp, r1
10001acc:	4699      	mov	r9, r3
10001ace:	9b25      	ldr	r3, [sp, #148]	; 0x94
10001ad0:	900b      	str	r0, [sp, #44]	; 0x2c
10001ad2:	4698      	mov	r8, r3
10001ad4:	920c      	str	r2, [sp, #48]	; 0x30
10001ad6:	4643      	mov	r3, r8
10001ad8:	464a      	mov	r2, r9
10001ada:	4648      	mov	r0, r9
10001adc:	4641      	mov	r1, r8
10001ade:	f001 fccc 	bl	1000347a <__wrap___aeabi_dcmpun>
10001ae2:	2800      	cmp	r0, #0
10001ae4:	d000      	beq.n	10001ae8 <_etoa+0x30>
10001ae6:	e1a3      	b.n	10001e30 <_etoa+0x378>
10001ae8:	2201      	movs	r2, #1
10001aea:	4648      	mov	r0, r9
10001aec:	4641      	mov	r1, r8
10001aee:	4be2      	ldr	r3, [pc, #904]	; (10001e78 <_etoa+0x3c0>)
10001af0:	4252      	negs	r2, r2
10001af2:	f001 fcbd 	bl	10003470 <__wrap___aeabi_dcmpgt>
10001af6:	2800      	cmp	r0, #0
10001af8:	d000      	beq.n	10001afc <_etoa+0x44>
10001afa:	e199      	b.n	10001e30 <_etoa+0x378>
10001afc:	2201      	movs	r2, #1
10001afe:	4648      	mov	r0, r9
10001b00:	4641      	mov	r1, r8
10001b02:	4bde      	ldr	r3, [pc, #888]	; (10001e7c <_etoa+0x3c4>)
10001b04:	4252      	negs	r2, r2
10001b06:	f001 fc9d 	bl	10003444 <__wrap___aeabi_dcmplt>
10001b0a:	2800      	cmp	r0, #0
10001b0c:	d000      	beq.n	10001b10 <_etoa+0x58>
10001b0e:	e18f      	b.n	10001e30 <_etoa+0x378>
10001b10:	2200      	movs	r2, #0
10001b12:	2300      	movs	r3, #0
10001b14:	4648      	mov	r0, r9
10001b16:	4641      	mov	r1, r8
10001b18:	f001 fc94 	bl	10003444 <__wrap___aeabi_dcmplt>
10001b1c:	2800      	cmp	r0, #0
10001b1e:	d000      	beq.n	10001b22 <_etoa+0x6a>
10001b20:	e1de      	b.n	10001ee0 <_etoa+0x428>
10001b22:	464a      	mov	r2, r9
10001b24:	4643      	mov	r3, r8
10001b26:	920a      	str	r2, [sp, #40]	; 0x28
10001b28:	9309      	str	r3, [sp, #36]	; 0x24
10001b2a:	2380      	movs	r3, #128	; 0x80
10001b2c:	9a28      	ldr	r2, [sp, #160]	; 0xa0
10001b2e:	00db      	lsls	r3, r3, #3
10001b30:	401a      	ands	r2, r3
10001b32:	9211      	str	r2, [sp, #68]	; 0x44
10001b34:	9a28      	ldr	r2, [sp, #160]	; 0xa0
10001b36:	421a      	tst	r2, r3
10001b38:	d101      	bne.n	10001b3e <_etoa+0x86>
10001b3a:	2306      	movs	r3, #6
10001b3c:	9326      	str	r3, [sp, #152]	; 0x98
10001b3e:	4bd0      	ldr	r3, [pc, #832]	; (10001e80 <_etoa+0x3c8>)
10001b40:	9f09      	ldr	r7, [sp, #36]	; 0x24
10001b42:	469c      	mov	ip, r3
10001b44:	0078      	lsls	r0, r7, #1
10001b46:	0d40      	lsrs	r0, r0, #21
10001b48:	4460      	add	r0, ip
10001b4a:	f001 fca9 	bl	100034a0 <__wrap___aeabi_i2d>
10001b4e:	4acd      	ldr	r2, [pc, #820]	; (10001e84 <_etoa+0x3cc>)
10001b50:	4bcd      	ldr	r3, [pc, #820]	; (10001e88 <_etoa+0x3d0>)
10001b52:	f001 fc35 	bl	100033c0 <__wrap___aeabi_dmul>
10001b56:	4acd      	ldr	r2, [pc, #820]	; (10001e8c <_etoa+0x3d4>)
10001b58:	4bcd      	ldr	r3, [pc, #820]	; (10001e90 <_etoa+0x3d8>)
10001b5a:	f001 fc1f 	bl	1000339c <__wrap___aeabi_dadd>
10001b5e:	033b      	lsls	r3, r7, #12
10001b60:	4acc      	ldr	r2, [pc, #816]	; (10001e94 <_etoa+0x3dc>)
10001b62:	9e0a      	ldr	r6, [sp, #40]	; 0x28
10001b64:	0b1b      	lsrs	r3, r3, #12
10001b66:	431a      	orrs	r2, r3
10001b68:	0004      	movs	r4, r0
10001b6a:	000d      	movs	r5, r1
10001b6c:	0030      	movs	r0, r6
10001b6e:	0011      	movs	r1, r2
10001b70:	4bc9      	ldr	r3, [pc, #804]	; (10001e98 <_etoa+0x3e0>)
10001b72:	2200      	movs	r2, #0
10001b74:	9709      	str	r7, [sp, #36]	; 0x24
10001b76:	f001 fc08 	bl	1000338a <__wrap___aeabi_dsub>
10001b7a:	4ac8      	ldr	r2, [pc, #800]	; (10001e9c <_etoa+0x3e4>)
10001b7c:	4bc8      	ldr	r3, [pc, #800]	; (10001ea0 <_etoa+0x3e8>)
10001b7e:	f001 fc1f 	bl	100033c0 <__wrap___aeabi_dmul>
10001b82:	0002      	movs	r2, r0
10001b84:	000b      	movs	r3, r1
10001b86:	0020      	movs	r0, r4
10001b88:	0029      	movs	r1, r5
10001b8a:	f001 fc07 	bl	1000339c <__wrap___aeabi_dadd>
10001b8e:	f001 fc9f 	bl	100034d0 <__wrap___aeabi_d2iz>
10001b92:	900d      	str	r0, [sp, #52]	; 0x34
10001b94:	f001 fc84 	bl	100034a0 <__wrap___aeabi_i2d>
10001b98:	4ac2      	ldr	r2, [pc, #776]	; (10001ea4 <_etoa+0x3ec>)
10001b9a:	4bc3      	ldr	r3, [pc, #780]	; (10001ea8 <_etoa+0x3f0>)
10001b9c:	0004      	movs	r4, r0
10001b9e:	000d      	movs	r5, r1
10001ba0:	f001 fc0e 	bl	100033c0 <__wrap___aeabi_dmul>
10001ba4:	2200      	movs	r2, #0
10001ba6:	4bc1      	ldr	r3, [pc, #772]	; (10001eac <_etoa+0x3f4>)
10001ba8:	f001 fbf8 	bl	1000339c <__wrap___aeabi_dadd>
10001bac:	f001 fc90 	bl	100034d0 <__wrap___aeabi_d2iz>
10001bb0:	4abf      	ldr	r2, [pc, #764]	; (10001eb0 <_etoa+0x3f8>)
10001bb2:	0006      	movs	r6, r0
10001bb4:	4bbf      	ldr	r3, [pc, #764]	; (10001eb4 <_etoa+0x3fc>)
10001bb6:	0020      	movs	r0, r4
10001bb8:	0029      	movs	r1, r5
10001bba:	f001 fc01 	bl	100033c0 <__wrap___aeabi_dmul>
10001bbe:	0004      	movs	r4, r0
10001bc0:	0030      	movs	r0, r6
10001bc2:	000d      	movs	r5, r1
10001bc4:	9610      	str	r6, [sp, #64]	; 0x40
10001bc6:	f001 fc6b 	bl	100034a0 <__wrap___aeabi_i2d>
10001bca:	4abb      	ldr	r2, [pc, #748]	; (10001eb8 <_etoa+0x400>)
10001bcc:	4bbb      	ldr	r3, [pc, #748]	; (10001ebc <_etoa+0x404>)
10001bce:	f001 fbf7 	bl	100033c0 <__wrap___aeabi_dmul>
10001bd2:	0002      	movs	r2, r0
10001bd4:	000b      	movs	r3, r1
10001bd6:	0020      	movs	r0, r4
10001bd8:	0029      	movs	r1, r5
10001bda:	f001 fbd6 	bl	1000338a <__wrap___aeabi_dsub>
10001bde:	0002      	movs	r2, r0
10001be0:	000b      	movs	r3, r1
10001be2:	0006      	movs	r6, r0
10001be4:	000f      	movs	r7, r1
10001be6:	f001 fbeb 	bl	100033c0 <__wrap___aeabi_dmul>
10001bea:	0032      	movs	r2, r6
10001bec:	0004      	movs	r4, r0
10001bee:	000d      	movs	r5, r1
10001bf0:	003b      	movs	r3, r7
10001bf2:	0030      	movs	r0, r6
10001bf4:	0039      	movs	r1, r7
10001bf6:	f001 fbd1 	bl	1000339c <__wrap___aeabi_dadd>
10001bfa:	2200      	movs	r2, #0
10001bfc:	900e      	str	r0, [sp, #56]	; 0x38
10001bfe:	910f      	str	r1, [sp, #60]	; 0x3c
10001c00:	4baf      	ldr	r3, [pc, #700]	; (10001ec0 <_etoa+0x408>)
10001c02:	0020      	movs	r0, r4
10001c04:	0029      	movs	r1, r5
10001c06:	f001 fbd2 	bl	100033ae <__wrap___aeabi_ddiv>
10001c0a:	2200      	movs	r2, #0
10001c0c:	4bad      	ldr	r3, [pc, #692]	; (10001ec4 <_etoa+0x40c>)
10001c0e:	f001 fbc5 	bl	1000339c <__wrap___aeabi_dadd>
10001c12:	0002      	movs	r2, r0
10001c14:	000b      	movs	r3, r1
10001c16:	0020      	movs	r0, r4
10001c18:	0029      	movs	r1, r5
10001c1a:	f001 fbc8 	bl	100033ae <__wrap___aeabi_ddiv>
10001c1e:	2200      	movs	r2, #0
10001c20:	4ba9      	ldr	r3, [pc, #676]	; (10001ec8 <_etoa+0x410>)
10001c22:	f001 fbbb 	bl	1000339c <__wrap___aeabi_dadd>
10001c26:	0002      	movs	r2, r0
10001c28:	000b      	movs	r3, r1
10001c2a:	0020      	movs	r0, r4
10001c2c:	0029      	movs	r1, r5
10001c2e:	f001 fbbe 	bl	100033ae <__wrap___aeabi_ddiv>
10001c32:	000d      	movs	r5, r1
10001c34:	2180      	movs	r1, #128	; 0x80
10001c36:	0004      	movs	r4, r0
10001c38:	0032      	movs	r2, r6
10001c3a:	003b      	movs	r3, r7
10001c3c:	2000      	movs	r0, #0
10001c3e:	05c9      	lsls	r1, r1, #23
10001c40:	f001 fba3 	bl	1000338a <__wrap___aeabi_dsub>
10001c44:	0002      	movs	r2, r0
10001c46:	000b      	movs	r3, r1
10001c48:	0020      	movs	r0, r4
10001c4a:	0029      	movs	r1, r5
10001c4c:	f001 fba6 	bl	1000339c <__wrap___aeabi_dadd>
10001c50:	0002      	movs	r2, r0
10001c52:	000b      	movs	r3, r1
10001c54:	980e      	ldr	r0, [sp, #56]	; 0x38
10001c56:	990f      	ldr	r1, [sp, #60]	; 0x3c
10001c58:	f001 fba9 	bl	100033ae <__wrap___aeabi_ddiv>
10001c5c:	2200      	movs	r2, #0
10001c5e:	4b8d      	ldr	r3, [pc, #564]	; (10001e94 <_etoa+0x3dc>)
10001c60:	f001 fb9c 	bl	1000339c <__wrap___aeabi_dadd>
10001c64:	9b10      	ldr	r3, [sp, #64]	; 0x40
10001c66:	4a99      	ldr	r2, [pc, #612]	; (10001ecc <_etoa+0x414>)
10001c68:	001c      	movs	r4, r3
10001c6a:	4694      	mov	ip, r2
10001c6c:	4464      	add	r4, ip
10001c6e:	2200      	movs	r2, #0
10001c70:	0523      	lsls	r3, r4, #20
10001c72:	f001 fba5 	bl	100033c0 <__wrap___aeabi_dmul>
10001c76:	0006      	movs	r6, r0
10001c78:	000f      	movs	r7, r1
10001c7a:	0002      	movs	r2, r0
10001c7c:	000b      	movs	r3, r1
10001c7e:	980a      	ldr	r0, [sp, #40]	; 0x28
10001c80:	9909      	ldr	r1, [sp, #36]	; 0x24
10001c82:	f001 fbdf 	bl	10003444 <__wrap___aeabi_dcmplt>
10001c86:	2800      	cmp	r0, #0
10001c88:	d00a      	beq.n	10001ca0 <_etoa+0x1e8>
10001c8a:	9b0d      	ldr	r3, [sp, #52]	; 0x34
10001c8c:	0030      	movs	r0, r6
10001c8e:	3b01      	subs	r3, #1
10001c90:	0039      	movs	r1, r7
10001c92:	930d      	str	r3, [sp, #52]	; 0x34
10001c94:	2200      	movs	r2, #0
10001c96:	4b8b      	ldr	r3, [pc, #556]	; (10001ec4 <_etoa+0x40c>)
10001c98:	f001 fb89 	bl	100033ae <__wrap___aeabi_ddiv>
10001c9c:	0006      	movs	r6, r0
10001c9e:	000f      	movs	r7, r1
10001ca0:	9d0d      	ldr	r5, [sp, #52]	; 0x34
10001ca2:	24c6      	movs	r4, #198	; 0xc6
10001ca4:	002b      	movs	r3, r5
10001ca6:	3363      	adds	r3, #99	; 0x63
10001ca8:	429c      	cmp	r4, r3
10001caa:	41a4      	sbcs	r4, r4
10001cac:	9b28      	ldr	r3, [sp, #160]	; 0xa0
10001cae:	4264      	negs	r4, r4
10001cb0:	3404      	adds	r4, #4
10001cb2:	051b      	lsls	r3, r3, #20
10001cb4:	d51f      	bpl.n	10001cf6 <_etoa+0x23e>
10001cb6:	4a86      	ldr	r2, [pc, #536]	; (10001ed0 <_etoa+0x418>)
10001cb8:	4b86      	ldr	r3, [pc, #536]	; (10001ed4 <_etoa+0x41c>)
10001cba:	980a      	ldr	r0, [sp, #40]	; 0x28
10001cbc:	9909      	ldr	r1, [sp, #36]	; 0x24
10001cbe:	f001 fbcf 	bl	10003460 <__wrap___aeabi_dcmpge>
10001cc2:	2800      	cmp	r0, #0
10001cc4:	d100      	bne.n	10001cc8 <_etoa+0x210>
10001cc6:	e0cc      	b.n	10001e62 <_etoa+0x3aa>
10001cc8:	2200      	movs	r2, #0
10001cca:	4b83      	ldr	r3, [pc, #524]	; (10001ed8 <_etoa+0x420>)
10001ccc:	980a      	ldr	r0, [sp, #40]	; 0x28
10001cce:	9909      	ldr	r1, [sp, #36]	; 0x24
10001cd0:	f001 fbb8 	bl	10003444 <__wrap___aeabi_dcmplt>
10001cd4:	2800      	cmp	r0, #0
10001cd6:	d100      	bne.n	10001cda <_etoa+0x222>
10001cd8:	e0c3      	b.n	10001e62 <_etoa+0x3aa>
10001cda:	9a26      	ldr	r2, [sp, #152]	; 0x98
10001cdc:	4295      	cmp	r5, r2
10001cde:	da00      	bge.n	10001ce2 <_etoa+0x22a>
10001ce0:	e10b      	b.n	10001efa <_etoa+0x442>
10001ce2:	2300      	movs	r3, #0
10001ce4:	9326      	str	r3, [sp, #152]	; 0x98
10001ce6:	2380      	movs	r3, #128	; 0x80
10001ce8:	9a28      	ldr	r2, [sp, #160]	; 0xa0
10001cea:	00db      	lsls	r3, r3, #3
10001cec:	431a      	orrs	r2, r3
10001cee:	2300      	movs	r3, #0
10001cf0:	2400      	movs	r4, #0
10001cf2:	9228      	str	r2, [sp, #160]	; 0xa0
10001cf4:	930d      	str	r3, [sp, #52]	; 0x34
10001cf6:	9b27      	ldr	r3, [sp, #156]	; 0x9c
10001cf8:	2500      	movs	r5, #0
10001cfa:	42a3      	cmp	r3, r4
10001cfc:	d900      	bls.n	10001d00 <_etoa+0x248>
10001cfe:	1b1d      	subs	r5, r3, r4
10001d00:	2302      	movs	r3, #2
10001d02:	9a28      	ldr	r2, [sp, #160]	; 0xa0
10001d04:	401a      	ands	r2, r3
10001d06:	9210      	str	r2, [sp, #64]	; 0x40
10001d08:	9a28      	ldr	r2, [sp, #160]	; 0xa0
10001d0a:	4213      	tst	r3, r2
10001d0c:	d003      	beq.n	10001d16 <_etoa+0x25e>
10001d0e:	4263      	negs	r3, r4
10001d10:	4163      	adcs	r3, r4
10001d12:	425b      	negs	r3, r3
10001d14:	401d      	ands	r5, r3
10001d16:	9b0d      	ldr	r3, [sp, #52]	; 0x34
10001d18:	2b00      	cmp	r3, #0
10001d1a:	d007      	beq.n	10001d2c <_etoa+0x274>
10001d1c:	980a      	ldr	r0, [sp, #40]	; 0x28
10001d1e:	9909      	ldr	r1, [sp, #36]	; 0x24
10001d20:	0032      	movs	r2, r6
10001d22:	003b      	movs	r3, r7
10001d24:	f001 fb43 	bl	100033ae <__wrap___aeabi_ddiv>
10001d28:	900a      	str	r0, [sp, #40]	; 0x28
10001d2a:	9109      	str	r1, [sp, #36]	; 0x24
10001d2c:	2200      	movs	r2, #0
10001d2e:	2300      	movs	r3, #0
10001d30:	4648      	mov	r0, r9
10001d32:	4641      	mov	r1, r8
10001d34:	f001 fb86 	bl	10003444 <__wrap___aeabi_dcmplt>
10001d38:	2800      	cmp	r0, #0
10001d3a:	d005      	beq.n	10001d48 <_etoa+0x290>
10001d3c:	2080      	movs	r0, #128	; 0x80
10001d3e:	0600      	lsls	r0, r0, #24
10001d40:	4684      	mov	ip, r0
10001d42:	9909      	ldr	r1, [sp, #36]	; 0x24
10001d44:	4461      	add	r1, ip
10001d46:	9109      	str	r1, [sp, #36]	; 0x24
10001d48:	9a28      	ldr	r2, [sp, #160]	; 0xa0
10001d4a:	4b64      	ldr	r3, [pc, #400]	; (10001edc <_etoa+0x424>)
10001d4c:	9e0b      	ldr	r6, [sp, #44]	; 0x2c
10001d4e:	4013      	ands	r3, r2
10001d50:	9304      	str	r3, [sp, #16]
10001d52:	9b26      	ldr	r3, [sp, #152]	; 0x98
10001d54:	9a0a      	ldr	r2, [sp, #40]	; 0x28
10001d56:	9302      	str	r3, [sp, #8]
10001d58:	9b09      	ldr	r3, [sp, #36]	; 0x24
10001d5a:	9503      	str	r5, [sp, #12]
10001d5c:	9200      	str	r2, [sp, #0]
10001d5e:	9301      	str	r3, [sp, #4]
10001d60:	4659      	mov	r1, fp
10001d62:	4653      	mov	r3, sl
10001d64:	0030      	movs	r0, r6
10001d66:	9a0c      	ldr	r2, [sp, #48]	; 0x30
10001d68:	f000 f8cc 	bl	10001f04 <_ftoa>
10001d6c:	0005      	movs	r5, r0
10001d6e:	2c00      	cmp	r4, #0
10001d70:	d06f      	beq.n	10001e52 <_etoa+0x39a>
10001d72:	9b28      	ldr	r3, [sp, #160]	; 0xa0
10001d74:	002a      	movs	r2, r5
10001d76:	0698      	lsls	r0, r3, #26
10001d78:	231f      	movs	r3, #31
10001d7a:	17c0      	asrs	r0, r0, #31
10001d7c:	4398      	bics	r0, r3
10001d7e:	1c6b      	adds	r3, r5, #1
10001d80:	4698      	mov	r8, r3
10001d82:	4659      	mov	r1, fp
10001d84:	4653      	mov	r3, sl
10001d86:	3065      	adds	r0, #101	; 0x65
10001d88:	47b0      	blx	r6
10001d8a:	9b0d      	ldr	r3, [sp, #52]	; 0x34
10001d8c:	2600      	movs	r6, #0
10001d8e:	17da      	asrs	r2, r3, #31
10001d90:	189d      	adds	r5, r3, r2
10001d92:	0fdb      	lsrs	r3, r3, #31
10001d94:	4699      	mov	r9, r3
10001d96:	4055      	eors	r5, r2
10001d98:	3c01      	subs	r4, #1
10001d9a:	e001      	b.n	10001da0 <_etoa+0x2e8>
10001d9c:	2e20      	cmp	r6, #32
10001d9e:	d013      	beq.n	10001dc8 <_etoa+0x310>
10001da0:	aa0a      	add	r2, sp, #40	; 0x28
10001da2:	4694      	mov	ip, r2
10001da4:	231f      	movs	r3, #31
10001da6:	0028      	movs	r0, r5
10001da8:	4463      	add	r3, ip
10001daa:	210a      	movs	r1, #10
10001dac:	3601      	adds	r6, #1
10001dae:	199f      	adds	r7, r3, r6
10001db0:	f001 f8a6 	bl	10002f00 <__wrap___aeabi_uidiv>
10001db4:	3130      	adds	r1, #48	; 0x30
10001db6:	7039      	strb	r1, [r7, #0]
10001db8:	0028      	movs	r0, r5
10001dba:	210a      	movs	r1, #10
10001dbc:	f001 f8a0 	bl	10002f00 <__wrap___aeabi_uidiv>
10001dc0:	002f      	movs	r7, r5
10001dc2:	0005      	movs	r5, r0
10001dc4:	2f09      	cmp	r7, #9
10001dc6:	d8e9      	bhi.n	10001d9c <_etoa+0x2e4>
10001dc8:	2305      	movs	r3, #5
10001dca:	9306      	str	r3, [sp, #24]
10001dcc:	2300      	movs	r3, #0
10001dce:	9304      	str	r3, [sp, #16]
10001dd0:	330a      	adds	r3, #10
10001dd2:	9303      	str	r3, [sp, #12]
10001dd4:	464b      	mov	r3, r9
10001dd6:	9601      	str	r6, [sp, #4]
10001dd8:	9e0b      	ldr	r6, [sp, #44]	; 0x2c
10001dda:	9302      	str	r3, [sp, #8]
10001ddc:	ab12      	add	r3, sp, #72	; 0x48
10001dde:	9300      	str	r3, [sp, #0]
10001de0:	4642      	mov	r2, r8
10001de2:	4653      	mov	r3, sl
10001de4:	4659      	mov	r1, fp
10001de6:	0030      	movs	r0, r6
10001de8:	9405      	str	r4, [sp, #20]
10001dea:	f7ff fd6d 	bl	100018c8 <_ntoa_format>
10001dee:	9b10      	ldr	r3, [sp, #64]	; 0x40
10001df0:	0005      	movs	r5, r0
10001df2:	2b00      	cmp	r3, #0
10001df4:	d02d      	beq.n	10001e52 <_etoa+0x39a>
10001df6:	9b0c      	ldr	r3, [sp, #48]	; 0x30
10001df8:	9a27      	ldr	r2, [sp, #156]	; 0x9c
10001dfa:	1ac4      	subs	r4, r0, r3
10001dfc:	42a2      	cmp	r2, r4
10001dfe:	d928      	bls.n	10001e52 <_etoa+0x39a>
10001e00:	4681      	mov	r9, r0
10001e02:	465d      	mov	r5, fp
10001e04:	4698      	mov	r8, r3
10001e06:	0017      	movs	r7, r2
10001e08:	4643      	mov	r3, r8
10001e0a:	0029      	movs	r1, r5
10001e0c:	191a      	adds	r2, r3, r4
10001e0e:	2020      	movs	r0, #32
10001e10:	4653      	mov	r3, sl
10001e12:	3401      	adds	r4, #1
10001e14:	47b0      	blx	r6
10001e16:	42a7      	cmp	r7, r4
10001e18:	d8f6      	bhi.n	10001e08 <_etoa+0x350>
10001e1a:	464d      	mov	r5, r9
10001e1c:	990c      	ldr	r1, [sp, #48]	; 0x30
10001e1e:	9827      	ldr	r0, [sp, #156]	; 0x9c
10001e20:	1a6b      	subs	r3, r5, r1
10001e22:	3301      	adds	r3, #1
10001e24:	2200      	movs	r2, #0
10001e26:	4298      	cmp	r0, r3
10001e28:	d261      	bcs.n	10001eee <_etoa+0x436>
10001e2a:	3501      	adds	r5, #1
10001e2c:	1955      	adds	r5, r2, r5
10001e2e:	e010      	b.n	10001e52 <_etoa+0x39a>
10001e30:	9b28      	ldr	r3, [sp, #160]	; 0xa0
10001e32:	464a      	mov	r2, r9
10001e34:	9304      	str	r3, [sp, #16]
10001e36:	9b27      	ldr	r3, [sp, #156]	; 0x9c
10001e38:	4659      	mov	r1, fp
10001e3a:	9303      	str	r3, [sp, #12]
10001e3c:	9b26      	ldr	r3, [sp, #152]	; 0x98
10001e3e:	980b      	ldr	r0, [sp, #44]	; 0x2c
10001e40:	9302      	str	r3, [sp, #8]
10001e42:	4643      	mov	r3, r8
10001e44:	9200      	str	r2, [sp, #0]
10001e46:	9301      	str	r3, [sp, #4]
10001e48:	4653      	mov	r3, sl
10001e4a:	9a0c      	ldr	r2, [sp, #48]	; 0x30
10001e4c:	f000 f85a 	bl	10001f04 <_ftoa>
10001e50:	0005      	movs	r5, r0
10001e52:	0028      	movs	r0, r5
10001e54:	b01b      	add	sp, #108	; 0x6c
10001e56:	bc3c      	pop	{r2, r3, r4, r5}
10001e58:	4690      	mov	r8, r2
10001e5a:	4699      	mov	r9, r3
10001e5c:	46a2      	mov	sl, r4
10001e5e:	46ab      	mov	fp, r5
10001e60:	bdf0      	pop	{r4, r5, r6, r7, pc}
10001e62:	9b26      	ldr	r3, [sp, #152]	; 0x98
10001e64:	2b00      	cmp	r3, #0
10001e66:	d100      	bne.n	10001e6a <_etoa+0x3b2>
10001e68:	e745      	b.n	10001cf6 <_etoa+0x23e>
10001e6a:	9b11      	ldr	r3, [sp, #68]	; 0x44
10001e6c:	1e5a      	subs	r2, r3, #1
10001e6e:	4193      	sbcs	r3, r2
10001e70:	9a26      	ldr	r2, [sp, #152]	; 0x98
10001e72:	1ad3      	subs	r3, r2, r3
10001e74:	9326      	str	r3, [sp, #152]	; 0x98
10001e76:	e73e      	b.n	10001cf6 <_etoa+0x23e>
10001e78:	7fefffff 	.word	0x7fefffff
10001e7c:	ffefffff 	.word	0xffefffff
10001e80:	fffffc01 	.word	0xfffffc01
10001e84:	509f79fb 	.word	0x509f79fb
10001e88:	3fd34413 	.word	0x3fd34413
10001e8c:	8b60c8b3 	.word	0x8b60c8b3
10001e90:	3fc68a28 	.word	0x3fc68a28
10001e94:	3ff00000 	.word	0x3ff00000
10001e98:	3ff80000 	.word	0x3ff80000
10001e9c:	636f4361 	.word	0x636f4361
10001ea0:	3fd287a7 	.word	0x3fd287a7
10001ea4:	0979a371 	.word	0x0979a371
10001ea8:	400a934f 	.word	0x400a934f
10001eac:	3fe00000 	.word	0x3fe00000
10001eb0:	bbb55516 	.word	0xbbb55516
10001eb4:	40026bb1 	.word	0x40026bb1
10001eb8:	fefa39ef 	.word	0xfefa39ef
10001ebc:	3fe62e42 	.word	0x3fe62e42
10001ec0:	402c0000 	.word	0x402c0000
10001ec4:	40240000 	.word	0x40240000
10001ec8:	40180000 	.word	0x40180000
10001ecc:	000003ff 	.word	0x000003ff
10001ed0:	eb1c432d 	.word	0xeb1c432d
10001ed4:	3f1a36e2 	.word	0x3f1a36e2
10001ed8:	412e8480 	.word	0x412e8480
10001edc:	fffff7ff 	.word	0xfffff7ff
10001ee0:	464b      	mov	r3, r9
10001ee2:	930a      	str	r3, [sp, #40]	; 0x28
10001ee4:	2380      	movs	r3, #128	; 0x80
10001ee6:	061b      	lsls	r3, r3, #24
10001ee8:	4443      	add	r3, r8
10001eea:	9309      	str	r3, [sp, #36]	; 0x24
10001eec:	e61d      	b.n	10001b2a <_etoa+0x72>
10001eee:	000a      	movs	r2, r1
10001ef0:	4684      	mov	ip, r0
10001ef2:	3a01      	subs	r2, #1
10001ef4:	4462      	add	r2, ip
10001ef6:	1b52      	subs	r2, r2, r5
10001ef8:	e797      	b.n	10001e2a <_etoa+0x372>
10001efa:	1b50      	subs	r0, r2, r5
10001efc:	1e43      	subs	r3, r0, #1
10001efe:	9326      	str	r3, [sp, #152]	; 0x98
10001f00:	e6f1      	b.n	10001ce6 <_etoa+0x22e>
10001f02:	46c0      	nop			; (mov r8, r8)

10001f04 <_ftoa>:
10001f04:	b5f0      	push	{r4, r5, r6, r7, lr}
10001f06:	464e      	mov	r6, r9
10001f08:	46de      	mov	lr, fp
10001f0a:	4657      	mov	r7, sl
10001f0c:	4645      	mov	r5, r8
10001f0e:	b5e0      	push	{r5, r6, r7, lr}
10001f10:	b097      	sub	sp, #92	; 0x5c
10001f12:	4699      	mov	r9, r3
10001f14:	9e20      	ldr	r6, [sp, #128]	; 0x80
10001f16:	9f21      	ldr	r7, [sp, #132]	; 0x84
10001f18:	9b22      	ldr	r3, [sp, #136]	; 0x88
10001f1a:	4683      	mov	fp, r0
10001f1c:	4698      	mov	r8, r3
10001f1e:	9107      	str	r1, [sp, #28]
10001f20:	920c      	str	r2, [sp, #48]	; 0x30
10001f22:	003b      	movs	r3, r7
10001f24:	0032      	movs	r2, r6
10001f26:	0030      	movs	r0, r6
10001f28:	0039      	movs	r1, r7
10001f2a:	f001 faa6 	bl	1000347a <__wrap___aeabi_dcmpun>
10001f2e:	2800      	cmp	r0, #0
10001f30:	d000      	beq.n	10001f34 <_ftoa+0x30>
10001f32:	e1c1      	b.n	100022b8 <_ftoa+0x3b4>
10001f34:	2201      	movs	r2, #1
10001f36:	0030      	movs	r0, r6
10001f38:	0039      	movs	r1, r7
10001f3a:	4bca      	ldr	r3, [pc, #808]	; (10002264 <_ftoa+0x360>)
10001f3c:	4252      	negs	r2, r2
10001f3e:	f001 fa81 	bl	10003444 <__wrap___aeabi_dcmplt>
10001f42:	2800      	cmp	r0, #0
10001f44:	d000      	beq.n	10001f48 <_ftoa+0x44>
10001f46:	e0e0      	b.n	1000210a <_ftoa+0x206>
10001f48:	2201      	movs	r2, #1
10001f4a:	0030      	movs	r0, r6
10001f4c:	0039      	movs	r1, r7
10001f4e:	4bc6      	ldr	r3, [pc, #792]	; (10002268 <_ftoa+0x364>)
10001f50:	4252      	negs	r2, r2
10001f52:	f001 fa8d 	bl	10003470 <__wrap___aeabi_dcmpgt>
10001f56:	2800      	cmp	r0, #0
10001f58:	d000      	beq.n	10001f5c <_ftoa+0x58>
10001f5a:	e0b6      	b.n	100020ca <_ftoa+0x1c6>
10001f5c:	2200      	movs	r2, #0
10001f5e:	0030      	movs	r0, r6
10001f60:	0039      	movs	r1, r7
10001f62:	4bc2      	ldr	r3, [pc, #776]	; (1000226c <_ftoa+0x368>)
10001f64:	f001 fa84 	bl	10003470 <__wrap___aeabi_dcmpgt>
10001f68:	2800      	cmp	r0, #0
10001f6a:	d000      	beq.n	10001f6e <_ftoa+0x6a>
10001f6c:	e098      	b.n	100020a0 <_ftoa+0x19c>
10001f6e:	2200      	movs	r2, #0
10001f70:	0030      	movs	r0, r6
10001f72:	0039      	movs	r1, r7
10001f74:	4bbe      	ldr	r3, [pc, #760]	; (10002270 <_ftoa+0x36c>)
10001f76:	f001 fa65 	bl	10003444 <__wrap___aeabi_dcmplt>
10001f7a:	2800      	cmp	r0, #0
10001f7c:	d000      	beq.n	10001f80 <_ftoa+0x7c>
10001f7e:	e08f      	b.n	100020a0 <_ftoa+0x19c>
10001f80:	2200      	movs	r2, #0
10001f82:	2300      	movs	r3, #0
10001f84:	0030      	movs	r0, r6
10001f86:	0039      	movs	r1, r7
10001f88:	f001 fa5c 	bl	10003444 <__wrap___aeabi_dcmplt>
10001f8c:	2800      	cmp	r0, #0
10001f8e:	d000      	beq.n	10001f92 <_ftoa+0x8e>
10001f90:	e0b0      	b.n	100020f4 <_ftoa+0x1f0>
10001f92:	2300      	movs	r3, #0
10001f94:	930d      	str	r3, [sp, #52]	; 0x34
10001f96:	9b24      	ldr	r3, [sp, #144]	; 0x90
10001f98:	055b      	lsls	r3, r3, #21
10001f9a:	d401      	bmi.n	10001fa0 <_ftoa+0x9c>
10001f9c:	2306      	movs	r3, #6
10001f9e:	4698      	mov	r8, r3
10001fa0:	ab08      	add	r3, sp, #32
10001fa2:	469c      	mov	ip, r3
10001fa4:	2217      	movs	r2, #23
10001fa6:	2400      	movs	r4, #0
10001fa8:	2330      	movs	r3, #48	; 0x30
10001faa:	4641      	mov	r1, r8
10001fac:	4462      	add	r2, ip
10001fae:	e004      	b.n	10001fba <_ftoa+0xb6>
10001fb0:	3401      	adds	r4, #1
10001fb2:	5513      	strb	r3, [r2, r4]
10001fb4:	3901      	subs	r1, #1
10001fb6:	2c20      	cmp	r4, #32
10001fb8:	d001      	beq.n	10001fbe <_ftoa+0xba>
10001fba:	2909      	cmp	r1, #9
10001fbc:	d8f8      	bhi.n	10001fb0 <_ftoa+0xac>
10001fbe:	4688      	mov	r8, r1
10001fc0:	0030      	movs	r0, r6
10001fc2:	0039      	movs	r1, r7
10001fc4:	f001 fa84 	bl	100034d0 <__wrap___aeabi_d2iz>
10001fc8:	4643      	mov	r3, r8
10001fca:	00da      	lsls	r2, r3, #3
10001fcc:	4ba9      	ldr	r3, [pc, #676]	; (10002274 <_ftoa+0x370>)
10001fce:	0005      	movs	r5, r0
10001fd0:	189b      	adds	r3, r3, r2
10001fd2:	681a      	ldr	r2, [r3, #0]
10001fd4:	685b      	ldr	r3, [r3, #4]
10001fd6:	9208      	str	r2, [sp, #32]
10001fd8:	9309      	str	r3, [sp, #36]	; 0x24
10001fda:	f001 fa61 	bl	100034a0 <__wrap___aeabi_i2d>
10001fde:	0002      	movs	r2, r0
10001fe0:	000b      	movs	r3, r1
10001fe2:	0030      	movs	r0, r6
10001fe4:	0039      	movs	r1, r7
10001fe6:	f001 f9d0 	bl	1000338a <__wrap___aeabi_dsub>
10001fea:	9a08      	ldr	r2, [sp, #32]
10001fec:	9b09      	ldr	r3, [sp, #36]	; 0x24
10001fee:	f001 f9e7 	bl	100033c0 <__wrap___aeabi_dmul>
10001ff2:	900a      	str	r0, [sp, #40]	; 0x28
10001ff4:	910b      	str	r1, [sp, #44]	; 0x2c
10001ff6:	f001 fa8f 	bl	10003518 <__wrap___aeabi_d2uiz>
10001ffa:	4682      	mov	sl, r0
10001ffc:	f001 fa4c 	bl	10003498 <__wrap___aeabi_ui2d>
10002000:	0002      	movs	r2, r0
10002002:	000b      	movs	r3, r1
10002004:	980a      	ldr	r0, [sp, #40]	; 0x28
10002006:	990b      	ldr	r1, [sp, #44]	; 0x2c
10002008:	f001 f9bf 	bl	1000338a <__wrap___aeabi_dsub>
1000200c:	2200      	movs	r2, #0
1000200e:	4b9a      	ldr	r3, [pc, #616]	; (10002278 <_ftoa+0x374>)
10002010:	900a      	str	r0, [sp, #40]	; 0x28
10002012:	910b      	str	r1, [sp, #44]	; 0x2c
10002014:	f001 fa2c 	bl	10003470 <__wrap___aeabi_dcmpgt>
10002018:	2800      	cmp	r0, #0
1000201a:	d100      	bne.n	1000201e <_ftoa+0x11a>
1000201c:	e0c0      	b.n	100021a0 <_ftoa+0x29c>
1000201e:	2301      	movs	r3, #1
10002020:	469c      	mov	ip, r3
10002022:	44e2      	add	sl, ip
10002024:	4650      	mov	r0, sl
10002026:	f001 fa37 	bl	10003498 <__wrap___aeabi_ui2d>
1000202a:	0002      	movs	r2, r0
1000202c:	000b      	movs	r3, r1
1000202e:	9808      	ldr	r0, [sp, #32]
10002030:	9909      	ldr	r1, [sp, #36]	; 0x24
10002032:	f001 fa0d 	bl	10003450 <__wrap___aeabi_dcmple>
10002036:	2800      	cmp	r0, #0
10002038:	d002      	beq.n	10002040 <_ftoa+0x13c>
1000203a:	2300      	movs	r3, #0
1000203c:	469a      	mov	sl, r3
1000203e:	3501      	adds	r5, #1
10002040:	4643      	mov	r3, r8
10002042:	2b00      	cmp	r3, #0
10002044:	d069      	beq.n	1000211a <_ftoa+0x216>
10002046:	ab08      	add	r3, sp, #32
10002048:	2617      	movs	r6, #23
1000204a:	469c      	mov	ip, r3
1000204c:	9508      	str	r5, [sp, #32]
1000204e:	4466      	add	r6, ip
10002050:	4655      	mov	r5, sl
10002052:	e014      	b.n	1000207e <_ftoa+0x17a>
10002054:	2301      	movs	r3, #1
10002056:	425b      	negs	r3, r3
10002058:	4443      	add	r3, r8
1000205a:	210a      	movs	r1, #10
1000205c:	0028      	movs	r0, r5
1000205e:	469a      	mov	sl, r3
10002060:	f000 ff4e 	bl	10002f00 <__wrap___aeabi_uidiv>
10002064:	3401      	adds	r4, #1
10002066:	3130      	adds	r1, #48	; 0x30
10002068:	1937      	adds	r7, r6, r4
1000206a:	7039      	strb	r1, [r7, #0]
1000206c:	0028      	movs	r0, r5
1000206e:	210a      	movs	r1, #10
10002070:	f000 ff46 	bl	10002f00 <__wrap___aeabi_uidiv>
10002074:	2d09      	cmp	r5, #9
10002076:	d800      	bhi.n	1000207a <_ftoa+0x176>
10002078:	e0d5      	b.n	10002226 <_ftoa+0x322>
1000207a:	46d0      	mov	r8, sl
1000207c:	0005      	movs	r5, r0
1000207e:	2c20      	cmp	r4, #32
10002080:	d1e8      	bne.n	10002054 <_ftoa+0x150>
10002082:	2303      	movs	r3, #3
10002084:	9a24      	ldr	r2, [sp, #144]	; 0x90
10002086:	4013      	ands	r3, r2
10002088:	2b01      	cmp	r3, #1
1000208a:	d100      	bne.n	1000208e <_ftoa+0x18a>
1000208c:	e100      	b.n	10002290 <_ftoa+0x38c>
1000208e:	ab0e      	add	r3, sp, #56	; 0x38
10002090:	4698      	mov	r8, r3
10002092:	9b24      	ldr	r3, [sp, #144]	; 0x90
10002094:	9401      	str	r4, [sp, #4]
10002096:	9303      	str	r3, [sp, #12]
10002098:	9b23      	ldr	r3, [sp, #140]	; 0x8c
1000209a:	9302      	str	r3, [sp, #8]
1000209c:	4643      	mov	r3, r8
1000209e:	e01e      	b.n	100020de <_ftoa+0x1da>
100020a0:	9b24      	ldr	r3, [sp, #144]	; 0x90
100020a2:	4658      	mov	r0, fp
100020a4:	9304      	str	r3, [sp, #16]
100020a6:	9b23      	ldr	r3, [sp, #140]	; 0x8c
100020a8:	9600      	str	r6, [sp, #0]
100020aa:	9701      	str	r7, [sp, #4]
100020ac:	9303      	str	r3, [sp, #12]
100020ae:	4643      	mov	r3, r8
100020b0:	9a0c      	ldr	r2, [sp, #48]	; 0x30
100020b2:	9302      	str	r3, [sp, #8]
100020b4:	9907      	ldr	r1, [sp, #28]
100020b6:	464b      	mov	r3, r9
100020b8:	f7ff fcfe 	bl	10001ab8 <_etoa>
100020bc:	b017      	add	sp, #92	; 0x5c
100020be:	bc3c      	pop	{r2, r3, r4, r5}
100020c0:	4690      	mov	r8, r2
100020c2:	4699      	mov	r9, r3
100020c4:	46a2      	mov	sl, r4
100020c6:	46ab      	mov	fp, r5
100020c8:	bdf0      	pop	{r4, r5, r6, r7, pc}
100020ca:	9b24      	ldr	r3, [sp, #144]	; 0x90
100020cc:	075b      	lsls	r3, r3, #29
100020ce:	d40e      	bmi.n	100020ee <_ftoa+0x1ea>
100020d0:	2203      	movs	r2, #3
100020d2:	4b6a      	ldr	r3, [pc, #424]	; (1000227c <_ftoa+0x378>)
100020d4:	9924      	ldr	r1, [sp, #144]	; 0x90
100020d6:	9201      	str	r2, [sp, #4]
100020d8:	9103      	str	r1, [sp, #12]
100020da:	9923      	ldr	r1, [sp, #140]	; 0x8c
100020dc:	9102      	str	r1, [sp, #8]
100020de:	9300      	str	r3, [sp, #0]
100020e0:	4658      	mov	r0, fp
100020e2:	464b      	mov	r3, r9
100020e4:	9a0c      	ldr	r2, [sp, #48]	; 0x30
100020e6:	9907      	ldr	r1, [sp, #28]
100020e8:	f7ff fb86 	bl	100017f8 <_out_rev>
100020ec:	e7e6      	b.n	100020bc <_ftoa+0x1b8>
100020ee:	2204      	movs	r2, #4
100020f0:	4b63      	ldr	r3, [pc, #396]	; (10002280 <_ftoa+0x37c>)
100020f2:	e7ef      	b.n	100020d4 <_ftoa+0x1d0>
100020f4:	003b      	movs	r3, r7
100020f6:	0032      	movs	r2, r6
100020f8:	2000      	movs	r0, #0
100020fa:	2100      	movs	r1, #0
100020fc:	f001 f945 	bl	1000338a <__wrap___aeabi_dsub>
10002100:	2301      	movs	r3, #1
10002102:	0006      	movs	r6, r0
10002104:	000f      	movs	r7, r1
10002106:	930d      	str	r3, [sp, #52]	; 0x34
10002108:	e745      	b.n	10001f96 <_ftoa+0x92>
1000210a:	9b24      	ldr	r3, [sp, #144]	; 0x90
1000210c:	9303      	str	r3, [sp, #12]
1000210e:	9b23      	ldr	r3, [sp, #140]	; 0x8c
10002110:	9302      	str	r3, [sp, #8]
10002112:	2304      	movs	r3, #4
10002114:	9301      	str	r3, [sp, #4]
10002116:	4b5b      	ldr	r3, [pc, #364]	; (10002284 <_ftoa+0x380>)
10002118:	e7e1      	b.n	100020de <_ftoa+0x1da>
1000211a:	0028      	movs	r0, r5
1000211c:	f001 f9c0 	bl	100034a0 <__wrap___aeabi_i2d>
10002120:	0002      	movs	r2, r0
10002122:	000b      	movs	r3, r1
10002124:	0030      	movs	r0, r6
10002126:	0039      	movs	r1, r7
10002128:	f001 f92f 	bl	1000338a <__wrap___aeabi_dsub>
1000212c:	4b52      	ldr	r3, [pc, #328]	; (10002278 <_ftoa+0x374>)
1000212e:	2200      	movs	r2, #0
10002130:	0006      	movs	r6, r0
10002132:	000f      	movs	r7, r1
10002134:	f001 f986 	bl	10003444 <__wrap___aeabi_dcmplt>
10002138:	ab0e      	add	r3, sp, #56	; 0x38
1000213a:	4698      	mov	r8, r3
1000213c:	2800      	cmp	r0, #0
1000213e:	d10a      	bne.n	10002156 <_ftoa+0x252>
10002140:	2200      	movs	r2, #0
10002142:	0030      	movs	r0, r6
10002144:	0039      	movs	r1, r7
10002146:	4b4c      	ldr	r3, [pc, #304]	; (10002278 <_ftoa+0x374>)
10002148:	f001 f992 	bl	10003470 <__wrap___aeabi_dcmpgt>
1000214c:	2800      	cmp	r0, #0
1000214e:	d102      	bne.n	10002156 <_ftoa+0x252>
10002150:	07eb      	lsls	r3, r5, #31
10002152:	d500      	bpl.n	10002156 <_ftoa+0x252>
10002154:	3501      	adds	r5, #1
10002156:	2c20      	cmp	r4, #32
10002158:	d032      	beq.n	100021c0 <_ftoa+0x2bc>
1000215a:	aa08      	add	r2, sp, #32
1000215c:	4694      	mov	ip, r2
1000215e:	2317      	movs	r3, #23
10002160:	0028      	movs	r0, r5
10002162:	4463      	add	r3, ip
10002164:	210a      	movs	r1, #10
10002166:	3401      	adds	r4, #1
10002168:	191e      	adds	r6, r3, r4
1000216a:	f000 fe9d 	bl	10002ea8 <__wrap___aeabi_idiv>
1000216e:	3130      	adds	r1, #48	; 0x30
10002170:	0028      	movs	r0, r5
10002172:	7031      	strb	r1, [r6, #0]
10002174:	210a      	movs	r1, #10
10002176:	f000 fe97 	bl	10002ea8 <__wrap___aeabi_idiv>
1000217a:	1e05      	subs	r5, r0, #0
1000217c:	d1eb      	bne.n	10002156 <_ftoa+0x252>
1000217e:	2303      	movs	r3, #3
10002180:	9a24      	ldr	r2, [sp, #144]	; 0x90
10002182:	4013      	ands	r3, r2
10002184:	2b01      	cmp	r3, #1
10002186:	d100      	bne.n	1000218a <_ftoa+0x286>
10002188:	e091      	b.n	100022ae <_ftoa+0x3aa>
1000218a:	2c1f      	cmp	r4, #31
1000218c:	d900      	bls.n	10002190 <_ftoa+0x28c>
1000218e:	e780      	b.n	10002092 <_ftoa+0x18e>
10002190:	9b0d      	ldr	r3, [sp, #52]	; 0x34
10002192:	2b00      	cmp	r3, #0
10002194:	d03b      	beq.n	1000220e <_ftoa+0x30a>
10002196:	232d      	movs	r3, #45	; 0x2d
10002198:	4642      	mov	r2, r8
1000219a:	5513      	strb	r3, [r2, r4]
1000219c:	3401      	adds	r4, #1
1000219e:	e778      	b.n	10002092 <_ftoa+0x18e>
100021a0:	2200      	movs	r2, #0
100021a2:	980a      	ldr	r0, [sp, #40]	; 0x28
100021a4:	990b      	ldr	r1, [sp, #44]	; 0x2c
100021a6:	4b34      	ldr	r3, [pc, #208]	; (10002278 <_ftoa+0x374>)
100021a8:	f001 f94c 	bl	10003444 <__wrap___aeabi_dcmplt>
100021ac:	2800      	cmp	r0, #0
100021ae:	d000      	beq.n	100021b2 <_ftoa+0x2ae>
100021b0:	e746      	b.n	10002040 <_ftoa+0x13c>
100021b2:	4653      	mov	r3, sl
100021b4:	2b00      	cmp	r3, #0
100021b6:	d167      	bne.n	10002288 <_ftoa+0x384>
100021b8:	2301      	movs	r3, #1
100021ba:	469c      	mov	ip, r3
100021bc:	44e2      	add	sl, ip
100021be:	e73f      	b.n	10002040 <_ftoa+0x13c>
100021c0:	2303      	movs	r3, #3
100021c2:	9a24      	ldr	r2, [sp, #144]	; 0x90
100021c4:	4013      	ands	r3, r2
100021c6:	2b01      	cmp	r3, #1
100021c8:	d000      	beq.n	100021cc <_ftoa+0x2c8>
100021ca:	e762      	b.n	10002092 <_ftoa+0x18e>
100021cc:	9b23      	ldr	r3, [sp, #140]	; 0x8c
100021ce:	2b00      	cmp	r3, #0
100021d0:	d100      	bne.n	100021d4 <_ftoa+0x2d0>
100021d2:	e75e      	b.n	10002092 <_ftoa+0x18e>
100021d4:	9b0d      	ldr	r3, [sp, #52]	; 0x34
100021d6:	2b00      	cmp	r3, #0
100021d8:	d103      	bne.n	100021e2 <_ftoa+0x2de>
100021da:	9a24      	ldr	r2, [sp, #144]	; 0x90
100021dc:	330c      	adds	r3, #12
100021de:	4213      	tst	r3, r2
100021e0:	d002      	beq.n	100021e8 <_ftoa+0x2e4>
100021e2:	9b23      	ldr	r3, [sp, #140]	; 0x8c
100021e4:	3b01      	subs	r3, #1
100021e6:	9323      	str	r3, [sp, #140]	; 0x8c
100021e8:	9b23      	ldr	r3, [sp, #140]	; 0x8c
100021ea:	429c      	cmp	r4, r3
100021ec:	d2cd      	bcs.n	1000218a <_ftoa+0x286>
100021ee:	ab08      	add	r3, sp, #32
100021f0:	469c      	mov	ip, r3
100021f2:	2217      	movs	r2, #23
100021f4:	2330      	movs	r3, #48	; 0x30
100021f6:	4462      	add	r2, ip
100021f8:	2c1f      	cmp	r4, #31
100021fa:	d806      	bhi.n	1000220a <_ftoa+0x306>
100021fc:	9923      	ldr	r1, [sp, #140]	; 0x8c
100021fe:	3401      	adds	r4, #1
10002200:	5513      	strb	r3, [r2, r4]
10002202:	428c      	cmp	r4, r1
10002204:	d0c1      	beq.n	1000218a <_ftoa+0x286>
10002206:	2c20      	cmp	r4, #32
10002208:	d1f8      	bne.n	100021fc <_ftoa+0x2f8>
1000220a:	2420      	movs	r4, #32
1000220c:	e741      	b.n	10002092 <_ftoa+0x18e>
1000220e:	9b24      	ldr	r3, [sp, #144]	; 0x90
10002210:	075b      	lsls	r3, r3, #29
10002212:	d421      	bmi.n	10002258 <_ftoa+0x354>
10002214:	9b24      	ldr	r3, [sp, #144]	; 0x90
10002216:	071b      	lsls	r3, r3, #28
10002218:	d400      	bmi.n	1000221c <_ftoa+0x318>
1000221a:	e73a      	b.n	10002092 <_ftoa+0x18e>
1000221c:	2320      	movs	r3, #32
1000221e:	4642      	mov	r2, r8
10002220:	5513      	strb	r3, [r2, r4]
10002222:	3401      	adds	r4, #1
10002224:	e735      	b.n	10002092 <_ftoa+0x18e>
10002226:	4657      	mov	r7, sl
10002228:	9d08      	ldr	r5, [sp, #32]
1000222a:	2c20      	cmp	r4, #32
1000222c:	d037      	beq.n	1000229e <_ftoa+0x39a>
1000222e:	0022      	movs	r2, r4
10002230:	2130      	movs	r1, #48	; 0x30
10002232:	4640      	mov	r0, r8
10002234:	2f00      	cmp	r7, #0
10002236:	d008      	beq.n	1000224a <_ftoa+0x346>
10002238:	3201      	adds	r2, #1
1000223a:	54b1      	strb	r1, [r6, r2]
1000223c:	2a20      	cmp	r2, #32
1000223e:	d043      	beq.n	100022c8 <_ftoa+0x3c4>
10002240:	43d3      	mvns	r3, r2
10002242:	191b      	adds	r3, r3, r4
10002244:	181b      	adds	r3, r3, r0
10002246:	2b00      	cmp	r3, #0
10002248:	d1f6      	bne.n	10002238 <_ftoa+0x334>
1000224a:	ab0e      	add	r3, sp, #56	; 0x38
1000224c:	4698      	mov	r8, r3
1000224e:	232e      	movs	r3, #46	; 0x2e
10002250:	4641      	mov	r1, r8
10002252:	1c54      	adds	r4, r2, #1
10002254:	548b      	strb	r3, [r1, r2]
10002256:	e77e      	b.n	10002156 <_ftoa+0x252>
10002258:	232b      	movs	r3, #43	; 0x2b
1000225a:	4642      	mov	r2, r8
1000225c:	5513      	strb	r3, [r2, r4]
1000225e:	3401      	adds	r4, #1
10002260:	e717      	b.n	10002092 <_ftoa+0x18e>
10002262:	46c0      	nop			; (mov r8, r8)
10002264:	ffefffff 	.word	0xffefffff
10002268:	7fefffff 	.word	0x7fefffff
1000226c:	41cdcd65 	.word	0x41cdcd65
10002270:	c1cdcd65 	.word	0xc1cdcd65
10002274:	10004db0 	.word	0x10004db0
10002278:	3fe00000 	.word	0x3fe00000
1000227c:	10004bb4 	.word	0x10004bb4
10002280:	10004bb8 	.word	0x10004bb8
10002284:	10004bc4 	.word	0x10004bc4
10002288:	07db      	lsls	r3, r3, #31
1000228a:	d400      	bmi.n	1000228e <_ftoa+0x38a>
1000228c:	e6d8      	b.n	10002040 <_ftoa+0x13c>
1000228e:	e793      	b.n	100021b8 <_ftoa+0x2b4>
10002290:	9b23      	ldr	r3, [sp, #140]	; 0x8c
10002292:	2b00      	cmp	r3, #0
10002294:	d100      	bne.n	10002298 <_ftoa+0x394>
10002296:	e6fa      	b.n	1000208e <_ftoa+0x18a>
10002298:	ab0e      	add	r3, sp, #56	; 0x38
1000229a:	4698      	mov	r8, r3
1000229c:	e79a      	b.n	100021d4 <_ftoa+0x2d0>
1000229e:	2303      	movs	r3, #3
100022a0:	9a24      	ldr	r2, [sp, #144]	; 0x90
100022a2:	4013      	ands	r3, r2
100022a4:	2b01      	cmp	r3, #1
100022a6:	d000      	beq.n	100022aa <_ftoa+0x3a6>
100022a8:	e6f1      	b.n	1000208e <_ftoa+0x18a>
100022aa:	ab0e      	add	r3, sp, #56	; 0x38
100022ac:	4698      	mov	r8, r3
100022ae:	9b23      	ldr	r3, [sp, #140]	; 0x8c
100022b0:	2b00      	cmp	r3, #0
100022b2:	d100      	bne.n	100022b6 <_ftoa+0x3b2>
100022b4:	e769      	b.n	1000218a <_ftoa+0x286>
100022b6:	e78d      	b.n	100021d4 <_ftoa+0x2d0>
100022b8:	9b24      	ldr	r3, [sp, #144]	; 0x90
100022ba:	9303      	str	r3, [sp, #12]
100022bc:	9b23      	ldr	r3, [sp, #140]	; 0x8c
100022be:	9302      	str	r3, [sp, #8]
100022c0:	2303      	movs	r3, #3
100022c2:	9301      	str	r3, [sp, #4]
100022c4:	4b06      	ldr	r3, [pc, #24]	; (100022e0 <_ftoa+0x3dc>)
100022c6:	e70a      	b.n	100020de <_ftoa+0x1da>
100022c8:	2303      	movs	r3, #3
100022ca:	9a24      	ldr	r2, [sp, #144]	; 0x90
100022cc:	2420      	movs	r4, #32
100022ce:	4013      	ands	r3, r2
100022d0:	2b01      	cmp	r3, #1
100022d2:	d000      	beq.n	100022d6 <_ftoa+0x3d2>
100022d4:	e6db      	b.n	1000208e <_ftoa+0x18a>
100022d6:	9b23      	ldr	r3, [sp, #140]	; 0x8c
100022d8:	2420      	movs	r4, #32
100022da:	2b00      	cmp	r3, #0
100022dc:	d1dc      	bne.n	10002298 <_ftoa+0x394>
100022de:	e6d6      	b.n	1000208e <_ftoa+0x18a>
100022e0:	10004bc0 	.word	0x10004bc0

100022e4 <_vsnprintf>:
100022e4:	b5f0      	push	{r4, r5, r6, r7, lr}
100022e6:	46de      	mov	lr, fp
100022e8:	464e      	mov	r6, r9
100022ea:	4657      	mov	r7, sl
100022ec:	4645      	mov	r5, r8
100022ee:	b5e0      	push	{r5, r6, r7, lr}
100022f0:	b09f      	sub	sp, #124	; 0x7c
100022f2:	001c      	movs	r4, r3
100022f4:	9b28      	ldr	r3, [sp, #160]	; 0xa0
100022f6:	4693      	mov	fp, r2
100022f8:	9309      	str	r3, [sp, #36]	; 0x24
100022fa:	4acf      	ldr	r2, [pc, #828]	; (10002638 <_vsnprintf+0x354>)
100022fc:	4bcf      	ldr	r3, [pc, #828]	; (1000263c <_vsnprintf+0x358>)
100022fe:	4689      	mov	r9, r1
10002300:	9008      	str	r0, [sp, #32]
10002302:	601a      	str	r2, [r3, #0]
10002304:	2900      	cmp	r1, #0
10002306:	d100      	bne.n	1000230a <_vsnprintf+0x26>
10002308:	e216      	b.n	10002738 <_vsnprintf+0x454>
1000230a:	2300      	movs	r3, #0
1000230c:	7820      	ldrb	r0, [r4, #0]
1000230e:	469a      	mov	sl, r3
10002310:	2800      	cmp	r0, #0
10002312:	d100      	bne.n	10002316 <_vsnprintf+0x32>
10002314:	e218      	b.n	10002748 <_vsnprintf+0x464>
10002316:	0026      	movs	r6, r4
10002318:	001d      	movs	r5, r3
1000231a:	464c      	mov	r4, r9
1000231c:	e00a      	b.n	10002334 <_vsnprintf+0x50>
1000231e:	002a      	movs	r2, r5
10002320:	1c6f      	adds	r7, r5, #1
10002322:	465b      	mov	r3, fp
10002324:	9d08      	ldr	r5, [sp, #32]
10002326:	0021      	movs	r1, r4
10002328:	47a8      	blx	r5
1000232a:	003d      	movs	r5, r7
1000232c:	3601      	adds	r6, #1
1000232e:	7830      	ldrb	r0, [r6, #0]
10002330:	2800      	cmp	r0, #0
10002332:	d07a      	beq.n	1000242a <_vsnprintf+0x146>
10002334:	2825      	cmp	r0, #37	; 0x25
10002336:	d1f2      	bne.n	1000231e <_vsnprintf+0x3a>
10002338:	2310      	movs	r3, #16
1000233a:	469a      	mov	sl, r3
1000233c:	3b08      	subs	r3, #8
1000233e:	4699      	mov	r9, r3
10002340:	3b04      	subs	r3, #4
10002342:	4698      	mov	r8, r3
10002344:	3b02      	subs	r3, #2
10002346:	2100      	movs	r1, #0
10002348:	469c      	mov	ip, r3
1000234a:	1c72      	adds	r2, r6, #1
1000234c:	7810      	ldrb	r0, [r2, #0]
1000234e:	0016      	movs	r6, r2
10002350:	0003      	movs	r3, r0
10002352:	3b20      	subs	r3, #32
10002354:	b2db      	uxtb	r3, r3
10002356:	2b10      	cmp	r3, #16
10002358:	d803      	bhi.n	10002362 <_vsnprintf+0x7e>
1000235a:	4fb9      	ldr	r7, [pc, #740]	; (10002640 <_vsnprintf+0x35c>)
1000235c:	009b      	lsls	r3, r3, #2
1000235e:	58fb      	ldr	r3, [r7, r3]
10002360:	469f      	mov	pc, r3
10002362:	0003      	movs	r3, r0
10002364:	3b30      	subs	r3, #48	; 0x30
10002366:	2b09      	cmp	r3, #9
10002368:	d93c      	bls.n	100023e4 <_vsnprintf+0x100>
1000236a:	2300      	movs	r3, #0
1000236c:	930a      	str	r3, [sp, #40]	; 0x28
1000236e:	282a      	cmp	r0, #42	; 0x2a
10002370:	d100      	bne.n	10002374 <_vsnprintf+0x90>
10002372:	e071      	b.n	10002458 <_vsnprintf+0x174>
10002374:	2300      	movs	r3, #0
10002376:	4698      	mov	r8, r3
10002378:	282e      	cmp	r0, #46	; 0x2e
1000237a:	d047      	beq.n	1000240c <_vsnprintf+0x128>
1000237c:	0003      	movs	r3, r0
1000237e:	3b68      	subs	r3, #104	; 0x68
10002380:	b2db      	uxtb	r3, r3
10002382:	2b12      	cmp	r3, #18
10002384:	d81f      	bhi.n	100023c6 <_vsnprintf+0xe2>
10002386:	4aaf      	ldr	r2, [pc, #700]	; (10002644 <_vsnprintf+0x360>)
10002388:	009b      	lsls	r3, r3, #2
1000238a:	58d3      	ldr	r3, [r2, r3]
1000238c:	469f      	mov	pc, r3
1000238e:	2301      	movs	r3, #1
10002390:	3201      	adds	r2, #1
10002392:	4319      	orrs	r1, r3
10002394:	e7da      	b.n	1000234c <_vsnprintf+0x68>
10002396:	4663      	mov	r3, ip
10002398:	3201      	adds	r2, #1
1000239a:	4319      	orrs	r1, r3
1000239c:	e7d6      	b.n	1000234c <_vsnprintf+0x68>
1000239e:	4643      	mov	r3, r8
100023a0:	3201      	adds	r2, #1
100023a2:	4319      	orrs	r1, r3
100023a4:	e7d2      	b.n	1000234c <_vsnprintf+0x68>
100023a6:	4653      	mov	r3, sl
100023a8:	3201      	adds	r2, #1
100023aa:	4319      	orrs	r1, r3
100023ac:	e7ce      	b.n	1000234c <_vsnprintf+0x68>
100023ae:	464b      	mov	r3, r9
100023b0:	3201      	adds	r2, #1
100023b2:	4319      	orrs	r1, r3
100023b4:	e7ca      	b.n	1000234c <_vsnprintf+0x68>
100023b6:	7870      	ldrb	r0, [r6, #1]
100023b8:	286c      	cmp	r0, #108	; 0x6c
100023ba:	d100      	bne.n	100023be <_vsnprintf+0xda>
100023bc:	e2bf      	b.n	1000293e <_vsnprintf+0x65a>
100023be:	2380      	movs	r3, #128	; 0x80
100023c0:	005b      	lsls	r3, r3, #1
100023c2:	4319      	orrs	r1, r3
100023c4:	3601      	adds	r6, #1
100023c6:	0003      	movs	r3, r0
100023c8:	3b25      	subs	r3, #37	; 0x25
100023ca:	b2db      	uxtb	r3, r3
100023cc:	2b53      	cmp	r3, #83	; 0x53
100023ce:	d8a6      	bhi.n	1000231e <_vsnprintf+0x3a>
100023d0:	4a9d      	ldr	r2, [pc, #628]	; (10002648 <_vsnprintf+0x364>)
100023d2:	009b      	lsls	r3, r3, #2
100023d4:	58d3      	ldr	r3, [r2, r3]
100023d6:	469f      	mov	pc, r3
100023d8:	2380      	movs	r3, #128	; 0x80
100023da:	005b      	lsls	r3, r3, #1
100023dc:	7870      	ldrb	r0, [r6, #1]
100023de:	4319      	orrs	r1, r3
100023e0:	3601      	adds	r6, #1
100023e2:	e7f0      	b.n	100023c6 <_vsnprintf+0xe2>
100023e4:	2700      	movs	r7, #0
100023e6:	0003      	movs	r3, r0
100023e8:	00b8      	lsls	r0, r7, #2
100023ea:	19c0      	adds	r0, r0, r7
100023ec:	3601      	adds	r6, #1
100023ee:	0040      	lsls	r0, r0, #1
100023f0:	18c0      	adds	r0, r0, r3
100023f2:	7833      	ldrb	r3, [r6, #0]
100023f4:	3830      	subs	r0, #48	; 0x30
100023f6:	001a      	movs	r2, r3
100023f8:	3a30      	subs	r2, #48	; 0x30
100023fa:	0007      	movs	r7, r0
100023fc:	2a09      	cmp	r2, #9
100023fe:	d9f3      	bls.n	100023e8 <_vsnprintf+0x104>
10002400:	900a      	str	r0, [sp, #40]	; 0x28
10002402:	0018      	movs	r0, r3
10002404:	2300      	movs	r3, #0
10002406:	4698      	mov	r8, r3
10002408:	282e      	cmp	r0, #46	; 0x2e
1000240a:	d1b7      	bne.n	1000237c <_vsnprintf+0x98>
1000240c:	2380      	movs	r3, #128	; 0x80
1000240e:	7870      	ldrb	r0, [r6, #1]
10002410:	00db      	lsls	r3, r3, #3
10002412:	4319      	orrs	r1, r3
10002414:	0003      	movs	r3, r0
10002416:	3b30      	subs	r3, #48	; 0x30
10002418:	1c72      	adds	r2, r6, #1
1000241a:	2b09      	cmp	r3, #9
1000241c:	d800      	bhi.n	10002420 <_vsnprintf+0x13c>
1000241e:	e195      	b.n	1000274c <_vsnprintf+0x468>
10002420:	282a      	cmp	r0, #42	; 0x2a
10002422:	d100      	bne.n	10002426 <_vsnprintf+0x142>
10002424:	e1a6      	b.n	10002774 <_vsnprintf+0x490>
10002426:	0016      	movs	r6, r2
10002428:	e7a8      	b.n	1000237c <_vsnprintf+0x98>
1000242a:	46a1      	mov	r9, r4
1000242c:	46aa      	mov	sl, r5
1000242e:	002c      	movs	r4, r5
10002430:	45d3      	cmp	fp, sl
10002432:	d803      	bhi.n	1000243c <_vsnprintf+0x158>
10002434:	2301      	movs	r3, #1
10002436:	425b      	negs	r3, r3
10002438:	445b      	add	r3, fp
1000243a:	469a      	mov	sl, r3
1000243c:	465b      	mov	r3, fp
1000243e:	4652      	mov	r2, sl
10002440:	4649      	mov	r1, r9
10002442:	2000      	movs	r0, #0
10002444:	9d08      	ldr	r5, [sp, #32]
10002446:	47a8      	blx	r5
10002448:	0020      	movs	r0, r4
1000244a:	b01f      	add	sp, #124	; 0x7c
1000244c:	bc3c      	pop	{r2, r3, r4, r5}
1000244e:	4690      	mov	r8, r2
10002450:	4699      	mov	r9, r3
10002452:	46a2      	mov	sl, r4
10002454:	46ab      	mov	fp, r5
10002456:	bdf0      	pop	{r4, r5, r6, r7, pc}
10002458:	9b09      	ldr	r3, [sp, #36]	; 0x24
1000245a:	cb40      	ldmia	r3!, {r6}
1000245c:	960a      	str	r6, [sp, #40]	; 0x28
1000245e:	2e00      	cmp	r6, #0
10002460:	db03      	blt.n	1000246a <_vsnprintf+0x186>
10002462:	7850      	ldrb	r0, [r2, #1]
10002464:	9309      	str	r3, [sp, #36]	; 0x24
10002466:	1c56      	adds	r6, r2, #1
10002468:	e784      	b.n	10002374 <_vsnprintf+0x90>
1000246a:	3828      	subs	r0, #40	; 0x28
1000246c:	4301      	orrs	r1, r0
1000246e:	4270      	negs	r0, r6
10002470:	900a      	str	r0, [sp, #40]	; 0x28
10002472:	9309      	str	r3, [sp, #36]	; 0x24
10002474:	7850      	ldrb	r0, [r2, #1]
10002476:	1c56      	adds	r6, r2, #1
10002478:	e77c      	b.n	10002374 <_vsnprintf+0x90>
1000247a:	2878      	cmp	r0, #120	; 0x78
1000247c:	d100      	bne.n	10002480 <_vsnprintf+0x19c>
1000247e:	e1d4      	b.n	1000282a <_vsnprintf+0x546>
10002480:	2858      	cmp	r0, #88	; 0x58
10002482:	d100      	bne.n	10002486 <_vsnprintf+0x1a2>
10002484:	e268      	b.n	10002958 <_vsnprintf+0x674>
10002486:	286f      	cmp	r0, #111	; 0x6f
10002488:	d100      	bne.n	1000248c <_vsnprintf+0x1a8>
1000248a:	e352      	b.n	10002b32 <_vsnprintf+0x84e>
1000248c:	2862      	cmp	r0, #98	; 0x62
1000248e:	d100      	bne.n	10002492 <_vsnprintf+0x1ae>
10002490:	e1d8      	b.n	10002844 <_vsnprintf+0x560>
10002492:	2310      	movs	r3, #16
10002494:	000a      	movs	r2, r1
10002496:	439a      	bics	r2, r3
10002498:	920b      	str	r2, [sp, #44]	; 0x2c
1000249a:	2869      	cmp	r0, #105	; 0x69
1000249c:	d001      	beq.n	100024a2 <_vsnprintf+0x1be>
1000249e:	f000 fca2 	bl	10002de6 <_vsnprintf+0xb02>
100024a2:	230a      	movs	r3, #10
100024a4:	930c      	str	r3, [sp, #48]	; 0x30
100024a6:	054b      	lsls	r3, r1, #21
100024a8:	d400      	bmi.n	100024ac <_vsnprintf+0x1c8>
100024aa:	e1d5      	b.n	10002858 <_vsnprintf+0x574>
100024ac:	2301      	movs	r3, #1
100024ae:	9a0b      	ldr	r2, [sp, #44]	; 0x2c
100024b0:	439a      	bics	r2, r3
100024b2:	920b      	str	r2, [sp, #44]	; 0x2c
100024b4:	2869      	cmp	r0, #105	; 0x69
100024b6:	d100      	bne.n	100024ba <_vsnprintf+0x1d6>
100024b8:	e1ce      	b.n	10002858 <_vsnprintf+0x574>
100024ba:	2864      	cmp	r0, #100	; 0x64
100024bc:	d100      	bne.n	100024c0 <_vsnprintf+0x1dc>
100024be:	e1cb      	b.n	10002858 <_vsnprintf+0x574>
100024c0:	9a0b      	ldr	r2, [sp, #44]	; 0x2c
100024c2:	2380      	movs	r3, #128	; 0x80
100024c4:	0011      	movs	r1, r2
100024c6:	009b      	lsls	r3, r3, #2
100024c8:	4019      	ands	r1, r3
100024ca:	468a      	mov	sl, r1
100024cc:	421a      	tst	r2, r3
100024ce:	d000      	beq.n	100024d2 <_vsnprintf+0x1ee>
100024d0:	e332      	b.n	10002b38 <_vsnprintf+0x854>
100024d2:	2380      	movs	r3, #128	; 0x80
100024d4:	0011      	movs	r1, r2
100024d6:	005b      	lsls	r3, r3, #1
100024d8:	4019      	ands	r1, r3
100024da:	4689      	mov	r9, r1
100024dc:	421a      	tst	r2, r3
100024de:	d001      	beq.n	100024e4 <_vsnprintf+0x200>
100024e0:	f000 fc02 	bl	10002ce8 <_vsnprintf+0xa04>
100024e4:	0013      	movs	r3, r2
100024e6:	065b      	lsls	r3, r3, #25
100024e8:	d500      	bpl.n	100024ec <_vsnprintf+0x208>
100024ea:	e310      	b.n	10002b0e <_vsnprintf+0x82a>
100024ec:	9b0b      	ldr	r3, [sp, #44]	; 0x2c
100024ee:	061b      	lsls	r3, r3, #24
100024f0:	d401      	bmi.n	100024f6 <_vsnprintf+0x212>
100024f2:	f000 fc6e 	bl	10002dd2 <_vsnprintf+0xaee>
100024f6:	9b09      	ldr	r3, [sp, #36]	; 0x24
100024f8:	cb04      	ldmia	r3!, {r2}
100024fa:	0412      	lsls	r2, r2, #16
100024fc:	0c12      	lsrs	r2, r2, #16
100024fe:	4692      	mov	sl, r2
10002500:	9309      	str	r3, [sp, #36]	; 0x24
10002502:	4653      	mov	r3, sl
10002504:	2b00      	cmp	r3, #0
10002506:	d000      	beq.n	1000250a <_vsnprintf+0x226>
10002508:	e364      	b.n	10002bd4 <_vsnprintf+0x8f0>
1000250a:	9a0b      	ldr	r2, [sp, #44]	; 0x2c
1000250c:	3310      	adds	r3, #16
1000250e:	0011      	movs	r1, r2
10002510:	4399      	bics	r1, r3
10002512:	910b      	str	r1, [sp, #44]	; 0x2c
10002514:	0552      	lsls	r2, r2, #21
10002516:	d400      	bmi.n	1000251a <_vsnprintf+0x236>
10002518:	e35c      	b.n	10002bd4 <_vsnprintf+0x8f0>
1000251a:	2300      	movs	r3, #0
1000251c:	4699      	mov	r9, r3
1000251e:	9b0b      	ldr	r3, [sp, #44]	; 0x2c
10002520:	9306      	str	r3, [sp, #24]
10002522:	9b0a      	ldr	r3, [sp, #40]	; 0x28
10002524:	9305      	str	r3, [sp, #20]
10002526:	4643      	mov	r3, r8
10002528:	9304      	str	r3, [sp, #16]
1000252a:	9b0c      	ldr	r3, [sp, #48]	; 0x30
1000252c:	9303      	str	r3, [sp, #12]
1000252e:	2300      	movs	r3, #0
10002530:	e2de      	b.n	10002af0 <_vsnprintf+0x80c>
10002532:	7870      	ldrb	r0, [r6, #1]
10002534:	2868      	cmp	r0, #104	; 0x68
10002536:	d100      	bne.n	1000253a <_vsnprintf+0x256>
10002538:	e207      	b.n	1000294a <_vsnprintf+0x666>
1000253a:	2380      	movs	r3, #128	; 0x80
1000253c:	3601      	adds	r6, #1
1000253e:	4319      	orrs	r1, r3
10002540:	e741      	b.n	100023c6 <_vsnprintf+0xe2>
10002542:	2380      	movs	r3, #128	; 0x80
10002544:	009b      	lsls	r3, r3, #2
10002546:	7870      	ldrb	r0, [r6, #1]
10002548:	4319      	orrs	r1, r3
1000254a:	3601      	adds	r6, #1
1000254c:	e73b      	b.n	100023c6 <_vsnprintf+0xe2>
1000254e:	2846      	cmp	r0, #70	; 0x46
10002550:	d100      	bne.n	10002554 <_vsnprintf+0x270>
10002552:	e174      	b.n	1000283e <_vsnprintf+0x55a>
10002554:	2207      	movs	r2, #7
10002556:	9b09      	ldr	r3, [sp, #36]	; 0x24
10002558:	9104      	str	r1, [sp, #16]
1000255a:	3307      	adds	r3, #7
1000255c:	4393      	bics	r3, r2
1000255e:	9a0a      	ldr	r2, [sp, #40]	; 0x28
10002560:	0019      	movs	r1, r3
10002562:	9203      	str	r2, [sp, #12]
10002564:	4642      	mov	r2, r8
10002566:	9202      	str	r2, [sp, #8]
10002568:	c90c      	ldmia	r1!, {r2, r3}
1000256a:	9808      	ldr	r0, [sp, #32]
1000256c:	9200      	str	r2, [sp, #0]
1000256e:	9301      	str	r3, [sp, #4]
10002570:	9109      	str	r1, [sp, #36]	; 0x24
10002572:	002a      	movs	r2, r5
10002574:	465b      	mov	r3, fp
10002576:	0021      	movs	r1, r4
10002578:	f7ff fcc4 	bl	10001f04 <_ftoa>
1000257c:	3601      	adds	r6, #1
1000257e:	0005      	movs	r5, r0
10002580:	e6d5      	b.n	1000232e <_vsnprintf+0x4a>
10002582:	9b09      	ldr	r3, [sp, #36]	; 0x24
10002584:	001a      	movs	r2, r3
10002586:	ca08      	ldmia	r2!, {r3}
10002588:	4691      	mov	r9, r2
1000258a:	2b00      	cmp	r3, #0
1000258c:	d100      	bne.n	10002590 <_vsnprintf+0x2ac>
1000258e:	e105      	b.n	1000279c <_vsnprintf+0x4b8>
10002590:	2221      	movs	r2, #33	; 0x21
10002592:	4311      	orrs	r1, r2
10002594:	468a      	mov	sl, r1
10002596:	a80e      	add	r0, sp, #56	; 0x38
10002598:	4684      	mov	ip, r0
1000259a:	211f      	movs	r1, #31
1000259c:	4461      	add	r1, ip
1000259e:	9509      	str	r5, [sp, #36]	; 0x24
100025a0:	2200      	movs	r2, #0
100025a2:	270f      	movs	r7, #15
100025a4:	46a4      	mov	ip, r4
100025a6:	000d      	movs	r5, r1
100025a8:	e002      	b.n	100025b0 <_vsnprintf+0x2cc>
100025aa:	2a20      	cmp	r2, #32
100025ac:	d00c      	beq.n	100025c8 <_vsnprintf+0x2e4>
100025ae:	000b      	movs	r3, r1
100025b0:	003c      	movs	r4, r7
100025b2:	401c      	ands	r4, r3
100025b4:	0020      	movs	r0, r4
100025b6:	3037      	adds	r0, #55	; 0x37
100025b8:	2c09      	cmp	r4, #9
100025ba:	d800      	bhi.n	100025be <_vsnprintf+0x2da>
100025bc:	3807      	subs	r0, #7
100025be:	3201      	adds	r2, #1
100025c0:	54a8      	strb	r0, [r5, r2]
100025c2:	0919      	lsrs	r1, r3, #4
100025c4:	2b0f      	cmp	r3, #15
100025c6:	d8f0      	bhi.n	100025aa <_vsnprintf+0x2c6>
100025c8:	4664      	mov	r4, ip
100025ca:	9d09      	ldr	r5, [sp, #36]	; 0x24
100025cc:	e0f0      	b.n	100027b0 <_vsnprintf+0x4cc>
100025ce:	078b      	lsls	r3, r1, #30
100025d0:	d400      	bmi.n	100025d4 <_vsnprintf+0x2f0>
100025d2:	e1d1      	b.n	10002978 <_vsnprintf+0x694>
100025d4:	9b09      	ldr	r3, [sp, #36]	; 0x24
100025d6:	002a      	movs	r2, r5
100025d8:	4699      	mov	r9, r3
100025da:	1c6b      	adds	r3, r5, #1
100025dc:	4698      	mov	r8, r3
100025de:	464b      	mov	r3, r9
100025e0:	cb01      	ldmia	r3!, {r0}
100025e2:	0021      	movs	r1, r4
100025e4:	4699      	mov	r9, r3
100025e6:	9f08      	ldr	r7, [sp, #32]
100025e8:	465b      	mov	r3, fp
100025ea:	b2c0      	uxtb	r0, r0
100025ec:	47b8      	blx	r7
100025ee:	9b0a      	ldr	r3, [sp, #40]	; 0x28
100025f0:	469c      	mov	ip, r3
100025f2:	4465      	add	r5, ip
100025f4:	2b01      	cmp	r3, #1
100025f6:	d800      	bhi.n	100025fa <_vsnprintf+0x316>
100025f8:	e290      	b.n	10002b1c <_vsnprintf+0x838>
100025fa:	46b2      	mov	sl, r6
100025fc:	465e      	mov	r6, fp
100025fe:	4647      	mov	r7, r8
10002600:	46a8      	mov	r8, r5
10002602:	9d08      	ldr	r5, [sp, #32]
10002604:	003a      	movs	r2, r7
10002606:	0033      	movs	r3, r6
10002608:	3701      	adds	r7, #1
1000260a:	0021      	movs	r1, r4
1000260c:	2020      	movs	r0, #32
1000260e:	47a8      	blx	r5
10002610:	4547      	cmp	r7, r8
10002612:	d1f7      	bne.n	10002604 <_vsnprintf+0x320>
10002614:	46b3      	mov	fp, r6
10002616:	464b      	mov	r3, r9
10002618:	4656      	mov	r6, sl
1000261a:	003d      	movs	r5, r7
1000261c:	9309      	str	r3, [sp, #36]	; 0x24
1000261e:	3601      	adds	r6, #1
10002620:	e685      	b.n	1000232e <_vsnprintf+0x4a>
10002622:	002a      	movs	r2, r5
10002624:	1c6f      	adds	r7, r5, #1
10002626:	465b      	mov	r3, fp
10002628:	9d08      	ldr	r5, [sp, #32]
1000262a:	0021      	movs	r1, r4
1000262c:	2025      	movs	r0, #37	; 0x25
1000262e:	47a8      	blx	r5
10002630:	3601      	adds	r6, #1
10002632:	003d      	movs	r5, r7
10002634:	e67b      	b.n	1000232e <_vsnprintf+0x4a>
10002636:	46c0      	nop			; (mov r8, r8)
10002638:	100022e5 	.word	0x100022e5
1000263c:	20000b64 	.word	0x20000b64
10002640:	10004bcc 	.word	0x10004bcc
10002644:	10004c10 	.word	0x10004c10
10002648:	10004c5c 	.word	0x10004c5c
1000264c:	9b09      	ldr	r3, [sp, #36]	; 0x24
1000264e:	cb04      	ldmia	r3!, {r2}
10002650:	4699      	mov	r9, r3
10002652:	4643      	mov	r3, r8
10002654:	9209      	str	r2, [sp, #36]	; 0x24
10002656:	2b00      	cmp	r3, #0
10002658:	d000      	beq.n	1000265c <_vsnprintf+0x378>
1000265a:	e097      	b.n	1000278c <_vsnprintf+0x4a8>
1000265c:	7813      	ldrb	r3, [r2, #0]
1000265e:	469c      	mov	ip, r3
10002660:	2b00      	cmp	r3, #0
10002662:	d100      	bne.n	10002666 <_vsnprintf+0x382>
10002664:	e3b3      	b.n	10002dce <_vsnprintf+0xaea>
10002666:	2302      	movs	r3, #2
10002668:	425b      	negs	r3, r3
1000266a:	1c5a      	adds	r2, r3, #1
1000266c:	9b09      	ldr	r3, [sp, #36]	; 0x24
1000266e:	4692      	mov	sl, r2
10002670:	0018      	movs	r0, r3
10002672:	9f0a      	ldr	r7, [sp, #40]	; 0x28
10002674:	920b      	str	r2, [sp, #44]	; 0x2c
10002676:	4450      	add	r0, sl
10002678:	e002      	b.n	10002680 <_vsnprintf+0x39c>
1000267a:	4283      	cmp	r3, r0
1000267c:	d100      	bne.n	10002680 <_vsnprintf+0x39c>
1000267e:	e169      	b.n	10002954 <_vsnprintf+0x670>
10002680:	785a      	ldrb	r2, [r3, #1]
10002682:	3301      	adds	r3, #1
10002684:	2a00      	cmp	r2, #0
10002686:	d1f8      	bne.n	1000267a <_vsnprintf+0x396>
10002688:	9a09      	ldr	r2, [sp, #36]	; 0x24
1000268a:	970a      	str	r7, [sp, #40]	; 0x28
1000268c:	1a9b      	subs	r3, r3, r2
1000268e:	930b      	str	r3, [sp, #44]	; 0x2c
10002690:	2380      	movs	r3, #128	; 0x80
10002692:	000a      	movs	r2, r1
10002694:	00db      	lsls	r3, r3, #3
10002696:	401a      	ands	r2, r3
10002698:	920c      	str	r2, [sp, #48]	; 0x30
1000269a:	4219      	tst	r1, r3
1000269c:	d004      	beq.n	100026a8 <_vsnprintf+0x3c4>
1000269e:	9b0b      	ldr	r3, [sp, #44]	; 0x2c
100026a0:	4543      	cmp	r3, r8
100026a2:	d901      	bls.n	100026a8 <_vsnprintf+0x3c4>
100026a4:	4643      	mov	r3, r8
100026a6:	930b      	str	r3, [sp, #44]	; 0x2c
100026a8:	2302      	movs	r3, #2
100026aa:	001a      	movs	r2, r3
100026ac:	400a      	ands	r2, r1
100026ae:	920d      	str	r2, [sp, #52]	; 0x34
100026b0:	420b      	tst	r3, r1
100026b2:	d100      	bne.n	100026b6 <_vsnprintf+0x3d2>
100026b4:	e184      	b.n	100029c0 <_vsnprintf+0x6dc>
100026b6:	4660      	mov	r0, ip
100026b8:	2800      	cmp	r0, #0
100026ba:	d023      	beq.n	10002704 <_vsnprintf+0x420>
100026bc:	9b0c      	ldr	r3, [sp, #48]	; 0x30
100026be:	2b00      	cmp	r3, #0
100026c0:	d100      	bne.n	100026c4 <_vsnprintf+0x3e0>
100026c2:	e124      	b.n	1000290e <_vsnprintf+0x62a>
100026c4:	44a8      	add	r8, r5
100026c6:	46c2      	mov	sl, r8
100026c8:	9b09      	ldr	r3, [sp, #36]	; 0x24
100026ca:	4657      	mov	r7, sl
100026cc:	1b5b      	subs	r3, r3, r5
100026ce:	4698      	mov	r8, r3
100026d0:	9b08      	ldr	r3, [sp, #32]
100026d2:	46b2      	mov	sl, r6
100026d4:	002a      	movs	r2, r5
100026d6:	0026      	movs	r6, r4
100026d8:	465c      	mov	r4, fp
100026da:	469b      	mov	fp, r3
100026dc:	e009      	b.n	100026f2 <_vsnprintf+0x40e>
100026de:	0023      	movs	r3, r4
100026e0:	0031      	movs	r1, r6
100026e2:	1c55      	adds	r5, r2, #1
100026e4:	47d8      	blx	fp
100026e6:	4643      	mov	r3, r8
100026e8:	5d58      	ldrb	r0, [r3, r5]
100026ea:	2800      	cmp	r0, #0
100026ec:	d100      	bne.n	100026f0 <_vsnprintf+0x40c>
100026ee:	e13f      	b.n	10002970 <_vsnprintf+0x68c>
100026f0:	002a      	movs	r2, r5
100026f2:	4297      	cmp	r7, r2
100026f4:	d1f3      	bne.n	100026de <_vsnprintf+0x3fa>
100026f6:	46a3      	mov	fp, r4
100026f8:	003d      	movs	r5, r7
100026fa:	0034      	movs	r4, r6
100026fc:	4656      	mov	r6, sl
100026fe:	9b0d      	ldr	r3, [sp, #52]	; 0x34
10002700:	2b00      	cmp	r3, #0
10002702:	d069      	beq.n	100027d8 <_vsnprintf+0x4f4>
10002704:	9b0b      	ldr	r3, [sp, #44]	; 0x2c
10002706:	990a      	ldr	r1, [sp, #40]	; 0x28
10002708:	46a8      	mov	r8, r5
1000270a:	4299      	cmp	r1, r3
1000270c:	d964      	bls.n	100027d8 <_vsnprintf+0x4f4>
1000270e:	468c      	mov	ip, r1
10002710:	4465      	add	r5, ip
10002712:	1aed      	subs	r5, r5, r3
10002714:	9b08      	ldr	r3, [sp, #32]
10002716:	4647      	mov	r7, r8
10002718:	469a      	mov	sl, r3
1000271a:	46b0      	mov	r8, r6
1000271c:	0026      	movs	r6, r4
1000271e:	465c      	mov	r4, fp
10002720:	003a      	movs	r2, r7
10002722:	0023      	movs	r3, r4
10002724:	3701      	adds	r7, #1
10002726:	0031      	movs	r1, r6
10002728:	2020      	movs	r0, #32
1000272a:	47d0      	blx	sl
1000272c:	42af      	cmp	r7, r5
1000272e:	d1f7      	bne.n	10002720 <_vsnprintf+0x43c>
10002730:	46a3      	mov	fp, r4
10002732:	0034      	movs	r4, r6
10002734:	4646      	mov	r6, r8
10002736:	e04f      	b.n	100027d8 <_vsnprintf+0x4f4>
10002738:	4bd2      	ldr	r3, [pc, #840]	; (10002a84 <_vsnprintf+0x7a0>)
1000273a:	7820      	ldrb	r0, [r4, #0]
1000273c:	9308      	str	r3, [sp, #32]
1000273e:	2300      	movs	r3, #0
10002740:	469a      	mov	sl, r3
10002742:	2800      	cmp	r0, #0
10002744:	d000      	beq.n	10002748 <_vsnprintf+0x464>
10002746:	e5e6      	b.n	10002316 <_vsnprintf+0x32>
10002748:	2400      	movs	r4, #0
1000274a:	e671      	b.n	10002430 <_vsnprintf+0x14c>
1000274c:	4643      	mov	r3, r8
1000274e:	0006      	movs	r6, r0
10002750:	9f0a      	ldr	r7, [sp, #40]	; 0x28
10002752:	0098      	lsls	r0, r3, #2
10002754:	18c0      	adds	r0, r0, r3
10002756:	3201      	adds	r2, #1
10002758:	0040      	lsls	r0, r0, #1
1000275a:	1980      	adds	r0, r0, r6
1000275c:	7816      	ldrb	r6, [r2, #0]
1000275e:	0003      	movs	r3, r0
10002760:	0030      	movs	r0, r6
10002762:	3830      	subs	r0, #48	; 0x30
10002764:	3b30      	subs	r3, #48	; 0x30
10002766:	2809      	cmp	r0, #9
10002768:	d9f3      	bls.n	10002752 <_vsnprintf+0x46e>
1000276a:	0030      	movs	r0, r6
1000276c:	4698      	mov	r8, r3
1000276e:	0016      	movs	r6, r2
10002770:	970a      	str	r7, [sp, #40]	; 0x28
10002772:	e603      	b.n	1000237c <_vsnprintf+0x98>
10002774:	9b09      	ldr	r3, [sp, #36]	; 0x24
10002776:	3602      	adds	r6, #2
10002778:	cb04      	ldmia	r3!, {r2}
1000277a:	4690      	mov	r8, r2
1000277c:	43d2      	mvns	r2, r2
1000277e:	4640      	mov	r0, r8
10002780:	17d2      	asrs	r2, r2, #31
10002782:	4010      	ands	r0, r2
10002784:	4680      	mov	r8, r0
10002786:	9309      	str	r3, [sp, #36]	; 0x24
10002788:	7830      	ldrb	r0, [r6, #0]
1000278a:	e5f7      	b.n	1000237c <_vsnprintf+0x98>
1000278c:	7813      	ldrb	r3, [r2, #0]
1000278e:	469c      	mov	ip, r3
10002790:	2b00      	cmp	r3, #0
10002792:	d100      	bne.n	10002796 <_vsnprintf+0x4b2>
10002794:	e31a      	b.n	10002dcc <_vsnprintf+0xae8>
10002796:	4643      	mov	r3, r8
10002798:	3b01      	subs	r3, #1
1000279a:	e766      	b.n	1000266a <_vsnprintf+0x386>
1000279c:	2210      	movs	r2, #16
1000279e:	0008      	movs	r0, r1
100027a0:	4390      	bics	r0, r2
100027a2:	3211      	adds	r2, #17
100027a4:	4310      	orrs	r0, r2
100027a6:	4682      	mov	sl, r0
100027a8:	2200      	movs	r2, #0
100027aa:	0549      	lsls	r1, r1, #21
100027ac:	d400      	bmi.n	100027b0 <_vsnprintf+0x4cc>
100027ae:	e6f2      	b.n	10002596 <_vsnprintf+0x2b2>
100027b0:	4653      	mov	r3, sl
100027b2:	9306      	str	r3, [sp, #24]
100027b4:	2308      	movs	r3, #8
100027b6:	9305      	str	r3, [sp, #20]
100027b8:	4643      	mov	r3, r8
100027ba:	9304      	str	r3, [sp, #16]
100027bc:	2310      	movs	r3, #16
100027be:	9303      	str	r3, [sp, #12]
100027c0:	2300      	movs	r3, #0
100027c2:	9302      	str	r3, [sp, #8]
100027c4:	ab16      	add	r3, sp, #88	; 0x58
100027c6:	9201      	str	r2, [sp, #4]
100027c8:	9300      	str	r3, [sp, #0]
100027ca:	002a      	movs	r2, r5
100027cc:	465b      	mov	r3, fp
100027ce:	0021      	movs	r1, r4
100027d0:	9808      	ldr	r0, [sp, #32]
100027d2:	f7ff f879 	bl	100018c8 <_ntoa_format>
100027d6:	0005      	movs	r5, r0
100027d8:	464b      	mov	r3, r9
100027da:	3601      	adds	r6, #1
100027dc:	9309      	str	r3, [sp, #36]	; 0x24
100027de:	e5a6      	b.n	1000232e <_vsnprintf+0x4a>
100027e0:	2320      	movs	r3, #32
100027e2:	0002      	movs	r2, r0
100027e4:	439a      	bics	r2, r3
100027e6:	2a47      	cmp	r2, #71	; 0x47
100027e8:	d104      	bne.n	100027f4 <_vsnprintf+0x510>
100027ea:	2380      	movs	r3, #128	; 0x80
100027ec:	011b      	lsls	r3, r3, #4
100027ee:	4319      	orrs	r1, r3
100027f0:	2302      	movs	r3, #2
100027f2:	4398      	bics	r0, r3
100027f4:	2845      	cmp	r0, #69	; 0x45
100027f6:	d101      	bne.n	100027fc <_vsnprintf+0x518>
100027f8:	2320      	movs	r3, #32
100027fa:	4319      	orrs	r1, r3
100027fc:	2207      	movs	r2, #7
100027fe:	9b09      	ldr	r3, [sp, #36]	; 0x24
10002800:	9104      	str	r1, [sp, #16]
10002802:	3307      	adds	r3, #7
10002804:	4393      	bics	r3, r2
10002806:	9a0a      	ldr	r2, [sp, #40]	; 0x28
10002808:	0019      	movs	r1, r3
1000280a:	9203      	str	r2, [sp, #12]
1000280c:	4642      	mov	r2, r8
1000280e:	9202      	str	r2, [sp, #8]
10002810:	c90c      	ldmia	r1!, {r2, r3}
10002812:	9808      	ldr	r0, [sp, #32]
10002814:	9200      	str	r2, [sp, #0]
10002816:	9301      	str	r3, [sp, #4]
10002818:	9109      	str	r1, [sp, #36]	; 0x24
1000281a:	002a      	movs	r2, r5
1000281c:	465b      	mov	r3, fp
1000281e:	0021      	movs	r1, r4
10002820:	f7ff f94a 	bl	10001ab8 <_etoa>
10002824:	3601      	adds	r6, #1
10002826:	0005      	movs	r5, r0
10002828:	e581      	b.n	1000232e <_vsnprintf+0x4a>
1000282a:	2310      	movs	r3, #16
1000282c:	930c      	str	r3, [sp, #48]	; 0x30
1000282e:	230c      	movs	r3, #12
10002830:	000a      	movs	r2, r1
10002832:	439a      	bics	r2, r3
10002834:	920b      	str	r2, [sp, #44]	; 0x2c
10002836:	054b      	lsls	r3, r1, #21
10002838:	d400      	bmi.n	1000283c <_vsnprintf+0x558>
1000283a:	e63b      	b.n	100024b4 <_vsnprintf+0x1d0>
1000283c:	e636      	b.n	100024ac <_vsnprintf+0x1c8>
1000283e:	2320      	movs	r3, #32
10002840:	4319      	orrs	r1, r3
10002842:	e687      	b.n	10002554 <_vsnprintf+0x270>
10002844:	2302      	movs	r3, #2
10002846:	930c      	str	r3, [sp, #48]	; 0x30
10002848:	910b      	str	r1, [sp, #44]	; 0x2c
1000284a:	990b      	ldr	r1, [sp, #44]	; 0x2c
1000284c:	2864      	cmp	r0, #100	; 0x64
1000284e:	d1ee      	bne.n	1000282e <_vsnprintf+0x54a>
10002850:	9b0b      	ldr	r3, [sp, #44]	; 0x2c
10002852:	055b      	lsls	r3, r3, #21
10002854:	d500      	bpl.n	10002858 <_vsnprintf+0x574>
10002856:	e629      	b.n	100024ac <_vsnprintf+0x1c8>
10002858:	9a0b      	ldr	r2, [sp, #44]	; 0x2c
1000285a:	2380      	movs	r3, #128	; 0x80
1000285c:	0011      	movs	r1, r2
1000285e:	009b      	lsls	r3, r3, #2
10002860:	4019      	ands	r1, r3
10002862:	468a      	mov	sl, r1
10002864:	421a      	tst	r2, r3
10002866:	d000      	beq.n	1000286a <_vsnprintf+0x586>
10002868:	e0ce      	b.n	10002a08 <_vsnprintf+0x724>
1000286a:	2380      	movs	r3, #128	; 0x80
1000286c:	0011      	movs	r1, r2
1000286e:	005b      	lsls	r3, r3, #1
10002870:	4019      	ands	r1, r3
10002872:	4689      	mov	r9, r1
10002874:	421a      	tst	r2, r3
10002876:	d000      	beq.n	1000287a <_vsnprintf+0x596>
10002878:	e1db      	b.n	10002c32 <_vsnprintf+0x94e>
1000287a:	0013      	movs	r3, r2
1000287c:	065b      	lsls	r3, r3, #25
1000287e:	d500      	bpl.n	10002882 <_vsnprintf+0x59e>
10002880:	e11d      	b.n	10002abe <_vsnprintf+0x7da>
10002882:	9b0b      	ldr	r3, [sp, #44]	; 0x2c
10002884:	9909      	ldr	r1, [sp, #36]	; 0x24
10002886:	061b      	lsls	r3, r3, #24
10002888:	d400      	bmi.n	1000288c <_vsnprintf+0x5a8>
1000288a:	e299      	b.n	10002dc0 <_vsnprintf+0xadc>
1000288c:	c908      	ldmia	r1!, {r3}
1000288e:	b21b      	sxth	r3, r3
10002890:	17d8      	asrs	r0, r3, #31
10002892:	181a      	adds	r2, r3, r0
10002894:	4042      	eors	r2, r0
10002896:	b292      	uxth	r2, r2
10002898:	9109      	str	r1, [sp, #36]	; 0x24
1000289a:	4692      	mov	sl, r2
1000289c:	0fda      	lsrs	r2, r3, #31
1000289e:	9212      	str	r2, [sp, #72]	; 0x48
100028a0:	2b00      	cmp	r3, #0
100028a2:	d109      	bne.n	100028b8 <_vsnprintf+0x5d4>
100028a4:	2380      	movs	r3, #128	; 0x80
100028a6:	2210      	movs	r2, #16
100028a8:	990b      	ldr	r1, [sp, #44]	; 0x2c
100028aa:	00db      	lsls	r3, r3, #3
100028ac:	400b      	ands	r3, r1
100028ae:	4391      	bics	r1, r2
100028b0:	910b      	str	r1, [sp, #44]	; 0x2c
100028b2:	2b00      	cmp	r3, #0
100028b4:	d000      	beq.n	100028b8 <_vsnprintf+0x5d4>
100028b6:	e112      	b.n	10002ade <_vsnprintf+0x7fa>
100028b8:	9a0b      	ldr	r2, [sp, #44]	; 0x2c
100028ba:	2361      	movs	r3, #97	; 0x61
100028bc:	0692      	lsls	r2, r2, #26
100028be:	d500      	bpl.n	100028c2 <_vsnprintf+0x5de>
100028c0:	2341      	movs	r3, #65	; 0x41
100028c2:	a90e      	add	r1, sp, #56	; 0x38
100028c4:	221f      	movs	r2, #31
100028c6:	468c      	mov	ip, r1
100028c8:	b2db      	uxtb	r3, r3
100028ca:	4462      	add	r2, ip
100028cc:	3b0a      	subs	r3, #10
100028ce:	4657      	mov	r7, sl
100028d0:	9513      	str	r5, [sp, #76]	; 0x4c
100028d2:	46a2      	mov	sl, r4
100028d4:	464d      	mov	r5, r9
100028d6:	9c0c      	ldr	r4, [sp, #48]	; 0x30
100028d8:	46b1      	mov	r9, r6
100028da:	930d      	str	r3, [sp, #52]	; 0x34
100028dc:	0016      	movs	r6, r2
100028de:	e00a      	b.n	100028f6 <_vsnprintf+0x612>
100028e0:	3330      	adds	r3, #48	; 0x30
100028e2:	b2db      	uxtb	r3, r3
100028e4:	3501      	adds	r5, #1
100028e6:	5573      	strb	r3, [r6, r5]
100028e8:	42a7      	cmp	r7, r4
100028ea:	d200      	bcs.n	100028ee <_vsnprintf+0x60a>
100028ec:	e11c      	b.n	10002b28 <_vsnprintf+0x844>
100028ee:	2d20      	cmp	r5, #32
100028f0:	d100      	bne.n	100028f4 <_vsnprintf+0x610>
100028f2:	e119      	b.n	10002b28 <_vsnprintf+0x844>
100028f4:	0007      	movs	r7, r0
100028f6:	0021      	movs	r1, r4
100028f8:	0038      	movs	r0, r7
100028fa:	f000 fb01 	bl	10002f00 <__wrap___aeabi_uidiv>
100028fe:	b2cb      	uxtb	r3, r1
10002900:	2909      	cmp	r1, #9
10002902:	d9ed      	bls.n	100028e0 <_vsnprintf+0x5fc>
10002904:	9a0d      	ldr	r2, [sp, #52]	; 0x34
10002906:	4694      	mov	ip, r2
10002908:	4463      	add	r3, ip
1000290a:	b2db      	uxtb	r3, r3
1000290c:	e7ea      	b.n	100028e4 <_vsnprintf+0x600>
1000290e:	9b09      	ldr	r3, [sp, #36]	; 0x24
10002910:	465f      	mov	r7, fp
10002912:	1b5b      	subs	r3, r3, r5
10002914:	4698      	mov	r8, r3
10002916:	9b0a      	ldr	r3, [sp, #40]	; 0x28
10002918:	46b3      	mov	fp, r6
1000291a:	469a      	mov	sl, r3
1000291c:	0026      	movs	r6, r4
1000291e:	9c08      	ldr	r4, [sp, #32]
10002920:	002a      	movs	r2, r5
10002922:	003b      	movs	r3, r7
10002924:	0031      	movs	r1, r6
10002926:	47a0      	blx	r4
10002928:	4643      	mov	r3, r8
1000292a:	3501      	adds	r5, #1
1000292c:	5d58      	ldrb	r0, [r3, r5]
1000292e:	2800      	cmp	r0, #0
10002930:	d1f6      	bne.n	10002920 <_vsnprintf+0x63c>
10002932:	4653      	mov	r3, sl
10002934:	0034      	movs	r4, r6
10002936:	930a      	str	r3, [sp, #40]	; 0x28
10002938:	465e      	mov	r6, fp
1000293a:	46bb      	mov	fp, r7
1000293c:	e6df      	b.n	100026fe <_vsnprintf+0x41a>
1000293e:	23c0      	movs	r3, #192	; 0xc0
10002940:	009b      	lsls	r3, r3, #2
10002942:	78b0      	ldrb	r0, [r6, #2]
10002944:	4319      	orrs	r1, r3
10002946:	3602      	adds	r6, #2
10002948:	e53d      	b.n	100023c6 <_vsnprintf+0xe2>
1000294a:	23c0      	movs	r3, #192	; 0xc0
1000294c:	78b0      	ldrb	r0, [r6, #2]
1000294e:	4319      	orrs	r1, r3
10002950:	3602      	adds	r6, #2
10002952:	e538      	b.n	100023c6 <_vsnprintf+0xe2>
10002954:	970a      	str	r7, [sp, #40]	; 0x28
10002956:	e69b      	b.n	10002690 <_vsnprintf+0x3ac>
10002958:	230c      	movs	r3, #12
1000295a:	000a      	movs	r2, r1
1000295c:	439a      	bics	r2, r3
1000295e:	3314      	adds	r3, #20
10002960:	431a      	orrs	r2, r3
10002962:	2310      	movs	r3, #16
10002964:	920b      	str	r2, [sp, #44]	; 0x2c
10002966:	930c      	str	r3, [sp, #48]	; 0x30
10002968:	054b      	lsls	r3, r1, #21
1000296a:	d400      	bmi.n	1000296e <_vsnprintf+0x68a>
1000296c:	e5a8      	b.n	100024c0 <_vsnprintf+0x1dc>
1000296e:	e59d      	b.n	100024ac <_vsnprintf+0x1c8>
10002970:	46a3      	mov	fp, r4
10002972:	0034      	movs	r4, r6
10002974:	4656      	mov	r6, sl
10002976:	e6c2      	b.n	100026fe <_vsnprintf+0x41a>
10002978:	9a0a      	ldr	r2, [sp, #40]	; 0x28
1000297a:	2a01      	cmp	r2, #1
1000297c:	d800      	bhi.n	10002980 <_vsnprintf+0x69c>
1000297e:	e22e      	b.n	10002dde <_vsnprintf+0xafa>
10002980:	1e6b      	subs	r3, r5, #1
10002982:	189f      	adds	r7, r3, r2
10002984:	9b08      	ldr	r3, [sp, #32]
10002986:	46b0      	mov	r8, r6
10002988:	4699      	mov	r9, r3
1000298a:	0026      	movs	r6, r4
1000298c:	465c      	mov	r4, fp
1000298e:	002a      	movs	r2, r5
10002990:	0023      	movs	r3, r4
10002992:	3501      	adds	r5, #1
10002994:	0031      	movs	r1, r6
10002996:	2020      	movs	r0, #32
10002998:	47c8      	blx	r9
1000299a:	42bd      	cmp	r5, r7
1000299c:	d1f7      	bne.n	1000298e <_vsnprintf+0x6aa>
1000299e:	46a3      	mov	fp, r4
100029a0:	0034      	movs	r4, r6
100029a2:	4646      	mov	r6, r8
100029a4:	9b09      	ldr	r3, [sp, #36]	; 0x24
100029a6:	003a      	movs	r2, r7
100029a8:	cb01      	ldmia	r3!, {r0}
100029aa:	0021      	movs	r1, r4
100029ac:	4698      	mov	r8, r3
100029ae:	1c7d      	adds	r5, r7, #1
100029b0:	465b      	mov	r3, fp
100029b2:	9f08      	ldr	r7, [sp, #32]
100029b4:	b2c0      	uxtb	r0, r0
100029b6:	47b8      	blx	r7
100029b8:	4643      	mov	r3, r8
100029ba:	3601      	adds	r6, #1
100029bc:	9309      	str	r3, [sp, #36]	; 0x24
100029be:	e4b6      	b.n	1000232e <_vsnprintf+0x4a>
100029c0:	9a0b      	ldr	r2, [sp, #44]	; 0x2c
100029c2:	980a      	ldr	r0, [sp, #40]	; 0x28
100029c4:	1c53      	adds	r3, r2, #1
100029c6:	4290      	cmp	r0, r2
100029c8:	d800      	bhi.n	100029cc <_vsnprintf+0x6e8>
100029ca:	e20a      	b.n	10002de2 <_vsnprintf+0xafe>
100029cc:	1943      	adds	r3, r0, r5
100029ce:	1a9b      	subs	r3, r3, r2
100029d0:	001f      	movs	r7, r3
100029d2:	9b08      	ldr	r3, [sp, #32]
100029d4:	46b2      	mov	sl, r6
100029d6:	0026      	movs	r6, r4
100029d8:	465c      	mov	r4, fp
100029da:	469b      	mov	fp, r3
100029dc:	002a      	movs	r2, r5
100029de:	0023      	movs	r3, r4
100029e0:	3501      	adds	r5, #1
100029e2:	0031      	movs	r1, r6
100029e4:	2020      	movs	r0, #32
100029e6:	47d8      	blx	fp
100029e8:	42bd      	cmp	r5, r7
100029ea:	d1f7      	bne.n	100029dc <_vsnprintf+0x6f8>
100029ec:	9b0a      	ldr	r3, [sp, #40]	; 0x28
100029ee:	46a3      	mov	fp, r4
100029f0:	3301      	adds	r3, #1
100029f2:	930b      	str	r3, [sp, #44]	; 0x2c
100029f4:	9b09      	ldr	r3, [sp, #36]	; 0x24
100029f6:	0034      	movs	r4, r6
100029f8:	781b      	ldrb	r3, [r3, #0]
100029fa:	4656      	mov	r6, sl
100029fc:	469c      	mov	ip, r3
100029fe:	4660      	mov	r0, ip
10002a00:	2800      	cmp	r0, #0
10002a02:	d000      	beq.n	10002a06 <_vsnprintf+0x722>
10002a04:	e65a      	b.n	100026bc <_vsnprintf+0x3d8>
10002a06:	e6e7      	b.n	100027d8 <_vsnprintf+0x4f4>
10002a08:	2207      	movs	r2, #7
10002a0a:	9b09      	ldr	r3, [sp, #36]	; 0x24
10002a0c:	3307      	adds	r3, #7
10002a0e:	4393      	bics	r3, r2
10002a10:	3201      	adds	r2, #1
10002a12:	4694      	mov	ip, r2
10002a14:	449c      	add	ip, r3
10002a16:	4662      	mov	r2, ip
10002a18:	685f      	ldr	r7, [r3, #4]
10002a1a:	9209      	str	r2, [sp, #36]	; 0x24
10002a1c:	681a      	ldr	r2, [r3, #0]
10002a1e:	17fb      	asrs	r3, r7, #31
10002a20:	9310      	str	r3, [sp, #64]	; 0x40
10002a22:	9311      	str	r3, [sp, #68]	; 0x44
10002a24:	9810      	ldr	r0, [sp, #64]	; 0x40
10002a26:	9911      	ldr	r1, [sp, #68]	; 0x44
10002a28:	0003      	movs	r3, r0
10002a2a:	4053      	eors	r3, r2
10002a2c:	930e      	str	r3, [sp, #56]	; 0x38
10002a2e:	000b      	movs	r3, r1
10002a30:	407b      	eors	r3, r7
10002a32:	930f      	str	r3, [sp, #60]	; 0x3c
10002a34:	4694      	mov	ip, r2
10002a36:	9a0e      	ldr	r2, [sp, #56]	; 0x38
10002a38:	9b0f      	ldr	r3, [sp, #60]	; 0x3c
10002a3a:	1a12      	subs	r2, r2, r0
10002a3c:	418b      	sbcs	r3, r1
10002a3e:	920e      	str	r2, [sp, #56]	; 0x38
10002a40:	930f      	str	r3, [sp, #60]	; 0x3c
10002a42:	0ffb      	lsrs	r3, r7, #31
10002a44:	4662      	mov	r2, ip
10002a46:	9312      	str	r3, [sp, #72]	; 0x48
10002a48:	2300      	movs	r3, #0
10002a4a:	433a      	orrs	r2, r7
10002a4c:	469a      	mov	sl, r3
10002a4e:	d03d      	beq.n	10002acc <_vsnprintf+0x7e8>
10002a50:	9a0b      	ldr	r2, [sp, #44]	; 0x2c
10002a52:	2361      	movs	r3, #97	; 0x61
10002a54:	0692      	lsls	r2, r2, #26
10002a56:	d500      	bpl.n	10002a5a <_vsnprintf+0x776>
10002a58:	2341      	movs	r3, #65	; 0x41
10002a5a:	2200      	movs	r2, #0
10002a5c:	b2db      	uxtb	r3, r3
10002a5e:	a90e      	add	r1, sp, #56	; 0x38
10002a60:	3b0a      	subs	r3, #10
10002a62:	468c      	mov	ip, r1
10002a64:	4691      	mov	r9, r2
10002a66:	930d      	str	r3, [sp, #52]	; 0x34
10002a68:	4643      	mov	r3, r8
10002a6a:	321f      	adds	r2, #31
10002a6c:	4462      	add	r2, ip
10002a6e:	9513      	str	r5, [sp, #76]	; 0x4c
10002a70:	9615      	str	r6, [sp, #84]	; 0x54
10002a72:	464d      	mov	r5, r9
10002a74:	9e0e      	ldr	r6, [sp, #56]	; 0x38
10002a76:	9f0f      	ldr	r7, [sp, #60]	; 0x3c
10002a78:	46a1      	mov	r9, r4
10002a7a:	4690      	mov	r8, r2
10002a7c:	9c0c      	ldr	r4, [sp, #48]	; 0x30
10002a7e:	9314      	str	r3, [sp, #80]	; 0x50
10002a80:	e00f      	b.n	10002aa2 <_vsnprintf+0x7be>
10002a82:	46c0      	nop			; (mov r8, r8)
10002a84:	100017f5 	.word	0x100017f5
10002a88:	3230      	adds	r2, #48	; 0x30
10002a8a:	b2d2      	uxtb	r2, r2
10002a8c:	4643      	mov	r3, r8
10002a8e:	3501      	adds	r5, #1
10002a90:	555a      	strb	r2, [r3, r5]
10002a92:	45ba      	cmp	sl, r7
10002a94:	d100      	bne.n	10002a98 <_vsnprintf+0x7b4>
10002a96:	e17c      	b.n	10002d92 <_vsnprintf+0xaae>
10002a98:	2d20      	cmp	r5, #32
10002a9a:	d100      	bne.n	10002a9e <_vsnprintf+0x7ba>
10002a9c:	e17c      	b.n	10002d98 <_vsnprintf+0xab4>
10002a9e:	0006      	movs	r6, r0
10002aa0:	000f      	movs	r7, r1
10002aa2:	0022      	movs	r2, r4
10002aa4:	2300      	movs	r3, #0
10002aa6:	0030      	movs	r0, r6
10002aa8:	0039      	movs	r1, r7
10002aaa:	f000 fa6f 	bl	10002f8c <__wrap___aeabi_uldivmod>
10002aae:	b2d2      	uxtb	r2, r2
10002ab0:	2a09      	cmp	r2, #9
10002ab2:	d9e9      	bls.n	10002a88 <_vsnprintf+0x7a4>
10002ab4:	9b0d      	ldr	r3, [sp, #52]	; 0x34
10002ab6:	469c      	mov	ip, r3
10002ab8:	4462      	add	r2, ip
10002aba:	b2d2      	uxtb	r2, r2
10002abc:	e7e6      	b.n	10002a8c <_vsnprintf+0x7a8>
10002abe:	23ff      	movs	r3, #255	; 0xff
10002ac0:	9909      	ldr	r1, [sp, #36]	; 0x24
10002ac2:	c904      	ldmia	r1!, {r2}
10002ac4:	4013      	ands	r3, r2
10002ac6:	001a      	movs	r2, r3
10002ac8:	9109      	str	r1, [sp, #36]	; 0x24
10002aca:	e6e6      	b.n	1000289a <_vsnprintf+0x5b6>
10002acc:	9a0b      	ldr	r2, [sp, #44]	; 0x2c
10002ace:	3310      	adds	r3, #16
10002ad0:	0011      	movs	r1, r2
10002ad2:	4399      	bics	r1, r3
10002ad4:	910b      	str	r1, [sp, #44]	; 0x2c
10002ad6:	0552      	lsls	r2, r2, #21
10002ad8:	d5ba      	bpl.n	10002a50 <_vsnprintf+0x76c>
10002ada:	2300      	movs	r3, #0
10002adc:	4699      	mov	r9, r3
10002ade:	9b0b      	ldr	r3, [sp, #44]	; 0x2c
10002ae0:	9306      	str	r3, [sp, #24]
10002ae2:	9b0a      	ldr	r3, [sp, #40]	; 0x28
10002ae4:	9305      	str	r3, [sp, #20]
10002ae6:	4643      	mov	r3, r8
10002ae8:	9304      	str	r3, [sp, #16]
10002aea:	9b0c      	ldr	r3, [sp, #48]	; 0x30
10002aec:	9303      	str	r3, [sp, #12]
10002aee:	9b12      	ldr	r3, [sp, #72]	; 0x48
10002af0:	9302      	str	r3, [sp, #8]
10002af2:	464b      	mov	r3, r9
10002af4:	9301      	str	r3, [sp, #4]
10002af6:	ab16      	add	r3, sp, #88	; 0x58
10002af8:	002a      	movs	r2, r5
10002afa:	9300      	str	r3, [sp, #0]
10002afc:	0021      	movs	r1, r4
10002afe:	465b      	mov	r3, fp
10002b00:	9808      	ldr	r0, [sp, #32]
10002b02:	f7fe fee1 	bl	100018c8 <_ntoa_format>
10002b06:	3601      	adds	r6, #1
10002b08:	0005      	movs	r5, r0
10002b0a:	f7ff fc10 	bl	1000232e <_vsnprintf+0x4a>
10002b0e:	22ff      	movs	r2, #255	; 0xff
10002b10:	9b09      	ldr	r3, [sp, #36]	; 0x24
10002b12:	cb02      	ldmia	r3!, {r1}
10002b14:	4011      	ands	r1, r2
10002b16:	468a      	mov	sl, r1
10002b18:	9309      	str	r3, [sp, #36]	; 0x24
10002b1a:	e4f2      	b.n	10002502 <_vsnprintf+0x21e>
10002b1c:	464b      	mov	r3, r9
10002b1e:	4645      	mov	r5, r8
10002b20:	9309      	str	r3, [sp, #36]	; 0x24
10002b22:	3601      	adds	r6, #1
10002b24:	f7ff fc03 	bl	1000232e <_vsnprintf+0x4a>
10002b28:	464e      	mov	r6, r9
10002b2a:	4654      	mov	r4, sl
10002b2c:	46a9      	mov	r9, r5
10002b2e:	9d13      	ldr	r5, [sp, #76]	; 0x4c
10002b30:	e7d5      	b.n	10002ade <_vsnprintf+0x7fa>
10002b32:	2308      	movs	r3, #8
10002b34:	930c      	str	r3, [sp, #48]	; 0x30
10002b36:	e687      	b.n	10002848 <_vsnprintf+0x564>
10002b38:	2207      	movs	r2, #7
10002b3a:	9b09      	ldr	r3, [sp, #36]	; 0x24
10002b3c:	3307      	adds	r3, #7
10002b3e:	4393      	bics	r3, r2
10002b40:	3201      	adds	r2, #1
10002b42:	4694      	mov	ip, r2
10002b44:	449c      	add	ip, r3
10002b46:	4662      	mov	r2, ip
10002b48:	9209      	str	r2, [sp, #36]	; 0x24
10002b4a:	681a      	ldr	r2, [r3, #0]
10002b4c:	685b      	ldr	r3, [r3, #4]
10002b4e:	0010      	movs	r0, r2
10002b50:	469a      	mov	sl, r3
10002b52:	0013      	movs	r3, r2
10002b54:	4652      	mov	r2, sl
10002b56:	4313      	orrs	r3, r2
10002b58:	d107      	bne.n	10002b6a <_vsnprintf+0x886>
10002b5a:	9a0b      	ldr	r2, [sp, #44]	; 0x2c
10002b5c:	3310      	adds	r3, #16
10002b5e:	0011      	movs	r1, r2
10002b60:	4399      	bics	r1, r3
10002b62:	910b      	str	r1, [sp, #44]	; 0x2c
10002b64:	0552      	lsls	r2, r2, #21
10002b66:	d500      	bpl.n	10002b6a <_vsnprintf+0x886>
10002b68:	e4d7      	b.n	1000251a <_vsnprintf+0x236>
10002b6a:	9a0b      	ldr	r2, [sp, #44]	; 0x2c
10002b6c:	2361      	movs	r3, #97	; 0x61
10002b6e:	0692      	lsls	r2, r2, #26
10002b70:	d500      	bpl.n	10002b74 <_vsnprintf+0x890>
10002b72:	2341      	movs	r3, #65	; 0x41
10002b74:	2200      	movs	r2, #0
10002b76:	b2db      	uxtb	r3, r3
10002b78:	a90e      	add	r1, sp, #56	; 0x38
10002b7a:	3b0a      	subs	r3, #10
10002b7c:	468c      	mov	ip, r1
10002b7e:	4691      	mov	r9, r2
10002b80:	930d      	str	r3, [sp, #52]	; 0x34
10002b82:	4643      	mov	r3, r8
10002b84:	321f      	adds	r2, #31
10002b86:	4462      	add	r2, ip
10002b88:	4657      	mov	r7, sl
10002b8a:	9512      	str	r5, [sp, #72]	; 0x48
10002b8c:	46a2      	mov	sl, r4
10002b8e:	464d      	mov	r5, r9
10002b90:	0004      	movs	r4, r0
10002b92:	46b1      	mov	r9, r6
10002b94:	4690      	mov	r8, r2
10002b96:	9e0c      	ldr	r6, [sp, #48]	; 0x30
10002b98:	9313      	str	r3, [sp, #76]	; 0x4c
10002b9a:	e00d      	b.n	10002bb8 <_vsnprintf+0x8d4>
10002b9c:	3230      	adds	r2, #48	; 0x30
10002b9e:	b2d2      	uxtb	r2, r2
10002ba0:	4643      	mov	r3, r8
10002ba2:	3501      	adds	r5, #1
10002ba4:	555a      	strb	r2, [r3, r5]
10002ba6:	2300      	movs	r3, #0
10002ba8:	42bb      	cmp	r3, r7
10002baa:	d100      	bne.n	10002bae <_vsnprintf+0x8ca>
10002bac:	e0fd      	b.n	10002daa <_vsnprintf+0xac6>
10002bae:	2d20      	cmp	r5, #32
10002bb0:	d100      	bne.n	10002bb4 <_vsnprintf+0x8d0>
10002bb2:	e0fd      	b.n	10002db0 <_vsnprintf+0xacc>
10002bb4:	0004      	movs	r4, r0
10002bb6:	000f      	movs	r7, r1
10002bb8:	0032      	movs	r2, r6
10002bba:	2300      	movs	r3, #0
10002bbc:	0020      	movs	r0, r4
10002bbe:	0039      	movs	r1, r7
10002bc0:	f000 f9e4 	bl	10002f8c <__wrap___aeabi_uldivmod>
10002bc4:	b2d2      	uxtb	r2, r2
10002bc6:	2a09      	cmp	r2, #9
10002bc8:	d9e8      	bls.n	10002b9c <_vsnprintf+0x8b8>
10002bca:	9b0d      	ldr	r3, [sp, #52]	; 0x34
10002bcc:	469c      	mov	ip, r3
10002bce:	4462      	add	r2, ip
10002bd0:	b2d2      	uxtb	r2, r2
10002bd2:	e7e5      	b.n	10002ba0 <_vsnprintf+0x8bc>
10002bd4:	9a0b      	ldr	r2, [sp, #44]	; 0x2c
10002bd6:	2361      	movs	r3, #97	; 0x61
10002bd8:	0692      	lsls	r2, r2, #26
10002bda:	d500      	bpl.n	10002bde <_vsnprintf+0x8fa>
10002bdc:	2341      	movs	r3, #65	; 0x41
10002bde:	b2db      	uxtb	r3, r3
10002be0:	a90e      	add	r1, sp, #56	; 0x38
10002be2:	3b0a      	subs	r3, #10
10002be4:	221f      	movs	r2, #31
10002be6:	468c      	mov	ip, r1
10002be8:	930d      	str	r3, [sp, #52]	; 0x34
10002bea:	0023      	movs	r3, r4
10002bec:	4462      	add	r2, ip
10002bee:	4654      	mov	r4, sl
10002bf0:	9512      	str	r5, [sp, #72]	; 0x48
10002bf2:	0017      	movs	r7, r2
10002bf4:	464d      	mov	r5, r9
10002bf6:	469a      	mov	sl, r3
10002bf8:	46b1      	mov	r9, r6
10002bfa:	9e0c      	ldr	r6, [sp, #48]	; 0x30
10002bfc:	e008      	b.n	10002c10 <_vsnprintf+0x92c>
10002bfe:	3330      	adds	r3, #48	; 0x30
10002c00:	b2db      	uxtb	r3, r3
10002c02:	3501      	adds	r5, #1
10002c04:	557b      	strb	r3, [r7, r5]
10002c06:	42b4      	cmp	r4, r6
10002c08:	d30e      	bcc.n	10002c28 <_vsnprintf+0x944>
10002c0a:	2d20      	cmp	r5, #32
10002c0c:	d00c      	beq.n	10002c28 <_vsnprintf+0x944>
10002c0e:	0004      	movs	r4, r0
10002c10:	0031      	movs	r1, r6
10002c12:	0020      	movs	r0, r4
10002c14:	f000 f974 	bl	10002f00 <__wrap___aeabi_uidiv>
10002c18:	b2cb      	uxtb	r3, r1
10002c1a:	2909      	cmp	r1, #9
10002c1c:	d9ef      	bls.n	10002bfe <_vsnprintf+0x91a>
10002c1e:	9a0d      	ldr	r2, [sp, #52]	; 0x34
10002c20:	4694      	mov	ip, r2
10002c22:	4463      	add	r3, ip
10002c24:	b2db      	uxtb	r3, r3
10002c26:	e7ec      	b.n	10002c02 <_vsnprintf+0x91e>
10002c28:	464e      	mov	r6, r9
10002c2a:	4654      	mov	r4, sl
10002c2c:	46a9      	mov	r9, r5
10002c2e:	9d12      	ldr	r5, [sp, #72]	; 0x48
10002c30:	e475      	b.n	1000251e <_vsnprintf+0x23a>
10002c32:	9b09      	ldr	r3, [sp, #36]	; 0x24
10002c34:	001a      	movs	r2, r3
10002c36:	ca08      	ldmia	r2!, {r3}
10002c38:	17d9      	asrs	r1, r3, #31
10002c3a:	9213      	str	r2, [sp, #76]	; 0x4c
10002c3c:	185a      	adds	r2, r3, r1
10002c3e:	404a      	eors	r2, r1
10002c40:	4691      	mov	r9, r2
10002c42:	0fda      	lsrs	r2, r3, #31
10002c44:	9212      	str	r2, [sp, #72]	; 0x48
10002c46:	2b00      	cmp	r3, #0
10002c48:	d108      	bne.n	10002c5c <_vsnprintf+0x978>
10002c4a:	2380      	movs	r3, #128	; 0x80
10002c4c:	2210      	movs	r2, #16
10002c4e:	990b      	ldr	r1, [sp, #44]	; 0x2c
10002c50:	00db      	lsls	r3, r3, #3
10002c52:	400b      	ands	r3, r1
10002c54:	4391      	bics	r1, r2
10002c56:	910b      	str	r1, [sp, #44]	; 0x2c
10002c58:	2b00      	cmp	r3, #0
10002c5a:	d12b      	bne.n	10002cb4 <_vsnprintf+0x9d0>
10002c5c:	9a0b      	ldr	r2, [sp, #44]	; 0x2c
10002c5e:	2361      	movs	r3, #97	; 0x61
10002c60:	0692      	lsls	r2, r2, #26
10002c62:	d500      	bpl.n	10002c66 <_vsnprintf+0x982>
10002c64:	2341      	movs	r3, #65	; 0x41
10002c66:	aa0e      	add	r2, sp, #56	; 0x38
10002c68:	271f      	movs	r7, #31
10002c6a:	4694      	mov	ip, r2
10002c6c:	b2db      	uxtb	r3, r3
10002c6e:	3b0a      	subs	r3, #10
10002c70:	950d      	str	r5, [sp, #52]	; 0x34
10002c72:	4467      	add	r7, ip
10002c74:	4655      	mov	r5, sl
10002c76:	9309      	str	r3, [sp, #36]	; 0x24
10002c78:	46a2      	mov	sl, r4
10002c7a:	464c      	mov	r4, r9
10002c7c:	46b1      	mov	r9, r6
10002c7e:	9e0c      	ldr	r6, [sp, #48]	; 0x30
10002c80:	e008      	b.n	10002c94 <_vsnprintf+0x9b0>
10002c82:	3330      	adds	r3, #48	; 0x30
10002c84:	b2db      	uxtb	r3, r3
10002c86:	3501      	adds	r5, #1
10002c88:	557b      	strb	r3, [r7, r5]
10002c8a:	42b4      	cmp	r4, r6
10002c8c:	d30e      	bcc.n	10002cac <_vsnprintf+0x9c8>
10002c8e:	2d20      	cmp	r5, #32
10002c90:	d00c      	beq.n	10002cac <_vsnprintf+0x9c8>
10002c92:	0004      	movs	r4, r0
10002c94:	0031      	movs	r1, r6
10002c96:	0020      	movs	r0, r4
10002c98:	f000 f932 	bl	10002f00 <__wrap___aeabi_uidiv>
10002c9c:	b2cb      	uxtb	r3, r1
10002c9e:	2909      	cmp	r1, #9
10002ca0:	d9ef      	bls.n	10002c82 <_vsnprintf+0x99e>
10002ca2:	9a09      	ldr	r2, [sp, #36]	; 0x24
10002ca4:	4694      	mov	ip, r2
10002ca6:	4463      	add	r3, ip
10002ca8:	b2db      	uxtb	r3, r3
10002caa:	e7ec      	b.n	10002c86 <_vsnprintf+0x9a2>
10002cac:	464e      	mov	r6, r9
10002cae:	4654      	mov	r4, sl
10002cb0:	46aa      	mov	sl, r5
10002cb2:	9d0d      	ldr	r5, [sp, #52]	; 0x34
10002cb4:	9b0b      	ldr	r3, [sp, #44]	; 0x2c
10002cb6:	002a      	movs	r2, r5
10002cb8:	9306      	str	r3, [sp, #24]
10002cba:	9b0a      	ldr	r3, [sp, #40]	; 0x28
10002cbc:	0021      	movs	r1, r4
10002cbe:	9305      	str	r3, [sp, #20]
10002cc0:	4643      	mov	r3, r8
10002cc2:	9304      	str	r3, [sp, #16]
10002cc4:	9b0c      	ldr	r3, [sp, #48]	; 0x30
10002cc6:	9808      	ldr	r0, [sp, #32]
10002cc8:	9303      	str	r3, [sp, #12]
10002cca:	9b12      	ldr	r3, [sp, #72]	; 0x48
10002ccc:	3601      	adds	r6, #1
10002cce:	9302      	str	r3, [sp, #8]
10002cd0:	4653      	mov	r3, sl
10002cd2:	9301      	str	r3, [sp, #4]
10002cd4:	ab16      	add	r3, sp, #88	; 0x58
10002cd6:	9300      	str	r3, [sp, #0]
10002cd8:	465b      	mov	r3, fp
10002cda:	f7fe fdf5 	bl	100018c8 <_ntoa_format>
10002cde:	9b13      	ldr	r3, [sp, #76]	; 0x4c
10002ce0:	0005      	movs	r5, r0
10002ce2:	9309      	str	r3, [sp, #36]	; 0x24
10002ce4:	f7ff fb23 	bl	1000232e <_vsnprintf+0x4a>
10002ce8:	9b09      	ldr	r3, [sp, #36]	; 0x24
10002cea:	cb04      	ldmia	r3!, {r2}
10002cec:	4691      	mov	r9, r2
10002cee:	9312      	str	r3, [sp, #72]	; 0x48
10002cf0:	2a00      	cmp	r2, #0
10002cf2:	d108      	bne.n	10002d06 <_vsnprintf+0xa22>
10002cf4:	2380      	movs	r3, #128	; 0x80
10002cf6:	2210      	movs	r2, #16
10002cf8:	990b      	ldr	r1, [sp, #44]	; 0x2c
10002cfa:	00db      	lsls	r3, r3, #3
10002cfc:	400b      	ands	r3, r1
10002cfe:	4391      	bics	r1, r2
10002d00:	910b      	str	r1, [sp, #44]	; 0x2c
10002d02:	2b00      	cmp	r3, #0
10002d04:	d12b      	bne.n	10002d5e <_vsnprintf+0xa7a>
10002d06:	9a0b      	ldr	r2, [sp, #44]	; 0x2c
10002d08:	2361      	movs	r3, #97	; 0x61
10002d0a:	0692      	lsls	r2, r2, #26
10002d0c:	d500      	bpl.n	10002d10 <_vsnprintf+0xa2c>
10002d0e:	2341      	movs	r3, #65	; 0x41
10002d10:	aa0e      	add	r2, sp, #56	; 0x38
10002d12:	271f      	movs	r7, #31
10002d14:	4694      	mov	ip, r2
10002d16:	b2db      	uxtb	r3, r3
10002d18:	3b0a      	subs	r3, #10
10002d1a:	950d      	str	r5, [sp, #52]	; 0x34
10002d1c:	4467      	add	r7, ip
10002d1e:	4655      	mov	r5, sl
10002d20:	9309      	str	r3, [sp, #36]	; 0x24
10002d22:	46a2      	mov	sl, r4
10002d24:	464c      	mov	r4, r9
10002d26:	46b1      	mov	r9, r6
10002d28:	9e0c      	ldr	r6, [sp, #48]	; 0x30
10002d2a:	e008      	b.n	10002d3e <_vsnprintf+0xa5a>
10002d2c:	3330      	adds	r3, #48	; 0x30
10002d2e:	b2db      	uxtb	r3, r3
10002d30:	3501      	adds	r5, #1
10002d32:	557b      	strb	r3, [r7, r5]
10002d34:	42b4      	cmp	r4, r6
10002d36:	d30e      	bcc.n	10002d56 <_vsnprintf+0xa72>
10002d38:	2d20      	cmp	r5, #32
10002d3a:	d00c      	beq.n	10002d56 <_vsnprintf+0xa72>
10002d3c:	0004      	movs	r4, r0
10002d3e:	0031      	movs	r1, r6
10002d40:	0020      	movs	r0, r4
10002d42:	f000 f8dd 	bl	10002f00 <__wrap___aeabi_uidiv>
10002d46:	b2cb      	uxtb	r3, r1
10002d48:	2909      	cmp	r1, #9
10002d4a:	d9ef      	bls.n	10002d2c <_vsnprintf+0xa48>
10002d4c:	9a09      	ldr	r2, [sp, #36]	; 0x24
10002d4e:	4694      	mov	ip, r2
10002d50:	4463      	add	r3, ip
10002d52:	b2db      	uxtb	r3, r3
10002d54:	e7ec      	b.n	10002d30 <_vsnprintf+0xa4c>
10002d56:	464e      	mov	r6, r9
10002d58:	4654      	mov	r4, sl
10002d5a:	46aa      	mov	sl, r5
10002d5c:	9d0d      	ldr	r5, [sp, #52]	; 0x34
10002d5e:	9b0b      	ldr	r3, [sp, #44]	; 0x2c
10002d60:	002a      	movs	r2, r5
10002d62:	9306      	str	r3, [sp, #24]
10002d64:	9b0a      	ldr	r3, [sp, #40]	; 0x28
10002d66:	0021      	movs	r1, r4
10002d68:	9305      	str	r3, [sp, #20]
10002d6a:	4643      	mov	r3, r8
10002d6c:	9304      	str	r3, [sp, #16]
10002d6e:	9b0c      	ldr	r3, [sp, #48]	; 0x30
10002d70:	9808      	ldr	r0, [sp, #32]
10002d72:	9303      	str	r3, [sp, #12]
10002d74:	2300      	movs	r3, #0
10002d76:	9302      	str	r3, [sp, #8]
10002d78:	4653      	mov	r3, sl
10002d7a:	9301      	str	r3, [sp, #4]
10002d7c:	ab16      	add	r3, sp, #88	; 0x58
10002d7e:	9300      	str	r3, [sp, #0]
10002d80:	465b      	mov	r3, fp
10002d82:	f7fe fda1 	bl	100018c8 <_ntoa_format>
10002d86:	9b12      	ldr	r3, [sp, #72]	; 0x48
10002d88:	0005      	movs	r5, r0
10002d8a:	9309      	str	r3, [sp, #36]	; 0x24
10002d8c:	3601      	adds	r6, #1
10002d8e:	f7ff face 	bl	1000232e <_vsnprintf+0x4a>
10002d92:	42b4      	cmp	r4, r6
10002d94:	d800      	bhi.n	10002d98 <_vsnprintf+0xab4>
10002d96:	e67f      	b.n	10002a98 <_vsnprintf+0x7b4>
10002d98:	9b14      	ldr	r3, [sp, #80]	; 0x50
10002d9a:	464c      	mov	r4, r9
10002d9c:	960e      	str	r6, [sp, #56]	; 0x38
10002d9e:	970f      	str	r7, [sp, #60]	; 0x3c
10002da0:	46a9      	mov	r9, r5
10002da2:	4698      	mov	r8, r3
10002da4:	9e15      	ldr	r6, [sp, #84]	; 0x54
10002da6:	9d13      	ldr	r5, [sp, #76]	; 0x4c
10002da8:	e699      	b.n	10002ade <_vsnprintf+0x7fa>
10002daa:	42a6      	cmp	r6, r4
10002dac:	d800      	bhi.n	10002db0 <_vsnprintf+0xacc>
10002dae:	e6fe      	b.n	10002bae <_vsnprintf+0x8ca>
10002db0:	9b13      	ldr	r3, [sp, #76]	; 0x4c
10002db2:	464e      	mov	r6, r9
10002db4:	4698      	mov	r8, r3
10002db6:	46a9      	mov	r9, r5
10002db8:	4654      	mov	r4, sl
10002dba:	9d12      	ldr	r5, [sp, #72]	; 0x48
10002dbc:	f7ff fbaf 	bl	1000251e <_vsnprintf+0x23a>
10002dc0:	c908      	ldmia	r1!, {r3}
10002dc2:	17d8      	asrs	r0, r3, #31
10002dc4:	181a      	adds	r2, r3, r0
10002dc6:	4042      	eors	r2, r0
10002dc8:	9109      	str	r1, [sp, #36]	; 0x24
10002dca:	e566      	b.n	1000289a <_vsnprintf+0x5b6>
10002dcc:	2300      	movs	r3, #0
10002dce:	930b      	str	r3, [sp, #44]	; 0x2c
10002dd0:	e45e      	b.n	10002690 <_vsnprintf+0x3ac>
10002dd2:	9b09      	ldr	r3, [sp, #36]	; 0x24
10002dd4:	cb04      	ldmia	r3!, {r2}
10002dd6:	4692      	mov	sl, r2
10002dd8:	9309      	str	r3, [sp, #36]	; 0x24
10002dda:	f7ff fb92 	bl	10002502 <_vsnprintf+0x21e>
10002dde:	002f      	movs	r7, r5
10002de0:	e5e0      	b.n	100029a4 <_vsnprintf+0x6c0>
10002de2:	930b      	str	r3, [sp, #44]	; 0x2c
10002de4:	e60b      	b.n	100029fe <_vsnprintf+0x71a>
10002de6:	3b06      	subs	r3, #6
10002de8:	930c      	str	r3, [sp, #48]	; 0x30
10002dea:	e52e      	b.n	1000284a <_vsnprintf+0x566>

10002dec <vfctprintf>:
10002dec:	b500      	push	{lr}
10002dee:	b085      	sub	sp, #20
10002df0:	9103      	str	r1, [sp, #12]
10002df2:	2101      	movs	r1, #1
10002df4:	9002      	str	r0, [sp, #8]
10002df6:	9300      	str	r3, [sp, #0]
10002df8:	4803      	ldr	r0, [pc, #12]	; (10002e08 <vfctprintf+0x1c>)
10002dfa:	0013      	movs	r3, r2
10002dfc:	424a      	negs	r2, r1
10002dfe:	a902      	add	r1, sp, #8
10002e00:	f7ff fa70 	bl	100022e4 <_vsnprintf>
10002e04:	b005      	add	sp, #20
10002e06:	bd00      	pop	{pc}
10002e08:	10001aa9 	.word	0x10001aa9

10002e0c <weak_raw_vprintf>:
10002e0c:	b510      	push	{r4, lr}
10002e0e:	4a09      	ldr	r2, [pc, #36]	; (10002e34 <weak_raw_vprintf+0x28>)
10002e10:	0003      	movs	r3, r0
10002e12:	6814      	ldr	r4, [r2, #0]
10002e14:	b084      	sub	sp, #16
10002e16:	2c00      	cmp	r4, #0
10002e18:	d008      	beq.n	10002e2c <weak_raw_vprintf+0x20>
10002e1a:	2201      	movs	r2, #1
10002e1c:	9100      	str	r1, [sp, #0]
10002e1e:	4806      	ldr	r0, [pc, #24]	; (10002e38 <weak_raw_vprintf+0x2c>)
10002e20:	4252      	negs	r2, r2
10002e22:	a903      	add	r1, sp, #12
10002e24:	47a0      	blx	r4
10002e26:	2001      	movs	r0, #1
10002e28:	b004      	add	sp, #16
10002e2a:	bd10      	pop	{r4, pc}
10002e2c:	f001 f88e 	bl	10003f4c <__wrap_puts>
10002e30:	2000      	movs	r0, #0
10002e32:	e7f9      	b.n	10002e28 <weak_raw_vprintf+0x1c>
10002e34:	20000b64 	.word	0x20000b64
10002e38:	10001a99 	.word	0x10001a99

10002e3c <__aeabi_bits_init>:
10002e3c:	4801      	ldr	r0, [pc, #4]	; (10002e44 <__aeabi_bits_init+0x8>)
10002e3e:	2104      	movs	r1, #4
10002e40:	4b01      	ldr	r3, [pc, #4]	; (10002e48 <__aeabi_bits_init+0xc>)
10002e42:	4718      	bx	r3
10002e44:	20000240 	.word	0x20000240
10002e48:	10002e6d 	.word	0x10002e6d

10002e4c <rom_func_lookup>:
10002e4c:	2314      	movs	r3, #20
10002e4e:	b510      	push	{r4, lr}
10002e50:	0001      	movs	r1, r0
10002e52:	8818      	ldrh	r0, [r3, #0]
10002e54:	3304      	adds	r3, #4
10002e56:	881b      	ldrh	r3, [r3, #0]
10002e58:	4798      	blx	r3
10002e5a:	bd10      	pop	{r4, pc}

10002e5c <rom_data_lookup>:
10002e5c:	2316      	movs	r3, #22
10002e5e:	b510      	push	{r4, lr}
10002e60:	0001      	movs	r1, r0
10002e62:	8818      	ldrh	r0, [r3, #0]
10002e64:	3302      	adds	r3, #2
10002e66:	881b      	ldrh	r3, [r3, #0]
10002e68:	4798      	blx	r3
10002e6a:	bd10      	pop	{r4, pc}

10002e6c <rom_funcs_lookup>:
10002e6c:	b5f0      	push	{r4, r5, r6, r7, lr}
10002e6e:	46c6      	mov	lr, r8
10002e70:	b500      	push	{lr}
10002e72:	2900      	cmp	r1, #0
10002e74:	d016      	beq.n	10002ea4 <rom_funcs_lookup+0x38>
10002e76:	2314      	movs	r3, #20
10002e78:	0004      	movs	r4, r0
10002e7a:	2501      	movs	r5, #1
10002e7c:	4698      	mov	r8, r3
10002e7e:	2718      	movs	r7, #24
10002e80:	0089      	lsls	r1, r1, #2
10002e82:	1846      	adds	r6, r0, r1
10002e84:	4643      	mov	r3, r8
10002e86:	6821      	ldr	r1, [r4, #0]
10002e88:	8818      	ldrh	r0, [r3, #0]
10002e8a:	883b      	ldrh	r3, [r7, #0]
10002e8c:	4798      	blx	r3
10002e8e:	c401      	stmia	r4!, {r0}
10002e90:	1e43      	subs	r3, r0, #1
10002e92:	4198      	sbcs	r0, r3
10002e94:	4240      	negs	r0, r0
10002e96:	4005      	ands	r5, r0
10002e98:	42a6      	cmp	r6, r4
10002e9a:	d1f3      	bne.n	10002e84 <rom_funcs_lookup+0x18>
10002e9c:	0028      	movs	r0, r5
10002e9e:	bc04      	pop	{r2}
10002ea0:	4690      	mov	r8, r2
10002ea2:	bdf0      	pop	{r4, r5, r6, r7, pc}
10002ea4:	2501      	movs	r5, #1
10002ea6:	e7f9      	b.n	10002e9c <rom_funcs_lookup+0x30>

10002ea8 <__wrap___aeabi_idiv>:
10002ea8:	4a14      	ldr	r2, [pc, #80]	; (10002efc <divmod_s32s32_savestate+0x20>)
10002eaa:	6f93      	ldr	r3, [r2, #120]	; 0x78
10002eac:	089b      	lsrs	r3, r3, #2
10002eae:	d215      	bcs.n	10002edc <divmod_s32s32_savestate>

10002eb0 <divmod_s32s32_unsafe>:
10002eb0:	6690      	str	r0, [r2, #104]	; 0x68
10002eb2:	66d1      	str	r1, [r2, #108]	; 0x6c
10002eb4:	2900      	cmp	r1, #0
10002eb6:	d005      	beq.n	10002ec4 <divmod_s32s32_unsafe+0x14>
10002eb8:	e7ff      	b.n	10002eba <divmod_s32s32_unsafe+0xa>
10002eba:	e7ff      	b.n	10002ebc <divmod_s32s32_unsafe+0xc>
10002ebc:	e7ff      	b.n	10002ebe <divmod_s32s32_unsafe+0xe>
10002ebe:	6f51      	ldr	r1, [r2, #116]	; 0x74
10002ec0:	6f10      	ldr	r0, [r2, #112]	; 0x70
10002ec2:	4770      	bx	lr
10002ec4:	b504      	push	{r2, lr}
10002ec6:	2180      	movs	r1, #128	; 0x80
10002ec8:	0609      	lsls	r1, r1, #24
10002eca:	17c2      	asrs	r2, r0, #31
10002ecc:	4051      	eors	r1, r2
10002ece:	2800      	cmp	r0, #0
10002ed0:	d000      	beq.n	10002ed4 <divmod_s32s32_unsafe+0x24>
10002ed2:	43c8      	mvns	r0, r1
10002ed4:	f001 fdf8 	bl	10004ac8 <____aeabi_idiv0_veneer>
10002ed8:	2100      	movs	r1, #0
10002eda:	bd04      	pop	{r2, pc}

10002edc <divmod_s32s32_savestate>:
10002edc:	6f93      	ldr	r3, [r2, #120]	; 0x78
10002ede:	085b      	lsrs	r3, r3, #1
10002ee0:	d3fd      	bcc.n	10002ede <divmod_s32s32_savestate+0x2>
10002ee2:	b5f0      	push	{r4, r5, r6, r7, lr}
10002ee4:	6e94      	ldr	r4, [r2, #104]	; 0x68
10002ee6:	6ed5      	ldr	r5, [r2, #108]	; 0x6c
10002ee8:	6f57      	ldr	r7, [r2, #116]	; 0x74
10002eea:	6f16      	ldr	r6, [r2, #112]	; 0x70
10002eec:	f7ff ffe0 	bl	10002eb0 <divmod_s32s32_unsafe>
10002ef0:	6694      	str	r4, [r2, #104]	; 0x68
10002ef2:	66d5      	str	r5, [r2, #108]	; 0x6c
10002ef4:	6757      	str	r7, [r2, #116]	; 0x74
10002ef6:	6716      	str	r6, [r2, #112]	; 0x70
10002ef8:	bdf0      	pop	{r4, r5, r6, r7, pc}
10002efa:	0000      	.short	0x0000
10002efc:	d0000000 	.word	0xd0000000

10002f00 <__wrap___aeabi_uidiv>:
10002f00:	4a13      	ldr	r2, [pc, #76]	; (10002f50 <divmod_u32u32_savestate+0x20>)
10002f02:	6f93      	ldr	r3, [r2, #120]	; 0x78
10002f04:	089b      	lsrs	r3, r3, #2
10002f06:	d213      	bcs.n	10002f30 <divmod_u32u32_savestate>

10002f08 <divmod_u32u32_unsafe>:
10002f08:	6610      	str	r0, [r2, #96]	; 0x60
10002f0a:	6651      	str	r1, [r2, #100]	; 0x64
10002f0c:	2900      	cmp	r1, #0
10002f0e:	d005      	beq.n	10002f1c <divmod_u32u32_unsafe+0x14>
10002f10:	e7ff      	b.n	10002f12 <divmod_u32u32_unsafe+0xa>
10002f12:	e7ff      	b.n	10002f14 <divmod_u32u32_unsafe+0xc>
10002f14:	e7ff      	b.n	10002f16 <divmod_u32u32_unsafe+0xe>
10002f16:	6f51      	ldr	r1, [r2, #116]	; 0x74
10002f18:	6f10      	ldr	r0, [r2, #112]	; 0x70
10002f1a:	4770      	bx	lr
10002f1c:	b504      	push	{r2, lr}
10002f1e:	2800      	cmp	r0, #0
10002f20:	d001      	beq.n	10002f26 <divmod_u32u32_unsafe+0x1e>
10002f22:	2000      	movs	r0, #0
10002f24:	43c0      	mvns	r0, r0
10002f26:	f001 fdcf 	bl	10004ac8 <____aeabi_idiv0_veneer>
10002f2a:	2100      	movs	r1, #0
10002f2c:	bd04      	pop	{r2, pc}
10002f2e:	46c0      	nop			; (mov r8, r8)

10002f30 <divmod_u32u32_savestate>:
10002f30:	6f93      	ldr	r3, [r2, #120]	; 0x78
10002f32:	085b      	lsrs	r3, r3, #1
10002f34:	d3fd      	bcc.n	10002f32 <divmod_u32u32_savestate+0x2>
10002f36:	b5f0      	push	{r4, r5, r6, r7, lr}
10002f38:	6e94      	ldr	r4, [r2, #104]	; 0x68
10002f3a:	6ed5      	ldr	r5, [r2, #108]	; 0x6c
10002f3c:	6f57      	ldr	r7, [r2, #116]	; 0x74
10002f3e:	6f16      	ldr	r6, [r2, #112]	; 0x70
10002f40:	f7ff ffe2 	bl	10002f08 <divmod_u32u32_unsafe>
10002f44:	6694      	str	r4, [r2, #104]	; 0x68
10002f46:	66d5      	str	r5, [r2, #108]	; 0x6c
10002f48:	6757      	str	r7, [r2, #116]	; 0x74
10002f4a:	6716      	str	r6, [r2, #112]	; 0x70
10002f4c:	bdf0      	pop	{r4, r5, r6, r7, pc}
10002f4e:	0000      	.short	0x0000
10002f50:	d0000000 	.word	0xd0000000

10002f54 <__wrap___aeabi_ldivmod>:
10002f54:	4694      	mov	ip, r2
10002f56:	4a4e      	ldr	r2, [pc, #312]	; (10003090 <udiv0+0x1a>)
10002f58:	6f92      	ldr	r2, [r2, #120]	; 0x78
10002f5a:	0892      	lsrs	r2, r2, #2
10002f5c:	4662      	mov	r2, ip
10002f5e:	d201      	bcs.n	10002f64 <divmod_s64s64_savestate>
10002f60:	e030      	b.n	10002fc4 <divmod_s64s64_unsafe>
10002f62:	46c0      	nop			; (mov r8, r8)

10002f64 <divmod_s64s64_savestate>:
10002f64:	b5f0      	push	{r4, r5, r6, r7, lr}
10002f66:	4e4a      	ldr	r6, [pc, #296]	; (10003090 <udiv0+0x1a>)
10002f68:	6fb5      	ldr	r5, [r6, #120]	; 0x78
10002f6a:	086d      	lsrs	r5, r5, #1
10002f6c:	d3fc      	bcc.n	10002f68 <divmod_s64s64_savestate+0x4>
10002f6e:	6e34      	ldr	r4, [r6, #96]	; 0x60
10002f70:	6e75      	ldr	r5, [r6, #100]	; 0x64
10002f72:	6f77      	ldr	r7, [r6, #116]	; 0x74
10002f74:	6f36      	ldr	r6, [r6, #112]	; 0x70
10002f76:	f000 f825 	bl	10002fc4 <divmod_s64s64_unsafe>
10002f7a:	4694      	mov	ip, r2
10002f7c:	4a44      	ldr	r2, [pc, #272]	; (10003090 <udiv0+0x1a>)
10002f7e:	6614      	str	r4, [r2, #96]	; 0x60
10002f80:	6655      	str	r5, [r2, #100]	; 0x64
10002f82:	6757      	str	r7, [r2, #116]	; 0x74
10002f84:	6716      	str	r6, [r2, #112]	; 0x70
10002f86:	4662      	mov	r2, ip
10002f88:	bdf0      	pop	{r4, r5, r6, r7, pc}
10002f8a:	46c0      	nop			; (mov r8, r8)

10002f8c <__wrap___aeabi_uldivmod>:
10002f8c:	4694      	mov	ip, r2
10002f8e:	4a40      	ldr	r2, [pc, #256]	; (10003090 <udiv0+0x1a>)
10002f90:	6f92      	ldr	r2, [r2, #120]	; 0x78
10002f92:	0892      	lsrs	r2, r2, #2
10002f94:	4662      	mov	r2, ip
10002f96:	d201      	bcs.n	10002f9c <divmod_u64u64_savestate>
10002f98:	e058      	b.n	1000304c <divmod_u64u64_unsafe>
10002f9a:	46c0      	nop			; (mov r8, r8)

10002f9c <divmod_u64u64_savestate>:
10002f9c:	b5f0      	push	{r4, r5, r6, r7, lr}
10002f9e:	4e3c      	ldr	r6, [pc, #240]	; (10003090 <udiv0+0x1a>)
10002fa0:	6fb5      	ldr	r5, [r6, #120]	; 0x78
10002fa2:	086d      	lsrs	r5, r5, #1
10002fa4:	d3fc      	bcc.n	10002fa0 <divmod_u64u64_savestate+0x4>
10002fa6:	6e34      	ldr	r4, [r6, #96]	; 0x60
10002fa8:	6e75      	ldr	r5, [r6, #100]	; 0x64
10002faa:	6f77      	ldr	r7, [r6, #116]	; 0x74
10002fac:	6f36      	ldr	r6, [r6, #112]	; 0x70
10002fae:	f000 f84d 	bl	1000304c <divmod_u64u64_unsafe>
10002fb2:	4694      	mov	ip, r2
10002fb4:	4a36      	ldr	r2, [pc, #216]	; (10003090 <udiv0+0x1a>)
10002fb6:	6614      	str	r4, [r2, #96]	; 0x60
10002fb8:	6655      	str	r5, [r2, #100]	; 0x64
10002fba:	6757      	str	r7, [r2, #116]	; 0x74
10002fbc:	6716      	str	r6, [r2, #112]	; 0x70
10002fbe:	4662      	mov	r2, ip
10002fc0:	bdf0      	pop	{r4, r5, r6, r7, pc}
10002fc2:	46c0      	nop			; (mov r8, r8)

10002fc4 <divmod_s64s64_unsafe>:
10002fc4:	2b00      	cmp	r3, #0
10002fc6:	db24      	blt.n	10003012 <l41_1+0x26>
10002fc8:	d011      	beq.n	10002fee <l41_1+0x2>
10002fca:	2900      	cmp	r1, #0
10002fcc:	da3e      	bge.n	1000304c <divmod_u64u64_unsafe>
10002fce:	b500      	push	{lr}
10002fd0:	43c9      	mvns	r1, r1
10002fd2:	4240      	negs	r0, r0
10002fd4:	d100      	bne.n	10002fd8 <l39_1>
10002fd6:	3101      	adds	r1, #1

10002fd8 <l39_1>:
10002fd8:	f000 f838 	bl	1000304c <divmod_u64u64_unsafe>
10002fdc:	43c9      	mvns	r1, r1
10002fde:	4240      	negs	r0, r0
10002fe0:	d100      	bne.n	10002fe4 <l40_1>
10002fe2:	3101      	adds	r1, #1

10002fe4 <l40_1>:
10002fe4:	43db      	mvns	r3, r3
10002fe6:	4252      	negs	r2, r2
10002fe8:	d100      	bne.n	10002fec <l41_1>
10002fea:	3301      	adds	r3, #1

10002fec <l41_1>:
10002fec:	bd00      	pop	{pc}
10002fee:	2a00      	cmp	r2, #0
10002ff0:	d1eb      	bne.n	10002fca <divmod_s64s64_unsafe+0x6>
10002ff2:	2800      	cmp	r0, #0
10002ff4:	d101      	bne.n	10002ffa <l41_1+0xe>
10002ff6:	2900      	cmp	r1, #0
10002ff8:	d005      	beq.n	10003006 <l41_1+0x1a>
10002ffa:	2000      	movs	r0, #0
10002ffc:	0fc9      	lsrs	r1, r1, #31
10002ffe:	07c9      	lsls	r1, r1, #31
10003000:	d101      	bne.n	10003006 <l41_1+0x1a>
10003002:	43c0      	mvns	r0, r0
10003004:	0841      	lsrs	r1, r0, #1
10003006:	b500      	push	{lr}
10003008:	f001 fd56 	bl	10004ab8 <____aeabi_ldiv0_veneer>
1000300c:	2200      	movs	r2, #0
1000300e:	2300      	movs	r3, #0
10003010:	bd00      	pop	{pc}
10003012:	b500      	push	{lr}
10003014:	2900      	cmp	r1, #0
10003016:	db0a      	blt.n	1000302e <l43_1+0x2>
10003018:	43db      	mvns	r3, r3
1000301a:	4252      	negs	r2, r2
1000301c:	d100      	bne.n	10003020 <l42_1>
1000301e:	3301      	adds	r3, #1

10003020 <l42_1>:
10003020:	f000 f814 	bl	1000304c <divmod_u64u64_unsafe>
10003024:	43c9      	mvns	r1, r1
10003026:	4240      	negs	r0, r0
10003028:	d100      	bne.n	1000302c <l43_1>
1000302a:	3101      	adds	r1, #1

1000302c <l43_1>:
1000302c:	bd00      	pop	{pc}
1000302e:	43c9      	mvns	r1, r1
10003030:	4240      	negs	r0, r0
10003032:	d100      	bne.n	10003036 <l44_1>
10003034:	3101      	adds	r1, #1

10003036 <l44_1>:
10003036:	43db      	mvns	r3, r3
10003038:	4252      	negs	r2, r2
1000303a:	d100      	bne.n	1000303e <l45_1>
1000303c:	3301      	adds	r3, #1

1000303e <l45_1>:
1000303e:	f000 f805 	bl	1000304c <divmod_u64u64_unsafe>
10003042:	43db      	mvns	r3, r3
10003044:	4252      	negs	r2, r2
10003046:	d100      	bne.n	1000304a <l46_1>
10003048:	3301      	adds	r3, #1

1000304a <l46_1>:
1000304a:	bd00      	pop	{pc}

1000304c <divmod_u64u64_unsafe>:
1000304c:	2900      	cmp	r1, #0
1000304e:	d123      	bne.n	10003098 <y64>
10003050:	2b00      	cmp	r3, #0
10003052:	d118      	bne.n	10003086 <udiv0+0x10>
10003054:	2a00      	cmp	r2, #0
10003056:	d00c      	beq.n	10003072 <divmod_u64u64_unsafe+0x26>
10003058:	46bc      	mov	ip, r7
1000305a:	4f0d      	ldr	r7, [pc, #52]	; (10003090 <udiv0+0x1a>)
1000305c:	6638      	str	r0, [r7, #96]	; 0x60
1000305e:	667a      	str	r2, [r7, #100]	; 0x64
10003060:	2100      	movs	r1, #0
10003062:	2300      	movs	r3, #0
10003064:	e7ff      	b.n	10003066 <divmod_u64u64_unsafe+0x1a>
10003066:	e7ff      	b.n	10003068 <divmod_u64u64_unsafe+0x1c>
10003068:	e7ff      	b.n	1000306a <divmod_u64u64_unsafe+0x1e>
1000306a:	6f7a      	ldr	r2, [r7, #116]	; 0x74
1000306c:	6f38      	ldr	r0, [r7, #112]	; 0x70
1000306e:	4667      	mov	r7, ip
10003070:	4770      	bx	lr
10003072:	2800      	cmp	r0, #0
10003074:	d001      	beq.n	1000307a <udiv0+0x4>

10003076 <udiv0>:
10003076:	4807      	ldr	r0, [pc, #28]	; (10003094 <udiv0+0x1e>)
10003078:	0001      	movs	r1, r0
1000307a:	b500      	push	{lr}
1000307c:	f001 fd1c 	bl	10004ab8 <____aeabi_ldiv0_veneer>
10003080:	2200      	movs	r2, #0
10003082:	2300      	movs	r3, #0
10003084:	bd00      	pop	{pc}
10003086:	0002      	movs	r2, r0
10003088:	000b      	movs	r3, r1
1000308a:	2000      	movs	r0, #0
1000308c:	2100      	movs	r1, #0
1000308e:	4770      	bx	lr
10003090:	d0000000 	.word	0xd0000000
10003094:	ffffffff 	.word	0xffffffff

10003098 <y64>:
10003098:	2b00      	cmp	r3, #0
1000309a:	d000      	beq.n	1000309e <y64+0x6>
1000309c:	e0bd      	b.n	1000321a <y64_x48>
1000309e:	0c13      	lsrs	r3, r2, #16
100030a0:	d126      	bne.n	100030f0 <y64_x32>
100030a2:	2a00      	cmp	r2, #0
100030a4:	d0e7      	beq.n	10003076 <udiv0>
100030a6:	b480      	push	{r7}
100030a8:	4f10      	ldr	r7, [pc, #64]	; (100030ec <y64+0x54>)
100030aa:	6639      	str	r1, [r7, #96]	; 0x60
100030ac:	667a      	str	r2, [r7, #100]	; 0x64
100030ae:	e7ff      	b.n	100030b0 <y64+0x18>
100030b0:	e7ff      	b.n	100030b2 <y64+0x1a>
100030b2:	b430      	push	{r4, r5}
100030b4:	0c04      	lsrs	r4, r0, #16
100030b6:	6f7b      	ldr	r3, [r7, #116]	; 0x74
100030b8:	6f39      	ldr	r1, [r7, #112]	; 0x70
100030ba:	041b      	lsls	r3, r3, #16
100030bc:	4323      	orrs	r3, r4
100030be:	663b      	str	r3, [r7, #96]	; 0x60
100030c0:	e7ff      	b.n	100030c2 <y64+0x2a>
100030c2:	e7ff      	b.n	100030c4 <y64+0x2c>
100030c4:	e7ff      	b.n	100030c6 <y64+0x2e>
100030c6:	46c0      	nop			; (mov r8, r8)
100030c8:	b284      	uxth	r4, r0
100030ca:	6f7b      	ldr	r3, [r7, #116]	; 0x74
100030cc:	6f3d      	ldr	r5, [r7, #112]	; 0x70
100030ce:	041b      	lsls	r3, r3, #16
100030d0:	4323      	orrs	r3, r4
100030d2:	663b      	str	r3, [r7, #96]	; 0x60
100030d4:	e7ff      	b.n	100030d6 <y64+0x3e>
100030d6:	e7ff      	b.n	100030d8 <y64+0x40>
100030d8:	46c0      	nop			; (mov r8, r8)
100030da:	2300      	movs	r3, #0
100030dc:	042c      	lsls	r4, r5, #16
100030de:	0c2d      	lsrs	r5, r5, #16
100030e0:	6f7a      	ldr	r2, [r7, #116]	; 0x74
100030e2:	6f38      	ldr	r0, [r7, #112]	; 0x70
100030e4:	1900      	adds	r0, r0, r4
100030e6:	4169      	adcs	r1, r5
100030e8:	bcb0      	pop	{r4, r5, r7}
100030ea:	4770      	bx	lr
100030ec:	d0000000 	.word	0xd0000000

100030f0 <y64_x32>:
100030f0:	b5f0      	push	{r4, r5, r6, r7, lr}
100030f2:	4694      	mov	ip, r2
100030f4:	2500      	movs	r5, #0
100030f6:	0e14      	lsrs	r4, r2, #24
100030f8:	d101      	bne.n	100030fe <y64_x32+0xe>
100030fa:	0212      	lsls	r2, r2, #8
100030fc:	3508      	adds	r5, #8
100030fe:	0f14      	lsrs	r4, r2, #28
10003100:	d101      	bne.n	10003106 <y64_x32+0x16>
10003102:	0112      	lsls	r2, r2, #4
10003104:	3504      	adds	r5, #4
10003106:	0f94      	lsrs	r4, r2, #30
10003108:	d101      	bne.n	1000310e <y64_x32+0x1e>
1000310a:	0092      	lsls	r2, r2, #2
1000310c:	3502      	adds	r5, #2
1000310e:	0fd4      	lsrs	r4, r2, #31
10003110:	d101      	bne.n	10003116 <y64_x32+0x26>
10003112:	0052      	lsls	r2, r2, #1
10003114:	3501      	adds	r5, #1
10003116:	0bd4      	lsrs	r4, r2, #15
10003118:	3401      	adds	r4, #1
1000311a:	4f25      	ldr	r7, [pc, #148]	; (100031b0 <y64_x32+0xc0>)
1000311c:	667c      	str	r4, [r7, #100]	; 0x64
1000311e:	4c25      	ldr	r4, [pc, #148]	; (100031b4 <y64_x32+0xc4>)
10003120:	663c      	str	r4, [r7, #96]	; 0x60
10003122:	0c0e      	lsrs	r6, r1, #16
10003124:	b293      	uxth	r3, r2
10003126:	e7ff      	b.n	10003128 <y64_x32+0x38>
10003128:	e7ff      	b.n	1000312a <y64_x32+0x3a>
1000312a:	e7ff      	b.n	1000312c <y64_x32+0x3c>
1000312c:	6f3c      	ldr	r4, [r7, #112]	; 0x70
1000312e:	4366      	muls	r6, r4
10003130:	0c36      	lsrs	r6, r6, #16
10003132:	0377      	lsls	r7, r6, #13
10003134:	46be      	mov	lr, r7
10003136:	4373      	muls	r3, r6
10003138:	0bdf      	lsrs	r7, r3, #15
1000313a:	045b      	lsls	r3, r3, #17
1000313c:	1ac0      	subs	r0, r0, r3
1000313e:	41b9      	sbcs	r1, r7
10003140:	0c13      	lsrs	r3, r2, #16
10003142:	4373      	muls	r3, r6
10003144:	18db      	adds	r3, r3, r3
10003146:	1ac9      	subs	r1, r1, r3
10003148:	08ce      	lsrs	r6, r1, #3
1000314a:	4366      	muls	r6, r4
1000314c:	0c36      	lsrs	r6, r6, #16
1000314e:	44b6      	add	lr, r6
10003150:	b293      	uxth	r3, r2
10003152:	4373      	muls	r3, r6
10003154:	0f1f      	lsrs	r7, r3, #28
10003156:	011b      	lsls	r3, r3, #4
10003158:	1ac0      	subs	r0, r0, r3
1000315a:	41b9      	sbcs	r1, r7
1000315c:	0c13      	lsrs	r3, r2, #16
1000315e:	4373      	muls	r3, r6
10003160:	0b1f      	lsrs	r7, r3, #12
10003162:	051b      	lsls	r3, r3, #20
10003164:	1ac0      	subs	r0, r0, r3
10003166:	41b9      	sbcs	r1, r7
10003168:	0d86      	lsrs	r6, r0, #22
1000316a:	028f      	lsls	r7, r1, #10
1000316c:	433e      	orrs	r6, r7
1000316e:	4366      	muls	r6, r4
10003170:	0c36      	lsrs	r6, r6, #16
10003172:	2d09      	cmp	r5, #9
10003174:	db24      	blt.n	100031c0 <last0>
10003176:	0a52      	lsrs	r2, r2, #9
10003178:	4372      	muls	r2, r6
1000317a:	1a80      	subs	r0, r0, r2
1000317c:	0377      	lsls	r7, r6, #13
1000317e:	0a46      	lsrs	r6, r0, #9
10003180:	4366      	muls	r6, r4
10003182:	0c36      	lsrs	r6, r6, #16
10003184:	2316      	movs	r3, #22
10003186:	1b5b      	subs	r3, r3, r5
10003188:	40de      	lsrs	r6, r3
1000318a:	40df      	lsrs	r7, r3
1000318c:	19bf      	adds	r7, r7, r6
1000318e:	4664      	mov	r4, ip
10003190:	4366      	muls	r6, r4
10003192:	1b82      	subs	r2, r0, r6
10003194:	4670      	mov	r0, lr
10003196:	3504      	adds	r5, #4
10003198:	3306      	adds	r3, #6
1000319a:	0001      	movs	r1, r0
1000319c:	40d9      	lsrs	r1, r3
1000319e:	40a8      	lsls	r0, r5
100031a0:	19c0      	adds	r0, r0, r7
100031a2:	d300      	bcc.n	100031a6 <y64_x32+0xb6>
100031a4:	3101      	adds	r1, #1
100031a6:	42a2      	cmp	r2, r4
100031a8:	d206      	bcs.n	100031b8 <y64_x32+0xc8>
100031aa:	2300      	movs	r3, #0
100031ac:	bdf0      	pop	{r4, r5, r6, r7, pc}
100031ae:	0000      	.short	0x0000
100031b0:	d0000000 	.word	0xd0000000
100031b4:	ffffffff 	.word	0xffffffff
100031b8:	1b12      	subs	r2, r2, r4
100031ba:	3001      	adds	r0, #1
100031bc:	d3f3      	bcc.n	100031a6 <y64_x32+0xb6>
100031be:	e7f1      	b.n	100031a4 <y64_x32+0xb4>

100031c0 <last0>:
100031c0:	2709      	movs	r7, #9
100031c2:	1b7f      	subs	r7, r7, r5
100031c4:	40fe      	lsrs	r6, r7
100031c6:	4664      	mov	r4, ip
100031c8:	b2a2      	uxth	r2, r4
100031ca:	4372      	muls	r2, r6
100031cc:	1a80      	subs	r0, r0, r2
100031ce:	d200      	bcs.n	100031d2 <last0+0x12>
100031d0:	3901      	subs	r1, #1
100031d2:	0c22      	lsrs	r2, r4, #16
100031d4:	4372      	muls	r2, r6
100031d6:	0c13      	lsrs	r3, r2, #16
100031d8:	0412      	lsls	r2, r2, #16
100031da:	1a82      	subs	r2, r0, r2
100031dc:	4199      	sbcs	r1, r3
100031de:	000b      	movs	r3, r1
100031e0:	4670      	mov	r0, lr
100031e2:	3504      	adds	r5, #4
100031e4:	3713      	adds	r7, #19
100031e6:	0001      	movs	r1, r0
100031e8:	40f9      	lsrs	r1, r7
100031ea:	40a8      	lsls	r0, r5
100031ec:	1980      	adds	r0, r0, r6
100031ee:	d300      	bcc.n	100031f2 <last0+0x32>
100031f0:	3101      	adds	r1, #1
100031f2:	2b00      	cmp	r3, #0
100031f4:	d102      	bne.n	100031fc <last0+0x3c>
100031f6:	42a2      	cmp	r2, r4
100031f8:	d20a      	bcs.n	10003210 <last0+0x50>
100031fa:	bdf0      	pop	{r4, r5, r6, r7, pc}
100031fc:	3001      	adds	r0, #1
100031fe:	d300      	bcc.n	10003202 <last0+0x42>
10003200:	3101      	adds	r1, #1
10003202:	1b12      	subs	r2, r2, r4
10003204:	d2fa      	bcs.n	100031fc <last0+0x3c>
10003206:	3b01      	subs	r3, #1
10003208:	d1f8      	bne.n	100031fc <last0+0x3c>
1000320a:	42a2      	cmp	r2, r4
1000320c:	d200      	bcs.n	10003210 <last0+0x50>
1000320e:	bdf0      	pop	{r4, r5, r6, r7, pc}
10003210:	3001      	adds	r0, #1
10003212:	d300      	bcc.n	10003216 <last0+0x56>
10003214:	3101      	adds	r1, #1
10003216:	1b12      	subs	r2, r2, r4
10003218:	e7f7      	b.n	1000320a <last0+0x4a>

1000321a <y64_x48>:
1000321a:	b5f0      	push	{r4, r5, r6, r7, lr}
1000321c:	0c1c      	lsrs	r4, r3, #16
1000321e:	d000      	beq.n	10003222 <y64_x48+0x8>
10003220:	e080      	b.n	10003324 <y64_x64>
10003222:	b40c      	push	{r2, r3}
10003224:	2500      	movs	r5, #0
10003226:	0a1c      	lsrs	r4, r3, #8
10003228:	d104      	bne.n	10003234 <y64_x48+0x1a>
1000322a:	021b      	lsls	r3, r3, #8
1000322c:	0e16      	lsrs	r6, r2, #24
1000322e:	4333      	orrs	r3, r6
10003230:	0212      	lsls	r2, r2, #8
10003232:	3508      	adds	r5, #8
10003234:	0b1c      	lsrs	r4, r3, #12
10003236:	d104      	bne.n	10003242 <y64_x48+0x28>
10003238:	011b      	lsls	r3, r3, #4
1000323a:	0f16      	lsrs	r6, r2, #28
1000323c:	4333      	orrs	r3, r6
1000323e:	0112      	lsls	r2, r2, #4
10003240:	3504      	adds	r5, #4
10003242:	0b9c      	lsrs	r4, r3, #14
10003244:	d104      	bne.n	10003250 <y64_x48+0x36>
10003246:	009b      	lsls	r3, r3, #2
10003248:	0f96      	lsrs	r6, r2, #30
1000324a:	4333      	orrs	r3, r6
1000324c:	0092      	lsls	r2, r2, #2
1000324e:	3502      	adds	r5, #2
10003250:	0bdc      	lsrs	r4, r3, #15
10003252:	d102      	bne.n	1000325a <y64_x48+0x40>
10003254:	1892      	adds	r2, r2, r2
10003256:	415b      	adcs	r3, r3
10003258:	3501      	adds	r5, #1
1000325a:	001c      	movs	r4, r3
1000325c:	1897      	adds	r7, r2, r2
1000325e:	4164      	adcs	r4, r4
10003260:	3401      	adds	r4, #1
10003262:	4f46      	ldr	r7, [pc, #280]	; (1000337c <y64_x64+0x58>)
10003264:	667c      	str	r4, [r7, #100]	; 0x64
10003266:	4c46      	ldr	r4, [pc, #280]	; (10003380 <y64_x64+0x5c>)
10003268:	663c      	str	r4, [r7, #96]	; 0x60
1000326a:	0c0e      	lsrs	r6, r1, #16
1000326c:	e7ff      	b.n	1000326e <y64_x48+0x54>
1000326e:	e7ff      	b.n	10003270 <y64_x48+0x56>
10003270:	e7ff      	b.n	10003272 <y64_x48+0x58>
10003272:	46c0      	nop			; (mov r8, r8)
10003274:	6f3c      	ldr	r4, [r7, #112]	; 0x70
10003276:	4366      	muls	r6, r4
10003278:	0c36      	lsrs	r6, r6, #16
1000327a:	0377      	lsls	r7, r6, #13
1000327c:	46be      	mov	lr, r7
1000327e:	b297      	uxth	r7, r2
10003280:	4377      	muls	r7, r6
10003282:	1bc0      	subs	r0, r0, r7
10003284:	d200      	bcs.n	10003288 <y64_x48+0x6e>
10003286:	3901      	subs	r1, #1
10003288:	1bc0      	subs	r0, r0, r7
1000328a:	d200      	bcs.n	1000328e <y64_x48+0x74>
1000328c:	3901      	subs	r1, #1
1000328e:	b29f      	uxth	r7, r3
10003290:	4377      	muls	r7, r6
10003292:	1bc9      	subs	r1, r1, r7
10003294:	1bc9      	subs	r1, r1, r7
10003296:	0c17      	lsrs	r7, r2, #16
10003298:	4377      	muls	r7, r6
1000329a:	047e      	lsls	r6, r7, #17
1000329c:	0bff      	lsrs	r7, r7, #15
1000329e:	1b80      	subs	r0, r0, r6
100032a0:	41b9      	sbcs	r1, r7
100032a2:	08ce      	lsrs	r6, r1, #3
100032a4:	4366      	muls	r6, r4
100032a6:	0c36      	lsrs	r6, r6, #16
100032a8:	2d0c      	cmp	r5, #12
100032aa:	db33      	blt.n	10003314 <last1>
100032ac:	44b6      	add	lr, r6
100032ae:	0b12      	lsrs	r2, r2, #12
100032b0:	051f      	lsls	r7, r3, #20
100032b2:	433a      	orrs	r2, r7
100032b4:	0b1b      	lsrs	r3, r3, #12
100032b6:	b297      	uxth	r7, r2
100032b8:	4377      	muls	r7, r6
100032ba:	1bc0      	subs	r0, r0, r7
100032bc:	d200      	bcs.n	100032c0 <y64_x48+0xa6>
100032be:	3901      	subs	r1, #1
100032c0:	b29f      	uxth	r7, r3
100032c2:	4377      	muls	r7, r6
100032c4:	1bc9      	subs	r1, r1, r7
100032c6:	0c17      	lsrs	r7, r2, #16
100032c8:	4377      	muls	r7, r6
100032ca:	043e      	lsls	r6, r7, #16
100032cc:	0c3f      	lsrs	r7, r7, #16
100032ce:	1b80      	subs	r0, r0, r6
100032d0:	41b9      	sbcs	r1, r7
100032d2:	0d86      	lsrs	r6, r0, #22
100032d4:	028f      	lsls	r7, r1, #10
100032d6:	433e      	orrs	r6, r7
100032d8:	4366      	muls	r6, r4
100032da:	2729      	movs	r7, #41	; 0x29
100032dc:	1b7f      	subs	r7, r7, r5
100032de:	40fe      	lsrs	r6, r7
100032e0:	3d0c      	subs	r5, #12
100032e2:	4677      	mov	r7, lr
100032e4:	40af      	lsls	r7, r5
100032e6:	19bf      	adds	r7, r7, r6
100032e8:	bc30      	pop	{r4, r5}
100032ea:	b2a2      	uxth	r2, r4
100032ec:	b2ab      	uxth	r3, r5
100032ee:	4372      	muls	r2, r6
100032f0:	4373      	muls	r3, r6
100032f2:	1a80      	subs	r0, r0, r2
100032f4:	4199      	sbcs	r1, r3
100032f6:	0c22      	lsrs	r2, r4, #16
100032f8:	4372      	muls	r2, r6
100032fa:	0c13      	lsrs	r3, r2, #16
100032fc:	0412      	lsls	r2, r2, #16
100032fe:	1a80      	subs	r0, r0, r2
10003300:	4199      	sbcs	r1, r3
10003302:	0002      	movs	r2, r0
10003304:	000b      	movs	r3, r1
10003306:	3701      	adds	r7, #1
10003308:	1b00      	subs	r0, r0, r4
1000330a:	41a9      	sbcs	r1, r5
1000330c:	d2f9      	bcs.n	10003302 <y64_x48+0xe8>
1000330e:	1e78      	subs	r0, r7, #1
10003310:	2100      	movs	r1, #0
10003312:	bdf0      	pop	{r4, r5, r6, r7, pc}

10003314 <last1>:
10003314:	270c      	movs	r7, #12
10003316:	1b7f      	subs	r7, r7, r5
10003318:	40fe      	lsrs	r6, r7
1000331a:	4677      	mov	r7, lr
1000331c:	0b7f      	lsrs	r7, r7, #13
1000331e:	40af      	lsls	r7, r5
10003320:	19ff      	adds	r7, r7, r7
10003322:	e7e0      	b.n	100032e6 <y64_x48+0xcc>

10003324 <y64_x64>:
10003324:	2400      	movs	r4, #0
10003326:	1c5d      	adds	r5, r3, #1
10003328:	d007      	beq.n	1000333a <y64_x64+0x16>
1000332a:	4f14      	ldr	r7, [pc, #80]	; (1000337c <y64_x64+0x58>)
1000332c:	667d      	str	r5, [r7, #100]	; 0x64
1000332e:	6639      	str	r1, [r7, #96]	; 0x60
10003330:	e7ff      	b.n	10003332 <y64_x64+0xe>
10003332:	e7ff      	b.n	10003334 <y64_x64+0x10>
10003334:	e7ff      	b.n	10003336 <y64_x64+0x12>
10003336:	e7ff      	b.n	10003338 <y64_x64+0x14>
10003338:	6f3c      	ldr	r4, [r7, #112]	; 0x70
1000333a:	b295      	uxth	r5, r2
1000333c:	b29e      	uxth	r6, r3
1000333e:	4365      	muls	r5, r4
10003340:	4366      	muls	r6, r4
10003342:	1b40      	subs	r0, r0, r5
10003344:	41b1      	sbcs	r1, r6
10003346:	0c15      	lsrs	r5, r2, #16
10003348:	0c1e      	lsrs	r6, r3, #16
1000334a:	4365      	muls	r5, r4
1000334c:	4366      	muls	r6, r4
1000334e:	0436      	lsls	r6, r6, #16
10003350:	0c2f      	lsrs	r7, r5, #16
10003352:	433e      	orrs	r6, r7
10003354:	042d      	lsls	r5, r5, #16
10003356:	1b40      	subs	r0, r0, r5
10003358:	41b1      	sbcs	r1, r6
1000335a:	4299      	cmp	r1, r3
1000335c:	d204      	bcs.n	10003368 <y64_x64+0x44>
1000335e:	0002      	movs	r2, r0
10003360:	000b      	movs	r3, r1
10003362:	0020      	movs	r0, r4
10003364:	2100      	movs	r1, #0
10003366:	bdf0      	pop	{r4, r5, r6, r7, pc}
10003368:	d101      	bne.n	1000336e <y64_x64+0x4a>
1000336a:	4290      	cmp	r0, r2
1000336c:	d3f7      	bcc.n	1000335e <y64_x64+0x3a>
1000336e:	1a80      	subs	r0, r0, r2
10003370:	4199      	sbcs	r1, r3
10003372:	3401      	adds	r4, #1
10003374:	4299      	cmp	r1, r3
10003376:	d3f2      	bcc.n	1000335e <y64_x64+0x3a>
10003378:	e7f6      	b.n	10003368 <y64_x64+0x44>
1000337a:	0000      	.short	0x0000
1000337c:	d0000000 	.word	0xd0000000
10003380:	ffffffff 	.word	0xffffffff

10003384 <__wrap___aeabi_drsub>:
10003384:	4048      	eors	r0, r1
10003386:	4041      	eors	r1, r0
10003388:	4048      	eors	r0, r1

1000338a <__wrap___aeabi_dsub>:
1000338a:	b418      	push	{r3, r4}
1000338c:	4b11      	ldr	r3, [pc, #68]	; (100033d4 <__wrap___aeabi_dmul+0x14>)
1000338e:	685b      	ldr	r3, [r3, #4]
10003390:	46fc      	mov	ip, pc
10003392:	9301      	str	r3, [sp, #4]
10003394:	bd08      	pop	{r3, pc}
10003396:	df04      	.short	0xdf04
10003398:	1000360f 	.word	0x1000360f

1000339c <__wrap___aeabi_dadd>:
1000339c:	b418      	push	{r3, r4}
1000339e:	4b0d      	ldr	r3, [pc, #52]	; (100033d4 <__wrap___aeabi_dmul+0x14>)
100033a0:	681b      	ldr	r3, [r3, #0]
100033a2:	46fc      	mov	ip, pc
100033a4:	9301      	str	r3, [sp, #4]
100033a6:	bd08      	pop	{r3, pc}
100033a8:	3619df00 	.word	0x3619df00
100033ac:	1000      	.short	0x1000

100033ae <__wrap___aeabi_ddiv>:
100033ae:	b418      	push	{r3, r4}
100033b0:	4b08      	ldr	r3, [pc, #32]	; (100033d4 <__wrap___aeabi_dmul+0x14>)
100033b2:	68db      	ldr	r3, [r3, #12]
100033b4:	46fc      	mov	ip, pc
100033b6:	9301      	str	r3, [sp, #4]
100033b8:	bd08      	pop	{r3, pc}
100033ba:	df0c      	.short	0xdf0c
100033bc:	100038d1 	.word	0x100038d1

100033c0 <__wrap___aeabi_dmul>:
100033c0:	b418      	push	{r3, r4}
100033c2:	4b04      	ldr	r3, [pc, #16]	; (100033d4 <__wrap___aeabi_dmul+0x14>)
100033c4:	689b      	ldr	r3, [r3, #8]
100033c6:	46fc      	mov	ip, pc
100033c8:	9301      	str	r3, [sp, #4]
100033ca:	bd08      	pop	{r3, pc}
100033cc:	3775df08 	.word	0x3775df08
100033d0:	00001000 	.word	0x00001000
100033d4:	20004b90 	.word	0x20004b90

100033d8 <__wrap___aeabi_cdrcmple>:
100033d8:	b5ff      	push	{r0, r1, r2, r3, r4, r5, r6, r7, lr}
100033da:	4050      	eors	r0, r2
100033dc:	4042      	eors	r2, r0
100033de:	4050      	eors	r0, r2
100033e0:	4059      	eors	r1, r3
100033e2:	404b      	eors	r3, r1
100033e4:	4059      	eors	r1, r3
100033e6:	e000      	b.n	100033ea <__aeabi_dfcmple_guts>

100033e8 <__wrap___aeabi_cdcmpeq>:
100033e8:	b5ff      	push	{r0, r1, r2, r3, r4, r5, r6, r7, lr}

100033ea <__aeabi_dfcmple_guts>:
100033ea:	4f15      	ldr	r7, [pc, #84]	; (10003440 <__aeabi_dfcmple_guts+0x56>)
100033ec:	004c      	lsls	r4, r1, #1
100033ee:	0d64      	lsrs	r4, r4, #21
100033f0:	d003      	beq.n	100033fa <__aeabi_dfcmple_guts+0x10>
100033f2:	42bc      	cmp	r4, r7
100033f4:	d104      	bne.n	10003400 <__aeabi_dfcmple_guts+0x16>
100033f6:	030c      	lsls	r4, r1, #12
100033f8:	d814      	bhi.n	10003424 <__aeabi_dfcmple_guts+0x3a>
100033fa:	2000      	movs	r0, #0
100033fc:	0d09      	lsrs	r1, r1, #20
100033fe:	0509      	lsls	r1, r1, #20
10003400:	005c      	lsls	r4, r3, #1
10003402:	0d64      	lsrs	r4, r4, #21
10003404:	d003      	beq.n	1000340e <__aeabi_dfcmple_guts+0x24>
10003406:	42bc      	cmp	r4, r7
10003408:	d104      	bne.n	10003414 <__aeabi_dfcmple_guts+0x2a>
1000340a:	031c      	lsls	r4, r3, #12
1000340c:	d80a      	bhi.n	10003424 <__aeabi_dfcmple_guts+0x3a>
1000340e:	2200      	movs	r2, #0
10003410:	0d1b      	lsrs	r3, r3, #20
10003412:	051b      	lsls	r3, r3, #20
10003414:	2601      	movs	r6, #1
10003416:	404b      	eors	r3, r1
10003418:	d409      	bmi.n	1000342e <__aeabi_dfcmple_guts+0x44>
1000341a:	404b      	eors	r3, r1
1000341c:	d503      	bpl.n	10003426 <__aeabi_dfcmple_guts+0x3c>
1000341e:	428b      	cmp	r3, r1
10003420:	d100      	bne.n	10003424 <__aeabi_dfcmple_guts+0x3a>
10003422:	4282      	cmp	r2, r0
10003424:	bdff      	pop	{r0, r1, r2, r3, r4, r5, r6, r7, pc}
10003426:	4299      	cmp	r1, r3
10003428:	d1fc      	bne.n	10003424 <__aeabi_dfcmple_guts+0x3a>
1000342a:	4290      	cmp	r0, r2
1000342c:	bdff      	pop	{r0, r1, r2, r3, r4, r5, r6, r7, pc}
1000342e:	430b      	orrs	r3, r1
10003430:	18db      	adds	r3, r3, r3
10003432:	4303      	orrs	r3, r0
10003434:	4313      	orrs	r3, r2
10003436:	d0f5      	beq.n	10003424 <__aeabi_dfcmple_guts+0x3a>
10003438:	43c9      	mvns	r1, r1
1000343a:	1849      	adds	r1, r1, r1
1000343c:	bdff      	pop	{r0, r1, r2, r3, r4, r5, r6, r7, pc}
1000343e:	0000      	.short	0x0000
10003440:	000007ff 	.word	0x000007ff

10003444 <__wrap___aeabi_dcmplt>:
10003444:	b500      	push	{lr}
10003446:	f7ff ffcf 	bl	100033e8 <__wrap___aeabi_cdcmpeq>
1000344a:	4180      	sbcs	r0, r0
1000344c:	bd00      	pop	{pc}
1000344e:	46c0      	nop			; (mov r8, r8)

10003450 <__wrap___aeabi_dcmple>:
10003450:	b500      	push	{lr}
10003452:	f7ff ffc9 	bl	100033e8 <__wrap___aeabi_cdcmpeq>
10003456:	d901      	bls.n	1000345c <__wrap___aeabi_dcmple+0xc>
10003458:	2000      	movs	r0, #0
1000345a:	bd00      	pop	{pc}
1000345c:	2001      	movs	r0, #1
1000345e:	bd00      	pop	{pc}

10003460 <__wrap___aeabi_dcmpge>:
10003460:	b500      	push	{lr}
10003462:	f7ff ffb9 	bl	100033d8 <__wrap___aeabi_cdrcmple>
10003466:	d901      	bls.n	1000346c <__wrap___aeabi_dcmpge+0xc>
10003468:	2000      	movs	r0, #0
1000346a:	bd00      	pop	{pc}
1000346c:	2001      	movs	r0, #1
1000346e:	bd00      	pop	{pc}

10003470 <__wrap___aeabi_dcmpgt>:
10003470:	b500      	push	{lr}
10003472:	f7ff ffb1 	bl	100033d8 <__wrap___aeabi_cdrcmple>
10003476:	4180      	sbcs	r0, r0
10003478:	bd00      	pop	{pc}

1000347a <__wrap___aeabi_dcmpun>:
1000347a:	2001      	movs	r0, #1
1000347c:	0540      	lsls	r0, r0, #21
1000347e:	004a      	lsls	r2, r1, #1
10003480:	1812      	adds	r2, r2, r0
10003482:	d804      	bhi.n	1000348e <__wrap___aeabi_dcmpun+0x14>
10003484:	005a      	lsls	r2, r3, #1
10003486:	1812      	adds	r2, r2, r0
10003488:	d801      	bhi.n	1000348e <__wrap___aeabi_dcmpun+0x14>
1000348a:	2000      	movs	r0, #0
1000348c:	4770      	bx	lr
1000348e:	2001      	movs	r0, #1
10003490:	4770      	bx	lr
10003492:	2000      	movs	r0, #0
10003494:	4770      	bx	lr
	...

10003498 <__wrap___aeabi_ui2d>:
10003498:	2100      	movs	r1, #0
1000349a:	2800      	cmp	r0, #0
1000349c:	d105      	bne.n	100034aa <__wrap___aeabi_i2d+0xa>
1000349e:	4770      	bx	lr

100034a0 <__wrap___aeabi_i2d>:
100034a0:	17c1      	asrs	r1, r0, #31
100034a2:	4048      	eors	r0, r1
100034a4:	1a40      	subs	r0, r0, r1
100034a6:	d0fa      	beq.n	1000349e <__wrap___aeabi_ui2d+0x6>
100034a8:	07c9      	lsls	r1, r1, #31
100034aa:	b513      	push	{r0, r1, r4, lr}
100034ac:	4b06      	ldr	r3, [pc, #24]	; (100034c8 <__wrap___aeabi_i2d+0x28>)
100034ae:	681b      	ldr	r3, [r3, #0]
100034b0:	4798      	blx	r3
100034b2:	bc0c      	pop	{r2, r3}
100034b4:	1c44      	adds	r4, r0, #1
100034b6:	40a2      	lsls	r2, r4
100034b8:	0510      	lsls	r0, r2, #20
100034ba:	0b12      	lsrs	r2, r2, #12
100034bc:	4903      	ldr	r1, [pc, #12]	; (100034cc <__wrap___aeabi_i2d+0x2c>)
100034be:	1b09      	subs	r1, r1, r4
100034c0:	0509      	lsls	r1, r1, #20
100034c2:	4319      	orrs	r1, r3
100034c4:	4311      	orrs	r1, r2
100034c6:	bd10      	pop	{r4, pc}
100034c8:	20004d90 	.word	0x20004d90
100034cc:	0000041f 	.word	0x0000041f

100034d0 <__wrap___aeabi_d2iz>:
100034d0:	b510      	push	{r4, lr}
100034d2:	004c      	lsls	r4, r1, #1
100034d4:	0d62      	lsrs	r2, r4, #21
100034d6:	2380      	movs	r3, #128	; 0x80
100034d8:	18d2      	adds	r2, r2, r3
100034da:	00db      	lsls	r3, r3, #3
100034dc:	1ad2      	subs	r2, r2, r3
100034de:	055b      	lsls	r3, r3, #21
100034e0:	2a7e      	cmp	r2, #126	; 0x7e
100034e2:	dd10      	ble.n	10003506 <__wrap___aeabi_d2iz+0x36>
100034e4:	3a9e      	subs	r2, #158	; 0x9e
100034e6:	da13      	bge.n	10003510 <__wrap___aeabi_d2iz+0x40>
100034e8:	17cc      	asrs	r4, r1, #31
100034ea:	0309      	lsls	r1, r1, #12
100034ec:	0849      	lsrs	r1, r1, #1
100034ee:	4319      	orrs	r1, r3
100034f0:	4252      	negs	r2, r2
100034f2:	40d1      	lsrs	r1, r2
100034f4:	0064      	lsls	r4, r4, #1
100034f6:	3401      	adds	r4, #1
100034f8:	3215      	adds	r2, #21
100034fa:	2a20      	cmp	r2, #32
100034fc:	da05      	bge.n	1000350a <__wrap___aeabi_d2iz+0x3a>
100034fe:	40d0      	lsrs	r0, r2
10003500:	4308      	orrs	r0, r1
10003502:	4360      	muls	r0, r4
10003504:	bd10      	pop	{r4, pc}
10003506:	2000      	movs	r0, #0
10003508:	bd10      	pop	{r4, pc}
1000350a:	4608      	mov	r0, r1
1000350c:	4360      	muls	r0, r4
1000350e:	bd10      	pop	{r4, pc}
10003510:	0fc8      	lsrs	r0, r1, #31
10003512:	18c0      	adds	r0, r0, r3
10003514:	3801      	subs	r0, #1
10003516:	bd10      	pop	{r4, pc}

10003518 <__wrap___aeabi_d2uiz>:
10003518:	b418      	push	{r3, r4}
1000351a:	4b04      	ldr	r3, [pc, #16]	; (1000352c <__wrap___aeabi_d2uiz+0x14>)
1000351c:	6a5b      	ldr	r3, [r3, #36]	; 0x24
1000351e:	46fc      	mov	ip, pc
10003520:	9301      	str	r3, [sp, #4]
10003522:	bd08      	pop	{r3, pc}
10003524:	3afddf24 	.word	0x3afddf24
10003528:	00001000 	.word	0x00001000
1000352c:	20004b90 	.word	0x20004b90

10003530 <__aeabi_double_init>:
10003530:	2313      	movs	r3, #19
10003532:	b570      	push	{r4, r5, r6, lr}
10003534:	781d      	ldrb	r5, [r3, #0]
10003536:	2d01      	cmp	r5, #1
10003538:	d010      	beq.n	1000355c <__aeabi_double_init+0x2c>
1000353a:	dd0b      	ble.n	10003554 <__aeabi_double_init+0x24>
1000353c:	4824      	ldr	r0, [pc, #144]	; (100035d0 <__aeabi_double_init+0xa0>)
1000353e:	f7ff fc8d 	bl	10002e5c <rom_data_lookup>
10003542:	4c24      	ldr	r4, [pc, #144]	; (100035d4 <__aeabi_double_init+0xa4>)
10003544:	0001      	movs	r1, r0
10003546:	2280      	movs	r2, #128	; 0x80
10003548:	0020      	movs	r0, r4
1000354a:	f000 fbed 	bl	10003d28 <__wrap___aeabi_memcpy>
1000354e:	2d02      	cmp	r5, #2
10003550:	d001      	beq.n	10003556 <__aeabi_double_init+0x26>
10003552:	bd70      	pop	{r4, r5, r6, pc}
10003554:	4c1f      	ldr	r4, [pc, #124]	; (100035d4 <__aeabi_double_init+0xa4>)
10003556:	4a20      	ldr	r2, [pc, #128]	; (100035d8 <__aeabi_double_init+0xa8>)
10003558:	64a2      	str	r2, [r4, #72]	; 0x48
1000355a:	e7fa      	b.n	10003552 <__aeabi_double_init+0x22>
1000355c:	002e      	movs	r6, r5
1000355e:	4c1d      	ldr	r4, [pc, #116]	; (100035d4 <__aeabi_double_init+0xa4>)
10003560:	4a1d      	ldr	r2, [pc, #116]	; (100035d8 <__aeabi_double_init+0xa8>)
10003562:	08a3      	lsrs	r3, r4, #2
10003564:	425b      	negs	r3, r3
10003566:	401e      	ands	r6, r3
10003568:	421d      	tst	r5, r3
1000356a:	d02f      	beq.n	100035cc <__aeabi_double_init+0x9c>
1000356c:	0033      	movs	r3, r6
1000356e:	6022      	str	r2, [r4, #0]
10003570:	2020      	movs	r0, #32
10003572:	00b1      	lsls	r1, r6, #2
10003574:	1861      	adds	r1, r4, r1
10003576:	1b80      	subs	r0, r0, r6
10003578:	600a      	str	r2, [r1, #0]
1000357a:	604a      	str	r2, [r1, #4]
1000357c:	608a      	str	r2, [r1, #8]
1000357e:	60ca      	str	r2, [r1, #12]
10003580:	610a      	str	r2, [r1, #16]
10003582:	614a      	str	r2, [r1, #20]
10003584:	618a      	str	r2, [r1, #24]
10003586:	61ca      	str	r2, [r1, #28]
10003588:	620a      	str	r2, [r1, #32]
1000358a:	624a      	str	r2, [r1, #36]	; 0x24
1000358c:	628a      	str	r2, [r1, #40]	; 0x28
1000358e:	62ca      	str	r2, [r1, #44]	; 0x2c
10003590:	630a      	str	r2, [r1, #48]	; 0x30
10003592:	634a      	str	r2, [r1, #52]	; 0x34
10003594:	638a      	str	r2, [r1, #56]	; 0x38
10003596:	63ca      	str	r2, [r1, #60]	; 0x3c
10003598:	640a      	str	r2, [r1, #64]	; 0x40
1000359a:	644a      	str	r2, [r1, #68]	; 0x44
1000359c:	648a      	str	r2, [r1, #72]	; 0x48
1000359e:	64ca      	str	r2, [r1, #76]	; 0x4c
100035a0:	650a      	str	r2, [r1, #80]	; 0x50
100035a2:	654a      	str	r2, [r1, #84]	; 0x54
100035a4:	658a      	str	r2, [r1, #88]	; 0x58
100035a6:	65ca      	str	r2, [r1, #92]	; 0x5c
100035a8:	660a      	str	r2, [r1, #96]	; 0x60
100035aa:	664a      	str	r2, [r1, #100]	; 0x64
100035ac:	668a      	str	r2, [r1, #104]	; 0x68
100035ae:	66ca      	str	r2, [r1, #108]	; 0x6c
100035b0:	670a      	str	r2, [r1, #112]	; 0x70
100035b2:	674a      	str	r2, [r1, #116]	; 0x74
100035b4:	0840      	lsrs	r0, r0, #1
100035b6:	2810      	cmp	r0, #16
100035b8:	d103      	bne.n	100035c2 <__aeabi_double_init+0x92>
100035ba:	678a      	str	r2, [r1, #120]	; 0x78
100035bc:	67ca      	str	r2, [r1, #124]	; 0x7c
100035be:	64a2      	str	r2, [r4, #72]	; 0x48
100035c0:	e7c7      	b.n	10003552 <__aeabi_double_init+0x22>
100035c2:	331e      	adds	r3, #30
100035c4:	009b      	lsls	r3, r3, #2
100035c6:	50e2      	str	r2, [r4, r3]
100035c8:	64a2      	str	r2, [r4, #72]	; 0x48
100035ca:	e7c2      	b.n	10003552 <__aeabi_double_init+0x22>
100035cc:	2300      	movs	r3, #0
100035ce:	e7cf      	b.n	10003570 <__aeabi_double_init+0x40>
100035d0:	00004453 	.word	0x00004453
100035d4:	20004b90 	.word	0x20004b90
100035d8:	100035dd 	.word	0x100035dd

100035dc <double_table_shim_on_use_helper>:
100035dc:	b507      	push	{r0, r1, r2, lr}
100035de:	4660      	mov	r0, ip
100035e0:	8801      	ldrh	r1, [r0, #0]
100035e2:	0a0a      	lsrs	r2, r1, #8
100035e4:	3002      	adds	r0, #2
100035e6:	2adf      	cmp	r2, #223	; 0xdf
100035e8:	d1fa      	bne.n	100035e0 <double_table_shim_on_use_helper+0x4>
100035ea:	b2c9      	uxtb	r1, r1
100035ec:	0882      	lsrs	r2, r0, #2
100035ee:	d304      	bcc.n	100035fa <double_table_shim_on_use_helper+0x1e>
100035f0:	8802      	ldrh	r2, [r0, #0]
100035f2:	8840      	ldrh	r0, [r0, #2]
100035f4:	0400      	lsls	r0, r0, #16
100035f6:	4310      	orrs	r0, r2
100035f8:	e000      	b.n	100035fc <double_table_shim_on_use_helper+0x20>
100035fa:	6800      	ldr	r0, [r0, #0]
100035fc:	4a01      	ldr	r2, [pc, #4]	; (10003604 <double_table_shim_on_use_helper+0x28>)
100035fe:	5050      	str	r0, [r2, r1]
10003600:	9003      	str	r0, [sp, #12]
10003602:	bd07      	pop	{r0, r1, r2, pc}
10003604:	20004b90 	.word	0x20004b90

10003608 <drsub_shim>:
10003608:	b40f      	push	{r0, r1, r2, r3}
1000360a:	bc03      	pop	{r0, r1}
1000360c:	bc0c      	pop	{r2, r3}

1000360e <dsub_shim>:
1000360e:	b5f0      	push	{r4, r5, r6, r7, lr}
10003610:	2401      	movs	r4, #1
10003612:	07e4      	lsls	r4, r4, #31
10003614:	4063      	eors	r3, r4
10003616:	e000      	b.n	1000361a <da_entry>

10003618 <dadd_shim>:
10003618:	b5f0      	push	{r4, r5, r6, r7, lr}

1000361a <da_entry>:
1000361a:	0d0c      	lsrs	r4, r1, #20
1000361c:	0fcf      	lsrs	r7, r1, #31
1000361e:	1e66      	subs	r6, r4, #1
10003620:	0536      	lsls	r6, r6, #20
10003622:	1b89      	subs	r1, r1, r6
10003624:	0564      	lsls	r4, r4, #21
10003626:	d303      	bcc.n	10003630 <l7_1>
10003628:	43c9      	mvns	r1, r1
1000362a:	4240      	negs	r0, r0
1000362c:	d300      	bcc.n	10003630 <l7_1>
1000362e:	3101      	adds	r1, #1

10003630 <l7_1>:
10003630:	0d64      	lsrs	r4, r4, #21
10003632:	d003      	beq.n	1000363c <l7_2>
10003634:	1c66      	adds	r6, r4, #1
10003636:	0af6      	lsrs	r6, r6, #11
10003638:	d007      	beq.n	1000364a <l7_3>
1000363a:	1be4      	subs	r4, r4, r7

1000363c <l7_2>:
1000363c:	2000      	movs	r0, #0
1000363e:	007f      	lsls	r7, r7, #1
10003640:	1c79      	adds	r1, r7, #1
10003642:	0789      	lsls	r1, r1, #30
10003644:	1289      	asrs	r1, r1, #10
10003646:	3c80      	subs	r4, #128	; 0x80
10003648:	0324      	lsls	r4, r4, #12

1000364a <l7_3>:
1000364a:	0d1d      	lsrs	r5, r3, #20
1000364c:	0fdf      	lsrs	r7, r3, #31
1000364e:	1e6e      	subs	r6, r5, #1
10003650:	0536      	lsls	r6, r6, #20
10003652:	1b9b      	subs	r3, r3, r6
10003654:	056d      	lsls	r5, r5, #21
10003656:	d303      	bcc.n	10003660 <l8_1>
10003658:	43db      	mvns	r3, r3
1000365a:	4252      	negs	r2, r2
1000365c:	d300      	bcc.n	10003660 <l8_1>
1000365e:	3301      	adds	r3, #1

10003660 <l8_1>:
10003660:	0d6d      	lsrs	r5, r5, #21
10003662:	d003      	beq.n	1000366c <l8_2>
10003664:	1c6e      	adds	r6, r5, #1
10003666:	0af6      	lsrs	r6, r6, #11
10003668:	d007      	beq.n	1000367a <l8_3>
1000366a:	1bed      	subs	r5, r5, r7

1000366c <l8_2>:
1000366c:	2200      	movs	r2, #0
1000366e:	007f      	lsls	r7, r7, #1
10003670:	1c7b      	adds	r3, r7, #1
10003672:	079b      	lsls	r3, r3, #30
10003674:	129b      	asrs	r3, r3, #10
10003676:	3d80      	subs	r5, #128	; 0x80
10003678:	032d      	lsls	r5, r5, #12

1000367a <l8_3>:
1000367a:	1b2f      	subs	r7, r5, r4
1000367c:	1b66      	subs	r6, r4, r5
1000367e:	d458      	bmi.n	10003732 <da_ygtx>
10003680:	46a4      	mov	ip, r4
10003682:	2e20      	cmp	r6, #32
10003684:	da46      	bge.n	10003714 <da_xrgty>
10003686:	3720      	adds	r7, #32
10003688:	0014      	movs	r4, r2
1000368a:	40bc      	lsls	r4, r7

1000368c <da_xgty0>:
1000368c:	001d      	movs	r5, r3
1000368e:	40bd      	lsls	r5, r7
10003690:	40f2      	lsrs	r2, r6
10003692:	4133      	asrs	r3, r6
10003694:	432a      	orrs	r2, r5

10003696 <da_add>:
10003696:	1880      	adds	r0, r0, r2
10003698:	4159      	adcs	r1, r3

1000369a <da_pack>:
1000369a:	0fcb      	lsrs	r3, r1, #31
1000369c:	d005      	beq.n	100036aa <da_pack+0x10>
1000369e:	43c9      	mvns	r1, r1
100036a0:	43c0      	mvns	r0, r0
100036a2:	2200      	movs	r2, #0
100036a4:	4264      	negs	r4, r4
100036a6:	4150      	adcs	r0, r2
100036a8:	4151      	adcs	r1, r2
100036aa:	4662      	mov	r2, ip
100036ac:	0d4d      	lsrs	r5, r1, #21
100036ae:	d128      	bne.n	10003702 <da_0>
100036b0:	0d0d      	lsrs	r5, r1, #20
100036b2:	d107      	bne.n	100036c4 <da_1>
100036b4:	2800      	cmp	r0, #0
100036b6:	d01f      	beq.n	100036f8 <da_5>

100036b8 <da_2>:
100036b8:	1924      	adds	r4, r4, r4
100036ba:	4140      	adcs	r0, r0
100036bc:	4149      	adcs	r1, r1
100036be:	3a01      	subs	r2, #1
100036c0:	0d0d      	lsrs	r5, r1, #20
100036c2:	d0f9      	beq.n	100036b8 <da_2>

100036c4 <da_1>:
100036c4:	0064      	lsls	r4, r4, #1
100036c6:	d306      	bcc.n	100036d6 <da_3>

100036c8 <da_4>:
100036c8:	3001      	adds	r0, #1
100036ca:	d300      	bcc.n	100036ce <da_4+0x6>
100036cc:	3101      	adds	r1, #1
100036ce:	2c00      	cmp	r4, #0
100036d0:	d101      	bne.n	100036d6 <da_3>
100036d2:	0840      	lsrs	r0, r0, #1
100036d4:	0040      	lsls	r0, r0, #1

100036d6 <da_3>:
100036d6:	3a01      	subs	r2, #1
100036d8:	d40b      	bmi.n	100036f2 <da_6>
100036da:	1c94      	adds	r4, r2, #2
100036dc:	0ae4      	lsrs	r4, r4, #11
100036de:	d104      	bne.n	100036ea <da_7>
100036e0:	0512      	lsls	r2, r2, #20
100036e2:	4411      	add	r1, r2
100036e4:	07db      	lsls	r3, r3, #31
100036e6:	4419      	add	r1, r3
100036e8:	bdf0      	pop	{r4, r5, r6, r7, pc}

100036ea <da_7>:
100036ea:	07d9      	lsls	r1, r3, #31
100036ec:	4b20      	ldr	r3, [pc, #128]	; (10003770 <da_xmgty+0x4>)
100036ee:	4319      	orrs	r1, r3
100036f0:	e000      	b.n	100036f4 <da_6+0x2>

100036f2 <da_6>:
100036f2:	07d9      	lsls	r1, r3, #31
100036f4:	2000      	movs	r0, #0
100036f6:	bdf0      	pop	{r4, r5, r6, r7, pc}

100036f8 <da_5>:
100036f8:	2900      	cmp	r1, #0
100036fa:	d1dd      	bne.n	100036b8 <da_2>
100036fc:	2c00      	cmp	r4, #0
100036fe:	d1db      	bne.n	100036b8 <da_2>
10003700:	bdf0      	pop	{r4, r5, r6, r7, pc}

10003702 <da_0>:
10003702:	3201      	adds	r2, #1
10003704:	07c6      	lsls	r6, r0, #31
10003706:	0840      	lsrs	r0, r0, #1
10003708:	07cd      	lsls	r5, r1, #31
1000370a:	4328      	orrs	r0, r5
1000370c:	0849      	lsrs	r1, r1, #1
1000370e:	2e00      	cmp	r6, #0
10003710:	d0e1      	beq.n	100036d6 <da_3>
10003712:	e7d9      	b.n	100036c8 <da_4>

10003714 <da_xrgty>:
10003714:	2e3c      	cmp	r6, #60	; 0x3c
10003716:	da29      	bge.n	1000376c <da_xmgty>
10003718:	3e20      	subs	r6, #32
1000371a:	3740      	adds	r7, #64	; 0x40
1000371c:	0014      	movs	r4, r2
1000371e:	40bc      	lsls	r4, r7
10003720:	d000      	beq.n	10003724 <da_xrgty+0x10>
10003722:	2401      	movs	r4, #1
10003724:	40f2      	lsrs	r2, r6
10003726:	4314      	orrs	r4, r2
10003728:	001a      	movs	r2, r3
1000372a:	40bb      	lsls	r3, r7
1000372c:	431c      	orrs	r4, r3
1000372e:	17d3      	asrs	r3, r2, #31
10003730:	e7ac      	b.n	1000368c <da_xgty0>

10003732 <da_ygtx>:
10003732:	46ac      	mov	ip, r5
10003734:	2f20      	cmp	r7, #32
10003736:	da08      	bge.n	1000374a <da_yrgtx>
10003738:	3620      	adds	r6, #32
1000373a:	0004      	movs	r4, r0
1000373c:	40b4      	lsls	r4, r6

1000373e <da_ygtx0>:
1000373e:	000d      	movs	r5, r1
10003740:	40b5      	lsls	r5, r6
10003742:	40f8      	lsrs	r0, r7
10003744:	4139      	asrs	r1, r7
10003746:	4328      	orrs	r0, r5
10003748:	e7a5      	b.n	10003696 <da_add>

1000374a <da_yrgtx>:
1000374a:	2f3c      	cmp	r7, #60	; 0x3c
1000374c:	da0c      	bge.n	10003768 <da_ymgtx>
1000374e:	3f20      	subs	r7, #32
10003750:	3640      	adds	r6, #64	; 0x40
10003752:	0004      	movs	r4, r0
10003754:	40b4      	lsls	r4, r6
10003756:	d000      	beq.n	1000375a <da_yrgtx+0x10>
10003758:	2401      	movs	r4, #1
1000375a:	40f8      	lsrs	r0, r7
1000375c:	4304      	orrs	r4, r0
1000375e:	0008      	movs	r0, r1
10003760:	40b1      	lsls	r1, r6
10003762:	430c      	orrs	r4, r1
10003764:	17c1      	asrs	r1, r0, #31
10003766:	e7ea      	b.n	1000373e <da_ygtx0>

10003768 <da_ymgtx>:
10003768:	0010      	movs	r0, r2
1000376a:	0019      	movs	r1, r3

1000376c <da_xmgty>:
1000376c:	2400      	movs	r4, #0
1000376e:	e794      	b.n	1000369a <da_pack>
10003770:	7ff00000 	.word	0x7ff00000

10003774 <dmul_shim>:
10003774:	b5f0      	push	{r4, r5, r6, r7, lr}
10003776:	0d0c      	lsrs	r4, r1, #20
10003778:	1e66      	subs	r6, r4, #1
1000377a:	0536      	lsls	r6, r6, #20
1000377c:	1b89      	subs	r1, r1, r6
1000377e:	0ae6      	lsrs	r6, r4, #11
10003780:	0564      	lsls	r4, r4, #21
10003782:	0d64      	lsrs	r4, r4, #21
10003784:	d002      	beq.n	1000378c <l11_1>
10003786:	1c65      	adds	r5, r4, #1
10003788:	0aed      	lsrs	r5, r5, #11
1000378a:	d004      	beq.n	10003796 <l11_2>

1000378c <l11_1>:
1000378c:	2000      	movs	r0, #0
1000378e:	2101      	movs	r1, #1
10003790:	0509      	lsls	r1, r1, #20
10003792:	3c80      	subs	r4, #128	; 0x80
10003794:	0324      	lsls	r4, r4, #12

10003796 <l11_2>:
10003796:	46a4      	mov	ip, r4
10003798:	0d1c      	lsrs	r4, r3, #20
1000379a:	1e67      	subs	r7, r4, #1
1000379c:	053f      	lsls	r7, r7, #20
1000379e:	1bdb      	subs	r3, r3, r7
100037a0:	0ae7      	lsrs	r7, r4, #11
100037a2:	0564      	lsls	r4, r4, #21
100037a4:	0d64      	lsrs	r4, r4, #21
100037a6:	d002      	beq.n	100037ae <l12_1>
100037a8:	1c65      	adds	r5, r4, #1
100037aa:	0aed      	lsrs	r5, r5, #11
100037ac:	d004      	beq.n	100037b8 <l12_2>

100037ae <l12_1>:
100037ae:	2200      	movs	r2, #0
100037b0:	2301      	movs	r3, #1
100037b2:	051b      	lsls	r3, r3, #20
100037b4:	3c80      	subs	r4, #128	; 0x80
100037b6:	0324      	lsls	r4, r4, #12

100037b8 <l12_2>:
100037b8:	4077      	eors	r7, r6
100037ba:	4464      	add	r4, ip
100037bc:	b497      	push	{r0, r1, r2, r4, r7}
100037be:	b284      	uxth	r4, r0
100037c0:	b296      	uxth	r6, r2
100037c2:	4374      	muls	r4, r6
100037c4:	0c07      	lsrs	r7, r0, #16
100037c6:	437e      	muls	r6, r7
100037c8:	0c15      	lsrs	r5, r2, #16
100037ca:	436f      	muls	r7, r5
100037cc:	b280      	uxth	r0, r0
100037ce:	4368      	muls	r0, r5
100037d0:	1836      	adds	r6, r6, r0
100037d2:	d302      	bcc.n	100037da <l13_1>
100037d4:	2001      	movs	r0, #1
100037d6:	0400      	lsls	r0, r0, #16
100037d8:	183f      	adds	r7, r7, r0

100037da <l13_1>:
100037da:	0430      	lsls	r0, r6, #16
100037dc:	0c35      	lsrs	r5, r6, #16
100037de:	1900      	adds	r0, r0, r4
100037e0:	417d      	adcs	r5, r7
100037e2:	4684      	mov	ip, r0
100037e4:	b288      	uxth	r0, r1
100037e6:	b29a      	uxth	r2, r3
100037e8:	4350      	muls	r0, r2
100037ea:	0c0c      	lsrs	r4, r1, #16
100037ec:	4362      	muls	r2, r4
100037ee:	0c1f      	lsrs	r7, r3, #16
100037f0:	437c      	muls	r4, r7
100037f2:	b28e      	uxth	r6, r1
100037f4:	437e      	muls	r6, r7
100037f6:	1992      	adds	r2, r2, r6
100037f8:	d302      	bcc.n	10003800 <l14_1>
100037fa:	2601      	movs	r6, #1
100037fc:	0436      	lsls	r6, r6, #16
100037fe:	19a4      	adds	r4, r4, r6

10003800 <l14_1>:
10003800:	0416      	lsls	r6, r2, #16
10003802:	0c17      	lsrs	r7, r2, #16
10003804:	1836      	adds	r6, r6, r0
10003806:	4167      	adcs	r7, r4
10003808:	bc01      	pop	{r0}
1000380a:	b281      	uxth	r1, r0
1000380c:	b29a      	uxth	r2, r3
1000380e:	4351      	muls	r1, r2
10003810:	0c04      	lsrs	r4, r0, #16
10003812:	4362      	muls	r2, r4
10003814:	0c1b      	lsrs	r3, r3, #16
10003816:	435c      	muls	r4, r3
10003818:	b280      	uxth	r0, r0
1000381a:	4358      	muls	r0, r3
1000381c:	1812      	adds	r2, r2, r0
1000381e:	d302      	bcc.n	10003826 <l15_1>
10003820:	2001      	movs	r0, #1
10003822:	0400      	lsls	r0, r0, #16
10003824:	1824      	adds	r4, r4, r0

10003826 <l15_1>:
10003826:	0410      	lsls	r0, r2, #16
10003828:	0c13      	lsrs	r3, r2, #16
1000382a:	1840      	adds	r0, r0, r1
1000382c:	4163      	adcs	r3, r4
1000382e:	182d      	adds	r5, r5, r0
10003830:	415e      	adcs	r6, r3
10003832:	2000      	movs	r0, #0
10003834:	4147      	adcs	r7, r0
10003836:	bc06      	pop	{r1, r2}
10003838:	b288      	uxth	r0, r1
1000383a:	b293      	uxth	r3, r2
1000383c:	4358      	muls	r0, r3
1000383e:	0c0c      	lsrs	r4, r1, #16
10003840:	4363      	muls	r3, r4
10003842:	0c12      	lsrs	r2, r2, #16
10003844:	4354      	muls	r4, r2
10003846:	b289      	uxth	r1, r1
10003848:	4351      	muls	r1, r2
1000384a:	185b      	adds	r3, r3, r1
1000384c:	d302      	bcc.n	10003854 <l16_1>
1000384e:	2101      	movs	r1, #1
10003850:	0409      	lsls	r1, r1, #16
10003852:	1864      	adds	r4, r4, r1

10003854 <l16_1>:
10003854:	0419      	lsls	r1, r3, #16
10003856:	0c1a      	lsrs	r2, r3, #16
10003858:	1809      	adds	r1, r1, r0
1000385a:	4162      	adcs	r2, r4
1000385c:	186d      	adds	r5, r5, r1
1000385e:	4156      	adcs	r6, r2
10003860:	2000      	movs	r0, #0
10003862:	4147      	adcs	r7, r0
10003864:	bc18      	pop	{r3, r4}
10003866:	02f9      	lsls	r1, r7, #11
10003868:	0d72      	lsrs	r2, r6, #21
1000386a:	4311      	orrs	r1, r2
1000386c:	02f0      	lsls	r0, r6, #11
1000386e:	0d6a      	lsrs	r2, r5, #21
10003870:	4310      	orrs	r0, r2
10003872:	02ed      	lsls	r5, r5, #11
10003874:	0d0a      	lsrs	r2, r1, #20
10003876:	d103      	bne.n	10003880 <l16_1+0x2c>
10003878:	196d      	adds	r5, r5, r5
1000387a:	4140      	adcs	r0, r0
1000387c:	4149      	adcs	r1, r1
1000387e:	3b01      	subs	r3, #1
10003880:	4e12      	ldr	r6, [pc, #72]	; (100038cc <dm_1+0xa>)
10003882:	1b9b      	subs	r3, r3, r6
10003884:	0076      	lsls	r6, r6, #1
10003886:	42b3      	cmp	r3, r6
10003888:	d20e      	bcs.n	100038a8 <dm_0>
1000388a:	006d      	lsls	r5, r5, #1
1000388c:	d307      	bcc.n	1000389e <l16_1+0x4a>
1000388e:	3001      	adds	r0, #1
10003890:	2600      	movs	r6, #0
10003892:	4171      	adcs	r1, r6
10003894:	4666      	mov	r6, ip
10003896:	4335      	orrs	r5, r6
10003898:	d101      	bne.n	1000389e <l16_1+0x4a>
1000389a:	0840      	lsrs	r0, r0, #1
1000389c:	0040      	lsls	r0, r0, #1
1000389e:	051b      	lsls	r3, r3, #20
100038a0:	18c9      	adds	r1, r1, r3

100038a2 <dm_2>:
100038a2:	07e4      	lsls	r4, r4, #31
100038a4:	4421      	add	r1, r4
100038a6:	bdf0      	pop	{r4, r5, r6, r7, pc}

100038a8 <dm_0>:
100038a8:	da0b      	bge.n	100038c2 <dm_1>
100038aa:	3301      	adds	r3, #1
100038ac:	d106      	bne.n	100038bc <dm_0+0x14>
100038ae:	3001      	adds	r0, #1
100038b0:	d104      	bne.n	100038bc <dm_0+0x14>
100038b2:	3101      	adds	r1, #1
100038b4:	0d4f      	lsrs	r7, r1, #21
100038b6:	d001      	beq.n	100038bc <dm_0+0x14>
100038b8:	0849      	lsrs	r1, r1, #1
100038ba:	e7f2      	b.n	100038a2 <dm_2>
100038bc:	07e1      	lsls	r1, r4, #31
100038be:	2000      	movs	r0, #0
100038c0:	bdf0      	pop	{r4, r5, r6, r7, pc}

100038c2 <dm_1>:
100038c2:	3601      	adds	r6, #1
100038c4:	0531      	lsls	r1, r6, #20
100038c6:	2000      	movs	r0, #0
100038c8:	e7eb      	b.n	100038a2 <dm_2>
100038ca:	0000      	.short	0x0000
100038cc:	000003ff 	.word	0x000003ff

100038d0 <ddiv_shim>:
100038d0:	b5f0      	push	{r4, r5, r6, r7, lr}

100038d2 <ddiv0>:
100038d2:	0d1c      	lsrs	r4, r3, #20
100038d4:	1e67      	subs	r7, r4, #1
100038d6:	053f      	lsls	r7, r7, #20
100038d8:	1bdb      	subs	r3, r3, r7
100038da:	0ae7      	lsrs	r7, r4, #11
100038dc:	0564      	lsls	r4, r4, #21
100038de:	0d64      	lsrs	r4, r4, #21
100038e0:	d002      	beq.n	100038e8 <l19_1>
100038e2:	1c66      	adds	r6, r4, #1
100038e4:	0af6      	lsrs	r6, r6, #11
100038e6:	d004      	beq.n	100038f2 <l19_2>

100038e8 <l19_1>:
100038e8:	2200      	movs	r2, #0
100038ea:	2301      	movs	r3, #1
100038ec:	051b      	lsls	r3, r3, #20
100038ee:	3c80      	subs	r4, #128	; 0x80
100038f0:	0324      	lsls	r4, r4, #12

100038f2 <l19_2>:
100038f2:	25d0      	movs	r5, #208	; 0xd0
100038f4:	062d      	lsls	r5, r5, #24
100038f6:	2600      	movs	r6, #0
100038f8:	43f6      	mvns	r6, r6
100038fa:	662e      	str	r6, [r5, #96]	; 0x60
100038fc:	091e      	lsrs	r6, r3, #4
100038fe:	666e      	str	r6, [r5, #100]	; 0x64
10003900:	0fce      	lsrs	r6, r1, #31
10003902:	19f6      	adds	r6, r6, r7
10003904:	46b4      	mov	ip, r6
10003906:	0049      	lsls	r1, r1, #1
10003908:	0d4f      	lsrs	r7, r1, #21
1000390a:	d002      	beq.n	10003912 <l19_2+0x20>
1000390c:	1c7e      	adds	r6, r7, #1
1000390e:	0af6      	lsrs	r6, r6, #11
10003910:	d003      	beq.n	1000391a <l19_2+0x28>
10003912:	2000      	movs	r0, #0
10003914:	2100      	movs	r1, #0
10003916:	3f40      	subs	r7, #64	; 0x40
10003918:	033f      	lsls	r7, r7, #12
1000391a:	1b3e      	subs	r6, r7, r4
1000391c:	00b6      	lsls	r6, r6, #2
1000391e:	44b4      	add	ip, r6
10003920:	3f01      	subs	r7, #1
10003922:	057f      	lsls	r7, r7, #21
10003924:	1bc9      	subs	r1, r1, r7
10003926:	0849      	lsrs	r1, r1, #1
10003928:	6f2e      	ldr	r6, [r5, #112]	; 0x70
1000392a:	3601      	adds	r6, #1
1000392c:	0876      	lsrs	r6, r6, #1
1000392e:	029c      	lsls	r4, r3, #10
10003930:	0d95      	lsrs	r5, r2, #22
10003932:	4325      	orrs	r5, r4
10003934:	4375      	muls	r5, r6
10003936:	13ed      	asrs	r5, r5, #15
10003938:	4375      	muls	r5, r6
1000393a:	13ad      	asrs	r5, r5, #14
1000393c:	3501      	adds	r5, #1
1000393e:	106d      	asrs	r5, r5, #1
10003940:	03f6      	lsls	r6, r6, #15
10003942:	1b76      	subs	r6, r6, r5
10003944:	b40c      	push	{r2, r3}
10003946:	02cc      	lsls	r4, r1, #11
10003948:	0d45      	lsrs	r5, r0, #21
1000394a:	432c      	orrs	r4, r5
1000394c:	b2a2      	uxth	r2, r4
1000394e:	b2b3      	uxth	r3, r6
10003950:	435a      	muls	r2, r3
10003952:	0c27      	lsrs	r7, r4, #16
10003954:	437b      	muls	r3, r7
10003956:	0c35      	lsrs	r5, r6, #16
10003958:	436f      	muls	r7, r5
1000395a:	b2a4      	uxth	r4, r4
1000395c:	436c      	muls	r4, r5
1000395e:	191b      	adds	r3, r3, r4
10003960:	d302      	bcc.n	10003968 <l20_1>
10003962:	2401      	movs	r4, #1
10003964:	0424      	lsls	r4, r4, #16
10003966:	193f      	adds	r7, r7, r4

10003968 <l20_1>:
10003968:	041c      	lsls	r4, r3, #16
1000396a:	0c1d      	lsrs	r5, r3, #16
1000396c:	18a4      	adds	r4, r4, r2
1000396e:	417d      	adcs	r5, r7
10003970:	1924      	adds	r4, r4, r4
10003972:	416d      	adcs	r5, r5
10003974:	9a00      	ldr	r2, [sp, #0]
10003976:	b291      	uxth	r1, r2
10003978:	b2ac      	uxth	r4, r5
1000397a:	4361      	muls	r1, r4
1000397c:	0c17      	lsrs	r7, r2, #16
1000397e:	437c      	muls	r4, r7
10003980:	0c2b      	lsrs	r3, r5, #16
10003982:	435f      	muls	r7, r3
10003984:	b292      	uxth	r2, r2
10003986:	435a      	muls	r2, r3
10003988:	18a4      	adds	r4, r4, r2
1000398a:	d302      	bcc.n	10003992 <l21_1>
1000398c:	2201      	movs	r2, #1
1000398e:	0412      	lsls	r2, r2, #16
10003990:	18bf      	adds	r7, r7, r2

10003992 <l21_1>:
10003992:	0422      	lsls	r2, r4, #16
10003994:	0c23      	lsrs	r3, r4, #16
10003996:	1852      	adds	r2, r2, r1
10003998:	417b      	adcs	r3, r7
1000399a:	9c01      	ldr	r4, [sp, #4]
1000399c:	436c      	muls	r4, r5
1000399e:	191b      	adds	r3, r3, r4
100039a0:	0e52      	lsrs	r2, r2, #25
100039a2:	01d9      	lsls	r1, r3, #7
100039a4:	430a      	orrs	r2, r1
100039a6:	0144      	lsls	r4, r0, #5
100039a8:	1aa0      	subs	r0, r4, r2
100039aa:	b281      	uxth	r1, r0
100039ac:	b2b2      	uxth	r2, r6
100039ae:	4351      	muls	r1, r2
100039b0:	1403      	asrs	r3, r0, #16
100039b2:	435a      	muls	r2, r3
100039b4:	0c36      	lsrs	r6, r6, #16
100039b6:	4373      	muls	r3, r6
100039b8:	b287      	uxth	r7, r0
100039ba:	4377      	muls	r7, r6
100039bc:	17d6      	asrs	r6, r2, #31
100039be:	19d2      	adds	r2, r2, r7
100039c0:	2700      	movs	r7, #0
100039c2:	417e      	adcs	r6, r7
100039c4:	0436      	lsls	r6, r6, #16
100039c6:	199b      	adds	r3, r3, r6
100039c8:	0417      	lsls	r7, r2, #16
100039ca:	0c16      	lsrs	r6, r2, #16
100039cc:	187f      	adds	r7, r7, r1
100039ce:	415e      	adcs	r6, r3
100039d0:	1673      	asrs	r3, r6, #25
100039d2:	18ed      	adds	r5, r5, r3
100039d4:	01f3      	lsls	r3, r6, #7
100039d6:	2600      	movs	r6, #0
100039d8:	3380      	adds	r3, #128	; 0x80
100039da:	4175      	adcs	r5, r6
100039dc:	0fa9      	lsrs	r1, r5, #30
100039de:	d106      	bne.n	100039ee <dd_0>
100039e0:	0064      	lsls	r4, r4, #1
100039e2:	0a69      	lsrs	r1, r5, #9
100039e4:	05e8      	lsls	r0, r5, #23
100039e6:	0a5b      	lsrs	r3, r3, #9
100039e8:	4318      	orrs	r0, r3
100039ea:	d209      	bcs.n	10003a00 <dd_1>
100039ec:	e02f      	b.n	10003a4e <dd_2>

100039ee <dd_0>:
100039ee:	2204      	movs	r2, #4
100039f0:	4494      	add	ip, r2
100039f2:	3380      	adds	r3, #128	; 0x80
100039f4:	4175      	adcs	r5, r6
100039f6:	0aa9      	lsrs	r1, r5, #10
100039f8:	05a8      	lsls	r0, r5, #22
100039fa:	0a9b      	lsrs	r3, r3, #10
100039fc:	4318      	orrs	r0, r3
100039fe:	d326      	bcc.n	10003a4e <dd_2>

10003a00 <dd_1>:
10003a00:	4140      	adcs	r0, r0
10003a02:	4149      	adcs	r1, r1
10003a04:	0424      	lsls	r4, r4, #16
10003a06:	9a00      	ldr	r2, [sp, #0]
10003a08:	9b01      	ldr	r3, [sp, #4]
10003a0a:	000d      	movs	r5, r1
10003a0c:	4355      	muls	r5, r2
10003a0e:	1b64      	subs	r4, r4, r5
10003a10:	4343      	muls	r3, r0
10003a12:	1ae4      	subs	r4, r4, r3
10003a14:	b295      	uxth	r5, r2
10003a16:	b286      	uxth	r6, r0
10003a18:	4375      	muls	r5, r6
10003a1a:	0c17      	lsrs	r7, r2, #16
10003a1c:	437e      	muls	r6, r7
10003a1e:	0c03      	lsrs	r3, r0, #16
10003a20:	435f      	muls	r7, r3
10003a22:	b292      	uxth	r2, r2
10003a24:	435a      	muls	r2, r3
10003a26:	18b6      	adds	r6, r6, r2
10003a28:	d302      	bcc.n	10003a30 <l23_1>
10003a2a:	2201      	movs	r2, #1
10003a2c:	0412      	lsls	r2, r2, #16
10003a2e:	18bf      	adds	r7, r7, r2

10003a30 <l23_1>:
10003a30:	0432      	lsls	r2, r6, #16
10003a32:	0c33      	lsrs	r3, r6, #16
10003a34:	1952      	adds	r2, r2, r5
10003a36:	417b      	adcs	r3, r7
10003a38:	4252      	negs	r2, r2
10003a3a:	419c      	sbcs	r4, r3
10003a3c:	2c00      	cmp	r4, #0
10003a3e:	d402      	bmi.n	10003a46 <l23_1+0x16>
10003a40:	2200      	movs	r2, #0
10003a42:	3001      	adds	r0, #1
10003a44:	4151      	adcs	r1, r2
10003a46:	0840      	lsrs	r0, r0, #1
10003a48:	07ca      	lsls	r2, r1, #31
10003a4a:	4310      	orrs	r0, r2
10003a4c:	0849      	lsrs	r1, r1, #1

10003a4e <dd_2>:
10003a4e:	b002      	add	sp, #8
10003a50:	4662      	mov	r2, ip
10003a52:	07d7      	lsls	r7, r2, #31
10003a54:	1092      	asrs	r2, r2, #2
10003a56:	4b08      	ldr	r3, [pc, #32]	; (10003a78 <dd_4+0x6>)
10003a58:	18d2      	adds	r2, r2, r3
10003a5a:	4b08      	ldr	r3, [pc, #32]	; (10003a7c <dd_4+0xa>)
10003a5c:	429a      	cmp	r2, r3
10003a5e:	d203      	bcs.n	10003a68 <dd_3>
10003a60:	0512      	lsls	r2, r2, #20
10003a62:	1889      	adds	r1, r1, r2

10003a64 <dd_5>:
10003a64:	19c9      	adds	r1, r1, r7
10003a66:	bdf0      	pop	{r4, r5, r6, r7, pc}

10003a68 <dd_3>:
10003a68:	2000      	movs	r0, #0
10003a6a:	2a00      	cmp	r2, #0
10003a6c:	dc01      	bgt.n	10003a72 <dd_4>
10003a6e:	0039      	movs	r1, r7
10003a70:	bdf0      	pop	{r4, r5, r6, r7, pc}

10003a72 <dd_4>:
10003a72:	3301      	adds	r3, #1
10003a74:	0519      	lsls	r1, r3, #20
10003a76:	e7f5      	b.n	10003a64 <dd_5>
10003a78:	000003fd 	.word	0x000003fd
10003a7c:	000007fe 	.word	0x000007fe

10003a80 <dcordic_rot_step>:
10003a80:	4662      	mov	r2, ip
10003a82:	ca18      	ldmia	r2!, {r3, r4}
10003a84:	4694      	mov	ip, r2
10003a86:	2900      	cmp	r1, #0
10003a88:	da1a      	bge.n	10003ac0 <dcordic_rot_step+0x40>
10003a8a:	18c0      	adds	r0, r0, r3
10003a8c:	4161      	adcs	r1, r4
10003a8e:	465b      	mov	r3, fp
10003a90:	413b      	asrs	r3, r7
10003a92:	465c      	mov	r4, fp
10003a94:	40b4      	lsls	r4, r6
10003a96:	4652      	mov	r2, sl
10003a98:	40fa      	lsrs	r2, r7
10003a9a:	4322      	orrs	r2, r4
10003a9c:	4644      	mov	r4, r8
10003a9e:	464d      	mov	r5, r9
10003aa0:	4162      	adcs	r2, r4
10003aa2:	416b      	adcs	r3, r5
10003aa4:	4690      	mov	r8, r2
10003aa6:	4699      	mov	r9, r3
10003aa8:	462b      	mov	r3, r5
10003aaa:	40b3      	lsls	r3, r6
10003aac:	413d      	asrs	r5, r7
10003aae:	40fc      	lsrs	r4, r7
10003ab0:	431c      	orrs	r4, r3
10003ab2:	4652      	mov	r2, sl
10003ab4:	465b      	mov	r3, fp
10003ab6:	41a2      	sbcs	r2, r4
10003ab8:	41ab      	sbcs	r3, r5
10003aba:	4692      	mov	sl, r2
10003abc:	469b      	mov	fp, r3
10003abe:	4770      	bx	lr
10003ac0:	1ac0      	subs	r0, r0, r3
10003ac2:	41a1      	sbcs	r1, r4
10003ac4:	464b      	mov	r3, r9
10003ac6:	413b      	asrs	r3, r7
10003ac8:	464c      	mov	r4, r9
10003aca:	40b4      	lsls	r4, r6
10003acc:	4642      	mov	r2, r8
10003ace:	40fa      	lsrs	r2, r7
10003ad0:	4322      	orrs	r2, r4
10003ad2:	4654      	mov	r4, sl
10003ad4:	465d      	mov	r5, fp
10003ad6:	4162      	adcs	r2, r4
10003ad8:	416b      	adcs	r3, r5
10003ada:	4692      	mov	sl, r2
10003adc:	469b      	mov	fp, r3
10003ade:	462b      	mov	r3, r5
10003ae0:	40b3      	lsls	r3, r6
10003ae2:	413d      	asrs	r5, r7
10003ae4:	40fc      	lsrs	r4, r7
10003ae6:	431c      	orrs	r4, r3
10003ae8:	4642      	mov	r2, r8
10003aea:	464b      	mov	r3, r9
10003aec:	41a2      	sbcs	r2, r4
10003aee:	41ab      	sbcs	r3, r5
10003af0:	4690      	mov	r8, r2
10003af2:	4699      	mov	r9, r3
10003af4:	4770      	bx	lr

10003af6 <ret_dzero>:
10003af6:	2000      	movs	r0, #0
10003af8:	2100      	movs	r1, #0
10003afa:	4770      	bx	lr

10003afc <double2uint_shim>:
10003afc:	2200      	movs	r2, #0

10003afe <double2ufix_shim>:
10003afe:	b500      	push	{lr}
10003b00:	3220      	adds	r2, #32
10003b02:	f000 f804 	bl	10003b0e <double2ufix64_shim>
10003b06:	0008      	movs	r0, r1
10003b08:	bd00      	pop	{pc}
	...

10003b0c <double2uint64_shim>:
10003b0c:	2200      	movs	r2, #0

10003b0e <double2ufix64_shim>:
10003b0e:	150b      	asrs	r3, r1, #20
10003b10:	d4f1      	bmi.n	10003af6 <ret_dzero>

10003b12 <d2fix>:
10003b12:	b510      	push	{r4, lr}
10003b14:	4694      	mov	ip, r2
10003b16:	f000 f82f 	bl	10003b78 <dunpacks>
10003b1a:	1414      	asrs	r4, r2, #16
10003b1c:	3401      	adds	r4, #1
10003b1e:	da00      	bge.n	10003b22 <d2fix+0x10>
10003b20:	2100      	movs	r1, #0
10003b22:	17cb      	asrs	r3, r1, #31
10003b24:	4c13      	ldr	r4, [pc, #76]	; (10003b74 <d2fix_a+0x4c>)
10003b26:	4720      	bx	r4

10003b28 <d2fix_a>:
10003b28:	4462      	add	r2, ip
10003b2a:	3a34      	subs	r2, #52	; 0x34
10003b2c:	d40c      	bmi.n	10003b48 <d2fix_a+0x20>
10003b2e:	2a0c      	cmp	r2, #12
10003b30:	da07      	bge.n	10003b42 <d2fix_a+0x1a>
10003b32:	0004      	movs	r4, r0
10003b34:	4091      	lsls	r1, r2
10003b36:	4090      	lsls	r0, r2
10003b38:	4252      	negs	r2, r2
10003b3a:	3220      	adds	r2, #32
10003b3c:	40d4      	lsrs	r4, r2
10003b3e:	4321      	orrs	r1, r4
10003b40:	bd10      	pop	{r4, pc}
10003b42:	43d8      	mvns	r0, r3
10003b44:	43d9      	mvns	r1, r3
10003b46:	bd10      	pop	{r4, pc}
10003b48:	3220      	adds	r2, #32
10003b4a:	d407      	bmi.n	10003b5c <d2fix_a+0x34>
10003b4c:	460c      	mov	r4, r1
10003b4e:	4094      	lsls	r4, r2
10003b50:	4252      	negs	r2, r2
10003b52:	3220      	adds	r2, #32
10003b54:	4111      	asrs	r1, r2
10003b56:	40d0      	lsrs	r0, r2
10003b58:	4320      	orrs	r0, r4
10003b5a:	bd10      	pop	{r4, pc}
10003b5c:	0008      	movs	r0, r1
10003b5e:	17c9      	asrs	r1, r1, #31
10003b60:	3220      	adds	r2, #32
10003b62:	d403      	bmi.n	10003b6c <d2fix_a+0x44>
10003b64:	4252      	negs	r2, r2
10003b66:	3220      	adds	r2, #32
10003b68:	4110      	asrs	r0, r2
10003b6a:	bd10      	pop	{r4, pc}
10003b6c:	0018      	movs	r0, r3
10003b6e:	0019      	movs	r1, r3
10003b70:	bd10      	pop	{r4, pc}
10003b72:	0000      	.short	0x0000
10003b74:	10003b29 	.word	0x10003b29

10003b78 <dunpacks>:
10003b78:	0d0a      	lsrs	r2, r1, #20
10003b7a:	0fcc      	lsrs	r4, r1, #31
10003b7c:	1e53      	subs	r3, r2, #1
10003b7e:	051b      	lsls	r3, r3, #20
10003b80:	1ac9      	subs	r1, r1, r3
10003b82:	0552      	lsls	r2, r2, #21
10003b84:	d303      	bcc.n	10003b8e <l60_1>
10003b86:	43c9      	mvns	r1, r1
10003b88:	4240      	negs	r0, r0
10003b8a:	d300      	bcc.n	10003b8e <l60_1>
10003b8c:	3101      	adds	r1, #1

10003b8e <l60_1>:
10003b8e:	0d52      	lsrs	r2, r2, #21
10003b90:	d003      	beq.n	10003b9a <l60_2>
10003b92:	1c53      	adds	r3, r2, #1
10003b94:	0adb      	lsrs	r3, r3, #11
10003b96:	d007      	beq.n	10003ba8 <l60_3>
10003b98:	1b12      	subs	r2, r2, r4

10003b9a <l60_2>:
10003b9a:	2000      	movs	r0, #0
10003b9c:	0064      	lsls	r4, r4, #1
10003b9e:	1c61      	adds	r1, r4, #1
10003ba0:	0789      	lsls	r1, r1, #30
10003ba2:	1289      	asrs	r1, r1, #10
10003ba4:	3a80      	subs	r2, #128	; 0x80
10003ba6:	0312      	lsls	r2, r2, #12

10003ba8 <l60_3>:
10003ba8:	4b01      	ldr	r3, [pc, #4]	; (10003bb0 <l60_3+0x8>)
10003baa:	1ad2      	subs	r2, r2, r3
10003bac:	4770      	bx	lr
10003bae:	0000      	.short	0x0000
10003bb0:	000003ff 	.word	0x000003ff

10003bb4 <__wrap___aeabi_frsub>:
10003bb4:	4048      	eors	r0, r1
10003bb6:	4041      	eors	r1, r0
10003bb8:	4048      	eors	r0, r1

10003bba <__wrap___aeabi_fsub>:
10003bba:	4b06      	ldr	r3, [pc, #24]	; (10003bd4 <__wrap___aeabi_fmul+0x8>)
10003bbc:	685b      	ldr	r3, [r3, #4]
10003bbe:	4718      	bx	r3

10003bc0 <__wrap___aeabi_fadd>:
10003bc0:	4b04      	ldr	r3, [pc, #16]	; (10003bd4 <__wrap___aeabi_fmul+0x8>)
10003bc2:	681b      	ldr	r3, [r3, #0]
10003bc4:	4718      	bx	r3

10003bc6 <__wrap___aeabi_fdiv>:
10003bc6:	4b03      	ldr	r3, [pc, #12]	; (10003bd4 <__wrap___aeabi_fmul+0x8>)
10003bc8:	68db      	ldr	r3, [r3, #12]
10003bca:	4718      	bx	r3

10003bcc <__wrap___aeabi_fmul>:
10003bcc:	4b01      	ldr	r3, [pc, #4]	; (10003bd4 <__wrap___aeabi_fmul+0x8>)
10003bce:	689b      	ldr	r3, [r3, #8]
10003bd0:	4718      	bx	r3
10003bd2:	0000      	.short	0x0000
10003bd4:	20004c90 	.word	0x20004c90

10003bd8 <__wrap___aeabi_ui2f>:
10003bd8:	1a49      	subs	r1, r1, r1
10003bda:	2800      	cmp	r0, #0
10003bdc:	d108      	bne.n	10003bf0 <__aeabi_i2f_main>
10003bde:	4608      	mov	r0, r1
10003be0:	4770      	bx	lr
	...

10003be4 <__wrap___aeabi_i2f>:
10003be4:	0fc1      	lsrs	r1, r0, #31
10003be6:	07c9      	lsls	r1, r1, #31
10003be8:	d500      	bpl.n	10003bec <__wrap___aeabi_i2f+0x8>
10003bea:	4240      	negs	r0, r0
10003bec:	2800      	cmp	r0, #0
10003bee:	d017      	beq.n	10003c20 <__aeabi_i2f_main+0x30>

10003bf0 <__aeabi_i2f_main>:
10003bf0:	46f4      	mov	ip, lr
10003bf2:	b403      	push	{r0, r1}
10003bf4:	4b0b      	ldr	r3, [pc, #44]	; (10003c24 <__aeabi_i2f_main+0x34>)
10003bf6:	681b      	ldr	r3, [r3, #0]
10003bf8:	4798      	blx	r3
10003bfa:	bc06      	pop	{r1, r2}
10003bfc:	4081      	lsls	r1, r0
10003bfe:	389e      	subs	r0, #158	; 0x9e
10003c00:	4240      	negs	r0, r0
10003c02:	3180      	adds	r1, #128	; 0x80
10003c04:	d207      	bcs.n	10003c16 <__aeabi_i2f_main+0x26>
10003c06:	060b      	lsls	r3, r1, #24
10003c08:	d007      	beq.n	10003c1a <__aeabi_i2f_main+0x2a>
10003c0a:	0049      	lsls	r1, r1, #1
10003c0c:	0a49      	lsrs	r1, r1, #9
10003c0e:	05c0      	lsls	r0, r0, #23
10003c10:	4310      	orrs	r0, r2
10003c12:	4308      	orrs	r0, r1
10003c14:	4760      	bx	ip
10003c16:	3001      	adds	r0, #1
10003c18:	e7f8      	b.n	10003c0c <__aeabi_i2f_main+0x1c>
10003c1a:	0a49      	lsrs	r1, r1, #9
10003c1c:	0289      	lsls	r1, r1, #10
10003c1e:	e7f5      	b.n	10003c0c <__aeabi_i2f_main+0x1c>
10003c20:	4770      	bx	lr
10003c22:	0000      	.short	0x0000
10003c24:	20004d90 	.word	0x20004d90

10003c28 <__wrap___aeabi_f2d>:
10003c28:	4b03      	ldr	r3, [pc, #12]	; (10003c38 <__wrap___aeabi_f2d+0x10>)
10003c2a:	6fdb      	ldr	r3, [r3, #124]	; 0x7c
10003c2c:	46fc      	mov	ip, pc
10003c2e:	4718      	bx	r3
10003c30:	3ccddf7c 	.word	0x3ccddf7c
10003c34:	00001000 	.word	0x00001000
10003c38:	20004c90 	.word	0x20004c90

10003c3c <__aeabi_float_init>:
10003c3c:	2313      	movs	r3, #19
10003c3e:	b510      	push	{r4, lr}
10003c40:	4812      	ldr	r0, [pc, #72]	; (10003c8c <__aeabi_float_init+0x50>)
10003c42:	781c      	ldrb	r4, [r3, #0]
10003c44:	f7ff f90a 	bl	10002e5c <rom_data_lookup>
10003c48:	0001      	movs	r1, r0
10003c4a:	2c01      	cmp	r4, #1
10003c4c:	d00a      	beq.n	10003c64 <__aeabi_float_init+0x28>
10003c4e:	dd03      	ble.n	10003c58 <__aeabi_float_init+0x1c>
10003c50:	2280      	movs	r2, #128	; 0x80
10003c52:	480f      	ldr	r0, [pc, #60]	; (10003c90 <__aeabi_float_init+0x54>)
10003c54:	f000 f868 	bl	10003d28 <__wrap___aeabi_memcpy>
10003c58:	480e      	ldr	r0, [pc, #56]	; (10003c94 <__aeabi_float_init+0x58>)
10003c5a:	f7ff f8f7 	bl	10002e4c <rom_func_lookup>
10003c5e:	4b0e      	ldr	r3, [pc, #56]	; (10003c98 <__aeabi_float_init+0x5c>)
10003c60:	6018      	str	r0, [r3, #0]
10003c62:	bd10      	pop	{r4, pc}
10003c64:	4c0a      	ldr	r4, [pc, #40]	; (10003c90 <__aeabi_float_init+0x54>)
10003c66:	2254      	movs	r2, #84	; 0x54
10003c68:	0020      	movs	r0, r4
10003c6a:	f000 f85d 	bl	10003d28 <__wrap___aeabi_memcpy>
10003c6e:	4b0b      	ldr	r3, [pc, #44]	; (10003c9c <__aeabi_float_init+0x60>)
10003c70:	6563      	str	r3, [r4, #84]	; 0x54
10003c72:	65a3      	str	r3, [r4, #88]	; 0x58
10003c74:	65e3      	str	r3, [r4, #92]	; 0x5c
10003c76:	6623      	str	r3, [r4, #96]	; 0x60
10003c78:	6663      	str	r3, [r4, #100]	; 0x64
10003c7a:	66a3      	str	r3, [r4, #104]	; 0x68
10003c7c:	66e3      	str	r3, [r4, #108]	; 0x6c
10003c7e:	6723      	str	r3, [r4, #112]	; 0x70
10003c80:	6763      	str	r3, [r4, #116]	; 0x74
10003c82:	67a3      	str	r3, [r4, #120]	; 0x78
10003c84:	67e3      	str	r3, [r4, #124]	; 0x7c
10003c86:	6223      	str	r3, [r4, #32]
10003c88:	61e3      	str	r3, [r4, #28]
10003c8a:	e7e5      	b.n	10003c58 <__aeabi_float_init+0x1c>
10003c8c:	00004653 	.word	0x00004653
10003c90:	20004c90 	.word	0x20004c90
10003c94:	0000334c 	.word	0x0000334c
10003c98:	20004d90 	.word	0x20004d90
10003c9c:	10003ca1 	.word	0x10003ca1

10003ca0 <float_table_shim_on_use_helper>:
10003ca0:	b507      	push	{r0, r1, r2, lr}
10003ca2:	4660      	mov	r0, ip
10003ca4:	8801      	ldrh	r1, [r0, #0]
10003ca6:	0a0a      	lsrs	r2, r1, #8
10003ca8:	3002      	adds	r0, #2
10003caa:	2adf      	cmp	r2, #223	; 0xdf
10003cac:	d1fa      	bne.n	10003ca4 <float_table_shim_on_use_helper+0x4>
10003cae:	b2c9      	uxtb	r1, r1
10003cb0:	0882      	lsrs	r2, r0, #2
10003cb2:	d304      	bcc.n	10003cbe <float_table_shim_on_use_helper+0x1e>
10003cb4:	8802      	ldrh	r2, [r0, #0]
10003cb6:	8840      	ldrh	r0, [r0, #2]
10003cb8:	0400      	lsls	r0, r0, #16
10003cba:	4310      	orrs	r0, r2
10003cbc:	e000      	b.n	10003cc0 <float_table_shim_on_use_helper+0x20>
10003cbe:	6800      	ldr	r0, [r0, #0]
10003cc0:	4a01      	ldr	r2, [pc, #4]	; (10003cc8 <float_table_shim_on_use_helper+0x28>)
10003cc2:	5050      	str	r0, [r2, r1]
10003cc4:	9003      	str	r0, [sp, #12]
10003cc6:	bd07      	pop	{r0, r1, r2, pc}
10003cc8:	20004c90 	.word	0x20004c90

10003ccc <float2double_shim>:
10003ccc:	0fc3      	lsrs	r3, r0, #31
10003cce:	07db      	lsls	r3, r3, #31
10003cd0:	0041      	lsls	r1, r0, #1
10003cd2:	0e0a      	lsrs	r2, r1, #24
10003cd4:	d007      	beq.n	10003ce6 <float2double_shim+0x1a>
10003cd6:	2aff      	cmp	r2, #255	; 0xff
10003cd8:	d008      	beq.n	10003cec <float2double_shim+0x20>
10003cda:	0909      	lsrs	r1, r1, #4
10003cdc:	4a05      	ldr	r2, [pc, #20]	; (10003cf4 <float2double_shim+0x28>)
10003cde:	1889      	adds	r1, r1, r2
10003ce0:	4319      	orrs	r1, r3
10003ce2:	0740      	lsls	r0, r0, #29
10003ce4:	4770      	bx	lr
10003ce6:	0019      	movs	r1, r3
10003ce8:	2000      	movs	r0, #0
10003cea:	4770      	bx	lr
10003cec:	4902      	ldr	r1, [pc, #8]	; (10003cf8 <float2double_shim+0x2c>)
10003cee:	18c9      	adds	r1, r1, r3
10003cf0:	e7fa      	b.n	10003ce8 <float2double_shim+0x1c>
10003cf2:	0000      	.short	0x0000
10003cf4:	38000000 	.word	0x38000000
10003cf8:	7ff00000 	.word	0x7ff00000

10003cfc <__wrap_malloc>:
10003cfc:	b510      	push	{r4, lr}
10003cfe:	f000 fa79 	bl	100041f4 <malloc>
10003d02:	bd10      	pop	{r4, pc}

10003d04 <__wrap_calloc>:
10003d04:	b510      	push	{r4, lr}
10003d06:	f000 fa3b 	bl	10004180 <calloc>
10003d0a:	bd10      	pop	{r4, pc}

10003d0c <__aeabi_mem_init>:
10003d0c:	4801      	ldr	r0, [pc, #4]	; (10003d14 <__aeabi_mem_init+0x8>)
10003d0e:	2104      	movs	r1, #4
10003d10:	4b01      	ldr	r3, [pc, #4]	; (10003d18 <__aeabi_mem_init+0xc>)
10003d12:	4718      	bx	r3
10003d14:	20000250 	.word	0x20000250
10003d18:	10002e6d 	.word	0x10002e6d

10003d1c <__wrap_memset>:
10003d1c:	4b01      	ldr	r3, [pc, #4]	; (10003d24 <__wrap_memset+0x8>)
10003d1e:	681b      	ldr	r3, [r3, #0]
10003d20:	4718      	bx	r3
10003d22:	0000      	.short	0x0000
10003d24:	20000250 	.word	0x20000250

10003d28 <__wrap___aeabi_memcpy>:
10003d28:	4b01      	ldr	r3, [pc, #4]	; (10003d30 <__wrap___aeabi_memcpy+0x8>)
10003d2a:	685b      	ldr	r3, [r3, #4]
10003d2c:	4718      	bx	r3
10003d2e:	0000      	.short	0x0000
10003d30:	20000250 	.word	0x20000250

10003d34 <stdio_out_chars_crlf.part.0>:
10003d34:	b5f8      	push	{r3, r4, r5, r6, r7, lr}
10003d36:	4647      	mov	r7, r8
10003d38:	46ce      	mov	lr, r9
10003d3a:	000d      	movs	r5, r1
10003d3c:	b580      	push	{r7, lr}
10003d3e:	0016      	movs	r6, r2
10003d40:	0007      	movs	r7, r0
10003d42:	2a00      	cmp	r2, #0
10003d44:	dd20      	ble.n	10003d88 <stdio_out_chars_crlf.part.0+0x54>
10003d46:	1e4b      	subs	r3, r1, #1
10003d48:	4698      	mov	r8, r3
10003d4a:	4b1a      	ldr	r3, [pc, #104]	; (10003db4 <stdio_out_chars_crlf.part.0+0x80>)
10003d4c:	2400      	movs	r4, #0
10003d4e:	2000      	movs	r0, #0
10003d50:	4699      	mov	r9, r3
10003d52:	2c00      	cmp	r4, #0
10003d54:	d02b      	beq.n	10003dae <stdio_out_chars_crlf.part.0+0x7a>
10003d56:	4643      	mov	r3, r8
10003d58:	5d1b      	ldrb	r3, [r3, r4]
10003d5a:	3b0d      	subs	r3, #13
10003d5c:	425a      	negs	r2, r3
10003d5e:	4153      	adcs	r3, r2
10003d60:	b2db      	uxtb	r3, r3
10003d62:	5d2a      	ldrb	r2, [r5, r4]
10003d64:	2a0a      	cmp	r2, #10
10003d66:	d013      	beq.n	10003d90 <stdio_out_chars_crlf.part.0+0x5c>
10003d68:	3401      	adds	r4, #1
10003d6a:	42a6      	cmp	r6, r4
10003d6c:	dcf1      	bgt.n	10003d52 <stdio_out_chars_crlf.part.0+0x1e>
10003d6e:	4286      	cmp	r6, r0
10003d70:	dd03      	ble.n	10003d7a <stdio_out_chars_crlf.part.0+0x46>
10003d72:	1a31      	subs	r1, r6, r0
10003d74:	683b      	ldr	r3, [r7, #0]
10003d76:	1828      	adds	r0, r5, r0
10003d78:	4798      	blx	r3
10003d7a:	19ad      	adds	r5, r5, r6
10003d7c:	3d01      	subs	r5, #1
10003d7e:	782b      	ldrb	r3, [r5, #0]
10003d80:	3b0d      	subs	r3, #13
10003d82:	425a      	negs	r2, r3
10003d84:	4153      	adcs	r3, r2
10003d86:	743b      	strb	r3, [r7, #16]
10003d88:	bc0c      	pop	{r2, r3}
10003d8a:	4690      	mov	r8, r2
10003d8c:	4699      	mov	r9, r3
10003d8e:	bdf8      	pop	{r3, r4, r5, r6, r7, pc}
10003d90:	2b00      	cmp	r3, #0
10003d92:	d1e9      	bne.n	10003d68 <stdio_out_chars_crlf.part.0+0x34>
10003d94:	42a0      	cmp	r0, r4
10003d96:	da03      	bge.n	10003da0 <stdio_out_chars_crlf.part.0+0x6c>
10003d98:	1a21      	subs	r1, r4, r0
10003d9a:	683b      	ldr	r3, [r7, #0]
10003d9c:	1828      	adds	r0, r5, r0
10003d9e:	4798      	blx	r3
10003da0:	4648      	mov	r0, r9
10003da2:	2102      	movs	r1, #2
10003da4:	683b      	ldr	r3, [r7, #0]
10003da6:	3401      	adds	r4, #1
10003da8:	4798      	blx	r3
10003daa:	0020      	movs	r0, r4
10003dac:	e7dd      	b.n	10003d6a <stdio_out_chars_crlf.part.0+0x36>
10003dae:	7c3b      	ldrb	r3, [r7, #16]
10003db0:	e7d7      	b.n	10003d62 <stdio_out_chars_crlf.part.0+0x2e>
10003db2:	46c0      	nop			; (mov r8, r8)
10003db4:	10004ea0 	.word	0x10004ea0

10003db8 <stdio_buffered_printer>:
10003db8:	b5f8      	push	{r3, r4, r5, r6, r7, lr}
10003dba:	4647      	mov	r7, r8
10003dbc:	46ce      	mov	lr, r9
10003dbe:	000c      	movs	r4, r1
10003dc0:	6809      	ldr	r1, [r1, #0]
10003dc2:	b580      	push	{r7, lr}
10003dc4:	0007      	movs	r7, r0
10003dc6:	2980      	cmp	r1, #128	; 0x80
10003dc8:	d007      	beq.n	10003dda <stdio_buffered_printer+0x22>
10003dca:	1c4b      	adds	r3, r1, #1
10003dcc:	6023      	str	r3, [r4, #0]
10003dce:	1864      	adds	r4, r4, r1
10003dd0:	7127      	strb	r7, [r4, #4]
10003dd2:	bc0c      	pop	{r2, r3}
10003dd4:	4690      	mov	r8, r2
10003dd6:	4699      	mov	r9, r3
10003dd8:	bdf8      	pop	{r3, r4, r5, r6, r7, pc}
10003dda:	4b13      	ldr	r3, [pc, #76]	; (10003e28 <stdio_buffered_printer+0x70>)
10003ddc:	681d      	ldr	r5, [r3, #0]
10003dde:	2d00      	cmp	r5, #0
10003de0:	d01b      	beq.n	10003e1a <stdio_buffered_printer+0x62>
10003de2:	4b12      	ldr	r3, [pc, #72]	; (10003e2c <stdio_buffered_printer+0x74>)
10003de4:	4698      	mov	r8, r3
10003de6:	1d23      	adds	r3, r4, #4
10003de8:	4699      	mov	r9, r3
10003dea:	e002      	b.n	10003df2 <stdio_buffered_printer+0x3a>
10003dec:	68ed      	ldr	r5, [r5, #12]
10003dee:	2d00      	cmp	r5, #0
10003df0:	d013      	beq.n	10003e1a <stdio_buffered_printer+0x62>
10003df2:	682e      	ldr	r6, [r5, #0]
10003df4:	2e00      	cmp	r6, #0
10003df6:	d0f9      	beq.n	10003dec <stdio_buffered_printer+0x34>
10003df8:	4643      	mov	r3, r8
10003dfa:	681b      	ldr	r3, [r3, #0]
10003dfc:	2b00      	cmp	r3, #0
10003dfe:	d001      	beq.n	10003e04 <stdio_buffered_printer+0x4c>
10003e00:	429d      	cmp	r5, r3
10003e02:	d1f3      	bne.n	10003dec <stdio_buffered_printer+0x34>
10003e04:	7c6b      	ldrb	r3, [r5, #17]
10003e06:	6822      	ldr	r2, [r4, #0]
10003e08:	2b00      	cmp	r3, #0
10003e0a:	d009      	beq.n	10003e20 <stdio_buffered_printer+0x68>
10003e0c:	0028      	movs	r0, r5
10003e0e:	4649      	mov	r1, r9
10003e10:	f7ff ff90 	bl	10003d34 <stdio_out_chars_crlf.part.0>
10003e14:	68ed      	ldr	r5, [r5, #12]
10003e16:	2d00      	cmp	r5, #0
10003e18:	d1eb      	bne.n	10003df2 <stdio_buffered_printer+0x3a>
10003e1a:	2301      	movs	r3, #1
10003e1c:	2100      	movs	r1, #0
10003e1e:	e7d5      	b.n	10003dcc <stdio_buffered_printer+0x14>
10003e20:	0011      	movs	r1, r2
10003e22:	4648      	mov	r0, r9
10003e24:	47b0      	blx	r6
10003e26:	e7e1      	b.n	10003dec <stdio_buffered_printer+0x34>
10003e28:	20000b58 	.word	0x20000b58
10003e2c:	20000b5c 	.word	0x20000b5c

10003e30 <stdio_put_string>:
10003e30:	b5f0      	push	{r4, r5, r6, r7, lr}
10003e32:	4657      	mov	r7, sl
10003e34:	4645      	mov	r5, r8
10003e36:	46de      	mov	lr, fp
10003e38:	464e      	mov	r6, r9
10003e3a:	23d0      	movs	r3, #208	; 0xd0
10003e3c:	b5e0      	push	{r5, r6, r7, lr}
10003e3e:	061b      	lsls	r3, r3, #24
10003e40:	681c      	ldr	r4, [r3, #0]
10003e42:	4b37      	ldr	r3, [pc, #220]	; (10003f20 <stdio_put_string+0xf0>)
10003e44:	b083      	sub	sp, #12
10003e46:	0007      	movs	r7, r0
10003e48:	000d      	movs	r5, r1
10003e4a:	0018      	movs	r0, r3
10003e4c:	a901      	add	r1, sp, #4
10003e4e:	4690      	mov	r8, r2
10003e50:	469a      	mov	sl, r3
10003e52:	f000 fe41 	bl	10004ad8 <__mutex_try_enter_veneer>
10003e56:	4681      	mov	r9, r0
10003e58:	2800      	cmp	r0, #0
10003e5a:	d107      	bne.n	10003e6c <stdio_put_string+0x3c>
10003e5c:	9b01      	ldr	r3, [sp, #4]
10003e5e:	429c      	cmp	r4, r3
10003e60:	d004      	beq.n	10003e6c <stdio_put_string+0x3c>
10003e62:	4650      	mov	r0, sl
10003e64:	f000 fe40 	bl	10004ae8 <__mutex_enter_blocking_veneer>
10003e68:	2301      	movs	r3, #1
10003e6a:	4699      	mov	r9, r3
10003e6c:	1c6b      	adds	r3, r5, #1
10003e6e:	d103      	bne.n	10003e78 <stdio_put_string+0x48>
10003e70:	0038      	movs	r0, r7
10003e72:	f000 fcab 	bl	100047cc <strlen>
10003e76:	0005      	movs	r5, r0
10003e78:	4b2a      	ldr	r3, [pc, #168]	; (10003f24 <stdio_put_string+0xf4>)
10003e7a:	681c      	ldr	r4, [r3, #0]
10003e7c:	2c00      	cmp	r4, #0
10003e7e:	d02f      	beq.n	10003ee0 <stdio_put_string+0xb0>
10003e80:	230a      	movs	r3, #10
10003e82:	4e29      	ldr	r6, [pc, #164]	; (10003f28 <stdio_put_string+0xf8>)
10003e84:	469b      	mov	fp, r3
10003e86:	e002      	b.n	10003e8e <stdio_put_string+0x5e>
10003e88:	68e4      	ldr	r4, [r4, #12]
10003e8a:	2c00      	cmp	r4, #0
10003e8c:	d028      	beq.n	10003ee0 <stdio_put_string+0xb0>
10003e8e:	6822      	ldr	r2, [r4, #0]
10003e90:	2a00      	cmp	r2, #0
10003e92:	d0f9      	beq.n	10003e88 <stdio_put_string+0x58>
10003e94:	6833      	ldr	r3, [r6, #0]
10003e96:	2b00      	cmp	r3, #0
10003e98:	d001      	beq.n	10003e9e <stdio_put_string+0x6e>
10003e9a:	42a3      	cmp	r3, r4
10003e9c:	d1f4      	bne.n	10003e88 <stdio_put_string+0x58>
10003e9e:	7c63      	ldrb	r3, [r4, #17]
10003ea0:	2b00      	cmp	r3, #0
10003ea2:	d02a      	beq.n	10003efa <stdio_put_string+0xca>
10003ea4:	002a      	movs	r2, r5
10003ea6:	0039      	movs	r1, r7
10003ea8:	0020      	movs	r0, r4
10003eaa:	f7ff ff43 	bl	10003d34 <stdio_out_chars_crlf.part.0>
10003eae:	4643      	mov	r3, r8
10003eb0:	2b00      	cmp	r3, #0
10003eb2:	d0e9      	beq.n	10003e88 <stdio_put_string+0x58>
10003eb4:	466b      	mov	r3, sp
10003eb6:	465a      	mov	r2, fp
10003eb8:	711a      	strb	r2, [r3, #4]
10003eba:	7c63      	ldrb	r3, [r4, #17]
10003ebc:	2b00      	cmp	r3, #0
10003ebe:	d020      	beq.n	10003f02 <stdio_put_string+0xd2>
10003ec0:	7c23      	ldrb	r3, [r4, #16]
10003ec2:	2b00      	cmp	r3, #0
10003ec4:	d026      	beq.n	10003f14 <stdio_put_string+0xe4>
10003ec6:	2101      	movs	r1, #1
10003ec8:	6823      	ldr	r3, [r4, #0]
10003eca:	a801      	add	r0, sp, #4
10003ecc:	4798      	blx	r3
10003ece:	466b      	mov	r3, sp
10003ed0:	791b      	ldrb	r3, [r3, #4]
10003ed2:	3b0d      	subs	r3, #13
10003ed4:	425a      	negs	r2, r3
10003ed6:	4153      	adcs	r3, r2
10003ed8:	7423      	strb	r3, [r4, #16]
10003eda:	68e4      	ldr	r4, [r4, #12]
10003edc:	2c00      	cmp	r4, #0
10003ede:	d1d6      	bne.n	10003e8e <stdio_put_string+0x5e>
10003ee0:	464b      	mov	r3, r9
10003ee2:	2b00      	cmp	r3, #0
10003ee4:	d112      	bne.n	10003f0c <stdio_put_string+0xdc>
10003ee6:	1e68      	subs	r0, r5, #1
10003ee8:	4185      	sbcs	r5, r0
10003eea:	b2e8      	uxtb	r0, r5
10003eec:	b003      	add	sp, #12
10003eee:	bc3c      	pop	{r2, r3, r4, r5}
10003ef0:	4690      	mov	r8, r2
10003ef2:	4699      	mov	r9, r3
10003ef4:	46a2      	mov	sl, r4
10003ef6:	46ab      	mov	fp, r5
10003ef8:	bdf0      	pop	{r4, r5, r6, r7, pc}
10003efa:	0029      	movs	r1, r5
10003efc:	0038      	movs	r0, r7
10003efe:	4790      	blx	r2
10003f00:	e7d5      	b.n	10003eae <stdio_put_string+0x7e>
10003f02:	2101      	movs	r1, #1
10003f04:	6823      	ldr	r3, [r4, #0]
10003f06:	a801      	add	r0, sp, #4
10003f08:	4798      	blx	r3
10003f0a:	e7bd      	b.n	10003e88 <stdio_put_string+0x58>
10003f0c:	4650      	mov	r0, sl
10003f0e:	f000 fdcb 	bl	10004aa8 <__mutex_exit_veneer>
10003f12:	e7e8      	b.n	10003ee6 <stdio_put_string+0xb6>
10003f14:	2102      	movs	r1, #2
10003f16:	4805      	ldr	r0, [pc, #20]	; (10003f2c <stdio_put_string+0xfc>)
10003f18:	6823      	ldr	r3, [r4, #0]
10003f1a:	4798      	blx	r3
10003f1c:	e7d7      	b.n	10003ece <stdio_put_string+0x9e>
10003f1e:	46c0      	nop			; (mov r8, r8)
10003f20:	20000ab0 	.word	0x20000ab0
10003f24:	20000b58 	.word	0x20000b58
10003f28:	20000b5c 	.word	0x20000b5c
10003f2c:	10004ea0 	.word	0x10004ea0

10003f30 <__wrap_putchar>:
10003f30:	b510      	push	{r4, lr}
10003f32:	b082      	sub	sp, #8
10003f34:	466b      	mov	r3, sp
10003f36:	0004      	movs	r4, r0
10003f38:	2200      	movs	r2, #0
10003f3a:	1dd8      	adds	r0, r3, #7
10003f3c:	2101      	movs	r1, #1
10003f3e:	7004      	strb	r4, [r0, #0]
10003f40:	f7ff ff76 	bl	10003e30 <stdio_put_string>
10003f44:	0020      	movs	r0, r4
10003f46:	b002      	add	sp, #8
10003f48:	bd10      	pop	{r4, pc}
10003f4a:	46c0      	nop			; (mov r8, r8)

10003f4c <__wrap_puts>:
10003f4c:	b570      	push	{r4, r5, r6, lr}
10003f4e:	0004      	movs	r4, r0
10003f50:	f000 fc3c 	bl	100047cc <strlen>
10003f54:	2201      	movs	r2, #1
10003f56:	0001      	movs	r1, r0
10003f58:	0005      	movs	r5, r0
10003f5a:	0020      	movs	r0, r4
10003f5c:	f7ff ff68 	bl	10003e30 <stdio_put_string>
10003f60:	4b08      	ldr	r3, [pc, #32]	; (10003f84 <__wrap_puts+0x38>)
10003f62:	681c      	ldr	r4, [r3, #0]
10003f64:	2c00      	cmp	r4, #0
10003f66:	d006      	beq.n	10003f76 <__wrap_puts+0x2a>
10003f68:	6863      	ldr	r3, [r4, #4]
10003f6a:	2b00      	cmp	r3, #0
10003f6c:	d005      	beq.n	10003f7a <__wrap_puts+0x2e>
10003f6e:	4798      	blx	r3
10003f70:	68e4      	ldr	r4, [r4, #12]
10003f72:	2c00      	cmp	r4, #0
10003f74:	d1f8      	bne.n	10003f68 <__wrap_puts+0x1c>
10003f76:	0028      	movs	r0, r5
10003f78:	bd70      	pop	{r4, r5, r6, pc}
10003f7a:	68e4      	ldr	r4, [r4, #12]
10003f7c:	2c00      	cmp	r4, #0
10003f7e:	d1f3      	bne.n	10003f68 <__wrap_puts+0x1c>
10003f80:	e7f9      	b.n	10003f76 <__wrap_puts+0x2a>
10003f82:	46c0      	nop			; (mov r8, r8)
10003f84:	20000b58 	.word	0x20000b58

10003f88 <stdio_set_driver_enabled>:
10003f88:	4a0d      	ldr	r2, [pc, #52]	; (10003fc0 <stdio_set_driver_enabled+0x38>)
10003f8a:	6813      	ldr	r3, [r2, #0]
10003f8c:	2b00      	cmp	r3, #0
10003f8e:	d013      	beq.n	10003fb8 <stdio_set_driver_enabled+0x30>
10003f90:	4283      	cmp	r3, r0
10003f92:	d102      	bne.n	10003f9a <stdio_set_driver_enabled+0x12>
10003f94:	e009      	b.n	10003faa <stdio_set_driver_enabled+0x22>
10003f96:	4298      	cmp	r0, r3
10003f98:	d008      	beq.n	10003fac <stdio_set_driver_enabled+0x24>
10003f9a:	001a      	movs	r2, r3
10003f9c:	68db      	ldr	r3, [r3, #12]
10003f9e:	2b00      	cmp	r3, #0
10003fa0:	d1f9      	bne.n	10003f96 <stdio_set_driver_enabled+0xe>
10003fa2:	2900      	cmp	r1, #0
10003fa4:	d000      	beq.n	10003fa8 <stdio_set_driver_enabled+0x20>
10003fa6:	60d0      	str	r0, [r2, #12]
10003fa8:	4770      	bx	lr
10003faa:	001a      	movs	r2, r3
10003fac:	2900      	cmp	r1, #0
10003fae:	d1fb      	bne.n	10003fa8 <stdio_set_driver_enabled+0x20>
10003fb0:	68db      	ldr	r3, [r3, #12]
10003fb2:	60d3      	str	r3, [r2, #12]
10003fb4:	60c1      	str	r1, [r0, #12]
10003fb6:	e7f7      	b.n	10003fa8 <stdio_set_driver_enabled+0x20>
10003fb8:	2900      	cmp	r1, #0
10003fba:	d0f5      	beq.n	10003fa8 <stdio_set_driver_enabled+0x20>
10003fbc:	6010      	str	r0, [r2, #0]
10003fbe:	e7f3      	b.n	10003fa8 <stdio_set_driver_enabled+0x20>
10003fc0:	20000b58 	.word	0x20000b58

10003fc4 <__wrap_vprintf>:
10003fc4:	b5f0      	push	{r4, r5, r6, r7, lr}
10003fc6:	4646      	mov	r6, r8
10003fc8:	46d6      	mov	lr, sl
10003fca:	464f      	mov	r7, r9
10003fcc:	23d0      	movs	r3, #208	; 0xd0
10003fce:	b5c0      	push	{r6, r7, lr}
10003fd0:	061b      	lsls	r3, r3, #24
10003fd2:	681f      	ldr	r7, [r3, #0]
10003fd4:	4b31      	ldr	r3, [pc, #196]	; (1000409c <__wrap_vprintf+0xd8>)
10003fd6:	b0a2      	sub	sp, #136	; 0x88
10003fd8:	0004      	movs	r4, r0
10003fda:	000d      	movs	r5, r1
10003fdc:	0018      	movs	r0, r3
10003fde:	a901      	add	r1, sp, #4
10003fe0:	4698      	mov	r8, r3
10003fe2:	f000 fd79 	bl	10004ad8 <__mutex_try_enter_veneer>
10003fe6:	1e06      	subs	r6, r0, #0
10003fe8:	d106      	bne.n	10003ff8 <__wrap_vprintf+0x34>
10003fea:	9b01      	ldr	r3, [sp, #4]
10003fec:	429f      	cmp	r7, r3
10003fee:	d003      	beq.n	10003ff8 <__wrap_vprintf+0x34>
10003ff0:	4640      	mov	r0, r8
10003ff2:	f000 fd79 	bl	10004ae8 <__mutex_enter_blocking_veneer>
10003ff6:	3601      	adds	r6, #1
10003ff8:	2284      	movs	r2, #132	; 0x84
10003ffa:	2100      	movs	r1, #0
10003ffc:	a801      	add	r0, sp, #4
10003ffe:	f7ff fe8d 	bl	10003d1c <__wrap_memset>
10004002:	002b      	movs	r3, r5
10004004:	0022      	movs	r2, r4
10004006:	4826      	ldr	r0, [pc, #152]	; (100040a0 <__wrap_vprintf+0xdc>)
10004008:	a901      	add	r1, sp, #4
1000400a:	f7fe feef 	bl	10002dec <vfctprintf>
1000400e:	9b01      	ldr	r3, [sp, #4]
10004010:	0007      	movs	r7, r0
10004012:	2b00      	cmp	r3, #0
10004014:	d115      	bne.n	10004042 <__wrap_vprintf+0x7e>
10004016:	4b23      	ldr	r3, [pc, #140]	; (100040a4 <__wrap_vprintf+0xe0>)
10004018:	681c      	ldr	r4, [r3, #0]
1000401a:	2c00      	cmp	r4, #0
1000401c:	d006      	beq.n	1000402c <__wrap_vprintf+0x68>
1000401e:	6863      	ldr	r3, [r4, #4]
10004020:	2b00      	cmp	r3, #0
10004022:	d00c      	beq.n	1000403e <__wrap_vprintf+0x7a>
10004024:	4798      	blx	r3
10004026:	68e4      	ldr	r4, [r4, #12]
10004028:	2c00      	cmp	r4, #0
1000402a:	d1f8      	bne.n	1000401e <__wrap_vprintf+0x5a>
1000402c:	2e00      	cmp	r6, #0
1000402e:	d12f      	bne.n	10004090 <__wrap_vprintf+0xcc>
10004030:	0038      	movs	r0, r7
10004032:	b022      	add	sp, #136	; 0x88
10004034:	bc1c      	pop	{r2, r3, r4}
10004036:	4690      	mov	r8, r2
10004038:	4699      	mov	r9, r3
1000403a:	46a2      	mov	sl, r4
1000403c:	bdf0      	pop	{r4, r5, r6, r7, pc}
1000403e:	68e4      	ldr	r4, [r4, #12]
10004040:	e7eb      	b.n	1000401a <__wrap_vprintf+0x56>
10004042:	4b18      	ldr	r3, [pc, #96]	; (100040a4 <__wrap_vprintf+0xe0>)
10004044:	681d      	ldr	r5, [r3, #0]
10004046:	469a      	mov	sl, r3
10004048:	2d00      	cmp	r5, #0
1000404a:	d025      	beq.n	10004098 <__wrap_vprintf+0xd4>
1000404c:	4b16      	ldr	r3, [pc, #88]	; (100040a8 <__wrap_vprintf+0xe4>)
1000404e:	4699      	mov	r9, r3
10004050:	e002      	b.n	10004058 <__wrap_vprintf+0x94>
10004052:	68ed      	ldr	r5, [r5, #12]
10004054:	2d00      	cmp	r5, #0
10004056:	d013      	beq.n	10004080 <__wrap_vprintf+0xbc>
10004058:	682c      	ldr	r4, [r5, #0]
1000405a:	2c00      	cmp	r4, #0
1000405c:	d0f9      	beq.n	10004052 <__wrap_vprintf+0x8e>
1000405e:	464b      	mov	r3, r9
10004060:	681b      	ldr	r3, [r3, #0]
10004062:	2b00      	cmp	r3, #0
10004064:	d001      	beq.n	1000406a <__wrap_vprintf+0xa6>
10004066:	429d      	cmp	r5, r3
10004068:	d1f3      	bne.n	10004052 <__wrap_vprintf+0x8e>
1000406a:	7c6b      	ldrb	r3, [r5, #17]
1000406c:	9a01      	ldr	r2, [sp, #4]
1000406e:	2b00      	cmp	r3, #0
10004070:	d00a      	beq.n	10004088 <__wrap_vprintf+0xc4>
10004072:	0028      	movs	r0, r5
10004074:	a902      	add	r1, sp, #8
10004076:	f7ff fe5d 	bl	10003d34 <stdio_out_chars_crlf.part.0>
1000407a:	68ed      	ldr	r5, [r5, #12]
1000407c:	2d00      	cmp	r5, #0
1000407e:	d1eb      	bne.n	10004058 <__wrap_vprintf+0x94>
10004080:	4653      	mov	r3, sl
10004082:	9501      	str	r5, [sp, #4]
10004084:	681c      	ldr	r4, [r3, #0]
10004086:	e7c8      	b.n	1000401a <__wrap_vprintf+0x56>
10004088:	0011      	movs	r1, r2
1000408a:	a802      	add	r0, sp, #8
1000408c:	47a0      	blx	r4
1000408e:	e7e0      	b.n	10004052 <__wrap_vprintf+0x8e>
10004090:	4640      	mov	r0, r8
10004092:	f000 fd09 	bl	10004aa8 <__mutex_exit_veneer>
10004096:	e7cb      	b.n	10004030 <__wrap_vprintf+0x6c>
10004098:	9501      	str	r5, [sp, #4]
1000409a:	e7c7      	b.n	1000402c <__wrap_vprintf+0x68>
1000409c:	20000ab0 	.word	0x20000ab0
100040a0:	10003db9 	.word	0x10003db9
100040a4:	20000b58 	.word	0x20000b58
100040a8:	20000b5c 	.word	0x20000b5c

100040ac <__wrap_printf>:
100040ac:	b40f      	push	{r0, r1, r2, r3}
100040ae:	b500      	push	{lr}
100040b0:	b083      	sub	sp, #12
100040b2:	a904      	add	r1, sp, #16
100040b4:	c901      	ldmia	r1!, {r0}
100040b6:	9101      	str	r1, [sp, #4]
100040b8:	f7ff ff84 	bl	10003fc4 <__wrap_vprintf>
100040bc:	b003      	add	sp, #12
100040be:	bc08      	pop	{r3}
100040c0:	b004      	add	sp, #16
100040c2:	4718      	bx	r3

100040c4 <stdio_init_all>:
100040c4:	b510      	push	{r4, lr}
100040c6:	f000 f83b 	bl	10004140 <stdio_uart_init>
100040ca:	bd10      	pop	{r4, pc}

100040cc <stdio_uart_out_chars>:
100040cc:	b5f0      	push	{r4, r5, r6, r7, lr}
100040ce:	2900      	cmp	r1, #0
100040d0:	d010      	beq.n	100040f4 <stdio_uart_out_chars+0x28>
100040d2:	1845      	adds	r5, r0, r1
100040d4:	270d      	movs	r7, #13
100040d6:	2120      	movs	r1, #32
100040d8:	4b09      	ldr	r3, [pc, #36]	; (10004100 <stdio_uart_out_chars+0x34>)
100040da:	4a0a      	ldr	r2, [pc, #40]	; (10004104 <stdio_uart_out_chars+0x38>)
100040dc:	2600      	movs	r6, #0
100040de:	5f9e      	ldrsh	r6, [r3, r6]
100040e0:	7804      	ldrb	r4, [r0, #0]
100040e2:	42a6      	cmp	r6, r4
100040e4:	d007      	beq.n	100040f6 <stdio_uart_out_chars+0x2a>
100040e6:	6993      	ldr	r3, [r2, #24]
100040e8:	4219      	tst	r1, r3
100040ea:	d1fc      	bne.n	100040e6 <stdio_uart_out_chars+0x1a>
100040ec:	3001      	adds	r0, #1
100040ee:	6014      	str	r4, [r2, #0]
100040f0:	42a8      	cmp	r0, r5
100040f2:	d1f5      	bne.n	100040e0 <stdio_uart_out_chars+0x14>
100040f4:	bdf0      	pop	{r4, r5, r6, r7, pc}
100040f6:	6993      	ldr	r3, [r2, #24]
100040f8:	4219      	tst	r1, r3
100040fa:	d1fc      	bne.n	100040f6 <stdio_uart_out_chars+0x2a>
100040fc:	6017      	str	r7, [r2, #0]
100040fe:	e7f2      	b.n	100040e6 <stdio_uart_out_chars+0x1a>
10004100:	20004b8c 	.word	0x20004b8c
10004104:	40034000 	.word	0x40034000

10004108 <stdio_uart_in_chars>:
10004108:	b530      	push	{r4, r5, lr}
1000410a:	0005      	movs	r5, r0
1000410c:	2000      	movs	r0, #0
1000410e:	2900      	cmp	r1, #0
10004110:	dd10      	ble.n	10004134 <stdio_uart_in_chars+0x2c>
10004112:	2410      	movs	r4, #16
10004114:	4a09      	ldr	r2, [pc, #36]	; (1000413c <stdio_uart_in_chars+0x34>)
10004116:	3d01      	subs	r5, #1
10004118:	6993      	ldr	r3, [r2, #24]
1000411a:	421c      	tst	r4, r3
1000411c:	d108      	bne.n	10004130 <stdio_uart_in_chars+0x28>
1000411e:	3001      	adds	r0, #1
10004120:	6993      	ldr	r3, [r2, #24]
10004122:	421c      	tst	r4, r3
10004124:	d1fc      	bne.n	10004120 <stdio_uart_in_chars+0x18>
10004126:	6813      	ldr	r3, [r2, #0]
10004128:	542b      	strb	r3, [r5, r0]
1000412a:	4281      	cmp	r1, r0
1000412c:	d1f4      	bne.n	10004118 <stdio_uart_in_chars+0x10>
1000412e:	bd30      	pop	{r4, r5, pc}
10004130:	2800      	cmp	r0, #0
10004132:	d1fc      	bne.n	1000412e <stdio_uart_in_chars+0x26>
10004134:	2003      	movs	r0, #3
10004136:	4240      	negs	r0, r0
10004138:	e7f9      	b.n	1000412e <stdio_uart_in_chars+0x26>
1000413a:	46c0      	nop			; (mov r8, r8)
1000413c:	40034000 	.word	0x40034000

10004140 <stdio_uart_init>:
10004140:	21e1      	movs	r1, #225	; 0xe1
10004142:	b510      	push	{r4, lr}
10004144:	4b0a      	ldr	r3, [pc, #40]	; (10004170 <stdio_uart_init+0x30>)
10004146:	0249      	lsls	r1, r1, #9
10004148:	781b      	ldrb	r3, [r3, #0]
1000414a:	4b0a      	ldr	r3, [pc, #40]	; (10004174 <stdio_uart_init+0x34>)
1000414c:	480a      	ldr	r0, [pc, #40]	; (10004178 <stdio_uart_init+0x38>)
1000414e:	781b      	ldrb	r3, [r3, #0]
10004150:	f7fc f9a8 	bl	100004a4 <uart_init>
10004154:	2102      	movs	r1, #2
10004156:	2000      	movs	r0, #0
10004158:	f7fc f93a 	bl	100003d0 <gpio_set_function>
1000415c:	2102      	movs	r1, #2
1000415e:	2001      	movs	r0, #1
10004160:	f7fc f936 	bl	100003d0 <gpio_set_function>
10004164:	2101      	movs	r1, #1
10004166:	4805      	ldr	r0, [pc, #20]	; (1000417c <stdio_uart_init+0x3c>)
10004168:	f7ff ff0e 	bl	10003f88 <stdio_set_driver_enabled>
1000416c:	bd10      	pop	{r4, pc}
1000416e:	46c0      	nop			; (mov r8, r8)
10004170:	10004f00 	.word	0x10004f00
10004174:	10004f04 	.word	0x10004f04
10004178:	40034000 	.word	0x40034000
1000417c:	20000260 	.word	0x20000260

10004180 <calloc>:
10004180:	0003      	movs	r3, r0
10004182:	b510      	push	{r4, lr}
10004184:	000a      	movs	r2, r1
10004186:	4903      	ldr	r1, [pc, #12]	; (10004194 <calloc+0x14>)
10004188:	6808      	ldr	r0, [r1, #0]
1000418a:	0019      	movs	r1, r3
1000418c:	f000 f804 	bl	10004198 <_calloc_r>
10004190:	bd10      	pop	{r4, pc}
10004192:	46c0      	nop			; (mov r8, r8)
10004194:	20000274 	.word	0x20000274

10004198 <_calloc_r>:
10004198:	b510      	push	{r4, lr}
1000419a:	4351      	muls	r1, r2
1000419c:	f000 f834 	bl	10004208 <_malloc_r>
100041a0:	1e04      	subs	r4, r0, #0
100041a2:	d00e      	beq.n	100041c2 <_calloc_r+0x2a>
100041a4:	0003      	movs	r3, r0
100041a6:	3b08      	subs	r3, #8
100041a8:	685a      	ldr	r2, [r3, #4]
100041aa:	2303      	movs	r3, #3
100041ac:	439a      	bics	r2, r3
100041ae:	3a04      	subs	r2, #4
100041b0:	2a24      	cmp	r2, #36	; 0x24
100041b2:	d815      	bhi.n	100041e0 <_calloc_r+0x48>
100041b4:	0003      	movs	r3, r0
100041b6:	2a13      	cmp	r2, #19
100041b8:	d805      	bhi.n	100041c6 <_calloc_r+0x2e>
100041ba:	2200      	movs	r2, #0
100041bc:	601a      	str	r2, [r3, #0]
100041be:	605a      	str	r2, [r3, #4]
100041c0:	609a      	str	r2, [r3, #8]
100041c2:	0020      	movs	r0, r4
100041c4:	bd10      	pop	{r4, pc}
100041c6:	2100      	movs	r1, #0
100041c8:	3308      	adds	r3, #8
100041ca:	6001      	str	r1, [r0, #0]
100041cc:	6041      	str	r1, [r0, #4]
100041ce:	2a1b      	cmp	r2, #27
100041d0:	d9f3      	bls.n	100041ba <_calloc_r+0x22>
100041d2:	6081      	str	r1, [r0, #8]
100041d4:	60c1      	str	r1, [r0, #12]
100041d6:	2a24      	cmp	r2, #36	; 0x24
100041d8:	d006      	beq.n	100041e8 <_calloc_r+0x50>
100041da:	0003      	movs	r3, r0
100041dc:	3310      	adds	r3, #16
100041de:	e7ec      	b.n	100041ba <_calloc_r+0x22>
100041e0:	2100      	movs	r1, #0
100041e2:	f7ff fd9b 	bl	10003d1c <__wrap_memset>
100041e6:	e7ec      	b.n	100041c2 <_calloc_r+0x2a>
100041e8:	0003      	movs	r3, r0
100041ea:	6101      	str	r1, [r0, #16]
100041ec:	3318      	adds	r3, #24
100041ee:	6141      	str	r1, [r0, #20]
100041f0:	e7e3      	b.n	100041ba <_calloc_r+0x22>
100041f2:	46c0      	nop			; (mov r8, r8)

100041f4 <malloc>:
100041f4:	b510      	push	{r4, lr}
100041f6:	4b03      	ldr	r3, [pc, #12]	; (10004204 <malloc+0x10>)
100041f8:	0001      	movs	r1, r0
100041fa:	6818      	ldr	r0, [r3, #0]
100041fc:	f000 f804 	bl	10004208 <_malloc_r>
10004200:	bd10      	pop	{r4, pc}
10004202:	46c0      	nop			; (mov r8, r8)
10004204:	20000274 	.word	0x20000274

10004208 <_malloc_r>:
10004208:	b5f0      	push	{r4, r5, r6, r7, lr}
1000420a:	464e      	mov	r6, r9
1000420c:	4645      	mov	r5, r8
1000420e:	46de      	mov	lr, fp
10004210:	4657      	mov	r7, sl
10004212:	b5e0      	push	{r5, r6, r7, lr}
10004214:	000d      	movs	r5, r1
10004216:	350b      	adds	r5, #11
10004218:	0006      	movs	r6, r0
1000421a:	b083      	sub	sp, #12
1000421c:	2d16      	cmp	r5, #22
1000421e:	d822      	bhi.n	10004266 <_malloc_r+0x5e>
10004220:	2910      	cmp	r1, #16
10004222:	d900      	bls.n	10004226 <_malloc_r+0x1e>
10004224:	e0b2      	b.n	1000438c <_malloc_r+0x184>
10004226:	f000 faaf 	bl	10004788 <__malloc_lock>
1000422a:	2510      	movs	r5, #16
1000422c:	2002      	movs	r0, #2
1000422e:	2318      	movs	r3, #24
10004230:	4fcb      	ldr	r7, [pc, #812]	; (10004560 <_malloc_r+0x358>)
10004232:	18fb      	adds	r3, r7, r3
10004234:	001a      	movs	r2, r3
10004236:	685c      	ldr	r4, [r3, #4]
10004238:	3a08      	subs	r2, #8
1000423a:	4294      	cmp	r4, r2
1000423c:	d100      	bne.n	10004240 <_malloc_r+0x38>
1000423e:	e0b5      	b.n	100043ac <_malloc_r+0x1a4>
10004240:	2303      	movs	r3, #3
10004242:	6862      	ldr	r2, [r4, #4]
10004244:	439a      	bics	r2, r3
10004246:	0013      	movs	r3, r2
10004248:	68e2      	ldr	r2, [r4, #12]
1000424a:	68a1      	ldr	r1, [r4, #8]
1000424c:	60ca      	str	r2, [r1, #12]
1000424e:	6091      	str	r1, [r2, #8]
10004250:	2201      	movs	r2, #1
10004252:	18e3      	adds	r3, r4, r3
10004254:	6859      	ldr	r1, [r3, #4]
10004256:	0030      	movs	r0, r6
10004258:	430a      	orrs	r2, r1
1000425a:	605a      	str	r2, [r3, #4]
1000425c:	f000 fa9c 	bl	10004798 <__malloc_unlock>
10004260:	0020      	movs	r0, r4
10004262:	3008      	adds	r0, #8
10004264:	e095      	b.n	10004392 <_malloc_r+0x18a>
10004266:	2307      	movs	r3, #7
10004268:	439d      	bics	r5, r3
1000426a:	d500      	bpl.n	1000426e <_malloc_r+0x66>
1000426c:	e08e      	b.n	1000438c <_malloc_r+0x184>
1000426e:	42a9      	cmp	r1, r5
10004270:	d900      	bls.n	10004274 <_malloc_r+0x6c>
10004272:	e08b      	b.n	1000438c <_malloc_r+0x184>
10004274:	f000 fa88 	bl	10004788 <__malloc_lock>
10004278:	23fc      	movs	r3, #252	; 0xfc
1000427a:	005b      	lsls	r3, r3, #1
1000427c:	429d      	cmp	r5, r3
1000427e:	d200      	bcs.n	10004282 <_malloc_r+0x7a>
10004280:	e1a5      	b.n	100045ce <_malloc_r+0x3c6>
10004282:	0a68      	lsrs	r0, r5, #9
10004284:	d100      	bne.n	10004288 <_malloc_r+0x80>
10004286:	e08b      	b.n	100043a0 <_malloc_r+0x198>
10004288:	2804      	cmp	r0, #4
1000428a:	d900      	bls.n	1000428e <_malloc_r+0x86>
1000428c:	e178      	b.n	10004580 <_malloc_r+0x378>
1000428e:	2338      	movs	r3, #56	; 0x38
10004290:	4698      	mov	r8, r3
10004292:	09a8      	lsrs	r0, r5, #6
10004294:	4480      	add	r8, r0
10004296:	3039      	adds	r0, #57	; 0x39
10004298:	00c1      	lsls	r1, r0, #3
1000429a:	4fb1      	ldr	r7, [pc, #708]	; (10004560 <_malloc_r+0x358>)
1000429c:	1879      	adds	r1, r7, r1
1000429e:	684c      	ldr	r4, [r1, #4]
100042a0:	3908      	subs	r1, #8
100042a2:	42a1      	cmp	r1, r4
100042a4:	d00e      	beq.n	100042c4 <_malloc_r+0xbc>
100042a6:	2303      	movs	r3, #3
100042a8:	469c      	mov	ip, r3
100042aa:	e004      	b.n	100042b6 <_malloc_r+0xae>
100042ac:	2a00      	cmp	r2, #0
100042ae:	dacb      	bge.n	10004248 <_malloc_r+0x40>
100042b0:	68e4      	ldr	r4, [r4, #12]
100042b2:	42a1      	cmp	r1, r4
100042b4:	d006      	beq.n	100042c4 <_malloc_r+0xbc>
100042b6:	4662      	mov	r2, ip
100042b8:	6863      	ldr	r3, [r4, #4]
100042ba:	4393      	bics	r3, r2
100042bc:	1b5a      	subs	r2, r3, r5
100042be:	2a0f      	cmp	r2, #15
100042c0:	ddf4      	ble.n	100042ac <_malloc_r+0xa4>
100042c2:	4640      	mov	r0, r8
100042c4:	003a      	movs	r2, r7
100042c6:	693c      	ldr	r4, [r7, #16]
100042c8:	3208      	adds	r2, #8
100042ca:	4294      	cmp	r4, r2
100042cc:	d100      	bne.n	100042d0 <_malloc_r+0xc8>
100042ce:	e078      	b.n	100043c2 <_malloc_r+0x1ba>
100042d0:	2303      	movs	r3, #3
100042d2:	6861      	ldr	r1, [r4, #4]
100042d4:	4399      	bics	r1, r3
100042d6:	4689      	mov	r9, r1
100042d8:	000b      	movs	r3, r1
100042da:	1b49      	subs	r1, r1, r5
100042dc:	290f      	cmp	r1, #15
100042de:	dd00      	ble.n	100042e2 <_malloc_r+0xda>
100042e0:	e179      	b.n	100045d6 <_malloc_r+0x3ce>
100042e2:	617a      	str	r2, [r7, #20]
100042e4:	613a      	str	r2, [r7, #16]
100042e6:	2900      	cmp	r1, #0
100042e8:	dab2      	bge.n	10004250 <_malloc_r+0x48>
100042ea:	2280      	movs	r2, #128	; 0x80
100042ec:	0092      	lsls	r2, r2, #2
100042ee:	4591      	cmp	r9, r2
100042f0:	d300      	bcc.n	100042f4 <_malloc_r+0xec>
100042f2:	e10e      	b.n	10004512 <_malloc_r+0x30a>
100042f4:	0959      	lsrs	r1, r3, #5
100042f6:	08da      	lsrs	r2, r3, #3
100042f8:	2301      	movs	r3, #1
100042fa:	408b      	lsls	r3, r1
100042fc:	00d2      	lsls	r2, r2, #3
100042fe:	6879      	ldr	r1, [r7, #4]
10004300:	19d2      	adds	r2, r2, r7
10004302:	430b      	orrs	r3, r1
10004304:	6891      	ldr	r1, [r2, #8]
10004306:	607b      	str	r3, [r7, #4]
10004308:	60e2      	str	r2, [r4, #12]
1000430a:	60a1      	str	r1, [r4, #8]
1000430c:	6094      	str	r4, [r2, #8]
1000430e:	60cc      	str	r4, [r1, #12]
10004310:	2101      	movs	r1, #1
10004312:	1082      	asrs	r2, r0, #2
10004314:	4091      	lsls	r1, r2
10004316:	4299      	cmp	r1, r3
10004318:	d859      	bhi.n	100043ce <_malloc_r+0x1c6>
1000431a:	420b      	tst	r3, r1
1000431c:	d105      	bne.n	1000432a <_malloc_r+0x122>
1000431e:	2203      	movs	r2, #3
10004320:	4390      	bics	r0, r2
10004322:	0049      	lsls	r1, r1, #1
10004324:	3004      	adds	r0, #4
10004326:	420b      	tst	r3, r1
10004328:	d0fb      	beq.n	10004322 <_malloc_r+0x11a>
1000432a:	2303      	movs	r3, #3
1000432c:	4698      	mov	r8, r3
1000432e:	00c3      	lsls	r3, r0, #3
10004330:	4699      	mov	r9, r3
10004332:	44b9      	add	r9, r7
10004334:	46cc      	mov	ip, r9
10004336:	4682      	mov	sl, r0
10004338:	4663      	mov	r3, ip
1000433a:	68dc      	ldr	r4, [r3, #12]
1000433c:	45a4      	cmp	ip, r4
1000433e:	d107      	bne.n	10004350 <_malloc_r+0x148>
10004340:	e12a      	b.n	10004598 <_malloc_r+0x390>
10004342:	2a00      	cmp	r2, #0
10004344:	db00      	blt.n	10004348 <_malloc_r+0x140>
10004346:	e133      	b.n	100045b0 <_malloc_r+0x3a8>
10004348:	68e4      	ldr	r4, [r4, #12]
1000434a:	45a4      	cmp	ip, r4
1000434c:	d100      	bne.n	10004350 <_malloc_r+0x148>
1000434e:	e123      	b.n	10004598 <_malloc_r+0x390>
10004350:	4642      	mov	r2, r8
10004352:	6863      	ldr	r3, [r4, #4]
10004354:	4393      	bics	r3, r2
10004356:	1b5a      	subs	r2, r3, r5
10004358:	2a0f      	cmp	r2, #15
1000435a:	ddf2      	ble.n	10004342 <_malloc_r+0x13a>
1000435c:	2001      	movs	r0, #1
1000435e:	4680      	mov	r8, r0
10004360:	1961      	adds	r1, r4, r5
10004362:	4305      	orrs	r5, r0
10004364:	6065      	str	r5, [r4, #4]
10004366:	68a0      	ldr	r0, [r4, #8]
10004368:	68e5      	ldr	r5, [r4, #12]
1000436a:	3708      	adds	r7, #8
1000436c:	60c5      	str	r5, [r0, #12]
1000436e:	60a8      	str	r0, [r5, #8]
10004370:	4640      	mov	r0, r8
10004372:	4310      	orrs	r0, r2
10004374:	60f9      	str	r1, [r7, #12]
10004376:	60b9      	str	r1, [r7, #8]
10004378:	6048      	str	r0, [r1, #4]
1000437a:	60cf      	str	r7, [r1, #12]
1000437c:	0030      	movs	r0, r6
1000437e:	608f      	str	r7, [r1, #8]
10004380:	50e2      	str	r2, [r4, r3]
10004382:	f000 fa09 	bl	10004798 <__malloc_unlock>
10004386:	0020      	movs	r0, r4
10004388:	3008      	adds	r0, #8
1000438a:	e002      	b.n	10004392 <_malloc_r+0x18a>
1000438c:	230c      	movs	r3, #12
1000438e:	2000      	movs	r0, #0
10004390:	6033      	str	r3, [r6, #0]
10004392:	b003      	add	sp, #12
10004394:	bc3c      	pop	{r2, r3, r4, r5}
10004396:	4690      	mov	r8, r2
10004398:	4699      	mov	r9, r3
1000439a:	46a2      	mov	sl, r4
1000439c:	46ab      	mov	fp, r5
1000439e:	bdf0      	pop	{r4, r5, r6, r7, pc}
100043a0:	2180      	movs	r1, #128	; 0x80
100043a2:	233f      	movs	r3, #63	; 0x3f
100043a4:	2040      	movs	r0, #64	; 0x40
100043a6:	4698      	mov	r8, r3
100043a8:	0089      	lsls	r1, r1, #2
100043aa:	e776      	b.n	1000429a <_malloc_r+0x92>
100043ac:	68dc      	ldr	r4, [r3, #12]
100043ae:	3002      	adds	r0, #2
100043b0:	42a3      	cmp	r3, r4
100043b2:	d000      	beq.n	100043b6 <_malloc_r+0x1ae>
100043b4:	e744      	b.n	10004240 <_malloc_r+0x38>
100043b6:	003a      	movs	r2, r7
100043b8:	693c      	ldr	r4, [r7, #16]
100043ba:	3208      	adds	r2, #8
100043bc:	4294      	cmp	r4, r2
100043be:	d000      	beq.n	100043c2 <_malloc_r+0x1ba>
100043c0:	e786      	b.n	100042d0 <_malloc_r+0xc8>
100043c2:	2101      	movs	r1, #1
100043c4:	687b      	ldr	r3, [r7, #4]
100043c6:	1082      	asrs	r2, r0, #2
100043c8:	4091      	lsls	r1, r2
100043ca:	4299      	cmp	r1, r3
100043cc:	d9a5      	bls.n	1000431a <_malloc_r+0x112>
100043ce:	2303      	movs	r3, #3
100043d0:	68bc      	ldr	r4, [r7, #8]
100043d2:	6862      	ldr	r2, [r4, #4]
100043d4:	439a      	bics	r2, r3
100043d6:	4691      	mov	r9, r2
100043d8:	4295      	cmp	r5, r2
100043da:	d803      	bhi.n	100043e4 <_malloc_r+0x1dc>
100043dc:	1b53      	subs	r3, r2, r5
100043de:	2b0f      	cmp	r3, #15
100043e0:	dd00      	ble.n	100043e4 <_malloc_r+0x1dc>
100043e2:	e088      	b.n	100044f6 <_malloc_r+0x2ee>
100043e4:	0023      	movs	r3, r4
100043e6:	444b      	add	r3, r9
100043e8:	4a5e      	ldr	r2, [pc, #376]	; (10004564 <_malloc_r+0x35c>)
100043ea:	9301      	str	r3, [sp, #4]
100043ec:	4b5e      	ldr	r3, [pc, #376]	; (10004568 <_malloc_r+0x360>)
100043ee:	4693      	mov	fp, r2
100043f0:	681b      	ldr	r3, [r3, #0]
100043f2:	6812      	ldr	r2, [r2, #0]
100043f4:	18eb      	adds	r3, r5, r3
100043f6:	3201      	adds	r2, #1
100043f8:	d100      	bne.n	100043fc <_malloc_r+0x1f4>
100043fa:	e13b      	b.n	10004674 <_malloc_r+0x46c>
100043fc:	4a5b      	ldr	r2, [pc, #364]	; (1000456c <_malloc_r+0x364>)
100043fe:	4694      	mov	ip, r2
10004400:	4463      	add	r3, ip
10004402:	0b1b      	lsrs	r3, r3, #12
10004404:	031b      	lsls	r3, r3, #12
10004406:	9300      	str	r3, [sp, #0]
10004408:	0030      	movs	r0, r6
1000440a:	9900      	ldr	r1, [sp, #0]
1000440c:	f000 f9cc 	bl	100047a8 <_sbrk_r>
10004410:	0003      	movs	r3, r0
10004412:	4680      	mov	r8, r0
10004414:	3301      	adds	r3, #1
10004416:	d100      	bne.n	1000441a <_malloc_r+0x212>
10004418:	e0f8      	b.n	1000460c <_malloc_r+0x404>
1000441a:	9b01      	ldr	r3, [sp, #4]
1000441c:	4283      	cmp	r3, r0
1000441e:	d900      	bls.n	10004422 <_malloc_r+0x21a>
10004420:	e0f2      	b.n	10004608 <_malloc_r+0x400>
10004422:	4b53      	ldr	r3, [pc, #332]	; (10004570 <_malloc_r+0x368>)
10004424:	0019      	movs	r1, r3
10004426:	469a      	mov	sl, r3
10004428:	6809      	ldr	r1, [r1, #0]
1000442a:	9b00      	ldr	r3, [sp, #0]
1000442c:	468c      	mov	ip, r1
1000442e:	4651      	mov	r1, sl
10004430:	4463      	add	r3, ip
10004432:	600b      	str	r3, [r1, #0]
10004434:	9901      	ldr	r1, [sp, #4]
10004436:	001a      	movs	r2, r3
10004438:	4281      	cmp	r1, r0
1000443a:	d100      	bne.n	1000443e <_malloc_r+0x236>
1000443c:	e150      	b.n	100046e0 <_malloc_r+0x4d8>
1000443e:	465b      	mov	r3, fp
10004440:	681b      	ldr	r3, [r3, #0]
10004442:	3301      	adds	r3, #1
10004444:	d100      	bne.n	10004448 <_malloc_r+0x240>
10004446:	e155      	b.n	100046f4 <_malloc_r+0x4ec>
10004448:	4643      	mov	r3, r8
1000444a:	9901      	ldr	r1, [sp, #4]
1000444c:	1a5b      	subs	r3, r3, r1
1000444e:	189a      	adds	r2, r3, r2
10004450:	4653      	mov	r3, sl
10004452:	601a      	str	r2, [r3, #0]
10004454:	2307      	movs	r3, #7
10004456:	4642      	mov	r2, r8
10004458:	4641      	mov	r1, r8
1000445a:	401a      	ands	r2, r3
1000445c:	9201      	str	r2, [sp, #4]
1000445e:	4219      	tst	r1, r3
10004460:	d100      	bne.n	10004464 <_malloc_r+0x25c>
10004462:	e111      	b.n	10004688 <_malloc_r+0x480>
10004464:	2308      	movs	r3, #8
10004466:	4698      	mov	r8, r3
10004468:	1a88      	subs	r0, r1, r2
1000446a:	4b42      	ldr	r3, [pc, #264]	; (10004574 <_malloc_r+0x36c>)
1000446c:	9900      	ldr	r1, [sp, #0]
1000446e:	4480      	add	r8, r0
10004470:	4441      	add	r1, r8
10004472:	1a9b      	subs	r3, r3, r2
10004474:	1a5b      	subs	r3, r3, r1
10004476:	051b      	lsls	r3, r3, #20
10004478:	0d1b      	lsrs	r3, r3, #20
1000447a:	9100      	str	r1, [sp, #0]
1000447c:	0030      	movs	r0, r6
1000447e:	0019      	movs	r1, r3
10004480:	469b      	mov	fp, r3
10004482:	f000 f991 	bl	100047a8 <_sbrk_r>
10004486:	1c43      	adds	r3, r0, #1
10004488:	d100      	bne.n	1000448c <_malloc_r+0x284>
1000448a:	e14f      	b.n	1000472c <_malloc_r+0x524>
1000448c:	4643      	mov	r3, r8
1000448e:	1ac0      	subs	r0, r0, r3
10004490:	0003      	movs	r3, r0
10004492:	445b      	add	r3, fp
10004494:	9300      	str	r3, [sp, #0]
10004496:	4653      	mov	r3, sl
10004498:	4652      	mov	r2, sl
1000449a:	681b      	ldr	r3, [r3, #0]
1000449c:	2101      	movs	r1, #1
1000449e:	445b      	add	r3, fp
100044a0:	6013      	str	r3, [r2, #0]
100044a2:	4642      	mov	r2, r8
100044a4:	4640      	mov	r0, r8
100044a6:	60ba      	str	r2, [r7, #8]
100044a8:	9a00      	ldr	r2, [sp, #0]
100044aa:	430a      	orrs	r2, r1
100044ac:	6042      	str	r2, [r0, #4]
100044ae:	42bc      	cmp	r4, r7
100044b0:	d100      	bne.n	100044b4 <_malloc_r+0x2ac>
100044b2:	e123      	b.n	100046fc <_malloc_r+0x4f4>
100044b4:	464a      	mov	r2, r9
100044b6:	2a0f      	cmp	r2, #15
100044b8:	d800      	bhi.n	100044bc <_malloc_r+0x2b4>
100044ba:	e121      	b.n	10004700 <_malloc_r+0x4f8>
100044bc:	2007      	movs	r0, #7
100044be:	3a0c      	subs	r2, #12
100044c0:	4382      	bics	r2, r0
100044c2:	6860      	ldr	r0, [r4, #4]
100044c4:	4001      	ands	r1, r0
100044c6:	2005      	movs	r0, #5
100044c8:	4311      	orrs	r1, r2
100044ca:	6061      	str	r1, [r4, #4]
100044cc:	18a1      	adds	r1, r4, r2
100044ce:	6048      	str	r0, [r1, #4]
100044d0:	6088      	str	r0, [r1, #8]
100044d2:	2a0f      	cmp	r2, #15
100044d4:	d900      	bls.n	100044d8 <_malloc_r+0x2d0>
100044d6:	e134      	b.n	10004742 <_malloc_r+0x53a>
100044d8:	4642      	mov	r2, r8
100044da:	4644      	mov	r4, r8
100044dc:	6852      	ldr	r2, [r2, #4]
100044de:	4926      	ldr	r1, [pc, #152]	; (10004578 <_malloc_r+0x370>)
100044e0:	6808      	ldr	r0, [r1, #0]
100044e2:	4298      	cmp	r0, r3
100044e4:	d200      	bcs.n	100044e8 <_malloc_r+0x2e0>
100044e6:	600b      	str	r3, [r1, #0]
100044e8:	4924      	ldr	r1, [pc, #144]	; (1000457c <_malloc_r+0x374>)
100044ea:	6808      	ldr	r0, [r1, #0]
100044ec:	4298      	cmp	r0, r3
100044ee:	d300      	bcc.n	100044f2 <_malloc_r+0x2ea>
100044f0:	e08e      	b.n	10004610 <_malloc_r+0x408>
100044f2:	600b      	str	r3, [r1, #0]
100044f4:	e08c      	b.n	10004610 <_malloc_r+0x408>
100044f6:	2201      	movs	r2, #1
100044f8:	0029      	movs	r1, r5
100044fa:	4313      	orrs	r3, r2
100044fc:	4311      	orrs	r1, r2
100044fe:	1965      	adds	r5, r4, r5
10004500:	6061      	str	r1, [r4, #4]
10004502:	0030      	movs	r0, r6
10004504:	60bd      	str	r5, [r7, #8]
10004506:	606b      	str	r3, [r5, #4]
10004508:	f000 f946 	bl	10004798 <__malloc_unlock>
1000450c:	0020      	movs	r0, r4
1000450e:	3008      	adds	r0, #8
10004510:	e73f      	b.n	10004392 <_malloc_r+0x18a>
10004512:	0a5a      	lsrs	r2, r3, #9
10004514:	2a04      	cmp	r2, #4
10004516:	d971      	bls.n	100045fc <_malloc_r+0x3f4>
10004518:	2a14      	cmp	r2, #20
1000451a:	d900      	bls.n	1000451e <_malloc_r+0x316>
1000451c:	e0c4      	b.n	100046a8 <_malloc_r+0x4a0>
1000451e:	0011      	movs	r1, r2
10004520:	325c      	adds	r2, #92	; 0x5c
10004522:	315b      	adds	r1, #91	; 0x5b
10004524:	00d2      	lsls	r2, r2, #3
10004526:	2308      	movs	r3, #8
10004528:	425b      	negs	r3, r3
1000452a:	469c      	mov	ip, r3
1000452c:	18ba      	adds	r2, r7, r2
1000452e:	4494      	add	ip, r2
10004530:	4663      	mov	r3, ip
10004532:	689a      	ldr	r2, [r3, #8]
10004534:	2303      	movs	r3, #3
10004536:	4698      	mov	r8, r3
10004538:	4594      	cmp	ip, r2
1000453a:	d100      	bne.n	1000453e <_malloc_r+0x336>
1000453c:	e09d      	b.n	1000467a <_malloc_r+0x472>
1000453e:	4643      	mov	r3, r8
10004540:	6851      	ldr	r1, [r2, #4]
10004542:	4399      	bics	r1, r3
10004544:	4549      	cmp	r1, r9
10004546:	d902      	bls.n	1000454e <_malloc_r+0x346>
10004548:	6892      	ldr	r2, [r2, #8]
1000454a:	4594      	cmp	ip, r2
1000454c:	d1f7      	bne.n	1000453e <_malloc_r+0x336>
1000454e:	68d3      	ldr	r3, [r2, #12]
10004550:	469c      	mov	ip, r3
10004552:	687b      	ldr	r3, [r7, #4]
10004554:	4661      	mov	r1, ip
10004556:	60a2      	str	r2, [r4, #8]
10004558:	60e1      	str	r1, [r4, #12]
1000455a:	608c      	str	r4, [r1, #8]
1000455c:	60d4      	str	r4, [r2, #12]
1000455e:	e6d7      	b.n	10004310 <_malloc_r+0x108>
10004560:	200006a0 	.word	0x200006a0
10004564:	20000aa8 	.word	0x20000aa8
10004568:	20000b18 	.word	0x20000b18
1000456c:	0000100f 	.word	0x0000100f
10004570:	20000ae8 	.word	0x20000ae8
10004574:	00001008 	.word	0x00001008
10004578:	20000b10 	.word	0x20000b10
1000457c:	20000b14 	.word	0x20000b14
10004580:	2814      	cmp	r0, #20
10004582:	d952      	bls.n	1000462a <_malloc_r+0x422>
10004584:	2854      	cmp	r0, #84	; 0x54
10004586:	d900      	bls.n	1000458a <_malloc_r+0x382>
10004588:	e096      	b.n	100046b8 <_malloc_r+0x4b0>
1000458a:	236e      	movs	r3, #110	; 0x6e
1000458c:	4698      	mov	r8, r3
1000458e:	0b28      	lsrs	r0, r5, #12
10004590:	4480      	add	r8, r0
10004592:	306f      	adds	r0, #111	; 0x6f
10004594:	00c1      	lsls	r1, r0, #3
10004596:	e680      	b.n	1000429a <_malloc_r+0x92>
10004598:	2308      	movs	r3, #8
1000459a:	469b      	mov	fp, r3
1000459c:	3b07      	subs	r3, #7
1000459e:	44dc      	add	ip, fp
100045a0:	469b      	mov	fp, r3
100045a2:	44da      	add	sl, fp
100045a4:	4643      	mov	r3, r8
100045a6:	4652      	mov	r2, sl
100045a8:	4213      	tst	r3, r2
100045aa:	d000      	beq.n	100045ae <_malloc_r+0x3a6>
100045ac:	e6c4      	b.n	10004338 <_malloc_r+0x130>
100045ae:	e04c      	b.n	1000464a <_malloc_r+0x442>
100045b0:	2201      	movs	r2, #1
100045b2:	18e3      	adds	r3, r4, r3
100045b4:	6859      	ldr	r1, [r3, #4]
100045b6:	0030      	movs	r0, r6
100045b8:	430a      	orrs	r2, r1
100045ba:	605a      	str	r2, [r3, #4]
100045bc:	68e3      	ldr	r3, [r4, #12]
100045be:	68a2      	ldr	r2, [r4, #8]
100045c0:	60d3      	str	r3, [r2, #12]
100045c2:	609a      	str	r2, [r3, #8]
100045c4:	f000 f8e8 	bl	10004798 <__malloc_unlock>
100045c8:	0020      	movs	r0, r4
100045ca:	3008      	adds	r0, #8
100045cc:	e6e1      	b.n	10004392 <_malloc_r+0x18a>
100045ce:	002b      	movs	r3, r5
100045d0:	08e8      	lsrs	r0, r5, #3
100045d2:	3308      	adds	r3, #8
100045d4:	e62c      	b.n	10004230 <_malloc_r+0x28>
100045d6:	2301      	movs	r3, #1
100045d8:	1960      	adds	r0, r4, r5
100045da:	431d      	orrs	r5, r3
100045dc:	6065      	str	r5, [r4, #4]
100045de:	6178      	str	r0, [r7, #20]
100045e0:	6138      	str	r0, [r7, #16]
100045e2:	60c2      	str	r2, [r0, #12]
100045e4:	6082      	str	r2, [r0, #8]
100045e6:	001a      	movs	r2, r3
100045e8:	464b      	mov	r3, r9
100045ea:	430a      	orrs	r2, r1
100045ec:	6042      	str	r2, [r0, #4]
100045ee:	0030      	movs	r0, r6
100045f0:	50e1      	str	r1, [r4, r3]
100045f2:	f000 f8d1 	bl	10004798 <__malloc_unlock>
100045f6:	0020      	movs	r0, r4
100045f8:	3008      	adds	r0, #8
100045fa:	e6ca      	b.n	10004392 <_malloc_r+0x18a>
100045fc:	099a      	lsrs	r2, r3, #6
100045fe:	0011      	movs	r1, r2
10004600:	3239      	adds	r2, #57	; 0x39
10004602:	3138      	adds	r1, #56	; 0x38
10004604:	00d2      	lsls	r2, r2, #3
10004606:	e78e      	b.n	10004526 <_malloc_r+0x31e>
10004608:	42bc      	cmp	r4, r7
1000460a:	d060      	beq.n	100046ce <_malloc_r+0x4c6>
1000460c:	68bc      	ldr	r4, [r7, #8]
1000460e:	6862      	ldr	r2, [r4, #4]
10004610:	2303      	movs	r3, #3
10004612:	439a      	bics	r2, r3
10004614:	1b53      	subs	r3, r2, r5
10004616:	4295      	cmp	r5, r2
10004618:	d802      	bhi.n	10004620 <_malloc_r+0x418>
1000461a:	2b0f      	cmp	r3, #15
1000461c:	dd00      	ble.n	10004620 <_malloc_r+0x418>
1000461e:	e76a      	b.n	100044f6 <_malloc_r+0x2ee>
10004620:	0030      	movs	r0, r6
10004622:	f000 f8b9 	bl	10004798 <__malloc_unlock>
10004626:	2000      	movs	r0, #0
10004628:	e6b3      	b.n	10004392 <_malloc_r+0x18a>
1000462a:	235b      	movs	r3, #91	; 0x5b
1000462c:	4698      	mov	r8, r3
1000462e:	4480      	add	r8, r0
10004630:	305c      	adds	r0, #92	; 0x5c
10004632:	00c1      	lsls	r1, r0, #3
10004634:	e631      	b.n	1000429a <_malloc_r+0x92>
10004636:	2308      	movs	r3, #8
10004638:	425b      	negs	r3, r3
1000463a:	469c      	mov	ip, r3
1000463c:	44e1      	add	r9, ip
1000463e:	464b      	mov	r3, r9
10004640:	689b      	ldr	r3, [r3, #8]
10004642:	3801      	subs	r0, #1
10004644:	454b      	cmp	r3, r9
10004646:	d000      	beq.n	1000464a <_malloc_r+0x442>
10004648:	e098      	b.n	1000477c <_malloc_r+0x574>
1000464a:	4643      	mov	r3, r8
1000464c:	4203      	tst	r3, r0
1000464e:	d1f2      	bne.n	10004636 <_malloc_r+0x42e>
10004650:	687b      	ldr	r3, [r7, #4]
10004652:	438b      	bics	r3, r1
10004654:	607b      	str	r3, [r7, #4]
10004656:	0049      	lsls	r1, r1, #1
10004658:	4299      	cmp	r1, r3
1000465a:	d900      	bls.n	1000465e <_malloc_r+0x456>
1000465c:	e6b7      	b.n	100043ce <_malloc_r+0x1c6>
1000465e:	2900      	cmp	r1, #0
10004660:	d104      	bne.n	1000466c <_malloc_r+0x464>
10004662:	e6b4      	b.n	100043ce <_malloc_r+0x1c6>
10004664:	2204      	movs	r2, #4
10004666:	4694      	mov	ip, r2
10004668:	0049      	lsls	r1, r1, #1
1000466a:	44e2      	add	sl, ip
1000466c:	420b      	tst	r3, r1
1000466e:	d0f9      	beq.n	10004664 <_malloc_r+0x45c>
10004670:	4650      	mov	r0, sl
10004672:	e65c      	b.n	1000432e <_malloc_r+0x126>
10004674:	3310      	adds	r3, #16
10004676:	9300      	str	r3, [sp, #0]
10004678:	e6c6      	b.n	10004408 <_malloc_r+0x200>
1000467a:	1089      	asrs	r1, r1, #2
1000467c:	3b02      	subs	r3, #2
1000467e:	408b      	lsls	r3, r1
10004680:	6879      	ldr	r1, [r7, #4]
10004682:	430b      	orrs	r3, r1
10004684:	607b      	str	r3, [r7, #4]
10004686:	e765      	b.n	10004554 <_malloc_r+0x34c>
10004688:	9b00      	ldr	r3, [sp, #0]
1000468a:	0030      	movs	r0, r6
1000468c:	4443      	add	r3, r8
1000468e:	425b      	negs	r3, r3
10004690:	051b      	lsls	r3, r3, #20
10004692:	0d1b      	lsrs	r3, r3, #20
10004694:	0019      	movs	r1, r3
10004696:	469b      	mov	fp, r3
10004698:	f000 f886 	bl	100047a8 <_sbrk_r>
1000469c:	1c43      	adds	r3, r0, #1
1000469e:	d000      	beq.n	100046a2 <_malloc_r+0x49a>
100046a0:	e6f4      	b.n	1000448c <_malloc_r+0x284>
100046a2:	2300      	movs	r3, #0
100046a4:	469b      	mov	fp, r3
100046a6:	e6f6      	b.n	10004496 <_malloc_r+0x28e>
100046a8:	2a54      	cmp	r2, #84	; 0x54
100046aa:	d82b      	bhi.n	10004704 <_malloc_r+0x4fc>
100046ac:	0b1a      	lsrs	r2, r3, #12
100046ae:	0011      	movs	r1, r2
100046b0:	326f      	adds	r2, #111	; 0x6f
100046b2:	316e      	adds	r1, #110	; 0x6e
100046b4:	00d2      	lsls	r2, r2, #3
100046b6:	e736      	b.n	10004526 <_malloc_r+0x31e>
100046b8:	23aa      	movs	r3, #170	; 0xaa
100046ba:	005b      	lsls	r3, r3, #1
100046bc:	4298      	cmp	r0, r3
100046be:	d82b      	bhi.n	10004718 <_malloc_r+0x510>
100046c0:	3bdd      	subs	r3, #221	; 0xdd
100046c2:	4698      	mov	r8, r3
100046c4:	0be8      	lsrs	r0, r5, #15
100046c6:	4480      	add	r8, r0
100046c8:	3078      	adds	r0, #120	; 0x78
100046ca:	00c1      	lsls	r1, r0, #3
100046cc:	e5e5      	b.n	1000429a <_malloc_r+0x92>
100046ce:	4b2c      	ldr	r3, [pc, #176]	; (10004780 <_malloc_r+0x578>)
100046d0:	9a00      	ldr	r2, [sp, #0]
100046d2:	469a      	mov	sl, r3
100046d4:	681b      	ldr	r3, [r3, #0]
100046d6:	469c      	mov	ip, r3
100046d8:	4653      	mov	r3, sl
100046da:	4462      	add	r2, ip
100046dc:	601a      	str	r2, [r3, #0]
100046de:	e6ae      	b.n	1000443e <_malloc_r+0x236>
100046e0:	0509      	lsls	r1, r1, #20
100046e2:	d000      	beq.n	100046e6 <_malloc_r+0x4de>
100046e4:	e6ab      	b.n	1000443e <_malloc_r+0x236>
100046e6:	9a00      	ldr	r2, [sp, #0]
100046e8:	68bc      	ldr	r4, [r7, #8]
100046ea:	444a      	add	r2, r9
100046ec:	3101      	adds	r1, #1
100046ee:	430a      	orrs	r2, r1
100046f0:	6062      	str	r2, [r4, #4]
100046f2:	e6f4      	b.n	100044de <_malloc_r+0x2d6>
100046f4:	465b      	mov	r3, fp
100046f6:	4642      	mov	r2, r8
100046f8:	601a      	str	r2, [r3, #0]
100046fa:	e6ab      	b.n	10004454 <_malloc_r+0x24c>
100046fc:	4644      	mov	r4, r8
100046fe:	e6ee      	b.n	100044de <_malloc_r+0x2d6>
10004700:	6041      	str	r1, [r0, #4]
10004702:	e78d      	b.n	10004620 <_malloc_r+0x418>
10004704:	21aa      	movs	r1, #170	; 0xaa
10004706:	0049      	lsls	r1, r1, #1
10004708:	428a      	cmp	r2, r1
1000470a:	d824      	bhi.n	10004756 <_malloc_r+0x54e>
1000470c:	0bda      	lsrs	r2, r3, #15
1000470e:	0011      	movs	r1, r2
10004710:	3278      	adds	r2, #120	; 0x78
10004712:	3177      	adds	r1, #119	; 0x77
10004714:	00d2      	lsls	r2, r2, #3
10004716:	e706      	b.n	10004526 <_malloc_r+0x31e>
10004718:	4b1a      	ldr	r3, [pc, #104]	; (10004784 <_malloc_r+0x57c>)
1000471a:	4298      	cmp	r0, r3
1000471c:	d824      	bhi.n	10004768 <_malloc_r+0x560>
1000471e:	237c      	movs	r3, #124	; 0x7c
10004720:	4698      	mov	r8, r3
10004722:	0ca8      	lsrs	r0, r5, #18
10004724:	4480      	add	r8, r0
10004726:	307d      	adds	r0, #125	; 0x7d
10004728:	00c1      	lsls	r1, r0, #3
1000472a:	e5b6      	b.n	1000429a <_malloc_r+0x92>
1000472c:	9a00      	ldr	r2, [sp, #0]
1000472e:	9b01      	ldr	r3, [sp, #4]
10004730:	4694      	mov	ip, r2
10004732:	4642      	mov	r2, r8
10004734:	3b08      	subs	r3, #8
10004736:	4463      	add	r3, ip
10004738:	1a9b      	subs	r3, r3, r2
1000473a:	9300      	str	r3, [sp, #0]
1000473c:	2300      	movs	r3, #0
1000473e:	469b      	mov	fp, r3
10004740:	e6a9      	b.n	10004496 <_malloc_r+0x28e>
10004742:	0021      	movs	r1, r4
10004744:	0030      	movs	r0, r6
10004746:	3108      	adds	r1, #8
10004748:	f000 f8bc 	bl	100048c4 <_free_r>
1000474c:	4653      	mov	r3, sl
1000474e:	68bc      	ldr	r4, [r7, #8]
10004750:	681b      	ldr	r3, [r3, #0]
10004752:	6862      	ldr	r2, [r4, #4]
10004754:	e6c3      	b.n	100044de <_malloc_r+0x2d6>
10004756:	490b      	ldr	r1, [pc, #44]	; (10004784 <_malloc_r+0x57c>)
10004758:	428a      	cmp	r2, r1
1000475a:	d80b      	bhi.n	10004774 <_malloc_r+0x56c>
1000475c:	0c9a      	lsrs	r2, r3, #18
1000475e:	0011      	movs	r1, r2
10004760:	327d      	adds	r2, #125	; 0x7d
10004762:	317c      	adds	r1, #124	; 0x7c
10004764:	00d2      	lsls	r2, r2, #3
10004766:	e6de      	b.n	10004526 <_malloc_r+0x31e>
10004768:	21fe      	movs	r1, #254	; 0xfe
1000476a:	237e      	movs	r3, #126	; 0x7e
1000476c:	207f      	movs	r0, #127	; 0x7f
1000476e:	4698      	mov	r8, r3
10004770:	0089      	lsls	r1, r1, #2
10004772:	e592      	b.n	1000429a <_malloc_r+0x92>
10004774:	22fe      	movs	r2, #254	; 0xfe
10004776:	217e      	movs	r1, #126	; 0x7e
10004778:	0092      	lsls	r2, r2, #2
1000477a:	e6d4      	b.n	10004526 <_malloc_r+0x31e>
1000477c:	687b      	ldr	r3, [r7, #4]
1000477e:	e76a      	b.n	10004656 <_malloc_r+0x44e>
10004780:	20000ae8 	.word	0x20000ae8
10004784:	00000554 	.word	0x00000554

10004788 <__malloc_lock>:
10004788:	b510      	push	{r4, lr}
1000478a:	4802      	ldr	r0, [pc, #8]	; (10004794 <__malloc_lock+0xc>)
1000478c:	f000 f97c 	bl	10004a88 <__retarget_lock_acquire_recursive>
10004790:	bd10      	pop	{r4, pc}
10004792:	46c0      	nop			; (mov r8, r8)
10004794:	20004da4 	.word	0x20004da4

10004798 <__malloc_unlock>:
10004798:	b510      	push	{r4, lr}
1000479a:	4802      	ldr	r0, [pc, #8]	; (100047a4 <__malloc_unlock+0xc>)
1000479c:	f000 f976 	bl	10004a8c <__retarget_lock_release_recursive>
100047a0:	bd10      	pop	{r4, pc}
100047a2:	46c0      	nop			; (mov r8, r8)
100047a4:	20004da4 	.word	0x20004da4

100047a8 <_sbrk_r>:
100047a8:	2300      	movs	r3, #0
100047aa:	b570      	push	{r4, r5, r6, lr}
100047ac:	4d06      	ldr	r5, [pc, #24]	; (100047c8 <_sbrk_r+0x20>)
100047ae:	0004      	movs	r4, r0
100047b0:	0008      	movs	r0, r1
100047b2:	602b      	str	r3, [r5, #0]
100047b4:	f7fc fc88 	bl	100010c8 <_sbrk>
100047b8:	1c43      	adds	r3, r0, #1
100047ba:	d000      	beq.n	100047be <_sbrk_r+0x16>
100047bc:	bd70      	pop	{r4, r5, r6, pc}
100047be:	682b      	ldr	r3, [r5, #0]
100047c0:	2b00      	cmp	r3, #0
100047c2:	d0fb      	beq.n	100047bc <_sbrk_r+0x14>
100047c4:	6023      	str	r3, [r4, #0]
100047c6:	e7f9      	b.n	100047bc <_sbrk_r+0x14>
100047c8:	20004db8 	.word	0x20004db8

100047cc <strlen>:
100047cc:	b510      	push	{r4, lr}
100047ce:	0783      	lsls	r3, r0, #30
100047d0:	d00a      	beq.n	100047e8 <strlen+0x1c>
100047d2:	0003      	movs	r3, r0
100047d4:	2103      	movs	r1, #3
100047d6:	e002      	b.n	100047de <strlen+0x12>
100047d8:	3301      	adds	r3, #1
100047da:	420b      	tst	r3, r1
100047dc:	d005      	beq.n	100047ea <strlen+0x1e>
100047de:	781a      	ldrb	r2, [r3, #0]
100047e0:	2a00      	cmp	r2, #0
100047e2:	d1f9      	bne.n	100047d8 <strlen+0xc>
100047e4:	1a18      	subs	r0, r3, r0
100047e6:	bd10      	pop	{r4, pc}
100047e8:	0003      	movs	r3, r0
100047ea:	6819      	ldr	r1, [r3, #0]
100047ec:	4a0c      	ldr	r2, [pc, #48]	; (10004820 <strlen+0x54>)
100047ee:	4c0d      	ldr	r4, [pc, #52]	; (10004824 <strlen+0x58>)
100047f0:	188a      	adds	r2, r1, r2
100047f2:	438a      	bics	r2, r1
100047f4:	4222      	tst	r2, r4
100047f6:	d10f      	bne.n	10004818 <strlen+0x4c>
100047f8:	6859      	ldr	r1, [r3, #4]
100047fa:	4a09      	ldr	r2, [pc, #36]	; (10004820 <strlen+0x54>)
100047fc:	3304      	adds	r3, #4
100047fe:	188a      	adds	r2, r1, r2
10004800:	438a      	bics	r2, r1
10004802:	4222      	tst	r2, r4
10004804:	d108      	bne.n	10004818 <strlen+0x4c>
10004806:	6859      	ldr	r1, [r3, #4]
10004808:	4a05      	ldr	r2, [pc, #20]	; (10004820 <strlen+0x54>)
1000480a:	3304      	adds	r3, #4
1000480c:	188a      	adds	r2, r1, r2
1000480e:	438a      	bics	r2, r1
10004810:	4222      	tst	r2, r4
10004812:	d0f1      	beq.n	100047f8 <strlen+0x2c>
10004814:	e000      	b.n	10004818 <strlen+0x4c>
10004816:	3301      	adds	r3, #1
10004818:	781a      	ldrb	r2, [r3, #0]
1000481a:	2a00      	cmp	r2, #0
1000481c:	d1fb      	bne.n	10004816 <strlen+0x4a>
1000481e:	e7e1      	b.n	100047e4 <strlen+0x18>
10004820:	fefefeff 	.word	0xfefefeff
10004824:	80808080 	.word	0x80808080

10004828 <_malloc_trim_r>:
10004828:	b5f8      	push	{r3, r4, r5, r6, r7, lr}
1000482a:	000c      	movs	r4, r1
1000482c:	0005      	movs	r5, r0
1000482e:	f7ff ffab 	bl	10004788 <__malloc_lock>
10004832:	4f20      	ldr	r7, [pc, #128]	; (100048b4 <_malloc_trim_r+0x8c>)
10004834:	68bb      	ldr	r3, [r7, #8]
10004836:	685e      	ldr	r6, [r3, #4]
10004838:	2303      	movs	r3, #3
1000483a:	439e      	bics	r6, r3
1000483c:	4b1e      	ldr	r3, [pc, #120]	; (100048b8 <_malloc_trim_r+0x90>)
1000483e:	1b34      	subs	r4, r6, r4
10004840:	469c      	mov	ip, r3
10004842:	4464      	add	r4, ip
10004844:	0b24      	lsrs	r4, r4, #12
10004846:	3c01      	subs	r4, #1
10004848:	3311      	adds	r3, #17
1000484a:	0324      	lsls	r4, r4, #12
1000484c:	429c      	cmp	r4, r3
1000484e:	db07      	blt.n	10004860 <_malloc_trim_r+0x38>
10004850:	2100      	movs	r1, #0
10004852:	0028      	movs	r0, r5
10004854:	f7ff ffa8 	bl	100047a8 <_sbrk_r>
10004858:	68bb      	ldr	r3, [r7, #8]
1000485a:	199b      	adds	r3, r3, r6
1000485c:	4298      	cmp	r0, r3
1000485e:	d004      	beq.n	1000486a <_malloc_trim_r+0x42>
10004860:	0028      	movs	r0, r5
10004862:	f7ff ff99 	bl	10004798 <__malloc_unlock>
10004866:	2000      	movs	r0, #0
10004868:	bdf8      	pop	{r3, r4, r5, r6, r7, pc}
1000486a:	0028      	movs	r0, r5
1000486c:	4261      	negs	r1, r4
1000486e:	f7ff ff9b 	bl	100047a8 <_sbrk_r>
10004872:	1c43      	adds	r3, r0, #1
10004874:	d00d      	beq.n	10004892 <_malloc_trim_r+0x6a>
10004876:	2201      	movs	r2, #1
10004878:	68bb      	ldr	r3, [r7, #8]
1000487a:	1b36      	subs	r6, r6, r4
1000487c:	4316      	orrs	r6, r2
1000487e:	605e      	str	r6, [r3, #4]
10004880:	4b0e      	ldr	r3, [pc, #56]	; (100048bc <_malloc_trim_r+0x94>)
10004882:	0028      	movs	r0, r5
10004884:	681a      	ldr	r2, [r3, #0]
10004886:	1b14      	subs	r4, r2, r4
10004888:	601c      	str	r4, [r3, #0]
1000488a:	f7ff ff85 	bl	10004798 <__malloc_unlock>
1000488e:	2001      	movs	r0, #1
10004890:	e7ea      	b.n	10004868 <_malloc_trim_r+0x40>
10004892:	2100      	movs	r1, #0
10004894:	0028      	movs	r0, r5
10004896:	f7ff ff87 	bl	100047a8 <_sbrk_r>
1000489a:	68ba      	ldr	r2, [r7, #8]
1000489c:	1a83      	subs	r3, r0, r2
1000489e:	2b0f      	cmp	r3, #15
100048a0:	ddde      	ble.n	10004860 <_malloc_trim_r+0x38>
100048a2:	4907      	ldr	r1, [pc, #28]	; (100048c0 <_malloc_trim_r+0x98>)
100048a4:	6809      	ldr	r1, [r1, #0]
100048a6:	1a40      	subs	r0, r0, r1
100048a8:	4904      	ldr	r1, [pc, #16]	; (100048bc <_malloc_trim_r+0x94>)
100048aa:	6008      	str	r0, [r1, #0]
100048ac:	2101      	movs	r1, #1
100048ae:	430b      	orrs	r3, r1
100048b0:	6053      	str	r3, [r2, #4]
100048b2:	e7d5      	b.n	10004860 <_malloc_trim_r+0x38>
100048b4:	200006a0 	.word	0x200006a0
100048b8:	00000fef 	.word	0x00000fef
100048bc:	20000ae8 	.word	0x20000ae8
100048c0:	20000aa8 	.word	0x20000aa8

100048c4 <_free_r>:
100048c4:	b5f0      	push	{r4, r5, r6, r7, lr}
100048c6:	46c6      	mov	lr, r8
100048c8:	0005      	movs	r5, r0
100048ca:	000c      	movs	r4, r1
100048cc:	b500      	push	{lr}
100048ce:	2900      	cmp	r1, #0
100048d0:	d04f      	beq.n	10004972 <_free_r+0xae>
100048d2:	f7ff ff59 	bl	10004788 <__malloc_lock>
100048d6:	0021      	movs	r1, r4
100048d8:	3908      	subs	r1, #8
100048da:	684c      	ldr	r4, [r1, #4]
100048dc:	2601      	movs	r6, #1
100048de:	0022      	movs	r2, r4
100048e0:	2003      	movs	r0, #3
100048e2:	43b2      	bics	r2, r6
100048e4:	188f      	adds	r7, r1, r2
100048e6:	687b      	ldr	r3, [r7, #4]
100048e8:	4383      	bics	r3, r0
100048ea:	4862      	ldr	r0, [pc, #392]	; (10004a74 <_free_r+0x1b0>)
100048ec:	4698      	mov	r8, r3
100048ee:	6883      	ldr	r3, [r0, #8]
100048f0:	42bb      	cmp	r3, r7
100048f2:	d06b      	beq.n	100049cc <_free_r+0x108>
100048f4:	4643      	mov	r3, r8
100048f6:	607b      	str	r3, [r7, #4]
100048f8:	4226      	tst	r6, r4
100048fa:	d11e      	bne.n	1000493a <_free_r+0x76>
100048fc:	2308      	movs	r3, #8
100048fe:	469c      	mov	ip, r3
10004900:	680c      	ldr	r4, [r1, #0]
10004902:	4484      	add	ip, r0
10004904:	1b09      	subs	r1, r1, r4
10004906:	1912      	adds	r2, r2, r4
10004908:	688c      	ldr	r4, [r1, #8]
1000490a:	4564      	cmp	r4, ip
1000490c:	d04f      	beq.n	100049ae <_free_r+0xea>
1000490e:	68cb      	ldr	r3, [r1, #12]
10004910:	60e3      	str	r3, [r4, #12]
10004912:	609c      	str	r4, [r3, #8]
10004914:	4643      	mov	r3, r8
10004916:	18fc      	adds	r4, r7, r3
10004918:	6864      	ldr	r4, [r4, #4]
1000491a:	4234      	tst	r4, r6
1000491c:	d111      	bne.n	10004942 <_free_r+0x7e>
1000491e:	68bb      	ldr	r3, [r7, #8]
10004920:	4c55      	ldr	r4, [pc, #340]	; (10004a78 <_free_r+0x1b4>)
10004922:	4442      	add	r2, r8
10004924:	42a3      	cmp	r3, r4
10004926:	d100      	bne.n	1000492a <_free_r+0x66>
10004928:	e07f      	b.n	10004a2a <_free_r+0x166>
1000492a:	68fc      	ldr	r4, [r7, #12]
1000492c:	60dc      	str	r4, [r3, #12]
1000492e:	60a3      	str	r3, [r4, #8]
10004930:	2301      	movs	r3, #1
10004932:	4313      	orrs	r3, r2
10004934:	604b      	str	r3, [r1, #4]
10004936:	508a      	str	r2, [r1, r2]
10004938:	e006      	b.n	10004948 <_free_r+0x84>
1000493a:	18fc      	adds	r4, r7, r3
1000493c:	6864      	ldr	r4, [r4, #4]
1000493e:	4234      	tst	r4, r6
10004940:	d0ed      	beq.n	1000491e <_free_r+0x5a>
10004942:	4316      	orrs	r6, r2
10004944:	604e      	str	r6, [r1, #4]
10004946:	603a      	str	r2, [r7, #0]
10004948:	2380      	movs	r3, #128	; 0x80
1000494a:	009b      	lsls	r3, r3, #2
1000494c:	429a      	cmp	r2, r3
1000494e:	d213      	bcs.n	10004978 <_free_r+0xb4>
10004950:	0954      	lsrs	r4, r2, #5
10004952:	08d3      	lsrs	r3, r2, #3
10004954:	2201      	movs	r2, #1
10004956:	40a2      	lsls	r2, r4
10004958:	6844      	ldr	r4, [r0, #4]
1000495a:	00db      	lsls	r3, r3, #3
1000495c:	4322      	orrs	r2, r4
1000495e:	6042      	str	r2, [r0, #4]
10004960:	1818      	adds	r0, r3, r0
10004962:	6883      	ldr	r3, [r0, #8]
10004964:	60c8      	str	r0, [r1, #12]
10004966:	608b      	str	r3, [r1, #8]
10004968:	6081      	str	r1, [r0, #8]
1000496a:	60d9      	str	r1, [r3, #12]
1000496c:	0028      	movs	r0, r5
1000496e:	f7ff ff13 	bl	10004798 <__malloc_unlock>
10004972:	bc04      	pop	{r2}
10004974:	4690      	mov	r8, r2
10004976:	bdf0      	pop	{r4, r5, r6, r7, pc}
10004978:	0a53      	lsrs	r3, r2, #9
1000497a:	2b04      	cmp	r3, #4
1000497c:	d83f      	bhi.n	100049fe <_free_r+0x13a>
1000497e:	0994      	lsrs	r4, r2, #6
10004980:	0026      	movs	r6, r4
10004982:	3439      	adds	r4, #57	; 0x39
10004984:	3638      	adds	r6, #56	; 0x38
10004986:	00e4      	lsls	r4, r4, #3
10004988:	1904      	adds	r4, r0, r4
1000498a:	6823      	ldr	r3, [r4, #0]
1000498c:	3c08      	subs	r4, #8
1000498e:	2703      	movs	r7, #3
10004990:	429c      	cmp	r4, r3
10004992:	d043      	beq.n	10004a1c <_free_r+0x158>
10004994:	6858      	ldr	r0, [r3, #4]
10004996:	43b8      	bics	r0, r7
10004998:	4290      	cmp	r0, r2
1000499a:	d902      	bls.n	100049a2 <_free_r+0xde>
1000499c:	689b      	ldr	r3, [r3, #8]
1000499e:	429c      	cmp	r4, r3
100049a0:	d1f8      	bne.n	10004994 <_free_r+0xd0>
100049a2:	68dc      	ldr	r4, [r3, #12]
100049a4:	60cc      	str	r4, [r1, #12]
100049a6:	608b      	str	r3, [r1, #8]
100049a8:	60a1      	str	r1, [r4, #8]
100049aa:	60d9      	str	r1, [r3, #12]
100049ac:	e7de      	b.n	1000496c <_free_r+0xa8>
100049ae:	4643      	mov	r3, r8
100049b0:	18f8      	adds	r0, r7, r3
100049b2:	6840      	ldr	r0, [r0, #4]
100049b4:	4230      	tst	r0, r6
100049b6:	d158      	bne.n	10004a6a <_free_r+0x1a6>
100049b8:	0013      	movs	r3, r2
100049ba:	68b8      	ldr	r0, [r7, #8]
100049bc:	68fa      	ldr	r2, [r7, #12]
100049be:	4443      	add	r3, r8
100049c0:	431e      	orrs	r6, r3
100049c2:	60c2      	str	r2, [r0, #12]
100049c4:	6090      	str	r0, [r2, #8]
100049c6:	604e      	str	r6, [r1, #4]
100049c8:	50cb      	str	r3, [r1, r3]
100049ca:	e7cf      	b.n	1000496c <_free_r+0xa8>
100049cc:	0013      	movs	r3, r2
100049ce:	4443      	add	r3, r8
100049d0:	4226      	tst	r6, r4
100049d2:	d106      	bne.n	100049e2 <_free_r+0x11e>
100049d4:	680a      	ldr	r2, [r1, #0]
100049d6:	1a89      	subs	r1, r1, r2
100049d8:	688c      	ldr	r4, [r1, #8]
100049da:	189b      	adds	r3, r3, r2
100049dc:	68ca      	ldr	r2, [r1, #12]
100049de:	60e2      	str	r2, [r4, #12]
100049e0:	6094      	str	r4, [r2, #8]
100049e2:	2201      	movs	r2, #1
100049e4:	431a      	orrs	r2, r3
100049e6:	604a      	str	r2, [r1, #4]
100049e8:	4a24      	ldr	r2, [pc, #144]	; (10004a7c <_free_r+0x1b8>)
100049ea:	6081      	str	r1, [r0, #8]
100049ec:	6812      	ldr	r2, [r2, #0]
100049ee:	429a      	cmp	r2, r3
100049f0:	d8bc      	bhi.n	1000496c <_free_r+0xa8>
100049f2:	4b23      	ldr	r3, [pc, #140]	; (10004a80 <_free_r+0x1bc>)
100049f4:	0028      	movs	r0, r5
100049f6:	6819      	ldr	r1, [r3, #0]
100049f8:	f7ff ff16 	bl	10004828 <_malloc_trim_r>
100049fc:	e7b6      	b.n	1000496c <_free_r+0xa8>
100049fe:	2b14      	cmp	r3, #20
10004a00:	d907      	bls.n	10004a12 <_free_r+0x14e>
10004a02:	2b54      	cmp	r3, #84	; 0x54
10004a04:	d81a      	bhi.n	10004a3c <_free_r+0x178>
10004a06:	0b14      	lsrs	r4, r2, #12
10004a08:	0026      	movs	r6, r4
10004a0a:	346f      	adds	r4, #111	; 0x6f
10004a0c:	366e      	adds	r6, #110	; 0x6e
10004a0e:	00e4      	lsls	r4, r4, #3
10004a10:	e7ba      	b.n	10004988 <_free_r+0xc4>
10004a12:	001e      	movs	r6, r3
10004a14:	335c      	adds	r3, #92	; 0x5c
10004a16:	365b      	adds	r6, #91	; 0x5b
10004a18:	00dc      	lsls	r4, r3, #3
10004a1a:	e7b5      	b.n	10004988 <_free_r+0xc4>
10004a1c:	2201      	movs	r2, #1
10004a1e:	10b6      	asrs	r6, r6, #2
10004a20:	40b2      	lsls	r2, r6
10004a22:	6846      	ldr	r6, [r0, #4]
10004a24:	4332      	orrs	r2, r6
10004a26:	6042      	str	r2, [r0, #4]
10004a28:	e7bc      	b.n	100049a4 <_free_r+0xe0>
10004a2a:	60d9      	str	r1, [r3, #12]
10004a2c:	6099      	str	r1, [r3, #8]
10004a2e:	60cb      	str	r3, [r1, #12]
10004a30:	608b      	str	r3, [r1, #8]
10004a32:	2301      	movs	r3, #1
10004a34:	4313      	orrs	r3, r2
10004a36:	604b      	str	r3, [r1, #4]
10004a38:	508a      	str	r2, [r1, r2]
10004a3a:	e797      	b.n	1000496c <_free_r+0xa8>
10004a3c:	24aa      	movs	r4, #170	; 0xaa
10004a3e:	0064      	lsls	r4, r4, #1
10004a40:	42a3      	cmp	r3, r4
10004a42:	d805      	bhi.n	10004a50 <_free_r+0x18c>
10004a44:	0bd4      	lsrs	r4, r2, #15
10004a46:	0026      	movs	r6, r4
10004a48:	3478      	adds	r4, #120	; 0x78
10004a4a:	3677      	adds	r6, #119	; 0x77
10004a4c:	00e4      	lsls	r4, r4, #3
10004a4e:	e79b      	b.n	10004988 <_free_r+0xc4>
10004a50:	4c0c      	ldr	r4, [pc, #48]	; (10004a84 <_free_r+0x1c0>)
10004a52:	42a3      	cmp	r3, r4
10004a54:	d805      	bhi.n	10004a62 <_free_r+0x19e>
10004a56:	0c94      	lsrs	r4, r2, #18
10004a58:	0026      	movs	r6, r4
10004a5a:	347d      	adds	r4, #125	; 0x7d
10004a5c:	367c      	adds	r6, #124	; 0x7c
10004a5e:	00e4      	lsls	r4, r4, #3
10004a60:	e792      	b.n	10004988 <_free_r+0xc4>
10004a62:	24fe      	movs	r4, #254	; 0xfe
10004a64:	267e      	movs	r6, #126	; 0x7e
10004a66:	00a4      	lsls	r4, r4, #2
10004a68:	e78e      	b.n	10004988 <_free_r+0xc4>
10004a6a:	0033      	movs	r3, r6
10004a6c:	4313      	orrs	r3, r2
10004a6e:	604b      	str	r3, [r1, #4]
10004a70:	603a      	str	r2, [r7, #0]
10004a72:	e77b      	b.n	1000496c <_free_r+0xa8>
10004a74:	200006a0 	.word	0x200006a0
10004a78:	200006a8 	.word	0x200006a8
10004a7c:	20000aac 	.word	0x20000aac
10004a80:	20000b18 	.word	0x20000b18
10004a84:	00000554 	.word	0x00000554

10004a88 <__retarget_lock_acquire_recursive>:
10004a88:	4770      	bx	lr
10004a8a:	46c0      	nop			; (mov r8, r8)

10004a8c <__retarget_lock_release_recursive>:
10004a8c:	4770      	bx	lr
10004a8e:	46c0      	nop			; (mov r8, r8)

10004a90 <_fini>:
10004a90:	b5f8      	push	{r3, r4, r5, r6, r7, lr}
10004a92:	46c0      	nop			; (mov r8, r8)
10004a94:	0000      	movs	r0, r0
	...

10004a98 <__flash_bulk_read_veneer>:
10004a98:	b401      	push	{r0}
10004a9a:	4802      	ldr	r0, [pc, #8]	; (10004aa4 <__flash_bulk_read_veneer+0xc>)
10004a9c:	4684      	mov	ip, r0
10004a9e:	bc01      	pop	{r0}
10004aa0:	4760      	bx	ip
10004aa2:	bf00      	nop
10004aa4:	200000c1 	.word	0x200000c1

10004aa8 <__mutex_exit_veneer>:
10004aa8:	b401      	push	{r0}
10004aaa:	4802      	ldr	r0, [pc, #8]	; (10004ab4 <__mutex_exit_veneer+0xc>)
10004aac:	4684      	mov	ip, r0
10004aae:	bc01      	pop	{r0}
10004ab0:	4760      	bx	ip
10004ab2:	bf00      	nop
10004ab4:	200001c5 	.word	0x200001c5

10004ab8 <____aeabi_ldiv0_veneer>:
10004ab8:	b401      	push	{r0}
10004aba:	4802      	ldr	r0, [pc, #8]	; (10004ac4 <____aeabi_ldiv0_veneer+0xc>)
10004abc:	4684      	mov	ip, r0
10004abe:	bc01      	pop	{r0}
10004ac0:	4760      	bx	ip
10004ac2:	bf00      	nop
10004ac4:	200001ed 	.word	0x200001ed

10004ac8 <____aeabi_idiv0_veneer>:
10004ac8:	b401      	push	{r0}
10004aca:	4802      	ldr	r0, [pc, #8]	; (10004ad4 <____aeabi_idiv0_veneer+0xc>)
10004acc:	4684      	mov	ip, r0
10004ace:	bc01      	pop	{r0}
10004ad0:	4760      	bx	ip
10004ad2:	bf00      	nop
10004ad4:	200001ed 	.word	0x200001ed

10004ad8 <__mutex_try_enter_veneer>:
10004ad8:	b401      	push	{r0}
10004ada:	4802      	ldr	r0, [pc, #8]	; (10004ae4 <__mutex_try_enter_veneer+0xc>)
10004adc:	4684      	mov	ip, r0
10004ade:	bc01      	pop	{r0}
10004ae0:	4760      	bx	ip
10004ae2:	bf00      	nop
10004ae4:	20000179 	.word	0x20000179

10004ae8 <__mutex_enter_blocking_veneer>:
10004ae8:	b401      	push	{r0}
10004aea:	4802      	ldr	r0, [pc, #8]	; (10004af4 <__mutex_enter_blocking_veneer+0xc>)
10004aec:	4684      	mov	ip, r0
10004aee:	bc01      	pop	{r0}
10004af0:	4760      	bx	ip
10004af2:	bf00      	nop
10004af4:	20000129 	.word	0x20000129

Disassembly of section .data:

200000c0 <flash_bulk_read>:
200000c0:	b5f0      	push	{r4, r5, r6, r7, lr}
200000c2:	25c0      	movs	r5, #192	; 0xc0
200000c4:	2400      	movs	r4, #0
200000c6:	056d      	lsls	r5, r5, #21
200000c8:	60ac      	str	r4, [r5, #8]
200000ca:	1e54      	subs	r4, r2, #1
200000cc:	606c      	str	r4, [r5, #4]
200000ce:	2403      	movs	r4, #3
200000d0:	26a0      	movs	r6, #160	; 0xa0
200000d2:	64ec      	str	r4, [r5, #76]	; 0x4c
200000d4:	3c02      	subs	r4, #2
200000d6:	60ac      	str	r4, [r5, #8]
200000d8:	4f10      	ldr	r7, [pc, #64]	; (2000011c <flash_bulk_read+0x5c>)
200000da:	019c      	lsls	r4, r3, #6
200000dc:	05f6      	lsls	r6, r6, #23
200000de:	19a6      	adds	r6, r4, r6
200000e0:	6037      	str	r7, [r6, #0]
200000e2:	6070      	str	r0, [r6, #4]
200000e4:	60b2      	str	r2, [r6, #8]
200000e6:	4a0e      	ldr	r2, [pc, #56]	; (20000120 <flash_bulk_read+0x60>)
200000e8:	02db      	lsls	r3, r3, #11
200000ea:	4313      	orrs	r3, r2
200000ec:	60f3      	str	r3, [r6, #12]
200000ee:	23a0      	movs	r3, #160	; 0xa0
200000f0:	0209      	lsls	r1, r1, #8
200000f2:	4319      	orrs	r1, r3
200000f4:	4b0b      	ldr	r3, [pc, #44]	; (20000124 <flash_bulk_read+0x64>)
200000f6:	2280      	movs	r2, #128	; 0x80
200000f8:	469c      	mov	ip, r3
200000fa:	6629      	str	r1, [r5, #96]	; 0x60
200000fc:	4464      	add	r4, ip
200000fe:	0452      	lsls	r2, r2, #17
20000100:	6823      	ldr	r3, [r4, #0]
20000102:	0018      	movs	r0, r3
20000104:	4010      	ands	r0, r2
20000106:	4213      	tst	r3, r2
20000108:	d1fa      	bne.n	20000100 <flash_bulk_read+0x40>
2000010a:	23c0      	movs	r3, #192	; 0xc0
2000010c:	2201      	movs	r2, #1
2000010e:	055b      	lsls	r3, r3, #21
20000110:	6098      	str	r0, [r3, #8]
20000112:	6058      	str	r0, [r3, #4]
20000114:	64d8      	str	r0, [r3, #76]	; 0x4c
20000116:	609a      	str	r2, [r3, #8]
20000118:	bdf0      	pop	{r4, r5, r6, r7, pc}
2000011a:	46c0      	nop			; (mov r8, r8)
2000011c:	18000060 	.word	0x18000060
20000120:	00538029 	.word	0x00538029
20000124:	5000000c 	.word	0x5000000c

20000128 <mutex_enter_blocking>:
20000128:	b510      	push	{r4, lr}
2000012a:	6802      	ldr	r2, [r0, #0]
2000012c:	2400      	movs	r4, #0
2000012e:	f3ef 8110 	mrs	r1, PRIMASK
20000132:	b672      	cpsid	i
20000134:	6813      	ldr	r3, [r2, #0]
20000136:	2b00      	cmp	r3, #0
20000138:	d0fc      	beq.n	20000134 <mutex_enter_blocking+0xc>
2000013a:	f3bf 8f5f 	dmb	sy
2000013e:	7903      	ldrb	r3, [r0, #4]
20000140:	2b00      	cmp	r3, #0
20000142:	d00b      	beq.n	2000015c <mutex_enter_blocking+0x34>
20000144:	6803      	ldr	r3, [r0, #0]
20000146:	f3bf 8f5f 	dmb	sy
2000014a:	601c      	str	r4, [r3, #0]
2000014c:	f381 8810 	msr	PRIMASK, r1
20000150:	bf20      	wfe
20000152:	6802      	ldr	r2, [r0, #0]
20000154:	f3ef 8110 	mrs	r1, PRIMASK
20000158:	b672      	cpsid	i
2000015a:	e7eb      	b.n	20000134 <mutex_enter_blocking+0xc>
2000015c:	2201      	movs	r2, #1
2000015e:	7102      	strb	r2, [r0, #4]
20000160:	22d0      	movs	r2, #208	; 0xd0
20000162:	0612      	lsls	r2, r2, #24
20000164:	6812      	ldr	r2, [r2, #0]
20000166:	7142      	strb	r2, [r0, #5]
20000168:	6802      	ldr	r2, [r0, #0]
2000016a:	f3bf 8f5f 	dmb	sy
2000016e:	6013      	str	r3, [r2, #0]
20000170:	f381 8810 	msr	PRIMASK, r1
20000174:	bd10      	pop	{r4, pc}
20000176:	46c0      	nop			; (mov r8, r8)

20000178 <mutex_try_enter>:
20000178:	0003      	movs	r3, r0
2000017a:	b510      	push	{r4, lr}
2000017c:	6800      	ldr	r0, [r0, #0]
2000017e:	f3ef 8410 	mrs	r4, PRIMASK
20000182:	b672      	cpsid	i
20000184:	6802      	ldr	r2, [r0, #0]
20000186:	2a00      	cmp	r2, #0
20000188:	d0fc      	beq.n	20000184 <mutex_try_enter+0xc>
2000018a:	f3bf 8f5f 	dmb	sy
2000018e:	791a      	ldrb	r2, [r3, #4]
20000190:	2a00      	cmp	r2, #0
20000192:	d00d      	beq.n	200001b0 <mutex_try_enter+0x38>
20000194:	2900      	cmp	r1, #0
20000196:	d013      	beq.n	200001c0 <mutex_try_enter+0x48>
20000198:	2205      	movs	r2, #5
2000019a:	2000      	movs	r0, #0
2000019c:	569a      	ldrsb	r2, [r3, r2]
2000019e:	600a      	str	r2, [r1, #0]
200001a0:	681b      	ldr	r3, [r3, #0]
200001a2:	f3bf 8f5f 	dmb	sy
200001a6:	2200      	movs	r2, #0
200001a8:	601a      	str	r2, [r3, #0]
200001aa:	f384 8810 	msr	PRIMASK, r4
200001ae:	bd10      	pop	{r4, pc}
200001b0:	3201      	adds	r2, #1
200001b2:	711a      	strb	r2, [r3, #4]
200001b4:	22d0      	movs	r2, #208	; 0xd0
200001b6:	0612      	lsls	r2, r2, #24
200001b8:	6812      	ldr	r2, [r2, #0]
200001ba:	2001      	movs	r0, #1
200001bc:	715a      	strb	r2, [r3, #5]
200001be:	e7ef      	b.n	200001a0 <mutex_try_enter+0x28>
200001c0:	2000      	movs	r0, #0
200001c2:	e7ed      	b.n	200001a0 <mutex_try_enter+0x28>

200001c4 <mutex_exit>:
200001c4:	6802      	ldr	r2, [r0, #0]
200001c6:	f3ef 8110 	mrs	r1, PRIMASK
200001ca:	b672      	cpsid	i
200001cc:	6813      	ldr	r3, [r2, #0]
200001ce:	2b00      	cmp	r3, #0
200001d0:	d0fc      	beq.n	200001cc <mutex_exit+0x8>
200001d2:	f3bf 8f5f 	dmb	sy
200001d6:	2300      	movs	r3, #0
200001d8:	7103      	strb	r3, [r0, #4]
200001da:	bf40      	sev
200001dc:	6802      	ldr	r2, [r0, #0]
200001de:	f3bf 8f5f 	dmb	sy
200001e2:	6013      	str	r3, [r2, #0]
200001e4:	f381 8810 	msr	PRIMASK, r1
200001e8:	4770      	bx	lr
200001ea:	46c0      	nop			; (mov r8, r8)

200001ec <__aeabi_idiv0>:
200001ec:	4770      	bx	lr
200001ee:	46c0      	nop			; (mov r8, r8)

200001f0 <expect>:
200001f0:	0000 1300                                   ....

200001f4 <striped_spin_lock_num>:
200001f4:	0010 0000                                   ....

200001f8 <irq_handler_chain_slots>:
200001f8:	00000000 	.word	0x00000000
200001fc:	00010000 	.word	0x00010000
	...
20000208:	00020000 	.word	0x00020000
	...
20000214:	00030000 	.word	0x00030000
	...
20000220:	00ff0000 	.word	0x00ff0000
20000224:	00000000 	.word	0x00000000

20000228 <irq_handler_chain_first_slot>:
20000228:	b500      	push	{lr}
2000022a:	6848      	ldr	r0, [r1, #4]
2000022c:	3101      	adds	r1, #1
2000022e:	468e      	mov	lr, r1
20000230:	4700      	bx	r0

20000232 <irq_handler_chain_remove_tail>:
20000232:	4670      	mov	r0, lr
20000234:	3809      	subs	r0, #9
20000236:	4901      	ldr	r1, [pc, #4]	; (2000023c <irq_handler_chain_remove_tail+0xa>)
20000238:	4788      	blx	r1
2000023a:	bd00      	pop	{pc}
2000023c:	10001701 	.word	0x10001701

20000240 <aeabi_bits_funcs>:
20000240:	00003350 	.word	0x00003350
20000244:	0000334c 	.word	0x0000334c
20000248:	00003354 	.word	0x00003354
2000024c:	00003352 	.word	0x00003352

20000250 <aeabi_bits_funcs_end>:
20000250:	0000534d 	.word	0x0000534d
20000254:	0000434d 	.word	0x0000434d
20000258:	00003453 	.word	0x00003453
2000025c:	00003443 	.word	0x00003443

20000260 <stdio_uart>:
20000260:	100040cd 00000000 10004109 00000000     .@.......A......
20000270:	00000100                                ....

20000274 <_impure_ptr>:
20000274:	20000278                                x.. 

20000278 <impure_data>:
20000278:	00000000 20000564 200005cc 20000634     ....d.. ... 4.. 
	...
20000320:	00000001 00000000 abcd330e e66d1234     .........3..4.m.
20000330:	0005deec 0000000b 00000000 00000000     ................
	...

200006a0 <__malloc_av_>:
	...
200006a8:	200006a0 200006a0 200006a8 200006a8     ... ... ... ... 
200006b8:	200006b0 200006b0 200006b8 200006b8     ... ... ... ... 
200006c8:	200006c0 200006c0 200006c8 200006c8     ... ... ... ... 
200006d8:	200006d0 200006d0 200006d8 200006d8     ... ... ... ... 
200006e8:	200006e0 200006e0 200006e8 200006e8     ... ... ... ... 
200006f8:	200006f0 200006f0 200006f8 200006f8     ... ... ... ... 
20000708:	20000700 20000700 20000708 20000708     ... ... ... ... 
20000718:	20000710 20000710 20000718 20000718     ... ... ... ... 
20000728:	20000720 20000720 20000728 20000728      ..  .. (.. (.. 
20000738:	20000730 20000730 20000738 20000738     0.. 0.. 8.. 8.. 
20000748:	20000740 20000740 20000748 20000748     @.. @.. H.. H.. 
20000758:	20000750 20000750 20000758 20000758     P.. P.. X.. X.. 
20000768:	20000760 20000760 20000768 20000768     `.. `.. h.. h.. 
20000778:	20000770 20000770 20000778 20000778     p.. p.. x.. x.. 
20000788:	20000780 20000780 20000788 20000788     ... ... ... ... 
20000798:	20000790 20000790 20000798 20000798     ... ... ... ... 
200007a8:	200007a0 200007a0 200007a8 200007a8     ... ... ... ... 
200007b8:	200007b0 200007b0 200007b8 200007b8     ... ... ... ... 
200007c8:	200007c0 200007c0 200007c8 200007c8     ... ... ... ... 
200007d8:	200007d0 200007d0 200007d8 200007d8     ... ... ... ... 
200007e8:	200007e0 200007e0 200007e8 200007e8     ... ... ... ... 
200007f8:	200007f0 200007f0 200007f8 200007f8     ... ... ... ... 
20000808:	20000800 20000800 20000808 20000808     ... ... ... ... 
20000818:	20000810 20000810 20000818 20000818     ... ... ... ... 
20000828:	20000820 20000820 20000828 20000828      ..  .. (.. (.. 
20000838:	20000830 20000830 20000838 20000838     0.. 0.. 8.. 8.. 
20000848:	20000840 20000840 20000848 20000848     @.. @.. H.. H.. 
20000858:	20000850 20000850 20000858 20000858     P.. P.. X.. X.. 
20000868:	20000860 20000860 20000868 20000868     `.. `.. h.. h.. 
20000878:	20000870 20000870 20000878 20000878     p.. p.. x.. x.. 
20000888:	20000880 20000880 20000888 20000888     ... ... ... ... 
20000898:	20000890 20000890 20000898 20000898     ... ... ... ... 
200008a8:	200008a0 200008a0 200008a8 200008a8     ... ... ... ... 
200008b8:	200008b0 200008b0 200008b8 200008b8     ... ... ... ... 
200008c8:	200008c0 200008c0 200008c8 200008c8     ... ... ... ... 
200008d8:	200008d0 200008d0 200008d8 200008d8     ... ... ... ... 
200008e8:	200008e0 200008e0 200008e8 200008e8     ... ... ... ... 
200008f8:	200008f0 200008f0 200008f8 200008f8     ... ... ... ... 
20000908:	20000900 20000900 20000908 20000908     ... ... ... ... 
20000918:	20000910 20000910 20000918 20000918     ... ... ... ... 
20000928:	20000920 20000920 20000928 20000928      ..  .. (.. (.. 
20000938:	20000930 20000930 20000938 20000938     0.. 0.. 8.. 8.. 
20000948:	20000940 20000940 20000948 20000948     @.. @.. H.. H.. 
20000958:	20000950 20000950 20000958 20000958     P.. P.. X.. X.. 
20000968:	20000960 20000960 20000968 20000968     `.. `.. h.. h.. 
20000978:	20000970 20000970 20000978 20000978     p.. p.. x.. x.. 
20000988:	20000980 20000980 20000988 20000988     ... ... ... ... 
20000998:	20000990 20000990 20000998 20000998     ... ... ... ... 
200009a8:	200009a0 200009a0 200009a8 200009a8     ... ... ... ... 
200009b8:	200009b0 200009b0 200009b8 200009b8     ... ... ... ... 
200009c8:	200009c0 200009c0 200009c8 200009c8     ... ... ... ... 
200009d8:	200009d0 200009d0 200009d8 200009d8     ... ... ... ... 
200009e8:	200009e0 200009e0 200009e8 200009e8     ... ... ... ... 
200009f8:	200009f0 200009f0 200009f8 200009f8     ... ... ... ... 
20000a08:	20000a00 20000a00 20000a08 20000a08     ... ... ... ... 
20000a18:	20000a10 20000a10 20000a18 20000a18     ... ... ... ... 
20000a28:	20000a20 20000a20 20000a28 20000a28      ..  .. (.. (.. 
20000a38:	20000a30 20000a30 20000a38 20000a38     0.. 0.. 8.. 8.. 
20000a48:	20000a40 20000a40 20000a48 20000a48     @.. @.. H.. H.. 
20000a58:	20000a50 20000a50 20000a58 20000a58     P.. P.. X.. X.. 
20000a68:	20000a60 20000a60 20000a68 20000a68     `.. `.. h.. h.. 
20000a78:	20000a70 20000a70 20000a78 20000a78     p.. p.. x.. x.. 
20000a88:	20000a80 20000a80 20000a88 20000a88     ... ... ... ... 
20000a98:	20000a90 20000a90 20000a98 20000a98     ... ... ... ... 

20000aa8 <__malloc_sbrk_base>:
20000aa8:	ffffffff                                ....

20000aac <__malloc_trim_threshold>:
20000aac:	00020000                                ....

20000ab0 <print_mutex>:
	...

20000ab8 <__mutex_array_end>:
20000ab8:	10003d0d 	.word	0x10003d0d
20000abc:	10002e3d 	.word	0x10002e3d
20000ac0:	10003531 	.word	0x10003531
20000ac4:	10003c3d 	.word	0x10003c3d

20000ac8 <__frame_dummy_init_array_entry>:
20000ac8:	10000301                                ....
