
i2c_bus_scan.elf:     file format elf32-littlearm

Sections:
Idx Name          Size      VMA       LMA       File off  Algn
  0 .boot2        00000100  10000000  10000000  00010000  2**0
                  CONTENTS, ALLOC, LOAD, READONLY, DATA
  1 .text         00004ae8  10000100  10000100  00010100  2**3
                  CONTENTS, ALLOC, LOAD, READONLY, CODE
  2 .rodata       000003c8  10004be8  10004be8  00014be8  2**3
                  CONTENTS, ALLOC, LOAD, READONLY, DATA
  3 .binary_info  00000024  10004fb0  10004fb0  00014fb0  2**2
                  CONTENTS, ALLOC, LOAD, DATA
  4 .ram_vector_table 000000c0  20000000  20000000  00020a74  2**2
                  CONTENTS
  5 .data         000009b4  200000c0  10004fd4  000200c0  2**4
                  CONTENTS, ALLOC, LOAD, CODE
  6 .uninitialized_data 00000000  20000a74  20000a74  00020b34  2**0
                  CONTENTS
  7 .scratch_x    00000000  20040000  20040000  00020b34  2**0
                  CONTENTS
  8 .scratch_y    00000000  20041000  20041000  00020b34  2**0
                  CONTENTS
  9 .bss          000002f0  20000a74  20000a74  00020a74  2**2
                  ALLOC
 10 .heap         00000800  20000d64  20000d64  00020b34  2**2
                  CONTENTS, READONLY
 11 .stack_dummy  00000800  20041000  20041000  00021340  2**5
                  CONTENTS, READONLY
 12 .ARM.attributes 00000028  00000000  00000000  00021b40  2**0
                  CONTENTS, READONLY
 13 .comment      00000079  00000000  00000000  00021b68  2**0
                  CONTENTS, READONLY
 14 .debug_frame  000002ac  00000000  00000000  00021be4  2**2
                  CONTENTS, READONLY, DEBUGGING

i2c_bus_scan.elf:     file format elf32-littlearm


Disassembly of section .text:

10000100 <__reset_start>:
10000100:	4827      	ldr	r0, [pc, #156]	; (100001a0 <__get_current_exception+0xa>)
10000102:	e000      	b.n	10000106 <__vector_entry>

10000104 <_entry_point>:
10000104:	2000      	movs	r0, #0

10000106 <__vector_entry>:
10000106:	4927      	ldr	r1, [pc, #156]	; (100001a4 <__get_current_exception+0xe>)
10000108:	6088      	str	r0, [r1, #8]
1000010a:	c806      	ldmia	r0!, {r1, r2}
1000010c:	f381 8808 	msr	MSP, r1
10000110:	4710      	bx	r2

10000112 <_reset_handler>:
10000112:	4825      	ldr	r0, [pc, #148]	; (100001a8 <__get_current_exception+0x12>)
10000114:	6800      	ldr	r0, [r0, #0]
10000116:	2800      	cmp	r0, #0
10000118:	d139      	bne.n	1000018e <wait_for_vector>
1000011a:	a412      	add	r4, pc, #72	; (adr r4, 10000164 <data_cpy_table>)
1000011c:	cc0e      	ldmia	r4!, {r1, r2, r3}
1000011e:	2900      	cmp	r1, #0
10000120:	d002      	beq.n	10000128 <_reset_handler+0x16>
10000122:	f000 f812 	bl	1000014a <data_cpy>
10000126:	e7f9      	b.n	1000011c <_reset_handler+0xa>
10000128:	4920      	ldr	r1, [pc, #128]	; (100001ac <__get_current_exception+0x16>)
1000012a:	4a21      	ldr	r2, [pc, #132]	; (100001b0 <__get_current_exception+0x1a>)
1000012c:	2000      	movs	r0, #0
1000012e:	e000      	b.n	10000132 <bss_fill_test>

10000130 <bss_fill_loop>:
10000130:	c101      	stmia	r1!, {r0}

10000132 <bss_fill_test>:
10000132:	4291      	cmp	r1, r2
10000134:	d1fc      	bne.n	10000130 <bss_fill_loop>

10000136 <platform_entry>:
10000136:	491f      	ldr	r1, [pc, #124]	; (100001b4 <__get_current_exception+0x1e>)
10000138:	4788      	blx	r1
1000013a:	491f      	ldr	r1, [pc, #124]	; (100001b8 <__get_current_exception+0x22>)
1000013c:	4788      	blx	r1
1000013e:	491f      	ldr	r1, [pc, #124]	; (100001bc <__get_current_exception+0x26>)
10000140:	4788      	blx	r1
10000142:	be00      	bkpt	0x0000
10000144:	e7fd      	b.n	10000142 <platform_entry+0xc>

10000146 <data_cpy_loop>:
10000146:	c901      	ldmia	r1!, {r0}
10000148:	c201      	stmia	r2!, {r0}

1000014a <data_cpy>:
1000014a:	429a      	cmp	r2, r3
1000014c:	d3fb      	bcc.n	10000146 <data_cpy_loop>
1000014e:	4770      	bx	lr

10000150 <binary_info_header>:
10000150:	7188ebf2 	.word	0x7188ebf2
10000154:	10004fb0 	.word	0x10004fb0
10000158:	10004fd4 	.word	0x10004fd4
1000015c:	10000164 	.word	0x10000164
10000160:	e71aa390 	.word	0xe71aa390

10000164 <data_cpy_table>:
10000164:	10004fd4 	.word	0x10004fd4
10000168:	200000c0 	.word	0x200000c0
1000016c:	20000a74 	.word	0x20000a74
10000170:	10005988 	.word	0x10005988
10000174:	20040000 	.word	0x20040000
10000178:	20040000 	.word	0x20040000
1000017c:	10005988 	.word	0x10005988
10000180:	20041000 	.word	0x20041000
10000184:	20041000 	.word	0x20041000
10000188:	00000000 	.word	0x00000000
1000018c:	4770      	bx	lr

1000018e <wait_for_vector>:
1000018e:	480c      	ldr	r0, [pc, #48]	; (100001c0 <__get_current_exception+0x2a>)
10000190:	f002 fe94 	bl	10002ebc <rom_func_lookup>
10000194:	4700      	bx	r0

10000196 <__get_current_exception>:
10000196:	f3ef 8005 	mrs	r0, IPSR
1000019a:	b2c0      	uxtb	r0, r0
1000019c:	4770      	bx	lr
1000019e:	0000      	.short	0x0000
100001a0:	10000200 	.word	0x10000200
100001a4:	e000ed00 	.word	0xe000ed00
100001a8:	d0000000 	.word	0xd0000000
100001ac:	20000a74 	.word	0x20000a74
100001b0:	20000d64 	.word	0x20000d64
100001b4:	1000104d 	.word	0x1000104d
100001b8:	10000321 	.word	0x10000321
100001bc:	1000116d 	.word	0x1000116d
100001c0:	00005657 	.word	0x00005657

100001c4 <__bi_46>:
100001c4:	50520006 5360b3ab 10004f1c              ..RP..`S.O..

100001d0 <__bi_34>:
100001d0:	50520006 02031c86 10004f2c              ..RP....,O..

100001dc <__bi_26>:
100001dc:	50520006 9da22254 10004f3c              ..RPT"..<O..

100001e8 <__bi_18>:
100001e8:	50520005 68f465de 10005988 00000000     ..RP.e.h.Y......
	...

10000200 <__reset_end>:
10000200:	20042000 	.word	0x20042000
10000204:	10000113 	.word	0x10000113
10000208:	100002c3 	.word	0x100002c3
1000020c:	100002c5 	.word	0x100002c5
10000210:	100002c1 	.word	0x100002c1
10000214:	100002c1 	.word	0x100002c1
10000218:	100002c1 	.word	0x100002c1
1000021c:	100002c1 	.word	0x100002c1
10000220:	100002c1 	.word	0x100002c1
10000224:	100002c1 	.word	0x100002c1
10000228:	100002c1 	.word	0x100002c1
1000022c:	100002c7 	.word	0x100002c7
10000230:	100002c1 	.word	0x100002c1
10000234:	100002c1 	.word	0x100002c1
10000238:	100002c9 	.word	0x100002c9
1000023c:	100002cb 	.word	0x100002cb
10000240:	100002cd 	.word	0x100002cd
10000244:	100002cd 	.word	0x100002cd
10000248:	100002cd 	.word	0x100002cd
1000024c:	100002cd 	.word	0x100002cd
10000250:	100002cd 	.word	0x100002cd
10000254:	100002cd 	.word	0x100002cd
10000258:	100002cd 	.word	0x100002cd
1000025c:	100002cd 	.word	0x100002cd
10000260:	100002cd 	.word	0x100002cd
10000264:	100002cd 	.word	0x100002cd
10000268:	100002cd 	.word	0x100002cd
1000026c:	100002cd 	.word	0x100002cd
10000270:	100002cd 	.word	0x100002cd
10000274:	100002cd 	.word	0x100002cd
10000278:	100002cd 	.word	0x100002cd
1000027c:	100002cd 	.word	0x100002cd
10000280:	100002cd 	.word	0x100002cd
10000284:	100002cd 	.word	0x100002cd
10000288:	100002cd 	.word	0x100002cd
1000028c:	100002cd 	.word	0x100002cd
10000290:	100002cd 	.word	0x100002cd
10000294:	100002cd 	.word	0x100002cd
10000298:	100002cd 	.word	0x100002cd
1000029c:	100002cd 	.word	0x100002cd
100002a0:	100002cd 	.word	0x100002cd
100002a4:	100002cd 	.word	0x100002cd
100002a8:	100002cd 	.word	0x100002cd
100002ac:	100002cd 	.word	0x100002cd
100002b0:	100002cd 	.word	0x100002cd
100002b4:	100002cd 	.word	0x100002cd
100002b8:	100002cd 	.word	0x100002cd
100002bc:	100002cd 	.word	0x100002cd

100002c0 <isr_invalid>:
100002c0:	be00      	bkpt	0x0000

100002c2 <isr_nmi>:
100002c2:	be00      	bkpt	0x0000

100002c4 <isr_hardfault>:
100002c4:	be00      	bkpt	0x0000

100002c6 <isr_svcall>:
100002c6:	be00      	bkpt	0x0000

100002c8 <isr_pendsv>:
100002c8:	be00      	bkpt	0x0000

100002ca <isr_systick>:
100002ca:	be00      	bkpt	0x0000

100002cc <__unhandled_user_irq>:
100002cc:	f7ff ff63 	bl	10000196 <__get_current_exception>
100002d0:	3810      	subs	r0, #16

100002d2 <unhandled_user_irq_num_in_r0>:
100002d2:	be00      	bkpt	0x0000

100002d4 <_init>:
100002d4:	b5f8      	push	{r3, r4, r5, r6, r7, lr}
100002d6:	46c0      	nop			; (mov r8, r8)

100002d8 <__do_global_dtors_aux>:
100002d8:	b510      	push	{r4, lr}
100002da:	4c06      	ldr	r4, [pc, #24]	; (100002f4 <__do_global_dtors_aux+0x1c>)
100002dc:	7823      	ldrb	r3, [r4, #0]
100002de:	2b00      	cmp	r3, #0
100002e0:	d107      	bne.n	100002f2 <__do_global_dtors_aux+0x1a>
100002e2:	4b05      	ldr	r3, [pc, #20]	; (100002f8 <__do_global_dtors_aux+0x20>)
100002e4:	2b00      	cmp	r3, #0
100002e6:	d002      	beq.n	100002ee <__do_global_dtors_aux+0x16>
100002e8:	4804      	ldr	r0, [pc, #16]	; (100002fc <__do_global_dtors_aux+0x24>)
100002ea:	e000      	b.n	100002ee <__do_global_dtors_aux+0x16>
100002ec:	bf00      	nop
100002ee:	2301      	movs	r3, #1
100002f0:	7023      	strb	r3, [r4, #0]
100002f2:	bd10      	pop	{r4, pc}
100002f4:	20000a74 	.word	0x20000a74
100002f8:	00000000 	.word	0x00000000
100002fc:	10004be8 	.word	0x10004be8

10000300 <frame_dummy>:
10000300:	4b04      	ldr	r3, [pc, #16]	; (10000314 <frame_dummy+0x14>)
10000302:	b510      	push	{r4, lr}
10000304:	2b00      	cmp	r3, #0
10000306:	d003      	beq.n	10000310 <frame_dummy+0x10>
10000308:	4903      	ldr	r1, [pc, #12]	; (10000318 <frame_dummy+0x18>)
1000030a:	4804      	ldr	r0, [pc, #16]	; (1000031c <frame_dummy+0x1c>)
1000030c:	e000      	b.n	10000310 <frame_dummy+0x10>
1000030e:	bf00      	nop
10000310:	bd10      	pop	{r4, pc}
10000312:	46c0      	nop			; (mov r8, r8)
10000314:	00000000 	.word	0x00000000
10000318:	20000a78 	.word	0x20000a78
1000031c:	10004be8 	.word	0x10004be8

10000320 <main>:
10000320:	b5f0      	push	{r4, r5, r6, r7, lr}
10000322:	46c6      	mov	lr, r8
10000324:	b500      	push	{lr}
10000326:	b084      	sub	sp, #16
10000328:	f003 fea8 	bl	1000407c <stdio_init_all>
1000032c:	4e2f      	ldr	r6, [pc, #188]	; (100003ec <main+0xcc>)
1000032e:	4930      	ldr	r1, [pc, #192]	; (100003f0 <main+0xd0>)
10000330:	0030      	movs	r0, r6
10000332:	f003 ff01 	bl	10004138 <i2c_init>
10000336:	2103      	movs	r1, #3
10000338:	2004      	movs	r0, #4
1000033a:	f000 f869 	bl	10000410 <gpio_set_function>
1000033e:	2103      	movs	r1, #3
10000340:	2005      	movs	r0, #5
10000342:	f000 f865 	bl	10000410 <gpio_set_function>
10000346:	2200      	movs	r2, #0
10000348:	2101      	movs	r1, #1
1000034a:	2004      	movs	r0, #4
1000034c:	f000 f878 	bl	10000440 <gpio_set_pulls>
10000350:	2200      	movs	r2, #0
10000352:	2101      	movs	r1, #1
10000354:	2005      	movs	r0, #5
10000356:	f000 f873 	bl	10000440 <gpio_set_pulls>
1000035a:	4826      	ldr	r0, [pc, #152]	; (100003f4 <main+0xd4>)
1000035c:	f003 fdd2 	bl	10003f04 <__wrap_puts>
10000360:	4825      	ldr	r0, [pc, #148]	; (100003f8 <main+0xd8>)
10000362:	f003 fdcf 	bl	10003f04 <__wrap_puts>
10000366:	4b25      	ldr	r3, [pc, #148]	; (100003fc <main+0xdc>)
10000368:	2400      	movs	r4, #0
1000036a:	250f      	movs	r5, #15
1000036c:	4698      	mov	r8, r3
1000036e:	4f24      	ldr	r7, [pc, #144]	; (10000400 <main+0xe0>)
10000370:	4225      	tst	r5, r4
10000372:	d035      	beq.n	100003e0 <main+0xc0>
10000374:	2378      	movs	r3, #120	; 0x78
10000376:	0022      	movs	r2, r4
10000378:	b2e1      	uxtb	r1, r4
1000037a:	401a      	ands	r2, r3
1000037c:	421c      	tst	r4, r3
1000037e:	d020      	beq.n	100003c2 <main+0xa2>
10000380:	2a78      	cmp	r2, #120	; 0x78
10000382:	d01e      	beq.n	100003c2 <main+0xa2>
10000384:	2300      	movs	r3, #0
10000386:	220f      	movs	r2, #15
10000388:	9300      	str	r3, [sp, #0]
1000038a:	0030      	movs	r0, r6
1000038c:	3301      	adds	r3, #1
1000038e:	446a      	add	r2, sp
10000390:	f003 ff26 	bl	100041e0 <i2c_read_blocking>
10000394:	2800      	cmp	r0, #0
10000396:	db14      	blt.n	100003c2 <main+0xa2>
10000398:	4640      	mov	r0, r8
1000039a:	f003 fe63 	bl	10004064 <__wrap_printf>
1000039e:	002b      	movs	r3, r5
100003a0:	4023      	ands	r3, r4
100003a2:	2b0f      	cmp	r3, #15
100003a4:	d014      	beq.n	100003d0 <main+0xb0>
100003a6:	4817      	ldr	r0, [pc, #92]	; (10000404 <main+0xe4>)
100003a8:	3401      	adds	r4, #1
100003aa:	f003 fe5b 	bl	10004064 <__wrap_printf>
100003ae:	2c80      	cmp	r4, #128	; 0x80
100003b0:	d1de      	bne.n	10000370 <main+0x50>
100003b2:	4815      	ldr	r0, [pc, #84]	; (10000408 <main+0xe8>)
100003b4:	f003 fda6 	bl	10003f04 <__wrap_puts>
100003b8:	2000      	movs	r0, #0
100003ba:	b004      	add	sp, #16
100003bc:	bc04      	pop	{r2}
100003be:	4690      	mov	r8, r2
100003c0:	bdf0      	pop	{r4, r5, r6, r7, pc}
100003c2:	4812      	ldr	r0, [pc, #72]	; (1000040c <main+0xec>)
100003c4:	f003 fe4e 	bl	10004064 <__wrap_printf>
100003c8:	002b      	movs	r3, r5
100003ca:	4023      	ands	r3, r4
100003cc:	2b0f      	cmp	r3, #15
100003ce:	d1ea      	bne.n	100003a6 <main+0x86>
100003d0:	200a      	movs	r0, #10
100003d2:	3401      	adds	r4, #1
100003d4:	f003 fd88 	bl	10003ee8 <__wrap_putchar>
100003d8:	2c80      	cmp	r4, #128	; 0x80
100003da:	d0ea      	beq.n	100003b2 <main+0x92>
100003dc:	4225      	tst	r5, r4
100003de:	d1c9      	bne.n	10000374 <main+0x54>
100003e0:	0021      	movs	r1, r4
100003e2:	0038      	movs	r0, r7
100003e4:	f003 fe3e 	bl	10004064 <__wrap_printf>
100003e8:	e7c4      	b.n	10000374 <main+0x54>
100003ea:	46c0      	nop			; (mov r8, r8)
100003ec:	20000214 	.word	0x20000214
100003f0:	000186a0 	.word	0x000186a0
100003f4:	10004bec 	.word	0x10004bec
100003f8:	10004bfc 	.word	0x10004bfc
100003fc:	10004be8 	.word	0x10004be8
10000400:	10004c30 	.word	0x10004c30
10000404:	10004c38 	.word	0x10004c38
10000408:	10004c3c 	.word	0x10004c3c
1000040c:	10004c40 	.word	0x10004c40

10000410 <gpio_set_function>:
10000410:	4a09      	ldr	r2, [pc, #36]	; (10000438 <gpio_set_function+0x28>)
10000412:	0083      	lsls	r3, r0, #2
10000414:	4694      	mov	ip, r2
10000416:	2240      	movs	r2, #64	; 0x40
10000418:	4463      	add	r3, ip
1000041a:	b510      	push	{r4, lr}
1000041c:	681c      	ldr	r4, [r3, #0]
1000041e:	00c0      	lsls	r0, r0, #3
10000420:	4062      	eors	r2, r4
10000422:	24c0      	movs	r4, #192	; 0xc0
10000424:	4014      	ands	r4, r2
10000426:	2280      	movs	r2, #128	; 0x80
10000428:	0152      	lsls	r2, r2, #5
1000042a:	4313      	orrs	r3, r2
1000042c:	601c      	str	r4, [r3, #0]
1000042e:	4b03      	ldr	r3, [pc, #12]	; (1000043c <gpio_set_function+0x2c>)
10000430:	469c      	mov	ip, r3
10000432:	4460      	add	r0, ip
10000434:	6041      	str	r1, [r0, #4]
10000436:	bd10      	pop	{r4, pc}
10000438:	4001c004 	.word	0x4001c004
1000043c:	40014000 	.word	0x40014000

10000440 <gpio_set_pulls>:
10000440:	4b0a      	ldr	r3, [pc, #40]	; (1000046c <gpio_set_pulls+0x2c>)
10000442:	0080      	lsls	r0, r0, #2
10000444:	469c      	mov	ip, r3
10000446:	2304      	movs	r3, #4
10000448:	4460      	add	r0, ip
1000044a:	2900      	cmp	r1, #0
1000044c:	d001      	beq.n	10000452 <gpio_set_pulls+0x12>
1000044e:	2108      	movs	r1, #8
10000450:	230c      	movs	r3, #12
10000452:	2a00      	cmp	r2, #0
10000454:	d100      	bne.n	10000458 <gpio_set_pulls+0x18>
10000456:	000b      	movs	r3, r1
10000458:	6802      	ldr	r2, [r0, #0]
1000045a:	4053      	eors	r3, r2
1000045c:	220c      	movs	r2, #12
1000045e:	401a      	ands	r2, r3
10000460:	2380      	movs	r3, #128	; 0x80
10000462:	015b      	lsls	r3, r3, #5
10000464:	4318      	orrs	r0, r3
10000466:	6002      	str	r2, [r0, #0]
10000468:	4770      	bx	lr
1000046a:	46c0      	nop			; (mov r8, r8)
1000046c:	4001c004 	.word	0x4001c004

10000470 <hw_claim_or_assert>:
10000470:	b5f8      	push	{r3, r4, r5, r6, r7, lr}
10000472:	46ce      	mov	lr, r9
10000474:	4647      	mov	r7, r8
10000476:	4691      	mov	r9, r2
10000478:	b580      	push	{r7, lr}
1000047a:	f3ef 8710 	mrs	r7, PRIMASK
1000047e:	b672      	cpsid	i
10000480:	4e12      	ldr	r6, [pc, #72]	; (100004cc <hw_claim_or_assert+0x5c>)
10000482:	6833      	ldr	r3, [r6, #0]
10000484:	2b00      	cmp	r3, #0
10000486:	d0fc      	beq.n	10000482 <hw_claim_or_assert+0x12>
10000488:	f3bf 8f5f 	dmb	sy
1000048c:	08cb      	lsrs	r3, r1, #3
1000048e:	5cc5      	ldrb	r5, [r0, r3]
10000490:	2407      	movs	r4, #7
10000492:	18c2      	adds	r2, r0, r3
10000494:	0028      	movs	r0, r5
10000496:	2301      	movs	r3, #1
10000498:	400c      	ands	r4, r1
1000049a:	4694      	mov	ip, r2
1000049c:	40e0      	lsrs	r0, r4
1000049e:	001a      	movs	r2, r3
100004a0:	4002      	ands	r2, r0
100004a2:	4690      	mov	r8, r2
100004a4:	4203      	tst	r3, r0
100004a6:	d10d      	bne.n	100004c4 <hw_claim_or_assert+0x54>
100004a8:	40a3      	lsls	r3, r4
100004aa:	4662      	mov	r2, ip
100004ac:	432b      	orrs	r3, r5
100004ae:	7013      	strb	r3, [r2, #0]
100004b0:	f3bf 8f5f 	dmb	sy
100004b4:	4643      	mov	r3, r8
100004b6:	6033      	str	r3, [r6, #0]
100004b8:	f387 8810 	msr	PRIMASK, r7
100004bc:	bc0c      	pop	{r2, r3}
100004be:	4690      	mov	r8, r2
100004c0:	4699      	mov	r9, r3
100004c2:	bdf8      	pop	{r3, r4, r5, r6, r7, pc}
100004c4:	4648      	mov	r0, r9
100004c6:	f000 fe53 	bl	10001170 <panic>
100004ca:	46c0      	nop			; (mov r8, r8)
100004cc:	d000012c 	.word	0xd000012c

100004d0 <spin_locks_reset>:
100004d0:	2100      	movs	r1, #0
100004d2:	4b04      	ldr	r3, [pc, #16]	; (100004e4 <spin_locks_reset+0x14>)
100004d4:	4a04      	ldr	r2, [pc, #16]	; (100004e8 <spin_locks_reset+0x18>)
100004d6:	f3bf 8f5f 	dmb	sy
100004da:	c302      	stmia	r3!, {r1}
100004dc:	4293      	cmp	r3, r2
100004de:	d1fa      	bne.n	100004d6 <spin_locks_reset+0x6>
100004e0:	4770      	bx	lr
100004e2:	46c0      	nop			; (mov r8, r8)
100004e4:	d0000100 	.word	0xd0000100
100004e8:	d0000180 	.word	0xd0000180

100004ec <next_striped_spin_lock_num>:
100004ec:	4a04      	ldr	r2, [pc, #16]	; (10000500 <next_striped_spin_lock_num+0x14>)
100004ee:	7810      	ldrb	r0, [r2, #0]
100004f0:	1c43      	adds	r3, r0, #1
100004f2:	b2db      	uxtb	r3, r3
100004f4:	2b17      	cmp	r3, #23
100004f6:	d900      	bls.n	100004fa <next_striped_spin_lock_num+0xe>
100004f8:	2310      	movs	r3, #16
100004fa:	7013      	strb	r3, [r2, #0]
100004fc:	4770      	bx	lr
100004fe:	46c0      	nop			; (mov r8, r8)
10000500:	20000188 	.word	0x20000188

10000504 <running_on_fpga>:
10000504:	4b02      	ldr	r3, [pc, #8]	; (10000510 <running_on_fpga+0xc>)
10000506:	6818      	ldr	r0, [r3, #0]
10000508:	0780      	lsls	r0, r0, #30
1000050a:	0fc0      	lsrs	r0, r0, #31
1000050c:	4770      	bx	lr
1000050e:	46c0      	nop			; (mov r8, r8)
10000510:	4006c000 	.word	0x4006c000

10000514 <uart_init>:
10000514:	b5f0      	push	{r4, r5, r6, r7, lr}
10000516:	46c6      	mov	lr, r8
10000518:	0005      	movs	r5, r0
1000051a:	b500      	push	{lr}
1000051c:	2006      	movs	r0, #6
1000051e:	000e      	movs	r6, r1
10000520:	f000 ffb4 	bl	1000148c <clock_get_hz>
10000524:	2800      	cmp	r0, #0
10000526:	d04d      	beq.n	100005c4 <uart_init+0xb0>
10000528:	4b29      	ldr	r3, [pc, #164]	; (100005d0 <uart_init+0xbc>)
1000052a:	492a      	ldr	r1, [pc, #168]	; (100005d4 <uart_init+0xc0>)
1000052c:	18eb      	adds	r3, r5, r3
1000052e:	425a      	negs	r2, r3
10000530:	4153      	adcs	r3, r2
10000532:	2280      	movs	r2, #128	; 0x80
10000534:	03d2      	lsls	r2, r2, #15
10000536:	4694      	mov	ip, r2
10000538:	425b      	negs	r3, r3
1000053a:	4013      	ands	r3, r2
1000053c:	4a26      	ldr	r2, [pc, #152]	; (100005d8 <uart_init+0xc4>)
1000053e:	4463      	add	r3, ip
10000540:	6013      	str	r3, [r2, #0]
10000542:	4a26      	ldr	r2, [pc, #152]	; (100005dc <uart_init+0xc8>)
10000544:	6013      	str	r3, [r2, #0]
10000546:	001c      	movs	r4, r3
10000548:	688a      	ldr	r2, [r1, #8]
1000054a:	4394      	bics	r4, r2
1000054c:	d1fb      	bne.n	10000546 <uart_init+0x32>
1000054e:	4b20      	ldr	r3, [pc, #128]	; (100005d0 <uart_init+0xbc>)
10000550:	2180      	movs	r1, #128	; 0x80
10000552:	18eb      	adds	r3, r5, r3
10000554:	425a      	negs	r2, r3
10000556:	4153      	adcs	r3, r2
10000558:	4a21      	ldr	r2, [pc, #132]	; (100005e0 <uart_init+0xcc>)
1000055a:	005b      	lsls	r3, r3, #1
1000055c:	0049      	lsls	r1, r1, #1
1000055e:	2006      	movs	r0, #6
10000560:	5299      	strh	r1, [r3, r2]
10000562:	f000 ff93 	bl	1000148c <clock_get_hz>
10000566:	0031      	movs	r1, r6
10000568:	00c0      	lsls	r0, r0, #3
1000056a:	f002 fd01 	bl	10002f70 <__wrap___aeabi_uidiv>
1000056e:	267f      	movs	r6, #127	; 0x7f
10000570:	4b1c      	ldr	r3, [pc, #112]	; (100005e4 <uart_init+0xd0>)
10000572:	4006      	ands	r6, r0
10000574:	09c7      	lsrs	r7, r0, #7
10000576:	3601      	adds	r6, #1
10000578:	0876      	lsrs	r6, r6, #1
1000057a:	626f      	str	r7, [r5, #36]	; 0x24
1000057c:	429f      	cmp	r7, r3
1000057e:	d024      	beq.n	100005ca <uart_init+0xb6>
10000580:	62ae      	str	r6, [r5, #40]	; 0x28
10000582:	232c      	movs	r3, #44	; 0x2c
10000584:	4698      	mov	r8, r3
10000586:	2480      	movs	r4, #128	; 0x80
10000588:	44a8      	add	r8, r5
1000058a:	4643      	mov	r3, r8
1000058c:	01a4      	lsls	r4, r4, #6
1000058e:	431c      	orrs	r4, r3
10000590:	2300      	movs	r3, #0
10000592:	2006      	movs	r0, #6
10000594:	6023      	str	r3, [r4, #0]
10000596:	f000 ff79 	bl	1000148c <clock_get_hz>
1000059a:	01b9      	lsls	r1, r7, #6
1000059c:	1989      	adds	r1, r1, r6
1000059e:	0080      	lsls	r0, r0, #2
100005a0:	f002 fce6 	bl	10002f70 <__wrap___aeabi_uidiv>
100005a4:	2360      	movs	r3, #96	; 0x60
100005a6:	6aea      	ldr	r2, [r5, #44]	; 0x2c
100005a8:	4641      	mov	r1, r8
100005aa:	4053      	eors	r3, r2
100005ac:	226e      	movs	r2, #110	; 0x6e
100005ae:	401a      	ands	r2, r3
100005b0:	2380      	movs	r3, #128	; 0x80
100005b2:	015b      	lsls	r3, r3, #5
100005b4:	430b      	orrs	r3, r1
100005b6:	601a      	str	r2, [r3, #0]
100005b8:	4b0b      	ldr	r3, [pc, #44]	; (100005e8 <uart_init+0xd4>)
100005ba:	632b      	str	r3, [r5, #48]	; 0x30
100005bc:	2310      	movs	r3, #16
100005be:	6023      	str	r3, [r4, #0]
100005c0:	3b0d      	subs	r3, #13
100005c2:	64ab      	str	r3, [r5, #72]	; 0x48
100005c4:	bc04      	pop	{r2}
100005c6:	4690      	mov	r8, r2
100005c8:	bdf0      	pop	{r4, r5, r6, r7, pc}
100005ca:	62ac      	str	r4, [r5, #40]	; 0x28
100005cc:	e7d9      	b.n	10000582 <uart_init+0x6e>
100005ce:	46c0      	nop			; (mov r8, r8)
100005d0:	bffc8000 	.word	0xbffc8000
100005d4:	4000c000 	.word	0x4000c000
100005d8:	4000e000 	.word	0x4000e000
100005dc:	4000f000 	.word	0x4000f000
100005e0:	20000b34 	.word	0x20000b34
100005e4:	0000ffff 	.word	0x0000ffff
100005e8:	00000301 	.word	0x00000301

100005ec <timer_pool_entry_comparator>:
100005ec:	6883      	ldr	r3, [r0, #8]
100005ee:	480b      	ldr	r0, [pc, #44]	; (1000061c <timer_pool_entry_comparator+0x30>)
100005f0:	b510      	push	{r4, lr}
100005f2:	4684      	mov	ip, r0
100005f4:	4461      	add	r1, ip
100005f6:	4462      	add	r2, ip
100005f8:	0109      	lsls	r1, r1, #4
100005fa:	0112      	lsls	r2, r2, #4
100005fc:	189a      	adds	r2, r3, r2
100005fe:	1859      	adds	r1, r3, r1
10000600:	6854      	ldr	r4, [r2, #4]
10000602:	684b      	ldr	r3, [r1, #4]
10000604:	2001      	movs	r0, #1
10000606:	429c      	cmp	r4, r3
10000608:	d801      	bhi.n	1000060e <timer_pool_entry_comparator+0x22>
1000060a:	d002      	beq.n	10000612 <timer_pool_entry_comparator+0x26>
1000060c:	2000      	movs	r0, #0
1000060e:	b2c0      	uxtb	r0, r0
10000610:	bd10      	pop	{r4, pc}
10000612:	6812      	ldr	r2, [r2, #0]
10000614:	680b      	ldr	r3, [r1, #0]
10000616:	429a      	cmp	r2, r3
10000618:	d8f9      	bhi.n	1000060e <timer_pool_entry_comparator+0x22>
1000061a:	e7f7      	b.n	1000060c <timer_pool_entry_comparator+0x20>
1000061c:	0fffffff 	.word	0x0fffffff

10000620 <add_alarm_under_lock>:
10000620:	b5f0      	push	{r4, r5, r6, r7, lr}
10000622:	4657      	mov	r7, sl
10000624:	4645      	mov	r5, r8
10000626:	46de      	mov	lr, fp
10000628:	464e      	mov	r6, r9
1000062a:	b5e0      	push	{r5, r6, r7, lr}
1000062c:	b083      	sub	sp, #12
1000062e:	001f      	movs	r7, r3
10000630:	ab0f      	add	r3, sp, #60	; 0x3c
10000632:	781b      	ldrb	r3, [r3, #0]
10000634:	9c0e      	ldr	r4, [sp, #56]	; 0x38
10000636:	0005      	movs	r5, r0
10000638:	4692      	mov	sl, r2
1000063a:	9301      	str	r3, [sp, #4]
1000063c:	2c00      	cmp	r4, #0
1000063e:	d10d      	bne.n	1000065c <add_alarm_under_lock+0x3c>
10000640:	6802      	ldr	r2, [r0, #0]
10000642:	7b94      	ldrb	r4, [r2, #14]
10000644:	2c00      	cmp	r4, #0
10000646:	d056      	beq.n	100006f6 <add_alarm_under_lock+0xd6>
10000648:	6811      	ldr	r1, [r2, #0]
1000064a:	0063      	lsls	r3, r4, #1
1000064c:	468c      	mov	ip, r1
1000064e:	191b      	adds	r3, r3, r4
10000650:	4463      	add	r3, ip
10000652:	3b03      	subs	r3, #3
10000654:	785b      	ldrb	r3, [r3, #1]
10000656:	7393      	strb	r3, [r2, #14]
10000658:	2b00      	cmp	r3, #0
1000065a:	d054      	beq.n	10000706 <add_alarm_under_lock+0xe6>
1000065c:	68aa      	ldr	r2, [r5, #8]
1000065e:	b2e3      	uxtb	r3, r4
10000660:	4694      	mov	ip, r2
10000662:	4652      	mov	r2, sl
10000664:	469b      	mov	fp, r3
10000666:	4b38      	ldr	r3, [pc, #224]	; (10000748 <add_alarm_under_lock+0x128>)
10000668:	682e      	ldr	r6, [r5, #0]
1000066a:	18e3      	adds	r3, r4, r3
1000066c:	011b      	lsls	r3, r3, #4
1000066e:	4463      	add	r3, ip
10000670:	601a      	str	r2, [r3, #0]
10000672:	9a0c      	ldr	r2, [sp, #48]	; 0x30
10000674:	605f      	str	r7, [r3, #4]
10000676:	609a      	str	r2, [r3, #8]
10000678:	9a0d      	ldr	r2, [sp, #52]	; 0x34
1000067a:	60da      	str	r2, [r3, #12]
1000067c:	23d0      	movs	r3, #208	; 0xd0
1000067e:	2280      	movs	r2, #128	; 0x80
10000680:	061b      	lsls	r3, r3, #24
10000682:	0312      	lsls	r2, r2, #12
10000684:	615a      	str	r2, [r3, #20]
10000686:	0063      	lsls	r3, r4, #1
10000688:	191b      	adds	r3, r3, r4
1000068a:	3b03      	subs	r3, #3
1000068c:	4698      	mov	r8, r3
1000068e:	2200      	movs	r2, #0
10000690:	6833      	ldr	r3, [r6, #0]
10000692:	4443      	add	r3, r8
10000694:	709a      	strb	r2, [r3, #2]
10000696:	705a      	strb	r2, [r3, #1]
10000698:	701a      	strb	r2, [r3, #0]
1000069a:	7b73      	ldrb	r3, [r6, #13]
1000069c:	4699      	mov	r9, r3
1000069e:	2b00      	cmp	r3, #0
100006a0:	d017      	beq.n	100006d2 <add_alarm_under_lock+0xb2>
100006a2:	465a      	mov	r2, fp
100006a4:	0019      	movs	r1, r3
100006a6:	68b0      	ldr	r0, [r6, #8]
100006a8:	6873      	ldr	r3, [r6, #4]
100006aa:	4798      	blx	r3
100006ac:	6832      	ldr	r2, [r6, #0]
100006ae:	2800      	cmp	r0, #0
100006b0:	d12b      	bne.n	1000070a <add_alarm_under_lock+0xea>
100006b2:	4643      	mov	r3, r8
100006b4:	18d1      	adds	r1, r2, r3
100006b6:	464b      	mov	r3, r9
100006b8:	4658      	mov	r0, fp
100006ba:	005b      	lsls	r3, r3, #1
100006bc:	444b      	add	r3, r9
100006be:	3b03      	subs	r3, #3
100006c0:	18d3      	adds	r3, r2, r3
100006c2:	7098      	strb	r0, [r3, #2]
100006c4:	4640      	mov	r0, r8
100006c6:	5c12      	ldrb	r2, [r2, r0]
100006c8:	2a00      	cmp	r2, #0
100006ca:	d000      	beq.n	100006ce <add_alarm_under_lock+0xae>
100006cc:	705a      	strb	r2, [r3, #1]
100006ce:	464b      	mov	r3, r9
100006d0:	700b      	strb	r3, [r1, #0]
100006d2:	465b      	mov	r3, fp
100006d4:	7373      	strb	r3, [r6, #13]
100006d6:	4652      	mov	r2, sl
100006d8:	003b      	movs	r3, r7
100006da:	7d28      	ldrb	r0, [r5, #20]
100006dc:	f000 fa1a 	bl	10000b14 <hardware_alarm_set_target>
100006e0:	1e06      	subs	r6, r0, #0
100006e2:	d002      	beq.n	100006ea <add_alarm_under_lock+0xca>
100006e4:	9b01      	ldr	r3, [sp, #4]
100006e6:	2b00      	cmp	r3, #0
100006e8:	d026      	beq.n	10000738 <add_alarm_under_lock+0x118>
100006ea:	9b10      	ldr	r3, [sp, #64]	; 0x40
100006ec:	2b00      	cmp	r3, #0
100006ee:	d028      	beq.n	10000742 <add_alarm_under_lock+0x122>
100006f0:	0020      	movs	r0, r4
100006f2:	701e      	strb	r6, [r3, #0]
100006f4:	e000      	b.n	100006f8 <add_alarm_under_lock+0xd8>
100006f6:	2000      	movs	r0, #0
100006f8:	b003      	add	sp, #12
100006fa:	bc3c      	pop	{r2, r3, r4, r5}
100006fc:	4690      	mov	r8, r2
100006fe:	4699      	mov	r9, r3
10000700:	46a2      	mov	sl, r4
10000702:	46ab      	mov	fp, r5
10000704:	bdf0      	pop	{r4, r5, r6, r7, pc}
10000706:	73d3      	strb	r3, [r2, #15]
10000708:	e7a8      	b.n	1000065c <add_alarm_under_lock+0x3c>
1000070a:	464b      	mov	r3, r9
1000070c:	005b      	lsls	r3, r3, #1
1000070e:	444b      	add	r3, r9
10000710:	3b03      	subs	r3, #3
10000712:	18d1      	adds	r1, r2, r3
10000714:	468c      	mov	ip, r1
10000716:	4641      	mov	r1, r8
10000718:	4648      	mov	r0, r9
1000071a:	1851      	adds	r1, r2, r1
1000071c:	7088      	strb	r0, [r1, #2]
1000071e:	5cd3      	ldrb	r3, [r2, r3]
10000720:	2b00      	cmp	r3, #0
10000722:	d000      	beq.n	10000726 <add_alarm_under_lock+0x106>
10000724:	704b      	strb	r3, [r1, #1]
10000726:	465b      	mov	r3, fp
10000728:	4662      	mov	r2, ip
1000072a:	7013      	strb	r3, [r2, #0]
1000072c:	464b      	mov	r3, r9
1000072e:	0020      	movs	r0, r4
10000730:	7373      	strb	r3, [r6, #13]
10000732:	45a1      	cmp	r9, r4
10000734:	d1e0      	bne.n	100006f8 <add_alarm_under_lock+0xd8>
10000736:	e7ce      	b.n	100006d6 <add_alarm_under_lock+0xb6>
10000738:	4659      	mov	r1, fp
1000073a:	6828      	ldr	r0, [r5, #0]
1000073c:	f000 fc48 	bl	10000fd0 <ph_delete>
10000740:	e7d3      	b.n	100006ea <add_alarm_under_lock+0xca>
10000742:	0020      	movs	r0, r4
10000744:	e7d8      	b.n	100006f8 <add_alarm_under_lock+0xd8>
10000746:	46c0      	nop			; (mov r8, r8)
10000748:	0fffffff 	.word	0x0fffffff

1000074c <alarm_pool_alarm_callback>:
1000074c:	b5f0      	push	{r4, r5, r6, r7, lr}
1000074e:	46de      	mov	lr, fp
10000750:	464e      	mov	r6, r9
10000752:	4657      	mov	r7, sl
10000754:	4645      	mov	r5, r8
10000756:	2300      	movs	r3, #0
10000758:	b5e0      	push	{r5, r6, r7, lr}
1000075a:	b08d      	sub	sp, #52	; 0x34
1000075c:	930a      	str	r3, [sp, #40]	; 0x28
1000075e:	4b71      	ldr	r3, [pc, #452]	; (10000924 <alarm_pool_alarm_callback+0x1d8>)
10000760:	0082      	lsls	r2, r0, #2
10000762:	58d3      	ldr	r3, [r2, r3]
10000764:	900b      	str	r0, [sp, #44]	; 0x2c
10000766:	4699      	mov	r9, r3
10000768:	2300      	movs	r3, #0
1000076a:	469b      	mov	fp, r3
1000076c:	464b      	mov	r3, r9
1000076e:	9307      	str	r3, [sp, #28]
10000770:	f000 f980 	bl	10000a74 <time_us_64>
10000774:	9c07      	ldr	r4, [sp, #28]
10000776:	0006      	movs	r6, r0
10000778:	000f      	movs	r7, r1
1000077a:	6862      	ldr	r2, [r4, #4]
1000077c:	f3ef 8510 	mrs	r5, PRIMASK
10000780:	b672      	cpsid	i
10000782:	6813      	ldr	r3, [r2, #0]
10000784:	2b00      	cmp	r3, #0
10000786:	d0fc      	beq.n	10000782 <alarm_pool_alarm_callback+0x36>
10000788:	0022      	movs	r2, r4
1000078a:	9407      	str	r4, [sp, #28]
1000078c:	f3bf 8f5f 	dmb	sy
10000790:	6824      	ldr	r4, [r4, #0]
10000792:	7b63      	ldrb	r3, [r4, #13]
10000794:	4699      	mov	r9, r3
10000796:	2b00      	cmp	r3, #0
10000798:	d100      	bne.n	1000079c <alarm_pool_alarm_callback+0x50>
1000079a:	e070      	b.n	1000087e <alarm_pool_alarm_callback+0x132>
1000079c:	6892      	ldr	r2, [r2, #8]
1000079e:	4b62      	ldr	r3, [pc, #392]	; (10000928 <alarm_pool_alarm_callback+0x1dc>)
100007a0:	4690      	mov	r8, r2
100007a2:	444b      	add	r3, r9
100007a4:	011b      	lsls	r3, r3, #4
100007a6:	4498      	add	r8, r3
100007a8:	4643      	mov	r3, r8
100007aa:	681a      	ldr	r2, [r3, #0]
100007ac:	685b      	ldr	r3, [r3, #4]
100007ae:	0010      	movs	r0, r2
100007b0:	0019      	movs	r1, r3
100007b2:	1b80      	subs	r0, r0, r6
100007b4:	41b9      	sbcs	r1, r7
100007b6:	2900      	cmp	r1, #0
100007b8:	dd68      	ble.n	1000088c <alarm_pool_alarm_callback+0x140>
100007ba:	980b      	ldr	r0, [sp, #44]	; 0x2c
100007bc:	f000 f9aa 	bl	10000b14 <hardware_alarm_set_target>
100007c0:	2300      	movs	r3, #0
100007c2:	2600      	movs	r6, #0
100007c4:	4698      	mov	r8, r3
100007c6:	2700      	movs	r7, #0
100007c8:	469a      	mov	sl, r3
100007ca:	9c07      	ldr	r4, [sp, #28]
100007cc:	6863      	ldr	r3, [r4, #4]
100007ce:	f3bf 8f5f 	dmb	sy
100007d2:	465a      	mov	r2, fp
100007d4:	601a      	str	r2, [r3, #0]
100007d6:	f385 8810 	msr	PRIMASK, r5
100007da:	4653      	mov	r3, sl
100007dc:	2b00      	cmp	r3, #0
100007de:	d108      	bne.n	100007f2 <alarm_pool_alarm_callback+0xa6>
100007e0:	2800      	cmp	r0, #0
100007e2:	d1c5      	bne.n	10000770 <alarm_pool_alarm_callback+0x24>
100007e4:	b00d      	add	sp, #52	; 0x34
100007e6:	bc3c      	pop	{r2, r3, r4, r5}
100007e8:	4690      	mov	r8, r2
100007ea:	4699      	mov	r9, r3
100007ec:	46a2      	mov	sl, r4
100007ee:	46ab      	mov	fp, r5
100007f0:	bdf0      	pop	{r4, r5, r6, r7, pc}
100007f2:	23d0      	movs	r3, #208	; 0xd0
100007f4:	2280      	movs	r2, #128	; 0x80
100007f6:	2180      	movs	r1, #128	; 0x80
100007f8:	061b      	lsls	r3, r3, #24
100007fa:	0392      	lsls	r2, r2, #14
100007fc:	0309      	lsls	r1, r1, #12
100007fe:	615a      	str	r2, [r3, #20]
10000800:	6199      	str	r1, [r3, #24]
10000802:	619a      	str	r2, [r3, #24]
10000804:	9b0a      	ldr	r3, [sp, #40]	; 0x28
10000806:	4641      	mov	r1, r8
10000808:	0218      	lsls	r0, r3, #8
1000080a:	464b      	mov	r3, r9
1000080c:	4318      	orrs	r0, r3
1000080e:	47d0      	blx	sl
10000810:	9008      	str	r0, [sp, #32]
10000812:	9109      	str	r1, [sp, #36]	; 0x24
10000814:	6862      	ldr	r2, [r4, #4]
10000816:	f3ef 8510 	mrs	r5, PRIMASK
1000081a:	b672      	cpsid	i
1000081c:	6813      	ldr	r3, [r2, #0]
1000081e:	2b00      	cmp	r3, #0
10000820:	d0fc      	beq.n	1000081c <alarm_pool_alarm_callback+0xd0>
10000822:	9407      	str	r4, [sp, #28]
10000824:	f3bf 8f5f 	dmb	sy
10000828:	9908      	ldr	r1, [sp, #32]
1000082a:	9a09      	ldr	r2, [sp, #36]	; 0x24
1000082c:	2a00      	cmp	r2, #0
1000082e:	db49      	blt.n	100008c4 <alarm_pool_alarm_callback+0x178>
10000830:	4311      	orrs	r1, r2
10000832:	d003      	beq.n	1000083c <alarm_pool_alarm_callback+0xf0>
10000834:	9b07      	ldr	r3, [sp, #28]
10000836:	691b      	ldr	r3, [r3, #16]
10000838:	2b00      	cmp	r3, #0
1000083a:	d15e      	bne.n	100008fa <alarm_pool_alarm_callback+0x1ae>
1000083c:	9b07      	ldr	r3, [sp, #28]
1000083e:	681b      	ldr	r3, [r3, #0]
10000840:	7bda      	ldrb	r2, [r3, #15]
10000842:	2a00      	cmp	r2, #0
10000844:	d007      	beq.n	10000856 <alarm_pool_alarm_callback+0x10a>
10000846:	0051      	lsls	r1, r2, #1
10000848:	188a      	adds	r2, r1, r2
1000084a:	6819      	ldr	r1, [r3, #0]
1000084c:	468c      	mov	ip, r1
1000084e:	4649      	mov	r1, r9
10000850:	4462      	add	r2, ip
10000852:	3a03      	subs	r2, #3
10000854:	7051      	strb	r1, [r2, #1]
10000856:	464a      	mov	r2, r9
10000858:	73da      	strb	r2, [r3, #15]
1000085a:	464b      	mov	r3, r9
1000085c:	9a07      	ldr	r2, [sp, #28]
1000085e:	3b01      	subs	r3, #1
10000860:	68d1      	ldr	r1, [r2, #12]
10000862:	5cca      	ldrb	r2, [r1, r3]
10000864:	3201      	adds	r2, #1
10000866:	54ca      	strb	r2, [r1, r3]
10000868:	465b      	mov	r3, fp
1000086a:	9a07      	ldr	r2, [sp, #28]
1000086c:	6113      	str	r3, [r2, #16]
1000086e:	6853      	ldr	r3, [r2, #4]
10000870:	f3bf 8f5f 	dmb	sy
10000874:	465a      	mov	r2, fp
10000876:	601a      	str	r2, [r3, #0]
10000878:	f385 8810 	msr	PRIMASK, r5
1000087c:	e778      	b.n	10000770 <alarm_pool_alarm_callback+0x24>
1000087e:	2300      	movs	r3, #0
10000880:	2600      	movs	r6, #0
10000882:	4698      	mov	r8, r3
10000884:	2700      	movs	r7, #0
10000886:	469a      	mov	sl, r3
10000888:	2000      	movs	r0, #0
1000088a:	e79e      	b.n	100007ca <alarm_pool_alarm_callback+0x7e>
1000088c:	2900      	cmp	r1, #0
1000088e:	d102      	bne.n	10000896 <alarm_pool_alarm_callback+0x14a>
10000890:	2800      	cmp	r0, #0
10000892:	d000      	beq.n	10000896 <alarm_pool_alarm_callback+0x14a>
10000894:	e791      	b.n	100007ba <alarm_pool_alarm_callback+0x6e>
10000896:	2101      	movs	r1, #1
10000898:	0020      	movs	r0, r4
1000089a:	f000 fafb 	bl	10000e94 <ph_remove_head_reserve>
1000089e:	4643      	mov	r3, r8
100008a0:	681e      	ldr	r6, [r3, #0]
100008a2:	685f      	ldr	r7, [r3, #4]
100008a4:	689b      	ldr	r3, [r3, #8]
100008a6:	9a07      	ldr	r2, [sp, #28]
100008a8:	469a      	mov	sl, r3
100008aa:	4643      	mov	r3, r8
100008ac:	68db      	ldr	r3, [r3, #12]
100008ae:	4698      	mov	r8, r3
100008b0:	68d3      	ldr	r3, [r2, #12]
100008b2:	444b      	add	r3, r9
100008b4:	3b01      	subs	r3, #1
100008b6:	781b      	ldrb	r3, [r3, #0]
100008b8:	930a      	str	r3, [sp, #40]	; 0x28
100008ba:	021b      	lsls	r3, r3, #8
100008bc:	4303      	orrs	r3, r0
100008be:	6113      	str	r3, [r2, #16]
100008c0:	2000      	movs	r0, #0
100008c2:	e782      	b.n	100007ca <alarm_pool_alarm_callback+0x7e>
100008c4:	6923      	ldr	r3, [r4, #16]
100008c6:	2b00      	cmp	r3, #0
100008c8:	d0b8      	beq.n	1000083c <alarm_pool_alarm_callback+0xf0>
100008ca:	0033      	movs	r3, r6
100008cc:	003c      	movs	r4, r7
100008ce:	1a5b      	subs	r3, r3, r1
100008d0:	4194      	sbcs	r4, r2
100008d2:	001a      	movs	r2, r3
100008d4:	0023      	movs	r3, r4
100008d6:	42a7      	cmp	r7, r4
100008d8:	d819      	bhi.n	1000090e <alarm_pool_alarm_callback+0x1c2>
100008da:	429f      	cmp	r7, r3
100008dc:	d01b      	beq.n	10000916 <alarm_pool_alarm_callback+0x1ca>
100008de:	4659      	mov	r1, fp
100008e0:	9104      	str	r1, [sp, #16]
100008e2:	2101      	movs	r1, #1
100008e4:	9103      	str	r1, [sp, #12]
100008e6:	4649      	mov	r1, r9
100008e8:	9102      	str	r1, [sp, #8]
100008ea:	4641      	mov	r1, r8
100008ec:	9101      	str	r1, [sp, #4]
100008ee:	4651      	mov	r1, sl
100008f0:	9807      	ldr	r0, [sp, #28]
100008f2:	9100      	str	r1, [sp, #0]
100008f4:	f7ff fe94 	bl	10000620 <add_alarm_under_lock>
100008f8:	e7b6      	b.n	10000868 <alarm_pool_alarm_callback+0x11c>
100008fa:	f000 f8bb 	bl	10000a74 <time_us_64>
100008fe:	9a08      	ldr	r2, [sp, #32]
10000900:	9b09      	ldr	r3, [sp, #36]	; 0x24
10000902:	0006      	movs	r6, r0
10000904:	000f      	movs	r7, r1
10000906:	1992      	adds	r2, r2, r6
10000908:	417b      	adcs	r3, r7
1000090a:	4299      	cmp	r1, r3
1000090c:	d9e5      	bls.n	100008da <alarm_pool_alarm_callback+0x18e>
1000090e:	2201      	movs	r2, #1
10000910:	4252      	negs	r2, r2
10000912:	17d3      	asrs	r3, r2, #31
10000914:	e7e3      	b.n	100008de <alarm_pool_alarm_callback+0x192>
10000916:	4296      	cmp	r6, r2
10000918:	d9e1      	bls.n	100008de <alarm_pool_alarm_callback+0x192>
1000091a:	2201      	movs	r2, #1
1000091c:	4252      	negs	r2, r2
1000091e:	17d3      	asrs	r3, r2, #31
10000920:	e7dd      	b.n	100008de <alarm_pool_alarm_callback+0x192>
10000922:	46c0      	nop			; (mov r8, r8)
10000924:	20000b10 	.word	0x20000b10
10000928:	0fffffff 	.word	0x0fffffff

1000092c <alarm_pool_init_default>:
1000092c:	b570      	push	{r4, r5, r6, lr}
1000092e:	4c18      	ldr	r4, [pc, #96]	; (10000990 <alarm_pool_init_default+0x64>)
10000930:	6823      	ldr	r3, [r4, #0]
10000932:	2b00      	cmp	r3, #0
10000934:	d000      	beq.n	10000938 <alarm_pool_init_default+0xc>
10000936:	bd70      	pop	{r4, r5, r6, pc}
10000938:	2003      	movs	r0, #3
1000093a:	f000 f88f 	bl	10000a5c <hardware_alarm_claim>
1000093e:	2003      	movs	r0, #3
10000940:	f000 f94a 	bl	10000bd8 <hardware_alarm_cancel>
10000944:	4913      	ldr	r1, [pc, #76]	; (10000994 <alarm_pool_init_default+0x68>)
10000946:	2003      	movs	r0, #3
10000948:	f000 f89e 	bl	10000a88 <hardware_alarm_set_callback>
1000094c:	2018      	movs	r0, #24
1000094e:	f003 f9b1 	bl	10003cb4 <__wrap_malloc>
10000952:	0005      	movs	r5, r0
10000954:	f7ff fdca 	bl	100004ec <next_striped_spin_lock_num>
10000958:	4b0f      	ldr	r3, [pc, #60]	; (10000998 <alarm_pool_init_default+0x6c>)
1000095a:	002a      	movs	r2, r5
1000095c:	469c      	mov	ip, r3
1000095e:	4460      	add	r0, ip
10000960:	0080      	lsls	r0, r0, #2
10000962:	490e      	ldr	r1, [pc, #56]	; (1000099c <alarm_pool_init_default+0x70>)
10000964:	6068      	str	r0, [r5, #4]
10000966:	2010      	movs	r0, #16
10000968:	f000 f99e 	bl	10000ca8 <ph_create>
1000096c:	2110      	movs	r1, #16
1000096e:	6028      	str	r0, [r5, #0]
10000970:	2010      	movs	r0, #16
10000972:	f003 f9a3 	bl	10003cbc <__wrap_calloc>
10000976:	2101      	movs	r1, #1
10000978:	60a8      	str	r0, [r5, #8]
1000097a:	2010      	movs	r0, #16
1000097c:	f003 f99e 	bl	10003cbc <__wrap_calloc>
10000980:	2303      	movs	r3, #3
10000982:	752b      	strb	r3, [r5, #20]
10000984:	4b06      	ldr	r3, [pc, #24]	; (100009a0 <alarm_pool_init_default+0x74>)
10000986:	60e8      	str	r0, [r5, #12]
10000988:	60dd      	str	r5, [r3, #12]
1000098a:	6025      	str	r5, [r4, #0]
1000098c:	e7d3      	b.n	10000936 <alarm_pool_init_default+0xa>
1000098e:	46c0      	nop			; (mov r8, r8)
10000990:	20000afc 	.word	0x20000afc
10000994:	1000074d 	.word	0x1000074d
10000998:	34000040 	.word	0x34000040
1000099c:	100005ed 	.word	0x100005ed
100009a0:	20000b10 	.word	0x20000b10

100009a4 <hardware_alarm_irq_handler>:
100009a4:	b5f0      	push	{r4, r5, r6, r7, lr}
100009a6:	46d6      	mov	lr, sl
100009a8:	464f      	mov	r7, r9
100009aa:	4646      	mov	r6, r8
100009ac:	b5c0      	push	{r6, r7, lr}
100009ae:	f3ef 8305 	mrs	r3, IPSR
100009b2:	223f      	movs	r2, #63	; 0x3f
100009b4:	4013      	ands	r3, r2
100009b6:	0018      	movs	r0, r3
100009b8:	3810      	subs	r0, #16
100009ba:	f3ef 8c10 	mrs	ip, PRIMASK
100009be:	b672      	cpsid	i
100009c0:	4d20      	ldr	r5, [pc, #128]	; (10000a44 <hardware_alarm_irq_handler+0xa0>)
100009c2:	682a      	ldr	r2, [r5, #0]
100009c4:	2a00      	cmp	r2, #0
100009c6:	d0fc      	beq.n	100009c2 <hardware_alarm_irq_handler+0x1e>
100009c8:	f3bf 8f5f 	dmb	sy
100009cc:	2201      	movs	r2, #1
100009ce:	0011      	movs	r1, r2
100009d0:	4081      	lsls	r1, r0
100009d2:	4c1d      	ldr	r4, [pc, #116]	; (10000a48 <hardware_alarm_irq_handler+0xa4>)
100009d4:	4688      	mov	r8, r1
100009d6:	6361      	str	r1, [r4, #52]	; 0x34
100009d8:	491c      	ldr	r1, [pc, #112]	; (10000a4c <hardware_alarm_irq_handler+0xa8>)
100009da:	0017      	movs	r7, r2
100009dc:	780e      	ldrb	r6, [r1, #0]
100009de:	468a      	mov	sl, r1
100009e0:	0031      	movs	r1, r6
100009e2:	40c1      	lsrs	r1, r0
100009e4:	400f      	ands	r7, r1
100009e6:	420a      	tst	r2, r1
100009e8:	d015      	beq.n	10000a16 <hardware_alarm_irq_handler+0x72>
100009ea:	4919      	ldr	r1, [pc, #100]	; (10000a50 <hardware_alarm_irq_handler+0xac>)
100009ec:	0082      	lsls	r2, r0, #2
100009ee:	6a64      	ldr	r4, [r4, #36]	; 0x24
100009f0:	5851      	ldr	r1, [r2, r1]
100009f2:	428c      	cmp	r4, r1
100009f4:	d319      	bcc.n	10000a2a <hardware_alarm_irq_handler+0x86>
100009f6:	4b17      	ldr	r3, [pc, #92]	; (10000a54 <hardware_alarm_irq_handler+0xb0>)
100009f8:	58d2      	ldr	r2, [r2, r3]
100009fa:	4643      	mov	r3, r8
100009fc:	439e      	bics	r6, r3
100009fe:	4653      	mov	r3, sl
10000a00:	701e      	strb	r6, [r3, #0]
10000a02:	f3bf 8f5f 	dmb	sy
10000a06:	2300      	movs	r3, #0
10000a08:	602b      	str	r3, [r5, #0]
10000a0a:	f38c 8810 	msr	PRIMASK, ip
10000a0e:	2a00      	cmp	r2, #0
10000a10:	d006      	beq.n	10000a20 <hardware_alarm_irq_handler+0x7c>
10000a12:	4790      	blx	r2
10000a14:	e004      	b.n	10000a20 <hardware_alarm_irq_handler+0x7c>
10000a16:	f3bf 8f5f 	dmb	sy
10000a1a:	602f      	str	r7, [r5, #0]
10000a1c:	f38c 8810 	msr	PRIMASK, ip
10000a20:	bc1c      	pop	{r2, r3, r4}
10000a22:	4690      	mov	r8, r2
10000a24:	4699      	mov	r9, r3
10000a26:	46a2      	mov	sl, r4
10000a28:	bdf0      	pop	{r4, r5, r6, r7, pc}
10000a2a:	4a0b      	ldr	r2, [pc, #44]	; (10000a58 <hardware_alarm_irq_handler+0xb4>)
10000a2c:	009b      	lsls	r3, r3, #2
10000a2e:	4690      	mov	r8, r2
10000a30:	4443      	add	r3, r8
10000a32:	681a      	ldr	r2, [r3, #0]
10000a34:	601a      	str	r2, [r3, #0]
10000a36:	f3bf 8f5f 	dmb	sy
10000a3a:	2300      	movs	r3, #0
10000a3c:	602b      	str	r3, [r5, #0]
10000a3e:	f38c 8810 	msr	PRIMASK, ip
10000a42:	e7ed      	b.n	10000a20 <hardware_alarm_irq_handler+0x7c>
10000a44:	d0000128 	.word	0xd0000128
10000a48:	40054000 	.word	0x40054000
10000a4c:	20000b32 	.word	0x20000b32
10000a50:	20000b20 	.word	0x20000b20
10000a54:	20000ac4 	.word	0x20000ac4
10000a58:	40053fd0 	.word	0x40053fd0

10000a5c <hardware_alarm_claim>:
10000a5c:	b510      	push	{r4, lr}
10000a5e:	0001      	movs	r1, r0
10000a60:	4a02      	ldr	r2, [pc, #8]	; (10000a6c <hardware_alarm_claim+0x10>)
10000a62:	4803      	ldr	r0, [pc, #12]	; (10000a70 <hardware_alarm_claim+0x14>)
10000a64:	f7ff fd04 	bl	10000470 <hw_claim_or_assert>
10000a68:	bd10      	pop	{r4, pc}
10000a6a:	46c0      	nop			; (mov r8, r8)
10000a6c:	10004c44 	.word	0x10004c44
10000a70:	20000b30 	.word	0x20000b30

10000a74 <time_us_64>:
10000a74:	4b03      	ldr	r3, [pc, #12]	; (10000a84 <time_us_64+0x10>)
10000a76:	6a59      	ldr	r1, [r3, #36]	; 0x24
10000a78:	000a      	movs	r2, r1
10000a7a:	6a98      	ldr	r0, [r3, #40]	; 0x28
10000a7c:	6a59      	ldr	r1, [r3, #36]	; 0x24
10000a7e:	428a      	cmp	r2, r1
10000a80:	d1fa      	bne.n	10000a78 <time_us_64+0x4>
10000a82:	4770      	bx	lr
10000a84:	40054000 	.word	0x40054000

10000a88 <hardware_alarm_set_callback>:
10000a88:	b570      	push	{r4, r5, r6, lr}
10000a8a:	0004      	movs	r4, r0
10000a8c:	000d      	movs	r5, r1
10000a8e:	f3ef 8610 	mrs	r6, PRIMASK
10000a92:	b672      	cpsid	i
10000a94:	4a1a      	ldr	r2, [pc, #104]	; (10000b00 <hardware_alarm_set_callback+0x78>)
10000a96:	6813      	ldr	r3, [r2, #0]
10000a98:	2b00      	cmp	r3, #0
10000a9a:	d0fc      	beq.n	10000a96 <hardware_alarm_set_callback+0xe>
10000a9c:	f3bf 8f5f 	dmb	sy
10000aa0:	2d00      	cmp	r5, #0
10000aa2:	d01b      	beq.n	10000adc <hardware_alarm_set_callback+0x54>
10000aa4:	0020      	movs	r0, r4
10000aa6:	f000 fd4f 	bl	10001548 <irq_get_vtable_handler>
10000aaa:	4916      	ldr	r1, [pc, #88]	; (10000b04 <hardware_alarm_set_callback+0x7c>)
10000aac:	4281      	cmp	r1, r0
10000aae:	d00a      	beq.n	10000ac6 <hardware_alarm_set_callback+0x3e>
10000ab0:	0020      	movs	r0, r4
10000ab2:	f000 fd51 	bl	10001558 <irq_set_exclusive_handler>
10000ab6:	2101      	movs	r1, #1
10000ab8:	0020      	movs	r0, r4
10000aba:	f000 fd33 	bl	10001524 <irq_set_enabled>
10000abe:	2301      	movs	r3, #1
10000ac0:	40a3      	lsls	r3, r4
10000ac2:	4a11      	ldr	r2, [pc, #68]	; (10000b08 <hardware_alarm_set_callback+0x80>)
10000ac4:	6013      	str	r3, [r2, #0]
10000ac6:	4b11      	ldr	r3, [pc, #68]	; (10000b0c <hardware_alarm_set_callback+0x84>)
10000ac8:	00a4      	lsls	r4, r4, #2
10000aca:	50e5      	str	r5, [r4, r3]
10000acc:	f3bf 8f5f 	dmb	sy
10000ad0:	2200      	movs	r2, #0
10000ad2:	4b0b      	ldr	r3, [pc, #44]	; (10000b00 <hardware_alarm_set_callback+0x78>)
10000ad4:	601a      	str	r2, [r3, #0]
10000ad6:	f386 8810 	msr	PRIMASK, r6
10000ada:	bd70      	pop	{r4, r5, r6, pc}
10000adc:	4b0b      	ldr	r3, [pc, #44]	; (10000b0c <hardware_alarm_set_callback+0x84>)
10000ade:	00a2      	lsls	r2, r4, #2
10000ae0:	50d5      	str	r5, [r2, r3]
10000ae2:	2201      	movs	r2, #1
10000ae4:	40a2      	lsls	r2, r4
10000ae6:	490a      	ldr	r1, [pc, #40]	; (10000b10 <hardware_alarm_set_callback+0x88>)
10000ae8:	0020      	movs	r0, r4
10000aea:	780b      	ldrb	r3, [r1, #0]
10000aec:	4393      	bics	r3, r2
10000aee:	700b      	strb	r3, [r1, #0]
10000af0:	4904      	ldr	r1, [pc, #16]	; (10000b04 <hardware_alarm_set_callback+0x7c>)
10000af2:	f000 fd5b 	bl	100015ac <irq_remove_handler>
10000af6:	2100      	movs	r1, #0
10000af8:	0020      	movs	r0, r4
10000afa:	f000 fd13 	bl	10001524 <irq_set_enabled>
10000afe:	e7e5      	b.n	10000acc <hardware_alarm_set_callback+0x44>
10000b00:	d0000128 	.word	0xd0000128
10000b04:	100009a5 	.word	0x100009a5
10000b08:	40056038 	.word	0x40056038
10000b0c:	20000ac4 	.word	0x20000ac4
10000b10:	20000b32 	.word	0x20000b32

10000b14 <hardware_alarm_set_target>:
10000b14:	b5f0      	push	{r4, r5, r6, r7, lr}
10000b16:	46ce      	mov	lr, r9
10000b18:	4647      	mov	r7, r8
10000b1a:	b580      	push	{r7, lr}
10000b1c:	4c2a      	ldr	r4, [pc, #168]	; (10000bc8 <hardware_alarm_set_target+0xb4>)
10000b1e:	6a61      	ldr	r1, [r4, #36]	; 0x24
10000b20:	000d      	movs	r5, r1
10000b22:	6aa6      	ldr	r6, [r4, #40]	; 0x28
10000b24:	6a61      	ldr	r1, [r4, #36]	; 0x24
10000b26:	42a9      	cmp	r1, r5
10000b28:	d1fa      	bne.n	10000b20 <hardware_alarm_set_target+0xc>
10000b2a:	428b      	cmp	r3, r1
10000b2c:	d807      	bhi.n	10000b3e <hardware_alarm_set_target+0x2a>
10000b2e:	d004      	beq.n	10000b3a <hardware_alarm_set_target+0x26>
10000b30:	2001      	movs	r0, #1
10000b32:	bc0c      	pop	{r2, r3}
10000b34:	4690      	mov	r8, r2
10000b36:	4699      	mov	r9, r3
10000b38:	bdf0      	pop	{r4, r5, r6, r7, pc}
10000b3a:	42b2      	cmp	r2, r6
10000b3c:	d9f8      	bls.n	10000b30 <hardware_alarm_set_target+0x1c>
10000b3e:	f3ef 8810 	mrs	r8, PRIMASK
10000b42:	b672      	cpsid	i
10000b44:	4c21      	ldr	r4, [pc, #132]	; (10000bcc <hardware_alarm_set_target+0xb8>)
10000b46:	6821      	ldr	r1, [r4, #0]
10000b48:	2900      	cmp	r1, #0
10000b4a:	d0fc      	beq.n	10000b46 <hardware_alarm_set_target+0x32>
10000b4c:	f3bf 8f5f 	dmb	sy
10000b50:	2501      	movs	r5, #1
10000b52:	4085      	lsls	r5, r0
10000b54:	4c1c      	ldr	r4, [pc, #112]	; (10000bc8 <hardware_alarm_set_target+0xb4>)
10000b56:	4e1e      	ldr	r6, [pc, #120]	; (10000bd0 <hardware_alarm_set_target+0xbc>)
10000b58:	6365      	str	r5, [r4, #52]	; 0x34
10000b5a:	b2e9      	uxtb	r1, r5
10000b5c:	468c      	mov	ip, r1
10000b5e:	7831      	ldrb	r1, [r6, #0]
10000b60:	4689      	mov	r9, r1
10000b62:	4661      	mov	r1, ip
10000b64:	464f      	mov	r7, r9
10000b66:	4339      	orrs	r1, r7
10000b68:	7031      	strb	r1, [r6, #0]
10000b6a:	1d01      	adds	r1, r0, #4
10000b6c:	0089      	lsls	r1, r1, #2
10000b6e:	510a      	str	r2, [r1, r4]
10000b70:	4918      	ldr	r1, [pc, #96]	; (10000bd4 <hardware_alarm_set_target+0xc0>)
10000b72:	0080      	lsls	r0, r0, #2
10000b74:	5043      	str	r3, [r0, r1]
10000b76:	6a21      	ldr	r1, [r4, #32]
10000b78:	2000      	movs	r0, #0
10000b7a:	4229      	tst	r1, r5
10000b7c:	d00c      	beq.n	10000b98 <hardware_alarm_set_target+0x84>
10000b7e:	0020      	movs	r0, r4
10000b80:	6a61      	ldr	r1, [r4, #36]	; 0x24
10000b82:	000c      	movs	r4, r1
10000b84:	6a87      	ldr	r7, [r0, #40]	; 0x28
10000b86:	6a41      	ldr	r1, [r0, #36]	; 0x24
10000b88:	42a1      	cmp	r1, r4
10000b8a:	d1fa      	bne.n	10000b82 <hardware_alarm_set_target+0x6e>
10000b8c:	428b      	cmp	r3, r1
10000b8e:	d802      	bhi.n	10000b96 <hardware_alarm_set_target+0x82>
10000b90:	d10a      	bne.n	10000ba8 <hardware_alarm_set_target+0x94>
10000b92:	42ba      	cmp	r2, r7
10000b94:	d908      	bls.n	10000ba8 <hardware_alarm_set_target+0x94>
10000b96:	2000      	movs	r0, #0
10000b98:	f3bf 8f5f 	dmb	sy
10000b9c:	2200      	movs	r2, #0
10000b9e:	4b0b      	ldr	r3, [pc, #44]	; (10000bcc <hardware_alarm_set_target+0xb8>)
10000ba0:	601a      	str	r2, [r3, #0]
10000ba2:	f388 8810 	msr	PRIMASK, r8
10000ba6:	e7c4      	b.n	10000b32 <hardware_alarm_set_target+0x1e>
10000ba8:	4b07      	ldr	r3, [pc, #28]	; (10000bc8 <hardware_alarm_set_target+0xb4>)
10000baa:	464f      	mov	r7, r9
10000bac:	621d      	str	r5, [r3, #32]
10000bae:	635d      	str	r5, [r3, #52]	; 0x34
10000bb0:	4663      	mov	r3, ip
10000bb2:	439f      	bics	r7, r3
10000bb4:	2001      	movs	r0, #1
10000bb6:	7037      	strb	r7, [r6, #0]
10000bb8:	f3bf 8f5f 	dmb	sy
10000bbc:	2200      	movs	r2, #0
10000bbe:	4b03      	ldr	r3, [pc, #12]	; (10000bcc <hardware_alarm_set_target+0xb8>)
10000bc0:	601a      	str	r2, [r3, #0]
10000bc2:	f388 8810 	msr	PRIMASK, r8
10000bc6:	e7b4      	b.n	10000b32 <hardware_alarm_set_target+0x1e>
10000bc8:	40054000 	.word	0x40054000
10000bcc:	d0000128 	.word	0xd0000128
10000bd0:	20000b32 	.word	0x20000b32
10000bd4:	20000b20 	.word	0x20000b20

10000bd8 <hardware_alarm_cancel>:
10000bd8:	b510      	push	{r4, lr}
10000bda:	f3ef 8410 	mrs	r4, PRIMASK
10000bde:	b672      	cpsid	i
10000be0:	490a      	ldr	r1, [pc, #40]	; (10000c0c <hardware_alarm_cancel+0x34>)
10000be2:	680b      	ldr	r3, [r1, #0]
10000be4:	2b00      	cmp	r3, #0
10000be6:	d0fc      	beq.n	10000be2 <hardware_alarm_cancel+0xa>
10000be8:	f3bf 8f5f 	dmb	sy
10000bec:	2301      	movs	r3, #1
10000bee:	4083      	lsls	r3, r0
10000bf0:	4a07      	ldr	r2, [pc, #28]	; (10000c10 <hardware_alarm_cancel+0x38>)
10000bf2:	4808      	ldr	r0, [pc, #32]	; (10000c14 <hardware_alarm_cancel+0x3c>)
10000bf4:	6213      	str	r3, [r2, #32]
10000bf6:	7802      	ldrb	r2, [r0, #0]
10000bf8:	439a      	bics	r2, r3
10000bfa:	7002      	strb	r2, [r0, #0]
10000bfc:	f3bf 8f5f 	dmb	sy
10000c00:	2300      	movs	r3, #0
10000c02:	600b      	str	r3, [r1, #0]
10000c04:	f384 8810 	msr	PRIMASK, r4
10000c08:	bd10      	pop	{r4, pc}
10000c0a:	46c0      	nop			; (mov r8, r8)
10000c0c:	d0000128 	.word	0xd0000128
10000c10:	40054000 	.word	0x40054000
10000c14:	20000b32 	.word	0x20000b32

10000c18 <lock_init>:
10000c18:	4b02      	ldr	r3, [pc, #8]	; (10000c24 <lock_init+0xc>)
10000c1a:	469c      	mov	ip, r3
10000c1c:	4461      	add	r1, ip
10000c1e:	0089      	lsls	r1, r1, #2
10000c20:	6001      	str	r1, [r0, #0]
10000c22:	4770      	bx	lr
10000c24:	34000040 	.word	0x34000040

10000c28 <mutex_init>:
10000c28:	b510      	push	{r4, lr}
10000c2a:	0004      	movs	r4, r0
10000c2c:	f7ff fc5e 	bl	100004ec <next_striped_spin_lock_num>
10000c30:	0001      	movs	r1, r0
10000c32:	0020      	movs	r0, r4
10000c34:	f7ff fff0 	bl	10000c18 <lock_init>
10000c38:	f3bf 8f5f 	dmb	sy
10000c3c:	bd10      	pop	{r4, pc}
10000c3e:	46c0      	nop			; (mov r8, r8)

10000c40 <ph_merge_nodes>:
10000c40:	b570      	push	{r4, r5, r6, lr}
10000c42:	0005      	movs	r5, r0
10000c44:	000e      	movs	r6, r1
10000c46:	0014      	movs	r4, r2
10000c48:	2900      	cmp	r1, #0
10000c4a:	d024      	beq.n	10000c96 <ph_merge_nodes+0x56>
10000c4c:	2a00      	cmp	r2, #0
10000c4e:	d024      	beq.n	10000c9a <ph_merge_nodes+0x5a>
10000c50:	6880      	ldr	r0, [r0, #8]
10000c52:	686b      	ldr	r3, [r5, #4]
10000c54:	4798      	blx	r3
10000c56:	6829      	ldr	r1, [r5, #0]
10000c58:	2800      	cmp	r0, #0
10000c5a:	d00e      	beq.n	10000c7a <ph_merge_nodes+0x3a>
10000c5c:	0063      	lsls	r3, r4, #1
10000c5e:	191b      	adds	r3, r3, r4
10000c60:	0072      	lsls	r2, r6, #1
10000c62:	3b03      	subs	r3, #3
10000c64:	1992      	adds	r2, r2, r6
10000c66:	18cb      	adds	r3, r1, r3
10000c68:	3a03      	subs	r2, #3
10000c6a:	709e      	strb	r6, [r3, #2]
10000c6c:	1888      	adds	r0, r1, r2
10000c6e:	5c8a      	ldrb	r2, [r1, r2]
10000c70:	2a00      	cmp	r2, #0
10000c72:	d114      	bne.n	10000c9e <ph_merge_nodes+0x5e>
10000c74:	7004      	strb	r4, [r0, #0]
10000c76:	0030      	movs	r0, r6
10000c78:	e00e      	b.n	10000c98 <ph_merge_nodes+0x58>
10000c7a:	0073      	lsls	r3, r6, #1
10000c7c:	199b      	adds	r3, r3, r6
10000c7e:	0062      	lsls	r2, r4, #1
10000c80:	3b03      	subs	r3, #3
10000c82:	1912      	adds	r2, r2, r4
10000c84:	18cb      	adds	r3, r1, r3
10000c86:	3a03      	subs	r2, #3
10000c88:	709c      	strb	r4, [r3, #2]
10000c8a:	1888      	adds	r0, r1, r2
10000c8c:	5c8a      	ldrb	r2, [r1, r2]
10000c8e:	2a00      	cmp	r2, #0
10000c90:	d000      	beq.n	10000c94 <ph_merge_nodes+0x54>
10000c92:	705a      	strb	r2, [r3, #1]
10000c94:	7006      	strb	r6, [r0, #0]
10000c96:	0020      	movs	r0, r4
10000c98:	bd70      	pop	{r4, r5, r6, pc}
10000c9a:	0008      	movs	r0, r1
10000c9c:	e7fc      	b.n	10000c98 <ph_merge_nodes+0x58>
10000c9e:	705a      	strb	r2, [r3, #1]
10000ca0:	7004      	strb	r4, [r0, #0]
10000ca2:	0030      	movs	r0, r6
10000ca4:	e7f8      	b.n	10000c98 <ph_merge_nodes+0x58>
10000ca6:	46c0      	nop			; (mov r8, r8)

10000ca8 <ph_create>:
10000ca8:	b5f0      	push	{r4, r5, r6, r7, lr}
10000caa:	46c6      	mov	lr, r8
10000cac:	0005      	movs	r5, r0
10000cae:	000f      	movs	r7, r1
10000cb0:	b500      	push	{lr}
10000cb2:	2110      	movs	r1, #16
10000cb4:	2001      	movs	r0, #1
10000cb6:	0016      	movs	r6, r2
10000cb8:	f003 f800 	bl	10003cbc <__wrap_calloc>
10000cbc:	b2eb      	uxtb	r3, r5
10000cbe:	0004      	movs	r4, r0
10000cc0:	7303      	strb	r3, [r0, #12]
10000cc2:	2103      	movs	r1, #3
10000cc4:	6047      	str	r7, [r0, #4]
10000cc6:	0028      	movs	r0, r5
10000cc8:	4698      	mov	r8, r3
10000cca:	f002 fff7 	bl	10003cbc <__wrap_calloc>
10000cce:	2300      	movs	r3, #0
10000cd0:	7363      	strb	r3, [r4, #13]
10000cd2:	3301      	adds	r3, #1
10000cd4:	73a3      	strb	r3, [r4, #14]
10000cd6:	4643      	mov	r3, r8
10000cd8:	21ff      	movs	r1, #255	; 0xff
10000cda:	73e3      	strb	r3, [r4, #15]
10000cdc:	23fe      	movs	r3, #254	; 0xfe
10000cde:	6020      	str	r0, [r4, #0]
10000ce0:	60a6      	str	r6, [r4, #8]
10000ce2:	4029      	ands	r1, r5
10000ce4:	422b      	tst	r3, r5
10000ce6:	d006      	beq.n	10000cf6 <ph_create+0x4e>
10000ce8:	1c42      	adds	r2, r0, #1
10000cea:	3bfd      	subs	r3, #253	; 0xfd
10000cec:	3301      	adds	r3, #1
10000cee:	7013      	strb	r3, [r2, #0]
10000cf0:	3203      	adds	r2, #3
10000cf2:	428b      	cmp	r3, r1
10000cf4:	d3fa      	bcc.n	10000cec <ph_create+0x44>
10000cf6:	004b      	lsls	r3, r1, #1
10000cf8:	1859      	adds	r1, r3, r1
10000cfa:	2300      	movs	r3, #0
10000cfc:	1840      	adds	r0, r0, r1
10000cfe:	3803      	subs	r0, #3
10000d00:	7043      	strb	r3, [r0, #1]
10000d02:	0020      	movs	r0, r4
10000d04:	bc04      	pop	{r2}
10000d06:	4690      	mov	r8, r2
10000d08:	bdf0      	pop	{r4, r5, r6, r7, pc}
10000d0a:	46c0      	nop			; (mov r8, r8)

10000d0c <ph_merge_two_pass>:
10000d0c:	b5f8      	push	{r3, r4, r5, r6, r7, lr}
10000d0e:	46ce      	mov	lr, r9
10000d10:	4647      	mov	r7, r8
10000d12:	0006      	movs	r6, r0
10000d14:	000c      	movs	r4, r1
10000d16:	b580      	push	{r7, lr}
10000d18:	2900      	cmp	r1, #0
10000d1a:	d007      	beq.n	10000d2c <ph_merge_two_pass+0x20>
10000d1c:	004d      	lsls	r5, r1, #1
10000d1e:	6803      	ldr	r3, [r0, #0]
10000d20:	186d      	adds	r5, r5, r1
10000d22:	3d03      	subs	r5, #3
10000d24:	195a      	adds	r2, r3, r5
10000d26:	7857      	ldrb	r7, [r2, #1]
10000d28:	2f00      	cmp	r7, #0
10000d2a:	d104      	bne.n	10000d36 <ph_merge_two_pass+0x2a>
10000d2c:	0020      	movs	r0, r4
10000d2e:	bc0c      	pop	{r2, r3}
10000d30:	4690      	mov	r8, r2
10000d32:	4699      	mov	r9, r3
10000d34:	bdf8      	pop	{r3, r4, r5, r6, r7, pc}
10000d36:	0079      	lsls	r1, r7, #1
10000d38:	19c9      	adds	r1, r1, r7
10000d3a:	3903      	subs	r1, #3
10000d3c:	4688      	mov	r8, r1
10000d3e:	4443      	add	r3, r8
10000d40:	7859      	ldrb	r1, [r3, #1]
10000d42:	4689      	mov	r9, r1
10000d44:	2100      	movs	r1, #0
10000d46:	7059      	strb	r1, [r3, #1]
10000d48:	7051      	strb	r1, [r2, #1]
10000d4a:	6873      	ldr	r3, [r6, #4]
10000d4c:	003a      	movs	r2, r7
10000d4e:	0021      	movs	r1, r4
10000d50:	6880      	ldr	r0, [r0, #8]
10000d52:	4798      	blx	r3
10000d54:	6833      	ldr	r3, [r6, #0]
10000d56:	2800      	cmp	r0, #0
10000d58:	d014      	beq.n	10000d84 <ph_merge_two_pass+0x78>
10000d5a:	4642      	mov	r2, r8
10000d5c:	189a      	adds	r2, r3, r2
10000d5e:	7094      	strb	r4, [r2, #2]
10000d60:	1959      	adds	r1, r3, r5
10000d62:	5d5b      	ldrb	r3, [r3, r5]
10000d64:	2b00      	cmp	r3, #0
10000d66:	d000      	beq.n	10000d6a <ph_merge_two_pass+0x5e>
10000d68:	7053      	strb	r3, [r2, #1]
10000d6a:	700f      	strb	r7, [r1, #0]
10000d6c:	0027      	movs	r7, r4
10000d6e:	4649      	mov	r1, r9
10000d70:	0030      	movs	r0, r6
10000d72:	f7ff ffcb 	bl	10000d0c <ph_merge_two_pass>
10000d76:	0039      	movs	r1, r7
10000d78:	0002      	movs	r2, r0
10000d7a:	0030      	movs	r0, r6
10000d7c:	f7ff ff60 	bl	10000c40 <ph_merge_nodes>
10000d80:	0004      	movs	r4, r0
10000d82:	e7d3      	b.n	10000d2c <ph_merge_two_pass+0x20>
10000d84:	4642      	mov	r2, r8
10000d86:	4641      	mov	r1, r8
10000d88:	195d      	adds	r5, r3, r5
10000d8a:	70af      	strb	r7, [r5, #2]
10000d8c:	189a      	adds	r2, r3, r2
10000d8e:	5c5b      	ldrb	r3, [r3, r1]
10000d90:	2b00      	cmp	r3, #0
10000d92:	d000      	beq.n	10000d96 <ph_merge_two_pass+0x8a>
10000d94:	706b      	strb	r3, [r5, #1]
10000d96:	7014      	strb	r4, [r2, #0]
10000d98:	e7e9      	b.n	10000d6e <ph_merge_two_pass+0x62>
10000d9a:	46c0      	nop			; (mov r8, r8)

10000d9c <ph_remove_any_head>:
10000d9c:	b5f0      	push	{r4, r5, r6, r7, lr}
10000d9e:	4657      	mov	r7, sl
10000da0:	4645      	mov	r5, r8
10000da2:	46de      	mov	lr, fp
10000da4:	464e      	mov	r6, r9
10000da6:	b5e0      	push	{r5, r6, r7, lr}
10000da8:	000d      	movs	r5, r1
10000daa:	006b      	lsls	r3, r5, #1
10000dac:	6801      	ldr	r1, [r0, #0]
10000dae:	195b      	adds	r3, r3, r5
10000db0:	1edf      	subs	r7, r3, #3
10000db2:	0004      	movs	r4, r0
10000db4:	5dc8      	ldrb	r0, [r1, r7]
10000db6:	b083      	sub	sp, #12
10000db8:	9201      	str	r2, [sp, #4]
10000dba:	19ca      	adds	r2, r1, r7
10000dbc:	2800      	cmp	r0, #0
10000dbe:	d04c      	beq.n	10000e5a <ph_remove_any_head+0xbe>
10000dc0:	0043      	lsls	r3, r0, #1
10000dc2:	181b      	adds	r3, r3, r0
10000dc4:	3b03      	subs	r3, #3
10000dc6:	18cb      	adds	r3, r1, r3
10000dc8:	785e      	ldrb	r6, [r3, #1]
10000dca:	46b4      	mov	ip, r6
10000dcc:	2e00      	cmp	r6, #0
10000dce:	d116      	bne.n	10000dfe <ph_remove_any_head+0x62>
10000dd0:	9e01      	ldr	r6, [sp, #4]
10000dd2:	2e00      	cmp	r6, #0
10000dd4:	d13e      	bne.n	10000e54 <ph_remove_any_head+0xb8>
10000dd6:	7be6      	ldrb	r6, [r4, #15]
10000dd8:	2e00      	cmp	r6, #0
10000dda:	d004      	beq.n	10000de6 <ph_remove_any_head+0x4a>
10000ddc:	0073      	lsls	r3, r6, #1
10000dde:	199b      	adds	r3, r3, r6
10000de0:	18cb      	adds	r3, r1, r3
10000de2:	3b03      	subs	r3, #3
10000de4:	705d      	strb	r5, [r3, #1]
10000de6:	73e5      	strb	r5, [r4, #15]
10000de8:	2800      	cmp	r0, #0
10000dea:	d12f      	bne.n	10000e4c <ph_remove_any_head+0xb0>
10000dec:	2300      	movs	r3, #0
10000dee:	7053      	strb	r3, [r2, #1]
10000df0:	b003      	add	sp, #12
10000df2:	bc3c      	pop	{r2, r3, r4, r5}
10000df4:	4690      	mov	r8, r2
10000df6:	4699      	mov	r9, r3
10000df8:	46a2      	mov	sl, r4
10000dfa:	46ab      	mov	fp, r5
10000dfc:	bdf0      	pop	{r4, r5, r6, r7, pc}
10000dfe:	0072      	lsls	r2, r6, #1
10000e00:	4462      	add	r2, ip
10000e02:	3a03      	subs	r2, #3
10000e04:	1889      	adds	r1, r1, r2
10000e06:	784a      	ldrb	r2, [r1, #1]
10000e08:	4690      	mov	r8, r2
10000e0a:	2200      	movs	r2, #0
10000e0c:	704a      	strb	r2, [r1, #1]
10000e0e:	4691      	mov	r9, r2
10000e10:	705a      	strb	r2, [r3, #1]
10000e12:	0001      	movs	r1, r0
10000e14:	0032      	movs	r2, r6
10000e16:	0020      	movs	r0, r4
10000e18:	f7ff ff12 	bl	10000c40 <ph_merge_nodes>
10000e1c:	4643      	mov	r3, r8
10000e1e:	4682      	mov	sl, r0
10000e20:	2b00      	cmp	r3, #0
10000e22:	d007      	beq.n	10000e34 <ph_remove_any_head+0x98>
10000e24:	005b      	lsls	r3, r3, #1
10000e26:	6821      	ldr	r1, [r4, #0]
10000e28:	4443      	add	r3, r8
10000e2a:	3b03      	subs	r3, #3
10000e2c:	18cb      	adds	r3, r1, r3
10000e2e:	785a      	ldrb	r2, [r3, #1]
10000e30:	2a00      	cmp	r2, #0
10000e32:	d116      	bne.n	10000e62 <ph_remove_any_head+0xc6>
10000e34:	4642      	mov	r2, r8
10000e36:	4651      	mov	r1, sl
10000e38:	0020      	movs	r0, r4
10000e3a:	f7ff ff01 	bl	10000c40 <ph_merge_nodes>
10000e3e:	6821      	ldr	r1, [r4, #0]
10000e40:	9b01      	ldr	r3, [sp, #4]
10000e42:	19ca      	adds	r2, r1, r7
10000e44:	2b00      	cmp	r3, #0
10000e46:	d0c6      	beq.n	10000dd6 <ph_remove_any_head+0x3a>
10000e48:	2800      	cmp	r0, #0
10000e4a:	d0cf      	beq.n	10000dec <ph_remove_any_head+0x50>
10000e4c:	0043      	lsls	r3, r0, #1
10000e4e:	181b      	adds	r3, r3, r0
10000e50:	3b03      	subs	r3, #3
10000e52:	18cb      	adds	r3, r1, r3
10000e54:	2100      	movs	r1, #0
10000e56:	7099      	strb	r1, [r3, #2]
10000e58:	e7c8      	b.n	10000dec <ph_remove_any_head+0x50>
10000e5a:	9b01      	ldr	r3, [sp, #4]
10000e5c:	2b00      	cmp	r3, #0
10000e5e:	d1c5      	bne.n	10000dec <ph_remove_any_head+0x50>
10000e60:	e7b9      	b.n	10000dd6 <ph_remove_any_head+0x3a>
10000e62:	0050      	lsls	r0, r2, #1
10000e64:	1880      	adds	r0, r0, r2
10000e66:	3803      	subs	r0, #3
10000e68:	1809      	adds	r1, r1, r0
10000e6a:	7848      	ldrb	r0, [r1, #1]
10000e6c:	4683      	mov	fp, r0
10000e6e:	4648      	mov	r0, r9
10000e70:	7048      	strb	r0, [r1, #1]
10000e72:	7058      	strb	r0, [r3, #1]
10000e74:	4641      	mov	r1, r8
10000e76:	0020      	movs	r0, r4
10000e78:	f7ff fee2 	bl	10000c40 <ph_merge_nodes>
10000e7c:	4659      	mov	r1, fp
10000e7e:	4680      	mov	r8, r0
10000e80:	0020      	movs	r0, r4
10000e82:	f7ff ff43 	bl	10000d0c <ph_merge_two_pass>
10000e86:	4641      	mov	r1, r8
10000e88:	0002      	movs	r2, r0
10000e8a:	0020      	movs	r0, r4
10000e8c:	f7ff fed8 	bl	10000c40 <ph_merge_nodes>
10000e90:	4680      	mov	r8, r0
10000e92:	e7cf      	b.n	10000e34 <ph_remove_any_head+0x98>

10000e94 <ph_remove_head_reserve>:
10000e94:	b5f0      	push	{r4, r5, r6, r7, lr}
10000e96:	464e      	mov	r6, r9
10000e98:	4645      	mov	r5, r8
10000e9a:	46de      	mov	lr, fp
10000e9c:	4657      	mov	r7, sl
10000e9e:	b5e0      	push	{r5, r6, r7, lr}
10000ea0:	7b46      	ldrb	r6, [r0, #13]
10000ea2:	0004      	movs	r4, r0
10000ea4:	0075      	lsls	r5, r6, #1
10000ea6:	6800      	ldr	r0, [r0, #0]
10000ea8:	19ad      	adds	r5, r5, r6
10000eaa:	3d03      	subs	r5, #3
10000eac:	b083      	sub	sp, #12
10000eae:	9101      	str	r1, [sp, #4]
10000eb0:	5d41      	ldrb	r1, [r0, r5]
10000eb2:	1942      	adds	r2, r0, r5
10000eb4:	2900      	cmp	r1, #0
10000eb6:	d04e      	beq.n	10000f56 <ph_remove_head_reserve+0xc2>
10000eb8:	004b      	lsls	r3, r1, #1
10000eba:	185b      	adds	r3, r3, r1
10000ebc:	3b03      	subs	r3, #3
10000ebe:	18c3      	adds	r3, r0, r3
10000ec0:	785f      	ldrb	r7, [r3, #1]
10000ec2:	46bc      	mov	ip, r7
10000ec4:	2f00      	cmp	r7, #0
10000ec6:	d118      	bne.n	10000efa <ph_remove_head_reserve+0x66>
10000ec8:	9d01      	ldr	r5, [sp, #4]
10000eca:	2d00      	cmp	r5, #0
10000ecc:	d140      	bne.n	10000f50 <ph_remove_head_reserve+0xbc>
10000ece:	7be5      	ldrb	r5, [r4, #15]
10000ed0:	2d00      	cmp	r5, #0
10000ed2:	d004      	beq.n	10000ede <ph_remove_head_reserve+0x4a>
10000ed4:	006b      	lsls	r3, r5, #1
10000ed6:	195b      	adds	r3, r3, r5
10000ed8:	18c3      	adds	r3, r0, r3
10000eda:	3b03      	subs	r3, #3
10000edc:	705e      	strb	r6, [r3, #1]
10000ede:	73e6      	strb	r6, [r4, #15]
10000ee0:	2900      	cmp	r1, #0
10000ee2:	d131      	bne.n	10000f48 <ph_remove_head_reserve+0xb4>
10000ee4:	2300      	movs	r3, #0
10000ee6:	0030      	movs	r0, r6
10000ee8:	7053      	strb	r3, [r2, #1]
10000eea:	7361      	strb	r1, [r4, #13]
10000eec:	b003      	add	sp, #12
10000eee:	bc3c      	pop	{r2, r3, r4, r5}
10000ef0:	4690      	mov	r8, r2
10000ef2:	4699      	mov	r9, r3
10000ef4:	46a2      	mov	sl, r4
10000ef6:	46ab      	mov	fp, r5
10000ef8:	bdf0      	pop	{r4, r5, r6, r7, pc}
10000efa:	007a      	lsls	r2, r7, #1
10000efc:	4462      	add	r2, ip
10000efe:	3a03      	subs	r2, #3
10000f00:	1880      	adds	r0, r0, r2
10000f02:	7842      	ldrb	r2, [r0, #1]
10000f04:	4693      	mov	fp, r2
10000f06:	2200      	movs	r2, #0
10000f08:	7042      	strb	r2, [r0, #1]
10000f0a:	4691      	mov	r9, r2
10000f0c:	705a      	strb	r2, [r3, #1]
10000f0e:	0020      	movs	r0, r4
10000f10:	003a      	movs	r2, r7
10000f12:	f7ff fe95 	bl	10000c40 <ph_merge_nodes>
10000f16:	465b      	mov	r3, fp
10000f18:	4680      	mov	r8, r0
10000f1a:	2b00      	cmp	r3, #0
10000f1c:	d007      	beq.n	10000f2e <ph_remove_head_reserve+0x9a>
10000f1e:	005b      	lsls	r3, r3, #1
10000f20:	6821      	ldr	r1, [r4, #0]
10000f22:	445b      	add	r3, fp
10000f24:	3b03      	subs	r3, #3
10000f26:	18cb      	adds	r3, r1, r3
10000f28:	785a      	ldrb	r2, [r3, #1]
10000f2a:	2a00      	cmp	r2, #0
10000f2c:	d117      	bne.n	10000f5e <ph_remove_head_reserve+0xca>
10000f2e:	465a      	mov	r2, fp
10000f30:	4641      	mov	r1, r8
10000f32:	0020      	movs	r0, r4
10000f34:	f7ff fe84 	bl	10000c40 <ph_merge_nodes>
10000f38:	9b01      	ldr	r3, [sp, #4]
10000f3a:	0001      	movs	r1, r0
10000f3c:	6820      	ldr	r0, [r4, #0]
10000f3e:	1942      	adds	r2, r0, r5
10000f40:	2b00      	cmp	r3, #0
10000f42:	d0c4      	beq.n	10000ece <ph_remove_head_reserve+0x3a>
10000f44:	2900      	cmp	r1, #0
10000f46:	d0cd      	beq.n	10000ee4 <ph_remove_head_reserve+0x50>
10000f48:	004b      	lsls	r3, r1, #1
10000f4a:	185b      	adds	r3, r3, r1
10000f4c:	3b03      	subs	r3, #3
10000f4e:	18c3      	adds	r3, r0, r3
10000f50:	2000      	movs	r0, #0
10000f52:	7098      	strb	r0, [r3, #2]
10000f54:	e7c6      	b.n	10000ee4 <ph_remove_head_reserve+0x50>
10000f56:	9b01      	ldr	r3, [sp, #4]
10000f58:	2b00      	cmp	r3, #0
10000f5a:	d1c3      	bne.n	10000ee4 <ph_remove_head_reserve+0x50>
10000f5c:	e7b7      	b.n	10000ece <ph_remove_head_reserve+0x3a>
10000f5e:	0050      	lsls	r0, r2, #1
10000f60:	1880      	adds	r0, r0, r2
10000f62:	3803      	subs	r0, #3
10000f64:	1809      	adds	r1, r1, r0
10000f66:	7848      	ldrb	r0, [r1, #1]
10000f68:	4682      	mov	sl, r0
10000f6a:	4648      	mov	r0, r9
10000f6c:	7048      	strb	r0, [r1, #1]
10000f6e:	7058      	strb	r0, [r3, #1]
10000f70:	4659      	mov	r1, fp
10000f72:	0020      	movs	r0, r4
10000f74:	f7ff fe64 	bl	10000c40 <ph_merge_nodes>
10000f78:	4653      	mov	r3, sl
10000f7a:	4683      	mov	fp, r0
10000f7c:	2b00      	cmp	r3, #0
10000f7e:	d007      	beq.n	10000f90 <ph_remove_head_reserve+0xfc>
10000f80:	005b      	lsls	r3, r3, #1
10000f82:	6821      	ldr	r1, [r4, #0]
10000f84:	4453      	add	r3, sl
10000f86:	3b03      	subs	r3, #3
10000f88:	18cb      	adds	r3, r1, r3
10000f8a:	785a      	ldrb	r2, [r3, #1]
10000f8c:	2a00      	cmp	r2, #0
10000f8e:	d106      	bne.n	10000f9e <ph_remove_head_reserve+0x10a>
10000f90:	4659      	mov	r1, fp
10000f92:	4652      	mov	r2, sl
10000f94:	0020      	movs	r0, r4
10000f96:	f7ff fe53 	bl	10000c40 <ph_merge_nodes>
10000f9a:	4683      	mov	fp, r0
10000f9c:	e7c7      	b.n	10000f2e <ph_remove_head_reserve+0x9a>
10000f9e:	0050      	lsls	r0, r2, #1
10000fa0:	1880      	adds	r0, r0, r2
10000fa2:	3803      	subs	r0, #3
10000fa4:	1809      	adds	r1, r1, r0
10000fa6:	4648      	mov	r0, r9
10000fa8:	784f      	ldrb	r7, [r1, #1]
10000faa:	7048      	strb	r0, [r1, #1]
10000fac:	7058      	strb	r0, [r3, #1]
10000fae:	4651      	mov	r1, sl
10000fb0:	0020      	movs	r0, r4
10000fb2:	f7ff fe45 	bl	10000c40 <ph_merge_nodes>
10000fb6:	0039      	movs	r1, r7
10000fb8:	4681      	mov	r9, r0
10000fba:	0020      	movs	r0, r4
10000fbc:	f7ff fea6 	bl	10000d0c <ph_merge_two_pass>
10000fc0:	4649      	mov	r1, r9
10000fc2:	0002      	movs	r2, r0
10000fc4:	0020      	movs	r0, r4
10000fc6:	f7ff fe3b 	bl	10000c40 <ph_merge_nodes>
10000fca:	4682      	mov	sl, r0
10000fcc:	e7e0      	b.n	10000f90 <ph_remove_head_reserve+0xfc>
10000fce:	46c0      	nop			; (mov r8, r8)

10000fd0 <ph_delete>:
10000fd0:	b570      	push	{r4, r5, r6, lr}
10000fd2:	0004      	movs	r4, r0
10000fd4:	2900      	cmp	r1, #0
10000fd6:	d02c      	beq.n	10001032 <ph_delete+0x62>
10000fd8:	7b43      	ldrb	r3, [r0, #13]
10000fda:	428b      	cmp	r3, r1
10000fdc:	d02e      	beq.n	1000103c <ph_delete+0x6c>
10000fde:	6805      	ldr	r5, [r0, #0]
10000fe0:	0048      	lsls	r0, r1, #1
10000fe2:	1840      	adds	r0, r0, r1
10000fe4:	3803      	subs	r0, #3
10000fe6:	1828      	adds	r0, r5, r0
10000fe8:	7882      	ldrb	r2, [r0, #2]
10000fea:	2a00      	cmp	r2, #0
10000fec:	d021      	beq.n	10001032 <ph_delete+0x62>
10000fee:	0053      	lsls	r3, r2, #1
10000ff0:	189b      	adds	r3, r3, r2
10000ff2:	3b03      	subs	r3, #3
10000ff4:	5cea      	ldrb	r2, [r5, r3]
10000ff6:	18ee      	adds	r6, r5, r3
10000ff8:	428a      	cmp	r2, r1
10000ffa:	d102      	bne.n	10001002 <ph_delete+0x32>
10000ffc:	e01b      	b.n	10001036 <ph_delete+0x66>
10000ffe:	2a00      	cmp	r2, #0
10001000:	d008      	beq.n	10001014 <ph_delete+0x44>
10001002:	0053      	lsls	r3, r2, #1
10001004:	189b      	adds	r3, r3, r2
10001006:	3b03      	subs	r3, #3
10001008:	18eb      	adds	r3, r5, r3
1000100a:	785a      	ldrb	r2, [r3, #1]
1000100c:	428a      	cmp	r2, r1
1000100e:	d1f6      	bne.n	10000ffe <ph_delete+0x2e>
10001010:	7842      	ldrb	r2, [r0, #1]
10001012:	705a      	strb	r2, [r3, #1]
10001014:	2300      	movs	r3, #0
10001016:	2200      	movs	r2, #0
10001018:	7083      	strb	r3, [r0, #2]
1000101a:	7043      	strb	r3, [r0, #1]
1000101c:	0020      	movs	r0, r4
1000101e:	f7ff febd 	bl	10000d9c <ph_remove_any_head>
10001022:	7b61      	ldrb	r1, [r4, #13]
10001024:	0002      	movs	r2, r0
10001026:	0020      	movs	r0, r4
10001028:	f7ff fe0a 	bl	10000c40 <ph_merge_nodes>
1000102c:	7360      	strb	r0, [r4, #13]
1000102e:	2001      	movs	r0, #1
10001030:	e000      	b.n	10001034 <ph_delete+0x64>
10001032:	2000      	movs	r0, #0
10001034:	bd70      	pop	{r4, r5, r6, pc}
10001036:	7843      	ldrb	r3, [r0, #1]
10001038:	7033      	strb	r3, [r6, #0]
1000103a:	e7eb      	b.n	10001014 <ph_delete+0x44>
1000103c:	2200      	movs	r2, #0
1000103e:	0019      	movs	r1, r3
10001040:	f7ff feac 	bl	10000d9c <ph_remove_any_head>
10001044:	7360      	strb	r0, [r4, #13]
10001046:	2001      	movs	r0, #1
10001048:	e7f4      	b.n	10001034 <ph_delete+0x64>
1000104a:	46c0      	nop			; (mov r8, r8)

1000104c <runtime_init>:
1000104c:	4b2b      	ldr	r3, [pc, #172]	; (100010fc <runtime_init+0xb0>)
1000104e:	4a2c      	ldr	r2, [pc, #176]	; (10001100 <runtime_init+0xb4>)
10001050:	b570      	push	{r4, r5, r6, lr}
10001052:	601a      	str	r2, [r3, #0]
10001054:	4a2b      	ldr	r2, [pc, #172]	; (10001104 <runtime_init+0xb8>)
10001056:	4b2c      	ldr	r3, [pc, #176]	; (10001108 <runtime_init+0xbc>)
10001058:	492c      	ldr	r1, [pc, #176]	; (1000110c <runtime_init+0xc0>)
1000105a:	601a      	str	r2, [r3, #0]
1000105c:	0010      	movs	r0, r2
1000105e:	688b      	ldr	r3, [r1, #8]
10001060:	4398      	bics	r0, r3
10001062:	d1fb      	bne.n	1000105c <runtime_init+0x10>
10001064:	4c2a      	ldr	r4, [pc, #168]	; (10001110 <runtime_init+0xc4>)
10001066:	4b2b      	ldr	r3, [pc, #172]	; (10001114 <runtime_init+0xc8>)
10001068:	429c      	cmp	r4, r3
1000106a:	d209      	bcs.n	10001080 <runtime_init+0x34>
1000106c:	3b01      	subs	r3, #1
1000106e:	1b1d      	subs	r5, r3, r4
10001070:	08ad      	lsrs	r5, r5, #2
10001072:	3501      	adds	r5, #1
10001074:	00ad      	lsls	r5, r5, #2
10001076:	192d      	adds	r5, r5, r4
10001078:	cc08      	ldmia	r4!, {r3}
1000107a:	4798      	blx	r3
1000107c:	42ac      	cmp	r4, r5
1000107e:	d1fb      	bne.n	10001078 <runtime_init+0x2c>
10001080:	f000 f894 	bl	100011ac <clocks_init>
10001084:	4a24      	ldr	r2, [pc, #144]	; (10001118 <runtime_init+0xcc>)
10001086:	4b20      	ldr	r3, [pc, #128]	; (10001108 <runtime_init+0xbc>)
10001088:	601a      	str	r2, [r3, #0]
1000108a:	4a20      	ldr	r2, [pc, #128]	; (1000110c <runtime_init+0xc0>)
1000108c:	6893      	ldr	r3, [r2, #8]
1000108e:	01db      	lsls	r3, r3, #7
10001090:	3380      	adds	r3, #128	; 0x80
10001092:	d1fb      	bne.n	1000108c <runtime_init+0x40>
10001094:	2240      	movs	r2, #64	; 0x40
10001096:	4b21      	ldr	r3, [pc, #132]	; (1000111c <runtime_init+0xd0>)
10001098:	4c21      	ldr	r4, [pc, #132]	; (10001120 <runtime_init+0xd4>)
1000109a:	679a      	str	r2, [r3, #120]	; 0x78
1000109c:	675a      	str	r2, [r3, #116]	; 0x74
1000109e:	671a      	str	r2, [r3, #112]	; 0x70
100010a0:	66da      	str	r2, [r3, #108]	; 0x6c
100010a2:	4b20      	ldr	r3, [pc, #128]	; (10001124 <runtime_init+0xd8>)
100010a4:	429c      	cmp	r4, r3
100010a6:	d20b      	bcs.n	100010c0 <runtime_init+0x74>
100010a8:	3b01      	subs	r3, #1
100010aa:	1b1d      	subs	r5, r3, r4
100010ac:	08ed      	lsrs	r5, r5, #3
100010ae:	3501      	adds	r5, #1
100010b0:	00ed      	lsls	r5, r5, #3
100010b2:	192d      	adds	r5, r5, r4
100010b4:	0020      	movs	r0, r4
100010b6:	3408      	adds	r4, #8
100010b8:	f7ff fdb6 	bl	10000c28 <mutex_init>
100010bc:	42ac      	cmp	r4, r5
100010be:	d1f9      	bne.n	100010b4 <runtime_init+0x68>
100010c0:	4c19      	ldr	r4, [pc, #100]	; (10001128 <runtime_init+0xdc>)
100010c2:	4d1a      	ldr	r5, [pc, #104]	; (1000112c <runtime_init+0xe0>)
100010c4:	68a1      	ldr	r1, [r4, #8]
100010c6:	22c0      	movs	r2, #192	; 0xc0
100010c8:	0028      	movs	r0, r5
100010ca:	f002 fe09 	bl	10003ce0 <__wrap___aeabi_memcpy>
100010ce:	60a5      	str	r5, [r4, #8]
100010d0:	f7ff f9fe 	bl	100004d0 <spin_locks_reset>
100010d4:	f000 fbaa 	bl	1000182c <irq_init_priorities>
100010d8:	f7ff fc28 	bl	1000092c <alarm_pool_init_default>
100010dc:	4c14      	ldr	r4, [pc, #80]	; (10001130 <runtime_init+0xe4>)
100010de:	4b15      	ldr	r3, [pc, #84]	; (10001134 <runtime_init+0xe8>)
100010e0:	429c      	cmp	r4, r3
100010e2:	d209      	bcs.n	100010f8 <runtime_init+0xac>
100010e4:	3b01      	subs	r3, #1
100010e6:	1b1d      	subs	r5, r3, r4
100010e8:	08ad      	lsrs	r5, r5, #2
100010ea:	3501      	adds	r5, #1
100010ec:	00ad      	lsls	r5, r5, #2
100010ee:	192d      	adds	r5, r5, r4
100010f0:	cc08      	ldmia	r4!, {r3}
100010f2:	4798      	blx	r3
100010f4:	42a5      	cmp	r5, r4
100010f6:	d1fb      	bne.n	100010f0 <runtime_init+0xa4>
100010f8:	bd70      	pop	{r4, r5, r6, pc}
100010fa:	46c0      	nop			; (mov r8, r8)
100010fc:	4000e000 	.word	0x4000e000
10001100:	ffffcdbf 	.word	0xffffcdbf
10001104:	003c7ffe 	.word	0x003c7ffe
10001108:	4000f000 	.word	0x4000f000
1000110c:	4000c000 	.word	0x4000c000
10001110:	20000a60 	.word	0x20000a60
10001114:	20000a70 	.word	0x20000a70
10001118:	01ffffff 	.word	0x01ffffff
1000111c:	4001f000 	.word	0x4001f000
10001120:	20000a58 	.word	0x20000a58
10001124:	20000a60 	.word	0x20000a60
10001128:	e000ed00 	.word	0xe000ed00
1000112c:	20000000 	.word	0x20000000
10001130:	20000a70 	.word	0x20000a70
10001134:	20000a74 	.word	0x20000a74

10001138 <_sbrk>:
10001138:	4a09      	ldr	r2, [pc, #36]	; (10001160 <_sbrk+0x28>)
1000113a:	0003      	movs	r3, r0
1000113c:	6810      	ldr	r0, [r2, #0]
1000113e:	2800      	cmp	r0, #0
10001140:	d005      	beq.n	1000114e <_sbrk+0x16>
10001142:	4908      	ldr	r1, [pc, #32]	; (10001164 <_sbrk+0x2c>)
10001144:	18c3      	adds	r3, r0, r3
10001146:	428b      	cmp	r3, r1
10001148:	d207      	bcs.n	1000115a <_sbrk+0x22>
1000114a:	6013      	str	r3, [r2, #0]
1000114c:	4770      	bx	lr
1000114e:	4806      	ldr	r0, [pc, #24]	; (10001168 <_sbrk+0x30>)
10001150:	4904      	ldr	r1, [pc, #16]	; (10001164 <_sbrk+0x2c>)
10001152:	18c3      	adds	r3, r0, r3
10001154:	6010      	str	r0, [r2, #0]
10001156:	428b      	cmp	r3, r1
10001158:	d3f7      	bcc.n	1000114a <_sbrk+0x12>
1000115a:	2001      	movs	r0, #1
1000115c:	4240      	negs	r0, r0
1000115e:	e7f5      	b.n	1000114c <_sbrk+0x14>
10001160:	20000b08 	.word	0x20000b08
10001164:	20040000 	.word	0x20040000
10001168:	20000d64 	.word	0x20000d64

1000116c <exit>:
1000116c:	be00      	bkpt	0x0000
1000116e:	e7fd      	b.n	1000116c <exit>

10001170 <panic>:
10001170:	b40f      	push	{r0, r1, r2, r3}
10001172:	b500      	push	{lr}
10001174:	4808      	ldr	r0, [pc, #32]	; (10001198 <panic+0x28>)
10001176:	b083      	sub	sp, #12
10001178:	f002 fec4 	bl	10003f04 <__wrap_puts>
1000117c:	9b04      	ldr	r3, [sp, #16]
1000117e:	2b00      	cmp	r3, #0
10001180:	d007      	beq.n	10001192 <panic+0x22>
10001182:	a905      	add	r1, sp, #20
10001184:	0018      	movs	r0, r3
10001186:	9101      	str	r1, [sp, #4]
10001188:	f001 fe78 	bl	10002e7c <weak_raw_vprintf>
1000118c:	4803      	ldr	r0, [pc, #12]	; (1000119c <panic+0x2c>)
1000118e:	f002 feb9 	bl	10003f04 <__wrap_puts>
10001192:	be00      	bkpt	0x0000
10001194:	e7fd      	b.n	10001192 <panic+0x22>
10001196:	46c0      	nop			; (mov r8, r8)
10001198:	10004c68 	.word	0x10004c68
1000119c:	10004c78 	.word	0x10004c78

100011a0 <hard_assertion_failure>:
100011a0:	b510      	push	{r4, lr}
100011a2:	4801      	ldr	r0, [pc, #4]	; (100011a8 <hard_assertion_failure+0x8>)
100011a4:	f7ff ffe4 	bl	10001170 <panic>
100011a8:	10004c7c 	.word	0x10004c7c

100011ac <clocks_init>:
100011ac:	b530      	push	{r4, r5, lr}
100011ae:	200c      	movs	r0, #12
100011b0:	b083      	sub	sp, #12
100011b2:	f000 f971 	bl	10001498 <watchdog_start_tick>
100011b6:	f7ff f9a5 	bl	10000504 <running_on_fpga>
100011ba:	2800      	cmp	r0, #0
100011bc:	d00e      	beq.n	100011dc <clocks_init+0x30>
100011be:	4b9a      	ldr	r3, [pc, #616]	; (10001428 <clocks_init+0x27c>)
100011c0:	4a9a      	ldr	r2, [pc, #616]	; (1000142c <clocks_init+0x280>)
100011c2:	601a      	str	r2, [r3, #0]
100011c4:	605a      	str	r2, [r3, #4]
100011c6:	609a      	str	r2, [r3, #8]
100011c8:	60da      	str	r2, [r3, #12]
100011ca:	611a      	str	r2, [r3, #16]
100011cc:	615a      	str	r2, [r3, #20]
100011ce:	619a      	str	r2, [r3, #24]
100011d0:	61da      	str	r2, [r3, #28]
100011d2:	621a      	str	r2, [r3, #32]
100011d4:	4a96      	ldr	r2, [pc, #600]	; (10001430 <clocks_init+0x284>)
100011d6:	625a      	str	r2, [r3, #36]	; 0x24
100011d8:	b003      	add	sp, #12
100011da:	bd30      	pop	{r4, r5, pc}
100011dc:	4c95      	ldr	r4, [pc, #596]	; (10001434 <clocks_init+0x288>)
100011de:	67a0      	str	r0, [r4, #120]	; 0x78
100011e0:	f000 f962 	bl	100014a8 <xosc_init>
100011e4:	2201      	movs	r2, #1
100011e6:	4b94      	ldr	r3, [pc, #592]	; (10001438 <clocks_init+0x28c>)
100011e8:	601a      	str	r2, [r3, #0]
100011ea:	6c63      	ldr	r3, [r4, #68]	; 0x44
100011ec:	2b01      	cmp	r3, #1
100011ee:	d1fc      	bne.n	100011ea <clocks_init+0x3e>
100011f0:	2203      	movs	r2, #3
100011f2:	4b92      	ldr	r3, [pc, #584]	; (1000143c <clocks_init+0x290>)
100011f4:	601a      	str	r2, [r3, #0]
100011f6:	4a8f      	ldr	r2, [pc, #572]	; (10001434 <clocks_init+0x288>)
100011f8:	6b93      	ldr	r3, [r2, #56]	; 0x38
100011fa:	2b01      	cmp	r3, #1
100011fc:	d1fc      	bne.n	100011f8 <clocks_init+0x4c>
100011fe:	22c0      	movs	r2, #192	; 0xc0
10001200:	4b8f      	ldr	r3, [pc, #572]	; (10001440 <clocks_init+0x294>)
10001202:	0192      	lsls	r2, r2, #6
10001204:	601a      	str	r2, [r3, #0]
10001206:	4b8f      	ldr	r3, [pc, #572]	; (10001444 <clocks_init+0x298>)
10001208:	498f      	ldr	r1, [pc, #572]	; (10001448 <clocks_init+0x29c>)
1000120a:	601a      	str	r2, [r3, #0]
1000120c:	0010      	movs	r0, r2
1000120e:	688b      	ldr	r3, [r1, #8]
10001210:	4398      	bics	r0, r3
10001212:	1e03      	subs	r3, r0, #0
10001214:	d1fa      	bne.n	1000120c <clocks_init+0x60>
10001216:	2402      	movs	r4, #2
10001218:	2101      	movs	r1, #1
1000121a:	4a8c      	ldr	r2, [pc, #560]	; (1000144c <clocks_init+0x2a0>)
1000121c:	488c      	ldr	r0, [pc, #560]	; (10001450 <clocks_init+0x2a4>)
1000121e:	3306      	adds	r3, #6
10001220:	9400      	str	r4, [sp, #0]
10001222:	f000 f955 	bl	100014d0 <pll_init>
10001226:	2305      	movs	r3, #5
10001228:	4a8a      	ldr	r2, [pc, #552]	; (10001454 <clocks_init+0x2a8>)
1000122a:	2101      	movs	r1, #1
1000122c:	488a      	ldr	r0, [pc, #552]	; (10001458 <clocks_init+0x2ac>)
1000122e:	9400      	str	r4, [sp, #0]
10001230:	f000 f94e 	bl	100014d0 <pll_init>
10001234:	4b89      	ldr	r3, [pc, #548]	; (1000145c <clocks_init+0x2b0>)
10001236:	685a      	ldr	r2, [r3, #4]
10001238:	2aff      	cmp	r2, #255	; 0xff
1000123a:	d802      	bhi.n	10001242 <clocks_init+0x96>
1000123c:	2280      	movs	r2, #128	; 0x80
1000123e:	0052      	lsls	r2, r2, #1
10001240:	605a      	str	r2, [r3, #4]
10001242:	2280      	movs	r2, #128	; 0x80
10001244:	4c78      	ldr	r4, [pc, #480]	; (10001428 <clocks_init+0x27c>)
10001246:	4b7d      	ldr	r3, [pc, #500]	; (1000143c <clocks_init+0x290>)
10001248:	6921      	ldr	r1, [r4, #16]
1000124a:	0112      	lsls	r2, r2, #4
1000124c:	4d83      	ldr	r5, [pc, #524]	; (1000145c <clocks_init+0x2b0>)
1000124e:	601a      	str	r2, [r3, #0]
10001250:	2900      	cmp	r1, #0
10001252:	d005      	beq.n	10001260 <clocks_init+0xb4>
10001254:	6960      	ldr	r0, [r4, #20]
10001256:	f001 fe8b 	bl	10002f70 <__wrap___aeabi_uidiv>
1000125a:	3001      	adds	r0, #1
1000125c:	3801      	subs	r0, #1
1000125e:	d1fd      	bne.n	1000125c <clocks_init+0xb0>
10001260:	21e0      	movs	r1, #224	; 0xe0
10001262:	4b7e      	ldr	r3, [pc, #504]	; (1000145c <clocks_init+0x2b0>)
10001264:	2002      	movs	r0, #2
10001266:	681a      	ldr	r2, [r3, #0]
10001268:	4011      	ands	r1, r2
1000126a:	2280      	movs	r2, #128	; 0x80
1000126c:	0152      	lsls	r2, r2, #5
1000126e:	432a      	orrs	r2, r5
10001270:	6011      	str	r1, [r2, #0]
10001272:	6819      	ldr	r1, [r3, #0]
10001274:	4048      	eors	r0, r1
10001276:	2103      	movs	r1, #3
10001278:	4001      	ands	r1, r0
1000127a:	6011      	str	r1, [r2, #0]
1000127c:	2104      	movs	r1, #4
1000127e:	689a      	ldr	r2, [r3, #8]
10001280:	4211      	tst	r1, r2
10001282:	d0fc      	beq.n	1000127e <clocks_init+0xd2>
10001284:	2280      	movs	r2, #128	; 0x80
10001286:	2180      	movs	r1, #128	; 0x80
10001288:	0192      	lsls	r2, r2, #6
1000128a:	432a      	orrs	r2, r5
1000128c:	0109      	lsls	r1, r1, #4
1000128e:	6011      	str	r1, [r2, #0]
10001290:	2280      	movs	r2, #128	; 0x80
10001292:	0052      	lsls	r2, r2, #1
10001294:	605a      	str	r2, [r3, #4]
10001296:	4b72      	ldr	r3, [pc, #456]	; (10001460 <clocks_init+0x2b4>)
10001298:	6123      	str	r3, [r4, #16]
1000129a:	4b72      	ldr	r3, [pc, #456]	; (10001464 <clocks_init+0x2b8>)
1000129c:	6859      	ldr	r1, [r3, #4]
1000129e:	29ff      	cmp	r1, #255	; 0xff
100012a0:	d800      	bhi.n	100012a4 <clocks_init+0xf8>
100012a2:	605a      	str	r2, [r3, #4]
100012a4:	2203      	movs	r2, #3
100012a6:	486f      	ldr	r0, [pc, #444]	; (10001464 <clocks_init+0x2b8>)
100012a8:	4b63      	ldr	r3, [pc, #396]	; (10001438 <clocks_init+0x28c>)
100012aa:	2101      	movs	r1, #1
100012ac:	601a      	str	r2, [r3, #0]
100012ae:	0002      	movs	r2, r0
100012b0:	6893      	ldr	r3, [r2, #8]
100012b2:	4219      	tst	r1, r3
100012b4:	d0fc      	beq.n	100012b0 <clocks_init+0x104>
100012b6:	25e0      	movs	r5, #224	; 0xe0
100012b8:	6813      	ldr	r3, [r2, #0]
100012ba:	401d      	ands	r5, r3
100012bc:	2380      	movs	r3, #128	; 0x80
100012be:	015b      	lsls	r3, r3, #5
100012c0:	4303      	orrs	r3, r0
100012c2:	601d      	str	r5, [r3, #0]
100012c4:	6812      	ldr	r2, [r2, #0]
100012c6:	404a      	eors	r2, r1
100012c8:	2103      	movs	r1, #3
100012ca:	4011      	ands	r1, r2
100012cc:	6019      	str	r1, [r3, #0]
100012ce:	2102      	movs	r1, #2
100012d0:	4a64      	ldr	r2, [pc, #400]	; (10001464 <clocks_init+0x2b8>)
100012d2:	6893      	ldr	r3, [r2, #8]
100012d4:	4219      	tst	r1, r3
100012d6:	d0fc      	beq.n	100012d2 <clocks_init+0x126>
100012d8:	2380      	movs	r3, #128	; 0x80
100012da:	2180      	movs	r1, #128	; 0x80
100012dc:	019b      	lsls	r3, r3, #6
100012de:	4303      	orrs	r3, r0
100012e0:	0109      	lsls	r1, r1, #4
100012e2:	6019      	str	r1, [r3, #0]
100012e4:	2180      	movs	r1, #128	; 0x80
100012e6:	4b60      	ldr	r3, [pc, #384]	; (10001468 <clocks_init+0x2bc>)
100012e8:	0049      	lsls	r1, r1, #1
100012ea:	6051      	str	r1, [r2, #4]
100012ec:	6163      	str	r3, [r4, #20]
100012ee:	4b5f      	ldr	r3, [pc, #380]	; (1000146c <clocks_init+0x2c0>)
100012f0:	685a      	ldr	r2, [r3, #4]
100012f2:	2aff      	cmp	r2, #255	; 0xff
100012f4:	d800      	bhi.n	100012f8 <clocks_init+0x14c>
100012f6:	6059      	str	r1, [r3, #4]
100012f8:	2280      	movs	r2, #128	; 0x80
100012fa:	4b5d      	ldr	r3, [pc, #372]	; (10001470 <clocks_init+0x2c4>)
100012fc:	69e1      	ldr	r1, [r4, #28]
100012fe:	0112      	lsls	r2, r2, #4
10001300:	4d5a      	ldr	r5, [pc, #360]	; (1000146c <clocks_init+0x2c0>)
10001302:	601a      	str	r2, [r3, #0]
10001304:	2900      	cmp	r1, #0
10001306:	d005      	beq.n	10001314 <clocks_init+0x168>
10001308:	6960      	ldr	r0, [r4, #20]
1000130a:	f001 fe31 	bl	10002f70 <__wrap___aeabi_uidiv>
1000130e:	3001      	adds	r0, #1
10001310:	3801      	subs	r0, #1
10001312:	d1fd      	bne.n	10001310 <clocks_init+0x164>
10001314:	22e0      	movs	r2, #224	; 0xe0
10001316:	4955      	ldr	r1, [pc, #340]	; (1000146c <clocks_init+0x2c0>)
10001318:	680b      	ldr	r3, [r1, #0]
1000131a:	401a      	ands	r2, r3
1000131c:	2380      	movs	r3, #128	; 0x80
1000131e:	015b      	lsls	r3, r3, #5
10001320:	432b      	orrs	r3, r5
10001322:	601a      	str	r2, [r3, #0]
10001324:	2380      	movs	r3, #128	; 0x80
10001326:	2280      	movs	r2, #128	; 0x80
10001328:	019b      	lsls	r3, r3, #6
1000132a:	432b      	orrs	r3, r5
1000132c:	0112      	lsls	r2, r2, #4
1000132e:	601a      	str	r2, [r3, #0]
10001330:	2280      	movs	r2, #128	; 0x80
10001332:	4b3e      	ldr	r3, [pc, #248]	; (1000142c <clocks_init+0x280>)
10001334:	0052      	lsls	r2, r2, #1
10001336:	604a      	str	r2, [r1, #4]
10001338:	61e3      	str	r3, [r4, #28]
1000133a:	4b4e      	ldr	r3, [pc, #312]	; (10001474 <clocks_init+0x2c8>)
1000133c:	6859      	ldr	r1, [r3, #4]
1000133e:	29ff      	cmp	r1, #255	; 0xff
10001340:	d800      	bhi.n	10001344 <clocks_init+0x198>
10001342:	605a      	str	r2, [r3, #4]
10001344:	2280      	movs	r2, #128	; 0x80
10001346:	4b4c      	ldr	r3, [pc, #304]	; (10001478 <clocks_init+0x2cc>)
10001348:	6a21      	ldr	r1, [r4, #32]
1000134a:	0112      	lsls	r2, r2, #4
1000134c:	4d49      	ldr	r5, [pc, #292]	; (10001474 <clocks_init+0x2c8>)
1000134e:	601a      	str	r2, [r3, #0]
10001350:	2900      	cmp	r1, #0
10001352:	d005      	beq.n	10001360 <clocks_init+0x1b4>
10001354:	6960      	ldr	r0, [r4, #20]
10001356:	f001 fe0b 	bl	10002f70 <__wrap___aeabi_uidiv>
1000135a:	3001      	adds	r0, #1
1000135c:	3801      	subs	r0, #1
1000135e:	d1fd      	bne.n	1000135c <clocks_init+0x1b0>
10001360:	22e0      	movs	r2, #224	; 0xe0
10001362:	4944      	ldr	r1, [pc, #272]	; (10001474 <clocks_init+0x2c8>)
10001364:	680b      	ldr	r3, [r1, #0]
10001366:	401a      	ands	r2, r3
10001368:	2380      	movs	r3, #128	; 0x80
1000136a:	015b      	lsls	r3, r3, #5
1000136c:	432b      	orrs	r3, r5
1000136e:	601a      	str	r2, [r3, #0]
10001370:	2380      	movs	r3, #128	; 0x80
10001372:	2280      	movs	r2, #128	; 0x80
10001374:	019b      	lsls	r3, r3, #6
10001376:	432b      	orrs	r3, r5
10001378:	0112      	lsls	r2, r2, #4
1000137a:	601a      	str	r2, [r3, #0]
1000137c:	2380      	movs	r3, #128	; 0x80
1000137e:	2280      	movs	r2, #128	; 0x80
10001380:	005b      	lsls	r3, r3, #1
10001382:	604b      	str	r3, [r1, #4]
10001384:	4b29      	ldr	r3, [pc, #164]	; (1000142c <clocks_init+0x280>)
10001386:	02d2      	lsls	r2, r2, #11
10001388:	6223      	str	r3, [r4, #32]
1000138a:	4b3c      	ldr	r3, [pc, #240]	; (1000147c <clocks_init+0x2d0>)
1000138c:	6859      	ldr	r1, [r3, #4]
1000138e:	4291      	cmp	r1, r2
10001390:	d200      	bcs.n	10001394 <clocks_init+0x1e8>
10001392:	605a      	str	r2, [r3, #4]
10001394:	2280      	movs	r2, #128	; 0x80
10001396:	4b3a      	ldr	r3, [pc, #232]	; (10001480 <clocks_init+0x2d4>)
10001398:	6a61      	ldr	r1, [r4, #36]	; 0x24
1000139a:	0112      	lsls	r2, r2, #4
1000139c:	4d37      	ldr	r5, [pc, #220]	; (1000147c <clocks_init+0x2d0>)
1000139e:	601a      	str	r2, [r3, #0]
100013a0:	2900      	cmp	r1, #0
100013a2:	d005      	beq.n	100013b0 <clocks_init+0x204>
100013a4:	6960      	ldr	r0, [r4, #20]
100013a6:	f001 fde3 	bl	10002f70 <__wrap___aeabi_uidiv>
100013aa:	3001      	adds	r0, #1
100013ac:	3801      	subs	r0, #1
100013ae:	d1fd      	bne.n	100013ac <clocks_init+0x200>
100013b0:	22e0      	movs	r2, #224	; 0xe0
100013b2:	4932      	ldr	r1, [pc, #200]	; (1000147c <clocks_init+0x2d0>)
100013b4:	680b      	ldr	r3, [r1, #0]
100013b6:	401a      	ands	r2, r3
100013b8:	2380      	movs	r3, #128	; 0x80
100013ba:	015b      	lsls	r3, r3, #5
100013bc:	432b      	orrs	r3, r5
100013be:	601a      	str	r2, [r3, #0]
100013c0:	2380      	movs	r3, #128	; 0x80
100013c2:	2280      	movs	r2, #128	; 0x80
100013c4:	019b      	lsls	r3, r3, #6
100013c6:	432b      	orrs	r3, r5
100013c8:	0112      	lsls	r2, r2, #4
100013ca:	601a      	str	r2, [r3, #0]
100013cc:	2380      	movs	r3, #128	; 0x80
100013ce:	02db      	lsls	r3, r3, #11
100013d0:	604b      	str	r3, [r1, #4]
100013d2:	4b17      	ldr	r3, [pc, #92]	; (10001430 <clocks_init+0x284>)
100013d4:	6263      	str	r3, [r4, #36]	; 0x24
100013d6:	4b2b      	ldr	r3, [pc, #172]	; (10001484 <clocks_init+0x2d8>)
100013d8:	685a      	ldr	r2, [r3, #4]
100013da:	2aff      	cmp	r2, #255	; 0xff
100013dc:	d802      	bhi.n	100013e4 <clocks_init+0x238>
100013de:	2280      	movs	r2, #128	; 0x80
100013e0:	0052      	lsls	r2, r2, #1
100013e2:	605a      	str	r2, [r3, #4]
100013e4:	2280      	movs	r2, #128	; 0x80
100013e6:	4b28      	ldr	r3, [pc, #160]	; (10001488 <clocks_init+0x2dc>)
100013e8:	69a1      	ldr	r1, [r4, #24]
100013ea:	0112      	lsls	r2, r2, #4
100013ec:	4d25      	ldr	r5, [pc, #148]	; (10001484 <clocks_init+0x2d8>)
100013ee:	601a      	str	r2, [r3, #0]
100013f0:	2900      	cmp	r1, #0
100013f2:	d005      	beq.n	10001400 <clocks_init+0x254>
100013f4:	6960      	ldr	r0, [r4, #20]
100013f6:	f001 fdbb 	bl	10002f70 <__wrap___aeabi_uidiv>
100013fa:	3001      	adds	r0, #1
100013fc:	3801      	subs	r0, #1
100013fe:	d1fd      	bne.n	100013fc <clocks_init+0x250>
10001400:	22e0      	movs	r2, #224	; 0xe0
10001402:	4920      	ldr	r1, [pc, #128]	; (10001484 <clocks_init+0x2d8>)
10001404:	680b      	ldr	r3, [r1, #0]
10001406:	401a      	ands	r2, r3
10001408:	2380      	movs	r3, #128	; 0x80
1000140a:	015b      	lsls	r3, r3, #5
1000140c:	432b      	orrs	r3, r5
1000140e:	601a      	str	r2, [r3, #0]
10001410:	2380      	movs	r3, #128	; 0x80
10001412:	2280      	movs	r2, #128	; 0x80
10001414:	019b      	lsls	r3, r3, #6
10001416:	432b      	orrs	r3, r5
10001418:	0112      	lsls	r2, r2, #4
1000141a:	601a      	str	r2, [r3, #0]
1000141c:	2380      	movs	r3, #128	; 0x80
1000141e:	005b      	lsls	r3, r3, #1
10001420:	604b      	str	r3, [r1, #4]
10001422:	4b11      	ldr	r3, [pc, #68]	; (10001468 <clocks_init+0x2bc>)
10001424:	61a3      	str	r3, [r4, #24]
10001426:	e6d7      	b.n	100011d8 <clocks_init+0x2c>
10001428:	20000ad4 	.word	0x20000ad4
1000142c:	02dc6c00 	.word	0x02dc6c00
10001430:	0000b71b 	.word	0x0000b71b
10001434:	40008000 	.word	0x40008000
10001438:	4000b03c 	.word	0x4000b03c
1000143c:	4000b030 	.word	0x4000b030
10001440:	4000e000 	.word	0x4000e000
10001444:	4000f000 	.word	0x4000f000
10001448:	4000c000 	.word	0x4000c000
1000144c:	59682f00 	.word	0x59682f00
10001450:	40028000 	.word	0x40028000
10001454:	1c9c3800 	.word	0x1c9c3800
10001458:	4002c000 	.word	0x4002c000
1000145c:	40008030 	.word	0x40008030
10001460:	00b71b00 	.word	0x00b71b00
10001464:	4000803c 	.word	0x4000803c
10001468:	07735940 	.word	0x07735940
1000146c:	40008054 	.word	0x40008054
10001470:	4000b054 	.word	0x4000b054
10001474:	40008060 	.word	0x40008060
10001478:	4000b060 	.word	0x4000b060
1000147c:	4000806c 	.word	0x4000806c
10001480:	4000b06c 	.word	0x4000b06c
10001484:	40008048 	.word	0x40008048
10001488:	4000b048 	.word	0x4000b048

1000148c <clock_get_hz>:
1000148c:	4b01      	ldr	r3, [pc, #4]	; (10001494 <clock_get_hz+0x8>)
1000148e:	0080      	lsls	r0, r0, #2
10001490:	58c0      	ldr	r0, [r0, r3]
10001492:	4770      	bx	lr
10001494:	20000ad4 	.word	0x20000ad4

10001498 <watchdog_start_tick>:
10001498:	2380      	movs	r3, #128	; 0x80
1000149a:	4a02      	ldr	r2, [pc, #8]	; (100014a4 <watchdog_start_tick+0xc>)
1000149c:	009b      	lsls	r3, r3, #2
1000149e:	4303      	orrs	r3, r0
100014a0:	62d3      	str	r3, [r2, #44]	; 0x2c
100014a2:	4770      	bx	lr
100014a4:	40058000 	.word	0x40058000

100014a8 <xosc_init>:
100014a8:	23aa      	movs	r3, #170	; 0xaa
100014aa:	4a06      	ldr	r2, [pc, #24]	; (100014c4 <xosc_init+0x1c>)
100014ac:	011b      	lsls	r3, r3, #4
100014ae:	6013      	str	r3, [r2, #0]
100014b0:	232f      	movs	r3, #47	; 0x2f
100014b2:	4905      	ldr	r1, [pc, #20]	; (100014c8 <xosc_init+0x20>)
100014b4:	60d3      	str	r3, [r2, #12]
100014b6:	4b05      	ldr	r3, [pc, #20]	; (100014cc <xosc_init+0x24>)
100014b8:	6019      	str	r1, [r3, #0]
100014ba:	6853      	ldr	r3, [r2, #4]
100014bc:	2b00      	cmp	r3, #0
100014be:	dafc      	bge.n	100014ba <xosc_init+0x12>
100014c0:	4770      	bx	lr
100014c2:	46c0      	nop			; (mov r8, r8)
100014c4:	40024000 	.word	0x40024000
100014c8:	00fab000 	.word	0x00fab000
100014cc:	40026000 	.word	0x40026000

100014d0 <pll_init>:
100014d0:	b5f8      	push	{r3, r4, r5, r6, r7, lr}
100014d2:	001d      	movs	r5, r3
100014d4:	ab06      	add	r3, sp, #24
100014d6:	781e      	ldrb	r6, [r3, #0]
100014d8:	2301      	movs	r3, #1
100014da:	425b      	negs	r3, r3
100014dc:	6043      	str	r3, [r0, #4]
100014de:	2300      	movs	r3, #0
100014e0:	0004      	movs	r4, r0
100014e2:	6083      	str	r3, [r0, #8]
100014e4:	6001      	str	r1, [r0, #0]
100014e6:	200c      	movs	r0, #12
100014e8:	0017      	movs	r7, r2
100014ea:	f001 fd41 	bl	10002f70 <__wrap___aeabi_uidiv>
100014ee:	0141      	lsls	r1, r0, #5
100014f0:	1a09      	subs	r1, r1, r0
100014f2:	018b      	lsls	r3, r1, #6
100014f4:	1a59      	subs	r1, r3, r1
100014f6:	00c9      	lsls	r1, r1, #3
100014f8:	1809      	adds	r1, r1, r0
100014fa:	0189      	lsls	r1, r1, #6
100014fc:	0038      	movs	r0, r7
100014fe:	f001 fd37 	bl	10002f70 <__wrap___aeabi_uidiv>
10001502:	21c0      	movs	r1, #192	; 0xc0
10001504:	1d23      	adds	r3, r4, #4
10001506:	0189      	lsls	r1, r1, #6
10001508:	4319      	orrs	r1, r3
1000150a:	2321      	movs	r3, #33	; 0x21
1000150c:	60a0      	str	r0, [r4, #8]
1000150e:	600b      	str	r3, [r1, #0]
10001510:	6822      	ldr	r2, [r4, #0]
10001512:	2a00      	cmp	r2, #0
10001514:	dafc      	bge.n	10001510 <pll_init+0x40>
10001516:	2308      	movs	r3, #8
10001518:	042d      	lsls	r5, r5, #16
1000151a:	0336      	lsls	r6, r6, #12
1000151c:	432e      	orrs	r6, r5
1000151e:	60e6      	str	r6, [r4, #12]
10001520:	600b      	str	r3, [r1, #0]
10001522:	bdf8      	pop	{r3, r4, r5, r6, r7, pc}

10001524 <irq_set_enabled>:
10001524:	2301      	movs	r3, #1
10001526:	4083      	lsls	r3, r0
10001528:	2900      	cmp	r1, #0
1000152a:	d004      	beq.n	10001536 <irq_set_enabled+0x12>
1000152c:	4a03      	ldr	r2, [pc, #12]	; (1000153c <irq_set_enabled+0x18>)
1000152e:	6013      	str	r3, [r2, #0]
10001530:	4a03      	ldr	r2, [pc, #12]	; (10001540 <irq_set_enabled+0x1c>)
10001532:	6013      	str	r3, [r2, #0]
10001534:	4770      	bx	lr
10001536:	4a03      	ldr	r2, [pc, #12]	; (10001544 <irq_set_enabled+0x20>)
10001538:	6013      	str	r3, [r2, #0]
1000153a:	e7fb      	b.n	10001534 <irq_set_enabled+0x10>
1000153c:	e000e280 	.word	0xe000e280
10001540:	e000e100 	.word	0xe000e100
10001544:	e000e180 	.word	0xe000e180

10001548 <irq_get_vtable_handler>:
10001548:	4b02      	ldr	r3, [pc, #8]	; (10001554 <irq_get_vtable_handler+0xc>)
1000154a:	3010      	adds	r0, #16
1000154c:	689b      	ldr	r3, [r3, #8]
1000154e:	0080      	lsls	r0, r0, #2
10001550:	58c0      	ldr	r0, [r0, r3]
10001552:	4770      	bx	lr
10001554:	e000ed00 	.word	0xe000ed00

10001558 <irq_set_exclusive_handler>:
10001558:	b570      	push	{r4, r5, r6, lr}
1000155a:	000d      	movs	r5, r1
1000155c:	f3ef 8610 	mrs	r6, PRIMASK
10001560:	b672      	cpsid	i
10001562:	4a0f      	ldr	r2, [pc, #60]	; (100015a0 <irq_set_exclusive_handler+0x48>)
10001564:	6813      	ldr	r3, [r2, #0]
10001566:	2b00      	cmp	r3, #0
10001568:	d0fc      	beq.n	10001564 <irq_set_exclusive_handler+0xc>
1000156a:	f3bf 8f5f 	dmb	sy
1000156e:	4b0d      	ldr	r3, [pc, #52]	; (100015a4 <irq_set_exclusive_handler+0x4c>)
10001570:	3010      	adds	r0, #16
10001572:	689b      	ldr	r3, [r3, #8]
10001574:	0084      	lsls	r4, r0, #2
10001576:	591b      	ldr	r3, [r3, r4]
10001578:	4a0b      	ldr	r2, [pc, #44]	; (100015a8 <irq_set_exclusive_handler+0x50>)
1000157a:	4293      	cmp	r3, r2
1000157c:	d003      	beq.n	10001586 <irq_set_exclusive_handler+0x2e>
1000157e:	429d      	cmp	r5, r3
10001580:	d001      	beq.n	10001586 <irq_set_exclusive_handler+0x2e>
10001582:	f7ff fe0d 	bl	100011a0 <hard_assertion_failure>
10001586:	4b07      	ldr	r3, [pc, #28]	; (100015a4 <irq_set_exclusive_handler+0x4c>)
10001588:	689b      	ldr	r3, [r3, #8]
1000158a:	511d      	str	r5, [r3, r4]
1000158c:	f3bf 8f5f 	dmb	sy
10001590:	f3bf 8f5f 	dmb	sy
10001594:	2200      	movs	r2, #0
10001596:	4b02      	ldr	r3, [pc, #8]	; (100015a0 <irq_set_exclusive_handler+0x48>)
10001598:	601a      	str	r2, [r3, #0]
1000159a:	f386 8810 	msr	PRIMASK, r6
1000159e:	bd70      	pop	{r4, r5, r6, pc}
100015a0:	d0000124 	.word	0xd0000124
100015a4:	e000ed00 	.word	0xe000ed00
100015a8:	100002cd 	.word	0x100002cd

100015ac <irq_remove_handler>:
100015ac:	b5f0      	push	{r4, r5, r6, r7, lr}
100015ae:	46de      	mov	lr, fp
100015b0:	4657      	mov	r7, sl
100015b2:	464e      	mov	r6, r9
100015b4:	4645      	mov	r5, r8
100015b6:	b5e0      	push	{r5, r6, r7, lr}
100015b8:	000c      	movs	r4, r1
100015ba:	b083      	sub	sp, #12
100015bc:	f3ef 8a10 	mrs	sl, PRIMASK
100015c0:	b672      	cpsid	i
100015c2:	4a5f      	ldr	r2, [pc, #380]	; (10001740 <irq_remove_handler+0x194>)
100015c4:	6813      	ldr	r3, [r2, #0]
100015c6:	2b00      	cmp	r3, #0
100015c8:	d0fc      	beq.n	100015c4 <irq_remove_handler+0x18>
100015ca:	f3bf 8f5f 	dmb	sy
100015ce:	2210      	movs	r2, #16
100015d0:	4691      	mov	r9, r2
100015d2:	4481      	add	r9, r0
100015d4:	464a      	mov	r2, r9
100015d6:	4b5b      	ldr	r3, [pc, #364]	; (10001744 <irq_remove_handler+0x198>)
100015d8:	0096      	lsls	r6, r2, #2
100015da:	689b      	ldr	r3, [r3, #8]
100015dc:	599d      	ldr	r5, [r3, r6]
100015de:	4b5a      	ldr	r3, [pc, #360]	; (10001748 <irq_remove_handler+0x19c>)
100015e0:	4698      	mov	r8, r3
100015e2:	429d      	cmp	r5, r3
100015e4:	d005      	beq.n	100015f2 <irq_remove_handler+0x46>
100015e6:	42a5      	cmp	r5, r4
100015e8:	d016      	beq.n	10001618 <irq_remove_handler+0x6c>
100015ea:	4f58      	ldr	r7, [pc, #352]	; (1000174c <irq_remove_handler+0x1a0>)
100015ec:	1beb      	subs	r3, r5, r7
100015ee:	2b2f      	cmp	r3, #47	; 0x2f
100015f0:	d914      	bls.n	1000161c <irq_remove_handler+0x70>
100015f2:	4b54      	ldr	r3, [pc, #336]	; (10001744 <irq_remove_handler+0x198>)
100015f4:	689b      	ldr	r3, [r3, #8]
100015f6:	519d      	str	r5, [r3, r6]
100015f8:	f3bf 8f5f 	dmb	sy
100015fc:	f3bf 8f5f 	dmb	sy
10001600:	2200      	movs	r2, #0
10001602:	4b4f      	ldr	r3, [pc, #316]	; (10001740 <irq_remove_handler+0x194>)
10001604:	601a      	str	r2, [r3, #0]
10001606:	f38a 8810 	msr	PRIMASK, sl
1000160a:	b003      	add	sp, #12
1000160c:	bc3c      	pop	{r2, r3, r4, r5}
1000160e:	4690      	mov	r8, r2
10001610:	4699      	mov	r9, r3
10001612:	46a2      	mov	sl, r4
10001614:	46ab      	mov	fp, r5
10001616:	bdf0      	pop	{r4, r5, r6, r7, pc}
10001618:	001d      	movs	r5, r3
1000161a:	e7ea      	b.n	100015f2 <irq_remove_handler+0x46>
1000161c:	2301      	movs	r3, #1
1000161e:	4083      	lsls	r3, r0
10001620:	469b      	mov	fp, r3
10001622:	465a      	mov	r2, fp
10001624:	4b4a      	ldr	r3, [pc, #296]	; (10001750 <irq_remove_handler+0x1a4>)
10001626:	681b      	ldr	r3, [r3, #0]
10001628:	401a      	ands	r2, r3
1000162a:	9200      	str	r2, [sp, #0]
1000162c:	465a      	mov	r2, fp
1000162e:	4b49      	ldr	r3, [pc, #292]	; (10001754 <irq_remove_handler+0x1a8>)
10001630:	601a      	str	r2, [r3, #0]
10001632:	f3bf 8f5f 	dmb	sy
10001636:	f7fe fdae 	bl	10000196 <__get_current_exception>
1000163a:	9001      	str	r0, [sp, #4]
1000163c:	2800      	cmp	r0, #0
1000163e:	d003      	beq.n	10001648 <irq_remove_handler+0x9c>
10001640:	4581      	cmp	r9, r0
10001642:	d001      	beq.n	10001648 <irq_remove_handler+0x9c>
10001644:	f7ff fdac 	bl	100011a0 <hard_assertion_failure>
10001648:	2301      	movs	r3, #1
1000164a:	0029      	movs	r1, r5
1000164c:	4399      	bics	r1, r3
1000164e:	688b      	ldr	r3, [r1, #8]
10001650:	42a3      	cmp	r3, r4
10001652:	d069      	beq.n	10001728 <irq_remove_handler+0x17c>
10001654:	000a      	movs	r2, r1
10001656:	e007      	b.n	10001668 <irq_remove_handler+0xbc>
10001658:	0043      	lsls	r3, r0, #1
1000165a:	181b      	adds	r3, r3, r0
1000165c:	009b      	lsls	r3, r3, #2
1000165e:	18fb      	adds	r3, r7, r3
10001660:	6898      	ldr	r0, [r3, #8]
10001662:	42a0      	cmp	r0, r4
10001664:	d011      	beq.n	1000168a <irq_remove_handler+0xde>
10001666:	001a      	movs	r2, r3
10001668:	2006      	movs	r0, #6
1000166a:	5610      	ldrsb	r0, [r2, r0]
1000166c:	2800      	cmp	r0, #0
1000166e:	daf3      	bge.n	10001658 <irq_remove_handler+0xac>
10001670:	9b00      	ldr	r3, [sp, #0]
10001672:	2b00      	cmp	r3, #0
10001674:	d005      	beq.n	10001682 <irq_remove_handler+0xd6>
10001676:	465a      	mov	r2, fp
10001678:	4b37      	ldr	r3, [pc, #220]	; (10001758 <irq_remove_handler+0x1ac>)
1000167a:	601a      	str	r2, [r3, #0]
1000167c:	4b34      	ldr	r3, [pc, #208]	; (10001750 <irq_remove_handler+0x1a4>)
1000167e:	601a      	str	r2, [r3, #0]
10001680:	e7b7      	b.n	100015f2 <irq_remove_handler+0x46>
10001682:	465a      	mov	r2, fp
10001684:	4b33      	ldr	r3, [pc, #204]	; (10001754 <irq_remove_handler+0x1a8>)
10001686:	601a      	str	r2, [r3, #0]
10001688:	e7b3      	b.n	100015f2 <irq_remove_handler+0x46>
1000168a:	2006      	movs	r0, #6
1000168c:	5618      	ldrsb	r0, [r3, r0]
1000168e:	2800      	cmp	r0, #0
10001690:	db22      	blt.n	100016d8 <irq_remove_handler+0x12c>
10001692:	0042      	lsls	r2, r0, #1
10001694:	1811      	adds	r1, r2, r0
10001696:	0089      	lsls	r1, r1, #2
10001698:	187c      	adds	r4, r7, r1
1000169a:	4688      	mov	r8, r1
1000169c:	68a1      	ldr	r1, [r4, #8]
1000169e:	6099      	str	r1, [r3, #8]
100016a0:	79e1      	ldrb	r1, [r4, #7]
100016a2:	71d9      	strb	r1, [r3, #7]
100016a4:	2106      	movs	r1, #6
100016a6:	5661      	ldrsb	r1, [r4, r1]
100016a8:	7199      	strb	r1, [r3, #6]
100016aa:	79a1      	ldrb	r1, [r4, #6]
100016ac:	297f      	cmp	r1, #127	; 0x7f
100016ae:	d82b      	bhi.n	10001708 <irq_remove_handler+0x15c>
100016b0:	88a4      	ldrh	r4, [r4, #4]
100016b2:	1af9      	subs	r1, r7, r3
100016b4:	0564      	lsls	r4, r4, #21
100016b6:	1524      	asrs	r4, r4, #20
100016b8:	4444      	add	r4, r8
100016ba:	1909      	adds	r1, r1, r4
100016bc:	24e0      	movs	r4, #224	; 0xe0
100016be:	0509      	lsls	r1, r1, #20
100016c0:	0d49      	lsrs	r1, r1, #21
100016c2:	0224      	lsls	r4, r4, #8
100016c4:	4321      	orrs	r1, r4
100016c6:	8099      	strh	r1, [r3, #4]
100016c8:	1812      	adds	r2, r2, r0
100016ca:	4b24      	ldr	r3, [pc, #144]	; (1000175c <irq_remove_handler+0x1b0>)
100016cc:	0092      	lsls	r2, r2, #2
100016ce:	18bf      	adds	r7, r7, r2
100016d0:	781a      	ldrb	r2, [r3, #0]
100016d2:	7018      	strb	r0, [r3, #0]
100016d4:	71ba      	strb	r2, [r7, #6]
100016d6:	e7cb      	b.n	10001670 <irq_remove_handler+0xc4>
100016d8:	9801      	ldr	r0, [sp, #4]
100016da:	2800      	cmp	r0, #0
100016dc:	d117      	bne.n	1000170e <irq_remove_handler+0x162>
100016de:	30ff      	adds	r0, #255	; 0xff
100016e0:	7190      	strb	r0, [r2, #6]
100016e2:	481f      	ldr	r0, [pc, #124]	; (10001760 <irq_remove_handler+0x1b4>)
100016e4:	8090      	strh	r0, [r2, #4]
100016e6:	4a1d      	ldr	r2, [pc, #116]	; (1000175c <irq_remove_handler+0x1b0>)
100016e8:	1bcf      	subs	r7, r1, r7
100016ea:	7810      	ldrb	r0, [r2, #0]
100016ec:	10bf      	asrs	r7, r7, #2
100016ee:	7198      	strb	r0, [r3, #6]
100016f0:	00bb      	lsls	r3, r7, #2
100016f2:	19db      	adds	r3, r3, r7
100016f4:	0119      	lsls	r1, r3, #4
100016f6:	185b      	adds	r3, r3, r1
100016f8:	0219      	lsls	r1, r3, #8
100016fa:	185b      	adds	r3, r3, r1
100016fc:	0419      	lsls	r1, r3, #16
100016fe:	185b      	adds	r3, r3, r1
10001700:	005b      	lsls	r3, r3, #1
10001702:	19db      	adds	r3, r3, r7
10001704:	7013      	strb	r3, [r2, #0]
10001706:	e7b3      	b.n	10001670 <irq_remove_handler+0xc4>
10001708:	21bd      	movs	r1, #189	; 0xbd
1000170a:	0209      	lsls	r1, r1, #8
1000170c:	e7db      	b.n	100016c6 <irq_remove_handler+0x11a>
1000170e:	4a15      	ldr	r2, [pc, #84]	; (10001764 <irq_remove_handler+0x1b8>)
10001710:	4915      	ldr	r1, [pc, #84]	; (10001768 <irq_remove_handler+0x1bc>)
10001712:	1ad2      	subs	r2, r2, r3
10001714:	3a08      	subs	r2, #8
10001716:	0250      	lsls	r0, r2, #9
10001718:	0d40      	lsrs	r0, r0, #21
1000171a:	4301      	orrs	r1, r0
1000171c:	8099      	strh	r1, [r3, #4]
1000171e:	4913      	ldr	r1, [pc, #76]	; (1000176c <irq_remove_handler+0x1c0>)
10001720:	0852      	lsrs	r2, r2, #1
10001722:	430a      	orrs	r2, r1
10001724:	80da      	strh	r2, [r3, #6]
10001726:	e7a3      	b.n	10001670 <irq_remove_handler+0xc4>
10001728:	2006      	movs	r0, #6
1000172a:	5608      	ldrsb	r0, [r1, r0]
1000172c:	000b      	movs	r3, r1
1000172e:	2800      	cmp	r0, #0
10001730:	daaf      	bge.n	10001692 <irq_remove_handler+0xe6>
10001732:	9a01      	ldr	r2, [sp, #4]
10001734:	2a00      	cmp	r2, #0
10001736:	d1ea      	bne.n	1000170e <irq_remove_handler+0x162>
10001738:	000b      	movs	r3, r1
1000173a:	4645      	mov	r5, r8
1000173c:	e7d3      	b.n	100016e6 <irq_remove_handler+0x13a>
1000173e:	46c0      	nop			; (mov r8, r8)
10001740:	d0000124 	.word	0xd0000124
10001744:	e000ed00 	.word	0xe000ed00
10001748:	100002cd 	.word	0x100002cd
1000174c:	2000018c 	.word	0x2000018c
10001750:	e000e100 	.word	0xe000e100
10001754:	e000e180 	.word	0xe000e180
10001758:	e000e280 	.word	0xe000e280
1000175c:	20000b31 	.word	0x20000b31
10001760:	ffffbd00 	.word	0xffffbd00
10001764:	200001c6 	.word	0x200001c6
10001768:	fffff000 	.word	0xfffff000
1000176c:	fffff800 	.word	0xfffff800

10001770 <irq_add_tail_to_free_list>:
10001770:	b5f8      	push	{r3, r4, r5, r6, r7, lr}
10001772:	2501      	movs	r5, #1
10001774:	0004      	movs	r4, r0
10001776:	4305      	orrs	r5, r0
10001778:	f7fe fd0d 	bl	10000196 <__get_current_exception>
1000177c:	f3ef 8610 	mrs	r6, PRIMASK
10001780:	b672      	cpsid	i
10001782:	4a24      	ldr	r2, [pc, #144]	; (10001814 <irq_add_tail_to_free_list+0xa4>)
10001784:	6813      	ldr	r3, [r2, #0]
10001786:	2b00      	cmp	r3, #0
10001788:	d0fc      	beq.n	10001784 <irq_add_tail_to_free_list+0x14>
1000178a:	f3bf 8f5f 	dmb	sy
1000178e:	4f22      	ldr	r7, [pc, #136]	; (10001818 <irq_add_tail_to_free_list+0xa8>)
10001790:	0080      	lsls	r0, r0, #2
10001792:	1be1      	subs	r1, r4, r7
10001794:	1089      	asrs	r1, r1, #2
10001796:	008a      	lsls	r2, r1, #2
10001798:	1852      	adds	r2, r2, r1
1000179a:	0113      	lsls	r3, r2, #4
1000179c:	18d2      	adds	r2, r2, r3
1000179e:	0213      	lsls	r3, r2, #8
100017a0:	18d2      	adds	r2, r2, r3
100017a2:	0413      	lsls	r3, r2, #16
100017a4:	18d3      	adds	r3, r2, r3
100017a6:	4a1d      	ldr	r2, [pc, #116]	; (1000181c <irq_add_tail_to_free_list+0xac>)
100017a8:	005b      	lsls	r3, r3, #1
100017aa:	185b      	adds	r3, r3, r1
100017ac:	6891      	ldr	r1, [r2, #8]
100017ae:	5809      	ldr	r1, [r1, r0]
100017b0:	42a9      	cmp	r1, r5
100017b2:	d01c      	beq.n	100017ee <irq_add_tail_to_free_list+0x7e>
100017b4:	2206      	movs	r2, #6
100017b6:	56ba      	ldrsb	r2, [r7, r2]
100017b8:	4293      	cmp	r3, r2
100017ba:	d01c      	beq.n	100017f6 <irq_add_tail_to_free_list+0x86>
100017bc:	2212      	movs	r2, #18
100017be:	56ba      	ldrsb	r2, [r7, r2]
100017c0:	4293      	cmp	r3, r2
100017c2:	d022      	beq.n	1000180a <irq_add_tail_to_free_list+0x9a>
100017c4:	221e      	movs	r2, #30
100017c6:	56ba      	ldrsb	r2, [r7, r2]
100017c8:	4293      	cmp	r3, r2
100017ca:	d020      	beq.n	1000180e <irq_add_tail_to_free_list+0x9e>
100017cc:	222a      	movs	r2, #42	; 0x2a
100017ce:	56ba      	ldrsb	r2, [r7, r2]
100017d0:	2103      	movs	r1, #3
100017d2:	429a      	cmp	r2, r3
100017d4:	d010      	beq.n	100017f8 <irq_add_tail_to_free_list+0x88>
100017d6:	4a12      	ldr	r2, [pc, #72]	; (10001820 <irq_add_tail_to_free_list+0xb0>)
100017d8:	7811      	ldrb	r1, [r2, #0]
100017da:	7013      	strb	r3, [r2, #0]
100017dc:	71a1      	strb	r1, [r4, #6]
100017de:	f3bf 8f5f 	dmb	sy
100017e2:	2200      	movs	r2, #0
100017e4:	4b0b      	ldr	r3, [pc, #44]	; (10001814 <irq_add_tail_to_free_list+0xa4>)
100017e6:	601a      	str	r2, [r3, #0]
100017e8:	f386 8810 	msr	PRIMASK, r6
100017ec:	bdf8      	pop	{r3, r4, r5, r6, r7, pc}
100017ee:	6892      	ldr	r2, [r2, #8]
100017f0:	490c      	ldr	r1, [pc, #48]	; (10001824 <irq_add_tail_to_free_list+0xb4>)
100017f2:	5011      	str	r1, [r2, r0]
100017f4:	e7ef      	b.n	100017d6 <irq_add_tail_to_free_list+0x66>
100017f6:	2100      	movs	r1, #0
100017f8:	004a      	lsls	r2, r1, #1
100017fa:	1852      	adds	r2, r2, r1
100017fc:	21ff      	movs	r1, #255	; 0xff
100017fe:	0092      	lsls	r2, r2, #2
10001800:	18ba      	adds	r2, r7, r2
10001802:	7191      	strb	r1, [r2, #6]
10001804:	4908      	ldr	r1, [pc, #32]	; (10001828 <irq_add_tail_to_free_list+0xb8>)
10001806:	8091      	strh	r1, [r2, #4]
10001808:	e7e5      	b.n	100017d6 <irq_add_tail_to_free_list+0x66>
1000180a:	2101      	movs	r1, #1
1000180c:	e7f4      	b.n	100017f8 <irq_add_tail_to_free_list+0x88>
1000180e:	2102      	movs	r1, #2
10001810:	e7f2      	b.n	100017f8 <irq_add_tail_to_free_list+0x88>
10001812:	46c0      	nop			; (mov r8, r8)
10001814:	d0000124 	.word	0xd0000124
10001818:	2000018c 	.word	0x2000018c
1000181c:	e000ed00 	.word	0xe000ed00
10001820:	20000b31 	.word	0x20000b31
10001824:	100002cd 	.word	0x100002cd
10001828:	ffffbd00 	.word	0xffffbd00

1000182c <irq_init_priorities>:
1000182c:	b5f0      	push	{r4, r5, r6, r7, lr}
1000182e:	2200      	movs	r2, #0
10001830:	2403      	movs	r4, #3
10001832:	27ff      	movs	r7, #255	; 0xff
10001834:	2680      	movs	r6, #128	; 0x80
10001836:	0020      	movs	r0, r4
10001838:	003d      	movs	r5, r7
1000183a:	4b09      	ldr	r3, [pc, #36]	; (10001860 <irq_init_priorities+0x34>)
1000183c:	0011      	movs	r1, r2
1000183e:	469c      	mov	ip, r3
10001840:	4010      	ands	r0, r2
10001842:	00c0      	lsls	r0, r0, #3
10001844:	4085      	lsls	r5, r0
10001846:	43a1      	bics	r1, r4
10001848:	4461      	add	r1, ip
1000184a:	680b      	ldr	r3, [r1, #0]
1000184c:	3201      	adds	r2, #1
1000184e:	43ab      	bics	r3, r5
10001850:	0035      	movs	r5, r6
10001852:	4085      	lsls	r5, r0
10001854:	432b      	orrs	r3, r5
10001856:	600b      	str	r3, [r1, #0]
10001858:	2a20      	cmp	r2, #32
1000185a:	d1ec      	bne.n	10001836 <irq_init_priorities+0xa>
1000185c:	bdf0      	pop	{r4, r5, r6, r7, pc}
1000185e:	46c0      	nop			; (mov r8, r8)
10001860:	e000e400 	.word	0xe000e400

10001864 <_out_null>:
10001864:	4770      	bx	lr
10001866:	46c0      	nop			; (mov r8, r8)

10001868 <_out_rev>:
10001868:	b5f8      	push	{r3, r4, r5, r6, r7, lr}
1000186a:	4657      	mov	r7, sl
1000186c:	464e      	mov	r6, r9
1000186e:	46de      	mov	lr, fp
10001870:	4645      	mov	r5, r8
10001872:	b5e0      	push	{r5, r6, r7, lr}
10001874:	001f      	movs	r7, r3
10001876:	9b0a      	ldr	r3, [sp, #40]	; 0x28
10001878:	0005      	movs	r5, r0
1000187a:	469b      	mov	fp, r3
1000187c:	9b0d      	ldr	r3, [sp, #52]	; 0x34
1000187e:	000e      	movs	r6, r1
10001880:	4691      	mov	r9, r2
10001882:	4692      	mov	sl, r2
10001884:	079b      	lsls	r3, r3, #30
10001886:	d118      	bne.n	100018ba <_out_rev+0x52>
10001888:	9b0b      	ldr	r3, [sp, #44]	; 0x2c
1000188a:	9a0c      	ldr	r2, [sp, #48]	; 0x30
1000188c:	4293      	cmp	r3, r2
1000188e:	d214      	bcs.n	100018ba <_out_rev+0x52>
10001890:	0013      	movs	r3, r2
10001892:	9a0b      	ldr	r2, [sp, #44]	; 0x2c
10001894:	46b8      	mov	r8, r7
10001896:	1a9b      	subs	r3, r3, r2
10001898:	444b      	add	r3, r9
1000189a:	464c      	mov	r4, r9
1000189c:	000f      	movs	r7, r1
1000189e:	0006      	movs	r6, r0
100018a0:	001d      	movs	r5, r3
100018a2:	0022      	movs	r2, r4
100018a4:	4643      	mov	r3, r8
100018a6:	3401      	adds	r4, #1
100018a8:	0039      	movs	r1, r7
100018aa:	2020      	movs	r0, #32
100018ac:	47b0      	blx	r6
100018ae:	42ac      	cmp	r4, r5
100018b0:	d1f7      	bne.n	100018a2 <_out_rev+0x3a>
100018b2:	46aa      	mov	sl, r5
100018b4:	0035      	movs	r5, r6
100018b6:	003e      	movs	r6, r7
100018b8:	4647      	mov	r7, r8
100018ba:	9b0b      	ldr	r3, [sp, #44]	; 0x2c
100018bc:	2b00      	cmp	r3, #0
100018be:	d038      	beq.n	10001932 <_out_rev+0xca>
100018c0:	449a      	add	sl, r3
100018c2:	001c      	movs	r4, r3
100018c4:	46d0      	mov	r8, sl
100018c6:	4653      	mov	r3, sl
100018c8:	1b1a      	subs	r2, r3, r4
100018ca:	465b      	mov	r3, fp
100018cc:	3c01      	subs	r4, #1
100018ce:	5d18      	ldrb	r0, [r3, r4]
100018d0:	0031      	movs	r1, r6
100018d2:	003b      	movs	r3, r7
100018d4:	47a8      	blx	r5
100018d6:	2c00      	cmp	r4, #0
100018d8:	d1f5      	bne.n	100018c6 <_out_rev+0x5e>
100018da:	9b0d      	ldr	r3, [sp, #52]	; 0x34
100018dc:	079b      	lsls	r3, r3, #30
100018de:	d521      	bpl.n	10001924 <_out_rev+0xbc>
100018e0:	4643      	mov	r3, r8
100018e2:	464a      	mov	r2, r9
100018e4:	1a9c      	subs	r4, r3, r2
100018e6:	9b0c      	ldr	r3, [sp, #48]	; 0x30
100018e8:	42a3      	cmp	r3, r4
100018ea:	d91b      	bls.n	10001924 <_out_rev+0xbc>
100018ec:	003a      	movs	r2, r7
100018ee:	469a      	mov	sl, r3
100018f0:	464f      	mov	r7, r9
100018f2:	4691      	mov	r9, r2
100018f4:	19e2      	adds	r2, r4, r7
100018f6:	464b      	mov	r3, r9
100018f8:	0031      	movs	r1, r6
100018fa:	2020      	movs	r0, #32
100018fc:	3401      	adds	r4, #1
100018fe:	47a8      	blx	r5
10001900:	4554      	cmp	r4, sl
10001902:	d3f7      	bcc.n	100018f4 <_out_rev+0x8c>
10001904:	4643      	mov	r3, r8
10001906:	990c      	ldr	r1, [sp, #48]	; 0x30
10001908:	1bdb      	subs	r3, r3, r7
1000190a:	3301      	adds	r3, #1
1000190c:	46b9      	mov	r9, r7
1000190e:	2200      	movs	r2, #0
10001910:	4299      	cmp	r1, r3
10001912:	d303      	bcc.n	1000191c <_out_rev+0xb4>
10001914:	4643      	mov	r3, r8
10001916:	1e4a      	subs	r2, r1, #1
10001918:	444a      	add	r2, r9
1000191a:	1ad2      	subs	r2, r2, r3
1000191c:	4643      	mov	r3, r8
1000191e:	4690      	mov	r8, r2
10001920:	3301      	adds	r3, #1
10001922:	4498      	add	r8, r3
10001924:	4640      	mov	r0, r8
10001926:	bc3c      	pop	{r2, r3, r4, r5}
10001928:	4690      	mov	r8, r2
1000192a:	4699      	mov	r9, r3
1000192c:	46a2      	mov	sl, r4
1000192e:	46ab      	mov	fp, r5
10001930:	bdf8      	pop	{r3, r4, r5, r6, r7, pc}
10001932:	46d0      	mov	r8, sl
10001934:	e7d1      	b.n	100018da <_out_rev+0x72>
10001936:	46c0      	nop			; (mov r8, r8)

10001938 <_ntoa_format>:
10001938:	b5f0      	push	{r4, r5, r6, r7, lr}
1000193a:	464f      	mov	r7, r9
1000193c:	4646      	mov	r6, r8
1000193e:	46d6      	mov	lr, sl
10001940:	b5c0      	push	{r6, r7, lr}
10001942:	b084      	sub	sp, #16
10001944:	4698      	mov	r8, r3
10001946:	ab0e      	add	r3, sp, #56	; 0x38
10001948:	781b      	ldrb	r3, [r3, #0]
1000194a:	9f12      	ldr	r7, [sp, #72]	; 0x48
1000194c:	4699      	mov	r9, r3
1000194e:	4694      	mov	ip, r2
10001950:	9c0d      	ldr	r4, [sp, #52]	; 0x34
10001952:	9b10      	ldr	r3, [sp, #64]	; 0x40
10001954:	9e11      	ldr	r6, [sp, #68]	; 0x44
10001956:	07ba      	lsls	r2, r7, #30
10001958:	d425      	bmi.n	100019a6 <_ntoa_format+0x6e>
1000195a:	2e00      	cmp	r6, #0
1000195c:	d169      	bne.n	10001a32 <_ntoa_format+0xfa>
1000195e:	429c      	cmp	r4, r3
10001960:	d300      	bcc.n	10001964 <_ntoa_format+0x2c>
10001962:	e0c2      	b.n	10001aea <_ntoa_format+0x1b2>
10001964:	2201      	movs	r2, #1
10001966:	403a      	ands	r2, r7
10001968:	4692      	mov	sl, r2
1000196a:	2c1f      	cmp	r4, #31
1000196c:	d900      	bls.n	10001970 <_ntoa_format+0x38>
1000196e:	e0bb      	b.n	10001ae8 <_ntoa_format+0x1b0>
10001970:	9a0c      	ldr	r2, [sp, #48]	; 0x30
10001972:	1e55      	subs	r5, r2, #1
10001974:	2230      	movs	r2, #48	; 0x30
10001976:	e001      	b.n	1000197c <_ntoa_format+0x44>
10001978:	2c20      	cmp	r4, #32
1000197a:	d003      	beq.n	10001984 <_ntoa_format+0x4c>
1000197c:	3401      	adds	r4, #1
1000197e:	552a      	strb	r2, [r5, r4]
10001980:	42a3      	cmp	r3, r4
10001982:	d8f9      	bhi.n	10001978 <_ntoa_format+0x40>
10001984:	4652      	mov	r2, sl
10001986:	2a00      	cmp	r2, #0
10001988:	d00d      	beq.n	100019a6 <_ntoa_format+0x6e>
1000198a:	42b4      	cmp	r4, r6
1000198c:	d20b      	bcs.n	100019a6 <_ntoa_format+0x6e>
1000198e:	2c1f      	cmp	r4, #31
10001990:	d862      	bhi.n	10001a58 <_ntoa_format+0x120>
10001992:	9a0c      	ldr	r2, [sp, #48]	; 0x30
10001994:	1e55      	subs	r5, r2, #1
10001996:	2230      	movs	r2, #48	; 0x30
10001998:	e001      	b.n	1000199e <_ntoa_format+0x66>
1000199a:	2c20      	cmp	r4, #32
1000199c:	d05c      	beq.n	10001a58 <_ntoa_format+0x120>
1000199e:	3401      	adds	r4, #1
100019a0:	552a      	strb	r2, [r5, r4]
100019a2:	42b4      	cmp	r4, r6
100019a4:	d1f9      	bne.n	1000199a <_ntoa_format+0x62>
100019a6:	06fa      	lsls	r2, r7, #27
100019a8:	d535      	bpl.n	10001a16 <_ntoa_format+0xde>
100019aa:	057a      	lsls	r2, r7, #21
100019ac:	d45d      	bmi.n	10001a6a <_ntoa_format+0x132>
100019ae:	2c00      	cmp	r4, #0
100019b0:	d157      	bne.n	10001a62 <_ntoa_format+0x12a>
100019b2:	9b0f      	ldr	r3, [sp, #60]	; 0x3c
100019b4:	2b10      	cmp	r3, #16
100019b6:	d100      	bne.n	100019ba <_ntoa_format+0x82>
100019b8:	e07c      	b.n	10001ab4 <_ntoa_format+0x17c>
100019ba:	9b0f      	ldr	r3, [sp, #60]	; 0x3c
100019bc:	2b02      	cmp	r3, #2
100019be:	d100      	bne.n	100019c2 <_ntoa_format+0x8a>
100019c0:	e08d      	b.n	10001ade <_ntoa_format+0x1a6>
100019c2:	2330      	movs	r3, #48	; 0x30
100019c4:	9a0c      	ldr	r2, [sp, #48]	; 0x30
100019c6:	2401      	movs	r4, #1
100019c8:	7013      	strb	r3, [r2, #0]
100019ca:	464b      	mov	r3, r9
100019cc:	2b00      	cmp	r3, #0
100019ce:	d027      	beq.n	10001a20 <_ntoa_format+0xe8>
100019d0:	232d      	movs	r3, #45	; 0x2d
100019d2:	9a0c      	ldr	r2, [sp, #48]	; 0x30
100019d4:	5513      	strb	r3, [r2, r4]
100019d6:	3401      	adds	r4, #1
100019d8:	9b0c      	ldr	r3, [sp, #48]	; 0x30
100019da:	4662      	mov	r2, ip
100019dc:	9300      	str	r3, [sp, #0]
100019de:	9703      	str	r7, [sp, #12]
100019e0:	4643      	mov	r3, r8
100019e2:	9602      	str	r6, [sp, #8]
100019e4:	9401      	str	r4, [sp, #4]
100019e6:	f7ff ff3f 	bl	10001868 <_out_rev>
100019ea:	b004      	add	sp, #16
100019ec:	bc1c      	pop	{r2, r3, r4}
100019ee:	4690      	mov	r8, r2
100019f0:	4699      	mov	r9, r3
100019f2:	46a2      	mov	sl, r4
100019f4:	bdf0      	pop	{r4, r5, r6, r7, pc}
100019f6:	06bb      	lsls	r3, r7, #26
100019f8:	d463      	bmi.n	10001ac2 <_ntoa_format+0x18a>
100019fa:	2c20      	cmp	r4, #32
100019fc:	d0ec      	beq.n	100019d8 <_ntoa_format+0xa0>
100019fe:	9b0c      	ldr	r3, [sp, #48]	; 0x30
10001a00:	191a      	adds	r2, r3, r4
10001a02:	3401      	adds	r4, #1
10001a04:	2378      	movs	r3, #120	; 0x78
10001a06:	7013      	strb	r3, [r2, #0]
10001a08:	2c20      	cmp	r4, #32
10001a0a:	d0e5      	beq.n	100019d8 <_ntoa_format+0xa0>
10001a0c:	2230      	movs	r2, #48	; 0x30
10001a0e:	9b0c      	ldr	r3, [sp, #48]	; 0x30
10001a10:	191b      	adds	r3, r3, r4
10001a12:	701a      	strb	r2, [r3, #0]
10001a14:	3401      	adds	r4, #1
10001a16:	2c20      	cmp	r4, #32
10001a18:	d0de      	beq.n	100019d8 <_ntoa_format+0xa0>
10001a1a:	464b      	mov	r3, r9
10001a1c:	2b00      	cmp	r3, #0
10001a1e:	d1d7      	bne.n	100019d0 <_ntoa_format+0x98>
10001a20:	077b      	lsls	r3, r7, #29
10001a22:	d435      	bmi.n	10001a90 <_ntoa_format+0x158>
10001a24:	073b      	lsls	r3, r7, #28
10001a26:	d5d7      	bpl.n	100019d8 <_ntoa_format+0xa0>
10001a28:	2320      	movs	r3, #32
10001a2a:	9a0c      	ldr	r2, [sp, #48]	; 0x30
10001a2c:	5513      	strb	r3, [r2, r4]
10001a2e:	3401      	adds	r4, #1
10001a30:	e7d2      	b.n	100019d8 <_ntoa_format+0xa0>
10001a32:	2201      	movs	r2, #1
10001a34:	0015      	movs	r5, r2
10001a36:	403d      	ands	r5, r7
10001a38:	46aa      	mov	sl, r5
10001a3a:	423a      	tst	r2, r7
10001a3c:	d020      	beq.n	10001a80 <_ntoa_format+0x148>
10001a3e:	464a      	mov	r2, r9
10001a40:	2a00      	cmp	r2, #0
10001a42:	d12a      	bne.n	10001a9a <_ntoa_format+0x162>
10001a44:	320c      	adds	r2, #12
10001a46:	423a      	tst	r2, r7
10001a48:	d127      	bne.n	10001a9a <_ntoa_format+0x162>
10001a4a:	429c      	cmp	r4, r3
10001a4c:	d29d      	bcs.n	1000198a <_ntoa_format+0x52>
10001a4e:	2c1f      	cmp	r4, #31
10001a50:	d800      	bhi.n	10001a54 <_ntoa_format+0x11c>
10001a52:	e78d      	b.n	10001970 <_ntoa_format+0x38>
10001a54:	2e20      	cmp	r6, #32
10001a56:	d919      	bls.n	10001a8c <_ntoa_format+0x154>
10001a58:	2420      	movs	r4, #32
10001a5a:	06fa      	lsls	r2, r7, #27
10001a5c:	d5bc      	bpl.n	100019d8 <_ntoa_format+0xa0>
10001a5e:	057a      	lsls	r2, r7, #21
10001a60:	d403      	bmi.n	10001a6a <_ntoa_format+0x132>
10001a62:	42a3      	cmp	r3, r4
10001a64:	d01b      	beq.n	10001a9e <_ntoa_format+0x166>
10001a66:	42a6      	cmp	r6, r4
10001a68:	d019      	beq.n	10001a9e <_ntoa_format+0x166>
10001a6a:	9b0f      	ldr	r3, [sp, #60]	; 0x3c
10001a6c:	2b10      	cmp	r3, #16
10001a6e:	d0c2      	beq.n	100019f6 <_ntoa_format+0xbe>
10001a70:	2b02      	cmp	r3, #2
10001a72:	d1c9      	bne.n	10001a08 <_ntoa_format+0xd0>
10001a74:	2c20      	cmp	r4, #32
10001a76:	d0af      	beq.n	100019d8 <_ntoa_format+0xa0>
10001a78:	9b0c      	ldr	r3, [sp, #48]	; 0x30
10001a7a:	191b      	adds	r3, r3, r4
10001a7c:	3401      	adds	r4, #1
10001a7e:	e040      	b.n	10001b02 <_ntoa_format+0x1ca>
10001a80:	429c      	cmp	r4, r3
10001a82:	d300      	bcc.n	10001a86 <_ntoa_format+0x14e>
10001a84:	e78f      	b.n	100019a6 <_ntoa_format+0x6e>
10001a86:	2c1f      	cmp	r4, #31
10001a88:	d800      	bhi.n	10001a8c <_ntoa_format+0x154>
10001a8a:	e771      	b.n	10001970 <_ntoa_format+0x38>
10001a8c:	2420      	movs	r4, #32
10001a8e:	e78a      	b.n	100019a6 <_ntoa_format+0x6e>
10001a90:	232b      	movs	r3, #43	; 0x2b
10001a92:	9a0c      	ldr	r2, [sp, #48]	; 0x30
10001a94:	5513      	strb	r3, [r2, r4]
10001a96:	3401      	adds	r4, #1
10001a98:	e79e      	b.n	100019d8 <_ntoa_format+0xa0>
10001a9a:	3e01      	subs	r6, #1
10001a9c:	e7d5      	b.n	10001a4a <_ntoa_format+0x112>
10001a9e:	1e63      	subs	r3, r4, #1
10001aa0:	2c01      	cmp	r4, #1
10001aa2:	d100      	bne.n	10001aa6 <_ntoa_format+0x16e>
10001aa4:	e785      	b.n	100019b2 <_ntoa_format+0x7a>
10001aa6:	9a0f      	ldr	r2, [sp, #60]	; 0x3c
10001aa8:	2a10      	cmp	r2, #16
10001aaa:	d020      	beq.n	10001aee <_ntoa_format+0x1b6>
10001aac:	2a02      	cmp	r2, #2
10001aae:	d025      	beq.n	10001afc <_ntoa_format+0x1c4>
10001ab0:	001c      	movs	r4, r3
10001ab2:	e7ab      	b.n	10001a0c <_ntoa_format+0xd4>
10001ab4:	06bb      	lsls	r3, r7, #26
10001ab6:	d40d      	bmi.n	10001ad4 <_ntoa_format+0x19c>
10001ab8:	2378      	movs	r3, #120	; 0x78
10001aba:	9a0c      	ldr	r2, [sp, #48]	; 0x30
10001abc:	2401      	movs	r4, #1
10001abe:	7013      	strb	r3, [r2, #0]
10001ac0:	e7a4      	b.n	10001a0c <_ntoa_format+0xd4>
10001ac2:	2c20      	cmp	r4, #32
10001ac4:	d100      	bne.n	10001ac8 <_ntoa_format+0x190>
10001ac6:	e787      	b.n	100019d8 <_ntoa_format+0xa0>
10001ac8:	2258      	movs	r2, #88	; 0x58
10001aca:	9b0c      	ldr	r3, [sp, #48]	; 0x30
10001acc:	191b      	adds	r3, r3, r4
10001ace:	701a      	strb	r2, [r3, #0]
10001ad0:	3401      	adds	r4, #1
10001ad2:	e799      	b.n	10001a08 <_ntoa_format+0xd0>
10001ad4:	2358      	movs	r3, #88	; 0x58
10001ad6:	9a0c      	ldr	r2, [sp, #48]	; 0x30
10001ad8:	2401      	movs	r4, #1
10001ada:	7013      	strb	r3, [r2, #0]
10001adc:	e796      	b.n	10001a0c <_ntoa_format+0xd4>
10001ade:	9a0c      	ldr	r2, [sp, #48]	; 0x30
10001ae0:	3360      	adds	r3, #96	; 0x60
10001ae2:	2401      	movs	r4, #1
10001ae4:	7013      	strb	r3, [r2, #0]
10001ae6:	e791      	b.n	10001a0c <_ntoa_format+0xd4>
10001ae8:	2420      	movs	r4, #32
10001aea:	2600      	movs	r6, #0
10001aec:	e75b      	b.n	100019a6 <_ntoa_format+0x6e>
10001aee:	3c02      	subs	r4, #2
10001af0:	06ba      	lsls	r2, r7, #26
10001af2:	d4e9      	bmi.n	10001ac8 <_ntoa_format+0x190>
10001af4:	9a0c      	ldr	r2, [sp, #48]	; 0x30
10001af6:	1912      	adds	r2, r2, r4
10001af8:	001c      	movs	r4, r3
10001afa:	e783      	b.n	10001a04 <_ntoa_format+0xcc>
10001afc:	9a0c      	ldr	r2, [sp, #48]	; 0x30
10001afe:	4692      	mov	sl, r2
10001b00:	4453      	add	r3, sl
10001b02:	2262      	movs	r2, #98	; 0x62
10001b04:	701a      	strb	r2, [r3, #0]
10001b06:	e77f      	b.n	10001a08 <_ntoa_format+0xd0>

10001b08 <_out_char>:
10001b08:	b510      	push	{r4, lr}
10001b0a:	2800      	cmp	r0, #0
10001b0c:	d100      	bne.n	10001b10 <_out_char+0x8>
10001b0e:	bd10      	pop	{r4, pc}
10001b10:	f002 f9ea 	bl	10003ee8 <__wrap_putchar>
10001b14:	e7fb      	b.n	10001b0e <_out_char+0x6>
10001b16:	46c0      	nop			; (mov r8, r8)

10001b18 <_out_fct>:
10001b18:	000b      	movs	r3, r1
10001b1a:	b510      	push	{r4, lr}
10001b1c:	2800      	cmp	r0, #0
10001b1e:	d002      	beq.n	10001b26 <_out_fct+0xe>
10001b20:	6849      	ldr	r1, [r1, #4]
10001b22:	681b      	ldr	r3, [r3, #0]
10001b24:	4798      	blx	r3
10001b26:	bd10      	pop	{r4, pc}

10001b28 <_etoa>:
10001b28:	b5f0      	push	{r4, r5, r6, r7, lr}
10001b2a:	46de      	mov	lr, fp
10001b2c:	4657      	mov	r7, sl
10001b2e:	464e      	mov	r6, r9
10001b30:	4645      	mov	r5, r8
10001b32:	b5e0      	push	{r5, r6, r7, lr}
10001b34:	b09b      	sub	sp, #108	; 0x6c
10001b36:	469a      	mov	sl, r3
10001b38:	9b24      	ldr	r3, [sp, #144]	; 0x90
10001b3a:	468b      	mov	fp, r1
10001b3c:	4699      	mov	r9, r3
10001b3e:	9b25      	ldr	r3, [sp, #148]	; 0x94
10001b40:	900b      	str	r0, [sp, #44]	; 0x2c
10001b42:	4698      	mov	r8, r3
10001b44:	920c      	str	r2, [sp, #48]	; 0x30
10001b46:	4643      	mov	r3, r8
10001b48:	464a      	mov	r2, r9
10001b4a:	4648      	mov	r0, r9
10001b4c:	4641      	mov	r1, r8
10001b4e:	f001 fccc 	bl	100034ea <__wrap___aeabi_dcmpun>
10001b52:	2800      	cmp	r0, #0
10001b54:	d000      	beq.n	10001b58 <_etoa+0x30>
10001b56:	e1a3      	b.n	10001ea0 <_etoa+0x378>
10001b58:	2201      	movs	r2, #1
10001b5a:	4648      	mov	r0, r9
10001b5c:	4641      	mov	r1, r8
10001b5e:	4be2      	ldr	r3, [pc, #904]	; (10001ee8 <_etoa+0x3c0>)
10001b60:	4252      	negs	r2, r2
10001b62:	f001 fcbd 	bl	100034e0 <__wrap___aeabi_dcmpgt>
10001b66:	2800      	cmp	r0, #0
10001b68:	d000      	beq.n	10001b6c <_etoa+0x44>
10001b6a:	e199      	b.n	10001ea0 <_etoa+0x378>
10001b6c:	2201      	movs	r2, #1
10001b6e:	4648      	mov	r0, r9
10001b70:	4641      	mov	r1, r8
10001b72:	4bde      	ldr	r3, [pc, #888]	; (10001eec <_etoa+0x3c4>)
10001b74:	4252      	negs	r2, r2
10001b76:	f001 fc9d 	bl	100034b4 <__wrap___aeabi_dcmplt>
10001b7a:	2800      	cmp	r0, #0
10001b7c:	d000      	beq.n	10001b80 <_etoa+0x58>
10001b7e:	e18f      	b.n	10001ea0 <_etoa+0x378>
10001b80:	2200      	movs	r2, #0
10001b82:	2300      	movs	r3, #0
10001b84:	4648      	mov	r0, r9
10001b86:	4641      	mov	r1, r8
10001b88:	f001 fc94 	bl	100034b4 <__wrap___aeabi_dcmplt>
10001b8c:	2800      	cmp	r0, #0
10001b8e:	d000      	beq.n	10001b92 <_etoa+0x6a>
10001b90:	e1de      	b.n	10001f50 <_etoa+0x428>
10001b92:	464a      	mov	r2, r9
10001b94:	4643      	mov	r3, r8
10001b96:	920a      	str	r2, [sp, #40]	; 0x28
10001b98:	9309      	str	r3, [sp, #36]	; 0x24
10001b9a:	2380      	movs	r3, #128	; 0x80
10001b9c:	9a28      	ldr	r2, [sp, #160]	; 0xa0
10001b9e:	00db      	lsls	r3, r3, #3
10001ba0:	401a      	ands	r2, r3
10001ba2:	9211      	str	r2, [sp, #68]	; 0x44
10001ba4:	9a28      	ldr	r2, [sp, #160]	; 0xa0
10001ba6:	421a      	tst	r2, r3
10001ba8:	d101      	bne.n	10001bae <_etoa+0x86>
10001baa:	2306      	movs	r3, #6
10001bac:	9326      	str	r3, [sp, #152]	; 0x98
10001bae:	4bd0      	ldr	r3, [pc, #832]	; (10001ef0 <_etoa+0x3c8>)
10001bb0:	9f09      	ldr	r7, [sp, #36]	; 0x24
10001bb2:	469c      	mov	ip, r3
10001bb4:	0078      	lsls	r0, r7, #1
10001bb6:	0d40      	lsrs	r0, r0, #21
10001bb8:	4460      	add	r0, ip
10001bba:	f001 fca9 	bl	10003510 <__wrap___aeabi_i2d>
10001bbe:	4acd      	ldr	r2, [pc, #820]	; (10001ef4 <_etoa+0x3cc>)
10001bc0:	4bcd      	ldr	r3, [pc, #820]	; (10001ef8 <_etoa+0x3d0>)
10001bc2:	f001 fc35 	bl	10003430 <__wrap___aeabi_dmul>
10001bc6:	4acd      	ldr	r2, [pc, #820]	; (10001efc <_etoa+0x3d4>)
10001bc8:	4bcd      	ldr	r3, [pc, #820]	; (10001f00 <_etoa+0x3d8>)
10001bca:	f001 fc1f 	bl	1000340c <__wrap___aeabi_dadd>
10001bce:	033b      	lsls	r3, r7, #12
10001bd0:	4acc      	ldr	r2, [pc, #816]	; (10001f04 <_etoa+0x3dc>)
10001bd2:	9e0a      	ldr	r6, [sp, #40]	; 0x28
10001bd4:	0b1b      	lsrs	r3, r3, #12
10001bd6:	431a      	orrs	r2, r3
10001bd8:	0004      	movs	r4, r0
10001bda:	000d      	movs	r5, r1
10001bdc:	0030      	movs	r0, r6
10001bde:	0011      	movs	r1, r2
10001be0:	4bc9      	ldr	r3, [pc, #804]	; (10001f08 <_etoa+0x3e0>)
10001be2:	2200      	movs	r2, #0
10001be4:	9709      	str	r7, [sp, #36]	; 0x24
10001be6:	f001 fc08 	bl	100033fa <__wrap___aeabi_dsub>
10001bea:	4ac8      	ldr	r2, [pc, #800]	; (10001f0c <_etoa+0x3e4>)
10001bec:	4bc8      	ldr	r3, [pc, #800]	; (10001f10 <_etoa+0x3e8>)
10001bee:	f001 fc1f 	bl	10003430 <__wrap___aeabi_dmul>
10001bf2:	0002      	movs	r2, r0
10001bf4:	000b      	movs	r3, r1
10001bf6:	0020      	movs	r0, r4
10001bf8:	0029      	movs	r1, r5
10001bfa:	f001 fc07 	bl	1000340c <__wrap___aeabi_dadd>
10001bfe:	f001 fc9f 	bl	10003540 <__wrap___aeabi_d2iz>
10001c02:	900d      	str	r0, [sp, #52]	; 0x34
10001c04:	f001 fc84 	bl	10003510 <__wrap___aeabi_i2d>
10001c08:	4ac2      	ldr	r2, [pc, #776]	; (10001f14 <_etoa+0x3ec>)
10001c0a:	4bc3      	ldr	r3, [pc, #780]	; (10001f18 <_etoa+0x3f0>)
10001c0c:	0004      	movs	r4, r0
10001c0e:	000d      	movs	r5, r1
10001c10:	f001 fc0e 	bl	10003430 <__wrap___aeabi_dmul>
10001c14:	2200      	movs	r2, #0
10001c16:	4bc1      	ldr	r3, [pc, #772]	; (10001f1c <_etoa+0x3f4>)
10001c18:	f001 fbf8 	bl	1000340c <__wrap___aeabi_dadd>
10001c1c:	f001 fc90 	bl	10003540 <__wrap___aeabi_d2iz>
10001c20:	4abf      	ldr	r2, [pc, #764]	; (10001f20 <_etoa+0x3f8>)
10001c22:	0006      	movs	r6, r0
10001c24:	4bbf      	ldr	r3, [pc, #764]	; (10001f24 <_etoa+0x3fc>)
10001c26:	0020      	movs	r0, r4
10001c28:	0029      	movs	r1, r5
10001c2a:	f001 fc01 	bl	10003430 <__wrap___aeabi_dmul>
10001c2e:	0004      	movs	r4, r0
10001c30:	0030      	movs	r0, r6
10001c32:	000d      	movs	r5, r1
10001c34:	9610      	str	r6, [sp, #64]	; 0x40
10001c36:	f001 fc6b 	bl	10003510 <__wrap___aeabi_i2d>
10001c3a:	4abb      	ldr	r2, [pc, #748]	; (10001f28 <_etoa+0x400>)
10001c3c:	4bbb      	ldr	r3, [pc, #748]	; (10001f2c <_etoa+0x404>)
10001c3e:	f001 fbf7 	bl	10003430 <__wrap___aeabi_dmul>
10001c42:	0002      	movs	r2, r0
10001c44:	000b      	movs	r3, r1
10001c46:	0020      	movs	r0, r4
10001c48:	0029      	movs	r1, r5
10001c4a:	f001 fbd6 	bl	100033fa <__wrap___aeabi_dsub>
10001c4e:	0002      	movs	r2, r0
10001c50:	000b      	movs	r3, r1
10001c52:	0006      	movs	r6, r0
10001c54:	000f      	movs	r7, r1
10001c56:	f001 fbeb 	bl	10003430 <__wrap___aeabi_dmul>
10001c5a:	0032      	movs	r2, r6
10001c5c:	0004      	movs	r4, r0
10001c5e:	000d      	movs	r5, r1
10001c60:	003b      	movs	r3, r7
10001c62:	0030      	movs	r0, r6
10001c64:	0039      	movs	r1, r7
10001c66:	f001 fbd1 	bl	1000340c <__wrap___aeabi_dadd>
10001c6a:	2200      	movs	r2, #0
10001c6c:	900e      	str	r0, [sp, #56]	; 0x38
10001c6e:	910f      	str	r1, [sp, #60]	; 0x3c
10001c70:	4baf      	ldr	r3, [pc, #700]	; (10001f30 <_etoa+0x408>)
10001c72:	0020      	movs	r0, r4
10001c74:	0029      	movs	r1, r5
10001c76:	f001 fbd2 	bl	1000341e <__wrap___aeabi_ddiv>
10001c7a:	2200      	movs	r2, #0
10001c7c:	4bad      	ldr	r3, [pc, #692]	; (10001f34 <_etoa+0x40c>)
10001c7e:	f001 fbc5 	bl	1000340c <__wrap___aeabi_dadd>
10001c82:	0002      	movs	r2, r0
10001c84:	000b      	movs	r3, r1
10001c86:	0020      	movs	r0, r4
10001c88:	0029      	movs	r1, r5
10001c8a:	f001 fbc8 	bl	1000341e <__wrap___aeabi_ddiv>
10001c8e:	2200      	movs	r2, #0
10001c90:	4ba9      	ldr	r3, [pc, #676]	; (10001f38 <_etoa+0x410>)
10001c92:	f001 fbbb 	bl	1000340c <__wrap___aeabi_dadd>
10001c96:	0002      	movs	r2, r0
10001c98:	000b      	movs	r3, r1
10001c9a:	0020      	movs	r0, r4
10001c9c:	0029      	movs	r1, r5
10001c9e:	f001 fbbe 	bl	1000341e <__wrap___aeabi_ddiv>
10001ca2:	000d      	movs	r5, r1
10001ca4:	2180      	movs	r1, #128	; 0x80
10001ca6:	0004      	movs	r4, r0
10001ca8:	0032      	movs	r2, r6
10001caa:	003b      	movs	r3, r7
10001cac:	2000      	movs	r0, #0
10001cae:	05c9      	lsls	r1, r1, #23
10001cb0:	f001 fba3 	bl	100033fa <__wrap___aeabi_dsub>
10001cb4:	0002      	movs	r2, r0
10001cb6:	000b      	movs	r3, r1
10001cb8:	0020      	movs	r0, r4
10001cba:	0029      	movs	r1, r5
10001cbc:	f001 fba6 	bl	1000340c <__wrap___aeabi_dadd>
10001cc0:	0002      	movs	r2, r0
10001cc2:	000b      	movs	r3, r1
10001cc4:	980e      	ldr	r0, [sp, #56]	; 0x38
10001cc6:	990f      	ldr	r1, [sp, #60]	; 0x3c
10001cc8:	f001 fba9 	bl	1000341e <__wrap___aeabi_ddiv>
10001ccc:	2200      	movs	r2, #0
10001cce:	4b8d      	ldr	r3, [pc, #564]	; (10001f04 <_etoa+0x3dc>)
10001cd0:	f001 fb9c 	bl	1000340c <__wrap___aeabi_dadd>
10001cd4:	9b10      	ldr	r3, [sp, #64]	; 0x40
10001cd6:	4a99      	ldr	r2, [pc, #612]	; (10001f3c <_etoa+0x414>)
10001cd8:	001c      	movs	r4, r3
10001cda:	4694      	mov	ip, r2
10001cdc:	4464      	add	r4, ip
10001cde:	2200      	movs	r2, #0
10001ce0:	0523      	lsls	r3, r4, #20
10001ce2:	f001 fba5 	bl	10003430 <__wrap___aeabi_dmul>
10001ce6:	0006      	movs	r6, r0
10001ce8:	000f      	movs	r7, r1
10001cea:	0002      	movs	r2, r0
10001cec:	000b      	movs	r3, r1
10001cee:	980a      	ldr	r0, [sp, #40]	; 0x28
10001cf0:	9909      	ldr	r1, [sp, #36]	; 0x24
10001cf2:	f001 fbdf 	bl	100034b4 <__wrap___aeabi_dcmplt>
10001cf6:	2800      	cmp	r0, #0
10001cf8:	d00a      	beq.n	10001d10 <_etoa+0x1e8>
10001cfa:	9b0d      	ldr	r3, [sp, #52]	; 0x34
10001cfc:	0030      	movs	r0, r6
10001cfe:	3b01      	subs	r3, #1
10001d00:	0039      	movs	r1, r7
10001d02:	930d      	str	r3, [sp, #52]	; 0x34
10001d04:	2200      	movs	r2, #0
10001d06:	4b8b      	ldr	r3, [pc, #556]	; (10001f34 <_etoa+0x40c>)
10001d08:	f001 fb89 	bl	1000341e <__wrap___aeabi_ddiv>
10001d0c:	0006      	movs	r6, r0
10001d0e:	000f      	movs	r7, r1
10001d10:	9d0d      	ldr	r5, [sp, #52]	; 0x34
10001d12:	24c6      	movs	r4, #198	; 0xc6
10001d14:	002b      	movs	r3, r5
10001d16:	3363      	adds	r3, #99	; 0x63
10001d18:	429c      	cmp	r4, r3
10001d1a:	41a4      	sbcs	r4, r4
10001d1c:	9b28      	ldr	r3, [sp, #160]	; 0xa0
10001d1e:	4264      	negs	r4, r4
10001d20:	3404      	adds	r4, #4
10001d22:	051b      	lsls	r3, r3, #20
10001d24:	d51f      	bpl.n	10001d66 <_etoa+0x23e>
10001d26:	4a86      	ldr	r2, [pc, #536]	; (10001f40 <_etoa+0x418>)
10001d28:	4b86      	ldr	r3, [pc, #536]	; (10001f44 <_etoa+0x41c>)
10001d2a:	980a      	ldr	r0, [sp, #40]	; 0x28
10001d2c:	9909      	ldr	r1, [sp, #36]	; 0x24
10001d2e:	f001 fbcf 	bl	100034d0 <__wrap___aeabi_dcmpge>
10001d32:	2800      	cmp	r0, #0
10001d34:	d100      	bne.n	10001d38 <_etoa+0x210>
10001d36:	e0cc      	b.n	10001ed2 <_etoa+0x3aa>
10001d38:	2200      	movs	r2, #0
10001d3a:	4b83      	ldr	r3, [pc, #524]	; (10001f48 <_etoa+0x420>)
10001d3c:	980a      	ldr	r0, [sp, #40]	; 0x28
10001d3e:	9909      	ldr	r1, [sp, #36]	; 0x24
10001d40:	f001 fbb8 	bl	100034b4 <__wrap___aeabi_dcmplt>
10001d44:	2800      	cmp	r0, #0
10001d46:	d100      	bne.n	10001d4a <_etoa+0x222>
10001d48:	e0c3      	b.n	10001ed2 <_etoa+0x3aa>
10001d4a:	9a26      	ldr	r2, [sp, #152]	; 0x98
10001d4c:	4295      	cmp	r5, r2
10001d4e:	da00      	bge.n	10001d52 <_etoa+0x22a>
10001d50:	e10b      	b.n	10001f6a <_etoa+0x442>
10001d52:	2300      	movs	r3, #0
10001d54:	9326      	str	r3, [sp, #152]	; 0x98
10001d56:	2380      	movs	r3, #128	; 0x80
10001d58:	9a28      	ldr	r2, [sp, #160]	; 0xa0
10001d5a:	00db      	lsls	r3, r3, #3
10001d5c:	431a      	orrs	r2, r3
10001d5e:	2300      	movs	r3, #0
10001d60:	2400      	movs	r4, #0
10001d62:	9228      	str	r2, [sp, #160]	; 0xa0
10001d64:	930d      	str	r3, [sp, #52]	; 0x34
10001d66:	9b27      	ldr	r3, [sp, #156]	; 0x9c
10001d68:	2500      	movs	r5, #0
10001d6a:	42a3      	cmp	r3, r4
10001d6c:	d900      	bls.n	10001d70 <_etoa+0x248>
10001d6e:	1b1d      	subs	r5, r3, r4
10001d70:	2302      	movs	r3, #2
10001d72:	9a28      	ldr	r2, [sp, #160]	; 0xa0
10001d74:	401a      	ands	r2, r3
10001d76:	9210      	str	r2, [sp, #64]	; 0x40
10001d78:	9a28      	ldr	r2, [sp, #160]	; 0xa0
10001d7a:	4213      	tst	r3, r2
10001d7c:	d003      	beq.n	10001d86 <_etoa+0x25e>
10001d7e:	4263      	negs	r3, r4
10001d80:	4163      	adcs	r3, r4
10001d82:	425b      	negs	r3, r3
10001d84:	401d      	ands	r5, r3
10001d86:	9b0d      	ldr	r3, [sp, #52]	; 0x34
10001d88:	2b00      	cmp	r3, #0
10001d8a:	d007      	beq.n	10001d9c <_etoa+0x274>
10001d8c:	980a      	ldr	r0, [sp, #40]	; 0x28
10001d8e:	9909      	ldr	r1, [sp, #36]	; 0x24
10001d90:	0032      	movs	r2, r6
10001d92:	003b      	movs	r3, r7
10001d94:	f001 fb43 	bl	1000341e <__wrap___aeabi_ddiv>
10001d98:	900a      	str	r0, [sp, #40]	; 0x28
10001d9a:	9109      	str	r1, [sp, #36]	; 0x24
10001d9c:	2200      	movs	r2, #0
10001d9e:	2300      	movs	r3, #0
10001da0:	4648      	mov	r0, r9
10001da2:	4641      	mov	r1, r8
10001da4:	f001 fb86 	bl	100034b4 <__wrap___aeabi_dcmplt>
10001da8:	2800      	cmp	r0, #0
10001daa:	d005      	beq.n	10001db8 <_etoa+0x290>
10001dac:	2080      	movs	r0, #128	; 0x80
10001dae:	0600      	lsls	r0, r0, #24
10001db0:	4684      	mov	ip, r0
10001db2:	9909      	ldr	r1, [sp, #36]	; 0x24
10001db4:	4461      	add	r1, ip
10001db6:	9109      	str	r1, [sp, #36]	; 0x24
10001db8:	9a28      	ldr	r2, [sp, #160]	; 0xa0
10001dba:	4b64      	ldr	r3, [pc, #400]	; (10001f4c <_etoa+0x424>)
10001dbc:	9e0b      	ldr	r6, [sp, #44]	; 0x2c
10001dbe:	4013      	ands	r3, r2
10001dc0:	9304      	str	r3, [sp, #16]
10001dc2:	9b26      	ldr	r3, [sp, #152]	; 0x98
10001dc4:	9a0a      	ldr	r2, [sp, #40]	; 0x28
10001dc6:	9302      	str	r3, [sp, #8]
10001dc8:	9b09      	ldr	r3, [sp, #36]	; 0x24
10001dca:	9503      	str	r5, [sp, #12]
10001dcc:	9200      	str	r2, [sp, #0]
10001dce:	9301      	str	r3, [sp, #4]
10001dd0:	4659      	mov	r1, fp
10001dd2:	4653      	mov	r3, sl
10001dd4:	0030      	movs	r0, r6
10001dd6:	9a0c      	ldr	r2, [sp, #48]	; 0x30
10001dd8:	f000 f8cc 	bl	10001f74 <_ftoa>
10001ddc:	0005      	movs	r5, r0
10001dde:	2c00      	cmp	r4, #0
10001de0:	d06f      	beq.n	10001ec2 <_etoa+0x39a>
10001de2:	9b28      	ldr	r3, [sp, #160]	; 0xa0
10001de4:	002a      	movs	r2, r5
10001de6:	0698      	lsls	r0, r3, #26
10001de8:	231f      	movs	r3, #31
10001dea:	17c0      	asrs	r0, r0, #31
10001dec:	4398      	bics	r0, r3
10001dee:	1c6b      	adds	r3, r5, #1
10001df0:	4698      	mov	r8, r3
10001df2:	4659      	mov	r1, fp
10001df4:	4653      	mov	r3, sl
10001df6:	3065      	adds	r0, #101	; 0x65
10001df8:	47b0      	blx	r6
10001dfa:	9b0d      	ldr	r3, [sp, #52]	; 0x34
10001dfc:	2600      	movs	r6, #0
10001dfe:	17da      	asrs	r2, r3, #31
10001e00:	189d      	adds	r5, r3, r2
10001e02:	0fdb      	lsrs	r3, r3, #31
10001e04:	4699      	mov	r9, r3
10001e06:	4055      	eors	r5, r2
10001e08:	3c01      	subs	r4, #1
10001e0a:	e001      	b.n	10001e10 <_etoa+0x2e8>
10001e0c:	2e20      	cmp	r6, #32
10001e0e:	d013      	beq.n	10001e38 <_etoa+0x310>
10001e10:	aa0a      	add	r2, sp, #40	; 0x28
10001e12:	4694      	mov	ip, r2
10001e14:	231f      	movs	r3, #31
10001e16:	0028      	movs	r0, r5
10001e18:	4463      	add	r3, ip
10001e1a:	210a      	movs	r1, #10
10001e1c:	3601      	adds	r6, #1
10001e1e:	199f      	adds	r7, r3, r6
10001e20:	f001 f8a6 	bl	10002f70 <__wrap___aeabi_uidiv>
10001e24:	3130      	adds	r1, #48	; 0x30
10001e26:	7039      	strb	r1, [r7, #0]
10001e28:	0028      	movs	r0, r5
10001e2a:	210a      	movs	r1, #10
10001e2c:	f001 f8a0 	bl	10002f70 <__wrap___aeabi_uidiv>
10001e30:	002f      	movs	r7, r5
10001e32:	0005      	movs	r5, r0
10001e34:	2f09      	cmp	r7, #9
10001e36:	d8e9      	bhi.n	10001e0c <_etoa+0x2e4>
10001e38:	2305      	movs	r3, #5
10001e3a:	9306      	str	r3, [sp, #24]
10001e3c:	2300      	movs	r3, #0
10001e3e:	9304      	str	r3, [sp, #16]
10001e40:	330a      	adds	r3, #10
10001e42:	9303      	str	r3, [sp, #12]
10001e44:	464b      	mov	r3, r9
10001e46:	9601      	str	r6, [sp, #4]
10001e48:	9e0b      	ldr	r6, [sp, #44]	; 0x2c
10001e4a:	9302      	str	r3, [sp, #8]
10001e4c:	ab12      	add	r3, sp, #72	; 0x48
10001e4e:	9300      	str	r3, [sp, #0]
10001e50:	4642      	mov	r2, r8
10001e52:	4653      	mov	r3, sl
10001e54:	4659      	mov	r1, fp
10001e56:	0030      	movs	r0, r6
10001e58:	9405      	str	r4, [sp, #20]
10001e5a:	f7ff fd6d 	bl	10001938 <_ntoa_format>
10001e5e:	9b10      	ldr	r3, [sp, #64]	; 0x40
10001e60:	0005      	movs	r5, r0
10001e62:	2b00      	cmp	r3, #0
10001e64:	d02d      	beq.n	10001ec2 <_etoa+0x39a>
10001e66:	9b0c      	ldr	r3, [sp, #48]	; 0x30
10001e68:	9a27      	ldr	r2, [sp, #156]	; 0x9c
10001e6a:	1ac4      	subs	r4, r0, r3
10001e6c:	42a2      	cmp	r2, r4
10001e6e:	d928      	bls.n	10001ec2 <_etoa+0x39a>
10001e70:	4681      	mov	r9, r0
10001e72:	465d      	mov	r5, fp
10001e74:	4698      	mov	r8, r3
10001e76:	0017      	movs	r7, r2
10001e78:	4643      	mov	r3, r8
10001e7a:	0029      	movs	r1, r5
10001e7c:	191a      	adds	r2, r3, r4
10001e7e:	2020      	movs	r0, #32
10001e80:	4653      	mov	r3, sl
10001e82:	3401      	adds	r4, #1
10001e84:	47b0      	blx	r6
10001e86:	42a7      	cmp	r7, r4
10001e88:	d8f6      	bhi.n	10001e78 <_etoa+0x350>
10001e8a:	464d      	mov	r5, r9
10001e8c:	990c      	ldr	r1, [sp, #48]	; 0x30
10001e8e:	9827      	ldr	r0, [sp, #156]	; 0x9c
10001e90:	1a6b      	subs	r3, r5, r1
10001e92:	3301      	adds	r3, #1
10001e94:	2200      	movs	r2, #0
10001e96:	4298      	cmp	r0, r3
10001e98:	d261      	bcs.n	10001f5e <_etoa+0x436>
10001e9a:	3501      	adds	r5, #1
10001e9c:	1955      	adds	r5, r2, r5
10001e9e:	e010      	b.n	10001ec2 <_etoa+0x39a>
10001ea0:	9b28      	ldr	r3, [sp, #160]	; 0xa0
10001ea2:	464a      	mov	r2, r9
10001ea4:	9304      	str	r3, [sp, #16]
10001ea6:	9b27      	ldr	r3, [sp, #156]	; 0x9c
10001ea8:	4659      	mov	r1, fp
10001eaa:	9303      	str	r3, [sp, #12]
10001eac:	9b26      	ldr	r3, [sp, #152]	; 0x98
10001eae:	980b      	ldr	r0, [sp, #44]	; 0x2c
10001eb0:	9302      	str	r3, [sp, #8]
10001eb2:	4643      	mov	r3, r8
10001eb4:	9200      	str	r2, [sp, #0]
10001eb6:	9301      	str	r3, [sp, #4]
10001eb8:	4653      	mov	r3, sl
10001eba:	9a0c      	ldr	r2, [sp, #48]	; 0x30
10001ebc:	f000 f85a 	bl	10001f74 <_ftoa>
10001ec0:	0005      	movs	r5, r0
10001ec2:	0028      	movs	r0, r5
10001ec4:	b01b      	add	sp, #108	; 0x6c
10001ec6:	bc3c      	pop	{r2, r3, r4, r5}
10001ec8:	4690      	mov	r8, r2
10001eca:	4699      	mov	r9, r3
10001ecc:	46a2      	mov	sl, r4
10001ece:	46ab      	mov	fp, r5
10001ed0:	bdf0      	pop	{r4, r5, r6, r7, pc}
10001ed2:	9b26      	ldr	r3, [sp, #152]	; 0x98
10001ed4:	2b00      	cmp	r3, #0
10001ed6:	d100      	bne.n	10001eda <_etoa+0x3b2>
10001ed8:	e745      	b.n	10001d66 <_etoa+0x23e>
10001eda:	9b11      	ldr	r3, [sp, #68]	; 0x44
10001edc:	1e5a      	subs	r2, r3, #1
10001ede:	4193      	sbcs	r3, r2
10001ee0:	9a26      	ldr	r2, [sp, #152]	; 0x98
10001ee2:	1ad3      	subs	r3, r2, r3
10001ee4:	9326      	str	r3, [sp, #152]	; 0x98
10001ee6:	e73e      	b.n	10001d66 <_etoa+0x23e>
10001ee8:	7fefffff 	.word	0x7fefffff
10001eec:	ffefffff 	.word	0xffefffff
10001ef0:	fffffc01 	.word	0xfffffc01
10001ef4:	509f79fb 	.word	0x509f79fb
10001ef8:	3fd34413 	.word	0x3fd34413
10001efc:	8b60c8b3 	.word	0x8b60c8b3
10001f00:	3fc68a28 	.word	0x3fc68a28
10001f04:	3ff00000 	.word	0x3ff00000
10001f08:	3ff80000 	.word	0x3ff80000
10001f0c:	636f4361 	.word	0x636f4361
10001f10:	3fd287a7 	.word	0x3fd287a7
10001f14:	0979a371 	.word	0x0979a371
10001f18:	400a934f 	.word	0x400a934f
10001f1c:	3fe00000 	.word	0x3fe00000
10001f20:	bbb55516 	.word	0xbbb55516
10001f24:	40026bb1 	.word	0x40026bb1
10001f28:	fefa39ef 	.word	0xfefa39ef
10001f2c:	3fe62e42 	.word	0x3fe62e42
10001f30:	402c0000 	.word	0x402c0000
10001f34:	40240000 	.word	0x40240000
10001f38:	40180000 	.word	0x40180000
10001f3c:	000003ff 	.word	0x000003ff
10001f40:	eb1c432d 	.word	0xeb1c432d
10001f44:	3f1a36e2 	.word	0x3f1a36e2
10001f48:	412e8480 	.word	0x412e8480
10001f4c:	fffff7ff 	.word	0xfffff7ff
10001f50:	464b      	mov	r3, r9
10001f52:	930a      	str	r3, [sp, #40]	; 0x28
10001f54:	2380      	movs	r3, #128	; 0x80
10001f56:	061b      	lsls	r3, r3, #24
10001f58:	4443      	add	r3, r8
10001f5a:	9309      	str	r3, [sp, #36]	; 0x24
10001f5c:	e61d      	b.n	10001b9a <_etoa+0x72>
10001f5e:	000a      	movs	r2, r1
10001f60:	4684      	mov	ip, r0
10001f62:	3a01      	subs	r2, #1
10001f64:	4462      	add	r2, ip
10001f66:	1b52      	subs	r2, r2, r5
10001f68:	e797      	b.n	10001e9a <_etoa+0x372>
10001f6a:	1b50      	subs	r0, r2, r5
10001f6c:	1e43      	subs	r3, r0, #1
10001f6e:	9326      	str	r3, [sp, #152]	; 0x98
10001f70:	e6f1      	b.n	10001d56 <_etoa+0x22e>
10001f72:	46c0      	nop			; (mov r8, r8)

10001f74 <_ftoa>:
10001f74:	b5f0      	push	{r4, r5, r6, r7, lr}
10001f76:	464e      	mov	r6, r9
10001f78:	46de      	mov	lr, fp
10001f7a:	4657      	mov	r7, sl
10001f7c:	4645      	mov	r5, r8
10001f7e:	b5e0      	push	{r5, r6, r7, lr}
10001f80:	b097      	sub	sp, #92	; 0x5c
10001f82:	4699      	mov	r9, r3
10001f84:	9e20      	ldr	r6, [sp, #128]	; 0x80
10001f86:	9f21      	ldr	r7, [sp, #132]	; 0x84
10001f88:	9b22      	ldr	r3, [sp, #136]	; 0x88
10001f8a:	4683      	mov	fp, r0
10001f8c:	4698      	mov	r8, r3
10001f8e:	9107      	str	r1, [sp, #28]
10001f90:	920c      	str	r2, [sp, #48]	; 0x30
10001f92:	003b      	movs	r3, r7
10001f94:	0032      	movs	r2, r6
10001f96:	0030      	movs	r0, r6
10001f98:	0039      	movs	r1, r7
10001f9a:	f001 faa6 	bl	100034ea <__wrap___aeabi_dcmpun>
10001f9e:	2800      	cmp	r0, #0
10001fa0:	d000      	beq.n	10001fa4 <_ftoa+0x30>
10001fa2:	e1c1      	b.n	10002328 <_ftoa+0x3b4>
10001fa4:	2201      	movs	r2, #1
10001fa6:	0030      	movs	r0, r6
10001fa8:	0039      	movs	r1, r7
10001faa:	4bca      	ldr	r3, [pc, #808]	; (100022d4 <_ftoa+0x360>)
10001fac:	4252      	negs	r2, r2
10001fae:	f001 fa81 	bl	100034b4 <__wrap___aeabi_dcmplt>
10001fb2:	2800      	cmp	r0, #0
10001fb4:	d000      	beq.n	10001fb8 <_ftoa+0x44>
10001fb6:	e0e0      	b.n	1000217a <_ftoa+0x206>
10001fb8:	2201      	movs	r2, #1
10001fba:	0030      	movs	r0, r6
10001fbc:	0039      	movs	r1, r7
10001fbe:	4bc6      	ldr	r3, [pc, #792]	; (100022d8 <_ftoa+0x364>)
10001fc0:	4252      	negs	r2, r2
10001fc2:	f001 fa8d 	bl	100034e0 <__wrap___aeabi_dcmpgt>
10001fc6:	2800      	cmp	r0, #0
10001fc8:	d000      	beq.n	10001fcc <_ftoa+0x58>
10001fca:	e0b6      	b.n	1000213a <_ftoa+0x1c6>
10001fcc:	2200      	movs	r2, #0
10001fce:	0030      	movs	r0, r6
10001fd0:	0039      	movs	r1, r7
10001fd2:	4bc2      	ldr	r3, [pc, #776]	; (100022dc <_ftoa+0x368>)
10001fd4:	f001 fa84 	bl	100034e0 <__wrap___aeabi_dcmpgt>
10001fd8:	2800      	cmp	r0, #0
10001fda:	d000      	beq.n	10001fde <_ftoa+0x6a>
10001fdc:	e098      	b.n	10002110 <_ftoa+0x19c>
10001fde:	2200      	movs	r2, #0
10001fe0:	0030      	movs	r0, r6
10001fe2:	0039      	movs	r1, r7
10001fe4:	4bbe      	ldr	r3, [pc, #760]	; (100022e0 <_ftoa+0x36c>)
10001fe6:	f001 fa65 	bl	100034b4 <__wrap___aeabi_dcmplt>
10001fea:	2800      	cmp	r0, #0
10001fec:	d000      	beq.n	10001ff0 <_ftoa+0x7c>
10001fee:	e08f      	b.n	10002110 <_ftoa+0x19c>
10001ff0:	2200      	movs	r2, #0
10001ff2:	2300      	movs	r3, #0
10001ff4:	0030      	movs	r0, r6
10001ff6:	0039      	movs	r1, r7
10001ff8:	f001 fa5c 	bl	100034b4 <__wrap___aeabi_dcmplt>
10001ffc:	2800      	cmp	r0, #0
10001ffe:	d000      	beq.n	10002002 <_ftoa+0x8e>
10002000:	e0b0      	b.n	10002164 <_ftoa+0x1f0>
10002002:	2300      	movs	r3, #0
10002004:	930d      	str	r3, [sp, #52]	; 0x34
10002006:	9b24      	ldr	r3, [sp, #144]	; 0x90
10002008:	055b      	lsls	r3, r3, #21
1000200a:	d401      	bmi.n	10002010 <_ftoa+0x9c>
1000200c:	2306      	movs	r3, #6
1000200e:	4698      	mov	r8, r3
10002010:	ab08      	add	r3, sp, #32
10002012:	469c      	mov	ip, r3
10002014:	2217      	movs	r2, #23
10002016:	2400      	movs	r4, #0
10002018:	2330      	movs	r3, #48	; 0x30
1000201a:	4641      	mov	r1, r8
1000201c:	4462      	add	r2, ip
1000201e:	e004      	b.n	1000202a <_ftoa+0xb6>
10002020:	3401      	adds	r4, #1
10002022:	5513      	strb	r3, [r2, r4]
10002024:	3901      	subs	r1, #1
10002026:	2c20      	cmp	r4, #32
10002028:	d001      	beq.n	1000202e <_ftoa+0xba>
1000202a:	2909      	cmp	r1, #9
1000202c:	d8f8      	bhi.n	10002020 <_ftoa+0xac>
1000202e:	4688      	mov	r8, r1
10002030:	0030      	movs	r0, r6
10002032:	0039      	movs	r1, r7
10002034:	f001 fa84 	bl	10003540 <__wrap___aeabi_d2iz>
10002038:	4643      	mov	r3, r8
1000203a:	00da      	lsls	r2, r3, #3
1000203c:	4ba9      	ldr	r3, [pc, #676]	; (100022e4 <_ftoa+0x370>)
1000203e:	0005      	movs	r5, r0
10002040:	189b      	adds	r3, r3, r2
10002042:	681a      	ldr	r2, [r3, #0]
10002044:	685b      	ldr	r3, [r3, #4]
10002046:	9208      	str	r2, [sp, #32]
10002048:	9309      	str	r3, [sp, #36]	; 0x24
1000204a:	f001 fa61 	bl	10003510 <__wrap___aeabi_i2d>
1000204e:	0002      	movs	r2, r0
10002050:	000b      	movs	r3, r1
10002052:	0030      	movs	r0, r6
10002054:	0039      	movs	r1, r7
10002056:	f001 f9d0 	bl	100033fa <__wrap___aeabi_dsub>
1000205a:	9a08      	ldr	r2, [sp, #32]
1000205c:	9b09      	ldr	r3, [sp, #36]	; 0x24
1000205e:	f001 f9e7 	bl	10003430 <__wrap___aeabi_dmul>
10002062:	900a      	str	r0, [sp, #40]	; 0x28
10002064:	910b      	str	r1, [sp, #44]	; 0x2c
10002066:	f001 fa8f 	bl	10003588 <__wrap___aeabi_d2uiz>
1000206a:	4682      	mov	sl, r0
1000206c:	f001 fa4c 	bl	10003508 <__wrap___aeabi_ui2d>
10002070:	0002      	movs	r2, r0
10002072:	000b      	movs	r3, r1
10002074:	980a      	ldr	r0, [sp, #40]	; 0x28
10002076:	990b      	ldr	r1, [sp, #44]	; 0x2c
10002078:	f001 f9bf 	bl	100033fa <__wrap___aeabi_dsub>
1000207c:	2200      	movs	r2, #0
1000207e:	4b9a      	ldr	r3, [pc, #616]	; (100022e8 <_ftoa+0x374>)
10002080:	900a      	str	r0, [sp, #40]	; 0x28
10002082:	910b      	str	r1, [sp, #44]	; 0x2c
10002084:	f001 fa2c 	bl	100034e0 <__wrap___aeabi_dcmpgt>
10002088:	2800      	cmp	r0, #0
1000208a:	d100      	bne.n	1000208e <_ftoa+0x11a>
1000208c:	e0c0      	b.n	10002210 <_ftoa+0x29c>
1000208e:	2301      	movs	r3, #1
10002090:	469c      	mov	ip, r3
10002092:	44e2      	add	sl, ip
10002094:	4650      	mov	r0, sl
10002096:	f001 fa37 	bl	10003508 <__wrap___aeabi_ui2d>
1000209a:	0002      	movs	r2, r0
1000209c:	000b      	movs	r3, r1
1000209e:	9808      	ldr	r0, [sp, #32]
100020a0:	9909      	ldr	r1, [sp, #36]	; 0x24
100020a2:	f001 fa0d 	bl	100034c0 <__wrap___aeabi_dcmple>
100020a6:	2800      	cmp	r0, #0
100020a8:	d002      	beq.n	100020b0 <_ftoa+0x13c>
100020aa:	2300      	movs	r3, #0
100020ac:	469a      	mov	sl, r3
100020ae:	3501      	adds	r5, #1
100020b0:	4643      	mov	r3, r8
100020b2:	2b00      	cmp	r3, #0
100020b4:	d069      	beq.n	1000218a <_ftoa+0x216>
100020b6:	ab08      	add	r3, sp, #32
100020b8:	2617      	movs	r6, #23
100020ba:	469c      	mov	ip, r3
100020bc:	9508      	str	r5, [sp, #32]
100020be:	4466      	add	r6, ip
100020c0:	4655      	mov	r5, sl
100020c2:	e014      	b.n	100020ee <_ftoa+0x17a>
100020c4:	2301      	movs	r3, #1
100020c6:	425b      	negs	r3, r3
100020c8:	4443      	add	r3, r8
100020ca:	210a      	movs	r1, #10
100020cc:	0028      	movs	r0, r5
100020ce:	469a      	mov	sl, r3
100020d0:	f000 ff4e 	bl	10002f70 <__wrap___aeabi_uidiv>
100020d4:	3401      	adds	r4, #1
100020d6:	3130      	adds	r1, #48	; 0x30
100020d8:	1937      	adds	r7, r6, r4
100020da:	7039      	strb	r1, [r7, #0]
100020dc:	0028      	movs	r0, r5
100020de:	210a      	movs	r1, #10
100020e0:	f000 ff46 	bl	10002f70 <__wrap___aeabi_uidiv>
100020e4:	2d09      	cmp	r5, #9
100020e6:	d800      	bhi.n	100020ea <_ftoa+0x176>
100020e8:	e0d5      	b.n	10002296 <_ftoa+0x322>
100020ea:	46d0      	mov	r8, sl
100020ec:	0005      	movs	r5, r0
100020ee:	2c20      	cmp	r4, #32
100020f0:	d1e8      	bne.n	100020c4 <_ftoa+0x150>
100020f2:	2303      	movs	r3, #3
100020f4:	9a24      	ldr	r2, [sp, #144]	; 0x90
100020f6:	4013      	ands	r3, r2
100020f8:	2b01      	cmp	r3, #1
100020fa:	d100      	bne.n	100020fe <_ftoa+0x18a>
100020fc:	e100      	b.n	10002300 <_ftoa+0x38c>
100020fe:	ab0e      	add	r3, sp, #56	; 0x38
10002100:	4698      	mov	r8, r3
10002102:	9b24      	ldr	r3, [sp, #144]	; 0x90
10002104:	9401      	str	r4, [sp, #4]
10002106:	9303      	str	r3, [sp, #12]
10002108:	9b23      	ldr	r3, [sp, #140]	; 0x8c
1000210a:	9302      	str	r3, [sp, #8]
1000210c:	4643      	mov	r3, r8
1000210e:	e01e      	b.n	1000214e <_ftoa+0x1da>
10002110:	9b24      	ldr	r3, [sp, #144]	; 0x90
10002112:	4658      	mov	r0, fp
10002114:	9304      	str	r3, [sp, #16]
10002116:	9b23      	ldr	r3, [sp, #140]	; 0x8c
10002118:	9600      	str	r6, [sp, #0]
1000211a:	9701      	str	r7, [sp, #4]
1000211c:	9303      	str	r3, [sp, #12]
1000211e:	4643      	mov	r3, r8
10002120:	9a0c      	ldr	r2, [sp, #48]	; 0x30
10002122:	9302      	str	r3, [sp, #8]
10002124:	9907      	ldr	r1, [sp, #28]
10002126:	464b      	mov	r3, r9
10002128:	f7ff fcfe 	bl	10001b28 <_etoa>
1000212c:	b017      	add	sp, #92	; 0x5c
1000212e:	bc3c      	pop	{r2, r3, r4, r5}
10002130:	4690      	mov	r8, r2
10002132:	4699      	mov	r9, r3
10002134:	46a2      	mov	sl, r4
10002136:	46ab      	mov	fp, r5
10002138:	bdf0      	pop	{r4, r5, r6, r7, pc}
1000213a:	9b24      	ldr	r3, [sp, #144]	; 0x90
1000213c:	075b      	lsls	r3, r3, #29
1000213e:	d40e      	bmi.n	1000215e <_ftoa+0x1ea>
10002140:	2203      	movs	r2, #3
10002142:	4b6a      	ldr	r3, [pc, #424]	; (100022ec <_ftoa+0x378>)
10002144:	9924      	ldr	r1, [sp, #144]	; 0x90
10002146:	9201      	str	r2, [sp, #4]
10002148:	9103      	str	r1, [sp, #12]
1000214a:	9923      	ldr	r1, [sp, #140]	; 0x8c
1000214c:	9102      	str	r1, [sp, #8]
1000214e:	9300      	str	r3, [sp, #0]
10002150:	4658      	mov	r0, fp
10002152:	464b      	mov	r3, r9
10002154:	9a0c      	ldr	r2, [sp, #48]	; 0x30
10002156:	9907      	ldr	r1, [sp, #28]
10002158:	f7ff fb86 	bl	10001868 <_out_rev>
1000215c:	e7e6      	b.n	1000212c <_ftoa+0x1b8>
1000215e:	2204      	movs	r2, #4
10002160:	4b63      	ldr	r3, [pc, #396]	; (100022f0 <_ftoa+0x37c>)
10002162:	e7ef      	b.n	10002144 <_ftoa+0x1d0>
10002164:	003b      	movs	r3, r7
10002166:	0032      	movs	r2, r6
10002168:	2000      	movs	r0, #0
1000216a:	2100      	movs	r1, #0
1000216c:	f001 f945 	bl	100033fa <__wrap___aeabi_dsub>
10002170:	2301      	movs	r3, #1
10002172:	0006      	movs	r6, r0
10002174:	000f      	movs	r7, r1
10002176:	930d      	str	r3, [sp, #52]	; 0x34
10002178:	e745      	b.n	10002006 <_ftoa+0x92>
1000217a:	9b24      	ldr	r3, [sp, #144]	; 0x90
1000217c:	9303      	str	r3, [sp, #12]
1000217e:	9b23      	ldr	r3, [sp, #140]	; 0x8c
10002180:	9302      	str	r3, [sp, #8]
10002182:	2304      	movs	r3, #4
10002184:	9301      	str	r3, [sp, #4]
10002186:	4b5b      	ldr	r3, [pc, #364]	; (100022f4 <_ftoa+0x380>)
10002188:	e7e1      	b.n	1000214e <_ftoa+0x1da>
1000218a:	0028      	movs	r0, r5
1000218c:	f001 f9c0 	bl	10003510 <__wrap___aeabi_i2d>
10002190:	0002      	movs	r2, r0
10002192:	000b      	movs	r3, r1
10002194:	0030      	movs	r0, r6
10002196:	0039      	movs	r1, r7
10002198:	f001 f92f 	bl	100033fa <__wrap___aeabi_dsub>
1000219c:	4b52      	ldr	r3, [pc, #328]	; (100022e8 <_ftoa+0x374>)
1000219e:	2200      	movs	r2, #0
100021a0:	0006      	movs	r6, r0
100021a2:	000f      	movs	r7, r1
100021a4:	f001 f986 	bl	100034b4 <__wrap___aeabi_dcmplt>
100021a8:	ab0e      	add	r3, sp, #56	; 0x38
100021aa:	4698      	mov	r8, r3
100021ac:	2800      	cmp	r0, #0
100021ae:	d10a      	bne.n	100021c6 <_ftoa+0x252>
100021b0:	2200      	movs	r2, #0
100021b2:	0030      	movs	r0, r6
100021b4:	0039      	movs	r1, r7
100021b6:	4b4c      	ldr	r3, [pc, #304]	; (100022e8 <_ftoa+0x374>)
100021b8:	f001 f992 	bl	100034e0 <__wrap___aeabi_dcmpgt>
100021bc:	2800      	cmp	r0, #0
100021be:	d102      	bne.n	100021c6 <_ftoa+0x252>
100021c0:	07eb      	lsls	r3, r5, #31
100021c2:	d500      	bpl.n	100021c6 <_ftoa+0x252>
100021c4:	3501      	adds	r5, #1
100021c6:	2c20      	cmp	r4, #32
100021c8:	d032      	beq.n	10002230 <_ftoa+0x2bc>
100021ca:	aa08      	add	r2, sp, #32
100021cc:	4694      	mov	ip, r2
100021ce:	2317      	movs	r3, #23
100021d0:	0028      	movs	r0, r5
100021d2:	4463      	add	r3, ip
100021d4:	210a      	movs	r1, #10
100021d6:	3401      	adds	r4, #1
100021d8:	191e      	adds	r6, r3, r4
100021da:	f000 fe9d 	bl	10002f18 <__wrap___aeabi_idiv>
100021de:	3130      	adds	r1, #48	; 0x30
100021e0:	0028      	movs	r0, r5
100021e2:	7031      	strb	r1, [r6, #0]
100021e4:	210a      	movs	r1, #10
100021e6:	f000 fe97 	bl	10002f18 <__wrap___aeabi_idiv>
100021ea:	1e05      	subs	r5, r0, #0
100021ec:	d1eb      	bne.n	100021c6 <_ftoa+0x252>
100021ee:	2303      	movs	r3, #3
100021f0:	9a24      	ldr	r2, [sp, #144]	; 0x90
100021f2:	4013      	ands	r3, r2
100021f4:	2b01      	cmp	r3, #1
100021f6:	d100      	bne.n	100021fa <_ftoa+0x286>
100021f8:	e091      	b.n	1000231e <_ftoa+0x3aa>
100021fa:	2c1f      	cmp	r4, #31
100021fc:	d900      	bls.n	10002200 <_ftoa+0x28c>
100021fe:	e780      	b.n	10002102 <_ftoa+0x18e>
10002200:	9b0d      	ldr	r3, [sp, #52]	; 0x34
10002202:	2b00      	cmp	r3, #0
10002204:	d03b      	beq.n	1000227e <_ftoa+0x30a>
10002206:	232d      	movs	r3, #45	; 0x2d
10002208:	4642      	mov	r2, r8
1000220a:	5513      	strb	r3, [r2, r4]
1000220c:	3401      	adds	r4, #1
1000220e:	e778      	b.n	10002102 <_ftoa+0x18e>
10002210:	2200      	movs	r2, #0
10002212:	980a      	ldr	r0, [sp, #40]	; 0x28
10002214:	990b      	ldr	r1, [sp, #44]	; 0x2c
10002216:	4b34      	ldr	r3, [pc, #208]	; (100022e8 <_ftoa+0x374>)
10002218:	f001 f94c 	bl	100034b4 <__wrap___aeabi_dcmplt>
1000221c:	2800      	cmp	r0, #0
1000221e:	d000      	beq.n	10002222 <_ftoa+0x2ae>
10002220:	e746      	b.n	100020b0 <_ftoa+0x13c>
10002222:	4653      	mov	r3, sl
10002224:	2b00      	cmp	r3, #0
10002226:	d167      	bne.n	100022f8 <_ftoa+0x384>
10002228:	2301      	movs	r3, #1
1000222a:	469c      	mov	ip, r3
1000222c:	44e2      	add	sl, ip
1000222e:	e73f      	b.n	100020b0 <_ftoa+0x13c>
10002230:	2303      	movs	r3, #3
10002232:	9a24      	ldr	r2, [sp, #144]	; 0x90
10002234:	4013      	ands	r3, r2
10002236:	2b01      	cmp	r3, #1
10002238:	d000      	beq.n	1000223c <_ftoa+0x2c8>
1000223a:	e762      	b.n	10002102 <_ftoa+0x18e>
1000223c:	9b23      	ldr	r3, [sp, #140]	; 0x8c
1000223e:	2b00      	cmp	r3, #0
10002240:	d100      	bne.n	10002244 <_ftoa+0x2d0>
10002242:	e75e      	b.n	10002102 <_ftoa+0x18e>
10002244:	9b0d      	ldr	r3, [sp, #52]	; 0x34
10002246:	2b00      	cmp	r3, #0
10002248:	d103      	bne.n	10002252 <_ftoa+0x2de>
1000224a:	9a24      	ldr	r2, [sp, #144]	; 0x90
1000224c:	330c      	adds	r3, #12
1000224e:	4213      	tst	r3, r2
10002250:	d002      	beq.n	10002258 <_ftoa+0x2e4>
10002252:	9b23      	ldr	r3, [sp, #140]	; 0x8c
10002254:	3b01      	subs	r3, #1
10002256:	9323      	str	r3, [sp, #140]	; 0x8c
10002258:	9b23      	ldr	r3, [sp, #140]	; 0x8c
1000225a:	429c      	cmp	r4, r3
1000225c:	d2cd      	bcs.n	100021fa <_ftoa+0x286>
1000225e:	ab08      	add	r3, sp, #32
10002260:	469c      	mov	ip, r3
10002262:	2217      	movs	r2, #23
10002264:	2330      	movs	r3, #48	; 0x30
10002266:	4462      	add	r2, ip
10002268:	2c1f      	cmp	r4, #31
1000226a:	d806      	bhi.n	1000227a <_ftoa+0x306>
1000226c:	9923      	ldr	r1, [sp, #140]	; 0x8c
1000226e:	3401      	adds	r4, #1
10002270:	5513      	strb	r3, [r2, r4]
10002272:	428c      	cmp	r4, r1
10002274:	d0c1      	beq.n	100021fa <_ftoa+0x286>
10002276:	2c20      	cmp	r4, #32
10002278:	d1f8      	bne.n	1000226c <_ftoa+0x2f8>
1000227a:	2420      	movs	r4, #32
1000227c:	e741      	b.n	10002102 <_ftoa+0x18e>
1000227e:	9b24      	ldr	r3, [sp, #144]	; 0x90
10002280:	075b      	lsls	r3, r3, #29
10002282:	d421      	bmi.n	100022c8 <_ftoa+0x354>
10002284:	9b24      	ldr	r3, [sp, #144]	; 0x90
10002286:	071b      	lsls	r3, r3, #28
10002288:	d400      	bmi.n	1000228c <_ftoa+0x318>
1000228a:	e73a      	b.n	10002102 <_ftoa+0x18e>
1000228c:	2320      	movs	r3, #32
1000228e:	4642      	mov	r2, r8
10002290:	5513      	strb	r3, [r2, r4]
10002292:	3401      	adds	r4, #1
10002294:	e735      	b.n	10002102 <_ftoa+0x18e>
10002296:	4657      	mov	r7, sl
10002298:	9d08      	ldr	r5, [sp, #32]
1000229a:	2c20      	cmp	r4, #32
1000229c:	d037      	beq.n	1000230e <_ftoa+0x39a>
1000229e:	0022      	movs	r2, r4
100022a0:	2130      	movs	r1, #48	; 0x30
100022a2:	4640      	mov	r0, r8
100022a4:	2f00      	cmp	r7, #0
100022a6:	d008      	beq.n	100022ba <_ftoa+0x346>
100022a8:	3201      	adds	r2, #1
100022aa:	54b1      	strb	r1, [r6, r2]
100022ac:	2a20      	cmp	r2, #32
100022ae:	d043      	beq.n	10002338 <_ftoa+0x3c4>
100022b0:	43d3      	mvns	r3, r2
100022b2:	191b      	adds	r3, r3, r4
100022b4:	181b      	adds	r3, r3, r0
100022b6:	2b00      	cmp	r3, #0
100022b8:	d1f6      	bne.n	100022a8 <_ftoa+0x334>
100022ba:	ab0e      	add	r3, sp, #56	; 0x38
100022bc:	4698      	mov	r8, r3
100022be:	232e      	movs	r3, #46	; 0x2e
100022c0:	4641      	mov	r1, r8
100022c2:	1c54      	adds	r4, r2, #1
100022c4:	548b      	strb	r3, [r1, r2]
100022c6:	e77e      	b.n	100021c6 <_ftoa+0x252>
100022c8:	232b      	movs	r3, #43	; 0x2b
100022ca:	4642      	mov	r2, r8
100022cc:	5513      	strb	r3, [r2, r4]
100022ce:	3401      	adds	r4, #1
100022d0:	e717      	b.n	10002102 <_ftoa+0x18e>
100022d2:	46c0      	nop			; (mov r8, r8)
100022d4:	ffefffff 	.word	0xffefffff
100022d8:	7fefffff 	.word	0x7fefffff
100022dc:	41cdcd65 	.word	0x41cdcd65
100022e0:	c1cdcd65 	.word	0xc1cdcd65
100022e4:	10004e80 	.word	0x10004e80
100022e8:	3fe00000 	.word	0x3fe00000
100022ec:	10004c88 	.word	0x10004c88
100022f0:	10004c8c 	.word	0x10004c8c
100022f4:	10004c98 	.word	0x10004c98
100022f8:	07db      	lsls	r3, r3, #31
100022fa:	d400      	bmi.n	100022fe <_ftoa+0x38a>
100022fc:	e6d8      	b.n	100020b0 <_ftoa+0x13c>
100022fe:	e793      	b.n	10002228 <_ftoa+0x2b4>
10002300:	9b23      	ldr	r3, [sp, #140]	; 0x8c
10002302:	2b00      	cmp	r3, #0
10002304:	d100      	bne.n	10002308 <_ftoa+0x394>
10002306:	e6fa      	b.n	100020fe <_ftoa+0x18a>
10002308:	ab0e      	add	r3, sp, #56	; 0x38
1000230a:	4698      	mov	r8, r3
1000230c:	e79a      	b.n	10002244 <_ftoa+0x2d0>
1000230e:	2303      	movs	r3, #3
10002310:	9a24      	ldr	r2, [sp, #144]	; 0x90
10002312:	4013      	ands	r3, r2
10002314:	2b01      	cmp	r3, #1
10002316:	d000      	beq.n	1000231a <_ftoa+0x3a6>
10002318:	e6f1      	b.n	100020fe <_ftoa+0x18a>
1000231a:	ab0e      	add	r3, sp, #56	; 0x38
1000231c:	4698      	mov	r8, r3
1000231e:	9b23      	ldr	r3, [sp, #140]	; 0x8c
10002320:	2b00      	cmp	r3, #0
10002322:	d100      	bne.n	10002326 <_ftoa+0x3b2>
10002324:	e769      	b.n	100021fa <_ftoa+0x286>
10002326:	e78d      	b.n	10002244 <_ftoa+0x2d0>
10002328:	9b24      	ldr	r3, [sp, #144]	; 0x90
1000232a:	9303      	str	r3, [sp, #12]
1000232c:	9b23      	ldr	r3, [sp, #140]	; 0x8c
1000232e:	9302      	str	r3, [sp, #8]
10002330:	2303      	movs	r3, #3
10002332:	9301      	str	r3, [sp, #4]
10002334:	4b06      	ldr	r3, [pc, #24]	; (10002350 <_ftoa+0x3dc>)
10002336:	e70a      	b.n	1000214e <_ftoa+0x1da>
10002338:	2303      	movs	r3, #3
1000233a:	9a24      	ldr	r2, [sp, #144]	; 0x90
1000233c:	2420      	movs	r4, #32
1000233e:	4013      	ands	r3, r2
10002340:	2b01      	cmp	r3, #1
10002342:	d000      	beq.n	10002346 <_ftoa+0x3d2>
10002344:	e6db      	b.n	100020fe <_ftoa+0x18a>
10002346:	9b23      	ldr	r3, [sp, #140]	; 0x8c
10002348:	2420      	movs	r4, #32
1000234a:	2b00      	cmp	r3, #0
1000234c:	d1dc      	bne.n	10002308 <_ftoa+0x394>
1000234e:	e6d6      	b.n	100020fe <_ftoa+0x18a>
10002350:	10004c94 	.word	0x10004c94

10002354 <_vsnprintf>:
10002354:	b5f0      	push	{r4, r5, r6, r7, lr}
10002356:	46de      	mov	lr, fp
10002358:	464e      	mov	r6, r9
1000235a:	4657      	mov	r7, sl
1000235c:	4645      	mov	r5, r8
1000235e:	b5e0      	push	{r5, r6, r7, lr}
10002360:	b09f      	sub	sp, #124	; 0x7c
10002362:	001c      	movs	r4, r3
10002364:	9b28      	ldr	r3, [sp, #160]	; 0xa0
10002366:	4693      	mov	fp, r2
10002368:	9309      	str	r3, [sp, #36]	; 0x24
1000236a:	4acf      	ldr	r2, [pc, #828]	; (100026a8 <_vsnprintf+0x354>)
1000236c:	4bcf      	ldr	r3, [pc, #828]	; (100026ac <_vsnprintf+0x358>)
1000236e:	4689      	mov	r9, r1
10002370:	9008      	str	r0, [sp, #32]
10002372:	601a      	str	r2, [r3, #0]
10002374:	2900      	cmp	r1, #0
10002376:	d100      	bne.n	1000237a <_vsnprintf+0x26>
10002378:	e216      	b.n	100027a8 <_vsnprintf+0x454>
1000237a:	2300      	movs	r3, #0
1000237c:	7820      	ldrb	r0, [r4, #0]
1000237e:	469a      	mov	sl, r3
10002380:	2800      	cmp	r0, #0
10002382:	d100      	bne.n	10002386 <_vsnprintf+0x32>
10002384:	e218      	b.n	100027b8 <_vsnprintf+0x464>
10002386:	0026      	movs	r6, r4
10002388:	001d      	movs	r5, r3
1000238a:	464c      	mov	r4, r9
1000238c:	e00a      	b.n	100023a4 <_vsnprintf+0x50>
1000238e:	002a      	movs	r2, r5
10002390:	1c6f      	adds	r7, r5, #1
10002392:	465b      	mov	r3, fp
10002394:	9d08      	ldr	r5, [sp, #32]
10002396:	0021      	movs	r1, r4
10002398:	47a8      	blx	r5
1000239a:	003d      	movs	r5, r7
1000239c:	3601      	adds	r6, #1
1000239e:	7830      	ldrb	r0, [r6, #0]
100023a0:	2800      	cmp	r0, #0
100023a2:	d07a      	beq.n	1000249a <_vsnprintf+0x146>
100023a4:	2825      	cmp	r0, #37	; 0x25
100023a6:	d1f2      	bne.n	1000238e <_vsnprintf+0x3a>
100023a8:	2310      	movs	r3, #16
100023aa:	469a      	mov	sl, r3
100023ac:	3b08      	subs	r3, #8
100023ae:	4699      	mov	r9, r3
100023b0:	3b04      	subs	r3, #4
100023b2:	4698      	mov	r8, r3
100023b4:	3b02      	subs	r3, #2
100023b6:	2100      	movs	r1, #0
100023b8:	469c      	mov	ip, r3
100023ba:	1c72      	adds	r2, r6, #1
100023bc:	7810      	ldrb	r0, [r2, #0]
100023be:	0016      	movs	r6, r2
100023c0:	0003      	movs	r3, r0
100023c2:	3b20      	subs	r3, #32
100023c4:	b2db      	uxtb	r3, r3
100023c6:	2b10      	cmp	r3, #16
100023c8:	d803      	bhi.n	100023d2 <_vsnprintf+0x7e>
100023ca:	4fb9      	ldr	r7, [pc, #740]	; (100026b0 <_vsnprintf+0x35c>)
100023cc:	009b      	lsls	r3, r3, #2
100023ce:	58fb      	ldr	r3, [r7, r3]
100023d0:	469f      	mov	pc, r3
100023d2:	0003      	movs	r3, r0
100023d4:	3b30      	subs	r3, #48	; 0x30
100023d6:	2b09      	cmp	r3, #9
100023d8:	d93c      	bls.n	10002454 <_vsnprintf+0x100>
100023da:	2300      	movs	r3, #0
100023dc:	930a      	str	r3, [sp, #40]	; 0x28
100023de:	282a      	cmp	r0, #42	; 0x2a
100023e0:	d100      	bne.n	100023e4 <_vsnprintf+0x90>
100023e2:	e071      	b.n	100024c8 <_vsnprintf+0x174>
100023e4:	2300      	movs	r3, #0
100023e6:	4698      	mov	r8, r3
100023e8:	282e      	cmp	r0, #46	; 0x2e
100023ea:	d047      	beq.n	1000247c <_vsnprintf+0x128>
100023ec:	0003      	movs	r3, r0
100023ee:	3b68      	subs	r3, #104	; 0x68
100023f0:	b2db      	uxtb	r3, r3
100023f2:	2b12      	cmp	r3, #18
100023f4:	d81f      	bhi.n	10002436 <_vsnprintf+0xe2>
100023f6:	4aaf      	ldr	r2, [pc, #700]	; (100026b4 <_vsnprintf+0x360>)
100023f8:	009b      	lsls	r3, r3, #2
100023fa:	58d3      	ldr	r3, [r2, r3]
100023fc:	469f      	mov	pc, r3
100023fe:	2301      	movs	r3, #1
10002400:	3201      	adds	r2, #1
10002402:	4319      	orrs	r1, r3
10002404:	e7da      	b.n	100023bc <_vsnprintf+0x68>
10002406:	4663      	mov	r3, ip
10002408:	3201      	adds	r2, #1
1000240a:	4319      	orrs	r1, r3
1000240c:	e7d6      	b.n	100023bc <_vsnprintf+0x68>
1000240e:	4643      	mov	r3, r8
10002410:	3201      	adds	r2, #1
10002412:	4319      	orrs	r1, r3
10002414:	e7d2      	b.n	100023bc <_vsnprintf+0x68>
10002416:	4653      	mov	r3, sl
10002418:	3201      	adds	r2, #1
1000241a:	4319      	orrs	r1, r3
1000241c:	e7ce      	b.n	100023bc <_vsnprintf+0x68>
1000241e:	464b      	mov	r3, r9
10002420:	3201      	adds	r2, #1
10002422:	4319      	orrs	r1, r3
10002424:	e7ca      	b.n	100023bc <_vsnprintf+0x68>
10002426:	7870      	ldrb	r0, [r6, #1]
10002428:	286c      	cmp	r0, #108	; 0x6c
1000242a:	d100      	bne.n	1000242e <_vsnprintf+0xda>
1000242c:	e2bf      	b.n	100029ae <_vsnprintf+0x65a>
1000242e:	2380      	movs	r3, #128	; 0x80
10002430:	005b      	lsls	r3, r3, #1
10002432:	4319      	orrs	r1, r3
10002434:	3601      	adds	r6, #1
10002436:	0003      	movs	r3, r0
10002438:	3b25      	subs	r3, #37	; 0x25
1000243a:	b2db      	uxtb	r3, r3
1000243c:	2b53      	cmp	r3, #83	; 0x53
1000243e:	d8a6      	bhi.n	1000238e <_vsnprintf+0x3a>
10002440:	4a9d      	ldr	r2, [pc, #628]	; (100026b8 <_vsnprintf+0x364>)
10002442:	009b      	lsls	r3, r3, #2
10002444:	58d3      	ldr	r3, [r2, r3]
10002446:	469f      	mov	pc, r3
10002448:	2380      	movs	r3, #128	; 0x80
1000244a:	005b      	lsls	r3, r3, #1
1000244c:	7870      	ldrb	r0, [r6, #1]
1000244e:	4319      	orrs	r1, r3
10002450:	3601      	adds	r6, #1
10002452:	e7f0      	b.n	10002436 <_vsnprintf+0xe2>
10002454:	2700      	movs	r7, #0
10002456:	0003      	movs	r3, r0
10002458:	00b8      	lsls	r0, r7, #2
1000245a:	19c0      	adds	r0, r0, r7
1000245c:	3601      	adds	r6, #1
1000245e:	0040      	lsls	r0, r0, #1
10002460:	18c0      	adds	r0, r0, r3
10002462:	7833      	ldrb	r3, [r6, #0]
10002464:	3830      	subs	r0, #48	; 0x30
10002466:	001a      	movs	r2, r3
10002468:	3a30      	subs	r2, #48	; 0x30
1000246a:	0007      	movs	r7, r0
1000246c:	2a09      	cmp	r2, #9
1000246e:	d9f3      	bls.n	10002458 <_vsnprintf+0x104>
10002470:	900a      	str	r0, [sp, #40]	; 0x28
10002472:	0018      	movs	r0, r3
10002474:	2300      	movs	r3, #0
10002476:	4698      	mov	r8, r3
10002478:	282e      	cmp	r0, #46	; 0x2e
1000247a:	d1b7      	bne.n	100023ec <_vsnprintf+0x98>
1000247c:	2380      	movs	r3, #128	; 0x80
1000247e:	7870      	ldrb	r0, [r6, #1]
10002480:	00db      	lsls	r3, r3, #3
10002482:	4319      	orrs	r1, r3
10002484:	0003      	movs	r3, r0
10002486:	3b30      	subs	r3, #48	; 0x30
10002488:	1c72      	adds	r2, r6, #1
1000248a:	2b09      	cmp	r3, #9
1000248c:	d800      	bhi.n	10002490 <_vsnprintf+0x13c>
1000248e:	e195      	b.n	100027bc <_vsnprintf+0x468>
10002490:	282a      	cmp	r0, #42	; 0x2a
10002492:	d100      	bne.n	10002496 <_vsnprintf+0x142>
10002494:	e1a6      	b.n	100027e4 <_vsnprintf+0x490>
10002496:	0016      	movs	r6, r2
10002498:	e7a8      	b.n	100023ec <_vsnprintf+0x98>
1000249a:	46a1      	mov	r9, r4
1000249c:	46aa      	mov	sl, r5
1000249e:	002c      	movs	r4, r5
100024a0:	45d3      	cmp	fp, sl
100024a2:	d803      	bhi.n	100024ac <_vsnprintf+0x158>
100024a4:	2301      	movs	r3, #1
100024a6:	425b      	negs	r3, r3
100024a8:	445b      	add	r3, fp
100024aa:	469a      	mov	sl, r3
100024ac:	465b      	mov	r3, fp
100024ae:	4652      	mov	r2, sl
100024b0:	4649      	mov	r1, r9
100024b2:	2000      	movs	r0, #0
100024b4:	9d08      	ldr	r5, [sp, #32]
100024b6:	47a8      	blx	r5
100024b8:	0020      	movs	r0, r4
100024ba:	b01f      	add	sp, #124	; 0x7c
100024bc:	bc3c      	pop	{r2, r3, r4, r5}
100024be:	4690      	mov	r8, r2
100024c0:	4699      	mov	r9, r3
100024c2:	46a2      	mov	sl, r4
100024c4:	46ab      	mov	fp, r5
100024c6:	bdf0      	pop	{r4, r5, r6, r7, pc}
100024c8:	9b09      	ldr	r3, [sp, #36]	; 0x24
100024ca:	cb40      	ldmia	r3!, {r6}
100024cc:	960a      	str	r6, [sp, #40]	; 0x28
100024ce:	2e00      	cmp	r6, #0
100024d0:	db03      	blt.n	100024da <_vsnprintf+0x186>
100024d2:	7850      	ldrb	r0, [r2, #1]
100024d4:	9309      	str	r3, [sp, #36]	; 0x24
100024d6:	1c56      	adds	r6, r2, #1
100024d8:	e784      	b.n	100023e4 <_vsnprintf+0x90>
100024da:	3828      	subs	r0, #40	; 0x28
100024dc:	4301      	orrs	r1, r0
100024de:	4270      	negs	r0, r6
100024e0:	900a      	str	r0, [sp, #40]	; 0x28
100024e2:	9309      	str	r3, [sp, #36]	; 0x24
100024e4:	7850      	ldrb	r0, [r2, #1]
100024e6:	1c56      	adds	r6, r2, #1
100024e8:	e77c      	b.n	100023e4 <_vsnprintf+0x90>
100024ea:	2878      	cmp	r0, #120	; 0x78
100024ec:	d100      	bne.n	100024f0 <_vsnprintf+0x19c>
100024ee:	e1d4      	b.n	1000289a <_vsnprintf+0x546>
100024f0:	2858      	cmp	r0, #88	; 0x58
100024f2:	d100      	bne.n	100024f6 <_vsnprintf+0x1a2>
100024f4:	e268      	b.n	100029c8 <_vsnprintf+0x674>
100024f6:	286f      	cmp	r0, #111	; 0x6f
100024f8:	d100      	bne.n	100024fc <_vsnprintf+0x1a8>
100024fa:	e352      	b.n	10002ba2 <_vsnprintf+0x84e>
100024fc:	2862      	cmp	r0, #98	; 0x62
100024fe:	d100      	bne.n	10002502 <_vsnprintf+0x1ae>
10002500:	e1d8      	b.n	100028b4 <_vsnprintf+0x560>
10002502:	2310      	movs	r3, #16
10002504:	000a      	movs	r2, r1
10002506:	439a      	bics	r2, r3
10002508:	920b      	str	r2, [sp, #44]	; 0x2c
1000250a:	2869      	cmp	r0, #105	; 0x69
1000250c:	d001      	beq.n	10002512 <_vsnprintf+0x1be>
1000250e:	f000 fca2 	bl	10002e56 <_vsnprintf+0xb02>
10002512:	230a      	movs	r3, #10
10002514:	930c      	str	r3, [sp, #48]	; 0x30
10002516:	054b      	lsls	r3, r1, #21
10002518:	d400      	bmi.n	1000251c <_vsnprintf+0x1c8>
1000251a:	e1d5      	b.n	100028c8 <_vsnprintf+0x574>
1000251c:	2301      	movs	r3, #1
1000251e:	9a0b      	ldr	r2, [sp, #44]	; 0x2c
10002520:	439a      	bics	r2, r3
10002522:	920b      	str	r2, [sp, #44]	; 0x2c
10002524:	2869      	cmp	r0, #105	; 0x69
10002526:	d100      	bne.n	1000252a <_vsnprintf+0x1d6>
10002528:	e1ce      	b.n	100028c8 <_vsnprintf+0x574>
1000252a:	2864      	cmp	r0, #100	; 0x64
1000252c:	d100      	bne.n	10002530 <_vsnprintf+0x1dc>
1000252e:	e1cb      	b.n	100028c8 <_vsnprintf+0x574>
10002530:	9a0b      	ldr	r2, [sp, #44]	; 0x2c
10002532:	2380      	movs	r3, #128	; 0x80
10002534:	0011      	movs	r1, r2
10002536:	009b      	lsls	r3, r3, #2
10002538:	4019      	ands	r1, r3
1000253a:	468a      	mov	sl, r1
1000253c:	421a      	tst	r2, r3
1000253e:	d000      	beq.n	10002542 <_vsnprintf+0x1ee>
10002540:	e332      	b.n	10002ba8 <_vsnprintf+0x854>
10002542:	2380      	movs	r3, #128	; 0x80
10002544:	0011      	movs	r1, r2
10002546:	005b      	lsls	r3, r3, #1
10002548:	4019      	ands	r1, r3
1000254a:	4689      	mov	r9, r1
1000254c:	421a      	tst	r2, r3
1000254e:	d001      	beq.n	10002554 <_vsnprintf+0x200>
10002550:	f000 fc02 	bl	10002d58 <_vsnprintf+0xa04>
10002554:	0013      	movs	r3, r2
10002556:	065b      	lsls	r3, r3, #25
10002558:	d500      	bpl.n	1000255c <_vsnprintf+0x208>
1000255a:	e310      	b.n	10002b7e <_vsnprintf+0x82a>
1000255c:	9b0b      	ldr	r3, [sp, #44]	; 0x2c
1000255e:	061b      	lsls	r3, r3, #24
10002560:	d401      	bmi.n	10002566 <_vsnprintf+0x212>
10002562:	f000 fc6e 	bl	10002e42 <_vsnprintf+0xaee>
10002566:	9b09      	ldr	r3, [sp, #36]	; 0x24
10002568:	cb04      	ldmia	r3!, {r2}
1000256a:	0412      	lsls	r2, r2, #16
1000256c:	0c12      	lsrs	r2, r2, #16
1000256e:	4692      	mov	sl, r2
10002570:	9309      	str	r3, [sp, #36]	; 0x24
10002572:	4653      	mov	r3, sl
10002574:	2b00      	cmp	r3, #0
10002576:	d000      	beq.n	1000257a <_vsnprintf+0x226>
10002578:	e364      	b.n	10002c44 <_vsnprintf+0x8f0>
1000257a:	9a0b      	ldr	r2, [sp, #44]	; 0x2c
1000257c:	3310      	adds	r3, #16
1000257e:	0011      	movs	r1, r2
10002580:	4399      	bics	r1, r3
10002582:	910b      	str	r1, [sp, #44]	; 0x2c
10002584:	0552      	lsls	r2, r2, #21
10002586:	d400      	bmi.n	1000258a <_vsnprintf+0x236>
10002588:	e35c      	b.n	10002c44 <_vsnprintf+0x8f0>
1000258a:	2300      	movs	r3, #0
1000258c:	4699      	mov	r9, r3
1000258e:	9b0b      	ldr	r3, [sp, #44]	; 0x2c
10002590:	9306      	str	r3, [sp, #24]
10002592:	9b0a      	ldr	r3, [sp, #40]	; 0x28
10002594:	9305      	str	r3, [sp, #20]
10002596:	4643      	mov	r3, r8
10002598:	9304      	str	r3, [sp, #16]
1000259a:	9b0c      	ldr	r3, [sp, #48]	; 0x30
1000259c:	9303      	str	r3, [sp, #12]
1000259e:	2300      	movs	r3, #0
100025a0:	e2de      	b.n	10002b60 <_vsnprintf+0x80c>
100025a2:	7870      	ldrb	r0, [r6, #1]
100025a4:	2868      	cmp	r0, #104	; 0x68
100025a6:	d100      	bne.n	100025aa <_vsnprintf+0x256>
100025a8:	e207      	b.n	100029ba <_vsnprintf+0x666>
100025aa:	2380      	movs	r3, #128	; 0x80
100025ac:	3601      	adds	r6, #1
100025ae:	4319      	orrs	r1, r3
100025b0:	e741      	b.n	10002436 <_vsnprintf+0xe2>
100025b2:	2380      	movs	r3, #128	; 0x80
100025b4:	009b      	lsls	r3, r3, #2
100025b6:	7870      	ldrb	r0, [r6, #1]
100025b8:	4319      	orrs	r1, r3
100025ba:	3601      	adds	r6, #1
100025bc:	e73b      	b.n	10002436 <_vsnprintf+0xe2>
100025be:	2846      	cmp	r0, #70	; 0x46
100025c0:	d100      	bne.n	100025c4 <_vsnprintf+0x270>
100025c2:	e174      	b.n	100028ae <_vsnprintf+0x55a>
100025c4:	2207      	movs	r2, #7
100025c6:	9b09      	ldr	r3, [sp, #36]	; 0x24
100025c8:	9104      	str	r1, [sp, #16]
100025ca:	3307      	adds	r3, #7
100025cc:	4393      	bics	r3, r2
100025ce:	9a0a      	ldr	r2, [sp, #40]	; 0x28
100025d0:	0019      	movs	r1, r3
100025d2:	9203      	str	r2, [sp, #12]
100025d4:	4642      	mov	r2, r8
100025d6:	9202      	str	r2, [sp, #8]
100025d8:	c90c      	ldmia	r1!, {r2, r3}
100025da:	9808      	ldr	r0, [sp, #32]
100025dc:	9200      	str	r2, [sp, #0]
100025de:	9301      	str	r3, [sp, #4]
100025e0:	9109      	str	r1, [sp, #36]	; 0x24
100025e2:	002a      	movs	r2, r5
100025e4:	465b      	mov	r3, fp
100025e6:	0021      	movs	r1, r4
100025e8:	f7ff fcc4 	bl	10001f74 <_ftoa>
100025ec:	3601      	adds	r6, #1
100025ee:	0005      	movs	r5, r0
100025f0:	e6d5      	b.n	1000239e <_vsnprintf+0x4a>
100025f2:	9b09      	ldr	r3, [sp, #36]	; 0x24
100025f4:	001a      	movs	r2, r3
100025f6:	ca08      	ldmia	r2!, {r3}
100025f8:	4691      	mov	r9, r2
100025fa:	2b00      	cmp	r3, #0
100025fc:	d100      	bne.n	10002600 <_vsnprintf+0x2ac>
100025fe:	e105      	b.n	1000280c <_vsnprintf+0x4b8>
10002600:	2221      	movs	r2, #33	; 0x21
10002602:	4311      	orrs	r1, r2
10002604:	468a      	mov	sl, r1
10002606:	a80e      	add	r0, sp, #56	; 0x38
10002608:	4684      	mov	ip, r0
1000260a:	211f      	movs	r1, #31
1000260c:	4461      	add	r1, ip
1000260e:	9509      	str	r5, [sp, #36]	; 0x24
10002610:	2200      	movs	r2, #0
10002612:	270f      	movs	r7, #15
10002614:	46a4      	mov	ip, r4
10002616:	000d      	movs	r5, r1
10002618:	e002      	b.n	10002620 <_vsnprintf+0x2cc>
1000261a:	2a20      	cmp	r2, #32
1000261c:	d00c      	beq.n	10002638 <_vsnprintf+0x2e4>
1000261e:	000b      	movs	r3, r1
10002620:	003c      	movs	r4, r7
10002622:	401c      	ands	r4, r3
10002624:	0020      	movs	r0, r4
10002626:	3037      	adds	r0, #55	; 0x37
10002628:	2c09      	cmp	r4, #9
1000262a:	d800      	bhi.n	1000262e <_vsnprintf+0x2da>
1000262c:	3807      	subs	r0, #7
1000262e:	3201      	adds	r2, #1
10002630:	54a8      	strb	r0, [r5, r2]
10002632:	0919      	lsrs	r1, r3, #4
10002634:	2b0f      	cmp	r3, #15
10002636:	d8f0      	bhi.n	1000261a <_vsnprintf+0x2c6>
10002638:	4664      	mov	r4, ip
1000263a:	9d09      	ldr	r5, [sp, #36]	; 0x24
1000263c:	e0f0      	b.n	10002820 <_vsnprintf+0x4cc>
1000263e:	078b      	lsls	r3, r1, #30
10002640:	d400      	bmi.n	10002644 <_vsnprintf+0x2f0>
10002642:	e1d1      	b.n	100029e8 <_vsnprintf+0x694>
10002644:	9b09      	ldr	r3, [sp, #36]	; 0x24
10002646:	002a      	movs	r2, r5
10002648:	4699      	mov	r9, r3
1000264a:	1c6b      	adds	r3, r5, #1
1000264c:	4698      	mov	r8, r3
1000264e:	464b      	mov	r3, r9
10002650:	cb01      	ldmia	r3!, {r0}
10002652:	0021      	movs	r1, r4
10002654:	4699      	mov	r9, r3
10002656:	9f08      	ldr	r7, [sp, #32]
10002658:	465b      	mov	r3, fp
1000265a:	b2c0      	uxtb	r0, r0
1000265c:	47b8      	blx	r7
1000265e:	9b0a      	ldr	r3, [sp, #40]	; 0x28
10002660:	469c      	mov	ip, r3
10002662:	4465      	add	r5, ip
10002664:	2b01      	cmp	r3, #1
10002666:	d800      	bhi.n	1000266a <_vsnprintf+0x316>
10002668:	e290      	b.n	10002b8c <_vsnprintf+0x838>
1000266a:	46b2      	mov	sl, r6
1000266c:	465e      	mov	r6, fp
1000266e:	4647      	mov	r7, r8
10002670:	46a8      	mov	r8, r5
10002672:	9d08      	ldr	r5, [sp, #32]
10002674:	003a      	movs	r2, r7
10002676:	0033      	movs	r3, r6
10002678:	3701      	adds	r7, #1
1000267a:	0021      	movs	r1, r4
1000267c:	2020      	movs	r0, #32
1000267e:	47a8      	blx	r5
10002680:	4547      	cmp	r7, r8
10002682:	d1f7      	bne.n	10002674 <_vsnprintf+0x320>
10002684:	46b3      	mov	fp, r6
10002686:	464b      	mov	r3, r9
10002688:	4656      	mov	r6, sl
1000268a:	003d      	movs	r5, r7
1000268c:	9309      	str	r3, [sp, #36]	; 0x24
1000268e:	3601      	adds	r6, #1
10002690:	e685      	b.n	1000239e <_vsnprintf+0x4a>
10002692:	002a      	movs	r2, r5
10002694:	1c6f      	adds	r7, r5, #1
10002696:	465b      	mov	r3, fp
10002698:	9d08      	ldr	r5, [sp, #32]
1000269a:	0021      	movs	r1, r4
1000269c:	2025      	movs	r0, #37	; 0x25
1000269e:	47a8      	blx	r5
100026a0:	3601      	adds	r6, #1
100026a2:	003d      	movs	r5, r7
100026a4:	e67b      	b.n	1000239e <_vsnprintf+0x4a>
100026a6:	46c0      	nop			; (mov r8, r8)
100026a8:	10002355 	.word	0x10002355
100026ac:	20000b0c 	.word	0x20000b0c
100026b0:	10004ca0 	.word	0x10004ca0
100026b4:	10004ce4 	.word	0x10004ce4
100026b8:	10004d30 	.word	0x10004d30
100026bc:	9b09      	ldr	r3, [sp, #36]	; 0x24
100026be:	cb04      	ldmia	r3!, {r2}
100026c0:	4699      	mov	r9, r3
100026c2:	4643      	mov	r3, r8
100026c4:	9209      	str	r2, [sp, #36]	; 0x24
100026c6:	2b00      	cmp	r3, #0
100026c8:	d000      	beq.n	100026cc <_vsnprintf+0x378>
100026ca:	e097      	b.n	100027fc <_vsnprintf+0x4a8>
100026cc:	7813      	ldrb	r3, [r2, #0]
100026ce:	469c      	mov	ip, r3
100026d0:	2b00      	cmp	r3, #0
100026d2:	d100      	bne.n	100026d6 <_vsnprintf+0x382>
100026d4:	e3b3      	b.n	10002e3e <_vsnprintf+0xaea>
100026d6:	2302      	movs	r3, #2
100026d8:	425b      	negs	r3, r3
100026da:	1c5a      	adds	r2, r3, #1
100026dc:	9b09      	ldr	r3, [sp, #36]	; 0x24
100026de:	4692      	mov	sl, r2
100026e0:	0018      	movs	r0, r3
100026e2:	9f0a      	ldr	r7, [sp, #40]	; 0x28
100026e4:	920b      	str	r2, [sp, #44]	; 0x2c
100026e6:	4450      	add	r0, sl
100026e8:	e002      	b.n	100026f0 <_vsnprintf+0x39c>
100026ea:	4283      	cmp	r3, r0
100026ec:	d100      	bne.n	100026f0 <_vsnprintf+0x39c>
100026ee:	e169      	b.n	100029c4 <_vsnprintf+0x670>
100026f0:	785a      	ldrb	r2, [r3, #1]
100026f2:	3301      	adds	r3, #1
100026f4:	2a00      	cmp	r2, #0
100026f6:	d1f8      	bne.n	100026ea <_vsnprintf+0x396>
100026f8:	9a09      	ldr	r2, [sp, #36]	; 0x24
100026fa:	970a      	str	r7, [sp, #40]	; 0x28
100026fc:	1a9b      	subs	r3, r3, r2
100026fe:	930b      	str	r3, [sp, #44]	; 0x2c
10002700:	2380      	movs	r3, #128	; 0x80
10002702:	000a      	movs	r2, r1
10002704:	00db      	lsls	r3, r3, #3
10002706:	401a      	ands	r2, r3
10002708:	920c      	str	r2, [sp, #48]	; 0x30
1000270a:	4219      	tst	r1, r3
1000270c:	d004      	beq.n	10002718 <_vsnprintf+0x3c4>
1000270e:	9b0b      	ldr	r3, [sp, #44]	; 0x2c
10002710:	4543      	cmp	r3, r8
10002712:	d901      	bls.n	10002718 <_vsnprintf+0x3c4>
10002714:	4643      	mov	r3, r8
10002716:	930b      	str	r3, [sp, #44]	; 0x2c
10002718:	2302      	movs	r3, #2
1000271a:	001a      	movs	r2, r3
1000271c:	400a      	ands	r2, r1
1000271e:	920d      	str	r2, [sp, #52]	; 0x34
10002720:	420b      	tst	r3, r1
10002722:	d100      	bne.n	10002726 <_vsnprintf+0x3d2>
10002724:	e184      	b.n	10002a30 <_vsnprintf+0x6dc>
10002726:	4660      	mov	r0, ip
10002728:	2800      	cmp	r0, #0
1000272a:	d023      	beq.n	10002774 <_vsnprintf+0x420>
1000272c:	9b0c      	ldr	r3, [sp, #48]	; 0x30
1000272e:	2b00      	cmp	r3, #0
10002730:	d100      	bne.n	10002734 <_vsnprintf+0x3e0>
10002732:	e124      	b.n	1000297e <_vsnprintf+0x62a>
10002734:	44a8      	add	r8, r5
10002736:	46c2      	mov	sl, r8
10002738:	9b09      	ldr	r3, [sp, #36]	; 0x24
1000273a:	4657      	mov	r7, sl
1000273c:	1b5b      	subs	r3, r3, r5
1000273e:	4698      	mov	r8, r3
10002740:	9b08      	ldr	r3, [sp, #32]
10002742:	46b2      	mov	sl, r6
10002744:	002a      	movs	r2, r5
10002746:	0026      	movs	r6, r4
10002748:	465c      	mov	r4, fp
1000274a:	469b      	mov	fp, r3
1000274c:	e009      	b.n	10002762 <_vsnprintf+0x40e>
1000274e:	0023      	movs	r3, r4
10002750:	0031      	movs	r1, r6
10002752:	1c55      	adds	r5, r2, #1
10002754:	47d8      	blx	fp
10002756:	4643      	mov	r3, r8
10002758:	5d58      	ldrb	r0, [r3, r5]
1000275a:	2800      	cmp	r0, #0
1000275c:	d100      	bne.n	10002760 <_vsnprintf+0x40c>
1000275e:	e13f      	b.n	100029e0 <_vsnprintf+0x68c>
10002760:	002a      	movs	r2, r5
10002762:	4297      	cmp	r7, r2
10002764:	d1f3      	bne.n	1000274e <_vsnprintf+0x3fa>
10002766:	46a3      	mov	fp, r4
10002768:	003d      	movs	r5, r7
1000276a:	0034      	movs	r4, r6
1000276c:	4656      	mov	r6, sl
1000276e:	9b0d      	ldr	r3, [sp, #52]	; 0x34
10002770:	2b00      	cmp	r3, #0
10002772:	d069      	beq.n	10002848 <_vsnprintf+0x4f4>
10002774:	9b0b      	ldr	r3, [sp, #44]	; 0x2c
10002776:	990a      	ldr	r1, [sp, #40]	; 0x28
10002778:	46a8      	mov	r8, r5
1000277a:	4299      	cmp	r1, r3
1000277c:	d964      	bls.n	10002848 <_vsnprintf+0x4f4>
1000277e:	468c      	mov	ip, r1
10002780:	4465      	add	r5, ip
10002782:	1aed      	subs	r5, r5, r3
10002784:	9b08      	ldr	r3, [sp, #32]
10002786:	4647      	mov	r7, r8
10002788:	469a      	mov	sl, r3
1000278a:	46b0      	mov	r8, r6
1000278c:	0026      	movs	r6, r4
1000278e:	465c      	mov	r4, fp
10002790:	003a      	movs	r2, r7
10002792:	0023      	movs	r3, r4
10002794:	3701      	adds	r7, #1
10002796:	0031      	movs	r1, r6
10002798:	2020      	movs	r0, #32
1000279a:	47d0      	blx	sl
1000279c:	42af      	cmp	r7, r5
1000279e:	d1f7      	bne.n	10002790 <_vsnprintf+0x43c>
100027a0:	46a3      	mov	fp, r4
100027a2:	0034      	movs	r4, r6
100027a4:	4646      	mov	r6, r8
100027a6:	e04f      	b.n	10002848 <_vsnprintf+0x4f4>
100027a8:	4bd2      	ldr	r3, [pc, #840]	; (10002af4 <_vsnprintf+0x7a0>)
100027aa:	7820      	ldrb	r0, [r4, #0]
100027ac:	9308      	str	r3, [sp, #32]
100027ae:	2300      	movs	r3, #0
100027b0:	469a      	mov	sl, r3
100027b2:	2800      	cmp	r0, #0
100027b4:	d000      	beq.n	100027b8 <_vsnprintf+0x464>
100027b6:	e5e6      	b.n	10002386 <_vsnprintf+0x32>
100027b8:	2400      	movs	r4, #0
100027ba:	e671      	b.n	100024a0 <_vsnprintf+0x14c>
100027bc:	4643      	mov	r3, r8
100027be:	0006      	movs	r6, r0
100027c0:	9f0a      	ldr	r7, [sp, #40]	; 0x28
100027c2:	0098      	lsls	r0, r3, #2
100027c4:	18c0      	adds	r0, r0, r3
100027c6:	3201      	adds	r2, #1
100027c8:	0040      	lsls	r0, r0, #1
100027ca:	1980      	adds	r0, r0, r6
100027cc:	7816      	ldrb	r6, [r2, #0]
100027ce:	0003      	movs	r3, r0
100027d0:	0030      	movs	r0, r6
100027d2:	3830      	subs	r0, #48	; 0x30
100027d4:	3b30      	subs	r3, #48	; 0x30
100027d6:	2809      	cmp	r0, #9
100027d8:	d9f3      	bls.n	100027c2 <_vsnprintf+0x46e>
100027da:	0030      	movs	r0, r6
100027dc:	4698      	mov	r8, r3
100027de:	0016      	movs	r6, r2
100027e0:	970a      	str	r7, [sp, #40]	; 0x28
100027e2:	e603      	b.n	100023ec <_vsnprintf+0x98>
100027e4:	9b09      	ldr	r3, [sp, #36]	; 0x24
100027e6:	3602      	adds	r6, #2
100027e8:	cb04      	ldmia	r3!, {r2}
100027ea:	4690      	mov	r8, r2
100027ec:	43d2      	mvns	r2, r2
100027ee:	4640      	mov	r0, r8
100027f0:	17d2      	asrs	r2, r2, #31
100027f2:	4010      	ands	r0, r2
100027f4:	4680      	mov	r8, r0
100027f6:	9309      	str	r3, [sp, #36]	; 0x24
100027f8:	7830      	ldrb	r0, [r6, #0]
100027fa:	e5f7      	b.n	100023ec <_vsnprintf+0x98>
100027fc:	7813      	ldrb	r3, [r2, #0]
100027fe:	469c      	mov	ip, r3
10002800:	2b00      	cmp	r3, #0
10002802:	d100      	bne.n	10002806 <_vsnprintf+0x4b2>
10002804:	e31a      	b.n	10002e3c <_vsnprintf+0xae8>
10002806:	4643      	mov	r3, r8
10002808:	3b01      	subs	r3, #1
1000280a:	e766      	b.n	100026da <_vsnprintf+0x386>
1000280c:	2210      	movs	r2, #16
1000280e:	0008      	movs	r0, r1
10002810:	4390      	bics	r0, r2
10002812:	3211      	adds	r2, #17
10002814:	4310      	orrs	r0, r2
10002816:	4682      	mov	sl, r0
10002818:	2200      	movs	r2, #0
1000281a:	0549      	lsls	r1, r1, #21
1000281c:	d400      	bmi.n	10002820 <_vsnprintf+0x4cc>
1000281e:	e6f2      	b.n	10002606 <_vsnprintf+0x2b2>
10002820:	4653      	mov	r3, sl
10002822:	9306      	str	r3, [sp, #24]
10002824:	2308      	movs	r3, #8
10002826:	9305      	str	r3, [sp, #20]
10002828:	4643      	mov	r3, r8
1000282a:	9304      	str	r3, [sp, #16]
1000282c:	2310      	movs	r3, #16
1000282e:	9303      	str	r3, [sp, #12]
10002830:	2300      	movs	r3, #0
10002832:	9302      	str	r3, [sp, #8]
10002834:	ab16      	add	r3, sp, #88	; 0x58
10002836:	9201      	str	r2, [sp, #4]
10002838:	9300      	str	r3, [sp, #0]
1000283a:	002a      	movs	r2, r5
1000283c:	465b      	mov	r3, fp
1000283e:	0021      	movs	r1, r4
10002840:	9808      	ldr	r0, [sp, #32]
10002842:	f7ff f879 	bl	10001938 <_ntoa_format>
10002846:	0005      	movs	r5, r0
10002848:	464b      	mov	r3, r9
1000284a:	3601      	adds	r6, #1
1000284c:	9309      	str	r3, [sp, #36]	; 0x24
1000284e:	e5a6      	b.n	1000239e <_vsnprintf+0x4a>
10002850:	2320      	movs	r3, #32
10002852:	0002      	movs	r2, r0
10002854:	439a      	bics	r2, r3
10002856:	2a47      	cmp	r2, #71	; 0x47
10002858:	d104      	bne.n	10002864 <_vsnprintf+0x510>
1000285a:	2380      	movs	r3, #128	; 0x80
1000285c:	011b      	lsls	r3, r3, #4
1000285e:	4319      	orrs	r1, r3
10002860:	2302      	movs	r3, #2
10002862:	4398      	bics	r0, r3
10002864:	2845      	cmp	r0, #69	; 0x45
10002866:	d101      	bne.n	1000286c <_vsnprintf+0x518>
10002868:	2320      	movs	r3, #32
1000286a:	4319      	orrs	r1, r3
1000286c:	2207      	movs	r2, #7
1000286e:	9b09      	ldr	r3, [sp, #36]	; 0x24
10002870:	9104      	str	r1, [sp, #16]
10002872:	3307      	adds	r3, #7
10002874:	4393      	bics	r3, r2
10002876:	9a0a      	ldr	r2, [sp, #40]	; 0x28
10002878:	0019      	movs	r1, r3
1000287a:	9203      	str	r2, [sp, #12]
1000287c:	4642      	mov	r2, r8
1000287e:	9202      	str	r2, [sp, #8]
10002880:	c90c      	ldmia	r1!, {r2, r3}
10002882:	9808      	ldr	r0, [sp, #32]
10002884:	9200      	str	r2, [sp, #0]
10002886:	9301      	str	r3, [sp, #4]
10002888:	9109      	str	r1, [sp, #36]	; 0x24
1000288a:	002a      	movs	r2, r5
1000288c:	465b      	mov	r3, fp
1000288e:	0021      	movs	r1, r4
10002890:	f7ff f94a 	bl	10001b28 <_etoa>
10002894:	3601      	adds	r6, #1
10002896:	0005      	movs	r5, r0
10002898:	e581      	b.n	1000239e <_vsnprintf+0x4a>
1000289a:	2310      	movs	r3, #16
1000289c:	930c      	str	r3, [sp, #48]	; 0x30
1000289e:	230c      	movs	r3, #12
100028a0:	000a      	movs	r2, r1
100028a2:	439a      	bics	r2, r3
100028a4:	920b      	str	r2, [sp, #44]	; 0x2c
100028a6:	054b      	lsls	r3, r1, #21
100028a8:	d400      	bmi.n	100028ac <_vsnprintf+0x558>
100028aa:	e63b      	b.n	10002524 <_vsnprintf+0x1d0>
100028ac:	e636      	b.n	1000251c <_vsnprintf+0x1c8>
100028ae:	2320      	movs	r3, #32
100028b0:	4319      	orrs	r1, r3
100028b2:	e687      	b.n	100025c4 <_vsnprintf+0x270>
100028b4:	2302      	movs	r3, #2
100028b6:	930c      	str	r3, [sp, #48]	; 0x30
100028b8:	910b      	str	r1, [sp, #44]	; 0x2c
100028ba:	990b      	ldr	r1, [sp, #44]	; 0x2c
100028bc:	2864      	cmp	r0, #100	; 0x64
100028be:	d1ee      	bne.n	1000289e <_vsnprintf+0x54a>
100028c0:	9b0b      	ldr	r3, [sp, #44]	; 0x2c
100028c2:	055b      	lsls	r3, r3, #21
100028c4:	d500      	bpl.n	100028c8 <_vsnprintf+0x574>
100028c6:	e629      	b.n	1000251c <_vsnprintf+0x1c8>
100028c8:	9a0b      	ldr	r2, [sp, #44]	; 0x2c
100028ca:	2380      	movs	r3, #128	; 0x80
100028cc:	0011      	movs	r1, r2
100028ce:	009b      	lsls	r3, r3, #2
100028d0:	4019      	ands	r1, r3
100028d2:	468a      	mov	sl, r1
100028d4:	421a      	tst	r2, r3
100028d6:	d000      	beq.n	100028da <_vsnprintf+0x586>
100028d8:	e0ce      	b.n	10002a78 <_vsnprintf+0x724>
100028da:	2380      	movs	r3, #128	; 0x80
100028dc:	0011      	movs	r1, r2
100028de:	005b      	lsls	r3, r3, #1
100028e0:	4019      	ands	r1, r3
100028e2:	4689      	mov	r9, r1
100028e4:	421a      	tst	r2, r3
100028e6:	d000      	beq.n	100028ea <_vsnprintf+0x596>
100028e8:	e1db      	b.n	10002ca2 <_vsnprintf+0x94e>
100028ea:	0013      	movs	r3, r2
100028ec:	065b      	lsls	r3, r3, #25
100028ee:	d500      	bpl.n	100028f2 <_vsnprintf+0x59e>
100028f0:	e11d      	b.n	10002b2e <_vsnprintf+0x7da>
100028f2:	9b0b      	ldr	r3, [sp, #44]	; 0x2c
100028f4:	9909      	ldr	r1, [sp, #36]	; 0x24
100028f6:	061b      	lsls	r3, r3, #24
100028f8:	d400      	bmi.n	100028fc <_vsnprintf+0x5a8>
100028fa:	e299      	b.n	10002e30 <_vsnprintf+0xadc>
100028fc:	c908      	ldmia	r1!, {r3}
100028fe:	b21b      	sxth	r3, r3
10002900:	17d8      	asrs	r0, r3, #31
10002902:	181a      	adds	r2, r3, r0
10002904:	4042      	eors	r2, r0
10002906:	b292      	uxth	r2, r2
10002908:	9109      	str	r1, [sp, #36]	; 0x24
1000290a:	4692      	mov	sl, r2
1000290c:	0fda      	lsrs	r2, r3, #31
1000290e:	9212      	str	r2, [sp, #72]	; 0x48
10002910:	2b00      	cmp	r3, #0
10002912:	d109      	bne.n	10002928 <_vsnprintf+0x5d4>
10002914:	2380      	movs	r3, #128	; 0x80
10002916:	2210      	movs	r2, #16
10002918:	990b      	ldr	r1, [sp, #44]	; 0x2c
1000291a:	00db      	lsls	r3, r3, #3
1000291c:	400b      	ands	r3, r1
1000291e:	4391      	bics	r1, r2
10002920:	910b      	str	r1, [sp, #44]	; 0x2c
10002922:	2b00      	cmp	r3, #0
10002924:	d000      	beq.n	10002928 <_vsnprintf+0x5d4>
10002926:	e112      	b.n	10002b4e <_vsnprintf+0x7fa>
10002928:	9a0b      	ldr	r2, [sp, #44]	; 0x2c
1000292a:	2361      	movs	r3, #97	; 0x61
1000292c:	0692      	lsls	r2, r2, #26
1000292e:	d500      	bpl.n	10002932 <_vsnprintf+0x5de>
10002930:	2341      	movs	r3, #65	; 0x41
10002932:	a90e      	add	r1, sp, #56	; 0x38
10002934:	221f      	movs	r2, #31
10002936:	468c      	mov	ip, r1
10002938:	b2db      	uxtb	r3, r3
1000293a:	4462      	add	r2, ip
1000293c:	3b0a      	subs	r3, #10
1000293e:	4657      	mov	r7, sl
10002940:	9513      	str	r5, [sp, #76]	; 0x4c
10002942:	46a2      	mov	sl, r4
10002944:	464d      	mov	r5, r9
10002946:	9c0c      	ldr	r4, [sp, #48]	; 0x30
10002948:	46b1      	mov	r9, r6
1000294a:	930d      	str	r3, [sp, #52]	; 0x34
1000294c:	0016      	movs	r6, r2
1000294e:	e00a      	b.n	10002966 <_vsnprintf+0x612>
10002950:	3330      	adds	r3, #48	; 0x30
10002952:	b2db      	uxtb	r3, r3
10002954:	3501      	adds	r5, #1
10002956:	5573      	strb	r3, [r6, r5]
10002958:	42a7      	cmp	r7, r4
1000295a:	d200      	bcs.n	1000295e <_vsnprintf+0x60a>
1000295c:	e11c      	b.n	10002b98 <_vsnprintf+0x844>
1000295e:	2d20      	cmp	r5, #32
10002960:	d100      	bne.n	10002964 <_vsnprintf+0x610>
10002962:	e119      	b.n	10002b98 <_vsnprintf+0x844>
10002964:	0007      	movs	r7, r0
10002966:	0021      	movs	r1, r4
10002968:	0038      	movs	r0, r7
1000296a:	f000 fb01 	bl	10002f70 <__wrap___aeabi_uidiv>
1000296e:	b2cb      	uxtb	r3, r1
10002970:	2909      	cmp	r1, #9
10002972:	d9ed      	bls.n	10002950 <_vsnprintf+0x5fc>
10002974:	9a0d      	ldr	r2, [sp, #52]	; 0x34
10002976:	4694      	mov	ip, r2
10002978:	4463      	add	r3, ip
1000297a:	b2db      	uxtb	r3, r3
1000297c:	e7ea      	b.n	10002954 <_vsnprintf+0x600>
1000297e:	9b09      	ldr	r3, [sp, #36]	; 0x24
10002980:	465f      	mov	r7, fp
10002982:	1b5b      	subs	r3, r3, r5
10002984:	4698      	mov	r8, r3
10002986:	9b0a      	ldr	r3, [sp, #40]	; 0x28
10002988:	46b3      	mov	fp, r6
1000298a:	469a      	mov	sl, r3
1000298c:	0026      	movs	r6, r4
1000298e:	9c08      	ldr	r4, [sp, #32]
10002990:	002a      	movs	r2, r5
10002992:	003b      	movs	r3, r7
10002994:	0031      	movs	r1, r6
10002996:	47a0      	blx	r4
10002998:	4643      	mov	r3, r8
1000299a:	3501      	adds	r5, #1
1000299c:	5d58      	ldrb	r0, [r3, r5]
1000299e:	2800      	cmp	r0, #0
100029a0:	d1f6      	bne.n	10002990 <_vsnprintf+0x63c>
100029a2:	4653      	mov	r3, sl
100029a4:	0034      	movs	r4, r6
100029a6:	930a      	str	r3, [sp, #40]	; 0x28
100029a8:	465e      	mov	r6, fp
100029aa:	46bb      	mov	fp, r7
100029ac:	e6df      	b.n	1000276e <_vsnprintf+0x41a>
100029ae:	23c0      	movs	r3, #192	; 0xc0
100029b0:	009b      	lsls	r3, r3, #2
100029b2:	78b0      	ldrb	r0, [r6, #2]
100029b4:	4319      	orrs	r1, r3
100029b6:	3602      	adds	r6, #2
100029b8:	e53d      	b.n	10002436 <_vsnprintf+0xe2>
100029ba:	23c0      	movs	r3, #192	; 0xc0
100029bc:	78b0      	ldrb	r0, [r6, #2]
100029be:	4319      	orrs	r1, r3
100029c0:	3602      	adds	r6, #2
100029c2:	e538      	b.n	10002436 <_vsnprintf+0xe2>
100029c4:	970a      	str	r7, [sp, #40]	; 0x28
100029c6:	e69b      	b.n	10002700 <_vsnprintf+0x3ac>
100029c8:	230c      	movs	r3, #12
100029ca:	000a      	movs	r2, r1
100029cc:	439a      	bics	r2, r3
100029ce:	3314      	adds	r3, #20
100029d0:	431a      	orrs	r2, r3
100029d2:	2310      	movs	r3, #16
100029d4:	920b      	str	r2, [sp, #44]	; 0x2c
100029d6:	930c      	str	r3, [sp, #48]	; 0x30
100029d8:	054b      	lsls	r3, r1, #21
100029da:	d400      	bmi.n	100029de <_vsnprintf+0x68a>
100029dc:	e5a8      	b.n	10002530 <_vsnprintf+0x1dc>
100029de:	e59d      	b.n	1000251c <_vsnprintf+0x1c8>
100029e0:	46a3      	mov	fp, r4
100029e2:	0034      	movs	r4, r6
100029e4:	4656      	mov	r6, sl
100029e6:	e6c2      	b.n	1000276e <_vsnprintf+0x41a>
100029e8:	9a0a      	ldr	r2, [sp, #40]	; 0x28
100029ea:	2a01      	cmp	r2, #1
100029ec:	d800      	bhi.n	100029f0 <_vsnprintf+0x69c>
100029ee:	e22e      	b.n	10002e4e <_vsnprintf+0xafa>
100029f0:	1e6b      	subs	r3, r5, #1
100029f2:	189f      	adds	r7, r3, r2
100029f4:	9b08      	ldr	r3, [sp, #32]
100029f6:	46b0      	mov	r8, r6
100029f8:	4699      	mov	r9, r3
100029fa:	0026      	movs	r6, r4
100029fc:	465c      	mov	r4, fp
100029fe:	002a      	movs	r2, r5
10002a00:	0023      	movs	r3, r4
10002a02:	3501      	adds	r5, #1
10002a04:	0031      	movs	r1, r6
10002a06:	2020      	movs	r0, #32
10002a08:	47c8      	blx	r9
10002a0a:	42bd      	cmp	r5, r7
10002a0c:	d1f7      	bne.n	100029fe <_vsnprintf+0x6aa>
10002a0e:	46a3      	mov	fp, r4
10002a10:	0034      	movs	r4, r6
10002a12:	4646      	mov	r6, r8
10002a14:	9b09      	ldr	r3, [sp, #36]	; 0x24
10002a16:	003a      	movs	r2, r7
10002a18:	cb01      	ldmia	r3!, {r0}
10002a1a:	0021      	movs	r1, r4
10002a1c:	4698      	mov	r8, r3
10002a1e:	1c7d      	adds	r5, r7, #1
10002a20:	465b      	mov	r3, fp
10002a22:	9f08      	ldr	r7, [sp, #32]
10002a24:	b2c0      	uxtb	r0, r0
10002a26:	47b8      	blx	r7
10002a28:	4643      	mov	r3, r8
10002a2a:	3601      	adds	r6, #1
10002a2c:	9309      	str	r3, [sp, #36]	; 0x24
10002a2e:	e4b6      	b.n	1000239e <_vsnprintf+0x4a>
10002a30:	9a0b      	ldr	r2, [sp, #44]	; 0x2c
10002a32:	980a      	ldr	r0, [sp, #40]	; 0x28
10002a34:	1c53      	adds	r3, r2, #1
10002a36:	4290      	cmp	r0, r2
10002a38:	d800      	bhi.n	10002a3c <_vsnprintf+0x6e8>
10002a3a:	e20a      	b.n	10002e52 <_vsnprintf+0xafe>
10002a3c:	1943      	adds	r3, r0, r5
10002a3e:	1a9b      	subs	r3, r3, r2
10002a40:	001f      	movs	r7, r3
10002a42:	9b08      	ldr	r3, [sp, #32]
10002a44:	46b2      	mov	sl, r6
10002a46:	0026      	movs	r6, r4
10002a48:	465c      	mov	r4, fp
10002a4a:	469b      	mov	fp, r3
10002a4c:	002a      	movs	r2, r5
10002a4e:	0023      	movs	r3, r4
10002a50:	3501      	adds	r5, #1
10002a52:	0031      	movs	r1, r6
10002a54:	2020      	movs	r0, #32
10002a56:	47d8      	blx	fp
10002a58:	42bd      	cmp	r5, r7
10002a5a:	d1f7      	bne.n	10002a4c <_vsnprintf+0x6f8>
10002a5c:	9b0a      	ldr	r3, [sp, #40]	; 0x28
10002a5e:	46a3      	mov	fp, r4
10002a60:	3301      	adds	r3, #1
10002a62:	930b      	str	r3, [sp, #44]	; 0x2c
10002a64:	9b09      	ldr	r3, [sp, #36]	; 0x24
10002a66:	0034      	movs	r4, r6
10002a68:	781b      	ldrb	r3, [r3, #0]
10002a6a:	4656      	mov	r6, sl
10002a6c:	469c      	mov	ip, r3
10002a6e:	4660      	mov	r0, ip
10002a70:	2800      	cmp	r0, #0
10002a72:	d000      	beq.n	10002a76 <_vsnprintf+0x722>
10002a74:	e65a      	b.n	1000272c <_vsnprintf+0x3d8>
10002a76:	e6e7      	b.n	10002848 <_vsnprintf+0x4f4>
10002a78:	2207      	movs	r2, #7
10002a7a:	9b09      	ldr	r3, [sp, #36]	; 0x24
10002a7c:	3307      	adds	r3, #7
10002a7e:	4393      	bics	r3, r2
10002a80:	3201      	adds	r2, #1
10002a82:	4694      	mov	ip, r2
10002a84:	449c      	add	ip, r3
10002a86:	4662      	mov	r2, ip
10002a88:	685f      	ldr	r7, [r3, #4]
10002a8a:	9209      	str	r2, [sp, #36]	; 0x24
10002a8c:	681a      	ldr	r2, [r3, #0]
10002a8e:	17fb      	asrs	r3, r7, #31
10002a90:	9310      	str	r3, [sp, #64]	; 0x40
10002a92:	9311      	str	r3, [sp, #68]	; 0x44
10002a94:	9810      	ldr	r0, [sp, #64]	; 0x40
10002a96:	9911      	ldr	r1, [sp, #68]	; 0x44
10002a98:	0003      	movs	r3, r0
10002a9a:	4053      	eors	r3, r2
10002a9c:	930e      	str	r3, [sp, #56]	; 0x38
10002a9e:	000b      	movs	r3, r1
10002aa0:	407b      	eors	r3, r7
10002aa2:	930f      	str	r3, [sp, #60]	; 0x3c
10002aa4:	4694      	mov	ip, r2
10002aa6:	9a0e      	ldr	r2, [sp, #56]	; 0x38
10002aa8:	9b0f      	ldr	r3, [sp, #60]	; 0x3c
10002aaa:	1a12      	subs	r2, r2, r0
10002aac:	418b      	sbcs	r3, r1
10002aae:	920e      	str	r2, [sp, #56]	; 0x38
10002ab0:	930f      	str	r3, [sp, #60]	; 0x3c
10002ab2:	0ffb      	lsrs	r3, r7, #31
10002ab4:	4662      	mov	r2, ip
10002ab6:	9312      	str	r3, [sp, #72]	; 0x48
10002ab8:	2300      	movs	r3, #0
10002aba:	433a      	orrs	r2, r7
10002abc:	469a      	mov	sl, r3
10002abe:	d03d      	beq.n	10002b3c <_vsnprintf+0x7e8>
10002ac0:	9a0b      	ldr	r2, [sp, #44]	; 0x2c
10002ac2:	2361      	movs	r3, #97	; 0x61
10002ac4:	0692      	lsls	r2, r2, #26
10002ac6:	d500      	bpl.n	10002aca <_vsnprintf+0x776>
10002ac8:	2341      	movs	r3, #65	; 0x41
10002aca:	2200      	movs	r2, #0
10002acc:	b2db      	uxtb	r3, r3
10002ace:	a90e      	add	r1, sp, #56	; 0x38
10002ad0:	3b0a      	subs	r3, #10
10002ad2:	468c      	mov	ip, r1
10002ad4:	4691      	mov	r9, r2
10002ad6:	930d      	str	r3, [sp, #52]	; 0x34
10002ad8:	4643      	mov	r3, r8
10002ada:	321f      	adds	r2, #31
10002adc:	4462      	add	r2, ip
10002ade:	9513      	str	r5, [sp, #76]	; 0x4c
10002ae0:	9615      	str	r6, [sp, #84]	; 0x54
10002ae2:	464d      	mov	r5, r9
10002ae4:	9e0e      	ldr	r6, [sp, #56]	; 0x38
10002ae6:	9f0f      	ldr	r7, [sp, #60]	; 0x3c
10002ae8:	46a1      	mov	r9, r4
10002aea:	4690      	mov	r8, r2
10002aec:	9c0c      	ldr	r4, [sp, #48]	; 0x30
10002aee:	9314      	str	r3, [sp, #80]	; 0x50
10002af0:	e00f      	b.n	10002b12 <_vsnprintf+0x7be>
10002af2:	46c0      	nop			; (mov r8, r8)
10002af4:	10001865 	.word	0x10001865
10002af8:	3230      	adds	r2, #48	; 0x30
10002afa:	b2d2      	uxtb	r2, r2
10002afc:	4643      	mov	r3, r8
10002afe:	3501      	adds	r5, #1
10002b00:	555a      	strb	r2, [r3, r5]
10002b02:	45ba      	cmp	sl, r7
10002b04:	d100      	bne.n	10002b08 <_vsnprintf+0x7b4>
10002b06:	e17c      	b.n	10002e02 <_vsnprintf+0xaae>
10002b08:	2d20      	cmp	r5, #32
10002b0a:	d100      	bne.n	10002b0e <_vsnprintf+0x7ba>
10002b0c:	e17c      	b.n	10002e08 <_vsnprintf+0xab4>
10002b0e:	0006      	movs	r6, r0
10002b10:	000f      	movs	r7, r1
10002b12:	0022      	movs	r2, r4
10002b14:	2300      	movs	r3, #0
10002b16:	0030      	movs	r0, r6
10002b18:	0039      	movs	r1, r7
10002b1a:	f000 fa6f 	bl	10002ffc <__wrap___aeabi_uldivmod>
10002b1e:	b2d2      	uxtb	r2, r2
10002b20:	2a09      	cmp	r2, #9
10002b22:	d9e9      	bls.n	10002af8 <_vsnprintf+0x7a4>
10002b24:	9b0d      	ldr	r3, [sp, #52]	; 0x34
10002b26:	469c      	mov	ip, r3
10002b28:	4462      	add	r2, ip
10002b2a:	b2d2      	uxtb	r2, r2
10002b2c:	e7e6      	b.n	10002afc <_vsnprintf+0x7a8>
10002b2e:	23ff      	movs	r3, #255	; 0xff
10002b30:	9909      	ldr	r1, [sp, #36]	; 0x24
10002b32:	c904      	ldmia	r1!, {r2}
10002b34:	4013      	ands	r3, r2
10002b36:	001a      	movs	r2, r3
10002b38:	9109      	str	r1, [sp, #36]	; 0x24
10002b3a:	e6e6      	b.n	1000290a <_vsnprintf+0x5b6>
10002b3c:	9a0b      	ldr	r2, [sp, #44]	; 0x2c
10002b3e:	3310      	adds	r3, #16
10002b40:	0011      	movs	r1, r2
10002b42:	4399      	bics	r1, r3
10002b44:	910b      	str	r1, [sp, #44]	; 0x2c
10002b46:	0552      	lsls	r2, r2, #21
10002b48:	d5ba      	bpl.n	10002ac0 <_vsnprintf+0x76c>
10002b4a:	2300      	movs	r3, #0
10002b4c:	4699      	mov	r9, r3
10002b4e:	9b0b      	ldr	r3, [sp, #44]	; 0x2c
10002b50:	9306      	str	r3, [sp, #24]
10002b52:	9b0a      	ldr	r3, [sp, #40]	; 0x28
10002b54:	9305      	str	r3, [sp, #20]
10002b56:	4643      	mov	r3, r8
10002b58:	9304      	str	r3, [sp, #16]
10002b5a:	9b0c      	ldr	r3, [sp, #48]	; 0x30
10002b5c:	9303      	str	r3, [sp, #12]
10002b5e:	9b12      	ldr	r3, [sp, #72]	; 0x48
10002b60:	9302      	str	r3, [sp, #8]
10002b62:	464b      	mov	r3, r9
10002b64:	9301      	str	r3, [sp, #4]
10002b66:	ab16      	add	r3, sp, #88	; 0x58
10002b68:	002a      	movs	r2, r5
10002b6a:	9300      	str	r3, [sp, #0]
10002b6c:	0021      	movs	r1, r4
10002b6e:	465b      	mov	r3, fp
10002b70:	9808      	ldr	r0, [sp, #32]
10002b72:	f7fe fee1 	bl	10001938 <_ntoa_format>
10002b76:	3601      	adds	r6, #1
10002b78:	0005      	movs	r5, r0
10002b7a:	f7ff fc10 	bl	1000239e <_vsnprintf+0x4a>
10002b7e:	22ff      	movs	r2, #255	; 0xff
10002b80:	9b09      	ldr	r3, [sp, #36]	; 0x24
10002b82:	cb02      	ldmia	r3!, {r1}
10002b84:	4011      	ands	r1, r2
10002b86:	468a      	mov	sl, r1
10002b88:	9309      	str	r3, [sp, #36]	; 0x24
10002b8a:	e4f2      	b.n	10002572 <_vsnprintf+0x21e>
10002b8c:	464b      	mov	r3, r9
10002b8e:	4645      	mov	r5, r8
10002b90:	9309      	str	r3, [sp, #36]	; 0x24
10002b92:	3601      	adds	r6, #1
10002b94:	f7ff fc03 	bl	1000239e <_vsnprintf+0x4a>
10002b98:	464e      	mov	r6, r9
10002b9a:	4654      	mov	r4, sl
10002b9c:	46a9      	mov	r9, r5
10002b9e:	9d13      	ldr	r5, [sp, #76]	; 0x4c
10002ba0:	e7d5      	b.n	10002b4e <_vsnprintf+0x7fa>
10002ba2:	2308      	movs	r3, #8
10002ba4:	930c      	str	r3, [sp, #48]	; 0x30
10002ba6:	e687      	b.n	100028b8 <_vsnprintf+0x564>
10002ba8:	2207      	movs	r2, #7
10002baa:	9b09      	ldr	r3, [sp, #36]	; 0x24
10002bac:	3307      	adds	r3, #7
10002bae:	4393      	bics	r3, r2
10002bb0:	3201      	adds	r2, #1
10002bb2:	4694      	mov	ip, r2
10002bb4:	449c      	add	ip, r3
10002bb6:	4662      	mov	r2, ip
10002bb8:	9209      	str	r2, [sp, #36]	; 0x24
10002bba:	681a      	ldr	r2, [r3, #0]
10002bbc:	685b      	ldr	r3, [r3, #4]
10002bbe:	0010      	movs	r0, r2
10002bc0:	469a      	mov	sl, r3
10002bc2:	0013      	movs	r3, r2
10002bc4:	4652      	mov	r2, sl
10002bc6:	4313      	orrs	r3, r2
10002bc8:	d107      	bne.n	10002bda <_vsnprintf+0x886>
10002bca:	9a0b      	ldr	r2, [sp, #44]	; 0x2c
10002bcc:	3310      	adds	r3, #16
10002bce:	0011      	movs	r1, r2
10002bd0:	4399      	bics	r1, r3
10002bd2:	910b      	str	r1, [sp, #44]	; 0x2c
10002bd4:	0552      	lsls	r2, r2, #21
10002bd6:	d500      	bpl.n	10002bda <_vsnprintf+0x886>
10002bd8:	e4d7      	b.n	1000258a <_vsnprintf+0x236>
10002bda:	9a0b      	ldr	r2, [sp, #44]	; 0x2c
10002bdc:	2361      	movs	r3, #97	; 0x61
10002bde:	0692      	lsls	r2, r2, #26
10002be0:	d500      	bpl.n	10002be4 <_vsnprintf+0x890>
10002be2:	2341      	movs	r3, #65	; 0x41
10002be4:	2200      	movs	r2, #0
10002be6:	b2db      	uxtb	r3, r3
10002be8:	a90e      	add	r1, sp, #56	; 0x38
10002bea:	3b0a      	subs	r3, #10
10002bec:	468c      	mov	ip, r1
10002bee:	4691      	mov	r9, r2
10002bf0:	930d      	str	r3, [sp, #52]	; 0x34
10002bf2:	4643      	mov	r3, r8
10002bf4:	321f      	adds	r2, #31
10002bf6:	4462      	add	r2, ip
10002bf8:	4657      	mov	r7, sl
10002bfa:	9512      	str	r5, [sp, #72]	; 0x48
10002bfc:	46a2      	mov	sl, r4
10002bfe:	464d      	mov	r5, r9
10002c00:	0004      	movs	r4, r0
10002c02:	46b1      	mov	r9, r6
10002c04:	4690      	mov	r8, r2
10002c06:	9e0c      	ldr	r6, [sp, #48]	; 0x30
10002c08:	9313      	str	r3, [sp, #76]	; 0x4c
10002c0a:	e00d      	b.n	10002c28 <_vsnprintf+0x8d4>
10002c0c:	3230      	adds	r2, #48	; 0x30
10002c0e:	b2d2      	uxtb	r2, r2
10002c10:	4643      	mov	r3, r8
10002c12:	3501      	adds	r5, #1
10002c14:	555a      	strb	r2, [r3, r5]
10002c16:	2300      	movs	r3, #0
10002c18:	42bb      	cmp	r3, r7
10002c1a:	d100      	bne.n	10002c1e <_vsnprintf+0x8ca>
10002c1c:	e0fd      	b.n	10002e1a <_vsnprintf+0xac6>
10002c1e:	2d20      	cmp	r5, #32
10002c20:	d100      	bne.n	10002c24 <_vsnprintf+0x8d0>
10002c22:	e0fd      	b.n	10002e20 <_vsnprintf+0xacc>
10002c24:	0004      	movs	r4, r0
10002c26:	000f      	movs	r7, r1
10002c28:	0032      	movs	r2, r6
10002c2a:	2300      	movs	r3, #0
10002c2c:	0020      	movs	r0, r4
10002c2e:	0039      	movs	r1, r7
10002c30:	f000 f9e4 	bl	10002ffc <__wrap___aeabi_uldivmod>
10002c34:	b2d2      	uxtb	r2, r2
10002c36:	2a09      	cmp	r2, #9
10002c38:	d9e8      	bls.n	10002c0c <_vsnprintf+0x8b8>
10002c3a:	9b0d      	ldr	r3, [sp, #52]	; 0x34
10002c3c:	469c      	mov	ip, r3
10002c3e:	4462      	add	r2, ip
10002c40:	b2d2      	uxtb	r2, r2
10002c42:	e7e5      	b.n	10002c10 <_vsnprintf+0x8bc>
10002c44:	9a0b      	ldr	r2, [sp, #44]	; 0x2c
10002c46:	2361      	movs	r3, #97	; 0x61
10002c48:	0692      	lsls	r2, r2, #26
10002c4a:	d500      	bpl.n	10002c4e <_vsnprintf+0x8fa>
10002c4c:	2341      	movs	r3, #65	; 0x41
10002c4e:	b2db      	uxtb	r3, r3
10002c50:	a90e      	add	r1, sp, #56	; 0x38
10002c52:	3b0a      	subs	r3, #10
10002c54:	221f      	movs	r2, #31
10002c56:	468c      	mov	ip, r1
10002c58:	930d      	str	r3, [sp, #52]	; 0x34
10002c5a:	0023      	movs	r3, r4
10002c5c:	4462      	add	r2, ip
10002c5e:	4654      	mov	r4, sl
10002c60:	9512      	str	r5, [sp, #72]	; 0x48
10002c62:	0017      	movs	r7, r2
10002c64:	464d      	mov	r5, r9
10002c66:	469a      	mov	sl, r3
10002c68:	46b1      	mov	r9, r6
10002c6a:	9e0c      	ldr	r6, [sp, #48]	; 0x30
10002c6c:	e008      	b.n	10002c80 <_vsnprintf+0x92c>
10002c6e:	3330      	adds	r3, #48	; 0x30
10002c70:	b2db      	uxtb	r3, r3
10002c72:	3501      	adds	r5, #1
10002c74:	557b      	strb	r3, [r7, r5]
10002c76:	42b4      	cmp	r4, r6
10002c78:	d30e      	bcc.n	10002c98 <_vsnprintf+0x944>
10002c7a:	2d20      	cmp	r5, #32
10002c7c:	d00c      	beq.n	10002c98 <_vsnprintf+0x944>
10002c7e:	0004      	movs	r4, r0
10002c80:	0031      	movs	r1, r6
10002c82:	0020      	movs	r0, r4
10002c84:	f000 f974 	bl	10002f70 <__wrap___aeabi_uidiv>
10002c88:	b2cb      	uxtb	r3, r1
10002c8a:	2909      	cmp	r1, #9
10002c8c:	d9ef      	bls.n	10002c6e <_vsnprintf+0x91a>
10002c8e:	9a0d      	ldr	r2, [sp, #52]	; 0x34
10002c90:	4694      	mov	ip, r2
10002c92:	4463      	add	r3, ip
10002c94:	b2db      	uxtb	r3, r3
10002c96:	e7ec      	b.n	10002c72 <_vsnprintf+0x91e>
10002c98:	464e      	mov	r6, r9
10002c9a:	4654      	mov	r4, sl
10002c9c:	46a9      	mov	r9, r5
10002c9e:	9d12      	ldr	r5, [sp, #72]	; 0x48
10002ca0:	e475      	b.n	1000258e <_vsnprintf+0x23a>
10002ca2:	9b09      	ldr	r3, [sp, #36]	; 0x24
10002ca4:	001a      	movs	r2, r3
10002ca6:	ca08      	ldmia	r2!, {r3}
10002ca8:	17d9      	asrs	r1, r3, #31
10002caa:	9213      	str	r2, [sp, #76]	; 0x4c
10002cac:	185a      	adds	r2, r3, r1
10002cae:	404a      	eors	r2, r1
10002cb0:	4691      	mov	r9, r2
10002cb2:	0fda      	lsrs	r2, r3, #31
10002cb4:	9212      	str	r2, [sp, #72]	; 0x48
10002cb6:	2b00      	cmp	r3, #0
10002cb8:	d108      	bne.n	10002ccc <_vsnprintf+0x978>
10002cba:	2380      	movs	r3, #128	; 0x80
10002cbc:	2210      	movs	r2, #16
10002cbe:	990b      	ldr	r1, [sp, #44]	; 0x2c
10002cc0:	00db      	lsls	r3, r3, #3
10002cc2:	400b      	ands	r3, r1
10002cc4:	4391      	bics	r1, r2
10002cc6:	910b      	str	r1, [sp, #44]	; 0x2c
10002cc8:	2b00      	cmp	r3, #0
10002cca:	d12b      	bne.n	10002d24 <_vsnprintf+0x9d0>
10002ccc:	9a0b      	ldr	r2, [sp, #44]	; 0x2c
10002cce:	2361      	movs	r3, #97	; 0x61
10002cd0:	0692      	lsls	r2, r2, #26
10002cd2:	d500      	bpl.n	10002cd6 <_vsnprintf+0x982>
10002cd4:	2341      	movs	r3, #65	; 0x41
10002cd6:	aa0e      	add	r2, sp, #56	; 0x38
10002cd8:	271f      	movs	r7, #31
10002cda:	4694      	mov	ip, r2
10002cdc:	b2db      	uxtb	r3, r3
10002cde:	3b0a      	subs	r3, #10
10002ce0:	950d      	str	r5, [sp, #52]	; 0x34
10002ce2:	4467      	add	r7, ip
10002ce4:	4655      	mov	r5, sl
10002ce6:	9309      	str	r3, [sp, #36]	; 0x24
10002ce8:	46a2      	mov	sl, r4
10002cea:	464c      	mov	r4, r9
10002cec:	46b1      	mov	r9, r6
10002cee:	9e0c      	ldr	r6, [sp, #48]	; 0x30
10002cf0:	e008      	b.n	10002d04 <_vsnprintf+0x9b0>
10002cf2:	3330      	adds	r3, #48	; 0x30
10002cf4:	b2db      	uxtb	r3, r3
10002cf6:	3501      	adds	r5, #1
10002cf8:	557b      	strb	r3, [r7, r5]
10002cfa:	42b4      	cmp	r4, r6
10002cfc:	d30e      	bcc.n	10002d1c <_vsnprintf+0x9c8>
10002cfe:	2d20      	cmp	r5, #32
10002d00:	d00c      	beq.n	10002d1c <_vsnprintf+0x9c8>
10002d02:	0004      	movs	r4, r0
10002d04:	0031      	movs	r1, r6
10002d06:	0020      	movs	r0, r4
10002d08:	f000 f932 	bl	10002f70 <__wrap___aeabi_uidiv>
10002d0c:	b2cb      	uxtb	r3, r1
10002d0e:	2909      	cmp	r1, #9
10002d10:	d9ef      	bls.n	10002cf2 <_vsnprintf+0x99e>
10002d12:	9a09      	ldr	r2, [sp, #36]	; 0x24
10002d14:	4694      	mov	ip, r2
10002d16:	4463      	add	r3, ip
10002d18:	b2db      	uxtb	r3, r3
10002d1a:	e7ec      	b.n	10002cf6 <_vsnprintf+0x9a2>
10002d1c:	464e      	mov	r6, r9
10002d1e:	4654      	mov	r4, sl
10002d20:	46aa      	mov	sl, r5
10002d22:	9d0d      	ldr	r5, [sp, #52]	; 0x34
10002d24:	9b0b      	ldr	r3, [sp, #44]	; 0x2c
10002d26:	002a      	movs	r2, r5
10002d28:	9306      	str	r3, [sp, #24]
10002d2a:	9b0a      	ldr	r3, [sp, #40]	; 0x28
10002d2c:	0021      	movs	r1, r4
10002d2e:	9305      	str	r3, [sp, #20]
10002d30:	4643      	mov	r3, r8
10002d32:	9304      	str	r3, [sp, #16]
10002d34:	9b0c      	ldr	r3, [sp, #48]	; 0x30
10002d36:	9808      	ldr	r0, [sp, #32]
10002d38:	9303      	str	r3, [sp, #12]
10002d3a:	9b12      	ldr	r3, [sp, #72]	; 0x48
10002d3c:	3601      	adds	r6, #1
10002d3e:	9302      	str	r3, [sp, #8]
10002d40:	4653      	mov	r3, sl
10002d42:	9301      	str	r3, [sp, #4]
10002d44:	ab16      	add	r3, sp, #88	; 0x58
10002d46:	9300      	str	r3, [sp, #0]
10002d48:	465b      	mov	r3, fp
10002d4a:	f7fe fdf5 	bl	10001938 <_ntoa_format>
10002d4e:	9b13      	ldr	r3, [sp, #76]	; 0x4c
10002d50:	0005      	movs	r5, r0
10002d52:	9309      	str	r3, [sp, #36]	; 0x24
10002d54:	f7ff fb23 	bl	1000239e <_vsnprintf+0x4a>
10002d58:	9b09      	ldr	r3, [sp, #36]	; 0x24
10002d5a:	cb04      	ldmia	r3!, {r2}
10002d5c:	4691      	mov	r9, r2
10002d5e:	9312      	str	r3, [sp, #72]	; 0x48
10002d60:	2a00      	cmp	r2, #0
10002d62:	d108      	bne.n	10002d76 <_vsnprintf+0xa22>
10002d64:	2380      	movs	r3, #128	; 0x80
10002d66:	2210      	movs	r2, #16
10002d68:	990b      	ldr	r1, [sp, #44]	; 0x2c
10002d6a:	00db      	lsls	r3, r3, #3
10002d6c:	400b      	ands	r3, r1
10002d6e:	4391      	bics	r1, r2
10002d70:	910b      	str	r1, [sp, #44]	; 0x2c
10002d72:	2b00      	cmp	r3, #0
10002d74:	d12b      	bne.n	10002dce <_vsnprintf+0xa7a>
10002d76:	9a0b      	ldr	r2, [sp, #44]	; 0x2c
10002d78:	2361      	movs	r3, #97	; 0x61
10002d7a:	0692      	lsls	r2, r2, #26
10002d7c:	d500      	bpl.n	10002d80 <_vsnprintf+0xa2c>
10002d7e:	2341      	movs	r3, #65	; 0x41
10002d80:	aa0e      	add	r2, sp, #56	; 0x38
10002d82:	271f      	movs	r7, #31
10002d84:	4694      	mov	ip, r2
10002d86:	b2db      	uxtb	r3, r3
10002d88:	3b0a      	subs	r3, #10
10002d8a:	950d      	str	r5, [sp, #52]	; 0x34
10002d8c:	4467      	add	r7, ip
10002d8e:	4655      	mov	r5, sl
10002d90:	9309      	str	r3, [sp, #36]	; 0x24
10002d92:	46a2      	mov	sl, r4
10002d94:	464c      	mov	r4, r9
10002d96:	46b1      	mov	r9, r6
10002d98:	9e0c      	ldr	r6, [sp, #48]	; 0x30
10002d9a:	e008      	b.n	10002dae <_vsnprintf+0xa5a>
10002d9c:	3330      	adds	r3, #48	; 0x30
10002d9e:	b2db      	uxtb	r3, r3
10002da0:	3501      	adds	r5, #1
10002da2:	557b      	strb	r3, [r7, r5]
10002da4:	42b4      	cmp	r4, r6
10002da6:	d30e      	bcc.n	10002dc6 <_vsnprintf+0xa72>
10002da8:	2d20      	cmp	r5, #32
10002daa:	d00c      	beq.n	10002dc6 <_vsnprintf+0xa72>
10002dac:	0004      	movs	r4, r0
10002dae:	0031      	movs	r1, r6
10002db0:	0020      	movs	r0, r4
10002db2:	f000 f8dd 	bl	10002f70 <__wrap___aeabi_uidiv>
10002db6:	b2cb      	uxtb	r3, r1
10002db8:	2909      	cmp	r1, #9
10002dba:	d9ef      	bls.n	10002d9c <_vsnprintf+0xa48>
10002dbc:	9a09      	ldr	r2, [sp, #36]	; 0x24
10002dbe:	4694      	mov	ip, r2
10002dc0:	4463      	add	r3, ip
10002dc2:	b2db      	uxtb	r3, r3
10002dc4:	e7ec      	b.n	10002da0 <_vsnprintf+0xa4c>
10002dc6:	464e      	mov	r6, r9
10002dc8:	4654      	mov	r4, sl
10002dca:	46aa      	mov	sl, r5
10002dcc:	9d0d      	ldr	r5, [sp, #52]	; 0x34
10002dce:	9b0b      	ldr	r3, [sp, #44]	; 0x2c
10002dd0:	002a      	movs	r2, r5
10002dd2:	9306      	str	r3, [sp, #24]
10002dd4:	9b0a      	ldr	r3, [sp, #40]	; 0x28
10002dd6:	0021      	movs	r1, r4
10002dd8:	9305      	str	r3, [sp, #20]
10002dda:	4643      	mov	r3, r8
10002ddc:	9304      	str	r3, [sp, #16]
10002dde:	9b0c      	ldr	r3, [sp, #48]	; 0x30
10002de0:	9808      	ldr	r0, [sp, #32]
10002de2:	9303      	str	r3, [sp, #12]
10002de4:	2300      	movs	r3, #0
10002de6:	9302      	str	r3, [sp, #8]
10002de8:	4653      	mov	r3, sl
10002dea:	9301      	str	r3, [sp, #4]
10002dec:	ab16      	add	r3, sp, #88	; 0x58
10002dee:	9300      	str	r3, [sp, #0]
10002df0:	465b      	mov	r3, fp
10002df2:	f7fe fda1 	bl	10001938 <_ntoa_format>
10002df6:	9b12      	ldr	r3, [sp, #72]	; 0x48
10002df8:	0005      	movs	r5, r0
10002dfa:	9309      	str	r3, [sp, #36]	; 0x24
10002dfc:	3601      	adds	r6, #1
10002dfe:	f7ff face 	bl	1000239e <_vsnprintf+0x4a>
10002e02:	42b4      	cmp	r4, r6
10002e04:	d800      	bhi.n	10002e08 <_vsnprintf+0xab4>
10002e06:	e67f      	b.n	10002b08 <_vsnprintf+0x7b4>
10002e08:	9b14      	ldr	r3, [sp, #80]	; 0x50
10002e0a:	464c      	mov	r4, r9
10002e0c:	960e      	str	r6, [sp, #56]	; 0x38
10002e0e:	970f      	str	r7, [sp, #60]	; 0x3c
10002e10:	46a9      	mov	r9, r5
10002e12:	4698      	mov	r8, r3
10002e14:	9e15      	ldr	r6, [sp, #84]	; 0x54
10002e16:	9d13      	ldr	r5, [sp, #76]	; 0x4c
10002e18:	e699      	b.n	10002b4e <_vsnprintf+0x7fa>
10002e1a:	42a6      	cmp	r6, r4
10002e1c:	d800      	bhi.n	10002e20 <_vsnprintf+0xacc>
10002e1e:	e6fe      	b.n	10002c1e <_vsnprintf+0x8ca>
10002e20:	9b13      	ldr	r3, [sp, #76]	; 0x4c
10002e22:	464e      	mov	r6, r9
10002e24:	4698      	mov	r8, r3
10002e26:	46a9      	mov	r9, r5
10002e28:	4654      	mov	r4, sl
10002e2a:	9d12      	ldr	r5, [sp, #72]	; 0x48
10002e2c:	f7ff fbaf 	bl	1000258e <_vsnprintf+0x23a>
10002e30:	c908      	ldmia	r1!, {r3}
10002e32:	17d8      	asrs	r0, r3, #31
10002e34:	181a      	adds	r2, r3, r0
10002e36:	4042      	eors	r2, r0
10002e38:	9109      	str	r1, [sp, #36]	; 0x24
10002e3a:	e566      	b.n	1000290a <_vsnprintf+0x5b6>
10002e3c:	2300      	movs	r3, #0
10002e3e:	930b      	str	r3, [sp, #44]	; 0x2c
10002e40:	e45e      	b.n	10002700 <_vsnprintf+0x3ac>
10002e42:	9b09      	ldr	r3, [sp, #36]	; 0x24
10002e44:	cb04      	ldmia	r3!, {r2}
10002e46:	4692      	mov	sl, r2
10002e48:	9309      	str	r3, [sp, #36]	; 0x24
10002e4a:	f7ff fb92 	bl	10002572 <_vsnprintf+0x21e>
10002e4e:	002f      	movs	r7, r5
10002e50:	e5e0      	b.n	10002a14 <_vsnprintf+0x6c0>
10002e52:	930b      	str	r3, [sp, #44]	; 0x2c
10002e54:	e60b      	b.n	10002a6e <_vsnprintf+0x71a>
10002e56:	3b06      	subs	r3, #6
10002e58:	930c      	str	r3, [sp, #48]	; 0x30
10002e5a:	e52e      	b.n	100028ba <_vsnprintf+0x566>

10002e5c <vfctprintf>:
10002e5c:	b500      	push	{lr}
10002e5e:	b085      	sub	sp, #20
10002e60:	9103      	str	r1, [sp, #12]
10002e62:	2101      	movs	r1, #1
10002e64:	9002      	str	r0, [sp, #8]
10002e66:	9300      	str	r3, [sp, #0]
10002e68:	4803      	ldr	r0, [pc, #12]	; (10002e78 <vfctprintf+0x1c>)
10002e6a:	0013      	movs	r3, r2
10002e6c:	424a      	negs	r2, r1
10002e6e:	a902      	add	r1, sp, #8
10002e70:	f7ff fa70 	bl	10002354 <_vsnprintf>
10002e74:	b005      	add	sp, #20
10002e76:	bd00      	pop	{pc}
10002e78:	10001b19 	.word	0x10001b19

10002e7c <weak_raw_vprintf>:
10002e7c:	b510      	push	{r4, lr}
10002e7e:	4a09      	ldr	r2, [pc, #36]	; (10002ea4 <weak_raw_vprintf+0x28>)
10002e80:	0003      	movs	r3, r0
10002e82:	6814      	ldr	r4, [r2, #0]
10002e84:	b084      	sub	sp, #16
10002e86:	2c00      	cmp	r4, #0
10002e88:	d008      	beq.n	10002e9c <weak_raw_vprintf+0x20>
10002e8a:	2201      	movs	r2, #1
10002e8c:	9100      	str	r1, [sp, #0]
10002e8e:	4806      	ldr	r0, [pc, #24]	; (10002ea8 <weak_raw_vprintf+0x2c>)
10002e90:	4252      	negs	r2, r2
10002e92:	a903      	add	r1, sp, #12
10002e94:	47a0      	blx	r4
10002e96:	2001      	movs	r0, #1
10002e98:	b004      	add	sp, #16
10002e9a:	bd10      	pop	{r4, pc}
10002e9c:	f001 f832 	bl	10003f04 <__wrap_puts>
10002ea0:	2000      	movs	r0, #0
10002ea2:	e7f9      	b.n	10002e98 <weak_raw_vprintf+0x1c>
10002ea4:	20000b0c 	.word	0x20000b0c
10002ea8:	10001b09 	.word	0x10001b09

10002eac <__aeabi_bits_init>:
10002eac:	4801      	ldr	r0, [pc, #4]	; (10002eb4 <__aeabi_bits_init+0x8>)
10002eae:	2104      	movs	r1, #4
10002eb0:	4b01      	ldr	r3, [pc, #4]	; (10002eb8 <__aeabi_bits_init+0xc>)
10002eb2:	4718      	bx	r3
10002eb4:	200001e0 	.word	0x200001e0
10002eb8:	10002edd 	.word	0x10002edd

10002ebc <rom_func_lookup>:
10002ebc:	2314      	movs	r3, #20
10002ebe:	b510      	push	{r4, lr}
10002ec0:	0001      	movs	r1, r0
10002ec2:	8818      	ldrh	r0, [r3, #0]
10002ec4:	3304      	adds	r3, #4
10002ec6:	881b      	ldrh	r3, [r3, #0]
10002ec8:	4798      	blx	r3
10002eca:	bd10      	pop	{r4, pc}

10002ecc <rom_data_lookup>:
10002ecc:	2316      	movs	r3, #22
10002ece:	b510      	push	{r4, lr}
10002ed0:	0001      	movs	r1, r0
10002ed2:	8818      	ldrh	r0, [r3, #0]
10002ed4:	3302      	adds	r3, #2
10002ed6:	881b      	ldrh	r3, [r3, #0]
10002ed8:	4798      	blx	r3
10002eda:	bd10      	pop	{r4, pc}

10002edc <rom_funcs_lookup>:
10002edc:	b5f0      	push	{r4, r5, r6, r7, lr}
10002ede:	46c6      	mov	lr, r8
10002ee0:	b500      	push	{lr}
10002ee2:	2900      	cmp	r1, #0
10002ee4:	d016      	beq.n	10002f14 <rom_funcs_lookup+0x38>
10002ee6:	2314      	movs	r3, #20
10002ee8:	0004      	movs	r4, r0
10002eea:	2501      	movs	r5, #1
10002eec:	4698      	mov	r8, r3
10002eee:	2718      	movs	r7, #24
10002ef0:	0089      	lsls	r1, r1, #2
10002ef2:	1846      	adds	r6, r0, r1
10002ef4:	4643      	mov	r3, r8
10002ef6:	6821      	ldr	r1, [r4, #0]
10002ef8:	8818      	ldrh	r0, [r3, #0]
10002efa:	883b      	ldrh	r3, [r7, #0]
10002efc:	4798      	blx	r3
10002efe:	c401      	stmia	r4!, {r0}
10002f00:	1e43      	subs	r3, r0, #1
10002f02:	4198      	sbcs	r0, r3
10002f04:	4240      	negs	r0, r0
10002f06:	4005      	ands	r5, r0
10002f08:	42a6      	cmp	r6, r4
10002f0a:	d1f3      	bne.n	10002ef4 <rom_funcs_lookup+0x18>
10002f0c:	0028      	movs	r0, r5
10002f0e:	bc04      	pop	{r2}
10002f10:	4690      	mov	r8, r2
10002f12:	bdf0      	pop	{r4, r5, r6, r7, pc}
10002f14:	2501      	movs	r5, #1
10002f16:	e7f9      	b.n	10002f0c <rom_funcs_lookup+0x30>

10002f18 <__wrap___aeabi_idiv>:
10002f18:	4a14      	ldr	r2, [pc, #80]	; (10002f6c <divmod_s32s32_savestate+0x20>)
10002f1a:	6f93      	ldr	r3, [r2, #120]	; 0x78
10002f1c:	089b      	lsrs	r3, r3, #2
10002f1e:	d215      	bcs.n	10002f4c <divmod_s32s32_savestate>

10002f20 <divmod_s32s32_unsafe>:
10002f20:	6690      	str	r0, [r2, #104]	; 0x68
10002f22:	66d1      	str	r1, [r2, #108]	; 0x6c
10002f24:	2900      	cmp	r1, #0
10002f26:	d005      	beq.n	10002f34 <divmod_s32s32_unsafe+0x14>
10002f28:	e7ff      	b.n	10002f2a <divmod_s32s32_unsafe+0xa>
10002f2a:	e7ff      	b.n	10002f2c <divmod_s32s32_unsafe+0xc>
10002f2c:	e7ff      	b.n	10002f2e <divmod_s32s32_unsafe+0xe>
10002f2e:	6f51      	ldr	r1, [r2, #116]	; 0x74
10002f30:	6f10      	ldr	r0, [r2, #112]	; 0x70
10002f32:	4770      	bx	lr
10002f34:	b504      	push	{r2, lr}
10002f36:	2180      	movs	r1, #128	; 0x80
10002f38:	0609      	lsls	r1, r1, #24
10002f3a:	17c2      	asrs	r2, r0, #31
10002f3c:	4051      	eors	r1, r2
10002f3e:	2800      	cmp	r0, #0
10002f40:	d000      	beq.n	10002f44 <divmod_s32s32_unsafe+0x24>
10002f42:	43c8      	mvns	r0, r1
10002f44:	f001 fe38 	bl	10004bb8 <____aeabi_idiv0_veneer>
10002f48:	2100      	movs	r1, #0
10002f4a:	bd04      	pop	{r2, pc}

10002f4c <divmod_s32s32_savestate>:
10002f4c:	6f93      	ldr	r3, [r2, #120]	; 0x78
10002f4e:	085b      	lsrs	r3, r3, #1
10002f50:	d3fd      	bcc.n	10002f4e <divmod_s32s32_savestate+0x2>
10002f52:	b5f0      	push	{r4, r5, r6, r7, lr}
10002f54:	6e94      	ldr	r4, [r2, #104]	; 0x68
10002f56:	6ed5      	ldr	r5, [r2, #108]	; 0x6c
10002f58:	6f57      	ldr	r7, [r2, #116]	; 0x74
10002f5a:	6f16      	ldr	r6, [r2, #112]	; 0x70
10002f5c:	f7ff ffe0 	bl	10002f20 <divmod_s32s32_unsafe>
10002f60:	6694      	str	r4, [r2, #104]	; 0x68
10002f62:	66d5      	str	r5, [r2, #108]	; 0x6c
10002f64:	6757      	str	r7, [r2, #116]	; 0x74
10002f66:	6716      	str	r6, [r2, #112]	; 0x70
10002f68:	bdf0      	pop	{r4, r5, r6, r7, pc}
10002f6a:	0000      	.short	0x0000
10002f6c:	d0000000 	.word	0xd0000000

10002f70 <__wrap___aeabi_uidiv>:
10002f70:	4a13      	ldr	r2, [pc, #76]	; (10002fc0 <divmod_u32u32_savestate+0x20>)
10002f72:	6f93      	ldr	r3, [r2, #120]	; 0x78
10002f74:	089b      	lsrs	r3, r3, #2
10002f76:	d213      	bcs.n	10002fa0 <divmod_u32u32_savestate>

10002f78 <divmod_u32u32_unsafe>:
10002f78:	6610      	str	r0, [r2, #96]	; 0x60
10002f7a:	6651      	str	r1, [r2, #100]	; 0x64
10002f7c:	2900      	cmp	r1, #0
10002f7e:	d005      	beq.n	10002f8c <divmod_u32u32_unsafe+0x14>
10002f80:	e7ff      	b.n	10002f82 <divmod_u32u32_unsafe+0xa>
10002f82:	e7ff      	b.n	10002f84 <divmod_u32u32_unsafe+0xc>
10002f84:	e7ff      	b.n	10002f86 <divmod_u32u32_unsafe+0xe>
10002f86:	6f51      	ldr	r1, [r2, #116]	; 0x74
10002f88:	6f10      	ldr	r0, [r2, #112]	; 0x70
10002f8a:	4770      	bx	lr
10002f8c:	b504      	push	{r2, lr}
10002f8e:	2800      	cmp	r0, #0
10002f90:	d001      	beq.n	10002f96 <divmod_u32u32_unsafe+0x1e>
10002f92:	2000      	movs	r0, #0
10002f94:	43c0      	mvns	r0, r0
10002f96:	f001 fe0f 	bl	10004bb8 <____aeabi_idiv0_veneer>
10002f9a:	2100      	movs	r1, #0
10002f9c:	bd04      	pop	{r2, pc}
10002f9e:	46c0      	nop			; (mov r8, r8)

10002fa0 <divmod_u32u32_savestate>:
10002fa0:	6f93      	ldr	r3, [r2, #120]	; 0x78
10002fa2:	085b      	lsrs	r3, r3, #1
10002fa4:	d3fd      	bcc.n	10002fa2 <divmod_u32u32_savestate+0x2>
10002fa6:	b5f0      	push	{r4, r5, r6, r7, lr}
10002fa8:	6e94      	ldr	r4, [r2, #104]	; 0x68
10002faa:	6ed5      	ldr	r5, [r2, #108]	; 0x6c
10002fac:	6f57      	ldr	r7, [r2, #116]	; 0x74
10002fae:	6f16      	ldr	r6, [r2, #112]	; 0x70
10002fb0:	f7ff ffe2 	bl	10002f78 <divmod_u32u32_unsafe>
10002fb4:	6694      	str	r4, [r2, #104]	; 0x68
10002fb6:	66d5      	str	r5, [r2, #108]	; 0x6c
10002fb8:	6757      	str	r7, [r2, #116]	; 0x74
10002fba:	6716      	str	r6, [r2, #112]	; 0x70
10002fbc:	bdf0      	pop	{r4, r5, r6, r7, pc}
10002fbe:	0000      	.short	0x0000
10002fc0:	d0000000 	.word	0xd0000000

10002fc4 <__wrap___aeabi_ldivmod>:
10002fc4:	4694      	mov	ip, r2
10002fc6:	4a4e      	ldr	r2, [pc, #312]	; (10003100 <udiv0+0x1a>)
10002fc8:	6f92      	ldr	r2, [r2, #120]	; 0x78
10002fca:	0892      	lsrs	r2, r2, #2
10002fcc:	4662      	mov	r2, ip
10002fce:	d201      	bcs.n	10002fd4 <divmod_s64s64_savestate>
10002fd0:	e030      	b.n	10003034 <divmod_s64s64_unsafe>
10002fd2:	46c0      	nop			; (mov r8, r8)

10002fd4 <divmod_s64s64_savestate>:
10002fd4:	b5f0      	push	{r4, r5, r6, r7, lr}
10002fd6:	4e4a      	ldr	r6, [pc, #296]	; (10003100 <udiv0+0x1a>)
10002fd8:	6fb5      	ldr	r5, [r6, #120]	; 0x78
10002fda:	086d      	lsrs	r5, r5, #1
10002fdc:	d3fc      	bcc.n	10002fd8 <divmod_s64s64_savestate+0x4>
10002fde:	6e34      	ldr	r4, [r6, #96]	; 0x60
10002fe0:	6e75      	ldr	r5, [r6, #100]	; 0x64
10002fe2:	6f77      	ldr	r7, [r6, #116]	; 0x74
10002fe4:	6f36      	ldr	r6, [r6, #112]	; 0x70
10002fe6:	f000 f825 	bl	10003034 <divmod_s64s64_unsafe>
10002fea:	4694      	mov	ip, r2
10002fec:	4a44      	ldr	r2, [pc, #272]	; (10003100 <udiv0+0x1a>)
10002fee:	6614      	str	r4, [r2, #96]	; 0x60
10002ff0:	6655      	str	r5, [r2, #100]	; 0x64
10002ff2:	6757      	str	r7, [r2, #116]	; 0x74
10002ff4:	6716      	str	r6, [r2, #112]	; 0x70
10002ff6:	4662      	mov	r2, ip
10002ff8:	bdf0      	pop	{r4, r5, r6, r7, pc}
10002ffa:	46c0      	nop			; (mov r8, r8)

10002ffc <__wrap___aeabi_uldivmod>:
10002ffc:	4694      	mov	ip, r2
10002ffe:	4a40      	ldr	r2, [pc, #256]	; (10003100 <udiv0+0x1a>)
10003000:	6f92      	ldr	r2, [r2, #120]	; 0x78
10003002:	0892      	lsrs	r2, r2, #2
10003004:	4662      	mov	r2, ip
10003006:	d201      	bcs.n	1000300c <divmod_u64u64_savestate>
10003008:	e058      	b.n	100030bc <divmod_u64u64_unsafe>
1000300a:	46c0      	nop			; (mov r8, r8)

1000300c <divmod_u64u64_savestate>:
1000300c:	b5f0      	push	{r4, r5, r6, r7, lr}
1000300e:	4e3c      	ldr	r6, [pc, #240]	; (10003100 <udiv0+0x1a>)
10003010:	6fb5      	ldr	r5, [r6, #120]	; 0x78
10003012:	086d      	lsrs	r5, r5, #1
10003014:	d3fc      	bcc.n	10003010 <divmod_u64u64_savestate+0x4>
10003016:	6e34      	ldr	r4, [r6, #96]	; 0x60
10003018:	6e75      	ldr	r5, [r6, #100]	; 0x64
1000301a:	6f77      	ldr	r7, [r6, #116]	; 0x74
1000301c:	6f36      	ldr	r6, [r6, #112]	; 0x70
1000301e:	f000 f84d 	bl	100030bc <divmod_u64u64_unsafe>
10003022:	4694      	mov	ip, r2
10003024:	4a36      	ldr	r2, [pc, #216]	; (10003100 <udiv0+0x1a>)
10003026:	6614      	str	r4, [r2, #96]	; 0x60
10003028:	6655      	str	r5, [r2, #100]	; 0x64
1000302a:	6757      	str	r7, [r2, #116]	; 0x74
1000302c:	6716      	str	r6, [r2, #112]	; 0x70
1000302e:	4662      	mov	r2, ip
10003030:	bdf0      	pop	{r4, r5, r6, r7, pc}
10003032:	46c0      	nop			; (mov r8, r8)

10003034 <divmod_s64s64_unsafe>:
10003034:	2b00      	cmp	r3, #0
10003036:	db24      	blt.n	10003082 <l41_1+0x26>
10003038:	d011      	beq.n	1000305e <l41_1+0x2>
1000303a:	2900      	cmp	r1, #0
1000303c:	da3e      	bge.n	100030bc <divmod_u64u64_unsafe>
1000303e:	b500      	push	{lr}
10003040:	43c9      	mvns	r1, r1
10003042:	4240      	negs	r0, r0
10003044:	d100      	bne.n	10003048 <l39_1>
10003046:	3101      	adds	r1, #1

10003048 <l39_1>:
10003048:	f000 f838 	bl	100030bc <divmod_u64u64_unsafe>
1000304c:	43c9      	mvns	r1, r1
1000304e:	4240      	negs	r0, r0
10003050:	d100      	bne.n	10003054 <l40_1>
10003052:	3101      	adds	r1, #1

10003054 <l40_1>:
10003054:	43db      	mvns	r3, r3
10003056:	4252      	negs	r2, r2
10003058:	d100      	bne.n	1000305c <l41_1>
1000305a:	3301      	adds	r3, #1

1000305c <l41_1>:
1000305c:	bd00      	pop	{pc}
1000305e:	2a00      	cmp	r2, #0
10003060:	d1eb      	bne.n	1000303a <divmod_s64s64_unsafe+0x6>
10003062:	2800      	cmp	r0, #0
10003064:	d101      	bne.n	1000306a <l41_1+0xe>
10003066:	2900      	cmp	r1, #0
10003068:	d005      	beq.n	10003076 <l41_1+0x1a>
1000306a:	2000      	movs	r0, #0
1000306c:	0fc9      	lsrs	r1, r1, #31
1000306e:	07c9      	lsls	r1, r1, #31
10003070:	d101      	bne.n	10003076 <l41_1+0x1a>
10003072:	43c0      	mvns	r0, r0
10003074:	0841      	lsrs	r1, r0, #1
10003076:	b500      	push	{lr}
10003078:	f001 fd96 	bl	10004ba8 <____aeabi_ldiv0_veneer>
1000307c:	2200      	movs	r2, #0
1000307e:	2300      	movs	r3, #0
10003080:	bd00      	pop	{pc}
10003082:	b500      	push	{lr}
10003084:	2900      	cmp	r1, #0
10003086:	db0a      	blt.n	1000309e <l43_1+0x2>
10003088:	43db      	mvns	r3, r3
1000308a:	4252      	negs	r2, r2
1000308c:	d100      	bne.n	10003090 <l42_1>
1000308e:	3301      	adds	r3, #1

10003090 <l42_1>:
10003090:	f000 f814 	bl	100030bc <divmod_u64u64_unsafe>
10003094:	43c9      	mvns	r1, r1
10003096:	4240      	negs	r0, r0
10003098:	d100      	bne.n	1000309c <l43_1>
1000309a:	3101      	adds	r1, #1

1000309c <l43_1>:
1000309c:	bd00      	pop	{pc}
1000309e:	43c9      	mvns	r1, r1
100030a0:	4240      	negs	r0, r0
100030a2:	d100      	bne.n	100030a6 <l44_1>
100030a4:	3101      	adds	r1, #1

100030a6 <l44_1>:
100030a6:	43db      	mvns	r3, r3
100030a8:	4252      	negs	r2, r2
100030aa:	d100      	bne.n	100030ae <l45_1>
100030ac:	3301      	adds	r3, #1

100030ae <l45_1>:
100030ae:	f000 f805 	bl	100030bc <divmod_u64u64_unsafe>
100030b2:	43db      	mvns	r3, r3
100030b4:	4252      	negs	r2, r2
100030b6:	d100      	bne.n	100030ba <l46_1>
100030b8:	3301      	adds	r3, #1

100030ba <l46_1>:
100030ba:	bd00      	pop	{pc}

100030bc <divmod_u64u64_unsafe>:
100030bc:	2900      	cmp	r1, #0
100030be:	d123      	bne.n	10003108 <y64>
100030c0:	2b00      	cmp	r3, #0
100030c2:	d118      	bne.n	100030f6 <udiv0+0x10>
100030c4:	2a00      	cmp	r2, #0
100030c6:	d00c      	beq.n	100030e2 <divmod_u64u64_unsafe+0x26>
100030c8:	46bc      	mov	ip, r7
100030ca:	4f0d      	ldr	r7, [pc, #52]	; (10003100 <udiv0+0x1a>)
100030cc:	6638      	str	r0, [r7, #96]	; 0x60
100030ce:	667a      	str	r2, [r7, #100]	; 0x64
100030d0:	2100      	movs	r1, #0
100030d2:	2300      	movs	r3, #0
100030d4:	e7ff      	b.n	100030d6 <divmod_u64u64_unsafe+0x1a>
100030d6:	e7ff      	b.n	100030d8 <divmod_u64u64_unsafe+0x1c>
100030d8:	e7ff      	b.n	100030da <divmod_u64u64_unsafe+0x1e>
100030da:	6f7a      	ldr	r2, [r7, #116]	; 0x74
100030dc:	6f38      	ldr	r0, [r7, #112]	; 0x70
100030de:	4667      	mov	r7, ip
100030e0:	4770      	bx	lr
100030e2:	2800      	cmp	r0, #0
100030e4:	d001      	beq.n	100030ea <udiv0+0x4>

100030e6 <udiv0>:
100030e6:	4807      	ldr	r0, [pc, #28]	; (10003104 <udiv0+0x1e>)
100030e8:	0001      	movs	r1, r0
100030ea:	b500      	push	{lr}
100030ec:	f001 fd5c 	bl	10004ba8 <____aeabi_ldiv0_veneer>
100030f0:	2200      	movs	r2, #0
100030f2:	2300      	movs	r3, #0
100030f4:	bd00      	pop	{pc}
100030f6:	0002      	movs	r2, r0
100030f8:	000b      	movs	r3, r1
100030fa:	2000      	movs	r0, #0
100030fc:	2100      	movs	r1, #0
100030fe:	4770      	bx	lr
10003100:	d0000000 	.word	0xd0000000
10003104:	ffffffff 	.word	0xffffffff

10003108 <y64>:
10003108:	2b00      	cmp	r3, #0
1000310a:	d000      	beq.n	1000310e <y64+0x6>
1000310c:	e0bd      	b.n	1000328a <y64_x48>
1000310e:	0c13      	lsrs	r3, r2, #16
10003110:	d126      	bne.n	10003160 <y64_x32>
10003112:	2a00      	cmp	r2, #0
10003114:	d0e7      	beq.n	100030e6 <udiv0>
10003116:	b480      	push	{r7}
10003118:	4f10      	ldr	r7, [pc, #64]	; (1000315c <y64+0x54>)
1000311a:	6639      	str	r1, [r7, #96]	; 0x60
1000311c:	667a      	str	r2, [r7, #100]	; 0x64
1000311e:	e7ff      	b.n	10003120 <y64+0x18>
10003120:	e7ff      	b.n	10003122 <y64+0x1a>
10003122:	b430      	push	{r4, r5}
10003124:	0c04      	lsrs	r4, r0, #16
10003126:	6f7b      	ldr	r3, [r7, #116]	; 0x74
10003128:	6f39      	ldr	r1, [r7, #112]	; 0x70
1000312a:	041b      	lsls	r3, r3, #16
1000312c:	4323      	orrs	r3, r4
1000312e:	663b      	str	r3, [r7, #96]	; 0x60
10003130:	e7ff      	b.n	10003132 <y64+0x2a>
10003132:	e7ff      	b.n	10003134 <y64+0x2c>
10003134:	e7ff      	b.n	10003136 <y64+0x2e>
10003136:	46c0      	nop			; (mov r8, r8)
10003138:	b284      	uxth	r4, r0
1000313a:	6f7b      	ldr	r3, [r7, #116]	; 0x74
1000313c:	6f3d      	ldr	r5, [r7, #112]	; 0x70
1000313e:	041b      	lsls	r3, r3, #16
10003140:	4323      	orrs	r3, r4
10003142:	663b      	str	r3, [r7, #96]	; 0x60
10003144:	e7ff      	b.n	10003146 <y64+0x3e>
10003146:	e7ff      	b.n	10003148 <y64+0x40>
10003148:	46c0      	nop			; (mov r8, r8)
1000314a:	2300      	movs	r3, #0
1000314c:	042c      	lsls	r4, r5, #16
1000314e:	0c2d      	lsrs	r5, r5, #16
10003150:	6f7a      	ldr	r2, [r7, #116]	; 0x74
10003152:	6f38      	ldr	r0, [r7, #112]	; 0x70
10003154:	1900      	adds	r0, r0, r4
10003156:	4169      	adcs	r1, r5
10003158:	bcb0      	pop	{r4, r5, r7}
1000315a:	4770      	bx	lr
1000315c:	d0000000 	.word	0xd0000000

10003160 <y64_x32>:
10003160:	b5f0      	push	{r4, r5, r6, r7, lr}
10003162:	4694      	mov	ip, r2
10003164:	2500      	movs	r5, #0
10003166:	0e14      	lsrs	r4, r2, #24
10003168:	d101      	bne.n	1000316e <y64_x32+0xe>
1000316a:	0212      	lsls	r2, r2, #8
1000316c:	3508      	adds	r5, #8
1000316e:	0f14      	lsrs	r4, r2, #28
10003170:	d101      	bne.n	10003176 <y64_x32+0x16>
10003172:	0112      	lsls	r2, r2, #4
10003174:	3504      	adds	r5, #4
10003176:	0f94      	lsrs	r4, r2, #30
10003178:	d101      	bne.n	1000317e <y64_x32+0x1e>
1000317a:	0092      	lsls	r2, r2, #2
1000317c:	3502      	adds	r5, #2
1000317e:	0fd4      	lsrs	r4, r2, #31
10003180:	d101      	bne.n	10003186 <y64_x32+0x26>
10003182:	0052      	lsls	r2, r2, #1
10003184:	3501      	adds	r5, #1
10003186:	0bd4      	lsrs	r4, r2, #15
10003188:	3401      	adds	r4, #1
1000318a:	4f25      	ldr	r7, [pc, #148]	; (10003220 <y64_x32+0xc0>)
1000318c:	667c      	str	r4, [r7, #100]	; 0x64
1000318e:	4c25      	ldr	r4, [pc, #148]	; (10003224 <y64_x32+0xc4>)
10003190:	663c      	str	r4, [r7, #96]	; 0x60
10003192:	0c0e      	lsrs	r6, r1, #16
10003194:	b293      	uxth	r3, r2
10003196:	e7ff      	b.n	10003198 <y64_x32+0x38>
10003198:	e7ff      	b.n	1000319a <y64_x32+0x3a>
1000319a:	e7ff      	b.n	1000319c <y64_x32+0x3c>
1000319c:	6f3c      	ldr	r4, [r7, #112]	; 0x70
1000319e:	4366      	muls	r6, r4
100031a0:	0c36      	lsrs	r6, r6, #16
100031a2:	0377      	lsls	r7, r6, #13
100031a4:	46be      	mov	lr, r7
100031a6:	4373      	muls	r3, r6
100031a8:	0bdf      	lsrs	r7, r3, #15
100031aa:	045b      	lsls	r3, r3, #17
100031ac:	1ac0      	subs	r0, r0, r3
100031ae:	41b9      	sbcs	r1, r7
100031b0:	0c13      	lsrs	r3, r2, #16
100031b2:	4373      	muls	r3, r6
100031b4:	18db      	adds	r3, r3, r3
100031b6:	1ac9      	subs	r1, r1, r3
100031b8:	08ce      	lsrs	r6, r1, #3
100031ba:	4366      	muls	r6, r4
100031bc:	0c36      	lsrs	r6, r6, #16
100031be:	44b6      	add	lr, r6
100031c0:	b293      	uxth	r3, r2
100031c2:	4373      	muls	r3, r6
100031c4:	0f1f      	lsrs	r7, r3, #28
100031c6:	011b      	lsls	r3, r3, #4
100031c8:	1ac0      	subs	r0, r0, r3
100031ca:	41b9      	sbcs	r1, r7
100031cc:	0c13      	lsrs	r3, r2, #16
100031ce:	4373      	muls	r3, r6
100031d0:	0b1f      	lsrs	r7, r3, #12
100031d2:	051b      	lsls	r3, r3, #20
100031d4:	1ac0      	subs	r0, r0, r3
100031d6:	41b9      	sbcs	r1, r7
100031d8:	0d86      	lsrs	r6, r0, #22
100031da:	028f      	lsls	r7, r1, #10
100031dc:	433e      	orrs	r6, r7
100031de:	4366      	muls	r6, r4
100031e0:	0c36      	lsrs	r6, r6, #16
100031e2:	2d09      	cmp	r5, #9
100031e4:	db24      	blt.n	10003230 <last0>
100031e6:	0a52      	lsrs	r2, r2, #9
100031e8:	4372      	muls	r2, r6
100031ea:	1a80      	subs	r0, r0, r2
100031ec:	0377      	lsls	r7, r6, #13
100031ee:	0a46      	lsrs	r6, r0, #9
100031f0:	4366      	muls	r6, r4
100031f2:	0c36      	lsrs	r6, r6, #16
100031f4:	2316      	movs	r3, #22
100031f6:	1b5b      	subs	r3, r3, r5
100031f8:	40de      	lsrs	r6, r3
100031fa:	40df      	lsrs	r7, r3
100031fc:	19bf      	adds	r7, r7, r6
100031fe:	4664      	mov	r4, ip
10003200:	4366      	muls	r6, r4
10003202:	1b82      	subs	r2, r0, r6
10003204:	4670      	mov	r0, lr
10003206:	3504      	adds	r5, #4
10003208:	3306      	adds	r3, #6
1000320a:	0001      	movs	r1, r0
1000320c:	40d9      	lsrs	r1, r3
1000320e:	40a8      	lsls	r0, r5
10003210:	19c0      	adds	r0, r0, r7
10003212:	d300      	bcc.n	10003216 <y64_x32+0xb6>
10003214:	3101      	adds	r1, #1
10003216:	42a2      	cmp	r2, r4
10003218:	d206      	bcs.n	10003228 <y64_x32+0xc8>
1000321a:	2300      	movs	r3, #0
1000321c:	bdf0      	pop	{r4, r5, r6, r7, pc}
1000321e:	0000      	.short	0x0000
10003220:	d0000000 	.word	0xd0000000
10003224:	ffffffff 	.word	0xffffffff
10003228:	1b12      	subs	r2, r2, r4
1000322a:	3001      	adds	r0, #1
1000322c:	d3f3      	bcc.n	10003216 <y64_x32+0xb6>
1000322e:	e7f1      	b.n	10003214 <y64_x32+0xb4>

10003230 <last0>:
10003230:	2709      	movs	r7, #9
10003232:	1b7f      	subs	r7, r7, r5
10003234:	40fe      	lsrs	r6, r7
10003236:	4664      	mov	r4, ip
10003238:	b2a2      	uxth	r2, r4
1000323a:	4372      	muls	r2, r6
1000323c:	1a80      	subs	r0, r0, r2
1000323e:	d200      	bcs.n	10003242 <last0+0x12>
10003240:	3901      	subs	r1, #1
10003242:	0c22      	lsrs	r2, r4, #16
10003244:	4372      	muls	r2, r6
10003246:	0c13      	lsrs	r3, r2, #16
10003248:	0412      	lsls	r2, r2, #16
1000324a:	1a82      	subs	r2, r0, r2
1000324c:	4199      	sbcs	r1, r3
1000324e:	000b      	movs	r3, r1
10003250:	4670      	mov	r0, lr
10003252:	3504      	adds	r5, #4
10003254:	3713      	adds	r7, #19
10003256:	0001      	movs	r1, r0
10003258:	40f9      	lsrs	r1, r7
1000325a:	40a8      	lsls	r0, r5
1000325c:	1980      	adds	r0, r0, r6
1000325e:	d300      	bcc.n	10003262 <last0+0x32>
10003260:	3101      	adds	r1, #1
10003262:	2b00      	cmp	r3, #0
10003264:	d102      	bne.n	1000326c <last0+0x3c>
10003266:	42a2      	cmp	r2, r4
10003268:	d20a      	bcs.n	10003280 <last0+0x50>
1000326a:	bdf0      	pop	{r4, r5, r6, r7, pc}
1000326c:	3001      	adds	r0, #1
1000326e:	d300      	bcc.n	10003272 <last0+0x42>
10003270:	3101      	adds	r1, #1
10003272:	1b12      	subs	r2, r2, r4
10003274:	d2fa      	bcs.n	1000326c <last0+0x3c>
10003276:	3b01      	subs	r3, #1
10003278:	d1f8      	bne.n	1000326c <last0+0x3c>
1000327a:	42a2      	cmp	r2, r4
1000327c:	d200      	bcs.n	10003280 <last0+0x50>
1000327e:	bdf0      	pop	{r4, r5, r6, r7, pc}
10003280:	3001      	adds	r0, #1
10003282:	d300      	bcc.n	10003286 <last0+0x56>
10003284:	3101      	adds	r1, #1
10003286:	1b12      	subs	r2, r2, r4
10003288:	e7f7      	b.n	1000327a <last0+0x4a>

1000328a <y64_x48>:
1000328a:	b5f0      	push	{r4, r5, r6, r7, lr}
1000328c:	0c1c      	lsrs	r4, r3, #16
1000328e:	d000      	beq.n	10003292 <y64_x48+0x8>
10003290:	e080      	b.n	10003394 <y64_x64>
10003292:	b40c      	push	{r2, r3}
10003294:	2500      	movs	r5, #0
10003296:	0a1c      	lsrs	r4, r3, #8
10003298:	d104      	bne.n	100032a4 <y64_x48+0x1a>
1000329a:	021b      	lsls	r3, r3, #8
1000329c:	0e16      	lsrs	r6, r2, #24
1000329e:	4333      	orrs	r3, r6
100032a0:	0212      	lsls	r2, r2, #8
100032a2:	3508      	adds	r5, #8
100032a4:	0b1c      	lsrs	r4, r3, #12
100032a6:	d104      	bne.n	100032b2 <y64_x48+0x28>
100032a8:	011b      	lsls	r3, r3, #4
100032aa:	0f16      	lsrs	r6, r2, #28
100032ac:	4333      	orrs	r3, r6
100032ae:	0112      	lsls	r2, r2, #4
100032b0:	3504      	adds	r5, #4
100032b2:	0b9c      	lsrs	r4, r3, #14
100032b4:	d104      	bne.n	100032c0 <y64_x48+0x36>
100032b6:	009b      	lsls	r3, r3, #2
100032b8:	0f96      	lsrs	r6, r2, #30
100032ba:	4333      	orrs	r3, r6
100032bc:	0092      	lsls	r2, r2, #2
100032be:	3502      	adds	r5, #2
100032c0:	0bdc      	lsrs	r4, r3, #15
100032c2:	d102      	bne.n	100032ca <y64_x48+0x40>
100032c4:	1892      	adds	r2, r2, r2
100032c6:	415b      	adcs	r3, r3
100032c8:	3501      	adds	r5, #1
100032ca:	001c      	movs	r4, r3
100032cc:	1897      	adds	r7, r2, r2
100032ce:	4164      	adcs	r4, r4
100032d0:	3401      	adds	r4, #1
100032d2:	4f46      	ldr	r7, [pc, #280]	; (100033ec <y64_x64+0x58>)
100032d4:	667c      	str	r4, [r7, #100]	; 0x64
100032d6:	4c46      	ldr	r4, [pc, #280]	; (100033f0 <y64_x64+0x5c>)
100032d8:	663c      	str	r4, [r7, #96]	; 0x60
100032da:	0c0e      	lsrs	r6, r1, #16
100032dc:	e7ff      	b.n	100032de <y64_x48+0x54>
100032de:	e7ff      	b.n	100032e0 <y64_x48+0x56>
100032e0:	e7ff      	b.n	100032e2 <y64_x48+0x58>
100032e2:	46c0      	nop			; (mov r8, r8)
100032e4:	6f3c      	ldr	r4, [r7, #112]	; 0x70
100032e6:	4366      	muls	r6, r4
100032e8:	0c36      	lsrs	r6, r6, #16
100032ea:	0377      	lsls	r7, r6, #13
100032ec:	46be      	mov	lr, r7
100032ee:	b297      	uxth	r7, r2
100032f0:	4377      	muls	r7, r6
100032f2:	1bc0      	subs	r0, r0, r7
100032f4:	d200      	bcs.n	100032f8 <y64_x48+0x6e>
100032f6:	3901      	subs	r1, #1
100032f8:	1bc0      	subs	r0, r0, r7
100032fa:	d200      	bcs.n	100032fe <y64_x48+0x74>
100032fc:	3901      	subs	r1, #1
100032fe:	b29f      	uxth	r7, r3
10003300:	4377      	muls	r7, r6
10003302:	1bc9      	subs	r1, r1, r7
10003304:	1bc9      	subs	r1, r1, r7
10003306:	0c17      	lsrs	r7, r2, #16
10003308:	4377      	muls	r7, r6
1000330a:	047e      	lsls	r6, r7, #17
1000330c:	0bff      	lsrs	r7, r7, #15
1000330e:	1b80      	subs	r0, r0, r6
10003310:	41b9      	sbcs	r1, r7
10003312:	08ce      	lsrs	r6, r1, #3
10003314:	4366      	muls	r6, r4
10003316:	0c36      	lsrs	r6, r6, #16
10003318:	2d0c      	cmp	r5, #12
1000331a:	db33      	blt.n	10003384 <last1>
1000331c:	44b6      	add	lr, r6
1000331e:	0b12      	lsrs	r2, r2, #12
10003320:	051f      	lsls	r7, r3, #20
10003322:	433a      	orrs	r2, r7
10003324:	0b1b      	lsrs	r3, r3, #12
10003326:	b297      	uxth	r7, r2
10003328:	4377      	muls	r7, r6
1000332a:	1bc0      	subs	r0, r0, r7
1000332c:	d200      	bcs.n	10003330 <y64_x48+0xa6>
1000332e:	3901      	subs	r1, #1
10003330:	b29f      	uxth	r7, r3
10003332:	4377      	muls	r7, r6
10003334:	1bc9      	subs	r1, r1, r7
10003336:	0c17      	lsrs	r7, r2, #16
10003338:	4377      	muls	r7, r6
1000333a:	043e      	lsls	r6, r7, #16
1000333c:	0c3f      	lsrs	r7, r7, #16
1000333e:	1b80      	subs	r0, r0, r6
10003340:	41b9      	sbcs	r1, r7
10003342:	0d86      	lsrs	r6, r0, #22
10003344:	028f      	lsls	r7, r1, #10
10003346:	433e      	orrs	r6, r7
10003348:	4366      	muls	r6, r4
1000334a:	2729      	movs	r7, #41	; 0x29
1000334c:	1b7f      	subs	r7, r7, r5
1000334e:	40fe      	lsrs	r6, r7
10003350:	3d0c      	subs	r5, #12
10003352:	4677      	mov	r7, lr
10003354:	40af      	lsls	r7, r5
10003356:	19bf      	adds	r7, r7, r6
10003358:	bc30      	pop	{r4, r5}
1000335a:	b2a2      	uxth	r2, r4
1000335c:	b2ab      	uxth	r3, r5
1000335e:	4372      	muls	r2, r6
10003360:	4373      	muls	r3, r6
10003362:	1a80      	subs	r0, r0, r2
10003364:	4199      	sbcs	r1, r3
10003366:	0c22      	lsrs	r2, r4, #16
10003368:	4372      	muls	r2, r6
1000336a:	0c13      	lsrs	r3, r2, #16
1000336c:	0412      	lsls	r2, r2, #16
1000336e:	1a80      	subs	r0, r0, r2
10003370:	4199      	sbcs	r1, r3
10003372:	0002      	movs	r2, r0
10003374:	000b      	movs	r3, r1
10003376:	3701      	adds	r7, #1
10003378:	1b00      	subs	r0, r0, r4
1000337a:	41a9      	sbcs	r1, r5
1000337c:	d2f9      	bcs.n	10003372 <y64_x48+0xe8>
1000337e:	1e78      	subs	r0, r7, #1
10003380:	2100      	movs	r1, #0
10003382:	bdf0      	pop	{r4, r5, r6, r7, pc}

10003384 <last1>:
10003384:	270c      	movs	r7, #12
10003386:	1b7f      	subs	r7, r7, r5
10003388:	40fe      	lsrs	r6, r7
1000338a:	4677      	mov	r7, lr
1000338c:	0b7f      	lsrs	r7, r7, #13
1000338e:	40af      	lsls	r7, r5
10003390:	19ff      	adds	r7, r7, r7
10003392:	e7e0      	b.n	10003356 <y64_x48+0xcc>

10003394 <y64_x64>:
10003394:	2400      	movs	r4, #0
10003396:	1c5d      	adds	r5, r3, #1
10003398:	d007      	beq.n	100033aa <y64_x64+0x16>
1000339a:	4f14      	ldr	r7, [pc, #80]	; (100033ec <y64_x64+0x58>)
1000339c:	667d      	str	r5, [r7, #100]	; 0x64
1000339e:	6639      	str	r1, [r7, #96]	; 0x60
100033a0:	e7ff      	b.n	100033a2 <y64_x64+0xe>
100033a2:	e7ff      	b.n	100033a4 <y64_x64+0x10>
100033a4:	e7ff      	b.n	100033a6 <y64_x64+0x12>
100033a6:	e7ff      	b.n	100033a8 <y64_x64+0x14>
100033a8:	6f3c      	ldr	r4, [r7, #112]	; 0x70
100033aa:	b295      	uxth	r5, r2
100033ac:	b29e      	uxth	r6, r3
100033ae:	4365      	muls	r5, r4
100033b0:	4366      	muls	r6, r4
100033b2:	1b40      	subs	r0, r0, r5
100033b4:	41b1      	sbcs	r1, r6
100033b6:	0c15      	lsrs	r5, r2, #16
100033b8:	0c1e      	lsrs	r6, r3, #16
100033ba:	4365      	muls	r5, r4
100033bc:	4366      	muls	r6, r4
100033be:	0436      	lsls	r6, r6, #16
100033c0:	0c2f      	lsrs	r7, r5, #16
100033c2:	433e      	orrs	r6, r7
100033c4:	042d      	lsls	r5, r5, #16
100033c6:	1b40      	subs	r0, r0, r5
100033c8:	41b1      	sbcs	r1, r6
100033ca:	4299      	cmp	r1, r3
100033cc:	d204      	bcs.n	100033d8 <y64_x64+0x44>
100033ce:	0002      	movs	r2, r0
100033d0:	000b      	movs	r3, r1
100033d2:	0020      	movs	r0, r4
100033d4:	2100      	movs	r1, #0
100033d6:	bdf0      	pop	{r4, r5, r6, r7, pc}
100033d8:	d101      	bne.n	100033de <y64_x64+0x4a>
100033da:	4290      	cmp	r0, r2
100033dc:	d3f7      	bcc.n	100033ce <y64_x64+0x3a>
100033de:	1a80      	subs	r0, r0, r2
100033e0:	4199      	sbcs	r1, r3
100033e2:	3401      	adds	r4, #1
100033e4:	4299      	cmp	r1, r3
100033e6:	d3f2      	bcc.n	100033ce <y64_x64+0x3a>
100033e8:	e7f6      	b.n	100033d8 <y64_x64+0x44>
100033ea:	0000      	.short	0x0000
100033ec:	d0000000 	.word	0xd0000000
100033f0:	ffffffff 	.word	0xffffffff

100033f4 <__wrap___aeabi_drsub>:
100033f4:	4048      	eors	r0, r1
100033f6:	4041      	eors	r1, r0
100033f8:	4048      	eors	r0, r1

100033fa <__wrap___aeabi_dsub>:
100033fa:	b418      	push	{r3, r4}
100033fc:	4b11      	ldr	r3, [pc, #68]	; (10003444 <__wrap___aeabi_dmul+0x14>)
100033fe:	685b      	ldr	r3, [r3, #4]
10003400:	46fc      	mov	ip, pc
10003402:	9301      	str	r3, [sp, #4]
10003404:	bd08      	pop	{r3, pc}
10003406:	df04      	.short	0xdf04
10003408:	1000367f 	.word	0x1000367f

1000340c <__wrap___aeabi_dadd>:
1000340c:	b418      	push	{r3, r4}
1000340e:	4b0d      	ldr	r3, [pc, #52]	; (10003444 <__wrap___aeabi_dmul+0x14>)
10003410:	681b      	ldr	r3, [r3, #0]
10003412:	46fc      	mov	ip, pc
10003414:	9301      	str	r3, [sp, #4]
10003416:	bd08      	pop	{r3, pc}
10003418:	3689df00 	.word	0x3689df00
1000341c:	1000      	.short	0x1000

1000341e <__wrap___aeabi_ddiv>:
1000341e:	b418      	push	{r3, r4}
10003420:	4b08      	ldr	r3, [pc, #32]	; (10003444 <__wrap___aeabi_dmul+0x14>)
10003422:	68db      	ldr	r3, [r3, #12]
10003424:	46fc      	mov	ip, pc
10003426:	9301      	str	r3, [sp, #4]
10003428:	bd08      	pop	{r3, pc}
1000342a:	df0c      	.short	0xdf0c
1000342c:	10003941 	.word	0x10003941

10003430 <__wrap___aeabi_dmul>:
10003430:	b418      	push	{r3, r4}
10003432:	4b04      	ldr	r3, [pc, #16]	; (10003444 <__wrap___aeabi_dmul+0x14>)
10003434:	689b      	ldr	r3, [r3, #8]
10003436:	46fc      	mov	ip, pc
10003438:	9301      	str	r3, [sp, #4]
1000343a:	bd08      	pop	{r3, pc}
1000343c:	37e5df08 	.word	0x37e5df08
10003440:	00001000 	.word	0x00001000
10003444:	20000b38 	.word	0x20000b38

10003448 <__wrap___aeabi_cdrcmple>:
10003448:	b5ff      	push	{r0, r1, r2, r3, r4, r5, r6, r7, lr}
1000344a:	4050      	eors	r0, r2
1000344c:	4042      	eors	r2, r0
1000344e:	4050      	eors	r0, r2
10003450:	4059      	eors	r1, r3
10003452:	404b      	eors	r3, r1
10003454:	4059      	eors	r1, r3
10003456:	e000      	b.n	1000345a <__aeabi_dfcmple_guts>

10003458 <__wrap___aeabi_cdcmpeq>:
10003458:	b5ff      	push	{r0, r1, r2, r3, r4, r5, r6, r7, lr}

1000345a <__aeabi_dfcmple_guts>:
1000345a:	4f15      	ldr	r7, [pc, #84]	; (100034b0 <__aeabi_dfcmple_guts+0x56>)
1000345c:	004c      	lsls	r4, r1, #1
1000345e:	0d64      	lsrs	r4, r4, #21
10003460:	d003      	beq.n	1000346a <__aeabi_dfcmple_guts+0x10>
10003462:	42bc      	cmp	r4, r7
10003464:	d104      	bne.n	10003470 <__aeabi_dfcmple_guts+0x16>
10003466:	030c      	lsls	r4, r1, #12
10003468:	d814      	bhi.n	10003494 <__aeabi_dfcmple_guts+0x3a>
1000346a:	2000      	movs	r0, #0
1000346c:	0d09      	lsrs	r1, r1, #20
1000346e:	0509      	lsls	r1, r1, #20
10003470:	005c      	lsls	r4, r3, #1
10003472:	0d64      	lsrs	r4, r4, #21
10003474:	d003      	beq.n	1000347e <__aeabi_dfcmple_guts+0x24>
10003476:	42bc      	cmp	r4, r7
10003478:	d104      	bne.n	10003484 <__aeabi_dfcmple_guts+0x2a>
1000347a:	031c      	lsls	r4, r3, #12
1000347c:	d80a      	bhi.n	10003494 <__aeabi_dfcmple_guts+0x3a>
1000347e:	2200      	movs	r2, #0
10003480:	0d1b      	lsrs	r3, r3, #20
10003482:	051b      	lsls	r3, r3, #20
10003484:	2601      	movs	r6, #1
10003486:	404b      	eors	r3, r1
10003488:	d409      	bmi.n	1000349e <__aeabi_dfcmple_guts+0x44>
1000348a:	404b      	eors	r3, r1
1000348c:	d503      	bpl.n	10003496 <__aeabi_dfcmple_guts+0x3c>
1000348e:	428b      	cmp	r3, r1
10003490:	d100      	bne.n	10003494 <__aeabi_dfcmple_guts+0x3a>
10003492:	4282      	cmp	r2, r0
10003494:	bdff      	pop	{r0, r1, r2, r3, r4, r5, r6, r7, pc}
10003496:	4299      	cmp	r1, r3
10003498:	d1fc      	bne.n	10003494 <__aeabi_dfcmple_guts+0x3a>
1000349a:	4290      	cmp	r0, r2
1000349c:	bdff      	pop	{r0, r1, r2, r3, r4, r5, r6, r7, pc}
1000349e:	430b      	orrs	r3, r1
100034a0:	18db      	adds	r3, r3, r3
100034a2:	4303      	orrs	r3, r0
100034a4:	4313      	orrs	r3, r2
100034a6:	d0f5      	beq.n	10003494 <__aeabi_dfcmple_guts+0x3a>
100034a8:	43c9      	mvns	r1, r1
100034aa:	1849      	adds	r1, r1, r1
100034ac:	bdff      	pop	{r0, r1, r2, r3, r4, r5, r6, r7, pc}
100034ae:	0000      	.short	0x0000
100034b0:	000007ff 	.word	0x000007ff

100034b4 <__wrap___aeabi_dcmplt>:
100034b4:	b500      	push	{lr}
100034b6:	f7ff ffcf 	bl	10003458 <__wrap___aeabi_cdcmpeq>
100034ba:	4180      	sbcs	r0, r0
100034bc:	bd00      	pop	{pc}
100034be:	46c0      	nop			; (mov r8, r8)

100034c0 <__wrap___aeabi_dcmple>:
100034c0:	b500      	push	{lr}
100034c2:	f7ff ffc9 	bl	10003458 <__wrap___aeabi_cdcmpeq>
100034c6:	d901      	bls.n	100034cc <__wrap___aeabi_dcmple+0xc>
100034c8:	2000      	movs	r0, #0
100034ca:	bd00      	pop	{pc}
100034cc:	2001      	movs	r0, #1
100034ce:	bd00      	pop	{pc}

100034d0 <__wrap___aeabi_dcmpge>:
100034d0:	b500      	push	{lr}
100034d2:	f7ff ffb9 	bl	10003448 <__wrap___aeabi_cdrcmple>
100034d6:	d901      	bls.n	100034dc <__wrap___aeabi_dcmpge+0xc>
100034d8:	2000      	movs	r0, #0
100034da:	bd00      	pop	{pc}
100034dc:	2001      	movs	r0, #1
100034de:	bd00      	pop	{pc}

100034e0 <__wrap___aeabi_dcmpgt>:
100034e0:	b500      	push	{lr}
100034e2:	f7ff ffb1 	bl	10003448 <__wrap___aeabi_cdrcmple>
100034e6:	4180      	sbcs	r0, r0
100034e8:	bd00      	pop	{pc}

100034ea <__wrap___aeabi_dcmpun>:
100034ea:	2001      	movs	r0, #1
100034ec:	0540      	lsls	r0, r0, #21
100034ee:	004a      	lsls	r2, r1, #1
100034f0:	1812      	adds	r2, r2, r0
100034f2:	d804      	bhi.n	100034fe <__wrap___aeabi_dcmpun+0x14>
100034f4:	005a      	lsls	r2, r3, #1
100034f6:	1812      	adds	r2, r2, r0
100034f8:	d801      	bhi.n	100034fe <__wrap___aeabi_dcmpun+0x14>
100034fa:	2000      	movs	r0, #0
100034fc:	4770      	bx	lr
100034fe:	2001      	movs	r0, #1
10003500:	4770      	bx	lr
10003502:	2000      	movs	r0, #0
10003504:	4770      	bx	lr
	...

10003508 <__wrap___aeabi_ui2d>:
10003508:	2100      	movs	r1, #0
1000350a:	2800      	cmp	r0, #0
1000350c:	d105      	bne.n	1000351a <__wrap___aeabi_i2d+0xa>
1000350e:	4770      	bx	lr

10003510 <__wrap___aeabi_i2d>:
10003510:	17c1      	asrs	r1, r0, #31
10003512:	4048      	eors	r0, r1
10003514:	1a40      	subs	r0, r0, r1
10003516:	d0fa      	beq.n	1000350e <__wrap___aeabi_ui2d+0x6>
10003518:	07c9      	lsls	r1, r1, #31
1000351a:	b513      	push	{r0, r1, r4, lr}
1000351c:	4b06      	ldr	r3, [pc, #24]	; (10003538 <__wrap___aeabi_i2d+0x28>)
1000351e:	681b      	ldr	r3, [r3, #0]
10003520:	4798      	blx	r3
10003522:	bc0c      	pop	{r2, r3}
10003524:	1c44      	adds	r4, r0, #1
10003526:	40a2      	lsls	r2, r4
10003528:	0510      	lsls	r0, r2, #20
1000352a:	0b12      	lsrs	r2, r2, #12
1000352c:	4903      	ldr	r1, [pc, #12]	; (1000353c <__wrap___aeabi_i2d+0x2c>)
1000352e:	1b09      	subs	r1, r1, r4
10003530:	0509      	lsls	r1, r1, #20
10003532:	4319      	orrs	r1, r3
10003534:	4311      	orrs	r1, r2
10003536:	bd10      	pop	{r4, pc}
10003538:	20000d38 	.word	0x20000d38
1000353c:	0000041f 	.word	0x0000041f

10003540 <__wrap___aeabi_d2iz>:
10003540:	b510      	push	{r4, lr}
10003542:	004c      	lsls	r4, r1, #1
10003544:	0d62      	lsrs	r2, r4, #21
10003546:	2380      	movs	r3, #128	; 0x80
10003548:	18d2      	adds	r2, r2, r3
1000354a:	00db      	lsls	r3, r3, #3
1000354c:	1ad2      	subs	r2, r2, r3
1000354e:	055b      	lsls	r3, r3, #21
10003550:	2a7e      	cmp	r2, #126	; 0x7e
10003552:	dd10      	ble.n	10003576 <__wrap___aeabi_d2iz+0x36>
10003554:	3a9e      	subs	r2, #158	; 0x9e
10003556:	da13      	bge.n	10003580 <__wrap___aeabi_d2iz+0x40>
10003558:	17cc      	asrs	r4, r1, #31
1000355a:	0309      	lsls	r1, r1, #12
1000355c:	0849      	lsrs	r1, r1, #1
1000355e:	4319      	orrs	r1, r3
10003560:	4252      	negs	r2, r2
10003562:	40d1      	lsrs	r1, r2
10003564:	0064      	lsls	r4, r4, #1
10003566:	3401      	adds	r4, #1
10003568:	3215      	adds	r2, #21
1000356a:	2a20      	cmp	r2, #32
1000356c:	da05      	bge.n	1000357a <__wrap___aeabi_d2iz+0x3a>
1000356e:	40d0      	lsrs	r0, r2
10003570:	4308      	orrs	r0, r1
10003572:	4360      	muls	r0, r4
10003574:	bd10      	pop	{r4, pc}
10003576:	2000      	movs	r0, #0
10003578:	bd10      	pop	{r4, pc}
1000357a:	4608      	mov	r0, r1
1000357c:	4360      	muls	r0, r4
1000357e:	bd10      	pop	{r4, pc}
10003580:	0fc8      	lsrs	r0, r1, #31
10003582:	18c0      	adds	r0, r0, r3
10003584:	3801      	subs	r0, #1
10003586:	bd10      	pop	{r4, pc}

10003588 <__wrap___aeabi_d2uiz>:
10003588:	b418      	push	{r3, r4}
1000358a:	4b04      	ldr	r3, [pc, #16]	; (1000359c <__wrap___aeabi_d2uiz+0x14>)
1000358c:	6a5b      	ldr	r3, [r3, #36]	; 0x24
1000358e:	46fc      	mov	ip, pc
10003590:	9301      	str	r3, [sp, #4]
10003592:	bd08      	pop	{r3, pc}
10003594:	3b6ddf24 	.word	0x3b6ddf24
10003598:	00001000 	.word	0x00001000
1000359c:	20000b38 	.word	0x20000b38

100035a0 <__aeabi_double_init>:
100035a0:	2313      	movs	r3, #19
100035a2:	b570      	push	{r4, r5, r6, lr}
100035a4:	781d      	ldrb	r5, [r3, #0]
100035a6:	2d01      	cmp	r5, #1
100035a8:	d010      	beq.n	100035cc <__aeabi_double_init+0x2c>
100035aa:	dd0b      	ble.n	100035c4 <__aeabi_double_init+0x24>
100035ac:	4824      	ldr	r0, [pc, #144]	; (10003640 <__aeabi_double_init+0xa0>)
100035ae:	f7ff fc8d 	bl	10002ecc <rom_data_lookup>
100035b2:	4c24      	ldr	r4, [pc, #144]	; (10003644 <__aeabi_double_init+0xa4>)
100035b4:	0001      	movs	r1, r0
100035b6:	2280      	movs	r2, #128	; 0x80
100035b8:	0020      	movs	r0, r4
100035ba:	f000 fb91 	bl	10003ce0 <__wrap___aeabi_memcpy>
100035be:	2d02      	cmp	r5, #2
100035c0:	d001      	beq.n	100035c6 <__aeabi_double_init+0x26>
100035c2:	bd70      	pop	{r4, r5, r6, pc}
100035c4:	4c1f      	ldr	r4, [pc, #124]	; (10003644 <__aeabi_double_init+0xa4>)
100035c6:	4a20      	ldr	r2, [pc, #128]	; (10003648 <__aeabi_double_init+0xa8>)
100035c8:	64a2      	str	r2, [r4, #72]	; 0x48
100035ca:	e7fa      	b.n	100035c2 <__aeabi_double_init+0x22>
100035cc:	002e      	movs	r6, r5
100035ce:	4c1d      	ldr	r4, [pc, #116]	; (10003644 <__aeabi_double_init+0xa4>)
100035d0:	4a1d      	ldr	r2, [pc, #116]	; (10003648 <__aeabi_double_init+0xa8>)
100035d2:	08a3      	lsrs	r3, r4, #2
100035d4:	425b      	negs	r3, r3
100035d6:	401e      	ands	r6, r3
100035d8:	421d      	tst	r5, r3
100035da:	d02f      	beq.n	1000363c <__aeabi_double_init+0x9c>
100035dc:	0033      	movs	r3, r6
100035de:	6022      	str	r2, [r4, #0]
100035e0:	2020      	movs	r0, #32
100035e2:	00b1      	lsls	r1, r6, #2
100035e4:	1861      	adds	r1, r4, r1
100035e6:	1b80      	subs	r0, r0, r6
100035e8:	600a      	str	r2, [r1, #0]
100035ea:	604a      	str	r2, [r1, #4]
100035ec:	608a      	str	r2, [r1, #8]
100035ee:	60ca      	str	r2, [r1, #12]
100035f0:	610a      	str	r2, [r1, #16]
100035f2:	614a      	str	r2, [r1, #20]
100035f4:	618a      	str	r2, [r1, #24]
100035f6:	61ca      	str	r2, [r1, #28]
100035f8:	620a      	str	r2, [r1, #32]
100035fa:	624a      	str	r2, [r1, #36]	; 0x24
100035fc:	628a      	str	r2, [r1, #40]	; 0x28
100035fe:	62ca      	str	r2, [r1, #44]	; 0x2c
10003600:	630a      	str	r2, [r1, #48]	; 0x30
10003602:	634a      	str	r2, [r1, #52]	; 0x34
10003604:	638a      	str	r2, [r1, #56]	; 0x38
10003606:	63ca      	str	r2, [r1, #60]	; 0x3c
10003608:	640a      	str	r2, [r1, #64]	; 0x40
1000360a:	644a      	str	r2, [r1, #68]	; 0x44
1000360c:	648a      	str	r2, [r1, #72]	; 0x48
1000360e:	64ca      	str	r2, [r1, #76]	; 0x4c
10003610:	650a      	str	r2, [r1, #80]	; 0x50
10003612:	654a      	str	r2, [r1, #84]	; 0x54
10003614:	658a      	str	r2, [r1, #88]	; 0x58
10003616:	65ca      	str	r2, [r1, #92]	; 0x5c
10003618:	660a      	str	r2, [r1, #96]	; 0x60
1000361a:	664a      	str	r2, [r1, #100]	; 0x64
1000361c:	668a      	str	r2, [r1, #104]	; 0x68
1000361e:	66ca      	str	r2, [r1, #108]	; 0x6c
10003620:	670a      	str	r2, [r1, #112]	; 0x70
10003622:	674a      	str	r2, [r1, #116]	; 0x74
10003624:	0840      	lsrs	r0, r0, #1
10003626:	2810      	cmp	r0, #16
10003628:	d103      	bne.n	10003632 <__aeabi_double_init+0x92>
1000362a:	678a      	str	r2, [r1, #120]	; 0x78
1000362c:	67ca      	str	r2, [r1, #124]	; 0x7c
1000362e:	64a2      	str	r2, [r4, #72]	; 0x48
10003630:	e7c7      	b.n	100035c2 <__aeabi_double_init+0x22>
10003632:	331e      	adds	r3, #30
10003634:	009b      	lsls	r3, r3, #2
10003636:	50e2      	str	r2, [r4, r3]
10003638:	64a2      	str	r2, [r4, #72]	; 0x48
1000363a:	e7c2      	b.n	100035c2 <__aeabi_double_init+0x22>
1000363c:	2300      	movs	r3, #0
1000363e:	e7cf      	b.n	100035e0 <__aeabi_double_init+0x40>
10003640:	00004453 	.word	0x00004453
10003644:	20000b38 	.word	0x20000b38
10003648:	1000364d 	.word	0x1000364d

1000364c <double_table_shim_on_use_helper>:
1000364c:	b507      	push	{r0, r1, r2, lr}
1000364e:	4660      	mov	r0, ip
10003650:	8801      	ldrh	r1, [r0, #0]
10003652:	0a0a      	lsrs	r2, r1, #8
10003654:	3002      	adds	r0, #2
10003656:	2adf      	cmp	r2, #223	; 0xdf
10003658:	d1fa      	bne.n	10003650 <double_table_shim_on_use_helper+0x4>
1000365a:	b2c9      	uxtb	r1, r1
1000365c:	0882      	lsrs	r2, r0, #2
1000365e:	d304      	bcc.n	1000366a <double_table_shim_on_use_helper+0x1e>
10003660:	8802      	ldrh	r2, [r0, #0]
10003662:	8840      	ldrh	r0, [r0, #2]
10003664:	0400      	lsls	r0, r0, #16
10003666:	4310      	orrs	r0, r2
10003668:	e000      	b.n	1000366c <double_table_shim_on_use_helper+0x20>
1000366a:	6800      	ldr	r0, [r0, #0]
1000366c:	4a01      	ldr	r2, [pc, #4]	; (10003674 <double_table_shim_on_use_helper+0x28>)
1000366e:	5050      	str	r0, [r2, r1]
10003670:	9003      	str	r0, [sp, #12]
10003672:	bd07      	pop	{r0, r1, r2, pc}
10003674:	20000b38 	.word	0x20000b38

10003678 <drsub_shim>:
10003678:	b40f      	push	{r0, r1, r2, r3}
1000367a:	bc03      	pop	{r0, r1}
1000367c:	bc0c      	pop	{r2, r3}

1000367e <dsub_shim>:
1000367e:	b5f0      	push	{r4, r5, r6, r7, lr}
10003680:	2401      	movs	r4, #1
10003682:	07e4      	lsls	r4, r4, #31
10003684:	4063      	eors	r3, r4
10003686:	e000      	b.n	1000368a <da_entry>

10003688 <dadd_shim>:
10003688:	b5f0      	push	{r4, r5, r6, r7, lr}

1000368a <da_entry>:
1000368a:	0d0c      	lsrs	r4, r1, #20
1000368c:	0fcf      	lsrs	r7, r1, #31
1000368e:	1e66      	subs	r6, r4, #1
10003690:	0536      	lsls	r6, r6, #20
10003692:	1b89      	subs	r1, r1, r6
10003694:	0564      	lsls	r4, r4, #21
10003696:	d303      	bcc.n	100036a0 <l7_1>
10003698:	43c9      	mvns	r1, r1
1000369a:	4240      	negs	r0, r0
1000369c:	d300      	bcc.n	100036a0 <l7_1>
1000369e:	3101      	adds	r1, #1

100036a0 <l7_1>:
100036a0:	0d64      	lsrs	r4, r4, #21
100036a2:	d003      	beq.n	100036ac <l7_2>
100036a4:	1c66      	adds	r6, r4, #1
100036a6:	0af6      	lsrs	r6, r6, #11
100036a8:	d007      	beq.n	100036ba <l7_3>
100036aa:	1be4      	subs	r4, r4, r7

100036ac <l7_2>:
100036ac:	2000      	movs	r0, #0
100036ae:	007f      	lsls	r7, r7, #1
100036b0:	1c79      	adds	r1, r7, #1
100036b2:	0789      	lsls	r1, r1, #30
100036b4:	1289      	asrs	r1, r1, #10
100036b6:	3c80      	subs	r4, #128	; 0x80
100036b8:	0324      	lsls	r4, r4, #12

100036ba <l7_3>:
100036ba:	0d1d      	lsrs	r5, r3, #20
100036bc:	0fdf      	lsrs	r7, r3, #31
100036be:	1e6e      	subs	r6, r5, #1
100036c0:	0536      	lsls	r6, r6, #20
100036c2:	1b9b      	subs	r3, r3, r6
100036c4:	056d      	lsls	r5, r5, #21
100036c6:	d303      	bcc.n	100036d0 <l8_1>
100036c8:	43db      	mvns	r3, r3
100036ca:	4252      	negs	r2, r2
100036cc:	d300      	bcc.n	100036d0 <l8_1>
100036ce:	3301      	adds	r3, #1

100036d0 <l8_1>:
100036d0:	0d6d      	lsrs	r5, r5, #21
100036d2:	d003      	beq.n	100036dc <l8_2>
100036d4:	1c6e      	adds	r6, r5, #1
100036d6:	0af6      	lsrs	r6, r6, #11
100036d8:	d007      	beq.n	100036ea <l8_3>
100036da:	1bed      	subs	r5, r5, r7

100036dc <l8_2>:
100036dc:	2200      	movs	r2, #0
100036de:	007f      	lsls	r7, r7, #1
100036e0:	1c7b      	adds	r3, r7, #1
100036e2:	079b      	lsls	r3, r3, #30
100036e4:	129b      	asrs	r3, r3, #10
100036e6:	3d80      	subs	r5, #128	; 0x80
100036e8:	032d      	lsls	r5, r5, #12

100036ea <l8_3>:
100036ea:	1b2f      	subs	r7, r5, r4
100036ec:	1b66      	subs	r6, r4, r5
100036ee:	d458      	bmi.n	100037a2 <da_ygtx>
100036f0:	46a4      	mov	ip, r4
100036f2:	2e20      	cmp	r6, #32
100036f4:	da46      	bge.n	10003784 <da_xrgty>
100036f6:	3720      	adds	r7, #32
100036f8:	0014      	movs	r4, r2
100036fa:	40bc      	lsls	r4, r7

100036fc <da_xgty0>:
100036fc:	001d      	movs	r5, r3
100036fe:	40bd      	lsls	r5, r7
10003700:	40f2      	lsrs	r2, r6
10003702:	4133      	asrs	r3, r6
10003704:	432a      	orrs	r2, r5

10003706 <da_add>:
10003706:	1880      	adds	r0, r0, r2
10003708:	4159      	adcs	r1, r3

1000370a <da_pack>:
1000370a:	0fcb      	lsrs	r3, r1, #31
1000370c:	d005      	beq.n	1000371a <da_pack+0x10>
1000370e:	43c9      	mvns	r1, r1
10003710:	43c0      	mvns	r0, r0
10003712:	2200      	movs	r2, #0
10003714:	4264      	negs	r4, r4
10003716:	4150      	adcs	r0, r2
10003718:	4151      	adcs	r1, r2
1000371a:	4662      	mov	r2, ip
1000371c:	0d4d      	lsrs	r5, r1, #21
1000371e:	d128      	bne.n	10003772 <da_0>
10003720:	0d0d      	lsrs	r5, r1, #20
10003722:	d107      	bne.n	10003734 <da_1>
10003724:	2800      	cmp	r0, #0
10003726:	d01f      	beq.n	10003768 <da_5>

10003728 <da_2>:
10003728:	1924      	adds	r4, r4, r4
1000372a:	4140      	adcs	r0, r0
1000372c:	4149      	adcs	r1, r1
1000372e:	3a01      	subs	r2, #1
10003730:	0d0d      	lsrs	r5, r1, #20
10003732:	d0f9      	beq.n	10003728 <da_2>

10003734 <da_1>:
10003734:	0064      	lsls	r4, r4, #1
10003736:	d306      	bcc.n	10003746 <da_3>

10003738 <da_4>:
10003738:	3001      	adds	r0, #1
1000373a:	d300      	bcc.n	1000373e <da_4+0x6>
1000373c:	3101      	adds	r1, #1
1000373e:	2c00      	cmp	r4, #0
10003740:	d101      	bne.n	10003746 <da_3>
10003742:	0840      	lsrs	r0, r0, #1
10003744:	0040      	lsls	r0, r0, #1

10003746 <da_3>:
10003746:	3a01      	subs	r2, #1
10003748:	d40b      	bmi.n	10003762 <da_6>
1000374a:	1c94      	adds	r4, r2, #2
1000374c:	0ae4      	lsrs	r4, r4, #11
1000374e:	d104      	bne.n	1000375a <da_7>
10003750:	0512      	lsls	r2, r2, #20
10003752:	4411      	add	r1, r2
10003754:	07db      	lsls	r3, r3, #31
10003756:	4419      	add	r1, r3
10003758:	bdf0      	pop	{r4, r5, r6, r7, pc}

1000375a <da_7>:
1000375a:	07d9      	lsls	r1, r3, #31
1000375c:	4b20      	ldr	r3, [pc, #128]	; (100037e0 <da_xmgty+0x4>)
1000375e:	4319      	orrs	r1, r3
10003760:	e000      	b.n	10003764 <da_6+0x2>

10003762 <da_6>:
10003762:	07d9      	lsls	r1, r3, #31
10003764:	2000      	movs	r0, #0
10003766:	bdf0      	pop	{r4, r5, r6, r7, pc}

10003768 <da_5>:
10003768:	2900      	cmp	r1, #0
1000376a:	d1dd      	bne.n	10003728 <da_2>
1000376c:	2c00      	cmp	r4, #0
1000376e:	d1db      	bne.n	10003728 <da_2>
10003770:	bdf0      	pop	{r4, r5, r6, r7, pc}

10003772 <da_0>:
10003772:	3201      	adds	r2, #1
10003774:	07c6      	lsls	r6, r0, #31
10003776:	0840      	lsrs	r0, r0, #1
10003778:	07cd      	lsls	r5, r1, #31
1000377a:	4328      	orrs	r0, r5
1000377c:	0849      	lsrs	r1, r1, #1
1000377e:	2e00      	cmp	r6, #0
10003780:	d0e1      	beq.n	10003746 <da_3>
10003782:	e7d9      	b.n	10003738 <da_4>

10003784 <da_xrgty>:
10003784:	2e3c      	cmp	r6, #60	; 0x3c
10003786:	da29      	bge.n	100037dc <da_xmgty>
10003788:	3e20      	subs	r6, #32
1000378a:	3740      	adds	r7, #64	; 0x40
1000378c:	0014      	movs	r4, r2
1000378e:	40bc      	lsls	r4, r7
10003790:	d000      	beq.n	10003794 <da_xrgty+0x10>
10003792:	2401      	movs	r4, #1
10003794:	40f2      	lsrs	r2, r6
10003796:	4314      	orrs	r4, r2
10003798:	001a      	movs	r2, r3
1000379a:	40bb      	lsls	r3, r7
1000379c:	431c      	orrs	r4, r3
1000379e:	17d3      	asrs	r3, r2, #31
100037a0:	e7ac      	b.n	100036fc <da_xgty0>

100037a2 <da_ygtx>:
100037a2:	46ac      	mov	ip, r5
100037a4:	2f20      	cmp	r7, #32
100037a6:	da08      	bge.n	100037ba <da_yrgtx>
100037a8:	3620      	adds	r6, #32
100037aa:	0004      	movs	r4, r0
100037ac:	40b4      	lsls	r4, r6

100037ae <da_ygtx0>:
100037ae:	000d      	movs	r5, r1
100037b0:	40b5      	lsls	r5, r6
100037b2:	40f8      	lsrs	r0, r7
100037b4:	4139      	asrs	r1, r7
100037b6:	4328      	orrs	r0, r5
100037b8:	e7a5      	b.n	10003706 <da_add>

100037ba <da_yrgtx>:
100037ba:	2f3c      	cmp	r7, #60	; 0x3c
100037bc:	da0c      	bge.n	100037d8 <da_ymgtx>
100037be:	3f20      	subs	r7, #32
100037c0:	3640      	adds	r6, #64	; 0x40
100037c2:	0004      	movs	r4, r0
100037c4:	40b4      	lsls	r4, r6
100037c6:	d000      	beq.n	100037ca <da_yrgtx+0x10>
100037c8:	2401      	movs	r4, #1
100037ca:	40f8      	lsrs	r0, r7
100037cc:	4304      	orrs	r4, r0
100037ce:	0008      	movs	r0, r1
100037d0:	40b1      	lsls	r1, r6
100037d2:	430c      	orrs	r4, r1
100037d4:	17c1      	asrs	r1, r0, #31
100037d6:	e7ea      	b.n	100037ae <da_ygtx0>

100037d8 <da_ymgtx>:
100037d8:	0010      	movs	r0, r2
100037da:	0019      	movs	r1, r3

100037dc <da_xmgty>:
100037dc:	2400      	movs	r4, #0
100037de:	e794      	b.n	1000370a <da_pack>
100037e0:	7ff00000 	.word	0x7ff00000

100037e4 <dmul_shim>:
100037e4:	b5f0      	push	{r4, r5, r6, r7, lr}
100037e6:	0d0c      	lsrs	r4, r1, #20
100037e8:	1e66      	subs	r6, r4, #1
100037ea:	0536      	lsls	r6, r6, #20
100037ec:	1b89      	subs	r1, r1, r6
100037ee:	0ae6      	lsrs	r6, r4, #11
100037f0:	0564      	lsls	r4, r4, #21
100037f2:	0d64      	lsrs	r4, r4, #21
100037f4:	d002      	beq.n	100037fc <l11_1>
100037f6:	1c65      	adds	r5, r4, #1
100037f8:	0aed      	lsrs	r5, r5, #11
100037fa:	d004      	beq.n	10003806 <l11_2>

100037fc <l11_1>:
100037fc:	2000      	movs	r0, #0
100037fe:	2101      	movs	r1, #1
10003800:	0509      	lsls	r1, r1, #20
10003802:	3c80      	subs	r4, #128	; 0x80
10003804:	0324      	lsls	r4, r4, #12

10003806 <l11_2>:
10003806:	46a4      	mov	ip, r4
10003808:	0d1c      	lsrs	r4, r3, #20
1000380a:	1e67      	subs	r7, r4, #1
1000380c:	053f      	lsls	r7, r7, #20
1000380e:	1bdb      	subs	r3, r3, r7
10003810:	0ae7      	lsrs	r7, r4, #11
10003812:	0564      	lsls	r4, r4, #21
10003814:	0d64      	lsrs	r4, r4, #21
10003816:	d002      	beq.n	1000381e <l12_1>
10003818:	1c65      	adds	r5, r4, #1
1000381a:	0aed      	lsrs	r5, r5, #11
1000381c:	d004      	beq.n	10003828 <l12_2>

1000381e <l12_1>:
1000381e:	2200      	movs	r2, #0
10003820:	2301      	movs	r3, #1
10003822:	051b      	lsls	r3, r3, #20
10003824:	3c80      	subs	r4, #128	; 0x80
10003826:	0324      	lsls	r4, r4, #12

10003828 <l12_2>:
10003828:	4077      	eors	r7, r6
1000382a:	4464      	add	r4, ip
1000382c:	b497      	push	{r0, r1, r2, r4, r7}
1000382e:	b284      	uxth	r4, r0
10003830:	b296      	uxth	r6, r2
10003832:	4374      	muls	r4, r6
10003834:	0c07      	lsrs	r7, r0, #16
10003836:	437e      	muls	r6, r7
10003838:	0c15      	lsrs	r5, r2, #16
1000383a:	436f      	muls	r7, r5
1000383c:	b280      	uxth	r0, r0
1000383e:	4368      	muls	r0, r5
10003840:	1836      	adds	r6, r6, r0
10003842:	d302      	bcc.n	1000384a <l13_1>
10003844:	2001      	movs	r0, #1
10003846:	0400      	lsls	r0, r0, #16
10003848:	183f      	adds	r7, r7, r0

1000384a <l13_1>:
1000384a:	0430      	lsls	r0, r6, #16
1000384c:	0c35      	lsrs	r5, r6, #16
1000384e:	1900      	adds	r0, r0, r4
10003850:	417d      	adcs	r5, r7
10003852:	4684      	mov	ip, r0
10003854:	b288      	uxth	r0, r1
10003856:	b29a      	uxth	r2, r3
10003858:	4350      	muls	r0, r2
1000385a:	0c0c      	lsrs	r4, r1, #16
1000385c:	4362      	muls	r2, r4
1000385e:	0c1f      	lsrs	r7, r3, #16
10003860:	437c      	muls	r4, r7
10003862:	b28e      	uxth	r6, r1
10003864:	437e      	muls	r6, r7
10003866:	1992      	adds	r2, r2, r6
10003868:	d302      	bcc.n	10003870 <l14_1>
1000386a:	2601      	movs	r6, #1
1000386c:	0436      	lsls	r6, r6, #16
1000386e:	19a4      	adds	r4, r4, r6

10003870 <l14_1>:
10003870:	0416      	lsls	r6, r2, #16
10003872:	0c17      	lsrs	r7, r2, #16
10003874:	1836      	adds	r6, r6, r0
10003876:	4167      	adcs	r7, r4
10003878:	bc01      	pop	{r0}
1000387a:	b281      	uxth	r1, r0
1000387c:	b29a      	uxth	r2, r3
1000387e:	4351      	muls	r1, r2
10003880:	0c04      	lsrs	r4, r0, #16
10003882:	4362      	muls	r2, r4
10003884:	0c1b      	lsrs	r3, r3, #16
10003886:	435c      	muls	r4, r3
10003888:	b280      	uxth	r0, r0
1000388a:	4358      	muls	r0, r3
1000388c:	1812      	adds	r2, r2, r0
1000388e:	d302      	bcc.n	10003896 <l15_1>
10003890:	2001      	movs	r0, #1
10003892:	0400      	lsls	r0, r0, #16
10003894:	1824      	adds	r4, r4, r0

10003896 <l15_1>:
10003896:	0410      	lsls	r0, r2, #16
10003898:	0c13      	lsrs	r3, r2, #16
1000389a:	1840      	adds	r0, r0, r1
1000389c:	4163      	adcs	r3, r4
1000389e:	182d      	adds	r5, r5, r0
100038a0:	415e      	adcs	r6, r3
100038a2:	2000      	movs	r0, #0
100038a4:	4147      	adcs	r7, r0
100038a6:	bc06      	pop	{r1, r2}
100038a8:	b288      	uxth	r0, r1
100038aa:	b293      	uxth	r3, r2
100038ac:	4358      	muls	r0, r3
100038ae:	0c0c      	lsrs	r4, r1, #16
100038b0:	4363      	muls	r3, r4
100038b2:	0c12      	lsrs	r2, r2, #16
100038b4:	4354      	muls	r4, r2
100038b6:	b289      	uxth	r1, r1
100038b8:	4351      	muls	r1, r2
100038ba:	185b      	adds	r3, r3, r1
100038bc:	d302      	bcc.n	100038c4 <l16_1>
100038be:	2101      	movs	r1, #1
100038c0:	0409      	lsls	r1, r1, #16
100038c2:	1864      	adds	r4, r4, r1

100038c4 <l16_1>:
100038c4:	0419      	lsls	r1, r3, #16
100038c6:	0c1a      	lsrs	r2, r3, #16
100038c8:	1809      	adds	r1, r1, r0
100038ca:	4162      	adcs	r2, r4
100038cc:	186d      	adds	r5, r5, r1
100038ce:	4156      	adcs	r6, r2
100038d0:	2000      	movs	r0, #0
100038d2:	4147      	adcs	r7, r0
100038d4:	bc18      	pop	{r3, r4}
100038d6:	02f9      	lsls	r1, r7, #11
100038d8:	0d72      	lsrs	r2, r6, #21
100038da:	4311      	orrs	r1, r2
100038dc:	02f0      	lsls	r0, r6, #11
100038de:	0d6a      	lsrs	r2, r5, #21
100038e0:	4310      	orrs	r0, r2
100038e2:	02ed      	lsls	r5, r5, #11
100038e4:	0d0a      	lsrs	r2, r1, #20
100038e6:	d103      	bne.n	100038f0 <l16_1+0x2c>
100038e8:	196d      	adds	r5, r5, r5
100038ea:	4140      	adcs	r0, r0
100038ec:	4149      	adcs	r1, r1
100038ee:	3b01      	subs	r3, #1
100038f0:	4e12      	ldr	r6, [pc, #72]	; (1000393c <dm_1+0xa>)
100038f2:	1b9b      	subs	r3, r3, r6
100038f4:	0076      	lsls	r6, r6, #1
100038f6:	42b3      	cmp	r3, r6
100038f8:	d20e      	bcs.n	10003918 <dm_0>
100038fa:	006d      	lsls	r5, r5, #1
100038fc:	d307      	bcc.n	1000390e <l16_1+0x4a>
100038fe:	3001      	adds	r0, #1
10003900:	2600      	movs	r6, #0
10003902:	4171      	adcs	r1, r6
10003904:	4666      	mov	r6, ip
10003906:	4335      	orrs	r5, r6
10003908:	d101      	bne.n	1000390e <l16_1+0x4a>
1000390a:	0840      	lsrs	r0, r0, #1
1000390c:	0040      	lsls	r0, r0, #1
1000390e:	051b      	lsls	r3, r3, #20
10003910:	18c9      	adds	r1, r1, r3

10003912 <dm_2>:
10003912:	07e4      	lsls	r4, r4, #31
10003914:	4421      	add	r1, r4
10003916:	bdf0      	pop	{r4, r5, r6, r7, pc}

10003918 <dm_0>:
10003918:	da0b      	bge.n	10003932 <dm_1>
1000391a:	3301      	adds	r3, #1
1000391c:	d106      	bne.n	1000392c <dm_0+0x14>
1000391e:	3001      	adds	r0, #1
10003920:	d104      	bne.n	1000392c <dm_0+0x14>
10003922:	3101      	adds	r1, #1
10003924:	0d4f      	lsrs	r7, r1, #21
10003926:	d001      	beq.n	1000392c <dm_0+0x14>
10003928:	0849      	lsrs	r1, r1, #1
1000392a:	e7f2      	b.n	10003912 <dm_2>
1000392c:	07e1      	lsls	r1, r4, #31
1000392e:	2000      	movs	r0, #0
10003930:	bdf0      	pop	{r4, r5, r6, r7, pc}

10003932 <dm_1>:
10003932:	3601      	adds	r6, #1
10003934:	0531      	lsls	r1, r6, #20
10003936:	2000      	movs	r0, #0
10003938:	e7eb      	b.n	10003912 <dm_2>
1000393a:	0000      	.short	0x0000
1000393c:	000003ff 	.word	0x000003ff

10003940 <ddiv_shim>:
10003940:	b5f0      	push	{r4, r5, r6, r7, lr}

10003942 <ddiv0>:
10003942:	0d1c      	lsrs	r4, r3, #20
10003944:	1e67      	subs	r7, r4, #1
10003946:	053f      	lsls	r7, r7, #20
10003948:	1bdb      	subs	r3, r3, r7
1000394a:	0ae7      	lsrs	r7, r4, #11
1000394c:	0564      	lsls	r4, r4, #21
1000394e:	0d64      	lsrs	r4, r4, #21
10003950:	d002      	beq.n	10003958 <l19_1>
10003952:	1c66      	adds	r6, r4, #1
10003954:	0af6      	lsrs	r6, r6, #11
10003956:	d004      	beq.n	10003962 <l19_2>

10003958 <l19_1>:
10003958:	2200      	movs	r2, #0
1000395a:	2301      	movs	r3, #1
1000395c:	051b      	lsls	r3, r3, #20
1000395e:	3c80      	subs	r4, #128	; 0x80
10003960:	0324      	lsls	r4, r4, #12

10003962 <l19_2>:
10003962:	25d0      	movs	r5, #208	; 0xd0
10003964:	062d      	lsls	r5, r5, #24
10003966:	2600      	movs	r6, #0
10003968:	43f6      	mvns	r6, r6
1000396a:	662e      	str	r6, [r5, #96]	; 0x60
1000396c:	091e      	lsrs	r6, r3, #4
1000396e:	666e      	str	r6, [r5, #100]	; 0x64
10003970:	0fce      	lsrs	r6, r1, #31
10003972:	19f6      	adds	r6, r6, r7
10003974:	46b4      	mov	ip, r6
10003976:	0049      	lsls	r1, r1, #1
10003978:	0d4f      	lsrs	r7, r1, #21
1000397a:	d002      	beq.n	10003982 <l19_2+0x20>
1000397c:	1c7e      	adds	r6, r7, #1
1000397e:	0af6      	lsrs	r6, r6, #11
10003980:	d003      	beq.n	1000398a <l19_2+0x28>
10003982:	2000      	movs	r0, #0
10003984:	2100      	movs	r1, #0
10003986:	3f40      	subs	r7, #64	; 0x40
10003988:	033f      	lsls	r7, r7, #12
1000398a:	1b3e      	subs	r6, r7, r4
1000398c:	00b6      	lsls	r6, r6, #2
1000398e:	44b4      	add	ip, r6
10003990:	3f01      	subs	r7, #1
10003992:	057f      	lsls	r7, r7, #21
10003994:	1bc9      	subs	r1, r1, r7
10003996:	0849      	lsrs	r1, r1, #1
10003998:	6f2e      	ldr	r6, [r5, #112]	; 0x70
1000399a:	3601      	adds	r6, #1
1000399c:	0876      	lsrs	r6, r6, #1
1000399e:	029c      	lsls	r4, r3, #10
100039a0:	0d95      	lsrs	r5, r2, #22
100039a2:	4325      	orrs	r5, r4
100039a4:	4375      	muls	r5, r6
100039a6:	13ed      	asrs	r5, r5, #15
100039a8:	4375      	muls	r5, r6
100039aa:	13ad      	asrs	r5, r5, #14
100039ac:	3501      	adds	r5, #1
100039ae:	106d      	asrs	r5, r5, #1
100039b0:	03f6      	lsls	r6, r6, #15
100039b2:	1b76      	subs	r6, r6, r5
100039b4:	b40c      	push	{r2, r3}
100039b6:	02cc      	lsls	r4, r1, #11
100039b8:	0d45      	lsrs	r5, r0, #21
100039ba:	432c      	orrs	r4, r5
100039bc:	b2a2      	uxth	r2, r4
100039be:	b2b3      	uxth	r3, r6
100039c0:	435a      	muls	r2, r3
100039c2:	0c27      	lsrs	r7, r4, #16
100039c4:	437b      	muls	r3, r7
100039c6:	0c35      	lsrs	r5, r6, #16
100039c8:	436f      	muls	r7, r5
100039ca:	b2a4      	uxth	r4, r4
100039cc:	436c      	muls	r4, r5
100039ce:	191b      	adds	r3, r3, r4
100039d0:	d302      	bcc.n	100039d8 <l20_1>
100039d2:	2401      	movs	r4, #1
100039d4:	0424      	lsls	r4, r4, #16
100039d6:	193f      	adds	r7, r7, r4

100039d8 <l20_1>:
100039d8:	041c      	lsls	r4, r3, #16
100039da:	0c1d      	lsrs	r5, r3, #16
100039dc:	18a4      	adds	r4, r4, r2
100039de:	417d      	adcs	r5, r7
100039e0:	1924      	adds	r4, r4, r4
100039e2:	416d      	adcs	r5, r5
100039e4:	9a00      	ldr	r2, [sp, #0]
100039e6:	b291      	uxth	r1, r2
100039e8:	b2ac      	uxth	r4, r5
100039ea:	4361      	muls	r1, r4
100039ec:	0c17      	lsrs	r7, r2, #16
100039ee:	437c      	muls	r4, r7
100039f0:	0c2b      	lsrs	r3, r5, #16
100039f2:	435f      	muls	r7, r3
100039f4:	b292      	uxth	r2, r2
100039f6:	435a      	muls	r2, r3
100039f8:	18a4      	adds	r4, r4, r2
100039fa:	d302      	bcc.n	10003a02 <l21_1>
100039fc:	2201      	movs	r2, #1
100039fe:	0412      	lsls	r2, r2, #16
10003a00:	18bf      	adds	r7, r7, r2

10003a02 <l21_1>:
10003a02:	0422      	lsls	r2, r4, #16
10003a04:	0c23      	lsrs	r3, r4, #16
10003a06:	1852      	adds	r2, r2, r1
10003a08:	417b      	adcs	r3, r7
10003a0a:	9c01      	ldr	r4, [sp, #4]
10003a0c:	436c      	muls	r4, r5
10003a0e:	191b      	adds	r3, r3, r4
10003a10:	0e52      	lsrs	r2, r2, #25
10003a12:	01d9      	lsls	r1, r3, #7
10003a14:	430a      	orrs	r2, r1
10003a16:	0144      	lsls	r4, r0, #5
10003a18:	1aa0      	subs	r0, r4, r2
10003a1a:	b281      	uxth	r1, r0
10003a1c:	b2b2      	uxth	r2, r6
10003a1e:	4351      	muls	r1, r2
10003a20:	1403      	asrs	r3, r0, #16
10003a22:	435a      	muls	r2, r3
10003a24:	0c36      	lsrs	r6, r6, #16
10003a26:	4373      	muls	r3, r6
10003a28:	b287      	uxth	r7, r0
10003a2a:	4377      	muls	r7, r6
10003a2c:	17d6      	asrs	r6, r2, #31
10003a2e:	19d2      	adds	r2, r2, r7
10003a30:	2700      	movs	r7, #0
10003a32:	417e      	adcs	r6, r7
10003a34:	0436      	lsls	r6, r6, #16
10003a36:	199b      	adds	r3, r3, r6
10003a38:	0417      	lsls	r7, r2, #16
10003a3a:	0c16      	lsrs	r6, r2, #16
10003a3c:	187f      	adds	r7, r7, r1
10003a3e:	415e      	adcs	r6, r3
10003a40:	1673      	asrs	r3, r6, #25
10003a42:	18ed      	adds	r5, r5, r3
10003a44:	01f3      	lsls	r3, r6, #7
10003a46:	2600      	movs	r6, #0
10003a48:	3380      	adds	r3, #128	; 0x80
10003a4a:	4175      	adcs	r5, r6
10003a4c:	0fa9      	lsrs	r1, r5, #30
10003a4e:	d106      	bne.n	10003a5e <dd_0>
10003a50:	0064      	lsls	r4, r4, #1
10003a52:	0a69      	lsrs	r1, r5, #9
10003a54:	05e8      	lsls	r0, r5, #23
10003a56:	0a5b      	lsrs	r3, r3, #9
10003a58:	4318      	orrs	r0, r3
10003a5a:	d209      	bcs.n	10003a70 <dd_1>
10003a5c:	e02f      	b.n	10003abe <dd_2>

10003a5e <dd_0>:
10003a5e:	2204      	movs	r2, #4
10003a60:	4494      	add	ip, r2
10003a62:	3380      	adds	r3, #128	; 0x80
10003a64:	4175      	adcs	r5, r6
10003a66:	0aa9      	lsrs	r1, r5, #10
10003a68:	05a8      	lsls	r0, r5, #22
10003a6a:	0a9b      	lsrs	r3, r3, #10
10003a6c:	4318      	orrs	r0, r3
10003a6e:	d326      	bcc.n	10003abe <dd_2>

10003a70 <dd_1>:
10003a70:	4140      	adcs	r0, r0
10003a72:	4149      	adcs	r1, r1
10003a74:	0424      	lsls	r4, r4, #16
10003a76:	9a00      	ldr	r2, [sp, #0]
10003a78:	9b01      	ldr	r3, [sp, #4]
10003a7a:	000d      	movs	r5, r1
10003a7c:	4355      	muls	r5, r2
10003a7e:	1b64      	subs	r4, r4, r5
10003a80:	4343      	muls	r3, r0
10003a82:	1ae4      	subs	r4, r4, r3
10003a84:	b295      	uxth	r5, r2
10003a86:	b286      	uxth	r6, r0
10003a88:	4375      	muls	r5, r6
10003a8a:	0c17      	lsrs	r7, r2, #16
10003a8c:	437e      	muls	r6, r7
10003a8e:	0c03      	lsrs	r3, r0, #16
10003a90:	435f      	muls	r7, r3
10003a92:	b292      	uxth	r2, r2
10003a94:	435a      	muls	r2, r3
10003a96:	18b6      	adds	r6, r6, r2
10003a98:	d302      	bcc.n	10003aa0 <l23_1>
10003a9a:	2201      	movs	r2, #1
10003a9c:	0412      	lsls	r2, r2, #16
10003a9e:	18bf      	adds	r7, r7, r2

10003aa0 <l23_1>:
10003aa0:	0432      	lsls	r2, r6, #16
10003aa2:	0c33      	lsrs	r3, r6, #16
10003aa4:	1952      	adds	r2, r2, r5
10003aa6:	417b      	adcs	r3, r7
10003aa8:	4252      	negs	r2, r2
10003aaa:	419c      	sbcs	r4, r3
10003aac:	2c00      	cmp	r4, #0
10003aae:	d402      	bmi.n	10003ab6 <l23_1+0x16>
10003ab0:	2200      	movs	r2, #0
10003ab2:	3001      	adds	r0, #1
10003ab4:	4151      	adcs	r1, r2
10003ab6:	0840      	lsrs	r0, r0, #1
10003ab8:	07ca      	lsls	r2, r1, #31
10003aba:	4310      	orrs	r0, r2
10003abc:	0849      	lsrs	r1, r1, #1

10003abe <dd_2>:
10003abe:	b002      	add	sp, #8
10003ac0:	4662      	mov	r2, ip
10003ac2:	07d7      	lsls	r7, r2, #31
10003ac4:	1092      	asrs	r2, r2, #2
10003ac6:	4b08      	ldr	r3, [pc, #32]	; (10003ae8 <dd_4+0x6>)
10003ac8:	18d2      	adds	r2, r2, r3
10003aca:	4b08      	ldr	r3, [pc, #32]	; (10003aec <dd_4+0xa>)
10003acc:	429a      	cmp	r2, r3
10003ace:	d203      	bcs.n	10003ad8 <dd_3>
10003ad0:	0512      	lsls	r2, r2, #20
10003ad2:	1889      	adds	r1, r1, r2

10003ad4 <dd_5>:
10003ad4:	19c9      	adds	r1, r1, r7
10003ad6:	bdf0      	pop	{r4, r5, r6, r7, pc}

10003ad8 <dd_3>:
10003ad8:	2000      	movs	r0, #0
10003ada:	2a00      	cmp	r2, #0
10003adc:	dc01      	bgt.n	10003ae2 <dd_4>
10003ade:	0039      	movs	r1, r7
10003ae0:	bdf0      	pop	{r4, r5, r6, r7, pc}

10003ae2 <dd_4>:
10003ae2:	3301      	adds	r3, #1
10003ae4:	0519      	lsls	r1, r3, #20
10003ae6:	e7f5      	b.n	10003ad4 <dd_5>
10003ae8:	000003fd 	.word	0x000003fd
10003aec:	000007fe 	.word	0x000007fe

10003af0 <dcordic_rot_step>:
10003af0:	4662      	mov	r2, ip
10003af2:	ca18      	ldmia	r2!, {r3, r4}
10003af4:	4694      	mov	ip, r2
10003af6:	2900      	cmp	r1, #0
10003af8:	da1a      	bge.n	10003b30 <dcordic_rot_step+0x40>
10003afa:	18c0      	adds	r0, r0, r3
10003afc:	4161      	adcs	r1, r4
10003afe:	465b      	mov	r3, fp
10003b00:	413b      	asrs	r3, r7
10003b02:	465c      	mov	r4, fp
10003b04:	40b4      	lsls	r4, r6
10003b06:	4652      	mov	r2, sl
10003b08:	40fa      	lsrs	r2, r7
10003b0a:	4322      	orrs	r2, r4
10003b0c:	4644      	mov	r4, r8
10003b0e:	464d      	mov	r5, r9
10003b10:	4162      	adcs	r2, r4
10003b12:	416b      	adcs	r3, r5
10003b14:	4690      	mov	r8, r2
10003b16:	4699      	mov	r9, r3
10003b18:	462b      	mov	r3, r5
10003b1a:	40b3      	lsls	r3, r6
10003b1c:	413d      	asrs	r5, r7
10003b1e:	40fc      	lsrs	r4, r7
10003b20:	431c      	orrs	r4, r3
10003b22:	4652      	mov	r2, sl
10003b24:	465b      	mov	r3, fp
10003b26:	41a2      	sbcs	r2, r4
10003b28:	41ab      	sbcs	r3, r5
10003b2a:	4692      	mov	sl, r2
10003b2c:	469b      	mov	fp, r3
10003b2e:	4770      	bx	lr
10003b30:	1ac0      	subs	r0, r0, r3
10003b32:	41a1      	sbcs	r1, r4
10003b34:	464b      	mov	r3, r9
10003b36:	413b      	asrs	r3, r7
10003b38:	464c      	mov	r4, r9
10003b3a:	40b4      	lsls	r4, r6
10003b3c:	4642      	mov	r2, r8
10003b3e:	40fa      	lsrs	r2, r7
10003b40:	4322      	orrs	r2, r4
10003b42:	4654      	mov	r4, sl
10003b44:	465d      	mov	r5, fp
10003b46:	4162      	adcs	r2, r4
10003b48:	416b      	adcs	r3, r5
10003b4a:	4692      	mov	sl, r2
10003b4c:	469b      	mov	fp, r3
10003b4e:	462b      	mov	r3, r5
10003b50:	40b3      	lsls	r3, r6
10003b52:	413d      	asrs	r5, r7
10003b54:	40fc      	lsrs	r4, r7
10003b56:	431c      	orrs	r4, r3
10003b58:	4642      	mov	r2, r8
10003b5a:	464b      	mov	r3, r9
10003b5c:	41a2      	sbcs	r2, r4
10003b5e:	41ab      	sbcs	r3, r5
10003b60:	4690      	mov	r8, r2
10003b62:	4699      	mov	r9, r3
10003b64:	4770      	bx	lr

10003b66 <ret_dzero>:
10003b66:	2000      	movs	r0, #0
10003b68:	2100      	movs	r1, #0
10003b6a:	4770      	bx	lr

10003b6c <double2uint_shim>:
10003b6c:	2200      	movs	r2, #0

10003b6e <double2ufix_shim>:
10003b6e:	b500      	push	{lr}
10003b70:	3220      	adds	r2, #32
10003b72:	f000 f804 	bl	10003b7e <double2ufix64_shim>
10003b76:	0008      	movs	r0, r1
10003b78:	bd00      	pop	{pc}
	...

10003b7c <double2uint64_shim>:
10003b7c:	2200      	movs	r2, #0

10003b7e <double2ufix64_shim>:
10003b7e:	150b      	asrs	r3, r1, #20
10003b80:	d4f1      	bmi.n	10003b66 <ret_dzero>

10003b82 <d2fix>:
10003b82:	b510      	push	{r4, lr}
10003b84:	4694      	mov	ip, r2
10003b86:	f000 f82f 	bl	10003be8 <dunpacks>
10003b8a:	1414      	asrs	r4, r2, #16
10003b8c:	3401      	adds	r4, #1
10003b8e:	da00      	bge.n	10003b92 <d2fix+0x10>
10003b90:	2100      	movs	r1, #0
10003b92:	17cb      	asrs	r3, r1, #31
10003b94:	4c13      	ldr	r4, [pc, #76]	; (10003be4 <d2fix_a+0x4c>)
10003b96:	4720      	bx	r4

10003b98 <d2fix_a>:
10003b98:	4462      	add	r2, ip
10003b9a:	3a34      	subs	r2, #52	; 0x34
10003b9c:	d40c      	bmi.n	10003bb8 <d2fix_a+0x20>
10003b9e:	2a0c      	cmp	r2, #12
10003ba0:	da07      	bge.n	10003bb2 <d2fix_a+0x1a>
10003ba2:	0004      	movs	r4, r0
10003ba4:	4091      	lsls	r1, r2
10003ba6:	4090      	lsls	r0, r2
10003ba8:	4252      	negs	r2, r2
10003baa:	3220      	adds	r2, #32
10003bac:	40d4      	lsrs	r4, r2
10003bae:	4321      	orrs	r1, r4
10003bb0:	bd10      	pop	{r4, pc}
10003bb2:	43d8      	mvns	r0, r3
10003bb4:	43d9      	mvns	r1, r3
10003bb6:	bd10      	pop	{r4, pc}
10003bb8:	3220      	adds	r2, #32
10003bba:	d407      	bmi.n	10003bcc <d2fix_a+0x34>
10003bbc:	460c      	mov	r4, r1
10003bbe:	4094      	lsls	r4, r2
10003bc0:	4252      	negs	r2, r2
10003bc2:	3220      	adds	r2, #32
10003bc4:	4111      	asrs	r1, r2
10003bc6:	40d0      	lsrs	r0, r2
10003bc8:	4320      	orrs	r0, r4
10003bca:	bd10      	pop	{r4, pc}
10003bcc:	0008      	movs	r0, r1
10003bce:	17c9      	asrs	r1, r1, #31
10003bd0:	3220      	adds	r2, #32
10003bd2:	d403      	bmi.n	10003bdc <d2fix_a+0x44>
10003bd4:	4252      	negs	r2, r2
10003bd6:	3220      	adds	r2, #32
10003bd8:	4110      	asrs	r0, r2
10003bda:	bd10      	pop	{r4, pc}
10003bdc:	0018      	movs	r0, r3
10003bde:	0019      	movs	r1, r3
10003be0:	bd10      	pop	{r4, pc}
10003be2:	0000      	.short	0x0000
10003be4:	10003b99 	.word	0x10003b99

10003be8 <dunpacks>:
10003be8:	0d0a      	lsrs	r2, r1, #20
10003bea:	0fcc      	lsrs	r4, r1, #31
10003bec:	1e53      	subs	r3, r2, #1
10003bee:	051b      	lsls	r3, r3, #20
10003bf0:	1ac9      	subs	r1, r1, r3
10003bf2:	0552      	lsls	r2, r2, #21
10003bf4:	d303      	bcc.n	10003bfe <l60_1>
10003bf6:	43c9      	mvns	r1, r1
10003bf8:	4240      	negs	r0, r0
10003bfa:	d300      	bcc.n	10003bfe <l60_1>
10003bfc:	3101      	adds	r1, #1

10003bfe <l60_1>:
10003bfe:	0d52      	lsrs	r2, r2, #21
10003c00:	d003      	beq.n	10003c0a <l60_2>
10003c02:	1c53      	adds	r3, r2, #1
10003c04:	0adb      	lsrs	r3, r3, #11
10003c06:	d007      	beq.n	10003c18 <l60_3>
10003c08:	1b12      	subs	r2, r2, r4

10003c0a <l60_2>:
10003c0a:	2000      	movs	r0, #0
10003c0c:	0064      	lsls	r4, r4, #1
10003c0e:	1c61      	adds	r1, r4, #1
10003c10:	0789      	lsls	r1, r1, #30
10003c12:	1289      	asrs	r1, r1, #10
10003c14:	3a80      	subs	r2, #128	; 0x80
10003c16:	0312      	lsls	r2, r2, #12

10003c18 <l60_3>:
10003c18:	4b01      	ldr	r3, [pc, #4]	; (10003c20 <l60_3+0x8>)
10003c1a:	1ad2      	subs	r2, r2, r3
10003c1c:	4770      	bx	lr
10003c1e:	0000      	.short	0x0000
10003c20:	000003ff 	.word	0x000003ff

10003c24 <__aeabi_float_init>:
10003c24:	2313      	movs	r3, #19
10003c26:	b510      	push	{r4, lr}
10003c28:	4812      	ldr	r0, [pc, #72]	; (10003c74 <__aeabi_float_init+0x50>)
10003c2a:	781c      	ldrb	r4, [r3, #0]
10003c2c:	f7ff f94e 	bl	10002ecc <rom_data_lookup>
10003c30:	0001      	movs	r1, r0
10003c32:	2c01      	cmp	r4, #1
10003c34:	d00a      	beq.n	10003c4c <__aeabi_float_init+0x28>
10003c36:	dd03      	ble.n	10003c40 <__aeabi_float_init+0x1c>
10003c38:	2280      	movs	r2, #128	; 0x80
10003c3a:	480f      	ldr	r0, [pc, #60]	; (10003c78 <__aeabi_float_init+0x54>)
10003c3c:	f000 f850 	bl	10003ce0 <__wrap___aeabi_memcpy>
10003c40:	480e      	ldr	r0, [pc, #56]	; (10003c7c <__aeabi_float_init+0x58>)
10003c42:	f7ff f93b 	bl	10002ebc <rom_func_lookup>
10003c46:	4b0e      	ldr	r3, [pc, #56]	; (10003c80 <__aeabi_float_init+0x5c>)
10003c48:	6018      	str	r0, [r3, #0]
10003c4a:	bd10      	pop	{r4, pc}
10003c4c:	4c0a      	ldr	r4, [pc, #40]	; (10003c78 <__aeabi_float_init+0x54>)
10003c4e:	2254      	movs	r2, #84	; 0x54
10003c50:	0020      	movs	r0, r4
10003c52:	f000 f845 	bl	10003ce0 <__wrap___aeabi_memcpy>
10003c56:	4b0b      	ldr	r3, [pc, #44]	; (10003c84 <__aeabi_float_init+0x60>)
10003c58:	6563      	str	r3, [r4, #84]	; 0x54
10003c5a:	65a3      	str	r3, [r4, #88]	; 0x58
10003c5c:	65e3      	str	r3, [r4, #92]	; 0x5c
10003c5e:	6623      	str	r3, [r4, #96]	; 0x60
10003c60:	6663      	str	r3, [r4, #100]	; 0x64
10003c62:	66a3      	str	r3, [r4, #104]	; 0x68
10003c64:	66e3      	str	r3, [r4, #108]	; 0x6c
10003c66:	6723      	str	r3, [r4, #112]	; 0x70
10003c68:	6763      	str	r3, [r4, #116]	; 0x74
10003c6a:	67a3      	str	r3, [r4, #120]	; 0x78
10003c6c:	67e3      	str	r3, [r4, #124]	; 0x7c
10003c6e:	6223      	str	r3, [r4, #32]
10003c70:	61e3      	str	r3, [r4, #28]
10003c72:	e7e5      	b.n	10003c40 <__aeabi_float_init+0x1c>
10003c74:	00004653 	.word	0x00004653
10003c78:	20000c38 	.word	0x20000c38
10003c7c:	0000334c 	.word	0x0000334c
10003c80:	20000d38 	.word	0x20000d38
10003c84:	10003c89 	.word	0x10003c89

10003c88 <float_table_shim_on_use_helper>:
10003c88:	b507      	push	{r0, r1, r2, lr}
10003c8a:	4660      	mov	r0, ip
10003c8c:	8801      	ldrh	r1, [r0, #0]
10003c8e:	0a0a      	lsrs	r2, r1, #8
10003c90:	3002      	adds	r0, #2
10003c92:	2adf      	cmp	r2, #223	; 0xdf
10003c94:	d1fa      	bne.n	10003c8c <float_table_shim_on_use_helper+0x4>
10003c96:	b2c9      	uxtb	r1, r1
10003c98:	0882      	lsrs	r2, r0, #2
10003c9a:	d304      	bcc.n	10003ca6 <float_table_shim_on_use_helper+0x1e>
10003c9c:	8802      	ldrh	r2, [r0, #0]
10003c9e:	8840      	ldrh	r0, [r0, #2]
10003ca0:	0400      	lsls	r0, r0, #16
10003ca2:	4310      	orrs	r0, r2
10003ca4:	e000      	b.n	10003ca8 <float_table_shim_on_use_helper+0x20>
10003ca6:	6800      	ldr	r0, [r0, #0]
10003ca8:	4a01      	ldr	r2, [pc, #4]	; (10003cb0 <float_table_shim_on_use_helper+0x28>)
10003caa:	5050      	str	r0, [r2, r1]
10003cac:	9003      	str	r0, [sp, #12]
10003cae:	bd07      	pop	{r0, r1, r2, pc}
10003cb0:	20000c38 	.word	0x20000c38

10003cb4 <__wrap_malloc>:
10003cb4:	b510      	push	{r4, lr}
10003cb6:	f000 fb1f 	bl	100042f8 <malloc>
10003cba:	bd10      	pop	{r4, pc}

10003cbc <__wrap_calloc>:
10003cbc:	b510      	push	{r4, lr}
10003cbe:	f000 fae1 	bl	10004284 <calloc>
10003cc2:	bd10      	pop	{r4, pc}

10003cc4 <__aeabi_mem_init>:
10003cc4:	4801      	ldr	r0, [pc, #4]	; (10003ccc <__aeabi_mem_init+0x8>)
10003cc6:	2104      	movs	r1, #4
10003cc8:	4b01      	ldr	r3, [pc, #4]	; (10003cd0 <__aeabi_mem_init+0xc>)
10003cca:	4718      	bx	r3
10003ccc:	200001f0 	.word	0x200001f0
10003cd0:	10002edd 	.word	0x10002edd

10003cd4 <__wrap_memset>:
10003cd4:	4b01      	ldr	r3, [pc, #4]	; (10003cdc <__wrap_memset+0x8>)
10003cd6:	681b      	ldr	r3, [r3, #0]
10003cd8:	4718      	bx	r3
10003cda:	0000      	.short	0x0000
10003cdc:	200001f0 	.word	0x200001f0

10003ce0 <__wrap___aeabi_memcpy>:
10003ce0:	4b01      	ldr	r3, [pc, #4]	; (10003ce8 <__wrap___aeabi_memcpy+0x8>)
10003ce2:	685b      	ldr	r3, [r3, #4]
10003ce4:	4718      	bx	r3
10003ce6:	0000      	.short	0x0000
10003ce8:	200001f0 	.word	0x200001f0

10003cec <stdio_out_chars_crlf.part.0>:
10003cec:	b5f8      	push	{r3, r4, r5, r6, r7, lr}
10003cee:	4647      	mov	r7, r8
10003cf0:	46ce      	mov	lr, r9
10003cf2:	000d      	movs	r5, r1
10003cf4:	b580      	push	{r7, lr}
10003cf6:	0016      	movs	r6, r2
10003cf8:	0007      	movs	r7, r0
10003cfa:	2a00      	cmp	r2, #0
10003cfc:	dd20      	ble.n	10003d40 <stdio_out_chars_crlf.part.0+0x54>
10003cfe:	1e4b      	subs	r3, r1, #1
10003d00:	4698      	mov	r8, r3
10003d02:	4b1a      	ldr	r3, [pc, #104]	; (10003d6c <stdio_out_chars_crlf.part.0+0x80>)
10003d04:	2400      	movs	r4, #0
10003d06:	2000      	movs	r0, #0
10003d08:	4699      	mov	r9, r3
10003d0a:	2c00      	cmp	r4, #0
10003d0c:	d02b      	beq.n	10003d66 <stdio_out_chars_crlf.part.0+0x7a>
10003d0e:	4643      	mov	r3, r8
10003d10:	5d1b      	ldrb	r3, [r3, r4]
10003d12:	3b0d      	subs	r3, #13
10003d14:	425a      	negs	r2, r3
10003d16:	4153      	adcs	r3, r2
10003d18:	b2db      	uxtb	r3, r3
10003d1a:	5d2a      	ldrb	r2, [r5, r4]
10003d1c:	2a0a      	cmp	r2, #10
10003d1e:	d013      	beq.n	10003d48 <stdio_out_chars_crlf.part.0+0x5c>
10003d20:	3401      	adds	r4, #1
10003d22:	42a6      	cmp	r6, r4
10003d24:	dcf1      	bgt.n	10003d0a <stdio_out_chars_crlf.part.0+0x1e>
10003d26:	4286      	cmp	r6, r0
10003d28:	dd03      	ble.n	10003d32 <stdio_out_chars_crlf.part.0+0x46>
10003d2a:	1a31      	subs	r1, r6, r0
10003d2c:	683b      	ldr	r3, [r7, #0]
10003d2e:	1828      	adds	r0, r5, r0
10003d30:	4798      	blx	r3
10003d32:	19ad      	adds	r5, r5, r6
10003d34:	3d01      	subs	r5, #1
10003d36:	782b      	ldrb	r3, [r5, #0]
10003d38:	3b0d      	subs	r3, #13
10003d3a:	425a      	negs	r2, r3
10003d3c:	4153      	adcs	r3, r2
10003d3e:	743b      	strb	r3, [r7, #16]
10003d40:	bc0c      	pop	{r2, r3}
10003d42:	4690      	mov	r8, r2
10003d44:	4699      	mov	r9, r3
10003d46:	bdf8      	pop	{r3, r4, r5, r6, r7, pc}
10003d48:	2b00      	cmp	r3, #0
10003d4a:	d1e9      	bne.n	10003d20 <stdio_out_chars_crlf.part.0+0x34>
10003d4c:	42a0      	cmp	r0, r4
10003d4e:	da03      	bge.n	10003d58 <stdio_out_chars_crlf.part.0+0x6c>
10003d50:	1a21      	subs	r1, r4, r0
10003d52:	683b      	ldr	r3, [r7, #0]
10003d54:	1828      	adds	r0, r5, r0
10003d56:	4798      	blx	r3
10003d58:	4648      	mov	r0, r9
10003d5a:	2102      	movs	r1, #2
10003d5c:	683b      	ldr	r3, [r7, #0]
10003d5e:	3401      	adds	r4, #1
10003d60:	4798      	blx	r3
10003d62:	0020      	movs	r0, r4
10003d64:	e7dd      	b.n	10003d22 <stdio_out_chars_crlf.part.0+0x36>
10003d66:	7c3b      	ldrb	r3, [r7, #16]
10003d68:	e7d7      	b.n	10003d1a <stdio_out_chars_crlf.part.0+0x2e>
10003d6a:	46c0      	nop			; (mov r8, r8)
10003d6c:	10004f6c 	.word	0x10004f6c

10003d70 <stdio_buffered_printer>:
10003d70:	b5f8      	push	{r3, r4, r5, r6, r7, lr}
10003d72:	4647      	mov	r7, r8
10003d74:	46ce      	mov	lr, r9
10003d76:	000c      	movs	r4, r1
10003d78:	6809      	ldr	r1, [r1, #0]
10003d7a:	b580      	push	{r7, lr}
10003d7c:	0007      	movs	r7, r0
10003d7e:	2980      	cmp	r1, #128	; 0x80
10003d80:	d007      	beq.n	10003d92 <stdio_buffered_printer+0x22>
10003d82:	1c4b      	adds	r3, r1, #1
10003d84:	6023      	str	r3, [r4, #0]
10003d86:	1864      	adds	r4, r4, r1
10003d88:	7127      	strb	r7, [r4, #4]
10003d8a:	bc0c      	pop	{r2, r3}
10003d8c:	4690      	mov	r8, r2
10003d8e:	4699      	mov	r9, r3
10003d90:	bdf8      	pop	{r3, r4, r5, r6, r7, pc}
10003d92:	4b13      	ldr	r3, [pc, #76]	; (10003de0 <stdio_buffered_printer+0x70>)
10003d94:	681d      	ldr	r5, [r3, #0]
10003d96:	2d00      	cmp	r5, #0
10003d98:	d01b      	beq.n	10003dd2 <stdio_buffered_printer+0x62>
10003d9a:	4b12      	ldr	r3, [pc, #72]	; (10003de4 <stdio_buffered_printer+0x74>)
10003d9c:	4698      	mov	r8, r3
10003d9e:	1d23      	adds	r3, r4, #4
10003da0:	4699      	mov	r9, r3
10003da2:	e002      	b.n	10003daa <stdio_buffered_printer+0x3a>
10003da4:	68ed      	ldr	r5, [r5, #12]
10003da6:	2d00      	cmp	r5, #0
10003da8:	d013      	beq.n	10003dd2 <stdio_buffered_printer+0x62>
10003daa:	682e      	ldr	r6, [r5, #0]
10003dac:	2e00      	cmp	r6, #0
10003dae:	d0f9      	beq.n	10003da4 <stdio_buffered_printer+0x34>
10003db0:	4643      	mov	r3, r8
10003db2:	681b      	ldr	r3, [r3, #0]
10003db4:	2b00      	cmp	r3, #0
10003db6:	d001      	beq.n	10003dbc <stdio_buffered_printer+0x4c>
10003db8:	429d      	cmp	r5, r3
10003dba:	d1f3      	bne.n	10003da4 <stdio_buffered_printer+0x34>
10003dbc:	7c6b      	ldrb	r3, [r5, #17]
10003dbe:	6822      	ldr	r2, [r4, #0]
10003dc0:	2b00      	cmp	r3, #0
10003dc2:	d009      	beq.n	10003dd8 <stdio_buffered_printer+0x68>
10003dc4:	0028      	movs	r0, r5
10003dc6:	4649      	mov	r1, r9
10003dc8:	f7ff ff90 	bl	10003cec <stdio_out_chars_crlf.part.0>
10003dcc:	68ed      	ldr	r5, [r5, #12]
10003dce:	2d00      	cmp	r5, #0
10003dd0:	d1eb      	bne.n	10003daa <stdio_buffered_printer+0x3a>
10003dd2:	2301      	movs	r3, #1
10003dd4:	2100      	movs	r1, #0
10003dd6:	e7d5      	b.n	10003d84 <stdio_buffered_printer+0x14>
10003dd8:	0011      	movs	r1, r2
10003dda:	4648      	mov	r0, r9
10003ddc:	47b0      	blx	r6
10003dde:	e7e1      	b.n	10003da4 <stdio_buffered_printer+0x34>
10003de0:	20000b00 	.word	0x20000b00
10003de4:	20000b04 	.word	0x20000b04

10003de8 <stdio_put_string>:
10003de8:	b5f0      	push	{r4, r5, r6, r7, lr}
10003dea:	4657      	mov	r7, sl
10003dec:	4645      	mov	r5, r8
10003dee:	46de      	mov	lr, fp
10003df0:	464e      	mov	r6, r9
10003df2:	23d0      	movs	r3, #208	; 0xd0
10003df4:	b5e0      	push	{r5, r6, r7, lr}
10003df6:	061b      	lsls	r3, r3, #24
10003df8:	681c      	ldr	r4, [r3, #0]
10003dfa:	4b37      	ldr	r3, [pc, #220]	; (10003ed8 <stdio_put_string+0xf0>)
10003dfc:	b083      	sub	sp, #12
10003dfe:	0007      	movs	r7, r0
10003e00:	000d      	movs	r5, r1
10003e02:	0018      	movs	r0, r3
10003e04:	a901      	add	r1, sp, #4
10003e06:	4690      	mov	r8, r2
10003e08:	469a      	mov	sl, r3
10003e0a:	f000 fedd 	bl	10004bc8 <__mutex_try_enter_veneer>
10003e0e:	4681      	mov	r9, r0
10003e10:	2800      	cmp	r0, #0
10003e12:	d107      	bne.n	10003e24 <stdio_put_string+0x3c>
10003e14:	9b01      	ldr	r3, [sp, #4]
10003e16:	429c      	cmp	r4, r3
10003e18:	d004      	beq.n	10003e24 <stdio_put_string+0x3c>
10003e1a:	4650      	mov	r0, sl
10003e1c:	f000 fedc 	bl	10004bd8 <__mutex_enter_blocking_veneer>
10003e20:	2301      	movs	r3, #1
10003e22:	4699      	mov	r9, r3
10003e24:	1c6b      	adds	r3, r5, #1
10003e26:	d103      	bne.n	10003e30 <stdio_put_string+0x48>
10003e28:	0038      	movs	r0, r7
10003e2a:	f000 fd51 	bl	100048d0 <strlen>
10003e2e:	0005      	movs	r5, r0
10003e30:	4b2a      	ldr	r3, [pc, #168]	; (10003edc <stdio_put_string+0xf4>)
10003e32:	681c      	ldr	r4, [r3, #0]
10003e34:	2c00      	cmp	r4, #0
10003e36:	d02f      	beq.n	10003e98 <stdio_put_string+0xb0>
10003e38:	230a      	movs	r3, #10
10003e3a:	4e29      	ldr	r6, [pc, #164]	; (10003ee0 <stdio_put_string+0xf8>)
10003e3c:	469b      	mov	fp, r3
10003e3e:	e002      	b.n	10003e46 <stdio_put_string+0x5e>
10003e40:	68e4      	ldr	r4, [r4, #12]
10003e42:	2c00      	cmp	r4, #0
10003e44:	d028      	beq.n	10003e98 <stdio_put_string+0xb0>
10003e46:	6822      	ldr	r2, [r4, #0]
10003e48:	2a00      	cmp	r2, #0
10003e4a:	d0f9      	beq.n	10003e40 <stdio_put_string+0x58>
10003e4c:	6833      	ldr	r3, [r6, #0]
10003e4e:	2b00      	cmp	r3, #0
10003e50:	d001      	beq.n	10003e56 <stdio_put_string+0x6e>
10003e52:	42a3      	cmp	r3, r4
10003e54:	d1f4      	bne.n	10003e40 <stdio_put_string+0x58>
10003e56:	7c63      	ldrb	r3, [r4, #17]
10003e58:	2b00      	cmp	r3, #0
10003e5a:	d02a      	beq.n	10003eb2 <stdio_put_string+0xca>
10003e5c:	002a      	movs	r2, r5
10003e5e:	0039      	movs	r1, r7
10003e60:	0020      	movs	r0, r4
10003e62:	f7ff ff43 	bl	10003cec <stdio_out_chars_crlf.part.0>
10003e66:	4643      	mov	r3, r8
10003e68:	2b00      	cmp	r3, #0
10003e6a:	d0e9      	beq.n	10003e40 <stdio_put_string+0x58>
10003e6c:	466b      	mov	r3, sp
10003e6e:	465a      	mov	r2, fp
10003e70:	711a      	strb	r2, [r3, #4]
10003e72:	7c63      	ldrb	r3, [r4, #17]
10003e74:	2b00      	cmp	r3, #0
10003e76:	d020      	beq.n	10003eba <stdio_put_string+0xd2>
10003e78:	7c23      	ldrb	r3, [r4, #16]
10003e7a:	2b00      	cmp	r3, #0
10003e7c:	d026      	beq.n	10003ecc <stdio_put_string+0xe4>
10003e7e:	2101      	movs	r1, #1
10003e80:	6823      	ldr	r3, [r4, #0]
10003e82:	a801      	add	r0, sp, #4
10003e84:	4798      	blx	r3
10003e86:	466b      	mov	r3, sp
10003e88:	791b      	ldrb	r3, [r3, #4]
10003e8a:	3b0d      	subs	r3, #13
10003e8c:	425a      	negs	r2, r3
10003e8e:	4153      	adcs	r3, r2
10003e90:	7423      	strb	r3, [r4, #16]
10003e92:	68e4      	ldr	r4, [r4, #12]
10003e94:	2c00      	cmp	r4, #0
10003e96:	d1d6      	bne.n	10003e46 <stdio_put_string+0x5e>
10003e98:	464b      	mov	r3, r9
10003e9a:	2b00      	cmp	r3, #0
10003e9c:	d112      	bne.n	10003ec4 <stdio_put_string+0xdc>
10003e9e:	1e68      	subs	r0, r5, #1
10003ea0:	4185      	sbcs	r5, r0
10003ea2:	b2e8      	uxtb	r0, r5
10003ea4:	b003      	add	sp, #12
10003ea6:	bc3c      	pop	{r2, r3, r4, r5}
10003ea8:	4690      	mov	r8, r2
10003eaa:	4699      	mov	r9, r3
10003eac:	46a2      	mov	sl, r4
10003eae:	46ab      	mov	fp, r5
10003eb0:	bdf0      	pop	{r4, r5, r6, r7, pc}
10003eb2:	0029      	movs	r1, r5
10003eb4:	0038      	movs	r0, r7
10003eb6:	4790      	blx	r2
10003eb8:	e7d5      	b.n	10003e66 <stdio_put_string+0x7e>
10003eba:	2101      	movs	r1, #1
10003ebc:	6823      	ldr	r3, [r4, #0]
10003ebe:	a801      	add	r0, sp, #4
10003ec0:	4798      	blx	r3
10003ec2:	e7bd      	b.n	10003e40 <stdio_put_string+0x58>
10003ec4:	4650      	mov	r0, sl
10003ec6:	f000 fe67 	bl	10004b98 <__mutex_exit_veneer>
10003eca:	e7e8      	b.n	10003e9e <stdio_put_string+0xb6>
10003ecc:	2102      	movs	r1, #2
10003ece:	4805      	ldr	r0, [pc, #20]	; (10003ee4 <stdio_put_string+0xfc>)
10003ed0:	6823      	ldr	r3, [r4, #0]
10003ed2:	4798      	blx	r3
10003ed4:	e7d7      	b.n	10003e86 <stdio_put_string+0x9e>
10003ed6:	46c0      	nop			; (mov r8, r8)
10003ed8:	20000a58 	.word	0x20000a58
10003edc:	20000b00 	.word	0x20000b00
10003ee0:	20000b04 	.word	0x20000b04
10003ee4:	10004f6c 	.word	0x10004f6c

10003ee8 <__wrap_putchar>:
10003ee8:	b510      	push	{r4, lr}
10003eea:	b082      	sub	sp, #8
10003eec:	466b      	mov	r3, sp
10003eee:	0004      	movs	r4, r0
10003ef0:	2200      	movs	r2, #0
10003ef2:	1dd8      	adds	r0, r3, #7
10003ef4:	2101      	movs	r1, #1
10003ef6:	7004      	strb	r4, [r0, #0]
10003ef8:	f7ff ff76 	bl	10003de8 <stdio_put_string>
10003efc:	0020      	movs	r0, r4
10003efe:	b002      	add	sp, #8
10003f00:	bd10      	pop	{r4, pc}
10003f02:	46c0      	nop			; (mov r8, r8)

10003f04 <__wrap_puts>:
10003f04:	b570      	push	{r4, r5, r6, lr}
10003f06:	0004      	movs	r4, r0
10003f08:	f000 fce2 	bl	100048d0 <strlen>
10003f0c:	2201      	movs	r2, #1
10003f0e:	0001      	movs	r1, r0
10003f10:	0005      	movs	r5, r0
10003f12:	0020      	movs	r0, r4
10003f14:	f7ff ff68 	bl	10003de8 <stdio_put_string>
10003f18:	4b08      	ldr	r3, [pc, #32]	; (10003f3c <__wrap_puts+0x38>)
10003f1a:	681c      	ldr	r4, [r3, #0]
10003f1c:	2c00      	cmp	r4, #0
10003f1e:	d006      	beq.n	10003f2e <__wrap_puts+0x2a>
10003f20:	6863      	ldr	r3, [r4, #4]
10003f22:	2b00      	cmp	r3, #0
10003f24:	d005      	beq.n	10003f32 <__wrap_puts+0x2e>
10003f26:	4798      	blx	r3
10003f28:	68e4      	ldr	r4, [r4, #12]
10003f2a:	2c00      	cmp	r4, #0
10003f2c:	d1f8      	bne.n	10003f20 <__wrap_puts+0x1c>
10003f2e:	0028      	movs	r0, r5
10003f30:	bd70      	pop	{r4, r5, r6, pc}
10003f32:	68e4      	ldr	r4, [r4, #12]
10003f34:	2c00      	cmp	r4, #0
10003f36:	d1f3      	bne.n	10003f20 <__wrap_puts+0x1c>
10003f38:	e7f9      	b.n	10003f2e <__wrap_puts+0x2a>
10003f3a:	46c0      	nop			; (mov r8, r8)
10003f3c:	20000b00 	.word	0x20000b00

10003f40 <stdio_set_driver_enabled>:
10003f40:	4a0d      	ldr	r2, [pc, #52]	; (10003f78 <stdio_set_driver_enabled+0x38>)
10003f42:	6813      	ldr	r3, [r2, #0]
10003f44:	2b00      	cmp	r3, #0
10003f46:	d013      	beq.n	10003f70 <stdio_set_driver_enabled+0x30>
10003f48:	4283      	cmp	r3, r0
10003f4a:	d102      	bne.n	10003f52 <stdio_set_driver_enabled+0x12>
10003f4c:	e009      	b.n	10003f62 <stdio_set_driver_enabled+0x22>
10003f4e:	4298      	cmp	r0, r3
10003f50:	d008      	beq.n	10003f64 <stdio_set_driver_enabled+0x24>
10003f52:	001a      	movs	r2, r3
10003f54:	68db      	ldr	r3, [r3, #12]
10003f56:	2b00      	cmp	r3, #0
10003f58:	d1f9      	bne.n	10003f4e <stdio_set_driver_enabled+0xe>
10003f5a:	2900      	cmp	r1, #0
10003f5c:	d000      	beq.n	10003f60 <stdio_set_driver_enabled+0x20>
10003f5e:	60d0      	str	r0, [r2, #12]
10003f60:	4770      	bx	lr
10003f62:	001a      	movs	r2, r3
10003f64:	2900      	cmp	r1, #0
10003f66:	d1fb      	bne.n	10003f60 <stdio_set_driver_enabled+0x20>
10003f68:	68db      	ldr	r3, [r3, #12]
10003f6a:	60d3      	str	r3, [r2, #12]
10003f6c:	60c1      	str	r1, [r0, #12]
10003f6e:	e7f7      	b.n	10003f60 <stdio_set_driver_enabled+0x20>
10003f70:	2900      	cmp	r1, #0
10003f72:	d0f5      	beq.n	10003f60 <stdio_set_driver_enabled+0x20>
10003f74:	6010      	str	r0, [r2, #0]
10003f76:	e7f3      	b.n	10003f60 <stdio_set_driver_enabled+0x20>
10003f78:	20000b00 	.word	0x20000b00

10003f7c <__wrap_vprintf>:
10003f7c:	b5f0      	push	{r4, r5, r6, r7, lr}
10003f7e:	4646      	mov	r6, r8
10003f80:	46d6      	mov	lr, sl
10003f82:	464f      	mov	r7, r9
10003f84:	23d0      	movs	r3, #208	; 0xd0
10003f86:	b5c0      	push	{r6, r7, lr}
10003f88:	061b      	lsls	r3, r3, #24
10003f8a:	681f      	ldr	r7, [r3, #0]
10003f8c:	4b31      	ldr	r3, [pc, #196]	; (10004054 <__wrap_vprintf+0xd8>)
10003f8e:	b0a2      	sub	sp, #136	; 0x88
10003f90:	0004      	movs	r4, r0
10003f92:	000d      	movs	r5, r1
10003f94:	0018      	movs	r0, r3
10003f96:	a901      	add	r1, sp, #4
10003f98:	4698      	mov	r8, r3
10003f9a:	f000 fe15 	bl	10004bc8 <__mutex_try_enter_veneer>
10003f9e:	1e06      	subs	r6, r0, #0
10003fa0:	d106      	bne.n	10003fb0 <__wrap_vprintf+0x34>
10003fa2:	9b01      	ldr	r3, [sp, #4]
10003fa4:	429f      	cmp	r7, r3
10003fa6:	d003      	beq.n	10003fb0 <__wrap_vprintf+0x34>
10003fa8:	4640      	mov	r0, r8
10003faa:	f000 fe15 	bl	10004bd8 <__mutex_enter_blocking_veneer>
10003fae:	3601      	adds	r6, #1
10003fb0:	2284      	movs	r2, #132	; 0x84
10003fb2:	2100      	movs	r1, #0
10003fb4:	a801      	add	r0, sp, #4
10003fb6:	f7ff fe8d 	bl	10003cd4 <__wrap_memset>
10003fba:	002b      	movs	r3, r5
10003fbc:	0022      	movs	r2, r4
10003fbe:	4826      	ldr	r0, [pc, #152]	; (10004058 <__wrap_vprintf+0xdc>)
10003fc0:	a901      	add	r1, sp, #4
10003fc2:	f7fe ff4b 	bl	10002e5c <vfctprintf>
10003fc6:	9b01      	ldr	r3, [sp, #4]
10003fc8:	0007      	movs	r7, r0
10003fca:	2b00      	cmp	r3, #0
10003fcc:	d115      	bne.n	10003ffa <__wrap_vprintf+0x7e>
10003fce:	4b23      	ldr	r3, [pc, #140]	; (1000405c <__wrap_vprintf+0xe0>)
10003fd0:	681c      	ldr	r4, [r3, #0]
10003fd2:	2c00      	cmp	r4, #0
10003fd4:	d006      	beq.n	10003fe4 <__wrap_vprintf+0x68>
10003fd6:	6863      	ldr	r3, [r4, #4]
10003fd8:	2b00      	cmp	r3, #0
10003fda:	d00c      	beq.n	10003ff6 <__wrap_vprintf+0x7a>
10003fdc:	4798      	blx	r3
10003fde:	68e4      	ldr	r4, [r4, #12]
10003fe0:	2c00      	cmp	r4, #0
10003fe2:	d1f8      	bne.n	10003fd6 <__wrap_vprintf+0x5a>
10003fe4:	2e00      	cmp	r6, #0
10003fe6:	d12f      	bne.n	10004048 <__wrap_vprintf+0xcc>
10003fe8:	0038      	movs	r0, r7
10003fea:	b022      	add	sp, #136	; 0x88
10003fec:	bc1c      	pop	{r2, r3, r4}
10003fee:	4690      	mov	r8, r2
10003ff0:	4699      	mov	r9, r3
10003ff2:	46a2      	mov	sl, r4
10003ff4:	bdf0      	pop	{r4, r5, r6, r7, pc}
10003ff6:	68e4      	ldr	r4, [r4, #12]
10003ff8:	e7eb      	b.n	10003fd2 <__wrap_vprintf+0x56>
10003ffa:	4b18      	ldr	r3, [pc, #96]	; (1000405c <__wrap_vprintf+0xe0>)
10003ffc:	681d      	ldr	r5, [r3, #0]
10003ffe:	469a      	mov	sl, r3
10004000:	2d00      	cmp	r5, #0
10004002:	d025      	beq.n	10004050 <__wrap_vprintf+0xd4>
10004004:	4b16      	ldr	r3, [pc, #88]	; (10004060 <__wrap_vprintf+0xe4>)
10004006:	4699      	mov	r9, r3
10004008:	e002      	b.n	10004010 <__wrap_vprintf+0x94>
1000400a:	68ed      	ldr	r5, [r5, #12]
1000400c:	2d00      	cmp	r5, #0
1000400e:	d013      	beq.n	10004038 <__wrap_vprintf+0xbc>
10004010:	682c      	ldr	r4, [r5, #0]
10004012:	2c00      	cmp	r4, #0
10004014:	d0f9      	beq.n	1000400a <__wrap_vprintf+0x8e>
10004016:	464b      	mov	r3, r9
10004018:	681b      	ldr	r3, [r3, #0]
1000401a:	2b00      	cmp	r3, #0
1000401c:	d001      	beq.n	10004022 <__wrap_vprintf+0xa6>
1000401e:	429d      	cmp	r5, r3
10004020:	d1f3      	bne.n	1000400a <__wrap_vprintf+0x8e>
10004022:	7c6b      	ldrb	r3, [r5, #17]
10004024:	9a01      	ldr	r2, [sp, #4]
10004026:	2b00      	cmp	r3, #0
10004028:	d00a      	beq.n	10004040 <__wrap_vprintf+0xc4>
1000402a:	0028      	movs	r0, r5
1000402c:	a902      	add	r1, sp, #8
1000402e:	f7ff fe5d 	bl	10003cec <stdio_out_chars_crlf.part.0>
10004032:	68ed      	ldr	r5, [r5, #12]
10004034:	2d00      	cmp	r5, #0
10004036:	d1eb      	bne.n	10004010 <__wrap_vprintf+0x94>
10004038:	4653      	mov	r3, sl
1000403a:	9501      	str	r5, [sp, #4]
1000403c:	681c      	ldr	r4, [r3, #0]
1000403e:	e7c8      	b.n	10003fd2 <__wrap_vprintf+0x56>
10004040:	0011      	movs	r1, r2
10004042:	a802      	add	r0, sp, #8
10004044:	47a0      	blx	r4
10004046:	e7e0      	b.n	1000400a <__wrap_vprintf+0x8e>
10004048:	4640      	mov	r0, r8
1000404a:	f000 fda5 	bl	10004b98 <__mutex_exit_veneer>
1000404e:	e7cb      	b.n	10003fe8 <__wrap_vprintf+0x6c>
10004050:	9501      	str	r5, [sp, #4]
10004052:	e7c7      	b.n	10003fe4 <__wrap_vprintf+0x68>
10004054:	20000a58 	.word	0x20000a58
10004058:	10003d71 	.word	0x10003d71
1000405c:	20000b00 	.word	0x20000b00
10004060:	20000b04 	.word	0x20000b04

10004064 <__wrap_printf>:
10004064:	b40f      	push	{r0, r1, r2, r3}
10004066:	b500      	push	{lr}
10004068:	b083      	sub	sp, #12
1000406a:	a904      	add	r1, sp, #16
1000406c:	c901      	ldmia	r1!, {r0}
1000406e:	9101      	str	r1, [sp, #4]
10004070:	f7ff ff84 	bl	10003f7c <__wrap_vprintf>
10004074:	b003      	add	sp, #12
10004076:	bc08      	pop	{r3}
10004078:	b004      	add	sp, #16
1000407a:	4718      	bx	r3

1000407c <stdio_init_all>:
1000407c:	b510      	push	{r4, lr}
1000407e:	f000 f83b 	bl	100040f8 <stdio_uart_init>
10004082:	bd10      	pop	{r4, pc}

10004084 <stdio_uart_out_chars>:
10004084:	b5f0      	push	{r4, r5, r6, r7, lr}
10004086:	2900      	cmp	r1, #0
10004088:	d010      	beq.n	100040ac <stdio_uart_out_chars+0x28>
1000408a:	1845      	adds	r5, r0, r1
1000408c:	270d      	movs	r7, #13
1000408e:	2120      	movs	r1, #32
10004090:	4b09      	ldr	r3, [pc, #36]	; (100040b8 <stdio_uart_out_chars+0x34>)
10004092:	4a0a      	ldr	r2, [pc, #40]	; (100040bc <stdio_uart_out_chars+0x38>)
10004094:	2600      	movs	r6, #0
10004096:	5f9e      	ldrsh	r6, [r3, r6]
10004098:	7804      	ldrb	r4, [r0, #0]
1000409a:	42a6      	cmp	r6, r4
1000409c:	d007      	beq.n	100040ae <stdio_uart_out_chars+0x2a>
1000409e:	6993      	ldr	r3, [r2, #24]
100040a0:	4219      	tst	r1, r3
100040a2:	d1fc      	bne.n	1000409e <stdio_uart_out_chars+0x1a>
100040a4:	3001      	adds	r0, #1
100040a6:	6014      	str	r4, [r2, #0]
100040a8:	42a8      	cmp	r0, r5
100040aa:	d1f5      	bne.n	10004098 <stdio_uart_out_chars+0x14>
100040ac:	bdf0      	pop	{r4, r5, r6, r7, pc}
100040ae:	6993      	ldr	r3, [r2, #24]
100040b0:	4219      	tst	r1, r3
100040b2:	d1fc      	bne.n	100040ae <stdio_uart_out_chars+0x2a>
100040b4:	6017      	str	r7, [r2, #0]
100040b6:	e7f2      	b.n	1000409e <stdio_uart_out_chars+0x1a>
100040b8:	20000b34 	.word	0x20000b34
100040bc:	40034000 	.word	0x40034000

100040c0 <stdio_uart_in_chars>:
100040c0:	b530      	push	{r4, r5, lr}
100040c2:	0005      	movs	r5, r0
100040c4:	2000      	movs	r0, #0
100040c6:	2900      	cmp	r1, #0
100040c8:	dd10      	ble.n	100040ec <stdio_uart_in_chars+0x2c>
100040ca:	2410      	movs	r4, #16
100040cc:	4a09      	ldr	r2, [pc, #36]	; (100040f4 <stdio_uart_in_chars+0x34>)
100040ce:	3d01      	subs	r5, #1
100040d0:	6993      	ldr	r3, [r2, #24]
100040d2:	421c      	tst	r4, r3
100040d4:	d108      	bne.n	100040e8 <stdio_uart_in_chars+0x28>
100040d6:	3001      	adds	r0, #1
100040d8:	6993      	ldr	r3, [r2, #24]
100040da:	421c      	tst	r4, r3
100040dc:	d1fc      	bne.n	100040d8 <stdio_uart_in_chars+0x18>
100040de:	6813      	ldr	r3, [r2, #0]
100040e0:	542b      	strb	r3, [r5, r0]
100040e2:	4281      	cmp	r1, r0
100040e4:	d1f4      	bne.n	100040d0 <stdio_uart_in_chars+0x10>
100040e6:	bd30      	pop	{r4, r5, pc}
100040e8:	2800      	cmp	r0, #0
100040ea:	d1fc      	bne.n	100040e6 <stdio_uart_in_chars+0x26>
100040ec:	2003      	movs	r0, #3
100040ee:	4240      	negs	r0, r0
100040f0:	e7f9      	b.n	100040e6 <stdio_uart_in_chars+0x26>
100040f2:	46c0      	nop			; (mov r8, r8)
100040f4:	40034000 	.word	0x40034000

100040f8 <stdio_uart_init>:
100040f8:	21e1      	movs	r1, #225	; 0xe1
100040fa:	b510      	push	{r4, lr}
100040fc:	4b0a      	ldr	r3, [pc, #40]	; (10004128 <stdio_uart_init+0x30>)
100040fe:	0249      	lsls	r1, r1, #9
10004100:	781b      	ldrb	r3, [r3, #0]
10004102:	4b0a      	ldr	r3, [pc, #40]	; (1000412c <stdio_uart_init+0x34>)
10004104:	480a      	ldr	r0, [pc, #40]	; (10004130 <stdio_uart_init+0x38>)
10004106:	781b      	ldrb	r3, [r3, #0]
10004108:	f7fc fa04 	bl	10000514 <uart_init>
1000410c:	2102      	movs	r1, #2
1000410e:	2000      	movs	r0, #0
10004110:	f7fc f97e 	bl	10000410 <gpio_set_function>
10004114:	2102      	movs	r1, #2
10004116:	2001      	movs	r0, #1
10004118:	f7fc f97a 	bl	10000410 <gpio_set_function>
1000411c:	2101      	movs	r1, #1
1000411e:	4805      	ldr	r0, [pc, #20]	; (10004134 <stdio_uart_init+0x3c>)
10004120:	f7ff ff0e 	bl	10003f40 <stdio_set_driver_enabled>
10004124:	bd10      	pop	{r4, pc}
10004126:	46c0      	nop			; (mov r8, r8)
10004128:	10004fcc 	.word	0x10004fcc
1000412c:	10004fd0 	.word	0x10004fd0
10004130:	40034000 	.word	0x40034000
10004134:	20000200 	.word	0x20000200

10004138 <i2c_init>:
10004138:	b5f8      	push	{r3, r4, r5, r6, r7, lr}
1000413a:	4b25      	ldr	r3, [pc, #148]	; (100041d0 <i2c_init+0x98>)
1000413c:	0005      	movs	r5, r0
1000413e:	1ac3      	subs	r3, r0, r3
10004140:	425a      	negs	r2, r3
10004142:	4153      	adcs	r3, r2
10004144:	2207      	movs	r2, #7
10004146:	425b      	negs	r3, r3
10004148:	4393      	bics	r3, r2
1000414a:	4a22      	ldr	r2, [pc, #136]	; (100041d4 <i2c_init+0x9c>)
1000414c:	3310      	adds	r3, #16
1000414e:	6013      	str	r3, [r2, #0]
10004150:	4a21      	ldr	r2, [pc, #132]	; (100041d8 <i2c_init+0xa0>)
10004152:	000e      	movs	r6, r1
10004154:	4921      	ldr	r1, [pc, #132]	; (100041dc <i2c_init+0xa4>)
10004156:	6013      	str	r3, [r2, #0]
10004158:	001c      	movs	r4, r3
1000415a:	688a      	ldr	r2, [r1, #8]
1000415c:	4394      	bics	r4, r2
1000415e:	d1fb      	bne.n	10004158 <i2c_init+0x20>
10004160:	2265      	movs	r2, #101	; 0x65
10004162:	2103      	movs	r1, #3
10004164:	682b      	ldr	r3, [r5, #0]
10004166:	712c      	strb	r4, [r5, #4]
10004168:	66dc      	str	r4, [r3, #108]	; 0x6c
1000416a:	601a      	str	r2, [r3, #0]
1000416c:	3223      	adds	r2, #35	; 0x23
1000416e:	63dc      	str	r4, [r3, #60]	; 0x3c
10004170:	2005      	movs	r0, #5
10004172:	639c      	str	r4, [r3, #56]	; 0x38
10004174:	5099      	str	r1, [r3, r2]
10004176:	f7fd f989 	bl	1000148c <clock_get_hz>
1000417a:	0007      	movs	r7, r0
1000417c:	0870      	lsrs	r0, r6, #1
1000417e:	0031      	movs	r1, r6
10004180:	19c0      	adds	r0, r0, r7
10004182:	f7fe fef5 	bl	10002f70 <__wrap___aeabi_uidiv>
10004186:	0006      	movs	r6, r0
10004188:	0040      	lsls	r0, r0, #1
1000418a:	2105      	movs	r1, #5
1000418c:	1980      	adds	r0, r0, r6
1000418e:	f7fe feef 	bl	10002f70 <__wrap___aeabi_uidiv>
10004192:	2204      	movs	r2, #4
10004194:	1a33      	subs	r3, r6, r0
10004196:	469c      	mov	ip, r3
10004198:	682b      	ldr	r3, [r5, #0]
1000419a:	66dc      	str	r4, [r3, #108]	; 0x6c
1000419c:	6819      	ldr	r1, [r3, #0]
1000419e:	404a      	eors	r2, r1
100041a0:	2106      	movs	r1, #6
100041a2:	4011      	ands	r1, r2
100041a4:	2280      	movs	r2, #128	; 0x80
100041a6:	0152      	lsls	r2, r2, #5
100041a8:	431a      	orrs	r2, r3
100041aa:	6011      	str	r1, [r2, #0]
100041ac:	4662      	mov	r2, ip
100041ae:	4661      	mov	r1, ip
100041b0:	61d8      	str	r0, [r3, #28]
100041b2:	621a      	str	r2, [r3, #32]
100041b4:	2201      	movs	r2, #1
100041b6:	290f      	cmp	r1, #15
100041b8:	d900      	bls.n	100041bc <i2c_init+0x84>
100041ba:	090a      	lsrs	r2, r1, #4
100041bc:	21a0      	movs	r1, #160	; 0xa0
100041be:	505a      	str	r2, [r3, r1]
100041c0:	2201      	movs	r2, #1
100041c2:	0031      	movs	r1, r6
100041c4:	0038      	movs	r0, r7
100041c6:	66da      	str	r2, [r3, #108]	; 0x6c
100041c8:	f7fe fed2 	bl	10002f70 <__wrap___aeabi_uidiv>
100041cc:	bdf8      	pop	{r3, r4, r5, r6, r7, pc}
100041ce:	46c0      	nop			; (mov r8, r8)
100041d0:	20000214 	.word	0x20000214
100041d4:	4000e000 	.word	0x4000e000
100041d8:	4000f000 	.word	0x4000f000
100041dc:	4000c000 	.word	0x4000c000

100041e0 <i2c_read_blocking>:
100041e0:	b5f0      	push	{r4, r5, r6, r7, lr}
100041e2:	46d6      	mov	lr, sl
100041e4:	464f      	mov	r7, r9
100041e6:	4646      	mov	r6, r8
100041e8:	b5c0      	push	{r6, r7, lr}
100041ea:	0005      	movs	r5, r0
100041ec:	a808      	add	r0, sp, #32
100041ee:	7800      	ldrb	r0, [r0, #0]
100041f0:	682c      	ldr	r4, [r5, #0]
100041f2:	4684      	mov	ip, r0
100041f4:	2000      	movs	r0, #0
100041f6:	66e0      	str	r0, [r4, #108]	; 0x6c
100041f8:	6061      	str	r1, [r4, #4]
100041fa:	2101      	movs	r1, #1
100041fc:	66e1      	str	r1, [r4, #108]	; 0x6c
100041fe:	2b00      	cmp	r3, #0
10004200:	d03d      	beq.n	1000427e <i2c_read_blocking+0x9e>
10004202:	1e59      	subs	r1, r3, #1
10004204:	4688      	mov	r8, r1
10004206:	2601      	movs	r6, #1
10004208:	4661      	mov	r1, ip
1000420a:	3001      	adds	r0, #1
1000420c:	30ff      	adds	r0, #255	; 0xff
1000420e:	4682      	mov	sl, r0
10004210:	3880      	subs	r0, #128	; 0x80
10004212:	404e      	eors	r6, r1
10004214:	4681      	mov	r9, r0
10004216:	2100      	movs	r1, #0
10004218:	0276      	lsls	r6, r6, #9
1000421a:	6f60      	ldr	r0, [r4, #116]	; 0x74
1000421c:	2820      	cmp	r0, #32
1000421e:	d0fc      	beq.n	1000421a <i2c_read_blocking+0x3a>
10004220:	2900      	cmp	r1, #0
10004222:	d022      	beq.n	1000426a <i2c_read_blocking+0x8a>
10004224:	2780      	movs	r7, #128	; 0x80
10004226:	2000      	movs	r0, #0
10004228:	007f      	lsls	r7, r7, #1
1000422a:	4541      	cmp	r1, r8
1000422c:	d012      	beq.n	10004254 <i2c_read_blocking+0x74>
1000422e:	6127      	str	r7, [r4, #16]
10004230:	e002      	b.n	10004238 <i2c_read_blocking+0x58>
10004232:	6fa0      	ldr	r0, [r4, #120]	; 0x78
10004234:	2800      	cmp	r0, #0
10004236:	d111      	bne.n	1000425c <i2c_read_blocking+0x7c>
10004238:	4648      	mov	r0, r9
1000423a:	5820      	ldr	r0, [r4, r0]
1000423c:	6d60      	ldr	r0, [r4, #84]	; 0x54
1000423e:	2800      	cmp	r0, #0
10004240:	d0f7      	beq.n	10004232 <i2c_read_blocking+0x52>
10004242:	2002      	movs	r0, #2
10004244:	4240      	negs	r0, r0
10004246:	4663      	mov	r3, ip
10004248:	712b      	strb	r3, [r5, #4]
1000424a:	bc1c      	pop	{r2, r3, r4}
1000424c:	4690      	mov	r8, r2
1000424e:	4699      	mov	r9, r3
10004250:	46a2      	mov	sl, r4
10004252:	bdf0      	pop	{r4, r5, r6, r7, pc}
10004254:	4657      	mov	r7, sl
10004256:	4330      	orrs	r0, r6
10004258:	4307      	orrs	r7, r0
1000425a:	e7e8      	b.n	1000422e <i2c_read_blocking+0x4e>
1000425c:	6920      	ldr	r0, [r4, #16]
1000425e:	5450      	strb	r0, [r2, r1]
10004260:	3101      	adds	r1, #1
10004262:	428b      	cmp	r3, r1
10004264:	d009      	beq.n	1000427a <i2c_read_blocking+0x9a>
10004266:	682c      	ldr	r4, [r5, #0]
10004268:	e7d7      	b.n	1000421a <i2c_read_blocking+0x3a>
1000426a:	7928      	ldrb	r0, [r5, #4]
1000426c:	2800      	cmp	r0, #0
1000426e:	d0d9      	beq.n	10004224 <i2c_read_blocking+0x44>
10004270:	27a0      	movs	r7, #160	; 0xa0
10004272:	2080      	movs	r0, #128	; 0x80
10004274:	00ff      	lsls	r7, r7, #3
10004276:	00c0      	lsls	r0, r0, #3
10004278:	e7d7      	b.n	1000422a <i2c_read_blocking+0x4a>
1000427a:	0018      	movs	r0, r3
1000427c:	e7e3      	b.n	10004246 <i2c_read_blocking+0x66>
1000427e:	2000      	movs	r0, #0
10004280:	e7e1      	b.n	10004246 <i2c_read_blocking+0x66>
10004282:	46c0      	nop			; (mov r8, r8)

10004284 <calloc>:
10004284:	0003      	movs	r3, r0
10004286:	b510      	push	{r4, lr}
10004288:	000a      	movs	r2, r1
1000428a:	4903      	ldr	r1, [pc, #12]	; (10004298 <calloc+0x14>)
1000428c:	6808      	ldr	r0, [r1, #0]
1000428e:	0019      	movs	r1, r3
10004290:	f000 f804 	bl	1000429c <_calloc_r>
10004294:	bd10      	pop	{r4, pc}
10004296:	46c0      	nop			; (mov r8, r8)
10004298:	2000021c 	.word	0x2000021c

1000429c <_calloc_r>:
1000429c:	b510      	push	{r4, lr}
1000429e:	4351      	muls	r1, r2
100042a0:	f000 f834 	bl	1000430c <_malloc_r>
100042a4:	1e04      	subs	r4, r0, #0
100042a6:	d00e      	beq.n	100042c6 <_calloc_r+0x2a>
100042a8:	0003      	movs	r3, r0
100042aa:	3b08      	subs	r3, #8
100042ac:	685a      	ldr	r2, [r3, #4]
100042ae:	2303      	movs	r3, #3
100042b0:	439a      	bics	r2, r3
100042b2:	3a04      	subs	r2, #4
100042b4:	2a24      	cmp	r2, #36	; 0x24
100042b6:	d815      	bhi.n	100042e4 <_calloc_r+0x48>
100042b8:	0003      	movs	r3, r0
100042ba:	2a13      	cmp	r2, #19
100042bc:	d805      	bhi.n	100042ca <_calloc_r+0x2e>
100042be:	2200      	movs	r2, #0
100042c0:	601a      	str	r2, [r3, #0]
100042c2:	605a      	str	r2, [r3, #4]
100042c4:	609a      	str	r2, [r3, #8]
100042c6:	0020      	movs	r0, r4
100042c8:	bd10      	pop	{r4, pc}
100042ca:	2100      	movs	r1, #0
100042cc:	3308      	adds	r3, #8
100042ce:	6001      	str	r1, [r0, #0]
100042d0:	6041      	str	r1, [r0, #4]
100042d2:	2a1b      	cmp	r2, #27
100042d4:	d9f3      	bls.n	100042be <_calloc_r+0x22>
100042d6:	6081      	str	r1, [r0, #8]
100042d8:	60c1      	str	r1, [r0, #12]
100042da:	2a24      	cmp	r2, #36	; 0x24
100042dc:	d006      	beq.n	100042ec <_calloc_r+0x50>
100042de:	0003      	movs	r3, r0
100042e0:	3310      	adds	r3, #16
100042e2:	e7ec      	b.n	100042be <_calloc_r+0x22>
100042e4:	2100      	movs	r1, #0
100042e6:	f7ff fcf5 	bl	10003cd4 <__wrap_memset>
100042ea:	e7ec      	b.n	100042c6 <_calloc_r+0x2a>
100042ec:	0003      	movs	r3, r0
100042ee:	6101      	str	r1, [r0, #16]
100042f0:	3318      	adds	r3, #24
100042f2:	6141      	str	r1, [r0, #20]
100042f4:	e7e3      	b.n	100042be <_calloc_r+0x22>
100042f6:	46c0      	nop			; (mov r8, r8)

100042f8 <malloc>:
100042f8:	b510      	push	{r4, lr}
100042fa:	4b03      	ldr	r3, [pc, #12]	; (10004308 <malloc+0x10>)
100042fc:	0001      	movs	r1, r0
100042fe:	6818      	ldr	r0, [r3, #0]
10004300:	f000 f804 	bl	1000430c <_malloc_r>
10004304:	bd10      	pop	{r4, pc}
10004306:	46c0      	nop			; (mov r8, r8)
10004308:	2000021c 	.word	0x2000021c

1000430c <_malloc_r>:
1000430c:	b5f0      	push	{r4, r5, r6, r7, lr}
1000430e:	464e      	mov	r6, r9
10004310:	4645      	mov	r5, r8
10004312:	46de      	mov	lr, fp
10004314:	4657      	mov	r7, sl
10004316:	b5e0      	push	{r5, r6, r7, lr}
10004318:	000d      	movs	r5, r1
1000431a:	350b      	adds	r5, #11
1000431c:	0006      	movs	r6, r0
1000431e:	b083      	sub	sp, #12
10004320:	2d16      	cmp	r5, #22
10004322:	d822      	bhi.n	1000436a <_malloc_r+0x5e>
10004324:	2910      	cmp	r1, #16
10004326:	d900      	bls.n	1000432a <_malloc_r+0x1e>
10004328:	e0b2      	b.n	10004490 <_malloc_r+0x184>
1000432a:	f000 faaf 	bl	1000488c <__malloc_lock>
1000432e:	2510      	movs	r5, #16
10004330:	2002      	movs	r0, #2
10004332:	2318      	movs	r3, #24
10004334:	4fcb      	ldr	r7, [pc, #812]	; (10004664 <_malloc_r+0x358>)
10004336:	18fb      	adds	r3, r7, r3
10004338:	001a      	movs	r2, r3
1000433a:	685c      	ldr	r4, [r3, #4]
1000433c:	3a08      	subs	r2, #8
1000433e:	4294      	cmp	r4, r2
10004340:	d100      	bne.n	10004344 <_malloc_r+0x38>
10004342:	e0b5      	b.n	100044b0 <_malloc_r+0x1a4>
10004344:	2303      	movs	r3, #3
10004346:	6862      	ldr	r2, [r4, #4]
10004348:	439a      	bics	r2, r3
1000434a:	0013      	movs	r3, r2
1000434c:	68e2      	ldr	r2, [r4, #12]
1000434e:	68a1      	ldr	r1, [r4, #8]
10004350:	60ca      	str	r2, [r1, #12]
10004352:	6091      	str	r1, [r2, #8]
10004354:	2201      	movs	r2, #1
10004356:	18e3      	adds	r3, r4, r3
10004358:	6859      	ldr	r1, [r3, #4]
1000435a:	0030      	movs	r0, r6
1000435c:	430a      	orrs	r2, r1
1000435e:	605a      	str	r2, [r3, #4]
10004360:	f000 fa9c 	bl	1000489c <__malloc_unlock>
10004364:	0020      	movs	r0, r4
10004366:	3008      	adds	r0, #8
10004368:	e095      	b.n	10004496 <_malloc_r+0x18a>
1000436a:	2307      	movs	r3, #7
1000436c:	439d      	bics	r5, r3
1000436e:	d500      	bpl.n	10004372 <_malloc_r+0x66>
10004370:	e08e      	b.n	10004490 <_malloc_r+0x184>
10004372:	42a9      	cmp	r1, r5
10004374:	d900      	bls.n	10004378 <_malloc_r+0x6c>
10004376:	e08b      	b.n	10004490 <_malloc_r+0x184>
10004378:	f000 fa88 	bl	1000488c <__malloc_lock>
1000437c:	23fc      	movs	r3, #252	; 0xfc
1000437e:	005b      	lsls	r3, r3, #1
10004380:	429d      	cmp	r5, r3
10004382:	d200      	bcs.n	10004386 <_malloc_r+0x7a>
10004384:	e1a5      	b.n	100046d2 <_malloc_r+0x3c6>
10004386:	0a68      	lsrs	r0, r5, #9
10004388:	d100      	bne.n	1000438c <_malloc_r+0x80>
1000438a:	e08b      	b.n	100044a4 <_malloc_r+0x198>
1000438c:	2804      	cmp	r0, #4
1000438e:	d900      	bls.n	10004392 <_malloc_r+0x86>
10004390:	e178      	b.n	10004684 <_malloc_r+0x378>
10004392:	2338      	movs	r3, #56	; 0x38
10004394:	4698      	mov	r8, r3
10004396:	09a8      	lsrs	r0, r5, #6
10004398:	4480      	add	r8, r0
1000439a:	3039      	adds	r0, #57	; 0x39
1000439c:	00c1      	lsls	r1, r0, #3
1000439e:	4fb1      	ldr	r7, [pc, #708]	; (10004664 <_malloc_r+0x358>)
100043a0:	1879      	adds	r1, r7, r1
100043a2:	684c      	ldr	r4, [r1, #4]
100043a4:	3908      	subs	r1, #8
100043a6:	42a1      	cmp	r1, r4
100043a8:	d00e      	beq.n	100043c8 <_malloc_r+0xbc>
100043aa:	2303      	movs	r3, #3
100043ac:	469c      	mov	ip, r3
100043ae:	e004      	b.n	100043ba <_malloc_r+0xae>
100043b0:	2a00      	cmp	r2, #0
100043b2:	dacb      	bge.n	1000434c <_malloc_r+0x40>
100043b4:	68e4      	ldr	r4, [r4, #12]
100043b6:	42a1      	cmp	r1, r4
100043b8:	d006      	beq.n	100043c8 <_malloc_r+0xbc>
100043ba:	4662      	mov	r2, ip
100043bc:	6863      	ldr	r3, [r4, #4]
100043be:	4393      	bics	r3, r2
100043c0:	1b5a      	subs	r2, r3, r5
100043c2:	2a0f      	cmp	r2, #15
100043c4:	ddf4      	ble.n	100043b0 <_malloc_r+0xa4>
100043c6:	4640      	mov	r0, r8
100043c8:	003a      	movs	r2, r7
100043ca:	693c      	ldr	r4, [r7, #16]
100043cc:	3208      	adds	r2, #8
100043ce:	4294      	cmp	r4, r2
100043d0:	d100      	bne.n	100043d4 <_malloc_r+0xc8>
100043d2:	e078      	b.n	100044c6 <_malloc_r+0x1ba>
100043d4:	2303      	movs	r3, #3
100043d6:	6861      	ldr	r1, [r4, #4]
100043d8:	4399      	bics	r1, r3
100043da:	4689      	mov	r9, r1
100043dc:	000b      	movs	r3, r1
100043de:	1b49      	subs	r1, r1, r5
100043e0:	290f      	cmp	r1, #15
100043e2:	dd00      	ble.n	100043e6 <_malloc_r+0xda>
100043e4:	e179      	b.n	100046da <_malloc_r+0x3ce>
100043e6:	617a      	str	r2, [r7, #20]
100043e8:	613a      	str	r2, [r7, #16]
100043ea:	2900      	cmp	r1, #0
100043ec:	dab2      	bge.n	10004354 <_malloc_r+0x48>
100043ee:	2280      	movs	r2, #128	; 0x80
100043f0:	0092      	lsls	r2, r2, #2
100043f2:	4591      	cmp	r9, r2
100043f4:	d300      	bcc.n	100043f8 <_malloc_r+0xec>
100043f6:	e10e      	b.n	10004616 <_malloc_r+0x30a>
100043f8:	0959      	lsrs	r1, r3, #5
100043fa:	08da      	lsrs	r2, r3, #3
100043fc:	2301      	movs	r3, #1
100043fe:	408b      	lsls	r3, r1
10004400:	00d2      	lsls	r2, r2, #3
10004402:	6879      	ldr	r1, [r7, #4]
10004404:	19d2      	adds	r2, r2, r7
10004406:	430b      	orrs	r3, r1
10004408:	6891      	ldr	r1, [r2, #8]
1000440a:	607b      	str	r3, [r7, #4]
1000440c:	60e2      	str	r2, [r4, #12]
1000440e:	60a1      	str	r1, [r4, #8]
10004410:	6094      	str	r4, [r2, #8]
10004412:	60cc      	str	r4, [r1, #12]
10004414:	2101      	movs	r1, #1
10004416:	1082      	asrs	r2, r0, #2
10004418:	4091      	lsls	r1, r2
1000441a:	4299      	cmp	r1, r3
1000441c:	d859      	bhi.n	100044d2 <_malloc_r+0x1c6>
1000441e:	420b      	tst	r3, r1
10004420:	d105      	bne.n	1000442e <_malloc_r+0x122>
10004422:	2203      	movs	r2, #3
10004424:	4390      	bics	r0, r2
10004426:	0049      	lsls	r1, r1, #1
10004428:	3004      	adds	r0, #4
1000442a:	420b      	tst	r3, r1
1000442c:	d0fb      	beq.n	10004426 <_malloc_r+0x11a>
1000442e:	2303      	movs	r3, #3
10004430:	4698      	mov	r8, r3
10004432:	00c3      	lsls	r3, r0, #3
10004434:	4699      	mov	r9, r3
10004436:	44b9      	add	r9, r7
10004438:	46cc      	mov	ip, r9
1000443a:	4682      	mov	sl, r0
1000443c:	4663      	mov	r3, ip
1000443e:	68dc      	ldr	r4, [r3, #12]
10004440:	45a4      	cmp	ip, r4
10004442:	d107      	bne.n	10004454 <_malloc_r+0x148>
10004444:	e12a      	b.n	1000469c <_malloc_r+0x390>
10004446:	2a00      	cmp	r2, #0
10004448:	db00      	blt.n	1000444c <_malloc_r+0x140>
1000444a:	e133      	b.n	100046b4 <_malloc_r+0x3a8>
1000444c:	68e4      	ldr	r4, [r4, #12]
1000444e:	45a4      	cmp	ip, r4
10004450:	d100      	bne.n	10004454 <_malloc_r+0x148>
10004452:	e123      	b.n	1000469c <_malloc_r+0x390>
10004454:	4642      	mov	r2, r8
10004456:	6863      	ldr	r3, [r4, #4]
10004458:	4393      	bics	r3, r2
1000445a:	1b5a      	subs	r2, r3, r5
1000445c:	2a0f      	cmp	r2, #15
1000445e:	ddf2      	ble.n	10004446 <_malloc_r+0x13a>
10004460:	2001      	movs	r0, #1
10004462:	4680      	mov	r8, r0
10004464:	1961      	adds	r1, r4, r5
10004466:	4305      	orrs	r5, r0
10004468:	6065      	str	r5, [r4, #4]
1000446a:	68a0      	ldr	r0, [r4, #8]
1000446c:	68e5      	ldr	r5, [r4, #12]
1000446e:	3708      	adds	r7, #8
10004470:	60c5      	str	r5, [r0, #12]
10004472:	60a8      	str	r0, [r5, #8]
10004474:	4640      	mov	r0, r8
10004476:	4310      	orrs	r0, r2
10004478:	60f9      	str	r1, [r7, #12]
1000447a:	60b9      	str	r1, [r7, #8]
1000447c:	6048      	str	r0, [r1, #4]
1000447e:	60cf      	str	r7, [r1, #12]
10004480:	0030      	movs	r0, r6
10004482:	608f      	str	r7, [r1, #8]
10004484:	50e2      	str	r2, [r4, r3]
10004486:	f000 fa09 	bl	1000489c <__malloc_unlock>
1000448a:	0020      	movs	r0, r4
1000448c:	3008      	adds	r0, #8
1000448e:	e002      	b.n	10004496 <_malloc_r+0x18a>
10004490:	230c      	movs	r3, #12
10004492:	2000      	movs	r0, #0
10004494:	6033      	str	r3, [r6, #0]
10004496:	b003      	add	sp, #12
10004498:	bc3c      	pop	{r2, r3, r4, r5}
1000449a:	4690      	mov	r8, r2
1000449c:	4699      	mov	r9, r3
1000449e:	46a2      	mov	sl, r4
100044a0:	46ab      	mov	fp, r5
100044a2:	bdf0      	pop	{r4, r5, r6, r7, pc}
100044a4:	2180      	movs	r1, #128	; 0x80
100044a6:	233f      	movs	r3, #63	; 0x3f
100044a8:	2040      	movs	r0, #64	; 0x40
100044aa:	4698      	mov	r8, r3
100044ac:	0089      	lsls	r1, r1, #2
100044ae:	e776      	b.n	1000439e <_malloc_r+0x92>
100044b0:	68dc      	ldr	r4, [r3, #12]
100044b2:	3002      	adds	r0, #2
100044b4:	42a3      	cmp	r3, r4
100044b6:	d000      	beq.n	100044ba <_malloc_r+0x1ae>
100044b8:	e744      	b.n	10004344 <_malloc_r+0x38>
100044ba:	003a      	movs	r2, r7
100044bc:	693c      	ldr	r4, [r7, #16]
100044be:	3208      	adds	r2, #8
100044c0:	4294      	cmp	r4, r2
100044c2:	d000      	beq.n	100044c6 <_malloc_r+0x1ba>
100044c4:	e786      	b.n	100043d4 <_malloc_r+0xc8>
100044c6:	2101      	movs	r1, #1
100044c8:	687b      	ldr	r3, [r7, #4]
100044ca:	1082      	asrs	r2, r0, #2
100044cc:	4091      	lsls	r1, r2
100044ce:	4299      	cmp	r1, r3
100044d0:	d9a5      	bls.n	1000441e <_malloc_r+0x112>
100044d2:	2303      	movs	r3, #3
100044d4:	68bc      	ldr	r4, [r7, #8]
100044d6:	6862      	ldr	r2, [r4, #4]
100044d8:	439a      	bics	r2, r3
100044da:	4691      	mov	r9, r2
100044dc:	4295      	cmp	r5, r2
100044de:	d803      	bhi.n	100044e8 <_malloc_r+0x1dc>
100044e0:	1b53      	subs	r3, r2, r5
100044e2:	2b0f      	cmp	r3, #15
100044e4:	dd00      	ble.n	100044e8 <_malloc_r+0x1dc>
100044e6:	e088      	b.n	100045fa <_malloc_r+0x2ee>
100044e8:	0023      	movs	r3, r4
100044ea:	444b      	add	r3, r9
100044ec:	4a5e      	ldr	r2, [pc, #376]	; (10004668 <_malloc_r+0x35c>)
100044ee:	9301      	str	r3, [sp, #4]
100044f0:	4b5e      	ldr	r3, [pc, #376]	; (1000466c <_malloc_r+0x360>)
100044f2:	4693      	mov	fp, r2
100044f4:	681b      	ldr	r3, [r3, #0]
100044f6:	6812      	ldr	r2, [r2, #0]
100044f8:	18eb      	adds	r3, r5, r3
100044fa:	3201      	adds	r2, #1
100044fc:	d100      	bne.n	10004500 <_malloc_r+0x1f4>
100044fe:	e13b      	b.n	10004778 <_malloc_r+0x46c>
10004500:	4a5b      	ldr	r2, [pc, #364]	; (10004670 <_malloc_r+0x364>)
10004502:	4694      	mov	ip, r2
10004504:	4463      	add	r3, ip
10004506:	0b1b      	lsrs	r3, r3, #12
10004508:	031b      	lsls	r3, r3, #12
1000450a:	9300      	str	r3, [sp, #0]
1000450c:	0030      	movs	r0, r6
1000450e:	9900      	ldr	r1, [sp, #0]
10004510:	f000 f9cc 	bl	100048ac <_sbrk_r>
10004514:	0003      	movs	r3, r0
10004516:	4680      	mov	r8, r0
10004518:	3301      	adds	r3, #1
1000451a:	d100      	bne.n	1000451e <_malloc_r+0x212>
1000451c:	e0f8      	b.n	10004710 <_malloc_r+0x404>
1000451e:	9b01      	ldr	r3, [sp, #4]
10004520:	4283      	cmp	r3, r0
10004522:	d900      	bls.n	10004526 <_malloc_r+0x21a>
10004524:	e0f2      	b.n	1000470c <_malloc_r+0x400>
10004526:	4b53      	ldr	r3, [pc, #332]	; (10004674 <_malloc_r+0x368>)
10004528:	0019      	movs	r1, r3
1000452a:	469a      	mov	sl, r3
1000452c:	6809      	ldr	r1, [r1, #0]
1000452e:	9b00      	ldr	r3, [sp, #0]
10004530:	468c      	mov	ip, r1
10004532:	4651      	mov	r1, sl
10004534:	4463      	add	r3, ip
10004536:	600b      	str	r3, [r1, #0]
10004538:	9901      	ldr	r1, [sp, #4]
1000453a:	001a      	movs	r2, r3
1000453c:	4281      	cmp	r1, r0
1000453e:	d100      	bne.n	10004542 <_malloc_r+0x236>
10004540:	e150      	b.n	100047e4 <_malloc_r+0x4d8>
10004542:	465b      	mov	r3, fp
10004544:	681b      	ldr	r3, [r3, #0]
10004546:	3301      	adds	r3, #1
10004548:	d100      	bne.n	1000454c <_malloc_r+0x240>
1000454a:	e155      	b.n	100047f8 <_malloc_r+0x4ec>
1000454c:	4643      	mov	r3, r8
1000454e:	9901      	ldr	r1, [sp, #4]
10004550:	1a5b      	subs	r3, r3, r1
10004552:	189a      	adds	r2, r3, r2
10004554:	4653      	mov	r3, sl
10004556:	601a      	str	r2, [r3, #0]
10004558:	2307      	movs	r3, #7
1000455a:	4642      	mov	r2, r8
1000455c:	4641      	mov	r1, r8
1000455e:	401a      	ands	r2, r3
10004560:	9201      	str	r2, [sp, #4]
10004562:	4219      	tst	r1, r3
10004564:	d100      	bne.n	10004568 <_malloc_r+0x25c>
10004566:	e111      	b.n	1000478c <_malloc_r+0x480>
10004568:	2308      	movs	r3, #8
1000456a:	4698      	mov	r8, r3
1000456c:	1a88      	subs	r0, r1, r2
1000456e:	4b42      	ldr	r3, [pc, #264]	; (10004678 <_malloc_r+0x36c>)
10004570:	9900      	ldr	r1, [sp, #0]
10004572:	4480      	add	r8, r0
10004574:	4441      	add	r1, r8
10004576:	1a9b      	subs	r3, r3, r2
10004578:	1a5b      	subs	r3, r3, r1
1000457a:	051b      	lsls	r3, r3, #20
1000457c:	0d1b      	lsrs	r3, r3, #20
1000457e:	9100      	str	r1, [sp, #0]
10004580:	0030      	movs	r0, r6
10004582:	0019      	movs	r1, r3
10004584:	469b      	mov	fp, r3
10004586:	f000 f991 	bl	100048ac <_sbrk_r>
1000458a:	1c43      	adds	r3, r0, #1
1000458c:	d100      	bne.n	10004590 <_malloc_r+0x284>
1000458e:	e14f      	b.n	10004830 <_malloc_r+0x524>
10004590:	4643      	mov	r3, r8
10004592:	1ac0      	subs	r0, r0, r3
10004594:	0003      	movs	r3, r0
10004596:	445b      	add	r3, fp
10004598:	9300      	str	r3, [sp, #0]
1000459a:	4653      	mov	r3, sl
1000459c:	4652      	mov	r2, sl
1000459e:	681b      	ldr	r3, [r3, #0]
100045a0:	2101      	movs	r1, #1
100045a2:	445b      	add	r3, fp
100045a4:	6013      	str	r3, [r2, #0]
100045a6:	4642      	mov	r2, r8
100045a8:	4640      	mov	r0, r8
100045aa:	60ba      	str	r2, [r7, #8]
100045ac:	9a00      	ldr	r2, [sp, #0]
100045ae:	430a      	orrs	r2, r1
100045b0:	6042      	str	r2, [r0, #4]
100045b2:	42bc      	cmp	r4, r7
100045b4:	d100      	bne.n	100045b8 <_malloc_r+0x2ac>
100045b6:	e123      	b.n	10004800 <_malloc_r+0x4f4>
100045b8:	464a      	mov	r2, r9
100045ba:	2a0f      	cmp	r2, #15
100045bc:	d800      	bhi.n	100045c0 <_malloc_r+0x2b4>
100045be:	e121      	b.n	10004804 <_malloc_r+0x4f8>
100045c0:	2007      	movs	r0, #7
100045c2:	3a0c      	subs	r2, #12
100045c4:	4382      	bics	r2, r0
100045c6:	6860      	ldr	r0, [r4, #4]
100045c8:	4001      	ands	r1, r0
100045ca:	2005      	movs	r0, #5
100045cc:	4311      	orrs	r1, r2
100045ce:	6061      	str	r1, [r4, #4]
100045d0:	18a1      	adds	r1, r4, r2
100045d2:	6048      	str	r0, [r1, #4]
100045d4:	6088      	str	r0, [r1, #8]
100045d6:	2a0f      	cmp	r2, #15
100045d8:	d900      	bls.n	100045dc <_malloc_r+0x2d0>
100045da:	e134      	b.n	10004846 <_malloc_r+0x53a>
100045dc:	4642      	mov	r2, r8
100045de:	4644      	mov	r4, r8
100045e0:	6852      	ldr	r2, [r2, #4]
100045e2:	4926      	ldr	r1, [pc, #152]	; (1000467c <_malloc_r+0x370>)
100045e4:	6808      	ldr	r0, [r1, #0]
100045e6:	4298      	cmp	r0, r3
100045e8:	d200      	bcs.n	100045ec <_malloc_r+0x2e0>
100045ea:	600b      	str	r3, [r1, #0]
100045ec:	4924      	ldr	r1, [pc, #144]	; (10004680 <_malloc_r+0x374>)
100045ee:	6808      	ldr	r0, [r1, #0]
100045f0:	4298      	cmp	r0, r3
100045f2:	d300      	bcc.n	100045f6 <_malloc_r+0x2ea>
100045f4:	e08e      	b.n	10004714 <_malloc_r+0x408>
100045f6:	600b      	str	r3, [r1, #0]
100045f8:	e08c      	b.n	10004714 <_malloc_r+0x408>
100045fa:	2201      	movs	r2, #1
100045fc:	0029      	movs	r1, r5
100045fe:	4313      	orrs	r3, r2
10004600:	4311      	orrs	r1, r2
10004602:	1965      	adds	r5, r4, r5
10004604:	6061      	str	r1, [r4, #4]
10004606:	0030      	movs	r0, r6
10004608:	60bd      	str	r5, [r7, #8]
1000460a:	606b      	str	r3, [r5, #4]
1000460c:	f000 f946 	bl	1000489c <__malloc_unlock>
10004610:	0020      	movs	r0, r4
10004612:	3008      	adds	r0, #8
10004614:	e73f      	b.n	10004496 <_malloc_r+0x18a>
10004616:	0a5a      	lsrs	r2, r3, #9
10004618:	2a04      	cmp	r2, #4
1000461a:	d971      	bls.n	10004700 <_malloc_r+0x3f4>
1000461c:	2a14      	cmp	r2, #20
1000461e:	d900      	bls.n	10004622 <_malloc_r+0x316>
10004620:	e0c4      	b.n	100047ac <_malloc_r+0x4a0>
10004622:	0011      	movs	r1, r2
10004624:	325c      	adds	r2, #92	; 0x5c
10004626:	315b      	adds	r1, #91	; 0x5b
10004628:	00d2      	lsls	r2, r2, #3
1000462a:	2308      	movs	r3, #8
1000462c:	425b      	negs	r3, r3
1000462e:	469c      	mov	ip, r3
10004630:	18ba      	adds	r2, r7, r2
10004632:	4494      	add	ip, r2
10004634:	4663      	mov	r3, ip
10004636:	689a      	ldr	r2, [r3, #8]
10004638:	2303      	movs	r3, #3
1000463a:	4698      	mov	r8, r3
1000463c:	4594      	cmp	ip, r2
1000463e:	d100      	bne.n	10004642 <_malloc_r+0x336>
10004640:	e09d      	b.n	1000477e <_malloc_r+0x472>
10004642:	4643      	mov	r3, r8
10004644:	6851      	ldr	r1, [r2, #4]
10004646:	4399      	bics	r1, r3
10004648:	4549      	cmp	r1, r9
1000464a:	d902      	bls.n	10004652 <_malloc_r+0x346>
1000464c:	6892      	ldr	r2, [r2, #8]
1000464e:	4594      	cmp	ip, r2
10004650:	d1f7      	bne.n	10004642 <_malloc_r+0x336>
10004652:	68d3      	ldr	r3, [r2, #12]
10004654:	469c      	mov	ip, r3
10004656:	687b      	ldr	r3, [r7, #4]
10004658:	4661      	mov	r1, ip
1000465a:	60a2      	str	r2, [r4, #8]
1000465c:	60e1      	str	r1, [r4, #12]
1000465e:	608c      	str	r4, [r1, #8]
10004660:	60d4      	str	r4, [r2, #12]
10004662:	e6d7      	b.n	10004414 <_malloc_r+0x108>
10004664:	20000648 	.word	0x20000648
10004668:	20000a50 	.word	0x20000a50
1000466c:	20000ac0 	.word	0x20000ac0
10004670:	0000100f 	.word	0x0000100f
10004674:	20000a90 	.word	0x20000a90
10004678:	00001008 	.word	0x00001008
1000467c:	20000ab8 	.word	0x20000ab8
10004680:	20000abc 	.word	0x20000abc
10004684:	2814      	cmp	r0, #20
10004686:	d952      	bls.n	1000472e <_malloc_r+0x422>
10004688:	2854      	cmp	r0, #84	; 0x54
1000468a:	d900      	bls.n	1000468e <_malloc_r+0x382>
1000468c:	e096      	b.n	100047bc <_malloc_r+0x4b0>
1000468e:	236e      	movs	r3, #110	; 0x6e
10004690:	4698      	mov	r8, r3
10004692:	0b28      	lsrs	r0, r5, #12
10004694:	4480      	add	r8, r0
10004696:	306f      	adds	r0, #111	; 0x6f
10004698:	00c1      	lsls	r1, r0, #3
1000469a:	e680      	b.n	1000439e <_malloc_r+0x92>
1000469c:	2308      	movs	r3, #8
1000469e:	469b      	mov	fp, r3
100046a0:	3b07      	subs	r3, #7
100046a2:	44dc      	add	ip, fp
100046a4:	469b      	mov	fp, r3
100046a6:	44da      	add	sl, fp
100046a8:	4643      	mov	r3, r8
100046aa:	4652      	mov	r2, sl
100046ac:	4213      	tst	r3, r2
100046ae:	d000      	beq.n	100046b2 <_malloc_r+0x3a6>
100046b0:	e6c4      	b.n	1000443c <_malloc_r+0x130>
100046b2:	e04c      	b.n	1000474e <_malloc_r+0x442>
100046b4:	2201      	movs	r2, #1
100046b6:	18e3      	adds	r3, r4, r3
100046b8:	6859      	ldr	r1, [r3, #4]
100046ba:	0030      	movs	r0, r6
100046bc:	430a      	orrs	r2, r1
100046be:	605a      	str	r2, [r3, #4]
100046c0:	68e3      	ldr	r3, [r4, #12]
100046c2:	68a2      	ldr	r2, [r4, #8]
100046c4:	60d3      	str	r3, [r2, #12]
100046c6:	609a      	str	r2, [r3, #8]
100046c8:	f000 f8e8 	bl	1000489c <__malloc_unlock>
100046cc:	0020      	movs	r0, r4
100046ce:	3008      	adds	r0, #8
100046d0:	e6e1      	b.n	10004496 <_malloc_r+0x18a>
100046d2:	002b      	movs	r3, r5
100046d4:	08e8      	lsrs	r0, r5, #3
100046d6:	3308      	adds	r3, #8
100046d8:	e62c      	b.n	10004334 <_malloc_r+0x28>
100046da:	2301      	movs	r3, #1
100046dc:	1960      	adds	r0, r4, r5
100046de:	431d      	orrs	r5, r3
100046e0:	6065      	str	r5, [r4, #4]
100046e2:	6178      	str	r0, [r7, #20]
100046e4:	6138      	str	r0, [r7, #16]
100046e6:	60c2      	str	r2, [r0, #12]
100046e8:	6082      	str	r2, [r0, #8]
100046ea:	001a      	movs	r2, r3
100046ec:	464b      	mov	r3, r9
100046ee:	430a      	orrs	r2, r1
100046f0:	6042      	str	r2, [r0, #4]
100046f2:	0030      	movs	r0, r6
100046f4:	50e1      	str	r1, [r4, r3]
100046f6:	f000 f8d1 	bl	1000489c <__malloc_unlock>
100046fa:	0020      	movs	r0, r4
100046fc:	3008      	adds	r0, #8
100046fe:	e6ca      	b.n	10004496 <_malloc_r+0x18a>
10004700:	099a      	lsrs	r2, r3, #6
10004702:	0011      	movs	r1, r2
10004704:	3239      	adds	r2, #57	; 0x39
10004706:	3138      	adds	r1, #56	; 0x38
10004708:	00d2      	lsls	r2, r2, #3
1000470a:	e78e      	b.n	1000462a <_malloc_r+0x31e>
1000470c:	42bc      	cmp	r4, r7
1000470e:	d060      	beq.n	100047d2 <_malloc_r+0x4c6>
10004710:	68bc      	ldr	r4, [r7, #8]
10004712:	6862      	ldr	r2, [r4, #4]
10004714:	2303      	movs	r3, #3
10004716:	439a      	bics	r2, r3
10004718:	1b53      	subs	r3, r2, r5
1000471a:	4295      	cmp	r5, r2
1000471c:	d802      	bhi.n	10004724 <_malloc_r+0x418>
1000471e:	2b0f      	cmp	r3, #15
10004720:	dd00      	ble.n	10004724 <_malloc_r+0x418>
10004722:	e76a      	b.n	100045fa <_malloc_r+0x2ee>
10004724:	0030      	movs	r0, r6
10004726:	f000 f8b9 	bl	1000489c <__malloc_unlock>
1000472a:	2000      	movs	r0, #0
1000472c:	e6b3      	b.n	10004496 <_malloc_r+0x18a>
1000472e:	235b      	movs	r3, #91	; 0x5b
10004730:	4698      	mov	r8, r3
10004732:	4480      	add	r8, r0
10004734:	305c      	adds	r0, #92	; 0x5c
10004736:	00c1      	lsls	r1, r0, #3
10004738:	e631      	b.n	1000439e <_malloc_r+0x92>
1000473a:	2308      	movs	r3, #8
1000473c:	425b      	negs	r3, r3
1000473e:	469c      	mov	ip, r3
10004740:	44e1      	add	r9, ip
10004742:	464b      	mov	r3, r9
10004744:	689b      	ldr	r3, [r3, #8]
10004746:	3801      	subs	r0, #1
10004748:	454b      	cmp	r3, r9
1000474a:	d000      	beq.n	1000474e <_malloc_r+0x442>
1000474c:	e098      	b.n	10004880 <_malloc_r+0x574>
1000474e:	4643      	mov	r3, r8
10004750:	4203      	tst	r3, r0
10004752:	d1f2      	bne.n	1000473a <_malloc_r+0x42e>
10004754:	687b      	ldr	r3, [r7, #4]
10004756:	438b      	bics	r3, r1
10004758:	607b      	str	r3, [r7, #4]
1000475a:	0049      	lsls	r1, r1, #1
1000475c:	4299      	cmp	r1, r3
1000475e:	d900      	bls.n	10004762 <_malloc_r+0x456>
10004760:	e6b7      	b.n	100044d2 <_malloc_r+0x1c6>
10004762:	2900      	cmp	r1, #0
10004764:	d104      	bne.n	10004770 <_malloc_r+0x464>
10004766:	e6b4      	b.n	100044d2 <_malloc_r+0x1c6>
10004768:	2204      	movs	r2, #4
1000476a:	4694      	mov	ip, r2
1000476c:	0049      	lsls	r1, r1, #1
1000476e:	44e2      	add	sl, ip
10004770:	420b      	tst	r3, r1
10004772:	d0f9      	beq.n	10004768 <_malloc_r+0x45c>
10004774:	4650      	mov	r0, sl
10004776:	e65c      	b.n	10004432 <_malloc_r+0x126>
10004778:	3310      	adds	r3, #16
1000477a:	9300      	str	r3, [sp, #0]
1000477c:	e6c6      	b.n	1000450c <_malloc_r+0x200>
1000477e:	1089      	asrs	r1, r1, #2
10004780:	3b02      	subs	r3, #2
10004782:	408b      	lsls	r3, r1
10004784:	6879      	ldr	r1, [r7, #4]
10004786:	430b      	orrs	r3, r1
10004788:	607b      	str	r3, [r7, #4]
1000478a:	e765      	b.n	10004658 <_malloc_r+0x34c>
1000478c:	9b00      	ldr	r3, [sp, #0]
1000478e:	0030      	movs	r0, r6
10004790:	4443      	add	r3, r8
10004792:	425b      	negs	r3, r3
10004794:	051b      	lsls	r3, r3, #20
10004796:	0d1b      	lsrs	r3, r3, #20
10004798:	0019      	movs	r1, r3
1000479a:	469b      	mov	fp, r3
1000479c:	f000 f886 	bl	100048ac <_sbrk_r>
100047a0:	1c43      	adds	r3, r0, #1
100047a2:	d000      	beq.n	100047a6 <_malloc_r+0x49a>
100047a4:	e6f4      	b.n	10004590 <_malloc_r+0x284>
100047a6:	2300      	movs	r3, #0
100047a8:	469b      	mov	fp, r3
100047aa:	e6f6      	b.n	1000459a <_malloc_r+0x28e>
100047ac:	2a54      	cmp	r2, #84	; 0x54
100047ae:	d82b      	bhi.n	10004808 <_malloc_r+0x4fc>
100047b0:	0b1a      	lsrs	r2, r3, #12
100047b2:	0011      	movs	r1, r2
100047b4:	326f      	adds	r2, #111	; 0x6f
100047b6:	316e      	adds	r1, #110	; 0x6e
100047b8:	00d2      	lsls	r2, r2, #3
100047ba:	e736      	b.n	1000462a <_malloc_r+0x31e>
100047bc:	23aa      	movs	r3, #170	; 0xaa
100047be:	005b      	lsls	r3, r3, #1
100047c0:	4298      	cmp	r0, r3
100047c2:	d82b      	bhi.n	1000481c <_malloc_r+0x510>
100047c4:	3bdd      	subs	r3, #221	; 0xdd
100047c6:	4698      	mov	r8, r3
100047c8:	0be8      	lsrs	r0, r5, #15
100047ca:	4480      	add	r8, r0
100047cc:	3078      	adds	r0, #120	; 0x78
100047ce:	00c1      	lsls	r1, r0, #3
100047d0:	e5e5      	b.n	1000439e <_malloc_r+0x92>
100047d2:	4b2c      	ldr	r3, [pc, #176]	; (10004884 <_malloc_r+0x578>)
100047d4:	9a00      	ldr	r2, [sp, #0]
100047d6:	469a      	mov	sl, r3
100047d8:	681b      	ldr	r3, [r3, #0]
100047da:	469c      	mov	ip, r3
100047dc:	4653      	mov	r3, sl
100047de:	4462      	add	r2, ip
100047e0:	601a      	str	r2, [r3, #0]
100047e2:	e6ae      	b.n	10004542 <_malloc_r+0x236>
100047e4:	0509      	lsls	r1, r1, #20
100047e6:	d000      	beq.n	100047ea <_malloc_r+0x4de>
100047e8:	e6ab      	b.n	10004542 <_malloc_r+0x236>
100047ea:	9a00      	ldr	r2, [sp, #0]
100047ec:	68bc      	ldr	r4, [r7, #8]
100047ee:	444a      	add	r2, r9
100047f0:	3101      	adds	r1, #1
100047f2:	430a      	orrs	r2, r1
100047f4:	6062      	str	r2, [r4, #4]
100047f6:	e6f4      	b.n	100045e2 <_malloc_r+0x2d6>
100047f8:	465b      	mov	r3, fp
100047fa:	4642      	mov	r2, r8
100047fc:	601a      	str	r2, [r3, #0]
100047fe:	e6ab      	b.n	10004558 <_malloc_r+0x24c>
10004800:	4644      	mov	r4, r8
10004802:	e6ee      	b.n	100045e2 <_malloc_r+0x2d6>
10004804:	6041      	str	r1, [r0, #4]
10004806:	e78d      	b.n	10004724 <_malloc_r+0x418>
10004808:	21aa      	movs	r1, #170	; 0xaa
1000480a:	0049      	lsls	r1, r1, #1
1000480c:	428a      	cmp	r2, r1
1000480e:	d824      	bhi.n	1000485a <_malloc_r+0x54e>
10004810:	0bda      	lsrs	r2, r3, #15
10004812:	0011      	movs	r1, r2
10004814:	3278      	adds	r2, #120	; 0x78
10004816:	3177      	adds	r1, #119	; 0x77
10004818:	00d2      	lsls	r2, r2, #3
1000481a:	e706      	b.n	1000462a <_malloc_r+0x31e>
1000481c:	4b1a      	ldr	r3, [pc, #104]	; (10004888 <_malloc_r+0x57c>)
1000481e:	4298      	cmp	r0, r3
10004820:	d824      	bhi.n	1000486c <_malloc_r+0x560>
10004822:	237c      	movs	r3, #124	; 0x7c
10004824:	4698      	mov	r8, r3
10004826:	0ca8      	lsrs	r0, r5, #18
10004828:	4480      	add	r8, r0
1000482a:	307d      	adds	r0, #125	; 0x7d
1000482c:	00c1      	lsls	r1, r0, #3
1000482e:	e5b6      	b.n	1000439e <_malloc_r+0x92>
10004830:	9a00      	ldr	r2, [sp, #0]
10004832:	9b01      	ldr	r3, [sp, #4]
10004834:	4694      	mov	ip, r2
10004836:	4642      	mov	r2, r8
10004838:	3b08      	subs	r3, #8
1000483a:	4463      	add	r3, ip
1000483c:	1a9b      	subs	r3, r3, r2
1000483e:	9300      	str	r3, [sp, #0]
10004840:	2300      	movs	r3, #0
10004842:	469b      	mov	fp, r3
10004844:	e6a9      	b.n	1000459a <_malloc_r+0x28e>
10004846:	0021      	movs	r1, r4
10004848:	0030      	movs	r0, r6
1000484a:	3108      	adds	r1, #8
1000484c:	f000 f8bc 	bl	100049c8 <_free_r>
10004850:	4653      	mov	r3, sl
10004852:	68bc      	ldr	r4, [r7, #8]
10004854:	681b      	ldr	r3, [r3, #0]
10004856:	6862      	ldr	r2, [r4, #4]
10004858:	e6c3      	b.n	100045e2 <_malloc_r+0x2d6>
1000485a:	490b      	ldr	r1, [pc, #44]	; (10004888 <_malloc_r+0x57c>)
1000485c:	428a      	cmp	r2, r1
1000485e:	d80b      	bhi.n	10004878 <_malloc_r+0x56c>
10004860:	0c9a      	lsrs	r2, r3, #18
10004862:	0011      	movs	r1, r2
10004864:	327d      	adds	r2, #125	; 0x7d
10004866:	317c      	adds	r1, #124	; 0x7c
10004868:	00d2      	lsls	r2, r2, #3
1000486a:	e6de      	b.n	1000462a <_malloc_r+0x31e>
1000486c:	21fe      	movs	r1, #254	; 0xfe
1000486e:	237e      	movs	r3, #126	; 0x7e
10004870:	207f      	movs	r0, #127	; 0x7f
10004872:	4698      	mov	r8, r3
10004874:	0089      	lsls	r1, r1, #2
10004876:	e592      	b.n	1000439e <_malloc_r+0x92>
10004878:	22fe      	movs	r2, #254	; 0xfe
1000487a:	217e      	movs	r1, #126	; 0x7e
1000487c:	0092      	lsls	r2, r2, #2
1000487e:	e6d4      	b.n	1000462a <_malloc_r+0x31e>
10004880:	687b      	ldr	r3, [r7, #4]
10004882:	e76a      	b.n	1000475a <_malloc_r+0x44e>
10004884:	20000a90 	.word	0x20000a90
10004888:	00000554 	.word	0x00000554

1000488c <__malloc_lock>:
1000488c:	b510      	push	{r4, lr}
1000488e:	4802      	ldr	r0, [pc, #8]	; (10004898 <__malloc_lock+0xc>)
10004890:	f000 f97c 	bl	10004b8c <__retarget_lock_acquire_recursive>
10004894:	bd10      	pop	{r4, pc}
10004896:	46c0      	nop			; (mov r8, r8)
10004898:	20000d4c 	.word	0x20000d4c

1000489c <__malloc_unlock>:
1000489c:	b510      	push	{r4, lr}
1000489e:	4802      	ldr	r0, [pc, #8]	; (100048a8 <__malloc_unlock+0xc>)
100048a0:	f000 f976 	bl	10004b90 <__retarget_lock_release_recursive>
100048a4:	bd10      	pop	{r4, pc}
100048a6:	46c0      	nop			; (mov r8, r8)
100048a8:	20000d4c 	.word	0x20000d4c

100048ac <_sbrk_r>:
100048ac:	2300      	movs	r3, #0
100048ae:	b570      	push	{r4, r5, r6, lr}
100048b0:	4d06      	ldr	r5, [pc, #24]	; (100048cc <_sbrk_r+0x20>)
100048b2:	0004      	movs	r4, r0
100048b4:	0008      	movs	r0, r1
100048b6:	602b      	str	r3, [r5, #0]
100048b8:	f7fc fc3e 	bl	10001138 <_sbrk>
100048bc:	1c43      	adds	r3, r0, #1
100048be:	d000      	beq.n	100048c2 <_sbrk_r+0x16>
100048c0:	bd70      	pop	{r4, r5, r6, pc}
100048c2:	682b      	ldr	r3, [r5, #0]
100048c4:	2b00      	cmp	r3, #0
100048c6:	d0fb      	beq.n	100048c0 <_sbrk_r+0x14>
100048c8:	6023      	str	r3, [r4, #0]
100048ca:	e7f9      	b.n	100048c0 <_sbrk_r+0x14>
100048cc:	20000d60 	.word	0x20000d60

100048d0 <strlen>:
100048d0:	b510      	push	{r4, lr}
100048d2:	0783      	lsls	r3, r0, #30
100048d4:	d00a      	beq.n	100048ec <strlen+0x1c>
100048d6:	0003      	movs	r3, r0
100048d8:	2103      	movs	r1, #3
100048da:	e002      	b.n	100048e2 <strlen+0x12>
100048dc:	3301      	adds	r3, #1
100048de:	420b      	tst	r3, r1
100048e0:	d005      	beq.n	100048ee <strlen+0x1e>
100048e2:	781a      	ldrb	r2, [r3, #0]
100048e4:	2a00      	cmp	r2, #0
100048e6:	d1f9      	bne.n	100048dc <strlen+0xc>
100048e8:	1a18      	subs	r0, r3, r0
100048ea:	bd10      	pop	{r4, pc}
100048ec:	0003      	movs	r3, r0
100048ee:	6819      	ldr	r1, [r3, #0]
100048f0:	4a0c      	ldr	r2, [pc, #48]	; (10004924 <strlen+0x54>)
100048f2:	4c0d      	ldr	r4, [pc, #52]	; (10004928 <strlen+0x58>)
100048f4:	188a      	adds	r2, r1, r2
100048f6:	438a      	bics	r2, r1
100048f8:	4222      	tst	r2, r4
100048fa:	d10f      	bne.n	1000491c <strlen+0x4c>
100048fc:	6859      	ldr	r1, [r3, #4]
100048fe:	4a09      	ldr	r2, [pc, #36]	; (10004924 <strlen+0x54>)
10004900:	3304      	adds	r3, #4
10004902:	188a      	adds	r2, r1, r2
10004904:	438a      	bics	r2, r1
10004906:	4222      	tst	r2, r4
10004908:	d108      	bne.n	1000491c <strlen+0x4c>
1000490a:	6859      	ldr	r1, [r3, #4]
1000490c:	4a05      	ldr	r2, [pc, #20]	; (10004924 <strlen+0x54>)
1000490e:	3304      	adds	r3, #4
10004910:	188a      	adds	r2, r1, r2
10004912:	438a      	bics	r2, r1
10004914:	4222      	tst	r2, r4
10004916:	d0f1      	beq.n	100048fc <strlen+0x2c>
10004918:	e000      	b.n	1000491c <strlen+0x4c>
1000491a:	3301      	adds	r3, #1
1000491c:	781a      	ldrb	r2, [r3, #0]
1000491e:	2a00      	cmp	r2, #0
10004920:	d1fb      	bne.n	1000491a <strlen+0x4a>
10004922:	e7e1      	b.n	100048e8 <strlen+0x18>
10004924:	fefefeff 	.word	0xfefefeff
10004928:	80808080 	.word	0x80808080

1000492c <_malloc_trim_r>:
1000492c:	b5f8      	push	{r3, r4, r5, r6, r7, lr}
1000492e:	000c      	movs	r4, r1
10004930:	0005      	movs	r5, r0
10004932:	f7ff ffab 	bl	1000488c <__malloc_lock>
10004936:	4f20      	ldr	r7, [pc, #128]	; (100049b8 <_malloc_trim_r+0x8c>)
10004938:	68bb      	ldr	r3, [r7, #8]
1000493a:	685e      	ldr	r6, [r3, #4]
1000493c:	2303      	movs	r3, #3
1000493e:	439e      	bics	r6, r3
10004940:	4b1e      	ldr	r3, [pc, #120]	; (100049bc <_malloc_trim_r+0x90>)
10004942:	1b34      	subs	r4, r6, r4
10004944:	469c      	mov	ip, r3
10004946:	4464      	add	r4, ip
10004948:	0b24      	lsrs	r4, r4, #12
1000494a:	3c01      	subs	r4, #1
1000494c:	3311      	adds	r3, #17
1000494e:	0324      	lsls	r4, r4, #12
10004950:	429c      	cmp	r4, r3
10004952:	db07      	blt.n	10004964 <_malloc_trim_r+0x38>
10004954:	2100      	movs	r1, #0
10004956:	0028      	movs	r0, r5
10004958:	f7ff ffa8 	bl	100048ac <_sbrk_r>
1000495c:	68bb      	ldr	r3, [r7, #8]
1000495e:	199b      	adds	r3, r3, r6
10004960:	4298      	cmp	r0, r3
10004962:	d004      	beq.n	1000496e <_malloc_trim_r+0x42>
10004964:	0028      	movs	r0, r5
10004966:	f7ff ff99 	bl	1000489c <__malloc_unlock>
1000496a:	2000      	movs	r0, #0
1000496c:	bdf8      	pop	{r3, r4, r5, r6, r7, pc}
1000496e:	0028      	movs	r0, r5
10004970:	4261      	negs	r1, r4
10004972:	f7ff ff9b 	bl	100048ac <_sbrk_r>
10004976:	1c43      	adds	r3, r0, #1
10004978:	d00d      	beq.n	10004996 <_malloc_trim_r+0x6a>
1000497a:	2201      	movs	r2, #1
1000497c:	68bb      	ldr	r3, [r7, #8]
1000497e:	1b36      	subs	r6, r6, r4
10004980:	4316      	orrs	r6, r2
10004982:	605e      	str	r6, [r3, #4]
10004984:	4b0e      	ldr	r3, [pc, #56]	; (100049c0 <_malloc_trim_r+0x94>)
10004986:	0028      	movs	r0, r5
10004988:	681a      	ldr	r2, [r3, #0]
1000498a:	1b14      	subs	r4, r2, r4
1000498c:	601c      	str	r4, [r3, #0]
1000498e:	f7ff ff85 	bl	1000489c <__malloc_unlock>
10004992:	2001      	movs	r0, #1
10004994:	e7ea      	b.n	1000496c <_malloc_trim_r+0x40>
10004996:	2100      	movs	r1, #0
10004998:	0028      	movs	r0, r5
1000499a:	f7ff ff87 	bl	100048ac <_sbrk_r>
1000499e:	68ba      	ldr	r2, [r7, #8]
100049a0:	1a83      	subs	r3, r0, r2
100049a2:	2b0f      	cmp	r3, #15
100049a4:	ddde      	ble.n	10004964 <_malloc_trim_r+0x38>
100049a6:	4907      	ldr	r1, [pc, #28]	; (100049c4 <_malloc_trim_r+0x98>)
100049a8:	6809      	ldr	r1, [r1, #0]
100049aa:	1a40      	subs	r0, r0, r1
100049ac:	4904      	ldr	r1, [pc, #16]	; (100049c0 <_malloc_trim_r+0x94>)
100049ae:	6008      	str	r0, [r1, #0]
100049b0:	2101      	movs	r1, #1
100049b2:	430b      	orrs	r3, r1
100049b4:	6053      	str	r3, [r2, #4]
100049b6:	e7d5      	b.n	10004964 <_malloc_trim_r+0x38>
100049b8:	20000648 	.word	0x20000648
100049bc:	00000fef 	.word	0x00000fef
100049c0:	20000a90 	.word	0x20000a90
100049c4:	20000a50 	.word	0x20000a50

100049c8 <_free_r>:
100049c8:	b5f0      	push	{r4, r5, r6, r7, lr}
100049ca:	46c6      	mov	lr, r8
100049cc:	0005      	movs	r5, r0
100049ce:	000c      	movs	r4, r1
100049d0:	b500      	push	{lr}
100049d2:	2900      	cmp	r1, #0
100049d4:	d04f      	beq.n	10004a76 <_free_r+0xae>
100049d6:	f7ff ff59 	bl	1000488c <__malloc_lock>
100049da:	0021      	movs	r1, r4
100049dc:	3908      	subs	r1, #8
100049de:	684c      	ldr	r4, [r1, #4]
100049e0:	2601      	movs	r6, #1
100049e2:	0022      	movs	r2, r4
100049e4:	2003      	movs	r0, #3
100049e6:	43b2      	bics	r2, r6
100049e8:	188f      	adds	r7, r1, r2
100049ea:	687b      	ldr	r3, [r7, #4]
100049ec:	4383      	bics	r3, r0
100049ee:	4862      	ldr	r0, [pc, #392]	; (10004b78 <_free_r+0x1b0>)
100049f0:	4698      	mov	r8, r3
100049f2:	6883      	ldr	r3, [r0, #8]
100049f4:	42bb      	cmp	r3, r7
100049f6:	d06b      	beq.n	10004ad0 <_free_r+0x108>
100049f8:	4643      	mov	r3, r8
100049fa:	607b      	str	r3, [r7, #4]
100049fc:	4226      	tst	r6, r4
100049fe:	d11e      	bne.n	10004a3e <_free_r+0x76>
10004a00:	2308      	movs	r3, #8
10004a02:	469c      	mov	ip, r3
10004a04:	680c      	ldr	r4, [r1, #0]
10004a06:	4484      	add	ip, r0
10004a08:	1b09      	subs	r1, r1, r4
10004a0a:	1912      	adds	r2, r2, r4
10004a0c:	688c      	ldr	r4, [r1, #8]
10004a0e:	4564      	cmp	r4, ip
10004a10:	d04f      	beq.n	10004ab2 <_free_r+0xea>
10004a12:	68cb      	ldr	r3, [r1, #12]
10004a14:	60e3      	str	r3, [r4, #12]
10004a16:	609c      	str	r4, [r3, #8]
10004a18:	4643      	mov	r3, r8
10004a1a:	18fc      	adds	r4, r7, r3
10004a1c:	6864      	ldr	r4, [r4, #4]
10004a1e:	4234      	tst	r4, r6
10004a20:	d111      	bne.n	10004a46 <_free_r+0x7e>
10004a22:	68bb      	ldr	r3, [r7, #8]
10004a24:	4c55      	ldr	r4, [pc, #340]	; (10004b7c <_free_r+0x1b4>)
10004a26:	4442      	add	r2, r8
10004a28:	42a3      	cmp	r3, r4
10004a2a:	d100      	bne.n	10004a2e <_free_r+0x66>
10004a2c:	e07f      	b.n	10004b2e <_free_r+0x166>
10004a2e:	68fc      	ldr	r4, [r7, #12]
10004a30:	60dc      	str	r4, [r3, #12]
10004a32:	60a3      	str	r3, [r4, #8]
10004a34:	2301      	movs	r3, #1
10004a36:	4313      	orrs	r3, r2
10004a38:	604b      	str	r3, [r1, #4]
10004a3a:	508a      	str	r2, [r1, r2]
10004a3c:	e006      	b.n	10004a4c <_free_r+0x84>
10004a3e:	18fc      	adds	r4, r7, r3
10004a40:	6864      	ldr	r4, [r4, #4]
10004a42:	4234      	tst	r4, r6
10004a44:	d0ed      	beq.n	10004a22 <_free_r+0x5a>
10004a46:	4316      	orrs	r6, r2
10004a48:	604e      	str	r6, [r1, #4]
10004a4a:	603a      	str	r2, [r7, #0]
10004a4c:	2380      	movs	r3, #128	; 0x80
10004a4e:	009b      	lsls	r3, r3, #2
10004a50:	429a      	cmp	r2, r3
10004a52:	d213      	bcs.n	10004a7c <_free_r+0xb4>
10004a54:	0954      	lsrs	r4, r2, #5
10004a56:	08d3      	lsrs	r3, r2, #3
10004a58:	2201      	movs	r2, #1
10004a5a:	40a2      	lsls	r2, r4
10004a5c:	6844      	ldr	r4, [r0, #4]
10004a5e:	00db      	lsls	r3, r3, #3
10004a60:	4322      	orrs	r2, r4
10004a62:	6042      	str	r2, [r0, #4]
10004a64:	1818      	adds	r0, r3, r0
10004a66:	6883      	ldr	r3, [r0, #8]
10004a68:	60c8      	str	r0, [r1, #12]
10004a6a:	608b      	str	r3, [r1, #8]
10004a6c:	6081      	str	r1, [r0, #8]
10004a6e:	60d9      	str	r1, [r3, #12]
10004a70:	0028      	movs	r0, r5
10004a72:	f7ff ff13 	bl	1000489c <__malloc_unlock>
10004a76:	bc04      	pop	{r2}
10004a78:	4690      	mov	r8, r2
10004a7a:	bdf0      	pop	{r4, r5, r6, r7, pc}
10004a7c:	0a53      	lsrs	r3, r2, #9
10004a7e:	2b04      	cmp	r3, #4
10004a80:	d83f      	bhi.n	10004b02 <_free_r+0x13a>
10004a82:	0994      	lsrs	r4, r2, #6
10004a84:	0026      	movs	r6, r4
10004a86:	3439      	adds	r4, #57	; 0x39
10004a88:	3638      	adds	r6, #56	; 0x38
10004a8a:	00e4      	lsls	r4, r4, #3
10004a8c:	1904      	adds	r4, r0, r4
10004a8e:	6823      	ldr	r3, [r4, #0]
10004a90:	3c08      	subs	r4, #8
10004a92:	2703      	movs	r7, #3
10004a94:	429c      	cmp	r4, r3
10004a96:	d043      	beq.n	10004b20 <_free_r+0x158>
10004a98:	6858      	ldr	r0, [r3, #4]
10004a9a:	43b8      	bics	r0, r7
10004a9c:	4290      	cmp	r0, r2
10004a9e:	d902      	bls.n	10004aa6 <_free_r+0xde>
10004aa0:	689b      	ldr	r3, [r3, #8]
10004aa2:	429c      	cmp	r4, r3
10004aa4:	d1f8      	bne.n	10004a98 <_free_r+0xd0>
10004aa6:	68dc      	ldr	r4, [r3, #12]
10004aa8:	60cc      	str	r4, [r1, #12]
10004aaa:	608b      	str	r3, [r1, #8]
10004aac:	60a1      	str	r1, [r4, #8]
10004aae:	60d9      	str	r1, [r3, #12]
10004ab0:	e7de      	b.n	10004a70 <_free_r+0xa8>
10004ab2:	4643      	mov	r3, r8
10004ab4:	18f8      	adds	r0, r7, r3
10004ab6:	6840      	ldr	r0, [r0, #4]
10004ab8:	4230      	tst	r0, r6
10004aba:	d158      	bne.n	10004b6e <_free_r+0x1a6>
10004abc:	0013      	movs	r3, r2
10004abe:	68b8      	ldr	r0, [r7, #8]
10004ac0:	68fa      	ldr	r2, [r7, #12]
10004ac2:	4443      	add	r3, r8
10004ac4:	431e      	orrs	r6, r3
10004ac6:	60c2      	str	r2, [r0, #12]
10004ac8:	6090      	str	r0, [r2, #8]
10004aca:	604e      	str	r6, [r1, #4]
10004acc:	50cb      	str	r3, [r1, r3]
10004ace:	e7cf      	b.n	10004a70 <_free_r+0xa8>
10004ad0:	0013      	movs	r3, r2
10004ad2:	4443      	add	r3, r8
10004ad4:	4226      	tst	r6, r4
10004ad6:	d106      	bne.n	10004ae6 <_free_r+0x11e>
10004ad8:	680a      	ldr	r2, [r1, #0]
10004ada:	1a89      	subs	r1, r1, r2
10004adc:	688c      	ldr	r4, [r1, #8]
10004ade:	189b      	adds	r3, r3, r2
10004ae0:	68ca      	ldr	r2, [r1, #12]
10004ae2:	60e2      	str	r2, [r4, #12]
10004ae4:	6094      	str	r4, [r2, #8]
10004ae6:	2201      	movs	r2, #1
10004ae8:	431a      	orrs	r2, r3
10004aea:	604a      	str	r2, [r1, #4]
10004aec:	4a24      	ldr	r2, [pc, #144]	; (10004b80 <_free_r+0x1b8>)
10004aee:	6081      	str	r1, [r0, #8]
10004af0:	6812      	ldr	r2, [r2, #0]
10004af2:	429a      	cmp	r2, r3
10004af4:	d8bc      	bhi.n	10004a70 <_free_r+0xa8>
10004af6:	4b23      	ldr	r3, [pc, #140]	; (10004b84 <_free_r+0x1bc>)
10004af8:	0028      	movs	r0, r5
10004afa:	6819      	ldr	r1, [r3, #0]
10004afc:	f7ff ff16 	bl	1000492c <_malloc_trim_r>
10004b00:	e7b6      	b.n	10004a70 <_free_r+0xa8>
10004b02:	2b14      	cmp	r3, #20
10004b04:	d907      	bls.n	10004b16 <_free_r+0x14e>
10004b06:	2b54      	cmp	r3, #84	; 0x54
10004b08:	d81a      	bhi.n	10004b40 <_free_r+0x178>
10004b0a:	0b14      	lsrs	r4, r2, #12
10004b0c:	0026      	movs	r6, r4
10004b0e:	346f      	adds	r4, #111	; 0x6f
10004b10:	366e      	adds	r6, #110	; 0x6e
10004b12:	00e4      	lsls	r4, r4, #3
10004b14:	e7ba      	b.n	10004a8c <_free_r+0xc4>
10004b16:	001e      	movs	r6, r3
10004b18:	335c      	adds	r3, #92	; 0x5c
10004b1a:	365b      	adds	r6, #91	; 0x5b
10004b1c:	00dc      	lsls	r4, r3, #3
10004b1e:	e7b5      	b.n	10004a8c <_free_r+0xc4>
10004b20:	2201      	movs	r2, #1
10004b22:	10b6      	asrs	r6, r6, #2
10004b24:	40b2      	lsls	r2, r6
10004b26:	6846      	ldr	r6, [r0, #4]
10004b28:	4332      	orrs	r2, r6
10004b2a:	6042      	str	r2, [r0, #4]
10004b2c:	e7bc      	b.n	10004aa8 <_free_r+0xe0>
10004b2e:	60d9      	str	r1, [r3, #12]
10004b30:	6099      	str	r1, [r3, #8]
10004b32:	60cb      	str	r3, [r1, #12]
10004b34:	608b      	str	r3, [r1, #8]
10004b36:	2301      	movs	r3, #1
10004b38:	4313      	orrs	r3, r2
10004b3a:	604b      	str	r3, [r1, #4]
10004b3c:	508a      	str	r2, [r1, r2]
10004b3e:	e797      	b.n	10004a70 <_free_r+0xa8>
10004b40:	24aa      	movs	r4, #170	; 0xaa
10004b42:	0064      	lsls	r4, r4, #1
10004b44:	42a3      	cmp	r3, r4
10004b46:	d805      	bhi.n	10004b54 <_free_r+0x18c>
10004b48:	0bd4      	lsrs	r4, r2, #15
10004b4a:	0026      	movs	r6, r4
10004b4c:	3478      	adds	r4, #120	; 0x78
10004b4e:	3677      	adds	r6, #119	; 0x77
10004b50:	00e4      	lsls	r4, r4, #3
10004b52:	e79b      	b.n	10004a8c <_free_r+0xc4>
10004b54:	4c0c      	ldr	r4, [pc, #48]	; (10004b88 <_free_r+0x1c0>)
10004b56:	42a3      	cmp	r3, r4
10004b58:	d805      	bhi.n	10004b66 <_free_r+0x19e>
10004b5a:	0c94      	lsrs	r4, r2, #18
10004b5c:	0026      	movs	r6, r4
10004b5e:	347d      	adds	r4, #125	; 0x7d
10004b60:	367c      	adds	r6, #124	; 0x7c
10004b62:	00e4      	lsls	r4, r4, #3
10004b64:	e792      	b.n	10004a8c <_free_r+0xc4>
10004b66:	24fe      	movs	r4, #254	; 0xfe
10004b68:	267e      	movs	r6, #126	; 0x7e
10004b6a:	00a4      	lsls	r4, r4, #2
10004b6c:	e78e      	b.n	10004a8c <_free_r+0xc4>
10004b6e:	0033      	movs	r3, r6
10004b70:	4313      	orrs	r3, r2
10004b72:	604b      	str	r3, [r1, #4]
10004b74:	603a      	str	r2, [r7, #0]
10004b76:	e77b      	b.n	10004a70 <_free_r+0xa8>
10004b78:	20000648 	.word	0x20000648
10004b7c:	20000650 	.word	0x20000650
10004b80:	20000a54 	.word	0x20000a54
10004b84:	20000ac0 	.word	0x20000ac0
10004b88:	00000554 	.word	0x00000554

10004b8c <__retarget_lock_acquire_recursive>:
10004b8c:	4770      	bx	lr
10004b8e:	46c0      	nop			; (mov r8, r8)

10004b90 <__retarget_lock_release_recursive>:
10004b90:	4770      	bx	lr
10004b92:	46c0      	nop			; (mov r8, r8)

10004b94 <_fini>:
10004b94:	b5f8      	push	{r3, r4, r5, r6, r7, lr}
10004b96:	46c0      	nop			; (mov r8, r8)

10004b98 <__mutex_exit_veneer>:
10004b98:	b401      	push	{r0}
10004b9a:	4802      	ldr	r0, [pc, #8]	; (10004ba4 <__mutex_exit_veneer+0xc>)
10004b9c:	4684      	mov	ip, r0
10004b9e:	bc01      	pop	{r0}
10004ba0:	4760      	bx	ip
10004ba2:	bf00      	nop
10004ba4:	2000015d 	.word	0x2000015d

10004ba8 <____aeabi_ldiv0_veneer>:
10004ba8:	b401      	push	{r0}
10004baa:	4802      	ldr	r0, [pc, #8]	; (10004bb4 <____aeabi_ldiv0_veneer+0xc>)
10004bac:	4684      	mov	ip, r0
10004bae:	bc01      	pop	{r0}
10004bb0:	4760      	bx	ip
10004bb2:	bf00      	nop
10004bb4:	20000185 	.word	0x20000185

10004bb8 <____aeabi_idiv0_veneer>:
10004bb8:	b401      	push	{r0}
10004bba:	4802      	ldr	r0, [pc, #8]	; (10004bc4 <____aeabi_idiv0_veneer+0xc>)
10004bbc:	4684      	mov	ip, r0
10004bbe:	bc01      	pop	{r0}
10004bc0:	4760      	bx	ip
10004bc2:	bf00      	nop
10004bc4:	20000185 	.word	0x20000185

10004bc8 <__mutex_try_enter_veneer>:
10004bc8:	b401      	push	{r0}
10004bca:	4802      	ldr	r0, [pc, #8]	; (10004bd4 <__mutex_try_enter_veneer+0xc>)
10004bcc:	4684      	mov	ip, r0
10004bce:	bc01      	pop	{r0}
10004bd0:	4760      	bx	ip
10004bd2:	bf00      	nop
10004bd4:	20000111 	.word	0x20000111

10004bd8 <__mutex_enter_blocking_veneer>:
10004bd8:	b401      	push	{r0}
10004bda:	4802      	ldr	r0, [pc, #8]	; (10004be4 <__mutex_enter_blocking_veneer+0xc>)
10004bdc:	4684      	mov	ip, r0
10004bde:	bc01      	pop	{r0}
10004be0:	4760      	bx	ip
10004be2:	bf00      	nop
10004be4:	200000c1 	.word	0x200000c1

Disassembly of section .data:

200000c0 <mutex_enter_blocking>:
200000c0:	b510      	push	{r4, lr}
200000c2:	6802      	ldr	r2, [r0, #0]
200000c4:	2400      	movs	r4, #0
200000c6:	f3ef 8110 	mrs	r1, PRIMASK
200000ca:	b672      	cpsid	i
200000cc:	6813      	ldr	r3, [r2, #0]
200000ce:	2b00      	cmp	r3, #0
200000d0:	d0fc      	beq.n	200000cc <mutex_enter_blocking+0xc>
200000d2:	f3bf 8f5f 	dmb	sy
200000d6:	7903      	ldrb	r3, [r0, #4]
200000d8:	2b00      	cmp	r3, #0
200000da:	d00b      	beq.n	200000f4 <mutex_enter_blocking+0x34>
200000dc:	6803      	ldr	r3, [r0, #0]
200000de:	f3bf 8f5f 	dmb	sy
200000e2:	601c      	str	r4, [r3, #0]
200000e4:	f381 8810 	msr	PRIMASK, r1
200000e8:	bf20      	wfe
200000ea:	6802      	ldr	r2, [r0, #0]
200000ec:	f3ef 8110 	mrs	r1, PRIMASK
200000f0:	b672      	cpsid	i
200000f2:	e7eb      	b.n	200000cc <mutex_enter_blocking+0xc>
200000f4:	2201      	movs	r2, #1
200000f6:	7102      	strb	r2, [r0, #4]
200000f8:	22d0      	movs	r2, #208	; 0xd0
200000fa:	0612      	lsls	r2, r2, #24
200000fc:	6812      	ldr	r2, [r2, #0]
200000fe:	7142      	strb	r2, [r0, #5]
20000100:	6802      	ldr	r2, [r0, #0]
20000102:	f3bf 8f5f 	dmb	sy
20000106:	6013      	str	r3, [r2, #0]
20000108:	f381 8810 	msr	PRIMASK, r1
2000010c:	bd10      	pop	{r4, pc}
2000010e:	46c0      	nop			; (mov r8, r8)

20000110 <mutex_try_enter>:
20000110:	0003      	movs	r3, r0
20000112:	b510      	push	{r4, lr}
20000114:	6800      	ldr	r0, [r0, #0]
20000116:	f3ef 8410 	mrs	r4, PRIMASK
2000011a:	b672      	cpsid	i
2000011c:	6802      	ldr	r2, [r0, #0]
2000011e:	2a00      	cmp	r2, #0
20000120:	d0fc      	beq.n	2000011c <mutex_try_enter+0xc>
20000122:	f3bf 8f5f 	dmb	sy
20000126:	791a      	ldrb	r2, [r3, #4]
20000128:	2a00      	cmp	r2, #0
2000012a:	d00d      	beq.n	20000148 <mutex_try_enter+0x38>
2000012c:	2900      	cmp	r1, #0
2000012e:	d013      	beq.n	20000158 <mutex_try_enter+0x48>
20000130:	2205      	movs	r2, #5
20000132:	2000      	movs	r0, #0
20000134:	569a      	ldrsb	r2, [r3, r2]
20000136:	600a      	str	r2, [r1, #0]
20000138:	681b      	ldr	r3, [r3, #0]
2000013a:	f3bf 8f5f 	dmb	sy
2000013e:	2200      	movs	r2, #0
20000140:	601a      	str	r2, [r3, #0]
20000142:	f384 8810 	msr	PRIMASK, r4
20000146:	bd10      	pop	{r4, pc}
20000148:	3201      	adds	r2, #1
2000014a:	711a      	strb	r2, [r3, #4]
2000014c:	22d0      	movs	r2, #208	; 0xd0
2000014e:	0612      	lsls	r2, r2, #24
20000150:	6812      	ldr	r2, [r2, #0]
20000152:	2001      	movs	r0, #1
20000154:	715a      	strb	r2, [r3, #5]
20000156:	e7ef      	b.n	20000138 <mutex_try_enter+0x28>
20000158:	2000      	movs	r0, #0
2000015a:	e7ed      	b.n	20000138 <mutex_try_enter+0x28>

2000015c <mutex_exit>:
2000015c:	6802      	ldr	r2, [r0, #0]
2000015e:	f3ef 8110 	mrs	r1, PRIMASK
20000162:	b672      	cpsid	i
20000164:	6813      	ldr	r3, [r2, #0]
20000166:	2b00      	cmp	r3, #0
20000168:	d0fc      	beq.n	20000164 <mutex_exit+0x8>
2000016a:	f3bf 8f5f 	dmb	sy
2000016e:	2300      	movs	r3, #0
20000170:	7103      	strb	r3, [r0, #4]
20000172:	bf40      	sev
20000174:	6802      	ldr	r2, [r0, #0]
20000176:	f3bf 8f5f 	dmb	sy
2000017a:	6013      	str	r3, [r2, #0]
2000017c:	f381 8810 	msr	PRIMASK, r1
20000180:	4770      	bx	lr
20000182:	46c0      	nop			; (mov r8, r8)

20000184 <__aeabi_idiv0>:
20000184:	4770      	bx	lr
20000186:	46c0      	nop			; (mov r8, r8)

20000188 <striped_spin_lock_num>:
20000188:	0010 0000                                   ....

2000018c <irq_handler_chain_slots>:
2000018c:	00000000 	.word	0x00000000
20000190:	00010000 	.word	0x00010000
	...
2000019c:	00020000 	.word	0x00020000
	...
200001a8:	00030000 	.word	0x00030000
	...
200001b4:	00ff0000 	.word	0x00ff0000
200001b8:	00000000 	.word	0x00000000

200001bc <irq_handler_chain_first_slot>:
200001bc:	b500      	push	{lr}
200001be:	6848      	ldr	r0, [r1, #4]
200001c0:	3101      	adds	r1, #1
200001c2:	468e      	mov	lr, r1
200001c4:	4700      	bx	r0

200001c6 <irq_handler_chain_remove_tail>:
200001c6:	4670      	mov	r0, lr
200001c8:	3809      	subs	r0, #9
200001ca:	4901      	ldr	r1, [pc, #4]	; (200001d0 <irq_handler_chain_remove_tail+0xa>)
200001cc:	4788      	blx	r1
200001ce:	bd00      	pop	{pc}
200001d0:	10001771 	.word	0x10001771
	...

200001e0 <aeabi_bits_funcs>:
200001e0:	00003350 	.word	0x00003350
200001e4:	0000334c 	.word	0x0000334c
200001e8:	00003354 	.word	0x00003354
200001ec:	00003352 	.word	0x00003352

200001f0 <aeabi_bits_funcs_end>:
200001f0:	0000534d 	.word	0x0000534d
200001f4:	0000434d 	.word	0x0000434d
200001f8:	00003453 	.word	0x00003453
200001fc:	00003443 	.word	0x00003443

20000200 <stdio_uart>:
20000200:	10004085 00000000 100040c1 00000000     .@.......@......
20000210:	00000100                                ....

20000214 <i2c0_inst>:
20000214:	40044000 00000000                       .@.@....

2000021c <_impure_ptr>:
2000021c:	20000220                                 .. 

20000220 <impure_data>:
20000220:	00000000 2000050c 20000574 200005dc     ....... t.. ... 
	...
200002c8:	00000001 00000000 abcd330e e66d1234     .........3..4.m.
200002d8:	0005deec 0000000b 00000000 00000000     ................
	...

20000648 <__malloc_av_>:
	...
20000650:	20000648 20000648 20000650 20000650     H.. H.. P.. P.. 
20000660:	20000658 20000658 20000660 20000660     X.. X.. `.. `.. 
20000670:	20000668 20000668 20000670 20000670     h.. h.. p.. p.. 
20000680:	20000678 20000678 20000680 20000680     x.. x.. ... ... 
20000690:	20000688 20000688 20000690 20000690     ... ... ... ... 
200006a0:	20000698 20000698 200006a0 200006a0     ... ... ... ... 
200006b0:	200006a8 200006a8 200006b0 200006b0     ... ... ... ... 
200006c0:	200006b8 200006b8 200006c0 200006c0     ... ... ... ... 
200006d0:	200006c8 200006c8 200006d0 200006d0     ... ... ... ... 
200006e0:	200006d8 200006d8 200006e0 200006e0     ... ... ... ... 
200006f0:	200006e8 200006e8 200006f0 200006f0     ... ... ... ... 
20000700:	200006f8 200006f8 20000700 20000700     ... ... ... ... 
20000710:	20000708 20000708 20000710 20000710     ... ... ... ... 
20000720:	20000718 20000718 20000720 20000720     ... ...  ..  .. 
20000730:	20000728 20000728 20000730 20000730     (.. (.. 0.. 0.. 
20000740:	20000738 20000738 20000740 20000740     8.. 8.. @.. @.. 
20000750:	20000748 20000748 20000750 20000750     H.. H.. P.. P.. 
20000760:	20000758 20000758 20000760 20000760     X.. X.. `.. `.. 
20000770:	20000768 20000768 20000770 20000770     h.. h.. p.. p.. 
20000780:	20000778 20000778 20000780 20000780     x.. x.. ... ... 
20000790:	20000788 20000788 20000790 20000790     ... ... ... ... 
200007a0:	20000798 20000798 200007a0 200007a0     ... ... ... ... 
200007b0:	200007a8 200007a8 200007b0 200007b0     ... ... ... ... 
200007c0:	200007b8 200007b8 200007c0 200007c0     ... ... ... ... 
200007d0:	200007c8 200007c8 200007d0 200007d0     ... ... ... ... 
200007e0:	200007d8 200007d8 200007e0 200007e0     ... ... ... ... 
200007f0:	200007e8 200007e8 200007f0 200007f0     ... ... ... ... 
20000800:	200007f8 200007f8 20000800 20000800     ... ... ... ... 
20000810:	20000808 20000808 20000810 20000810     ... ... ... ... 
20000820:	20000818 20000818 20000820 20000820     ... ...  ..  .. 
20000830:	20000828 20000828 20000830 20000830     (.. (.. 0.. 0.. 
20000840:	20000838 20000838 20000840 20000840     8.. 8.. @.. @.. 
20000850:	20000848 20000848 20000850 20000850     H.. H.. P.. P.. 
20000860:	20000858 20000858 20000860 20000860     X.. X.. `.. `.. 
20000870:	20000868 20000868 20000870 20000870     h.. h.. p.. p.. 
20000880:	20000878 20000878 20000880 20000880     x.. x.. ... ... 
20000890:	20000888 20000888 20000890 20000890     ... ... ... ... 
200008a0:	20000898 20000898 200008a0 200008a0     ... ... ... ... 
200008b0:	200008a8 200008a8 200008b0 200008b0     ... ... ... ... 
200008c0:	200008b8 200008b8 200008c0 200008c0     ... ... ... ... 
200008d0:	200008c8 200008c8 200008d0 200008d0     ... ... ... ... 
200008e0:	200008d8 200008d8 200008e0 200008e0     ... ... ... ... 
200008f0:	200008e8 200008e8 200008f0 200008f0     ... ... ... ... 
20000900:	200008f8 200008f8 20000900 20000900     ... ... ... ... 
20000910:	20000908 20000908 20000910 20000910     ... ... ... ... 
20000920:	20000918 20000918 20000920 20000920     ... ...  ..  .. 
20000930:	20000928 20000928 20000930 20000930     (.. (.. 0.. 0.. 
20000940:	20000938 20000938 20000940 20000940     8.. 8.. @.. @.. 
20000950:	20000948 20000948 20000950 20000950     H.. H.. P.. P.. 
20000960:	20000958 20000958 20000960 20000960     X.. X.. `.. `.. 
20000970:	20000968 20000968 20000970 20000970     h.. h.. p.. p.. 
20000980:	20000978 20000978 20000980 20000980     x.. x.. ... ... 
20000990:	20000988 20000988 20000990 20000990     ... ... ... ... 
200009a0:	20000998 20000998 200009a0 200009a0     ... ... ... ... 
200009b0:	200009a8 200009a8 200009b0 200009b0     ... ... ... ... 
200009c0:	200009b8 200009b8 200009c0 200009c0     ... ... ... ... 
200009d0:	200009c8 200009c8 200009d0 200009d0     ... ... ... ... 
200009e0:	200009d8 200009d8 200009e0 200009e0     ... ... ... ... 
200009f0:	200009e8 200009e8 200009f0 200009f0     ... ... ... ... 
20000a00:	200009f8 200009f8 20000a00 20000a00     ... ... ... ... 
20000a10:	20000a08 20000a08 20000a10 20000a10     ... ... ... ... 
20000a20:	20000a18 20000a18 20000a20 20000a20     ... ...  ..  .. 
20000a30:	20000a28 20000a28 20000a30 20000a30     (.. (.. 0.. 0.. 
20000a40:	20000a38 20000a38 20000a40 20000a40     8.. 8.. @.. @.. 

20000a50 <__malloc_sbrk_base>:
20000a50:	ffffffff                                ....

20000a54 <__malloc_trim_threshold>:
20000a54:	00020000                                ....

20000a58 <print_mutex>:
	...

20000a60 <__mutex_array_end>:
20000a60:	10003cc5 	.word	0x10003cc5
20000a64:	10002ead 	.word	0x10002ead
20000a68:	100035a1 	.word	0x100035a1
20000a6c:	10003c25 	.word	0x10003c25

20000a70 <__frame_dummy_init_array_entry>:
20000a70:	10000301                                ....
